(lp1
(lp2
(lp3
a(lp4
a(lp5
aa(lp6
(lp7
a(lp8
a(lp9
aa(lp10
(lp11
a(lp12
a(lp13
aa(lp14
(lp15
a(lp16
((lp17
Vhttp://www.w3.org/2002/07/owl#Thing
p18
aVhttp://www.wikidata.org/entity/Q19088
p19
aVhttp://www.wikidata.org/entity/Q756
p20
aVhttp://dbpedia.org/ontology/ClubMoss
p21
aVhttp://dbpedia.org/ontology/Eukaryote
p22
aVhttp://dbpedia.org/ontology/Plant
p23
aVhttp://dbpedia.org/ontology/Species
p24
aVhttp://umbel.org/umbel/rc/Moss
p25
aVhttp://dbpedia.org/resource/Diphasiastrum_digitatum
tp26
aa(lp27
aa(lp28
(lp29
a(lp30
((lp31
Vhttp://www.w3.org/2002/07/owl#Thing
p32
aVhttp://www.wikidata.org/entity/Q19088
p33
aVhttp://www.wikidata.org/entity/Q756
p34
aVhttp://dbpedia.org/ontology/ClubMoss
p35
aVhttp://dbpedia.org/ontology/Eukaryote
p36
aVhttp://dbpedia.org/ontology/Plant
p37
aVhttp://dbpedia.org/ontology/Species
p38
aVhttp://umbel.org/umbel/rc/Moss
p39
aVhttp://umbel.org/umbel/rc/Plant
p40
aVhttp://dbpedia.org/resource/Huperzia_porophila
tp41
aa(lp42
aa(lp43
(lp44
a(lp45
((lp46
Vhttp://www.w3.org/2002/07/owl#Thing
p47
aVhttp://www.wikidata.org/entity/Q19088
p48
aVhttp://www.wikidata.org/entity/Q756
p49
aVhttp://dbpedia.org/ontology/ClubMoss
p50
aVhttp://dbpedia.org/ontology/Eukaryote
p51
aVhttp://dbpedia.org/ontology/Plant
p52
aVhttp://dbpedia.org/ontology/Species
p53
aVhttp://umbel.org/umbel/rc/Moss
p54
aVhttp://dbpedia.org/resource/Isoetes_engelmannii
tp55
aa(lp56
aa(lp57
(lp58
a(lp59
a(lp60
aa(lp61
(lp62
a(lp63
a(lp64
aa(lp65
(lp66
a(lp67
((lp68
Vhttp://www.w3.org/2002/07/owl#Thing
p69
aVhttp://www.wikidata.org/entity/Q19088
p70
aVhttp://www.wikidata.org/entity/Q756
p71
aVhttp://dbpedia.org/ontology/ClubMoss
p72
aVhttp://dbpedia.org/ontology/Eukaryote
p73
aVhttp://dbpedia.org/ontology/Plant
p74
aVhttp://dbpedia.org/ontology/Species
p75
aVhttp://dbpedia.org/resource/Selaginella_densa
tp76
aa(lp77
aa(lp78
(lp79
a(lp80
((lp81
Vhttp://dbpedia.org/class/yago/Abstraction100002137
p82
aVhttp://dbpedia.org/class/yago/Arrangement107938773
p83
aVhttp://dbpedia.org/class/yago/Group100031264
p84
aVhttp://dbpedia.org/class/yago/Ordering108456993
p85
aVhttp://dbpedia.org/class/yago/SequencedGenomes
p86
aVhttp://www.w3.org/2002/07/owl#Thing
p87
aVhttp://www.wikidata.org/entity/Q19088
p88
aVhttp://www.wikidata.org/entity/Q756
p89
aVhttp://dbpedia.org/ontology/ClubMoss
p90
aVhttp://dbpedia.org/ontology/Eukaryote
p91
aVhttp://dbpedia.org/ontology/Plant
p92
aVhttp://dbpedia.org/ontology/Species
p93
aVhttp://umbel.org/umbel/rc/Moss
p94
aVhttp://dbpedia.org/class/yago/Genome108457543
p95
aVhttp://dbpedia.org/resource/Selaginella_moellendorffii
tp96
aa(lp97
aa(lp98
(lp99
a(lp100
a(lp101
aa(lp102
(lp103
a(lp104
((lp105
Vhttp://dbpedia.org/class/yago/LivingThing100004258
p106
aVhttp://dbpedia.org/class/yago/Object100002684
p107
aVhttp://dbpedia.org/class/yago/Organism100004475
p108
aVhttp://dbpedia.org/class/yago/Plant100017222
p109
aVhttp://dbpedia.org/class/yago/Whole100003553
p110
aVhttp://www.w3.org/2002/07/owl#Thing
p111
aVhttp://www.wikidata.org/entity/Q19088
p112
aVhttp://www.wikidata.org/entity/Q756
p113
aVhttp://dbpedia.org/ontology/ClubMoss
p114
aVhttp://dbpedia.org/ontology/Eukaryote
p115
aVhttp://dbpedia.org/ontology/Plant
p116
aVhttp://dbpedia.org/ontology/Species
p117
aVhttp://umbel.org/umbel/rc/Moss
p118
aVhttp://dbpedia.org/class/yago/PhysicalEntity100001930
p119
aVhttp://dbpedia.org/class/yago/VulnerablePlants
p120
aVhttp://dbpedia.org/resource/Selaginella_carinata
tp121
aa(lp122
aa(lp123
(lp124
a(lp125
((lp126
Vhttp://dbpedia.org/class/yago/LivingThing100004258
p127
aVhttp://dbpedia.org/class/yago/Object100002684
p128
aVhttp://dbpedia.org/class/yago/Organism100004475
p129
aVhttp://dbpedia.org/class/yago/Plant100017222
p130
aVhttp://dbpedia.org/class/yago/Whole100003553
p131
aVhttp://www.w3.org/2002/07/owl#Thing
p132
aVhttp://www.wikidata.org/entity/Q19088
p133
aVhttp://www.wikidata.org/entity/Q756
p134
aVhttp://dbpedia.org/ontology/ClubMoss
p135
aVhttp://dbpedia.org/ontology/Eukaryote
p136
aVhttp://dbpedia.org/ontology/Plant
p137
aVhttp://dbpedia.org/ontology/Species
p138
aVhttp://umbel.org/umbel/rc/Moss
p139
aVhttp://dbpedia.org/class/yago/NearThreatenedPlants
p140
aVhttp://dbpedia.org/class/yago/PhysicalEntity100001930
p141
aVhttp://dbpedia.org/resource/Selaginella_sericea
tp142
aa(lp143
aa(lp144
(lp145
a(lp146
((lp147
Vhttp://www.w3.org/2002/07/owl#Thing
p148
aVhttp://www.wikidata.org/entity/Q19088
p149
aVhttp://www.wikidata.org/entity/Q756
p150
aVhttp://dbpedia.org/ontology/ClubMoss
p151
aVhttp://dbpedia.org/ontology/Eukaryote
p152
aVhttp://dbpedia.org/ontology/Plant
p153
aVhttp://dbpedia.org/ontology/Species
p154
aVhttp://dbpedia.org/resource/Selaginella_elmeri
tp155
aa(lp156
aa(lp157
(lp158
a(lp159
((lp160
Vhttp://www.w3.org/2002/07/owl#Thing
p161
aVhttp://www.wikidata.org/entity/Q19088
p162
aVhttp://www.wikidata.org/entity/Q756
p163
aVhttp://dbpedia.org/ontology/ClubMoss
p164
aVhttp://dbpedia.org/ontology/Eukaryote
p165
aVhttp://dbpedia.org/ontology/Plant
p166
aVhttp://dbpedia.org/ontology/Species
p167
aVhttp://umbel.org/umbel/rc/BiologicalLivingObject
p168
aVhttp://umbel.org/umbel/rc/EukaryoticCell
p169
aVhttp://umbel.org/umbel/rc/Moss
p170
aVhttp://umbel.org/umbel/rc/Plant
p171
aVhttp://dbpedia.org/resource/Huperzia
tp172
aa(lp173
aa(lp174
(lp175
a(lp176
((lp177
Vhttp://dbpedia.org/class/yago/Abstraction100002137
p178
aVhttp://dbpedia.org/class/yago/BiologicalGroup107941170
p179
aVhttp://dbpedia.org/class/yago/Family108107499
p180
aVhttp://dbpedia.org/class/yago/Group100031264
p181
aVhttp://www.w3.org/2002/07/owl#Thing
p182
aVhttp://www.wikidata.org/entity/Q19088
p183
aVhttp://www.wikidata.org/entity/Q756
p184
aVhttp://dbpedia.org/ontology/ClubMoss
p185
aVhttp://dbpedia.org/ontology/Eukaryote
p186
aVhttp://dbpedia.org/ontology/Plant
p187
aVhttp://dbpedia.org/ontology/Species
p188
aVhttp://umbel.org/umbel/rc/Moss
p189
aVhttp://dbpedia.org/class/yago/PlantFamilies
p190
aVhttp://dbpedia.org/class/yago/PlantFamily111744583
p191
aVhttp://dbpedia.org/class/yago/TaxonomicGroup107992450
p192
aVhttp://dbpedia.org/resource/Huperziaceae
tp193
aa(lp194
aa(lp195
(lp196
a(lp197
((lp198
Vhttp://dbpedia.org/class/yago/Abstraction100002137
p199
aVhttp://dbpedia.org/class/yago/BiologicalGroup107941170
p200
aVhttp://dbpedia.org/class/yago/Family108107499
p201
aVhttp://dbpedia.org/class/yago/Group100031264
p202
aVhttp://www.w3.org/2002/07/owl#Thing
p203
aVhttp://www.wikidata.org/entity/Q19088
p204
aVhttp://www.wikidata.org/entity/Q756
p205
aVhttp://dbpedia.org/ontology/ClubMoss
p206
aVhttp://dbpedia.org/ontology/Eukaryote
p207
aVhttp://dbpedia.org/ontology/Plant
p208
aVhttp://dbpedia.org/ontology/Species
p209
aVhttp://umbel.org/umbel/rc/Moss
p210
aVhttp://dbpedia.org/class/yago/PlantFamilies
p211
aVhttp://dbpedia.org/class/yago/PlantFamily111744583
p212
aVhttp://dbpedia.org/class/yago/TaxonomicGroup107992450
p213
aVhttp://dbpedia.org/resource/Lycopodiaceae
tp214
aa(lp215
aa(lp216
(lp217
a(lp218
((lp219
Vhttp://www.w3.org/2002/07/owl#Thing
p220
aVhttp://www.wikidata.org/entity/Q19088
p221
aVhttp://www.wikidata.org/entity/Q756
p222
aVhttp://dbpedia.org/ontology/ClubMoss
p223
aVhttp://dbpedia.org/ontology/Eukaryote
p224
aVhttp://dbpedia.org/ontology/Plant
p225
aVhttp://dbpedia.org/ontology/Species
p226
aVhttp://dbpedia.org/resource/Selaginella_denticulata
tp227
aa(lp228
aa(lp229
(lp230
a(lp231
((lp232
Vhttp://www.w3.org/2002/07/owl#Thing
p233
aVhttp://www.wikidata.org/entity/Q19088
p234
aVhttp://www.wikidata.org/entity/Q756
p235
aVhttp://dbpedia.org/ontology/ClubMoss
p236
aVhttp://dbpedia.org/ontology/Eukaryote
p237
aVhttp://dbpedia.org/ontology/Plant
p238
aVhttp://dbpedia.org/ontology/Species
p239
aVhttp://dbpedia.org/resource/Huperzia_varia
p240
tp241
aa(lp242
aa.