(lp1
(lp2
(lp3
a(lp4
aa(lp5
(lp6
a(lp7
aa(lp8
(lp9
Vhttp://dbpedia.org/resource/Mohammad_al-Hussein
p10
aa(lp11
aa(lp12
(lp13
a(lp14
aa(lp15
(lp16
a(lp17
aa(lp18
(lp19
a(lp20
aa(lp21
(lp22
a(lp23
aa(lp24
(lp25
a(lp26
aa(lp27
(lp28
a(lp29
aa(lp30
(lp31
a(lp32
aa(lp33
(lp34
a(lp35
aa(lp36
(lp37
a(lp38
aa(lp39
(lp40
a(lp41
aa(lp42
(lp43
a(lp44
aa(lp45
(lp46
a(lp47
aa(lp48
(lp49
Vhttp://dbpedia.org/resource/Sergei_Galkin
p50
aa(lp51
aa(lp52
(lp53
Vhttp://dbpedia.org/resource/Sergei_Belov
p54
aa(lp55
aa.