(lp1
(lp2
(lp3
a(lp4
a(lp5
a(lp6
a(lp7
a(lp8
a(lp9
aa(lp10
(lp11
a(lp12
a(lp13
a(lp14
a(lp15
a(lp16
a(lp17
aa(lp18
(lp19
a(lp20
a(lp21
a(lp22
a(lp23
a(lp24
a(lp25
aa(lp26
(lp27
a(lp28
a(lp29
a(lp30
a(lp31
a(lp32
a(lp33
aa(lp34
(lp35
a(lp36
a(lp37
a(lp38
a(lp39
a(lp40
a(lp41
aa(lp42
(lp43
a(lp44
a(lp45
a(lp46
((lp47
Vhttp://dbpedia.org/class/yago/Animal100015388
p48
aVhttp://dbpedia.org/class/yago/Arthropod101767661
p49
aVhttp://dbpedia.org/class/yago/Insect102159955
p50
aVhttp://dbpedia.org/class/yago/Invertebrate101905661
p51
aVhttp://dbpedia.org/class/yago/LivingThing100004258
p52
aVhttp://dbpedia.org/class/yago/Object100002684
p53
aVhttp://dbpedia.org/class/yago/Organism100004475
p54
aVhttp://dbpedia.org/class/yago/Whole100003553
p55
aVhttp://www.w3.org/2002/07/owl#Thing
p56
aVhttp://www.wikidata.org/entity/Q1390
p57
aVhttp://www.wikidata.org/entity/Q19088
p58
aVhttp://www.wikidata.org/entity/Q729
p59
aVhttp://dbpedia.org/ontology/Animal
p60
aVhttp://dbpedia.org/ontology/Eukaryote
p61
aVhttp://dbpedia.org/ontology/Insect
p62
aVhttp://dbpedia.org/ontology/Species
p63
aVhttp://umbel.org/umbel/rc/Animal
p64
aVhttp://umbel.org/umbel/rc/Insect
p65
aVhttp://dbpedia.org/class/yago/Cockroaches
p66
aVhttp://dbpedia.org/class/yago/Cockroach102233338
p67
aVhttp://dbpedia.org/class/yago/DictyopterousInsect102232951
p68
aVhttp://dbpedia.org/class/yago/PhysicalEntity100001930
p69
aVhttp://dbpedia.org/resource/Death's_head_cockroach
tp70
aa(lp71
a(lp72
a(lp73
aa(lp74
(lp75
a(lp76
a(lp77
a(lp78
a(lp79
a(lp80
a(lp81
aa(lp82
(lp83
a(lp84
a(lp85
a(lp86
a(lp87
a(lp88
a(lp89
aa(lp90
(lp91
a(lp92
a(lp93
a(lp94
a(lp95
a(lp96
a(lp97
aa(lp98
(lp99
a(lp100
a(lp101
a(lp102
a(lp103
a(lp104
a(lp105
aa(lp106
(lp107
a(lp108
a(lp109
a(lp110
a(lp111
a(lp112
a(lp113
aa(lp114
(lp115
a(lp116
a(lp117
a(lp118
((lp119
Vhttp://dbpedia.org/class/yago/ArchaeologicalSitesInSouthAfrica
p120
aVhttp://dbpedia.org/class/yago/Cave109238926
p121
aVhttp://dbpedia.org/class/yago/GeologicalFormation109287968
p122
aVhttp://dbpedia.org/class/yago/Location100027167
p123
aVhttp://dbpedia.org/class/yago/Object100002684
p124
aVhttp://dbpedia.org/class/yago/Region108630985
p125
aVhttp://dbpedia.org/class/yago/Site108651247
p126
aVhttp://dbpedia.org/class/yago/Tract108673395
p127
aVhttp://dbpedia.org/class/yago/YagoGeoEntity
p128
aVhttp://dbpedia.org/class/yago/YagoLegalActorGeo
p129
aVhttp://www.w3.org/2002/07/owl#Thing
p130
aVhttp://dbpedia.org/ontology/Place
p131
aVhttp://dbpedia.org/ontology/Location
p132
aVhttp://www.wikidata.org/entity/Q35509
p133
aVhttp://dbpedia.org/ontology/Cave
p134
aVhttp://dbpedia.org/ontology/NaturalPlace
p135
aVhttp://schema.org/Place
p136
aVhttp://dbpedia.org/class/yago/CavesOfSouthAfrica
p137
aVhttp://dbpedia.org/class/yago/YagoPermanentlyLocatedEntity
p138
aVhttp://dbpedia.org/class/yago/PaleoanthropologicalSites
p139
aVhttp://dbpedia.org/class/yago/GeographicalArea108574314
p140
aVhttp://dbpedia.org/class/yago/LimestoneCaves
p141
aVhttp://dbpedia.org/class/yago/PhysicalEntity100001930
p142
aVhttp://dbpedia.org/resource/Blombos_Cave
tp143
aa(lp144
a(lp145
a(lp146
aa(lp147
(lp148
a(lp149
a(lp150
a(lp151
((lp152
Vhttp://www.w3.org/2002/07/owl#Thing
p153
aVhttp://dbpedia.org/ontology/Place
p154
aVhttp://dbpedia.org/ontology/Location
p155
aVhttp://www.wikidata.org/entity/Q35509
p156
aVhttp://dbpedia.org/ontology/Cave
p157
aVhttp://dbpedia.org/ontology/NaturalPlace
p158
aVhttp://www.w3.org/2003/01/geo/wgs84_pos#SpatialThing
p159
aVhttp://schema.org/Place
p160
aVhttp://dbpedia.org/resource/Cave_Stream
tp161
aa(lp162
a(lp163
a(lp164
aa(lp165
(lp166
a(lp167
a(lp168
a(lp169
((lp170
Vhttp://dbpedia.org/class/yago/Cave109238926
p171
aVhttp://dbpedia.org/class/yago/GeologicalFormation109287968
p172
aVhttp://dbpedia.org/class/yago/Object100002684
p173
aVhttp://dbpedia.org/class/yago/YagoGeoEntity
p174
aVhttp://www.w3.org/2002/07/owl#Thing
p175
aVhttp://dbpedia.org/ontology/Place
p176
aVhttp://dbpedia.org/ontology/Location
p177
aVhttp://www.wikidata.org/entity/Q35509
p178
aVhttp://dbpedia.org/ontology/Cave
p179
aVhttp://dbpedia.org/ontology/NaturalPlace
p180
aVhttp://schema.org/Place
p181
aVhttp://dbpedia.org/class/yago/CavesOfMalaysia
p182
aVhttp://dbpedia.org/class/yago/YagoPermanentlyLocatedEntity
p183
aVhttp://dbpedia.org/class/yago/LimestoneCaves
p184
aVhttp://dbpedia.org/class/yago/PhysicalEntity100001930
p185
aVhttp://dbpedia.org/resource/Gomantong_Caves
tp186
aa(lp187
a(lp188
a(lp189
aa(lp190
(lp191
a(lp192
a(lp193
a(lp194
((lp195
Vhttp://dbpedia.org/class/yago/BodyOfWater109225146
p196
aVhttp://dbpedia.org/class/yago/River109411430
p197
aVhttp://dbpedia.org/class/yago/Stream109448361
p198
aVhttp://dbpedia.org/class/yago/Thing100002452
p199
aVhttp://dbpedia.org/class/yago/YagoGeoEntity
p200
aVhttp://dbpedia.org/class/yago/RiversOfNewSouthWales
p201
aVhttp://www.w3.org/2002/07/owl#Thing
p202
aVhttp://dbpedia.org/ontology/Place
p203
aVhttp://dbpedia.org/ontology/Location
p204
aVhttp://www.wikidata.org/entity/Q4022
p205
aVhttp://www.wikidata.org/entity/Q47521
p206
aVhttp://dbpedia.org/ontology/BodyOfWater
p207
aVhttp://dbpedia.org/ontology/NaturalPlace
p208
aVhttp://dbpedia.org/ontology/River
p209
aVhttp://dbpedia.org/ontology/Stream
p210
aVhttp://www.w3.org/2003/01/geo/wgs84_pos#SpatialThing
p211
aVhttp://schema.org/BodyOfWater
p212
aVhttp://schema.org/Place
p213
aVhttp://schema.org/RiverBodyOfWater
p214
aVhttp://dbpedia.org/class/yago/YagoPermanentlyLocatedEntity
p215
aVhttp://dbpedia.org/class/yago/PhysicalEntity100001930
p216
aVhttp://dbpedia.org/resource/Jenolan_River
tp217
aa(lp218
a(lp219
a(lp220
aa(lp221
(lp222
a(lp223
a(lp224
a(lp225
((lp226
Vhttp://dbpedia.org/class/yago/Artifact100021939
p227
aVhttp://dbpedia.org/class/yago/BuddhistMonasteriesInIndia
p228
aVhttp://dbpedia.org/class/yago/BuddhistTemplesInIndia
p229
aVhttp://dbpedia.org/class/yago/Building102913152
p230
aVhttp://dbpedia.org/class/yago/House103544360
p231
aVhttp://dbpedia.org/class/yago/Housing103546340
p232
aVhttp://dbpedia.org/class/yago/Monastery103781244
p233
aVhttp://dbpedia.org/class/yago/Object100002684
p234
aVhttp://dbpedia.org/class/yago/PlaceOfWorship103953416
p235
aVhttp://dbpedia.org/class/yago/Structure104341686
p236
aVhttp://dbpedia.org/class/yago/Temple104407435
p237
aVhttp://dbpedia.org/class/yago/Whole100003553
p238
aVhttp://dbpedia.org/class/yago/YagoGeoEntity
p239
aVhttp://www.w3.org/2002/07/owl#Thing
p240
aVhttp://dbpedia.org/ontology/Place
p241
aVhttp://dbpedia.org/ontology/Location
p242
aVhttp://www.wikidata.org/entity/Q35509
p243
aVhttp://dbpedia.org/ontology/Cave
p244
aVhttp://dbpedia.org/ontology/NaturalPlace
p245
aVhttp://www.w3.org/2003/01/geo/wgs84_pos#SpatialThing
p246
aVhttp://schema.org/Place
p247
aVhttp://umbel.org/umbel/rc/Cave
p248
aVhttp://dbpedia.org/class/yago/DefunctBuddhistMonasteries
p249
aVhttp://dbpedia.org/class/yago/ReligiousResidence104073948
p250
aVhttp://dbpedia.org/class/yago/YagoPermanentlyLocatedEntity
p251
aVhttp://dbpedia.org/class/yago/Dwelling103259505
p252
aVhttp://dbpedia.org/class/yago/PhysicalEntity100001930
p253
aVhttp://dbpedia.org/class/yago/Residence104079244
p254
aVhttp://dbpedia.org/resource/Kanheri_Caves
tp255
aa(lp256
a(lp257
a(lp258
aa(lp259
(lp260
a(lp261
a(lp262
a(lp263
((lp264
Vhttp://dbpedia.org/class/yago/ArchaeologicalSitesInAustralia
p265
aVhttp://dbpedia.org/class/yago/Cave109238926
p266
aVhttp://dbpedia.org/class/yago/GeologicalFormation109287968
p267
aVhttp://dbpedia.org/class/yago/Location100027167
p268
aVhttp://dbpedia.org/class/yago/Object100002684
p269
aVhttp://dbpedia.org/class/yago/Region108630985
p270
aVhttp://dbpedia.org/class/yago/Site108651247
p271
aVhttp://dbpedia.org/class/yago/Tract108673395
p272
aVhttp://dbpedia.org/class/yago/YagoGeoEntity
p273
aVhttp://dbpedia.org/class/yago/YagoLegalActorGeo
p274
aVhttp://www.w3.org/2002/07/owl#Thing
p275
aVhttp://dbpedia.org/ontology/Place
p276
aVhttp://dbpedia.org/ontology/Location
p277
aVhttp://www.wikidata.org/entity/Q35509
p278
aVhttp://dbpedia.org/ontology/Cave
p279
aVhttp://dbpedia.org/ontology/NaturalPlace
p280
aVhttp://schema.org/Place
p281
aVhttp://dbpedia.org/class/yago/CavesOfAustralia
p282
aVhttp://dbpedia.org/class/yago/YagoPermanentlyLocatedEntity
p283
aVhttp://dbpedia.org/class/yago/GeographicalArea108574314
p284
aVhttp://dbpedia.org/class/yago/PhysicalEntity100001930
p285
aVhttp://dbpedia.org/resource/Koonalda_Cave
p286
tp287
aa(lp288
a(lp289
a(lp290
aa.