ccollections
defaultdict
p1
(c__builtin__
dict
p2
tRp3
I5
(dp4
I0
(lp5
sI1
(lp6
sI2
(lp7
sI4
(lp8
sI5
(lp9
sI6
(lp10
ssI11
(dp11
I0
(lp12
sI1
(lp13
sI2
(lp14
sI4
(lp15
sI5
(lp16
sI6
(lp17
ssI12
(dp18
I0
(lp19
Vhttp://www.w3.org/ns/prov#wasDerivedFrom
p20
asI1
(lp21
sI2
(lp22
sI4
(lp23
Vhttp://dbpedia.org/ontology/wikiPageExternalLink
p24
asI5
(lp25
sI6
(lp26
ssI13
(dp27
I0
(lp28
sI1
(lp29
sI2
(lp30
sI4
(lp31
sI5
(lp32
sI6
(lp33
ssI14
(dp34
I0
(lp35
sI1
(lp36
sI2
(lp37
sI4
(lp38
sI5
(lp39
sI6
(lp40
ssI15
(dp41
I0
(lp42
sI1
(lp43
sI2
(lp44
sI4
(lp45
sI5
(lp46
sI6
(lp47
ssI16
(dp48
I0
(lp49
sI1
(lp50
sI2
(lp51
sI4
(lp52
sI5
(lp53
sI6
(lp54
ss.