(lp1
(lp2
(lp3
a(lp4
aa(lp5
(lp6
a(lp7
aa(lp8
(lp9
a(lp10
aa(lp11
(lp12
a(lp13
aa(lp14
(lp15
Vhttp://dbpedia.org/resource/Aan_River
p16
aa(lp17
aa(lp18
(lp19
Vhttp://dbpedia.org/resource/Abakan_River
p20
aa(lp21
aa(lp22
(lp23
Vhttp://dbpedia.org/resource/Abba_River
p24
aa(lp25
aa(lp26
(lp27
Vhttp://dbpedia.org/resource/Abe_River
p28
aa(lp29
aa(lp30
(lp31
Vhttp://dbpedia.org/resource/Abercrombie_&_Fitch
p32
aa(lp33
aa(lp34
(lp35
Vhttp://dbpedia.org/resource/Aberdeen_Channel
p36
aa(lp37
aa(lp38
(lp39
Vhttp://dbpedia.org/resource/Aberfoyle_River
p40
aa(lp41
aa(lp42
(lp43
a(lp44
aa(lp45
(lp46
Vhttp://dbpedia.org/resource/Abukuma_River
p47
aa(lp48
aa(lp49
(lp50
Vhttp://dbpedia.org/resource/Abulog
p51
aa(lp52
aa(lp53
(lp54
Vhttp://dbpedia.org/resource/Achankovil
p55
aa(lp56
aa(lp57
(lp58
a(lp59
aa(lp60
(lp61
Vhttp://dbpedia.org/resource/Achit_Lake
p62
aa(lp63
aa(lp64
(lp65
a(lp66
aa(lp67
(lp68
Vhttp://dbpedia.org/resource/Adcock_River
p69
aa(lp70
aa.