ccollections
defaultdict
p1
(c__builtin__
dict
p2
tRp3
I0
(dp4
I1
(lp5
Vhttp://dbpedia.org/ontology/birthPlace
p6
aVhttp://dbpedia.org/property/birthPlace
p7
aVhttp://dbpedia.org/property/placeOfBirth
p8
assI5
(dp9
I1
(lp10
ssI6
(dp11
I1
(lp12
ssI7
(dp13
I1
(lp14
ssI8
(dp15
I1
(lp16
ssI9
(dp17
I1
(lp18
ssI11
(dp19
I1
(lp20
ssI12
(dp21
I1
(lp22
ssI13
(dp23
I1
(lp24
ssI14
(dp25
I1
(lp26
ssI16
(dp27
I1
(lp28
ssI17
(dp29
I1
(lp30
ssI18
(dp31
I1
(lp32
ss.