(lp1
(lp2
(lp3
a(lp4
a(lp5
a(lp6
((lp7
Vhttp://www.w3.org/2002/07/owl#Thing
p8
aVhttp://www.ontologydesignpatterns.org/ont/dul/DUL.owl#InformationObject
p9
aVhttp://www.wikidata.org/entity/Q386724
p10
aVhttp://dbpedia.org/ontology/BiologicalDatabase
p11
aVhttp://dbpedia.org/ontology/Database
p12
aVhttp://dbpedia.org/ontology/Work
p13
aVhttp://schema.org/CreativeWork
p14
aVhttp://dbpedia.org/resource/MESAdb
tp15
aaa(lp16
(lp17
a(lp18
a(lp19
a(lp20
((lp21
Vhttp://www.w3.org/2002/07/owl#Thing
p22
aVhttp://www.ontologydesignpatterns.org/ont/dul/DUL.owl#InformationObject
p23
aVhttp://www.wikidata.org/entity/Q386724
p24
aVhttp://dbpedia.org/ontology/BiologicalDatabase
p25
aVhttp://dbpedia.org/ontology/Database
p26
aVhttp://dbpedia.org/ontology/Work
p27
aVhttp://schema.org/CreativeWork
p28
aVhttp://dbpedia.org/resource/Phosida
tp29
aaa(lp30
(lp31
a(lp32
a(lp33
a(lp34
((lp35
Vhttp://dbpedia.org/class/yago/Abstraction100002137
p36
aVhttp://dbpedia.org/class/yago/Company108058098
p37
aVhttp://dbpedia.org/class/yago/Group100031264
p38
aVhttp://dbpedia.org/class/yago/Institution108053576
p39
aVhttp://dbpedia.org/class/yago/Organization108008335
p40
aVhttp://dbpedia.org/class/yago/SocialGroup107950920
p41
aVhttp://dbpedia.org/class/yago/YagoLegalActorGeo
p42
aVhttp://www.w3.org/2002/07/owl#Thing
p43
aVhttp://www.ontologydesignpatterns.org/ont/dul/DUL.owl#InformationObject
p44
aVhttp://www.wikidata.org/entity/Q386724
p45
aVhttp://dbpedia.org/ontology/BiologicalDatabase
p46
aVhttp://dbpedia.org/ontology/Database
p47
aVhttp://dbpedia.org/ontology/Work
p48
aVhttp://schema.org/CreativeWork
p49
aVhttp://dbpedia.org/class/yago/YagoPermanentlyLocatedEntity
p50
aVhttp://dbpedia.org/class/yago/YagoLegalActor
p51
aVhttp://dbpedia.org/class/yago/GenomicsCompanies
p52
aVhttp://dbpedia.org/resource/SNPedia
tp53
aaa(lp54
(lp55
a(lp56
a(lp57
a(lp58
((lp59
Vhttp://www.w3.org/2002/07/owl#Thing
p60
aVhttp://www.ontologydesignpatterns.org/ont/dul/DUL.owl#InformationObject
p61
aVhttp://www.wikidata.org/entity/Q386724
p62
aVhttp://dbpedia.org/ontology/BiologicalDatabase
p63
aVhttp://dbpedia.org/ontology/Database
p64
aVhttp://dbpedia.org/ontology/Work
p65
aVhttp://schema.org/CreativeWork
p66
aVhttp://dbpedia.org/resource/ConsensusPathDB
tp67
aaa(lp68
(lp69
a(lp70
a(lp71
a(lp72
((lp73
Vhttp://www.w3.org/2002/07/owl#Thing
p74
aVhttp://www.ontologydesignpatterns.org/ont/dul/DUL.owl#InformationObject
p75
aVhttp://www.wikidata.org/entity/Q386724
p76
aVhttp://dbpedia.org/ontology/BiologicalDatabase
p77
aVhttp://dbpedia.org/ontology/Database
p78
aVhttp://dbpedia.org/ontology/Work
p79
aVhttp://schema.org/CreativeWork
p80
aVhttp://dbpedia.org/resource/GENCODE
tp81
aaa(lp82
(lp83
a(lp84
a(lp85
a(lp86
((lp87
Vhttp://dbpedia.org/class/yago/Abstraction100002137
p88
aVhttp://dbpedia.org/class/yago/Communication100033020
p89
aVhttp://dbpedia.org/class/yago/Heading106343971
p90
aVhttp://dbpedia.org/class/yago/Line107012534
p91
aVhttp://dbpedia.org/class/yago/Matter106365467
p92
aVhttp://dbpedia.org/class/yago/Text106387980
p93
aVhttp://dbpedia.org/class/yago/Writing106362953
p94
aVhttp://www.w3.org/2002/07/owl#Thing
p95
aVhttp://www.ontologydesignpatterns.org/ont/dul/DUL.owl#InformationObject
p96
aVhttp://www.wikidata.org/entity/Q386724
p97
aVhttp://dbpedia.org/ontology/BiologicalDatabase
p98
aVhttp://dbpedia.org/ontology/Database
p99
aVhttp://dbpedia.org/ontology/Work
p100
aVhttp://schema.org/CreativeWork
p101
aVhttp://dbpedia.org/class/yago/WrittenCommunication106349220
p102
aVhttp://dbpedia.org/class/yago/MedicalSubjectHeadings
p103
aVhttp://dbpedia.org/resource/Medical_Subject_Headings
tp104
aaa(lp105
(lp106
a(lp107
a(lp108
a(lp109
((lp110
Vhttp://dbpedia.org/class/yago/Artifact100021939
p111
aVhttp://dbpedia.org/class/yago/Computer103082979
p112
aVhttp://dbpedia.org/class/yago/Device103183080
p113
aVhttp://dbpedia.org/class/yago/Machine103699975
p114
aVhttp://dbpedia.org/class/yago/Object100002684
p115
aVhttp://dbpedia.org/class/yago/System104377057
p116
aVhttp://dbpedia.org/class/yago/WebSite106359193
p117
aVhttp://dbpedia.org/class/yago/Whole100003553
p118
aVhttp://www.w3.org/2002/07/owl#Thing
p119
aVhttp://www.ontologydesignpatterns.org/ont/dul/DUL.owl#InformationObject
p120
aVhttp://www.wikidata.org/entity/Q386724
p121
aVhttp://dbpedia.org/ontology/BiologicalDatabase
p122
aVhttp://dbpedia.org/ontology/Database
p123
aVhttp://dbpedia.org/ontology/Work
p124
aVhttp://schema.org/CreativeWork
p125
aVhttp://dbpedia.org/class/yago/DataSystem103164344
p126
aVhttp://dbpedia.org/class/yago/HealthWebsites
p127
aVhttp://dbpedia.org/class/yago/InformationSystems
p128
aVhttp://dbpedia.org/class/yago/Instrumentality103575240
p129
aVhttp://dbpedia.org/class/yago/MedicalWebsites
p130
aVhttp://dbpedia.org/class/yago/PhysicalEntity100001930
p131
aVhttp://dbpedia.org/resource/IARP
tp132
aaa(lp133
(lp134
a(lp135
a(lp136
a(lp137
((lp138
Vhttp://www.w3.org/2002/07/owl#Thing
p139
aVhttp://www.ontologydesignpatterns.org/ont/dul/DUL.owl#InformationObject
p140
aVhttp://www.wikidata.org/entity/Q386724
p141
aVhttp://dbpedia.org/ontology/BiologicalDatabase
p142
aVhttp://dbpedia.org/ontology/Database
p143
aVhttp://dbpedia.org/ontology/Work
p144
aVhttp://schema.org/CreativeWork
p145
aVhttp://dbpedia.org/resource/AgBase
tp146
aaa(lp147
(lp148
a(lp149
a(lp150
a(lp151
((lp152
Vhttp://www.w3.org/2002/07/owl#Thing
p153
aVhttp://www.ontologydesignpatterns.org/ont/dul/DUL.owl#InformationObject
p154
aVhttp://www.wikidata.org/entity/Q386724
p155
aVhttp://dbpedia.org/ontology/BiologicalDatabase
p156
aVhttp://dbpedia.org/ontology/Database
p157
aVhttp://dbpedia.org/ontology/Work
p158
aVhttp://schema.org/CreativeWork
p159
aVhttp://dbpedia.org/resource/Database_for_bacterial_group_II_introns
tp160
aaa(lp161
(lp162
a(lp163
a(lp164
a(lp165
((lp166
Vhttp://www.w3.org/2002/07/owl#Thing
p167
aVhttp://www.ontologydesignpatterns.org/ont/dul/DUL.owl#InformationObject
p168
aVhttp://www.wikidata.org/entity/Q386724
p169
aVhttp://dbpedia.org/ontology/BiologicalDatabase
p170
aVhttp://dbpedia.org/ontology/Database
p171
aVhttp://dbpedia.org/ontology/Work
p172
aVhttp://schema.org/CreativeWork
p173
aVhttp://dbpedia.org/resource/NONCODE
tp174
aaa(lp175
(lp176
a(lp177
a(lp178
a(lp179
((lp180
Vhttp://dbpedia.org/class/yago/Artifact100021939
p181
aVhttp://dbpedia.org/class/yago/Decoration103169390
p182
aVhttp://dbpedia.org/class/yago/Design103178782
p183
aVhttp://dbpedia.org/class/yago/Motif103789014
p184
aVhttp://dbpedia.org/class/yago/Object100002684
p185
aVhttp://dbpedia.org/class/yago/Whole100003553
p186
aVhttp://dbpedia.org/class/yago/ProteinStructuralMotifs
p187
aVhttp://www.w3.org/2002/07/owl#Thing
p188
aVhttp://www.ontologydesignpatterns.org/ont/dul/DUL.owl#InformationObject
p189
aVhttp://www.wikidata.org/entity/Q386724
p190
aVhttp://dbpedia.org/ontology/BiologicalDatabase
p191
aVhttp://dbpedia.org/ontology/Database
p192
aVhttp://dbpedia.org/ontology/Work
p193
aVhttp://schema.org/CreativeWork
p194
aVhttp://dbpedia.org/class/yago/PhysicalEntity100001930
p195
aVhttp://dbpedia.org/resource/TMPad
tp196
aaa(lp197
(lp198
a(lp199
a(lp200
a(lp201
aa(lp202
(lp203
a(lp204
a(lp205
a(lp206
((lp207
Vhttp://www.w3.org/2002/07/owl#Thing
p208
aVhttp://www.ontologydesignpatterns.org/ont/dul/DUL.owl#InformationObject
p209
aVhttp://www.wikidata.org/entity/Q386724
p210
aVhttp://dbpedia.org/ontology/BiologicalDatabase
p211
aVhttp://dbpedia.org/ontology/Database
p212
aVhttp://dbpedia.org/ontology/Work
p213
aVhttp://schema.org/CreativeWork
p214
aVhttp://dbpedia.org/resource/GWASdb
tp215
aaa(lp216
(lp217
a(lp218
a(lp219
a(lp220
((lp221
Vhttp://www.w3.org/2002/07/owl#Thing
p222
aVhttp://www.ontologydesignpatterns.org/ont/dul/DUL.owl#InformationObject
p223
aVhttp://www.wikidata.org/entity/Q386724
p224
aVhttp://dbpedia.org/ontology/BiologicalDatabase
p225
aVhttp://dbpedia.org/ontology/Database
p226
aVhttp://dbpedia.org/ontology/Work
p227
aVhttp://schema.org/CreativeWork
p228
aVhttp://dbpedia.org/resource/IsoBase
tp229
aaa(lp230
(lp231
a(lp232
a(lp233
a(lp234
((lp235
Vhttp://dbpedia.org/class/yago/Abstraction100002137
p236
aVhttp://dbpedia.org/class/yago/Cognition100023271
p237
aVhttp://dbpedia.org/class/yago/Component105868954
p238
aVhttp://dbpedia.org/class/yago/Concept105835747
p239
aVhttp://dbpedia.org/class/yago/Content105809192
p240
aVhttp://dbpedia.org/class/yago/Idea105833840
p241
aVhttp://dbpedia.org/class/yago/Part105867413
p242
aVhttp://www.w3.org/2002/07/owl#Thing
p243
aVhttp://www.ontologydesignpatterns.org/ont/dul/DUL.owl#InformationObject
p244
aVhttp://www.wikidata.org/entity/Q386724
p245
aVhttp://dbpedia.org/ontology/BiologicalDatabase
p246
aVhttp://dbpedia.org/ontology/Database
p247
aVhttp://dbpedia.org/ontology/Work
p248
aVhttp://schema.org/CreativeWork
p249
aVhttp://dbpedia.org/class/yago/PsychologicalFeature100023100
p250
aVhttp://dbpedia.org/class/yago/MobileGeneticElements
p251
aVhttp://dbpedia.org/resource/Classification_of_mobile_genetic_elements
tp252
aaa(lp253
(lp254
a(lp255
a(lp256
a(lp257
((lp258
Vhttp://www.w3.org/2002/07/owl#Thing
p259
aVhttp://www.ontologydesignpatterns.org/ont/dul/DUL.owl#InformationObject
p260
aVhttp://www.wikidata.org/entity/Q386724
p261
aVhttp://dbpedia.org/ontology/BiologicalDatabase
p262
aVhttp://dbpedia.org/ontology/Database
p263
aVhttp://dbpedia.org/ontology/Work
p264
aVhttp://schema.org/CreativeWork
p265
aVhttp://dbpedia.org/resource/KUPS_(database)
tp266
aaa(lp267
(lp268
a(lp269
a(lp270
a(lp271
((lp272
Vhttp://www.w3.org/2002/07/owl#Thing
p273
aVhttp://www.ontologydesignpatterns.org/ont/dul/DUL.owl#InformationObject
p274
aVhttp://www.wikidata.org/entity/Q386724
p275
aVhttp://dbpedia.org/ontology/BiologicalDatabase
p276
aVhttp://dbpedia.org/ontology/Database
p277
aVhttp://dbpedia.org/ontology/Work
p278
aVhttp://schema.org/CreativeWork
p279
aVhttp://dbpedia.org/resource/Netpath
tp280
aaa(lp281
(lp282
a(lp283
a(lp284
a(lp285
((lp286
Vhttp://www.w3.org/2002/07/owl#Thing
p287
aVhttp://www.ontologydesignpatterns.org/ont/dul/DUL.owl#InformationObject
p288
aVhttp://www.wikidata.org/entity/Q386724
p289
aVhttp://dbpedia.org/ontology/BiologicalDatabase
p290
aVhttp://dbpedia.org/ontology/Database
p291
aVhttp://dbpedia.org/ontology/Work
p292
aVhttp://schema.org/CreativeWork
p293
aVhttp://dbpedia.org/resource/Nucleosome_positioning_region_database
tp294
aaa(lp295
(lp296
a(lp297
a(lp298
a(lp299
((lp300
Vhttp://dbpedia.org/class/yago/Antioxidant114724645
p301
aVhttp://dbpedia.org/class/yago/Antioxidants
p302
aVhttp://dbpedia.org/class/yago/Inhibitor114724436
p303
aVhttp://dbpedia.org/class/yago/Matter100020827
p304
aVhttp://dbpedia.org/class/yago/Substance100020090
p305
aVhttp://www.w3.org/2002/07/owl#Thing
p306
aVhttp://www.ontologydesignpatterns.org/ont/dul/DUL.owl#InformationObject
p307
aVhttp://www.wikidata.org/entity/Q386724
p308
aVhttp://dbpedia.org/ontology/BiologicalDatabase
p309
aVhttp://dbpedia.org/ontology/Database
p310
aVhttp://dbpedia.org/ontology/Work
p311
aVhttp://schema.org/CreativeWork
p312
aVhttp://dbpedia.org/class/yago/PhysicalEntity100001930
p313
aVhttp://dbpedia.org/resource/Peroxiredoxin_classification_index
p314
tp315
aaa.