(lp1
(lp2
(lp3
a(lp4
a(lp5
((lp6
Vhttp://dbpedia.org/class/yago/Abstraction100002137
p7
aVhttp://dbpedia.org/class/yago/Act100030358
p8
aVhttp://dbpedia.org/class/yago/Activity100407535
p9
aVhttp://dbpedia.org/class/yago/Communication100033020
p10
aVhttp://dbpedia.org/class/yago/Crime100766234
p11
aVhttp://dbpedia.org/class/yago/Document106470073
p12
aVhttp://dbpedia.org/class/yago/Event100029378
p13
aVhttp://dbpedia.org/class/yago/Report107218470
p14
aVhttp://dbpedia.org/class/yago/Transgression100745005
p15
aVhttp://dbpedia.org/class/yago/Writing106362953
p16
aVhttp://dbpedia.org/class/yago/Wrongdoing100732746
p17
aVhttp://dbpedia.org/class/yago/ReportsOfTheUnitedKingdomGovernment
p18
aVhttp://dbpedia.org/class/yago/PsychologicalFeature100023100
p19
aVhttp://dbpedia.org/class/yago/WrittenCommunication106349220
p20
aVhttp://dbpedia.org/class/yago/YagoPermanentlyLocatedEntity
p21
aVhttp://dbpedia.org/class/yago/WorldWarICrimesByImperialGermany
p22
aVhttp://dbpedia.org/resource/Committee_on_Alleged_German_Outrages
tp23
aaa(lp24
(lp25
a(lp26
a(lp27
aa(lp28
(lp29
a(lp30
a(lp31
((lp32
Vhttp://dbpedia.org/class/yago/Area108497294
p33
aVhttp://dbpedia.org/class/yago/Location100027167
p34
aVhttp://dbpedia.org/class/yago/Object100002684
p35
aVhttp://dbpedia.org/class/yago/Region108630985
p36
aVhttp://dbpedia.org/class/yago/YagoGeoEntity
p37
aVhttp://dbpedia.org/class/yago/YagoLegalActorGeo
p38
aVhttp://dbpedia.org/class/yago/SkiAreasAndResortsInUzbekistan
p39
aVhttp://www.w3.org/2002/07/owl#Thing
p40
aVhttp://dbpedia.org/ontology/Place
p41
aVhttp://dbpedia.org/ontology/Location
p42
aVhttp://dbpedia.org/ontology/ArchitecturalStructure
p43
aVhttp://dbpedia.org/ontology/SkiArea
p44
aVhttp://dbpedia.org/ontology/SportFacility
p45
aVhttp://www.w3.org/2003/01/geo/wgs84_pos#SpatialThing
p46
aVhttp://schema.org/Place
p47
aVhttp://schema.org/SkiResort
p48
aVhttp://umbel.org/umbel/rc/SkiArea
p49
aVhttp://dbpedia.org/class/yago/YagoPermanentlyLocatedEntity
p50
aVhttp://dbpedia.org/class/yago/PhysicalEntity100001930
p51
aVhttp://dbpedia.org/resource/Chimgan
tp52
aaa(lp53
(lp54
a(lp55
a(lp56
((lp57
Vhttp://dbpedia.org/class/yago/Area108497294
p58
aVhttp://dbpedia.org/class/yago/GeologicalFormation109287968
p59
aVhttp://dbpedia.org/class/yago/Location100027167
p60
aVhttp://dbpedia.org/class/yago/Mountain109359803
p61
aVhttp://dbpedia.org/class/yago/Object100002684
p62
aVhttp://dbpedia.org/class/yago/Region108630985
p63
aVhttp://dbpedia.org/class/yago/YagoGeoEntity
p64
aVhttp://dbpedia.org/class/yago/YagoLegalActorGeo
p65
aVhttp://dbpedia.org/class/yago/SkiAreasAndResortsInIdaho
p66
aVhttp://www.w3.org/2002/07/owl#Thing
p67
aVhttp://dbpedia.org/ontology/Place
p68
aVhttp://dbpedia.org/ontology/Location
p69
aVhttp://dbpedia.org/ontology/ArchitecturalStructure
p70
aVhttp://dbpedia.org/ontology/SkiArea
p71
aVhttp://dbpedia.org/ontology/SportFacility
p72
aVhttp://www.w3.org/2003/01/geo/wgs84_pos#SpatialThing
p73
aVhttp://schema.org/Place
p74
aVhttp://schema.org/SkiResort
p75
aVhttp://dbpedia.org/class/yago/YagoPermanentlyLocatedEntity
p76
aVhttp://dbpedia.org/class/yago/MountainsOfIdaho
p77
aVhttp://dbpedia.org/class/yago/NaturalElevation109366317
p78
aVhttp://dbpedia.org/class/yago/PhysicalEntity100001930
p79
aVhttp://dbpedia.org/resource/Bald_Mountain_(Idaho)
tp80
aaa(lp81
(lp82
a(lp83
a(lp84
((lp85
Vhttp://dbpedia.org/class/yago/Artifact100021939
p86
aVhttp://dbpedia.org/class/yago/Building102913152
p87
aVhttp://dbpedia.org/class/yago/BuildingsAndStructuresInHillCounty,Montana
p88
aVhttp://dbpedia.org/class/yago/Object100002684
p89
aVhttp://dbpedia.org/class/yago/Structure104341686
p90
aVhttp://dbpedia.org/class/yago/Whole100003553
p91
aVhttp://dbpedia.org/class/yago/YagoGeoEntity
p92
aVhttp://www.w3.org/2002/07/owl#Thing
p93
aVhttp://dbpedia.org/ontology/Place
p94
aVhttp://dbpedia.org/ontology/Location
p95
aVhttp://dbpedia.org/ontology/ArchitecturalStructure
p96
aVhttp://dbpedia.org/ontology/SkiArea
p97
aVhttp://dbpedia.org/ontology/SportFacility
p98
aVhttp://www.w3.org/2003/01/geo/wgs84_pos#SpatialThing
p99
aVhttp://schema.org/Place
p100
aVhttp://schema.org/SkiResort
p101
aVhttp://umbel.org/umbel/rc/SkiArea
p102
aVhttp://dbpedia.org/class/yago/YagoPermanentlyLocatedEntity
p103
aVhttp://dbpedia.org/class/yago/PhysicalEntity100001930
p104
aVhttp://dbpedia.org/resource/Bear_Paw_Ski_Bowl
tp105
aaa(lp106
(lp107
a(lp108
a(lp109
((lp110
Vhttp://dbpedia.org/class/yago/Area108497294
p111
aVhttp://dbpedia.org/class/yago/Location100027167
p112
aVhttp://dbpedia.org/class/yago/Object100002684
p113
aVhttp://dbpedia.org/class/yago/Region108630985
p114
aVhttp://dbpedia.org/class/yago/Venue108677628
p115
aVhttp://dbpedia.org/class/yago/YagoGeoEntity
p116
aVhttp://dbpedia.org/class/yago/YagoLegalActorGeo
p117
aVhttp://dbpedia.org/class/yago/SkiAreasAndResortsInUtah
p118
aVhttp://dbpedia.org/class/yago/SportsVenuesInCacheCounty,Utah
p119
aVhttp://www.w3.org/2002/07/owl#Thing
p120
aVhttp://dbpedia.org/ontology/Place
p121
aVhttp://dbpedia.org/ontology/Location
p122
aVhttp://dbpedia.org/ontology/ArchitecturalStructure
p123
aVhttp://dbpedia.org/ontology/SkiArea
p124
aVhttp://dbpedia.org/ontology/SportFacility
p125
aVhttp://www.w3.org/2003/01/geo/wgs84_pos#SpatialThing
p126
aVhttp://schema.org/Place
p127
aVhttp://schema.org/SkiResort
p128
aVhttp://umbel.org/umbel/rc/SkiArea
p129
aVhttp://dbpedia.org/class/yago/EventVenuesEstablishedIn1939
p130
aVhttp://dbpedia.org/class/yago/YagoPermanentlyLocatedEntity
p131
aVhttp://dbpedia.org/class/yago/PhysicalEntity100001930
p132
aVhttp://dbpedia.org/class/yago/Scene108645963
p133
aVhttp://dbpedia.org/resource/Beaver_Mountain
tp134
aaa(lp135
(lp136
a(lp137
a(lp138
((lp139
Vhttp://dbpedia.org/class/yago/Area108497294
p140
aVhttp://dbpedia.org/class/yago/Location100027167
p141
aVhttp://dbpedia.org/class/yago/Object100002684
p142
aVhttp://dbpedia.org/class/yago/Region108630985
p143
aVhttp://dbpedia.org/class/yago/YagoGeoEntity
p144
aVhttp://dbpedia.org/class/yago/YagoLegalActorGeo
p145
aVhttp://dbpedia.org/class/yago/SkiAreasAndResortsInIdaho
p146
aVhttp://www.w3.org/2002/07/owl#Thing
p147
aVhttp://dbpedia.org/ontology/Place
p148
aVhttp://dbpedia.org/ontology/Location
p149
aVhttp://dbpedia.org/ontology/ArchitecturalStructure
p150
aVhttp://dbpedia.org/ontology/SkiArea
p151
aVhttp://dbpedia.org/ontology/SportFacility
p152
aVhttp://www.w3.org/2003/01/geo/wgs84_pos#SpatialThing
p153
aVhttp://schema.org/Place
p154
aVhttp://schema.org/SkiResort
p155
aVhttp://dbpedia.org/class/yago/YagoPermanentlyLocatedEntity
p156
aVhttp://dbpedia.org/class/yago/PhysicalEntity100001930
p157
aVhttp://dbpedia.org/resource/Blizzard_Mountain_Ski_Area
tp158
aaa(lp159
(lp160
a(lp161
a(lp162
((lp163
Vhttp://dbpedia.org/class/yago/Artifact100021939
p164
aVhttp://dbpedia.org/class/yago/Building102913152
p165
aVhttp://dbpedia.org/class/yago/BuildingsAndStructuresInAdamsCounty,Idaho
p166
aVhttp://dbpedia.org/class/yago/BuildingsAndStructuresInValleyCounty,Idaho
p167
aVhttp://dbpedia.org/class/yago/Object100002684
p168
aVhttp://dbpedia.org/class/yago/Structure104341686
p169
aVhttp://dbpedia.org/class/yago/Whole100003553
p170
aVhttp://dbpedia.org/class/yago/YagoGeoEntity
p171
aVhttp://www.w3.org/2002/07/owl#Thing
p172
aVhttp://dbpedia.org/ontology/Place
p173
aVhttp://dbpedia.org/ontology/Location
p174
aVhttp://dbpedia.org/ontology/ArchitecturalStructure
p175
aVhttp://dbpedia.org/ontology/SkiArea
p176
aVhttp://dbpedia.org/ontology/SportFacility
p177
aVhttp://www.w3.org/2003/01/geo/wgs84_pos#SpatialThing
p178
aVhttp://schema.org/Place
p179
aVhttp://schema.org/SkiResort
p180
aVhttp://umbel.org/umbel/rc/SkiArea
p181
aVhttp://dbpedia.org/class/yago/YagoPermanentlyLocatedEntity
p182
aVhttp://dbpedia.org/class/yago/PhysicalEntity100001930
p183
aVhttp://dbpedia.org/resource/Brundage_Mountain
tp184
aaa(lp185
(lp186
a(lp187
a(lp188
((lp189
Vhttp://dbpedia.org/class/yago/Area108497294
p190
aVhttp://dbpedia.org/class/yago/Location100027167
p191
aVhttp://dbpedia.org/class/yago/Object100002684
p192
aVhttp://dbpedia.org/class/yago/Region108630985
p193
aVhttp://dbpedia.org/class/yago/YagoGeoEntity
p194
aVhttp://dbpedia.org/class/yago/YagoLegalActorGeo
p195
aVhttp://dbpedia.org/class/yago/SkiAreasAndResortsInBritishColumbia
p196
aVhttp://www.w3.org/2002/07/owl#Thing
p197
aVhttp://dbpedia.org/ontology/Place
p198
aVhttp://dbpedia.org/ontology/Location
p199
aVhttp://dbpedia.org/ontology/ArchitecturalStructure
p200
aVhttp://dbpedia.org/ontology/SkiArea
p201
aVhttp://dbpedia.org/ontology/SportFacility
p202
aVhttp://www.w3.org/2003/01/geo/wgs84_pos#SpatialThing
p203
aVhttp://schema.org/Place
p204
aVhttp://schema.org/SkiResort
p205
aVhttp://umbel.org/umbel/rc/SkiArea
p206
aVhttp://dbpedia.org/class/yago/YagoPermanentlyLocatedEntity
p207
aVhttp://dbpedia.org/class/yago/PhysicalEntity100001930
p208
aVhttp://dbpedia.org/resource/Apex_Mountain_Resort
tp209
aaa(lp210
(lp211
a(lp212
a(lp213
((lp214
Vhttp://dbpedia.org/class/yago/Artifact100021939
p215
aVhttp://dbpedia.org/class/yago/Building102913152
p216
aVhttp://dbpedia.org/class/yago/BuildingsAndStructuresInDakotaCounty,Minnesota
p217
aVhttp://dbpedia.org/class/yago/Object100002684
p218
aVhttp://dbpedia.org/class/yago/Structure104341686
p219
aVhttp://dbpedia.org/class/yago/Whole100003553
p220
aVhttp://dbpedia.org/class/yago/YagoGeoEntity
p221
aVhttp://www.w3.org/2002/07/owl#Thing
p222
aVhttp://dbpedia.org/ontology/Place
p223
aVhttp://dbpedia.org/ontology/Location
p224
aVhttp://dbpedia.org/ontology/ArchitecturalStructure
p225
aVhttp://dbpedia.org/ontology/SkiArea
p226
aVhttp://dbpedia.org/ontology/SportFacility
p227
aVhttp://www.w3.org/2003/01/geo/wgs84_pos#SpatialThing
p228
aVhttp://schema.org/Place
p229
aVhttp://schema.org/SkiResort
p230
aVhttp://dbpedia.org/class/yago/YagoPermanentlyLocatedEntity
p231
aVhttp://dbpedia.org/class/yago/PhysicalEntity100001930
p232
aVhttp://dbpedia.org/resource/Buck_Hill
tp233
aaa(lp234
(lp235
a(lp236
a(lp237
((lp238
Vhttp://dbpedia.org/class/yago/Area108497294
p239
aVhttp://dbpedia.org/class/yago/Location100027167
p240
aVhttp://dbpedia.org/class/yago/Object100002684
p241
aVhttp://dbpedia.org/class/yago/Region108630985
p242
aVhttp://dbpedia.org/class/yago/YagoGeoEntity
p243
aVhttp://dbpedia.org/class/yago/YagoLegalActorGeo
p244
aVhttp://dbpedia.org/class/yago/SkiAreasAndResortsInQuebec
p245
aVhttp://www.w3.org/2002/07/owl#Thing
p246
aVhttp://dbpedia.org/ontology/Place
p247
aVhttp://dbpedia.org/ontology/Location
p248
aVhttp://dbpedia.org/ontology/ArchitecturalStructure
p249
aVhttp://dbpedia.org/ontology/SkiArea
p250
aVhttp://dbpedia.org/ontology/SportFacility
p251
aVhttp://www.w3.org/2003/01/geo/wgs84_pos#SpatialThing
p252
aVhttp://schema.org/Place
p253
aVhttp://schema.org/SkiResort
p254
aVhttp://umbel.org/umbel/rc/SkiArea
p255
aVhttp://dbpedia.org/class/yago/YagoPermanentlyLocatedEntity
p256
aVhttp://dbpedia.org/class/yago/PhysicalEntity100001930
p257
aVhttp://dbpedia.org/resource/Camp_Fortune
tp258
aaa(lp259
(lp260
a(lp261
a(lp262
((lp263
Vhttp://dbpedia.org/class/yago/Area108497294
p264
aVhttp://dbpedia.org/class/yago/Location100027167
p265
aVhttp://dbpedia.org/class/yago/Object100002684
p266
aVhttp://dbpedia.org/class/yago/Park108615149
p267
aVhttp://dbpedia.org/class/yago/Region108630985
p268
aVhttp://dbpedia.org/class/yago/Tract108673395
p269
aVhttp://dbpedia.org/class/yago/YagoGeoEntity
p270
aVhttp://dbpedia.org/class/yago/YagoLegalActorGeo
p271
aVhttp://dbpedia.org/class/yago/ProtectedAreasEstablishedIn1971
p272
aVhttp://dbpedia.org/class/yago/ProtectedAreasOfTuckerCounty,WestVirginia
p273
aVhttp://dbpedia.org/class/yago/SkiAreasAndResortsInWestVirginia
p274
aVhttp://www.w3.org/2002/07/owl#Thing
p275
aVhttp://dbpedia.org/ontology/Place
p276
aVhttp://dbpedia.org/ontology/Location
p277
aVhttp://www.wikidata.org/entity/Q473972
p278
aVhttp://dbpedia.org/ontology/ProtectedArea
p279
aVhttp://www.w3.org/2003/01/geo/wgs84_pos#SpatialThing
p280
aVhttp://schema.org/Place
p281
aVhttp://umbel.org/umbel/rc/GeographicalRegion
p282
aVhttp://dbpedia.org/class/yago/YagoPermanentlyLocatedEntity
p283
aVhttp://dbpedia.org/class/yago/GeographicalArea108574314
p284
aVhttp://dbpedia.org/class/yago/PhysicalEntity100001930
p285
aVhttp://dbpedia.org/class/yago/WestVirginiaStateParks
p286
aVhttp://dbpedia.org/resource/Canaan_Valley_Resort_State_Park
tp287
aaa(lp288
(lp289
a(lp290
a(lp291
((lp292
Vhttp://dbpedia.org/class/yago/Artifact100021939
p293
aVhttp://dbpedia.org/class/yago/Building102913152
p294
aVhttp://dbpedia.org/class/yago/BuildingsAndStructuresInWalworthCounty,Wisconsin
p295
aVhttp://dbpedia.org/class/yago/Object100002684
p296
aVhttp://dbpedia.org/class/yago/Structure104341686
p297
aVhttp://dbpedia.org/class/yago/Whole100003553
p298
aVhttp://dbpedia.org/class/yago/YagoGeoEntity
p299
aVhttp://www.w3.org/2002/07/owl#Thing
p300
aVhttp://dbpedia.org/ontology/Place
p301
aVhttp://dbpedia.org/ontology/Location
p302
aVhttp://dbpedia.org/ontology/ArchitecturalStructure
p303
aVhttp://dbpedia.org/ontology/SkiArea
p304
aVhttp://dbpedia.org/ontology/SportFacility
p305
aVhttp://www.w3.org/2003/01/geo/wgs84_pos#SpatialThing
p306
aVhttp://schema.org/Place
p307
aVhttp://schema.org/SkiResort
p308
aVhttp://dbpedia.org/class/yago/YagoPermanentlyLocatedEntity
p309
aVhttp://dbpedia.org/class/yago/PhysicalEntity100001930
p310
aVhttp://dbpedia.org/resource/Cascade_Mountain_(ski_area)
tp311
aaa(lp312
(lp313
a(lp314
a(lp315
((lp316
Vhttp://dbpedia.org/class/yago/Abstraction100002137
p317
aVhttp://dbpedia.org/class/yago/Company108058098
p318
aVhttp://dbpedia.org/class/yago/Group100031264
p319
aVhttp://dbpedia.org/class/yago/Institution108053576
p320
aVhttp://dbpedia.org/class/yago/Organization108008335
p321
aVhttp://dbpedia.org/class/yago/SocialGroup107950920
p322
aVhttp://dbpedia.org/class/yago/YagoLegalActorGeo
p323
aVhttp://www.w3.org/2002/07/owl#Thing
p324
aVhttp://dbpedia.org/ontology/Place
p325
aVhttp://dbpedia.org/ontology/Location
p326
aVhttp://dbpedia.org/ontology/ArchitecturalStructure
p327
aVhttp://dbpedia.org/ontology/SkiArea
p328
aVhttp://dbpedia.org/ontology/SportFacility
p329
aVhttp://www.w3.org/2003/01/geo/wgs84_pos#SpatialThing
p330
aVhttp://schema.org/Place
p331
aVhttp://schema.org/SkiResort
p332
aVhttp://umbel.org/umbel/rc/SkiArea
p333
aVhttp://dbpedia.org/class/yago/CompaniesBasedInAlpineCounty,California
p334
aVhttp://dbpedia.org/class/yago/YagoPermanentlyLocatedEntity
p335
aVhttp://dbpedia.org/class/yago/YagoLegalActor
p336
aVhttp://dbpedia.org/resource/Bear_Valley_(resort)
tp337
aaa(lp338
(lp339
a(lp340
a(lp341
((lp342
Vhttp://dbpedia.org/class/yago/Artifact100021939
p343
aVhttp://dbpedia.org/class/yago/Building102913152
p344
aVhttp://dbpedia.org/class/yago/BuildingsAndStructuresInEagleCounty,Colorado
p345
aVhttp://dbpedia.org/class/yago/Hotel103542333
p346
aVhttp://dbpedia.org/class/yago/Object100002684
p347
aVhttp://dbpedia.org/class/yago/Resort108640531
p348
aVhttp://dbpedia.org/class/yago/Structure104341686
p349
aVhttp://dbpedia.org/class/yago/Whole100003553
p350
aVhttp://dbpedia.org/class/yago/YagoGeoEntity
p351
aVhttp://www.w3.org/2002/07/owl#Thing
p352
aVhttp://dbpedia.org/ontology/Place
p353
aVhttp://dbpedia.org/ontology/Location
p354
aVhttp://dbpedia.org/ontology/ArchitecturalStructure
p355
aVhttp://dbpedia.org/ontology/SkiArea
p356
aVhttp://dbpedia.org/ontology/SportFacility
p357
aVhttp://www.w3.org/2003/01/geo/wgs84_pos#SpatialThing
p358
aVhttp://schema.org/Place
p359
aVhttp://schema.org/SkiResort
p360
aVhttp://umbel.org/umbel/rc/SkiArea
p361
aVhttp://dbpedia.org/class/yago/YagoPermanentlyLocatedEntity
p362
aVhttp://dbpedia.org/class/yago/PhysicalEntity100001930
p363
aVhttp://dbpedia.org/class/yago/VailResorts
p364
aVhttp://dbpedia.org/resource/Beaver_Creek_Resort
tp365
aaa(lp366
(lp367
a(lp368
a(lp369
((lp370
Vhttp://dbpedia.org/class/yago/Artifact100021939
p371
aVhttp://dbpedia.org/class/yago/Building102913152
p372
aVhttp://dbpedia.org/class/yago/BuildingsAndStructuresInCarrollCounty,NewHampshire
p373
aVhttp://dbpedia.org/class/yago/Object100002684
p374
aVhttp://dbpedia.org/class/yago/Structure104341686
p375
aVhttp://dbpedia.org/class/yago/Whole100003553
p376
aVhttp://dbpedia.org/class/yago/YagoGeoEntity
p377
aVhttp://www.w3.org/2002/07/owl#Thing
p378
aVhttp://dbpedia.org/ontology/Place
p379
aVhttp://dbpedia.org/ontology/Location
p380
aVhttp://dbpedia.org/ontology/ArchitecturalStructure
p381
aVhttp://dbpedia.org/ontology/SkiArea
p382
aVhttp://dbpedia.org/ontology/SportFacility
p383
aVhttp://www.w3.org/2003/01/geo/wgs84_pos#SpatialThing
p384
aVhttp://schema.org/Place
p385
aVhttp://schema.org/SkiResort
p386
aVhttp://umbel.org/umbel/rc/SkiArea
p387
aVhttp://dbpedia.org/class/yago/YagoPermanentlyLocatedEntity
p388
aVhttp://dbpedia.org/class/yago/PhysicalEntity100001930
p389
aVhttp://dbpedia.org/resource/Black_Mountain_Ski_Area_(New_Hampshire)
tp390
aaa(lp391
(lp392
a(lp393
a(lp394
((lp395
Vhttp://www.w3.org/2002/07/owl#Thing
p396
aVhttp://dbpedia.org/ontology/Place
p397
aVhttp://dbpedia.org/ontology/Location
p398
aVhttp://www.wikidata.org/entity/Q486972
p399
aVhttp://dbpedia.org/ontology/PopulatedPlace
p400
aVhttp://dbpedia.org/ontology/Settlement
p401
aVhttp://schema.org/Place
p402
aVhttp://dbpedia.org/resource/Torghar_District
tp403
aaa(lp404
(lp405
a(lp406
a(lp407
((lp408
Vhttp://dbpedia.org/class/yago/Artifact100021939
p409
aVhttp://dbpedia.org/class/yago/Building102913152
p410
aVhttp://dbpedia.org/class/yago/BuildingsAndStructuresInCarbonCounty,Pennsylvania
p411
aVhttp://dbpedia.org/class/yago/Object100002684
p412
aVhttp://dbpedia.org/class/yago/Structure104341686
p413
aVhttp://dbpedia.org/class/yago/Whole100003553
p414
aVhttp://dbpedia.org/class/yago/YagoGeoEntity
p415
aVhttp://www.w3.org/2002/07/owl#Thing
p416
aVhttp://dbpedia.org/ontology/Place
p417
aVhttp://dbpedia.org/ontology/Location
p418
aVhttp://dbpedia.org/ontology/ArchitecturalStructure
p419
aVhttp://dbpedia.org/ontology/SkiArea
p420
aVhttp://dbpedia.org/ontology/SportFacility
p421
aVhttp://www.w3.org/2003/01/geo/wgs84_pos#SpatialThing
p422
aVhttp://schema.org/Place
p423
aVhttp://schema.org/SkiResort
p424
aVhttp://umbel.org/umbel/rc/SkiArea
p425
aVhttp://dbpedia.org/class/yago/YagoPermanentlyLocatedEntity
p426
aVhttp://dbpedia.org/class/yago/PhysicalEntity100001930
p427
aVhttp://dbpedia.org/resource/Blue_Mountain_Ski_Area
tp428
aaa(lp429
(lp430
a(lp431
a(lp432
((lp433
Vhttp://dbpedia.org/class/yago/Artifact100021939
p434
aVhttp://dbpedia.org/class/yago/Building102913152
p435
aVhttp://dbpedia.org/class/yago/BuildingsAndStructuresInClearwaterCounty,Idaho
p436
aVhttp://dbpedia.org/class/yago/Object100002684
p437
aVhttp://dbpedia.org/class/yago/Structure104341686
p438
aVhttp://dbpedia.org/class/yago/Whole100003553
p439
aVhttp://dbpedia.org/class/yago/YagoGeoEntity
p440
aVhttp://www.w3.org/2002/07/owl#Thing
p441
aVhttp://dbpedia.org/ontology/Place
p442
aVhttp://dbpedia.org/ontology/Location
p443
aVhttp://dbpedia.org/ontology/ArchitecturalStructure
p444
aVhttp://dbpedia.org/ontology/SkiArea
p445
aVhttp://dbpedia.org/ontology/SportFacility
p446
aVhttp://www.w3.org/2003/01/geo/wgs84_pos#SpatialThing
p447
aVhttp://schema.org/Place
p448
aVhttp://schema.org/SkiResort
p449
aVhttp://umbel.org/umbel/rc/SkiArea
p450
aVhttp://dbpedia.org/class/yago/YagoPermanentlyLocatedEntity
p451
aVhttp://dbpedia.org/class/yago/PhysicalEntity100001930
p452
aVhttp://dbpedia.org/resource/Bald_Mountain_Ski_Area
p453
tp454
aaa.