(lp1
(lp2
(lp3
a(lp4
a(lp5
a(lp6
a(lp7
a(lp8
Vhttp://dbpedia.org/resource/Limen_insulae
p9
aaa(lp10
(lp11
a(lp12
a(lp13
a(lp14
a(lp15
a(lp16
Vhttp://dbpedia.org/resource/Posterior_proper_fasciculus
p17
aaa(lp18
(lp19
a(lp20
a(lp21
a(lp22
a(lp23
a(lp24
Vhttp://dbpedia.org/resource/Inferior_frontal_sulcus
p25
aaa(lp26
(lp27
a(lp28
a(lp29
a(lp30
a(lp31
a(lp32
Vhttp://dbpedia.org/resource/Uncinate_fasciculus
p33
aaa(lp34
(lp35
a(lp36
a(lp37
a(lp38
a(lp39
a(lp40
Vhttp://dbpedia.org/resource/Brodmann_area_40
p41
aaa(lp42
(lp43
a(lp44
a(lp45
a(lp46
a(lp47
a(lp48
aa(lp49
(lp50
a(lp51
a(lp52
a(lp53
a(lp54
a(lp55
Vhttp://dbpedia.org/resource/Vagal_trigone
p56
aaa(lp57
(lp58
a(lp59
a(lp60
a(lp61
a(lp62
a(lp63
Vhttp://dbpedia.org/resource/Tela_chorioidea_of_fourth_ventricle
p64
aaa(lp65
(lp66
a(lp67
a(lp68
a(lp69
a(lp70
a(lp71
Vhttp://dbpedia.org/resource/Tela_chorioidea_of_fourth_ventricle
p72
aaa(lp73
(lp74
a(lp75
a(lp76
a(lp77
a(lp78
a(lp79
Vhttp://dbpedia.org/resource/Brodmann_area_40
p80
aaa(lp81
(lp82
a(lp83
a(lp84
a(lp85
a(lp86
a(lp87
Vhttp://dbpedia.org/resource/Flocculus_(cerebellar)
p88
aaa(lp89
(lp90
a(lp91
a(lp92
a(lp93
a(lp94
a(lp95
Vhttp://dbpedia.org/resource/Hypoglossal_trigone
p96
aaa(lp97
(lp98
a(lp99
a(lp100
a(lp101
a(lp102
a(lp103
Vhttp://dbpedia.org/resource/Medial_forebrain_bundle
p104
aaa(lp105
(lp106
a(lp107
a(lp108
a(lp109
a(lp110
a(lp111
Vhttp://dbpedia.org/resource/Olfactory_trigone
p112
aaa(lp113
(lp114
a(lp115
a(lp116
a(lp117
Vhttp://dbpedia.org/resource/Olfactory_bulb_mitral_cell
p118
aa(lp119
a(lp120
Vhttp://dbpedia.org/resource/Parvocellular_red_nucleus
p121
aaa(lp122
(lp123
a(lp124
a(lp125
a(lp126
a(lp127
a(lp128
Vhttp://dbpedia.org/resource/Lateral_posterior_nucleus_of_thalamus
p129
aaa(lp130
(lp131
a(lp132
a(lp133
a(lp134
a(lp135
a(lp136
Vhttp://dbpedia.org/resource/Ventrolateral_preoptic_nucleus
p137
aaa(lp138
(lp139
a(lp140
a(lp141
a(lp142
a(lp143
a(lp144
Vhttp://dbpedia.org/resource/Angular_gyrus
p145
aaa(lp146
(lp147
a(lp148
a(lp149
a(lp150
a(lp151
a(lp152
Vhttp://dbpedia.org/resource/Falx_cerebelli
p153
aaa.