ccollections
defaultdict
p1
(c__builtin__
dict
p2
tRp3
I0
(dp4
I0
(lp5
sI1
(lp6
Vhttp://www.w3.org/ns/prov#wasDerivedFrom
p7
assI1
(dp8
I0
(lp9
sI1
(lp10
Vhttp://www.w3.org/ns/prov#wasDerivedFrom
p11
assI2
(dp12
I0
(lp13
sI1
(lp14
Vhttp://www.w3.org/ns/prov#wasDerivedFrom
p15
assI3
(dp16
I0
(lp17
sI1
(lp18
ssI4
(dp19
I0
(lp20
sI1
(lp21
Vhttp://www.w3.org/ns/prov#wasDerivedFrom
p22
assI5
(dp23
I0
(lp24
sI1
(lp25
Vhttp://www.w3.org/ns/prov#wasDerivedFrom
p26
assI6
(dp27
I0
(lp28
sI1
(lp29
ssI7
(dp30
I0
(lp31
sI1
(lp32
ssI8
(dp33
I0
(lp34
sI1
(lp35
ssI9
(dp36
I0
(lp37
sI1
(lp38
ssI10
(dp39
I0
(lp40
sI1
(lp41
Vhttp://www.w3.org/ns/prov#wasDerivedFrom
p42
assI11
(dp43
I0
(lp44
sI1
(lp45
ssI12
(dp46
I0
(lp47
sI1
(lp48
ssI13
(dp49
I0
(lp50
sI1
(lp51
ssI14
(dp52
I0
(lp53
sI1
(lp54
ssI15
(dp55
I0
(lp56
sI1
(lp57
Vhttp://www.w3.org/ns/prov#wasDerivedFrom
p58
assI16
(dp59
I0
(lp60
sI1
(lp61
ssI17
(dp62
I0
(lp63
sI1
(lp64
Vhttp://www.w3.org/ns/prov#wasDerivedFrom
p65
assI18
(dp66
I0
(lp67
sI1
(lp68
Vhttp://www.w3.org/ns/prov#wasDerivedFrom
p69
ass.