(lp1
(dp2
I0
(dp3
I0
(lp4
sI1
(lp5
sI2
(lp6
sI3
(lp7
ssI1
(dp8
I0
g5
sI1
(lp9
sI2
(lp10
sI3
(lp11
ssI2
(dp12
I0
g6
sI1
g10
sI2
(lp13
sI3
(lp14
ssI3
(dp15
I0
g7
sI1
g11
sI2
g14
sI3
(lp16
ssa(dp17
I0
(dp18
I0
(lp19
sI1
(lp20
sI2
(lp21
Vhttp://www.w3.org/ns/prov#wasDerivedFrom
p22
asI3
(lp23
Vhttp://dbpedia.org/ontology/wikiPageExternalLink
p24
aVhttp://dbpedia.org/property/website
p25
aVhttp://xmlns.com/foaf/0.1/homepage
p26
assI1
(dp27
I0
g20
sI1
(lp28
sI2
(lp29
sI3
(lp30
ssI2
(dp31
I0
g21
sI1
g29
sI2
(lp32
sI3
(lp33
ssI3
(dp34
I0
g23
sI1
g30
sI2
g33
sI3
(lp35
ssa(dp36
I0
(dp37
I0
(lp38
sI1
(lp39
sI2
(lp40
sI3
(lp41
Vhttp://dbpedia.org/ontology/wikiPageExternalLink
p42
aVhttp://dbpedia.org/property/website
p43
aVhttp://xmlns.com/foaf/0.1/homepage
p44
assI1
(dp45
I0
g39
sI1
(lp46
sI2
(lp47
sI3
(lp48
ssI2
(dp49
I0
g40
sI1
g47
sI2
(lp50
sI3
(lp51
ssI3
(dp52
I0
g41
sI1
g48
sI2
g51
sI3
(lp53
ssa(dp54
I0
(dp55
I0
(lp56
sI1
(lp57
sI2
(lp58
Vhttp://www.w3.org/ns/prov#wasDerivedFrom
p59
asI3
(lp60
ssI1
(dp61
I0
g57
sI1
(lp62
sI2
(lp63
sI3
(lp64
ssI2
(dp65
I0
g58
sI1
g63
sI2
(lp66
sI3
(lp67
ssI3
(dp68
I0
g60
sI1
g64
sI2
g67
sI3
(lp69
ssa(dp70
I0
(dp71
I0
(lp72
sI1
(lp73
sI2
(lp74
sI3
(lp75
ssI1
(dp76
I0
g73
sI1
(lp77
sI2
(lp78
sI3
(lp79
ssI2
(dp80
I0
g74
sI1
g78
sI2
(lp81
sI3
(lp82
ssI3
(dp83
I0
g75
sI1
g79
sI2
g82
sI3
(lp84
ssa(dp85
I0
(dp86
I0
(lp87
sI1
(lp88
sI2
(lp89
Vhttp://www.w3.org/ns/prov#wasDerivedFrom
p90
asI3
(lp91
Vhttp://dbpedia.org/ontology/wikiPageExternalLink
p92
aVhttp://dbpedia.org/property/website
p93
aVhttp://xmlns.com/foaf/0.1/homepage
p94
assI1
(dp95
I0
g88
sI1
(lp96
sI2
(lp97
sI3
(lp98
ssI2
(dp99
I0
g89
sI1
g97
sI2
(lp100
sI3
(lp101
ssI3
(dp102
I0
g91
sI1
g98
sI2
g101
sI3
(lp103
ssa(dp104
I0
(dp105
I0
(lp106
sI1
(lp107
sI2
(lp108
Vhttp://www.w3.org/ns/prov#wasDerivedFrom
p109
asI3
(lp110
ssI1
(dp111
I0
g107
sI1
(lp112
sI2
(lp113
sI3
(lp114
ssI2
(dp115
I0
g108
sI1
g113
sI2
(lp116
sI3
(lp117
ssI3
(dp118
I0
g110
sI1
g114
sI2
g117
sI3
(lp119
ssa(dp120
I0
(dp121
I0
(lp122
sI1
(lp123
sI2
(lp124
Vhttp://www.w3.org/ns/prov#wasDerivedFrom
p125
asI3
(lp126
Vhttp://dbpedia.org/ontology/wikiPageExternalLink
p127
aVhttp://dbpedia.org/property/website
p128
aVhttp://xmlns.com/foaf/0.1/homepage
p129
assI1
(dp130
I0
g123
sI1
(lp131
sI2
(lp132
sI3
(lp133
ssI2
(dp134
I0
g124
sI1
g132
sI2
(lp135
sI3
(lp136
ssI3
(dp137
I0
g126
sI1
g133
sI2
g136
sI3
(lp138
ssa(dp139
I0
(dp140
I0
(lp141
sI1
(lp142
sI2
(lp143
sI3
(lp144
ssI1
(dp145
I0
g142
sI1
(lp146
sI2
(lp147
sI3
(lp148
ssI2
(dp149
I0
g143
sI1
g147
sI2
(lp150
sI3
(lp151
ssI3
(dp152
I0
g144
sI1
g148
sI2
g151
sI3
(lp153
ssa(dp154
I0
(dp155
I0
(lp156
sI1
(lp157
sI2
(lp158
sI3
(lp159
ssI1
(dp160
I0
g157
sI1
(lp161
sI2
(lp162
sI3
(lp163
ssI2
(dp164
I0
g158
sI1
g162
sI2
(lp165
sI3
(lp166
ssI3
(dp167
I0
g159
sI1
g163
sI2
g166
sI3
(lp168
ssa(dp169
I0
(dp170
I0
(lp171
sI1
(lp172
sI2
(lp173
sI3
(lp174
ssI1
(dp175
I0
g172
sI1
(lp176
sI2
(lp177
sI3
(lp178
ssI2
(dp179
I0
g173
sI1
g177
sI2
(lp180
sI3
(lp181
ssI3
(dp182
I0
g174
sI1
g178
sI2
g181
sI3
(lp183
ssa(dp184
I0
(dp185
I0
(lp186
sI1
(lp187
sI2
(lp188
sI3
(lp189
ssI1
(dp190
I0
g187
sI1
(lp191
sI2
(lp192
sI3
(lp193
ssI2
(dp194
I0
g188
sI1
g192
sI2
(lp195
sI3
(lp196
ssI3
(dp197
I0
g189
sI1
g193
sI2
g196
sI3
(lp198
ssa(dp199
I0
(dp200
I0
(lp201
sI1
(lp202
sI2
(lp203
sI3
(lp204
ssI1
(dp205
I0
g202
sI1
(lp206
sI2
(lp207
sI3
(lp208
ssI2
(dp209
I0
g203
sI1
g207
sI2
(lp210
sI3
(lp211
ssI3
(dp212
I0
g204
sI1
g208
sI2
g211
sI3
(lp213
ssa(dp214
I0
(dp215
I0
(lp216
sI1
(lp217
sI2
(lp218
Vhttp://www.w3.org/ns/prov#wasDerivedFrom
p219
asI3
(lp220
ssI1
(dp221
I0
g217
sI1
(lp222
sI2
(lp223
sI3
(lp224
ssI2
(dp225
I0
g218
sI1
g223
sI2
(lp226
sI3
(lp227
ssI3
(dp228
I0
g220
sI1
g224
sI2
g227
sI3
(lp229
ssa(dp230
I0
(dp231
I0
(lp232
sI1
(lp233
sI2
(lp234
sI3
(lp235
Vhttp://dbpedia.org/ontology/wikiPageExternalLink
p236
aVhttp://dbpedia.org/property/website
p237
aVhttp://xmlns.com/foaf/0.1/homepage
p238
assI1
(dp239
I0
g233
sI1
(lp240
sI2
(lp241
sI3
(lp242
ssI2
(dp243
I0
g234
sI1
g241
sI2
(lp244
sI3
(lp245
ssI3
(dp246
I0
g235
sI1
g242
sI2
g245
sI3
(lp247
ssa(dp248
I0
(dp249
I0
(lp250
sI1
(lp251
sI2
(lp252
sI3
(lp253
ssI1
(dp254
I0
g251
sI1
(lp255
sI2
(lp256
sI3
(lp257
ssI2
(dp258
I0
g252
sI1
g256
sI2
(lp259
sI3
(lp260
ssI3
(dp261
I0
g253
sI1
g257
sI2
g260
sI3
(lp262
ssa(dp263
I0
(dp264
I0
(lp265
sI1
(lp266
sI2
(lp267
sI3
(lp268
ssI1
(dp269
I0
g266
sI1
(lp270
sI2
(lp271
sI3
(lp272
ssI2
(dp273
I0
g267
sI1
g271
sI2
(lp274
sI3
(lp275
ssI3
(dp276
I0
g268
sI1
g272
sI2
g275
sI3
(lp277
ssa(dp278
I0
(dp279
I0
(lp280
sI1
(lp281
sI2
(lp282
sI3
(lp283
ssI1
(dp284
I0
g281
sI1
(lp285
sI2
(lp286
sI3
(lp287
ssI2
(dp288
I0
g282
sI1
g286
sI2
(lp289
sI3
(lp290
ssI3
(dp291
I0
g283
sI1
g287
sI2
g290
sI3
(lp292
ssa(dp293
I0
(dp294
I0
(lp295
sI1
(lp296
sI2
(lp297
sI3
(lp298
ssI1
(dp299
I0
g296
sI1
(lp300
sI2
(lp301
sI3
(lp302
ssI2
(dp303
I0
g297
sI1
g301
sI2
(lp304
sI3
(lp305
ssI3
(dp306
I0
g298
sI1
g302
sI2
g305
sI3
(lp307
ssa.