(lp1
(lp2
(lp3
a(lp4
a(lp5
a(lp6
aa(lp7
(lp8
a(lp9
a(lp10
a(lp11
aa(lp12
(lp13
a(lp14
a(lp15
a(lp16
aa(lp17
(lp18
a(lp19
a(lp20
a(lp21
aa(lp22
(lp23
a(lp24
a(lp25
Vhttp://dbpedia.org/resource/1-Methylnaphthalene
p26
aa(lp27
aa(lp28
(lp29
a(lp30
a(lp31
a(lp32
aa(lp33
(lp34
a(lp35
a(lp36
Vhttp://dbpedia.org/resource/20\u03b1-Dihydroprogesterone
p37
aa(lp38
aa(lp39
(lp40
a(lp41
a(lp42
a(lp43
aa(lp44
(lp45
a(lp46
a(lp47
a(lp48
aa(lp49
(lp50
a(lp51
a(lp52
a(lp53
aa(lp54
(lp55
a(lp56
a(lp57
Vhttp://dbpedia.org/resource/4'-Methoxy-\u03b1-pyrrolidinopropiophenone
p58
aa(lp59
aa(lp60
(lp61
a(lp62
a(lp63
a(lp64
aa(lp65
(lp66
a(lp67
a(lp68
a(lp69
aa.