(lp1
(lp2
(lp3
a(lp4
a(lp5
((lVhttp://dbpedia.org/resource/David_Carter
tp6
aaa(lp7
(lp8
a(lp9
a(lp10
aa(lp11
(lp12
a(lp13
a(lp14
aa(lp15
(lp16
a(lp17
a(lp18
((lp19
Vhttp://dbpedia.org/class/yago/Athlete109820263
p20
aVhttp://dbpedia.org/class/yago/CausalAgent100007347
p21
aVhttp://dbpedia.org/class/yago/Contestant109613191
p22
aVhttp://dbpedia.org/class/yago/Cricketer109977326
p23
aVhttp://dbpedia.org/class/yago/LivingThing100004258
p24
aVhttp://dbpedia.org/class/yago/Object100002684
p25
aVhttp://dbpedia.org/class/yago/Organism100004475
p26
aVhttp://dbpedia.org/class/yago/Person100007846
p27
aVhttp://dbpedia.org/class/yago/Whole100003553
p28
aVhttp://dbpedia.org/class/yago/YagoLegalActorGeo
p29
aVhttp://www.w3.org/2002/07/owl#Thing
p30
aVhttp://xmlns.com/foaf/0.1/Person
p31
aVhttp://dbpedia.org/ontology/Person
p32
aVhttp://www.ontologydesignpatterns.org/ont/dul/DUL.owl#Agent
p33
aVhttp://www.ontologydesignpatterns.org/ont/dul/DUL.owl#NaturalPerson
p34
aVhttp://www.wikidata.org/entity/Q215627
p35
aVhttp://www.wikidata.org/entity/Q5
p36
aVhttp://dbpedia.org/ontology/Agent
p37
aVhttp://schema.org/Person
p38
aVhttp://dbpedia.org/class/yago/EnglishCricketers
p39
aVhttp://dbpedia.org/class/yago/PeopleFromKeighley
p40
aVhttp://dbpedia.org/class/yago/YagoLegalActor
p41
aVhttp://dbpedia.org/class/yago/PhysicalEntity100001930
p42
aVhttp://dbpedia.org/class/yago/YorkshireCricketers
p43
aVhttp://dbpedia.org/resource/Jeremiah_Driver
tp44
aaa(lp45
(lp46
a(lp47
a(lp48
((lp49
Vhttp://dbpedia.org/class/yago/CausalAgent100007347
p50
aVhttp://dbpedia.org/class/yago/LivingThing100004258
p51
aVhttp://dbpedia.org/class/yago/Object100002684
p52
aVhttp://dbpedia.org/class/yago/Organism100004475
p53
aVhttp://dbpedia.org/class/yago/Person100007846
p54
aVhttp://dbpedia.org/class/yago/Whole100003553
p55
aVhttp://dbpedia.org/class/yago/YagoLegalActorGeo
p56
aVhttp://www.w3.org/2002/07/owl#Thing
p57
aVhttp://xmlns.com/foaf/0.1/Person
p58
aVhttp://dbpedia.org/ontology/Person
p59
aVhttp://www.ontologydesignpatterns.org/ont/dul/DUL.owl#Agent
p60
aVhttp://www.ontologydesignpatterns.org/ont/dul/DUL.owl#NaturalPerson
p61
aVhttp://www.wikidata.org/entity/Q215627
p62
aVhttp://www.wikidata.org/entity/Q5
p63
aVhttp://dbpedia.org/ontology/Agent
p64
aVhttp://schema.org/Person
p65
aVhttp://dbpedia.org/class/yago/YagoLegalActor
p66
aVhttp://dbpedia.org/class/yago/IndigenousPeopleOfTheSouthernCone
p67
aVhttp://dbpedia.org/class/yago/PhysicalEntity100001930
p68
aVhttp://dbpedia.org/resource/Jemmy_Button
tp69
aaa(lp70
(lp71
a(lp72
a(lp73
aa(lp74
(lp75
a(lp76
a(lp77
aa(lp78
(lp79
a(lp80
a(lp81
aa(lp82
(lp83
a(lp84
a(lp85
aa(lp86
(lp87
a(lp88
a(lp89
aa(lp90
(lp91
a(lp92
a(lp93
aa(lp94
(lp95
a(lp96
a(lp97
aa(lp98
(lp99
a(lp100
a(lp101
aa(lp102
(lp103
a(lp104
a(lp105
((lp106
Vhttp://www.w3.org/2002/07/owl#Thing
p107
aVhttp://xmlns.com/foaf/0.1/Person
p108
aVhttp://dbpedia.org/ontology/Person
p109
aVhttp://www.ontologydesignpatterns.org/ont/dul/DUL.owl#Agent
p110
aVhttp://www.ontologydesignpatterns.org/ont/dul/DUL.owl#NaturalPerson
p111
aVhttp://www.wikidata.org/entity/Q215627
p112
aVhttp://www.wikidata.org/entity/Q5
p113
aVhttp://www.wikidata.org/entity/Q937857
p114
aVhttp://dbpedia.org/ontology/Agent
p115
aVhttp://dbpedia.org/ontology/Athlete
p116
aVhttp://dbpedia.org/ontology/SoccerPlayer
p117
aVhttp://schema.org/Person
p118
aVhttp://dbpedia.org/resource/Mat\u011bj_Hanousek
p119
tp120
aaa(lp121
(lp122
a(lp123
a(lp124
aa(lp125
(lp126
a(lp127
a(lp128
aa(lp129
(lp130
a(lp131
a(lp132
aa.