(lp1
(lp2
(lp3
((lp4
Vhttp://www.w3.org/2002/07/owl#Thing
p5
aVhttp://xmlns.com/foaf/0.1/Person
p6
aVhttp://dbpedia.org/ontology/Person
p7
aVhttp://www.ontologydesignpatterns.org/ont/dul/DUL.owl#Agent
p8
aVhttp://www.ontologydesignpatterns.org/ont/dul/DUL.owl#NaturalPerson
p9
aVhttp://www.wikidata.org/entity/Q215627
p10
aVhttp://www.wikidata.org/entity/Q5
p11
aVhttp://dbpedia.org/ontology/Agent
p12
aVhttp://dbpedia.org/ontology/Baronet
p13
aVhttp://dbpedia.org/ontology/BritishRoyalty
p14
aVhttp://dbpedia.org/ontology/Royalty
p15
aVhttp://schema.org/Person
p16
aVhttp://dbpedia.org/resource/Arthur_Cory-Wright
tp17
aa(lp18
((lp19
Vhttp://www.w3.org/2002/07/owl#Thing
p20
aVhttp://xmlns.com/foaf/0.1/Person
p21
aVhttp://dbpedia.org/ontology/Person
p22
aVhttp://www.ontologydesignpatterns.org/ont/dul/DUL.owl#Agent
p23
aVhttp://www.ontologydesignpatterns.org/ont/dul/DUL.owl#NaturalPerson
p24
aVhttp://www.wikidata.org/entity/Q215627
p25
aVhttp://www.wikidata.org/entity/Q5
p26
aVhttp://dbpedia.org/ontology/Agent
p27
aVhttp://dbpedia.org/ontology/Baronet
p28
aVhttp://dbpedia.org/ontology/BritishRoyalty
p29
aVhttp://dbpedia.org/ontology/Royalty
p30
aVhttp://schema.org/Person
p31
aVhttp://dbpedia.org/resource/Longueville_baronets
tp32
aa(lp33
((lp34
Vhttp://www.w3.org/2002/07/owl#Thing
p35
aVhttp://xmlns.com/foaf/0.1/Person
p36
aVhttp://dbpedia.org/ontology/Person
p37
aVhttp://www.ontologydesignpatterns.org/ont/dul/DUL.owl#Agent
p38
aVhttp://www.ontologydesignpatterns.org/ont/dul/DUL.owl#NaturalPerson
p39
aVhttp://www.wikidata.org/entity/Q215627
p40
aVhttp://www.wikidata.org/entity/Q5
p41
aVhttp://dbpedia.org/ontology/Agent
p42
aVhttp://dbpedia.org/ontology/Baronet
p43
aVhttp://dbpedia.org/ontology/BritishRoyalty
p44
aVhttp://dbpedia.org/ontology/Royalty
p45
aVhttp://schema.org/Person
p46
aVhttp://dbpedia.org/resource/O'Neill_baronets
p47
tp48
aaa.