(lp1
(lp2
(lp3
a(lp4
aa(lp5
(lp6
a(lp7
aa(lp8
(lp9
a(lp10
aa(lp11
(lp12
Vhttp://dbpedia.org/resource/Huawei_E5
p13
aa(lp14
aa(lp15
(lp16
a(lp17
aa(lp18
(lp19
Vhttp://dbpedia.org/resource/LG_GT365
p20
aa(lp21
aa(lp22
(lp23
Vhttp://dbpedia.org/resource/Meizu_MX
p24
aa(lp25
aa(lp26
(lp27
a(lp28
aa(lp29
(lp30
Vhttp://dbpedia.org/resource/Nexus_4
p31
aa(lp32
aa(lp33
(lp34
Vhttp://dbpedia.org/resource/Nokia_C6-01
p35
aa(lp36
aa(lp37
(lp38
Vhttp://dbpedia.org/resource/Nokia_C6-01
p39
aa(lp40
aa(lp41
(lp42
Vhttp://dbpedia.org/resource/Nokia_X2-02
p43
aa(lp44
aa(lp45
(lp46
a(lp47
aa(lp48
(lp49
a(lp50
aa(lp51
(lp52
a(lp53
aa(lp54
(lp55
a(lp56
aa(lp57
(lp58
a(lp59
aa(lp60
(lp61
a(lp62
aa(lp63
(lp64
a(lp65
aa.