(lp1
(lp2
(lp3
a(lp4
((lp5
Vhttp://dbpedia.org/class/yago/Abstraction100002137
p6
aVhttp://dbpedia.org/class/yago/GrammaticalRelation113796779
p7
aVhttp://dbpedia.org/class/yago/Relation100031921
p8
aVhttp://dbpedia.org/class/yago/ProgrammingParadigms
p9
aVhttp://www.w3.org/2002/07/owl#Thing
p10
aVhttp://dbpedia.org/ontology/Genre
p11
aVhttp://www.ontologydesignpatterns.org/ont/dul/DUL.owl#Concept
p12
aVhttp://www.wikidata.org/entity/Q188451
p13
aVhttp://dbpedia.org/ontology/TopicalConcept
p14
aVhttp://dbpedia.org/class/yago/Paradigm113804375
p15
aVhttp://dbpedia.org/class/yago/Inflection113803782
p16
aVhttp://dbpedia.org/class/yago/LinguisticRelation113797142
p17
aVhttp://dbpedia.org/resource/Attribute-oriented_programming
tp18
aa(lp19
aa(lp20
(lp21
a(lp22
((lp23
Vhttp://www.w3.org/2002/07/owl#Thing
p24
aVhttp://dbpedia.org/ontology/Genre
p25
aVhttp://www.ontologydesignpatterns.org/ont/dul/DUL.owl#Concept
p26
aVhttp://www.wikidata.org/entity/Q188451
p27
aVhttp://dbpedia.org/ontology/TopicalConcept
p28
aVhttp://dbpedia.org/resource/Attribute\u2013value_pair
tp29
aa(lp30
aa(lp31
(lp32
a(lp33
((lp34
Vhttp://www.w3.org/2002/07/owl#Thing
p35
aVhttp://dbpedia.org/ontology/Genre
p36
aVhttp://www.ontologydesignpatterns.org/ont/dul/DUL.owl#Concept
p37
aVhttp://www.wikidata.org/entity/Q188451
p38
aVhttp://dbpedia.org/ontology/TopicalConcept
p39
aVhttp://dbpedia.org/resource/Audio_normalization
tp40
aa(lp41
aa(lp42
(lp43
a(lp44
((lp45
Vhttp://www.w3.org/2002/07/owl#Thing
p46
aVhttp://dbpedia.org/ontology/Genre
p47
aVhttp://www.ontologydesignpatterns.org/ont/dul/DUL.owl#Concept
p48
aVhttp://www.wikidata.org/entity/Q188451
p49
aVhttp://dbpedia.org/ontology/TopicalConcept
p50
aVhttp://dbpedia.org/resource/Audition
tp51
aa(lp52
aa(lp53
(lp54
a(lp55
((lp56
Vhttp://dbpedia.org/class/yago/Abstraction100002137
p57
aVhttp://dbpedia.org/class/yago/Attribute100024264
p58
aVhttp://dbpedia.org/class/yago/Manner104928903
p59
aVhttp://dbpedia.org/class/yago/Property104916342
p60
aVhttp://www.w3.org/2002/07/owl#Thing
p61
aVhttp://dbpedia.org/ontology/Genre
p62
aVhttp://www.ontologydesignpatterns.org/ont/dul/DUL.owl#Concept
p63
aVhttp://www.wikidata.org/entity/Q188451
p64
aVhttp://dbpedia.org/ontology/TopicalConcept
p65
aVhttp://dbpedia.org/class/yago/DanceStyles
p66
aVhttp://dbpedia.org/resource/B-boying
tp67
aa(lp68
aa(lp69
(lp70
a(lp71
((lp72
Vhttp://www.w3.org/2002/07/owl#Thing
p73
aVhttp://dbpedia.org/ontology/Genre
p74
aVhttp://www.ontologydesignpatterns.org/ont/dul/DUL.owl#Concept
p75
aVhttp://www.wikidata.org/entity/Q188451
p76
aVhttp://dbpedia.org/ontology/TopicalConcept
p77
aVhttp://dbpedia.org/resource/Backup
tp78
aa(lp79
aa(lp80
(lp81
a(lp82
((lp83
Vhttp://dbpedia.org/class/yago/Abstraction100002137
p84
aVhttp://dbpedia.org/class/yago/AuditoryCommunication107109019
p85
aVhttp://dbpedia.org/class/yago/Cognition100023271
p86
aVhttp://dbpedia.org/class/yago/Communication100033020
p87
aVhttp://dbpedia.org/class/yago/Concept105835747
p88
aVhttp://dbpedia.org/class/yago/Content105809192
p89
aVhttp://dbpedia.org/class/yago/ExpressiveStyle107066659
p90
aVhttp://dbpedia.org/class/yago/Genre105845332
p91
aVhttp://dbpedia.org/class/yago/Idea105833840
p92
aVhttp://dbpedia.org/class/yago/Kind105839024
p93
aVhttp://dbpedia.org/class/yago/Music107020895
p94
aVhttp://dbpedia.org/class/yago/MusicGenre107071942
p95
aVhttp://dbpedia.org/class/yago/PunkGenres
p96
aVhttp://www.w3.org/2002/07/owl#Thing
p97
aVhttp://dbpedia.org/ontology/Genre
p98
aVhttp://www.ontologydesignpatterns.org/ont/dul/DUL.owl#Concept
p99
aVhttp://www.wikidata.org/entity/Q188451
p100
aVhttp://dbpedia.org/ontology/MusicGenre
p101
aVhttp://dbpedia.org/ontology/TopicalConcept
p102
aVhttp://dbpedia.org/class/yago/PsychologicalFeature100023100
p103
aVhttp://dbpedia.org/class/yago/Category105838765
p104
aVhttp://dbpedia.org/resource/Bandana_thrash
tp105
aa(lp106
aa(lp107
(lp108
a(lp109
((lVhttp://dbpedia.org/resource/Bassline
tp110
aa(lp111
aa(lp112
(lp113
a(lp114
((lp115
Vhttp://dbpedia.org/class/yago/Abstraction100002137
p116
aVhttp://dbpedia.org/class/yago/Act100030358
p117
aVhttp://dbpedia.org/class/yago/Activity100407535
p118
aVhttp://dbpedia.org/class/yago/BrazilianMartialArts
p119
aVhttp://dbpedia.org/class/yago/Diversion100426928
p120
aVhttp://dbpedia.org/class/yago/Event100029378
p121
aVhttp://dbpedia.org/class/yago/MartialArt100825443
p122
aVhttp://dbpedia.org/class/yago/Protection100817680
p123
aVhttp://dbpedia.org/class/yago/Sport100523513
p124
aVhttp://dbpedia.org/class/yago/CombatSports
p125
aVhttp://dbpedia.org/class/yago/PsychologicalFeature100023100
p126
aVhttp://dbpedia.org/class/yago/YagoPermanentlyLocatedEntity
p127
aVhttp://dbpedia.org/class/yago/Self-defense100825192
p128
aVhttp://dbpedia.org/resource/Batuque_(game)
tp129
aa(lp130
aa(lp131
(lp132
a(lp133
((lp134
Vhttp://www.w3.org/2002/07/owl#Thing
p135
aVhttp://dbpedia.org/ontology/Genre
p136
aVhttp://www.ontologydesignpatterns.org/ont/dul/DUL.owl#Concept
p137
aVhttp://www.wikidata.org/entity/Q188451
p138
aVhttp://dbpedia.org/ontology/TopicalConcept
p139
aVhttp://dbpedia.org/resource/Behavior-driven_development
tp140
aa(lp141
aa(lp142
(lp143
a(lp144
((lVhttp://dbpedia.org/resource/Beidou_Navigation_Satellite_System
tp145
aa(lp146
aa(lp147
(lp148
a(lp149
((lp150
Vhttp://www.w3.org/2002/07/owl#Thing
p151
aVhttp://dbpedia.org/ontology/Genre
p152
aVhttp://www.ontologydesignpatterns.org/ont/dul/DUL.owl#Concept
p153
aVhttp://www.wikidata.org/entity/Q188451
p154
aVhttp://dbpedia.org/ontology/TopicalConcept
p155
aVhttp://dbpedia.org/resource/Bel_canto
tp156
aa(lp157
aa(lp158
(lp159
a(lp160
((lp161
Vhttp://www.w3.org/2002/07/owl#Thing
p162
aVhttp://dbpedia.org/ontology/Genre
p163
aVhttp://www.ontologydesignpatterns.org/ont/dul/DUL.owl#Concept
p164
aVhttp://www.wikidata.org/entity/Q188451
p165
aVhttp://dbpedia.org/ontology/MusicGenre
p166
aVhttp://dbpedia.org/ontology/TopicalConcept
p167
aVhttp://dbpedia.org/resource/Boi_(music)
tp168
aa(lp169
aa(lp170
(lp171
a(lp172
((lp173
Vhttp://dbpedia.org/class/yago/Abstraction100002137
p174
aVhttp://dbpedia.org/class/yago/Attribute100024264
p175
aVhttp://dbpedia.org/class/yago/AuditoryCommunication107109019
p176
aVhttp://dbpedia.org/class/yago/BrazilianStylesOfMusic
p177
aVhttp://dbpedia.org/class/yago/Communication100033020
p178
aVhttp://dbpedia.org/class/yago/ExpressiveStyle107066659
p179
aVhttp://dbpedia.org/class/yago/Manner104928903
p180
aVhttp://dbpedia.org/class/yago/Music107020895
p181
aVhttp://dbpedia.org/class/yago/MusicGenre107071942
p182
aVhttp://dbpedia.org/class/yago/Property104916342
p183
aVhttp://www.w3.org/2002/07/owl#Thing
p184
aVhttp://dbpedia.org/ontology/Genre
p185
aVhttp://www.ontologydesignpatterns.org/ont/dul/DUL.owl#Concept
p186
aVhttp://www.wikidata.org/entity/Q188451
p187
aVhttp://dbpedia.org/ontology/MusicGenre
p188
aVhttp://dbpedia.org/ontology/TopicalConcept
p189
aVhttp://umbel.org/umbel/rc/MusicalComposition
p190
aVhttp://dbpedia.org/resource/Bossa_nova
tp191
aa(lp192
aa(lp193
(lp194
a(lp195
((lp196
Vhttp://dbpedia.org/class/yago/Ability105616246
p197
aVhttp://dbpedia.org/class/yago/Abstraction100002137
p198
aVhttp://dbpedia.org/class/yago/Breaks
p199
aVhttp://dbpedia.org/class/yago/Cognition100023271
p200
aVhttp://dbpedia.org/class/yago/Event100029378
p201
aVhttp://dbpedia.org/class/yago/Happening107283608
p202
aVhttp://dbpedia.org/class/yago/Interruption107367812
p203
aVhttp://dbpedia.org/class/yago/Know-how105616786
p204
aVhttp://dbpedia.org/class/yago/Method105660268
p205
aVhttp://dbpedia.org/class/yago/Technique105665146
p206
aVhttp://www.w3.org/2002/07/owl#Thing
p207
aVhttp://dbpedia.org/ontology/Genre
p208
aVhttp://www.ontologydesignpatterns.org/ont/dul/DUL.owl#Concept
p209
aVhttp://www.wikidata.org/entity/Q188451
p210
aVhttp://dbpedia.org/ontology/TopicalConcept
p211
aVhttp://dbpedia.org/class/yago/PsychologicalFeature100023100
p212
aVhttp://dbpedia.org/class/yago/YagoPermanentlyLocatedEntity
p213
aVhttp://dbpedia.org/class/yago/MusicalTechniques
p214
aVhttp://dbpedia.org/resource/Break_(music)
tp215
aa(lp216
aa(lp217
(lp218
a(lp219
((lp220
Vhttp://www.w3.org/2002/07/owl#Thing
p221
aVhttp://dbpedia.org/ontology/Genre
p222
aVhttp://www.ontologydesignpatterns.org/ont/dul/DUL.owl#Concept
p223
aVhttp://www.wikidata.org/entity/Q188451
p224
aVhttp://dbpedia.org/ontology/TopicalConcept
p225
aVhttp://www.w3.org/2003/01/geo/wgs84_pos#SpatialThing
p226
aVhttp://dbpedia.org/resource/Broadway_theatre
tp227
aa(lp228
aa(lp229
(lp230
a(lp231
((lp232
Vhttp://www.w3.org/2002/07/owl#Thing
p233
aVhttp://dbpedia.org/ontology/Genre
p234
aVhttp://www.ontologydesignpatterns.org/ont/dul/DUL.owl#Concept
p235
aVhttp://www.wikidata.org/entity/Q188451
p236
aVhttp://dbpedia.org/ontology/TopicalConcept
p237
aVhttp://dbpedia.org/resource/Bug_tracking_system
tp238
aa(lp239
aa(lp240
(lp241
a(lp242
((lp243
Vhttp://dbpedia.org/class/yago/Abstraction100002137
p244
aVhttp://dbpedia.org/class/yago/Attribute100024264
p245
aVhttp://dbpedia.org/class/yago/Manner104928903
p246
aVhttp://dbpedia.org/class/yago/Property104916342
p247
aVhttp://www.w3.org/2002/07/owl#Thing
p248
aVhttp://dbpedia.org/ontology/Genre
p249
aVhttp://www.ontologydesignpatterns.org/ont/dul/DUL.owl#Concept
p250
aVhttp://www.wikidata.org/entity/Q188451
p251
aVhttp://dbpedia.org/ontology/MusicGenre
p252
aVhttp://dbpedia.org/ontology/TopicalConcept
p253
aVhttp://dbpedia.org/class/yago/WesternClassicalMusicStyles
p254
aVhttp://dbpedia.org/resource/Capriccio_(music)
tp255
aa(lp256
aa(lp257
(lp258
a(lp259
((lp260
Vhttp://www.w3.org/2002/07/owl#Thing
p261
aVhttp://dbpedia.org/ontology/Genre
p262
aVhttp://www.ontologydesignpatterns.org/ont/dul/DUL.owl#Concept
p263
aVhttp://www.wikidata.org/entity/Q188451
p264
aVhttp://dbpedia.org/ontology/TopicalConcept
p265
aVhttp://dbpedia.org/resource/Catholic_social_teaching
p266
tp267
aa(lp268
aa.