(lp1
(lp2
(lp3
((lp4
Vhttp://www.w3.org/2002/07/owl#Thing
p5
aVhttp://www.ontologydesignpatterns.org/ont/dul/DUL.owl#Situation
p6
aVhttp://www.wikidata.org/entity/Q2334719
p7
aVhttp://dbpedia.org/ontology/Case
p8
aVhttp://dbpedia.org/ontology/LegalCase
p9
aVhttp://dbpedia.org/ontology/SupremeCourtOfTheUnitedStatesCase
p10
aVhttp://dbpedia.org/ontology/UnitOfWork
p11
aVhttp://umbel.org/umbel/rc/Event
p12
aVhttp://dbpedia.org/resource/Lochner_v._New_York
tp13
aa(lp14
((lp15
Vhttp://www.w3.org/2002/07/owl#Thing
p16
aVhttp://www.ontologydesignpatterns.org/ont/dul/DUL.owl#Situation
p17
aVhttp://www.wikidata.org/entity/Q2334719
p18
aVhttp://dbpedia.org/ontology/Case
p19
aVhttp://dbpedia.org/ontology/LegalCase
p20
aVhttp://dbpedia.org/ontology/SupremeCourtOfTheUnitedStatesCase
p21
aVhttp://dbpedia.org/ontology/UnitOfWork
p22
aVhttp://umbel.org/umbel/rc/Event
p23
aVhttp://dbpedia.org/resource/Morton_v._Ruiz
tp24
aa(lp25
((lp26
Vhttp://www.w3.org/2002/07/owl#Thing
p27
aVhttp://www.ontologydesignpatterns.org/ont/dul/DUL.owl#Situation
p28
aVhttp://www.wikidata.org/entity/Q2334719
p29
aVhttp://dbpedia.org/ontology/Case
p30
aVhttp://dbpedia.org/ontology/LegalCase
p31
aVhttp://dbpedia.org/ontology/SupremeCourtOfTheUnitedStatesCase
p32
aVhttp://dbpedia.org/ontology/UnitOfWork
p33
aVhttp://dbpedia.org/resource/Oklahoma_Tax_Commission_v._Sac_&_Fox_Nation
tp34
aa(lp35
((lp36
Vhttp://dbpedia.org/class/yago/Abstraction100002137
p37
aVhttp://dbpedia.org/class/yago/Act100030358
p38
aVhttp://dbpedia.org/class/yago/Action100037396
p39
aVhttp://dbpedia.org/class/yago/Decision100162632
p40
aVhttp://dbpedia.org/class/yago/Event100029378
p41
aVhttp://www.w3.org/2002/07/owl#Thing
p42
aVhttp://www.ontologydesignpatterns.org/ont/dul/DUL.owl#Situation
p43
aVhttp://www.wikidata.org/entity/Q2334719
p44
aVhttp://dbpedia.org/ontology/Case
p45
aVhttp://dbpedia.org/ontology/LegalCase
p46
aVhttp://dbpedia.org/ontology/SupremeCourtOfTheUnitedStatesCase
p47
aVhttp://dbpedia.org/ontology/UnitOfWork
p48
aVhttp://umbel.org/umbel/rc/Event
p49
aVhttp://dbpedia.org/class/yago/Choice100161243
p50
aVhttp://dbpedia.org/class/yago/PsychologicalFeature100023100
p51
aVhttp://dbpedia.org/class/yago/YagoPermanentlyLocatedEntity
p52
aVhttp://dbpedia.org/class/yago/OverruledUnitedStatesSupremeCourtDecisions
p53
aVhttp://dbpedia.org/resource/Roth_v._United_States
tp54
aa(lp55
((lp56
Vhttp://www.w3.org/2002/07/owl#Thing
p57
aVhttp://www.ontologydesignpatterns.org/ont/dul/DUL.owl#Situation
p58
aVhttp://www.wikidata.org/entity/Q2334719
p59
aVhttp://dbpedia.org/ontology/Case
p60
aVhttp://dbpedia.org/ontology/LegalCase
p61
aVhttp://dbpedia.org/ontology/SupremeCourtOfTheUnitedStatesCase
p62
aVhttp://dbpedia.org/ontology/UnitOfWork
p63
aVhttp://umbel.org/umbel/rc/Event
p64
aVhttp://dbpedia.org/resource/United_States_v._Lawrence
tp65
aa(lp66
((lp67
Vhttp://www.w3.org/2002/07/owl#Thing
p68
aVhttp://www.ontologydesignpatterns.org/ont/dul/DUL.owl#Situation
p69
aVhttp://www.wikidata.org/entity/Q2334719
p70
aVhttp://dbpedia.org/ontology/Case
p71
aVhttp://dbpedia.org/ontology/LegalCase
p72
aVhttp://dbpedia.org/ontology/SupremeCourtOfTheUnitedStatesCase
p73
aVhttp://dbpedia.org/ontology/UnitOfWork
p74
aVhttp://umbel.org/umbel/rc/Event
p75
aVhttp://dbpedia.org/resource/Vernonia_School_District_47J_v._Acton
tp76
aa(lp77
((lp78
Vhttp://www.w3.org/2002/07/owl#Thing
p79
aVhttp://www.ontologydesignpatterns.org/ont/dul/DUL.owl#Situation
p80
aVhttp://www.wikidata.org/entity/Q2334719
p81
aVhttp://dbpedia.org/ontology/Case
p82
aVhttp://dbpedia.org/ontology/LegalCase
p83
aVhttp://dbpedia.org/ontology/SupremeCourtOfTheUnitedStatesCase
p84
aVhttp://dbpedia.org/ontology/UnitOfWork
p85
aVhttp://umbel.org/umbel/rc/Event
p86
aVhttp://dbpedia.org/resource/Joint_Anti-Fascist_Refugee_Committee_v._McGrath
tp87
aa(lp88
((lp89
Vhttp://www.w3.org/2002/07/owl#Thing
p90
aVhttp://www.ontologydesignpatterns.org/ont/dul/DUL.owl#Situation
p91
aVhttp://www.wikidata.org/entity/Q2334719
p92
aVhttp://dbpedia.org/ontology/Case
p93
aVhttp://dbpedia.org/ontology/LegalCase
p94
aVhttp://dbpedia.org/ontology/SupremeCourtOfTheUnitedStatesCase
p95
aVhttp://dbpedia.org/ontology/UnitOfWork
p96
aVhttp://umbel.org/umbel/rc/Event
p97
aVhttp://dbpedia.org/resource/Morrison_v._Olson
tp98
aa(lp99
((lp100
Vhttp://www.w3.org/2002/07/owl#Thing
p101
aVhttp://www.ontologydesignpatterns.org/ont/dul/DUL.owl#Situation
p102
aVhttp://www.wikidata.org/entity/Q2334719
p103
aVhttp://dbpedia.org/ontology/Case
p104
aVhttp://dbpedia.org/ontology/LegalCase
p105
aVhttp://dbpedia.org/ontology/SupremeCourtOfTheUnitedStatesCase
p106
aVhttp://dbpedia.org/ontology/UnitOfWork
p107
aVhttp://dbpedia.org/resource/United_States_v._Scheffer
tp108
aa(lp109
((lp110
Vhttp://www.w3.org/2002/07/owl#Thing
p111
aVhttp://www.ontologydesignpatterns.org/ont/dul/DUL.owl#Situation
p112
aVhttp://www.wikidata.org/entity/Q2334719
p113
aVhttp://dbpedia.org/ontology/Case
p114
aVhttp://dbpedia.org/ontology/LegalCase
p115
aVhttp://dbpedia.org/ontology/SupremeCourtOfTheUnitedStatesCase
p116
aVhttp://dbpedia.org/ontology/UnitOfWork
p117
aVhttp://umbel.org/umbel/rc/Event
p118
aVhttp://dbpedia.org/resource/Berman_v._Parker
tp119
aa(lp120
((lp121
Vhttp://www.w3.org/2002/07/owl#Thing
p122
aVhttp://www.ontologydesignpatterns.org/ont/dul/DUL.owl#Situation
p123
aVhttp://www.wikidata.org/entity/Q2334719
p124
aVhttp://dbpedia.org/ontology/Case
p125
aVhttp://dbpedia.org/ontology/LegalCase
p126
aVhttp://dbpedia.org/ontology/SupremeCourtOfTheUnitedStatesCase
p127
aVhttp://dbpedia.org/ontology/UnitOfWork
p128
aVhttp://umbel.org/umbel/rc/Event
p129
aVhttp://dbpedia.org/resource/Chung_Fook_v._White
tp130
aa(lp131
((lp132
Vhttp://www.w3.org/2002/07/owl#Thing
p133
aVhttp://www.ontologydesignpatterns.org/ont/dul/DUL.owl#Situation
p134
aVhttp://www.wikidata.org/entity/Q2334719
p135
aVhttp://dbpedia.org/ontology/Case
p136
aVhttp://dbpedia.org/ontology/LegalCase
p137
aVhttp://dbpedia.org/ontology/SupremeCourtOfTheUnitedStatesCase
p138
aVhttp://dbpedia.org/ontology/UnitOfWork
p139
aVhttp://dbpedia.org/resource/Dowling_v._United_States
tp140
aa(lp141
((lp142
Vhttp://www.w3.org/2002/07/owl#Thing
p143
aVhttp://www.ontologydesignpatterns.org/ont/dul/DUL.owl#Situation
p144
aVhttp://www.wikidata.org/entity/Q2334719
p145
aVhttp://dbpedia.org/ontology/Case
p146
aVhttp://dbpedia.org/ontology/LegalCase
p147
aVhttp://dbpedia.org/ontology/SupremeCourtOfTheUnitedStatesCase
p148
aVhttp://dbpedia.org/ontology/UnitOfWork
p149
aVhttp://umbel.org/umbel/rc/Event
p150
aVhttp://dbpedia.org/resource/Evans_v._Cornman
tp151
aa(lp152
((lp153
Vhttp://www.w3.org/2002/07/owl#Thing
p154
aVhttp://www.ontologydesignpatterns.org/ont/dul/DUL.owl#Situation
p155
aVhttp://www.wikidata.org/entity/Q2334719
p156
aVhttp://dbpedia.org/ontology/Case
p157
aVhttp://dbpedia.org/ontology/LegalCase
p158
aVhttp://dbpedia.org/ontology/SupremeCourtOfTheUnitedStatesCase
p159
aVhttp://dbpedia.org/ontology/UnitOfWork
p160
aVhttp://umbel.org/umbel/rc/Event
p161
aVhttp://dbpedia.org/resource/Feres_v._United_States
tp162
aa(lp163
((lp164
Vhttp://www.w3.org/2002/07/owl#Thing
p165
aVhttp://www.ontologydesignpatterns.org/ont/dul/DUL.owl#Situation
p166
aVhttp://www.wikidata.org/entity/Q2334719
p167
aVhttp://dbpedia.org/ontology/Case
p168
aVhttp://dbpedia.org/ontology/LegalCase
p169
aVhttp://dbpedia.org/ontology/SupremeCourtOfTheUnitedStatesCase
p170
aVhttp://dbpedia.org/ontology/UnitOfWork
p171
aVhttp://umbel.org/umbel/rc/Event
p172
aVhttp://dbpedia.org/resource/Gagnon_v._Scarpelli
tp173
aa(lp174
((lp175
Vhttp://dbpedia.org/class/yago/Abstraction100002137
p176
aVhttp://dbpedia.org/class/yago/Act100030358
p177
aVhttp://dbpedia.org/class/yago/Action100037396
p178
aVhttp://dbpedia.org/class/yago/Decision100162632
p179
aVhttp://dbpedia.org/class/yago/Event100029378
p180
aVhttp://www.w3.org/2002/07/owl#Thing
p181
aVhttp://www.ontologydesignpatterns.org/ont/dul/DUL.owl#Situation
p182
aVhttp://www.wikidata.org/entity/Q2334719
p183
aVhttp://dbpedia.org/ontology/Case
p184
aVhttp://dbpedia.org/ontology/LegalCase
p185
aVhttp://dbpedia.org/ontology/SupremeCourtOfTheUnitedStatesCase
p186
aVhttp://dbpedia.org/ontology/UnitOfWork
p187
aVhttp://umbel.org/umbel/rc/Event
p188
aVhttp://dbpedia.org/class/yago/Choice100161243
p189
aVhttp://dbpedia.org/class/yago/PsychologicalFeature100023100
p190
aVhttp://dbpedia.org/class/yago/YagoPermanentlyLocatedEntity
p191
aVhttp://dbpedia.org/class/yago/OverruledUnitedStatesSupremeCourtDecisions
p192
aVhttp://dbpedia.org/resource/Perez_v._Brownell
tp193
aa(lp194
((lp195
Vhttp://www.w3.org/2002/07/owl#Thing
p196
aVhttp://www.ontologydesignpatterns.org/ont/dul/DUL.owl#Situation
p197
aVhttp://www.wikidata.org/entity/Q2334719
p198
aVhttp://dbpedia.org/ontology/Case
p199
aVhttp://dbpedia.org/ontology/LegalCase
p200
aVhttp://dbpedia.org/ontology/SupremeCourtOfTheUnitedStatesCase
p201
aVhttp://dbpedia.org/ontology/UnitOfWork
p202
aVhttp://umbel.org/umbel/rc/Event
p203
aVhttp://dbpedia.org/resource/Rapanos_v._United_States
tp204
aa(lp205
((lp206
Vhttp://dbpedia.org/class/yago/GeologicalFormation109287968
p207
aVhttp://dbpedia.org/class/yago/Mountain109359803
p208
aVhttp://dbpedia.org/class/yago/Object100002684
p209
aVhttp://dbpedia.org/class/yago/YagoGeoEntity
p210
aVhttp://dbpedia.org/class/yago/SantaMonicaMountains
p211
aVhttp://www.w3.org/2002/07/owl#Thing
p212
aVhttp://www.ontologydesignpatterns.org/ont/dul/DUL.owl#Situation
p213
aVhttp://www.wikidata.org/entity/Q2334719
p214
aVhttp://dbpedia.org/ontology/Case
p215
aVhttp://dbpedia.org/ontology/LegalCase
p216
aVhttp://dbpedia.org/ontology/SupremeCourtOfTheUnitedStatesCase
p217
aVhttp://dbpedia.org/ontology/UnitOfWork
p218
aVhttp://umbel.org/umbel/rc/Event
p219
aVhttp://dbpedia.org/class/yago/YagoPermanentlyLocatedEntity
p220
aVhttp://dbpedia.org/class/yago/NaturalElevation109366317
p221
aVhttp://dbpedia.org/class/yago/PhysicalEntity100001930
p222
aVhttp://dbpedia.org/resource/Rindge_Co._v._County_of_Los_Angeles
tp223
aa(lp224
((lp225
Vhttp://www.w3.org/2002/07/owl#Thing
p226
aVhttp://www.ontologydesignpatterns.org/ont/dul/DUL.owl#Situation
p227
aVhttp://www.wikidata.org/entity/Q2334719
p228
aVhttp://dbpedia.org/ontology/Case
p229
aVhttp://dbpedia.org/ontology/LegalCase
p230
aVhttp://dbpedia.org/ontology/SupremeCourtOfTheUnitedStatesCase
p231
aVhttp://dbpedia.org/ontology/UnitOfWork
p232
aVhttp://umbel.org/umbel/rc/Event
p233
aVhttp://dbpedia.org/resource/Runyon_v._McCrary
p234
tp235
aaa.