(lp1
(lp2
(lp3
((lp4
Vhttp://dbpedia.org/class/yago/Abstraction100002137
p5
aVhttp://dbpedia.org/class/yago/AdministrativeDistrict108491826
p6
aVhttp://dbpedia.org/class/yago/Country108544813
p7
aVhttp://dbpedia.org/class/yago/District108552138
p8
aVhttp://dbpedia.org/class/yago/Economy108366753
p9
aVhttp://dbpedia.org/class/yago/Group100031264
p10
aVhttp://dbpedia.org/class/yago/Location100027167
p11
aVhttp://dbpedia.org/class/yago/Object100002684
p12
aVhttp://dbpedia.org/class/yago/Region108630985
p13
aVhttp://dbpedia.org/class/yago/System108435388
p14
aVhttp://dbpedia.org/class/yago/YagoGeoEntity
p15
aVhttp://dbpedia.org/class/yago/YagoLegalActorGeo
p16
aVhttp://www.w3.org/2002/07/owl#Thing
p17
aVhttp://dbpedia.org/ontology/Place
p18
aVhttp://dbpedia.org/ontology/Location
p19
aVhttp://www.wikidata.org/entity/Q486972
p20
aVhttp://www.wikidata.org/entity/Q6256
p21
aVhttp://dbpedia.org/ontology/PopulatedPlace
p22
aVhttp://schema.org/Country
p23
aVhttp://schema.org/Place
p24
aVhttp://umbel.org/umbel/rc/Country
p25
aVhttp://dbpedia.org/class/yago/English-speakingCountriesAndTerritories
p26
aVhttp://dbpedia.org/class/yago/YagoPermanentlyLocatedEntity
p27
aVhttp://dbpedia.org/class/yago/IslandCountries
p28
aVhttp://dbpedia.org/class/yago/PhysicalEntity100001930
p29
aVhttp://dbpedia.org/resource/England
tp30
aa(lp31
a(lp32
a(lp33
((lp34
Vhttp://dbpedia.org/class/yago/All-AmericanCollegeFootballPlayers
p35
aVhttp://dbpedia.org/class/yago/Athlete109820263
p36
aVhttp://dbpedia.org/class/yago/CausalAgent100007347
p37
aVhttp://dbpedia.org/class/yago/Contestant109613191
p38
aVhttp://dbpedia.org/class/yago/FootballPlayer110101634
p39
aVhttp://dbpedia.org/class/yago/LivingThing100004258
p40
aVhttp://dbpedia.org/class/yago/Object100002684
p41
aVhttp://dbpedia.org/class/yago/Organism100004475
p42
aVhttp://dbpedia.org/class/yago/Person100007846
p43
aVhttp://dbpedia.org/class/yago/Player110439851
p44
aVhttp://dbpedia.org/class/yago/Whole100003553
p45
aVhttp://dbpedia.org/class/yago/YagoLegalActorGeo
p46
aVhttp://dbpedia.org/class/yago/DetroitLionsPlayers
p47
aVhttp://dbpedia.org/class/yago/PeopleFromMinneapolis,Minnesota
p48
aVhttp://dbpedia.org/class/yago/PlayersOfAmericanFootballFromMinnesota
p49
aVhttp://dbpedia.org/class/yago/YagoLegalActor
p50
aVhttp://dbpedia.org/class/yago/LivingPeople
p51
aVhttp://dbpedia.org/class/yago/PhysicalEntity100001930
p52
aVhttp://dbpedia.org/class/yago/WyomingCowboysFootballPlayers
p53
aVhttp://dbpedia.org/resource/Marcus_Harris_(American_football)
tp54
aaa(lp55
(lp56
a(lp57
a(lp58
a(lp59
aa(lp60
(lp61
a(lp62
a(lp63
a(lp64
aa(lp65
(lp66
a(lp67
a(lp68
a(lp69
aa(lp70
(lp71
a(lp72
a(lp73
a(lp74
aa(lp75
(lp76
a(lp77
a(lp78
a(lp79
aa(lp80
(lp81
a(lp82
a(lp83
a(lp84
aa(lp85
(lp86
a(lp87
a(lp88
a(lp89
((lp90
Vhttp://dbpedia.org/class/yago/Adventurer109606009
p91
aVhttp://dbpedia.org/class/yago/Athlete109820263
p92
aVhttp://dbpedia.org/class/yago/CausalAgent100007347
p93
aVhttp://dbpedia.org/class/yago/Contestant109613191
p94
aVhttp://dbpedia.org/class/yago/LivingThing100004258
p95
aVhttp://dbpedia.org/class/yago/Mountaineer110334567
p96
aVhttp://dbpedia.org/class/yago/Object100002684
p97
aVhttp://dbpedia.org/class/yago/Organism100004475
p98
aVhttp://dbpedia.org/class/yago/Person100007846
p99
aVhttp://dbpedia.org/class/yago/Whole100003553
p100
aVhttp://dbpedia.org/class/yago/YagoLegalActorGeo
p101
aVhttp://dbpedia.org/class/yago/SouthKoreanSkiMountaineers
p102
aVhttp://www.w3.org/2002/07/owl#Thing
p103
aVhttp://xmlns.com/foaf/0.1/Person
p104
aVhttp://dbpedia.org/ontology/Person
p105
aVhttp://www.ontologydesignpatterns.org/ont/dul/DUL.owl#Agent
p106
aVhttp://www.ontologydesignpatterns.org/ont/dul/DUL.owl#NaturalPerson
p107
aVhttp://www.wikidata.org/entity/Q215627
p108
aVhttp://www.wikidata.org/entity/Q4270517
p109
aVhttp://www.wikidata.org/entity/Q5
p110
aVhttp://dbpedia.org/ontology/Agent
p111
aVhttp://dbpedia.org/ontology/Athlete
p112
aVhttp://dbpedia.org/ontology/Skier
p113
aVhttp://dbpedia.org/ontology/WinterSportPlayer
p114
aVhttp://schema.org/Person
p115
aVhttp://dbpedia.org/class/yago/Climber109929298
p116
aVhttp://dbpedia.org/class/yago/YagoLegalActor
p117
aVhttp://dbpedia.org/class/yago/LivingPeople
p118
aVhttp://dbpedia.org/class/yago/PhysicalEntity100001930
p119
aVhttp://dbpedia.org/resource/Park_Jong-il
p120
tp121
aaa.