ccollections
defaultdict
p1
(c__builtin__
dict
p2
tRp3
I1
(dp4
I0
(lp5
sI2
(lp6
sI3
(lp7
ssI3
(dp8
I0
(lp9
sI2
(lp10
Vhttp://dbpedia.org/ontology/wikiPageExternalLink
p11
aVhttp://xmlns.com/foaf/0.1/homepage
p12
aVhttp://dbpedia.org/property/s
p13
asI3
(lp14
ssI4
(dp15
I0
(lp16
sI2
(lp17
Vhttp://dbpedia.org/ontology/wikiPageExternalLink
p18
aVhttp://xmlns.com/foaf/0.1/homepage
p19
aVhttp://dbpedia.org/property/s
p20
asI3
(lp21
ssI5
(dp22
I0
(lp23
sI2
(lp24
Vhttp://dbpedia.org/ontology/wikiPageExternalLink
p25
aVhttp://xmlns.com/foaf/0.1/homepage
p26
aVhttp://dbpedia.org/property/s
p27
asI3
(lp28
ssI6
(dp29
I0
(lp30
sI2
(lp31
Vhttp://dbpedia.org/ontology/wikiPageExternalLink
p32
aVhttp://xmlns.com/foaf/0.1/homepage
p33
aVhttp://dbpedia.org/property/s
p34
asI3
(lp35
ssI7
(dp36
I0
(lp37
sI2
(lp38
Vhttp://dbpedia.org/ontology/wikiPageExternalLink
p39
aVhttp://xmlns.com/foaf/0.1/homepage
p40
aVhttp://dbpedia.org/property/s
p41
asI3
(lp42
ssI8
(dp43
I0
(lp44
sI2
(lp45
Vhttp://dbpedia.org/ontology/wikiPageExternalLink
p46
aVhttp://xmlns.com/foaf/0.1/homepage
p47
aVhttp://dbpedia.org/property/s
p48
asI3
(lp49
ssI9
(dp50
I0
(lp51
sI2
(lp52
sI3
(lp53
ssI10
(dp54
I0
(lp55
sI2
(lp56
sI3
(lp57
ssI14
(dp58
I0
(lp59
sI2
(lp60
Vhttp://dbpedia.org/ontology/wikiPageExternalLink
p61
aVhttp://dbpedia.org/property/report
p62
asI3
(lp63
ss.