(lp1
(lp2
(lp3
a(lp4
a(lp5
a(lp6
aa(lp7
(lp8
a(lp9
((lp10
Vhttp://www.w3.org/2002/07/owl#Thing
p11
aVhttp://dbpedia.org/ontology/SoccerClubSeason
p12
aVhttp://dbpedia.org/ontology/SportsSeason
p13
aVhttp://dbpedia.org/ontology/SportsTeamSeason
p14
aVhttp://dbpedia.org/resource/2013\u201314_Eintracht_Frankfurt_season
tp15
aa(lp16
a(lp17
aa(lp18
(lp19
a(lp20
a(lp21
a(lp22
aa(lp23
(lp24
a(lp25
((lp26
Vhttp://www.w3.org/2002/07/owl#Thing
p27
aVhttp://dbpedia.org/ontology/FootballLeagueSeason
p28
aVhttp://dbpedia.org/ontology/SportsSeason
p29
aVhttp://dbpedia.org/ontology/SportsTeamSeason
p30
aVhttp://dbpedia.org/resource/2011\u201312_Combined_Counties_Football_League
tp31
aa(lp32
a(lp33
aa(lp34
(lp35
a(lp36
((lp37
Vhttp://www.w3.org/2002/07/owl#Thing
p38
aVhttp://dbpedia.org/ontology/FootballLeagueSeason
p39
aVhttp://dbpedia.org/ontology/SportsSeason
p40
aVhttp://dbpedia.org/ontology/SportsTeamSeason
p41
aVhttp://dbpedia.org/resource/2011\u201312_Combined_Counties_Football_League
tp42
aa(lp43
a(lp44
aa(lp45
(lp46
a(lp47
((lp48
Vhttp://www.w3.org/2002/07/owl#Thing
p49
aVhttp://dbpedia.org/ontology/FootballLeagueSeason
p50
aVhttp://dbpedia.org/ontology/SportsSeason
p51
aVhttp://dbpedia.org/ontology/SportsTeamSeason
p52
aVhttp://dbpedia.org/resource/2011\u201312_Combined_Counties_Football_League
tp53
aa(lp54
a(lp55
aa(lp56
(lp57
a(lp58
((lp59
Vhttp://www.w3.org/2002/07/owl#Thing
p60
aVhttp://dbpedia.org/ontology/FootballLeagueSeason
p61
aVhttp://dbpedia.org/ontology/SportsSeason
p62
aVhttp://dbpedia.org/ontology/SportsTeamSeason
p63
aVhttp://dbpedia.org/resource/2011\u201312_Combined_Counties_Football_League
tp64
aa(lp65
a(lp66
aa(lp67
(lp68
a(lp69
((lp70
Vhttp://www.w3.org/2002/07/owl#Thing
p71
aVhttp://dbpedia.org/ontology/FootballLeagueSeason
p72
aVhttp://dbpedia.org/ontology/SportsSeason
p73
aVhttp://dbpedia.org/ontology/SportsTeamSeason
p74
aVhttp://dbpedia.org/resource/2011\u201312_Combined_Counties_Football_League
tp75
aa(lp76
a(lp77
aa(lp78
(lp79
a(lp80
((lp81
Vhttp://www.w3.org/2002/07/owl#Thing
p82
aVhttp://dbpedia.org/ontology/FootballLeagueSeason
p83
aVhttp://dbpedia.org/ontology/SportsSeason
p84
aVhttp://dbpedia.org/ontology/SportsTeamSeason
p85
aVhttp://dbpedia.org/resource/2011\u201312_Combined_Counties_Football_League
tp86
aa(lp87
a(lp88
aa(lp89
(lp90
a(lp91
((lp92
Vhttp://www.w3.org/2002/07/owl#Thing
p93
aVhttp://dbpedia.org/ontology/SoccerClubSeason
p94
aVhttp://dbpedia.org/ontology/SportsSeason
p95
aVhttp://dbpedia.org/ontology/SportsTeamSeason
p96
aVhttp://dbpedia.org/resource/2012\u201313_Aldershot_Town_F.C._season
tp97
aa(lp98
a(lp99
aa(lp100
(lp101
a(lp102
((lp103
Vhttp://dbpedia.org/class/yago/Abstraction100002137
p104
aVhttp://dbpedia.org/class/yago/Association108049401
p105
aVhttp://dbpedia.org/class/yago/FootballLeague108232496
p106
aVhttp://dbpedia.org/class/yago/Group100031264
p107
aVhttp://dbpedia.org/class/yago/League108231184
p108
aVhttp://dbpedia.org/class/yago/Organization108008335
p109
aVhttp://dbpedia.org/class/yago/SocialGroup107950920
p110
aVhttp://dbpedia.org/class/yago/YagoLegalActorGeo
p111
aVhttp://www.w3.org/2002/07/owl#Thing
p112
aVhttp://www.ontologydesignpatterns.org/ont/dul/DUL.owl#Agent
p113
aVhttp://www.ontologydesignpatterns.org/ont/dul/DUL.owl#SocialPerson
p114
aVhttp://www.wikidata.org/entity/Q43229
p115
aVhttp://www.wikidata.org/entity/Q623109
p116
aVhttp://dbpedia.org/ontology/Agent
p117
aVhttp://dbpedia.org/ontology/Organisation
p118
aVhttp://dbpedia.org/ontology/SoccerLeague
p119
aVhttp://dbpedia.org/ontology/SportsLeague
p120
aVhttp://schema.org/Organization
p121
aVhttp://dbpedia.org/class/yago/YagoPermanentlyLocatedEntity
p122
aVhttp://dbpedia.org/class/yago/YagoLegalActor
p123
aVhttp://dbpedia.org/resource/Toto_Cup
tp124
aa(lp125
a(lp126
aa(lp127
(lp128
a(lp129
a(lp130
a(lp131
aa(lp132
(lp133
a(lp134
a(lp135
a(lp136
aa(lp137
(lp138
a(lp139
a(lp140
a(lp141
aa(lp142
(lp143
a(lp144
((lp145
Vhttp://www.w3.org/2002/07/owl#Thing
p146
aVhttp://xmlns.com/foaf/0.1/Person
p147
aVhttp://dbpedia.org/ontology/Person
p148
aVhttp://www.ontologydesignpatterns.org/ont/dul/DUL.owl#Agent
p149
aVhttp://www.ontologydesignpatterns.org/ont/dul/DUL.owl#NaturalPerson
p150
aVhttp://www.wikidata.org/entity/Q215627
p151
aVhttp://www.wikidata.org/entity/Q5
p152
aVhttp://dbpedia.org/ontology/Agent
p153
aVhttp://www.w3.org/2003/01/geo/wgs84_pos#SpatialThing
p154
aVhttp://schema.org/Person
p155
aVhttp://dbpedia.org/resource/2009_Brisbane_Lions_season
p156
tp157
aa(lp158
a(lp159
aa(lp160
(lp161
a(lp162
a(lp163
a(lp164
aa(lp165
(lp166
a(lp167
a(lp168
a(lp169
aa(lp170
(lp171
a(lp172
a(lp173
a(lp174
aa(lp175
(lp176
a(lp177
a(lp178
a(lp179
aa.