(lp1
(lp2
(lp3
a(lp4
a(lp5
a(lp6
aa(lp7
(lp8
a(lp9
Vhttp://dbpedia.org/resource/2013\u201314_Eintracht_Frankfurt_season
p10
aa(lp11
a(lp12
aa(lp13
(lp14
a(lp15
a(lp16
a(lp17
aa(lp18
(lp19
a(lp20
Vhttp://dbpedia.org/resource/2011\u201312_Combined_Counties_Football_League
p21
aa(lp22
a(lp23
aa(lp24
(lp25
a(lp26
Vhttp://dbpedia.org/resource/2011\u201312_Combined_Counties_Football_League
p27
aa(lp28
a(lp29
aa(lp30
(lp31
a(lp32
Vhttp://dbpedia.org/resource/2011\u201312_Combined_Counties_Football_League
p33
aa(lp34
a(lp35
aa(lp36
(lp37
a(lp38
Vhttp://dbpedia.org/resource/2011\u201312_Combined_Counties_Football_League
p39
aa(lp40
a(lp41
aa(lp42
(lp43
a(lp44
Vhttp://dbpedia.org/resource/2011\u201312_Combined_Counties_Football_League
p45
aa(lp46
a(lp47
aa(lp48
(lp49
a(lp50
Vhttp://dbpedia.org/resource/2011\u201312_Combined_Counties_Football_League
p51
aa(lp52
a(lp53
aa(lp54
(lp55
a(lp56
Vhttp://dbpedia.org/resource/2012\u201313_Aldershot_Town_F.C._season
p57
aa(lp58
a(lp59
aa(lp60
(lp61
a(lp62
Vhttp://dbpedia.org/resource/Toto_Cup
p63
aa(lp64
a(lp65
aa(lp66
(lp67
a(lp68
a(lp69
a(lp70
aa(lp71
(lp72
a(lp73
a(lp74
a(lp75
aa(lp76
(lp77
a(lp78
a(lp79
a(lp80
aa(lp81
(lp82
a(lp83
Vhttp://dbpedia.org/resource/2009_Brisbane_Lions_season
p84
aa(lp85
a(lp86
aa(lp87
(lp88
a(lp89
a(lp90
a(lp91
aa(lp92
(lp93
a(lp94
a(lp95
a(lp96
aa(lp97
(lp98
a(lp99
a(lp100
a(lp101
aa(lp102
(lp103
a(lp104
a(lp105
a(lp106
aa.