(lp1
(lp2
(lp3
a(lp4
aa(lp5
(lp6
a(lp7
aa(lp8
(lp9
a(lp10
aa(lp11
(lp12
Vhttp://dbpedia.org/resource/Frank_Donck
p13
aa(lp14
aa(lp15
(lp16
Vhttp://dbpedia.org/resource/Cheng_Congfu
p17
aa(lp18
aa(lp19
(lp20
a(lp21
aa(lp22
(lp23
a(lp24
aa(lp25
(lp26
a(lp27
aa(lp28
(lp29
a(lp30
aa(lp31
(lp32
a(lp33
aa(lp34
(lp35
a(lp36
aa(lp37
(lp38
a(lp39
aa(lp40
(lp41
a(lp42
aa(lp43
(lp44
Vhttp://dbpedia.org/resource/John_Astley_(snooker_player)
p45
aa(lp46
aa(lp47
(lp48
a(lp49
aa(lp50
(lp51
a(lp52
aa(lp53
(lp54
a(lp55
aa(lp56
(lp57
a(lp58
aa(lp59
(lp60
a(lp61
aa.