(lp1
(lp2
(lp3
a(lp4
a(lp5
a(lp6
a(lp7
a(lp8
a(lp9
aa(lp10
(lp11
a(lp12
a(lp13
a(lp14
a(lp15
a(lp16
a(lp17
aa(lp18
(lp19
a(lp20
a(lp21
a(lp22
a(lp23
a(lp24
a(lp25
aa(lp26
(lp27
a(lp28
a(lp29
a(lp30
a(lp31
a(lp32
a(lp33
aa(lp34
(lp35
a(lp36
a(lp37
a(lp38
a(lp39
a(lp40
a(lp41
aa(lp42
(lp43
a(lp44
a(lp45
a(lp46
a(lp47
a(lp48
a(lp49
aa(lp50
(lp51
a(lp52
a(lp53
a(lp54
a(lp55
a(lp56
a(lp57
aa(lp58
(lp59
Vhttp://dbpedia.org/resource/Pregnenolone_carbonitrile
p60
aa(lp61
a(lp62
Vhttp://dbpedia.org/resource/Pregnenolone_carbonitrile
p63
aa(lp64
a(lp65
a(lp66
a(lp67
aa(lp68
(lp69
a(lp70
a(lp71
a(lp72
a(lp73
a(lp74
a(lp75
aa(lp76
(lp77
a(lp78
a(lp79
a(lp80
a(lp81
a(lp82
a(lp83
aa(lp84
(lp85
a(lp86
a(lp87
a(lp88
a(lp89
a(lp90
a(lp91
aa(lp92
(lp93
a(lp94
a(lp95
a(lp96
a(lp97
a(lp98
a(lp99
aa(lp100
(lp101
a(lp102
a(lp103
a(lp104
a(lp105
a(lp106
a(lp107
aa(lp108
(lp109
a(lp110
a(lp111
a(lp112
a(lp113
a(lp114
a(lp115
aa(lp116
(lp117
Vhttp://dbpedia.org/resource/12-O-Tetradecanoylphorbol-13-acetate
p118
aa(lp119
a(lp120
a(lp121
a(lp122
a(lp123
a(lp124
aa.