(lp1
(lp2
(lp3
Vhttp://dbpedia.org/resource/Bianca_Scott
p4
aa(lp5
Vhttp://dbpedia.org/resource/Blossom_Jackson
p6
aa(lp7
Vhttp://dbpedia.org/resource/Boycie
p8
aa(lp9
Vhttp://dbpedia.org/resource/Boyd_Hoyland
p10
aa(lp11
Vhttp://dbpedia.org/resource/Cat_MacKenzie
p12
aa(lp13
Vhttp://dbpedia.org/resource/Chrissie_White
p14
aa(lp15
Vhttp://dbpedia.org/resource/Curly_Watts
p16
aa(lp17
a(lp18
Vhttp://dbpedia.org/resource/Den_Watts
p19
aa(lp20
Vhttp://dbpedia.org/resource/Denise_Fox
p21
aa(lp22
Vhttp://dbpedia.org/resource/Dominic_Thompson
p23
aa(lp24
Vhttp://dbpedia.org/resource/Doreen_Corkhill
p25
aa(lp26
Vhttp://dbpedia.org/resource/Dot_Cotton
p27
aa(lp28
Vhttp://dbpedia.org/resource/List_of_EastEnders_characters_(2008)
p29
aa(lp30
Vhttp://dbpedia.org/resource/Duke_Lavery
p31
aa(lp32
Vhttp://dbpedia.org/resource/EJ_DiMera
p33
aa(lp34
Vhttp://dbpedia.org/resource/Eunice_Gardner_Wyatt
p35
aa(lp36
Vhttp://dbpedia.org/resource/Fox_Crane
p37
aa(lp38
Vhttp://dbpedia.org/resource/Huw_Edwards_(EastEnders)
p39
aaa.