(lp1
(lp2
(lp3
a(lp4
a(lp5
aa(lp6
(lp7
a(lp8
a(lp9
aa(lp10
(lp11
a(lp12
Vhttp://dbpedia.org/resource/Movistar_TV
p13
aa(lp14
aa(lp15
(lp16
a(lp17
Vhttp://dbpedia.org/resource/Amica_Chips-Knauf
p18
aa(lp19
aa(lp20
(lp21
a(lp22
Vhttp://dbpedia.org/resource/S.L._Benfica_(cycling_team)
p23
aa(lp24
aa(lp25
(lp26
a(lp27
Vhttp://dbpedia.org/resource/Competitive_Cyclist_Racing_Team
p28
aa(lp29
aa(lp30
(lp31
a(lp32
a(lp33
aa(lp34
(lp35
a(lp36
Vhttp://dbpedia.org/resource/Caja_Rural-Seguros_RGA
p37
aa(lp38
aa(lp39
(lp40
a(lp41
Vhttp://dbpedia.org/resource/Christina_Watches-Dana
p42
aa(lp43
aa(lp44
(lp45
a(lp46
a(lp47
aa(lp48
(lp49
a(lp50
Vhttp://dbpedia.org/resource/Cycling_Team_Jo_Piels
p51
aa(lp52
aa(lp53
(lp54
a(lp55
Vhttp://dbpedia.org/resource/Drapac_Professional_Cycling
p56
aa(lp57
aa(lp58
(lp59
a(lp60
Vhttp://dbpedia.org/resource/Movistar_Continental_Team
p61
aa(lp62
aa(lp63
(lp64
a(lp65
Vhttp://dbpedia.org/resource/Orica-GreenEDGE
p66
aa(lp67
aa(lp68
(lp69
a(lp70
Vhttp://dbpedia.org/resource/Perutnina_Ptuj
p71
aa(lp72
aa(lp73
(lp74
a(lp75
a(lp76
aa(lp77
(lp78
a(lp79
Vhttp://dbpedia.org/resource/Team_IG-Sigma_Sport
p80
aa(lp81
aa(lp82
(lp83
a(lp84
a(lp85
aa(lp86
(lp87
a(lp88
Vhttp://dbpedia.org/resource/Preti_Mangimi
p89
aa(lp90
aa.