(lp1
(lp2
(lp3
((lp4
Vhttp://dbpedia.org/class/yago/Amphibian101627424
p5
aVhttp://dbpedia.org/class/yago/Animal100015388
p6
aVhttp://dbpedia.org/class/yago/Caecilian101655344
p7
aVhttp://dbpedia.org/class/yago/Caecilians
p8
aVhttp://dbpedia.org/class/yago/LivingThing100004258
p9
aVhttp://dbpedia.org/class/yago/Object100002684
p10
aVhttp://dbpedia.org/class/yago/Organism100004475
p11
aVhttp://dbpedia.org/class/yago/Vertebrate101471682
p12
aVhttp://dbpedia.org/class/yago/Whole100003553
p13
aVhttp://www.w3.org/2002/07/owl#Thing
p14
aVhttp://www.wikidata.org/entity/Q19088
p15
aVhttp://www.wikidata.org/entity/Q729
p16
aVhttp://dbpedia.org/ontology/Amphibian
p17
aVhttp://dbpedia.org/ontology/Animal
p18
aVhttp://dbpedia.org/ontology/Eukaryote
p19
aVhttp://dbpedia.org/ontology/Species
p20
aVhttp://umbel.org/umbel/rc/Amphibian
p21
aVhttp://umbel.org/umbel/rc/Animal
p22
aVhttp://umbel.org/umbel/rc/BiologicalLivingObject
p23
aVhttp://umbel.org/umbel/rc/EukaryoticCell
p24
aVhttp://dbpedia.org/class/yago/Chordate101466257
p25
aVhttp://dbpedia.org/class/yago/PhysicalEntity100001930
p26
aVhttp://dbpedia.org/resource/Uraeotyphlidae
tp27
aa(lp28
((lp29
Vhttp://www.w3.org/2002/07/owl#Thing
p30
aVhttp://www.wikidata.org/entity/Q19088
p31
aVhttp://www.wikidata.org/entity/Q729
p32
aVhttp://dbpedia.org/ontology/Amphibian
p33
aVhttp://dbpedia.org/ontology/Animal
p34
aVhttp://dbpedia.org/ontology/Eukaryote
p35
aVhttp://dbpedia.org/ontology/Species
p36
aVhttp://umbel.org/umbel/rc/Amphibian
p37
aVhttp://dbpedia.org/resource/Aplastodiscus_perviridis
tp38
aa(lp39
((lp40
Vhttp://dbpedia.org/class/yago/Amphibian102704792
p41
aVhttp://dbpedia.org/class/yago/AmphibiansOfMexico
p42
aVhttp://dbpedia.org/class/yago/AmphibiansOfTheUnitedStates
p43
aVhttp://dbpedia.org/class/yago/Artifact100021939
p44
aVhttp://dbpedia.org/class/yago/Container103094503
p45
aVhttp://dbpedia.org/class/yago/Conveyance103100490
p46
aVhttp://dbpedia.org/class/yago/MotorVehicle103791235
p47
aVhttp://dbpedia.org/class/yago/Object100002684
p48
aVhttp://dbpedia.org/class/yago/Self-propelledVehicle104170037
p49
aVhttp://dbpedia.org/class/yago/Vehicle104524313
p50
aVhttp://dbpedia.org/class/yago/WheeledVehicle104576211
p51
aVhttp://dbpedia.org/class/yago/Whole100003553
p52
aVhttp://www.w3.org/2002/07/owl#Thing
p53
aVhttp://www.wikidata.org/entity/Q19088
p54
aVhttp://www.wikidata.org/entity/Q729
p55
aVhttp://dbpedia.org/ontology/Amphibian
p56
aVhttp://dbpedia.org/ontology/Animal
p57
aVhttp://dbpedia.org/ontology/Eukaryote
p58
aVhttp://dbpedia.org/ontology/Species
p59
aVhttp://umbel.org/umbel/rc/Amphibian
p60
aVhttp://umbel.org/umbel/rc/Animal
p61
aVhttp://umbel.org/umbel/rc/EukaryoticCell
p62
aVhttp://dbpedia.org/class/yago/Instrumentality103575240
p63
aVhttp://dbpedia.org/class/yago/PhysicalEntity100001930
p64
aVhttp://dbpedia.org/resource/Arroyo_toad
tp65
aa(lp66
((lp67
Vhttp://www.w3.org/2002/07/owl#Thing
p68
aVhttp://www.wikidata.org/entity/Q19088
p69
aVhttp://www.wikidata.org/entity/Q729
p70
aVhttp://dbpedia.org/ontology/Amphibian
p71
aVhttp://dbpedia.org/ontology/Animal
p72
aVhttp://dbpedia.org/ontology/Eukaryote
p73
aVhttp://dbpedia.org/ontology/Species
p74
aVhttp://umbel.org/umbel/rc/Amphibian
p75
aVhttp://dbpedia.org/resource/Boophis
tp76
aa(lp77
((lp78
Vhttp://www.w3.org/2002/07/owl#Thing
p79
aVhttp://www.wikidata.org/entity/Q19088
p80
aVhttp://www.wikidata.org/entity/Q729
p81
aVhttp://dbpedia.org/ontology/Amphibian
p82
aVhttp://dbpedia.org/ontology/Animal
p83
aVhttp://dbpedia.org/ontology/Eukaryote
p84
aVhttp://dbpedia.org/ontology/Species
p85
aVhttp://umbel.org/umbel/rc/Amphibian
p86
aVhttp://dbpedia.org/resource/Boophis_marojezensis
tp87
aa(lp88
((lVhttp://dbpedia.org/resource/Capetus_Silvius
tp89
aa(lp90
((lp91
Vhttp://www.w3.org/2002/07/owl#Thing
p92
aVhttp://www.wikidata.org/entity/Q19088
p93
aVhttp://www.wikidata.org/entity/Q729
p94
aVhttp://dbpedia.org/ontology/Amphibian
p95
aVhttp://dbpedia.org/ontology/Animal
p96
aVhttp://dbpedia.org/ontology/Eukaryote
p97
aVhttp://dbpedia.org/ontology/Species
p98
aVhttp://dbpedia.org/resource/Desert_froglet
tp99
aa(lp100
((lp101
Vhttp://dbpedia.org/class/yago/Animal100015388
p102
aVhttp://dbpedia.org/class/yago/AnimalsDescribedIn1866
p103
aVhttp://dbpedia.org/class/yago/LivingThing100004258
p104
aVhttp://dbpedia.org/class/yago/Object100002684
p105
aVhttp://dbpedia.org/class/yago/Organism100004475
p106
aVhttp://dbpedia.org/class/yago/Whole100003553
p107
aVhttp://www.w3.org/2002/07/owl#Thing
p108
aVhttp://www.wikidata.org/entity/Q1390
p109
aVhttp://www.wikidata.org/entity/Q19088
p110
aVhttp://www.wikidata.org/entity/Q729
p111
aVhttp://dbpedia.org/ontology/Animal
p112
aVhttp://dbpedia.org/ontology/Eukaryote
p113
aVhttp://dbpedia.org/ontology/Insect
p114
aVhttp://dbpedia.org/ontology/Species
p115
aVhttp://dbpedia.org/class/yago/PhysicalEntity100001930
p116
aVhttp://dbpedia.org/resource/Brunia_dorsalis
tp117
aa(lp118
((lp119
Vhttp://dbpedia.org/class/yago/Amphibian102704792
p120
aVhttp://dbpedia.org/class/yago/AmphibiansOfIndonesia
p121
aVhttp://dbpedia.org/class/yago/Artifact100021939
p122
aVhttp://dbpedia.org/class/yago/Container103094503
p123
aVhttp://dbpedia.org/class/yago/Conveyance103100490
p124
aVhttp://dbpedia.org/class/yago/MotorVehicle103791235
p125
aVhttp://dbpedia.org/class/yago/Object100002684
p126
aVhttp://dbpedia.org/class/yago/Self-propelledVehicle104170037
p127
aVhttp://dbpedia.org/class/yago/Vehicle104524313
p128
aVhttp://dbpedia.org/class/yago/WheeledVehicle104576211
p129
aVhttp://dbpedia.org/class/yago/Whole100003553
p130
aVhttp://www.w3.org/2002/07/owl#Thing
p131
aVhttp://www.wikidata.org/entity/Q19088
p132
aVhttp://www.wikidata.org/entity/Q729
p133
aVhttp://dbpedia.org/ontology/Amphibian
p134
aVhttp://dbpedia.org/ontology/Animal
p135
aVhttp://dbpedia.org/ontology/Eukaryote
p136
aVhttp://dbpedia.org/ontology/Species
p137
aVhttp://umbel.org/umbel/rc/Amphibian
p138
aVhttp://dbpedia.org/class/yago/Instrumentality103575240
p139
aVhttp://dbpedia.org/class/yago/PhysicalEntity100001930
p140
aVhttp://dbpedia.org/resource/Huia_modiglianii
tp141
aa(lp142
((lp143
Vhttp://www.w3.org/2002/07/owl#Thing
p144
aVhttp://www.wikidata.org/entity/Q19088
p145
aVhttp://www.wikidata.org/entity/Q729
p146
aVhttp://dbpedia.org/ontology/Amphibian
p147
aVhttp://dbpedia.org/ontology/Animal
p148
aVhttp://dbpedia.org/ontology/Eukaryote
p149
aVhttp://dbpedia.org/ontology/Species
p150
aVhttp://umbel.org/umbel/rc/Amphibian
p151
aVhttp://dbpedia.org/resource/Leptodactylodon_erythrogaster
tp152
aa(lp153
((lp154
Vhttp://www.w3.org/2002/07/owl#Thing
p155
aVhttp://www.wikidata.org/entity/Q19088
p156
aVhttp://www.wikidata.org/entity/Q729
p157
aVhttp://dbpedia.org/ontology/Amphibian
p158
aVhttp://dbpedia.org/ontology/Animal
p159
aVhttp://dbpedia.org/ontology/Eukaryote
p160
aVhttp://dbpedia.org/ontology/Species
p161
aVhttp://umbel.org/umbel/rc/Amphibian
p162
aVhttp://umbel.org/umbel/rc/Animal
p163
aVhttp://umbel.org/umbel/rc/BiologicalLivingObject
p164
aVhttp://umbel.org/umbel/rc/EukaryoticCell
p165
aVhttp://dbpedia.org/resource/Nyctimystes
tp166
aa(lp167
a(lp168
((lp169
Vhttp://www.w3.org/2002/07/owl#Thing
p170
aVhttp://www.wikidata.org/entity/Q19088
p171
aVhttp://www.wikidata.org/entity/Q729
p172
aVhttp://dbpedia.org/ontology/Amphibian
p173
aVhttp://dbpedia.org/ontology/Animal
p174
aVhttp://dbpedia.org/ontology/Eukaryote
p175
aVhttp://dbpedia.org/ontology/Species
p176
aVhttp://dbpedia.org/resource/Rhombophryne_coudreaui
tp177
aa(lp178
((lp179
Vhttp://www.w3.org/2002/07/owl#Thing
p180
aVhttp://www.wikidata.org/entity/Q19088
p181
aVhttp://www.wikidata.org/entity/Q729
p182
aVhttp://dbpedia.org/ontology/Amphibian
p183
aVhttp://dbpedia.org/ontology/Animal
p184
aVhttp://dbpedia.org/ontology/Eukaryote
p185
aVhttp://dbpedia.org/ontology/Species
p186
aVhttp://umbel.org/umbel/rc/Amphibian
p187
aVhttp://dbpedia.org/resource/Scinax_garbei
tp188
aa(lp189
((lp190
Vhttp://www.w3.org/2002/07/owl#Thing
p191
aVhttp://www.wikidata.org/entity/Q19088
p192
aVhttp://www.wikidata.org/entity/Q729
p193
aVhttp://dbpedia.org/ontology/Amphibian
p194
aVhttp://dbpedia.org/ontology/Animal
p195
aVhttp://dbpedia.org/ontology/Eukaryote
p196
aVhttp://dbpedia.org/ontology/Species
p197
aVhttp://dbpedia.org/resource/Sikkimese_caecilian
tp198
aa(lp199
((lp200
Vhttp://www.w3.org/2002/07/owl#Thing
p201
aVhttp://www.wikidata.org/entity/Q19088
p202
aVhttp://www.wikidata.org/entity/Q729
p203
aVhttp://dbpedia.org/ontology/Amphibian
p204
aVhttp://dbpedia.org/ontology/Animal
p205
aVhttp://dbpedia.org/ontology/Eukaryote
p206
aVhttp://dbpedia.org/ontology/Species
p207
aVhttp://umbel.org/umbel/rc/Amphibian
p208
aVhttp://dbpedia.org/resource/Afrixalus_laevis
tp209
aa(lp210
a(lp211
((lp212
Vhttp://dbpedia.org/class/yago/Amphibian102704792
p213
aVhttp://dbpedia.org/class/yago/AmphibiansOfWesternAustralia
p214
aVhttp://dbpedia.org/class/yago/Artifact100021939
p215
aVhttp://dbpedia.org/class/yago/Container103094503
p216
aVhttp://dbpedia.org/class/yago/Conveyance103100490
p217
aVhttp://dbpedia.org/class/yago/MotorVehicle103791235
p218
aVhttp://dbpedia.org/class/yago/Object100002684
p219
aVhttp://dbpedia.org/class/yago/Self-propelledVehicle104170037
p220
aVhttp://dbpedia.org/class/yago/Vehicle104524313
p221
aVhttp://dbpedia.org/class/yago/WheeledVehicle104576211
p222
aVhttp://dbpedia.org/class/yago/Whole100003553
p223
aVhttp://www.w3.org/2002/07/owl#Thing
p224
aVhttp://www.wikidata.org/entity/Q19088
p225
aVhttp://www.wikidata.org/entity/Q729
p226
aVhttp://dbpedia.org/ontology/Amphibian
p227
aVhttp://dbpedia.org/ontology/Animal
p228
aVhttp://dbpedia.org/ontology/Eukaryote
p229
aVhttp://dbpedia.org/ontology/Species
p230
aVhttp://umbel.org/umbel/rc/Amphibian
p231
aVhttp://dbpedia.org/class/yago/Instrumentality103575240
p232
aVhttp://dbpedia.org/class/yago/PhysicalEntity100001930
p233
aVhttp://dbpedia.org/resource/Geocrinia_lutea
tp234
aa(lp235
((lp236
Vhttp://www.w3.org/2002/07/owl#Thing
p237
aVhttp://www.wikidata.org/entity/Q19088
p238
aVhttp://www.wikidata.org/entity/Q729
p239
aVhttp://dbpedia.org/ontology/Amphibian
p240
aVhttp://dbpedia.org/ontology/Animal
p241
aVhttp://dbpedia.org/ontology/Eukaryote
p242
aVhttp://dbpedia.org/ontology/Species
p243
aVhttp://umbel.org/umbel/rc/Amphibian
p244
aVhttp://dbpedia.org/resource/Grandisonia_larvata
p245
tp246
aaa.