(lp1
(lp2
(lp3
((lVhttp://dbpedia.org/resource/Bill_Walsh
tp4
aa(lp5
((lp6
Vhttp://dbpedia.org/class/yago/AmericanFootballQuarterbacks
p7
aVhttp://dbpedia.org/class/yago/Athlete109820263
p8
aVhttp://dbpedia.org/class/yago/Back109830194
p9
aVhttp://dbpedia.org/class/yago/CausalAgent100007347
p10
aVhttp://dbpedia.org/class/yago/Coach109931640
p11
aVhttp://dbpedia.org/class/yago/Contestant109613191
p12
aVhttp://dbpedia.org/class/yago/FootballCoach110101202
p13
aVhttp://dbpedia.org/class/yago/FootballPlayer110101634
p14
aVhttp://dbpedia.org/class/yago/Intellectual109621545
p15
aVhttp://dbpedia.org/class/yago/Leader109623038
p16
aVhttp://dbpedia.org/class/yago/LivingThing100004258
p17
aVhttp://dbpedia.org/class/yago/Object100002684
p18
aVhttp://dbpedia.org/class/yago/Organism100004475
p19
aVhttp://dbpedia.org/class/yago/Organizer110383237
p20
aVhttp://dbpedia.org/class/yago/Person100007846
p21
aVhttp://dbpedia.org/class/yago/Player110439851
p22
aVhttp://dbpedia.org/class/yago/Quarterback110498816
p23
aVhttp://dbpedia.org/class/yago/Thinker110708454
p24
aVhttp://dbpedia.org/class/yago/Trainer110722575
p25
aVhttp://dbpedia.org/class/yago/Whole100003553
p26
aVhttp://dbpedia.org/class/yago/YagoLegalActorGeo
p27
aVhttp://dbpedia.org/class/yago/SanDiegoChargersCoaches
p28
aVhttp://dbpedia.org/class/yago/SanDiegoChargersHeadCoaches
p29
aVhttp://dbpedia.org/class/yago/SanFrancisco49ersCoaches
p30
aVhttp://www.w3.org/2002/07/owl#Thing
p31
aVhttp://xmlns.com/foaf/0.1/Person
p32
aVhttp://dbpedia.org/ontology/Person
p33
aVhttp://www.ontologydesignpatterns.org/ont/dul/DUL.owl#Agent
p34
aVhttp://www.ontologydesignpatterns.org/ont/dul/DUL.owl#NaturalPerson
p35
aVhttp://www.wikidata.org/entity/Q215627
p36
aVhttp://www.wikidata.org/entity/Q5
p37
aVhttp://dbpedia.org/ontology/Agent
p38
aVhttp://dbpedia.org/ontology/AmericanFootballCoach
p39
aVhttp://dbpedia.org/ontology/Coach
p40
aVhttp://schema.org/Person
p41
aVhttp://dbpedia.org/class/yago/Coordinator109963914
p42
aVhttp://dbpedia.org/class/yago/DallasCowboysHeadCoaches
p43
aVhttp://dbpedia.org/class/yago/NationalFootballLeagueHeadCoaches
p44
aVhttp://dbpedia.org/class/yago/NationalFootballLeagueOffensiveCoordinators
p45
aVhttp://dbpedia.org/class/yago/OaklandRaidersCoaches
p46
aVhttp://dbpedia.org/class/yago/OregonDucksFootballCoaches
p47
aVhttp://dbpedia.org/class/yago/OregonDucksFootballPlayers
p48
aVhttp://dbpedia.org/class/yago/YagoLegalActor
p49
aVhttp://dbpedia.org/class/yago/LivingPeople
p50
aVhttp://dbpedia.org/class/yago/MiamiDolphinsCoaches
p51
aVhttp://dbpedia.org/class/yago/PhysicalEntity100001930
p52
aVhttp://dbpedia.org/class/yago/USCTrojansFootballCoaches
p53
aVhttp://dbpedia.org/class/yago/WashingtonRedskinsHeadCoaches
p54
aVhttp://dbpedia.org/resource/Norv_Turner
tp55
aa(lp56
((lp57
Vhttp://dbpedia.org/class/yago/Administrator109770949
p58
aVhttp://dbpedia.org/class/yago/ArizonaCardinalsExecutives
p59
aVhttp://dbpedia.org/class/yago/CarolinaPanthersScouts
p60
aVhttp://dbpedia.org/class/yago/CausalAgent100007347
p61
aVhttp://dbpedia.org/class/yago/Coach109931640
p62
aVhttp://dbpedia.org/class/yago/Defender109614684
p63
aVhttp://dbpedia.org/class/yago/Executive110069645
p64
aVhttp://dbpedia.org/class/yago/Guard110150071
p65
aVhttp://dbpedia.org/class/yago/Head110162991
p66
aVhttp://dbpedia.org/class/yago/Leader109623038
p67
aVhttp://dbpedia.org/class/yago/LivingThing100004258
p68
aVhttp://dbpedia.org/class/yago/Lookout110271216
p69
aVhttp://dbpedia.org/class/yago/Object100002684
p70
aVhttp://dbpedia.org/class/yago/Organism100004475
p71
aVhttp://dbpedia.org/class/yago/Person100007846
p72
aVhttp://dbpedia.org/class/yago/Trainer110722575
p73
aVhttp://dbpedia.org/class/yago/Watchman110770059
p74
aVhttp://dbpedia.org/class/yago/Whole100003553
p75
aVhttp://dbpedia.org/class/yago/YagoLegalActorGeo
p76
aVhttp://www.w3.org/2002/07/owl#Thing
p77
aVhttp://xmlns.com/foaf/0.1/Person
p78
aVhttp://dbpedia.org/ontology/Person
p79
aVhttp://www.ontologydesignpatterns.org/ont/dul/DUL.owl#Agent
p80
aVhttp://www.ontologydesignpatterns.org/ont/dul/DUL.owl#NaturalPerson
p81
aVhttp://www.wikidata.org/entity/Q215627
p82
aVhttp://www.wikidata.org/entity/Q5
p83
aVhttp://dbpedia.org/ontology/Agent
p84
aVhttp://dbpedia.org/ontology/AmericanFootballCoach
p85
aVhttp://dbpedia.org/ontology/Coach
p86
aVhttp://schema.org/Person
p87
aVhttp://dbpedia.org/class/yago/Preserver110466918
p88
aVhttp://dbpedia.org/class/yago/NationalFootballLeagueExecutives
p89
aVhttp://dbpedia.org/class/yago/NewEnglandPatriotsExecutives
p90
aVhttp://dbpedia.org/class/yago/NewEnglandPatriotsScouts
p91
aVhttp://dbpedia.org/class/yago/PeopleFromFremont,Nebraska
p92
aVhttp://dbpedia.org/class/yago/PhiladelphiaEaglesExecutives
p93
aVhttp://dbpedia.org/class/yago/YagoLegalActor
p94
aVhttp://dbpedia.org/class/yago/LivingPeople
p95
aVhttp://dbpedia.org/class/yago/MiamiDolphinsCoaches
p96
aVhttp://dbpedia.org/class/yago/MiamiDolphinsScouts
p97
aVhttp://dbpedia.org/class/yago/PhysicalEntity100001930
p98
aVhttp://dbpedia.org/resource/Jason_Licht
tp99
aa(lp100
((lp101
Vhttp://dbpedia.org/class/yago/Athlete109820263
p102
aVhttp://dbpedia.org/class/yago/CausalAgent100007347
p103
aVhttp://dbpedia.org/class/yago/Coach109931640
p104
aVhttp://dbpedia.org/class/yago/Contestant109613191
p105
aVhttp://dbpedia.org/class/yago/FootballPlayer110101634
p106
aVhttp://dbpedia.org/class/yago/Leader109623038
p107
aVhttp://dbpedia.org/class/yago/LivingThing100004258
p108
aVhttp://dbpedia.org/class/yago/Object100002684
p109
aVhttp://dbpedia.org/class/yago/Organism100004475
p110
aVhttp://dbpedia.org/class/yago/Person100007846
p111
aVhttp://dbpedia.org/class/yago/Player110439851
p112
aVhttp://dbpedia.org/class/yago/Trainer110722575
p113
aVhttp://dbpedia.org/class/yago/Whole100003553
p114
aVhttp://dbpedia.org/class/yago/YagoLegalActorGeo
p115
aVhttp://dbpedia.org/class/yago/St.LouisCardinals(football)Coaches
p116
aVhttp://www.w3.org/2002/07/owl#Thing
p117
aVhttp://xmlns.com/foaf/0.1/Person
p118
aVhttp://dbpedia.org/ontology/Person
p119
aVhttp://www.ontologydesignpatterns.org/ont/dul/DUL.owl#Agent
p120
aVhttp://www.ontologydesignpatterns.org/ont/dul/DUL.owl#NaturalPerson
p121
aVhttp://www.wikidata.org/entity/Q215627
p122
aVhttp://www.wikidata.org/entity/Q5
p123
aVhttp://dbpedia.org/ontology/Agent
p124
aVhttp://dbpedia.org/ontology/AmericanFootballCoach
p125
aVhttp://dbpedia.org/ontology/Coach
p126
aVhttp://schema.org/Person
p127
aVhttp://dbpedia.org/class/yago/EasternConferenceProBowlPlayers
p128
aVhttp://dbpedia.org/class/yago/NewYorkGiantsCoaches
p129
aVhttp://dbpedia.org/class/yago/NewYorkGiantsPlayers
p130
aVhttp://dbpedia.org/class/yago/OregonStateBeaversFootballPlayers
p131
aVhttp://dbpedia.org/class/yago/PittsburghSteelersCoaches
p132
aVhttp://dbpedia.org/class/yago/PlayersOfAmericanFootballFromCalifornia
p133
aVhttp://dbpedia.org/class/yago/YagoLegalActor
p134
aVhttp://dbpedia.org/class/yago/GreenBayPackersCoaches
p135
aVhttp://dbpedia.org/class/yago/LivingPeople
p136
aVhttp://dbpedia.org/class/yago/LosAngelesRamsCoaches
p137
aVhttp://dbpedia.org/class/yago/PhysicalEntity100001930
p138
aVhttp://dbpedia.org/class/yago/WashingtonRedskinsCoaches
p139
aVhttp://dbpedia.org/resource/Bill_Austin
tp140
aa(lp141
((lp142
Vhttp://dbpedia.org/class/yago/AmericanFootballLinebackers
p143
aVhttp://dbpedia.org/class/yago/Athlete109820263
p144
aVhttp://dbpedia.org/class/yago/BaltimoreColtsCoaches
p145
aVhttp://dbpedia.org/class/yago/CausalAgent100007347
p146
aVhttp://dbpedia.org/class/yago/Coach109931640
p147
aVhttp://dbpedia.org/class/yago/Contestant109613191
p148
aVhttp://dbpedia.org/class/yago/FootballPlayer110101634
p149
aVhttp://dbpedia.org/class/yago/Leader109623038
p150
aVhttp://dbpedia.org/class/yago/Linebacker110263002
p151
aVhttp://dbpedia.org/class/yago/LivingThing100004258
p152
aVhttp://dbpedia.org/class/yago/Object100002684
p153
aVhttp://dbpedia.org/class/yago/Organism100004475
p154
aVhttp://dbpedia.org/class/yago/Person100007846
p155
aVhttp://dbpedia.org/class/yago/Player110439851
p156
aVhttp://dbpedia.org/class/yago/Trainer110722575
p157
aVhttp://dbpedia.org/class/yago/Whole100003553
p158
aVhttp://dbpedia.org/class/yago/YagoLegalActorGeo
p159
aVhttp://dbpedia.org/class/yago/SeattleSeahawksCoaches
p160
aVhttp://dbpedia.org/class/yago/St.LouisRamsCoaches
p161
aVhttp://dbpedia.org/class/yago/St.LouisRamsHeadCoaches
p162
aVhttp://www.w3.org/2002/07/owl#Thing
p163
aVhttp://xmlns.com/foaf/0.1/Person
p164
aVhttp://dbpedia.org/ontology/Person
p165
aVhttp://www.ontologydesignpatterns.org/ont/dul/DUL.owl#Agent
p166
aVhttp://www.ontologydesignpatterns.org/ont/dul/DUL.owl#NaturalPerson
p167
aVhttp://www.wikidata.org/entity/Q215627
p168
aVhttp://www.wikidata.org/entity/Q5
p169
aVhttp://dbpedia.org/ontology/Agent
p170
aVhttp://dbpedia.org/ontology/AmericanFootballCoach
p171
aVhttp://dbpedia.org/ontology/Coach
p172
aVhttp://schema.org/Person
p173
aVhttp://dbpedia.org/class/yago/NationalFootballLeagueHeadCoaches
p174
aVhttp://dbpedia.org/class/yago/NewOrleansSaintsCoaches
p175
aVhttp://dbpedia.org/class/yago/PhiladelphiaEaglesCoaches
p176
aVhttp://dbpedia.org/class/yago/YagoLegalActor
p177
aVhttp://dbpedia.org/class/yago/GreenBayPackersCoaches
p178
aVhttp://dbpedia.org/class/yago/LosAngelesRamsCoaches
p179
aVhttp://dbpedia.org/class/yago/PhysicalEntity100001930
p180
aVhttp://dbpedia.org/class/yago/TowsonTigersFootballPlayers
p181
aVhttp://dbpedia.org/resource/Joe_Vitt
tp182
aa(lp183
((lp184
Vhttp://dbpedia.org/class/yago/Athlete109820263
p185
aVhttp://dbpedia.org/class/yago/CausalAgent100007347
p186
aVhttp://dbpedia.org/class/yago/Contestant109613191
p187
aVhttp://dbpedia.org/class/yago/FootballPlayer110101634
p188
aVhttp://dbpedia.org/class/yago/LivingThing100004258
p189
aVhttp://dbpedia.org/class/yago/Object100002684
p190
aVhttp://dbpedia.org/class/yago/Organism100004475
p191
aVhttp://dbpedia.org/class/yago/Person100007846
p192
aVhttp://dbpedia.org/class/yago/Player110439851
p193
aVhttp://dbpedia.org/class/yago/Whole100003553
p194
aVhttp://dbpedia.org/class/yago/YagoLegalActorGeo
p195
aVhttp://dbpedia.org/class/yago/SaskatchewanRoughridersPlayers
p196
aVhttp://dbpedia.org/class/yago/SeattleSeahawksPlayers
p197
aVhttp://umbel.org/umbel/rc/Athlete
p198
aVhttp://umbel.org/umbel/rc/FootballPlayer_American
p199
aVhttp://dbpedia.org/class/yago/PeopleFromNoxubeeCounty,Mississippi
p200
aVhttp://dbpedia.org/class/yago/YagoLegalActor
p201
aVhttp://dbpedia.org/class/yago/JacksonStateTigersFootballPlayers
p202
aVhttp://dbpedia.org/class/yago/LivingPeople
p203
aVhttp://dbpedia.org/class/yago/MinnesotaVikingsPlayers
p204
aVhttp://dbpedia.org/class/yago/PhysicalEntity100001930
p205
aVhttp://dbpedia.org/class/yago/UndraftedNationalFootballLeaguePlayers
p206
aVhttp://dbpedia.org/resource/Chris_Jones_(Canadian_football)
tp207
aa(lp208
((lp209
Vhttp://dbpedia.org/class/yago/Alumnus109786338
p210
aVhttp://dbpedia.org/class/yago/CausalAgent100007347
p211
aVhttp://dbpedia.org/class/yago/Coach109931640
p212
aVhttp://dbpedia.org/class/yago/Intellectual109621545
p213
aVhttp://dbpedia.org/class/yago/Leader109623038
p214
aVhttp://dbpedia.org/class/yago/LivingThing100004258
p215
aVhttp://dbpedia.org/class/yago/Object100002684
p216
aVhttp://dbpedia.org/class/yago/Organism100004475
p217
aVhttp://dbpedia.org/class/yago/Organizer110383237
p218
aVhttp://dbpedia.org/class/yago/Person100007846
p219
aVhttp://dbpedia.org/class/yago/Scholar110557854
p220
aVhttp://dbpedia.org/class/yago/Thinker110708454
p221
aVhttp://dbpedia.org/class/yago/Trainer110722575
p222
aVhttp://dbpedia.org/class/yago/Whole100003553
p223
aVhttp://dbpedia.org/class/yago/YagoLegalActorGeo
p224
aVhttp://dbpedia.org/class/yago/SusquehannaUniversityAlumni
p225
aVhttp://www.w3.org/2002/07/owl#Thing
p226
aVhttp://xmlns.com/foaf/0.1/Person
p227
aVhttp://dbpedia.org/ontology/Person
p228
aVhttp://www.ontologydesignpatterns.org/ont/dul/DUL.owl#Agent
p229
aVhttp://www.ontologydesignpatterns.org/ont/dul/DUL.owl#NaturalPerson
p230
aVhttp://www.wikidata.org/entity/Q215627
p231
aVhttp://www.wikidata.org/entity/Q5
p232
aVhttp://dbpedia.org/ontology/Agent
p233
aVhttp://dbpedia.org/ontology/AmericanFootballCoach
p234
aVhttp://dbpedia.org/ontology/Coach
p235
aVhttp://schema.org/Person
p236
aVhttp://dbpedia.org/class/yago/Coordinator109963914
p237
aVhttp://dbpedia.org/class/yago/NationalFootballLeagueOffensiveCoordinators
p238
aVhttp://dbpedia.org/class/yago/NewEnglandPatriotsCoaches
p239
aVhttp://dbpedia.org/class/yago/PhiladelphiaEaglesCoaches
p240
aVhttp://dbpedia.org/class/yago/YagoLegalActor
p241
aVhttp://dbpedia.org/class/yago/IndianapolisColtsCoaches
p242
aVhttp://dbpedia.org/class/yago/KansasCityChiefsCoaches
p243
aVhttp://dbpedia.org/class/yago/LivingPeople
p244
aVhttp://dbpedia.org/class/yago/PhysicalEntity100001930
p245
aVhttp://dbpedia.org/class/yago/TampaBayBuccaneersCoaches
p246
aVhttp://dbpedia.org/resource/Bill_Muir
tp247
aa(lp248
((lp249
Vhttp://dbpedia.org/class/yago/AmericanPeopleOfIrishDescent
p250
aVhttp://dbpedia.org/class/yago/Athlete109820263
p251
aVhttp://dbpedia.org/class/yago/CausalAgent100007347
p252
aVhttp://dbpedia.org/class/yago/Coach109931640
p253
aVhttp://dbpedia.org/class/yago/Contestant109613191
p254
aVhttp://dbpedia.org/class/yago/FootballCoach110101202
p255
aVhttp://dbpedia.org/class/yago/FootballPlayer110101634
p256
aVhttp://dbpedia.org/class/yago/Intellectual109621545
p257
aVhttp://dbpedia.org/class/yago/Leader109623038
p258
aVhttp://dbpedia.org/class/yago/LivingThing100004258
p259
aVhttp://dbpedia.org/class/yago/Object100002684
p260
aVhttp://dbpedia.org/class/yago/Organism100004475
p261
aVhttp://dbpedia.org/class/yago/Organizer110383237
p262
aVhttp://dbpedia.org/class/yago/Person100007846
p263
aVhttp://dbpedia.org/class/yago/Player110439851
p264
aVhttp://dbpedia.org/class/yago/Thinker110708454
p265
aVhttp://dbpedia.org/class/yago/Trainer110722575
p266
aVhttp://dbpedia.org/class/yago/Whole100003553
p267
aVhttp://dbpedia.org/class/yago/YagoLegalActorGeo
p268
aVhttp://www.w3.org/2002/07/owl#Thing
p269
aVhttp://xmlns.com/foaf/0.1/Person
p270
aVhttp://dbpedia.org/ontology/Person
p271
aVhttp://www.ontologydesignpatterns.org/ont/dul/DUL.owl#Agent
p272
aVhttp://www.ontologydesignpatterns.org/ont/dul/DUL.owl#NaturalPerson
p273
aVhttp://www.wikidata.org/entity/Q215627
p274
aVhttp://www.wikidata.org/entity/Q5
p275
aVhttp://dbpedia.org/ontology/Agent
p276
aVhttp://dbpedia.org/ontology/AmericanFootballCoach
p277
aVhttp://dbpedia.org/ontology/Coach
p278
aVhttp://schema.org/Person
p279
aVhttp://dbpedia.org/class/yago/Coordinator109963914
p280
aVhttp://dbpedia.org/class/yago/NationalFootballLeagueOffensiveCoordinators
p281
aVhttp://dbpedia.org/class/yago/PeopleFromMinneapolis,Minnesota
p282
aVhttp://dbpedia.org/class/yago/YagoLegalActor
p283
aVhttp://dbpedia.org/class/yago/HoustonTexansCoaches
p284
aVhttp://dbpedia.org/class/yago/LivingPeople
p285
aVhttp://dbpedia.org/class/yago/PhysicalEntity100001930
p286
aVhttp://dbpedia.org/class/yago/TampaBayBuccaneersCoaches
p287
aVhttp://dbpedia.org/class/yago/TexasLonghornsFootballPlayers
p288
aVhttp://dbpedia.org/class/yago/UCLABruinsFootballCoaches
p289
aVhttp://dbpedia.org/class/yago/WashingtonRedskinsCoaches
p290
aVhttp://dbpedia.org/resource/Kyle_Shanahan
tp291
aa(lp292
((lp293
Vhttp://dbpedia.org/class/yago/AfricanAmericanCoachesOfAmericanFootball
p294
aVhttp://dbpedia.org/class/yago/ArizonaCardinalsCoaches
p295
aVhttp://dbpedia.org/class/yago/ArkansasStateRedWolvesFootballPlayers
p296
aVhttp://dbpedia.org/class/yago/Athlete109820263
p297
aVhttp://dbpedia.org/class/yago/CausalAgent100007347
p298
aVhttp://dbpedia.org/class/yago/Coach109931640
p299
aVhttp://dbpedia.org/class/yago/Contestant109613191
p300
aVhttp://dbpedia.org/class/yago/FootballPlayer110101634
p301
aVhttp://dbpedia.org/class/yago/Intellectual109621545
p302
aVhttp://dbpedia.org/class/yago/Leader109623038
p303
aVhttp://dbpedia.org/class/yago/LivingThing100004258
p304
aVhttp://dbpedia.org/class/yago/Object100002684
p305
aVhttp://dbpedia.org/class/yago/Organism100004475
p306
aVhttp://dbpedia.org/class/yago/Organizer110383237
p307
aVhttp://dbpedia.org/class/yago/Person100007846
p308
aVhttp://dbpedia.org/class/yago/Player110439851
p309
aVhttp://dbpedia.org/class/yago/Thinker110708454
p310
aVhttp://dbpedia.org/class/yago/Trainer110722575
p311
aVhttp://dbpedia.org/class/yago/Whole100003553
p312
aVhttp://dbpedia.org/class/yago/YagoLegalActorGeo
p313
aVhttp://www.w3.org/2002/07/owl#Thing
p314
aVhttp://xmlns.com/foaf/0.1/Person
p315
aVhttp://dbpedia.org/ontology/Person
p316
aVhttp://www.ontologydesignpatterns.org/ont/dul/DUL.owl#Agent
p317
aVhttp://www.ontologydesignpatterns.org/ont/dul/DUL.owl#NaturalPerson
p318
aVhttp://www.wikidata.org/entity/Q215627
p319
aVhttp://www.wikidata.org/entity/Q5
p320
aVhttp://dbpedia.org/ontology/Agent
p321
aVhttp://dbpedia.org/ontology/AmericanFootballCoach
p322
aVhttp://dbpedia.org/ontology/Coach
p323
aVhttp://schema.org/Person
p324
aVhttp://dbpedia.org/class/yago/ClevelandBrownsCoaches
p325
aVhttp://dbpedia.org/class/yago/Coordinator109963914
p326
aVhttp://dbpedia.org/class/yago/DallasCowboysCoaches
p327
aVhttp://dbpedia.org/class/yago/DetroitLionsCoaches
p328
aVhttp://dbpedia.org/class/yago/NationalFootballLeagueOffensiveCoordinators
p329
aVhttp://dbpedia.org/class/yago/NewEnglandPatriotsCoaches
p330
aVhttp://dbpedia.org/class/yago/NewJerseyGeneralsPlayers
p331
aVhttp://dbpedia.org/class/yago/NewYorkGiantsPlayers
p332
aVhttp://dbpedia.org/class/yago/NewYorkJetsCoaches
p333
aVhttp://dbpedia.org/class/yago/PeopleFromMississippiCounty,Arkansas
p334
aVhttp://dbpedia.org/class/yago/PeopleFromPassaicCounty,NewJersey
p335
aVhttp://dbpedia.org/class/yago/YagoLegalActor
p336
aVhttp://dbpedia.org/class/yago/IndianapolisColtsPlayers
p337
aVhttp://dbpedia.org/class/yago/LivingPeople
p338
aVhttp://dbpedia.org/class/yago/PhysicalEntity100001930
p339
aVhttp://dbpedia.org/resource/Maurice_Carthon
tp340
aa(lp341
((lp342
Vhttp://dbpedia.org/class/yago/AmericanFootballQuarterbacks
p343
aVhttp://dbpedia.org/class/yago/AmsterdamAdmiralsPlayers
p344
aVhttp://dbpedia.org/class/yago/Athlete109820263
p345
aVhttp://dbpedia.org/class/yago/Back109830194
p346
aVhttp://dbpedia.org/class/yago/CalgaryStampedersPlayers
p347
aVhttp://dbpedia.org/class/yago/CarolinaPanthersCoaches
p348
aVhttp://dbpedia.org/class/yago/CausalAgent100007347
p349
aVhttp://dbpedia.org/class/yago/Coach109931640
p350
aVhttp://dbpedia.org/class/yago/Contestant109613191
p351
aVhttp://dbpedia.org/class/yago/FootballPlayer110101634
p352
aVhttp://dbpedia.org/class/yago/Intellectual109621545
p353
aVhttp://dbpedia.org/class/yago/Leader109623038
p354
aVhttp://dbpedia.org/class/yago/LivingThing100004258
p355
aVhttp://dbpedia.org/class/yago/Object100002684
p356
aVhttp://dbpedia.org/class/yago/Organism100004475
p357
aVhttp://dbpedia.org/class/yago/Organizer110383237
p358
aVhttp://dbpedia.org/class/yago/Person100007846
p359
aVhttp://dbpedia.org/class/yago/Player110439851
p360
aVhttp://dbpedia.org/class/yago/Quarterback110498816
p361
aVhttp://dbpedia.org/class/yago/Thinker110708454
p362
aVhttp://dbpedia.org/class/yago/Trainer110722575
p363
aVhttp://dbpedia.org/class/yago/Whole100003553
p364
aVhttp://dbpedia.org/class/yago/YagoLegalActorGeo
p365
aVhttp://dbpedia.org/class/yago/SanFrancisco49ersPlayers
p366
aVhttp://www.w3.org/2002/07/owl#Thing
p367
aVhttp://xmlns.com/foaf/0.1/Person
p368
aVhttp://dbpedia.org/ontology/Person
p369
aVhttp://www.ontologydesignpatterns.org/ont/dul/DUL.owl#Agent
p370
aVhttp://www.ontologydesignpatterns.org/ont/dul/DUL.owl#NaturalPerson
p371
aVhttp://www.wikidata.org/entity/Q14128148
p372
aVhttp://www.wikidata.org/entity/Q215627
p373
aVhttp://www.wikidata.org/entity/Q5
p374
aVhttp://dbpedia.org/ontology/Agent
p375
aVhttp://dbpedia.org/ontology/AmericanFootballPlayer
p376
aVhttp://dbpedia.org/ontology/Athlete
p377
aVhttp://dbpedia.org/ontology/GridironFootballPlayer
p378
aVhttp://schema.org/Person
p379
aVhttp://dbpedia.org/class/yago/Coordinator109963914
p380
aVhttp://dbpedia.org/class/yago/DenverBroncosCoaches
p381
aVhttp://dbpedia.org/class/yago/NationalFootballLeagueOffensiveCoordinators
p382
aVhttp://dbpedia.org/class/yago/PeopleFromNovato,California
p383
aVhttp://dbpedia.org/class/yago/PeopleFromSanFrancisco,California
p384
aVhttp://dbpedia.org/class/yago/YagoLegalActor
p385
aVhttp://dbpedia.org/class/yago/LivingPeople
p386
aVhttp://dbpedia.org/class/yago/LongBeachState49ersFootballPlayers
p387
aVhttp://dbpedia.org/class/yago/PhysicalEntity100001930
p388
aVhttp://dbpedia.org/class/yago/UtahUtesFootballPlayers
p389
aVhttp://dbpedia.org/resource/Mike_McCoy_(American_football_coach)
tp390
aa(lp391
((lp392
Vhttp://dbpedia.org/class/yago/AmericanPlayersOfCanadianFootball
p393
aVhttp://dbpedia.org/class/yago/Athlete109820263
p394
aVhttp://dbpedia.org/class/yago/CausalAgent100007347
p395
aVhttp://dbpedia.org/class/yago/Coach109931640
p396
aVhttp://dbpedia.org/class/yago/Contestant109613191
p397
aVhttp://dbpedia.org/class/yago/FootballCoach110101202
p398
aVhttp://dbpedia.org/class/yago/FootballPlayer110101634
p399
aVhttp://dbpedia.org/class/yago/Leader109623038
p400
aVhttp://dbpedia.org/class/yago/LivingThing100004258
p401
aVhttp://dbpedia.org/class/yago/Object100002684
p402
aVhttp://dbpedia.org/class/yago/Organism100004475
p403
aVhttp://dbpedia.org/class/yago/Person100007846
p404
aVhttp://dbpedia.org/class/yago/Player110439851
p405
aVhttp://dbpedia.org/class/yago/Trainer110722575
p406
aVhttp://dbpedia.org/class/yago/Whole100003553
p407
aVhttp://dbpedia.org/class/yago/YagoLegalActorGeo
p408
aVhttp://www.w3.org/2002/07/owl#Thing
p409
aVhttp://xmlns.com/foaf/0.1/Person
p410
aVhttp://dbpedia.org/ontology/Person
p411
aVhttp://www.ontologydesignpatterns.org/ont/dul/DUL.owl#Agent
p412
aVhttp://www.ontologydesignpatterns.org/ont/dul/DUL.owl#NaturalPerson
p413
aVhttp://www.wikidata.org/entity/Q215627
p414
aVhttp://www.wikidata.org/entity/Q5
p415
aVhttp://dbpedia.org/ontology/Agent
p416
aVhttp://dbpedia.org/ontology/AmericanFootballCoach
p417
aVhttp://dbpedia.org/ontology/Coach
p418
aVhttp://schema.org/Person
p419
aVhttp://dbpedia.org/class/yago/ChicagoBearsHeadCoaches
p420
aVhttp://dbpedia.org/class/yago/DallasCowboysCoaches
p421
aVhttp://dbpedia.org/class/yago/EdmontonEskimosCoaches
p422
aVhttp://dbpedia.org/class/yago/NationalFootballLeagueHeadCoaches
p423
aVhttp://dbpedia.org/class/yago/OklahomaStateCowboysFootballCoaches
p424
aVhttp://dbpedia.org/class/yago/OklahomaStateCowboysFootballPlayers
p425
aVhttp://dbpedia.org/class/yago/PeopleFromJohnstonCounty,Oklahoma
p426
aVhttp://dbpedia.org/class/yago/PhiladelphiaEaglesPlayers
p427
aVhttp://dbpedia.org/class/yago/PlayersOfAmericanFootballFromOklahoma
p428
aVhttp://dbpedia.org/class/yago/YagoLegalActor
p429
aVhttp://dbpedia.org/class/yago/HoustonOilersCoaches
p430
aVhttp://dbpedia.org/class/yago/LivingPeople
p431
aVhttp://dbpedia.org/class/yago/MinnesotaVikingsCoaches
p432
aVhttp://dbpedia.org/class/yago/PhysicalEntity100001930
p433
aVhttp://dbpedia.org/class/yago/WinnipegBlueBombersPlayers
p434
aVhttp://dbpedia.org/resource/Neill_Armstrong
tp435
aa(lp436
((lp437
Vhttp://dbpedia.org/class/yago/ArizonaCardinalsCoaches
p438
aVhttp://dbpedia.org/class/yago/CausalAgent100007347
p439
aVhttp://dbpedia.org/class/yago/Coach109931640
p440
aVhttp://dbpedia.org/class/yago/FootballCoach110101202
p441
aVhttp://dbpedia.org/class/yago/Intellectual109621545
p442
aVhttp://dbpedia.org/class/yago/Leader109623038
p443
aVhttp://dbpedia.org/class/yago/LivingThing100004258
p444
aVhttp://dbpedia.org/class/yago/Object100002684
p445
aVhttp://dbpedia.org/class/yago/Organism100004475
p446
aVhttp://dbpedia.org/class/yago/Organizer110383237
p447
aVhttp://dbpedia.org/class/yago/Person100007846
p448
aVhttp://dbpedia.org/class/yago/Thinker110708454
p449
aVhttp://dbpedia.org/class/yago/Trainer110722575
p450
aVhttp://dbpedia.org/class/yago/Whole100003553
p451
aVhttp://dbpedia.org/class/yago/YagoLegalActorGeo
p452
aVhttp://www.w3.org/2002/07/owl#Thing
p453
aVhttp://xmlns.com/foaf/0.1/Person
p454
aVhttp://dbpedia.org/ontology/Person
p455
aVhttp://www.ontologydesignpatterns.org/ont/dul/DUL.owl#Agent
p456
aVhttp://www.ontologydesignpatterns.org/ont/dul/DUL.owl#NaturalPerson
p457
aVhttp://www.wikidata.org/entity/Q215627
p458
aVhttp://www.wikidata.org/entity/Q5
p459
aVhttp://dbpedia.org/ontology/Agent
p460
aVhttp://dbpedia.org/ontology/AmericanFootballCoach
p461
aVhttp://dbpedia.org/ontology/Coach
p462
aVhttp://schema.org/Person
p463
aVhttp://dbpedia.org/class/yago/ClevelandBrownsCoaches
p464
aVhttp://dbpedia.org/class/yago/Coordinator109963914
p465
aVhttp://dbpedia.org/class/yago/NationalFootballLeagueDefensiveCoordinators
p466
aVhttp://dbpedia.org/class/yago/NewEnglandPatriotsCoaches
p467
aVhttp://dbpedia.org/class/yago/OaklandRaidersCoaches
p468
aVhttp://dbpedia.org/class/yago/OhioStateBuckeyesFootballCoaches
p469
aVhttp://dbpedia.org/class/yago/OklahomaStateCowboysFootballCoaches
p470
aVhttp://dbpedia.org/class/yago/PeopleFromArdmore,Oklahoma
p471
aVhttp://dbpedia.org/class/yago/PeopleFromToronto
p472
aVhttp://dbpedia.org/class/yago/YagoLegalActor
p473
aVhttp://dbpedia.org/class/yago/LivingPeople
p474
aVhttp://dbpedia.org/class/yago/PhysicalEntity100001930
p475
aVhttp://dbpedia.org/class/yago/TennesseeStateTigersFootballCoaches
p476
aVhttp://dbpedia.org/class/yago/TwinPeopleFromTheUnitedStates
p477
aVhttp://dbpedia.org/class/yago/WKUHilltoppersFootballCoaches
p478
aVhttp://dbpedia.org/resource/Rob_Ryan
tp479
aa(lp480
((lp481
Vhttp://dbpedia.org/class/yago/ArkansasRazorbacksFootballCoaches
p482
aVhttp://dbpedia.org/class/yago/Athlete109820263
p483
aVhttp://dbpedia.org/class/yago/CausalAgent100007347
p484
aVhttp://dbpedia.org/class/yago/Coach109931640
p485
aVhttp://dbpedia.org/class/yago/Contestant109613191
p486
aVhttp://dbpedia.org/class/yago/FootballCoach110101202
p487
aVhttp://dbpedia.org/class/yago/FootballPlayer110101634
p488
aVhttp://dbpedia.org/class/yago/Intellectual109621545
p489
aVhttp://dbpedia.org/class/yago/Leader109623038
p490
aVhttp://dbpedia.org/class/yago/LivingThing100004258
p491
aVhttp://dbpedia.org/class/yago/Object100002684
p492
aVhttp://dbpedia.org/class/yago/Organism100004475
p493
aVhttp://dbpedia.org/class/yago/Organizer110383237
p494
aVhttp://dbpedia.org/class/yago/Person100007846
p495
aVhttp://dbpedia.org/class/yago/Player110439851
p496
aVhttp://dbpedia.org/class/yago/Thinker110708454
p497
aVhttp://dbpedia.org/class/yago/Trainer110722575
p498
aVhttp://dbpedia.org/class/yago/Whole100003553
p499
aVhttp://dbpedia.org/class/yago/YagoLegalActorGeo
p500
aVhttp://dbpedia.org/class/yago/SyracuseOrangeFootballCoaches
p501
aVhttp://www.w3.org/2002/07/owl#Thing
p502
aVhttp://xmlns.com/foaf/0.1/Person
p503
aVhttp://dbpedia.org/ontology/Person
p504
aVhttp://www.ontologydesignpatterns.org/ont/dul/DUL.owl#Agent
p505
aVhttp://www.ontologydesignpatterns.org/ont/dul/DUL.owl#NaturalPerson
p506
aVhttp://www.wikidata.org/entity/Q215627
p507
aVhttp://www.wikidata.org/entity/Q5
p508
aVhttp://dbpedia.org/ontology/Agent
p509
aVhttp://dbpedia.org/ontology/AmericanFootballCoach
p510
aVhttp://dbpedia.org/ontology/Coach
p511
aVhttp://schema.org/Person
p512
aVhttp://dbpedia.org/class/yago/CincinnatiBearcatsFootballCoaches
p513
aVhttp://dbpedia.org/class/yago/CincinnatiBengalsCoaches
p514
aVhttp://dbpedia.org/class/yago/Coordinator109963914
p515
aVhttp://dbpedia.org/class/yago/NationalFootballLeagueDefensiveCoordinators
p516
aVhttp://dbpedia.org/class/yago/YagoLegalActor
p517
aVhttp://dbpedia.org/class/yago/FresnoStateBulldogsFootballCoaches
p518
aVhttp://dbpedia.org/class/yago/HolyCrossCrusadersFootballCoaches
p519
aVhttp://dbpedia.org/class/yago/LivingPeople
p520
aVhttp://dbpedia.org/class/yago/MarylandTerrapinsFootballCoaches
p521
aVhttp://dbpedia.org/class/yago/MiamiDolphinsCoaches
p522
aVhttp://dbpedia.org/class/yago/PhysicalEntity100001930
p523
aVhttp://dbpedia.org/class/yago/UMassMinutemenFootballPlayers
p524
aVhttp://dbpedia.org/resource/Kevin_Coyle
tp525
aa(lp526
((lp527
Vhttp://dbpedia.org/class/yago/AfricanAmericanCoachesOfAmericanFootball
p528
aVhttp://dbpedia.org/class/yago/AfricanAmericanPlayersOfAmericanFootball
p529
aVhttp://dbpedia.org/class/yago/ArizonaWildcatsFootballCoaches
p530
aVhttp://dbpedia.org/class/yago/Athlete109820263
p531
aVhttp://dbpedia.org/class/yago/BuffaloBillsCoaches
p532
aVhttp://dbpedia.org/class/yago/CausalAgent100007347
p533
aVhttp://dbpedia.org/class/yago/Coach109931640
p534
aVhttp://dbpedia.org/class/yago/Contestant109613191
p535
aVhttp://dbpedia.org/class/yago/FootballCoach110101202
p536
aVhttp://dbpedia.org/class/yago/FootballPlayer110101634
p537
aVhttp://dbpedia.org/class/yago/Leader109623038
p538
aVhttp://dbpedia.org/class/yago/LivingThing100004258
p539
aVhttp://dbpedia.org/class/yago/Object100002684
p540
aVhttp://dbpedia.org/class/yago/Organism100004475
p541
aVhttp://dbpedia.org/class/yago/Person100007846
p542
aVhttp://dbpedia.org/class/yago/Player110439851
p543
aVhttp://dbpedia.org/class/yago/Trainer110722575
p544
aVhttp://dbpedia.org/class/yago/Whole100003553
p545
aVhttp://dbpedia.org/class/yago/YagoLegalActorGeo
p546
aVhttp://www.w3.org/2002/07/owl#Thing
p547
aVhttp://xmlns.com/foaf/0.1/Person
p548
aVhttp://dbpedia.org/ontology/Person
p549
aVhttp://www.ontologydesignpatterns.org/ont/dul/DUL.owl#Agent
p550
aVhttp://www.ontologydesignpatterns.org/ont/dul/DUL.owl#NaturalPerson
p551
aVhttp://www.wikidata.org/entity/Q215627
p552
aVhttp://www.wikidata.org/entity/Q5
p553
aVhttp://dbpedia.org/ontology/Agent
p554
aVhttp://dbpedia.org/ontology/AmericanFootballCoach
p555
aVhttp://dbpedia.org/ontology/Coach
p556
aVhttp://schema.org/Person
p557
aVhttp://dbpedia.org/class/yago/ChicagoBearsCoaches
p558
aVhttp://dbpedia.org/class/yago/DenverBroncosHeadCoaches
p559
aVhttp://dbpedia.org/class/yago/NationalFootballLeagueHeadCoaches
p560
aVhttp://dbpedia.org/class/yago/NewYorkGiantsCoaches
p561
aVhttp://dbpedia.org/class/yago/NorthCarolinaTarHeelsFootballCoaches
p562
aVhttp://dbpedia.org/class/yago/PeopleFromMadison,Wisconsin
p563
aVhttp://dbpedia.org/class/yago/PlayersOfAmericanFootballFromWisconsin
p564
aVhttp://dbpedia.org/class/yago/YagoLegalActor
p565
aVhttp://dbpedia.org/class/yago/KentStateGoldenFlashesFootballCoaches
p566
aVhttp://dbpedia.org/class/yago/LivingPeople
p567
aVhttp://dbpedia.org/class/yago/PhysicalEntity100001930
p568
aVhttp://dbpedia.org/class/yago/WingateBulldogsFootballCoaches
p569
aVhttp://dbpedia.org/class/yago/Wisconsin%E2%80%93WhitewaterWarhawksFootballPlayers
p570
aVhttp://dbpedia.org/resource/Eric_Studesville
tp571
aa(lp572
((lp573
Vhttp://dbpedia.org/class/yago/AlfredSaxonsFootballCoaches
p574
aVhttp://dbpedia.org/class/yago/Athlete109820263
p575
aVhttp://dbpedia.org/class/yago/CaliforniaGoldenBearsFootballCoaches
p576
aVhttp://dbpedia.org/class/yago/CausalAgent100007347
p577
aVhttp://dbpedia.org/class/yago/Coach109931640
p578
aVhttp://dbpedia.org/class/yago/Contestant109613191
p579
aVhttp://dbpedia.org/class/yago/FootballCoach110101202
p580
aVhttp://dbpedia.org/class/yago/FootballPlayer110101634
p581
aVhttp://dbpedia.org/class/yago/Leader109623038
p582
aVhttp://dbpedia.org/class/yago/LivingThing100004258
p583
aVhttp://dbpedia.org/class/yago/Object100002684
p584
aVhttp://dbpedia.org/class/yago/Organism100004475
p585
aVhttp://dbpedia.org/class/yago/Person100007846
p586
aVhttp://dbpedia.org/class/yago/Player110439851
p587
aVhttp://dbpedia.org/class/yago/Trainer110722575
p588
aVhttp://dbpedia.org/class/yago/Whole100003553
p589
aVhttp://dbpedia.org/class/yago/YagoLegalActorGeo
p590
aVhttp://www.w3.org/2002/07/owl#Thing
p591
aVhttp://xmlns.com/foaf/0.1/Person
p592
aVhttp://dbpedia.org/ontology/Person
p593
aVhttp://www.ontologydesignpatterns.org/ont/dul/DUL.owl#Agent
p594
aVhttp://www.ontologydesignpatterns.org/ont/dul/DUL.owl#NaturalPerson
p595
aVhttp://www.wikidata.org/entity/Q215627
p596
aVhttp://www.wikidata.org/entity/Q5
p597
aVhttp://dbpedia.org/ontology/Agent
p598
aVhttp://dbpedia.org/ontology/AmericanFootballCoach
p599
aVhttp://dbpedia.org/ontology/Coach
p600
aVhttp://schema.org/Person
p601
aVhttp://umbel.org/umbel/rc/Manager
p602
aVhttp://dbpedia.org/class/yago/NewYorkGiantsCoaches
p603
aVhttp://dbpedia.org/class/yago/OaklandRaidersCoaches
p604
aVhttp://dbpedia.org/class/yago/OregonStateBeaversFootballCoaches
p605
aVhttp://dbpedia.org/class/yago/PeopleFromSteubenCounty,NewYork
p606
aVhttp://dbpedia.org/class/yago/PlayersOfAmericanFootballFromNewYork
p607
aVhttp://dbpedia.org/class/yago/YagoLegalActor
p608
aVhttp://dbpedia.org/class/yago/FresnoStateBulldogsFootballCoaches
p609
aVhttp://dbpedia.org/class/yago/LivingPeople
p610
aVhttp://dbpedia.org/class/yago/PhysicalEntity100001930
p611
aVhttp://dbpedia.org/class/yago/UCLABruinsFootballCoaches
p612
aVhttp://dbpedia.org/class/yago/UtahStateAggiesFootballCoaches
p613
aVhttp://dbpedia.org/class/yago/UtahStateAggiesFootballPlayers
p614
aVhttp://dbpedia.org/resource/Mike_Waufle
tp615
aa(lp616
((lp617
Vhttp://dbpedia.org/class/yago/Alumnus109786338
p618
aVhttp://dbpedia.org/class/yago/AmericanFootballQuarterbacks
p619
aVhttp://dbpedia.org/class/yago/Athlete109820263
p620
aVhttp://dbpedia.org/class/yago/Back109830194
p621
aVhttp://dbpedia.org/class/yago/CausalAgent100007347
p622
aVhttp://dbpedia.org/class/yago/Coach109931640
p623
aVhttp://dbpedia.org/class/yago/Contestant109613191
p624
aVhttp://dbpedia.org/class/yago/FootballPlayer110101634
p625
aVhttp://dbpedia.org/class/yago/Intellectual109621545
p626
aVhttp://dbpedia.org/class/yago/LacrossePlayer110242682
p627
aVhttp://dbpedia.org/class/yago/Leader109623038
p628
aVhttp://dbpedia.org/class/yago/LivingThing100004258
p629
aVhttp://dbpedia.org/class/yago/Object100002684
p630
aVhttp://dbpedia.org/class/yago/Organism100004475
p631
aVhttp://dbpedia.org/class/yago/Person100007846
p632
aVhttp://dbpedia.org/class/yago/Player110439851
p633
aVhttp://dbpedia.org/class/yago/Quarterback110498816
p634
aVhttp://dbpedia.org/class/yago/Scholar110557854
p635
aVhttp://dbpedia.org/class/yago/Trainer110722575
p636
aVhttp://dbpedia.org/class/yago/Whole100003553
p637
aVhttp://dbpedia.org/class/yago/YagoLegalActorGeo
p638
aVhttp://www.w3.org/2002/07/owl#Thing
p639
aVhttp://xmlns.com/foaf/0.1/Person
p640
aVhttp://dbpedia.org/ontology/Person
p641
aVhttp://www.ontologydesignpatterns.org/ont/dul/DUL.owl#Agent
p642
aVhttp://www.ontologydesignpatterns.org/ont/dul/DUL.owl#NaturalPerson
p643
aVhttp://www.wikidata.org/entity/Q215627
p644
aVhttp://www.wikidata.org/entity/Q5
p645
aVhttp://dbpedia.org/ontology/Agent
p646
aVhttp://dbpedia.org/ontology/AmericanFootballCoach
p647
aVhttp://dbpedia.org/ontology/Coach
p648
aVhttp://schema.org/Person
p649
aVhttp://dbpedia.org/class/yago/CornellBigRedFootballPlayers
p650
aVhttp://dbpedia.org/class/yago/CornellBigRedMen'sLacrossePlayers
p651
aVhttp://dbpedia.org/class/yago/NewEnglandPatriotsCoaches
p652
aVhttp://dbpedia.org/class/yago/PeopleFromWayland,Massachusetts
p653
aVhttp://dbpedia.org/class/yago/PhillipsAcademyAlumni
p654
aVhttp://dbpedia.org/class/yago/YagoLegalActor
p655
aVhttp://dbpedia.org/class/yago/LivingPeople
p656
aVhttp://dbpedia.org/class/yago/PhysicalEntity100001930
p657
aVhttp://dbpedia.org/resource/Ned_Burke
tp658
aa(lp659
((lp660
Vhttp://dbpedia.org/class/yago/Athlete109820263
p661
aVhttp://dbpedia.org/class/yago/AtlantaFalconsCoaches
p662
aVhttp://dbpedia.org/class/yago/CalStateFullertonTitansFootballCoaches
p663
aVhttp://dbpedia.org/class/yago/CausalAgent100007347
p664
aVhttp://dbpedia.org/class/yago/Coach109931640
p665
aVhttp://dbpedia.org/class/yago/Contestant109613191
p666
aVhttp://dbpedia.org/class/yago/FootballCoach110101202
p667
aVhttp://dbpedia.org/class/yago/FootballPlayer110101634
p668
aVhttp://dbpedia.org/class/yago/Leader109623038
p669
aVhttp://dbpedia.org/class/yago/LivingThing100004258
p670
aVhttp://dbpedia.org/class/yago/Object100002684
p671
aVhttp://dbpedia.org/class/yago/Organism100004475
p672
aVhttp://dbpedia.org/class/yago/Person100007846
p673
aVhttp://dbpedia.org/class/yago/Player110439851
p674
aVhttp://dbpedia.org/class/yago/Trainer110722575
p675
aVhttp://dbpedia.org/class/yago/Whole100003553
p676
aVhttp://dbpedia.org/class/yago/YagoLegalActorGeo
p677
aVhttp://dbpedia.org/class/yago/SanDiegoStateAztecsFootballPlayers
p678
aVhttp://www.w3.org/2002/07/owl#Thing
p679
aVhttp://xmlns.com/foaf/0.1/Person
p680
aVhttp://dbpedia.org/ontology/Person
p681
aVhttp://www.ontologydesignpatterns.org/ont/dul/DUL.owl#Agent
p682
aVhttp://www.ontologydesignpatterns.org/ont/dul/DUL.owl#NaturalPerson
p683
aVhttp://www.wikidata.org/entity/Q215627
p684
aVhttp://www.wikidata.org/entity/Q5
p685
aVhttp://dbpedia.org/ontology/Agent
p686
aVhttp://dbpedia.org/ontology/AmericanFootballCoach
p687
aVhttp://dbpedia.org/ontology/Coach
p688
aVhttp://schema.org/Person
p689
aVhttp://dbpedia.org/class/yago/PeopleFromPoughkeepsie,NewYork
p690
aVhttp://dbpedia.org/class/yago/YagoLegalActor
p691
aVhttp://dbpedia.org/class/yago/HoustonOilersCoaches
p692
aVhttp://dbpedia.org/class/yago/LivingPeople
p693
aVhttp://dbpedia.org/class/yago/LosAngelesRamsCoaches
p694
aVhttp://dbpedia.org/class/yago/PhysicalEntity100001930
p695
aVhttp://dbpedia.org/class/yago/VanderbiltCommodoresFootballCoaches
p696
aVhttp://dbpedia.org/class/yago/WashingtonRedskinsCoaches
p697
aVhttp://dbpedia.org/resource/Rennie_Simmons
tp698
aa(lp699
a(lp700
((lp701
Vhttp://dbpedia.org/class/yago/AmericanPeopleOfCapeVerdeanDescent
p702
aVhttp://dbpedia.org/class/yago/Athlete109820263
p703
aVhttp://dbpedia.org/class/yago/CausalAgent100007347
p704
aVhttp://dbpedia.org/class/yago/Coach109931640
p705
aVhttp://dbpedia.org/class/yago/Contestant109613191
p706
aVhttp://dbpedia.org/class/yago/FootballCoach110101202
p707
aVhttp://dbpedia.org/class/yago/FootballPlayer110101634
p708
aVhttp://dbpedia.org/class/yago/Leader109623038
p709
aVhttp://dbpedia.org/class/yago/LivingThing100004258
p710
aVhttp://dbpedia.org/class/yago/Object100002684
p711
aVhttp://dbpedia.org/class/yago/Organism100004475
p712
aVhttp://dbpedia.org/class/yago/Person100007846
p713
aVhttp://dbpedia.org/class/yago/Player110439851
p714
aVhttp://dbpedia.org/class/yago/Trainer110722575
p715
aVhttp://dbpedia.org/class/yago/Whole100003553
p716
aVhttp://dbpedia.org/class/yago/YagoLegalActorGeo
p717
aVhttp://dbpedia.org/class/yago/SpringfieldPrideFootballPlayers
p718
aVhttp://www.w3.org/2002/07/owl#Thing
p719
aVhttp://xmlns.com/foaf/0.1/Person
p720
aVhttp://dbpedia.org/ontology/Person
p721
aVhttp://www.ontologydesignpatterns.org/ont/dul/DUL.owl#Agent
p722
aVhttp://www.ontologydesignpatterns.org/ont/dul/DUL.owl#NaturalPerson
p723
aVhttp://www.wikidata.org/entity/Q215627
p724
aVhttp://www.wikidata.org/entity/Q5
p725
aVhttp://dbpedia.org/ontology/Agent
p726
aVhttp://dbpedia.org/ontology/AmericanFootballCoach
p727
aVhttp://dbpedia.org/ontology/Coach
p728
aVhttp://schema.org/Person
p729
aVhttp://dbpedia.org/class/yago/YagoLegalActor
p730
aVhttp://dbpedia.org/class/yago/LivingPeople
p731
aVhttp://dbpedia.org/class/yago/MichiganStateSpartansFootballCoaches
p732
aVhttp://dbpedia.org/class/yago/PhysicalEntity100001930
p733
aVhttp://dbpedia.org/resource/Glenn_Pires
p734
tp735
aaa.