(lp1
(lp2
(lp3
((lp4
Vhttp://dbpedia.org/class/yago/AdministrativeDistrict108491826
p5
aVhttp://dbpedia.org/class/yago/Country108544813
p6
aVhttp://dbpedia.org/class/yago/District108552138
p7
aVhttp://dbpedia.org/class/yago/Location100027167
p8
aVhttp://dbpedia.org/class/yago/Object100002684
p9
aVhttp://dbpedia.org/class/yago/Region108630985
p10
aVhttp://dbpedia.org/class/yago/YagoGeoEntity
p11
aVhttp://dbpedia.org/class/yago/YagoLegalActorGeo
p12
aVhttp://dbpedia.org/class/yago/StatesAndTerritoriesEstablishedIn1263
p13
aVhttp://www.w3.org/2002/07/owl#Thing
p14
aVhttp://dbpedia.org/ontology/Place
p15
aVhttp://dbpedia.org/ontology/Location
p16
aVhttp://www.wikidata.org/entity/Q486972
p17
aVhttp://www.wikidata.org/entity/Q6256
p18
aVhttp://dbpedia.org/ontology/Country
p19
aVhttp://dbpedia.org/ontology/PopulatedPlace
p20
aVhttp://schema.org/Country
p21
aVhttp://schema.org/Place
p22
aVhttp://umbel.org/umbel/rc/Country
p23
aVhttp://dbpedia.org/class/yago/FormerSlavicCountries
p24
aVhttp://dbpedia.org/class/yago/YagoPermanentlyLocatedEntity
p25
aVhttp://dbpedia.org/class/yago/PhysicalEntity100001930
p26
aVhttp://dbpedia.org/resource/Grand_Duchy_of_Moscow
tp27
aa(lp28
a(lp29
a(lp30
a(lp31
a(lp32
a(lp33
((lp34
Vhttp://dbpedia.org/class/yago/Abstraction100002137
p35
aVhttp://dbpedia.org/class/yago/Contest107456188
p36
aVhttp://dbpedia.org/class/yago/Event100029378
p37
aVhttp://dbpedia.org/class/yago/Race107472657
p38
aVhttp://dbpedia.org/class/yago/SocialEvent107288639
p39
aVhttp://www.w3.org/2002/07/owl#Thing
p40
aVhttp://www.ontologydesignpatterns.org/ont/dul/DUL.owl#Event
p41
aVhttp://www.wikidata.org/entity/Q15091377
p42
aVhttp://www.wikidata.org/entity/Q1656682
p43
aVhttp://dbpedia.org/ontology/CyclingRace
p44
aVhttp://dbpedia.org/ontology/Event
p45
aVhttp://dbpedia.org/ontology/Race
p46
aVhttp://dbpedia.org/ontology/SocietalEvent
p47
aVhttp://dbpedia.org/ontology/SportsEvent
p48
aVhttp://schema.org/Event
p49
aVhttp://schema.org/SportsEvent
p50
aVhttp://dbpedia.org/class/yago/CycleRacesInSerbia
p51
aVhttp://dbpedia.org/class/yago/PsychologicalFeature100023100
p52
aVhttp://dbpedia.org/class/yago/YagoPermanentlyLocatedEntity
p53
aVhttp://dbpedia.org/resource/Tour_de_Serbie
tp54
aa(lp55
a(lp56
a(lp57
((lp58
Vhttp://dbpedia.org/class/yago/Abstraction100002137
p59
aVhttp://dbpedia.org/class/yago/Contest107456188
p60
aVhttp://dbpedia.org/class/yago/Event100029378
p61
aVhttp://dbpedia.org/class/yago/Race107472657
p62
aVhttp://dbpedia.org/class/yago/SocialEvent107288639
p63
aVhttp://www.w3.org/2002/07/owl#Thing
p64
aVhttp://www.ontologydesignpatterns.org/ont/dul/DUL.owl#Event
p65
aVhttp://www.wikidata.org/entity/Q15091377
p66
aVhttp://www.wikidata.org/entity/Q1656682
p67
aVhttp://dbpedia.org/ontology/CyclingRace
p68
aVhttp://dbpedia.org/ontology/Event
p69
aVhttp://dbpedia.org/ontology/Race
p70
aVhttp://dbpedia.org/ontology/SocietalEvent
p71
aVhttp://dbpedia.org/ontology/SportsEvent
p72
aVhttp://schema.org/Event
p73
aVhttp://schema.org/SportsEvent
p74
aVhttp://umbel.org/umbel/rc/Event
p75
aVhttp://umbel.org/umbel/rc/SportsEvent
p76
aVhttp://umbel.org/umbel/rc/Tournament
p77
aVhttp://dbpedia.org/class/yago/ClassicCycleRaces
p78
aVhttp://dbpedia.org/class/yago/CycleRacesInTheNetherlands
p79
aVhttp://dbpedia.org/class/yago/PsychologicalFeature100023100
p80
aVhttp://dbpedia.org/class/yago/YagoPermanentlyLocatedEntity
p81
aVhttp://dbpedia.org/class/yago/UCIProTourRaces
p82
aVhttp://dbpedia.org/class/yago/UCIRoadWorldCupRaces
p83
aVhttp://dbpedia.org/resource/Amstel_Gold_Race
tp84
aa(lp85
((lp86
Vhttp://dbpedia.org/class/yago/Abstraction100002137
p87
aVhttp://dbpedia.org/class/yago/Group100031264
p88
aVhttp://dbpedia.org/class/yago/Organization108008335
p89
aVhttp://dbpedia.org/class/yago/SocialGroup107950920
p90
aVhttp://dbpedia.org/class/yago/YagoLegalActorGeo
p91
aVhttp://www.w3.org/2002/07/owl#Thing
p92
aVhttp://www.ontologydesignpatterns.org/ont/dul/DUL.owl#Event
p93
aVhttp://www.wikidata.org/entity/Q1656682
p94
aVhttp://dbpedia.org/ontology/Event
p95
aVhttp://dbpedia.org/ontology/Race
p96
aVhttp://dbpedia.org/ontology/SocietalEvent
p97
aVhttp://dbpedia.org/ontology/SportsEvent
p98
aVhttp://schema.org/Event
p99
aVhttp://schema.org/SportsEvent
p100
aVhttp://dbpedia.org/class/yago/EquestrianOrganizations
p101
aVhttp://dbpedia.org/class/yago/YagoPermanentlyLocatedEntity
p102
aVhttp://dbpedia.org/class/yago/YagoLegalActor
p103
aVhttp://dbpedia.org/resource/Australian_Turf_Club
tp104
aa(lp105
((lp106
Vhttp://www.w3.org/2002/07/owl#Thing
p107
aVhttp://www.ontologydesignpatterns.org/ont/dul/DUL.owl#Event
p108
aVhttp://www.wikidata.org/entity/Q15091377
p109
aVhttp://www.wikidata.org/entity/Q1656682
p110
aVhttp://dbpedia.org/ontology/CyclingRace
p111
aVhttp://dbpedia.org/ontology/Event
p112
aVhttp://dbpedia.org/ontology/Race
p113
aVhttp://dbpedia.org/ontology/SocietalEvent
p114
aVhttp://dbpedia.org/ontology/SportsEvent
p115
aVhttp://schema.org/Event
p116
aVhttp://schema.org/SportsEvent
p117
aVhttp://dbpedia.org/resource/Baltic_Chain_Tour
tp118
aa(lp119
((lp120
Vhttp://www.w3.org/2002/07/owl#Thing
p121
aVhttp://www.ontologydesignpatterns.org/ont/dul/DUL.owl#Event
p122
aVhttp://www.wikidata.org/entity/Q1656682
p123
aVhttp://dbpedia.org/ontology/Event
p124
aVhttp://dbpedia.org/ontology/HorseRace
p125
aVhttp://dbpedia.org/ontology/Race
p126
aVhttp://dbpedia.org/ontology/SocietalEvent
p127
aVhttp://dbpedia.org/ontology/SportsEvent
p128
aVhttp://schema.org/Event
p129
aVhttp://schema.org/SportsEvent
p130
aVhttp://dbpedia.org/resource/Black_Caviar_Lightning
tp131
aa(lp132
a(lp133
a(lp134
((lp135
Vhttp://dbpedia.org/class/yago/Abstraction100002137
p136
aVhttp://dbpedia.org/class/yago/Contest107456188
p137
aVhttp://dbpedia.org/class/yago/Event100029378
p138
aVhttp://dbpedia.org/class/yago/Race107458453
p139
aVhttp://dbpedia.org/class/yago/Race107472657
p140
aVhttp://dbpedia.org/class/yago/SocialEvent107288639
p141
aVhttp://dbpedia.org/class/yago/RecurringEventsEstablishedIn1926
p142
aVhttp://www.w3.org/2002/07/owl#Thing
p143
aVhttp://www.ontologydesignpatterns.org/ont/dul/DUL.owl#Event
p144
aVhttp://www.wikidata.org/entity/Q1656682
p145
aVhttp://dbpedia.org/ontology/Event
p146
aVhttp://dbpedia.org/ontology/HorseRace
p147
aVhttp://dbpedia.org/ontology/Race
p148
aVhttp://dbpedia.org/ontology/SocietalEvent
p149
aVhttp://dbpedia.org/ontology/SportsEvent
p150
aVhttp://schema.org/Event
p151
aVhttp://schema.org/SportsEvent
p152
aVhttp://dbpedia.org/class/yago/FlatHorseRacesForTwo-year-olds
p153
aVhttp://dbpedia.org/class/yago/PsychologicalFeature100023100
p154
aVhttp://dbpedia.org/class/yago/YagoPermanentlyLocatedEntity
p155
aVhttp://dbpedia.org/class/yago/HorseRace107461411
p156
aVhttp://dbpedia.org/class/yago/UngradedStakesRacesInCanada
p157
aVhttp://dbpedia.org/resource/Clarendon_Stakes
tp158
aa(lp159
((lp160
Vhttp://dbpedia.org/class/yago/Abstraction100002137
p161
aVhttp://dbpedia.org/class/yago/BritishGoldCoins
p162
aVhttp://dbpedia.org/class/yago/Coin113388245
p163
aVhttp://dbpedia.org/class/yago/Currency113385913
p164
aVhttp://dbpedia.org/class/yago/Standard107260623
p165
aVhttp://dbpedia.org/class/yago/SystemOfMeasurement113577171
p166
aVhttp://www.w3.org/2002/07/owl#Thing
p167
aVhttp://www.ontologydesignpatterns.org/ont/dul/DUL.owl#Event
p168
aVhttp://www.wikidata.org/entity/Q1656682
p169
aVhttp://dbpedia.org/ontology/Event
p170
aVhttp://dbpedia.org/ontology/Race
p171
aVhttp://dbpedia.org/ontology/SocietalEvent
p172
aVhttp://dbpedia.org/ontology/SportsEvent
p173
aVhttp://schema.org/Event
p174
aVhttp://schema.org/SportsEvent
p175
aVhttp://dbpedia.org/class/yago/Coinage113387877
p176
aVhttp://dbpedia.org/class/yago/CoinsOfAustralia
p177
aVhttp://dbpedia.org/class/yago/CoinsOfEngland
p178
aVhttp://dbpedia.org/class/yago/CoinsOfGreatBritain
p179
aVhttp://dbpedia.org/class/yago/CoinsOfTheUnitedKingdom
p180
aVhttp://dbpedia.org/class/yago/Measure100033615
p181
aVhttp://dbpedia.org/class/yago/MediumOfExchange113372961
p182
aVhttp://dbpedia.org/resource/Guinea_(British_coin)
tp183
aa(lp184
((lp185
Vhttp://dbpedia.org/class/yago/Abstraction100002137
p186
aVhttp://dbpedia.org/class/yago/Contest107456188
p187
aVhttp://dbpedia.org/class/yago/Event100029378
p188
aVhttp://dbpedia.org/class/yago/Race107458453
p189
aVhttp://dbpedia.org/class/yago/Race107472657
p190
aVhttp://dbpedia.org/class/yago/SocialEvent107288639
p191
aVhttp://www.w3.org/2002/07/owl#Thing
p192
aVhttp://www.ontologydesignpatterns.org/ont/dul/DUL.owl#Event
p193
aVhttp://www.wikidata.org/entity/Q1656682
p194
aVhttp://dbpedia.org/ontology/Event
p195
aVhttp://dbpedia.org/ontology/HorseRace
p196
aVhttp://dbpedia.org/ontology/Race
p197
aVhttp://dbpedia.org/ontology/SocietalEvent
p198
aVhttp://dbpedia.org/ontology/SportsEvent
p199
aVhttp://schema.org/Event
p200
aVhttp://schema.org/SportsEvent
p201
aVhttp://dbpedia.org/class/yago/FlatRacesInGreatBritain
p202
aVhttp://dbpedia.org/class/yago/PsychologicalFeature100023100
p203
aVhttp://dbpedia.org/class/yago/YagoPermanentlyLocatedEntity
p204
aVhttp://dbpedia.org/class/yago/OpenMiddleDistanceHorseRaces
p205
aVhttp://dbpedia.org/class/yago/HorseRace107461411
p206
aVhttp://dbpedia.org/resource/Huxley_Stakes
tp207
aa(lp208
((lp209
Vhttp://dbpedia.org/class/yago/Abstraction100002137
p210
aVhttp://dbpedia.org/class/yago/Contest107456188
p211
aVhttp://dbpedia.org/class/yago/Event100029378
p212
aVhttp://dbpedia.org/class/yago/Race107458453
p213
aVhttp://dbpedia.org/class/yago/SocialEvent107288639
p214
aVhttp://www.w3.org/2002/07/owl#Thing
p215
aVhttp://www.ontologydesignpatterns.org/ont/dul/DUL.owl#Event
p216
aVhttp://www.wikidata.org/entity/Q1656682
p217
aVhttp://dbpedia.org/ontology/Event
p218
aVhttp://dbpedia.org/ontology/HorseRace
p219
aVhttp://dbpedia.org/ontology/Race
p220
aVhttp://dbpedia.org/ontology/SocietalEvent
p221
aVhttp://dbpedia.org/ontology/SportsEvent
p222
aVhttp://schema.org/Event
p223
aVhttp://schema.org/SportsEvent
p224
aVhttp://dbpedia.org/class/yago/PsychologicalFeature100023100
p225
aVhttp://dbpedia.org/class/yago/YagoPermanentlyLocatedEntity
p226
aVhttp://dbpedia.org/class/yago/OpenMiddleDistanceHorseRaces
p227
aVhttp://dbpedia.org/class/yago/HorseRace107461411
p228
aVhttp://dbpedia.org/class/yago/HorseRacesInFrance
p229
aVhttp://dbpedia.org/resource/La_Coupe_de_Maisons-Laffitte
p230
tp231
aaa.