(lp1
(lp2
(lp3
a(lp4
a(lp5
a(lp6
aa(lp7
(lp8
a(lp9
Vhttp://dbpedia.org/resource/Haplostigma
p10
aa(lp11
a(lp12
aa(lp13
(lp14
a(lp15
a(lp16
a(lp17
aa(lp18
(lp19
a(lp20
Vhttp://dbpedia.org/resource/Isoetopsida
p21
aa(lp22
a(lp23
aa(lp24
(lp25
a(lp26
a(lp27
a(lp28
aa(lp29
(lp30
a(lp31
Vhttp://dbpedia.org/resource/Selaginella_eremophila
p32
aa(lp33
a(lp34
aa(lp35
(lp36
a(lp37
Vhttp://dbpedia.org/resource/Lycopodium
p38
aa(lp39
a(lp40
aa(lp41
(lp42
a(lp43
Vhttp://dbpedia.org/resource/Lycopodium_magellanicum
p44
aa(lp45
a(lp46
aa(lp47
(lp48
a(lp49
a(lp50
a(lp51
aa(lp52
(lp53
a(lp54
a(lp55
a(lp56
aa(lp57
(lp58
a(lp59
Vhttp://dbpedia.org/resource/Huperzia_megastachya
p60
aa(lp61
a(lp62
aa(lp63
(lp64
a(lp65
Vhttp://dbpedia.org/resource/Selaginella_bryopteris
p66
aa(lp67
a(lp68
aa(lp69
(lp70
a(lp71
a(lp72
a(lp73
aa(lp74
(lp75
a(lp76
Vhttp://dbpedia.org/resource/Diphasiastrum
p77
aa(lp78
a(lp79
aa(lp80
(lp81
a(lp82
Vhttp://dbpedia.org/resource/Lycopodiella
p83
aa(lp84
a(lp85
aa(lp86
(lp87
a(lp88
Vhttp://dbpedia.org/resource/Phylloglossum
p89
aa(lp90
a(lp91
aa(lp92
(lp93
a(lp94
Vhttp://dbpedia.org/resource/Lepidodendron
p95
aa(lp96
a(lp97
aa(lp98
(lp99
a(lp100
Vhttp://dbpedia.org/resource/Isoetes_appalachiana
p101
aa(lp102
a(lp103
aa(lp104
(lp105
a(lp106
Vhttp://dbpedia.org/resource/Isoetes_melanospora
p107
aa(lp108
a(lp109
aa.