(lp1
(dp2
I0
(dp3
I0
(lp4
sI1
(lp5
sI2
(lp6
sI3
(lp7
ssI1
(dp8
I0
g5
sI1
(lp9
sI2
(lp10
sI3
(lp11
ssI2
(dp12
I0
g6
sI1
g10
sI2
(lp13
sI3
(lp14
ssI3
(dp15
I0
g7
sI1
g11
sI2
g14
sI3
(lp16
ssa(dp17
I0
(dp18
I0
(lp19
sI1
(lp20
sI2
(lp21
sI3
(lp22
ssI1
(dp23
I0
g20
sI1
(lp24
sI2
(lp25
sI3
(lp26
Vhttp://www.w3.org/ns/prov#wasDerivedFrom
p27
assI2
(dp28
I0
g21
sI1
g25
sI2
(lp29
sI3
(lp30
ssI3
(dp31
I0
g22
sI1
g26
sI2
g30
sI3
(lp32
ssa(dp33
I0
(dp34
I0
(lp35
sI1
(lp36
sI2
(lp37
sI3
(lp38
ssI1
(dp39
I0
g36
sI1
(lp40
sI2
(lp41
sI3
(lp42
ssI2
(dp43
I0
g37
sI1
g41
sI2
(lp44
sI3
(lp45
ssI3
(dp46
I0
g38
sI1
g42
sI2
g45
sI3
(lp47
ssa(dp48
I0
(dp49
I0
(lp50
sI1
(lp51
sI2
(lp52
sI3
(lp53
ssI1
(dp54
I0
g51
sI1
(lp55
sI2
(lp56
sI3
(lp57
Vhttp://www.w3.org/ns/prov#wasDerivedFrom
p58
assI2
(dp59
I0
g52
sI1
g56
sI2
(lp60
sI3
(lp61
ssI3
(dp62
I0
g53
sI1
g57
sI2
g61
sI3
(lp63
ssa(dp64
I0
(dp65
I0
(lp66
sI1
(lp67
sI2
(lp68
sI3
(lp69
ssI1
(dp70
I0
g67
sI1
(lp71
sI2
(lp72
sI3
(lp73
ssI2
(dp74
I0
g68
sI1
g72
sI2
(lp75
sI3
(lp76
ssI3
(dp77
I0
g69
sI1
g73
sI2
g76
sI3
(lp78
ssa(dp79
I0
(dp80
I0
(lp81
sI1
(lp82
sI2
(lp83
sI3
(lp84
ssI1
(dp85
I0
g82
sI1
(lp86
sI2
(lp87
sI3
(lp88
Vhttp://www.w3.org/ns/prov#wasDerivedFrom
p89
assI2
(dp90
I0
g83
sI1
g87
sI2
(lp91
sI3
(lp92
ssI3
(dp93
I0
g84
sI1
g88
sI2
g92
sI3
(lp94
ssa(dp95
I0
(dp96
I0
(lp97
sI1
(lp98
sI2
(lp99
sI3
(lp100
ssI1
(dp101
I0
g98
sI1
(lp102
sI2
(lp103
sI3
(lp104
ssI2
(dp105
I1
g103
sI2
(lp106
sI3
(lp107
ssI3
(dp108
I1
g104
sI3
(lp109
ssa(dp110
I0
(dp111
I0
(lp112
sI1
(lp113
sI2
(lp114
sI3
(lp115
ssI1
(dp116
I0
g113
sI1
(lp117
sI2
(lp118
sI3
(lp119
Vhttp://www.w3.org/ns/prov#wasDerivedFrom
p120
assI2
(dp121
I0
g114
sI1
g118
sI2
(lp122
sI3
(lp123
ssI3
(dp124
I0
g115
sI1
g119
sI2
g123
sI3
(lp125
ssa(dp126
I0
(dp127
I0
(lp128
sI1
(lp129
sI2
(lp130
sI3
(lp131
ssI1
(dp132
I0
g129
sI1
(lp133
sI2
(lp134
sI3
(lp135
ssI2
(dp136
I0
g130
sI1
g134
sI2
(lp137
sI3
(lp138
ssI3
(dp139
I0
g131
sI1
g135
sI2
g138
sI3
(lp140
ssa(dp141
I0
(dp142
I0
(lp143
sI1
(lp144
sI2
(lp145
sI3
(lp146
ssI1
(dp147
I0
g144
sI1
(lp148
sI2
(lp149
sI3
(lp150
ssI2
(dp151
I0
g145
sI1
g149
sI2
(lp152
sI3
(lp153
ssI3
(dp154
I0
g146
sI1
g150
sI2
g153
sI3
(lp155
ssa(dp156
I0
(dp157
I0
(lp158
sI1
(lp159
sI2
(lp160
sI3
(lp161
ssI1
(dp162
I0
g159
sI1
(lp163
sI2
(lp164
sI3
(lp165
ssI2
(dp166
I0
g160
sI1
g164
sI2
(lp167
sI3
(lp168
ssI3
(dp169
I0
g161
sI1
g165
sI3
(lp170
ssa(dp171
I0
(dp172
I0
(lp173
sI1
(lp174
sI2
(lp175
sI3
(lp176
ssI1
(dp177
I0
g174
sI1
(lp178
sI2
(lp179
sI3
(lp180
Vhttp://www.w3.org/ns/prov#wasDerivedFrom
p181
assI2
(dp182
I0
g175
sI1
g179
sI2
(lp183
sI3
(lp184
ssI3
(dp185
I0
g176
sI1
g180
sI2
g184
sI3
(lp186
ssa(dp187
I0
(dp188
I0
(lp189
sI1
(lp190
sI2
(lp191
sI3
(lp192
ssI1
(dp193
I0
g190
sI1
(lp194
sI2
(lp195
sI3
(lp196
ssI2
(dp197
I0
g191
sI1
g195
sI2
(lp198
sI3
(lp199
ssI3
(dp200
I0
g192
sI1
g196
sI2
g199
sI3
(lp201
ssa(dp202
I0
(dp203
I0
(lp204
sI1
(lp205
sI2
(lp206
sI3
(lp207
ssI1
(dp208
I0
g205
sI1
(lp209
sI2
(lp210
Vhttp://dbpedia.org/ontology/wikiPageExternalLink
p211
asI3
(lp212
Vhttp://www.w3.org/ns/prov#wasDerivedFrom
p213
assI2
(dp214
I0
g206
sI1
g210
sI2
(lp215
sI3
(lp216
ssI3
(dp217
I0
g207
sI1
g212
sI2
g216
sI3
(lp218
ssa(dp219
I0
(dp220
I0
(lp221
sI1
(lp222
sI2
(lp223
sI3
(lp224
ssI1
(dp225
I0
g222
sI1
(lp226
sI2
(lp227
sI3
(lp228
Vhttp://www.w3.org/ns/prov#wasDerivedFrom
p229
assI2
(dp230
I0
g223
sI1
g227
sI2
(lp231
sI3
(lp232
ssI3
(dp233
I0
g224
sI1
g228
sI2
g232
sI3
(lp234
ssa(dp235
I0
(dp236
I0
(lp237
sI1
(lp238
sI2
(lp239
sI3
(lp240
ssI1
(dp241
I0
g238
sI1
(lp242
sI2
(lp243
Vhttp://dbpedia.org/ontology/wikiPageExternalLink
p244
asI3
(lp245
Vhttp://www.w3.org/ns/prov#wasDerivedFrom
p246
assI2
(dp247
I0
g239
sI1
g243
sI2
(lp248
sI3
(lp249
ssI3
(dp250
I0
g240
sI1
g245
sI2
g249
sI3
(lp251
ssa(dp252
I0
(dp253
I0
(lp254
sI1
(lp255
sI2
(lp256
sI3
(lp257
ssI1
(dp258
I0
g255
sI1
(lp259
sI2
(lp260
sI3
(lp261
ssI2
(dp262
I1
g260
sI2
(lp263
sI3
(lp264
ssI3
(dp265
I1
g261
sI3
(lp266
ssa(dp267
I0
(dp268
I0
(lp269
sI1
(lp270
sI2
(lp271
sI3
(lp272
ssI1
(dp273
I0
g270
sI1
(lp274
sI2
(lp275
sI3
(lp276
Vhttp://www.w3.org/ns/prov#wasDerivedFrom
p277
assI2
(dp278
I0
g271
sI1
g275
sI2
(lp279
sI3
(lp280
ssI3
(dp281
I0
g272
sI1
g276
sI2
g280
sI3
(lp282
ssa(dp283
I0
(dp284
I0
(lp285
sI1
(lp286
sI2
(lp287
sI3
(lp288
ssI1
(dp289
I0
g286
sI1
(lp290
sI2
(lp291
sI3
(lp292
ssI2
(dp293
I0
g287
sI1
g291
sI2
(lp294
sI3
(lp295
ssI3
(dp296
I0
g288
sI1
g292
sI3
(lp297
ssa.