ccollections
defaultdict
p1
(c__builtin__
dict
p2
tRp3
I0
(dp4
I1
(lp5
sI2
(lp6
Vhttp://www.w3.org/ns/prov#wasDerivedFrom
p7
assI1
(dp8
I1
(lp9
sI2
(lp10
ssI2
(dp11
I1
(lp12
sI2
(lp13
ssI3
(dp14
I1
(lp15
sI2
(lp16
ssI4
(dp17
I1
(lp18
sI2
(lp19
ssI5
(dp20
I1
(lp21
sI2
(lp22
ssI6
(dp23
I1
(lp24
sI2
(lp25
ssI7
(dp26
I1
(lp27
sI2
(lp28
ssI8
(dp29
I1
(lp30
sI2
(lp31
ssI9
(dp32
I1
(lp33
sI2
(lp34
ssI10
(dp35
I1
(lp36
sI2
(lp37
ssI11
(dp38
I1
(lp39
sI2
(lp40
ssI13
(dp41
I1
(lp42
sI2
(lp43
ssI14
(dp44
I1
(lp45
sI2
(lp46
ssI15
(dp47
I1
(lp48
sI2
(lp49
ssI16
(dp50
I1
(lp51
sI2
(lp52
ssI17
(dp53
I1
(lp54
sI2
(lp55
ssI18
(dp56
I1
(lp57
sI2
(lp58
ss.