(lp1
(lp2
(lp3
a(lp4
a(lp5
a(lp6
a(lp7
aa(lp8
(lp9
a(lp10
a(lp11
a(lp12
a(lp13
aa(lp14
(lp15
a(lp16
a(lp17
a(lp18
a(lp19
aa(lp20
(lp21
a(lp22
Vhttp://dbpedia.org/resource/Dawna_Range
p23
aa(lp24
a(lp25
a(lp26
aa(lp27
(lp28
a(lp29
a(lp30
a(lp31
a(lp32
aa(lp33
(lp34
a(lp35
Vhttp://dbpedia.org/resource/Gleichberge
p36
aa(lp37
a(lp38
a(lp39
aa(lp40
(lp41
a(lp42
a(lp43
a(lp44
a(lp45
aa(lp46
(lp47
a(lp48
a(lp49
a(lp50
a(lp51
aa(lp52
(lp53
a(lp54
a(lp55
a(lp56
a(lp57
aa(lp58
(lp59
a(lp60
a(lp61
a(lp62
a(lp63
aa(lp64
(lp65
a(lp66
a(lp67
a(lp68
a(lp69
aa(lp70
(lp71
a(lp72
a(lp73
a(lp74
a(lp75
aa(lp76
(lp77
a(lp78
a(lp79
a(lp80
a(lp81
aa(lp82
(lp83
a(lp84
a(lp85
a(lp86
a(lp87
aa(lp88
(lp89
a(lp90
a(lp91
a(lp92
a(lp93
aa(lp94
(lp95
a(lp96
Vhttp://dbpedia.org/resource/Adelbert_Range
p97
aa(lp98
a(lp99
a(lp100
aa(lp101
(lp102
a(lp103
Vhttp://dbpedia.org/resource/Akademiya_Nauk_Range
p104
aa(lp105
a(lp106
a(lp107
aa(lp108
(lp109
a(lp110
Vhttp://dbpedia.org/resource/Alay_Mountains
p111
aa(lp112
a(lp113
a(lp114
aa(lp115
(lp116
a(lp117
Vhttp://dbpedia.org/resource/Aravalli_Range
p118
aa(lp119
a(lp120
a(lp121
aa.