(lp1
(lp2
(lp3
((lp4
Vhttp://dbpedia.org/class/yago/Abstraction100002137
p5
aVhttp://dbpedia.org/class/yago/Group100031264
p6
aVhttp://dbpedia.org/class/yago/Organization108008335
p7
aVhttp://dbpedia.org/class/yago/SocialGroup107950920
p8
aVhttp://dbpedia.org/class/yago/Team108208560
p9
aVhttp://dbpedia.org/class/yago/Unit108189659
p10
aVhttp://dbpedia.org/class/yago/YagoLegalActorGeo
p11
aVhttp://dbpedia.org/class/yago/SpeedwayEliteLeagueTeams
p12
aVhttp://www.w3.org/2002/07/owl#Thing
p13
aVhttp://www.ontologydesignpatterns.org/ont/dul/DUL.owl#Agent
p14
aVhttp://www.ontologydesignpatterns.org/ont/dul/DUL.owl#SocialPerson
p15
aVhttp://www.wikidata.org/entity/Q43229
p16
aVhttp://dbpedia.org/ontology/Agent
p17
aVhttp://dbpedia.org/ontology/Organisation
p18
aVhttp://dbpedia.org/ontology/SpeedwayTeam
p19
aVhttp://dbpedia.org/ontology/SportsTeam
p20
aVhttp://schema.org/Organization
p21
aVhttp://schema.org/SportsTeam
p22
aVhttp://dbpedia.org/class/yago/YagoPermanentlyLocatedEntity
p23
aVhttp://dbpedia.org/class/yago/YagoLegalActor
p24
aVhttp://dbpedia.org/resource/Birmingham_Brummies
tp25
aa(lp26
((lp27
Vhttp://dbpedia.org/class/yago/Abstraction100002137
p28
aVhttp://dbpedia.org/class/yago/Group100031264
p29
aVhttp://dbpedia.org/class/yago/Organization108008335
p30
aVhttp://dbpedia.org/class/yago/SocialGroup107950920
p31
aVhttp://dbpedia.org/class/yago/Team108208560
p32
aVhttp://dbpedia.org/class/yago/Unit108189659
p33
aVhttp://dbpedia.org/class/yago/YagoLegalActorGeo
p34
aVhttp://dbpedia.org/class/yago/SpeedwayEliteLeagueTeams
p35
aVhttp://www.w3.org/2002/07/owl#Thing
p36
aVhttp://www.ontologydesignpatterns.org/ont/dul/DUL.owl#Agent
p37
aVhttp://www.ontologydesignpatterns.org/ont/dul/DUL.owl#SocialPerson
p38
aVhttp://www.wikidata.org/entity/Q43229
p39
aVhttp://dbpedia.org/ontology/Agent
p40
aVhttp://dbpedia.org/ontology/Organisation
p41
aVhttp://dbpedia.org/ontology/SpeedwayTeam
p42
aVhttp://dbpedia.org/ontology/SportsTeam
p43
aVhttp://schema.org/Organization
p44
aVhttp://schema.org/SportsTeam
p45
aVhttp://dbpedia.org/class/yago/YagoPermanentlyLocatedEntity
p46
aVhttp://dbpedia.org/class/yago/YagoLegalActor
p47
aVhttp://dbpedia.org/resource/Eastbourne_Eagles
tp48
aa(lp49
((lp50
Vhttp://dbpedia.org/class/yago/Abstraction100002137
p51
aVhttp://dbpedia.org/class/yago/Group100031264
p52
aVhttp://dbpedia.org/class/yago/Organization108008335
p53
aVhttp://dbpedia.org/class/yago/SocialGroup107950920
p54
aVhttp://dbpedia.org/class/yago/Team108208560
p55
aVhttp://dbpedia.org/class/yago/Unit108189659
p56
aVhttp://dbpedia.org/class/yago/YagoLegalActorGeo
p57
aVhttp://dbpedia.org/class/yago/SpeedwayPremierLeagueTeams
p58
aVhttp://www.w3.org/2002/07/owl#Thing
p59
aVhttp://www.ontologydesignpatterns.org/ont/dul/DUL.owl#Agent
p60
aVhttp://www.ontologydesignpatterns.org/ont/dul/DUL.owl#SocialPerson
p61
aVhttp://www.wikidata.org/entity/Q43229
p62
aVhttp://dbpedia.org/ontology/Agent
p63
aVhttp://dbpedia.org/ontology/Organisation
p64
aVhttp://dbpedia.org/ontology/SpeedwayTeam
p65
aVhttp://dbpedia.org/ontology/SportsTeam
p66
aVhttp://schema.org/Organization
p67
aVhttp://schema.org/SportsTeam
p68
aVhttp://dbpedia.org/class/yago/YagoPermanentlyLocatedEntity
p69
aVhttp://dbpedia.org/class/yago/YagoLegalActor
p70
aVhttp://dbpedia.org/resource/Isle_of_Wight_Islanders
tp71
aa(lp72
((lp73
Vhttp://dbpedia.org/class/yago/Abstraction100002137
p74
aVhttp://dbpedia.org/class/yago/Group100031264
p75
aVhttp://dbpedia.org/class/yago/Organization108008335
p76
aVhttp://dbpedia.org/class/yago/SocialGroup107950920
p77
aVhttp://dbpedia.org/class/yago/Team108208560
p78
aVhttp://dbpedia.org/class/yago/Unit108189659
p79
aVhttp://dbpedia.org/class/yago/YagoLegalActorGeo
p80
aVhttp://dbpedia.org/class/yago/SpeedwayPremierLeagueTeams
p81
aVhttp://www.w3.org/2002/07/owl#Thing
p82
aVhttp://www.ontologydesignpatterns.org/ont/dul/DUL.owl#Agent
p83
aVhttp://www.ontologydesignpatterns.org/ont/dul/DUL.owl#SocialPerson
p84
aVhttp://www.wikidata.org/entity/Q43229
p85
aVhttp://dbpedia.org/ontology/Agent
p86
aVhttp://dbpedia.org/ontology/Organisation
p87
aVhttp://dbpedia.org/ontology/SpeedwayTeam
p88
aVhttp://dbpedia.org/ontology/SportsTeam
p89
aVhttp://schema.org/Organization
p90
aVhttp://schema.org/SportsTeam
p91
aVhttp://dbpedia.org/class/yago/YagoPermanentlyLocatedEntity
p92
aVhttp://dbpedia.org/class/yago/YagoLegalActor
p93
aVhttp://dbpedia.org/resource/Mildenhall_Fen_Tigers
tp94
aa(lp95
((lp96
Vhttp://dbpedia.org/class/yago/Abstraction100002137
p97
aVhttp://dbpedia.org/class/yago/Group100031264
p98
aVhttp://dbpedia.org/class/yago/Organization108008335
p99
aVhttp://dbpedia.org/class/yago/SocialGroup107950920
p100
aVhttp://dbpedia.org/class/yago/Team108208560
p101
aVhttp://dbpedia.org/class/yago/Unit108189659
p102
aVhttp://dbpedia.org/class/yago/YagoLegalActorGeo
p103
aVhttp://www.w3.org/2002/07/owl#Thing
p104
aVhttp://www.ontologydesignpatterns.org/ont/dul/DUL.owl#Agent
p105
aVhttp://www.ontologydesignpatterns.org/ont/dul/DUL.owl#SocialPerson
p106
aVhttp://www.wikidata.org/entity/Q43229
p107
aVhttp://dbpedia.org/ontology/Agent
p108
aVhttp://dbpedia.org/ontology/Organisation
p109
aVhttp://dbpedia.org/ontology/SpeedwayTeam
p110
aVhttp://dbpedia.org/ontology/SportsTeam
p111
aVhttp://schema.org/Organization
p112
aVhttp://schema.org/SportsTeam
p113
aVhttp://dbpedia.org/class/yago/DefunctBritishSpeedwayTeams
p114
aVhttp://dbpedia.org/class/yago/YagoPermanentlyLocatedEntity
p115
aVhttp://dbpedia.org/class/yago/OrganisationsBasedInOxford
p116
aVhttp://dbpedia.org/class/yago/YagoLegalActor
p117
aVhttp://dbpedia.org/resource/Oxford_Cheetahs
tp118
aa(lp119
((lp120
Vhttp://dbpedia.org/class/yago/Abstraction100002137
p121
aVhttp://dbpedia.org/class/yago/Group100031264
p122
aVhttp://dbpedia.org/class/yago/Organization108008335
p123
aVhttp://dbpedia.org/class/yago/SocialGroup107950920
p124
aVhttp://dbpedia.org/class/yago/Team108208560
p125
aVhttp://dbpedia.org/class/yago/Unit108189659
p126
aVhttp://dbpedia.org/class/yago/YagoLegalActorGeo
p127
aVhttp://dbpedia.org/class/yago/SpeedwayEliteLeagueTeams
p128
aVhttp://www.w3.org/2002/07/owl#Thing
p129
aVhttp://www.ontologydesignpatterns.org/ont/dul/DUL.owl#Agent
p130
aVhttp://www.ontologydesignpatterns.org/ont/dul/DUL.owl#SocialPerson
p131
aVhttp://www.wikidata.org/entity/Q43229
p132
aVhttp://dbpedia.org/ontology/Agent
p133
aVhttp://dbpedia.org/ontology/Organisation
p134
aVhttp://dbpedia.org/ontology/SpeedwayTeam
p135
aVhttp://dbpedia.org/ontology/SportsTeam
p136
aVhttp://schema.org/Organization
p137
aVhttp://schema.org/SportsTeam
p138
aVhttp://dbpedia.org/class/yago/YagoPermanentlyLocatedEntity
p139
aVhttp://dbpedia.org/class/yago/YagoLegalActor
p140
aVhttp://dbpedia.org/resource/Peterborough_Panthers
tp141
aa(lp142
((lp143
Vhttp://dbpedia.org/class/yago/Abstraction100002137
p144
aVhttp://dbpedia.org/class/yago/Group100031264
p145
aVhttp://dbpedia.org/class/yago/Organization108008335
p146
aVhttp://dbpedia.org/class/yago/SocialGroup107950920
p147
aVhttp://dbpedia.org/class/yago/Team108208560
p148
aVhttp://dbpedia.org/class/yago/Unit108189659
p149
aVhttp://dbpedia.org/class/yago/YagoLegalActorGeo
p150
aVhttp://dbpedia.org/class/yago/SpeedwayPremierLeagueTeams
p151
aVhttp://www.w3.org/2002/07/owl#Thing
p152
aVhttp://www.ontologydesignpatterns.org/ont/dul/DUL.owl#Agent
p153
aVhttp://www.ontologydesignpatterns.org/ont/dul/DUL.owl#SocialPerson
p154
aVhttp://www.wikidata.org/entity/Q43229
p155
aVhttp://dbpedia.org/ontology/Agent
p156
aVhttp://dbpedia.org/ontology/Organisation
p157
aVhttp://dbpedia.org/ontology/SpeedwayTeam
p158
aVhttp://dbpedia.org/ontology/SportsTeam
p159
aVhttp://schema.org/Organization
p160
aVhttp://schema.org/SportsTeam
p161
aVhttp://dbpedia.org/class/yago/YagoPermanentlyLocatedEntity
p162
aVhttp://dbpedia.org/class/yago/YagoLegalActor
p163
aVhttp://dbpedia.org/resource/Plymouth_Devils
tp164
aa(lp165
((lp166
Vhttp://dbpedia.org/class/yago/Abstraction100002137
p167
aVhttp://dbpedia.org/class/yago/Group100031264
p168
aVhttp://dbpedia.org/class/yago/Organization108008335
p169
aVhttp://dbpedia.org/class/yago/SocialGroup107950920
p170
aVhttp://dbpedia.org/class/yago/Team108208560
p171
aVhttp://dbpedia.org/class/yago/Unit108189659
p172
aVhttp://dbpedia.org/class/yago/YagoLegalActorGeo
p173
aVhttp://dbpedia.org/class/yago/SpeedwayPremierLeagueTeams
p174
aVhttp://www.w3.org/2002/07/owl#Thing
p175
aVhttp://www.ontologydesignpatterns.org/ont/dul/DUL.owl#Agent
p176
aVhttp://www.ontologydesignpatterns.org/ont/dul/DUL.owl#SocialPerson
p177
aVhttp://www.wikidata.org/entity/Q43229
p178
aVhttp://dbpedia.org/ontology/Agent
p179
aVhttp://dbpedia.org/ontology/Organisation
p180
aVhttp://dbpedia.org/ontology/SpeedwayTeam
p181
aVhttp://dbpedia.org/ontology/SportsTeam
p182
aVhttp://schema.org/Organization
p183
aVhttp://schema.org/SportsTeam
p184
aVhttp://dbpedia.org/class/yago/YagoPermanentlyLocatedEntity
p185
aVhttp://dbpedia.org/class/yago/YagoLegalActor
p186
aVhttp://dbpedia.org/resource/Redcar_Bears
tp187
aa(lp188
((lp189
Vhttp://dbpedia.org/class/yago/Abstraction100002137
p190
aVhttp://dbpedia.org/class/yago/Group100031264
p191
aVhttp://dbpedia.org/class/yago/Organization108008335
p192
aVhttp://dbpedia.org/class/yago/SocialGroup107950920
p193
aVhttp://dbpedia.org/class/yago/Team108208560
p194
aVhttp://dbpedia.org/class/yago/Unit108189659
p195
aVhttp://dbpedia.org/class/yago/YagoLegalActorGeo
p196
aVhttp://dbpedia.org/class/yago/SpeedwayPremierLeagueTeams
p197
aVhttp://www.w3.org/2002/07/owl#Thing
p198
aVhttp://www.ontologydesignpatterns.org/ont/dul/DUL.owl#Agent
p199
aVhttp://www.ontologydesignpatterns.org/ont/dul/DUL.owl#SocialPerson
p200
aVhttp://www.wikidata.org/entity/Q43229
p201
aVhttp://dbpedia.org/ontology/Agent
p202
aVhttp://dbpedia.org/ontology/Organisation
p203
aVhttp://dbpedia.org/ontology/SpeedwayTeam
p204
aVhttp://dbpedia.org/ontology/SportsTeam
p205
aVhttp://schema.org/Organization
p206
aVhttp://schema.org/SportsTeam
p207
aVhttp://dbpedia.org/class/yago/YagoPermanentlyLocatedEntity
p208
aVhttp://dbpedia.org/class/yago/YagoLegalActor
p209
aVhttp://dbpedia.org/resource/Scunthorpe_Scorpions
tp210
aa(lp211
((lp212
Vhttp://dbpedia.org/class/yago/Abstraction100002137
p213
aVhttp://dbpedia.org/class/yago/Group100031264
p214
aVhttp://dbpedia.org/class/yago/Organization108008335
p215
aVhttp://dbpedia.org/class/yago/SocialGroup107950920
p216
aVhttp://dbpedia.org/class/yago/Team108208560
p217
aVhttp://dbpedia.org/class/yago/Unit108189659
p218
aVhttp://dbpedia.org/class/yago/YagoLegalActorGeo
p219
aVhttp://dbpedia.org/class/yago/SpeedwayNationalLeagueTeams
p220
aVhttp://www.w3.org/2002/07/owl#Thing
p221
aVhttp://www.ontologydesignpatterns.org/ont/dul/DUL.owl#Agent
p222
aVhttp://www.ontologydesignpatterns.org/ont/dul/DUL.owl#SocialPerson
p223
aVhttp://www.wikidata.org/entity/Q43229
p224
aVhttp://dbpedia.org/ontology/Agent
p225
aVhttp://dbpedia.org/ontology/Organisation
p226
aVhttp://dbpedia.org/ontology/SpeedwayTeam
p227
aVhttp://dbpedia.org/ontology/SportsTeam
p228
aVhttp://schema.org/Organization
p229
aVhttp://schema.org/SportsTeam
p230
aVhttp://dbpedia.org/class/yago/YagoPermanentlyLocatedEntity
p231
aVhttp://dbpedia.org/class/yago/YagoLegalActor
p232
aVhttp://dbpedia.org/resource/Stoke_Potters
tp233
aa(lp234
((lp235
Vhttp://dbpedia.org/class/yago/Abstraction100002137
p236
aVhttp://dbpedia.org/class/yago/Group100031264
p237
aVhttp://dbpedia.org/class/yago/Organization108008335
p238
aVhttp://dbpedia.org/class/yago/SocialGroup107950920
p239
aVhttp://dbpedia.org/class/yago/Team108208560
p240
aVhttp://dbpedia.org/class/yago/Unit108189659
p241
aVhttp://dbpedia.org/class/yago/YagoLegalActorGeo
p242
aVhttp://dbpedia.org/class/yago/SpeedwayConferenceLeagueTeams
p243
aVhttp://www.w3.org/2002/07/owl#Thing
p244
aVhttp://www.ontologydesignpatterns.org/ont/dul/DUL.owl#Agent
p245
aVhttp://www.ontologydesignpatterns.org/ont/dul/DUL.owl#SocialPerson
p246
aVhttp://www.wikidata.org/entity/Q43229
p247
aVhttp://dbpedia.org/ontology/Agent
p248
aVhttp://dbpedia.org/ontology/Organisation
p249
aVhttp://dbpedia.org/ontology/SpeedwayTeam
p250
aVhttp://dbpedia.org/ontology/SportsTeam
p251
aVhttp://schema.org/Organization
p252
aVhttp://schema.org/SportsTeam
p253
aVhttp://dbpedia.org/class/yago/YagoPermanentlyLocatedEntity
p254
aVhttp://dbpedia.org/class/yago/YagoLegalActor
p255
aVhttp://dbpedia.org/resource/Boston_Barracudas
tp256
aa(lp257
((lp258
Vhttp://dbpedia.org/class/yago/Abstraction100002137
p259
aVhttp://dbpedia.org/class/yago/Group100031264
p260
aVhttp://dbpedia.org/class/yago/Organization108008335
p261
aVhttp://dbpedia.org/class/yago/SocialGroup107950920
p262
aVhttp://dbpedia.org/class/yago/Team108208560
p263
aVhttp://dbpedia.org/class/yago/Unit108189659
p264
aVhttp://dbpedia.org/class/yago/YagoLegalActorGeo
p265
aVhttp://dbpedia.org/class/yago/SpeedwayPremierLeagueTeams
p266
aVhttp://www.w3.org/2002/07/owl#Thing
p267
aVhttp://www.ontologydesignpatterns.org/ont/dul/DUL.owl#Agent
p268
aVhttp://www.ontologydesignpatterns.org/ont/dul/DUL.owl#SocialPerson
p269
aVhttp://www.wikidata.org/entity/Q43229
p270
aVhttp://dbpedia.org/ontology/Agent
p271
aVhttp://dbpedia.org/ontology/Organisation
p272
aVhttp://dbpedia.org/ontology/SpeedwayTeam
p273
aVhttp://dbpedia.org/ontology/SportsTeam
p274
aVhttp://schema.org/Organization
p275
aVhttp://schema.org/SportsTeam
p276
aVhttp://dbpedia.org/class/yago/YagoPermanentlyLocatedEntity
p277
aVhttp://dbpedia.org/class/yago/YagoLegalActor
p278
aVhttp://dbpedia.org/resource/Glasgow_Tigers_(speedway)
tp279
aa(lp280
((lp281
Vhttp://dbpedia.org/class/yago/Abstraction100002137
p282
aVhttp://dbpedia.org/class/yago/Association108049401
p283
aVhttp://dbpedia.org/class/yago/Club108227214
p284
aVhttp://dbpedia.org/class/yago/Group100031264
p285
aVhttp://dbpedia.org/class/yago/Organization108008335
p286
aVhttp://dbpedia.org/class/yago/SocialGroup107950920
p287
aVhttp://dbpedia.org/class/yago/Team108208560
p288
aVhttp://dbpedia.org/class/yago/Unit108189659
p289
aVhttp://dbpedia.org/class/yago/YagoLegalActorGeo
p290
aVhttp://dbpedia.org/class/yago/SpeedwayTeamsInLondon
p291
aVhttp://dbpedia.org/class/yago/SportsClubsDisestablishedIn1983
p292
aVhttp://dbpedia.org/class/yago/SportsClubsEstablishedIn1963
p293
aVhttp://www.w3.org/2002/07/owl#Thing
p294
aVhttp://www.ontologydesignpatterns.org/ont/dul/DUL.owl#Agent
p295
aVhttp://www.ontologydesignpatterns.org/ont/dul/DUL.owl#SocialPerson
p296
aVhttp://www.wikidata.org/entity/Q43229
p297
aVhttp://dbpedia.org/ontology/Agent
p298
aVhttp://dbpedia.org/ontology/Organisation
p299
aVhttp://dbpedia.org/ontology/SpeedwayTeam
p300
aVhttp://dbpedia.org/ontology/SportsTeam
p301
aVhttp://schema.org/Organization
p302
aVhttp://schema.org/SportsTeam
p303
aVhttp://dbpedia.org/class/yago/DefunctBritishSpeedwayTeams
p304
aVhttp://dbpedia.org/class/yago/YagoPermanentlyLocatedEntity
p305
aVhttp://dbpedia.org/class/yago/YagoLegalActor
p306
aVhttp://dbpedia.org/resource/Hackney_Hawks
tp307
aa(lp308
((lp309
Vhttp://www.w3.org/2002/07/owl#Thing
p310
aVhttp://www.ontologydesignpatterns.org/ont/dul/DUL.owl#Agent
p311
aVhttp://www.ontologydesignpatterns.org/ont/dul/DUL.owl#SocialPerson
p312
aVhttp://www.wikidata.org/entity/Q43229
p313
aVhttp://dbpedia.org/ontology/Agent
p314
aVhttp://dbpedia.org/ontology/Organisation
p315
aVhttp://dbpedia.org/ontology/SpeedwayTeam
p316
aVhttp://dbpedia.org/ontology/SportsTeam
p317
aVhttp://schema.org/Organization
p318
aVhttp://schema.org/SportsTeam
p319
aVhttp://dbpedia.org/resource/Ipswich_Witches
tp320
aa(lp321
((lp322
Vhttp://dbpedia.org/class/yago/Abstraction100002137
p323
aVhttp://dbpedia.org/class/yago/Group100031264
p324
aVhttp://dbpedia.org/class/yago/Organization108008335
p325
aVhttp://dbpedia.org/class/yago/SocialGroup107950920
p326
aVhttp://dbpedia.org/class/yago/Team108208560
p327
aVhttp://dbpedia.org/class/yago/Unit108189659
p328
aVhttp://dbpedia.org/class/yago/YagoLegalActorGeo
p329
aVhttp://dbpedia.org/class/yago/SwedishSpeedwayTeams
p330
aVhttp://www.w3.org/2002/07/owl#Thing
p331
aVhttp://www.ontologydesignpatterns.org/ont/dul/DUL.owl#Agent
p332
aVhttp://www.ontologydesignpatterns.org/ont/dul/DUL.owl#SocialPerson
p333
aVhttp://www.wikidata.org/entity/Q43229
p334
aVhttp://dbpedia.org/ontology/Agent
p335
aVhttp://dbpedia.org/ontology/Organisation
p336
aVhttp://dbpedia.org/ontology/SpeedwayTeam
p337
aVhttp://dbpedia.org/ontology/SportsTeam
p338
aVhttp://schema.org/Organization
p339
aVhttp://schema.org/SportsTeam
p340
aVhttp://dbpedia.org/class/yago/YagoPermanentlyLocatedEntity
p341
aVhttp://dbpedia.org/class/yago/YagoLegalActor
p342
aVhttp://dbpedia.org/resource/Team_Bikab
tp343
aa(lp344
((lp345
Vhttp://dbpedia.org/class/yago/Abstraction100002137
p346
aVhttp://dbpedia.org/class/yago/Group100031264
p347
aVhttp://dbpedia.org/class/yago/Organization108008335
p348
aVhttp://dbpedia.org/class/yago/SocialGroup107950920
p349
aVhttp://dbpedia.org/class/yago/Team108208560
p350
aVhttp://dbpedia.org/class/yago/Unit108189659
p351
aVhttp://dbpedia.org/class/yago/YagoLegalActorGeo
p352
aVhttp://www.w3.org/2002/07/owl#Thing
p353
aVhttp://www.ontologydesignpatterns.org/ont/dul/DUL.owl#Agent
p354
aVhttp://www.ontologydesignpatterns.org/ont/dul/DUL.owl#SocialPerson
p355
aVhttp://www.wikidata.org/entity/Q43229
p356
aVhttp://dbpedia.org/ontology/Agent
p357
aVhttp://dbpedia.org/ontology/Organisation
p358
aVhttp://dbpedia.org/ontology/SpeedwayTeam
p359
aVhttp://dbpedia.org/ontology/SportsTeam
p360
aVhttp://schema.org/Organization
p361
aVhttp://schema.org/SportsTeam
p362
aVhttp://dbpedia.org/class/yago/DefunctBritishSpeedwayTeams
p363
aVhttp://dbpedia.org/class/yago/YagoPermanentlyLocatedEntity
p364
aVhttp://dbpedia.org/class/yago/YagoLegalActor
p365
aVhttp://dbpedia.org/resource/St_Austell_Gulls
tp366
aa(lp367
((lp368
Vhttp://dbpedia.org/class/yago/Abstraction100002137
p369
aVhttp://dbpedia.org/class/yago/Group100031264
p370
aVhttp://dbpedia.org/class/yago/Organization108008335
p371
aVhttp://dbpedia.org/class/yago/SocialGroup107950920
p372
aVhttp://dbpedia.org/class/yago/Team108208560
p373
aVhttp://dbpedia.org/class/yago/Unit108189659
p374
aVhttp://dbpedia.org/class/yago/YagoLegalActorGeo
p375
aVhttp://www.w3.org/2002/07/owl#Thing
p376
aVhttp://www.ontologydesignpatterns.org/ont/dul/DUL.owl#Agent
p377
aVhttp://www.ontologydesignpatterns.org/ont/dul/DUL.owl#SocialPerson
p378
aVhttp://www.wikidata.org/entity/Q43229
p379
aVhttp://dbpedia.org/ontology/Agent
p380
aVhttp://dbpedia.org/ontology/Organisation
p381
aVhttp://dbpedia.org/ontology/SpeedwayTeam
p382
aVhttp://dbpedia.org/ontology/SportsTeam
p383
aVhttp://schema.org/Organization
p384
aVhttp://schema.org/SportsTeam
p385
aVhttp://dbpedia.org/class/yago/DefunctBritishSpeedwayTeams
p386
aVhttp://dbpedia.org/class/yago/YagoPermanentlyLocatedEntity
p387
aVhttp://dbpedia.org/class/yago/YagoLegalActor
p388
aVhttp://dbpedia.org/resource/Crewe_Kings
tp389
aa(lp390
((lp391
Vhttp://dbpedia.org/class/yago/Abstraction100002137
p392
aVhttp://dbpedia.org/class/yago/Group100031264
p393
aVhttp://dbpedia.org/class/yago/Organization108008335
p394
aVhttp://dbpedia.org/class/yago/SocialGroup107950920
p395
aVhttp://dbpedia.org/class/yago/Team108208560
p396
aVhttp://dbpedia.org/class/yago/Unit108189659
p397
aVhttp://dbpedia.org/class/yago/YagoLegalActorGeo
p398
aVhttp://dbpedia.org/class/yago/SpeedwayTeamsInEssex
p399
aVhttp://www.w3.org/2002/07/owl#Thing
p400
aVhttp://www.ontologydesignpatterns.org/ont/dul/DUL.owl#Agent
p401
aVhttp://www.ontologydesignpatterns.org/ont/dul/DUL.owl#SocialPerson
p402
aVhttp://www.wikidata.org/entity/Q43229
p403
aVhttp://dbpedia.org/ontology/Agent
p404
aVhttp://dbpedia.org/ontology/Organisation
p405
aVhttp://dbpedia.org/ontology/SpeedwayTeam
p406
aVhttp://dbpedia.org/ontology/SportsTeam
p407
aVhttp://schema.org/Organization
p408
aVhttp://schema.org/SportsTeam
p409
aVhttp://dbpedia.org/class/yago/DefunctBritishSpeedwayTeams
p410
aVhttp://dbpedia.org/class/yago/YagoPermanentlyLocatedEntity
p411
aVhttp://dbpedia.org/class/yago/YagoLegalActor
p412
aVhttp://dbpedia.org/resource/Rayleigh_Rockets
tp413
aa(lp414
((lp415
Vhttp://www.w3.org/2002/07/owl#Thing
p416
aVhttp://www.ontologydesignpatterns.org/ont/dul/DUL.owl#Agent
p417
aVhttp://www.ontologydesignpatterns.org/ont/dul/DUL.owl#SocialPerson
p418
aVhttp://www.wikidata.org/entity/Q43229
p419
aVhttp://dbpedia.org/ontology/Agent
p420
aVhttp://dbpedia.org/ontology/Organisation
p421
aVhttp://dbpedia.org/ontology/SpeedwayTeam
p422
aVhttp://dbpedia.org/ontology/SportsTeam
p423
aVhttp://schema.org/Organization
p424
aVhttp://schema.org/SportsTeam
p425
aVhttp://dbpedia.org/resource/Leicester_Hunters
p426
tp427
aaa.