(lp1
(lp2
(lp3
a(lp4
((lp5
Vhttp://www.w3.org/2002/07/owl#Thing
p6
aVhttp://xmlns.com/foaf/0.1/Person
p7
aVhttp://dbpedia.org/ontology/Person
p8
aVhttp://www.ontologydesignpatterns.org/ont/dul/DUL.owl#Agent
p9
aVhttp://www.ontologydesignpatterns.org/ont/dul/DUL.owl#NaturalPerson
p10
aVhttp://www.wikidata.org/entity/Q215627
p11
aVhttp://www.wikidata.org/entity/Q5
p12
aVhttp://dbpedia.org/ontology/Agent
p13
aVhttp://dbpedia.org/ontology/OrganisationMember
p14
aVhttp://dbpedia.org/ontology/SportsTeamMember
p15
aVhttp://schema.org/Person
p16
aVhttp://dbpedia.org/resource/List_of_Bulgarian_football_transfers_summer_2011
tp17
aa(lp18
((lp19
Vhttp://www.w3.org/2002/07/owl#Thing
p20
aVhttp://xmlns.com/foaf/0.1/Person
p21
aVhttp://dbpedia.org/ontology/Person
p22
aVhttp://www.ontologydesignpatterns.org/ont/dul/DUL.owl#Agent
p23
aVhttp://www.ontologydesignpatterns.org/ont/dul/DUL.owl#NaturalPerson
p24
aVhttp://www.wikidata.org/entity/Q215627
p25
aVhttp://www.wikidata.org/entity/Q5
p26
aVhttp://dbpedia.org/ontology/Agent
p27
aVhttp://dbpedia.org/ontology/OrganisationMember
p28
aVhttp://dbpedia.org/ontology/SportsTeamMember
p29
aVhttp://schema.org/Person
p30
aVhttp://dbpedia.org/resource/List_of_Bulgarian_football_transfers_summer_2011
tp31
aa(lp32
((lp33
Vhttp://www.w3.org/2002/07/owl#Thing
p34
aVhttp://xmlns.com/foaf/0.1/Person
p35
aVhttp://dbpedia.org/ontology/Person
p36
aVhttp://www.ontologydesignpatterns.org/ont/dul/DUL.owl#Agent
p37
aVhttp://www.ontologydesignpatterns.org/ont/dul/DUL.owl#NaturalPerson
p38
aVhttp://www.wikidata.org/entity/Q215627
p39
aVhttp://www.wikidata.org/entity/Q5
p40
aVhttp://dbpedia.org/ontology/Agent
p41
aVhttp://dbpedia.org/ontology/OrganisationMember
p42
aVhttp://dbpedia.org/ontology/SportsTeamMember
p43
aVhttp://schema.org/Person
p44
aVhttp://dbpedia.org/resource/List_of_Swedish_football_transfers_winter_2013\u201314
tp45
aa(lp46
((lp47
Vhttp://www.w3.org/2002/07/owl#Thing
p48
aVhttp://xmlns.com/foaf/0.1/Person
p49
aVhttp://dbpedia.org/ontology/Person
p50
aVhttp://www.ontologydesignpatterns.org/ont/dul/DUL.owl#Agent
p51
aVhttp://www.ontologydesignpatterns.org/ont/dul/DUL.owl#NaturalPerson
p52
aVhttp://www.wikidata.org/entity/Q215627
p53
aVhttp://www.wikidata.org/entity/Q5
p54
aVhttp://dbpedia.org/ontology/Agent
p55
aVhttp://dbpedia.org/ontology/OrganisationMember
p56
aVhttp://dbpedia.org/ontology/SportsTeamMember
p57
aVhttp://schema.org/Person
p58
aVhttp://dbpedia.org/resource/List_of_Cypriot_football_transfers_summer_2008
tp59
aa(lp60
((lp61
Vhttp://www.w3.org/2002/07/owl#Thing
p62
aVhttp://xmlns.com/foaf/0.1/Person
p63
aVhttp://dbpedia.org/ontology/Person
p64
aVhttp://www.ontologydesignpatterns.org/ont/dul/DUL.owl#Agent
p65
aVhttp://www.ontologydesignpatterns.org/ont/dul/DUL.owl#NaturalPerson
p66
aVhttp://www.wikidata.org/entity/Q215627
p67
aVhttp://www.wikidata.org/entity/Q5
p68
aVhttp://dbpedia.org/ontology/Agent
p69
aVhttp://dbpedia.org/ontology/OrganisationMember
p70
aVhttp://dbpedia.org/ontology/SportsTeamMember
p71
aVhttp://schema.org/Person
p72
aVhttp://dbpedia.org/resource/List_of_Hungarian_football_transfers_in_summer_2010
tp73
aa(lp74
((lp75
Vhttp://www.w3.org/2002/07/owl#Thing
p76
aVhttp://xmlns.com/foaf/0.1/Person
p77
aVhttp://dbpedia.org/ontology/Person
p78
aVhttp://www.ontologydesignpatterns.org/ont/dul/DUL.owl#Agent
p79
aVhttp://www.ontologydesignpatterns.org/ont/dul/DUL.owl#NaturalPerson
p80
aVhttp://www.wikidata.org/entity/Q215627
p81
aVhttp://www.wikidata.org/entity/Q5
p82
aVhttp://dbpedia.org/ontology/Agent
p83
aVhttp://dbpedia.org/ontology/OrganisationMember
p84
aVhttp://dbpedia.org/ontology/SportsTeamMember
p85
aVhttp://schema.org/Person
p86
aVhttp://dbpedia.org/resource/List_of_Cypriot_football_transfers_summer_2008
p87
tp88
aa(lp89
a(lp90
a(lp91
a(lp92
a(lp93
a(lp94
a(lp95
a(lp96
a(lp97
a(lp98
a(lp99
a(lp100
aa.