(lp1
(lp2
(lp3
a(lp4
Vhttp://dbpedia.org/resource/List_of_Bulgarian_football_transfers_summer_2011
p5
aa(lp6
Vhttp://dbpedia.org/resource/List_of_Bulgarian_football_transfers_summer_2011
p7
aa(lp8
Vhttp://dbpedia.org/resource/List_of_Swedish_football_transfers_winter_2013\u201314
p9
aa(lp10
Vhttp://dbpedia.org/resource/List_of_Cypriot_football_transfers_summer_2008
p11
aa(lp12
Vhttp://dbpedia.org/resource/List_of_Hungarian_football_transfers_in_summer_2010
p13
aa(lp14
Vhttp://dbpedia.org/resource/List_of_Cypriot_football_transfers_summer_2008
p15
aa(lp16
a(lp17
a(lp18
a(lp19
a(lp20
a(lp21
a(lp22
a(lp23
a(lp24
a(lp25
a(lp26
a(lp27
aa.