(lp1
(lp2
(lp3
((lp4
Vhttp://dbpedia.org/class/yago/Athlete109820263
p5
aVhttp://dbpedia.org/class/yago/AustralianWomen'sSoccerPlayers
p6
aVhttp://dbpedia.org/class/yago/CanberraUnitedFCPlayers
p7
aVhttp://dbpedia.org/class/yago/CausalAgent100007347
p8
aVhttp://dbpedia.org/class/yago/Contestant109613191
p9
aVhttp://dbpedia.org/class/yago/LivingThing100004258
p10
aVhttp://dbpedia.org/class/yago/Object100002684
p11
aVhttp://dbpedia.org/class/yago/Organism100004475
p12
aVhttp://dbpedia.org/class/yago/Person100007846
p13
aVhttp://dbpedia.org/class/yago/Player110439851
p14
aVhttp://dbpedia.org/class/yago/SoccerPlayer110618342
p15
aVhttp://dbpedia.org/class/yago/Whole100003553
p16
aVhttp://dbpedia.org/class/yago/YagoLegalActorGeo
p17
aVhttp://www.w3.org/2002/07/owl#Thing
p18
aVhttp://xmlns.com/foaf/0.1/Person
p19
aVhttp://dbpedia.org/ontology/Person
p20
aVhttp://www.ontologydesignpatterns.org/ont/dul/DUL.owl#Agent
p21
aVhttp://www.ontologydesignpatterns.org/ont/dul/DUL.owl#NaturalPerson
p22
aVhttp://www.wikidata.org/entity/Q215627
p23
aVhttp://www.wikidata.org/entity/Q5
p24
aVhttp://dbpedia.org/ontology/Agent
p25
aVhttp://dbpedia.org/ontology/Athlete
p26
aVhttp://dbpedia.org/ontology/NationalCollegiateAthleticAssociationAthlete
p27
aVhttp://schema.org/Person
p28
aVhttp://dbpedia.org/class/yago/YagoLegalActor
p29
aVhttp://dbpedia.org/class/yago/LivingPeople
p30
aVhttp://dbpedia.org/class/yago/PhysicalEntity100001930
p31
aVhttp://dbpedia.org/resource/Kahlia_Hogg
tp32
aa(lp33
((lp34
Vhttp://dbpedia.org/class/yago/Athlete109820263
p35
aVhttp://dbpedia.org/class/yago/BasketballPlayer109842047
p36
aVhttp://dbpedia.org/class/yago/CausalAgent100007347
p37
aVhttp://dbpedia.org/class/yago/Contestant109613191
p38
aVhttp://dbpedia.org/class/yago/LivingThing100004258
p39
aVhttp://dbpedia.org/class/yago/Object100002684
p40
aVhttp://dbpedia.org/class/yago/Organism100004475
p41
aVhttp://dbpedia.org/class/yago/Person100007846
p42
aVhttp://dbpedia.org/class/yago/Whole100003553
p43
aVhttp://dbpedia.org/class/yago/YagoLegalActorGeo
p44
aVhttp://www.w3.org/2002/07/owl#Thing
p45
aVhttp://xmlns.com/foaf/0.1/Person
p46
aVhttp://dbpedia.org/ontology/Person
p47
aVhttp://www.ontologydesignpatterns.org/ont/dul/DUL.owl#Agent
p48
aVhttp://www.ontologydesignpatterns.org/ont/dul/DUL.owl#NaturalPerson
p49
aVhttp://www.wikidata.org/entity/Q215627
p50
aVhttp://www.wikidata.org/entity/Q5
p51
aVhttp://dbpedia.org/ontology/Agent
p52
aVhttp://dbpedia.org/ontology/Athlete
p53
aVhttp://dbpedia.org/ontology/NationalCollegiateAthleticAssociationAthlete
p54
aVhttp://schema.org/Person
p55
aVhttp://umbel.org/umbel/rc/Association
p56
aVhttp://dbpedia.org/class/yago/PeopleFromSaskatoon
p57
aVhttp://dbpedia.org/class/yago/YagoLegalActor
p58
aVhttp://dbpedia.org/class/yago/LivingPeople
p59
aVhttp://dbpedia.org/class/yago/MichiganWolverinesWomen'sBasketballPlayers
p60
aVhttp://dbpedia.org/class/yago/PhysicalEntity100001930
p61
aVhttp://dbpedia.org/resource/Krista_Phillips
tp62
aa(lp63
((lp64
Vhttp://www.w3.org/2002/07/owl#Thing
p65
aVhttp://xmlns.com/foaf/0.1/Person
p66
aVhttp://dbpedia.org/ontology/Person
p67
aVhttp://www.ontologydesignpatterns.org/ont/dul/DUL.owl#Agent
p68
aVhttp://www.ontologydesignpatterns.org/ont/dul/DUL.owl#NaturalPerson
p69
aVhttp://www.wikidata.org/entity/Q215627
p70
aVhttp://www.wikidata.org/entity/Q5
p71
aVhttp://dbpedia.org/ontology/Agent
p72
aVhttp://dbpedia.org/ontology/Athlete
p73
aVhttp://dbpedia.org/ontology/NationalCollegiateAthleticAssociationAthlete
p74
aVhttp://schema.org/Person
p75
aVhttp://dbpedia.org/resource/Rob_Moerschell
tp76
aa(lp77
((lp78
Vhttp://dbpedia.org/class/yago/AmericanBasketballPlayers
p79
aVhttp://dbpedia.org/class/yago/ArmyBlackKnightsMen'sBasketballPlayers
p80
aVhttp://dbpedia.org/class/yago/Athlete109820263
p81
aVhttp://dbpedia.org/class/yago/BasketballPlayer109842047
p82
aVhttp://dbpedia.org/class/yago/CausalAgent100007347
p83
aVhttp://dbpedia.org/class/yago/Contestant109613191
p84
aVhttp://dbpedia.org/class/yago/LivingThing100004258
p85
aVhttp://dbpedia.org/class/yago/Object100002684
p86
aVhttp://dbpedia.org/class/yago/Organism100004475
p87
aVhttp://dbpedia.org/class/yago/Person100007846
p88
aVhttp://dbpedia.org/class/yago/Whole100003553
p89
aVhttp://dbpedia.org/class/yago/YagoLegalActorGeo
p90
aVhttp://www.w3.org/2002/07/owl#Thing
p91
aVhttp://xmlns.com/foaf/0.1/Person
p92
aVhttp://dbpedia.org/ontology/Person
p93
aVhttp://www.ontologydesignpatterns.org/ont/dul/DUL.owl#Agent
p94
aVhttp://www.ontologydesignpatterns.org/ont/dul/DUL.owl#NaturalPerson
p95
aVhttp://www.wikidata.org/entity/Q215627
p96
aVhttp://www.wikidata.org/entity/Q5
p97
aVhttp://dbpedia.org/ontology/Agent
p98
aVhttp://dbpedia.org/ontology/Athlete
p99
aVhttp://dbpedia.org/ontology/NationalCollegiateAthleticAssociationAthlete
p100
aVhttp://schema.org/Person
p101
aVhttp://dbpedia.org/class/yago/YagoLegalActor
p102
aVhttp://dbpedia.org/class/yago/PhysicalEntity100001930
p103
aVhttp://dbpedia.org/resource/Bill_Hannon
tp104
aa(lp105
((lp106
Vhttp://dbpedia.org/class/yago/CausalAgent100007347
p107
aVhttp://dbpedia.org/class/yago/LivingThing100004258
p108
aVhttp://dbpedia.org/class/yago/Object100002684
p109
aVhttp://dbpedia.org/class/yago/Organism100004475
p110
aVhttp://dbpedia.org/class/yago/Person100007846
p111
aVhttp://dbpedia.org/class/yago/Traveler109629752
p112
aVhttp://dbpedia.org/class/yago/Whole100003553
p113
aVhttp://dbpedia.org/class/yago/YagoLegalActorGeo
p114
aVhttp://www.w3.org/2002/07/owl#Thing
p115
aVhttp://xmlns.com/foaf/0.1/Person
p116
aVhttp://dbpedia.org/ontology/Person
p117
aVhttp://www.ontologydesignpatterns.org/ont/dul/DUL.owl#Agent
p118
aVhttp://www.ontologydesignpatterns.org/ont/dul/DUL.owl#NaturalPerson
p119
aVhttp://www.wikidata.org/entity/Q215627
p120
aVhttp://www.wikidata.org/entity/Q5
p121
aVhttp://dbpedia.org/ontology/Agent
p122
aVhttp://dbpedia.org/ontology/Athlete
p123
aVhttp://dbpedia.org/ontology/NationalCollegiateAthleticAssociationAthlete
p124
aVhttp://schema.org/Person
p125
aVhttp://umbel.org/umbel/rc/Association
p126
aVhttp://dbpedia.org/class/yago/YagoLegalActor
p127
aVhttp://dbpedia.org/class/yago/JamaicanMiddleDistanceRunners
p128
aVhttp://dbpedia.org/class/yago/LivingPeople
p129
aVhttp://dbpedia.org/class/yago/PhysicalEntity100001930
p130
aVhttp://dbpedia.org/resource/Merrecia_James
tp131
aa(lp132
((lp133
Vhttp://dbpedia.org/class/yago/AmericanFootballQuarterbacks
p134
aVhttp://dbpedia.org/class/yago/Athlete109820263
p135
aVhttp://dbpedia.org/class/yago/Back109830194
p136
aVhttp://dbpedia.org/class/yago/CausalAgent100007347
p137
aVhttp://dbpedia.org/class/yago/Contestant109613191
p138
aVhttp://dbpedia.org/class/yago/FootballPlayer110101634
p139
aVhttp://dbpedia.org/class/yago/LivingThing100004258
p140
aVhttp://dbpedia.org/class/yago/Object100002684
p141
aVhttp://dbpedia.org/class/yago/Organism100004475
p142
aVhttp://dbpedia.org/class/yago/Person100007846
p143
aVhttp://dbpedia.org/class/yago/Player110439851
p144
aVhttp://dbpedia.org/class/yago/Quarterback110498816
p145
aVhttp://dbpedia.org/class/yago/Whole100003553
p146
aVhttp://dbpedia.org/class/yago/YagoLegalActorGeo
p147
aVhttp://www.w3.org/2002/07/owl#Thing
p148
aVhttp://xmlns.com/foaf/0.1/Person
p149
aVhttp://dbpedia.org/ontology/Person
p150
aVhttp://www.ontologydesignpatterns.org/ont/dul/DUL.owl#Agent
p151
aVhttp://www.ontologydesignpatterns.org/ont/dul/DUL.owl#NaturalPerson
p152
aVhttp://www.wikidata.org/entity/Q215627
p153
aVhttp://www.wikidata.org/entity/Q5
p154
aVhttp://dbpedia.org/ontology/Agent
p155
aVhttp://dbpedia.org/ontology/Athlete
p156
aVhttp://dbpedia.org/ontology/NationalCollegiateAthleticAssociationAthlete
p157
aVhttp://schema.org/Person
p158
aVhttp://umbel.org/umbel/rc/Association
p159
aVhttp://dbpedia.org/class/yago/PeopleFromHonolulu,Hawaii
p160
aVhttp://dbpedia.org/class/yago/PlayersOfAmericanFootballFromHawaii
p161
aVhttp://dbpedia.org/class/yago/YagoLegalActor
p162
aVhttp://dbpedia.org/class/yago/LivingPeople
p163
aVhttp://dbpedia.org/class/yago/PhysicalEntity100001930
p164
aVhttp://dbpedia.org/class/yago/WeberStateWildcatsFootballPlayers
p165
aVhttp://dbpedia.org/resource/Cameron_Higgins
tp166
aa(lp167
((lp168
Vhttp://dbpedia.org/class/yago/AmericanWomen'sBasketballPlayers
p169
aVhttp://dbpedia.org/class/yago/Athlete109820263
p170
aVhttp://dbpedia.org/class/yago/BasketballPlayer109842047
p171
aVhttp://dbpedia.org/class/yago/BasketballPlayersFromLouisiana
p172
aVhttp://dbpedia.org/class/yago/CausalAgent100007347
p173
aVhttp://dbpedia.org/class/yago/Contestant109613191
p174
aVhttp://dbpedia.org/class/yago/LivingThing100004258
p175
aVhttp://dbpedia.org/class/yago/Object100002684
p176
aVhttp://dbpedia.org/class/yago/Organism100004475
p177
aVhttp://dbpedia.org/class/yago/Person100007846
p178
aVhttp://dbpedia.org/class/yago/Whole100003553
p179
aVhttp://dbpedia.org/class/yago/YagoLegalActorGeo
p180
aVhttp://www.w3.org/2002/07/owl#Thing
p181
aVhttp://xmlns.com/foaf/0.1/Person
p182
aVhttp://dbpedia.org/ontology/Person
p183
aVhttp://www.ontologydesignpatterns.org/ont/dul/DUL.owl#Agent
p184
aVhttp://www.ontologydesignpatterns.org/ont/dul/DUL.owl#NaturalPerson
p185
aVhttp://www.wikidata.org/entity/Q215627
p186
aVhttp://www.wikidata.org/entity/Q5
p187
aVhttp://dbpedia.org/ontology/Agent
p188
aVhttp://dbpedia.org/ontology/Athlete
p189
aVhttp://dbpedia.org/ontology/NationalCollegiateAthleticAssociationAthlete
p190
aVhttp://schema.org/Person
p191
aVhttp://dbpedia.org/class/yago/PeopleFromCaldwellParish,Louisiana
p192
aVhttp://dbpedia.org/class/yago/YagoLegalActor
p193
aVhttp://dbpedia.org/class/yago/LivingPeople
p194
aVhttp://dbpedia.org/class/yago/LouisianaTechLadyTechstersBasketballPlayers
p195
aVhttp://dbpedia.org/class/yago/PhysicalEntity100001930
p196
aVhttp://dbpedia.org/resource/Pam_Kelly
tp197
aa(lp198
((lp199
Vhttp://dbpedia.org/class/yago/Actor109765278
p200
aVhttp://dbpedia.org/class/yago/AmericanPornographicFilmActors
p201
aVhttp://dbpedia.org/class/yago/CausalAgent100007347
p202
aVhttp://dbpedia.org/class/yago/Entertainer109616922
p203
aVhttp://dbpedia.org/class/yago/LivingThing100004258
p204
aVhttp://dbpedia.org/class/yago/Object100002684
p205
aVhttp://dbpedia.org/class/yago/Organism100004475
p206
aVhttp://dbpedia.org/class/yago/Performer110415638
p207
aVhttp://dbpedia.org/class/yago/Person100007846
p208
aVhttp://dbpedia.org/class/yago/Whole100003553
p209
aVhttp://dbpedia.org/class/yago/YagoLegalActorGeo
p210
aVhttp://www.w3.org/2002/07/owl#Thing
p211
aVhttp://xmlns.com/foaf/0.1/Person
p212
aVhttp://dbpedia.org/ontology/Person
p213
aVhttp://dbpedia.org/ontology/Actor
p214
aVhttp://www.ontologydesignpatterns.org/ont/dul/DUL.owl#Agent
p215
aVhttp://www.ontologydesignpatterns.org/ont/dul/DUL.owl#NaturalPerson
p216
aVhttp://www.wikidata.org/entity/Q215627
p217
aVhttp://www.wikidata.org/entity/Q33999
p218
aVhttp://www.wikidata.org/entity/Q483501
p219
aVhttp://www.wikidata.org/entity/Q488111
p220
aVhttp://www.wikidata.org/entity/Q5
p221
aVhttp://dbpedia.org/ontology/AdultActor
p222
aVhttp://dbpedia.org/ontology/Agent
p223
aVhttp://dbpedia.org/ontology/Artist
p224
aVhttp://schema.org/Person
p225
aVhttp://dbpedia.org/class/yago/FemalePornographicFilmActors
p226
aVhttp://dbpedia.org/class/yago/PeopleFromNorthridge,LosAngeles
p227
aVhttp://dbpedia.org/class/yago/YagoLegalActor
p228
aVhttp://dbpedia.org/class/yago/LivingPeople
p229
aVhttp://dbpedia.org/class/yago/PhysicalEntity100001930
p230
aVhttp://dbpedia.org/resource/Ashley_Fires
tp231
aa(lp232
((lp233
Vhttp://dbpedia.org/class/yago/AmericanPeopleOfSriLankanDescent
p234
aVhttp://dbpedia.org/class/yago/Athlete109820263
p235
aVhttp://dbpedia.org/class/yago/BasketballPlayer109842047
p236
aVhttp://dbpedia.org/class/yago/CausalAgent100007347
p237
aVhttp://dbpedia.org/class/yago/Contestant109613191
p238
aVhttp://dbpedia.org/class/yago/LivingThing100004258
p239
aVhttp://dbpedia.org/class/yago/Object100002684
p240
aVhttp://dbpedia.org/class/yago/Organism100004475
p241
aVhttp://dbpedia.org/class/yago/Person100007846
p242
aVhttp://dbpedia.org/class/yago/Whole100003553
p243
aVhttp://dbpedia.org/class/yago/YagoLegalActorGeo
p244
aVhttp://www.w3.org/2002/07/owl#Thing
p245
aVhttp://xmlns.com/foaf/0.1/Person
p246
aVhttp://dbpedia.org/ontology/Person
p247
aVhttp://www.ontologydesignpatterns.org/ont/dul/DUL.owl#Agent
p248
aVhttp://www.ontologydesignpatterns.org/ont/dul/DUL.owl#NaturalPerson
p249
aVhttp://www.wikidata.org/entity/Q215627
p250
aVhttp://www.wikidata.org/entity/Q5
p251
aVhttp://dbpedia.org/ontology/Agent
p252
aVhttp://dbpedia.org/ontology/Athlete
p253
aVhttp://dbpedia.org/ontology/NationalCollegiateAthleticAssociationAthlete
p254
aVhttp://schema.org/Person
p255
aVhttp://umbel.org/umbel/rc/Association
p256
aVhttp://dbpedia.org/class/yago/YagoLegalActor
p257
aVhttp://dbpedia.org/class/yago/HolyCrossCrusadersMen'sBasketballPlayers
p258
aVhttp://dbpedia.org/class/yago/LivingPeople
p259
aVhttp://dbpedia.org/class/yago/PhysicalEntity100001930
p260
aVhttp://dbpedia.org/resource/Eric_Obeysekere
tp261
aa(lp262
a(lp263
((lp264
Vhttp://dbpedia.org/class/yago/AmericanFootballCornerbacks
p265
aVhttp://dbpedia.org/class/yago/Athlete109820263
p266
aVhttp://dbpedia.org/class/yago/CausalAgent100007347
p267
aVhttp://dbpedia.org/class/yago/Contestant109613191
p268
aVhttp://dbpedia.org/class/yago/Cornerback109965787
p269
aVhttp://dbpedia.org/class/yago/FootballPlayer110101634
p270
aVhttp://dbpedia.org/class/yago/LivingThing100004258
p271
aVhttp://dbpedia.org/class/yago/Object100002684
p272
aVhttp://dbpedia.org/class/yago/Organism100004475
p273
aVhttp://dbpedia.org/class/yago/Person100007846
p274
aVhttp://dbpedia.org/class/yago/Player110439851
p275
aVhttp://dbpedia.org/class/yago/Whole100003553
p276
aVhttp://dbpedia.org/class/yago/YagoLegalActorGeo
p277
aVhttp://www.w3.org/2002/07/owl#Thing
p278
aVhttp://xmlns.com/foaf/0.1/Person
p279
aVhttp://dbpedia.org/ontology/Person
p280
aVhttp://www.ontologydesignpatterns.org/ont/dul/DUL.owl#Agent
p281
aVhttp://www.ontologydesignpatterns.org/ont/dul/DUL.owl#NaturalPerson
p282
aVhttp://www.wikidata.org/entity/Q215627
p283
aVhttp://www.wikidata.org/entity/Q5
p284
aVhttp://dbpedia.org/ontology/Agent
p285
aVhttp://dbpedia.org/ontology/Athlete
p286
aVhttp://dbpedia.org/ontology/NationalCollegiateAthleticAssociationAthlete
p287
aVhttp://schema.org/Person
p288
aVhttp://umbel.org/umbel/rc/Association
p289
aVhttp://dbpedia.org/class/yago/PeopleFromOmaha,Nebraska
p290
aVhttp://dbpedia.org/class/yago/YagoLegalActor
p291
aVhttp://dbpedia.org/class/yago/IowaHawkeyesFootballPlayers
p292
aVhttp://dbpedia.org/class/yago/LivingPeople
p293
aVhttp://dbpedia.org/class/yago/PhysicalEntity100001930
p294
aVhttp://dbpedia.org/resource/Adam_Shada
tp295
aa(lp296
((lp297
Vhttp://dbpedia.org/class/yago/AmericanFootballQuarterbacks
p298
aVhttp://dbpedia.org/class/yago/Athlete109820263
p299
aVhttp://dbpedia.org/class/yago/Back109830194
p300
aVhttp://dbpedia.org/class/yago/CausalAgent100007347
p301
aVhttp://dbpedia.org/class/yago/Contestant109613191
p302
aVhttp://dbpedia.org/class/yago/FootballPlayer110101634
p303
aVhttp://dbpedia.org/class/yago/LivingThing100004258
p304
aVhttp://dbpedia.org/class/yago/Object100002684
p305
aVhttp://dbpedia.org/class/yago/Organism100004475
p306
aVhttp://dbpedia.org/class/yago/Person100007846
p307
aVhttp://dbpedia.org/class/yago/Player110439851
p308
aVhttp://dbpedia.org/class/yago/Quarterback110498816
p309
aVhttp://dbpedia.org/class/yago/Whole100003553
p310
aVhttp://dbpedia.org/class/yago/YagoLegalActorGeo
p311
aVhttp://www.w3.org/2002/07/owl#Thing
p312
aVhttp://xmlns.com/foaf/0.1/Person
p313
aVhttp://dbpedia.org/ontology/Person
p314
aVhttp://www.ontologydesignpatterns.org/ont/dul/DUL.owl#Agent
p315
aVhttp://www.ontologydesignpatterns.org/ont/dul/DUL.owl#NaturalPerson
p316
aVhttp://www.wikidata.org/entity/Q215627
p317
aVhttp://www.wikidata.org/entity/Q5
p318
aVhttp://dbpedia.org/ontology/Agent
p319
aVhttp://dbpedia.org/ontology/Athlete
p320
aVhttp://dbpedia.org/ontology/NationalCollegiateAthleticAssociationAthlete
p321
aVhttp://schema.org/Person
p322
aVhttp://umbel.org/umbel/rc/Association
p323
aVhttp://dbpedia.org/class/yago/PeopleFromDenver,Colorado
p324
aVhttp://dbpedia.org/class/yago/YagoLegalActor
p325
aVhttp://dbpedia.org/class/yago/KansasStateWildcatsFootballPlayers
p326
aVhttp://dbpedia.org/class/yago/LivingPeople
p327
aVhttp://dbpedia.org/class/yago/PhysicalEntity100001930
p328
aVhttp://dbpedia.org/resource/Allen_Webb
tp329
aa(lp330
((lp331
Vhttp://dbpedia.org/class/yago/AmericanFootballTightEnds
p332
aVhttp://dbpedia.org/class/yago/Athlete109820263
p333
aVhttp://dbpedia.org/class/yago/CausalAgent100007347
p334
aVhttp://dbpedia.org/class/yago/Contestant109613191
p335
aVhttp://dbpedia.org/class/yago/FootballPlayer110101634
p336
aVhttp://dbpedia.org/class/yago/LivingThing100004258
p337
aVhttp://dbpedia.org/class/yago/Object100002684
p338
aVhttp://dbpedia.org/class/yago/Organism100004475
p339
aVhttp://dbpedia.org/class/yago/Person100007846
p340
aVhttp://dbpedia.org/class/yago/Player110439851
p341
aVhttp://dbpedia.org/class/yago/TightEnd110710778
p342
aVhttp://dbpedia.org/class/yago/Whole100003553
p343
aVhttp://dbpedia.org/class/yago/YagoLegalActorGeo
p344
aVhttp://dbpedia.org/class/yago/PurdueBoilermakersFootballPlayers
p345
aVhttp://www.w3.org/2002/07/owl#Thing
p346
aVhttp://xmlns.com/foaf/0.1/Person
p347
aVhttp://dbpedia.org/ontology/Person
p348
aVhttp://www.ontologydesignpatterns.org/ont/dul/DUL.owl#Agent
p349
aVhttp://www.ontologydesignpatterns.org/ont/dul/DUL.owl#NaturalPerson
p350
aVhttp://www.wikidata.org/entity/Q215627
p351
aVhttp://www.wikidata.org/entity/Q5
p352
aVhttp://dbpedia.org/ontology/Agent
p353
aVhttp://dbpedia.org/ontology/Athlete
p354
aVhttp://dbpedia.org/ontology/NationalCollegiateAthleticAssociationAthlete
p355
aVhttp://schema.org/Person
p356
aVhttp://umbel.org/umbel/rc/FootballPlayer_American
p357
aVhttp://dbpedia.org/class/yago/End110056398
p358
aVhttp://dbpedia.org/class/yago/PeopleFromIllinois
p359
aVhttp://dbpedia.org/class/yago/YagoLegalActor
p360
aVhttp://dbpedia.org/class/yago/Lineman110263411
p361
aVhttp://dbpedia.org/class/yago/LivingPeople
p362
aVhttp://dbpedia.org/class/yago/PhysicalEntity100001930
p363
aVhttp://dbpedia.org/resource/Tim_Stratton
tp364
aa(lp365
((lp366
Vhttp://www.w3.org/2002/07/owl#Thing
p367
aVhttp://xmlns.com/foaf/0.1/Person
p368
aVhttp://dbpedia.org/ontology/Person
p369
aVhttp://www.ontologydesignpatterns.org/ont/dul/DUL.owl#Agent
p370
aVhttp://www.ontologydesignpatterns.org/ont/dul/DUL.owl#NaturalPerson
p371
aVhttp://www.wikidata.org/entity/Q215627
p372
aVhttp://www.wikidata.org/entity/Q5
p373
aVhttp://dbpedia.org/ontology/Agent
p374
aVhttp://dbpedia.org/ontology/Athlete
p375
aVhttp://dbpedia.org/ontology/NationalCollegiateAthleticAssociationAthlete
p376
aVhttp://schema.org/Person
p377
aVhttp://dbpedia.org/resource/Carla_Chapman
tp378
aa(lp379
((lp380
Vhttp://www.w3.org/2002/07/owl#Thing
p381
aVhttp://xmlns.com/foaf/0.1/Person
p382
aVhttp://dbpedia.org/ontology/Person
p383
aVhttp://www.ontologydesignpatterns.org/ont/dul/DUL.owl#Agent
p384
aVhttp://www.ontologydesignpatterns.org/ont/dul/DUL.owl#NaturalPerson
p385
aVhttp://www.wikidata.org/entity/Q215627
p386
aVhttp://www.wikidata.org/entity/Q5
p387
aVhttp://dbpedia.org/ontology/Agent
p388
aVhttp://dbpedia.org/ontology/Athlete
p389
aVhttp://dbpedia.org/ontology/NationalCollegiateAthleticAssociationAthlete
p390
aVhttp://schema.org/Person
p391
aVhttp://dbpedia.org/resource/Mark_Murdock_(quarterback)
tp392
aa(lp393
((lp394
Vhttp://dbpedia.org/class/yago/Athlete109820263
p395
aVhttp://dbpedia.org/class/yago/BasketballPlayer109842047
p396
aVhttp://dbpedia.org/class/yago/BasketballPlayersFromNewJersey
p397
aVhttp://dbpedia.org/class/yago/CausalAgent100007347
p398
aVhttp://dbpedia.org/class/yago/Contestant109613191
p399
aVhttp://dbpedia.org/class/yago/LivingThing100004258
p400
aVhttp://dbpedia.org/class/yago/Object100002684
p401
aVhttp://dbpedia.org/class/yago/Organism100004475
p402
aVhttp://dbpedia.org/class/yago/Person100007846
p403
aVhttp://dbpedia.org/class/yago/Whole100003553
p404
aVhttp://dbpedia.org/class/yago/YagoLegalActorGeo
p405
aVhttp://dbpedia.org/class/yago/SetonHallPiratesMen'sBasketballPlayers
p406
aVhttp://www.w3.org/2002/07/owl#Thing
p407
aVhttp://xmlns.com/foaf/0.1/Person
p408
aVhttp://dbpedia.org/ontology/Person
p409
aVhttp://www.ontologydesignpatterns.org/ont/dul/DUL.owl#Agent
p410
aVhttp://www.ontologydesignpatterns.org/ont/dul/DUL.owl#NaturalPerson
p411
aVhttp://www.wikidata.org/entity/Q215627
p412
aVhttp://www.wikidata.org/entity/Q5
p413
aVhttp://dbpedia.org/ontology/Agent
p414
aVhttp://dbpedia.org/ontology/Athlete
p415
aVhttp://dbpedia.org/ontology/NationalCollegiateAthleticAssociationAthlete
p416
aVhttp://schema.org/Person
p417
aVhttp://umbel.org/umbel/rc/Association
p418
aVhttp://dbpedia.org/class/yago/PeopleFromMercerCounty,NewJersey
p419
aVhttp://dbpedia.org/class/yago/PeopleFromTomsRiver,NewJersey
p420
aVhttp://dbpedia.org/class/yago/YagoLegalActor
p421
aVhttp://dbpedia.org/class/yago/LivingPeople
p422
aVhttp://dbpedia.org/class/yago/PhysicalEntity100001930
p423
aVhttp://dbpedia.org/resource/Nick_Werkman
tp424
aa(lp425
((lp426
Vhttp://dbpedia.org/class/yago/Athlete109820263
p427
aVhttp://dbpedia.org/class/yago/BasketballPlayer109842047
p428
aVhttp://dbpedia.org/class/yago/BasketballPlayersFromNebraska
p429
aVhttp://dbpedia.org/class/yago/CausalAgent100007347
p430
aVhttp://dbpedia.org/class/yago/Contestant109613191
p431
aVhttp://dbpedia.org/class/yago/LivingThing100004258
p432
aVhttp://dbpedia.org/class/yago/Object100002684
p433
aVhttp://dbpedia.org/class/yago/Organism100004475
p434
aVhttp://dbpedia.org/class/yago/Person100007846
p435
aVhttp://dbpedia.org/class/yago/Whole100003553
p436
aVhttp://dbpedia.org/class/yago/YagoLegalActorGeo
p437
aVhttp://www.w3.org/2002/07/owl#Thing
p438
aVhttp://xmlns.com/foaf/0.1/Person
p439
aVhttp://dbpedia.org/ontology/Person
p440
aVhttp://www.ontologydesignpatterns.org/ont/dul/DUL.owl#Agent
p441
aVhttp://www.ontologydesignpatterns.org/ont/dul/DUL.owl#NaturalPerson
p442
aVhttp://www.wikidata.org/entity/Q215627
p443
aVhttp://www.wikidata.org/entity/Q5
p444
aVhttp://dbpedia.org/ontology/Agent
p445
aVhttp://dbpedia.org/ontology/Athlete
p446
aVhttp://dbpedia.org/ontology/NationalCollegiateAthleticAssociationAthlete
p447
aVhttp://schema.org/Person
p448
aVhttp://dbpedia.org/class/yago/PeopleFromDenver,Colorado
p449
aVhttp://dbpedia.org/class/yago/PeopleFromLincoln,Nebraska
p450
aVhttp://dbpedia.org/class/yago/YagoLegalActor
p451
aVhttp://dbpedia.org/class/yago/PhysicalEntity100001930
p452
aVhttp://dbpedia.org/class/yago/WyomingCowboysBasketballPlayers
p453
aVhttp://dbpedia.org/resource/Les_Witte
tp454
aa(lp455
((lp456
Vhttp://dbpedia.org/class/yago/Athlete109820263
p457
aVhttp://dbpedia.org/class/yago/BasketballPlayer109842047
p458
aVhttp://dbpedia.org/class/yago/CausalAgent100007347
p459
aVhttp://dbpedia.org/class/yago/Contestant109613191
p460
aVhttp://dbpedia.org/class/yago/LivingThing100004258
p461
aVhttp://dbpedia.org/class/yago/Object100002684
p462
aVhttp://dbpedia.org/class/yago/Organism100004475
p463
aVhttp://dbpedia.org/class/yago/Person100007846
p464
aVhttp://dbpedia.org/class/yago/Whole100003553
p465
aVhttp://dbpedia.org/class/yago/YagoLegalActorGeo
p466
aVhttp://dbpedia.org/class/yago/SenegaleseBasketballPlayers
p467
aVhttp://www.w3.org/2002/07/owl#Thing
p468
aVhttp://xmlns.com/foaf/0.1/Person
p469
aVhttp://dbpedia.org/ontology/Person
p470
aVhttp://www.ontologydesignpatterns.org/ont/dul/DUL.owl#Agent
p471
aVhttp://www.ontologydesignpatterns.org/ont/dul/DUL.owl#NaturalPerson
p472
aVhttp://www.wikidata.org/entity/Q215627
p473
aVhttp://www.wikidata.org/entity/Q5
p474
aVhttp://dbpedia.org/ontology/Agent
p475
aVhttp://dbpedia.org/ontology/Athlete
p476
aVhttp://dbpedia.org/ontology/NationalCollegiateAthleticAssociationAthlete
p477
aVhttp://schema.org/Person
p478
aVhttp://umbel.org/umbel/rc/Association
p479
aVhttp://dbpedia.org/class/yago/PeopleFromDakar
p480
aVhttp://dbpedia.org/class/yago/YagoLegalActor
p481
aVhttp://dbpedia.org/class/yago/GeorgiaTechYellowJacketsMen'sBasketballPlayers
p482
aVhttp://dbpedia.org/class/yago/LivingPeople
p483
aVhttp://dbpedia.org/class/yago/PhysicalEntity100001930
p484
aVhttp://dbpedia.org/resource/Paco_Diaw
tp485
aa(lp486
((lp487
Vhttp://dbpedia.org/class/yago/AEKAthensB.C.Players
p488
aVhttp://dbpedia.org/class/yago/AmericanExpatriateBasketballPeopleInCanada
p489
aVhttp://dbpedia.org/class/yago/AmericanExpatriateBasketballPeopleInGreece
p490
aVhttp://dbpedia.org/class/yago/AmericanExpatriateBasketballPeopleInIsrael
p491
aVhttp://dbpedia.org/class/yago/Athlete109820263
p492
aVhttp://dbpedia.org/class/yago/BasketballPlayer109842047
p493
aVhttp://dbpedia.org/class/yago/BasketballPlayersAtThe1987PanAmericanGames
p494
aVhttp://dbpedia.org/class/yago/BasketballPlayersAtThe1988SummerOlympics
p495
aVhttp://dbpedia.org/class/yago/BasketballPlayersFromGeorgia(U.S.State)
p496
aVhttp://dbpedia.org/class/yago/BasketballPlayersFromSouthCarolina
p497
aVhttp://dbpedia.org/class/yago/CausalAgent100007347
p498
aVhttp://dbpedia.org/class/yago/Contestant109613191
p499
aVhttp://dbpedia.org/class/yago/Defender109614684
p500
aVhttp://dbpedia.org/class/yago/Forward110105733
p501
aVhttp://dbpedia.org/class/yago/Guard110150071
p502
aVhttp://dbpedia.org/class/yago/LivingThing100004258
p503
aVhttp://dbpedia.org/class/yago/Medalist110305062
p504
aVhttp://dbpedia.org/class/yago/Object100002684
p505
aVhttp://dbpedia.org/class/yago/Organism100004475
p506
aVhttp://dbpedia.org/class/yago/Person100007846
p507
aVhttp://dbpedia.org/class/yago/Player110439851
p508
aVhttp://dbpedia.org/class/yago/Whole100003553
p509
aVhttp://dbpedia.org/class/yago/YagoLegalActorGeo
p510
aVhttp://dbpedia.org/class/yago/SanAntonioSpursPlayers
p511
aVhttp://dbpedia.org/class/yago/ShootingGuards
p512
aVhttp://dbpedia.org/class/yago/SmallForwards
p513
aVhttp://www.w3.org/2002/07/owl#Thing
p514
aVhttp://xmlns.com/foaf/0.1/Person
p515
aVhttp://dbpedia.org/ontology/Person
p516
aVhttp://www.ontologydesignpatterns.org/ont/dul/DUL.owl#Agent
p517
aVhttp://www.ontologydesignpatterns.org/ont/dul/DUL.owl#NaturalPerson
p518
aVhttp://www.wikidata.org/entity/Q215627
p519
aVhttp://www.wikidata.org/entity/Q3665646
p520
aVhttp://www.wikidata.org/entity/Q5
p521
aVhttp://dbpedia.org/ontology/Agent
p522
aVhttp://dbpedia.org/ontology/Athlete
p523
aVhttp://dbpedia.org/ontology/BasketballPlayer
p524
aVhttp://schema.org/Person
p525
aVhttp://dbpedia.org/class/yago/Preserver110466918
p526
aVhttp://dbpedia.org/class/yago/NewYorkKnicksPlayers
p527
aVhttp://dbpedia.org/class/yago/OlympiacosB.C.Players
p528
aVhttp://dbpedia.org/class/yago/OlympicBasketballPlayersOfTheUnitedStates
p529
aVhttp://dbpedia.org/class/yago/OlympicBronzeMedalistsForTheUnitedStates
p530
aVhttp://dbpedia.org/class/yago/OlympicMedalistsInBasketball
p531
aVhttp://dbpedia.org/class/yago/PeopleFromGreenville,SouthCarolina
p532
aVhttp://dbpedia.org/class/yago/YagoLegalActor
p533
aVhttp://dbpedia.org/class/yago/GeorgiaBulldogsBasketballPlayers
p534
aVhttp://dbpedia.org/class/yago/GreekBasketLeaguePlayers
p535
aVhttp://dbpedia.org/class/yago/LivingPeople
p536
aVhttp://dbpedia.org/class/yago/MaccabiTelAvivB.C.Players
p537
aVhttp://dbpedia.org/class/yago/MiamiHeatPlayers
p538
aVhttp://dbpedia.org/class/yago/PhysicalEntity100001930
p539
aVhttp://dbpedia.org/class/yago/Winner110782940
p540
aVhttp://dbpedia.org/class/yago/TorontoRaptorsPlayers
p541
aVhttp://dbpedia.org/resource/Willie_Anderson_(basketball)
p542
tp543
aaa.