(lp1
(lp2
(lp3
a(lp4
a(lp5
aa(lp6
(lp7
a(lp8
a(lp9
aa(lp10
(lp11
a(lp12
a(lp13
aa(lp14
(lp15
a(lp16
a(lp17
aa(lp18
(lp19
a(lp20
a(lp21
aa(lp22
(lp23
a(lp24
a(lp25
aa(lp26
(lp27
a(lp28
a(lp29
aa(lp30
(lp31
a(lp32
a(lp33
aa(lp34
(lp35
a(lp36
a(lp37
aa(lp38
(lp39
a(lp40
a(lp41
aa(lp42
(lp43
a(lp44
a(lp45
aa(lp46
(lp47
a(lp48
((lVhttp://dbpedia.org/resource/John_O'Gorman
tp49
aa(lp50
aa(lp51
(lp52
a(lp53
((lp54
Vhttp://dbpedia.org/class/yago/Athlete109820263
p55
aVhttp://dbpedia.org/class/yago/CausalAgent100007347
p56
aVhttp://dbpedia.org/class/yago/Contestant109613191
p57
aVhttp://dbpedia.org/class/yago/Cricketer109977326
p58
aVhttp://dbpedia.org/class/yago/LivingThing100004258
p59
aVhttp://dbpedia.org/class/yago/Object100002684
p60
aVhttp://dbpedia.org/class/yago/Organism100004475
p61
aVhttp://dbpedia.org/class/yago/Person100007846
p62
aVhttp://dbpedia.org/class/yago/Whole100003553
p63
aVhttp://dbpedia.org/class/yago/YagoLegalActorGeo
p64
aVhttp://dbpedia.org/class/yago/SomersetCricketers
p65
aVhttp://dbpedia.org/class/yago/SussexCricketers
p66
aVhttp://www.w3.org/2002/07/owl#Thing
p67
aVhttp://xmlns.com/foaf/0.1/Person
p68
aVhttp://dbpedia.org/ontology/Person
p69
aVhttp://www.ontologydesignpatterns.org/ont/dul/DUL.owl#Agent
p70
aVhttp://www.ontologydesignpatterns.org/ont/dul/DUL.owl#NaturalPerson
p71
aVhttp://www.wikidata.org/entity/Q215627
p72
aVhttp://www.wikidata.org/entity/Q5
p73
aVhttp://dbpedia.org/ontology/Agent
p74
aVhttp://dbpedia.org/ontology/Athlete
p75
aVhttp://dbpedia.org/ontology/Cricketer
p76
aVhttp://schema.org/Person
p77
aVhttp://dbpedia.org/class/yago/EnglishCricketers
p78
aVhttp://dbpedia.org/class/yago/OxfordUniversityCricketers
p79
aVhttp://dbpedia.org/class/yago/YagoLegalActor
p80
aVhttp://dbpedia.org/class/yago/PhysicalEntity100001930
p81
aVhttp://dbpedia.org/resource/John_Frazer_(cricketer)
tp82
aa(lp83
aa(lp84
(lp85
a(lp86
a(lp87
aa(lp88
(lp89
a(lp90
((lp91
Vhttp://dbpedia.org/class/yago/Agent109777353
p92
aVhttp://dbpedia.org/class/yago/AlumniOfTrinityCollege,Cambridge
p93
aVhttp://dbpedia.org/class/yago/Alumnus109786338
p94
aVhttp://dbpedia.org/class/yago/Artist109812338
p95
aVhttp://dbpedia.org/class/yago/BBCPeople
p96
aVhttp://dbpedia.org/class/yago/BBCTelevisionPresenters
p97
aVhttp://dbpedia.org/class/yago/Booker109865954
p98
aVhttp://dbpedia.org/class/yago/CausalAgent100007347
p99
aVhttp://dbpedia.org/class/yago/Communicator109610660
p100
aVhttp://dbpedia.org/class/yago/Composer109947232
p101
aVhttp://dbpedia.org/class/yago/Creator109614315
p102
aVhttp://dbpedia.org/class/yago/Entertainer109616922
p103
aVhttp://dbpedia.org/class/yago/Intellectual109621545
p104
aVhttp://dbpedia.org/class/yago/LivingThing100004258
p105
aVhttp://dbpedia.org/class/yago/Musician110339966
p106
aVhttp://dbpedia.org/class/yago/Musician110340312
p107
aVhttp://dbpedia.org/class/yago/Negotiator110351874
p108
aVhttp://dbpedia.org/class/yago/Object100002684
p109
aVhttp://dbpedia.org/class/yago/Organism100004475
p110
aVhttp://dbpedia.org/class/yago/Performer110415638
p111
aVhttp://dbpedia.org/class/yago/Person100007846
p112
aVhttp://dbpedia.org/class/yago/Presenter110466387
p113
aVhttp://dbpedia.org/class/yago/Representative110522035
p114
aVhttp://dbpedia.org/class/yago/Scholar110557854
p115
aVhttp://dbpedia.org/class/yago/Showman110593745
p116
aVhttp://dbpedia.org/class/yago/Singer110599806
p117
aVhttp://dbpedia.org/class/yago/Songwriter110624540
p118
aVhttp://dbpedia.org/class/yago/Whole100003553
p119
aVhttp://dbpedia.org/class/yago/Writer110794014
p120
aVhttp://dbpedia.org/class/yago/YagoLegalActorGeo
p121
aVhttp://www.w3.org/2002/07/owl#Thing
p122
aVhttp://xmlns.com/foaf/0.1/Person
p123
aVhttp://dbpedia.org/ontology/Person
p124
aVhttp://www.ontologydesignpatterns.org/ont/dul/DUL.owl#Agent
p125
aVhttp://www.ontologydesignpatterns.org/ont/dul/DUL.owl#NaturalPerson
p126
aVhttp://www.wikidata.org/entity/Q215627
p127
aVhttp://www.wikidata.org/entity/Q5
p128
aVhttp://dbpedia.org/ontology/Agent
p129
aVhttp://schema.org/Person
p130
aVhttp://dbpedia.org/class/yago/EnglishPeopleConvictedOfChildSexualAbuse
p131
aVhttp://dbpedia.org/class/yago/EnglishPeopleOfAmericanDescent
p132
aVhttp://dbpedia.org/class/yago/EnglishPopSingers
p133
aVhttp://dbpedia.org/class/yago/EnglishSongwriters
p134
aVhttp://dbpedia.org/class/yago/EnglishWriters
p135
aVhttp://dbpedia.org/class/yago/PeopleFromLondon
p136
aVhttp://dbpedia.org/class/yago/YagoLegalActor
p137
aVhttp://dbpedia.org/class/yago/ITVPeople
p138
aVhttp://dbpedia.org/class/yago/Impresarios
p139
aVhttp://dbpedia.org/class/yago/LGBTPeopleFromEngland
p140
aVhttp://dbpedia.org/class/yago/LivingPeople
p141
aVhttp://dbpedia.org/class/yago/PhysicalEntity100001930
p142
aVhttp://dbpedia.org/class/yago/TheSun(UnitedKingdom)People
p143
aVhttp://dbpedia.org/class/yago/TheSundayTimesPeople
p144
aVhttp://dbpedia.org/resource/Jonathan_King
tp145
aa(lp146
aa(lp147
(lp148
a(lp149
((lp150
Vhttp://www.w3.org/2002/07/owl#Thing
p151
aVhttp://www.ontologydesignpatterns.org/ont/dul/DUL.owl#FunctionalSubstance
p152
aVhttp://www.wikidata.org/entity/Q2095
p153
aVhttp://dbpedia.org/ontology/Food
p154
aVhttp://dbpedia.org/resource/Johnnycake
p155
tp156
aa(lp157
aa(lp158
(lp159
a(lp160
a(lp161
aa.