(lp1
(lp2
(lp3
Vhttp://dbpedia.org/resource/Bill_Hewitt_(American_football)
p4
aa(lp5
aa(lp6
(lp7
Vhttp://dbpedia.org/resource/Ryan_Cook_(American_football)
p8
aa(lp9
aa(lp10
(lp11
a(lp12
aa(lp13
(lp14
a(lp15
aa(lp16
(lp17
a(lp18
aa(lp19
(lp20
a(lp21
aa(lp22
(lp23
a(lp24
aa(lp25
(lp26
a(lp27
aa(lp28
(lp29
a(lp30
aa(lp31
(lp32
Vhttp://dbpedia.org/resource/Shawn_Miller
p33
aa(lp34
aa(lp35
(lp36
Vhttp://dbpedia.org/resource/Shimon_Green
p37
aa(lp38
aa(lp39
(lp40
Vhttp://dbpedia.org/resource/Sidney_Coleman_(American_football)
p41
aa(lp42
aa(lp43
(lp44
a(lp45
aa(lp46
(lp47
a(lp48
aa(lp49
(lp50
a(lp51
aa(lp52
(lp53
a(lp54
aa(lp55
(lp56
a(lp57
aa(lp58
(lp59
a(lp60
aa(lp61
(lp62
a(lp63
aa.