ccollections
defaultdict
p1
(c__builtin__
dict
p2
tRp3
I12
(dp4
I1
(lp5
sI2
(lp6
ssI13
(dp7
I1
(lp8
sI2
(lp9
Vhttp://www.w3.org/ns/prov#wasDerivedFrom
p10
assI14
(dp11
I1
(lp12
sI2
(lp13
ssI15
(dp14
I1
(lp15
sI2
(lp16
Vhttp://www.w3.org/ns/prov#wasDerivedFrom
p17
assI16
(dp18
I1
(lp19
sI2
(lp20
ssI17
(dp21
I1
(lp22
sI2
(lp23
ss.