(lp1
(lp2
(lp3
Vhttp://dbpedia.org/resource/White_Pass_Ski_Area
p4
aa(lp5
Vhttp://dbpedia.org/resource/Whitefish_Mountain_Resort
p6
aa(lp7
Vhttp://dbpedia.org/resource/Wild_Mountain
p8
aa(lp9
Vhttp://dbpedia.org/resource/Yawgoo_Valley
p10
aa(lp11
Vhttp://dbpedia.org/resource/Mad_River_Glen
p12
aa(lp13
a(lp14
Vhttp://dbpedia.org/resource/Ski_Idlewild
p15
aa(lp16
Vhttp://dbpedia.org/resource/The_Summit_at_Snoqualmie
p17
aa(lp18
a(lp19
Vhttp://dbpedia.org/resource/Bolton_Valley
p20
aa(lp21
Vhttp://dbpedia.org/resource/Jiminy_Peak_(ski_area)
p22
aa(lp23
Vhttp://dbpedia.org/resource/Mt._Baker_Ski_Area
p24
aa(lp25
Vhttp://dbpedia.org/resource/Snowbasin
p26
aa(lp27
Vhttp://dbpedia.org/resource/Big_Rock_(ski_resort)
p28
aa(lp29
Vhttp://dbpedia.org/resource/Horseshoe_Resort
p30
aa(lp31
Vhttp://dbpedia.org/resource/Hunter_Mountain_(ski_area)
p32
aa(lp33
a(lp34
Vhttp://dbpedia.org/resource/June_Mountain_ski_area
p35
aa(lp36
Vhttp://dbpedia.org/resource/Mount_Sunapee_Resort
p37
aaa.