(lp1
(lp2
(lp3
a(lp4
aa(lp5
(lp6
((lp7
Vhttp://dbpedia.org/class/yago/Broadcaster109875786
p8
aVhttp://dbpedia.org/class/yago/CausalAgent100007347
p9
aVhttp://dbpedia.org/class/yago/Communicator109610660
p10
aVhttp://dbpedia.org/class/yago/Creator109614315
p11
aVhttp://dbpedia.org/class/yago/DiskJockey110017272
p12
aVhttp://dbpedia.org/class/yago/LivingThing100004258
p13
aVhttp://dbpedia.org/class/yago/Maker110284064
p14
aVhttp://dbpedia.org/class/yago/Manufacturer110292316
p15
aVhttp://dbpedia.org/class/yago/Object100002684
p16
aVhttp://dbpedia.org/class/yago/Organism100004475
p17
aVhttp://dbpedia.org/class/yago/Person100007846
p18
aVhttp://dbpedia.org/class/yago/Whole100003553
p19
aVhttp://dbpedia.org/class/yago/YagoLegalActorGeo
p20
aVhttp://www.w3.org/2002/07/owl#Thing
p21
aVhttp://xmlns.com/foaf/0.1/Person
p22
aVhttp://dbpedia.org/ontology/Person
p23
aVhttp://www.ontologydesignpatterns.org/ont/dul/DUL.owl#Agent
p24
aVhttp://www.ontologydesignpatterns.org/ont/dul/DUL.owl#NaturalPerson
p25
aVhttp://www.wikidata.org/entity/Q215627
p26
aVhttp://www.wikidata.org/entity/Q483501
p27
aVhttp://www.wikidata.org/entity/Q5
p28
aVhttp://dbpedia.org/ontology/Agent
p29
aVhttp://dbpedia.org/ontology/Artist
p30
aVhttp://dbpedia.org/ontology/MusicalArtist
p31
aVhttp://schema.org/MusicGroup
p32
aVhttp://schema.org/Person
p33
aVhttp://dbpedia.org/class/yago/DutchDJs
p34
aVhttp://dbpedia.org/class/yago/DutchRecordProducers
p35
aVhttp://dbpedia.org/class/yago/YagoLegalActor
p36
aVhttp://dbpedia.org/class/yago/LivingPeople
p37
aVhttp://dbpedia.org/class/yago/PhysicalEntity100001930
p38
aVhttp://dbpedia.org/resource/Brennan_Heart
tp39
aa(lp40
aa(lp41
(lp42
((lp43
Vhttp://dbpedia.org/class/yago/AppalachianDulcimerPlayers
p44
aVhttp://dbpedia.org/class/yago/Artist109812338
p45
aVhttp://dbpedia.org/class/yago/Busker109883174
p46
aVhttp://dbpedia.org/class/yago/CausalAgent100007347
p47
aVhttp://dbpedia.org/class/yago/Contestant109613191
p48
aVhttp://dbpedia.org/class/yago/Creator109614315
p49
aVhttp://dbpedia.org/class/yago/Entertainer109616922
p50
aVhttp://dbpedia.org/class/yago/Guitarist110151760
p51
aVhttp://dbpedia.org/class/yago/LivingThing100004258
p52
aVhttp://dbpedia.org/class/yago/Musician110339966
p53
aVhttp://dbpedia.org/class/yago/Musician110340312
p54
aVhttp://dbpedia.org/class/yago/Object100002684
p55
aVhttp://dbpedia.org/class/yago/Organism100004475
p56
aVhttp://dbpedia.org/class/yago/Percussionist110415037
p57
aVhttp://dbpedia.org/class/yago/Performer110415638
p58
aVhttp://dbpedia.org/class/yago/Person100007846
p59
aVhttp://dbpedia.org/class/yago/Player110439851
p60
aVhttp://dbpedia.org/class/yago/Whole100003553
p61
aVhttp://dbpedia.org/class/yago/YagoLegalActorGeo
p62
aVhttp://dbpedia.org/class/yago/RhythmGuitarists
p63
aVhttp://dbpedia.org/class/yago/SitarPlayer110603851
p64
aVhttp://dbpedia.org/class/yago/SitarPlayers
p65
aVhttp://dbpedia.org/class/yago/SlideGuitarists
p66
aVhttp://www.w3.org/2002/07/owl#Thing
p67
aVhttp://xmlns.com/foaf/0.1/Person
p68
aVhttp://dbpedia.org/ontology/Person
p69
aVhttp://www.ontologydesignpatterns.org/ont/dul/DUL.owl#Agent
p70
aVhttp://www.ontologydesignpatterns.org/ont/dul/DUL.owl#NaturalPerson
p71
aVhttp://www.wikidata.org/entity/Q215627
p72
aVhttp://www.wikidata.org/entity/Q483501
p73
aVhttp://www.wikidata.org/entity/Q5
p74
aVhttp://dbpedia.org/ontology/Agent
p75
aVhttp://dbpedia.org/ontology/Artist
p76
aVhttp://dbpedia.org/ontology/MusicalArtist
p77
aVhttp://schema.org/MusicGroup
p78
aVhttp://schema.org/Person
p79
aVhttp://umbel.org/umbel/rc/MusicalPerformer
p80
aVhttp://dbpedia.org/class/yago/EnglishBuskers
p81
aVhttp://dbpedia.org/class/yago/EnglishGuitarists
p82
aVhttp://dbpedia.org/class/yago/EnglishPeopleOfWelshDescent
p83
aVhttp://dbpedia.org/class/yago/EnglishRockGuitarists
p84
aVhttp://dbpedia.org/class/yago/EnglishRockMusicians
p85
aVhttp://dbpedia.org/class/yago/MusiciansFromGloucestershire
p86
aVhttp://dbpedia.org/class/yago/PeopleAssociatedWithTheBeatles
p87
aVhttp://dbpedia.org/class/yago/PeopleEducatedAtDeanCloseSchool
p88
aVhttp://dbpedia.org/class/yago/PeopleEducatedAtPate'sGrammarSchool
p89
aVhttp://dbpedia.org/class/yago/PeopleFromCheltenham
p90
aVhttp://dbpedia.org/class/yago/YagoLegalActor
p91
aVhttp://dbpedia.org/class/yago/LeadGuitarists
p92
aVhttp://dbpedia.org/class/yago/PhysicalEntity100001930
p93
aVhttp://dbpedia.org/class/yago/Xylophonist110801697
p94
aVhttp://dbpedia.org/class/yago/Xylophonists
p95
aVhttp://dbpedia.org/resource/Brian_Jones
tp96
aa(lp97
aa(lp98
(lp99
a(lp100
aa(lp101
(lp102
((lp103
Vhttp://www.w3.org/2002/07/owl#Thing
p104
aVhttp://xmlns.com/foaf/0.1/Person
p105
aVhttp://dbpedia.org/ontology/Person
p106
aVhttp://www.ontologydesignpatterns.org/ont/dul/DUL.owl#Agent
p107
aVhttp://www.ontologydesignpatterns.org/ont/dul/DUL.owl#NaturalPerson
p108
aVhttp://www.wikidata.org/entity/Q215627
p109
aVhttp://www.wikidata.org/entity/Q5
p110
aVhttp://dbpedia.org/ontology/Agent
p111
aVhttp://schema.org/Person
p112
aVhttp://dbpedia.org/resource/Brigitte_Mars
tp113
aa(lp114
aa(lp115
(lp116
((lp117
Vhttp://dbpedia.org/class/yago/21st-centuryAmericanCriminals
p118
aVhttp://dbpedia.org/class/yago/AfricanAmericanRappers
p119
aVhttp://dbpedia.org/class/yago/AmericanMurderersOfChildren
p120
aVhttp://dbpedia.org/class/yago/AmericanPeopleConvictedOfAttemptedMurder
p121
aVhttp://dbpedia.org/class/yago/AmericanPeopleConvictedOfMurder
p122
aVhttp://dbpedia.org/class/yago/AmericanPrisonersSentencedToLifeImprisonment
p123
aVhttp://dbpedia.org/class/yago/Artist109812338
p124
aVhttp://dbpedia.org/class/yago/BadPerson109831962
p125
aVhttp://dbpedia.org/class/yago/CausalAgent100007347
p126
aVhttp://dbpedia.org/class/yago/Creator109614315
p127
aVhttp://dbpedia.org/class/yago/Criminal109977660
p128
aVhttp://dbpedia.org/class/yago/Entertainer109616922
p129
aVhttp://dbpedia.org/class/yago/LivingThing100004258
p130
aVhttp://dbpedia.org/class/yago/Murderer110338707
p131
aVhttp://dbpedia.org/class/yago/Musician110339966
p132
aVhttp://dbpedia.org/class/yago/Musician110340312
p133
aVhttp://dbpedia.org/class/yago/Object100002684
p134
aVhttp://dbpedia.org/class/yago/Organism100004475
p135
aVhttp://dbpedia.org/class/yago/Performer110415638
p136
aVhttp://dbpedia.org/class/yago/Person100007846
p137
aVhttp://dbpedia.org/class/yago/Prisoner110476086
p138
aVhttp://dbpedia.org/class/yago/Rapper110507482
p139
aVhttp://dbpedia.org/class/yago/Singer110599806
p140
aVhttp://dbpedia.org/class/yago/Unfortunate109630641
p141
aVhttp://dbpedia.org/class/yago/Whole100003553
p142
aVhttp://dbpedia.org/class/yago/Wrongdoer109633969
p143
aVhttp://dbpedia.org/class/yago/YagoLegalActorGeo
p144
aVhttp://dbpedia.org/class/yago/PriorityRecordsArtists
p145
aVhttp://dbpedia.org/class/yago/PrisonersSentencedToLifeImprisonmentByLouisiana
p146
aVhttp://dbpedia.org/class/yago/RappersFromNewOrleans,Louisiana
p147
aVhttp://www.w3.org/2002/07/owl#Thing
p148
aVhttp://xmlns.com/foaf/0.1/Person
p149
aVhttp://dbpedia.org/ontology/Person
p150
aVhttp://www.ontologydesignpatterns.org/ont/dul/DUL.owl#Agent
p151
aVhttp://www.ontologydesignpatterns.org/ont/dul/DUL.owl#NaturalPerson
p152
aVhttp://www.wikidata.org/entity/Q215627
p153
aVhttp://www.wikidata.org/entity/Q483501
p154
aVhttp://www.wikidata.org/entity/Q5
p155
aVhttp://dbpedia.org/ontology/Agent
p156
aVhttp://dbpedia.org/ontology/Artist
p157
aVhttp://dbpedia.org/ontology/MusicalArtist
p158
aVhttp://schema.org/MusicGroup
p159
aVhttp://schema.org/Person
p160
aVhttp://umbel.org/umbel/rc/Artist
p161
aVhttp://umbel.org/umbel/rc/MusicalPerformer
p162
aVhttp://dbpedia.org/class/yago/E1MusicArtists
p163
aVhttp://dbpedia.org/class/yago/Principal110474950
p164
aVhttp://dbpedia.org/class/yago/NoLimitRecordsArtists
p165
aVhttp://dbpedia.org/class/yago/PeopleConvictedOfMurderByLouisiana
p166
aVhttp://dbpedia.org/class/yago/YagoLegalActor
p167
aVhttp://dbpedia.org/class/yago/Killer110231087
p168
aVhttp://dbpedia.org/class/yago/LivingPeople
p169
aVhttp://dbpedia.org/class/yago/PhysicalEntity100001930
p170
aVhttp://dbpedia.org/resource/C-Murder
tp171
aa(lp172
aa(lp173
(lp174
((lp175
Vhttp://dbpedia.org/class/yago/Alumnus109786338
p176
aVhttp://dbpedia.org/class/yago/AmericanWriters
p177
aVhttp://dbpedia.org/class/yago/BereaCollegeAlumni
p178
aVhttp://dbpedia.org/class/yago/CausalAgent100007347
p179
aVhttp://dbpedia.org/class/yago/Communicator109610660
p180
aVhttp://dbpedia.org/class/yago/Intellectual109621545
p181
aVhttp://dbpedia.org/class/yago/LivingThing100004258
p182
aVhttp://dbpedia.org/class/yago/Object100002684
p183
aVhttp://dbpedia.org/class/yago/Organism100004475
p184
aVhttp://dbpedia.org/class/yago/Person100007846
p185
aVhttp://dbpedia.org/class/yago/Scholar110557854
p186
aVhttp://dbpedia.org/class/yago/Whole100003553
p187
aVhttp://dbpedia.org/class/yago/Writer110794014
p188
aVhttp://dbpedia.org/class/yago/YagoLegalActorGeo
p189
aVhttp://www.w3.org/2002/07/owl#Thing
p190
aVhttp://xmlns.com/foaf/0.1/Person
p191
aVhttp://dbpedia.org/ontology/Person
p192
aVhttp://www.ontologydesignpatterns.org/ont/dul/DUL.owl#Agent
p193
aVhttp://www.ontologydesignpatterns.org/ont/dul/DUL.owl#NaturalPerson
p194
aVhttp://www.wikidata.org/entity/Q215627
p195
aVhttp://www.wikidata.org/entity/Q5
p196
aVhttp://dbpedia.org/ontology/Agent
p197
aVhttp://schema.org/Person
p198
aVhttp://dbpedia.org/class/yago/YagoLegalActor
p199
aVhttp://dbpedia.org/class/yago/LivingPeople
p200
aVhttp://dbpedia.org/class/yago/PhysicalEntity100001930
p201
aVhttp://dbpedia.org/class/yago/WritersFromKentucky
p202
aVhttp://dbpedia.org/resource/C.E._Morgan
tp203
aa(lp204
aa(lp205
(lp206
((lp207
Vhttp://dbpedia.org/class/yago/AmericanWomen'sIceHockeyPlayers
p208
aVhttp://dbpedia.org/class/yago/Athlete109820263
p209
aVhttp://dbpedia.org/class/yago/BostonBladesPlayers
p210
aVhttp://dbpedia.org/class/yago/CausalAgent100007347
p211
aVhttp://dbpedia.org/class/yago/Contestant109613191
p212
aVhttp://dbpedia.org/class/yago/HockeyPlayer110179291
p213
aVhttp://dbpedia.org/class/yago/LivingThing100004258
p214
aVhttp://dbpedia.org/class/yago/Medalist110305062
p215
aVhttp://dbpedia.org/class/yago/Object100002684
p216
aVhttp://dbpedia.org/class/yago/Organism100004475
p217
aVhttp://dbpedia.org/class/yago/Person100007846
p218
aVhttp://dbpedia.org/class/yago/Player110439851
p219
aVhttp://dbpedia.org/class/yago/Whole100003553
p220
aVhttp://dbpedia.org/class/yago/YagoLegalActorGeo
p221
aVhttp://www.w3.org/2002/07/owl#Thing
p222
aVhttp://xmlns.com/foaf/0.1/Person
p223
aVhttp://dbpedia.org/ontology/Person
p224
aVhttp://www.ontologydesignpatterns.org/ont/dul/DUL.owl#Agent
p225
aVhttp://www.ontologydesignpatterns.org/ont/dul/DUL.owl#NaturalPerson
p226
aVhttp://www.wikidata.org/entity/Q11774891
p227
aVhttp://www.wikidata.org/entity/Q215627
p228
aVhttp://www.wikidata.org/entity/Q5
p229
aVhttp://dbpedia.org/ontology/Agent
p230
aVhttp://dbpedia.org/ontology/Athlete
p231
aVhttp://dbpedia.org/ontology/IceHockeyPlayer
p232
aVhttp://dbpedia.org/ontology/WinterSportPlayer
p233
aVhttp://schema.org/Person
p234
aVhttp://umbel.org/umbel/rc/IceHockeyPlayer
p235
aVhttp://dbpedia.org/class/yago/OlympicBronzeMedalistsForTheUnitedStates
p236
aVhttp://dbpedia.org/class/yago/OlympicIceHockeyPlayersOfTheUnitedStates
p237
aVhttp://dbpedia.org/class/yago/OlympicMedalistsInIceHockey
p238
aVhttp://dbpedia.org/class/yago/OlympicSilverMedalistsForTheUnitedStates
p239
aVhttp://dbpedia.org/class/yago/PeopleFromNewHavenCounty,Connecticut
p240
aVhttp://dbpedia.org/class/yago/YagoLegalActor
p241
aVhttp://dbpedia.org/class/yago/HarvardCrimsonWomen'sIceHockeyPlayers
p242
aVhttp://dbpedia.org/class/yago/IceHockeyPeopleFromConnecticut
p243
aVhttp://dbpedia.org/class/yago/IceHockeyPlayersAtThe2006WinterOlympics
p244
aVhttp://dbpedia.org/class/yago/IceHockeyPlayersAtThe2010WinterOlympics
p245
aVhttp://dbpedia.org/class/yago/LivingPeople
p246
aVhttp://dbpedia.org/class/yago/MinnesotaWhitecapsPlayers
p247
aVhttp://dbpedia.org/class/yago/PhysicalEntity100001930
p248
aVhttp://dbpedia.org/class/yago/Winner110782940
p249
aVhttp://dbpedia.org/resource/Caitlin_Cahow
tp250
aa(lp251
aa(lp252
(lp253
a(lp254
aa(lp255
(lp256
((lp257
Vhttp://dbpedia.org/class/yago/Actor109765278
p258
aVhttp://dbpedia.org/class/yago/AmericanFilmActors
p259
aVhttp://dbpedia.org/class/yago/CausalAgent100007347
p260
aVhttp://dbpedia.org/class/yago/Entertainer109616922
p261
aVhttp://dbpedia.org/class/yago/LivingThing100004258
p262
aVhttp://dbpedia.org/class/yago/Object100002684
p263
aVhttp://dbpedia.org/class/yago/Organism100004475
p264
aVhttp://dbpedia.org/class/yago/Performer110415638
p265
aVhttp://dbpedia.org/class/yago/Person100007846
p266
aVhttp://dbpedia.org/class/yago/Whole100003553
p267
aVhttp://dbpedia.org/class/yago/YagoLegalActorGeo
p268
aVhttp://www.w3.org/2002/07/owl#Thing
p269
aVhttp://xmlns.com/foaf/0.1/Person
p270
aVhttp://dbpedia.org/ontology/Person
p271
aVhttp://www.ontologydesignpatterns.org/ont/dul/DUL.owl#Agent
p272
aVhttp://www.ontologydesignpatterns.org/ont/dul/DUL.owl#NaturalPerson
p273
aVhttp://www.wikidata.org/entity/Q215627
p274
aVhttp://www.wikidata.org/entity/Q5
p275
aVhttp://dbpedia.org/ontology/Agent
p276
aVhttp://schema.org/Person
p277
aVhttp://dbpedia.org/class/yago/PeopleFromLosAngeles,California
p278
aVhttp://dbpedia.org/class/yago/YagoLegalActor
p279
aVhttp://dbpedia.org/class/yago/LivingPeople
p280
aVhttp://dbpedia.org/class/yago/PhysicalEntity100001930
p281
aVhttp://dbpedia.org/resource/Carly_Chaikin
tp282
aa(lp283
aa(lp284
(lp285
a(lp286
aa(lp287
(lp288
((lp289
Vhttp://dbpedia.org/class/yago/Abstraction100002137
p290
aVhttp://dbpedia.org/class/yago/AlternativeRockGroupsFromOhio
p291
aVhttp://dbpedia.org/class/yago/AmericanEmoMusicalGroups
p292
aVhttp://dbpedia.org/class/yago/AmericanPopPunkMusicalGroups
p293
aVhttp://dbpedia.org/class/yago/AmericanPost-hardcoreMusicalGroups
p294
aVhttp://dbpedia.org/class/yago/AmericanPowerPopGroups
p295
aVhttp://dbpedia.org/class/yago/AmericanScreamoMusicalGroups
p296
aVhttp://dbpedia.org/class/yago/DanceBand108249960
p297
aVhttp://dbpedia.org/class/yago/Ensemble108188235
p298
aVhttp://dbpedia.org/class/yago/Group100031264
p299
aVhttp://dbpedia.org/class/yago/MusicalOrganization108246613
p300
aVhttp://dbpedia.org/class/yago/Organization108008335
p301
aVhttp://dbpedia.org/class/yago/PopGroup108249752
p302
aVhttp://dbpedia.org/class/yago/RockGroup108250501
p303
aVhttp://dbpedia.org/class/yago/SocialGroup107950920
p304
aVhttp://dbpedia.org/class/yago/YagoLegalActorGeo
p305
aVhttp://www.w3.org/2002/07/owl#Thing
p306
aVhttp://www.ontologydesignpatterns.org/ont/dul/DUL.owl#Agent
p307
aVhttp://www.ontologydesignpatterns.org/ont/dul/DUL.owl#SocialPerson
p308
aVhttp://www.wikidata.org/entity/Q215380
p309
aVhttp://www.wikidata.org/entity/Q43229
p310
aVhttp://dbpedia.org/ontology/Agent
p311
aVhttp://dbpedia.org/ontology/Band
p312
aVhttp://dbpedia.org/ontology/Group
p313
aVhttp://dbpedia.org/ontology/Organisation
p314
aVhttp://schema.org/MusicGroup
p315
aVhttp://schema.org/Organization
p316
aVhttp://umbel.org/umbel/rc/Band_MusicGroup
p317
aVhttp://umbel.org/umbel/rc/Organization
p318
aVhttp://dbpedia.org/class/yago/YagoPermanentlyLocatedEntity
p319
aVhttp://dbpedia.org/class/yago/MusicalGroupsEstablishedIn2001
p320
aVhttp://dbpedia.org/class/yago/MusicalGroupsFromDayton,Ohio
p321
aVhttp://dbpedia.org/class/yago/YagoLegalActor
p322
aVhttp://dbpedia.org/resource/Hawthorne_Heights
tp323
aa(lp324
aa(lp325
(lp326
a(lp327
aa(lp328
(lp329
a(lp330
aa(lp331
(lp332
a(lp333
aa(lp334
(lp335
a(lp336
aa(lp337
(lp338
((lp339
Vhttp://dbpedia.org/class/yago/AfricanAmericanComposers
p340
aVhttp://dbpedia.org/class/yago/AfricanAmericanMusicians
p341
aVhttp://dbpedia.org/class/yago/Alumnus109786338
p342
aVhttp://dbpedia.org/class/yago/AmericanClassicalMusicians
p343
aVhttp://dbpedia.org/class/yago/AmericanFilmScoreComposers
p344
aVhttp://dbpedia.org/class/yago/Artist109812338
p345
aVhttp://dbpedia.org/class/yago/CausalAgent100007347
p346
aVhttp://dbpedia.org/class/yago/Composer109947232
p347
aVhttp://dbpedia.org/class/yago/Creator109614315
p348
aVhttp://dbpedia.org/class/yago/Intellectual109621545
p349
aVhttp://dbpedia.org/class/yago/LivingThing100004258
p350
aVhttp://dbpedia.org/class/yago/Musician110339966
p351
aVhttp://dbpedia.org/class/yago/Object100002684
p352
aVhttp://dbpedia.org/class/yago/Organism100004475
p353
aVhttp://dbpedia.org/class/yago/Person100007846
p354
aVhttp://dbpedia.org/class/yago/Scholar110557854
p355
aVhttp://dbpedia.org/class/yago/Whole100003553
p356
aVhttp://dbpedia.org/class/yago/YagoLegalActorGeo
p357
aVhttp://www.w3.org/2002/07/owl#Thing
p358
aVhttp://xmlns.com/foaf/0.1/Person
p359
aVhttp://dbpedia.org/ontology/Person
p360
aVhttp://www.ontologydesignpatterns.org/ont/dul/DUL.owl#Agent
p361
aVhttp://www.ontologydesignpatterns.org/ont/dul/DUL.owl#NaturalPerson
p362
aVhttp://www.wikidata.org/entity/Q215627
p363
aVhttp://www.wikidata.org/entity/Q483501
p364
aVhttp://www.wikidata.org/entity/Q5
p365
aVhttp://dbpedia.org/ontology/Agent
p366
aVhttp://dbpedia.org/ontology/Artist
p367
aVhttp://dbpedia.org/ontology/MusicalArtist
p368
aVhttp://schema.org/MusicGroup
p369
aVhttp://schema.org/Person
p370
aVhttp://dbpedia.org/class/yago/FemaleFilmScoreComposers
p371
aVhttp://dbpedia.org/class/yago/FemaleMusicians
p372
aVhttp://dbpedia.org/class/yago/MusiciansFromLosAngeles,California
p373
aVhttp://dbpedia.org/class/yago/YagoLegalActor
p374
aVhttp://dbpedia.org/class/yago/HoustonBaptistUniversityAlumni
p375
aVhttp://dbpedia.org/class/yago/LivingPeople
p376
aVhttp://dbpedia.org/class/yago/PhysicalEntity100001930
p377
aVhttp://dbpedia.org/resource/Chanda_Dancy
p378
tp379
aa(lp380
aa(lp381
(lp382
a(lp383
aa.