ccollections
defaultdict
p1
(c__builtin__
dict
p2
tRp3
I1
(dp4
I1
(lp5
ssI2
(dp6
I1
(lp7
ssI4
(dp8
I1
(lp9
ssI5
(dp10
I1
(lp11
ssI6
(dp12
I1
(lp13
ssI7
(dp14
I1
(lp15
ssI9
(dp16
I1
(lp17
ssI11
(dp18
I1
(lp19
ssI16
(dp20
I1
(lp21
ss.