(lp1
(lp2
(lp3
a(lp4
((lp5
Vhttp://dbpedia.org/class/yago/Actor109765278
p6
aVhttp://dbpedia.org/class/yago/CausalAgent100007347
p7
aVhttp://dbpedia.org/class/yago/Entertainer109616922
p8
aVhttp://dbpedia.org/class/yago/LivingThing100004258
p9
aVhttp://dbpedia.org/class/yago/Object100002684
p10
aVhttp://dbpedia.org/class/yago/Organism100004475
p11
aVhttp://dbpedia.org/class/yago/Performer110415638
p12
aVhttp://dbpedia.org/class/yago/Person100007846
p13
aVhttp://dbpedia.org/class/yago/Whole100003553
p14
aVhttp://dbpedia.org/class/yago/YagoLegalActorGeo
p15
aVhttp://www.w3.org/2002/07/owl#Thing
p16
aVhttp://xmlns.com/foaf/0.1/Person
p17
aVhttp://dbpedia.org/ontology/Person
p18
aVhttp://dbpedia.org/ontology/Actor
p19
aVhttp://www.ontologydesignpatterns.org/ont/dul/DUL.owl#Agent
p20
aVhttp://www.ontologydesignpatterns.org/ont/dul/DUL.owl#NaturalPerson
p21
aVhttp://www.wikidata.org/entity/Q215627
p22
aVhttp://www.wikidata.org/entity/Q33999
p23
aVhttp://www.wikidata.org/entity/Q483501
p24
aVhttp://www.wikidata.org/entity/Q5
p25
aVhttp://dbpedia.org/ontology/Agent
p26
aVhttp://dbpedia.org/ontology/Artist
p27
aVhttp://dbpedia.org/ontology/VoiceActor
p28
aVhttp://schema.org/Person
p29
aVhttp://dbpedia.org/class/yago/YagoLegalActor
p30
aVhttp://dbpedia.org/class/yago/JapaneseVoiceActors
p31
aVhttp://dbpedia.org/class/yago/LivingPeople
p32
aVhttp://dbpedia.org/class/yago/PhysicalEntity100001930
p33
aVhttp://dbpedia.org/resource/Miki_Takahashi
tp34
aa(lp35
((lp36
Vhttp://dbpedia.org/class/yago/Actor109765278
p37
aVhttp://dbpedia.org/class/yago/CausalAgent100007347
p38
aVhttp://dbpedia.org/class/yago/Entertainer109616922
p39
aVhttp://dbpedia.org/class/yago/LivingThing100004258
p40
aVhttp://dbpedia.org/class/yago/Object100002684
p41
aVhttp://dbpedia.org/class/yago/Organism100004475
p42
aVhttp://dbpedia.org/class/yago/Performer110415638
p43
aVhttp://dbpedia.org/class/yago/Person100007846
p44
aVhttp://dbpedia.org/class/yago/Whole100003553
p45
aVhttp://dbpedia.org/class/yago/YagoLegalActorGeo
p46
aVhttp://www.w3.org/2002/07/owl#Thing
p47
aVhttp://xmlns.com/foaf/0.1/Person
p48
aVhttp://dbpedia.org/ontology/Person
p49
aVhttp://dbpedia.org/ontology/Actor
p50
aVhttp://www.ontologydesignpatterns.org/ont/dul/DUL.owl#Agent
p51
aVhttp://www.ontologydesignpatterns.org/ont/dul/DUL.owl#NaturalPerson
p52
aVhttp://www.wikidata.org/entity/Q215627
p53
aVhttp://www.wikidata.org/entity/Q33999
p54
aVhttp://www.wikidata.org/entity/Q483501
p55
aVhttp://www.wikidata.org/entity/Q5
p56
aVhttp://dbpedia.org/ontology/Agent
p57
aVhttp://dbpedia.org/ontology/Artist
p58
aVhttp://dbpedia.org/ontology/VoiceActor
p59
aVhttp://schema.org/Person
p60
aVhttp://dbpedia.org/class/yago/YagoLegalActor
p61
aVhttp://dbpedia.org/class/yago/JapaneseVoiceActors
p62
aVhttp://dbpedia.org/class/yago/PhysicalEntity100001930
p63
aVhttp://dbpedia.org/resource/Masato_Yamanouchi
tp64
aa(lp65
a(lp66
a(lp67
a(lp68
a(lp69
a(lp70
a(lp71
a(lp72
a(lp73
a(lp74
((lp75
Vhttp://dbpedia.org/class/yago/Actor109765278
p76
aVhttp://dbpedia.org/class/yago/CausalAgent100007347
p77
aVhttp://dbpedia.org/class/yago/Entertainer109616922
p78
aVhttp://dbpedia.org/class/yago/LivingThing100004258
p79
aVhttp://dbpedia.org/class/yago/Object100002684
p80
aVhttp://dbpedia.org/class/yago/Organism100004475
p81
aVhttp://dbpedia.org/class/yago/Performer110415638
p82
aVhttp://dbpedia.org/class/yago/Person100007846
p83
aVhttp://dbpedia.org/class/yago/Whole100003553
p84
aVhttp://dbpedia.org/class/yago/YagoLegalActorGeo
p85
aVhttp://www.w3.org/2002/07/owl#Thing
p86
aVhttp://xmlns.com/foaf/0.1/Person
p87
aVhttp://dbpedia.org/ontology/Person
p88
aVhttp://dbpedia.org/ontology/Actor
p89
aVhttp://www.ontologydesignpatterns.org/ont/dul/DUL.owl#Agent
p90
aVhttp://www.ontologydesignpatterns.org/ont/dul/DUL.owl#NaturalPerson
p91
aVhttp://www.wikidata.org/entity/Q215627
p92
aVhttp://www.wikidata.org/entity/Q33999
p93
aVhttp://www.wikidata.org/entity/Q483501
p94
aVhttp://www.wikidata.org/entity/Q5
p95
aVhttp://dbpedia.org/ontology/Agent
p96
aVhttp://dbpedia.org/ontology/Artist
p97
aVhttp://dbpedia.org/ontology/VoiceActor
p98
aVhttp://schema.org/Person
p99
aVhttp://dbpedia.org/class/yago/PeopleFromKanagawaPrefecture
p100
aVhttp://dbpedia.org/class/yago/YagoLegalActor
p101
aVhttp://dbpedia.org/class/yago/JapaneseVoiceActors
p102
aVhttp://dbpedia.org/class/yago/LivingPeople
p103
aVhttp://dbpedia.org/class/yago/PhysicalEntity100001930
p104
aVhttp://dbpedia.org/resource/Shigeru_Mogi
tp105
aa(lp106
a(lp107
a(lp108
a(lp109
((lp110
Vhttp://dbpedia.org/class/yago/Actor109765278
p111
aVhttp://dbpedia.org/class/yago/CausalAgent100007347
p112
aVhttp://dbpedia.org/class/yago/Entertainer109616922
p113
aVhttp://dbpedia.org/class/yago/LivingThing100004258
p114
aVhttp://dbpedia.org/class/yago/Object100002684
p115
aVhttp://dbpedia.org/class/yago/Organism100004475
p116
aVhttp://dbpedia.org/class/yago/Performer110415638
p117
aVhttp://dbpedia.org/class/yago/Person100007846
p118
aVhttp://dbpedia.org/class/yago/Whole100003553
p119
aVhttp://dbpedia.org/class/yago/YagoLegalActorGeo
p120
aVhttp://www.w3.org/2002/07/owl#Thing
p121
aVhttp://xmlns.com/foaf/0.1/Person
p122
aVhttp://dbpedia.org/ontology/Person
p123
aVhttp://dbpedia.org/ontology/Actor
p124
aVhttp://www.ontologydesignpatterns.org/ont/dul/DUL.owl#Agent
p125
aVhttp://www.ontologydesignpatterns.org/ont/dul/DUL.owl#NaturalPerson
p126
aVhttp://www.wikidata.org/entity/Q215627
p127
aVhttp://www.wikidata.org/entity/Q33999
p128
aVhttp://www.wikidata.org/entity/Q483501
p129
aVhttp://www.wikidata.org/entity/Q5
p130
aVhttp://dbpedia.org/ontology/Agent
p131
aVhttp://dbpedia.org/ontology/Artist
p132
aVhttp://dbpedia.org/ontology/VoiceActor
p133
aVhttp://schema.org/Person
p134
aVhttp://dbpedia.org/class/yago/YagoLegalActor
p135
aVhttp://dbpedia.org/class/yago/JapaneseVoiceActors
p136
aVhttp://dbpedia.org/class/yago/LivingPeople
p137
aVhttp://dbpedia.org/class/yago/PhysicalEntity100001930
p138
aVhttp://dbpedia.org/resource/Osamu_Hosoi
p139
tp140
aa(lp141
a(lp142
aa.