(lp1
(dp2
I0
(dp3
I0
(lp4
sI1
(lp5
sI2
(lp6
sI3
(lp7
sI4
(lp8
ssI1
(dp9
I1
(lp10
sI2
(lp11
sI3
(lp12
sI4
(lp13
ssI2
(dp14
I0
g6
sI1
g11
sI2
(lp15
sI3
(lp16
sI4
(lp17
ssI3
(dp18
I0
g7
sI1
g12
sI2
g16
sI3
(lp19
sI4
(lp20
ssI4
(dp21
I0
g8
sI1
g13
sI2
g17
sI3
g20
sI4
(lp22
ssa(dp23
I0
(dp24
I0
(lp25
sI1
(lp26
sI2
(lp27
sI3
(lp28
sI4
(lp29
ssI1
(dp30
I0
g26
sI1
(lp31
sI2
(lp32
sI3
(lp33
sI4
(lp34
ssI2
(dp35
I0
g27
sI2
(lp36
sI3
(lp37
sI4
(lp38
ssI3
(dp39
I0
g28
sI1
g33
sI2
g37
sI3
(lp40
sI4
(lp41
ssI4
(dp42
I0
g29
sI3
g41
sI4
(lp43
ssa(dp44
I0
(dp45
I0
(lp46
sI1
(lp47
sI2
(lp48
sI3
(lp49
sI4
(lp50
ssI1
(dp51
I0
g47
sI1
(lp52
sI2
(lp53
sI3
(lp54
sI4
(lp55
ssI2
(dp56
I0
g48
sI2
(lp57
sI3
(lp58
sI4
(lp59
ssI3
(dp60
I0
g49
sI1
g54
sI2
g58
sI3
(lp61
sI4
(lp62
ssI4
(dp63
I0
g50
sI3
g62
sI4
(lp64
ssa(dp65
I0
(dp66
I0
(lp67
sI1
(lp68
sI2
(lp69
sI3
(lp70
sI4
(lp71
ssI1
(dp72
I0
g68
sI1
(lp73
sI2
(lp74
sI3
(lp75
sI4
(lp76
ssI2
(dp77
I0
g69
sI1
g74
sI2
(lp78
sI3
(lp79
sI4
(lp80
ssI3
(dp81
I0
g70
sI1
g75
sI2
g79
sI3
(lp82
sI4
(lp83
ssI4
(dp84
I0
g71
sI1
g76
sI2
g80
sI3
g83
sI4
(lp85
ssa(dp86
I0
(dp87
I0
(lp88
sI1
(lp89
sI2
(lp90
sI3
(lp91
sI4
(lp92
ssI1
(dp93
I0
g89
sI1
(lp94
sI2
(lp95
sI3
(lp96
sI4
(lp97
ssI2
(dp98
I0
g90
sI2
(lp99
sI3
(lp100
sI4
(lp101
ssI3
(dp102
I0
g91
sI3
(lp103
sI4
(lp104
ssI4
(dp105
I0
g92
sI4
(lp106
ssa(dp107
I0
(dp108
I0
(lp109
sI1
(lp110
sI2
(lp111
Vhttp://www.w3.org/ns/prov#wasDerivedFrom
p112
asI3
(lp113
sI4
(lp114
ssI1
(dp115
I0
g110
sI1
(lp116
sI2
(lp117
sI3
(lp118
sI4
(lp119
ssI2
(dp120
I0
g111
sI1
g117
sI2
(lp121
sI3
(lp122
sI4
(lp123
ssI3
(dp124
I0
g113
sI1
g118
sI2
g122
sI3
(lp125
sI4
(lp126
ssI4
(dp127
I0
g114
sI2
g123
sI3
g126
sI4
(lp128
ssa(dp129
I0
(dp130
I0
(lp131
sI1
(lp132
sI2
(lp133
Vhttp://www.w3.org/ns/prov#wasDerivedFrom
p134
asI3
(lp135
sI4
(lp136
ssI1
(dp137
I0
g132
sI1
(lp138
sI2
(lp139
sI3
(lp140
sI4
(lp141
ssI2
(dp142
I0
g133
sI1
g139
sI2
(lp143
sI3
(lp144
sI4
(lp145
ssI3
(dp146
I0
g135
sI1
g140
sI2
g144
sI3
(lp147
sI4
(lp148
ssI4
(dp149
I0
g136
sI2
g145
sI3
g148
sI4
(lp150
ssa(dp151
I0
(dp152
I0
(lp153
sI1
(lp154
sI2
(lp155
sI3
(lp156
sI4
(lp157
ssI1
(dp158
I0
g154
sI1
(lp159
sI2
(lp160
sI3
(lp161
sI4
(lp162
ssI2
(dp163
I0
g155
sI2
(lp164
sI3
(lp165
sI4
(lp166
ssI3
(dp167
I0
g156
sI3
(lp168
sI4
(lp169
ssI4
(dp170
I0
g157
sI4
(lp171
ssa(dp172
I0
(dp173
I0
(lp174
sI1
(lp175
sI2
(lp176
sI3
(lp177
sI4
(lp178
ssI1
(dp179
I0
g175
sI1
(lp180
sI2
(lp181
sI3
(lp182
sI4
(lp183
ssI2
(dp184
I0
g176
sI2
(lp185
sI3
(lp186
sI4
(lp187
ssI3
(dp188
I0
g177
sI3
(lp189
sI4
(lp190
ssI4
(dp191
I0
g178
sI4
(lp192
ssa(dp193
I0
(dp194
I0
(lp195
sI1
(lp196
sI2
(lp197
sI3
(lp198
sI4
(lp199
ssI1
(dp200
I0
g196
sI1
(lp201
sI2
(lp202
sI3
(lp203
sI4
(lp204
ssI2
(dp205
I0
g197
sI2
(lp206
sI3
(lp207
sI4
(lp208
ssI3
(dp209
I0
g198
sI1
g203
sI2
g207
sI3
(lp210
sI4
(lp211
ssI4
(dp212
I0
g199
sI3
g211
sI4
(lp213
ssa(dp214
I0
(dp215
I0
(lp216
sI1
(lp217
sI2
(lp218
sI3
(lp219
sI4
(lp220
ssI1
(dp221
I0
g217
sI1
(lp222
sI2
(lp223
sI3
(lp224
sI4
(lp225
ssI2
(dp226
I0
g218
sI2
(lp227
sI3
(lp228
sI4
(lp229
ssI3
(dp230
I0
g219
sI1
g224
sI2
g228
sI3
(lp231
sI4
(lp232
ssI4
(dp233
I0
g220
sI3
g232
sI4
(lp234
ssa(dp235
I0
(dp236
I0
(lp237
sI1
(lp238
sI2
(lp239
sI3
(lp240
sI4
(lp241
ssI1
(dp242
I0
g238
sI1
(lp243
sI2
(lp244
sI3
(lp245
sI4
(lp246
ssI2
(dp247
I0
g239
sI2
(lp248
sI3
(lp249
sI4
(lp250
ssI3
(dp251
I0
g240
sI1
g245
sI2
g249
sI3
(lp252
sI4
(lp253
ssI4
(dp254
I0
g241
sI3
g253
sI4
(lp255
ssa(dp256
I0
(dp257
I0
(lp258
sI1
(lp259
sI2
(lp260
Vhttp://www.w3.org/ns/prov#wasDerivedFrom
p261
asI3
(lp262
sI4
(lp263
ssI1
(dp264
I0
g259
sI1
(lp265
sI2
(lp266
sI3
(lp267
sI4
(lp268
ssI2
(dp269
I0
g260
sI1
g266
sI2
(lp270
sI3
(lp271
sI4
(lp272
ssI3
(dp273
I0
g262
sI1
g267
sI2
g271
sI3
(lp274
sI4
(lp275
ssI4
(dp276
I0
g263
sI2
g272
sI3
g275
sI4
(lp277
ssa(dp278
I0
(dp279
I0
(lp280
sI1
(lp281
sI2
(lp282
Vhttp://www.w3.org/ns/prov#wasDerivedFrom
p283
asI3
(lp284
sI4
(lp285
ssI1
(dp286
I0
g281
sI1
(lp287
sI2
(lp288
sI3
(lp289
sI4
(lp290
ssI2
(dp291
I0
g282
sI1
g288
sI2
(lp292
sI3
(lp293
sI4
(lp294
ssI3
(dp295
I0
g284
sI1
g289
sI2
g293
sI3
(lp296
sI4
(lp297
ssI4
(dp298
I0
g285
sI2
g294
sI3
g297
sI4
(lp299
ssa(dp300
I0
(dp301
I0
(lp302
sI1
(lp303
sI2
(lp304
sI3
(lp305
sI4
(lp306
ssI1
(dp307
I0
g303
sI1
(lp308
sI2
(lp309
sI3
(lp310
sI4
(lp311
ssI2
(dp312
I0
g304
sI2
(lp313
sI3
(lp314
sI4
(lp315
ssI3
(dp316
I0
g305
sI1
g310
sI2
g314
sI3
(lp317
sI4
(lp318
ssI4
(dp319
I0
g306
sI3
g318
sI4
(lp320
ssa(dp321
I0
(dp322
I0
(lp323
sI1
(lp324
sI2
(lp325
sI3
(lp326
sI4
(lp327
ssI1
(dp328
I0
g324
sI1
(lp329
sI2
(lp330
sI3
(lp331
sI4
(lp332
ssI2
(dp333
I0
g325
sI2
(lp334
sI3
(lp335
sI4
(lp336
ssI3
(dp337
I0
g326
sI1
g331
sI2
g335
sI3
(lp338
sI4
(lp339
ssI4
(dp340
I0
g327
sI3
g339
sI4
(lp341
ssa(dp342
I0
(dp343
I0
(lp344
sI1
(lp345
sI2
(lp346
Vhttp://www.w3.org/ns/prov#wasDerivedFrom
p347
asI3
(lp348
sI4
(lp349
ssI1
(dp350
I0
g345
sI1
(lp351
sI2
(lp352
sI3
(lp353
sI4
(lp354
ssI2
(dp355
I0
g346
sI1
g352
sI2
(lp356
sI3
(lp357
sI4
(lp358
ssI3
(dp359
I0
g348
sI1
g353
sI2
g357
sI3
(lp360
sI4
(lp361
ssI4
(dp362
I0
g349
sI2
g358
sI3
g361
sI4
(lp363
ssa(dp364
I0
(dp365
I0
(lp366
sI1
(lp367
sI2
(lp368
sI3
(lp369
sI4
(lp370
ssI1
(dp371
I0
g367
sI1
(lp372
sI2
(lp373
sI3
(lp374
sI4
(lp375
ssI2
(dp376
I0
g368
sI2
(lp377
sI3
(lp378
sI4
(lp379
ssI3
(dp380
I0
g369
sI1
g374
sI2
g378
sI3
(lp381
sI4
(lp382
ssI4
(dp383
I0
g370
sI3
g382
sI4
(lp384
ssa(dp385
I0
(dp386
I0
(lp387
sI1
(lp388
sI2
(lp389
sI3
(lp390
sI4
(lp391
ssI1
(dp392
I0
g388
sI1
(lp393
sI2
(lp394
sI3
(lp395
sI4
(lp396
ssI2
(dp397
I0
g389
sI2
(lp398
sI3
(lp399
sI4
(lp400
ssI3
(dp401
I0
g390
sI1
g395
sI2
g399
sI3
(lp402
sI4
(lp403
ssI4
(dp404
I0
g391
sI3
g403
sI4
(lp405
ssa.