ccollections
defaultdict
p1
(c__builtin__
dict
p2
tRp3
I1
(dp4
I1
(lp5
sI2
(lp6
sI3
(lp7
sI4
(lp8
ssI2
(dp9
I1
(lp10
sI2
(lp11
sI3
(lp12
sI4
(lp13
ssI3
(dp14
I1
(lp15
sI2
(lp16
sI3
(lp17
sI4
(lp18
ssI4
(dp19
I1
(lp20
sI2
(lp21
sI3
(lp22
sI4
(lp23
ssI5
(dp24
I1
(lp25
sI2
(lp26
Vhttp://www.w3.org/ns/prov#wasDerivedFrom
p27
asI3
(lp28
sI4
(lp29
ssI6
(dp30
I1
(lp31
sI2
(lp32
Vhttp://www.w3.org/ns/prov#wasDerivedFrom
p33
asI3
(lp34
sI4
(lp35
ssI7
(dp36
I1
(lp37
sI2
(lp38
sI3
(lp39
sI4
(lp40
ssI8
(dp41
I1
(lp42
sI2
(lp43
sI3
(lp44
sI4
(lp45
ssI9
(dp46
I1
(lp47
sI2
(lp48
sI3
(lp49
sI4
(lp50
ssI10
(dp51
I1
(lp52
sI2
(lp53
sI3
(lp54
sI4
(lp55
ssI11
(dp56
I1
(lp57
sI2
(lp58
sI3
(lp59
sI4
(lp60
ssI12
(dp61
I1
(lp62
sI2
(lp63
Vhttp://www.w3.org/ns/prov#wasDerivedFrom
p64
asI3
(lp65
sI4
(lp66
ssI13
(dp67
I1
(lp68
sI2
(lp69
Vhttp://www.w3.org/ns/prov#wasDerivedFrom
p70
asI3
(lp71
sI4
(lp72
ssI14
(dp73
I1
(lp74
sI2
(lp75
sI3
(lp76
sI4
(lp77
ssI15
(dp78
I1
(lp79
sI2
(lp80
sI3
(lp81
sI4
(lp82
ssI16
(dp83
I1
(lp84
sI2
(lp85
Vhttp://www.w3.org/ns/prov#wasDerivedFrom
p86
asI3
(lp87
sI4
(lp88
ssI17
(dp89
I1
(lp90
sI2
(lp91
sI3
(lp92
sI4
(lp93
ssI18
(dp94
I1
(lp95
sI2
(lp96
sI3
(lp97
sI4
(lp98
ss.