(lp1
(lp2
(lp3
a(lp4
a(lp5
((lp6
Vhttp://www.w3.org/2002/07/owl#Thing
p7
aVhttp://dbpedia.org/ontology/Bacteria
p8
aVhttp://dbpedia.org/ontology/Species
p9
aVhttp://umbel.org/umbel/rc/Bacterium
p10
aVhttp://umbel.org/umbel/rc/BiologicalLivingObject
p11
aVhttp://dbpedia.org/resource/Gammaproteobacteria
tp12
aaa(lp13
(lp14
a(lp15
a(lp16
((lp17
Vhttp://www.w3.org/2002/07/owl#Thing
p18
aVhttp://dbpedia.org/ontology/Bacteria
p19
aVhttp://dbpedia.org/ontology/Species
p20
aVhttp://dbpedia.org/resource/Halobacillus_litoralis
tp21
aaa(lp22
(lp23
a(lp24
a(lp25
aa(lp26
(lp27
a(lp28
a(lp29
aa(lp30
(lp31
a(lp32
a(lp33
((lp34
Vhttp://www.w3.org/2002/07/owl#Thing
p35
aVhttp://dbpedia.org/ontology/Bacteria
p36
aVhttp://dbpedia.org/ontology/Species
p37
aVhttp://dbpedia.org/resource/Rhodoblastus_acidophilus
tp38
aaa(lp39
(lp40
a(lp41
a(lp42
((lp43
Vhttp://dbpedia.org/class/yago/Abstraction100002137
p44
aVhttp://dbpedia.org/class/yago/BacteriaGenera
p45
aVhttp://dbpedia.org/class/yago/BacteriaGenus101352574
p46
aVhttp://dbpedia.org/class/yago/BiologicalGroup107941170
p47
aVhttp://dbpedia.org/class/yago/Genus108108972
p48
aVhttp://dbpedia.org/class/yago/Group100031264
p49
aVhttp://www.w3.org/2002/07/owl#Thing
p50
aVhttp://dbpedia.org/ontology/Bacteria
p51
aVhttp://dbpedia.org/ontology/Species
p52
aVhttp://umbel.org/umbel/rc/Bacterium
p53
aVhttp://dbpedia.org/class/yago/TaxonomicGroup107992450
p54
aVhttp://dbpedia.org/resource/Roseobacter
tp55
aaa(lp56
(lp57
a(lp58
a(lp59
((lp60
Vhttp://www.w3.org/2002/07/owl#Thing
p61
aVhttp://dbpedia.org/ontology/Bacteria
p62
aVhttp://dbpedia.org/ontology/Species
p63
aVhttp://umbel.org/umbel/rc/Bacterium
p64
aVhttp://umbel.org/umbel/rc/BiologicalLivingObject
p65
aVhttp://dbpedia.org/resource/Rickettsia
tp66
aaa(lp67
(lp68
a(lp69
a(lp70
((lp71
Vhttp://dbpedia.org/class/yago/Abstraction100002137
p72
aVhttp://dbpedia.org/class/yago/BacteriaGenera
p73
aVhttp://dbpedia.org/class/yago/BacteriaGenus101352574
p74
aVhttp://dbpedia.org/class/yago/BiologicalGroup107941170
p75
aVhttp://dbpedia.org/class/yago/Genus108108972
p76
aVhttp://dbpedia.org/class/yago/Group100031264
p77
aVhttp://www.w3.org/2002/07/owl#Thing
p78
aVhttp://dbpedia.org/ontology/Bacteria
p79
aVhttp://dbpedia.org/ontology/Species
p80
aVhttp://umbel.org/umbel/rc/Bacterium
p81
aVhttp://dbpedia.org/class/yago/TaxonomicGroup107992450
p82
aVhttp://dbpedia.org/resource/Ketogulonicigenium
tp83
aaa(lp84
(lp85
a(lp86
a(lp87
((lp88
Vhttp://www.w3.org/2002/07/owl#Thing
p89
aVhttp://dbpedia.org/ontology/Bacteria
p90
aVhttp://dbpedia.org/ontology/Species
p91
aVhttp://dbpedia.org/resource/Pelotomaculum_thermopropionicum
tp92
aaa(lp93
(lp94
a(lp95
a(lp96
((lp97
Vhttp://dbpedia.org/class/yago/Abstraction100002137
p98
aVhttp://dbpedia.org/class/yago/BacteriaGenera
p99
aVhttp://dbpedia.org/class/yago/BacteriaGenus101352574
p100
aVhttp://dbpedia.org/class/yago/BiologicalGroup107941170
p101
aVhttp://dbpedia.org/class/yago/Genus108108972
p102
aVhttp://dbpedia.org/class/yago/Group100031264
p103
aVhttp://www.w3.org/2002/07/owl#Thing
p104
aVhttp://dbpedia.org/ontology/Bacteria
p105
aVhttp://dbpedia.org/ontology/Species
p106
aVhttp://dbpedia.org/class/yago/TaxonomicGroup107992450
p107
aVhttp://dbpedia.org/resource/Aggregatibacter
tp108
aaa(lp109
(lp110
a(lp111
a(lp112
((lp113
Vhttp://www.w3.org/2002/07/owl#Thing
p114
aVhttp://dbpedia.org/ontology/Bacteria
p115
aVhttp://dbpedia.org/ontology/Species
p116
aVhttp://dbpedia.org/resource/Dialister_pneumosintes
tp117
aaa(lp118
(lp119
a(lp120
a(lp121
aa(lp122
(lp123
a(lp124
a(lp125
aa(lp126
(lp127
a(lp128
a(lp129
aa(lp130
(lp131
a(lp132
a(lp133
aa(lp134
(lp135
a(lp136
a(lp137
aa(lp138
(lp139
a(lp140
a(lp141
aa(lp142
(lp143
a(lp144
a(lp145
((lp146
Vhttp://dbpedia.org/class/yago/Abstraction100002137
p147
aVhttp://dbpedia.org/class/yago/Attribute100024264
p148
aVhttp://dbpedia.org/class/yago/Condition113920835
p149
aVhttp://dbpedia.org/class/yago/Disease114070360
p150
aVhttp://dbpedia.org/class/yago/IllHealth114052046
p151
aVhttp://dbpedia.org/class/yago/Illness114061805
p152
aVhttp://dbpedia.org/class/yago/PhysicalCondition114034177
p153
aVhttp://dbpedia.org/class/yago/State100024720
p154
aVhttp://www.w3.org/2002/07/owl#Thing
p155
aVhttp://dbpedia.org/ontology/Bacteria
p156
aVhttp://dbpedia.org/ontology/Species
p157
aVhttp://umbel.org/umbel/rc/BiologicalLivingObject
p158
aVhttp://dbpedia.org/class/yago/PathologicalState114051917
p159
aVhttp://dbpedia.org/resource/Haemophilus_influenzae
tp160
aaa(lp161
(lp162
a(lp163
a(lp164
((lp165
Vhttp://www.w3.org/2002/07/owl#Thing
p166
aVhttp://dbpedia.org/ontology/Bacteria
p167
aVhttp://dbpedia.org/ontology/Species
p168
aVhttp://umbel.org/umbel/rc/Bacterium
p169
aVhttp://dbpedia.org/resource/Clostridium
p170
tp171
aaa.