ccollections
defaultdict
p1
(c__builtin__
dict
p2
tRp3
I0
(dp4
I0
(lp5
sI1
(lp6
Vhttp://www.w3.org/ns/prov#wasDerivedFrom
p7
assI1
(dp8
I0
(lp9
sI1
(lp10
Vhttp://www.w3.org/ns/prov#wasDerivedFrom
p11
assI4
(dp12
I0
(lp13
sI1
(lp14
Vhttp://www.w3.org/ns/prov#wasDerivedFrom
p15
assI5
(dp16
I0
(lp17
sI1
(lp18
Vhttp://www.w3.org/ns/prov#wasDerivedFrom
p19
assI6
(dp20
I0
(lp21
sI1
(lp22
Vhttp://www.w3.org/ns/prov#wasDerivedFrom
p23
assI7
(dp24
I0
(lp25
sI1
(lp26
Vhttp://www.w3.org/ns/prov#wasDerivedFrom
p27
assI8
(dp28
I0
(lp29
sI1
(lp30
Vhttp://www.w3.org/ns/prov#wasDerivedFrom
p31
assI9
(dp32
I0
(lp33
sI1
(lp34
Vhttp://www.w3.org/ns/prov#wasDerivedFrom
p35
assI10
(dp36
I0
(lp37
sI1
(lp38
Vhttp://www.w3.org/ns/prov#wasDerivedFrom
p39
assI17
(dp40
I0
(lp41
sI1
(lp42
ssI18
(dp43
I0
(lp44
sI1
(lp45
Vhttp://www.w3.org/ns/prov#wasDerivedFrom
p46
ass.