ccollections
defaultdict
p1
(c__builtin__
dict
p2
tRp3
I5
(dp4
I0
(lp5
sI1
(lp6
ssI13
(dp7
I0
(lp8
sI1
(lp9
Vhttp://www.w3.org/ns/prov#wasDerivedFrom
p10
assI14
(dp11
I0
(lp12
sI1
(lp13
Vhttp://www.w3.org/ns/prov#wasDerivedFrom
p14
assI15
(dp15
I0
(lp16
sI1
(lp17
ssI16
(dp18
I0
(lp19
sI1
(lp20
ssI17
(dp21
I0
(lp22
sI1
(lp23
ss.