(lp1
(lp2
(lp3
Vhttp://dbpedia.org/resource/One_by_One_(film)
p4
aa(lp5
a(lp6
a(lp7
Vhttp://dbpedia.org/resource/Popeye_the_Sailor_(film)
p8
aa(lp9
Vhttp://dbpedia.org/resource/Self_Control_(film)
p10
aa(lp11
Vhttp://dbpedia.org/resource/The_Old_Mill_Pond
p12
aa(lp13
Vhttp://dbpedia.org/resource/War_Dogs_(1943_film)
p14
aa(lp15
Vhttp://dbpedia.org/resource/Showdown_(1963_film)
p16
aa(lp17
Vhttp://dbpedia.org/resource/The_Scarlet_Pumpernickel
p18
aa(lp19
Vhttp://dbpedia.org/resource/The_Screwdriver
p20
aa(lp21
Vhttp://dbpedia.org/resource/Mickey's_Revue
p22
aa(lp23
Vhttp://dbpedia.org/resource/Monster_Night
p24
aa(lp25
Vhttp://dbpedia.org/resource/Corn_on_the_Cop
p26
aa(lp27
Vhttp://dbpedia.org/resource/Dog_Tales_(1958_film)
p28
aa(lp29
Vhttp://dbpedia.org/resource/Elmer_Elephant
p30
aa(lp31
Vhttp://dbpedia.org/resource/Hoppy_Go_Lucky
p32
aa(lp33
Vhttp://dbpedia.org/resource/Krazy's_Waterloo
p34
aa(lp35
Vhttp://dbpedia.org/resource/Rabbit_of_Seville
p36
aaa.