(lp1
(lp2
(lp3
((lp4
Vhttp://dbpedia.org/class/yago/Artifact100021939
p5
aVhttp://dbpedia.org/class/yago/AutomobileEngine102761557
p6
aVhttp://dbpedia.org/class/yago/Device103183080
p7
aVhttp://dbpedia.org/class/yago/Engine103287733
p8
aVhttp://dbpedia.org/class/yago/Machine103699975
p9
aVhttp://dbpedia.org/class/yago/Motor103789946
p10
aVhttp://dbpedia.org/class/yago/Object100002684
p11
aVhttp://dbpedia.org/class/yago/Whole100003553
p12
aVhttp://www.w3.org/2002/07/owl#Thing
p13
aVhttp://dbpedia.org/ontology/AutomobileEngine
p14
aVhttp://dbpedia.org/ontology/Device
p15
aVhttp://dbpedia.org/ontology/Engine
p16
aVhttp://umbel.org/umbel/rc/AutoEngine
p17
aVhttp://umbel.org/umbel/rc/PhysicalDevice
p18
aVhttp://dbpedia.org/class/yago/Instrumentality103575240
p19
aVhttp://dbpedia.org/class/yago/PhysicalEntity100001930
p20
aVhttp://dbpedia.org/class/yago/ToyotaEngines
p21
aVhttp://dbpedia.org/resource/Toyota_MZ_engine
tp22
aa(lp23
((lp24
Vhttp://dbpedia.org/class/yago/Artifact100021939
p25
aVhttp://dbpedia.org/class/yago/AutomobileEngine102761557
p26
aVhttp://dbpedia.org/class/yago/Device103183080
p27
aVhttp://dbpedia.org/class/yago/Engine103287733
p28
aVhttp://dbpedia.org/class/yago/Machine103699975
p29
aVhttp://dbpedia.org/class/yago/Motor103789946
p30
aVhttp://dbpedia.org/class/yago/Object100002684
p31
aVhttp://dbpedia.org/class/yago/Whole100003553
p32
aVhttp://www.w3.org/2002/07/owl#Thing
p33
aVhttp://dbpedia.org/ontology/AutomobileEngine
p34
aVhttp://dbpedia.org/ontology/Device
p35
aVhttp://dbpedia.org/ontology/Engine
p36
aVhttp://umbel.org/umbel/rc/AutoEngine
p37
aVhttp://umbel.org/umbel/rc/PhysicalDevice
p38
aVhttp://dbpedia.org/class/yago/Instrumentality103575240
p39
aVhttp://dbpedia.org/class/yago/PhysicalEntity100001930
p40
aVhttp://dbpedia.org/class/yago/ToyotaEngines
p41
aVhttp://dbpedia.org/resource/Toyota_MZ_engine
tp42
aa(lp43
a(lp44
((lp45
Vhttp://www.w3.org/2002/07/owl#Thing
p46
aVhttp://dbpedia.org/ontology/AutomobileEngine
p47
aVhttp://dbpedia.org/ontology/Device
p48
aVhttp://dbpedia.org/ontology/Engine
p49
aVhttp://umbel.org/umbel/rc/AutoEngine
p50
aVhttp://umbel.org/umbel/rc/PhysicalDevice
p51
aVhttp://dbpedia.org/resource/Mercedes-Benz_OM612_engine
p52
tp53
aa(lp54
a(lp55
a(lp56
a(lp57
a(lp58
a(lp59
a(lp60
a(lp61
a(lp62
a(lp63
a(lp64
a(lp65
a(lp66
a(lp67
a(lp68
aa.