(lp1
(lp2
(lp3
a(lp4
aa(lp5
(lp6
a(lp7
aa(lp8
(lp9
a(lp10
aa(lp11
(lp12
a(lp13
aa(lp14
(lp15
((lp16
Vhttp://dbpedia.org/class/yago/Athlete109820263
p17
aVhttp://dbpedia.org/class/yago/CausalAgent100007347
p18
aVhttp://dbpedia.org/class/yago/Contestant109613191
p19
aVhttp://dbpedia.org/class/yago/FootballPlayer110101634
p20
aVhttp://dbpedia.org/class/yago/LivingThing100004258
p21
aVhttp://dbpedia.org/class/yago/Object100002684
p22
aVhttp://dbpedia.org/class/yago/Organism100004475
p23
aVhttp://dbpedia.org/class/yago/Person100007846
p24
aVhttp://dbpedia.org/class/yago/Player110439851
p25
aVhttp://dbpedia.org/class/yago/Whole100003553
p26
aVhttp://dbpedia.org/class/yago/YagoLegalActorGeo
p27
aVhttp://www.w3.org/2002/07/owl#Thing
p28
aVhttp://xmlns.com/foaf/0.1/Person
p29
aVhttp://dbpedia.org/ontology/Person
p30
aVhttp://www.ontologydesignpatterns.org/ont/dul/DUL.owl#Agent
p31
aVhttp://www.ontologydesignpatterns.org/ont/dul/DUL.owl#NaturalPerson
p32
aVhttp://www.wikidata.org/entity/Q215627
p33
aVhttp://www.wikidata.org/entity/Q5
p34
aVhttp://www.wikidata.org/entity/Q937857
p35
aVhttp://dbpedia.org/ontology/Agent
p36
aVhttp://dbpedia.org/ontology/Athlete
p37
aVhttp://dbpedia.org/ontology/SoccerPlayer
p38
aVhttp://schema.org/Person
p39
aVhttp://dbpedia.org/class/yago/EnglishFootballers
p40
aVhttp://dbpedia.org/class/yago/PeopleFromNorthumberland
p41
aVhttp://dbpedia.org/class/yago/YagoLegalActor
p42
aVhttp://dbpedia.org/class/yago/LivingPeople
p43
aVhttp://dbpedia.org/class/yago/PhysicalEntity100001930
p44
aVhttp://dbpedia.org/class/yago/TheFootballLeaguePlayers
p45
aVhttp://dbpedia.org/class/yago/TottenhamHotspurF.C.Players
p46
aVhttp://dbpedia.org/resource/Ron_Piper
tp47
aa(lp48
aa(lp49
(lp50
((lp51
Vhttp://dbpedia.org/class/yago/AustralianBalletDancers
p52
aVhttp://dbpedia.org/class/yago/Ballerina109834592
p53
aVhttp://dbpedia.org/class/yago/Ballerinas
p54
aVhttp://dbpedia.org/class/yago/BalletDancer109834699
p55
aVhttp://dbpedia.org/class/yago/CausalAgent100007347
p56
aVhttp://dbpedia.org/class/yago/Dancer109989502
p57
aVhttp://dbpedia.org/class/yago/Entertainer109616922
p58
aVhttp://dbpedia.org/class/yago/LivingThing100004258
p59
aVhttp://dbpedia.org/class/yago/Object100002684
p60
aVhttp://dbpedia.org/class/yago/Organism100004475
p61
aVhttp://dbpedia.org/class/yago/Performer110415638
p62
aVhttp://dbpedia.org/class/yago/Person100007846
p63
aVhttp://dbpedia.org/class/yago/Whole100003553
p64
aVhttp://dbpedia.org/class/yago/YagoLegalActorGeo
p65
aVhttp://www.w3.org/2002/07/owl#Thing
p66
aVhttp://xmlns.com/foaf/0.1/Person
p67
aVhttp://dbpedia.org/ontology/Person
p68
aVhttp://www.ontologydesignpatterns.org/ont/dul/DUL.owl#Agent
p69
aVhttp://www.ontologydesignpatterns.org/ont/dul/DUL.owl#NaturalPerson
p70
aVhttp://www.wikidata.org/entity/Q215627
p71
aVhttp://www.wikidata.org/entity/Q5
p72
aVhttp://dbpedia.org/ontology/Agent
p73
aVhttp://schema.org/Person
p74
aVhttp://dbpedia.org/class/yago/PeopleFromNewcastle,NewSouthWales
p75
aVhttp://dbpedia.org/class/yago/YagoLegalActor
p76
aVhttp://dbpedia.org/class/yago/LivingPeople
p77
aVhttp://dbpedia.org/class/yago/PhysicalEntity100001930
p78
aVhttp://dbpedia.org/resource/Stephanie_Williams_(dancer)
tp79
aa(lp80
aa(lp81
(lp82
a(lp83
aa(lp84
(lp85
((lp86
Vhttp://dbpedia.org/class/yago/CausalAgent100007347
p87
aVhttp://dbpedia.org/class/yago/Contestant109613191
p88
aVhttp://dbpedia.org/class/yago/Golfer110136959
p89
aVhttp://dbpedia.org/class/yago/LivingThing100004258
p90
aVhttp://dbpedia.org/class/yago/Object100002684
p91
aVhttp://dbpedia.org/class/yago/Organism100004475
p92
aVhttp://dbpedia.org/class/yago/Person100007846
p93
aVhttp://dbpedia.org/class/yago/Player110439851
p94
aVhttp://dbpedia.org/class/yago/Whole100003553
p95
aVhttp://dbpedia.org/class/yago/YagoLegalActorGeo
p96
aVhttp://www.w3.org/2002/07/owl#Thing
p97
aVhttp://xmlns.com/foaf/0.1/Person
p98
aVhttp://dbpedia.org/ontology/Person
p99
aVhttp://www.ontologydesignpatterns.org/ont/dul/DUL.owl#Agent
p100
aVhttp://www.ontologydesignpatterns.org/ont/dul/DUL.owl#NaturalPerson
p101
aVhttp://www.wikidata.org/entity/Q13156709
p102
aVhttp://www.wikidata.org/entity/Q215627
p103
aVhttp://www.wikidata.org/entity/Q5
p104
aVhttp://dbpedia.org/ontology/Agent
p105
aVhttp://dbpedia.org/ontology/Athlete
p106
aVhttp://dbpedia.org/ontology/GolfPlayer
p107
aVhttp://schema.org/Person
p108
aVhttp://dbpedia.org/class/yago/YagoLegalActor
p109
aVhttp://dbpedia.org/class/yago/JapanGolfTourGolfers
p110
aVhttp://dbpedia.org/class/yago/JapaneseGolfers
p111
aVhttp://dbpedia.org/class/yago/LivingPeople
p112
aVhttp://dbpedia.org/class/yago/PhysicalEntity100001930
p113
aVhttp://dbpedia.org/resource/Yoshitaka_Yamamoto
tp114
aa(lp115
aa(lp116
(lp117
a(lp118
aa(lp119
(lp120
a(lp121
aa(lp122
(lp123
a(lp124
aa(lp125
(lp126
a(lp127
aa(lp128
(lp129
a(lp130
aa(lp131
(lp132
a(lp133
aa(lp134
(lp135
a(lp136
aa(lp137
(lp138
a(lp139
aa(lp140
(lp141
a(lp142
aa(lp143
(lp144
a(lp145
aa(lp146
(lp147
((lp148
Vhttp://dbpedia.org/class/yago/CausalAgent100007347
p149
aVhttp://dbpedia.org/class/yago/LivingThing100004258
p150
aVhttp://dbpedia.org/class/yago/Object100002684
p151
aVhttp://dbpedia.org/class/yago/Organism100004475
p152
aVhttp://dbpedia.org/class/yago/Person100007846
p153
aVhttp://dbpedia.org/class/yago/Whole100003553
p154
aVhttp://dbpedia.org/class/yago/YagoLegalActorGeo
p155
aVhttp://www.w3.org/2002/07/owl#Thing
p156
aVhttp://xmlns.com/foaf/0.1/Person
p157
aVhttp://dbpedia.org/ontology/Person
p158
aVhttp://www.ontologydesignpatterns.org/ont/dul/DUL.owl#Agent
p159
aVhttp://www.ontologydesignpatterns.org/ont/dul/DUL.owl#NaturalPerson
p160
aVhttp://www.wikidata.org/entity/Q215627
p161
aVhttp://www.wikidata.org/entity/Q5
p162
aVhttp://dbpedia.org/ontology/Agent
p163
aVhttp://schema.org/Person
p164
aVhttp://dbpedia.org/class/yago/PeopleFromTheCantonOfZurich
p165
aVhttp://dbpedia.org/class/yago/YagoLegalActor
p166
aVhttp://dbpedia.org/class/yago/PhysicalEntity100001930
p167
aVhttp://dbpedia.org/resource/Jean-Jacques_Keller
p168
tp169
aa(lp170
aa.