(lp1
(lp2
(lp3
a(lp4
a(lp5
Vhttp://dbpedia.org/resource/Thunderbolt_(1925_roller_coaster)
p6
aaa(lp7
(lp8
a(lp9
a(lp10
Vhttp://dbpedia.org/resource/Thunderbolt_(Six_Flags_New_England)
p11
aaa(lp12
(lp13
a(lp14
a(lp15
Vhttp://dbpedia.org/resource/Thunderbolt_(Dreamworld)
p16
aaa(lp17
(lp18
a(lp19
a(lp20
Vhttp://dbpedia.org/resource/Thunderbolt_(Kennywood)
p21
aaa(lp22
(lp23
a(lp24
a(lp25
Vhttp://dbpedia.org/resource/Thunderbolt_(Six_Flags_New_England)
p26
aaa(lp27
(lp28
a(lp29
a(lp30
Vhttp://dbpedia.org/resource/Tower_of_Terror_II
p31
aaa(lp32
(lp33
a(lp34
a(lp35
aa(lp36
(lp37
a(lp38
a(lp39
Vhttp://dbpedia.org/resource/Vampire_(roller_coaster)
p40
aaa(lp41
(lp42
a(lp43
a(lp44
Vhttp://dbpedia.org/resource/Zodiac_(ride)
p45
aaa(lp46
(lp47
a(lp48
a(lp49
Vhttp://dbpedia.org/resource/Zombie_Evilution
p50
aaa(lp51
(lp52
a(lp53
a(lp54
Vhttp://dbpedia.org/resource/Sesame_Street_4-D_Movie_Magic
p55
aaa(lp56
(lp57
a(lp58
a(lp59
Vhttp://dbpedia.org/resource/Steel_Force
p60
aaa(lp61
(lp62
a(lp63
a(lp64
Vhttp://dbpedia.org/resource/Texas_Tornado_(roller_coaster)
p65
aaa(lp66
(lp67
a(lp68
a(lp69
Vhttp://dbpedia.org/resource/The_Flume_(Alton_Towers)
p70
aaa(lp71
(lp72
a(lp73
a(lp74
Vhttp://dbpedia.org/resource/Venetian_Gondolas
p75
aaa(lp76
(lp77
a(lp78
a(lp79
Vhttp://dbpedia.org/resource/Alpengeist
p80
aaa(lp81
(lp82
a(lp83
a(lp84
Vhttp://dbpedia.org/resource/America_Sings
p85
aaa(lp86
(lp87
a(lp88
a(lp89
Vhttp://dbpedia.org/resource/Apollo's_Chariot
p90
aaa(lp91
(lp92
a(lp93
a(lp94
Vhttp://dbpedia.org/resource/Astro_Orbiter
p95
aaa.