(lp1
(lp2
(lp3
((lVhttp://dbpedia.org/resource/Hongcun,_Anhui
tp4
aa(lp5
((lp6
Vhttp://www.w3.org/2002/07/owl#Thing
p7
aVhttp://dbpedia.org/ontology/Place
p8
aVhttp://dbpedia.org/ontology/Location
p9
aVhttp://www.wikidata.org/entity/Q9259
p10
aVhttp://dbpedia.org/ontology/WorldHeritageSite
p11
aVhttp://www.w3.org/2003/01/geo/wgs84_pos#SpatialThing
p12
aVhttp://schema.org/Place
p13
aVhttp://dbpedia.org/resource/H\u1ea1_Long_Bay
tp14
aa(lp15
((lp16
Vhttp://dbpedia.org/class/yago/Island109316454
p17
aVhttp://dbpedia.org/class/yago/Land109334396
p18
aVhttp://dbpedia.org/class/yago/Location100027167
p19
aVhttp://dbpedia.org/class/yago/Object100002684
p20
aVhttp://dbpedia.org/class/yago/Region108630985
p21
aVhttp://dbpedia.org/class/yago/Site108651247
p22
aVhttp://dbpedia.org/class/yago/Tract108673395
p23
aVhttp://dbpedia.org/class/yago/YagoGeoEntity
p24
aVhttp://dbpedia.org/class/yago/YagoLegalActorGeo
p25
aVhttp://www.w3.org/2002/07/owl#Thing
p26
aVhttp://dbpedia.org/ontology/Place
p27
aVhttp://dbpedia.org/ontology/Location
p28
aVhttp://www.wikidata.org/entity/Q9259
p29
aVhttp://dbpedia.org/ontology/WorldHeritageSite
p30
aVhttp://www.w3.org/2003/01/geo/wgs84_pos#SpatialThing
p31
aVhttp://schema.org/Place
p32
aVhttp://umbel.org/umbel/rc/Location_Underspecified
p33
aVhttp://umbel.org/umbel/rc/Place
p34
aVhttp://dbpedia.org/class/yago/YagoPermanentlyLocatedEntity
p35
aVhttp://dbpedia.org/class/yago/GeographicalArea108574314
p36
aVhttp://dbpedia.org/class/yago/IslandsOfMozambique
p37
aVhttp://dbpedia.org/class/yago/PhysicalEntity100001930
p38
aVhttp://dbpedia.org/class/yago/WorldHeritageSitesInMozambique
p39
aVhttp://dbpedia.org/resource/Island_of_Mozambique
tp40
aa(lp41
((lp42
Vhttp://dbpedia.org/class/yago/Land109334396
p43
aVhttp://dbpedia.org/class/yago/Location100027167
p44
aVhttp://dbpedia.org/class/yago/Object100002684
p45
aVhttp://dbpedia.org/class/yago/Peninsula109388848
p46
aVhttp://dbpedia.org/class/yago/Region108630985
p47
aVhttp://dbpedia.org/class/yago/Site108651247
p48
aVhttp://dbpedia.org/class/yago/Tract108673395
p49
aVhttp://dbpedia.org/class/yago/YagoGeoEntity
p50
aVhttp://dbpedia.org/class/yago/YagoLegalActorGeo
p51
aVhttp://www.w3.org/2002/07/owl#Thing
p52
aVhttp://dbpedia.org/ontology/Place
p53
aVhttp://dbpedia.org/ontology/Location
p54
aVhttp://www.wikidata.org/entity/Q9259
p55
aVhttp://dbpedia.org/ontology/WorldHeritageSite
p56
aVhttp://www.w3.org/2003/01/geo/wgs84_pos#SpatialThing
p57
aVhttp://schema.org/Place
p58
aVhttp://umbel.org/umbel/rc/Location_Underspecified
p59
aVhttp://umbel.org/umbel/rc/Place
p60
aVhttp://dbpedia.org/class/yago/YagoPermanentlyLocatedEntity
p61
aVhttp://dbpedia.org/class/yago/PeninsulasOfRussia
p62
aVhttp://dbpedia.org/class/yago/GeographicalArea108574314
p63
aVhttp://dbpedia.org/class/yago/PhysicalEntity100001930
p64
aVhttp://dbpedia.org/class/yago/WorldHeritageSitesInRussia
p65
aVhttp://dbpedia.org/resource/Kamchatka_Peninsula
tp66
aa(lp67
((lp68
Vhttp://dbpedia.org/class/yago/GeologicalFormation109287968
p69
aVhttp://dbpedia.org/class/yago/Location100027167
p70
aVhttp://dbpedia.org/class/yago/NaturalDepression109366017
p71
aVhttp://dbpedia.org/class/yago/Object100002684
p72
aVhttp://dbpedia.org/class/yago/Region108630985
p73
aVhttp://dbpedia.org/class/yago/Site108651247
p74
aVhttp://dbpedia.org/class/yago/Tract108673395
p75
aVhttp://dbpedia.org/class/yago/YagoGeoEntity
p76
aVhttp://dbpedia.org/class/yago/YagoLegalActorGeo
p77
aVhttp://www.w3.org/2002/07/owl#Thing
p78
aVhttp://dbpedia.org/ontology/Place
p79
aVhttp://dbpedia.org/ontology/Location
p80
aVhttp://www.wikidata.org/entity/Q9259
p81
aVhttp://dbpedia.org/ontology/WorldHeritageSite
p82
aVhttp://www.w3.org/2003/01/geo/wgs84_pos#SpatialThing
p83
aVhttp://schema.org/Place
p84
aVhttp://umbel.org/umbel/rc/Place
p85
aVhttp://dbpedia.org/class/yago/YagoPermanentlyLocatedEntity
p86
aVhttp://dbpedia.org/class/yago/GeographicalArea108574314
p87
aVhttp://dbpedia.org/class/yago/PhysicalEntity100001930
p88
aVhttp://dbpedia.org/class/yago/Valley109468604
p89
aVhttp://dbpedia.org/class/yago/ValleysOfNepal
p90
aVhttp://dbpedia.org/class/yago/WorldHeritageSitesInNepal
p91
aVhttp://dbpedia.org/resource/Kathmandu_Valley
tp92
aa(lp93
((lp94
Vhttp://dbpedia.org/class/yago/AdministrativeDistrict108491826
p95
aVhttp://dbpedia.org/class/yago/Artifact100021939
p96
aVhttp://dbpedia.org/class/yago/City108524735
p97
aVhttp://dbpedia.org/class/yago/District108552138
p98
aVhttp://dbpedia.org/class/yago/Location100027167
p99
aVhttp://dbpedia.org/class/yago/Memorial103743902
p100
aVhttp://dbpedia.org/class/yago/Object100002684
p101
aVhttp://dbpedia.org/class/yago/Region108630985
p102
aVhttp://dbpedia.org/class/yago/Site108651247
p103
aVhttp://dbpedia.org/class/yago/Structure104341686
p104
aVhttp://dbpedia.org/class/yago/Tract108673395
p105
aVhttp://dbpedia.org/class/yago/UrbanArea108675967
p106
aVhttp://dbpedia.org/class/yago/Whole100003553
p107
aVhttp://dbpedia.org/class/yago/YagoGeoEntity
p108
aVhttp://dbpedia.org/class/yago/YagoLegalActorGeo
p109
aVhttp://www.w3.org/2002/07/owl#Thing
p110
aVhttp://dbpedia.org/ontology/Place
p111
aVhttp://dbpedia.org/ontology/Location
p112
aVhttp://www.wikidata.org/entity/Q9259
p113
aVhttp://dbpedia.org/ontology/WorldHeritageSite
p114
aVhttp://schema.org/Place
p115
aVhttp://umbel.org/umbel/rc/Place
p116
aVhttp://dbpedia.org/class/yago/YagoPermanentlyLocatedEntity
p117
aVhttp://dbpedia.org/class/yago/MonumentsAndMemorialsInMadhyaPradesh
p118
aVhttp://dbpedia.org/class/yago/GeographicalArea108574314
p119
aVhttp://dbpedia.org/class/yago/HinduHolyCities
p120
aVhttp://dbpedia.org/class/yago/HinduWorldHeritageSites
p121
aVhttp://dbpedia.org/class/yago/Municipality108626283
p122
aVhttp://dbpedia.org/class/yago/PhysicalEntity100001930
p123
aVhttp://dbpedia.org/class/yago/WorldHeritageSitesInIndia
p124
aVhttp://dbpedia.org/resource/Khajuraho_Group_of_Monuments
tp125
aa(lp126
((lp127
Vhttp://dbpedia.org/class/yago/GeologicalFormation109287968
p128
aVhttp://dbpedia.org/class/yago/Land109334396
p129
aVhttp://dbpedia.org/class/yago/Location100027167
p130
aVhttp://dbpedia.org/class/yago/Mountain109359803
p131
aVhttp://dbpedia.org/class/yago/Object100002684
p132
aVhttp://dbpedia.org/class/yago/Peninsula109388848
p133
aVhttp://dbpedia.org/class/yago/Region108630985
p134
aVhttp://dbpedia.org/class/yago/Site108651247
p135
aVhttp://dbpedia.org/class/yago/Tract108673395
p136
aVhttp://dbpedia.org/class/yago/YagoGeoEntity
p137
aVhttp://dbpedia.org/class/yago/YagoLegalActorGeo
p138
aVhttp://www.w3.org/2002/07/owl#Thing
p139
aVhttp://dbpedia.org/ontology/Place
p140
aVhttp://dbpedia.org/ontology/Location
p141
aVhttp://www.wikidata.org/entity/Q9259
p142
aVhttp://dbpedia.org/ontology/WorldHeritageSite
p143
aVhttp://www.w3.org/2003/01/geo/wgs84_pos#SpatialThing
p144
aVhttp://schema.org/Place
p145
aVhttp://umbel.org/umbel/rc/Place
p146
aVhttp://dbpedia.org/class/yago/YagoPermanentlyLocatedEntity
p147
aVhttp://dbpedia.org/class/yago/MountainsOfMauritius
p148
aVhttp://dbpedia.org/class/yago/PeninsulasOfAfrica
p149
aVhttp://dbpedia.org/class/yago/GeographicalArea108574314
p150
aVhttp://dbpedia.org/class/yago/NaturalElevation109366317
p151
aVhttp://dbpedia.org/class/yago/PhysicalEntity100001930
p152
aVhttp://dbpedia.org/class/yago/WorldHeritageSitesInMauritius
p153
aVhttp://dbpedia.org/resource/Le_Morne_Brabant
tp154
aa(lp155
((lp156
Vhttp://dbpedia.org/class/yago/ArchaeologicalSitesInMalaysia
p157
aVhttp://dbpedia.org/class/yago/Location100027167
p158
aVhttp://dbpedia.org/class/yago/Object100002684
p159
aVhttp://dbpedia.org/class/yago/Region108630985
p160
aVhttp://dbpedia.org/class/yago/Site108651247
p161
aVhttp://dbpedia.org/class/yago/Tract108673395
p162
aVhttp://dbpedia.org/class/yago/YagoGeoEntity
p163
aVhttp://dbpedia.org/class/yago/YagoLegalActorGeo
p164
aVhttp://dbpedia.org/class/yago/PopulatedPlacesInPerak
p165
aVhttp://www.w3.org/2002/07/owl#Thing
p166
aVhttp://dbpedia.org/ontology/Place
p167
aVhttp://dbpedia.org/ontology/Location
p168
aVhttp://www.wikidata.org/entity/Q9259
p169
aVhttp://dbpedia.org/ontology/WorldHeritageSite
p170
aVhttp://www.w3.org/2003/01/geo/wgs84_pos#SpatialThing
p171
aVhttp://schema.org/Place
p172
aVhttp://dbpedia.org/class/yago/YagoPermanentlyLocatedEntity
p173
aVhttp://dbpedia.org/class/yago/GeographicalArea108574314
p174
aVhttp://dbpedia.org/class/yago/PhysicalEntity100001930
p175
aVhttp://dbpedia.org/resource/Lenggong
tp176
aa(lp177
((lp178
Vhttp://dbpedia.org/class/yago/Location100027167
p179
aVhttp://dbpedia.org/class/yago/Object100002684
p180
aVhttp://dbpedia.org/class/yago/Park108615149
p181
aVhttp://dbpedia.org/class/yago/Region108630985
p182
aVhttp://dbpedia.org/class/yago/Site108651247
p183
aVhttp://dbpedia.org/class/yago/Tract108673395
p184
aVhttp://dbpedia.org/class/yago/YagoGeoEntity
p185
aVhttp://dbpedia.org/class/yago/YagoLegalActorGeo
p186
aVhttp://www.w3.org/2002/07/owl#Thing
p187
aVhttp://dbpedia.org/ontology/Place
p188
aVhttp://dbpedia.org/ontology/Location
p189
aVhttp://www.wikidata.org/entity/Q9259
p190
aVhttp://dbpedia.org/ontology/WorldHeritageSite
p191
aVhttp://www.w3.org/2003/01/geo/wgs84_pos#SpatialThing
p192
aVhttp://schema.org/Place
p193
aVhttp://umbel.org/umbel/rc/Place
p194
aVhttp://dbpedia.org/class/yago/YagoPermanentlyLocatedEntity
p195
aVhttp://dbpedia.org/class/yago/NationalPark108600992
p196
aVhttp://dbpedia.org/class/yago/NationalParksOfZimbabwe
p197
aVhttp://dbpedia.org/class/yago/GeographicalArea108574314
p198
aVhttp://dbpedia.org/class/yago/PhysicalEntity100001930
p199
aVhttp://dbpedia.org/class/yago/WorldHeritageSitesInZimbabwe
p200
aVhttp://dbpedia.org/resource/Mana_Pools
tp201
aa(lp202
((lp203
Vhttp://dbpedia.org/class/yago/Artifact100021939
p204
aVhttp://dbpedia.org/class/yago/Building102913152
p205
aVhttp://dbpedia.org/class/yago/BuildingsAndStructuresInGh%C5%8DrProvince
p206
aVhttp://dbpedia.org/class/yago/Object100002684
p207
aVhttp://dbpedia.org/class/yago/Structure104341686
p208
aVhttp://dbpedia.org/class/yago/Whole100003553
p209
aVhttp://dbpedia.org/class/yago/YagoGeoEntity
p210
aVhttp://www.w3.org/2002/07/owl#Thing
p211
aVhttp://dbpedia.org/ontology/Place
p212
aVhttp://dbpedia.org/ontology/Location
p213
aVhttp://www.wikidata.org/entity/Q9259
p214
aVhttp://dbpedia.org/ontology/WorldHeritageSite
p215
aVhttp://www.w3.org/2003/01/geo/wgs84_pos#SpatialThing
p216
aVhttp://schema.org/Place
p217
aVhttp://umbel.org/umbel/rc/Place
p218
aVhttp://dbpedia.org/class/yago/YagoPermanentlyLocatedEntity
p219
aVhttp://dbpedia.org/class/yago/PhysicalEntity100001930
p220
aVhttp://dbpedia.org/resource/Minaret_of_Jam
tp221
aa(lp222
((lp223
Vhttp://dbpedia.org/class/yago/ArchaeologicalSitesInBangladesh
p224
aVhttp://dbpedia.org/class/yago/Location100027167
p225
aVhttp://dbpedia.org/class/yago/Object100002684
p226
aVhttp://dbpedia.org/class/yago/Region108630985
p227
aVhttp://dbpedia.org/class/yago/Site108651247
p228
aVhttp://dbpedia.org/class/yago/Tract108673395
p229
aVhttp://dbpedia.org/class/yago/YagoGeoEntity
p230
aVhttp://dbpedia.org/class/yago/YagoLegalActorGeo
p231
aVhttp://www.w3.org/2002/07/owl#Thing
p232
aVhttp://dbpedia.org/ontology/Place
p233
aVhttp://dbpedia.org/ontology/Location
p234
aVhttp://www.wikidata.org/entity/Q9259
p235
aVhttp://dbpedia.org/ontology/WorldHeritageSite
p236
aVhttp://www.w3.org/2003/01/geo/wgs84_pos#SpatialThing
p237
aVhttp://schema.org/Place
p238
aVhttp://dbpedia.org/class/yago/YagoPermanentlyLocatedEntity
p239
aVhttp://dbpedia.org/class/yago/PopulatedPlacesEstablishedInThe15thCentury
p240
aVhttp://dbpedia.org/class/yago/GeographicalArea108574314
p241
aVhttp://dbpedia.org/class/yago/PhysicalEntity100001930
p242
aVhttp://dbpedia.org/class/yago/WorldHeritageSitesInBangladesh
p243
aVhttp://dbpedia.org/resource/Mosque_City_of_Bagerhat
tp244
aa(lp245
((lp246
Vhttp://dbpedia.org/class/yago/GeologicalFormation109287968
p247
aVhttp://dbpedia.org/class/yago/Location100027167
p248
aVhttp://dbpedia.org/class/yago/Mountain109359803
p249
aVhttp://dbpedia.org/class/yago/Object100002684
p250
aVhttp://dbpedia.org/class/yago/Region108630985
p251
aVhttp://dbpedia.org/class/yago/Site108651247
p252
aVhttp://dbpedia.org/class/yago/Tract108673395
p253
aVhttp://dbpedia.org/class/yago/YagoGeoEntity
p254
aVhttp://dbpedia.org/class/yago/YagoLegalActorGeo
p255
aVhttp://www.w3.org/2002/07/owl#Thing
p256
aVhttp://dbpedia.org/ontology/Place
p257
aVhttp://dbpedia.org/ontology/Location
p258
aVhttp://www.wikidata.org/entity/Q9259
p259
aVhttp://dbpedia.org/ontology/WorldHeritageSite
p260
aVhttp://www.w3.org/2003/01/geo/wgs84_pos#SpatialThing
p261
aVhttp://schema.org/Place
p262
aVhttp://dbpedia.org/class/yago/YagoPermanentlyLocatedEntity
p263
aVhttp://dbpedia.org/class/yago/MountainsOfWakayamaPrefecture
p264
aVhttp://dbpedia.org/class/yago/GeographicalArea108574314
p265
aVhttp://dbpedia.org/class/yago/NaturalElevation109366317
p266
aVhttp://dbpedia.org/class/yago/PhysicalEntity100001930
p267
aVhttp://dbpedia.org/class/yago/WorldHeritageSitesInJapan
p268
aVhttp://dbpedia.org/resource/Mount_K\u014dya
tp269
aa(lp270
((lp271
Vhttp://dbpedia.org/class/yago/GeologicalFormation109287968
p272
aVhttp://dbpedia.org/class/yago/Location100027167
p273
aVhttp://dbpedia.org/class/yago/Mountain109359803
p274
aVhttp://dbpedia.org/class/yago/Object100002684
p275
aVhttp://dbpedia.org/class/yago/Park108615149
p276
aVhttp://dbpedia.org/class/yago/Region108630985
p277
aVhttp://dbpedia.org/class/yago/Site108651247
p278
aVhttp://dbpedia.org/class/yago/Tract108673395
p279
aVhttp://dbpedia.org/class/yago/YagoGeoEntity
p280
aVhttp://dbpedia.org/class/yago/YagoLegalActorGeo
p281
aVhttp://www.w3.org/2002/07/owl#Thing
p282
aVhttp://dbpedia.org/ontology/Place
p283
aVhttp://dbpedia.org/ontology/Location
p284
aVhttp://www.wikidata.org/entity/Q9259
p285
aVhttp://dbpedia.org/ontology/WorldHeritageSite
p286
aVhttp://www.w3.org/2003/01/geo/wgs84_pos#SpatialThing
p287
aVhttp://schema.org/Place
p288
aVhttp://umbel.org/umbel/rc/Place
p289
aVhttp://dbpedia.org/class/yago/YagoPermanentlyLocatedEntity
p290
aVhttp://dbpedia.org/class/yago/MountainsOfChina
p291
aVhttp://dbpedia.org/class/yago/NationalPark108600992
p292
aVhttp://dbpedia.org/class/yago/NationalParksOfChina
p293
aVhttp://dbpedia.org/class/yago/GeographicalArea108574314
p294
aVhttp://dbpedia.org/class/yago/NaturalElevation109366317
p295
aVhttp://dbpedia.org/class/yago/PhysicalEntity100001930
p296
aVhttp://dbpedia.org/class/yago/WorldHeritageSitesInChina
p297
aVhttp://dbpedia.org/resource/Mount_Lu
tp298
aa(lp299
((lp300
Vhttp://dbpedia.org/class/yago/GeologicalFormation109287968
p301
aVhttp://dbpedia.org/class/yago/Location100027167
p302
aVhttp://dbpedia.org/class/yago/Mountain109359803
p303
aVhttp://dbpedia.org/class/yago/Object100002684
p304
aVhttp://dbpedia.org/class/yago/Park108615149
p305
aVhttp://dbpedia.org/class/yago/Region108630985
p306
aVhttp://dbpedia.org/class/yago/Site108651247
p307
aVhttp://dbpedia.org/class/yago/Tract108673395
p308
aVhttp://dbpedia.org/class/yago/YagoGeoEntity
p309
aVhttp://dbpedia.org/class/yago/YagoLegalActorGeo
p310
aVhttp://dbpedia.org/class/yago/SacredMountains
p311
aVhttp://www.w3.org/2002/07/owl#Thing
p312
aVhttp://dbpedia.org/ontology/Place
p313
aVhttp://dbpedia.org/ontology/Location
p314
aVhttp://www.wikidata.org/entity/Q9259
p315
aVhttp://dbpedia.org/ontology/WorldHeritageSite
p316
aVhttp://www.w3.org/2003/01/geo/wgs84_pos#SpatialThing
p317
aVhttp://schema.org/Place
p318
aVhttp://umbel.org/umbel/rc/Place
p319
aVhttp://dbpedia.org/class/yago/YagoPermanentlyLocatedEntity
p320
aVhttp://dbpedia.org/class/yago/MountainsOfChina
p321
aVhttp://dbpedia.org/class/yago/NationalPark108600992
p322
aVhttp://dbpedia.org/class/yago/NationalParksOfChina
p323
aVhttp://dbpedia.org/class/yago/GeographicalArea108574314
p324
aVhttp://dbpedia.org/class/yago/NaturalElevation109366317
p325
aVhttp://dbpedia.org/class/yago/PhysicalEntity100001930
p326
aVhttp://dbpedia.org/class/yago/WorldHeritageSitesInChina
p327
aVhttp://dbpedia.org/resource/Mount_Qingcheng
tp328
aa(lp329
((lp330
Vhttp://dbpedia.org/class/yago/ArchaeologicalSitesInIndonesia
p331
aVhttp://dbpedia.org/class/yago/Location100027167
p332
aVhttp://dbpedia.org/class/yago/Object100002684
p333
aVhttp://dbpedia.org/class/yago/Region108630985
p334
aVhttp://dbpedia.org/class/yago/Site108651247
p335
aVhttp://dbpedia.org/class/yago/Tract108673395
p336
aVhttp://dbpedia.org/class/yago/YagoGeoEntity
p337
aVhttp://dbpedia.org/class/yago/YagoLegalActorGeo
p338
aVhttp://www.w3.org/2002/07/owl#Thing
p339
aVhttp://dbpedia.org/ontology/Place
p340
aVhttp://dbpedia.org/ontology/Location
p341
aVhttp://www.wikidata.org/entity/Q9259
p342
aVhttp://dbpedia.org/ontology/WorldHeritageSite
p343
aVhttp://www.w3.org/2003/01/geo/wgs84_pos#SpatialThing
p344
aVhttp://schema.org/Place
p345
aVhttp://umbel.org/umbel/rc/Place
p346
aVhttp://dbpedia.org/class/yago/YagoPermanentlyLocatedEntity
p347
aVhttp://dbpedia.org/class/yago/GeographicalArea108574314
p348
aVhttp://dbpedia.org/class/yago/HinduWorldHeritageSites
p349
aVhttp://dbpedia.org/class/yago/PhysicalEntity100001930
p350
aVhttp://dbpedia.org/class/yago/WorldHeritageSitesInIndonesia
p351
aVhttp://dbpedia.org/resource/Prambanan
tp352
aa(lp353
((lp354
Vhttp://dbpedia.org/class/yago/ArchaeologicalSitesInCambodia
p355
aVhttp://dbpedia.org/class/yago/District108552138
p356
aVhttp://dbpedia.org/class/yago/Location100027167
p357
aVhttp://dbpedia.org/class/yago/Object100002684
p358
aVhttp://dbpedia.org/class/yago/Region108630985
p359
aVhttp://dbpedia.org/class/yago/Site108651247
p360
aVhttp://dbpedia.org/class/yago/Tract108673395
p361
aVhttp://dbpedia.org/class/yago/YagoGeoEntity
p362
aVhttp://dbpedia.org/class/yago/YagoLegalActorGeo
p363
aVhttp://www.w3.org/2002/07/owl#Thing
p364
aVhttp://dbpedia.org/ontology/Place
p365
aVhttp://dbpedia.org/ontology/Location
p366
aVhttp://www.wikidata.org/entity/Q9259
p367
aVhttp://dbpedia.org/ontology/WorldHeritageSite
p368
aVhttp://schema.org/Place
p369
aVhttp://umbel.org/umbel/rc/Place
p370
aVhttp://dbpedia.org/class/yago/DisputedTerritoriesInAsia
p371
aVhttp://dbpedia.org/class/yago/YagoPermanentlyLocatedEntity
p372
aVhttp://dbpedia.org/class/yago/GeographicalArea108574314
p373
aVhttp://dbpedia.org/class/yago/PhysicalEntity100001930
p374
aVhttp://dbpedia.org/class/yago/WorldHeritageSitesInCambodia
p375
aVhttp://dbpedia.org/resource/Preah_Vihear_Temple
tp376
aa(lp377
((lp378
Vhttp://dbpedia.org/class/yago/Artifact100021939
p379
aVhttp://dbpedia.org/class/yago/Building102913152
p380
aVhttp://dbpedia.org/class/yago/BuildingsAndStructuresInDelhi
p381
aVhttp://dbpedia.org/class/yago/Mosque103788195
p382
aVhttp://dbpedia.org/class/yago/Object100002684
p383
aVhttp://dbpedia.org/class/yago/PlaceOfWorship103953416
p384
aVhttp://dbpedia.org/class/yago/Structure104341686
p385
aVhttp://dbpedia.org/class/yago/Whole100003553
p386
aVhttp://dbpedia.org/class/yago/YagoGeoEntity
p387
aVhttp://www.w3.org/2002/07/owl#Thing
p388
aVhttp://dbpedia.org/ontology/Place
p389
aVhttp://dbpedia.org/ontology/Location
p390
aVhttp://www.wikidata.org/entity/Q9259
p391
aVhttp://dbpedia.org/ontology/WorldHeritageSite
p392
aVhttp://www.w3.org/2003/01/geo/wgs84_pos#SpatialThing
p393
aVhttp://schema.org/Place
p394
aVhttp://umbel.org/umbel/rc/Place
p395
aVhttp://dbpedia.org/class/yago/YagoPermanentlyLocatedEntity
p396
aVhttp://dbpedia.org/class/yago/MosquesInIndia
p397
aVhttp://dbpedia.org/class/yago/PhysicalEntity100001930
p398
aVhttp://dbpedia.org/resource/Qutb_complex
tp399
aa(lp400
((lp401
Vhttp://dbpedia.org/class/yago/Location100027167
p402
aVhttp://dbpedia.org/class/yago/Object100002684
p403
aVhttp://dbpedia.org/class/yago/Region108630985
p404
aVhttp://dbpedia.org/class/yago/Site108651247
p405
aVhttp://dbpedia.org/class/yago/Tract108673395
p406
aVhttp://dbpedia.org/class/yago/YagoGeoEntity
p407
aVhttp://dbpedia.org/class/yago/YagoLegalActorGeo
p408
aVhttp://www.w3.org/2002/07/owl#Thing
p409
aVhttp://dbpedia.org/ontology/Place
p410
aVhttp://dbpedia.org/ontology/Location
p411
aVhttp://www.wikidata.org/entity/Q9259
p412
aVhttp://dbpedia.org/ontology/WorldHeritageSite
p413
aVhttp://www.w3.org/2003/01/geo/wgs84_pos#SpatialThing
p414
aVhttp://schema.org/Place
p415
aVhttp://umbel.org/umbel/rc/Place
p416
aVhttp://dbpedia.org/class/yago/YagoPermanentlyLocatedEntity
p417
aVhttp://dbpedia.org/class/yago/OligocenePaleontologicalSitesOfAustralia
p418
aVhttp://dbpedia.org/class/yago/GeographicalArea108574314
p419
aVhttp://dbpedia.org/class/yago/MiocenePaleontologicalSitesOfAustralia
p420
aVhttp://dbpedia.org/class/yago/PhysicalEntity100001930
p421
aVhttp://dbpedia.org/class/yago/WorldHeritageSitesInAustralia
p422
aVhttp://dbpedia.org/resource/Riversleigh
tp423
aa(lp424
((lp425
Vhttp://dbpedia.org/class/yago/ArchaeologicalSitesInPakistan
p426
aVhttp://dbpedia.org/class/yago/Artifact100021939
p427
aVhttp://dbpedia.org/class/yago/Facility103315023
p428
aVhttp://dbpedia.org/class/yago/Garrison103420559
p429
aVhttp://dbpedia.org/class/yago/Location100027167
p430
aVhttp://dbpedia.org/class/yago/MilitaryInstallation103763133
p431
aVhttp://dbpedia.org/class/yago/Object100002684
p432
aVhttp://dbpedia.org/class/yago/Region108630985
p433
aVhttp://dbpedia.org/class/yago/Site108651247
p434
aVhttp://dbpedia.org/class/yago/Tract108673395
p435
aVhttp://dbpedia.org/class/yago/Whole100003553
p436
aVhttp://dbpedia.org/class/yago/YagoGeoEntity
p437
aVhttp://dbpedia.org/class/yago/YagoLegalActorGeo
p438
aVhttp://www.w3.org/2002/07/owl#Thing
p439
aVhttp://dbpedia.org/ontology/Place
p440
aVhttp://dbpedia.org/ontology/Location
p441
aVhttp://www.wikidata.org/entity/Q9259
p442
aVhttp://dbpedia.org/ontology/WorldHeritageSite
p443
aVhttp://www.w3.org/2003/01/geo/wgs84_pos#SpatialThing
p444
aVhttp://schema.org/Place
p445
aVhttp://umbel.org/umbel/rc/Place
p446
aVhttp://dbpedia.org/class/yago/FortsInPakistan
p447
aVhttp://dbpedia.org/class/yago/YagoPermanentlyLocatedEntity
p448
aVhttp://dbpedia.org/class/yago/GeographicalArea108574314
p449
aVhttp://dbpedia.org/class/yago/MilitaryPost103763403
p450
aVhttp://dbpedia.org/class/yago/PhysicalEntity100001930
p451
aVhttp://dbpedia.org/resource/Rohtas_Fort
p452
tp453
aaa.