ccollections
defaultdict
p1
(c__builtin__
dict
p2
tRp3
I10
(dp4
I0
(lp5
sI2
(lp6
Vhttp://dbpedia.org/ontology/wikiPageExternalLink
p7
asI3
(lp8
ssI12
(dp9
I0
(lp10
sI2
(lp11
sI3
(lp12
ssI18
(dp13
I0
(lp14
sI2
(lp15
Vhttp://dbpedia.org/ontology/wikiPageExternalLink
p16
asI3
(lp17
ss.