(lp1
(lp2
(lp3
a(lp4
a(lp5
a(lp6
a(lp7
Vhttp://dbpedia.org/resource/Anchar_Lake
p8
aa(lp9
Vhttp://dbpedia.org/resource/Anderson's_Cove
p10
aa(lp11
Vhttp://dbpedia.org/resource/Angara_River
p12
aa(lp13
Vhttp://dbpedia.org/resource/Angelo_Rizzo
p14
aa(lp15
Vhttp://dbpedia.org/resource/Anglesea_River
p16
aa(lp17
Vhttp://dbpedia.org/resource/Angove_River
p18
aa(lp19
a(lp20
Vhttp://dbpedia.org/resource/Anuy_River
p21
aa(lp22
Vhttp://dbpedia.org/resource/Aorere_River
p23
aa(lp24
Vhttp://dbpedia.org/resource/Arahura_River
p25
aa(lp26
Vhttp://dbpedia.org/resource/Araluen_Creek
p27
aa(lp28
a(lp29
a(lp30
Vhttp://dbpedia.org/resource/Arawhata_River
p31
aa(lp32
aa.