(lp1
(lp2
(lp3
a(lp4
Vhttp://dbpedia.org/resource/Yamaha_FZR600
p5
aa(lp6
aa(lp7
(lp8
a(lp9
Vhttp://dbpedia.org/resource/Honda_CB450
p10
aa(lp11
aa(lp12
(lp13
a(lp14
a(lp15
aa(lp16
(lp17
a(lp18
Vhttp://dbpedia.org/resource/Bajaj_CT_100
p19
aa(lp20
aa(lp21
(lp22
a(lp23
Vhttp://dbpedia.org/resource/Hero_Honda_Passion
p24
aa(lp25
aa(lp26
(lp27
a(lp28
Vhttp://dbpedia.org/resource/Honda_CT90
p29
aa(lp30
aa(lp31
(lp32
a(lp33
Vhttp://dbpedia.org/resource/Suzuki_SV1000
p34
aa(lp35
aa(lp36
(lp37
a(lp38
Vhttp://dbpedia.org/resource/Yamaha_XS400
p39
aa(lp40
aa(lp41
(lp42
a(lp43
a(lp44
aa(lp45
(lp46
a(lp47
Vhttp://dbpedia.org/resource/Lambretta_TV200
p48
aa(lp49
aa(lp50
(lp51
a(lp52
Vhttp://dbpedia.org/resource/Ducati_916
p53
aa(lp54
aa(lp55
(lp56
a(lp57
Vhttp://dbpedia.org/resource/Kawasaki_Vulcan_800_Drifter
p58
aa(lp59
aa(lp60
(lp61
a(lp62
Vhttp://dbpedia.org/resource/Kawasaki_ZXR400
p63
aa(lp64
aa(lp65
(lp66
a(lp67
Vhttp://dbpedia.org/resource/Triumph_Tour
p68
aa(lp69
aa(lp70
(lp71
a(lp72
Vhttp://dbpedia.org/resource/Suzuki_T20
p73
aa(lp74
aa(lp75
(lp76
a(lp77
Vhttp://dbpedia.org/resource/Yamaha_SDR_200
p78
aa(lp79
aa(lp80
(lp81
a(lp82
a(lp83
aa(lp84
(lp85
a(lp86
Vhttp://dbpedia.org/resource/Bajaj_Spirit
p87
aa(lp88
aa(lp89
(lp90
a(lp91
Vhttp://dbpedia.org/resource/Velocette_KSS
p92
aa(lp93
aa.