(lp1
(lp2
(lp3
Vhttp://dbpedia.org/resource/Acratopotes
p4
aa(lp5
Vhttp://dbpedia.org/resource/Anthus_(mythology)
p6
aa(lp7
Vhttp://dbpedia.org/resource/Ectenes
p8
aa(lp9
a(lp10
Vhttp://dbpedia.org/resource/Peristhenes
p11
aa(lp12
a(lp13
a(lp14
Vhttp://dbpedia.org/resource/Stygne
p15
aa(lp16
Vhttp://dbpedia.org/resource/Bisaltes
p17
aa(lp18
Vhttp://dbpedia.org/resource/Autarieus
p19
aa(lp20
Vhttp://dbpedia.org/resource/Enchelus
p21
aa(lp22
Vhttp://dbpedia.org/resource/Perrhaebus
p23
aa(lp24
a(lp25
Vhttp://dbpedia.org/resource/Krotos
p26
aa(lp27
a(lp28
a(lp29
Vhttp://dbpedia.org/resource/Arestor
p30
aa(lp31
Vhttp://dbpedia.org/resource/Cynosarges
p32
aa(lp33
Vhttp://dbpedia.org/resource/Glaucippe
p34
aaa.