(lp1
(lp2
(lp3
((lp4
Vhttp://dbpedia.org/class/yago/AdministrativeDistrict108491826
p5
aVhttp://dbpedia.org/class/yago/District108552138
p6
aVhttp://dbpedia.org/class/yago/Location100027167
p7
aVhttp://dbpedia.org/class/yago/Object100002684
p8
aVhttp://dbpedia.org/class/yago/Region108630985
p9
aVhttp://dbpedia.org/class/yago/Site108651247
p10
aVhttp://dbpedia.org/class/yago/Town108665504
p11
aVhttp://dbpedia.org/class/yago/Tract108673395
p12
aVhttp://dbpedia.org/class/yago/UrbanArea108675967
p13
aVhttp://dbpedia.org/class/yago/YagoGeoEntity
p14
aVhttp://dbpedia.org/class/yago/YagoLegalActorGeo
p15
aVhttp://www.w3.org/2002/07/owl#Thing
p16
aVhttp://dbpedia.org/ontology/Place
p17
aVhttp://dbpedia.org/ontology/Location
p18
aVhttp://www.wikidata.org/entity/Q3957
p19
aVhttp://www.wikidata.org/entity/Q486972
p20
aVhttp://dbpedia.org/ontology/PopulatedPlace
p21
aVhttp://dbpedia.org/ontology/Settlement
p22
aVhttp://dbpedia.org/ontology/Town
p23
aVhttp://www.w3.org/2003/01/geo/wgs84_pos#SpatialThing
p24
aVhttp://schema.org/Place
p25
aVhttp://umbel.org/umbel/rc/Town
p26
aVhttp://dbpedia.org/class/yago/YagoPermanentlyLocatedEntity
p27
aVhttp://dbpedia.org/class/yago/PopulatedCoastalPlacesInMassachusetts
p28
aVhttp://dbpedia.org/class/yago/PopulatedPlacesEstablishedInThe1650s
p29
aVhttp://dbpedia.org/class/yago/GeographicalArea108574314
p30
aVhttp://dbpedia.org/class/yago/Municipality108626283
p31
aVhttp://dbpedia.org/class/yago/PhysicalEntity100001930
p32
aVhttp://dbpedia.org/class/yago/TownsInBristolCounty,Massachusetts
p33
aVhttp://dbpedia.org/resource/Dartmouth,_Massachusetts
tp34
aa(lp35
((lp36
Vhttp://dbpedia.org/class/yago/Artifact100021939
p37
aVhttp://dbpedia.org/class/yago/Establishment103297735
p38
aVhttp://dbpedia.org/class/yago/Landmark108624891
p39
aVhttp://dbpedia.org/class/yago/Location100027167
p40
aVhttp://dbpedia.org/class/yago/MercantileEstablishment103748162
p41
aVhttp://dbpedia.org/class/yago/Object100002684
p42
aVhttp://dbpedia.org/class/yago/Point108620061
p43
aVhttp://dbpedia.org/class/yago/Position108621598
p44
aVhttp://dbpedia.org/class/yago/Structure104341686
p45
aVhttp://dbpedia.org/class/yago/Whole100003553
p46
aVhttp://dbpedia.org/class/yago/YagoGeoEntity
p47
aVhttp://dbpedia.org/class/yago/YagoLegalActorGeo
p48
aVhttp://dbpedia.org/class/yago/ShoppingMallsInMyrtleBeach,SouthCarolina
p49
aVhttp://dbpedia.org/class/yago/ShoppingMallsInSouthCarolina
p50
aVhttp://www.w3.org/2002/07/owl#Thing
p51
aVhttp://dbpedia.org/ontology/Place
p52
aVhttp://dbpedia.org/ontology/Location
p53
aVhttp://www.wikidata.org/entity/Q11315
p54
aVhttp://www.wikidata.org/entity/Q41176
p55
aVhttp://dbpedia.org/ontology/ArchitecturalStructure
p56
aVhttp://dbpedia.org/ontology/Building
p57
aVhttp://dbpedia.org/ontology/ShoppingMall
p58
aVhttp://www.w3.org/2003/01/geo/wgs84_pos#SpatialThing
p59
aVhttp://schema.org/Place
p60
aVhttp://schema.org/ShoppingCenter
p61
aVhttp://dbpedia.org/class/yago/YagoPermanentlyLocatedEntity
p62
aVhttp://dbpedia.org/class/yago/Plaza103965456
p63
aVhttp://dbpedia.org/class/yago/LandmarksInSouthCarolina
p64
aVhttp://dbpedia.org/class/yago/PhysicalEntity100001930
p65
aVhttp://dbpedia.org/class/yago/PlaceOfBusiness103953020
p66
aVhttp://dbpedia.org/resource/Broadway_at_the_Beach
tp67
aa(lp68
((lp69
Vhttp://dbpedia.org/class/yago/Artifact100021939
p70
aVhttp://dbpedia.org/class/yago/Establishment103297735
p71
aVhttp://dbpedia.org/class/yago/MercantileEstablishment103748162
p72
aVhttp://dbpedia.org/class/yago/Object100002684
p73
aVhttp://dbpedia.org/class/yago/Structure104341686
p74
aVhttp://dbpedia.org/class/yago/Whole100003553
p75
aVhttp://dbpedia.org/class/yago/YagoGeoEntity
p76
aVhttp://dbpedia.org/class/yago/ShoppingCentresInQueensland
p77
aVhttp://www.w3.org/2002/07/owl#Thing
p78
aVhttp://dbpedia.org/ontology/Place
p79
aVhttp://dbpedia.org/ontology/Location
p80
aVhttp://www.wikidata.org/entity/Q11315
p81
aVhttp://www.wikidata.org/entity/Q41176
p82
aVhttp://dbpedia.org/ontology/ArchitecturalStructure
p83
aVhttp://dbpedia.org/ontology/Building
p84
aVhttp://dbpedia.org/ontology/ShoppingMall
p85
aVhttp://www.w3.org/2003/01/geo/wgs84_pos#SpatialThing
p86
aVhttp://schema.org/Place
p87
aVhttp://schema.org/ShoppingCenter
p88
aVhttp://dbpedia.org/class/yago/YagoPermanentlyLocatedEntity
p89
aVhttp://dbpedia.org/class/yago/Plaza103965456
p90
aVhttp://dbpedia.org/class/yago/PhysicalEntity100001930
p91
aVhttp://dbpedia.org/class/yago/PlaceOfBusiness103953020
p92
aVhttp://dbpedia.org/resource/Broadway_on_the_Mall
tp93
aa(lp94
((lp95
Vhttp://dbpedia.org/class/yago/Artifact100021939
p96
aVhttp://dbpedia.org/class/yago/Establishment103297735
p97
aVhttp://dbpedia.org/class/yago/MercantileEstablishment103748162
p98
aVhttp://dbpedia.org/class/yago/Object100002684
p99
aVhttp://dbpedia.org/class/yago/Path103899328
p100
aVhttp://dbpedia.org/class/yago/Structure104341686
p101
aVhttp://dbpedia.org/class/yago/Walk104544979
p102
aVhttp://dbpedia.org/class/yago/Way104564698
p103
aVhttp://dbpedia.org/class/yago/Whole100003553
p104
aVhttp://dbpedia.org/class/yago/YagoGeoEntity
p105
aVhttp://dbpedia.org/class/yago/ShoppingMallsInCalifornia
p106
aVhttp://www.w3.org/2002/07/owl#Thing
p107
aVhttp://dbpedia.org/ontology/Place
p108
aVhttp://dbpedia.org/ontology/Location
p109
aVhttp://www.wikidata.org/entity/Q11315
p110
aVhttp://www.wikidata.org/entity/Q41176
p111
aVhttp://dbpedia.org/ontology/ArchitecturalStructure
p112
aVhttp://dbpedia.org/ontology/Building
p113
aVhttp://dbpedia.org/ontology/ShoppingMall
p114
aVhttp://www.w3.org/2003/01/geo/wgs84_pos#SpatialThing
p115
aVhttp://schema.org/Place
p116
aVhttp://schema.org/ShoppingCenter
p117
aVhttp://umbel.org/umbel/rc/Building
p118
aVhttp://umbel.org/umbel/rc/ShoppingMallBuilding
p119
aVhttp://dbpedia.org/class/yago/YagoPermanentlyLocatedEntity
p120
aVhttp://dbpedia.org/class/yago/Plaza103965456
p121
aVhttp://dbpedia.org/class/yago/MallsAndShoppingDistrictsInLosAngelesCounty,California
p122
aVhttp://dbpedia.org/class/yago/PhysicalEntity100001930
p123
aVhttp://dbpedia.org/class/yago/PlaceOfBusiness103953020
p124
aVhttp://dbpedia.org/class/yago/Promenade104010205
p125
aVhttp://dbpedia.org/resource/Del_Amo_Fashion_Center
tp126
aa(lp127
((lp128
Vhttp://dbpedia.org/class/yago/Artifact100021939
p129
aVhttp://dbpedia.org/class/yago/Establishment103297735
p130
aVhttp://dbpedia.org/class/yago/MercantileEstablishment103748162
p131
aVhttp://dbpedia.org/class/yago/Object100002684
p132
aVhttp://dbpedia.org/class/yago/Structure104341686
p133
aVhttp://dbpedia.org/class/yago/Whole100003553
p134
aVhttp://dbpedia.org/class/yago/YagoGeoEntity
p135
aVhttp://dbpedia.org/class/yago/ShoppingMallsEstablishedIn1967
p136
aVhttp://dbpedia.org/class/yago/ShoppingMallsInMassachusetts
p137
aVhttp://www.w3.org/2002/07/owl#Thing
p138
aVhttp://dbpedia.org/ontology/Place
p139
aVhttp://dbpedia.org/ontology/Location
p140
aVhttp://www.wikidata.org/entity/Q11315
p141
aVhttp://www.wikidata.org/entity/Q41176
p142
aVhttp://dbpedia.org/ontology/ArchitecturalStructure
p143
aVhttp://dbpedia.org/ontology/Building
p144
aVhttp://dbpedia.org/ontology/ShoppingMall
p145
aVhttp://www.w3.org/2003/01/geo/wgs84_pos#SpatialThing
p146
aVhttp://schema.org/Place
p147
aVhttp://schema.org/ShoppingCenter
p148
aVhttp://umbel.org/umbel/rc/ShoppingMallBuilding
p149
aVhttp://dbpedia.org/class/yago/YagoPermanentlyLocatedEntity
p150
aVhttp://dbpedia.org/class/yago/Plaza103965456
p151
aVhttp://dbpedia.org/class/yago/PhysicalEntity100001930
p152
aVhttp://dbpedia.org/class/yago/PlaceOfBusiness103953020
p153
aVhttp://dbpedia.org/resource/Eastfield_Mall
tp154
aa(lp155
((lp156
Vhttp://dbpedia.org/class/yago/Artifact100021939
p157
aVhttp://dbpedia.org/class/yago/Establishment103297735
p158
aVhttp://dbpedia.org/class/yago/MercantileEstablishment103748162
p159
aVhttp://dbpedia.org/class/yago/Object100002684
p160
aVhttp://dbpedia.org/class/yago/Structure104341686
p161
aVhttp://dbpedia.org/class/yago/Whole100003553
p162
aVhttp://dbpedia.org/class/yago/YagoGeoEntity
p163
aVhttp://dbpedia.org/class/yago/ShoppingMallsInToronto
p164
aVhttp://www.w3.org/2002/07/owl#Thing
p165
aVhttp://dbpedia.org/ontology/Place
p166
aVhttp://dbpedia.org/ontology/Location
p167
aVhttp://www.wikidata.org/entity/Q11315
p168
aVhttp://www.wikidata.org/entity/Q41176
p169
aVhttp://dbpedia.org/ontology/ArchitecturalStructure
p170
aVhttp://dbpedia.org/ontology/Building
p171
aVhttp://dbpedia.org/ontology/ShoppingMall
p172
aVhttp://www.w3.org/2003/01/geo/wgs84_pos#SpatialThing
p173
aVhttp://schema.org/Place
p174
aVhttp://schema.org/ShoppingCenter
p175
aVhttp://umbel.org/umbel/rc/ShoppingMallBuilding
p176
aVhttp://dbpedia.org/class/yago/YagoPermanentlyLocatedEntity
p177
aVhttp://dbpedia.org/class/yago/Plaza103965456
p178
aVhttp://dbpedia.org/class/yago/PhysicalEntity100001930
p179
aVhttp://dbpedia.org/class/yago/PlaceOfBusiness103953020
p180
aVhttp://dbpedia.org/resource/Centerpoint_Mall_(Toronto)
tp181
aa(lp182
((lp183
Vhttp://dbpedia.org/class/yago/Artifact100021939
p184
aVhttp://dbpedia.org/class/yago/Establishment103297735
p185
aVhttp://dbpedia.org/class/yago/MercantileEstablishment103748162
p186
aVhttp://dbpedia.org/class/yago/Object100002684
p187
aVhttp://dbpedia.org/class/yago/Structure104341686
p188
aVhttp://dbpedia.org/class/yago/Whole100003553
p189
aVhttp://dbpedia.org/class/yago/YagoGeoEntity
p190
aVhttp://dbpedia.org/class/yago/ShoppingMallsInVirginia
p191
aVhttp://www.w3.org/2002/07/owl#Thing
p192
aVhttp://dbpedia.org/ontology/Place
p193
aVhttp://dbpedia.org/ontology/Location
p194
aVhttp://www.wikidata.org/entity/Q11315
p195
aVhttp://www.wikidata.org/entity/Q41176
p196
aVhttp://dbpedia.org/ontology/ArchitecturalStructure
p197
aVhttp://dbpedia.org/ontology/Building
p198
aVhttp://dbpedia.org/ontology/ShoppingMall
p199
aVhttp://www.w3.org/2003/01/geo/wgs84_pos#SpatialThing
p200
aVhttp://schema.org/Place
p201
aVhttp://schema.org/ShoppingCenter
p202
aVhttp://umbel.org/umbel/rc/ShoppingMallBuilding
p203
aVhttp://dbpedia.org/class/yago/YagoPermanentlyLocatedEntity
p204
aVhttp://dbpedia.org/class/yago/Plaza103965456
p205
aVhttp://dbpedia.org/class/yago/PhysicalEntity100001930
p206
aVhttp://dbpedia.org/class/yago/PlaceOfBusiness103953020
p207
aVhttp://dbpedia.org/resource/Charlottesville_Fashion_Square
tp208
aa(lp209
((lp210
Vhttp://dbpedia.org/class/yago/Administrator109770949
p211
aVhttp://dbpedia.org/class/yago/Athlete109820263
p212
aVhttp://dbpedia.org/class/yago/CausalAgent100007347
p213
aVhttp://dbpedia.org/class/yago/Contestant109613191
p214
aVhttp://dbpedia.org/class/yago/Director110014939
p215
aVhttp://dbpedia.org/class/yago/FootballPlayer110101634
p216
aVhttp://dbpedia.org/class/yago/Head110162991
p217
aVhttp://dbpedia.org/class/yago/Leader109623038
p218
aVhttp://dbpedia.org/class/yago/LivingThing100004258
p219
aVhttp://dbpedia.org/class/yago/Object100002684
p220
aVhttp://dbpedia.org/class/yago/Organism100004475
p221
aVhttp://dbpedia.org/class/yago/Person100007846
p222
aVhttp://dbpedia.org/class/yago/Player110439851
p223
aVhttp://dbpedia.org/class/yago/Whole100003553
p224
aVhttp://dbpedia.org/class/yago/YagoLegalActorGeo
p225
aVhttp://dbpedia.org/class/yago/RomanianFootballManagers
p226
aVhttp://dbpedia.org/class/yago/RomanianFootballers
p227
aVhttp://www.w3.org/2002/07/owl#Thing
p228
aVhttp://xmlns.com/foaf/0.1/Person
p229
aVhttp://dbpedia.org/ontology/Person
p230
aVhttp://www.ontologydesignpatterns.org/ont/dul/DUL.owl#Agent
p231
aVhttp://www.ontologydesignpatterns.org/ont/dul/DUL.owl#NaturalPerson
p232
aVhttp://www.wikidata.org/entity/Q215627
p233
aVhttp://www.wikidata.org/entity/Q5
p234
aVhttp://www.wikidata.org/entity/Q628099
p235
aVhttp://dbpedia.org/ontology/Agent
p236
aVhttp://dbpedia.org/ontology/SoccerManager
p237
aVhttp://dbpedia.org/ontology/SportsManager
p238
aVhttp://schema.org/Person
p239
aVhttp://umbel.org/umbel/rc/SoccerCoach
p240
aVhttp://dbpedia.org/class/yago/FCArge%C5%9FPite%C5%9FtiPlayers
p241
aVhttp://dbpedia.org/class/yago/FCAstraPloie%C5%9FtiManagers
p242
aVhttp://dbpedia.org/class/yago/FCDinamoBucure%C5%9FtiManagers
p243
aVhttp://dbpedia.org/class/yago/FCGloriaBuz%C4%83uPlayers
p244
aVhttp://dbpedia.org/class/yago/FCRapidBucure%C5%9FtiPlayers
p245
aVhttp://dbpedia.org/class/yago/FCSteauaBucure%C8%99tiAssistantManagers
p246
aVhttp://dbpedia.org/class/yago/FCSteauaBucure%C8%99tiPlayers
p247
aVhttp://dbpedia.org/class/yago/YagoLegalActor
p248
aVhttp://dbpedia.org/class/yago/LivingPeople
p249
aVhttp://dbpedia.org/class/yago/PhysicalEntity100001930
p250
aVhttp://dbpedia.org/resource/Florin_Marin
tp251
aa(lp252
((lp253
Vhttp://dbpedia.org/class/yago/Artifact100021939
p254
aVhttp://dbpedia.org/class/yago/Establishment103297735
p255
aVhttp://dbpedia.org/class/yago/MercantileEstablishment103748162
p256
aVhttp://dbpedia.org/class/yago/Object100002684
p257
aVhttp://dbpedia.org/class/yago/Structure104341686
p258
aVhttp://dbpedia.org/class/yago/Whole100003553
p259
aVhttp://dbpedia.org/class/yago/YagoGeoEntity
p260
aVhttp://dbpedia.org/class/yago/ShoppingMallsEstablishedIn1990
p261
aVhttp://dbpedia.org/class/yago/ShoppingMallsInNewJersey
p262
aVhttp://www.w3.org/2002/07/owl#Thing
p263
aVhttp://dbpedia.org/ontology/Place
p264
aVhttp://dbpedia.org/ontology/Location
p265
aVhttp://www.wikidata.org/entity/Q11315
p266
aVhttp://www.wikidata.org/entity/Q41176
p267
aVhttp://dbpedia.org/ontology/ArchitecturalStructure
p268
aVhttp://dbpedia.org/ontology/Building
p269
aVhttp://dbpedia.org/ontology/ShoppingMall
p270
aVhttp://www.w3.org/2003/01/geo/wgs84_pos#SpatialThing
p271
aVhttp://schema.org/Place
p272
aVhttp://schema.org/ShoppingCenter
p273
aVhttp://umbel.org/umbel/rc/Building
p274
aVhttp://umbel.org/umbel/rc/ShoppingMallBuilding
p275
aVhttp://dbpedia.org/class/yago/YagoPermanentlyLocatedEntity
p276
aVhttp://dbpedia.org/class/yago/Plaza103965456
p277
aVhttp://dbpedia.org/class/yago/PhysicalEntity100001930
p278
aVhttp://dbpedia.org/class/yago/PlaceOfBusiness103953020
p279
aVhttp://dbpedia.org/resource/Freehold_Raceway_Mall
tp280
aa(lp281
((lp282
Vhttp://dbpedia.org/class/yago/Artifact100021939
p283
aVhttp://dbpedia.org/class/yago/Establishment103297735
p284
aVhttp://dbpedia.org/class/yago/MercantileEstablishment103748162
p285
aVhttp://dbpedia.org/class/yago/Object100002684
p286
aVhttp://dbpedia.org/class/yago/Structure104341686
p287
aVhttp://dbpedia.org/class/yago/Whole100003553
p288
aVhttp://dbpedia.org/class/yago/YagoGeoEntity
p289
aVhttp://dbpedia.org/class/yago/ShoppingMallsEstablishedIn1968
p290
aVhttp://dbpedia.org/class/yago/ShoppingMallsInMontreal
p291
aVhttp://www.w3.org/2002/07/owl#Thing
p292
aVhttp://dbpedia.org/ontology/Place
p293
aVhttp://dbpedia.org/ontology/Location
p294
aVhttp://www.wikidata.org/entity/Q11315
p295
aVhttp://www.wikidata.org/entity/Q41176
p296
aVhttp://dbpedia.org/ontology/ArchitecturalStructure
p297
aVhttp://dbpedia.org/ontology/Building
p298
aVhttp://dbpedia.org/ontology/ShoppingMall
p299
aVhttp://www.w3.org/2003/01/geo/wgs84_pos#SpatialThing
p300
aVhttp://schema.org/Place
p301
aVhttp://schema.org/ShoppingCenter
p302
aVhttp://dbpedia.org/class/yago/YagoPermanentlyLocatedEntity
p303
aVhttp://dbpedia.org/class/yago/Plaza103965456
p304
aVhttp://dbpedia.org/class/yago/PhysicalEntity100001930
p305
aVhttp://dbpedia.org/class/yago/PlaceOfBusiness103953020
p306
aVhttp://dbpedia.org/resource/Galeries_d'Anjou
tp307
aa(lp308
((lp309
Vhttp://dbpedia.org/class/yago/Artifact100021939
p310
aVhttp://dbpedia.org/class/yago/Establishment103297735
p311
aVhttp://dbpedia.org/class/yago/MercantileEstablishment103748162
p312
aVhttp://dbpedia.org/class/yago/Object100002684
p313
aVhttp://dbpedia.org/class/yago/Structure104341686
p314
aVhttp://dbpedia.org/class/yago/Whole100003553
p315
aVhttp://dbpedia.org/class/yago/YagoGeoEntity
p316
aVhttp://dbpedia.org/class/yago/ShoppingMallsInOhio
p317
aVhttp://www.w3.org/2002/07/owl#Thing
p318
aVhttp://dbpedia.org/ontology/Place
p319
aVhttp://dbpedia.org/ontology/Location
p320
aVhttp://www.wikidata.org/entity/Q11315
p321
aVhttp://www.wikidata.org/entity/Q41176
p322
aVhttp://dbpedia.org/ontology/ArchitecturalStructure
p323
aVhttp://dbpedia.org/ontology/Building
p324
aVhttp://dbpedia.org/ontology/ShoppingMall
p325
aVhttp://www.w3.org/2003/01/geo/wgs84_pos#SpatialThing
p326
aVhttp://schema.org/Place
p327
aVhttp://schema.org/ShoppingCenter
p328
aVhttp://dbpedia.org/class/yago/YagoPermanentlyLocatedEntity
p329
aVhttp://dbpedia.org/class/yago/Plaza103965456
p330
aVhttp://dbpedia.org/class/yago/PhysicalEntity100001930
p331
aVhttp://dbpedia.org/class/yago/PlaceOfBusiness103953020
p332
aVhttp://dbpedia.org/resource/Galleria_at_Erieview
tp333
aa(lp334
((lp335
Vhttp://dbpedia.org/class/yago/Artifact100021939
p336
aVhttp://dbpedia.org/class/yago/Establishment103297735
p337
aVhttp://dbpedia.org/class/yago/MercantileEstablishment103748162
p338
aVhttp://dbpedia.org/class/yago/Object100002684
p339
aVhttp://dbpedia.org/class/yago/Structure104341686
p340
aVhttp://dbpedia.org/class/yago/Whole100003553
p341
aVhttp://dbpedia.org/class/yago/YagoGeoEntity
p342
aVhttp://dbpedia.org/class/yago/ShoppingMallsInTennessee
p343
aVhttp://www.w3.org/2002/07/owl#Thing
p344
aVhttp://dbpedia.org/ontology/Place
p345
aVhttp://dbpedia.org/ontology/Location
p346
aVhttp://www.wikidata.org/entity/Q11315
p347
aVhttp://www.wikidata.org/entity/Q41176
p348
aVhttp://dbpedia.org/ontology/ArchitecturalStructure
p349
aVhttp://dbpedia.org/ontology/Building
p350
aVhttp://dbpedia.org/ontology/ShoppingMall
p351
aVhttp://www.w3.org/2003/01/geo/wgs84_pos#SpatialThing
p352
aVhttp://schema.org/Place
p353
aVhttp://schema.org/ShoppingCenter
p354
aVhttp://umbel.org/umbel/rc/ShoppingMallBuilding
p355
aVhttp://dbpedia.org/class/yago/YagoPermanentlyLocatedEntity
p356
aVhttp://dbpedia.org/class/yago/Plaza103965456
p357
aVhttp://dbpedia.org/class/yago/PhysicalEntity100001930
p358
aVhttp://dbpedia.org/class/yago/PlaceOfBusiness103953020
p359
aVhttp://dbpedia.org/resource/CoolSprings_Galleria
tp360
aa(lp361
((lp362
Vhttp://dbpedia.org/class/yago/Artifact100021939
p363
aVhttp://dbpedia.org/class/yago/Building102913152
p364
aVhttp://dbpedia.org/class/yago/BuildingsAndStructuresInDieppe,NewBrunswick
p365
aVhttp://dbpedia.org/class/yago/Object100002684
p366
aVhttp://dbpedia.org/class/yago/Structure104341686
p367
aVhttp://dbpedia.org/class/yago/Whole100003553
p368
aVhttp://dbpedia.org/class/yago/YagoGeoEntity
p369
aVhttp://www.w3.org/2002/07/owl#Thing
p370
aVhttp://dbpedia.org/ontology/Place
p371
aVhttp://dbpedia.org/ontology/Location
p372
aVhttp://www.wikidata.org/entity/Q11315
p373
aVhttp://www.wikidata.org/entity/Q41176
p374
aVhttp://dbpedia.org/ontology/ArchitecturalStructure
p375
aVhttp://dbpedia.org/ontology/Building
p376
aVhttp://dbpedia.org/ontology/ShoppingMall
p377
aVhttp://www.w3.org/2003/01/geo/wgs84_pos#SpatialThing
p378
aVhttp://schema.org/Place
p379
aVhttp://schema.org/ShoppingCenter
p380
aVhttp://dbpedia.org/class/yago/YagoPermanentlyLocatedEntity
p381
aVhttp://dbpedia.org/class/yago/PhysicalEntity100001930
p382
aVhttp://dbpedia.org/resource/Crystal_Palace_Complex_(Dieppe)
tp383
aa(lp384
((lp385
Vhttp://dbpedia.org/class/yago/Artifact100021939
p386
aVhttp://dbpedia.org/class/yago/Establishment103297735
p387
aVhttp://dbpedia.org/class/yago/MercantileEstablishment103748162
p388
aVhttp://dbpedia.org/class/yago/Object100002684
p389
aVhttp://dbpedia.org/class/yago/Path103899328
p390
aVhttp://dbpedia.org/class/yago/Structure104341686
p391
aVhttp://dbpedia.org/class/yago/Walk104544979
p392
aVhttp://dbpedia.org/class/yago/Way104564698
p393
aVhttp://dbpedia.org/class/yago/Whole100003553
p394
aVhttp://dbpedia.org/class/yago/YagoGeoEntity
p395
aVhttp://dbpedia.org/class/yago/ShoppingMallsInCalifornia
p396
aVhttp://www.w3.org/2002/07/owl#Thing
p397
aVhttp://dbpedia.org/ontology/Place
p398
aVhttp://dbpedia.org/ontology/Location
p399
aVhttp://www.wikidata.org/entity/Q11315
p400
aVhttp://www.wikidata.org/entity/Q41176
p401
aVhttp://dbpedia.org/ontology/ArchitecturalStructure
p402
aVhttp://dbpedia.org/ontology/Building
p403
aVhttp://dbpedia.org/ontology/ShoppingMall
p404
aVhttp://www.w3.org/2003/01/geo/wgs84_pos#SpatialThing
p405
aVhttp://schema.org/Place
p406
aVhttp://schema.org/ShoppingCenter
p407
aVhttp://dbpedia.org/class/yago/YagoPermanentlyLocatedEntity
p408
aVhttp://dbpedia.org/class/yago/Plaza103965456
p409
aVhttp://dbpedia.org/class/yago/MallsAndShoppingDistrictsInLosAngelesCounty,California
p410
aVhttp://dbpedia.org/class/yago/PhysicalEntity100001930
p411
aVhttp://dbpedia.org/class/yago/PlaceOfBusiness103953020
p412
aVhttp://dbpedia.org/class/yago/Promenade104010205
p413
aVhttp://dbpedia.org/resource/Hawthorne_Plaza_Shopping_Center
tp414
aa(lp415
((lp416
Vhttp://dbpedia.org/class/yago/Artifact100021939
p417
aVhttp://dbpedia.org/class/yago/Establishment103297735
p418
aVhttp://dbpedia.org/class/yago/MercantileEstablishment103748162
p419
aVhttp://dbpedia.org/class/yago/Object100002684
p420
aVhttp://dbpedia.org/class/yago/Structure104341686
p421
aVhttp://dbpedia.org/class/yago/Whole100003553
p422
aVhttp://dbpedia.org/class/yago/YagoGeoEntity
p423
aVhttp://dbpedia.org/class/yago/ShoppingMallsEstablishedIn1962
p424
aVhttp://dbpedia.org/class/yago/ShoppingMallsInWisconsin
p425
aVhttp://www.w3.org/2002/07/owl#Thing
p426
aVhttp://dbpedia.org/ontology/Place
p427
aVhttp://dbpedia.org/ontology/Location
p428
aVhttp://www.wikidata.org/entity/Q11315
p429
aVhttp://www.wikidata.org/entity/Q41176
p430
aVhttp://dbpedia.org/ontology/ArchitecturalStructure
p431
aVhttp://dbpedia.org/ontology/Building
p432
aVhttp://dbpedia.org/ontology/ShoppingMall
p433
aVhttp://www.w3.org/2003/01/geo/wgs84_pos#SpatialThing
p434
aVhttp://schema.org/Place
p435
aVhttp://schema.org/ShoppingCenter
p436
aVhttp://dbpedia.org/class/yago/YagoPermanentlyLocatedEntity
p437
aVhttp://dbpedia.org/class/yago/Plaza103965456
p438
aVhttp://dbpedia.org/class/yago/PhysicalEntity100001930
p439
aVhttp://dbpedia.org/class/yago/PlaceOfBusiness103953020
p440
aVhttp://dbpedia.org/resource/Hilldale_Shopping_Center
tp441
aa(lp442
((lp443
Vhttp://dbpedia.org/class/yago/Artifact100021939
p444
aVhttp://dbpedia.org/class/yago/Establishment103297735
p445
aVhttp://dbpedia.org/class/yago/MercantileEstablishment103748162
p446
aVhttp://dbpedia.org/class/yago/Object100002684
p447
aVhttp://dbpedia.org/class/yago/Structure104341686
p448
aVhttp://dbpedia.org/class/yago/Whole100003553
p449
aVhttp://dbpedia.org/class/yago/YagoGeoEntity
p450
aVhttp://dbpedia.org/class/yago/ShoppingMallsEstablishedIn1962
p451
aVhttp://dbpedia.org/class/yago/ShoppingMallsInWisconsin
p452
aVhttp://www.w3.org/2002/07/owl#Thing
p453
aVhttp://dbpedia.org/ontology/Place
p454
aVhttp://dbpedia.org/ontology/Location
p455
aVhttp://www.wikidata.org/entity/Q11315
p456
aVhttp://www.wikidata.org/entity/Q41176
p457
aVhttp://dbpedia.org/ontology/ArchitecturalStructure
p458
aVhttp://dbpedia.org/ontology/Building
p459
aVhttp://dbpedia.org/ontology/ShoppingMall
p460
aVhttp://www.w3.org/2003/01/geo/wgs84_pos#SpatialThing
p461
aVhttp://schema.org/Place
p462
aVhttp://schema.org/ShoppingCenter
p463
aVhttp://dbpedia.org/class/yago/YagoPermanentlyLocatedEntity
p464
aVhttp://dbpedia.org/class/yago/Plaza103965456
p465
aVhttp://dbpedia.org/class/yago/PhysicalEntity100001930
p466
aVhttp://dbpedia.org/class/yago/PlaceOfBusiness103953020
p467
aVhttp://dbpedia.org/resource/Hilldale_Shopping_Center
tp468
aa(lp469
((lp470
Vhttp://dbpedia.org/class/yago/Artifact100021939
p471
aVhttp://dbpedia.org/class/yago/Establishment103297735
p472
aVhttp://dbpedia.org/class/yago/MercantileEstablishment103748162
p473
aVhttp://dbpedia.org/class/yago/Object100002684
p474
aVhttp://dbpedia.org/class/yago/Structure104341686
p475
aVhttp://dbpedia.org/class/yago/Whole100003553
p476
aVhttp://dbpedia.org/class/yago/YagoGeoEntity
p477
aVhttp://dbpedia.org/class/yago/ShoppingMallsEstablishedIn1959
p478
aVhttp://dbpedia.org/class/yago/ShoppingMallsInMontana
p479
aVhttp://www.w3.org/2002/07/owl#Thing
p480
aVhttp://dbpedia.org/ontology/Place
p481
aVhttp://dbpedia.org/ontology/Location
p482
aVhttp://www.wikidata.org/entity/Q11315
p483
aVhttp://www.wikidata.org/entity/Q41176
p484
aVhttp://dbpedia.org/ontology/ArchitecturalStructure
p485
aVhttp://dbpedia.org/ontology/Building
p486
aVhttp://dbpedia.org/ontology/ShoppingMall
p487
aVhttp://www.w3.org/2003/01/geo/wgs84_pos#SpatialThing
p488
aVhttp://schema.org/Place
p489
aVhttp://schema.org/ShoppingCenter
p490
aVhttp://umbel.org/umbel/rc/Building
p491
aVhttp://umbel.org/umbel/rc/ShoppingMallBuilding
p492
aVhttp://dbpedia.org/class/yago/YagoPermanentlyLocatedEntity
p493
aVhttp://dbpedia.org/class/yago/Plaza103965456
p494
aVhttp://dbpedia.org/class/yago/PhysicalEntity100001930
p495
aVhttp://dbpedia.org/class/yago/PlaceOfBusiness103953020
p496
aVhttp://dbpedia.org/resource/Holiday_Village_Mall
tp497
aa(lp498
((lp499
Vhttp://dbpedia.org/class/yago/Artifact100021939
p500
aVhttp://dbpedia.org/class/yago/Establishment103297735
p501
aVhttp://dbpedia.org/class/yago/MercantileEstablishment103748162
p502
aVhttp://dbpedia.org/class/yago/Object100002684
p503
aVhttp://dbpedia.org/class/yago/Structure104341686
p504
aVhttp://dbpedia.org/class/yago/Whole100003553
p505
aVhttp://dbpedia.org/class/yago/YagoGeoEntity
p506
aVhttp://dbpedia.org/class/yago/ShoppingMallsInNewYork
p507
aVhttp://www.w3.org/2002/07/owl#Thing
p508
aVhttp://dbpedia.org/ontology/Place
p509
aVhttp://dbpedia.org/ontology/Location
p510
aVhttp://www.wikidata.org/entity/Q11315
p511
aVhttp://www.wikidata.org/entity/Q41176
p512
aVhttp://dbpedia.org/ontology/ArchitecturalStructure
p513
aVhttp://dbpedia.org/ontology/Building
p514
aVhttp://dbpedia.org/ontology/ShoppingMall
p515
aVhttp://www.w3.org/2003/01/geo/wgs84_pos#SpatialThing
p516
aVhttp://schema.org/Place
p517
aVhttp://schema.org/ShoppingCenter
p518
aVhttp://umbel.org/umbel/rc/ShoppingMallBuilding
p519
aVhttp://dbpedia.org/class/yago/YagoPermanentlyLocatedEntity
p520
aVhttp://dbpedia.org/class/yago/Plaza103965456
p521
aVhttp://dbpedia.org/class/yago/PhysicalEntity100001930
p522
aVhttp://dbpedia.org/class/yago/PlaceOfBusiness103953020
p523
aVhttp://dbpedia.org/resource/Eastview_Mall
tp524
aa(lp525
((lp526
Vhttp://dbpedia.org/class/yago/Artifact100021939
p527
aVhttp://dbpedia.org/class/yago/Establishment103297735
p528
aVhttp://dbpedia.org/class/yago/MercantileEstablishment103748162
p529
aVhttp://dbpedia.org/class/yago/Object100002684
p530
aVhttp://dbpedia.org/class/yago/Structure104341686
p531
aVhttp://dbpedia.org/class/yago/Whole100003553
p532
aVhttp://dbpedia.org/class/yago/YagoGeoEntity
p533
aVhttp://dbpedia.org/class/yago/ShoppingMallsInWisconsin
p534
aVhttp://www.w3.org/2002/07/owl#Thing
p535
aVhttp://dbpedia.org/ontology/Place
p536
aVhttp://dbpedia.org/ontology/Location
p537
aVhttp://www.wikidata.org/entity/Q11315
p538
aVhttp://www.wikidata.org/entity/Q41176
p539
aVhttp://dbpedia.org/ontology/ArchitecturalStructure
p540
aVhttp://dbpedia.org/ontology/Building
p541
aVhttp://dbpedia.org/ontology/ShoppingMall
p542
aVhttp://www.w3.org/2003/01/geo/wgs84_pos#SpatialThing
p543
aVhttp://schema.org/Place
p544
aVhttp://schema.org/ShoppingCenter
p545
aVhttp://umbel.org/umbel/rc/ShoppingMallBuilding
p546
aVhttp://dbpedia.org/class/yago/YagoPermanentlyLocatedEntity
p547
aVhttp://dbpedia.org/class/yago/Plaza103965456
p548
aVhttp://dbpedia.org/class/yago/PhysicalEntity100001930
p549
aVhttp://dbpedia.org/class/yago/PlaceOfBusiness103953020
p550
aVhttp://dbpedia.org/resource/Janesville_Mall
p551
tp552
aaa.