ccollections
defaultdict
p1
(c__builtin__
dict
p2
tRp3
I0
(dp4
I1
(lp5
sI2
(lp6
sI3
(lp7
sI4
(lp8
ssI1
(dp9
I1
(lp10
sI2
(lp11
sI3
(lp12
sI4
(lp13
ssI12
(dp14
I1
(lp15
sI2
(lp16
sI3
(lp17
sI4
(lp18
ssI14
(dp19
I1
(lp20
sI2
(lp21
sI3
(lp22
sI4
(lp23
ssI15
(dp24
I1
(lp25
sI2
(lp26
sI3
(lp27
sI4
(lp28
ssI16
(dp29
I1
(lp30
sI2
(lp31
sI3
(lp32
sI4
(lp33
ssI17
(dp34
I1
(lp35
sI2
(lp36
sI3
(lp37
sI4
(lp38
ssI18
(dp39
I1
(lp40
sI2
(lp41
sI3
(lp42
sI4
(lp43
ss.