(lp1
(lp2
(lp3
((lp4
Vhttp://www.w3.org/2002/07/owl#Thing
p5
aVhttp://www.ontologydesignpatterns.org/ont/dul/DUL.owl#Event
p6
aVhttp://www.wikidata.org/entity/Q1656682
p7
aVhttp://dbpedia.org/ontology/Event
p8
aVhttp://dbpedia.org/ontology/HorseRace
p9
aVhttp://dbpedia.org/ontology/Race
p10
aVhttp://dbpedia.org/ontology/SocietalEvent
p11
aVhttp://dbpedia.org/ontology/SportsEvent
p12
aVhttp://schema.org/Event
p13
aVhttp://schema.org/SportsEvent
p14
aVhttp://dbpedia.org/resource/2005_Black-Eyed_Susan_Stakes
tp15
aa(lp16
a(lp17
a(lp18
((lp19
Vhttp://dbpedia.org/class/yago/Abstraction100002137
p20
aVhttp://dbpedia.org/class/yago/Contest107456188
p21
aVhttp://dbpedia.org/class/yago/Event100029378
p22
aVhttp://dbpedia.org/class/yago/Race107458453
p23
aVhttp://dbpedia.org/class/yago/SocialEvent107288639
p24
aVhttp://dbpedia.org/class/yago/RecurringEventsEstablishedIn1996
p25
aVhttp://www.w3.org/2002/07/owl#Thing
p26
aVhttp://www.ontologydesignpatterns.org/ont/dul/DUL.owl#Event
p27
aVhttp://www.wikidata.org/entity/Q1656682
p28
aVhttp://dbpedia.org/ontology/Event
p29
aVhttp://dbpedia.org/ontology/HorseRace
p30
aVhttp://dbpedia.org/ontology/Race
p31
aVhttp://dbpedia.org/ontology/SocietalEvent
p32
aVhttp://dbpedia.org/ontology/SportsEvent
p33
aVhttp://schema.org/Event
p34
aVhttp://schema.org/SportsEvent
p35
aVhttp://dbpedia.org/class/yago/PsychologicalFeature100023100
p36
aVhttp://dbpedia.org/class/yago/YagoPermanentlyLocatedEntity
p37
aVhttp://dbpedia.org/class/yago/OpenMiddleDistanceHorseRaces
p38
aVhttp://dbpedia.org/class/yago/HorseRace107461411
p39
aVhttp://dbpedia.org/class/yago/HorseRacesInTheUnitedArabEmirates
p40
aVhttp://dbpedia.org/resource/Dubai_World_Cup
p41
tp42
aa(lp43
a(lp44
a(lp45
a(lp46
a(lp47
a(lp48
a(lp49
a(lp50
a(lp51
a(lp52
a(lp53
a(lp54
a(lp55
a(lp56
a(lp57
aa.