(lp1
(dp2
I0
(dp3
I0
(lp4
sI1
(lp5
sI2
(lp6
sI3
(lp7
sI4
(lp8
sI5
(lp9
sI6
(lp10
sI7
(lp11
sI8
(lp12
sI9
(lp13
sI10
(lp14
sI11
(lp15
Vhttp://dbpedia.org/ontology/wikiPageRedirects
p16
asI12
(lp17
sI13
(lp18
sI14
(lp19
sI15
(lp20
sI16
(lp21
sI17
(lp22
sI18
(lp23
ssI1
(dp24
I0
g5
sI1
(lp25
sI2
(lp26
sI3
(lp27
sI4
(lp28
sI5
(lp29
sI6
(lp30
sI7
(lp31
sI8
(lp32
sI9
(lp33
sI10
(lp34
sI11
(lp35
sI12
(lp36
sI13
(lp37
sI14
(lp38
sI15
(lp39
sI16
(lp40
sI17
(lp41
Vhttp://dbpedia.org/ontology/abstract
p42
aVhttp://www.w3.org/2000/01/rdf-schema#comment
p43
asI18
(lp44
ssI2
(dp45
I0
g6
sI1
g26
sI2
(lp46
sI3
(lp47
sI4
(lp48
sI5
(lp49
sI6
(lp50
sI7
(lp51
sI8
(lp52
sI9
(lp53
sI10
(lp54
sI11
(lp55
sI12
(lp56
sI13
(lp57
sI14
(lp58
sI15
(lp59
sI16
(lp60
sI17
(lp61
sI18
(lp62
ssI3
(dp63
I0
g7
sI1
g27
sI2
g47
sI3
(lp64
sI4
(lp65
sI5
(lp66
sI6
(lp67
sI7
(lp68
sI8
(lp69
sI9
(lp70
sI10
(lp71
sI11
(lp72
sI12
(lp73
sI13
(lp74
sI14
(lp75
sI15
(lp76
sI16
(lp77
sI17
(lp78
sI18
(lp79
ssI4
(dp80
I0
g8
sI1
g28
sI2
g48
sI3
g65
sI4
(lp81
sI5
(lp82
sI6
(lp83
sI7
(lp84
sI8
(lp85
sI9
(lp86
sI10
(lp87
sI11
(lp88
sI12
(lp89
sI13
(lp90
sI14
(lp91
sI15
(lp92
sI16
(lp93
sI17
(lp94
sI18
(lp95
ssI5
(dp96
I0
g9
sI1
g29
sI2
g49
sI3
g66
sI4
g82
sI5
(lp97
sI6
(lp98
Vhttp://dbpedia.org/ontology/abstract
p99
aVhttp://dbpedia.org/ontology/wikiPageRedirects
p100
asI7
(lp101
sI8
(lp102
sI9
(lp103
sI10
(lp104
sI11
(lp105
sI12
(lp106
sI13
(lp107
sI14
(lp108
sI15
(lp109
sI16
(lp110
sI17
(lp111
sI18
(lp112
ssI6
(dp113
I0
g10
sI1
g30
sI2
g50
sI3
g67
sI4
g83
sI5
g98
sI6
(lp114
sI7
(lp115
sI8
(lp116
sI9
(lp117
sI10
(lp118
sI11
(lp119
sI12
(lp120
sI13
(lp121
sI14
(lp122
sI15
(lp123
sI16
(lp124
sI17
(lp125
sI18
(lp126
ssI7
(dp127
I0
g11
sI1
g31
sI2
g51
sI3
g68
sI4
g84
sI5
g101
sI6
g115
sI7
(lp128
sI8
(lp129
Vhttp://dbpedia.org/ontology/abstract
p130
aVhttp://www.w3.org/2000/01/rdf-schema#comment
p131
asI9
(lp132
sI10
(lp133
sI11
(lp134
sI12
(lp135
sI13
(lp136
sI14
(lp137
sI15
(lp138
sI16
(lp139
sI17
(lp140
sI18
(lp141
ssI8
(dp142
I0
g12
sI1
g32
sI2
g52
sI3
g69
sI4
g85
sI5
g102
sI6
g116
sI7
g129
sI8
(lp143
sI9
(lp144
sI10
(lp145
sI11
(lp146
sI12
(lp147
sI13
(lp148
sI14
(lp149
sI15
(lp150
sI16
(lp151
sI17
(lp152
sI18
(lp153
Vhttp://dbpedia.org/ontology/abstract
p154
aVhttp://www.w3.org/2000/01/rdf-schema#comment
p155
assI9
(dp156
I0
g13
sI1
g33
sI2
g53
sI3
g70
sI4
g86
sI5
g103
sI6
g117
sI7
g132
sI8
g144
sI9
(lp157
sI10
(lp158
sI11
(lp159
sI12
(lp160
sI13
(lp161
sI14
(lp162
sI15
(lp163
sI16
(lp164
sI17
(lp165
sI18
(lp166
ssI10
(dp167
I0
g14
sI1
g34
sI2
g54
sI3
g71
sI4
g87
sI5
g104
sI6
g118
sI7
g133
sI8
g145
sI9
g158
sI10
(lp168
sI11
(lp169
Vhttp://dbpedia.org/ontology/abstract
p170
aVhttp://www.w3.org/2000/01/rdf-schema#comment
p171
asI12
(lp172
sI13
(lp173
sI14
(lp174
sI15
(lp175
sI16
(lp176
sI17
(lp177
sI18
(lp178
ssI11
(dp179
I0
g15
sI1
g35
sI2
g55
sI3
g72
sI4
g88
sI5
g105
sI6
g119
sI7
g134
sI8
g146
sI9
g159
sI10
g169
sI11
(lp180
sI12
(lp181
sI13
(lp182
sI14
(lp183
sI15
(lp184
sI16
(lp185
sI17
(lp186
sI18
(lp187
ssI12
(dp188
I0
g17
sI1
g36
sI2
g56
sI3
g73
sI4
g89
sI5
g106
sI6
g120
sI7
g135
sI8
g147
sI9
g160
sI10
g172
sI11
g181
sI12
(lp189
sI13
(lp190
sI14
(lp191
sI15
(lp192
sI16
(lp193
sI17
(lp194
sI18
(lp195
ssI13
(dp196
I0
g18
sI1
g37
sI2
g57
sI3
g74
sI4
g90
sI5
g107
sI6
g121
sI7
g136
sI8
g148
sI9
g161
sI10
g173
sI11
g182
sI12
g190
sI13
(lp197
sI14
(lp198
sI15
(lp199
sI16
(lp200
sI17
(lp201
sI18
(lp202
ssI14
(dp203
I0
g19
sI1
g38
sI2
g58
sI3
g75
sI4
g91
sI5
g108
sI6
g122
sI7
g137
sI8
g149
sI9
g162
sI10
g174
sI11
g183
sI12
g191
sI13
g198
sI14
(lp204
sI15
(lp205
sI16
(lp206
sI17
(lp207
sI18
(lp208
ssI15
(dp209
I0
g20
sI1
g39
sI2
g59
sI3
g76
sI4
g92
sI5
g109
sI6
g123
sI7
g138
sI8
g150
sI9
g163
sI10
g175
sI11
g184
sI12
g192
sI13
g199
sI14
g205
sI15
(lp210
sI16
(lp211
sI17
(lp212
Vhttp://dbpedia.org/ontology/wikiPageExternalLink
p213
aVhttp://dbpedia.org/ontology/abstract
p214
aVhttp://purl.org/dc/terms/subject
p215
aVhttp://www.w3.org/2000/01/rdf-schema#comment
p216
asI18
(lp217
ssI16
(dp218
I0
g21
sI1
g40
sI2
g60
sI3
g77
sI4
g93
sI5
g110
sI6
g124
sI7
g139
sI8
g151
sI9
g164
sI10
g176
sI11
g185
sI12
g193
sI13
g200
sI14
g206
sI15
g211
sI16
(lp219
sI17
(lp220
sI18
(lp221
ssI17
(dp222
I0
g22
sI1
g41
sI2
g61
sI3
g78
sI4
g94
sI5
g111
sI6
g125
sI7
g140
sI8
g152
sI9
g165
sI10
g177
sI11
g186
sI12
g194
sI13
g201
sI14
g207
sI15
g212
sI16
g220
sI17
(lp223
sI18
(lp224
ssI18
(dp225
I0
g23
sI1
g44
sI2
g62
sI3
g79
sI4
g95
sI5
g112
sI6
g126
sI7
g141
sI8
g153
sI9
g166
sI10
g178
sI11
g187
sI12
g195
sI13
g202
sI14
g208
sI15
g217
sI16
g221
sI17
g224
sI18
(lp226
ssa.