ccollections
defaultdict
p1
(c__builtin__
dict
p2
tRp3
I1
(dp4
I0
(lp5
sI1
(lp6
ssI2
(dp7
I0
(lp8
Vhttp://dbpedia.org/ontology/country
p9
aVhttp://dbpedia.org/ontology/birthPlace
p10
aVhttp://dbpedia.org/property/birthPlace
p11
aVhttp://dbpedia.org/property/placeOfBirth
p12
asI1
(lp13
Vhttp://dbpedia.org/ontology/country
p14
aVhttp://dbpedia.org/ontology/birthPlace
p15
aVhttp://dbpedia.org/property/birthPlace
p16
aVhttp://dbpedia.org/property/placeOfBirth
p17
assI3
(dp18
I0
(lp19
sI1
(lp20
ssI5
(dp21
I0
(lp22
sI1
(lp23
ssI6
(dp24
I0
(lp25
sI1
(lp26
ssI8
(dp27
I0
(lp28
sI1
(lp29
ssI9
(dp30
I0
(lp31
sI1
(lp32
ssI10
(dp33
I0
(lp34
sI1
(lp35
ssI12
(dp36
I0
(lp37
sI1
(lp38
ssI13
(dp39
I0
(lp40
sI1
(lp41
ssI14
(dp42
I0
(lp43
sI1
(lp44
ss.