(lp1
(lp2
(lp3
Vhttp://dbpedia.org/resource/Washington_State_Penitentiary
p4
aa(lp5
Vhttp://dbpedia.org/resource/Wakulla_Correctional_Institution
p6
aa(lp7
Vhttp://dbpedia.org/resource/Spring_Creek_Correctional_Center
p8
aa(lp9
Vhttp://dbpedia.org/resource/St._Catherine_Adult_Correctional_Centre
p10
aa(lp11
Vhttp://dbpedia.org/resource/Wasco_State_Prison
p12
aa(lp13
Vhttp://dbpedia.org/resource/Alexander_Correctional_Institution
p14
aa(lp15
Vhttp://dbpedia.org/resource/High_Desert_State_Prison_(California)
p16
aa(lp17
Vhttp://dbpedia.org/resource/Kentucky_State_Penitentiary
p18
aa(lp19
a(lp20
Vhttp://dbpedia.org/resource/Valley_State_Prison
p21
aa(lp22
Vhttp://dbpedia.org/resource/Arthur_Road_Jail
p23
aa(lp24
Vhttp://dbpedia.org/resource/Drakenstein_Correctional_Centre
p25
aa(lp26
Vhttp://dbpedia.org/resource/Fannie_Bay_Gaol
p27
aa(lp28
Vhttp://dbpedia.org/resource/Glen_Innes_Correctional_Centre
p29
aa(lp30
Vhttp://dbpedia.org/resource/HM_Prison_Belmarsh
p31
aaa.