(lp1
(lp2
(lp3
a(lp4
a(lp5
a(lp6
a(lp7
a(lp8
a(lp9
aa(lp10
(lp11
a(lp12
a(lp13
a(lp14
a(lp15
a(lp16
a(lp17
aa(lp18
(lp19
a(lp20
a(lp21
a(lp22
a(lp23
a(lp24
a(lp25
aa(lp26
(lp27
a(lp28
a(lp29
a(lp30
a(lp31
a(lp32
a(lp33
aa(lp34
(lp35
a(lp36
Vhttp://dbpedia.org/resource/Ajanta_Caves
p37
aa(lp38
a(lp39
a(lp40
a(lp41
a(lp42
aa(lp43
(lp44
a(lp45
Vhttp://dbpedia.org/resource/Ambohimanga
p46
aa(lp47
a(lp48
a(lp49
a(lp50
a(lp51
aa(lp52
(lp53
a(lp54
Vhttp://dbpedia.org/resource/Angkor
p55
aa(lp56
a(lp57
a(lp58
a(lp59
a(lp60
aa(lp61
(lp62
a(lp63
a(lp64
a(lp65
a(lp66
a(lp67
a(lp68
aa(lp69
(lp70
a(lp71
Vhttp://dbpedia.org/resource/Bonin_Islands
p72
aa(lp73
a(lp74
a(lp75
a(lp76
a(lp77
aa(lp78
(lp79
a(lp80
Vhttp://dbpedia.org/resource/Bulguksa
p81
aa(lp82
a(lp83
a(lp84
a(lp85
a(lp86
aa(lp87
(lp88
a(lp89
Vhttp://dbpedia.org/resource/Dujiangyan_irrigation_system
p90
aa(lp91
a(lp92
a(lp93
a(lp94
a(lp95
aa(lp96
(lp97
a(lp98
Vhttp://dbpedia.org/resource/Ellora_Caves
p99
aa(lp100
a(lp101
a(lp102
a(lp103
a(lp104
aa(lp105
(lp106
a(lp107
Vhttp://dbpedia.org/resource/Fatehpur_Sikri
p108
aa(lp109
a(lp110
a(lp111
a(lp112
a(lp113
aa(lp114
(lp115
a(lp116
Vhttp://dbpedia.org/resource/Great_Barrier_Reef
p117
aa(lp118
a(lp119
a(lp120
a(lp121
a(lp122
aa(lp123
(lp124
a(lp125
Vhttp://dbpedia.org/resource/Haeinsa
p126
aa(lp127
a(lp128
a(lp129
a(lp130
a(lp131
aa(lp132
(lp133
a(lp134
a(lp135
a(lp136
a(lp137
a(lp138
a(lp139
aa.