(lp1
(lp2
(lp3
Vhttp://dbpedia.org/resource/London_Overground
p4
aa(lp5
Vhttp://dbpedia.org/resource/METRORail
p6
aa(lp7
Vhttp://dbpedia.org/resource/Mass_Rapid_Transit_(Singapore)
p8
aa(lp9
a(lp10
Vhttp://dbpedia.org/resource/Metrorail_Western_Cape
p11
aa(lp12
Vhttp://dbpedia.org/resource/Metrorail_Gauteng
p13
aa(lp14
Vhttp://dbpedia.org/resource/Metrorail_KwaZulu-Natal
p15
aa(lp16
Vhttp://dbpedia.org/resource/Metrorail_Western_Cape
p17
aa(lp18
Vhttp://dbpedia.org/resource/Narita_Airport_Terminal_2_Shuttle_System
p19
aa(lp20
Vhttp://dbpedia.org/resource/Paw_Paw_Railroad
p21
aa(lp22
Vhttp://dbpedia.org/resource/SEPTA
p23
aa(lp24
Vhttp://dbpedia.org/resource/Regional_Transportation_Commission_of_Southern_Nevada
p25
aa(lp26
Vhttp://dbpedia.org/resource/Rose_City_Transit
p27
aa(lp28
Vhttp://dbpedia.org/resource/SEPTA
p29
aa(lp30
Vhttp://dbpedia.org/resource/SPTrans
p31
aa(lp32
Vhttp://dbpedia.org/resource/Sacramento_Northern_Railway
p33
aa(lp34
Vhttp://dbpedia.org/resource/Santa_Clara_Valley_Transportation_Authority
p35
aa(lp36
Vhttp://dbpedia.org/resource/Silver_Lake_Railroad
p37
aa(lp38
Vhttp://dbpedia.org/resource/State_Railway_of_Thailand
p39
aaa.