(lp1
(lp2
(lp3
a(lp4
a(lp5
a(lp6
a(lp7
a(lp8
a(lp9
Vhttp://dbpedia.org/resource/Caudron_Type_J
p10
aaa(lp11
(lp12
a(lp13
a(lp14
a(lp15
a(lp16
a(lp17
a(lp18
Vhttp://dbpedia.org/resource/Caudron_Type_J
p19
aaa(lp20
(lp21
a(lp22
a(lp23
a(lp24
a(lp25
a(lp26
a(lp27
aa(lp28
(lp29
a(lp30
a(lp31
a(lp32
a(lp33
a(lp34
a(lp35
aa(lp36
(lp37
a(lp38
a(lp39
a(lp40
a(lp41
a(lp42
Vhttp://dbpedia.org/resource/2_(number)
p43
aa(lp44
aa(lp45
(lp46
a(lp47
a(lp48
a(lp49
a(lp50
a(lp51
a(lp52
aa(lp53
(lp54
a(lp55
a(lp56
a(lp57
a(lp58
a(lp59
a(lp60
aa(lp61
(lp62
a(lp63
a(lp64
a(lp65
a(lp66
a(lp67
a(lp68
aa(lp69
(lp70
a(lp71
a(lp72
a(lp73
a(lp74
a(lp75
a(lp76
Vhttp://dbpedia.org/resource/Henderson_Independent_School_District
p77
aaa(lp78
(lp79
a(lp80
a(lp81
a(lp82
a(lp83
a(lp84
a(lp85
Vhttp://dbpedia.org/resource/Kawanishi_H6K
p86
aaa(lp87
(lp88
a(lp89
a(lp90
a(lp91
a(lp92
a(lp93
a(lp94
aa(lp95
(lp96
a(lp97
a(lp98
a(lp99
a(lp100
a(lp101
a(lp102
aa(lp103
(lp104
a(lp105
a(lp106
a(lp107
a(lp108
a(lp109
a(lp110
aa(lp111
(lp112
a(lp113
a(lp114
a(lp115
a(lp116
a(lp117
a(lp118
aa(lp119
(lp120
a(lp121
a(lp122
a(lp123
a(lp124
a(lp125
Vhttp://dbpedia.org/resource/1_(number)
p126
aa(lp127
aa(lp128
(lp129
a(lp130
a(lp131
a(lp132
a(lp133
a(lp134
a(lp135
Vhttp://dbpedia.org/resource/Xian_H-6
p136
aaa(lp137
(lp138
a(lp139
a(lp140
a(lp141
a(lp142
a(lp143
a(lp144
aa(lp145
(lp146
a(lp147
a(lp148
a(lp149
a(lp150
a(lp151
a(lp152
aa(lp153
(lp154
a(lp155
a(lp156
a(lp157
a(lp158
Vhttp://dbpedia.org/resource/Solo_(group)
p159
aa(lp160
a(lp161
Vhttp://dbpedia.org/resource/The_Adventure_Series
p162
aaa.