(lp1
(lp2
(lp3
a(lp4
a(lp5
a(lp6
a(lp7
aa(lp8
(lp9
a(lp10
a(lp11
a(lp12
a(lp13
aa(lp14
(lp15
a(lp16
a(lp17
a(lp18
Vhttp://dbpedia.org/resource/Bay_Park_Square
p19
aa(lp20
aa(lp21
(lp22
a(lp23
a(lp24
a(lp25
Vhttp://dbpedia.org/resource/Bayfair_Center
p26
aa(lp27
aa(lp28
(lp29
a(lp30
a(lp31
a(lp32
Vhttp://dbpedia.org/resource/Beaver_Valley_Mall
p33
aa(lp34
aa(lp35
(lp36
a(lp37
a(lp38
a(lp39
Vhttp://dbpedia.org/resource/Berkshire_Mall_(Pennsylvania)
p40
aa(lp41
aa(lp42
(lp43
a(lp44
a(lp45
a(lp46
Vhttp://dbpedia.org/resource/Biltmore_Fashion_Park
p47
aa(lp48
aa(lp49
(lp50
a(lp51
a(lp52
a(lp53
Vhttp://dbpedia.org/resource/Brookfield_Square
p54
aa(lp55
aa(lp56
(lp57
a(lp58
a(lp59
a(lp60
Vhttp://dbpedia.org/resource/Avalon_Mall
p61
aa(lp62
aa(lp63
(lp64
a(lp65
a(lp66
a(lp67
Vhttp://dbpedia.org/resource/CambridgeSide_Galleria
p68
aa(lp69
aa(lp70
(lp71
a(lp72
a(lp73
a(lp74
Vhttp://dbpedia.org/resource/Cape_Cod_Bay
p75
aa(lp76
aa(lp77
(lp78
a(lp79
a(lp80
a(lp81
Vhttp://dbpedia.org/resource/Capital_City_F.C.
p82
aa(lp83
aa(lp84
(lp85
a(lp86
a(lp87
a(lp88
Vhttp://dbpedia.org/resource/Centerpointe_Mall
p89
aa(lp90
aa(lp91
(lp92
a(lp93
a(lp94
a(lp95
Vhttp://dbpedia.org/resource/Bay_City_Mall
p96
aa(lp97
aa(lp98
(lp99
a(lp100
a(lp101
a(lp102
Vhttp://dbpedia.org/resource/Cielo_Vista_Mall
p103
aa(lp104
aa(lp105
(lp106
a(lp107
a(lp108
a(lp109
Vhttp://dbpedia.org/resource/Berjaya_Times_Square
p110
aa(lp111
aa(lp112
(lp113
a(lp114
a(lp115
a(lp116
Vhttp://dbpedia.org/resource/Colonial_Park_Mall
p117
aa(lp118
aa(lp119
(lp120
a(lp121
a(lp122
a(lp123
Vhttp://dbpedia.org/resource/Colorado_Mills
p124
aa(lp125
aa(lp126
(lp127
a(lp128
a(lp129
a(lp130
Vhttp://dbpedia.org/resource/Columbia_Mall_(Grand_Forks)
p131
aa(lp132
aa.