(lp1
(dp2
I0
(dp3
I0
(lp4
sI1
(lp5
sI2
(lp6
sI3
(lp7
ssI1
(dp8
I0
g5
sI1
(lp9
sI2
(lp10
sI3
(lp11
ssI2
(dp12
I0
g6
sI1
g10
sI2
(lp13
sI3
(lp14
ssI3
(dp15
I0
g7
sI1
g11
sI2
g14
sI3
(lp16
ssa(dp17
I0
(dp18
I0
(lp19
sI1
(lp20
sI2
(lp21
sI3
(lp22
ssI1
(dp23
I1
(lp24
sI2
(lp25
sI3
(lp26
ssI2
(dp27
I0
g21
sI1
g25
sI2
(lp28
sI3
(lp29
ssI3
(dp30
I2
g29
sI3
(lp31
ssa(dp32
I0
(dp33
I0
(lp34
sI1
(lp35
sI2
(lp36
Vhttp://dbpedia.org/ontology/wikiPageExternalLink
p37
aVhttp://dbpedia.org/property/website
p38
aVhttp://xmlns.com/foaf/0.1/homepage
p39
asI3
(lp40
ssI1
(dp41
I0
g35
sI1
(lp42
sI2
(lp43
sI3
(lp44
ssI2
(dp45
I0
g36
sI1
g43
sI2
(lp46
sI3
(lp47
Vhttp://www.w3.org/ns/prov#wasDerivedFrom
p48
assI3
(dp49
I0
g40
sI1
g44
sI2
g47
sI3
(lp50
ssa(dp51
I0
(dp52
I0
(lp53
sI1
(lp54
sI2
(lp55
sI3
(lp56
ssI1
(dp57
I1
(lp58
sI2
(lp59
sI3
(lp60
ssI2
(dp61
I0
g55
sI1
g59
sI2
(lp62
sI3
(lp63
ssI3
(dp64
I2
g63
sI3
(lp65
ssa(dp66
I0
(dp67
I0
(lp68
sI1
(lp69
sI2
(lp70
sI3
(lp71
ssI1
(dp72
I1
(lp73
sI2
(lp74
sI3
(lp75
ssI2
(dp76
I0
g70
sI1
g74
sI2
(lp77
sI3
(lp78
ssI3
(dp79
I2
g78
sI3
(lp80
ssa(dp81
I0
(dp82
I0
(lp83
sI1
(lp84
sI2
(lp85
sI3
(lp86
ssI1
(dp87
I0
g84
sI1
(lp88
sI2
(lp89
sI3
(lp90
ssI2
(dp91
I0
g85
sI1
g89
sI2
(lp92
sI3
(lp93
ssI3
(dp94
I1
g90
sI2
g93
sI3
(lp95
ssa(dp96
I0
(dp97
I0
(lp98
sI1
(lp99
sI2
(lp100
sI3
(lp101
ssI1
(dp102
I1
(lp103
sI2
(lp104
sI3
(lp105
ssI2
(dp106
I0
g100
sI1
g104
sI2
(lp107
sI3
(lp108
ssI3
(dp109
I2
g108
sI3
(lp110
ssa(dp111
I0
(dp112
I0
(lp113
sI1
(lp114
sI2
(lp115
sI3
(lp116
ssI1
(dp117
I0
g114
sI1
(lp118
sI2
(lp119
sI3
(lp120
ssI2
(dp121
I0
g115
sI1
g119
sI2
(lp122
sI3
(lp123
Vhttp://www.w3.org/ns/prov#wasDerivedFrom
p124
assI3
(dp125
I0
g116
sI1
g120
sI2
g123
sI3
(lp126
ssa(dp127
I0
(dp128
I0
(lp129
sI1
(lp130
sI2
(lp131
sI3
(lp132
ssI1
(dp133
I1
(lp134
sI2
(lp135
sI3
(lp136
ssI2
(dp137
I0
g131
sI1
g135
sI2
(lp138
sI3
(lp139
ssI3
(dp140
I2
g139
sI3
(lp141
ssa(dp142
I0
(dp143
I0
(lp144
sI1
(lp145
sI2
(lp146
sI3
(lp147
ssI1
(dp148
I1
(lp149
sI2
(lp150
sI3
(lp151
ssI2
(dp152
I0
g146
sI1
g150
sI2
(lp153
sI3
(lp154
ssI3
(dp155
I2
g154
sI3
(lp156
ssa(dp157
I0
(dp158
I0
(lp159
sI1
(lp160
sI2
(lp161
sI3
(lp162
ssI1
(dp163
I1
(lp164
sI2
(lp165
sI3
(lp166
ssI2
(dp167
I0
g161
sI1
g165
sI2
(lp168
sI3
(lp169
ssI3
(dp170
I2
g169
sI3
(lp171
ssa(dp172
I0
(dp173
I0
(lp174
sI1
(lp175
sI2
(lp176
sI3
(lp177
ssI1
(dp178
I0
g175
sI1
(lp179
sI2
(lp180
sI3
(lp181
ssI2
(dp182
I0
g176
sI1
g180
sI2
(lp183
sI3
(lp184
ssI3
(dp185
I0
g177
sI1
g181
sI2
g184
sI3
(lp186
ssa(dp187
I0
(dp188
I0
(lp189
sI1
(lp190
sI2
(lp191
sI3
(lp192
ssI1
(dp193
I0
g190
sI1
(lp194
sI2
(lp195
sI3
(lp196
ssI2
(dp197
I0
g191
sI1
g195
sI2
(lp198
sI3
(lp199
ssI3
(dp200
I0
g192
sI1
g196
sI2
g199
sI3
(lp201
ssa(dp202
I0
(dp203
I0
(lp204
sI1
(lp205
sI2
(lp206
sI3
(lp207
ssI1
(dp208
I0
g205
sI1
(lp209
sI2
(lp210
sI3
(lp211
ssI2
(dp212
I0
g206
sI1
g210
sI2
(lp213
sI3
(lp214
ssI3
(dp215
I0
g207
sI1
g211
sI2
g214
sI3
(lp216
ssa(dp217
I0
(dp218
I0
(lp219
sI1
(lp220
sI2
(lp221
sI3
(lp222
ssI1
(dp223
I1
(lp224
sI2
(lp225
sI3
(lp226
ssI2
(dp227
I0
g221
sI1
g225
sI2
(lp228
sI3
(lp229
ssI3
(dp230
I2
g229
sI3
(lp231
ssa(dp232
I0
(dp233
I0
(lp234
sI1
(lp235
sI2
(lp236
sI3
(lp237
ssI1
(dp238
I0
g235
sI1
(lp239
sI2
(lp240
sI3
(lp241
ssI2
(dp242
I0
g236
sI1
g240
sI2
(lp243
sI3
(lp244
ssI3
(dp245
I0
g237
sI1
g241
sI2
g244
sI3
(lp246
ssa(dp247
I0
(dp248
I0
(lp249
sI1
(lp250
sI2
(lp251
sI3
(lp252
ssI1
(dp253
I1
(lp254
sI2
(lp255
sI3
(lp256
ssI2
(dp257
I0
g251
sI1
g255
sI2
(lp258
sI3
(lp259
ssI3
(dp260
I2
g259
sI3
(lp261
ssa(dp262
I0
(dp263
I0
(lp264
sI1
(lp265
sI2
(lp266
sI3
(lp267
ssI1
(dp268
I1
(lp269
sI2
(lp270
sI3
(lp271
ssI2
(dp272
I0
g266
sI1
g270
sI2
(lp273
sI3
(lp274
ssI3
(dp275
I2
g274
sI3
(lp276
ssa(dp277
I0
(dp278
I0
(lp279
sI1
(lp280
sI2
(lp281
sI3
(lp282
ssI1
(dp283
I1
(lp284
sI2
(lp285
sI3
(lp286
ssI2
(dp287
I0
g281
sI1
g285
sI2
(lp288
sI3
(lp289
ssI3
(dp290
I2
g289
sI3
(lp291
ssa.