(lp1
(lp2
(lp3
((lp4
Vhttp://dbpedia.org/class/yago/AmericanViticulturalAreas
p5
aVhttp://dbpedia.org/class/yago/Area108497294
p6
aVhttp://dbpedia.org/class/yago/Location100027167
p7
aVhttp://dbpedia.org/class/yago/Object100002684
p8
aVhttp://dbpedia.org/class/yago/Region108630985
p9
aVhttp://dbpedia.org/class/yago/YagoGeoEntity
p10
aVhttp://dbpedia.org/class/yago/YagoLegalActorGeo
p11
aVhttp://www.w3.org/2002/07/owl#Thing
p12
aVhttp://dbpedia.org/ontology/Place
p13
aVhttp://dbpedia.org/ontology/Location
p14
aVhttp://dbpedia.org/ontology/WineRegion
p15
aVhttp://schema.org/Place
p16
aVhttp://umbel.org/umbel/rc/GeographicalRegion
p17
aVhttp://dbpedia.org/class/yago/YagoPermanentlyLocatedEntity
p18
aVhttp://dbpedia.org/class/yago/PhysicalEntity100001930
p19
aVhttp://dbpedia.org/resource/Snake_River_Valley_AVA
tp20
aa(lp21
((lp22
Vhttp://dbpedia.org/class/yago/AmericanViticulturalAreas
p23
aVhttp://dbpedia.org/class/yago/AmericanViticulturalAreasOfCalifornia
p24
aVhttp://dbpedia.org/class/yago/Area108497294
p25
aVhttp://dbpedia.org/class/yago/Location100027167
p26
aVhttp://dbpedia.org/class/yago/Object100002684
p27
aVhttp://dbpedia.org/class/yago/Region108630985
p28
aVhttp://dbpedia.org/class/yago/YagoGeoEntity
p29
aVhttp://dbpedia.org/class/yago/YagoLegalActorGeo
p30
aVhttp://www.w3.org/2002/07/owl#Thing
p31
aVhttp://dbpedia.org/ontology/Place
p32
aVhttp://dbpedia.org/ontology/Location
p33
aVhttp://dbpedia.org/ontology/WineRegion
p34
aVhttp://schema.org/Place
p35
aVhttp://umbel.org/umbel/rc/GeographicalRegion
p36
aVhttp://dbpedia.org/class/yago/YagoPermanentlyLocatedEntity
p37
aVhttp://dbpedia.org/class/yago/PhysicalEntity100001930
p38
aVhttp://dbpedia.org/resource/Tracy_Hills_AVA
tp39
aa(lp40
((lVhttp://dbpedia.org/resource/Willow_Creek_mine
tp41
aa(lp42
((lp43
Vhttp://dbpedia.org/class/yago/AmericanViticulturalAreasOfTheSanFranciscoBayArea
p44
aVhttp://dbpedia.org/class/yago/Area108497294
p45
aVhttp://dbpedia.org/class/yago/Location100027167
p46
aVhttp://dbpedia.org/class/yago/Object100002684
p47
aVhttp://dbpedia.org/class/yago/Region108630985
p48
aVhttp://dbpedia.org/class/yago/YagoGeoEntity
p49
aVhttp://dbpedia.org/class/yago/YagoLegalActorGeo
p50
aVhttp://www.w3.org/2002/07/owl#Thing
p51
aVhttp://dbpedia.org/ontology/Place
p52
aVhttp://dbpedia.org/ontology/Location
p53
aVhttp://dbpedia.org/ontology/WineRegion
p54
aVhttp://www.w3.org/2003/01/geo/wgs84_pos#SpatialThing
p55
aVhttp://schema.org/Place
p56
aVhttp://umbel.org/umbel/rc/GeographicalRegion
p57
aVhttp://dbpedia.org/class/yago/YagoPermanentlyLocatedEntity
p58
aVhttp://dbpedia.org/class/yago/PhysicalEntity100001930
p59
aVhttp://dbpedia.org/resource/Alexander_Valley_AVA
tp60
aa(lp61
a(lp62
((lp63
Vhttp://dbpedia.org/class/yago/Location100027167
p64
aVhttp://dbpedia.org/class/yago/Object100002684
p65
aVhttp://dbpedia.org/class/yago/Region108630039
p66
aVhttp://dbpedia.org/class/yago/YagoGeoEntity
p67
aVhttp://dbpedia.org/class/yago/YagoLegalActorGeo
p68
aVhttp://www.w3.org/2002/07/owl#Thing
p69
aVhttp://dbpedia.org/ontology/Place
p70
aVhttp://dbpedia.org/ontology/Location
p71
aVhttp://dbpedia.org/ontology/WineRegion
p72
aVhttp://www.w3.org/2003/01/geo/wgs84_pos#SpatialThing
p73
aVhttp://schema.org/Place
p74
aVhttp://dbpedia.org/class/yago/YagoPermanentlyLocatedEntity
p75
aVhttp://dbpedia.org/class/yago/PhysicalEntity100001930
p76
aVhttp://dbpedia.org/class/yago/WineRegionsOfSouthAustralia
p77
aVhttp://dbpedia.org/resource/Wrattonbully
tp78
aa(lp79
((lp80
Vhttp://dbpedia.org/class/yago/AmericanViticulturalAreas
p81
aVhttp://dbpedia.org/class/yago/AmericanViticulturalAreasOfTheSanFranciscoBayArea
p82
aVhttp://dbpedia.org/class/yago/Area108497294
p83
aVhttp://dbpedia.org/class/yago/Location100027167
p84
aVhttp://dbpedia.org/class/yago/Object100002684
p85
aVhttp://dbpedia.org/class/yago/Region108630985
p86
aVhttp://dbpedia.org/class/yago/YagoGeoEntity
p87
aVhttp://dbpedia.org/class/yago/YagoLegalActorGeo
p88
aVhttp://www.w3.org/2002/07/owl#Thing
p89
aVhttp://dbpedia.org/ontology/Place
p90
aVhttp://dbpedia.org/ontology/Location
p91
aVhttp://dbpedia.org/ontology/WineRegion
p92
aVhttp://schema.org/Place
p93
aVhttp://umbel.org/umbel/rc/GeographicalRegion
p94
aVhttp://dbpedia.org/class/yago/YagoPermanentlyLocatedEntity
p95
aVhttp://dbpedia.org/class/yago/PhysicalEntity100001930
p96
aVhttp://dbpedia.org/resource/Diamond_Mountain_District_AVA
tp97
aa(lp98
((lp99
Vhttp://dbpedia.org/class/yago/AmericanViticulturalAreas
p100
aVhttp://dbpedia.org/class/yago/AmericanViticulturalAreasOfTheSanFranciscoBayArea
p101
aVhttp://dbpedia.org/class/yago/Area108497294
p102
aVhttp://dbpedia.org/class/yago/Location100027167
p103
aVhttp://dbpedia.org/class/yago/Object100002684
p104
aVhttp://dbpedia.org/class/yago/Region108630985
p105
aVhttp://dbpedia.org/class/yago/YagoGeoEntity
p106
aVhttp://dbpedia.org/class/yago/YagoLegalActorGeo
p107
aVhttp://www.w3.org/2002/07/owl#Thing
p108
aVhttp://dbpedia.org/ontology/Place
p109
aVhttp://dbpedia.org/ontology/Location
p110
aVhttp://dbpedia.org/ontology/WineRegion
p111
aVhttp://www.w3.org/2003/01/geo/wgs84_pos#SpatialThing
p112
aVhttp://schema.org/Place
p113
aVhttp://umbel.org/umbel/rc/GeographicalRegion
p114
aVhttp://dbpedia.org/class/yago/YagoPermanentlyLocatedEntity
p115
aVhttp://dbpedia.org/class/yago/PhysicalEntity100001930
p116
aVhttp://dbpedia.org/resource/Sonoma_Coast_AVA
tp117
aa(lp118
((lp119
Vhttp://dbpedia.org/class/yago/AmericanViticulturalAreas
p120
aVhttp://dbpedia.org/class/yago/AmericanViticulturalAreasOfTheSanFranciscoBayArea
p121
aVhttp://dbpedia.org/class/yago/Area108497294
p122
aVhttp://dbpedia.org/class/yago/Location100027167
p123
aVhttp://dbpedia.org/class/yago/Object100002684
p124
aVhttp://dbpedia.org/class/yago/Region108630985
p125
aVhttp://dbpedia.org/class/yago/YagoGeoEntity
p126
aVhttp://dbpedia.org/class/yago/YagoLegalActorGeo
p127
aVhttp://www.w3.org/2002/07/owl#Thing
p128
aVhttp://dbpedia.org/ontology/Place
p129
aVhttp://dbpedia.org/ontology/Location
p130
aVhttp://dbpedia.org/ontology/WineRegion
p131
aVhttp://www.w3.org/2003/01/geo/wgs84_pos#SpatialThing
p132
aVhttp://schema.org/Place
p133
aVhttp://umbel.org/umbel/rc/GeographicalRegion
p134
aVhttp://dbpedia.org/class/yago/YagoPermanentlyLocatedEntity
p135
aVhttp://dbpedia.org/class/yago/PhysicalEntity100001930
p136
aVhttp://dbpedia.org/resource/Sonoma_Mountain_AVA
tp137
aa(lp138
((lp139
Vhttp://dbpedia.org/class/yago/AmericanViticulturalAreas
p140
aVhttp://dbpedia.org/class/yago/AmericanViticulturalAreasOfTheSanFranciscoBayArea
p141
aVhttp://dbpedia.org/class/yago/Area108497294
p142
aVhttp://dbpedia.org/class/yago/Location100027167
p143
aVhttp://dbpedia.org/class/yago/Object100002684
p144
aVhttp://dbpedia.org/class/yago/Region108630985
p145
aVhttp://dbpedia.org/class/yago/YagoGeoEntity
p146
aVhttp://dbpedia.org/class/yago/YagoLegalActorGeo
p147
aVhttp://www.w3.org/2002/07/owl#Thing
p148
aVhttp://dbpedia.org/ontology/Place
p149
aVhttp://dbpedia.org/ontology/Location
p150
aVhttp://dbpedia.org/ontology/WineRegion
p151
aVhttp://www.w3.org/2003/01/geo/wgs84_pos#SpatialThing
p152
aVhttp://schema.org/Place
p153
aVhttp://umbel.org/umbel/rc/GeographicalRegion
p154
aVhttp://dbpedia.org/class/yago/YagoPermanentlyLocatedEntity
p155
aVhttp://dbpedia.org/class/yago/PhysicalEntity100001930
p156
aVhttp://dbpedia.org/resource/Sonoma_Valley_AVA
tp157
aa(lp158
a(lp159
((lp160
Vhttp://www.w3.org/2002/07/owl#Thing
p161
aVhttp://dbpedia.org/ontology/Place
p162
aVhttp://dbpedia.org/ontology/Location
p163
aVhttp://dbpedia.org/ontology/WineRegion
p164
aVhttp://schema.org/Place
p165
aVhttp://umbel.org/umbel/rc/GeographicalRegion
p166
aVhttp://dbpedia.org/resource/Arizona_wine
tp167
aa(lp168
((lp169
Vhttp://dbpedia.org/class/yago/Location100027167
p170
aVhttp://dbpedia.org/class/yago/Object100002684
p171
aVhttp://dbpedia.org/class/yago/Region108630039
p172
aVhttp://dbpedia.org/class/yago/YagoGeoEntity
p173
aVhttp://dbpedia.org/class/yago/YagoLegalActorGeo
p174
aVhttp://www.w3.org/2002/07/owl#Thing
p175
aVhttp://dbpedia.org/ontology/Place
p176
aVhttp://dbpedia.org/ontology/Location
p177
aVhttp://dbpedia.org/ontology/WineRegion
p178
aVhttp://schema.org/Place
p179
aVhttp://dbpedia.org/class/yago/YagoPermanentlyLocatedEntity
p180
aVhttp://dbpedia.org/class/yago/PhysicalEntity100001930
p181
aVhttp://dbpedia.org/class/yago/WineRegionsOfBritishColumbia
p182
aVhttp://dbpedia.org/resource/Okanagan_Valley_(wine_region)
tp183
aa(lp184
((lp185
Vhttp://dbpedia.org/class/yago/AmericanViticulturalAreas
p186
aVhttp://dbpedia.org/class/yago/AmericanViticulturalAreasOfCalifornia
p187
aVhttp://dbpedia.org/class/yago/Area108497294
p188
aVhttp://dbpedia.org/class/yago/Location100027167
p189
aVhttp://dbpedia.org/class/yago/Object100002684
p190
aVhttp://dbpedia.org/class/yago/Region108630985
p191
aVhttp://dbpedia.org/class/yago/YagoGeoEntity
p192
aVhttp://dbpedia.org/class/yago/YagoLegalActorGeo
p193
aVhttp://www.w3.org/2002/07/owl#Thing
p194
aVhttp://dbpedia.org/ontology/Place
p195
aVhttp://dbpedia.org/ontology/Location
p196
aVhttp://dbpedia.org/ontology/WineRegion
p197
aVhttp://schema.org/Place
p198
aVhttp://umbel.org/umbel/rc/GeographicalRegion
p199
aVhttp://dbpedia.org/class/yago/YagoPermanentlyLocatedEntity
p200
aVhttp://dbpedia.org/class/yago/PhysicalEntity100001930
p201
aVhttp://dbpedia.org/resource/Santa_Lucia_Highlands_AVA
tp202
aa(lp203
((lp204
Vhttp://dbpedia.org/class/yago/Location100027167
p205
aVhttp://dbpedia.org/class/yago/Object100002684
p206
aVhttp://dbpedia.org/class/yago/Region108630039
p207
aVhttp://dbpedia.org/class/yago/YagoGeoEntity
p208
aVhttp://dbpedia.org/class/yago/YagoLegalActorGeo
p209
aVhttp://www.w3.org/2002/07/owl#Thing
p210
aVhttp://dbpedia.org/ontology/Place
p211
aVhttp://dbpedia.org/ontology/Location
p212
aVhttp://dbpedia.org/ontology/WineRegion
p213
aVhttp://schema.org/Place
p214
aVhttp://umbel.org/umbel/rc/GeographicalRegion
p215
aVhttp://dbpedia.org/class/yago/YagoPermanentlyLocatedEntity
p216
aVhttp://dbpedia.org/class/yago/PhysicalEntity100001930
p217
aVhttp://dbpedia.org/class/yago/WineRegionsOfTheWestCoastOfTheUnitedStates
p218
aVhttp://dbpedia.org/resource/Oregon_wine
tp219
aa(lp220
((lp221
Vhttp://dbpedia.org/class/yago/AmericanViticulturalAreas
p222
aVhttp://dbpedia.org/class/yago/AmericanViticulturalAreasOfCalifornia
p223
aVhttp://dbpedia.org/class/yago/Area108497294
p224
aVhttp://dbpedia.org/class/yago/Location100027167
p225
aVhttp://dbpedia.org/class/yago/Object100002684
p226
aVhttp://dbpedia.org/class/yago/Region108630985
p227
aVhttp://dbpedia.org/class/yago/YagoGeoEntity
p228
aVhttp://dbpedia.org/class/yago/YagoLegalActorGeo
p229
aVhttp://www.w3.org/2002/07/owl#Thing
p230
aVhttp://dbpedia.org/ontology/Place
p231
aVhttp://dbpedia.org/ontology/Location
p232
aVhttp://dbpedia.org/ontology/WineRegion
p233
aVhttp://schema.org/Place
p234
aVhttp://umbel.org/umbel/rc/GeographicalRegion
p235
aVhttp://dbpedia.org/class/yago/YagoPermanentlyLocatedEntity
p236
aVhttp://dbpedia.org/class/yago/PhysicalEntity100001930
p237
aVhttp://dbpedia.org/resource/Alta_Mesa_AVA
tp238
aa(lp239
((lp240
Vhttp://dbpedia.org/class/yago/AmericanViticulturalAreas
p241
aVhttp://dbpedia.org/class/yago/AmericanViticulturalAreasOfCalifornia
p242
aVhttp://dbpedia.org/class/yago/Area108497294
p243
aVhttp://dbpedia.org/class/yago/Location100027167
p244
aVhttp://dbpedia.org/class/yago/Object100002684
p245
aVhttp://dbpedia.org/class/yago/Region108630985
p246
aVhttp://dbpedia.org/class/yago/YagoGeoEntity
p247
aVhttp://dbpedia.org/class/yago/YagoLegalActorGeo
p248
aVhttp://www.w3.org/2002/07/owl#Thing
p249
aVhttp://dbpedia.org/ontology/Place
p250
aVhttp://dbpedia.org/ontology/Location
p251
aVhttp://dbpedia.org/ontology/WineRegion
p252
aVhttp://schema.org/Place
p253
aVhttp://umbel.org/umbel/rc/GeographicalRegion
p254
aVhttp://dbpedia.org/class/yago/YagoPermanentlyLocatedEntity
p255
aVhttp://dbpedia.org/class/yago/PhysicalEntity100001930
p256
aVhttp://dbpedia.org/resource/Arroyo_Grande_Valley_AVA
tp257
aa(lp258
((lp259
Vhttp://dbpedia.org/class/yago/AmericanViticulturalAreas
p260
aVhttp://dbpedia.org/class/yago/Area108497294
p261
aVhttp://dbpedia.org/class/yago/Location100027167
p262
aVhttp://dbpedia.org/class/yago/Object100002684
p263
aVhttp://dbpedia.org/class/yago/Region108630985
p264
aVhttp://dbpedia.org/class/yago/YagoGeoEntity
p265
aVhttp://dbpedia.org/class/yago/YagoLegalActorGeo
p266
aVhttp://www.w3.org/2002/07/owl#Thing
p267
aVhttp://dbpedia.org/ontology/Place
p268
aVhttp://dbpedia.org/ontology/Location
p269
aVhttp://dbpedia.org/ontology/WineRegion
p270
aVhttp://schema.org/Place
p271
aVhttp://umbel.org/umbel/rc/GeographicalRegion
p272
aVhttp://dbpedia.org/class/yago/YagoPermanentlyLocatedEntity
p273
aVhttp://dbpedia.org/class/yago/PhysicalEntity100001930
p274
aVhttp://dbpedia.org/resource/Northern_Neck_George_Washington_Birthplace_AVA
tp275
aa(lp276
((lp277
Vhttp://dbpedia.org/class/yago/AdministrativeDistrict108491826
p278
aVhttp://dbpedia.org/class/yago/City108524735
p279
aVhttp://dbpedia.org/class/yago/District108552138
p280
aVhttp://dbpedia.org/class/yago/GeologicalFormation109287968
p281
aVhttp://dbpedia.org/class/yago/Location100027167
p282
aVhttp://dbpedia.org/class/yago/Object100002684
p283
aVhttp://dbpedia.org/class/yago/Region108630985
p284
aVhttp://dbpedia.org/class/yago/UrbanArea108675967
p285
aVhttp://dbpedia.org/class/yago/YagoGeoEntity
p286
aVhttp://dbpedia.org/class/yago/YagoLegalActorGeo
p287
aVhttp://www.w3.org/2002/07/owl#Thing
p288
aVhttp://dbpedia.org/ontology/Place
p289
aVhttp://dbpedia.org/ontology/Location
p290
aVhttp://www.wikidata.org/entity/Q486972
p291
aVhttp://www.wikidata.org/entity/Q515
p292
aVhttp://dbpedia.org/ontology/City
p293
aVhttp://dbpedia.org/ontology/PopulatedPlace
p294
aVhttp://dbpedia.org/ontology/Settlement
p295
aVhttp://www.w3.org/2003/01/geo/wgs84_pos#SpatialThing
p296
aVhttp://schema.org/City
p297
aVhttp://schema.org/Place
p298
aVhttp://umbel.org/umbel/rc/City
p299
aVhttp://umbel.org/umbel/rc/Location_Underspecified
p300
aVhttp://umbel.org/umbel/rc/PopulatedPlace
p301
aVhttp://umbel.org/umbel/rc/Village
p302
aVhttp://dbpedia.org/class/yago/CitiesInSanLuisObispoCounty,California
p303
aVhttp://dbpedia.org/class/yago/YagoPermanentlyLocatedEntity
p304
aVhttp://dbpedia.org/class/yago/GeographicalArea108574314
p305
aVhttp://dbpedia.org/class/yago/HotSpring109305898
p306
aVhttp://dbpedia.org/class/yago/HotSpringsOfCalifornia
p307
aVhttp://dbpedia.org/class/yago/IncorporatedCitiesAndTownsInCalifornia
p308
aVhttp://dbpedia.org/class/yago/Municipality108626283
p309
aVhttp://dbpedia.org/class/yago/PhysicalEntity100001930
p310
aVhttp://dbpedia.org/class/yago/Spring109443453
p311
aVhttp://dbpedia.org/resource/Paso_Robles,_California
p312
tp313
aaa.