(lp1
(dp2
I0
(dp3
I0
(lp4
sI1
(lp5
sI2
(lp6
Vhttp://www.w3.org/ns/prov#wasDerivedFrom
p7
assI1
(dp8
I0
g5
sI1
(lp9
sI2
(lp10
ssI2
(dp11
I0
g6
sI1
g10
sI2
(lp12
ssa(dp13
I0
(dp14
I0
(lp15
sI1
(lp16
sI2
(lp17
Vhttp://www.w3.org/ns/prov#wasDerivedFrom
p18
assI1
(dp19
I0
g16
sI1
(lp20
sI2
(lp21
ssI2
(dp22
I0
g17
sI1
g21
sI2
(lp23
ssa(dp24
I0
(dp25
I0
(lp26
sI1
(lp27
sI2
(lp28
Vhttp://www.w3.org/ns/prov#wasDerivedFrom
p29
assI1
(dp30
I0
g27
sI1
(lp31
sI2
(lp32
ssI2
(dp33
I0
g28
sI1
g32
sI2
(lp34
ssa(dp35
I0
(dp36
I0
(lp37
sI1
(lp38
sI2
(lp39
Vhttp://www.w3.org/ns/prov#wasDerivedFrom
p40
assI1
(dp41
I0
g38
sI1
(lp42
sI2
(lp43
ssI2
(dp44
I0
g39
sI1
g43
sI2
(lp45
ssa(dp46
I0
(dp47
I0
(lp48
sI1
(lp49
sI2
(lp50
ssI1
(dp51
I0
g49
sI1
(lp52
sI2
(lp53
ssI2
(dp54
I0
g50
sI1
g53
sI2
(lp55
ssa(dp56
I0
(dp57
I0
(lp58
sI1
(lp59
sI2
(lp60
Vhttp://www.w3.org/ns/prov#wasDerivedFrom
p61
assI1
(dp62
I0
g59
sI1
(lp63
sI2
(lp64
ssI2
(dp65
I0
g60
sI1
g64
sI2
(lp66
ssa(dp67
I0
(dp68
I0
(lp69
sI1
(lp70
sI2
(lp71
ssI1
(dp72
I0
g70
sI1
(lp73
sI2
(lp74
ssI2
(dp75
I0
g71
sI2
(lp76
ssa(dp77
I0
(dp78
I0
(lp79
sI1
(lp80
sI2
(lp81
Vhttp://www.w3.org/ns/prov#wasDerivedFrom
p82
assI1
(dp83
I0
g80
sI1
(lp84
sI2
(lp85
ssI2
(dp86
I0
g81
sI1
g85
sI2
(lp87
ssa(dp88
I0
(dp89
I0
(lp90
sI1
(lp91
sI2
(lp92
Vhttp://www.w3.org/ns/prov#wasDerivedFrom
p93
assI1
(dp94
I0
g91
sI1
(lp95
sI2
(lp96
ssI2
(dp97
I0
g92
sI1
g96
sI2
(lp98
ssa(dp99
I0
(dp100
I0
(lp101
sI1
(lp102
sI2
(lp103
Vhttp://www.w3.org/ns/prov#wasDerivedFrom
p104
assI1
(dp105
I0
g102
sI1
(lp106
sI2
(lp107
ssI2
(dp108
I0
g103
sI1
g107
sI2
(lp109
ssa(dp110
I0
(dp111
I0
(lp112
sI1
(lp113
sI2
(lp114
ssI1
(dp115
I0
g113
sI1
(lp116
sI2
(lp117
ssI2
(dp118
I0
g114
sI2
(lp119
ssa(dp120
I0
(dp121
I0
(lp122
sI1
(lp123
sI2
(lp124
ssI1
(dp125
I0
g123
sI1
(lp126
sI2
(lp127
ssI2
(dp128
I0
g124
sI2
(lp129
ssa(dp130
I0
(dp131
I0
(lp132
sI1
(lp133
sI2
(lp134
ssI1
(dp135
I0
g133
sI1
(lp136
sI2
(lp137
ssI2
(dp138
I0
g134
sI2
(lp139
ssa(dp140
I0
(dp141
I0
(lp142
sI1
(lp143
sI2
(lp144
ssI1
(dp145
I0
g143
sI1
(lp146
sI2
(lp147
ssI2
(dp148
I0
g144
sI2
(lp149
ssa(dp150
I0
(dp151
I0
(lp152
sI1
(lp153
sI2
(lp154
ssI1
(dp155
I0
g153
sI1
(lp156
sI2
(lp157
ssI2
(dp158
I0
g154
sI2
(lp159
ssa(dp160
I0
(dp161
I0
(lp162
sI1
(lp163
sI2
(lp164
Vhttp://www.w3.org/ns/prov#wasDerivedFrom
p165
assI1
(dp166
I0
g163
sI1
(lp167
sI2
(lp168
ssI2
(dp169
I0
g164
sI1
g168
sI2
(lp170
ssa(dp171
I0
(dp172
I0
(lp173
sI1
(lp174
sI2
(lp175
Vhttp://www.w3.org/ns/prov#wasDerivedFrom
p176
assI1
(dp177
I0
g174
sI1
(lp178
sI2
(lp179
ssI2
(dp180
I0
g175
sI1
g179
sI2
(lp181
ssa(dp182
I0
(dp183
I0
(lp184
sI1
(lp185
sI2
(lp186
ssI1
(dp187
I0
g185
sI1
(lp188
sI2
(lp189
ssI2
(dp190
I0
g186
sI2
(lp191
ssa(dp192
I0
(dp193
I0
(lp194
sI1
(lp195
sI2
(lp196
ssI1
(dp197
I0
g195
sI1
(lp198
sI2
(lp199
ssI2
(dp200
I0
g196
sI2
(lp201
ssa.