(lp1
(lp2
(lp3
a(lp4
a(lp5
aa(lp6
(lp7
a(lp8
a(lp9
((lp10
Vhttp://dbpedia.org/class/yago/Amphibian102704792
p11
aVhttp://dbpedia.org/class/yago/AmphibiansOfAfrica
p12
aVhttp://dbpedia.org/class/yago/Artifact100021939
p13
aVhttp://dbpedia.org/class/yago/Container103094503
p14
aVhttp://dbpedia.org/class/yago/Conveyance103100490
p15
aVhttp://dbpedia.org/class/yago/MotorVehicle103791235
p16
aVhttp://dbpedia.org/class/yago/Object100002684
p17
aVhttp://dbpedia.org/class/yago/Self-propelledVehicle104170037
p18
aVhttp://dbpedia.org/class/yago/Vehicle104524313
p19
aVhttp://dbpedia.org/class/yago/WheeledVehicle104576211
p20
aVhttp://dbpedia.org/class/yago/Whole100003553
p21
aVhttp://www.w3.org/2002/07/owl#Thing
p22
aVhttp://www.wikidata.org/entity/Q19088
p23
aVhttp://www.wikidata.org/entity/Q729
p24
aVhttp://dbpedia.org/ontology/Amphibian
p25
aVhttp://dbpedia.org/ontology/Animal
p26
aVhttp://dbpedia.org/ontology/Eukaryote
p27
aVhttp://dbpedia.org/ontology/Species
p28
aVhttp://umbel.org/umbel/rc/Amphibian
p29
aVhttp://dbpedia.org/class/yago/PetAmphibians
p30
aVhttp://dbpedia.org/class/yago/Instrumentality103575240
p31
aVhttp://dbpedia.org/class/yago/PhysicalEntity100001930
p32
aVhttp://dbpedia.org/resource/African_dwarf_frog
tp33
aaa(lp34
(lp35
a(lp36
a(lp37
((lp38
Vhttp://www.w3.org/2002/07/owl#Thing
p39
aVhttp://www.wikidata.org/entity/Q19088
p40
aVhttp://www.wikidata.org/entity/Q729
p41
aVhttp://dbpedia.org/ontology/Amphibian
p42
aVhttp://dbpedia.org/ontology/Animal
p43
aVhttp://dbpedia.org/ontology/Eukaryote
p44
aVhttp://dbpedia.org/ontology/Species
p45
aVhttp://dbpedia.org/resource/Snow_Mountains_tree_frog
tp46
aaa(lp47
(lp48
a(lp49
a(lp50
((lp51
Vhttp://www.w3.org/2002/07/owl#Thing
p52
aVhttp://www.wikidata.org/entity/Q19088
p53
aVhttp://www.wikidata.org/entity/Q729
p54
aVhttp://dbpedia.org/ontology/Amphibian
p55
aVhttp://dbpedia.org/ontology/Animal
p56
aVhttp://dbpedia.org/ontology/Eukaryote
p57
aVhttp://dbpedia.org/ontology/Species
p58
aVhttp://umbel.org/umbel/rc/Amphibian
p59
aVhttp://umbel.org/umbel/rc/Animal
p60
aVhttp://umbel.org/umbel/rc/BiologicalLivingObject
p61
aVhttp://umbel.org/umbel/rc/EukaryoticCell
p62
aVhttp://dbpedia.org/resource/True_toad
tp63
aaa(lp64
(lp65
a(lp66
a(lp67
((lp68
Vhttp://www.w3.org/2002/07/owl#Thing
p69
aVhttp://www.wikidata.org/entity/Q19088
p70
aVhttp://www.wikidata.org/entity/Q729
p71
aVhttp://dbpedia.org/ontology/Amphibian
p72
aVhttp://dbpedia.org/ontology/Animal
p73
aVhttp://dbpedia.org/ontology/Eukaryote
p74
aVhttp://dbpedia.org/ontology/Species
p75
aVhttp://umbel.org/umbel/rc/Amphibian
p76
aVhttp://dbpedia.org/resource/Anodonthyla
tp77
aaa(lp78
(lp79
a(lp80
a(lp81
((lp82
Vhttp://dbpedia.org/class/yago/Amphibian102704792
p83
aVhttp://dbpedia.org/class/yago/Artifact100021939
p84
aVhttp://dbpedia.org/class/yago/CarboniferousAmphibians
p85
aVhttp://dbpedia.org/class/yago/Container103094503
p86
aVhttp://dbpedia.org/class/yago/Conveyance103100490
p87
aVhttp://dbpedia.org/class/yago/MotorVehicle103791235
p88
aVhttp://dbpedia.org/class/yago/Object100002684
p89
aVhttp://dbpedia.org/class/yago/Self-propelledVehicle104170037
p90
aVhttp://dbpedia.org/class/yago/Vehicle104524313
p91
aVhttp://dbpedia.org/class/yago/WheeledVehicle104576211
p92
aVhttp://dbpedia.org/class/yago/Whole100003553
p93
aVhttp://dbpedia.org/class/yago/PrehistoricAmphibians
p94
aVhttp://www.w3.org/2002/07/owl#Thing
p95
aVhttp://www.wikidata.org/entity/Q19088
p96
aVhttp://www.wikidata.org/entity/Q729
p97
aVhttp://dbpedia.org/ontology/Amphibian
p98
aVhttp://dbpedia.org/ontology/Animal
p99
aVhttp://dbpedia.org/ontology/Eukaryote
p100
aVhttp://dbpedia.org/ontology/Species
p101
aVhttp://umbel.org/umbel/rc/Amphibian
p102
aVhttp://dbpedia.org/class/yago/PermianAmphibians
p103
aVhttp://dbpedia.org/class/yago/Instrumentality103575240
p104
aVhttp://dbpedia.org/class/yago/PhysicalEntity100001930
p105
aVhttp://dbpedia.org/resource/Brachydectes
tp106
aaa(lp107
(lp108
a(lp109
a(lp110
((lp111
Vhttp://www.w3.org/2002/07/owl#Thing
p112
aVhttp://www.wikidata.org/entity/Q19088
p113
aVhttp://www.wikidata.org/entity/Q729
p114
aVhttp://dbpedia.org/ontology/Amphibian
p115
aVhttp://dbpedia.org/ontology/Animal
p116
aVhttp://dbpedia.org/ontology/Eukaryote
p117
aVhttp://dbpedia.org/ontology/Species
p118
aVhttp://umbel.org/umbel/rc/Amphibian
p119
aVhttp://dbpedia.org/resource/Cardioglossa_venusta
tp120
aaa(lp121
(lp122
a(lp123
a(lp124
((lp125
Vhttp://dbpedia.org/class/yago/Amphibian102704792
p126
aVhttp://dbpedia.org/class/yago/AmphibiansOfPeru
p127
aVhttp://dbpedia.org/class/yago/Artifact100021939
p128
aVhttp://dbpedia.org/class/yago/Container103094503
p129
aVhttp://dbpedia.org/class/yago/Conveyance103100490
p130
aVhttp://dbpedia.org/class/yago/MotorVehicle103791235
p131
aVhttp://dbpedia.org/class/yago/Object100002684
p132
aVhttp://dbpedia.org/class/yago/Self-propelledVehicle104170037
p133
aVhttp://dbpedia.org/class/yago/Vehicle104524313
p134
aVhttp://dbpedia.org/class/yago/WheeledVehicle104576211
p135
aVhttp://dbpedia.org/class/yago/Whole100003553
p136
aVhttp://www.w3.org/2002/07/owl#Thing
p137
aVhttp://www.wikidata.org/entity/Q19088
p138
aVhttp://www.wikidata.org/entity/Q729
p139
aVhttp://dbpedia.org/ontology/Amphibian
p140
aVhttp://dbpedia.org/ontology/Animal
p141
aVhttp://dbpedia.org/ontology/Eukaryote
p142
aVhttp://dbpedia.org/ontology/Species
p143
aVhttp://umbel.org/umbel/rc/Amphibian
p144
aVhttp://dbpedia.org/class/yago/Instrumentality103575240
p145
aVhttp://dbpedia.org/class/yago/PhysicalEntity100001930
p146
aVhttp://dbpedia.org/resource/Centrolene_fernandoi
tp147
aaa(lp148
(lp149
a(lp150
a(lp151
((lp152
Vhttp://www.w3.org/2002/07/owl#Thing
p153
aVhttp://www.wikidata.org/entity/Q19088
p154
aVhttp://www.wikidata.org/entity/Q729
p155
aVhttp://dbpedia.org/ontology/Amphibian
p156
aVhttp://dbpedia.org/ontology/Animal
p157
aVhttp://dbpedia.org/ontology/Eukaryote
p158
aVhttp://dbpedia.org/ontology/Species
p159
aVhttp://umbel.org/umbel/rc/Amphibian
p160
aVhttp://dbpedia.org/resource/Chiasmocleis_centralis
tp161
aaa(lp162
(lp163
a(lp164
a(lp165
((lp166
Vhttp://www.w3.org/2002/07/owl#Thing
p167
aVhttp://www.wikidata.org/entity/Q19088
p168
aVhttp://www.wikidata.org/entity/Q729
p169
aVhttp://dbpedia.org/ontology/Amphibian
p170
aVhttp://dbpedia.org/ontology/Animal
p171
aVhttp://dbpedia.org/ontology/Eukaryote
p172
aVhttp://dbpedia.org/ontology/Species
p173
aVhttp://umbel.org/umbel/rc/Amphibian
p174
aVhttp://dbpedia.org/resource/Eleutherodactylus_bilineatus
tp175
aaa(lp176
(lp177
a(lp178
a(lp179
((lp180
Vhttp://www.w3.org/2002/07/owl#Thing
p181
aVhttp://www.wikidata.org/entity/Q19088
p182
aVhttp://www.wikidata.org/entity/Q729
p183
aVhttp://dbpedia.org/ontology/Amphibian
p184
aVhttp://dbpedia.org/ontology/Animal
p185
aVhttp://dbpedia.org/ontology/Eukaryote
p186
aVhttp://dbpedia.org/ontology/Species
p187
aVhttp://dbpedia.org/resource/Eogyrinus
tp188
aaa(lp189
(lp190
a(lp191
a(lp192
((lp193
Vhttp://www.w3.org/2002/07/owl#Thing
p194
aVhttp://www.wikidata.org/entity/Q19088
p195
aVhttp://www.wikidata.org/entity/Q729
p196
aVhttp://dbpedia.org/ontology/Amphibian
p197
aVhttp://dbpedia.org/ontology/Animal
p198
aVhttp://dbpedia.org/ontology/Eukaryote
p199
aVhttp://dbpedia.org/ontology/Species
p200
aVhttp://dbpedia.org/resource/Frigate_Island_caecilian
tp201
aaa(lp202
(lp203
a(lp204
a(lp205
aa(lp206
(lp207
a(lp208
a(lp209
((lp210
Vhttp://www.w3.org/2002/07/owl#Thing
p211
aVhttp://www.wikidata.org/entity/Q19088
p212
aVhttp://www.wikidata.org/entity/Q729
p213
aVhttp://dbpedia.org/ontology/Amphibian
p214
aVhttp://dbpedia.org/ontology/Animal
p215
aVhttp://dbpedia.org/ontology/Eukaryote
p216
aVhttp://dbpedia.org/ontology/Species
p217
aVhttp://umbel.org/umbel/rc/Amphibian
p218
aVhttp://dbpedia.org/resource/Hyperolius_orkarkarri
tp219
aaa(lp220
(lp221
a(lp222
a(lp223
((lp224
Vhttp://www.w3.org/2002/07/owl#Thing
p225
aVhttp://www.wikidata.org/entity/Q19088
p226
aVhttp://www.wikidata.org/entity/Q729
p227
aVhttp://dbpedia.org/ontology/Amphibian
p228
aVhttp://dbpedia.org/ontology/Animal
p229
aVhttp://dbpedia.org/ontology/Eukaryote
p230
aVhttp://dbpedia.org/ontology/Species
p231
aVhttp://umbel.org/umbel/rc/Amphibian
p232
aVhttp://dbpedia.org/resource/Leptopelis_crystallinoron
tp233
aaa(lp234
(lp235
a(lp236
a(lp237
((lp238
Vhttp://www.w3.org/2002/07/owl#Thing
p239
aVhttp://www.wikidata.org/entity/Q19088
p240
aVhttp://www.wikidata.org/entity/Q729
p241
aVhttp://dbpedia.org/ontology/Amphibian
p242
aVhttp://dbpedia.org/ontology/Animal
p243
aVhttp://dbpedia.org/ontology/Eukaryote
p244
aVhttp://dbpedia.org/ontology/Species
p245
aVhttp://umbel.org/umbel/rc/Amphibian
p246
aVhttp://dbpedia.org/resource/Phyllomedusa_coelestis
tp247
aaa(lp248
(lp249
a(lp250
a(lp251
((lVhttp://dbpedia.org/resource/Pseudophilautus_femoralis
tp252
aaa(lp253
(lp254
a(lp255
a(lp256
((lp257
Vhttp://www.w3.org/2002/07/owl#Thing
p258
aVhttp://www.wikidata.org/entity/Q19088
p259
aVhttp://www.wikidata.org/entity/Q729
p260
aVhttp://dbpedia.org/ontology/Amphibian
p261
aVhttp://dbpedia.org/ontology/Animal
p262
aVhttp://dbpedia.org/ontology/Eukaryote
p263
aVhttp://dbpedia.org/ontology/Species
p264
aVhttp://dbpedia.org/resource/Rhinella_chavin
tp265
aaa(lp266
(lp267
a(lp268
a(lp269
((lp270
Vhttp://www.w3.org/2002/07/owl#Thing
p271
aVhttp://www.wikidata.org/entity/Q19088
p272
aVhttp://www.wikidata.org/entity/Q729
p273
aVhttp://dbpedia.org/ontology/Amphibian
p274
aVhttp://dbpedia.org/ontology/Animal
p275
aVhttp://dbpedia.org/ontology/Eukaryote
p276
aVhttp://dbpedia.org/ontology/Species
p277
aVhttp://umbel.org/umbel/rc/Amphibian
p278
aVhttp://dbpedia.org/resource/Scaphiophryne_madagascariensis
p279
tp280
aaa.