ccollections
defaultdict
p1
(c__builtin__
dict
p2
tRp3
I2
(dp4
I0
(lp5
sI2
(lp6
sI3
(lp7
ssI3
(dp8
I0
(lp9
sI2
(lp10
sI3
(lp11
ssI4
(dp12
I0
(lp13
sI2
(lp14
sI3
(lp15
Vhttp://www.w3.org/ns/prov#wasDerivedFrom
p16
assI5
(dp17
I0
(lp18
sI2
(lp19
sI3
(lp20
ssI6
(dp21
I0
(lp22
sI2
(lp23
sI3
(lp24
ssI7
(dp25
I0
(lp26
sI2
(lp27
sI3
(lp28
ssI8
(dp29
I0
(lp30
sI2
(lp31
sI3
(lp32
ssI10
(dp33
I0
(lp34
sI2
(lp35
sI3
(lp36
Vhttp://www.w3.org/ns/prov#wasDerivedFrom
p37
assI11
(dp38
I0
(lp39
sI2
(lp40
sI3
(lp41
ssI12
(dp42
I0
(lp43
sI2
(lp44
sI3
(lp45
Vhttp://www.w3.org/ns/prov#wasDerivedFrom
p46
assI13
(dp47
I0
(lp48
sI2
(lp49
sI3
(lp50
ssI14
(dp51
I0
(lp52
sI2
(lp53
sI3
(lp54
ssI15
(dp55
I0
(lp56
sI2
(lp57
sI3
(lp58
ssI16
(dp59
I0
(lp60
sI2
(lp61
sI3
(lp62
ssI17
(dp63
I0
(lp64
sI2
(lp65
sI3
(lp66
ss.