(lp1
(lp2
(lp3
((lp4
Vhttp://dbpedia.org/class/yago/Artist109812338
p5
aVhttp://dbpedia.org/class/yago/BelgianComicsArtists
p6
aVhttp://dbpedia.org/class/yago/BelgianComicsWriters
p7
aVhttp://dbpedia.org/class/yago/CausalAgent100007347
p8
aVhttp://dbpedia.org/class/yago/Communicator109610660
p9
aVhttp://dbpedia.org/class/yago/Creator109614315
p10
aVhttp://dbpedia.org/class/yago/LivingThing100004258
p11
aVhttp://dbpedia.org/class/yago/Object100002684
p12
aVhttp://dbpedia.org/class/yago/Organism100004475
p13
aVhttp://dbpedia.org/class/yago/Person100007846
p14
aVhttp://dbpedia.org/class/yago/Whole100003553
p15
aVhttp://dbpedia.org/class/yago/Writer110794014
p16
aVhttp://dbpedia.org/class/yago/YagoLegalActorGeo
p17
aVhttp://www.w3.org/2002/07/owl#Thing
p18
aVhttp://xmlns.com/foaf/0.1/Person
p19
aVhttp://dbpedia.org/ontology/Person
p20
aVhttp://www.ontologydesignpatterns.org/ont/dul/DUL.owl#Agent
p21
aVhttp://www.ontologydesignpatterns.org/ont/dul/DUL.owl#NaturalPerson
p22
aVhttp://www.wikidata.org/entity/Q215627
p23
aVhttp://www.wikidata.org/entity/Q483501
p24
aVhttp://www.wikidata.org/entity/Q5
p25
aVhttp://dbpedia.org/ontology/Agent
p26
aVhttp://dbpedia.org/ontology/Artist
p27
aVhttp://dbpedia.org/ontology/ComicsCreator
p28
aVhttp://schema.org/Person
p29
aVhttp://umbel.org/umbel/rc/Artist
p30
aVhttp://dbpedia.org/class/yago/PeopleFromBrussels
p31
aVhttp://dbpedia.org/class/yago/YagoLegalActor
p32
aVhttp://dbpedia.org/class/yago/LivingPeople
p33
aVhttp://dbpedia.org/class/yago/PhysicalEntity100001930
p34
aVhttp://dbpedia.org/resource/Bob_de_Groot
tp35
aa(lp36
((lp37
Vhttp://dbpedia.org/class/yago/CausalAgent100007347
p38
aVhttp://dbpedia.org/class/yago/LivingThing100004258
p39
aVhttp://dbpedia.org/class/yago/Object100002684
p40
aVhttp://dbpedia.org/class/yago/Organism100004475
p41
aVhttp://dbpedia.org/class/yago/Person100007846
p42
aVhttp://dbpedia.org/class/yago/Whole100003553
p43
aVhttp://dbpedia.org/class/yago/YagoLegalActorGeo
p44
aVhttp://www.w3.org/2002/07/owl#Thing
p45
aVhttp://xmlns.com/foaf/0.1/Person
p46
aVhttp://dbpedia.org/ontology/Person
p47
aVhttp://www.ontologydesignpatterns.org/ont/dul/DUL.owl#Agent
p48
aVhttp://www.ontologydesignpatterns.org/ont/dul/DUL.owl#NaturalPerson
p49
aVhttp://www.wikidata.org/entity/Q215627
p50
aVhttp://www.wikidata.org/entity/Q483501
p51
aVhttp://www.wikidata.org/entity/Q5
p52
aVhttp://dbpedia.org/ontology/Agent
p53
aVhttp://dbpedia.org/ontology/Artist
p54
aVhttp://dbpedia.org/ontology/ComicsCreator
p55
aVhttp://schema.org/Person
p56
aVhttp://umbel.org/umbel/rc/Artist
p57
aVhttp://dbpedia.org/class/yago/PeopleFromPrescott,Arizona
p58
aVhttp://dbpedia.org/class/yago/YagoLegalActor
p59
aVhttp://dbpedia.org/class/yago/LivingPeople
p60
aVhttp://dbpedia.org/class/yago/PhysicalEntity100001930
p61
aVhttp://dbpedia.org/resource/Bret_Blevins
tp62
aa(lp63
((lp64
Vhttp://dbpedia.org/class/yago/CausalAgent100007347
p65
aVhttp://dbpedia.org/class/yago/LivingThing100004258
p66
aVhttp://dbpedia.org/class/yago/Object100002684
p67
aVhttp://dbpedia.org/class/yago/Organism100004475
p68
aVhttp://dbpedia.org/class/yago/Person100007846
p69
aVhttp://dbpedia.org/class/yago/Whole100003553
p70
aVhttp://dbpedia.org/class/yago/YagoLegalActorGeo
p71
aVhttp://www.w3.org/2002/07/owl#Thing
p72
aVhttp://xmlns.com/foaf/0.1/Person
p73
aVhttp://dbpedia.org/ontology/Person
p74
aVhttp://www.ontologydesignpatterns.org/ont/dul/DUL.owl#Agent
p75
aVhttp://www.ontologydesignpatterns.org/ont/dul/DUL.owl#NaturalPerson
p76
aVhttp://www.wikidata.org/entity/Q215627
p77
aVhttp://www.wikidata.org/entity/Q483501
p78
aVhttp://www.wikidata.org/entity/Q5
p79
aVhttp://dbpedia.org/ontology/Agent
p80
aVhttp://dbpedia.org/ontology/Artist
p81
aVhttp://dbpedia.org/ontology/ComicsCreator
p82
aVhttp://schema.org/Person
p83
aVhttp://umbel.org/umbel/rc/Artist
p84
aVhttp://dbpedia.org/class/yago/PeopleFromOakland,California
p85
aVhttp://dbpedia.org/class/yago/YagoLegalActor
p86
aVhttp://dbpedia.org/class/yago/LivingPeople
p87
aVhttp://dbpedia.org/class/yago/PhysicalEntity100001930
p88
aVhttp://dbpedia.org/resource/Carl_Potts
tp89
aa(lp90
((lp91
Vhttp://dbpedia.org/class/yago/CausalAgent100007347
p92
aVhttp://dbpedia.org/class/yago/LivingThing100004258
p93
aVhttp://dbpedia.org/class/yago/Object100002684
p94
aVhttp://dbpedia.org/class/yago/Organism100004475
p95
aVhttp://dbpedia.org/class/yago/Person100007846
p96
aVhttp://dbpedia.org/class/yago/Whole100003553
p97
aVhttp://dbpedia.org/class/yago/YagoLegalActorGeo
p98
aVhttp://www.w3.org/2002/07/owl#Thing
p99
aVhttp://xmlns.com/foaf/0.1/Person
p100
aVhttp://dbpedia.org/ontology/Person
p101
aVhttp://www.ontologydesignpatterns.org/ont/dul/DUL.owl#Agent
p102
aVhttp://www.ontologydesignpatterns.org/ont/dul/DUL.owl#NaturalPerson
p103
aVhttp://www.wikidata.org/entity/Q215627
p104
aVhttp://www.wikidata.org/entity/Q483501
p105
aVhttp://www.wikidata.org/entity/Q5
p106
aVhttp://dbpedia.org/ontology/Agent
p107
aVhttp://dbpedia.org/ontology/Artist
p108
aVhttp://dbpedia.org/ontology/ComicsCreator
p109
aVhttp://schema.org/Person
p110
aVhttp://dbpedia.org/class/yago/PeopleFromConnecticut
p111
aVhttp://dbpedia.org/class/yago/YagoLegalActor
p112
aVhttp://dbpedia.org/class/yago/LivingPeople
p113
aVhttp://dbpedia.org/class/yago/PhysicalEntity100001930
p114
aVhttp://dbpedia.org/resource/D._G._Chichester
tp115
aa(lp116
((lp117
Vhttp://dbpedia.org/class/yago/AmericanComicsArtists
p118
aVhttp://dbpedia.org/class/yago/AmericanIllustrators
p119
aVhttp://dbpedia.org/class/yago/Artist109812338
p120
aVhttp://dbpedia.org/class/yago/CausalAgent100007347
p121
aVhttp://dbpedia.org/class/yago/Creator109614315
p122
aVhttp://dbpedia.org/class/yago/Illustrator109812068
p123
aVhttp://dbpedia.org/class/yago/LivingThing100004258
p124
aVhttp://dbpedia.org/class/yago/Object100002684
p125
aVhttp://dbpedia.org/class/yago/Organism100004475
p126
aVhttp://dbpedia.org/class/yago/Person100007846
p127
aVhttp://dbpedia.org/class/yago/Whole100003553
p128
aVhttp://dbpedia.org/class/yago/YagoLegalActorGeo
p129
aVhttp://www.w3.org/2002/07/owl#Thing
p130
aVhttp://xmlns.com/foaf/0.1/Person
p131
aVhttp://dbpedia.org/ontology/Person
p132
aVhttp://www.ontologydesignpatterns.org/ont/dul/DUL.owl#Agent
p133
aVhttp://www.ontologydesignpatterns.org/ont/dul/DUL.owl#NaturalPerson
p134
aVhttp://www.wikidata.org/entity/Q215627
p135
aVhttp://www.wikidata.org/entity/Q483501
p136
aVhttp://www.wikidata.org/entity/Q5
p137
aVhttp://dbpedia.org/ontology/Agent
p138
aVhttp://dbpedia.org/ontology/Artist
p139
aVhttp://dbpedia.org/ontology/ComicsCreator
p140
aVhttp://schema.org/Person
p141
aVhttp://umbel.org/umbel/rc/Artist
p142
aVhttp://dbpedia.org/class/yago/PeopleFromReading,Pennsylvania
p143
aVhttp://dbpedia.org/class/yago/YagoLegalActor
p144
aVhttp://dbpedia.org/class/yago/LivingPeople
p145
aVhttp://dbpedia.org/class/yago/PhysicalEntity100001930
p146
aVhttp://dbpedia.org/resource/Dan_Adkins
tp147
aa(lp148
((lp149
Vhttp://dbpedia.org/class/yago/AmericanDJs
p150
aVhttp://dbpedia.org/class/yago/Broadcaster109875786
p151
aVhttp://dbpedia.org/class/yago/CausalAgent100007347
p152
aVhttp://dbpedia.org/class/yago/Communicator109610660
p153
aVhttp://dbpedia.org/class/yago/DiskJockey110017272
p154
aVhttp://dbpedia.org/class/yago/LivingThing100004258
p155
aVhttp://dbpedia.org/class/yago/Object100002684
p156
aVhttp://dbpedia.org/class/yago/Organism100004475
p157
aVhttp://dbpedia.org/class/yago/Person100007846
p158
aVhttp://dbpedia.org/class/yago/Whole100003553
p159
aVhttp://dbpedia.org/class/yago/YagoLegalActorGeo
p160
aVhttp://www.w3.org/2002/07/owl#Thing
p161
aVhttp://xmlns.com/foaf/0.1/Person
p162
aVhttp://dbpedia.org/ontology/Person
p163
aVhttp://www.ontologydesignpatterns.org/ont/dul/DUL.owl#Agent
p164
aVhttp://www.ontologydesignpatterns.org/ont/dul/DUL.owl#NaturalPerson
p165
aVhttp://www.wikidata.org/entity/Q215627
p166
aVhttp://www.wikidata.org/entity/Q5
p167
aVhttp://dbpedia.org/ontology/Agent
p168
aVhttp://schema.org/Person
p169
aVhttp://dbpedia.org/class/yago/YagoLegalActor
p170
aVhttp://dbpedia.org/class/yago/LivingPeople
p171
aVhttp://dbpedia.org/class/yago/PhysicalEntity100001930
p172
aVhttp://dbpedia.org/resource/Dale_Dorman
tp173
aa(lp174
((lp175
Vhttp://dbpedia.org/class/yago/CausalAgent100007347
p176
aVhttp://dbpedia.org/class/yago/LivingThing100004258
p177
aVhttp://dbpedia.org/class/yago/Object100002684
p178
aVhttp://dbpedia.org/class/yago/Organism100004475
p179
aVhttp://dbpedia.org/class/yago/Person100007846
p180
aVhttp://dbpedia.org/class/yago/Whole100003553
p181
aVhttp://dbpedia.org/class/yago/YagoLegalActorGeo
p182
aVhttp://www.w3.org/2002/07/owl#Thing
p183
aVhttp://xmlns.com/foaf/0.1/Person
p184
aVhttp://dbpedia.org/ontology/Person
p185
aVhttp://www.ontologydesignpatterns.org/ont/dul/DUL.owl#Agent
p186
aVhttp://www.ontologydesignpatterns.org/ont/dul/DUL.owl#NaturalPerson
p187
aVhttp://www.wikidata.org/entity/Q215627
p188
aVhttp://www.wikidata.org/entity/Q483501
p189
aVhttp://www.wikidata.org/entity/Q5
p190
aVhttp://dbpedia.org/ontology/Agent
p191
aVhttp://dbpedia.org/ontology/Artist
p192
aVhttp://dbpedia.org/ontology/ComicsCreator
p193
aVhttp://schema.org/Person
p194
aVhttp://dbpedia.org/class/yago/YagoLegalActor
p195
aVhttp://dbpedia.org/class/yago/LivingPeople
p196
aVhttp://dbpedia.org/class/yago/PhysicalEntity100001930
p197
aVhttp://dbpedia.org/resource/David_Hahn_(cartoonist)
tp198
aa(lp199
((lp200
Vhttp://dbpedia.org/class/yago/CausalAgent100007347
p201
aVhttp://dbpedia.org/class/yago/LivingThing100004258
p202
aVhttp://dbpedia.org/class/yago/Object100002684
p203
aVhttp://dbpedia.org/class/yago/Organism100004475
p204
aVhttp://dbpedia.org/class/yago/Person100007846
p205
aVhttp://dbpedia.org/class/yago/Whole100003553
p206
aVhttp://dbpedia.org/class/yago/YagoLegalActorGeo
p207
aVhttp://www.w3.org/2002/07/owl#Thing
p208
aVhttp://xmlns.com/foaf/0.1/Person
p209
aVhttp://dbpedia.org/ontology/Person
p210
aVhttp://www.ontologydesignpatterns.org/ont/dul/DUL.owl#Agent
p211
aVhttp://www.ontologydesignpatterns.org/ont/dul/DUL.owl#NaturalPerson
p212
aVhttp://www.wikidata.org/entity/Q215627
p213
aVhttp://www.wikidata.org/entity/Q483501
p214
aVhttp://www.wikidata.org/entity/Q5
p215
aVhttp://dbpedia.org/ontology/Agent
p216
aVhttp://dbpedia.org/ontology/Artist
p217
aVhttp://dbpedia.org/ontology/ComicsCreator
p218
aVhttp://schema.org/Person
p219
aVhttp://umbel.org/umbel/rc/Artist
p220
aVhttp://dbpedia.org/class/yago/PeopleFromAmsterdam
p221
aVhttp://dbpedia.org/class/yago/PeopleFromLeiden
p222
aVhttp://dbpedia.org/class/yago/YagoLegalActor
p223
aVhttp://dbpedia.org/class/yago/PhysicalEntity100001930
p224
aVhttp://dbpedia.org/resource/Dick_Briel
tp225
aa(lp226
((lp227
Vhttp://dbpedia.org/class/yago/AmericanComicsArtists
p228
aVhttp://dbpedia.org/class/yago/AmericanPeopleOfFilipinoDescent
p229
aVhttp://dbpedia.org/class/yago/Artist109812338
p230
aVhttp://dbpedia.org/class/yago/CausalAgent100007347
p231
aVhttp://dbpedia.org/class/yago/Creator109614315
p232
aVhttp://dbpedia.org/class/yago/Expert109617867
p233
aVhttp://dbpedia.org/class/yago/InteriorDesigner110210648
p234
aVhttp://dbpedia.org/class/yago/LivingThing100004258
p235
aVhttp://dbpedia.org/class/yago/Object100002684
p236
aVhttp://dbpedia.org/class/yago/Organism100004475
p237
aVhttp://dbpedia.org/class/yago/Person100007846
p238
aVhttp://dbpedia.org/class/yago/Specialist110631941
p239
aVhttp://dbpedia.org/class/yago/Whole100003553
p240
aVhttp://dbpedia.org/class/yago/YagoLegalActorGeo
p241
aVhttp://www.w3.org/2002/07/owl#Thing
p242
aVhttp://xmlns.com/foaf/0.1/Person
p243
aVhttp://dbpedia.org/ontology/Person
p244
aVhttp://www.ontologydesignpatterns.org/ont/dul/DUL.owl#Agent
p245
aVhttp://www.ontologydesignpatterns.org/ont/dul/DUL.owl#NaturalPerson
p246
aVhttp://www.wikidata.org/entity/Q215627
p247
aVhttp://www.wikidata.org/entity/Q483501
p248
aVhttp://www.wikidata.org/entity/Q5
p249
aVhttp://dbpedia.org/ontology/Agent
p250
aVhttp://dbpedia.org/ontology/Artist
p251
aVhttp://dbpedia.org/ontology/ComicsCreator
p252
aVhttp://schema.org/Person
p253
aVhttp://umbel.org/umbel/rc/Artist
p254
aVhttp://dbpedia.org/class/yago/FilipinoComicsArtists
p255
aVhttp://dbpedia.org/class/yago/YagoLegalActor
p256
aVhttp://dbpedia.org/class/yago/LivingPeople
p257
aVhttp://dbpedia.org/class/yago/PhysicalEntity100001930
p258
aVhttp://dbpedia.org/class/yago/ToyDesigners
p259
aVhttp://dbpedia.org/class/yago/TransformersPeople
p260
aVhttp://dbpedia.org/resource/Don_Figueroa
tp261
aa(lp262
((lp263
Vhttp://dbpedia.org/class/yago/Alumnus109786338
p264
aVhttp://dbpedia.org/class/yago/AmericanEditorialCartoonists
p265
aVhttp://dbpedia.org/class/yago/AmericanNovelists
p266
aVhttp://dbpedia.org/class/yago/Artist109812338
p267
aVhttp://dbpedia.org/class/yago/Associate109816771
p268
aVhttp://dbpedia.org/class/yago/Cartoonist109898346
p269
aVhttp://dbpedia.org/class/yago/CausalAgent100007347
p270
aVhttp://dbpedia.org/class/yago/Colleague109935990
p271
aVhttp://dbpedia.org/class/yago/Communicator109610660
p272
aVhttp://dbpedia.org/class/yago/Creator109614315
p273
aVhttp://dbpedia.org/class/yago/Draftsman110029068
p274
aVhttp://dbpedia.org/class/yago/Intellectual109621545
p275
aVhttp://dbpedia.org/class/yago/LivingThing100004258
p276
aVhttp://dbpedia.org/class/yago/Novelist110363573
p277
aVhttp://dbpedia.org/class/yago/Object100002684
p278
aVhttp://dbpedia.org/class/yago/Organism100004475
p279
aVhttp://dbpedia.org/class/yago/Peer109626238
p280
aVhttp://dbpedia.org/class/yago/Person100007846
p281
aVhttp://dbpedia.org/class/yago/Scholar110557854
p282
aVhttp://dbpedia.org/class/yago/Whole100003553
p283
aVhttp://dbpedia.org/class/yago/Writer110794014
p284
aVhttp://dbpedia.org/class/yago/YagoLegalActorGeo
p285
aVhttp://dbpedia.org/class/yago/SeminoleHighSchool(SeminoleCounty,Florida)Alumni
p286
aVhttp://www.w3.org/2002/07/owl#Thing
p287
aVhttp://xmlns.com/foaf/0.1/Person
p288
aVhttp://dbpedia.org/ontology/Person
p289
aVhttp://www.ontologydesignpatterns.org/ont/dul/DUL.owl#Agent
p290
aVhttp://www.ontologydesignpatterns.org/ont/dul/DUL.owl#NaturalPerson
p291
aVhttp://www.wikidata.org/entity/Q215627
p292
aVhttp://www.wikidata.org/entity/Q483501
p293
aVhttp://www.wikidata.org/entity/Q5
p294
aVhttp://dbpedia.org/ontology/Agent
p295
aVhttp://dbpedia.org/ontology/Artist
p296
aVhttp://dbpedia.org/ontology/ComicsCreator
p297
aVhttp://schema.org/Person
p298
aVhttp://umbel.org/umbel/rc/Artist
p299
aVhttp://dbpedia.org/class/yago/FloridaStateUniversityAlumni
p300
aVhttp://dbpedia.org/class/yago/NiemanFellows
p301
aVhttp://dbpedia.org/class/yago/PeopleFromGreensboro,NorthCarolina
p302
aVhttp://dbpedia.org/class/yago/PeopleFromHillsborough,NorthCarolina
p303
aVhttp://dbpedia.org/class/yago/YagoLegalActor
p304
aVhttp://dbpedia.org/class/yago/PhysicalEntity100001930
p305
aVhttp://dbpedia.org/class/yago/TheAtlantaJournal-ConstitutionPeople
p306
aVhttp://dbpedia.org/class/yago/TheCharlotteObserverPeople
p307
aVhttp://dbpedia.org/class/yago/WritersFromNorthCarolina
p308
aVhttp://dbpedia.org/resource/Doug_Marlette
tp309
aa(lp310
((lp311
Vhttp://dbpedia.org/class/yago/CausalAgent100007347
p312
aVhttp://dbpedia.org/class/yago/LivingThing100004258
p313
aVhttp://dbpedia.org/class/yago/Object100002684
p314
aVhttp://dbpedia.org/class/yago/Organism100004475
p315
aVhttp://dbpedia.org/class/yago/Person100007846
p316
aVhttp://dbpedia.org/class/yago/Whole100003553
p317
aVhttp://dbpedia.org/class/yago/YagoLegalActorGeo
p318
aVhttp://www.w3.org/2002/07/owl#Thing
p319
aVhttp://xmlns.com/foaf/0.1/Person
p320
aVhttp://dbpedia.org/ontology/Person
p321
aVhttp://www.ontologydesignpatterns.org/ont/dul/DUL.owl#Agent
p322
aVhttp://www.ontologydesignpatterns.org/ont/dul/DUL.owl#NaturalPerson
p323
aVhttp://www.wikidata.org/entity/Q215627
p324
aVhttp://www.wikidata.org/entity/Q483501
p325
aVhttp://www.wikidata.org/entity/Q5
p326
aVhttp://dbpedia.org/ontology/Agent
p327
aVhttp://dbpedia.org/ontology/Artist
p328
aVhttp://dbpedia.org/ontology/ComicsCreator
p329
aVhttp://schema.org/Person
p330
aVhttp://umbel.org/umbel/rc/Artist
p331
aVhttp://dbpedia.org/class/yago/YagoLegalActor
p332
aVhttp://dbpedia.org/class/yago/LivingPeople
p333
aVhttp://dbpedia.org/class/yago/PhysicalEntity100001930
p334
aVhttp://dbpedia.org/resource/Ed_Hannigan
tp335
aa(lp336
((lp337
Vhttp://dbpedia.org/class/yago/CausalAgent100007347
p338
aVhttp://dbpedia.org/class/yago/Communicator109610660
p339
aVhttp://dbpedia.org/class/yago/LivingThing100004258
p340
aVhttp://dbpedia.org/class/yago/Novelist110363573
p341
aVhttp://dbpedia.org/class/yago/Object100002684
p342
aVhttp://dbpedia.org/class/yago/Organism100004475
p343
aVhttp://dbpedia.org/class/yago/Person100007846
p344
aVhttp://dbpedia.org/class/yago/Whole100003553
p345
aVhttp://dbpedia.org/class/yago/Writer110794014
p346
aVhttp://dbpedia.org/class/yago/YagoLegalActorGeo
p347
aVhttp://dbpedia.org/class/yago/SwissComicsWriters
p348
aVhttp://www.w3.org/2002/07/owl#Thing
p349
aVhttp://xmlns.com/foaf/0.1/Person
p350
aVhttp://dbpedia.org/ontology/Person
p351
aVhttp://www.ontologydesignpatterns.org/ont/dul/DUL.owl#Agent
p352
aVhttp://www.ontologydesignpatterns.org/ont/dul/DUL.owl#NaturalPerson
p353
aVhttp://www.wikidata.org/entity/Q215627
p354
aVhttp://www.wikidata.org/entity/Q483501
p355
aVhttp://www.wikidata.org/entity/Q5
p356
aVhttp://dbpedia.org/ontology/Agent
p357
aVhttp://dbpedia.org/ontology/Artist
p358
aVhttp://dbpedia.org/ontology/ComicsCreator
p359
aVhttp://schema.org/Person
p360
aVhttp://umbel.org/umbel/rc/Artist
p361
aVhttp://dbpedia.org/class/yago/YagoLegalActor
p362
aVhttp://dbpedia.org/class/yago/GraphicNovelists
p363
aVhttp://dbpedia.org/class/yago/LivingPeople
p364
aVhttp://dbpedia.org/class/yago/PhysicalEntity100001930
p365
aVhttp://dbpedia.org/resource/Frederik_Peeters
tp366
aa(lp367
((lp368
Vhttp://dbpedia.org/class/yago/AmericanComicsArtists
p369
aVhttp://dbpedia.org/class/yago/AmericanComicsWriters
p370
aVhttp://dbpedia.org/class/yago/Artist109812338
p371
aVhttp://dbpedia.org/class/yago/CausalAgent100007347
p372
aVhttp://dbpedia.org/class/yago/Communicator109610660
p373
aVhttp://dbpedia.org/class/yago/Creator109614315
p374
aVhttp://dbpedia.org/class/yago/LivingThing100004258
p375
aVhttp://dbpedia.org/class/yago/Object100002684
p376
aVhttp://dbpedia.org/class/yago/Organism100004475
p377
aVhttp://dbpedia.org/class/yago/Person100007846
p378
aVhttp://dbpedia.org/class/yago/Whole100003553
p379
aVhttp://dbpedia.org/class/yago/Writer110794014
p380
aVhttp://dbpedia.org/class/yago/YagoLegalActorGeo
p381
aVhttp://www.w3.org/2002/07/owl#Thing
p382
aVhttp://xmlns.com/foaf/0.1/Person
p383
aVhttp://dbpedia.org/ontology/Person
p384
aVhttp://www.ontologydesignpatterns.org/ont/dul/DUL.owl#Agent
p385
aVhttp://www.ontologydesignpatterns.org/ont/dul/DUL.owl#NaturalPerson
p386
aVhttp://www.wikidata.org/entity/Q215627
p387
aVhttp://www.wikidata.org/entity/Q483501
p388
aVhttp://www.wikidata.org/entity/Q5
p389
aVhttp://dbpedia.org/ontology/Agent
p390
aVhttp://dbpedia.org/ontology/Artist
p391
aVhttp://dbpedia.org/ontology/ComicsCreator
p392
aVhttp://schema.org/Person
p393
aVhttp://umbel.org/umbel/rc/Artist
p394
aVhttp://dbpedia.org/class/yago/YagoLegalActor
p395
aVhttp://dbpedia.org/class/yago/LivingPeople
p396
aVhttp://dbpedia.org/class/yago/PhysicalEntity100001930
p397
aVhttp://dbpedia.org/resource/Jerry_Ordway
tp398
aa(lp399
((lp400
Vhttp://dbpedia.org/class/yago/AmericanComicsWriters
p401
aVhttp://dbpedia.org/class/yago/CausalAgent100007347
p402
aVhttp://dbpedia.org/class/yago/Communicator109610660
p403
aVhttp://dbpedia.org/class/yago/LivingThing100004258
p404
aVhttp://dbpedia.org/class/yago/Object100002684
p405
aVhttp://dbpedia.org/class/yago/Organism100004475
p406
aVhttp://dbpedia.org/class/yago/Person100007846
p407
aVhttp://dbpedia.org/class/yago/Whole100003553
p408
aVhttp://dbpedia.org/class/yago/Writer110794014
p409
aVhttp://dbpedia.org/class/yago/YagoLegalActorGeo
p410
aVhttp://www.w3.org/2002/07/owl#Thing
p411
aVhttp://xmlns.com/foaf/0.1/Person
p412
aVhttp://dbpedia.org/ontology/Person
p413
aVhttp://www.ontologydesignpatterns.org/ont/dul/DUL.owl#Agent
p414
aVhttp://www.ontologydesignpatterns.org/ont/dul/DUL.owl#NaturalPerson
p415
aVhttp://www.wikidata.org/entity/Q215627
p416
aVhttp://www.wikidata.org/entity/Q483501
p417
aVhttp://www.wikidata.org/entity/Q5
p418
aVhttp://dbpedia.org/ontology/Agent
p419
aVhttp://dbpedia.org/ontology/Artist
p420
aVhttp://dbpedia.org/ontology/ComicsCreator
p421
aVhttp://schema.org/Person
p422
aVhttp://umbel.org/umbel/rc/Artist
p423
aVhttp://dbpedia.org/class/yago/YagoLegalActor
p424
aVhttp://dbpedia.org/class/yago/JewishAmericanWriters
p425
aVhttp://dbpedia.org/class/yago/PhysicalEntity100001930
p426
aVhttp://dbpedia.org/resource/John_L._Goldwater
tp427
aa(lp428
((lp429
Vhttp://dbpedia.org/class/yago/Ability105616246
p430
aVhttp://dbpedia.org/class/yago/Abstraction100002137
p431
aVhttp://dbpedia.org/class/yago/Cognition100023271
p432
aVhttp://dbpedia.org/class/yago/FictionalCharacter109587565
p433
aVhttp://dbpedia.org/class/yago/RobertA.HeinleinCharacters
p434
aVhttp://dbpedia.org/class/yago/ScienceFictionFilmCharacters
p435
aVhttp://www.w3.org/2002/07/owl#Thing
p436
aVhttp://xmlns.com/foaf/0.1/Person
p437
aVhttp://dbpedia.org/ontology/Person
p438
aVhttp://www.ontologydesignpatterns.org/ont/dul/DUL.owl#Agent
p439
aVhttp://www.ontologydesignpatterns.org/ont/dul/DUL.owl#NaturalPerson
p440
aVhttp://www.wikidata.org/entity/Q215627
p441
aVhttp://www.wikidata.org/entity/Q5
p442
aVhttp://www.wikidata.org/entity/Q95074
p443
aVhttp://dbpedia.org/ontology/Agent
p444
aVhttp://dbpedia.org/ontology/FictionalCharacter
p445
aVhttp://schema.org/Person
p446
aVhttp://dbpedia.org/class/yago/CharactersInWrittenScienceFiction
p447
aVhttp://dbpedia.org/class/yago/PsychologicalFeature100023100
p448
aVhttp://dbpedia.org/class/yago/Creativity105624700
p449
aVhttp://dbpedia.org/class/yago/ImaginaryBeing109483738
p450
aVhttp://dbpedia.org/class/yago/Imagination105625465
p451
aVhttp://dbpedia.org/resource/Juan_Rico
tp452
aa(lp453
((lp454
Vhttp://dbpedia.org/class/yago/AmericanComicsWriters
p455
aVhttp://dbpedia.org/class/yago/AmericanNovelists
p456
aVhttp://dbpedia.org/class/yago/CausalAgent100007347
p457
aVhttp://dbpedia.org/class/yago/Communicator109610660
p458
aVhttp://dbpedia.org/class/yago/LivingThing100004258
p459
aVhttp://dbpedia.org/class/yago/Novelist110363573
p460
aVhttp://dbpedia.org/class/yago/Object100002684
p461
aVhttp://dbpedia.org/class/yago/Organism100004475
p462
aVhttp://dbpedia.org/class/yago/Person100007846
p463
aVhttp://dbpedia.org/class/yago/Whole100003553
p464
aVhttp://dbpedia.org/class/yago/Writer110794014
p465
aVhttp://dbpedia.org/class/yago/YagoLegalActorGeo
p466
aVhttp://www.w3.org/2002/07/owl#Thing
p467
aVhttp://xmlns.com/foaf/0.1/Person
p468
aVhttp://dbpedia.org/ontology/Person
p469
aVhttp://www.ontologydesignpatterns.org/ont/dul/DUL.owl#Agent
p470
aVhttp://www.ontologydesignpatterns.org/ont/dul/DUL.owl#NaturalPerson
p471
aVhttp://www.wikidata.org/entity/Q215627
p472
aVhttp://www.wikidata.org/entity/Q483501
p473
aVhttp://www.wikidata.org/entity/Q5
p474
aVhttp://dbpedia.org/ontology/Agent
p475
aVhttp://dbpedia.org/ontology/Artist
p476
aVhttp://dbpedia.org/ontology/ComicsCreator
p477
aVhttp://schema.org/Person
p478
aVhttp://umbel.org/umbel/rc/Artist
p479
aVhttp://dbpedia.org/class/yago/YagoLegalActor
p480
aVhttp://dbpedia.org/class/yago/LivingPeople
p481
aVhttp://dbpedia.org/class/yago/PhysicalEntity100001930
p482
aVhttp://dbpedia.org/resource/Joshua_Ortega
tp483
aa(lp484
((lp485
Vhttp://dbpedia.org/class/yago/Alumnus109786338
p486
aVhttp://dbpedia.org/class/yago/AmericanCartoonists
p487
aVhttp://dbpedia.org/class/yago/Artist109812338
p488
aVhttp://dbpedia.org/class/yago/Cartoonist109898346
p489
aVhttp://dbpedia.org/class/yago/CausalAgent100007347
p490
aVhttp://dbpedia.org/class/yago/Creator109614315
p491
aVhttp://dbpedia.org/class/yago/Draftsman110029068
p492
aVhttp://dbpedia.org/class/yago/Intellectual109621545
p493
aVhttp://dbpedia.org/class/yago/LivingThing100004258
p494
aVhttp://dbpedia.org/class/yago/Object100002684
p495
aVhttp://dbpedia.org/class/yago/Organism100004475
p496
aVhttp://dbpedia.org/class/yago/Person100007846
p497
aVhttp://dbpedia.org/class/yago/Scholar110557854
p498
aVhttp://dbpedia.org/class/yago/Whole100003553
p499
aVhttp://dbpedia.org/class/yago/YagoLegalActorGeo
p500
aVhttp://dbpedia.org/class/yago/SalemStateUniversityAlumni
p501
aVhttp://www.w3.org/2002/07/owl#Thing
p502
aVhttp://xmlns.com/foaf/0.1/Person
p503
aVhttp://dbpedia.org/ontology/Person
p504
aVhttp://www.ontologydesignpatterns.org/ont/dul/DUL.owl#Agent
p505
aVhttp://www.ontologydesignpatterns.org/ont/dul/DUL.owl#NaturalPerson
p506
aVhttp://www.wikidata.org/entity/Q215627
p507
aVhttp://www.wikidata.org/entity/Q483501
p508
aVhttp://www.wikidata.org/entity/Q5
p509
aVhttp://dbpedia.org/ontology/Agent
p510
aVhttp://dbpedia.org/ontology/Artist
p511
aVhttp://dbpedia.org/ontology/ComicsCreator
p512
aVhttp://schema.org/Person
p513
aVhttp://dbpedia.org/class/yago/PeopleFromMalden,Massachusetts
p514
aVhttp://dbpedia.org/class/yago/YagoLegalActor
p515
aVhttp://dbpedia.org/class/yago/LivingPeople
p516
aVhttp://dbpedia.org/class/yago/PhysicalEntity100001930
p517
aVhttp://dbpedia.org/resource/Keith_Knight_(cartoonist)
tp518
aa(lp519
((lp520
Vhttp://dbpedia.org/class/yago/Alumnus109786338
p521
aVhttp://dbpedia.org/class/yago/AmericanComicStripCartoonists
p522
aVhttp://dbpedia.org/class/yago/Artist109812338
p523
aVhttp://dbpedia.org/class/yago/CaliforniaStateUniversity,SacramentoAlumni
p524
aVhttp://dbpedia.org/class/yago/Cartoonist109898346
p525
aVhttp://dbpedia.org/class/yago/CausalAgent100007347
p526
aVhttp://dbpedia.org/class/yago/Creator109614315
p527
aVhttp://dbpedia.org/class/yago/Draftsman110029068
p528
aVhttp://dbpedia.org/class/yago/Intellectual109621545
p529
aVhttp://dbpedia.org/class/yago/LivingThing100004258
p530
aVhttp://dbpedia.org/class/yago/Object100002684
p531
aVhttp://dbpedia.org/class/yago/Organism100004475
p532
aVhttp://dbpedia.org/class/yago/Person100007846
p533
aVhttp://dbpedia.org/class/yago/Scholar110557854
p534
aVhttp://dbpedia.org/class/yago/Whole100003553
p535
aVhttp://dbpedia.org/class/yago/YagoLegalActorGeo
p536
aVhttp://www.w3.org/2002/07/owl#Thing
p537
aVhttp://xmlns.com/foaf/0.1/Person
p538
aVhttp://dbpedia.org/ontology/Person
p539
aVhttp://www.ontologydesignpatterns.org/ont/dul/DUL.owl#Agent
p540
aVhttp://www.ontologydesignpatterns.org/ont/dul/DUL.owl#NaturalPerson
p541
aVhttp://www.wikidata.org/entity/Q215627
p542
aVhttp://www.wikidata.org/entity/Q483501
p543
aVhttp://www.wikidata.org/entity/Q5
p544
aVhttp://dbpedia.org/ontology/Agent
p545
aVhttp://dbpedia.org/ontology/Artist
p546
aVhttp://dbpedia.org/ontology/ComicsCreator
p547
aVhttp://schema.org/Person
p548
aVhttp://dbpedia.org/class/yago/YagoLegalActor
p549
aVhttp://dbpedia.org/class/yago/LivingPeople
p550
aVhttp://dbpedia.org/class/yago/PhysicalEntity100001930
p551
aVhttp://dbpedia.org/resource/Kevin_Fagan_(cartoonist)
tp552
aa(lp553
((lp554
Vhttp://www.w3.org/2002/07/owl#Thing
p555
aVhttp://xmlns.com/foaf/0.1/Person
p556
aVhttp://dbpedia.org/ontology/Person
p557
aVhttp://www.ontologydesignpatterns.org/ont/dul/DUL.owl#Agent
p558
aVhttp://www.ontologydesignpatterns.org/ont/dul/DUL.owl#NaturalPerson
p559
aVhttp://www.wikidata.org/entity/Q215627
p560
aVhttp://www.wikidata.org/entity/Q483501
p561
aVhttp://www.wikidata.org/entity/Q5
p562
aVhttp://dbpedia.org/ontology/Agent
p563
aVhttp://dbpedia.org/ontology/Artist
p564
aVhttp://dbpedia.org/ontology/ComicsCreator
p565
aVhttp://schema.org/Person
p566
aVhttp://dbpedia.org/resource/Knife_and_Packer
p567
tp568
aaa.