ccollections
defaultdict
p1
(c__builtin__
dict
p2
tRp3
I11
(dp4
I0
(lp5
sI1
(lp6
sI2
(lp7
ssI4
(dp8
I0
(lp9
sI1
(lp10
sI2
(lp11
ssI13
(dp12
I0
(lp13
sI1
(lp14
sI2
(lp15
ssI6
(dp16
I0
(lp17
sI1
(lp18
sI2
(lp19
ss.