(lp1
(lp2
(lp3
Vhttp://dbpedia.org/resource/2012_Regions_Morgan_Keegan_Championships_and_Memphis_International
p4
aa(lp5
a(lp6
a(lp7
a(lp8
a(lp9
Vhttp://dbpedia.org/resource/Men's_Rimouski_Challenger
p10
aa(lp11
Vhttp://dbpedia.org/resource/2013_Coleman_Vision_Tennis_Championships
p12
aa(lp13
a(lp14
a(lp15
a(lp16
a(lp17
a(lp18
a(lp19
Vhttp://dbpedia.org/resource/Linz_Open
p20
aa(lp21
Vhttp://dbpedia.org/resource/Hall_of_Fame_Tennis_Championships
p22
aa(lp23
a(lp24
a(lp25
a(lp26
aa.