(lp1
(lp2
(lp3
((lp4
Vhttp://www.w3.org/2002/07/owl#Thing
p5
aVhttp://www.ontologydesignpatterns.org/ont/dul/DUL.owl#Event
p6
aVhttp://www.wikidata.org/entity/Q13219666
p7
aVhttp://www.wikidata.org/entity/Q1656682
p8
aVhttp://www.wikidata.org/entity/Q500834
p9
aVhttp://dbpedia.org/ontology/Event
p10
aVhttp://dbpedia.org/ontology/SocietalEvent
p11
aVhttp://dbpedia.org/ontology/SportsEvent
p12
aVhttp://dbpedia.org/ontology/TennisTournament
p13
aVhttp://dbpedia.org/ontology/Tournament
p14
aVhttp://schema.org/Event
p15
aVhttp://schema.org/SportsEvent
p16
aVhttp://dbpedia.org/resource/2012_Regions_Morgan_Keegan_Championships_and_Memphis_International
tp17
aa(lp18
a(lp19
a(lp20
a(lp21
a(lp22
((lVhttp://dbpedia.org/resource/Men's_Rimouski_Challenger
tp23
aa(lp24
((lp25
Vhttp://www.w3.org/2002/07/owl#Thing
p26
aVhttp://www.ontologydesignpatterns.org/ont/dul/DUL.owl#Event
p27
aVhttp://www.wikidata.org/entity/Q13219666
p28
aVhttp://www.wikidata.org/entity/Q1656682
p29
aVhttp://www.wikidata.org/entity/Q500834
p30
aVhttp://dbpedia.org/ontology/Event
p31
aVhttp://dbpedia.org/ontology/SocietalEvent
p32
aVhttp://dbpedia.org/ontology/SportsEvent
p33
aVhttp://dbpedia.org/ontology/TennisTournament
p34
aVhttp://dbpedia.org/ontology/Tournament
p35
aVhttp://schema.org/Event
p36
aVhttp://schema.org/SportsEvent
p37
aVhttp://dbpedia.org/resource/2013_Coleman_Vision_Tennis_Championships
tp38
aa(lp39
a(lp40
a(lp41
a(lp42
a(lp43
a(lp44
a(lp45
((lp46
Vhttp://www.w3.org/2002/07/owl#Thing
p47
aVhttp://www.ontologydesignpatterns.org/ont/dul/DUL.owl#Event
p48
aVhttp://www.wikidata.org/entity/Q1656682
p49
aVhttp://www.wikidata.org/entity/Q500834
p50
aVhttp://dbpedia.org/ontology/Event
p51
aVhttp://dbpedia.org/ontology/SocietalEvent
p52
aVhttp://dbpedia.org/ontology/SportsEvent
p53
aVhttp://dbpedia.org/ontology/Tournament
p54
aVhttp://dbpedia.org/ontology/WomensTennisAssociationTournament
p55
aVhttp://schema.org/Event
p56
aVhttp://schema.org/SportsEvent
p57
aVhttp://dbpedia.org/resource/Linz_Open
tp58
aa(lp59
((lp60
Vhttp://dbpedia.org/class/yago/Abstraction100002137
p61
aVhttp://dbpedia.org/class/yago/Contest107456188
p62
aVhttp://dbpedia.org/class/yago/Event100029378
p63
aVhttp://dbpedia.org/class/yago/SocialEvent107288639
p64
aVhttp://dbpedia.org/class/yago/Tournament107464725
p65
aVhttp://www.w3.org/2002/07/owl#Thing
p66
aVhttp://www.ontologydesignpatterns.org/ont/dul/DUL.owl#Event
p67
aVhttp://www.wikidata.org/entity/Q1656682
p68
aVhttp://www.wikidata.org/entity/Q500834
p69
aVhttp://dbpedia.org/ontology/Event
p70
aVhttp://dbpedia.org/ontology/SocietalEvent
p71
aVhttp://dbpedia.org/ontology/SportsEvent
p72
aVhttp://dbpedia.org/ontology/Tournament
p73
aVhttp://dbpedia.org/ontology/WomensTennisAssociationTournament
p74
aVhttp://www.w3.org/2003/01/geo/wgs84_pos#SpatialThing
p75
aVhttp://schema.org/Event
p76
aVhttp://schema.org/SportsEvent
p77
aVhttp://dbpedia.org/class/yago/PsychologicalFeature100023100
p78
aVhttp://dbpedia.org/class/yago/YagoPermanentlyLocatedEntity
p79
aVhttp://dbpedia.org/class/yago/GrassCourtTennisTournaments
p80
aVhttp://dbpedia.org/class/yago/TennisTournamentsInTheUnitedStates
p81
aVhttp://dbpedia.org/resource/Hall_of_Fame_Tennis_Championships
p82
tp83
aa(lp84
a(lp85
a(lp86
a(lp87
aa.