(lp1
(dp2
I0
(dp3
I0
(lp4
sI1
(lp5
sI2
(lp6
sI3
(lp7
sI4
(lp8
sI5
(lp9
sI6
(lp10
sI7
(lp11
sI8
(lp12
sI9
(lp13
sI10
(lp14
sI11
(lp15
sI12
(lp16
sI13
(lp17
sI14
(lp18
sI15
(lp19
sI16
(lp20
sI17
(lp21
ssI1
(dp22
I0
g5
sI1
(lp23
sI2
(lp24
sI3
(lp25
sI4
(lp26
sI5
(lp27
sI6
(lp28
sI7
(lp29
sI8
(lp30
sI9
(lp31
sI10
(lp32
sI11
(lp33
sI12
(lp34
sI13
(lp35
sI14
(lp36
sI15
(lp37
sI16
(lp38
sI17
(lp39
ssI2
(dp40
I0
g6
sI1
g24
sI2
(lp41
sI3
(lp42
sI4
(lp43
sI5
(lp44
sI6
(lp45
sI7
(lp46
sI8
(lp47
sI9
(lp48
sI10
(lp49
sI11
(lp50
sI12
(lp51
sI13
(lp52
sI14
(lp53
sI15
(lp54
sI16
(lp55
sI17
(lp56
ssI3
(dp57
I0
g7
sI1
g25
sI2
g42
sI3
(lp58
sI4
(lp59
sI5
(lp60
sI6
(lp61
sI7
(lp62
sI8
(lp63
sI9
(lp64
sI10
(lp65
sI11
(lp66
sI12
(lp67
sI13
(lp68
sI14
(lp69
sI15
(lp70
sI16
(lp71
sI17
(lp72
ssI4
(dp73
I0
g8
sI1
g26
sI2
g43
sI3
g59
sI4
(lp74
sI5
(lp75
sI6
(lp76
sI7
(lp77
sI8
(lp78
sI9
(lp79
sI10
(lp80
sI11
(lp81
sI12
(lp82
sI13
(lp83
sI14
(lp84
sI15
(lp85
sI16
(lp86
sI17
(lp87
ssI5
(dp88
I0
g9
sI1
g27
sI2
g44
sI3
g60
sI4
g75
sI5
(lp89
sI6
(lp90
sI7
(lp91
sI8
(lp92
sI9
(lp93
sI10
(lp94
sI11
(lp95
sI12
(lp96
sI13
(lp97
sI14
(lp98
sI15
(lp99
sI16
(lp100
sI17
(lp101
ssI6
(dp102
I0
g10
sI1
g28
sI2
g45
sI3
g61
sI4
g76
sI5
g90
sI6
(lp103
sI7
(lp104
sI8
(lp105
sI9
(lp106
sI10
(lp107
sI11
(lp108
sI12
(lp109
sI13
(lp110
sI14
(lp111
sI15
(lp112
sI16
(lp113
sI17
(lp114
ssI7
(dp115
I0
g11
sI1
g29
sI2
g46
sI3
g62
sI4
g77
sI5
g91
sI6
g104
sI7
(lp116
sI8
(lp117
sI9
(lp118
sI10
(lp119
sI11
(lp120
sI12
(lp121
sI13
(lp122
sI14
(lp123
sI15
(lp124
sI16
(lp125
sI17
(lp126
ssI8
(dp127
I0
g12
sI1
g30
sI2
g47
sI3
g63
sI4
g78
sI5
g92
sI6
g105
sI7
g117
sI8
(lp128
sI9
(lp129
sI10
(lp130
sI11
(lp131
sI12
(lp132
sI13
(lp133
sI14
(lp134
sI15
(lp135
sI16
(lp136
sI17
(lp137
ssI9
(dp138
I0
g13
sI1
g31
sI2
g48
sI3
g64
sI4
g79
sI5
g93
sI6
g106
sI7
g118
sI8
g129
sI9
(lp139
sI10
(lp140
sI11
(lp141
sI12
(lp142
sI13
(lp143
sI14
(lp144
sI15
(lp145
sI16
(lp146
sI17
(lp147
ssI10
(dp148
I0
g14
sI1
g32
sI2
g49
sI3
g65
sI4
g80
sI5
g94
sI6
g107
sI7
g119
sI8
g130
sI9
g140
sI10
(lp149
sI11
(lp150
sI12
(lp151
sI13
(lp152
sI14
(lp153
sI15
(lp154
sI16
(lp155
sI17
(lp156
ssI11
(dp157
I0
g15
sI1
g33
sI2
g50
sI3
g66
sI4
g81
sI5
g95
sI6
g108
sI7
g120
sI8
g131
sI9
g141
sI10
g150
sI11
(lp158
sI12
(lp159
sI13
(lp160
sI14
(lp161
sI15
(lp162
sI16
(lp163
sI17
(lp164
ssI12
(dp165
I0
g16
sI1
g34
sI2
g51
sI3
g67
sI4
g82
sI5
g96
sI6
g109
sI7
g121
sI8
g132
sI9
g142
sI10
g151
sI11
g159
sI12
(lp166
sI13
(lp167
sI14
(lp168
sI15
(lp169
sI16
(lp170
sI17
(lp171
ssI13
(dp172
I0
g17
sI1
g35
sI2
g52
sI3
g68
sI4
g83
sI5
g97
sI6
g110
sI7
g122
sI8
g133
sI9
g143
sI10
g152
sI11
g160
sI12
g167
sI13
(lp173
sI14
(lp174
sI15
(lp175
sI16
(lp176
sI17
(lp177
ssI14
(dp178
I0
g18
sI1
g36
sI2
g53
sI3
g69
sI4
g84
sI5
g98
sI6
g111
sI7
g123
sI8
g134
sI9
g144
sI10
g153
sI11
g161
sI12
g168
sI13
g174
sI14
(lp179
sI15
(lp180
sI16
(lp181
sI17
(lp182
ssI15
(dp183
I0
g19
sI1
g37
sI2
g54
sI3
g70
sI4
g85
sI5
g99
sI6
g112
sI7
g124
sI8
g135
sI9
g145
sI10
g154
sI11
g162
sI12
g169
sI13
g175
sI14
g180
sI15
(lp184
sI16
(lp185
sI17
(lp186
ssI16
(dp187
I0
g20
sI1
g38
sI2
g55
sI3
g71
sI4
g86
sI5
g100
sI6
g113
sI7
g125
sI8
g136
sI9
g146
sI10
g155
sI11
g163
sI12
g170
sI13
g176
sI14
g181
sI15
g185
sI16
(lp188
sI17
(lp189
ssI17
(dp190
I0
g21
sI1
g39
sI2
g56
sI3
g72
sI4
g87
sI5
g101
sI6
g114
sI7
g126
sI8
g137
sI9
g147
sI10
g156
sI11
g164
sI12
g171
sI13
g177
sI14
g182
sI15
g186
sI16
g189
sI17
(lp191
ssa.