(lp1
(lp2
(lp3
Vhttp://dbpedia.org/resource/Heidelberg_West_Football_Club
p4
aa(lp5
aa(lp6
(lp7
Vhttp://dbpedia.org/resource/Macleod_Football_Club
p8
aa(lp9
aa(lp10
(lp11
Vhttp://dbpedia.org/resource/Macquarie_University_AFC
p12
aa(lp13
aa(lp14
(lp15
Vhttp://dbpedia.org/resource/Wynnum_Football_Club
p16
aa(lp17
aa(lp18
(lp19
Vhttp://dbpedia.org/resource/Cheltenham_Football_Club
p20
aa(lp21
aa(lp22
(lp23
a(lp24
aa(lp25
(lp26
Vhttp://dbpedia.org/resource/Imperial_Football_Club
p27
aa(lp28
aa(lp29
(lp30
Vhttp://dbpedia.org/resource/Benalla_Football_Club
p31
aa(lp32
aa(lp33
(lp34
Vhttp://dbpedia.org/resource/Bundoora_Football_Club
p35
aa(lp36
aa(lp37
(lp38
Vhttp://dbpedia.org/resource/Maribyrnong_Park_Football_Club
p39
aa(lp40
aa(lp41
(lp42
Vhttp://dbpedia.org/resource/Victoria_Lions
p43
aa(lp44
aa(lp45
(lp46
Vhttp://dbpedia.org/resource/Midland_Junction_Football_Club
p47
aa(lp48
aa(lp49
(lp50
Vhttp://dbpedia.org/resource/North_Shore_Football_Club_(GFL)
p51
aa(lp52
aa(lp53
(lp54
a(lp55
aa(lp56
(lp57
Vhttp://dbpedia.org/resource/Caloundra_Australian_Football_Club
p58
aa(lp59
aa(lp60
(lp61
Vhttp://dbpedia.org/resource/Dandenong_Football_Club
p62
aa(lp63
aa(lp64
(lp65
Vhttp://dbpedia.org/resource/Wunghnu_Football_Club
p66
aa(lp67
aa(lp68
(lp69
Vhttp://dbpedia.org/resource/Collingwood_Park_Australian_Football_Club
p70
aa(lp71
aa(lp72
(lp73
Vhttp://dbpedia.org/resource/Fremantle_Football_Club_(1881\u20131899)
p74
aa(lp75
aa.