ccollections
defaultdict
p1
(c__builtin__
dict
p2
tRp3
I1
(dp4
I1
(lp5
sI2
(lp6
sI3
(lp7
sI4
(lp8
sI5
(lp9
ssI2
(dp10
I1
(lp11
Vhttp://www.w3.org/ns/prov#wasDerivedFrom
p12
asI2
(lp13
sI3
(lp14
sI4
(lp15
sI5
(lp16
ssI3
(dp17
I1
(lp18
sI2
(lp19
sI3
(lp20
sI4
(lp21
sI5
(lp22
ssI4
(dp23
I1
(lp24
sI2
(lp25
sI3
(lp26
sI4
(lp27
sI5
(lp28
ssI5
(dp29
I1
(lp30
sI2
(lp31
sI3
(lp32
sI4
(lp33
sI5
(lp34
ssI6
(dp35
I1
(lp36
Vhttp://www.w3.org/ns/prov#wasDerivedFrom
p37
asI2
(lp38
sI3
(lp39
sI4
(lp40
sI5
(lp41
ssI7
(dp42
I1
(lp43
sI2
(lp44
sI3
(lp45
sI4
(lp46
sI5
(lp47
ssI8
(dp48
I1
(lp49
sI2
(lp50
sI3
(lp51
sI4
(lp52
sI5
(lp53
ssI9
(dp54
I1
(lp55
sI2
(lp56
sI3
(lp57
sI4
(lp58
sI5
(lp59
ssI10
(dp60
I1
(lp61
sI2
(lp62
sI3
(lp63
sI4
(lp64
sI5
(lp65
ssI11
(dp66
I1
(lp67
sI2
(lp68
sI3
(lp69
sI4
(lp70
sI5
(lp71
ssI12
(dp72
I1
(lp73
sI2
(lp74
sI3
(lp75
sI4
(lp76
sI5
(lp77
ssI13
(dp78
I1
(lp79
sI2
(lp80
sI3
(lp81
sI4
(lp82
sI5
(lp83
ssI14
(dp84
I1
(lp85
sI2
(lp86
sI3
(lp87
sI4
(lp88
sI5
(lp89
ssI15
(dp90
I1
(lp91
sI2
(lp92
sI3
(lp93
sI4
(lp94
sI5
(lp95
ssI16
(dp96
I1
(lp97
sI2
(lp98
sI3
(lp99
sI4
(lp100
sI5
(lp101
ssI18
(dp102
I1
(lp103
sI2
(lp104
sI3
(lp105
sI4
(lp106
sI5
(lp107
ss.