(lp1
(lp2
(lp3
a(lp4
a(lp5
aa(lp6
(lp7
a(lp8
a(lp9
aa(lp10
(lp11
a(lp12
Vhttp://dbpedia.org/resource/Yevgeni_Yefremov
p13
aa(lp14
aa(lp15
(lp16
a(lp17
a(lp18
aa(lp19
(lp20
a(lp21
a(lp22
aa(lp23
(lp24
a(lp25
a(lp26
aa(lp27
(lp28
a(lp29
a(lp30
aa(lp31
(lp32
a(lp33
a(lp34
aa(lp35
(lp36
a(lp37
a(lp38
aa.