(lp1
(lp2
(lp3
a(lp4
a(lp5
((lVhttp://dbpedia.org/resource/2009_International_League_season
tp6
aa(lp7
a(lp8
aa(lp9
(lp10
a(lp11
a(lp12
((lp13
Vhttp://www.w3.org/2002/07/owl#Thing
p14
aVhttp://dbpedia.org/ontology/BaseballSeason
p15
aVhttp://dbpedia.org/ontology/SportsSeason
p16
aVhttp://dbpedia.org/ontology/SportsTeamSeason
p17
aVhttp://dbpedia.org/resource/1994_Eastern_League_season
tp18
aa(lp19
a(lp20
aa(lp21
(lp22
a(lp23
a(lp24
((lp25
Vhttp://www.w3.org/2002/07/owl#Thing
p26
aVhttp://dbpedia.org/ontology/BaseballSeason
p27
aVhttp://dbpedia.org/ontology/SportsSeason
p28
aVhttp://dbpedia.org/ontology/SportsTeamSeason
p29
aVhttp://dbpedia.org/resource/1962_Nippon_Professional_Baseball_season
tp30
aa(lp31
a(lp32
aa(lp33
(lp34
a(lp35
a(lp36
((lp37
Vhttp://www.w3.org/2002/07/owl#Thing
p38
aVhttp://dbpedia.org/ontology/FootballLeagueSeason
p39
aVhttp://dbpedia.org/ontology/NationalFootballLeagueSeason
p40
aVhttp://dbpedia.org/ontology/SportsSeason
p41
aVhttp://dbpedia.org/ontology/SportsTeamSeason
p42
aVhttp://dbpedia.org/resource/1923_Milwaukee_Badgers_season
tp43
aa(lp44
a(lp45
aa(lp46
(lp47
a(lp48
a(lp49
((lp50
Vhttp://www.w3.org/2002/07/owl#Thing
p51
aVhttp://dbpedia.org/ontology/FootballLeagueSeason
p52
aVhttp://dbpedia.org/ontology/NationalFootballLeagueSeason
p53
aVhttp://dbpedia.org/ontology/SportsSeason
p54
aVhttp://dbpedia.org/ontology/SportsTeamSeason
p55
aVhttp://dbpedia.org/resource/1923_Milwaukee_Badgers_season
tp56
aa(lp57
a(lp58
aa(lp59
(lp60
a(lp61
a(lp62
((lp63
Vhttp://www.w3.org/2002/07/owl#Thing
p64
aVhttp://dbpedia.org/ontology/FootballLeagueSeason
p65
aVhttp://dbpedia.org/ontology/NationalFootballLeagueSeason
p66
aVhttp://dbpedia.org/ontology/SportsSeason
p67
aVhttp://dbpedia.org/ontology/SportsTeamSeason
p68
aVhttp://dbpedia.org/resource/1923_Milwaukee_Badgers_season
tp69
aa(lp70
a(lp71
aa(lp72
(lp73
a(lp74
a(lp75
((lp76
Vhttp://www.w3.org/2002/07/owl#Thing
p77
aVhttp://dbpedia.org/ontology/FootballLeagueSeason
p78
aVhttp://dbpedia.org/ontology/NationalFootballLeagueSeason
p79
aVhttp://dbpedia.org/ontology/SportsSeason
p80
aVhttp://dbpedia.org/ontology/SportsTeamSeason
p81
aVhttp://dbpedia.org/resource/1923_Milwaukee_Badgers_season
tp82
aa(lp83
a(lp84
aa(lp85
(lp86
a(lp87
a(lp88
((lp89
Vhttp://www.w3.org/2002/07/owl#Thing
p90
aVhttp://dbpedia.org/ontology/FootballLeagueSeason
p91
aVhttp://dbpedia.org/ontology/NationalFootballLeagueSeason
p92
aVhttp://dbpedia.org/ontology/SportsSeason
p93
aVhttp://dbpedia.org/ontology/SportsTeamSeason
p94
aVhttp://dbpedia.org/resource/1923_Milwaukee_Badgers_season
tp95
aa(lp96
a(lp97
aa(lp98
(lp99
a(lp100
a(lp101
((lp102
Vhttp://www.w3.org/2002/07/owl#Thing
p103
aVhttp://dbpedia.org/ontology/FootballLeagueSeason
p104
aVhttp://dbpedia.org/ontology/NationalFootballLeagueSeason
p105
aVhttp://dbpedia.org/ontology/SportsSeason
p106
aVhttp://dbpedia.org/ontology/SportsTeamSeason
p107
aVhttp://dbpedia.org/resource/1923_Milwaukee_Badgers_season
tp108
aa(lp109
a(lp110
aa(lp111
(lp112
a(lp113
a(lp114
((lp115
Vhttp://www.w3.org/2002/07/owl#Thing
p116
aVhttp://dbpedia.org/ontology/FootballLeagueSeason
p117
aVhttp://dbpedia.org/ontology/NationalFootballLeagueSeason
p118
aVhttp://dbpedia.org/ontology/SportsSeason
p119
aVhttp://dbpedia.org/ontology/SportsTeamSeason
p120
aVhttp://dbpedia.org/resource/1923_Milwaukee_Badgers_season
tp121
aa(lp122
a(lp123
aa(lp124
(lp125
a(lp126
a(lp127
((lp128
Vhttp://www.w3.org/2002/07/owl#Thing
p129
aVhttp://dbpedia.org/ontology/FootballLeagueSeason
p130
aVhttp://dbpedia.org/ontology/NationalFootballLeagueSeason
p131
aVhttp://dbpedia.org/ontology/SportsSeason
p132
aVhttp://dbpedia.org/ontology/SportsTeamSeason
p133
aVhttp://dbpedia.org/resource/1923_Milwaukee_Badgers_season
tp134
aa(lp135
a(lp136
aa(lp137
(lp138
a(lp139
a(lp140
((lp141
Vhttp://www.w3.org/2002/07/owl#Thing
p142
aVhttp://dbpedia.org/ontology/FootballLeagueSeason
p143
aVhttp://dbpedia.org/ontology/NationalFootballLeagueSeason
p144
aVhttp://dbpedia.org/ontology/SportsSeason
p145
aVhttp://dbpedia.org/ontology/SportsTeamSeason
p146
aVhttp://dbpedia.org/resource/1923_Milwaukee_Badgers_season
tp147
aa(lp148
a(lp149
aa(lp150
(lp151
a(lp152
a(lp153
((lp154
Vhttp://www.w3.org/2002/07/owl#Thing
p155
aVhttp://dbpedia.org/resource/1989_Montreal_Expos_season
tp156
aa(lp157
a(lp158
aa(lp159
(lp160
a(lp161
a(lp162
((lp163
Vhttp://www.w3.org/2002/07/owl#Thing
p164
aVhttp://dbpedia.org/ontology/BaseballSeason
p165
aVhttp://dbpedia.org/ontology/SportsSeason
p166
aVhttp://dbpedia.org/ontology/SportsTeamSeason
p167
aVhttp://dbpedia.org/resource/1962_Nippon_Professional_Baseball_season
tp168
aa(lp169
a(lp170
aa(lp171
(lp172
a(lp173
a(lp174
((lVhttp://dbpedia.org/resource/1908_Philadelphia_Athletics_season
tp175
aa(lp176
a(lp177
aa(lp178
(lp179
a(lp180
a(lp181
((lp182
Vhttp://www.w3.org/2002/07/owl#Thing
p183
aVhttp://dbpedia.org/ontology/BaseballSeason
p184
aVhttp://dbpedia.org/ontology/SportsSeason
p185
aVhttp://dbpedia.org/ontology/SportsTeamSeason
p186
aVhttp://dbpedia.org/resource/1883_Columbus_Buckeyes_season
tp187
aa(lp188
a(lp189
aa(lp190
(lp191
a(lp192
a(lp193
((lp194
Vhttp://www.w3.org/2002/07/owl#Thing
p195
aVhttp://dbpedia.org/ontology/BaseballSeason
p196
aVhttp://dbpedia.org/ontology/SportsSeason
p197
aVhttp://dbpedia.org/ontology/SportsTeamSeason
p198
aVhttp://dbpedia.org/resource/1886_New_York_Metropolitans_season
tp199
aa(lp200
a(lp201
aa(lp202
(lp203
a(lp204
a(lp205
((lVhttp://dbpedia.org/resource/1908_Philadelphia_Athletics_season
tp206
aa(lp207
a(lp208
aa(lp209
(lp210
a(lp211
a(lp212
((lp213
Vhttp://www.w3.org/2002/07/owl#Thing
p214
aVhttp://dbpedia.org/ontology/BaseballSeason
p215
aVhttp://dbpedia.org/ontology/SportsSeason
p216
aVhttp://dbpedia.org/ontology/SportsTeamSeason
p217
aVhttp://dbpedia.org/resource/1883_Columbus_Buckeyes_season
p218
tp219
aa(lp220
a(lp221
aa.