(lp1
(dp2
I0
(dp3
I0
(lp4
sI1
(lp5
sI2
(lp6
ssI1
(dp7
I0
g5
sI1
(lp8
sI2
(lp9
ssI2
(dp10
I0
g6
sI1
g9
sI2
(lp11
ssa(dp12
I0
(dp13
I0
(lp14
sI1
(lp15
sI2
(lp16
ssI1
(dp17
I0
g15
sI1
(lp18
sI2
(lp19
ssI2
(dp20
I0
g16
sI1
g19
sI2
(lp21
ssa(dp22
I0
(dp23
I0
(lp24
sI1
(lp25
sI2
(lp26
ssI1
(dp27
I0
g25
sI1
(lp28
sI2
(lp29
ssI2
(dp30
I0
g26
sI1
g29
sI2
(lp31
ssa(dp32
I0
(dp33
I0
(lp34
sI1
(lp35
sI2
(lp36
ssI1
(dp37
I0
g35
sI1
(lp38
sI2
(lp39
ssI2
(dp40
I0
g36
sI1
g39
sI2
(lp41
ssa(dp42
I0
(dp43
I0
(lp44
sI1
(lp45
sI2
(lp46
Vhttp://www.w3.org/ns/prov#wasDerivedFrom
p47
assI1
(dp48
I0
g45
sI1
(lp49
sI2
(lp50
ssI2
(dp51
I0
g46
sI1
g50
sI2
(lp52
ssa(dp53
I0
(dp54
I0
(lp55
sI1
(lp56
sI2
(lp57
ssI1
(dp58
I0
g56
sI1
(lp59
sI2
(lp60
ssI2
(dp61
I0
g57
sI2
(lp62
ssa(dp63
I0
(dp64
I0
(lp65
sI1
(lp66
sI2
(lp67
ssI1
(dp68
I0
g66
sI1
(lp69
sI2
(lp70
ssI2
(dp71
I0
g67
sI2
(lp72
ssa(dp73
I0
(dp74
I0
(lp75
sI1
(lp76
sI2
(lp77
ssI1
(dp78
I0
g76
sI1
(lp79
sI2
(lp80
ssI2
(dp81
I0
g77
sI1
g80
sI2
(lp82
ssa(dp83
I0
(dp84
I0
(lp85
sI1
(lp86
sI2
(lp87
ssI1
(dp88
I0
g86
sI1
(lp89
sI2
(lp90
ssI2
(dp91
I0
g87
sI1
g90
sI2
(lp92
ssa(dp93
I0
(dp94
I0
(lp95
sI1
(lp96
sI2
(lp97
ssI1
(dp98
I0
g96
sI1
(lp99
sI2
(lp100
ssI2
(dp101
I0
g97
sI2
(lp102
ssa(dp103
I0
(dp104
I0
(lp105
sI1
(lp106
sI2
(lp107
Vhttp://www.w3.org/ns/prov#wasDerivedFrom
p108
assI1
(dp109
I0
g106
sI1
(lp110
sI2
(lp111
ssI2
(dp112
I0
g107
sI1
g111
sI2
(lp113
ssa(dp114
I0
(dp115
I0
(lp116
sI1
(lp117
sI2
(lp118
ssI1
(dp119
I0
g117
sI1
(lp120
sI2
(lp121
ssI2
(dp122
I0
g118
sI1
g121
sI2
(lp123
ssa(dp124
I0
(dp125
I0
(lp126
sI1
(lp127
sI2
(lp128
Vhttp://www.w3.org/ns/prov#wasDerivedFrom
p129
assI1
(dp130
I0
g127
sI1
(lp131
sI2
(lp132
ssI2
(dp133
I0
g128
sI1
g132
sI2
(lp134
ssa(dp135
I0
(dp136
I0
(lp137
sI1
(lp138
sI2
(lp139
ssI1
(dp140
I0
g138
sI1
(lp141
sI2
(lp142
ssI2
(dp143
I0
g139
sI1
g142
sI2
(lp144
ssa(dp145
I0
(dp146
I0
(lp147
sI1
(lp148
sI2
(lp149
ssI1
(dp150
I0
g148
sI1
(lp151
sI2
(lp152
ssI2
(dp153
I0
g149
sI2
(lp154
ssa(dp155
I0
(dp156
I0
(lp157
sI1
(lp158
sI2
(lp159
Vhttp://www.w3.org/ns/prov#wasDerivedFrom
p160
assI1
(dp161
I0
g158
sI1
(lp162
sI2
(lp163
ssI2
(dp164
I0
g159
sI1
g163
sI2
(lp165
ssa.