ccollections
defaultdict
p1
(c__builtin__
dict
p2
tRp3
I1
(dp4
I1
(lp5
sI2
(lp6
ssI2
(dp7
I1
(lp8
sI2
(lp9
ssI4
(dp10
I1
(lp11
sI2
(lp12
Vhttp://www.w3.org/ns/prov#wasDerivedFrom
p13
assI5
(dp14
I1
(lp15
sI2
(lp16
ssI6
(dp17
I1
(lp18
sI2
(lp19
ssI10
(dp20
I1
(lp21
sI2
(lp22
Vhttp://www.w3.org/ns/prov#wasDerivedFrom
p23
assI11
(dp24
I1
(lp25
sI2
(lp26
ssI12
(dp27
I1
(lp28
sI2
(lp29
Vhttp://www.w3.org/ns/prov#wasDerivedFrom
p30
assI14
(dp31
I1
(lp32
sI2
(lp33
ssI15
(dp34
I1
(lp35
sI2
(lp36
Vhttp://www.w3.org/ns/prov#wasDerivedFrom
p37
ass.