(lp1
(lp2
(lp3
a(lp4
aa(lp5
(lp6
a(lp7
aa(lp8
(lp9
a(lp10
aa(lp11
(lp12
a(lp13
aa(lp14
(lp15
a(lp16
aa(lp17
(lp18
a(lp19
((lp20
Vhttp://dbpedia.org/class/yago/Abstraction100002137
p21
aVhttp://dbpedia.org/class/yago/AdministrativeDistrict108491826
p22
aVhttp://dbpedia.org/class/yago/Area108497294
p23
aVhttp://dbpedia.org/class/yago/Capital108518505
p24
aVhttp://dbpedia.org/class/yago/CapitalsInAsia
p25
aVhttp://dbpedia.org/class/yago/Center108523483
p26
aVhttp://dbpedia.org/class/yago/City108524735
p27
aVhttp://dbpedia.org/class/yago/Country108544813
p28
aVhttp://dbpedia.org/class/yago/District108552138
p29
aVhttp://dbpedia.org/class/yago/Economy108366753
p30
aVhttp://dbpedia.org/class/yago/Group100031264
p31
aVhttp://dbpedia.org/class/yago/Location100027167
p32
aVhttp://dbpedia.org/class/yago/Object100002684
p33
aVhttp://dbpedia.org/class/yago/Region108630985
p34
aVhttp://dbpedia.org/class/yago/Seat108647945
p35
aVhttp://dbpedia.org/class/yago/Site108651247
p36
aVhttp://dbpedia.org/class/yago/System108435388
p37
aVhttp://dbpedia.org/class/yago/Tract108673395
p38
aVhttp://dbpedia.org/class/yago/UrbanArea108675967
p39
aVhttp://dbpedia.org/class/yago/YagoGeoEntity
p40
aVhttp://dbpedia.org/class/yago/YagoLegalActorGeo
p41
aVhttp://dbpedia.org/class/yago/SoutheastAsianCountries
p42
aVhttp://dbpedia.org/class/yago/StatesAndTerritoriesEstablishedIn1965
p43
aVhttp://www.w3.org/2002/07/owl#Thing
p44
aVhttp://dbpedia.org/ontology/Place
p45
aVhttp://dbpedia.org/ontology/Location
p46
aVhttp://www.wikidata.org/entity/Q486972
p47
aVhttp://www.wikidata.org/entity/Q6256
p48
aVhttp://dbpedia.org/ontology/Country
p49
aVhttp://dbpedia.org/ontology/PopulatedPlace
p50
aVhttp://www.w3.org/2003/01/geo/wgs84_pos#SpatialThing
p51
aVhttp://schema.org/Country
p52
aVhttp://schema.org/Place
p53
aVhttp://umbel.org/umbel/rc/Country
p54
aVhttp://umbel.org/umbel/rc/Location_Underspecified
p55
aVhttp://umbel.org/umbel/rc/PopulatedPlace
p56
aVhttp://dbpedia.org/class/yago/Chinese-speakingCountriesAndTerritories
p57
aVhttp://dbpedia.org/class/yago/CountriesBorderingTheSouthChinaSea
p58
aVhttp://dbpedia.org/class/yago/English-speakingCountriesAndTerritories
p59
aVhttp://dbpedia.org/class/yago/YagoPermanentlyLocatedEntity
p60
aVhttp://dbpedia.org/class/yago/PopulatedCoastalPlaces
p61
aVhttp://dbpedia.org/class/yago/GeographicalArea108574314
p62
aVhttp://dbpedia.org/class/yago/IslandCountries
p63
aVhttp://dbpedia.org/class/yago/Malay-speakingCountriesAndTerritories
p64
aVhttp://dbpedia.org/class/yago/MemberStatesOfTheAssociationOfSoutheastAsianNations
p65
aVhttp://dbpedia.org/class/yago/MemberStatesOfTheCommonwealthOfNations
p66
aVhttp://dbpedia.org/class/yago/MemberStatesOfTheUnitedNations
p67
aVhttp://dbpedia.org/class/yago/Municipality108626283
p68
aVhttp://dbpedia.org/class/yago/PhysicalEntity100001930
p69
aVhttp://dbpedia.org/class/yago/Tamil-speakingCountriesAndTerritories
p70
aVhttp://dbpedia.org/class/yago/WorldTradeOrganizationMemberEconomies
p71
aVhttp://dbpedia.org/class/yago/YouthOlympicGamesHostCities
p72
aVhttp://dbpedia.org/resource/Singapore
tp73
aaa(lp74
(lp75
a(lp76
aa(lp77
(lp78
a(lp79
aa(lp80
(lp81
a(lp82
aa(lp83
(lp84
a(lp85
aa(lp86
(lp87
a(lp88
aa(lp89
(lp90
a(lp91
aa(lp92
(lp93
a(lp94
aa(lp95
(lp96
a(lp97
aa(lp98
(lp99
((lp100
Vhttp://dbpedia.org/class/yago/AmericanFreestyleSkiers
p101
aVhttp://dbpedia.org/class/yago/Athlete109820263
p102
aVhttp://dbpedia.org/class/yago/CausalAgent100007347
p103
aVhttp://dbpedia.org/class/yago/Contestant109613191
p104
aVhttp://dbpedia.org/class/yago/LivingThing100004258
p105
aVhttp://dbpedia.org/class/yago/Medalist110305062
p106
aVhttp://dbpedia.org/class/yago/Object100002684
p107
aVhttp://dbpedia.org/class/yago/Organism100004475
p108
aVhttp://dbpedia.org/class/yago/Person100007846
p109
aVhttp://dbpedia.org/class/yago/Skier110605253
p110
aVhttp://dbpedia.org/class/yago/Whole100003553
p111
aVhttp://dbpedia.org/class/yago/YagoLegalActorGeo
p112
aVhttp://www.w3.org/2002/07/owl#Thing
p113
aVhttp://xmlns.com/foaf/0.1/Person
p114
aVhttp://dbpedia.org/ontology/Person
p115
aVhttp://www.ontologydesignpatterns.org/ont/dul/DUL.owl#Agent
p116
aVhttp://www.ontologydesignpatterns.org/ont/dul/DUL.owl#NaturalPerson
p117
aVhttp://www.wikidata.org/entity/Q215627
p118
aVhttp://www.wikidata.org/entity/Q5
p119
aVhttp://dbpedia.org/ontology/Agent
p120
aVhttp://dbpedia.org/ontology/Athlete
p121
aVhttp://schema.org/Person
p122
aVhttp://dbpedia.org/class/yago/FreestyleSkiersAtThe2010WinterOlympics
p123
aVhttp://dbpedia.org/class/yago/OlympicBronzeMedalistsForTheUnitedStates
p124
aVhttp://dbpedia.org/class/yago/OlympicFreestyleSkiersOfTheUnitedStates
p125
aVhttp://dbpedia.org/class/yago/OlympicMedalistsInFreestyleSkiing
p126
aVhttp://dbpedia.org/class/yago/YagoLegalActor
p127
aVhttp://dbpedia.org/class/yago/LivingPeople
p128
aVhttp://dbpedia.org/class/yago/PhysicalEntity100001930
p129
aVhttp://dbpedia.org/class/yago/Winner110782940
p130
aVhttp://dbpedia.org/resource/Bryon_Wilson
p131
tp132
aa(lp133
aa(lp134
(lp135
a(lp136
aa.