(lp1
(lp2
(lp3
a(lp4
aa(lp5
(lp6
a(lp7
aa(lp8
(lp9
a(lp10
aa(lp11
(lp12
a(lp13
aa(lp14
(lp15
a(lp16
aa(lp17
(lp18
a(lp19
Vhttp://dbpedia.org/resource/Singapore
p20
aaa(lp21
(lp22
a(lp23
aa(lp24
(lp25
a(lp26
aa(lp27
(lp28
a(lp29
aa(lp30
(lp31
a(lp32
aa(lp33
(lp34
a(lp35
aa(lp36
(lp37
a(lp38
aa(lp39
(lp40
a(lp41
aa(lp42
(lp43
a(lp44
aa(lp45
(lp46
Vhttp://dbpedia.org/resource/Bryon_Wilson
p47
aa(lp48
aa(lp49
(lp50
a(lp51
aa.