ccollections
defaultdict
p1
(c__builtin__
dict
p2
tRp3
I1
(dp4
I0
(lp5
sI2
(lp6
ssI2
(dp7
I0
(lp8
Vhttp://www.w3.org/ns/prov#wasDerivedFrom
p9
asI2
(lp10
ssI3
(dp11
I0
(lp12
Vhttp://www.w3.org/ns/prov#wasDerivedFrom
p13
asI2
(lp14
ssI5
(dp15
I0
(lp16
Vhttp://www.w3.org/ns/prov#wasDerivedFrom
p17
asI2
(lp18
ssI6
(dp19
I0
(lp20
Vhttp://www.w3.org/ns/prov#wasDerivedFrom
p21
asI2
(lp22
ssI7
(dp23
I0
(lp24
Vhttp://www.w3.org/ns/prov#wasDerivedFrom
p25
asI2
(lp26
ssI8
(dp27
I0
(lp28
Vhttp://www.w3.org/ns/prov#wasDerivedFrom
p29
asI2
(lp30
ssI9
(dp31
I0
(lp32
sI2
(lp33
ssI11
(dp34
I0
(lp35
sI2
(lp36
ssI12
(dp37
I0
(lp38
Vhttp://www.w3.org/ns/prov#wasDerivedFrom
p39
asI2
(lp40
ssI14
(dp41
I0
(lp42
Vhttp://www.w3.org/ns/prov#wasDerivedFrom
p43
asI2
(lp44
ssI16
(dp45
I0
(lp46
sI2
(lp47
ssI17
(dp48
I0
(lp49
sI2
(lp50
ssI18
(dp51
I0
(lp52
sI2
(lp53
ss.