(lp1
(lp2
(lp3
a(lp4
a(lp5
((lp6
Vhttp://dbpedia.org/class/yago/Abstraction100002137
p7
aVhttp://dbpedia.org/class/yago/Attribute100024264
p8
aVhttp://dbpedia.org/class/yago/Color104956594
p9
aVhttp://dbpedia.org/class/yago/Dark113983515
p10
aVhttp://dbpedia.org/class/yago/Property104916342
p11
aVhttp://dbpedia.org/class/yago/State100024720
p12
aVhttp://dbpedia.org/class/yago/Shade113984613
p13
aVhttp://dbpedia.org/class/yago/ShadesOfWhite
p14
aVhttp://www.w3.org/2002/07/owl#Thing
p15
aVhttp://dbpedia.org/ontology/Colour
p16
aVhttp://umbel.org/umbel/rc/Color
p17
aVhttp://dbpedia.org/class/yago/Illumination113983147
p18
aVhttp://dbpedia.org/class/yago/Semidarkness113984285
p19
aVhttp://dbpedia.org/class/yago/VisualProperty104950126
p20
aVhttp://dbpedia.org/class/yago/WebColors
p21
aVhttp://dbpedia.org/resource/White
tp22
aa(lp23
((lp24
Vhttp://dbpedia.org/class/yago/Artifact100021939
p25
aVhttp://dbpedia.org/class/yago/Beacon102814860
p26
aVhttp://dbpedia.org/class/yago/Object100002684
p27
aVhttp://dbpedia.org/class/yago/Structure104341686
p28
aVhttp://dbpedia.org/class/yago/Tower104460130
p29
aVhttp://dbpedia.org/class/yago/Whole100003553
p30
aVhttp://dbpedia.org/class/yago/YagoGeoEntity
p31
aVhttp://www.w3.org/2002/07/owl#Thing
p32
aVhttp://dbpedia.org/ontology/Place
p33
aVhttp://dbpedia.org/ontology/Location
p34
aVhttp://www.wikidata.org/entity/Q12518
p35
aVhttp://www.wikidata.org/entity/Q39715
p36
aVhttp://dbpedia.org/ontology/ArchitecturalStructure
p37
aVhttp://dbpedia.org/ontology/Lighthouse
p38
aVhttp://dbpedia.org/ontology/Tower
p39
aVhttp://schema.org/Place
p40
aVhttp://dbpedia.org/class/yago/YagoPermanentlyLocatedEntity
p41
aVhttp://dbpedia.org/class/yago/PhysicalEntity100001930
p42
aVhttp://dbpedia.org/resource/Punta_Carena_Lighthouse
tp43
aaa(lp44
(lp45
a(lp46
a(lp47
a(lp48
aa(lp49
(lp50
a(lp51
a(lp52
a(lp53
aa(lp54
(lp55
a(lp56
a(lp57
a(lp58
aa(lp59
(lp60
a(lp61
a(lp62
a(lp63
((lp64
Vhttp://dbpedia.org/class/yago/Artifact100021939
p65
aVhttp://dbpedia.org/class/yago/Beacon102814860
p66
aVhttp://dbpedia.org/class/yago/Object100002684
p67
aVhttp://dbpedia.org/class/yago/Structure104341686
p68
aVhttp://dbpedia.org/class/yago/Tower104460130
p69
aVhttp://dbpedia.org/class/yago/Whole100003553
p70
aVhttp://dbpedia.org/class/yago/YagoGeoEntity
p71
aVhttp://www.w3.org/2002/07/owl#Thing
p72
aVhttp://dbpedia.org/ontology/Place
p73
aVhttp://dbpedia.org/ontology/Location
p74
aVhttp://www.wikidata.org/entity/Q12518
p75
aVhttp://www.wikidata.org/entity/Q39715
p76
aVhttp://dbpedia.org/ontology/ArchitecturalStructure
p77
aVhttp://dbpedia.org/ontology/Lighthouse
p78
aVhttp://dbpedia.org/ontology/Tower
p79
aVhttp://schema.org/Place
p80
aVhttp://umbel.org/umbel/rc/Lighhouse
p81
aVhttp://dbpedia.org/class/yago/YagoPermanentlyLocatedEntity
p82
aVhttp://dbpedia.org/class/yago/PhysicalEntity100001930
p83
aVhttp://dbpedia.org/resource/Bedok_Lighthouse
tp84
aaa(lp85
(lp86
a(lp87
a(lp88
a(lp89
((lp90
Vhttp://dbpedia.org/class/yago/Artifact100021939
p91
aVhttp://dbpedia.org/class/yago/Beacon102814860
p92
aVhttp://dbpedia.org/class/yago/GeologicalFormation109287968
p93
aVhttp://dbpedia.org/class/yago/Object100002684
p94
aVhttp://dbpedia.org/class/yago/Structure104341686
p95
aVhttp://dbpedia.org/class/yago/Tower104460130
p96
aVhttp://dbpedia.org/class/yago/Whole100003553
p97
aVhttp://dbpedia.org/class/yago/YagoGeoEntity
p98
aVhttp://www.w3.org/2002/07/owl#Thing
p99
aVhttp://dbpedia.org/ontology/Place
p100
aVhttp://dbpedia.org/ontology/Location
p101
aVhttp://www.wikidata.org/entity/Q12518
p102
aVhttp://www.wikidata.org/entity/Q39715
p103
aVhttp://dbpedia.org/ontology/ArchitecturalStructure
p104
aVhttp://dbpedia.org/ontology/Lighthouse
p105
aVhttp://dbpedia.org/ontology/Tower
p106
aVhttp://www.w3.org/2003/01/geo/wgs84_pos#SpatialThing
p107
aVhttp://schema.org/Place
p108
aVhttp://umbel.org/umbel/rc/Building
p109
aVhttp://umbel.org/umbel/rc/Lighhouse
p110
aVhttp://dbpedia.org/class/yago/YagoPermanentlyLocatedEntity
p111
aVhttp://dbpedia.org/class/yago/HeadlandsOfWesternAustralia
p112
aVhttp://dbpedia.org/class/yago/NaturalElevation109366317
p113
aVhttp://dbpedia.org/class/yago/PhysicalEntity100001930
p114
aVhttp://dbpedia.org/class/yago/Promontory109399592
p115
aVhttp://dbpedia.org/resource/Cape_Leveque
tp116
aaa(lp117
(lp118
a(lp119
a(lp120
a(lp121
((lp122
Vhttp://dbpedia.org/class/yago/Artifact100021939
p123
aVhttp://dbpedia.org/class/yago/Beacon102814860
p124
aVhttp://dbpedia.org/class/yago/Object100002684
p125
aVhttp://dbpedia.org/class/yago/Structure104341686
p126
aVhttp://dbpedia.org/class/yago/Tower104460130
p127
aVhttp://dbpedia.org/class/yago/Whole100003553
p128
aVhttp://dbpedia.org/class/yago/YagoGeoEntity
p129
aVhttp://www.w3.org/2002/07/owl#Thing
p130
aVhttp://dbpedia.org/ontology/Place
p131
aVhttp://dbpedia.org/ontology/Location
p132
aVhttp://www.wikidata.org/entity/Q12518
p133
aVhttp://www.wikidata.org/entity/Q39715
p134
aVhttp://dbpedia.org/ontology/ArchitecturalStructure
p135
aVhttp://dbpedia.org/ontology/Lighthouse
p136
aVhttp://dbpedia.org/ontology/Tower
p137
aVhttp://www.w3.org/2003/01/geo/wgs84_pos#SpatialThing
p138
aVhttp://schema.org/Place
p139
aVhttp://umbel.org/umbel/rc/Building
p140
aVhttp://umbel.org/umbel/rc/Lighhouse
p141
aVhttp://dbpedia.org/class/yago/YagoPermanentlyLocatedEntity
p142
aVhttp://dbpedia.org/class/yago/PhysicalEntity100001930
p143
aVhttp://dbpedia.org/resource/Horsburgh_Lighthouse
tp144
aaa(lp145
(lp146
a(lp147
a(lp148
a(lp149
((lp150
Vhttp://dbpedia.org/class/yago/Artifact100021939
p151
aVhttp://dbpedia.org/class/yago/Beacon102814860
p152
aVhttp://dbpedia.org/class/yago/Island109316454
p153
aVhttp://dbpedia.org/class/yago/Land109334396
p154
aVhttp://dbpedia.org/class/yago/Object100002684
p155
aVhttp://dbpedia.org/class/yago/Structure104341686
p156
aVhttp://dbpedia.org/class/yago/Tower104460130
p157
aVhttp://dbpedia.org/class/yago/Whole100003553
p158
aVhttp://dbpedia.org/class/yago/YagoGeoEntity
p159
aVhttp://www.w3.org/2002/07/owl#Thing
p160
aVhttp://dbpedia.org/ontology/Place
p161
aVhttp://dbpedia.org/ontology/Location
p162
aVhttp://www.wikidata.org/entity/Q12518
p163
aVhttp://www.wikidata.org/entity/Q39715
p164
aVhttp://dbpedia.org/ontology/ArchitecturalStructure
p165
aVhttp://dbpedia.org/ontology/Lighthouse
p166
aVhttp://dbpedia.org/ontology/Tower
p167
aVhttp://www.w3.org/2003/01/geo/wgs84_pos#SpatialThing
p168
aVhttp://schema.org/Place
p169
aVhttp://umbel.org/umbel/rc/Lighhouse
p170
aVhttp://dbpedia.org/class/yago/YagoPermanentlyLocatedEntity
p171
aVhttp://dbpedia.org/class/yago/IslandsOfSingapore
p172
aVhttp://dbpedia.org/class/yago/PhysicalEntity100001930
p173
aVhttp://dbpedia.org/class/yago/WesternIslandsPlanningArea
p174
aVhttp://dbpedia.org/resource/Raffles_Lighthouse
tp175
aaa(lp176
(lp177
a(lp178
a(lp179
a(lp180
((lp181
Vhttp://www.w3.org/2002/07/owl#Thing
p182
aVhttp://dbpedia.org/ontology/Place
p183
aVhttp://dbpedia.org/ontology/Location
p184
aVhttp://www.wikidata.org/entity/Q12518
p185
aVhttp://www.wikidata.org/entity/Q39715
p186
aVhttp://dbpedia.org/ontology/ArchitecturalStructure
p187
aVhttp://dbpedia.org/ontology/Lighthouse
p188
aVhttp://dbpedia.org/ontology/Tower
p189
aVhttp://schema.org/Place
p190
aVhttp://dbpedia.org/resource/Slettnes_Lighthouse
tp191
aaa(lp192
(lp193
a(lp194
a(lp195
a(lp196
((lp197
Vhttp://dbpedia.org/class/yago/Artifact100021939
p198
aVhttp://dbpedia.org/class/yago/Beacon102814860
p199
aVhttp://dbpedia.org/class/yago/Island109316454
p200
aVhttp://dbpedia.org/class/yago/Land109334396
p201
aVhttp://dbpedia.org/class/yago/Object100002684
p202
aVhttp://dbpedia.org/class/yago/Structure104341686
p203
aVhttp://dbpedia.org/class/yago/Tower104460130
p204
aVhttp://dbpedia.org/class/yago/Whole100003553
p205
aVhttp://dbpedia.org/class/yago/YagoGeoEntity
p206
aVhttp://www.w3.org/2002/07/owl#Thing
p207
aVhttp://dbpedia.org/ontology/Place
p208
aVhttp://dbpedia.org/ontology/Location
p209
aVhttp://www.wikidata.org/entity/Q12518
p210
aVhttp://www.wikidata.org/entity/Q39715
p211
aVhttp://dbpedia.org/ontology/ArchitecturalStructure
p212
aVhttp://dbpedia.org/ontology/Lighthouse
p213
aVhttp://dbpedia.org/ontology/Tower
p214
aVhttp://schema.org/Place
p215
aVhttp://umbel.org/umbel/rc/Lighhouse
p216
aVhttp://dbpedia.org/class/yago/YagoPermanentlyLocatedEntity
p217
aVhttp://dbpedia.org/class/yago/PhysicalEntity100001930
p218
aVhttp://dbpedia.org/class/yago/WesternIslandsPlanningArea
p219
aVhttp://dbpedia.org/resource/Sultan_Shoal_Lighthouse
tp220
aaa(lp221
(lp222
a(lp223
a(lp224
a(lp225
((lp226
Vhttp://dbpedia.org/class/yago/Artifact100021939
p227
aVhttp://dbpedia.org/class/yago/Beacon102814860
p228
aVhttp://dbpedia.org/class/yago/Object100002684
p229
aVhttp://dbpedia.org/class/yago/Structure104341686
p230
aVhttp://dbpedia.org/class/yago/Tower104460130
p231
aVhttp://dbpedia.org/class/yago/Whole100003553
p232
aVhttp://dbpedia.org/class/yago/YagoGeoEntity
p233
aVhttp://www.w3.org/2002/07/owl#Thing
p234
aVhttp://dbpedia.org/ontology/Place
p235
aVhttp://dbpedia.org/ontology/Location
p236
aVhttp://www.wikidata.org/entity/Q12518
p237
aVhttp://www.wikidata.org/entity/Q39715
p238
aVhttp://dbpedia.org/ontology/ArchitecturalStructure
p239
aVhttp://dbpedia.org/ontology/Lighthouse
p240
aVhttp://dbpedia.org/ontology/Tower
p241
aVhttp://schema.org/Place
p242
aVhttp://dbpedia.org/class/yago/YagoPermanentlyLocatedEntity
p243
aVhttp://dbpedia.org/class/yago/PhysicalEntity100001930
p244
aVhttp://dbpedia.org/resource/West_Channel_Pile_Light
tp245
aaa(lp246
(lp247
a(lp248
a(lp249
a(lp250
((lp251
Vhttp://dbpedia.org/class/yago/Artifact100021939
p252
aVhttp://dbpedia.org/class/yago/Beacon102814860
p253
aVhttp://dbpedia.org/class/yago/Location100027167
p254
aVhttp://dbpedia.org/class/yago/Object100002684
p255
aVhttp://dbpedia.org/class/yago/Region108630985
p256
aVhttp://dbpedia.org/class/yago/Site108651247
p257
aVhttp://dbpedia.org/class/yago/Structure104341686
p258
aVhttp://dbpedia.org/class/yago/Tower104460130
p259
aVhttp://dbpedia.org/class/yago/Tract108673395
p260
aVhttp://dbpedia.org/class/yago/Whole100003553
p261
aVhttp://dbpedia.org/class/yago/YagoGeoEntity
p262
aVhttp://dbpedia.org/class/yago/YagoLegalActorGeo
p263
aVhttp://www.w3.org/2002/07/owl#Thing
p264
aVhttp://dbpedia.org/ontology/Place
p265
aVhttp://dbpedia.org/ontology/Location
p266
aVhttp://www.wikidata.org/entity/Q12518
p267
aVhttp://www.wikidata.org/entity/Q39715
p268
aVhttp://dbpedia.org/ontology/ArchitecturalStructure
p269
aVhttp://dbpedia.org/ontology/Lighthouse
p270
aVhttp://dbpedia.org/ontology/Tower
p271
aVhttp://schema.org/Place
p272
aVhttp://umbel.org/umbel/rc/Building
p273
aVhttp://umbel.org/umbel/rc/Lighhouse
p274
aVhttp://dbpedia.org/class/yago/YagoPermanentlyLocatedEntity
p275
aVhttp://dbpedia.org/class/yago/GeographicalArea108574314
p276
aVhttp://dbpedia.org/class/yago/HeritagePlacesOfWesternAustralia
p277
aVhttp://dbpedia.org/class/yago/PhysicalEntity100001930
p278
aVhttp://dbpedia.org/resource/Woodman_Light
tp279
aaa(lp280
(lp281
a(lp282
a(lp283
a(lp284
((lp285
Vhttp://dbpedia.org/class/yago/Artifact100021939
p286
aVhttp://dbpedia.org/class/yago/Beacon102814860
p287
aVhttp://dbpedia.org/class/yago/Object100002684
p288
aVhttp://dbpedia.org/class/yago/Structure104341686
p289
aVhttp://dbpedia.org/class/yago/Tower104460130
p290
aVhttp://dbpedia.org/class/yago/Whole100003553
p291
aVhttp://dbpedia.org/class/yago/YagoGeoEntity
p292
aVhttp://www.w3.org/2002/07/owl#Thing
p293
aVhttp://dbpedia.org/ontology/Place
p294
aVhttp://dbpedia.org/ontology/Location
p295
aVhttp://www.wikidata.org/entity/Q12518
p296
aVhttp://www.wikidata.org/entity/Q39715
p297
aVhttp://dbpedia.org/ontology/ArchitecturalStructure
p298
aVhttp://dbpedia.org/ontology/Lighthouse
p299
aVhttp://dbpedia.org/ontology/Tower
p300
aVhttp://schema.org/Place
p301
aVhttp://umbel.org/umbel/rc/Building
p302
aVhttp://umbel.org/umbel/rc/Lighhouse
p303
aVhttp://dbpedia.org/class/yago/YagoPermanentlyLocatedEntity
p304
aVhttp://dbpedia.org/class/yago/PhysicalEntity100001930
p305
aVhttp://dbpedia.org/resource/Bass_Harbor_Head_Light
tp306
aaa(lp307
(lp308
a(lp309
a(lp310
a(lp311
((lp312
Vhttp://dbpedia.org/class/yago/Artifact100021939
p313
aVhttp://dbpedia.org/class/yago/Beacon102814860
p314
aVhttp://dbpedia.org/class/yago/Depository103177349
p315
aVhttp://dbpedia.org/class/yago/Facility103315023
p316
aVhttp://dbpedia.org/class/yago/Museum103800563
p317
aVhttp://dbpedia.org/class/yago/Object100002684
p318
aVhttp://dbpedia.org/class/yago/Structure104341686
p319
aVhttp://dbpedia.org/class/yago/Tower104460130
p320
aVhttp://dbpedia.org/class/yago/Whole100003553
p321
aVhttp://dbpedia.org/class/yago/YagoGeoEntity
p322
aVhttp://umbel.org/umbel/rc/Building
p323
aVhttp://umbel.org/umbel/rc/Lighhouse
p324
aVhttp://dbpedia.org/class/yago/YagoPermanentlyLocatedEntity
p325
aVhttp://dbpedia.org/class/yago/MuseumsInAtlanticCounty,NewJersey
p326
aVhttp://dbpedia.org/class/yago/LighthouseMuseumsInNewJersey
p327
aVhttp://dbpedia.org/class/yago/PhysicalEntity100001930
p328
aVhttp://dbpedia.org/resource/Absecon_Light
tp329
aaa(lp330
(lp331
a(lp332
a(lp333
a(lp334
((lp335
Vhttp://dbpedia.org/class/yago/Artifact100021939
p336
aVhttp://dbpedia.org/class/yago/Building102913152
p337
aVhttp://dbpedia.org/class/yago/BuildingsAndStructuresCompletedIn1823
p338
aVhttp://dbpedia.org/class/yago/BuildingsAndStructuresInBridgeport,Connecticut
p339
aVhttp://dbpedia.org/class/yago/Object100002684
p340
aVhttp://dbpedia.org/class/yago/Structure104341686
p341
aVhttp://dbpedia.org/class/yago/Whole100003553
p342
aVhttp://dbpedia.org/class/yago/YagoGeoEntity
p343
aVhttp://www.w3.org/2002/07/owl#Thing
p344
aVhttp://dbpedia.org/ontology/Place
p345
aVhttp://dbpedia.org/ontology/Location
p346
aVhttp://www.wikidata.org/entity/Q12518
p347
aVhttp://www.wikidata.org/entity/Q39715
p348
aVhttp://dbpedia.org/ontology/ArchitecturalStructure
p349
aVhttp://dbpedia.org/ontology/Lighthouse
p350
aVhttp://dbpedia.org/ontology/Tower
p351
aVhttp://schema.org/Place
p352
aVhttp://umbel.org/umbel/rc/Building
p353
aVhttp://umbel.org/umbel/rc/Lighhouse
p354
aVhttp://dbpedia.org/class/yago/YagoPermanentlyLocatedEntity
p355
aVhttp://dbpedia.org/class/yago/PhysicalEntity100001930
p356
aVhttp://dbpedia.org/resource/Black_Rock_Harbor_Light
tp357
aaa(lp358
(lp359
a(lp360
a(lp361
a(lp362
((lp363
Vhttp://www.w3.org/2002/07/owl#Thing
p364
aVhttp://dbpedia.org/ontology/Place
p365
aVhttp://dbpedia.org/ontology/Location
p366
aVhttp://www.wikidata.org/entity/Q12518
p367
aVhttp://www.wikidata.org/entity/Q39715
p368
aVhttp://dbpedia.org/ontology/ArchitecturalStructure
p369
aVhttp://dbpedia.org/ontology/Lighthouse
p370
aVhttp://dbpedia.org/ontology/Tower
p371
aVhttp://schema.org/Place
p372
aVhttp://umbel.org/umbel/rc/Place
p373
aVhttp://dbpedia.org/resource/Block_Island_North_Light
tp374
aaa(lp375
(lp376
a(lp377
a(lp378
a(lp379
((lp380
Vhttp://dbpedia.org/class/yago/Artifact100021939
p381
aVhttp://dbpedia.org/class/yago/Depository103177349
p382
aVhttp://dbpedia.org/class/yago/Facility103315023
p383
aVhttp://dbpedia.org/class/yago/Landmark108624891
p384
aVhttp://dbpedia.org/class/yago/Location100027167
p385
aVhttp://dbpedia.org/class/yago/Museum103800563
p386
aVhttp://dbpedia.org/class/yago/Object100002684
p387
aVhttp://dbpedia.org/class/yago/Point108620061
p388
aVhttp://dbpedia.org/class/yago/Position108621598
p389
aVhttp://dbpedia.org/class/yago/Whole100003553
p390
aVhttp://dbpedia.org/class/yago/YagoGeoEntity
p391
aVhttp://dbpedia.org/class/yago/YagoLegalActorGeo
p392
aVhttp://www.w3.org/2002/07/owl#Thing
p393
aVhttp://dbpedia.org/ontology/Place
p394
aVhttp://dbpedia.org/ontology/Location
p395
aVhttp://www.wikidata.org/entity/Q12518
p396
aVhttp://www.wikidata.org/entity/Q39715
p397
aVhttp://dbpedia.org/ontology/ArchitecturalStructure
p398
aVhttp://dbpedia.org/ontology/Lighthouse
p399
aVhttp://dbpedia.org/ontology/Tower
p400
aVhttp://schema.org/Place
p401
aVhttp://umbel.org/umbel/rc/Place
p402
aVhttp://dbpedia.org/class/yago/YagoPermanentlyLocatedEntity
p403
aVhttp://dbpedia.org/class/yago/MuseumsInWashingtonCounty,RhodeIsland
p404
aVhttp://dbpedia.org/class/yago/NationalHistoricLandmarksInRhodeIsland
p405
aVhttp://dbpedia.org/class/yago/LighthouseMuseumsInRhodeIsland
p406
aVhttp://dbpedia.org/class/yago/PhysicalEntity100001930
p407
aVhttp://dbpedia.org/resource/Block_Island_Southeast_Light
tp408
aaa(lp409
(lp410
a(lp411
a(lp412
a(lp413
((lp414
Vhttp://dbpedia.org/class/yago/Artifact100021939
p415
aVhttp://dbpedia.org/class/yago/Beacon102814860
p416
aVhttp://dbpedia.org/class/yago/Object100002684
p417
aVhttp://dbpedia.org/class/yago/Structure104341686
p418
aVhttp://dbpedia.org/class/yago/Tower104460130
p419
aVhttp://dbpedia.org/class/yago/Whole100003553
p420
aVhttp://dbpedia.org/class/yago/YagoGeoEntity
p421
aVhttp://www.w3.org/2002/07/owl#Thing
p422
aVhttp://dbpedia.org/ontology/Place
p423
aVhttp://dbpedia.org/ontology/Location
p424
aVhttp://www.wikidata.org/entity/Q12518
p425
aVhttp://www.wikidata.org/entity/Q39715
p426
aVhttp://dbpedia.org/ontology/ArchitecturalStructure
p427
aVhttp://dbpedia.org/ontology/Lighthouse
p428
aVhttp://dbpedia.org/ontology/Tower
p429
aVhttp://schema.org/Place
p430
aVhttp://umbel.org/umbel/rc/Building
p431
aVhttp://umbel.org/umbel/rc/Lighhouse
p432
aVhttp://dbpedia.org/class/yago/YagoPermanentlyLocatedEntity
p433
aVhttp://dbpedia.org/class/yago/PhysicalEntity100001930
p434
aVhttp://dbpedia.org/resource/Alpena_Light
tp435
aaa(lp436
(lp437
a(lp438
a(lp439
a(lp440
((lp441
Vhttp://dbpedia.org/class/yago/Artifact100021939
p442
aVhttp://dbpedia.org/class/yago/Beacon102814860
p443
aVhttp://dbpedia.org/class/yago/Depository103177349
p444
aVhttp://dbpedia.org/class/yago/Facility103315023
p445
aVhttp://dbpedia.org/class/yago/Museum103800563
p446
aVhttp://dbpedia.org/class/yago/Object100002684
p447
aVhttp://dbpedia.org/class/yago/Structure104341686
p448
aVhttp://dbpedia.org/class/yago/Tower104460130
p449
aVhttp://dbpedia.org/class/yago/Whole100003553
p450
aVhttp://dbpedia.org/class/yago/YagoGeoEntity
p451
aVhttp://www.w3.org/2002/07/owl#Thing
p452
aVhttp://dbpedia.org/ontology/Place
p453
aVhttp://dbpedia.org/ontology/Location
p454
aVhttp://www.wikidata.org/entity/Q12518
p455
aVhttp://www.wikidata.org/entity/Q39715
p456
aVhttp://dbpedia.org/ontology/ArchitecturalStructure
p457
aVhttp://dbpedia.org/ontology/Lighthouse
p458
aVhttp://dbpedia.org/ontology/Tower
p459
aVhttp://schema.org/Place
p460
aVhttp://umbel.org/umbel/rc/Lighhouse
p461
aVhttp://dbpedia.org/class/yago/YagoPermanentlyLocatedEntity
p462
aVhttp://dbpedia.org/class/yago/MuseumsInPierceCounty,Washington
p463
aVhttp://dbpedia.org/class/yago/LighthouseMuseumsInWashington(state)
p464
aVhttp://dbpedia.org/class/yago/MaritimeMuseumsInWashington(state)
p465
aVhttp://dbpedia.org/class/yago/PhysicalEntity100001930
p466
aVhttp://dbpedia.org/resource/Browns_Point_Light
p467
tp468
aaa.