(lp1
(lp2
(lp3
((lp4
Vhttp://dbpedia.org/class/yago/Abstraction100002137
p5
aVhttp://dbpedia.org/class/yago/Attribute100024264
p6
aVhttp://dbpedia.org/class/yago/AuditoryCommunication107109019
p7
aVhttp://dbpedia.org/class/yago/Communication100033020
p8
aVhttp://dbpedia.org/class/yago/ExpressiveStyle107066659
p9
aVhttp://dbpedia.org/class/yago/Manner104928903
p10
aVhttp://dbpedia.org/class/yago/Music107020895
p11
aVhttp://dbpedia.org/class/yago/MusicGenre107071942
p12
aVhttp://dbpedia.org/class/yago/Property104916342
p13
aVhttp://www.w3.org/2002/07/owl#Thing
p14
aVhttp://dbpedia.org/ontology/Genre
p15
aVhttp://www.ontologydesignpatterns.org/ont/dul/DUL.owl#Concept
p16
aVhttp://www.wikidata.org/entity/Q188451
p17
aVhttp://dbpedia.org/ontology/MusicGenre
p18
aVhttp://dbpedia.org/ontology/TopicalConcept
p19
aVhttp://dbpedia.org/class/yago/NigerianStylesOfMusic
p20
aVhttp://dbpedia.org/resource/Apala
tp21
aa(lp22
((lp23
Vhttp://dbpedia.org/class/yago/Abstraction100002137
p24
aVhttp://dbpedia.org/class/yago/Communication100033020
p25
aVhttp://dbpedia.org/class/yago/Explanation106738281
p26
aVhttp://dbpedia.org/class/yago/Message106598915
p27
aVhttp://dbpedia.org/class/yago/Statement106722453
p28
aVhttp://dbpedia.org/class/yago/Definition106744396
p29
aVhttp://dbpedia.org/class/yago/HistoricalDefinitionsOfRace
p30
aVhttp://dbpedia.org/resource/Armenoid_race
tp31
aa(lp32
((lp33
Vhttp://dbpedia.org/class/yago/Abstraction100002137
p34
aVhttp://dbpedia.org/class/yago/AuditoryCommunication107109019
p35
aVhttp://dbpedia.org/class/yago/Communication100033020
p36
aVhttp://dbpedia.org/class/yago/ExpressiveStyle107066659
p37
aVhttp://dbpedia.org/class/yago/Music107020895
p38
aVhttp://dbpedia.org/class/yago/MusicGenre107071942
p39
aVhttp://www.w3.org/2002/07/owl#Thing
p40
aVhttp://dbpedia.org/ontology/Genre
p41
aVhttp://www.ontologydesignpatterns.org/ont/dul/DUL.owl#Concept
p42
aVhttp://www.wikidata.org/entity/Q188451
p43
aVhttp://dbpedia.org/ontology/MusicGenre
p44
aVhttp://dbpedia.org/ontology/TopicalConcept
p45
aVhttp://umbel.org/umbel/rc/MusicalComposition
p46
aVhttp://dbpedia.org/resource/Celtic_rock
tp47
aa(lp48
((lp49
Vhttp://dbpedia.org/class/yago/Abstraction100002137
p50
aVhttp://dbpedia.org/class/yago/AuditoryCommunication107109019
p51
aVhttp://dbpedia.org/class/yago/Communication100033020
p52
aVhttp://dbpedia.org/class/yago/ExpressiveStyle107066659
p53
aVhttp://dbpedia.org/class/yago/Music107020895
p54
aVhttp://dbpedia.org/class/yago/MusicGenre107071942
p55
aVhttp://dbpedia.org/class/yago/RockMusicGenres
p56
aVhttp://www.w3.org/2002/07/owl#Thing
p57
aVhttp://dbpedia.org/ontology/Genre
p58
aVhttp://www.ontologydesignpatterns.org/ont/dul/DUL.owl#Concept
p59
aVhttp://www.wikidata.org/entity/Q188451
p60
aVhttp://dbpedia.org/ontology/MusicGenre
p61
aVhttp://dbpedia.org/ontology/TopicalConcept
p62
aVhttp://umbel.org/umbel/rc/MusicalComposition
p63
aVhttp://dbpedia.org/resource/Electric_folk
tp64
aa(lp65
((lp66
Vhttp://www.w3.org/2002/07/owl#Thing
p67
aVhttp://dbpedia.org/ontology/Genre
p68
aVhttp://www.ontologydesignpatterns.org/ont/dul/DUL.owl#Concept
p69
aVhttp://www.wikidata.org/entity/Q188451
p70
aVhttp://dbpedia.org/ontology/MusicGenre
p71
aVhttp://dbpedia.org/ontology/TopicalConcept
p72
aVhttp://dbpedia.org/resource/Music_in_Tatarstan
tp73
aa(lp74
((lp75
Vhttp://www.w3.org/2002/07/owl#Thing
p76
aVhttp://dbpedia.org/ontology/Genre
p77
aVhttp://www.ontologydesignpatterns.org/ont/dul/DUL.owl#Concept
p78
aVhttp://www.wikidata.org/entity/Q188451
p79
aVhttp://dbpedia.org/ontology/MusicGenre
p80
aVhttp://dbpedia.org/ontology/TopicalConcept
p81
aVhttp://dbpedia.org/resource/Music_in_Krasnodar_Krai
tp82
aa(lp83
((lp84
Vhttp://dbpedia.org/class/yago/Adult109605289
p85
aVhttp://dbpedia.org/class/yago/CausalAgent100007347
p86
aVhttp://dbpedia.org/class/yago/LivingThing100004258
p87
aVhttp://dbpedia.org/class/yago/Object100002684
p88
aVhttp://dbpedia.org/class/yago/Organism100004475
p89
aVhttp://dbpedia.org/class/yago/Person100007846
p90
aVhttp://dbpedia.org/class/yago/Whole100003553
p91
aVhttp://dbpedia.org/class/yago/Woman110787470
p92
aVhttp://dbpedia.org/class/yago/YagoLegalActorGeo
p93
aVhttp://www.w3.org/2002/07/owl#Thing
p94
aVhttp://dbpedia.org/ontology/Genre
p95
aVhttp://www.ontologydesignpatterns.org/ont/dul/DUL.owl#Concept
p96
aVhttp://www.wikidata.org/entity/Q188451
p97
aVhttp://dbpedia.org/ontology/MusicGenre
p98
aVhttp://dbpedia.org/ontology/TopicalConcept
p99
aVhttp://dbpedia.org/class/yago/YagoLegalActor
p100
aVhttp://dbpedia.org/class/yago/Female109619168
p101
aVhttp://dbpedia.org/class/yago/PhysicalEntity100001930
p102
aVhttp://dbpedia.org/class/yago/WomenInMusic
p103
aVhttp://dbpedia.org/resource/Wassoulou_music
tp104
aa(lp105
a(lp106
((lp107
Vhttp://dbpedia.org/class/yago/Abstraction100002137
p108
aVhttp://dbpedia.org/class/yago/AuditoryCommunication107109019
p109
aVhttp://dbpedia.org/class/yago/Communication100033020
p110
aVhttp://dbpedia.org/class/yago/ExpressiveStyle107066659
p111
aVhttp://dbpedia.org/class/yago/Music107020895
p112
aVhttp://dbpedia.org/class/yago/MusicGenre107071942
p113
aVhttp://www.w3.org/2002/07/owl#Thing
p114
aVhttp://dbpedia.org/ontology/Genre
p115
aVhttp://www.ontologydesignpatterns.org/ont/dul/DUL.owl#Concept
p116
aVhttp://www.wikidata.org/entity/Q188451
p117
aVhttp://dbpedia.org/ontology/MusicGenre
p118
aVhttp://dbpedia.org/ontology/TopicalConcept
p119
aVhttp://umbel.org/umbel/rc/MusicalComposition
p120
aVhttp://dbpedia.org/resource/Bakersfield_sound
tp121
aa(lp122
((lp123
Vhttp://dbpedia.org/class/yago/Abstraction100002137
p124
aVhttp://dbpedia.org/class/yago/AuditoryCommunication107109019
p125
aVhttp://dbpedia.org/class/yago/Communication100033020
p126
aVhttp://dbpedia.org/class/yago/ExpressiveStyle107066659
p127
aVhttp://dbpedia.org/class/yago/Music107020895
p128
aVhttp://dbpedia.org/class/yago/MusicGenre107071942
p129
aVhttp://www.w3.org/2002/07/owl#Thing
p130
aVhttp://dbpedia.org/ontology/Genre
p131
aVhttp://www.ontologydesignpatterns.org/ont/dul/DUL.owl#Concept
p132
aVhttp://www.wikidata.org/entity/Q188451
p133
aVhttp://dbpedia.org/ontology/MusicGenre
p134
aVhttp://dbpedia.org/ontology/TopicalConcept
p135
aVhttp://umbel.org/umbel/rc/MusicalComposition
p136
aVhttp://dbpedia.org/resource/Celtic_fusion
tp137
aa(lp138
((lp139
Vhttp://dbpedia.org/class/yago/Administrator109770949
p140
aVhttp://dbpedia.org/class/yago/AustralianTheatreManagersAndProducers
p141
aVhttp://dbpedia.org/class/yago/CausalAgent100007347
p142
aVhttp://dbpedia.org/class/yago/Director110014939
p143
aVhttp://dbpedia.org/class/yago/Head110162991
p144
aVhttp://dbpedia.org/class/yago/Leader109623038
p145
aVhttp://dbpedia.org/class/yago/LivingThing100004258
p146
aVhttp://dbpedia.org/class/yago/Object100002684
p147
aVhttp://dbpedia.org/class/yago/Organism100004475
p148
aVhttp://dbpedia.org/class/yago/Person100007846
p149
aVhttp://dbpedia.org/class/yago/Whole100003553
p150
aVhttp://dbpedia.org/class/yago/YagoLegalActorGeo
p151
aVhttp://dbpedia.org/class/yago/YagoLegalActor
p152
aVhttp://dbpedia.org/class/yago/PhysicalEntity100001930
p153
aVhttp://dbpedia.org/resource/Chamber_Made
tp154
aa(lp155
((lp156
Vhttp://dbpedia.org/class/yago/Abstraction100002137
p157
aVhttp://dbpedia.org/class/yago/AuditoryCommunication107109019
p158
aVhttp://dbpedia.org/class/yago/Communication100033020
p159
aVhttp://dbpedia.org/class/yago/ExpressiveStyle107066659
p160
aVhttp://dbpedia.org/class/yago/Music107020895
p161
aVhttp://dbpedia.org/class/yago/MusicGenre107071942
p162
aVhttp://www.w3.org/2002/07/owl#Thing
p163
aVhttp://dbpedia.org/ontology/Genre
p164
aVhttp://www.ontologydesignpatterns.org/ont/dul/DUL.owl#Concept
p165
aVhttp://www.wikidata.org/entity/Q188451
p166
aVhttp://dbpedia.org/ontology/MusicGenre
p167
aVhttp://dbpedia.org/ontology/TopicalConcept
p168
aVhttp://umbel.org/umbel/rc/MusicalComposition
p169
aVhttp://dbpedia.org/class/yago/FusionMusicGenres
p170
aVhttp://dbpedia.org/resource/Dance-punk
tp171
aa(lp172
((lp173
Vhttp://dbpedia.org/class/yago/Abstraction100002137
p174
aVhttp://dbpedia.org/class/yago/AmericanStylesOfMusic
p175
aVhttp://dbpedia.org/class/yago/Attribute100024264
p176
aVhttp://dbpedia.org/class/yago/AuditoryCommunication107109019
p177
aVhttp://dbpedia.org/class/yago/BritishStylesOfMusic
p178
aVhttp://dbpedia.org/class/yago/Communication100033020
p179
aVhttp://dbpedia.org/class/yago/ExpressiveStyle107066659
p180
aVhttp://dbpedia.org/class/yago/Manner104928903
p181
aVhttp://dbpedia.org/class/yago/Music107020895
p182
aVhttp://dbpedia.org/class/yago/MusicGenre107071942
p183
aVhttp://dbpedia.org/class/yago/Property104916342
p184
aVhttp://www.w3.org/2002/07/owl#Thing
p185
aVhttp://dbpedia.org/ontology/Genre
p186
aVhttp://www.ontologydesignpatterns.org/ont/dul/DUL.owl#Concept
p187
aVhttp://www.wikidata.org/entity/Q188451
p188
aVhttp://dbpedia.org/ontology/MusicGenre
p189
aVhttp://dbpedia.org/ontology/TopicalConcept
p190
aVhttp://dbpedia.org/class/yago/FusionMusicGenres
p191
aVhttp://dbpedia.org/resource/Dance-rock
tp192
aa(lp193
((lp194
Vhttp://dbpedia.org/class/yago/Abstraction100002137
p195
aVhttp://dbpedia.org/class/yago/AuditoryCommunication107109019
p196
aVhttp://dbpedia.org/class/yago/Communication100033020
p197
aVhttp://dbpedia.org/class/yago/ExpressiveStyle107066659
p198
aVhttp://dbpedia.org/class/yago/Music107020895
p199
aVhttp://dbpedia.org/class/yago/MusicGenre107071942
p200
aVhttp://www.w3.org/2002/07/owl#Thing
p201
aVhttp://dbpedia.org/ontology/Genre
p202
aVhttp://www.ontologydesignpatterns.org/ont/dul/DUL.owl#Concept
p203
aVhttp://www.wikidata.org/entity/Q188451
p204
aVhttp://dbpedia.org/ontology/MusicGenre
p205
aVhttp://dbpedia.org/ontology/TopicalConcept
p206
aVhttp://umbel.org/umbel/rc/MusicalComposition
p207
aVhttp://dbpedia.org/resource/Dansband
tp208
aa(lp209
((lp210
Vhttp://www.w3.org/2002/07/owl#Thing
p211
aVhttp://dbpedia.org/ontology/Genre
p212
aVhttp://www.ontologydesignpatterns.org/ont/dul/DUL.owl#Concept
p213
aVhttp://www.wikidata.org/entity/Q188451
p214
aVhttp://dbpedia.org/ontology/MusicGenre
p215
aVhttp://dbpedia.org/ontology/TopicalConcept
p216
aVhttp://dbpedia.org/resource/Death-doom
tp217
aa(lp218
((lp219
Vhttp://www.w3.org/2002/07/owl#Thing
p220
aVhttp://dbpedia.org/ontology/Genre
p221
aVhttp://www.ontologydesignpatterns.org/ont/dul/DUL.owl#Concept
p222
aVhttp://www.wikidata.org/entity/Q188451
p223
aVhttp://dbpedia.org/ontology/MusicGenre
p224
aVhttp://dbpedia.org/ontology/TopicalConcept
p225
aVhttp://dbpedia.org/resource/Deep_funk
tp226
aa(lp227
((lp228
Vhttp://dbpedia.org/class/yago/Abstraction100002137
p229
aVhttp://dbpedia.org/class/yago/Attribute100024264
p230
aVhttp://dbpedia.org/class/yago/Manner104928903
p231
aVhttp://dbpedia.org/class/yago/Property104916342
p232
aVhttp://www.w3.org/2002/07/owl#Thing
p233
aVhttp://dbpedia.org/ontology/Genre
p234
aVhttp://www.ontologydesignpatterns.org/ont/dul/DUL.owl#Concept
p235
aVhttp://www.wikidata.org/entity/Q188451
p236
aVhttp://dbpedia.org/ontology/MusicGenre
p237
aVhttp://dbpedia.org/ontology/TopicalConcept
p238
aVhttp://dbpedia.org/class/yago/PolishStylesOfMusic
p239
aVhttp://dbpedia.org/resource/Disco_polo
tp240
aa(lp241
((lp242
Vhttp://dbpedia.org/class/yago/Abstraction100002137
p243
aVhttp://dbpedia.org/class/yago/AuditoryCommunication107109019
p244
aVhttp://dbpedia.org/class/yago/Communication100033020
p245
aVhttp://dbpedia.org/class/yago/ExpressiveStyle107066659
p246
aVhttp://dbpedia.org/class/yago/Music107020895
p247
aVhttp://dbpedia.org/class/yago/MusicGenre107071942
p248
aVhttp://www.w3.org/2002/07/owl#Thing
p249
aVhttp://dbpedia.org/ontology/Genre
p250
aVhttp://www.ontologydesignpatterns.org/ont/dul/DUL.owl#Concept
p251
aVhttp://www.wikidata.org/entity/Q188451
p252
aVhttp://dbpedia.org/ontology/MusicGenre
p253
aVhttp://dbpedia.org/ontology/TopicalConcept
p254
aVhttp://umbel.org/umbel/rc/MusicalComposition
p255
aVhttp://dbpedia.org/class/yago/HouseMusicGenres
p256
aVhttp://dbpedia.org/resource/Diva_house
tp257
aa(lp258
((lp259
Vhttp://dbpedia.org/class/yago/Abstraction100002137
p260
aVhttp://dbpedia.org/class/yago/AuditoryCommunication107109019
p261
aVhttp://dbpedia.org/class/yago/Communication100033020
p262
aVhttp://dbpedia.org/class/yago/ExpressiveStyle107066659
p263
aVhttp://dbpedia.org/class/yago/Music107020895
p264
aVhttp://dbpedia.org/class/yago/MusicGenre107071942
p265
aVhttp://www.w3.org/2002/07/owl#Thing
p266
aVhttp://dbpedia.org/ontology/Genre
p267
aVhttp://www.ontologydesignpatterns.org/ont/dul/DUL.owl#Concept
p268
aVhttp://www.wikidata.org/entity/Q188451
p269
aVhttp://dbpedia.org/ontology/MusicGenre
p270
aVhttp://dbpedia.org/ontology/TopicalConcept
p271
aVhttp://dbpedia.org/class/yago/HouseMusicGenres
p272
aVhttp://dbpedia.org/resource/Electro_swing
p273
tp274
aaa.