ccollections
defaultdict
p1
(c__builtin__
dict
p2
tRp3
I1
(dp4
I0
(lp5
sI2
(lp6
sI3
(lp7
sI4
(lp8
sI5
(lp9
sI6
(lp10
sI7
(lp11
Vhttp://xmlns.com/foaf/0.1/primaryTopic
p12
aVhttp://purl.org/dc/terms/subject
p13
aVhttp://www.w3.org/2000/01/rdf-schema#comment
p14
aVhttp://dbpedia.org/ontology/abstract
p15
aVhttp://xmlns.com/foaf/0.1/isPrimaryTopicOf
p16
aVhttp://www.w3.org/ns/prov#wasDerivedFrom
p17
aVhttp://www.w3.org/2000/01/rdf-schema#label
p18
asI8
(lp19
ssI3
(dp20
I0
(lp21
sI2
(lp22
sI3
(lp23
sI4
(lp24
sI5
(lp25
sI6
(lp26
sI7
(lp27
sI8
(lp28
ssI5
(dp29
I0
(lp30
sI2
(lp31
sI3
(lp32
sI4
(lp33
sI5
(lp34
sI6
(lp35
sI7
(lp36
sI8
(lp37
ssI7
(dp38
I0
(lp39
sI2
(lp40
sI3
(lp41
sI4
(lp42
sI5
(lp43
sI6
(lp44
sI7
(lp45
sI8
(lp46
ssI8
(dp47
I0
(lp48
sI2
(lp49
sI3
(lp50
sI4
(lp51
sI5
(lp52
sI6
(lp53
sI7
(lp54
sI8
(lp55
ssI9
(dp56
I0
(lp57
sI2
(lp58
sI3
(lp59
sI4
(lp60
sI5
(lp61
sI6
(lp62
sI7
(lp63
sI8
(lp64
ssI12
(dp65
I0
(lp66
sI2
(lp67
sI3
(lp68
sI4
(lp69
sI5
(lp70
sI6
(lp71
sI7
(lp72
sI8
(lp73
ssI13
(dp74
I0
(lp75
sI2
(lp76
sI3
(lp77
sI4
(lp78
sI5
(lp79
Vhttp://dbpedia.org/property/series
p80
aVhttp://dbpedia.org/ontology/abstract
p81
aVhttp://www.w3.org/2000/01/rdf-schema#label
p82
aVhttp://www.w3.org/2000/01/rdf-schema#comment
p83
asI6
(lp84
sI7
(lp85
sI8
(lp86
ssI16
(dp87
I0
(lp88
sI2
(lp89
sI3
(lp90
sI4
(lp91
sI5
(lp92
sI6
(lp93
sI7
(lp94
sI8
(lp95
ssI17
(dp96
I0
(lp97
sI2
(lp98
sI3
(lp99
sI4
(lp100
sI5
(lp101
sI6
(lp102
sI7
(lp103
sI8
(lp104
ssI18
(dp105
I0
(lp106
sI2
(lp107
sI3
(lp108
sI4
(lp109
sI5
(lp110
sI6
(lp111
sI7
(lp112
sI8
(lp113
Vhttp://dbpedia.org/ontology/wikiPageExternalLink
p114
aVhttp://xmlns.com/foaf/0.1/homepage
p115
ass.