(lp1
(lp2
(lp3
a(lp4
a(lp5
a(lp6
a(lp7
a(lp8
a(lp9
aa(lp10
(lp11
a(lp12
a(lp13
a(lp14
a(lp15
a(lp16
Vhttp://dbpedia.org/resource/1-Methylnaphthalene
p17
aa(lp18
aa(lp19
(lp20
a(lp21
a(lp22
a(lp23
a(lp24
a(lp25
a(lp26
aa(lp27
(lp28
a(lp29
a(lp30
a(lp31
a(lp32
a(lp33
Vhttp://dbpedia.org/resource/20\u03b1-Dihydroprogesterone
p34
aa(lp35
aa(lp36
(lp37
a(lp38
a(lp39
a(lp40
a(lp41
a(lp42
a(lp43
aa(lp44
(lp45
a(lp46
a(lp47
a(lp48
a(lp49
a(lp50
a(lp51
aa(lp52
(lp53
a(lp54
a(lp55
a(lp56
a(lp57
Vhttp://dbpedia.org/resource/Acetic_acid
p58
aa(lp59
a(lp60
aa(lp61
(lp62
a(lp63
a(lp64
a(lp65
a(lp66
a(lp67
a(lp68
aa(lp69
(lp70
a(lp71
a(lp72
a(lp73
a(lp74
a(lp75
a(lp76
aa(lp77
(lp78
a(lp79
a(lp80
a(lp81
a(lp82
a(lp83
a(lp84
aa(lp85
(lp86
a(lp87
a(lp88
a(lp89
a(lp90
a(lp91
a(lp92
aa(lp93
(lp94
a(lp95
a(lp96
a(lp97
a(lp98
a(lp99
Vhttp://dbpedia.org/resource/20\u03b1-Dihydroprogesterone
p100
aa(lp101
aa(lp102
(lp103
a(lp104
a(lp105
a(lp106
a(lp107
a(lp108
a(lp109
aa.