(lp1
(lp2
(lp3
a(lp4
aa(lp5
(lp6
a(lp7
aa(lp8
(lp9
Vhttp://dbpedia.org/resource/Who_Scent_You%3F
p10
aa(lp11
aa(lp12
(lp13
Vhttp://dbpedia.org/resource/Honest_Love_and_True
p14
aa(lp15
aa(lp16
(lp17
a(lp18
aa(lp19
(lp20
Vhttp://dbpedia.org/resource/Betty_Boop's_Crazy_Inventions
p21
aa(lp22
aa(lp23
(lp24
Vhttp://dbpedia.org/resource/Broadway_Folly
p25
aa(lp26
aa(lp27
(lp28
Vhttp://dbpedia.org/resource/Cracked_Quack
p29
aa(lp30
aa(lp31
(lp32
Vhttp://dbpedia.org/resource/Electric_Earthquake
p33
aa(lp34
aa(lp35
(lp36
Vhttp://dbpedia.org/resource/Foxy_by_Proxy
p37
aa(lp38
aa(lp39
(lp40
Vhttp://dbpedia.org/resource/Pre-Hysterical_Hare
p41
aa(lp42
aa(lp43
(lp44
Vhttp://dbpedia.org/resource/Pudgy_Picks_a_Fight!
p45
aa(lp46
aa(lp47
(lp48
Vhttp://dbpedia.org/resource/Snow_Business
p49
aa(lp50
aa(lp51
(lp52
Vhttp://dbpedia.org/resource/Spooky_Swabs
p53
aa(lp54
aa(lp55
(lp56
Vhttp://dbpedia.org/resource/The_Case_of_the_Stuttering_Bishop
p57
aa(lp58
aa(lp59
(lp60
Vhttp://dbpedia.org/resource/The_Daffy_Duckaroo
p61
aa(lp62
aa(lp63
(lp64
Vhttp://dbpedia.org/resource/Belle_Boys
p65
aa(lp66
aa(lp67
(lp68
Vhttp://dbpedia.org/resource/A_Good_Time_for_a_Dime
p69
aa(lp70
aa(lp71
(lp72
Vhttp://dbpedia.org/resource/Donald's_Snow_Fight
p73
aa(lp74
aa.