ccollections
defaultdict
p1
(c__builtin__
dict
p2
tRp3
I3
(dp4
I0
(lp5
sI2
(lp6
sI3
(lp7
ssI4
(dp8
I0
(lp9
sI2
(lp10
sI3
(lp11
ssI5
(dp12
I0
(lp13
sI2
(lp14
sI3
(lp15
Vhttp://www.w3.org/ns/prov#wasDerivedFrom
p16
assI6
(dp17
I0
(lp18
sI2
(lp19
sI3
(lp20
ssI7
(dp21
I0
(lp22
sI2
(lp23
sI3
(lp24
ssI8
(dp25
I0
(lp26
sI2
(lp27
sI3
(lp28
ssI9
(dp29
I0
(lp30
sI2
(lp31
sI3
(lp32
ssI10
(dp33
I0
(lp34
sI2
(lp35
sI3
(lp36
ssI11
(dp37
I0
(lp38
sI2
(lp39
sI3
(lp40
Vhttp://www.w3.org/ns/prov#wasDerivedFrom
p41
assI12
(dp42
I0
(lp43
sI2
(lp44
sI3
(lp45
ssI13
(dp46
I0
(lp47
sI2
(lp48
sI3
(lp49
ssI14
(dp50
I0
(lp51
sI2
(lp52
sI3
(lp53
ssI15
(dp54
I0
(lp55
sI2
(lp56
sI3
(lp57
ssI16
(dp58
I0
(lp59
sI2
(lp60
sI3
(lp61
ssI17
(dp62
I0
(lp63
sI2
(lp64
sI3
(lp65
ssI18
(dp66
I0
(lp67
sI2
(lp68
sI3
(lp69
ss.