(lp1
(lp2
(lp3
a(lp4
a(lp5
aa(lp6
(lp7
a(lp8
a(lp9
aa(lp10
(lp11
a(lp12
a(lp13
aa(lp14
(lp15
a(lp16
a(lp17
aa(lp18
(lp19
a(lp20
a(lp21
aa(lp22
(lp23
a(lp24
a(lp25
aa(lp26
(lp27
a(lp28
a(lp29
aa(lp30
(lp31
a(lp32
a(lp33
aa(lp34
(lp35
a(lp36
a(lp37
aa(lp38
(lp39
a(lp40
a(lp41
aa(lp42
(lp43
a(lp44
a(lp45
aa(lp46
(lp47
a(lp48
a(lp49
Vhttp://dbpedia.org/resource/Camden_Power_Station
p50
aaa(lp51
(lp52
a(lp53
a(lp54
Vhttp://dbpedia.org/resource/Grootvlei_Power_Station
p55
aaa(lp56
(lp57
a(lp58
a(lp59
aa(lp60
(lp61
a(lp62
a(lp63
Vhttp://dbpedia.org/resource/Kidatu_Dam
p64
aaa(lp65
(lp66
a(lp67
a(lp68
Vhttp://dbpedia.org/resource/Kosovo_A_Power_Station
p69
aaa(lp70
(lp71
a(lp72
a(lp73
Vhttp://dbpedia.org/resource/Senoko_Power_Station
p74
aaa(lp75
(lp76
a(lp77
a(lp78
aa(lp79
(lp80
a(lp81
a(lp82
Vhttp://dbpedia.org/resource/Cholla_Power_Plant
p83
aaa.