(lp1
(lp2
(lp3
((lp4
Vhttp://dbpedia.org/class/yago/1991Singles
p5
aVhttp://dbpedia.org/class/yago/Artifact100021939
p6
aVhttp://dbpedia.org/class/yago/BillboardHotR&B/Hip-HopSongsNumber-oneSingles
p7
aVhttp://dbpedia.org/class/yago/Medium106254669
p8
aVhttp://dbpedia.org/class/yago/Object100002684
p9
aVhttp://dbpedia.org/class/yago/Whole100003553
p10
aVhttp://dbpedia.org/class/yago/Instrumentality103575240
p11
aVhttp://dbpedia.org/class/yago/PhysicalEntity100001930
p12
aVhttp://dbpedia.org/resource/It_Should've_Been_You
tp13
aa(lp14
a(lp15
a(lp16
aa(lp17
(lp18
a(lp19
a(lp20
a(lp21
aa(lp22
(lp23
((lp24
Vhttp://dbpedia.org/class/yago/2000sFantasyNovels
p25
aVhttp://dbpedia.org/class/yago/2004Novels
p26
aVhttp://dbpedia.org/class/yago/Abstraction100002137
p27
aVhttp://dbpedia.org/class/yago/AlternateHistoryNovels
p28
aVhttp://dbpedia.org/class/yago/Communication100033020
p29
aVhttp://dbpedia.org/class/yago/LiteraryComposition106364329
p30
aVhttp://dbpedia.org/class/yago/Novel106367879
p31
aVhttp://dbpedia.org/class/yago/Writing106362953
p32
aVhttp://www.w3.org/2002/07/owl#Thing
p33
aVhttp://purl.org/ontology/bibo/Book
p34
aVhttp://www.wikidata.org/entity/Q386724
p35
aVhttp://www.wikidata.org/entity/Q571
p36
aVhttp://dbpedia.org/ontology/Book
p37
aVhttp://dbpedia.org/ontology/Work
p38
aVhttp://dbpedia.org/ontology/WrittenWork
p39
aVhttp://schema.org/Book
p40
aVhttp://schema.org/CreativeWork
p41
aVhttp://dbpedia.org/class/Book
p42
aVhttp://dbpedia.org/class/yago/FantasyNovels
p43
aVhttp://dbpedia.org/class/yago/WrittenCommunication106349220
p44
aVhttp://dbpedia.org/class/yago/NovelsByJasperFforde
p45
aVhttp://dbpedia.org/class/yago/Fiction106367107
p46
aVhttp://dbpedia.org/resource/Something_Rotten
tp47
aa(lp48
a(lp49
a(lp50
aa(lp51
(lp52
a(lp53
a(lp54
a(lp55
aa(lp56
(lp57
a(lp58
a(lp59
a(lp60
aa(lp61
(lp62
a(lp63
a(lp64
a(lp65
aa(lp66
(lp67
a(lp68
a(lp69
a(lp70
aa(lp71
(lp72
a(lp73
a(lp74
a(lp75
aa(lp76
(lp77
a(lp78
a(lp79
a(lp80
aa(lp81
(lp82
a(lp83
a(lp84
a(lp85
aa(lp86
(lp87
((lp88
Vhttp://dbpedia.org/class/yago/Abstraction100002137
p89
aVhttp://dbpedia.org/class/yago/AmericanIndieRockGroups
p90
aVhttp://dbpedia.org/class/yago/DanceBand108249960
p91
aVhttp://dbpedia.org/class/yago/Group100031264
p92
aVhttp://dbpedia.org/class/yago/MusicalOrganization108246613
p93
aVhttp://dbpedia.org/class/yago/Organization108008335
p94
aVhttp://dbpedia.org/class/yago/RockGroup108250501
p95
aVhttp://dbpedia.org/class/yago/SocialGroup107950920
p96
aVhttp://dbpedia.org/class/yago/YagoLegalActorGeo
p97
aVhttp://www.w3.org/2002/07/owl#Thing
p98
aVhttp://www.ontologydesignpatterns.org/ont/dul/DUL.owl#Agent
p99
aVhttp://www.ontologydesignpatterns.org/ont/dul/DUL.owl#SocialPerson
p100
aVhttp://www.wikidata.org/entity/Q215380
p101
aVhttp://www.wikidata.org/entity/Q43229
p102
aVhttp://dbpedia.org/ontology/Agent
p103
aVhttp://dbpedia.org/ontology/Band
p104
aVhttp://dbpedia.org/ontology/Group
p105
aVhttp://dbpedia.org/ontology/Organisation
p106
aVhttp://schema.org/MusicGroup
p107
aVhttp://schema.org/Organization
p108
aVhttp://umbel.org/umbel/rc/Band_MusicGroup
p109
aVhttp://dbpedia.org/class/yago/YagoPermanentlyLocatedEntity
p110
aVhttp://dbpedia.org/class/yago/MusicalGroupsFromGeorgia(U.S.State)
p111
aVhttp://dbpedia.org/class/yago/YagoLegalActor
p112
aVhttp://dbpedia.org/resource/The_Sunshine_Fix
tp113
aa(lp114
a(lp115
a(lp116
aa(lp117
(lp118
a(lp119
a(lp120
a(lp121
aa(lp122
(lp123
a(lp124
a(lp125
a(lp126
aa(lp127
(lp128
((lp129
Vhttp://www.w3.org/2002/07/owl#Thing
p130
aVhttp://www.wikidata.org/entity/Q386724
p131
aVhttp://dbpedia.org/ontology/Film
p132
aVhttp://dbpedia.org/ontology/Wikidata:Q11424
p133
aVhttp://dbpedia.org/ontology/Work
p134
aVhttp://schema.org/CreativeWork
p135
aVhttp://schema.org/Movie
p136
aVhttp://dbpedia.org/resource/Naked_Boys_Singing
tp137
aa(lp138
a(lp139
a(lp140
aa(lp141
(lp142
a(lp143
a(lp144
a(lp145
aa(lp146
(lp147
a(lp148
a(lp149
a(lp150
aa(lp151
(lp152
((lp153
Vhttp://www.w3.org/2002/07/owl#Thing
p154
aVhttp://www.wikidata.org/entity/Q2188189
p155
aVhttp://www.wikidata.org/entity/Q2743
p156
aVhttp://www.wikidata.org/entity/Q386724
p157
aVhttp://dbpedia.org/ontology/Musical
p158
aVhttp://dbpedia.org/ontology/MusicalWork
p159
aVhttp://dbpedia.org/ontology/Work
p160
aVhttp://schema.org/CreativeWork
p161
aVhttp://umbel.org/umbel/rc/FormalProductType
p162
aVhttp://dbpedia.org/resource/1600_Pennsylvania_Avenue_(musical)
tp163
aa(lp164
a(lp165
a(lp166
aa(lp167
(lp168
a(lp169
a(lp170
a(lp171
aa(lp172
(lp173
((lp174
Vhttp://www.w3.org/2002/07/owl#Thing
p175
aVhttp://www.wikidata.org/entity/Q2188189
p176
aVhttp://www.wikidata.org/entity/Q2743
p177
aVhttp://www.wikidata.org/entity/Q386724
p178
aVhttp://dbpedia.org/ontology/Musical
p179
aVhttp://dbpedia.org/ontology/MusicalWork
p180
aVhttp://dbpedia.org/ontology/Work
p181
aVhttp://schema.org/CreativeWork
p182
aVhttp://umbel.org/umbel/rc/FormalProductType
p183
aVhttp://dbpedia.org/resource/Bad_Girls:_The_Musical
p184
tp185
aa(lp186
a(lp187
a(lp188
aa.