(lp1
(lp2
(lp3
Vhttp://dbpedia.org/resource/Toleman
p4
aa(lp5
Vhttp://dbpedia.org/resource/Trojan-Tauranac_Racing
p6
aa(lp7
Vhttp://dbpedia.org/resource/Vel's_Parnelli_Jones_Racing
p8
aa(lp9
Vhttp://dbpedia.org/resource/BMW_in_Formula_One
p10
aa(lp11
Vhttp://dbpedia.org/resource/Renault_in_Formula_One
p12
aa(lp13
Vhttp://dbpedia.org/resource/McGuire_(Formula_One)
p14
aa(lp15
Vhttp://dbpedia.org/resource/British_Racing_Motors
p16
aa(lp17
Vhttp://dbpedia.org/resource/Hesketh_Racing
p18
aa(lp19
Vhttp://dbpedia.org/resource/Gilby_Engineering
p20
aa(lp21
Vhttp://dbpedia.org/resource/Prost_Grand_Prix
p22
aa(lp23
a(lp24
Vhttp://dbpedia.org/resource/Scuderia_Finotto
p25
aa(lp26
Vhttp://dbpedia.org/resource/BS_Fabrications
p27
aa(lp28
Vhttp://dbpedia.org/resource/Tyrrell_Racing
p29
aa(lp30
Vhttp://dbpedia.org/resource/Ecurie_Nationale_Belge
p31
aa(lp32
Vhttp://dbpedia.org/resource/Embassy_Hill
p33
aa(lp34
Vhttp://dbpedia.org/resource/Frank_Williams_Racing_Cars
p35
aa(lp36
Vhttp://dbpedia.org/resource/Arrows_Grand_Prix_International
p37
aa(lp38
Vhttp://dbpedia.org/resource/Simtek
p39
aaa.