(lp1
(dp2
I0
(dp3
I0
(lp4
sI1
(lp5
sI2
(lp6
sI3
(lp7
ssI1
(dp8
I0
g5
sI1
(lp9
sI2
(lp10
sI3
(lp11
ssI2
(dp12
I0
g6
sI1
g10
sI2
(lp13
sI3
(lp14
ssI3
(dp15
I1
g11
sI2
g14
sI3
(lp16
ssa(dp17
I0
(dp18
I0
(lp19
sI1
(lp20
sI2
(lp21
sI3
(lp22
ssI1
(dp23
I0
g20
sI1
(lp24
sI2
(lp25
sI3
(lp26
ssI2
(dp27
I1
g25
sI2
(lp28
sI3
(lp29
ssI3
(dp30
I0
g22
sI1
g26
sI2
g29
sI3
(lp31
ssa(dp32
I0
(dp33
I0
(lp34
sI1
(lp35
sI2
(lp36
sI3
(lp37
ssI1
(dp38
I0
g35
sI1
(lp39
sI2
(lp40
sI3
(lp41
ssI2
(dp42
I1
g40
sI2
(lp43
sI3
(lp44
ssI3
(dp45
I0
g37
sI1
g41
sI2
g44
sI3
(lp46
ssa(dp47
I0
(dp48
I0
(lp49
sI1
(lp50
sI2
(lp51
sI3
(lp52
ssI1
(dp53
I0
g50
sI1
(lp54
sI2
(lp55
sI3
(lp56
ssI2
(dp57
I1
g55
sI2
(lp58
sI3
(lp59
ssI3
(dp60
I0
g52
sI1
g56
sI2
g59
sI3
(lp61
ssa(dp62
I0
(dp63
I0
(lp64
sI1
(lp65
sI2
(lp66
sI3
(lp67
ssI1
(dp68
I0
g65
sI1
(lp69
sI2
(lp70
sI3
(lp71
ssI2
(dp72
I0
g66
sI1
g70
sI2
(lp73
sI3
(lp74
ssI3
(dp75
I1
g71
sI2
g74
sI3
(lp76
ssa.