ccollections
defaultdict
p1
(c__builtin__
dict
p2
tRp3
I1
(dp4
I0
(lp5
sI2
(lp6
ssI2
(dp7
I0
(lp8
sI2
(lp9
ssI3
(dp10
I0
(lp11
Vhttp://www.w3.org/ns/prov#wasDerivedFrom
p12
asI2
(lp13
ssI5
(dp14
I0
(lp15
sI2
(lp16
ssI6
(dp17
I0
(lp18
sI2
(lp19
ssI7
(dp20
I0
(lp21
Vhttp://www.w3.org/ns/prov#wasDerivedFrom
p22
asI2
(lp23
ssI8
(dp24
I0
(lp25
sI2
(lp26
ssI9
(dp27
I0
(lp28
Vhttp://www.w3.org/ns/prov#wasDerivedFrom
p29
asI2
(lp30
ssI10
(dp31
I0
(lp32
sI2
(lp33
ssI11
(dp34
I0
(lp35
sI2
(lp36
ssI12
(dp37
I0
(lp38
sI2
(lp39
ssI13
(dp40
I0
(lp41
sI2
(lp42
ssI16
(dp43
I0
(lp44
sI2
(lp45
ssI17
(dp46
I0
(lp47
sI2
(lp48
ssI18
(dp49
I0
(lp50
sI2
(lp51
ss.