(lp1
(lp2
(lp3
Vhttp://dbpedia.org/resource/Lateral_cutaneous_nerve_of_forearm
p4
aa(lp5
Vhttp://dbpedia.org/resource/Posterior_interosseous_nerve
p6
aa(lp7
Vhttp://dbpedia.org/resource/Dorsal_cutaneous_branches
p8
aa(lp9
a(lp10
Vhttp://dbpedia.org/resource/Lumbosacral_trunk
p11
aa(lp12
Vhttp://dbpedia.org/resource/Celiac_ganglia
p13
aa(lp14
Vhttp://dbpedia.org/resource/Pancreatic_plexus
p15
aa(lp16
Vhttp://dbpedia.org/resource/Infraorbital_plexus
p17
aa(lp18
Vhttp://dbpedia.org/resource/Ciliary_ganglion
p19
aa(lp20
Vhttp://dbpedia.org/resource/Stylopharyngeal_branch_of_glossopharyngeal_nerve
p21
aa(lp22
Vhttp://dbpedia.org/resource/Lumbar_plexus
p23
aa(lp24
Vhttp://dbpedia.org/resource/Perforating_cutaneous_nerve
p25
aa(lp26
Vhttp://dbpedia.org/resource/Inferior_cardiac_nerve
p27
aa(lp28
Vhttp://dbpedia.org/resource/Inferior_cluneal_nerves
p29
aa(lp30
Vhttp://dbpedia.org/resource/Prevertebral_ganglia
p31
aa(lp32
Vhttp://dbpedia.org/resource/Posterior_cutaneous_nerve_of_thigh
p33
aa(lp34
Vhttp://dbpedia.org/resource/Anterior_scrotal_arteries
p35
aa(lp36
Vhttp://dbpedia.org/resource/Suprascapular_vein
p37
aa(lp38
Vhttp://dbpedia.org/resource/Dorsal_digital_nerves_of_ulnar_nerve
p39
aaa.