ccollections
defaultdict
p1
(c__builtin__
dict
p2
tRp3
I0
(dp4
I0
(lp5
Vhttp://dbpedia.org/ontology/wikiPageExternalLink
p6
aVhttp://xmlns.com/foaf/0.1/homepage
p7
asI2
(lp8
Vhttp://www.w3.org/ns/prov#wasDerivedFrom
p9
asI3
(lp10
ssI1
(dp11
I0
(lp12
sI2
(lp13
sI3
(lp14
ssI2
(dp15
I0
(lp16
sI2
(lp17
Vhttp://www.w3.org/ns/prov#wasDerivedFrom
p18
asI3
(lp19
ssI3
(dp20
I0
(lp21
sI2
(lp22
sI3
(lp23
ssI4
(dp24
I0
(lp25
sI2
(lp26
sI3
(lp27
ssI5
(dp28
I0
(lp29
sI2
(lp30
sI3
(lp31
ssI6
(dp32
I0
(lp33
sI2
(lp34
sI3
(lp35
ssI7
(dp36
I0
(lp37
sI2
(lp38
sI3
(lp39
ssI8
(dp40
I0
(lp41
sI2
(lp42
sI3
(lp43
ssI9
(dp44
I0
(lp45
sI2
(lp46
sI3
(lp47
ssI10
(dp48
I0
(lp49
sI2
(lp50
sI3
(lp51
ssI12
(dp52
I0
(lp53
sI2
(lp54
sI3
(lp55
ssI14
(dp56
I0
(lp57
sI2
(lp58
sI3
(lp59
ssI15
(dp60
I0
(lp61
sI2
(lp62
sI3
(lp63
ssI17
(dp64
I0
(lp65
sI2
(lp66
sI3
(lp67
ssI18
(dp68
I0
(lp69
Vhttp://dbpedia.org/ontology/wikiPageExternalLink
p70
aVhttp://xmlns.com/foaf/0.1/homepage
p71
asI2
(lp72
Vhttp://www.w3.org/ns/prov#wasDerivedFrom
p73
asI3
(lp74
ss.