(lp1
(dp2
I0
(dp3
I0
(lp4
sI1
(lp5
sI2
(lp6
Vhttp://www.w3.org/ns/prov#wasDerivedFrom
p7
asI3
(lp8
ssI1
(dp9
I0
g5
sI1
(lp10
sI2
(lp11
Vhttp://dbpedia.org/ontology/wikiPageExternalLink
p12
aVhttp://xmlns.com/foaf/0.1/homepage
p13
asI3
(lp14
ssI2
(dp15
I0
g6
sI1
g11
sI2
(lp16
sI3
(lp17
ssI3
(dp18
I0
g8
sI1
g14
sI2
g17
sI3
(lp19
ssa(dp20
I0
(dp21
I0
(lp22
sI1
(lp23
sI2
(lp24
Vhttp://www.w3.org/ns/prov#wasDerivedFrom
p25
asI3
(lp26
ssI1
(dp27
I0
g23
sI1
(lp28
sI2
(lp29
sI3
(lp30
ssI2
(dp31
I0
g24
sI1
g29
sI2
(lp32
sI3
(lp33
ssI3
(dp34
I0
g26
sI1
g30
sI2
g33
sI3
(lp35
ssa(dp36
I0
(dp37
I0
(lp38
sI1
(lp39
sI2
(lp40
sI3
(lp41
ssI1
(dp42
I0
g39
sI1
(lp43
sI2
(lp44
sI3
(lp45
ssI2
(dp46
I0
g40
sI1
g44
sI2
(lp47
sI3
(lp48
ssI3
(dp49
I0
g41
sI1
g45
sI2
g48
sI3
(lp50
ssa(dp51
I0
(dp52
I0
(lp53
sI1
(lp54
sI2
(lp55
sI3
(lp56
ssI1
(dp57
I1
(lp58
sI2
(lp59
sI3
(lp60
ssI2
(dp61
I0
g55
sI1
g59
sI2
(lp62
sI3
(lp63
ssI3
(dp64
I2
g63
sI3
(lp65
ssa(dp66
I0
(dp67
I0
(lp68
sI1
(lp69
sI2
(lp70
sI3
(lp71
ssI1
(dp72
I1
(lp73
sI2
(lp74
sI3
(lp75
ssI2
(dp76
I0
g70
sI1
g74
sI2
(lp77
sI3
(lp78
ssI3
(dp79
I2
g78
sI3
(lp80
ssa(dp81
I0
(dp82
I0
(lp83
sI1
(lp84
sI2
(lp85
sI3
(lp86
ssI1
(dp87
I0
g84
sI1
(lp88
sI2
(lp89
sI3
(lp90
ssI2
(dp91
I0
g85
sI1
g89
sI2
(lp92
sI3
(lp93
ssI3
(dp94
I0
g86
sI1
g90
sI2
g93
sI3
(lp95
ssa(dp96
I0
(dp97
I0
(lp98
sI1
(lp99
sI2
(lp100
sI3
(lp101
ssI1
(dp102
I0
g99
sI1
(lp103
sI2
(lp104
sI3
(lp105
ssI2
(dp106
I0
g100
sI1
g104
sI2
(lp107
sI3
(lp108
ssI3
(dp109
I0
g101
sI1
g105
sI2
g108
sI3
(lp110
ssa(dp111
I0
(dp112
I0
(lp113
sI1
(lp114
sI2
(lp115
sI3
(lp116
ssI1
(dp117
I1
(lp118
sI2
(lp119
sI3
(lp120
ssI2
(dp121
I0
g115
sI1
g119
sI2
(lp122
sI3
(lp123
ssI3
(dp124
I0
g116
sI1
g120
sI2
g123
sI3
(lp125
ssa(dp126
I0
(dp127
I0
(lp128
sI1
(lp129
sI2
(lp130
sI3
(lp131
ssI1
(dp132
I0
g129
sI1
(lp133
sI2
(lp134
sI3
(lp135
ssI2
(dp136
I0
g130
sI1
g134
sI2
(lp137
sI3
(lp138
ssI3
(dp139
I0
g131
sI1
g135
sI2
g138
sI3
(lp140
ssa(dp141
I0
(dp142
I0
(lp143
sI1
(lp144
sI2
(lp145
Vhttp://www.w3.org/ns/prov#wasDerivedFrom
p146
asI3
(lp147
ssI1
(dp148
I0
g144
sI1
(lp149
sI2
(lp150
sI3
(lp151
ssI2
(dp152
I0
g145
sI1
g150
sI2
(lp153
sI3
(lp154
ssI3
(dp155
I0
g147
sI1
g151
sI2
g154
sI3
(lp156
ssa(dp157
I0
(dp158
I0
(lp159
sI1
(lp160
sI2
(lp161
sI3
(lp162
ssI1
(dp163
I0
g160
sI1
(lp164
sI2
(lp165
sI3
(lp166
ssI2
(dp167
I0
g161
sI1
g165
sI2
(lp168
sI3
(lp169
ssI3
(dp170
I0
g162
sI1
g166
sI2
g169
sI3
(lp171
ssa(dp172
I0
(dp173
I0
(lp174
sI1
(lp175
sI2
(lp176
sI3
(lp177
ssI1
(dp178
I0
g175
sI1
(lp179
sI2
(lp180
sI3
(lp181
ssI2
(dp182
I0
g176
sI1
g180
sI2
(lp183
sI3
(lp184
ssI3
(dp185
I0
g177
sI1
g181
sI2
g184
sI3
(lp186
ssa(dp187
I0
(dp188
I0
(lp189
sI1
(lp190
sI2
(lp191
sI3
(lp192
ssI1
(dp193
I1
(lp194
sI2
(lp195
sI3
(lp196
ssI2
(dp197
I0
g191
sI1
g195
sI2
(lp198
sI3
(lp199
ssI3
(dp200
I2
g199
sI3
(lp201
ssa(dp202
I0
(dp203
I0
(lp204
sI1
(lp205
sI2
(lp206
sI3
(lp207
ssI1
(dp208
I1
(lp209
sI2
(lp210
sI3
(lp211
ssI2
(dp212
I0
g206
sI1
g210
sI2
(lp213
sI3
(lp214
ssI3
(dp215
I2
g214
sI3
(lp216
ssa(dp217
I0
(dp218
I0
(lp219
sI1
(lp220
sI2
(lp221
sI3
(lp222
ssI1
(dp223
I0
g220
sI1
(lp224
sI2
(lp225
sI3
(lp226
ssI2
(dp227
I0
g221
sI1
g225
sI2
(lp228
sI3
(lp229
ssI3
(dp230
I0
g222
sI1
g226
sI2
g229
sI3
(lp231
ssa(dp232
I0
(dp233
I0
(lp234
sI1
(lp235
sI2
(lp236
sI3
(lp237
ssI1
(dp238
I0
g235
sI1
(lp239
sI2
(lp240
sI3
(lp241
ssI2
(dp242
I0
g236
sI1
g240
sI2
(lp243
sI3
(lp244
ssI3
(dp245
I0
g237
sI1
g241
sI2
g244
sI3
(lp246
ssa(dp247
I0
(dp248
I0
(lp249
sI1
(lp250
sI2
(lp251
sI3
(lp252
ssI1
(dp253
I0
g250
sI1
(lp254
sI2
(lp255
sI3
(lp256
ssI2
(dp257
I0
g251
sI1
g255
sI2
(lp258
sI3
(lp259
ssI3
(dp260
I0
g252
sI1
g256
sI2
g259
sI3
(lp261
ssa(dp262
I0
(dp263
I0
(lp264
sI1
(lp265
sI2
(lp266
sI3
(lp267
ssI1
(dp268
I0
g265
sI1
(lp269
sI2
(lp270
sI3
(lp271
ssI2
(dp272
I0
g266
sI1
g270
sI2
(lp273
sI3
(lp274
ssI3
(dp275
I0
g267
sI1
g271
sI2
g274
sI3
(lp276
ssa(dp277
I0
(dp278
I0
(lp279
sI1
(lp280
sI2
(lp281
sI3
(lp282
ssI1
(dp283
I1
(lp284
sI2
(lp285
sI3
(lp286
ssI2
(dp287
I0
g281
sI1
g285
sI2
(lp288
sI3
(lp289
ssI3
(dp290
I2
g289
sI3
(lp291
ssa.