(lp1
(lp2
(lp3
((lp4
Vhttp://www.w3.org/2002/07/owl#Thing
p5
aVhttp://dbpedia.org/ontology/FootballLeagueSeason
p6
aVhttp://dbpedia.org/ontology/NationalFootballLeagueSeason
p7
aVhttp://dbpedia.org/ontology/SportsSeason
p8
aVhttp://dbpedia.org/ontology/SportsTeamSeason
p9
aVhttp://dbpedia.org/resource/2013_Sioux_Falls_Storm_season
tp10
aa(lp11
a(lp12
a(lp13
aa(lp14
(lp15
((lp16
Vhttp://www.w3.org/2002/07/owl#Thing
p17
aVhttp://dbpedia.org/ontology/FootballLeagueSeason
p18
aVhttp://dbpedia.org/ontology/NationalFootballLeagueSeason
p19
aVhttp://dbpedia.org/ontology/SportsSeason
p20
aVhttp://dbpedia.org/ontology/SportsTeamSeason
p21
aVhttp://dbpedia.org/resource/2010_Tri-Cities_Fever_season
tp22
aa(lp23
a(lp24
a(lp25
aa(lp26
(lp27
a(lp28
a(lp29
a(lp30
aa(lp31
(lp32
a(lp33
a(lp34
a(lp35
aa(lp36
(lp37
a(lp38
a(lp39
a(lp40
aa(lp41
(lp42
a(lp43
a(lp44
a(lp45
aa(lp46
(lp47
((lp48
Vhttp://www.w3.org/2002/07/owl#Thing
p49
aVhttp://dbpedia.org/ontology/FootballLeagueSeason
p50
aVhttp://dbpedia.org/ontology/NationalFootballLeagueSeason
p51
aVhttp://dbpedia.org/ontology/SportsSeason
p52
aVhttp://dbpedia.org/ontology/SportsTeamSeason
p53
aVhttp://dbpedia.org/resource/1923_Frankford_Yellow_Jackets_season
tp54
aa(lp55
a(lp56
a(lp57
aa(lp58
(lp59
((lp60
Vhttp://dbpedia.org/class/yago/Abstraction100002137
p61
aVhttp://dbpedia.org/class/yago/Association108049401
p62
aVhttp://dbpedia.org/class/yago/Club108227214
p63
aVhttp://dbpedia.org/class/yago/Group100031264
p64
aVhttp://dbpedia.org/class/yago/Organization108008335
p65
aVhttp://dbpedia.org/class/yago/SocialGroup107950920
p66
aVhttp://dbpedia.org/class/yago/Team108208560
p67
aVhttp://dbpedia.org/class/yago/Unit108189659
p68
aVhttp://dbpedia.org/class/yago/YagoLegalActorGeo
p69
aVhttp://dbpedia.org/class/yago/SportsClubsEstablishedIn1946
p70
aVhttp://www.w3.org/2002/07/owl#Thing
p71
aVhttp://www.ontologydesignpatterns.org/ont/dul/DUL.owl#Agent
p72
aVhttp://www.ontologydesignpatterns.org/ont/dul/DUL.owl#SocialPerson
p73
aVhttp://www.wikidata.org/entity/Q43229
p74
aVhttp://dbpedia.org/ontology/Agent
p75
aVhttp://dbpedia.org/ontology/AmericanFootballTeam
p76
aVhttp://dbpedia.org/ontology/Organisation
p77
aVhttp://dbpedia.org/ontology/SportsTeam
p78
aVhttp://schema.org/Organization
p79
aVhttp://schema.org/SportsTeam
p80
aVhttp://umbel.org/umbel/rc/Club_Organization
p81
aVhttp://umbel.org/umbel/rc/OrganizationOfOrganizations
p82
aVhttp://dbpedia.org/class/yago/YagoPermanentlyLocatedEntity
p83
aVhttp://dbpedia.org/class/yago/NationalFootballLeagueTeams
p84
aVhttp://dbpedia.org/class/yago/YagoLegalActor
p85
aVhttp://dbpedia.org/resource/Cleveland_Browns
tp86
aa(lp87
a(lp88
a(lp89
aa(lp90
(lp91
((lp92
Vhttp://www.w3.org/2002/07/owl#Thing
p93
aVhttp://dbpedia.org/ontology/FootballLeagueSeason
p94
aVhttp://dbpedia.org/ontology/NationalFootballLeagueSeason
p95
aVhttp://dbpedia.org/ontology/SportsSeason
p96
aVhttp://dbpedia.org/ontology/SportsTeamSeason
p97
aVhttp://dbpedia.org/resource/2011_San_Diego_Chargers_season
tp98
aa(lp99
a(lp100
a(lp101
aa(lp102
(lp103
((lp104
Vhttp://www.w3.org/2002/07/owl#Thing
p105
aVhttp://dbpedia.org/ontology/FootballLeagueSeason
p106
aVhttp://dbpedia.org/ontology/NationalFootballLeagueSeason
p107
aVhttp://dbpedia.org/ontology/SportsSeason
p108
aVhttp://dbpedia.org/ontology/SportsTeamSeason
p109
aVhttp://dbpedia.org/resource/1950_Hamilton_Tiger-Cats_season
tp110
aa(lp111
a(lp112
a(lp113
aa(lp114
(lp115
((lp116
Vhttp://www.w3.org/2002/07/owl#Thing
p117
aVhttp://dbpedia.org/ontology/FootballLeagueSeason
p118
aVhttp://dbpedia.org/ontology/NationalFootballLeagueSeason
p119
aVhttp://dbpedia.org/ontology/SportsSeason
p120
aVhttp://dbpedia.org/ontology/SportsTeamSeason
p121
aVhttp://dbpedia.org/resource/1954_Green_Bay_Packers_season
tp122
aa(lp123
a(lp124
a(lp125
aa(lp126
(lp127
((lp128
Vhttp://www.w3.org/2002/07/owl#Thing
p129
aVhttp://dbpedia.org/ontology/FootballLeagueSeason
p130
aVhttp://dbpedia.org/ontology/NationalFootballLeagueSeason
p131
aVhttp://dbpedia.org/ontology/SportsSeason
p132
aVhttp://dbpedia.org/ontology/SportsTeamSeason
p133
aVhttp://dbpedia.org/resource/1961_Denver_Broncos_season
tp134
aa(lp135
a(lp136
a(lp137
aa(lp138
(lp139
((lp140
Vhttp://www.w3.org/2002/07/owl#Thing
p141
aVhttp://dbpedia.org/ontology/FootballLeagueSeason
p142
aVhttp://dbpedia.org/ontology/NationalFootballLeagueSeason
p143
aVhttp://dbpedia.org/ontology/SportsSeason
p144
aVhttp://dbpedia.org/ontology/SportsTeamSeason
p145
aVhttp://dbpedia.org/resource/1935_Boston_Redskins_season
tp146
aa(lp147
a(lp148
a(lp149
aa(lp150
(lp151
((lp152
Vhttp://www.w3.org/2002/07/owl#Thing
p153
aVhttp://dbpedia.org/ontology/FootballLeagueSeason
p154
aVhttp://dbpedia.org/ontology/NationalFootballLeagueSeason
p155
aVhttp://dbpedia.org/ontology/SportsSeason
p156
aVhttp://dbpedia.org/ontology/SportsTeamSeason
p157
aVhttp://dbpedia.org/resource/2000_Barcelona_Dragons_season
tp158
aa(lp159
a(lp160
a(lp161
aa(lp162
(lp163
((lp164
Vhttp://www.w3.org/2002/07/owl#Thing
p165
aVhttp://dbpedia.org/ontology/FootballLeagueSeason
p166
aVhttp://dbpedia.org/ontology/NationalFootballLeagueSeason
p167
aVhttp://dbpedia.org/ontology/SportsSeason
p168
aVhttp://dbpedia.org/ontology/SportsTeamSeason
p169
aVhttp://dbpedia.org/resource/1997_Amsterdam_Admirals_season
tp170
aa(lp171
a(lp172
a(lp173
aa(lp174
(lp175
((lp176
Vhttp://www.w3.org/2002/07/owl#Thing
p177
aVhttp://dbpedia.org/ontology/FootballLeagueSeason
p178
aVhttp://dbpedia.org/ontology/NationalFootballLeagueSeason
p179
aVhttp://dbpedia.org/ontology/SportsSeason
p180
aVhttp://dbpedia.org/ontology/SportsTeamSeason
p181
aVhttp://dbpedia.org/resource/2011_New_York_Giants_season
tp182
aa(lp183
a(lp184
a(lp185
aa(lp186
(lp187
((lp188
Vhttp://www.w3.org/2002/07/owl#Thing
p189
aVhttp://dbpedia.org/ontology/FootballLeagueSeason
p190
aVhttp://dbpedia.org/ontology/NationalFootballLeagueSeason
p191
aVhttp://dbpedia.org/ontology/SportsSeason
p192
aVhttp://dbpedia.org/ontology/SportsTeamSeason
p193
aVhttp://dbpedia.org/resource/2010_Bossier\u2013Shreveport_Battle_Wings_season
tp194
aa(lp195
a(lp196
a(lp197
aa(lp198
(lp199
((lp200
Vhttp://www.w3.org/2002/07/owl#Thing
p201
aVhttp://dbpedia.org/ontology/FootballLeagueSeason
p202
aVhttp://dbpedia.org/ontology/NationalFootballLeagueSeason
p203
aVhttp://dbpedia.org/ontology/SportsSeason
p204
aVhttp://dbpedia.org/ontology/SportsTeamSeason
p205
aVhttp://dbpedia.org/resource/2011_Philadelphia_Soul_season
p206
tp207
aa(lp208
a(lp209
a(lp210
aa(lp211
(lp212
a(lp213
a(lp214
a(lp215
aa.