ccollections
defaultdict
p1
(c__builtin__
dict
p2
tRp3
I0
(dp4
I1
(lp5
sI2
(lp6
sI3
(lp7
Vhttp://dbpedia.org/ontology/wikiPageExternalLink
p8
aVhttp://xmlns.com/foaf/0.1/homepage
p9
assI1
(dp10
I1
(lp11
sI2
(lp12
sI3
(lp13
Vhttp://dbpedia.org/ontology/wikiPageExternalLink
p14
aVhttp://xmlns.com/foaf/0.1/homepage
p15
assI6
(dp16
I1
(lp17
sI2
(lp18
Vhttp://www.w3.org/ns/prov#wasDerivedFrom
p19
asI3
(lp20
ssI7
(dp21
I1
(lp22
sI2
(lp23
sI3
(lp24
ssI8
(dp25
I1
(lp26
sI2
(lp27
sI3
(lp28
ssI9
(dp29
I1
(lp30
sI2
(lp31
sI3
(lp32
ssI10
(dp33
I1
(lp34
sI2
(lp35
sI3
(lp36
Vhttp://dbpedia.org/ontology/wikiPageExternalLink
p37
assI11
(dp38
I1
(lp39
sI2
(lp40
sI3
(lp41
ssI12
(dp42
I1
(lp43
sI2
(lp44
sI3
(lp45
ssI13
(dp46
I1
(lp47
sI2
(lp48
sI3
(lp49
ssI14
(dp50
I1
(lp51
sI2
(lp52
sI3
(lp53
ssI15
(dp54
I1
(lp55
sI2
(lp56
sI3
(lp57
ssI16
(dp58
I1
(lp59
sI2
(lp60
Vhttp://www.w3.org/ns/prov#wasDerivedFrom
p61
asI3
(lp62
ssI17
(dp63
I1
(lp64
sI2
(lp65
sI3
(lp66
ss.