(lp1
(lp2
(lp3
Vhttp://dbpedia.org/resource/2013_Sioux_Falls_Storm_season
p4
aa(lp5
a(lp6
a(lp7
aa(lp8
(lp9
Vhttp://dbpedia.org/resource/2010_Tri-Cities_Fever_season
p10
aa(lp11
a(lp12
a(lp13
aa(lp14
(lp15
a(lp16
a(lp17
a(lp18
aa(lp19
(lp20
a(lp21
a(lp22
a(lp23
aa(lp24
(lp25
a(lp26
a(lp27
a(lp28
aa(lp29
(lp30
a(lp31
a(lp32
a(lp33
aa(lp34
(lp35
Vhttp://dbpedia.org/resource/1923_Frankford_Yellow_Jackets_season
p36
aa(lp37
a(lp38
a(lp39
aa(lp40
(lp41
Vhttp://dbpedia.org/resource/Cleveland_Browns
p42
aa(lp43
a(lp44
a(lp45
aa(lp46
(lp47
Vhttp://dbpedia.org/resource/2011_San_Diego_Chargers_season
p48
aa(lp49
a(lp50
a(lp51
aa(lp52
(lp53
Vhttp://dbpedia.org/resource/1950_Hamilton_Tiger-Cats_season
p54
aa(lp55
a(lp56
a(lp57
aa(lp58
(lp59
Vhttp://dbpedia.org/resource/1954_Green_Bay_Packers_season
p60
aa(lp61
a(lp62
a(lp63
aa(lp64
(lp65
Vhttp://dbpedia.org/resource/1961_Denver_Broncos_season
p66
aa(lp67
a(lp68
a(lp69
aa(lp70
(lp71
Vhttp://dbpedia.org/resource/1935_Boston_Redskins_season
p72
aa(lp73
a(lp74
a(lp75
aa(lp76
(lp77
Vhttp://dbpedia.org/resource/2000_Barcelona_Dragons_season
p78
aa(lp79
a(lp80
a(lp81
aa(lp82
(lp83
Vhttp://dbpedia.org/resource/1997_Amsterdam_Admirals_season
p84
aa(lp85
a(lp86
a(lp87
aa(lp88
(lp89
Vhttp://dbpedia.org/resource/2011_New_York_Giants_season
p90
aa(lp91
a(lp92
a(lp93
aa(lp94
(lp95
Vhttp://dbpedia.org/resource/2010_Bossier\u2013Shreveport_Battle_Wings_season
p96
aa(lp97
a(lp98
a(lp99
aa(lp100
(lp101
Vhttp://dbpedia.org/resource/2011_Philadelphia_Soul_season
p102
aa(lp103
a(lp104
a(lp105
aa(lp106
(lp107
a(lp108
a(lp109
a(lp110
aa.