ccollections
defaultdict
p1
(c__builtin__
dict
p2
tRp3
I12
(dp4
I0
(lp5
sI1
(lp6
sI3
(lp7
sI4
(lp8
sI5
(lp9
sI6
(lp10
ssI3
(dp11
I0
(lp12
sI1
(lp13
sI3
(lp14
sI4
(lp15
sI5
(lp16
sI6
(lp17
ssI4
(dp18
I0
(lp19
sI1
(lp20
sI3
(lp21
sI4
(lp22
sI5
(lp23
sI6
(lp24
ssI6
(dp25
I0
(lp26
sI1
(lp27
sI3
(lp28
sI4
(lp29
sI5
(lp30
sI6
(lp31
ssI15
(dp32
I0
(lp33
sI1
(lp34
sI3
(lp35
sI4
(lp36
Vhttp://dbpedia.org/ontology/predecessor
p37
aVhttp://dbpedia.org/property/designer
p38
aVhttp://dbpedia.org/property/manufacturer
p39
aVhttp://dbpedia.org/ontology/designer
p40
aVhttp://dbpedia.org/ontology/wikiPageRedirects
p41
aVhttp://dbpedia.org/property/developedFrom
p42
aVhttp://dbpedia.org/property/variantsWithTheirOwnArticles
p43
aVhttp://dbpedia.org/ontology/successor
p44
aVhttp://dbpedia.org/ontology/manufacturer
p45
asI5
(lp46
sI6
(lp47
ss.