(lp1
(lp2
(lp3
a(lp4
a(lp5
a(lp6
Vhttp://dbpedia.org/resource/Music_of_immigrant_communities_in_the_United_States
p7
aaa(lp8
(lp9
a(lp10
a(lp11
a(lp12
aa(lp13
(lp14
a(lp15
a(lp16
a(lp17
aa(lp18
(lp19
a(lp20
a(lp21
a(lp22
aa(lp23
(lp24
a(lp25
a(lp26
a(lp27
aa(lp28
(lp29
a(lp30
a(lp31
a(lp32
aa(lp33
(lp34
a(lp35
a(lp36
a(lp37
aa(lp38
(lp39
a(lp40
a(lp41
a(lp42
aa(lp43
(lp44
a(lp45
a(lp46
a(lp47
Vhttp://dbpedia.org/resource/Kansas_Children's_Discovery_Center
p48
aaa(lp49
(lp50
a(lp51
a(lp52
a(lp53
aa(lp54
(lp55
a(lp56
a(lp57
a(lp58
Vhttp://dbpedia.org/resource/Hus_Gallery
p59
aaa(lp60
(lp61
a(lp62
a(lp63
a(lp64
aa(lp65
(lp66
a(lp67
a(lp68
a(lp69
aa(lp70
(lp71
a(lp72
a(lp73
a(lp74
Vhttp://dbpedia.org/resource/International_Buddhist_Academy
p75
aaa(lp76
(lp77
a(lp78
a(lp79
a(lp80
aa(lp81
(lp82
a(lp83
a(lp84
a(lp85
aa(lp86
(lp87
a(lp88
a(lp89
a(lp90
aa(lp91
(lp92
a(lp93
a(lp94
a(lp95
aa(lp96
(lp97
a(lp98
a(lp99
a(lp100
aa.