(lp1
(dp2
I0
(dp3
I0
(lp4
sI1
(lp5
sI2
(lp6
sI3
(lp7
ssI1
(dp8
I0
g5
sI1
(lp9
sI2
(lp10
sI3
(lp11
ssI2
(dp12
I0
g6
sI1
g10
sI2
(lp13
sI3
(lp14
ssI3
(dp15
I0
g7
sI1
g11
sI2
g14
sI3
(lp16
ssa(dp17
I0
(dp18
I0
(lp19
sI1
(lp20
sI2
(lp21
sI3
(lp22
ssI1
(dp23
I1
(lp24
sI2
(lp25
sI3
(lp26
ssI2
(dp27
I0
g21
sI1
g25
sI2
(lp28
sI3
(lp29
ssI3
(dp30
I2
g29
sI3
(lp31
ssa(dp32
I0
(dp33
I0
(lp34
sI1
(lp35
sI2
(lp36
sI3
(lp37
ssI1
(dp38
I0
g35
sI1
(lp39
sI2
(lp40
sI3
(lp41
ssI2
(dp42
I0
g36
sI1
g40
sI2
(lp43
sI3
(lp44
ssI3
(dp45
I0
g37
sI1
g41
sI2
g44
sI3
(lp46
ssa(dp47
I0
(dp48
I0
(lp49
sI1
(lp50
sI2
(lp51
sI3
(lp52
ssI1
(dp53
I0
g50
sI1
(lp54
sI2
(lp55
sI3
(lp56
ssI2
(dp57
I0
g51
sI1
g55
sI2
(lp58
sI3
(lp59
ssI3
(dp60
I0
g52
sI1
g56
sI2
g59
sI3
(lp61
ssa(dp62
I0
(dp63
I0
(lp64
sI1
(lp65
sI2
(lp66
sI3
(lp67
ssI1
(dp68
I0
g65
sI1
(lp69
sI2
(lp70
sI3
(lp71
ssI2
(dp72
I0
g66
sI1
g70
sI2
(lp73
sI3
(lp74
ssI3
(dp75
I0
g67
sI1
g71
sI2
g74
sI3
(lp76
ssa(dp77
I0
(dp78
I0
(lp79
sI1
(lp80
sI2
(lp81
sI3
(lp82
ssI1
(dp83
I1
(lp84
sI2
(lp85
sI3
(lp86
ssI2
(dp87
I0
g81
sI1
g85
sI2
(lp88
sI3
(lp89
ssI3
(dp90
I2
g89
sI3
(lp91
ssa(dp92
I0
(dp93
I0
(lp94
sI1
(lp95
sI2
(lp96
sI3
(lp97
ssI1
(dp98
I0
g95
sI1
(lp99
sI2
(lp100
sI3
(lp101
ssI2
(dp102
I0
g96
sI1
g100
sI2
(lp103
sI3
(lp104
Vhttp://www.w3.org/ns/prov#wasDerivedFrom
p105
assI3
(dp106
I0
g97
sI1
g101
sI2
g104
sI3
(lp107
ssa(dp108
I0
(dp109
I0
(lp110
sI1
(lp111
sI2
(lp112
sI3
(lp113
ssI1
(dp114
I0
g111
sI1
(lp115
sI2
(lp116
sI3
(lp117
ssI2
(dp118
I0
g112
sI1
g116
sI2
(lp119
sI3
(lp120
ssI3
(dp121
I0
g113
sI1
g117
sI2
g120
sI3
(lp122
ssa(dp123
I0
(dp124
I0
(lp125
sI1
(lp126
sI2
(lp127
sI3
(lp128
ssI1
(dp129
I1
(lp130
sI2
(lp131
sI3
(lp132
ssI2
(dp133
I0
g127
sI1
g131
sI2
(lp134
sI3
(lp135
ssI3
(dp136
I2
g135
sI3
(lp137
ssa(dp138
I0
(dp139
I0
(lp140
sI1
(lp141
sI2
(lp142
sI3
(lp143
ssI1
(dp144
I1
(lp145
sI2
(lp146
sI3
(lp147
ssI2
(dp148
I0
g142
sI1
g146
sI2
(lp149
sI3
(lp150
ssI3
(dp151
I2
g150
sI3
(lp152
ssa(dp153
I0
(dp154
I0
(lp155
sI1
(lp156
sI2
(lp157
sI3
(lp158
ssI1
(dp159
I1
(lp160
sI2
(lp161
sI3
(lp162
ssI2
(dp163
I0
g157
sI1
g161
sI2
(lp164
sI3
(lp165
ssI3
(dp166
I2
g165
sI3
(lp167
ssa(dp168
I0
(dp169
I0
(lp170
sI1
(lp171
sI2
(lp172
sI3
(lp173
ssI1
(dp174
I0
g171
sI1
(lp175
sI2
(lp176
sI3
(lp177
ssI2
(dp178
I0
g172
sI1
g176
sI2
(lp179
sI3
(lp180
ssI3
(dp181
I1
g177
sI2
g180
sI3
(lp182
ssa(dp183
I0
(dp184
I0
(lp185
sI1
(lp186
sI2
(lp187
sI3
(lp188
ssI1
(dp189
I1
(lp190
sI2
(lp191
sI3
(lp192
ssI2
(dp193
I0
g187
sI1
g191
sI2
(lp194
sI3
(lp195
ssI3
(dp196
I2
g195
sI3
(lp197
ssa(dp198
I0
(dp199
I0
(lp200
sI1
(lp201
sI2
(lp202
Vhttp://dbpedia.org/ontology/wikiPageExternalLink
p203
aVhttp://dbpedia.org/property/webpage
p204
aVhttp://xmlns.com/foaf/0.1/homepage
p205
asI3
(lp206
ssI1
(dp207
I0
g201
sI1
(lp208
sI2
(lp209
sI3
(lp210
ssI2
(dp211
I0
g202
sI1
g209
sI2
(lp212
sI3
(lp213
Vhttp://www.w3.org/ns/prov#wasDerivedFrom
p214
assI3
(dp215
I0
g206
sI1
g210
sI2
g213
sI3
(lp216
ssa(dp217
I0
(dp218
I0
(lp219
sI1
(lp220
sI2
(lp221
sI3
(lp222
ssI1
(dp223
I0
g220
sI1
(lp224
sI2
(lp225
sI3
(lp226
ssI2
(dp227
I0
g221
sI1
g225
sI2
(lp228
sI3
(lp229
Vhttp://www.w3.org/ns/prov#wasDerivedFrom
p230
assI3
(dp231
I0
g222
sI1
g226
sI2
g229
sI3
(lp232
ssa(dp233
I0
(dp234
I0
(lp235
sI1
(lp236
sI2
(lp237
sI3
(lp238
ssI1
(dp239
I1
(lp240
sI2
(lp241
sI3
(lp242
ssI2
(dp243
I0
g237
sI1
g241
sI2
(lp244
sI3
(lp245
ssI3
(dp246
I2
g245
sI3
(lp247
ssa(dp248
I0
(dp249
I0
(lp250
sI1
(lp251
sI2
(lp252
Vhttp://dbpedia.org/ontology/wikiPageExternalLink
p253
aVhttp://dbpedia.org/property/webpage
p254
aVhttp://xmlns.com/foaf/0.1/homepage
p255
asI3
(lp256
ssI1
(dp257
I0
g251
sI1
(lp258
sI2
(lp259
sI3
(lp260
ssI2
(dp261
I0
g252
sI1
g259
sI2
(lp262
sI3
(lp263
Vhttp://www.w3.org/ns/prov#wasDerivedFrom
p264
assI3
(dp265
I0
g256
sI1
g260
sI2
g263
sI3
(lp266
ssa(dp267
I0
(dp268
I0
(lp269
sI1
(lp270
sI2
(lp271
sI3
(lp272
ssI1
(dp273
I1
(lp274
sI2
(lp275
sI3
(lp276
ssI2
(dp277
I0
g271
sI1
g275
sI2
(lp278
sI3
(lp279
ssI3
(dp280
I2
g279
sI3
(lp281
ssa(dp282
I0
(dp283
I0
(lp284
sI1
(lp285
sI2
(lp286
sI3
(lp287
ssI1
(dp288
I1
(lp289
sI2
(lp290
sI3
(lp291
ssI2
(dp292
I0
g286
sI1
g290
sI2
(lp293
sI3
(lp294
ssI3
(dp295
I2
g294
sI3
(lp296
ssa.