(lp1
(lp2
(lp3
Vhttp://dbpedia.org/resource/WonderSwan
p4
aa(lp5
Vhttp://dbpedia.org/resource/Xbox_One
p6
aa(lp7
Vhttp://dbpedia.org/resource/PocketStation
p8
aa(lp9
Vhttp://dbpedia.org/resource/Time_capsule
p10
aa(lp11
Vhttp://dbpedia.org/resource/HTC_Universal
p12
aa(lp13
Vhttp://dbpedia.org/resource/Orao_(computer)
p14
aa(lp15
a(lp16
Vhttp://dbpedia.org/resource/DragonBox_Pyra
p17
aa(lp18
Vhttp://dbpedia.org/resource/Macintosh_Portable
p19
aa(lp20
Vhttp://dbpedia.org/resource/Nokia_770_Internet_Tablet
p21
aa(lp22
Vhttp://dbpedia.org/resource/Power_Macintosh_7100
p23
aa(lp24
Vhttp://dbpedia.org/resource/SGI_Fuel
p25
aa(lp26
Vhttp://dbpedia.org/resource/Atari_XEGS
p27
aa(lp28
Vhttp://dbpedia.org/resource/Amiga_500_Plus
p29
aa(lp30
Vhttp://dbpedia.org/resource/Super_Nintendo_Entertainment_System_(Model_SNS-101)
p31
aa(lp32
Vhttp://dbpedia.org/resource/MicroBee
p33
aa(lp34
Vhttp://dbpedia.org/resource/Panasonic
p35
aa(lp36
Vhttp://dbpedia.org/resource/Philips_:YES
p37
aa(lp38
Vhttp://dbpedia.org/resource/CP_System
p39
aaa.