(lp1
(lp2
(lp3
a(lp4
a(lp5
a(lp6
a(lp7
aa(lp8
(lp9
a(lp10
a(lp11
a(lp12
a(lp13
aa(lp14
(lp15
a(lp16
a(lp17
a(lp18
a(lp19
aa(lp20
(lp21
a(lp22
a(lp23
a(lp24
a(lp25
aa(lp26
(lp27
a(lp28
a(lp29
a(lp30
a(lp31
aa(lp32
(lp33
a(lp34
a(lp35
a(lp36
a(lp37
aa(lp38
(lp39
a(lp40
a(lp41
a(lp42
a(lp43
aa(lp44
(lp45
a(lp46
a(lp47
a(lp48
a(lp49
aa(lp50
(lp51
a(lp52
a(lp53
a(lp54
a(lp55
aa(lp56
(lp57
a(lp58
a(lp59
a(lp60
a(lp61
aa(lp62
(lp63
a(lp64
a(lp65
a(lp66
a(lp67
aa(lp68
(lp69
a(lp70
a(lp71
a(lp72
a(lp73
aa(lp74
(lp75
a(lp76
a(lp77
a(lp78
a(lp79
aa(lp80
(lp81
a(lp82
a(lp83
a(lp84
a(lp85
aa(lp86
(lp87
a(lp88
a(lp89
a(lp90
a(lp91
aa(lp92
(lp93
a(lp94
a(lp95
a(lp96
a(lp97
aa(lp98
(lp99
a(lp100
a(lp101
a(lp102
a(lp103
((lp104
Vhttp://dbpedia.org/class/yago/AdministrativeDistrict108491826
p105
aVhttp://dbpedia.org/class/yago/District108552138
p106
aVhttp://dbpedia.org/class/yago/Location100027167
p107
aVhttp://dbpedia.org/class/yago/Object100002684
p108
aVhttp://dbpedia.org/class/yago/Region108630985
p109
aVhttp://dbpedia.org/class/yago/Site108651247
p110
aVhttp://dbpedia.org/class/yago/Tract108673395
p111
aVhttp://dbpedia.org/class/yago/YagoGeoEntity
p112
aVhttp://dbpedia.org/class/yago/YagoLegalActorGeo
p113
aVhttp://www.w3.org/2002/07/owl#Thing
p114
aVhttp://dbpedia.org/ontology/Place
p115
aVhttp://dbpedia.org/ontology/Location
p116
aVhttp://www.wikidata.org/entity/Q486972
p117
aVhttp://dbpedia.org/ontology/PopulatedPlace
p118
aVhttp://dbpedia.org/ontology/Settlement
p119
aVhttp://www.w3.org/2003/01/geo/wgs84_pos#SpatialThing
p120
aVhttp://schema.org/Place
p121
aVhttp://dbpedia.org/class/yago/YagoPermanentlyLocatedEntity
p122
aVhttp://dbpedia.org/class/yago/PopulatedPlacesInChakwalDistrict
p123
aVhttp://dbpedia.org/class/yago/GeographicalArea108574314
p124
aVhttp://dbpedia.org/class/yago/PhysicalEntity100001930
p125
aVhttp://dbpedia.org/resource/Chak_Umra
p126
tp127
aaa(lp128
(lp129
a(lp130
a(lp131
a(lp132
a(lp133
aa.