(lp1
(lp2
(lp3
Vhttp://dbpedia.org/resource/Bernard_St-Laurent_(broadcaster)
p4
aa(lp5
Vhttp://dbpedia.org/resource/Bryan_Appleyard
p6
aa(lp7
Vhttp://dbpedia.org/resource/Charles_Wheeler_(journalist)
p8
aa(lp9
Vhttp://dbpedia.org/resource/Chris_Sheridan_(director)
p10
aa(lp11
Vhttp://dbpedia.org/resource/Geoffrey_Wheatcroft
p12
aa(lp13
Vhttp://dbpedia.org/resource/Greg_Myre
p14
aa(lp15
Vhttp://dbpedia.org/resource/Brian_Ross_(journalist)
p16
aa(lp17
Vhttp://dbpedia.org/resource/James_Perry_(journalist)
p18
aa(lp19
Vhttp://dbpedia.org/resource/Jane_Roberts_(author)
p20
aa(lp21
Vhttp://dbpedia.org/resource/Alan_Johnston
p22
aa(lp23
Vhttp://dbpedia.org/resource/Lowell_Nussbaum
p24
aa(lp25
Vhttp://dbpedia.org/resource/Luisa_Baldini
p26
aa(lp27
Vhttp://dbpedia.org/resource/Michael_Coveney
p28
aa(lp29
Vhttp://dbpedia.org/resource/Mike_Strobel
p30
aa(lp31
Vhttp://dbpedia.org/resource/Milt_Dunnell
p32
aa(lp33
Vhttp://dbpedia.org/resource/Peter_Henley
p34
aa(lp35
Vhttp://dbpedia.org/resource/Peter_Hopkirk
p36
aa(lp37
Vhttp://dbpedia.org/resource/Robert_Scotland_Liddell
p38
aa(lp39
Vhttp://dbpedia.org/resource/Robert_Smith_(journalist)
p40
aaa.