(lp1
(lp2
(lp3
((lp4
Vhttp://dbpedia.org/class/yago/Builder109878275
p5
aVhttp://dbpedia.org/class/yago/CausalAgent100007347
p6
aVhttp://dbpedia.org/class/yago/Contractor109960891
p7
aVhttp://dbpedia.org/class/yago/LivingThing100004258
p8
aVhttp://dbpedia.org/class/yago/Object100002684
p9
aVhttp://dbpedia.org/class/yago/Organism100004475
p10
aVhttp://dbpedia.org/class/yago/Party110402824
p11
aVhttp://dbpedia.org/class/yago/Person100007846
p12
aVhttp://dbpedia.org/class/yago/Whole100003553
p13
aVhttp://dbpedia.org/class/yago/YagoLegalActorGeo
p14
aVhttp://dbpedia.org/class/yago/SwissRacecarConstructors
p15
aVhttp://www.w3.org/2002/07/owl#Thing
p16
aVhttp://www.ontologydesignpatterns.org/ont/dul/DUL.owl#Agent
p17
aVhttp://www.ontologydesignpatterns.org/ont/dul/DUL.owl#SocialPerson
p18
aVhttp://www.wikidata.org/entity/Q43229
p19
aVhttp://dbpedia.org/ontology/Agent
p20
aVhttp://dbpedia.org/ontology/FormulaOneTeam
p21
aVhttp://dbpedia.org/ontology/Organisation
p22
aVhttp://dbpedia.org/ontology/SportsTeam
p23
aVhttp://schema.org/Organization
p24
aVhttp://schema.org/SportsTeam
p25
aVhttp://dbpedia.org/class/yago/FormulaOneConstructors
p26
aVhttp://dbpedia.org/class/yago/YagoLegalActor
p27
aVhttp://dbpedia.org/class/yago/PhysicalEntity100001930
p28
aVhttp://dbpedia.org/resource/Sauber
tp29
aa(lp30
((lp31
Vhttp://dbpedia.org/class/yago/Builder109878275
p32
aVhttp://dbpedia.org/class/yago/CausalAgent100007347
p33
aVhttp://dbpedia.org/class/yago/Contractor109960891
p34
aVhttp://dbpedia.org/class/yago/LivingThing100004258
p35
aVhttp://dbpedia.org/class/yago/Object100002684
p36
aVhttp://dbpedia.org/class/yago/Organism100004475
p37
aVhttp://dbpedia.org/class/yago/Party110402824
p38
aVhttp://dbpedia.org/class/yago/Person100007846
p39
aVhttp://dbpedia.org/class/yago/Whole100003553
p40
aVhttp://dbpedia.org/class/yago/YagoLegalActorGeo
p41
aVhttp://www.w3.org/2002/07/owl#Thing
p42
aVhttp://www.ontologydesignpatterns.org/ont/dul/DUL.owl#Agent
p43
aVhttp://www.ontologydesignpatterns.org/ont/dul/DUL.owl#SocialPerson
p44
aVhttp://www.wikidata.org/entity/Q43229
p45
aVhttp://dbpedia.org/ontology/Agent
p46
aVhttp://dbpedia.org/ontology/FormulaOneTeam
p47
aVhttp://dbpedia.org/ontology/Organisation
p48
aVhttp://dbpedia.org/ontology/SportsTeam
p49
aVhttp://schema.org/Organization
p50
aVhttp://schema.org/SportsTeam
p51
aVhttp://dbpedia.org/class/yago/FormulaOneConstructors
p52
aVhttp://dbpedia.org/class/yago/FormulaTwoConstructors
p53
aVhttp://dbpedia.org/class/yago/YagoLegalActor
p54
aVhttp://dbpedia.org/class/yago/ItalianRacecarConstructors
p55
aVhttp://dbpedia.org/class/yago/PhysicalEntity100001930
p56
aVhttp://dbpedia.org/resource/Osella
tp57
aa(lp58
((lp59
Vhttp://dbpedia.org/class/yago/Builder109878275
p60
aVhttp://dbpedia.org/class/yago/CausalAgent100007347
p61
aVhttp://dbpedia.org/class/yago/Contractor109960891
p62
aVhttp://dbpedia.org/class/yago/LivingThing100004258
p63
aVhttp://dbpedia.org/class/yago/Object100002684
p64
aVhttp://dbpedia.org/class/yago/Organism100004475
p65
aVhttp://dbpedia.org/class/yago/Party110402824
p66
aVhttp://dbpedia.org/class/yago/Person100007846
p67
aVhttp://dbpedia.org/class/yago/Whole100003553
p68
aVhttp://dbpedia.org/class/yago/YagoLegalActorGeo
p69
aVhttp://www.w3.org/2002/07/owl#Thing
p70
aVhttp://www.ontologydesignpatterns.org/ont/dul/DUL.owl#Agent
p71
aVhttp://www.ontologydesignpatterns.org/ont/dul/DUL.owl#SocialPerson
p72
aVhttp://www.wikidata.org/entity/Q43229
p73
aVhttp://dbpedia.org/ontology/Agent
p74
aVhttp://dbpedia.org/ontology/FormulaOneTeam
p75
aVhttp://dbpedia.org/ontology/Organisation
p76
aVhttp://dbpedia.org/ontology/SportsTeam
p77
aVhttp://schema.org/Organization
p78
aVhttp://schema.org/SportsTeam
p79
aVhttp://dbpedia.org/class/yago/FormulaOneConstructors
p80
aVhttp://dbpedia.org/class/yago/FrenchRacecarConstructors
p81
aVhttp://dbpedia.org/class/yago/YagoLegalActor
p82
aVhttp://dbpedia.org/class/yago/PhysicalEntity100001930
p83
aVhttp://dbpedia.org/resource/Equipe_Ligier
tp84
aa(lp85
((lp86
Vhttp://www.w3.org/2002/07/owl#Thing
p87
aVhttp://www.ontologydesignpatterns.org/ont/dul/DUL.owl#Agent
p88
aVhttp://www.ontologydesignpatterns.org/ont/dul/DUL.owl#SocialPerson
p89
aVhttp://www.wikidata.org/entity/Q43229
p90
aVhttp://dbpedia.org/ontology/Agent
p91
aVhttp://dbpedia.org/ontology/FormulaOneTeam
p92
aVhttp://dbpedia.org/ontology/Organisation
p93
aVhttp://dbpedia.org/ontology/SportsTeam
p94
aVhttp://schema.org/Organization
p95
aVhttp://schema.org/SportsTeam
p96
aVhttp://dbpedia.org/resource/Colin_Crabbe_Racing
tp97
aa(lp98
((lp99
Vhttp://dbpedia.org/class/yago/BritishRacecarConstructors
p100
aVhttp://dbpedia.org/class/yago/Builder109878275
p101
aVhttp://dbpedia.org/class/yago/CausalAgent100007347
p102
aVhttp://dbpedia.org/class/yago/Contractor109960891
p103
aVhttp://dbpedia.org/class/yago/LivingThing100004258
p104
aVhttp://dbpedia.org/class/yago/Object100002684
p105
aVhttp://dbpedia.org/class/yago/Organism100004475
p106
aVhttp://dbpedia.org/class/yago/Party110402824
p107
aVhttp://dbpedia.org/class/yago/Person100007846
p108
aVhttp://dbpedia.org/class/yago/Whole100003553
p109
aVhttp://dbpedia.org/class/yago/YagoLegalActorGeo
p110
aVhttp://www.w3.org/2002/07/owl#Thing
p111
aVhttp://www.ontologydesignpatterns.org/ont/dul/DUL.owl#Agent
p112
aVhttp://www.ontologydesignpatterns.org/ont/dul/DUL.owl#SocialPerson
p113
aVhttp://www.wikidata.org/entity/Q43229
p114
aVhttp://dbpedia.org/ontology/Agent
p115
aVhttp://dbpedia.org/ontology/FormulaOneTeam
p116
aVhttp://dbpedia.org/ontology/Organisation
p117
aVhttp://dbpedia.org/ontology/SportsTeam
p118
aVhttp://schema.org/Organization
p119
aVhttp://schema.org/SportsTeam
p120
aVhttp://dbpedia.org/class/yago/FormulaOneConstructors
p121
aVhttp://dbpedia.org/class/yago/FormulaTwoConstructors
p122
aVhttp://dbpedia.org/class/yago/YagoLegalActor
p123
aVhttp://dbpedia.org/class/yago/PhysicalEntity100001930
p124
aVhttp://dbpedia.org/resource/Brabham
tp125
aa(lp126
((lp127
Vhttp://dbpedia.org/class/yago/Abstraction100002137
p128
aVhttp://dbpedia.org/class/yago/Company108058098
p129
aVhttp://dbpedia.org/class/yago/Group100031264
p130
aVhttp://dbpedia.org/class/yago/Institution108053576
p131
aVhttp://dbpedia.org/class/yago/Organization108008335
p132
aVhttp://dbpedia.org/class/yago/SocialGroup107950920
p133
aVhttp://dbpedia.org/class/yago/Team108208560
p134
aVhttp://dbpedia.org/class/yago/Unit108189659
p135
aVhttp://dbpedia.org/class/yago/YagoLegalActorGeo
p136
aVhttp://www.w3.org/2002/07/owl#Thing
p137
aVhttp://www.ontologydesignpatterns.org/ont/dul/DUL.owl#Agent
p138
aVhttp://www.ontologydesignpatterns.org/ont/dul/DUL.owl#SocialPerson
p139
aVhttp://www.wikidata.org/entity/Q43229
p140
aVhttp://dbpedia.org/ontology/Agent
p141
aVhttp://dbpedia.org/ontology/FormulaOneTeam
p142
aVhttp://dbpedia.org/ontology/Organisation
p143
aVhttp://dbpedia.org/ontology/SportsTeam
p144
aVhttp://www.w3.org/2003/01/geo/wgs84_pos#SpatialThing
p145
aVhttp://schema.org/Organization
p146
aVhttp://schema.org/SportsTeam
p147
aVhttp://dbpedia.org/class/yago/ChampCarTeams
p148
aVhttp://dbpedia.org/class/yago/CompaniesBasedInSurrey
p149
aVhttp://dbpedia.org/class/yago/CompaniesEstablishedIn1963
p150
aVhttp://dbpedia.org/class/yago/YagoPermanentlyLocatedEntity
p151
aVhttp://dbpedia.org/class/yago/YagoLegalActor
p152
aVhttp://dbpedia.org/resource/McLaren
tp153
aa(lp154
((lp155
Vhttp://dbpedia.org/class/yago/Builder109878275
p156
aVhttp://dbpedia.org/class/yago/CausalAgent100007347
p157
aVhttp://dbpedia.org/class/yago/Contractor109960891
p158
aVhttp://dbpedia.org/class/yago/LivingThing100004258
p159
aVhttp://dbpedia.org/class/yago/Object100002684
p160
aVhttp://dbpedia.org/class/yago/Organism100004475
p161
aVhttp://dbpedia.org/class/yago/Party110402824
p162
aVhttp://dbpedia.org/class/yago/Person100007846
p163
aVhttp://dbpedia.org/class/yago/Whole100003553
p164
aVhttp://dbpedia.org/class/yago/YagoLegalActorGeo
p165
aVhttp://www.w3.org/2002/07/owl#Thing
p166
aVhttp://www.ontologydesignpatterns.org/ont/dul/DUL.owl#Agent
p167
aVhttp://www.ontologydesignpatterns.org/ont/dul/DUL.owl#SocialPerson
p168
aVhttp://www.wikidata.org/entity/Q43229
p169
aVhttp://dbpedia.org/ontology/Agent
p170
aVhttp://dbpedia.org/ontology/FormulaOneTeam
p171
aVhttp://dbpedia.org/ontology/Organisation
p172
aVhttp://dbpedia.org/ontology/SportsTeam
p173
aVhttp://schema.org/Organization
p174
aVhttp://schema.org/SportsTeam
p175
aVhttp://dbpedia.org/class/yago/FormulaOneConstructors
p176
aVhttp://dbpedia.org/class/yago/FormulaTwoConstructors
p177
aVhttp://dbpedia.org/class/yago/YagoLegalActor
p178
aVhttp://dbpedia.org/class/yago/ItalianRacecarConstructors
p179
aVhttp://dbpedia.org/class/yago/PhysicalEntity100001930
p180
aVhttp://dbpedia.org/resource/Minardi
tp181
aa(lp182
((lp183
Vhttp://www.w3.org/2002/07/owl#Thing
p184
aVhttp://www.ontologydesignpatterns.org/ont/dul/DUL.owl#Agent
p185
aVhttp://www.ontologydesignpatterns.org/ont/dul/DUL.owl#SocialPerson
p186
aVhttp://www.wikidata.org/entity/Q43229
p187
aVhttp://dbpedia.org/ontology/Agent
p188
aVhttp://dbpedia.org/ontology/FormulaOneTeam
p189
aVhttp://dbpedia.org/ontology/Organisation
p190
aVhttp://dbpedia.org/ontology/SportsTeam
p191
aVhttp://www.w3.org/2003/01/geo/wgs84_pos#SpatialThing
p192
aVhttp://schema.org/Organization
p193
aVhttp://schema.org/SportsTeam
p194
aVhttp://dbpedia.org/resource/Williams_Grand_Prix_Engineering
tp195
aa(lp196
((lp197
Vhttp://dbpedia.org/class/yago/BritishRacecarConstructors
p198
aVhttp://dbpedia.org/class/yago/Builder109878275
p199
aVhttp://dbpedia.org/class/yago/CausalAgent100007347
p200
aVhttp://dbpedia.org/class/yago/Contractor109960891
p201
aVhttp://dbpedia.org/class/yago/LivingThing100004258
p202
aVhttp://dbpedia.org/class/yago/Object100002684
p203
aVhttp://dbpedia.org/class/yago/Organism100004475
p204
aVhttp://dbpedia.org/class/yago/Party110402824
p205
aVhttp://dbpedia.org/class/yago/Person100007846
p206
aVhttp://dbpedia.org/class/yago/Whole100003553
p207
aVhttp://dbpedia.org/class/yago/YagoLegalActorGeo
p208
aVhttp://www.w3.org/2002/07/owl#Thing
p209
aVhttp://www.ontologydesignpatterns.org/ont/dul/DUL.owl#Agent
p210
aVhttp://www.ontologydesignpatterns.org/ont/dul/DUL.owl#SocialPerson
p211
aVhttp://www.wikidata.org/entity/Q43229
p212
aVhttp://dbpedia.org/ontology/Agent
p213
aVhttp://dbpedia.org/ontology/FormulaOneTeam
p214
aVhttp://dbpedia.org/ontology/Organisation
p215
aVhttp://dbpedia.org/ontology/SportsTeam
p216
aVhttp://schema.org/Organization
p217
aVhttp://schema.org/SportsTeam
p218
aVhttp://dbpedia.org/class/yago/FormulaOneConstructors
p219
aVhttp://dbpedia.org/class/yago/YagoLegalActor
p220
aVhttp://dbpedia.org/class/yago/PhysicalEntity100001930
p221
aVhttp://dbpedia.org/resource/Ensign_Racing
tp222
aa(lp223
((lp224
Vhttp://dbpedia.org/class/yago/24HoursOfLeMansEntrants
p225
aVhttp://dbpedia.org/class/yago/Abstraction100002137
p226
aVhttp://dbpedia.org/class/yago/Hour115227846
p227
aVhttp://dbpedia.org/class/yago/TimeUnit115154774
p228
aVhttp://www.w3.org/2002/07/owl#Thing
p229
aVhttp://www.ontologydesignpatterns.org/ont/dul/DUL.owl#Agent
p230
aVhttp://www.ontologydesignpatterns.org/ont/dul/DUL.owl#SocialPerson
p231
aVhttp://www.wikidata.org/entity/Q43229
p232
aVhttp://dbpedia.org/ontology/Agent
p233
aVhttp://dbpedia.org/ontology/FormulaOneTeam
p234
aVhttp://dbpedia.org/ontology/Organisation
p235
aVhttp://dbpedia.org/ontology/SportsTeam
p236
aVhttp://schema.org/Organization
p237
aVhttp://schema.org/SportsTeam
p238
aVhttp://dbpedia.org/class/yago/Measure100033615
p239
aVhttp://dbpedia.org/resource/Ecurie_Bonnier
tp240
aa(lp241
((lp242
Vhttp://www.w3.org/2002/07/owl#Thing
p243
aVhttp://www.ontologydesignpatterns.org/ont/dul/DUL.owl#Agent
p244
aVhttp://www.ontologydesignpatterns.org/ont/dul/DUL.owl#SocialPerson
p245
aVhttp://www.wikidata.org/entity/Q43229
p246
aVhttp://dbpedia.org/ontology/Agent
p247
aVhttp://dbpedia.org/ontology/FormulaOneTeam
p248
aVhttp://dbpedia.org/ontology/Organisation
p249
aVhttp://dbpedia.org/ontology/SportsTeam
p250
aVhttp://schema.org/Organization
p251
aVhttp://schema.org/SportsTeam
p252
aVhttp://dbpedia.org/resource/Ecurie_Francorchamps
tp253
aa(lp254
((lp255
Vhttp://www.w3.org/2002/07/owl#Thing
p256
aVhttp://www.ontologydesignpatterns.org/ont/dul/DUL.owl#Agent
p257
aVhttp://www.ontologydesignpatterns.org/ont/dul/DUL.owl#SocialPerson
p258
aVhttp://www.wikidata.org/entity/Q43229
p259
aVhttp://dbpedia.org/ontology/Agent
p260
aVhttp://dbpedia.org/ontology/FormulaOneTeam
p261
aVhttp://dbpedia.org/ontology/Organisation
p262
aVhttp://dbpedia.org/ontology/SportsTeam
p263
aVhttp://schema.org/Organization
p264
aVhttp://schema.org/SportsTeam
p265
aVhttp://dbpedia.org/resource/Ecurie_Maarsbergen
tp266
aa(lp267
((lp268
Vhttp://www.w3.org/2002/07/owl#Thing
p269
aVhttp://www.ontologydesignpatterns.org/ont/dul/DUL.owl#Agent
p270
aVhttp://www.ontologydesignpatterns.org/ont/dul/DUL.owl#SocialPerson
p271
aVhttp://www.wikidata.org/entity/Q43229
p272
aVhttp://dbpedia.org/ontology/Agent
p273
aVhttp://dbpedia.org/ontology/FormulaOneTeam
p274
aVhttp://dbpedia.org/ontology/Organisation
p275
aVhttp://dbpedia.org/ontology/SportsTeam
p276
aVhttp://schema.org/Organization
p277
aVhttp://schema.org/SportsTeam
p278
aVhttp://dbpedia.org/resource/Ecurie_Rosier
tp279
aa(lp280
((lp281
Vhttp://www.w3.org/2002/07/owl#Thing
p282
aVhttp://www.ontologydesignpatterns.org/ont/dul/DUL.owl#Agent
p283
aVhttp://www.ontologydesignpatterns.org/ont/dul/DUL.owl#SocialPerson
p284
aVhttp://www.wikidata.org/entity/Q43229
p285
aVhttp://dbpedia.org/ontology/Agent
p286
aVhttp://dbpedia.org/ontology/FormulaOneTeam
p287
aVhttp://dbpedia.org/ontology/Organisation
p288
aVhttp://dbpedia.org/ontology/SportsTeam
p289
aVhttp://schema.org/Organization
p290
aVhttp://schema.org/SportsTeam
p291
aVhttp://dbpedia.org/resource/Super_Aguri_F1
tp292
aa(lp293
((lp294
Vhttp://dbpedia.org/class/yago/Builder109878275
p295
aVhttp://dbpedia.org/class/yago/CausalAgent100007347
p296
aVhttp://dbpedia.org/class/yago/Contractor109960891
p297
aVhttp://dbpedia.org/class/yago/LivingThing100004258
p298
aVhttp://dbpedia.org/class/yago/Object100002684
p299
aVhttp://dbpedia.org/class/yago/Organism100004475
p300
aVhttp://dbpedia.org/class/yago/Party110402824
p301
aVhttp://dbpedia.org/class/yago/Person100007846
p302
aVhttp://dbpedia.org/class/yago/Whole100003553
p303
aVhttp://dbpedia.org/class/yago/YagoLegalActorGeo
p304
aVhttp://www.w3.org/2002/07/owl#Thing
p305
aVhttp://www.ontologydesignpatterns.org/ont/dul/DUL.owl#Agent
p306
aVhttp://www.ontologydesignpatterns.org/ont/dul/DUL.owl#SocialPerson
p307
aVhttp://www.wikidata.org/entity/Q43229
p308
aVhttp://dbpedia.org/ontology/Agent
p309
aVhttp://dbpedia.org/ontology/FormulaOneTeam
p310
aVhttp://dbpedia.org/ontology/Organisation
p311
aVhttp://dbpedia.org/ontology/SportsTeam
p312
aVhttp://schema.org/Organization
p313
aVhttp://schema.org/SportsTeam
p314
aVhttp://dbpedia.org/class/yago/FormulaOneConstructors
p315
aVhttp://dbpedia.org/class/yago/YagoLegalActor
p316
aVhttp://dbpedia.org/class/yago/GermanRacecarConstructors
p317
aVhttp://dbpedia.org/class/yago/PhysicalEntity100001930
p318
aVhttp://dbpedia.org/resource/Kauhsen
tp319
aa(lp320
((lp321
Vhttp://dbpedia.org/class/yago/Builder109878275
p322
aVhttp://dbpedia.org/class/yago/CausalAgent100007347
p323
aVhttp://dbpedia.org/class/yago/Contractor109960891
p324
aVhttp://dbpedia.org/class/yago/LivingThing100004258
p325
aVhttp://dbpedia.org/class/yago/Object100002684
p326
aVhttp://dbpedia.org/class/yago/Organism100004475
p327
aVhttp://dbpedia.org/class/yago/Party110402824
p328
aVhttp://dbpedia.org/class/yago/Person100007846
p329
aVhttp://dbpedia.org/class/yago/Whole100003553
p330
aVhttp://dbpedia.org/class/yago/YagoLegalActorGeo
p331
aVhttp://www.w3.org/2002/07/owl#Thing
p332
aVhttp://www.ontologydesignpatterns.org/ont/dul/DUL.owl#Agent
p333
aVhttp://www.ontologydesignpatterns.org/ont/dul/DUL.owl#SocialPerson
p334
aVhttp://www.wikidata.org/entity/Q43229
p335
aVhttp://dbpedia.org/ontology/Agent
p336
aVhttp://dbpedia.org/ontology/FormulaOneTeam
p337
aVhttp://dbpedia.org/ontology/Organisation
p338
aVhttp://dbpedia.org/ontology/SportsTeam
p339
aVhttp://schema.org/Organization
p340
aVhttp://schema.org/SportsTeam
p341
aVhttp://dbpedia.org/class/yago/FormulaOneConstructors
p342
aVhttp://dbpedia.org/class/yago/YagoLegalActor
p343
aVhttp://dbpedia.org/class/yago/ItalianRacecarConstructors
p344
aVhttp://dbpedia.org/class/yago/PhysicalEntity100001930
p345
aVhttp://dbpedia.org/resource/Merzario
tp346
aa(lp347
((lp348
Vhttp://dbpedia.org/class/yago/BritishRacecarConstructors
p349
aVhttp://dbpedia.org/class/yago/Builder109878275
p350
aVhttp://dbpedia.org/class/yago/CausalAgent100007347
p351
aVhttp://dbpedia.org/class/yago/Contractor109960891
p352
aVhttp://dbpedia.org/class/yago/LivingThing100004258
p353
aVhttp://dbpedia.org/class/yago/Object100002684
p354
aVhttp://dbpedia.org/class/yago/Organism100004475
p355
aVhttp://dbpedia.org/class/yago/Party110402824
p356
aVhttp://dbpedia.org/class/yago/Person100007846
p357
aVhttp://dbpedia.org/class/yago/Whole100003553
p358
aVhttp://dbpedia.org/class/yago/YagoLegalActorGeo
p359
aVhttp://www.w3.org/2002/07/owl#Thing
p360
aVhttp://www.ontologydesignpatterns.org/ont/dul/DUL.owl#Agent
p361
aVhttp://www.ontologydesignpatterns.org/ont/dul/DUL.owl#SocialPerson
p362
aVhttp://www.wikidata.org/entity/Q43229
p363
aVhttp://dbpedia.org/ontology/Agent
p364
aVhttp://dbpedia.org/ontology/FormulaOneTeam
p365
aVhttp://dbpedia.org/ontology/Organisation
p366
aVhttp://dbpedia.org/ontology/SportsTeam
p367
aVhttp://www.w3.org/2003/01/geo/wgs84_pos#SpatialThing
p368
aVhttp://schema.org/Organization
p369
aVhttp://schema.org/SportsTeam
p370
aVhttp://dbpedia.org/class/yago/FormulaOneConstructors
p371
aVhttp://dbpedia.org/class/yago/YagoLegalActor
p372
aVhttp://dbpedia.org/class/yago/PhysicalEntity100001930
p373
aVhttp://dbpedia.org/resource/Red_Bull_Racing
tp374
aa(lp375
((lp376
Vhttp://dbpedia.org/class/yago/BritishRacecarConstructors
p377
aVhttp://dbpedia.org/class/yago/Builder109878275
p378
aVhttp://dbpedia.org/class/yago/CausalAgent100007347
p379
aVhttp://dbpedia.org/class/yago/Contractor109960891
p380
aVhttp://dbpedia.org/class/yago/LivingThing100004258
p381
aVhttp://dbpedia.org/class/yago/Object100002684
p382
aVhttp://dbpedia.org/class/yago/Organism100004475
p383
aVhttp://dbpedia.org/class/yago/Party110402824
p384
aVhttp://dbpedia.org/class/yago/Person100007846
p385
aVhttp://dbpedia.org/class/yago/Whole100003553
p386
aVhttp://dbpedia.org/class/yago/YagoLegalActorGeo
p387
aVhttp://www.w3.org/2002/07/owl#Thing
p388
aVhttp://www.ontologydesignpatterns.org/ont/dul/DUL.owl#Agent
p389
aVhttp://www.ontologydesignpatterns.org/ont/dul/DUL.owl#SocialPerson
p390
aVhttp://www.wikidata.org/entity/Q43229
p391
aVhttp://dbpedia.org/ontology/Agent
p392
aVhttp://dbpedia.org/ontology/FormulaOneTeam
p393
aVhttp://dbpedia.org/ontology/Organisation
p394
aVhttp://dbpedia.org/ontology/SportsTeam
p395
aVhttp://schema.org/Organization
p396
aVhttp://schema.org/SportsTeam
p397
aVhttp://dbpedia.org/class/yago/FormulaOneConstructors
p398
aVhttp://dbpedia.org/class/yago/YagoLegalActor
p399
aVhttp://dbpedia.org/class/yago/PhysicalEntity100001930
p400
aVhttp://dbpedia.org/resource/Vanwall
tp401
aa(lp402
((lp403
Vhttp://dbpedia.org/class/yago/Builder109878275
p404
aVhttp://dbpedia.org/class/yago/CausalAgent100007347
p405
aVhttp://dbpedia.org/class/yago/Contractor109960891
p406
aVhttp://dbpedia.org/class/yago/LivingThing100004258
p407
aVhttp://dbpedia.org/class/yago/Object100002684
p408
aVhttp://dbpedia.org/class/yago/Organism100004475
p409
aVhttp://dbpedia.org/class/yago/Party110402824
p410
aVhttp://dbpedia.org/class/yago/Person100007846
p411
aVhttp://dbpedia.org/class/yago/Whole100003553
p412
aVhttp://dbpedia.org/class/yago/YagoLegalActorGeo
p413
aVhttp://www.w3.org/2002/07/owl#Thing
p414
aVhttp://www.ontologydesignpatterns.org/ont/dul/DUL.owl#Agent
p415
aVhttp://www.ontologydesignpatterns.org/ont/dul/DUL.owl#SocialPerson
p416
aVhttp://www.wikidata.org/entity/Q43229
p417
aVhttp://dbpedia.org/ontology/Agent
p418
aVhttp://dbpedia.org/ontology/FormulaOneTeam
p419
aVhttp://dbpedia.org/ontology/Organisation
p420
aVhttp://dbpedia.org/ontology/SportsTeam
p421
aVhttp://schema.org/Organization
p422
aVhttp://schema.org/SportsTeam
p423
aVhttp://dbpedia.org/class/yago/FormulaOneConstructors
p424
aVhttp://dbpedia.org/class/yago/NewZealandRacecarConstructors
p425
aVhttp://dbpedia.org/class/yago/YagoLegalActor
p426
aVhttp://dbpedia.org/class/yago/PhysicalEntity100001930
p427
aVhttp://dbpedia.org/resource/Chris_Amon_Racing
p428
tp429
aaa.