(lp1
(lp2
(lp3
Vhttp://dbpedia.org/resource/Dominic_Augustin_Hall
p4
aa(lp5
aa(lp6
(lp7
a(lp8
aa(lp9
(lp10
a(lp11
aa(lp12
(lp13
a(lp14
aa(lp15
(lp16
a(lp17
aa(lp18
(lp19
a(lp20
aa(lp21
(lp22
a(lp23
aa(lp24
(lp25
a(lp26
aa(lp27
(lp28
Vhttp://dbpedia.org/resource/Embers_and_Ashes
p29
aa(lp30
aa(lp31
(lp32
a(lp33
aa(lp34
(lp35
a(lp36
aa(lp37
(lp38
Vhttp://dbpedia.org/resource/Infected_Mushroom
p39
aa(lp40
aa(lp41
(lp42
a(lp43
aa(lp44
(lp45
a(lp46
aa(lp47
(lp48
a(lp49
aa(lp50
(lp51
a(lp52
aa(lp53
(lp54
a(lp55
aa(lp56
(lp57
a(lp58
aa(lp59
(lp60
Vhttp://dbpedia.org/resource/P.O.D.
p61
aa(lp62
aa.