(lp1
(lp2
(lp3
Vhttp://dbpedia.org/resource/Podocarpus_angustifolius
p4
aa(lp5
Vhttp://dbpedia.org/resource/Podocarpus_nivalis
p6
aa(lp7
a(lp8
Vhttp://dbpedia.org/resource/Podocarpus_angustifolius
p9
aa(lp10
Vhttp://dbpedia.org/resource/Podocarpus_novae-caledoniae
p11
aa(lp12
Vhttp://dbpedia.org/resource/Prumnopitys_ferruginea
p13
aa(lp14
Vhttp://dbpedia.org/resource/Abies_beshanzuensis
p15
aa(lp16
Vhttp://dbpedia.org/resource/Abies_forrestii
p17
aa(lp18
Vhttp://dbpedia.org/resource/Araucaria_hunsteinii
p19
aa(lp20
Vhttp://dbpedia.org/resource/Pinus_maximinoi
p21
aa(lp22
Vhttp://dbpedia.org/resource/Widdringtonia_nodiflora
p23
aa(lp24
Vhttp://dbpedia.org/resource/Dacrydium_beccarii
p25
aa(lp26
Vhttp://dbpedia.org/resource/Pinus_clausa
p27
aa(lp28
Vhttp://dbpedia.org/resource/Abies_bracteata
p29
aa(lp30
Vhttp://dbpedia.org/resource/Pseudolarix
p31
aa(lp32
Vhttp://dbpedia.org/resource/Bristlecone_pine
p33
aa(lp34
Vhttp://dbpedia.org/resource/Taxodium
p35
aa(lp36
Vhttp://dbpedia.org/resource/Taxus
p37
aa(lp38
Vhttp://dbpedia.org/resource/Agathis
p39
aaa.