(lp1
(lp2
(lp3
Vhttp://dbpedia.org/resource/Camogie
p4
aa(lp5
Vhttp://dbpedia.org/resource/Hurling
p6
aa(lp7
Vhttp://dbpedia.org/resource/Rounders
p8
aa(lp9
Vhttp://dbpedia.org/resource/Shinty
p10
aa(lp11
Vhttp://dbpedia.org/resource/Racewalking
p12
aa(lp13
Vhttp://dbpedia.org/resource/Wheelchair_Football_(American)
p14
aa(lp15
Vhttp://dbpedia.org/resource/Combined_driving
p16
aa(lp17
Vhttp://dbpedia.org/resource/Amateur_radio_direction_finding
p18
aa(lp19
Vhttp://dbpedia.org/resource/Asia_Pacific_Activities_Conference
p20
aa(lp21
Vhttp://dbpedia.org/resource/Cyclo-cross
p22
aa(lp23
Vhttp://dbpedia.org/resource/Endurance_race
p24
aa(lp25
Vhttp://dbpedia.org/resource/Paddle_tennis
p26
aa(lp27
Vhttp://dbpedia.org/resource/Ski_cross
p28
aa(lp29
Vhttp://dbpedia.org/resource/Sport_stacking
p30
aa(lp31
Vhttp://dbpedia.org/resource/Sepak_takraw
p32
aa(lp33
a(lp34
Vhttp://dbpedia.org/resource/Wherigo
p35
aa(lp36
Vhttp://dbpedia.org/resource/Boccia
p37
aa(lp38
Vhttp://dbpedia.org/resource/Indoor_field_hockey
p39
aaa.