(lp1
(lp2
(lp3
a(lp4
((lp5
Vhttp://dbpedia.org/class/yago/AmericanActivists
p6
aVhttp://dbpedia.org/class/yago/AmericanEnvironmentalists
p7
aVhttp://dbpedia.org/class/yago/CausalAgent100007347
p8
aVhttp://dbpedia.org/class/yago/Disputant109615465
p9
aVhttp://dbpedia.org/class/yago/Environmentalist110060621
p10
aVhttp://dbpedia.org/class/yago/Holder110180178
p11
aVhttp://dbpedia.org/class/yago/Leader109623038
p12
aVhttp://dbpedia.org/class/yago/LivingThing100004258
p13
aVhttp://dbpedia.org/class/yago/Militant110315837
p14
aVhttp://dbpedia.org/class/yago/Object100002684
p15
aVhttp://dbpedia.org/class/yago/Official110372373
p16
aVhttp://dbpedia.org/class/yago/Organism100004475
p17
aVhttp://dbpedia.org/class/yago/Person100007846
p18
aVhttp://dbpedia.org/class/yago/Politician110451263
p19
aVhttp://dbpedia.org/class/yago/Reformer110515194
p20
aVhttp://dbpedia.org/class/yago/SkilledWorker110605985
p21
aVhttp://dbpedia.org/class/yago/Whole100003553
p22
aVhttp://dbpedia.org/class/yago/Worker109632518
p23
aVhttp://dbpedia.org/class/yago/YagoLegalActorGeo
p24
aVhttp://www.w3.org/2002/07/owl#Thing
p25
aVhttp://xmlns.com/foaf/0.1/Person
p26
aVhttp://dbpedia.org/ontology/Person
p27
aVhttp://www.ontologydesignpatterns.org/ont/dul/DUL.owl#Agent
p28
aVhttp://www.ontologydesignpatterns.org/ont/dul/DUL.owl#NaturalPerson
p29
aVhttp://www.wikidata.org/entity/Q215627
p30
aVhttp://www.wikidata.org/entity/Q5
p31
aVhttp://dbpedia.org/ontology/Agent
p32
aVhttp://dbpedia.org/ontology/OfficeHolder
p33
aVhttp://schema.org/Person
p34
aVhttp://dbpedia.org/class/yago/PeopleFromBerkeley,California
p35
aVhttp://dbpedia.org/class/yago/YagoLegalActor
p36
aVhttp://dbpedia.org/class/yago/JewishAmericanPoliticians
p37
aVhttp://dbpedia.org/class/yago/LivingPeople
p38
aVhttp://dbpedia.org/class/yago/Officeholder110371450
p39
aVhttp://dbpedia.org/class/yago/Owner110389398
p40
aVhttp://dbpedia.org/class/yago/PhysicalEntity100001930
p41
aVhttp://dbpedia.org/resource/Aaron_Peskin
tp42
aa(lp43
aa(lp44
(lp45
a(lp46
a(lp47
aa(lp48
(lp49
((lp50
Vhttp://dbpedia.org/class/yago/Abstraction100002137
p51
aVhttp://dbpedia.org/class/yago/AdministrativeDistrict108491826
p52
aVhttp://dbpedia.org/class/yago/Arabic-speakingCountriesAndTerritories
p53
aVhttp://dbpedia.org/class/yago/Country108544813
p54
aVhttp://dbpedia.org/class/yago/District108552138
p55
aVhttp://dbpedia.org/class/yago/Economy108366753
p56
aVhttp://dbpedia.org/class/yago/Group100031264
p57
aVhttp://dbpedia.org/class/yago/Location100027167
p58
aVhttp://dbpedia.org/class/yago/Object100002684
p59
aVhttp://dbpedia.org/class/yago/Region108630985
p60
aVhttp://dbpedia.org/class/yago/System108435388
p61
aVhttp://dbpedia.org/class/yago/YagoGeoEntity
p62
aVhttp://dbpedia.org/class/yago/YagoLegalActorGeo
p63
aVhttp://dbpedia.org/class/yago/StatesAndTerritoriesEstablishedIn1971
p64
aVhttp://www.w3.org/2002/07/owl#Thing
p65
aVhttp://dbpedia.org/ontology/Place
p66
aVhttp://dbpedia.org/ontology/Location
p67
aVhttp://www.wikidata.org/entity/Q486972
p68
aVhttp://www.wikidata.org/entity/Q6256
p69
aVhttp://dbpedia.org/ontology/Country
p70
aVhttp://dbpedia.org/ontology/PopulatedPlace
p71
aVhttp://www.w3.org/2003/01/geo/wgs84_pos#SpatialThing
p72
aVhttp://schema.org/Country
p73
aVhttp://schema.org/Place
p74
aVhttp://umbel.org/umbel/rc/Country
p75
aVhttp://umbel.org/umbel/rc/Location_Underspecified
p76
aVhttp://umbel.org/umbel/rc/PopulatedPlace
p77
aVhttp://dbpedia.org/class/yago/English-speakingCountriesAndTerritories
p78
aVhttp://dbpedia.org/class/yago/YagoPermanentlyLocatedEntity
p79
aVhttp://dbpedia.org/class/yago/Persian-speakingCountriesAndTerritories
p80
aVhttp://dbpedia.org/class/yago/PersianGulfCountries
p81
aVhttp://dbpedia.org/class/yago/IslandCountries
p82
aVhttp://dbpedia.org/class/yago/MemberStatesOfTheArabLeague
p83
aVhttp://dbpedia.org/class/yago/MemberStatesOfTheCooperationCouncilForTheArabStatesOfTheGulf
p84
aVhttp://dbpedia.org/class/yago/MemberStatesOfTheOrganisationOfIslamicCooperation
p85
aVhttp://dbpedia.org/class/yago/MemberStatesOfTheUnitedNations
p86
aVhttp://dbpedia.org/class/yago/MiddleEasternCountries
p87
aVhttp://dbpedia.org/class/yago/PhysicalEntity100001930
p88
aVhttp://dbpedia.org/class/yago/WesternAsianCountries
p89
aVhttp://dbpedia.org/class/yago/WorldTradeOrganizationMemberEconomies
p90
aVhttp://dbpedia.org/resource/Bahrain
tp91
aa(lp92
a(lp93
aa(lp94
(lp95
a(lp96
a(lp97
aa(lp98
(lp99
a(lp100
a(lp101
aa(lp102
(lp103
((lp104
Vhttp://dbpedia.org/class/yago/AdministrativeDistrict108491826
p105
aVhttp://dbpedia.org/class/yago/Area108497294
p106
aVhttp://dbpedia.org/class/yago/Artifact100021939
p107
aVhttp://dbpedia.org/class/yago/Capital108518505
p108
aVhttp://dbpedia.org/class/yago/CapitalsOfPakistan
p109
aVhttp://dbpedia.org/class/yago/Center108523483
p110
aVhttp://dbpedia.org/class/yago/City108524735
p111
aVhttp://dbpedia.org/class/yago/District108552138
p112
aVhttp://dbpedia.org/class/yago/Facility103315023
p113
aVhttp://dbpedia.org/class/yago/GeographicPoint108578706
p114
aVhttp://dbpedia.org/class/yago/Location100027167
p115
aVhttp://dbpedia.org/class/yago/Object100002684
p116
aVhttp://dbpedia.org/class/yago/Point108620061
p117
aVhttp://dbpedia.org/class/yago/Port108633957
p118
aVhttp://dbpedia.org/class/yago/RailwayStation104049098
p119
aVhttp://dbpedia.org/class/yago/Region108630985
p120
aVhttp://dbpedia.org/class/yago/Seat108647945
p121
aVhttp://dbpedia.org/class/yago/Site108651247
p122
aVhttp://dbpedia.org/class/yago/Station104306080
p123
aVhttp://dbpedia.org/class/yago/Terminal104412901
p124
aVhttp://dbpedia.org/class/yago/Tract108673395
p125
aVhttp://dbpedia.org/class/yago/UrbanArea108675967
p126
aVhttp://dbpedia.org/class/yago/Whole100003553
p127
aVhttp://dbpedia.org/class/yago/YagoGeoEntity
p128
aVhttp://dbpedia.org/class/yago/YagoLegalActorGeo
p129
aVhttp://dbpedia.org/class/yago/PopulatedPlacesInSindh
p130
aVhttp://dbpedia.org/class/yago/PortCitiesAndTownsInPakistan
p131
aVhttp://dbpedia.org/class/yago/PortsAndHarboursOfTheIndianOcean
p132
aVhttp://dbpedia.org/class/yago/RailwayStationsInPakistan
p133
aVhttp://www.w3.org/2002/07/owl#Thing
p134
aVhttp://dbpedia.org/ontology/Place
p135
aVhttp://dbpedia.org/ontology/Location
p136
aVhttp://www.wikidata.org/entity/Q486972
p137
aVhttp://www.wikidata.org/entity/Q515
p138
aVhttp://dbpedia.org/ontology/City
p139
aVhttp://dbpedia.org/ontology/PopulatedPlace
p140
aVhttp://dbpedia.org/ontology/Settlement
p141
aVhttp://www.w3.org/2003/01/geo/wgs84_pos#SpatialThing
p142
aVhttp://schema.org/City
p143
aVhttp://schema.org/Place
p144
aVhttp://umbel.org/umbel/rc/City
p145
aVhttp://umbel.org/umbel/rc/Location_Underspecified
p146
aVhttp://umbel.org/umbel/rc/PopulatedPlace
p147
aVhttp://umbel.org/umbel/rc/Village
p148
aVhttp://dbpedia.org/class/yago/CitiesOfPakistan
p149
aVhttp://dbpedia.org/class/yago/CoastalCitiesAndTownsInPakistan
p150
aVhttp://dbpedia.org/class/yago/FormerNationalCapitals
p151
aVhttp://dbpedia.org/class/yago/YagoPermanentlyLocatedEntity
p152
aVhttp://dbpedia.org/class/yago/NationalCapital108691669
p153
aVhttp://dbpedia.org/class/yago/GeographicalArea108574314
p154
aVhttp://dbpedia.org/class/yago/MetropolitanAreasOfPakistan
p155
aVhttp://dbpedia.org/class/yago/Municipality108626283
p156
aVhttp://dbpedia.org/class/yago/PhysicalEntity100001930
p157
aVhttp://dbpedia.org/resource/Karachi
tp158
aa(lp159
a(lp160
aa(lp161
(lp162
a(lp163
a(lp164
aa(lp165
(lp166
a(lp167
a(lp168
aa(lp169
(lp170
a(lp171
((lp172
Vhttp://dbpedia.org/class/yago/Abolitionist109756637
p173
aVhttp://dbpedia.org/class/yago/Advocate109774783
p174
aVhttp://dbpedia.org/class/yago/AmericanAbolitionists
p175
aVhttp://dbpedia.org/class/yago/AmericanFeminists
p176
aVhttp://dbpedia.org/class/yago/AmericanSuffragists
p177
aVhttp://dbpedia.org/class/yago/AmericanWomen'sRightsActivists
p178
aVhttp://dbpedia.org/class/yago/CausalAgent100007347
p179
aVhttp://dbpedia.org/class/yago/Disputant109615465
p180
aVhttp://dbpedia.org/class/yago/Feminist110084635
p181
aVhttp://dbpedia.org/class/yago/LivingThing100004258
p182
aVhttp://dbpedia.org/class/yago/Militant110315837
p183
aVhttp://dbpedia.org/class/yago/Object100002684
p184
aVhttp://dbpedia.org/class/yago/Organism100004475
p185
aVhttp://dbpedia.org/class/yago/Person100007846
p186
aVhttp://dbpedia.org/class/yago/Reformer110515194
p187
aVhttp://dbpedia.org/class/yago/Suffragist110672908
p188
aVhttp://dbpedia.org/class/yago/Whole100003553
p189
aVhttp://dbpedia.org/class/yago/YagoLegalActorGeo
p190
aVhttp://www.w3.org/2002/07/owl#Thing
p191
aVhttp://xmlns.com/foaf/0.1/Person
p192
aVhttp://dbpedia.org/ontology/Person
p193
aVhttp://www.ontologydesignpatterns.org/ont/dul/DUL.owl#Agent
p194
aVhttp://www.ontologydesignpatterns.org/ont/dul/DUL.owl#NaturalPerson
p195
aVhttp://www.wikidata.org/entity/Q215627
p196
aVhttp://www.wikidata.org/entity/Q5
p197
aVhttp://dbpedia.org/ontology/Agent
p198
aVhttp://schema.org/Person
p199
aVhttp://dbpedia.org/class/yago/YagoLegalActor
p200
aVhttp://dbpedia.org/class/yago/PhysicalEntity100001930
p201
aVhttp://dbpedia.org/resource/Abigail_Bush
p202
tp203
aa(lp204
aa(lp205
(lp206
a(lp207
a(lp208
aa(lp209
(lp210
a(lp211
a(lp212
aa(lp213
(lp214
a(lp215
a(lp216
aa(lp217
(lp218
a(lp219
a(lp220
aa(lp221
(lp222
a(lp223
a(lp224
aa(lp225
(lp226
a(lp227
a(lp228
aa(lp229
(lp230
a(lp231
a(lp232
aa(lp233
(lp234
a(lp235
a(lp236
aa.