(lp1
(lp2
(lp3
a(lp4
Vhttp://dbpedia.org/resource/Aaron_Peskin
p5
aa(lp6
aa(lp7
(lp8
a(lp9
a(lp10
aa(lp11
(lp12
Vhttp://dbpedia.org/resource/Bahrain
p13
aa(lp14
a(lp15
aa(lp16
(lp17
a(lp18
a(lp19
aa(lp20
(lp21
a(lp22
a(lp23
aa(lp24
(lp25
Vhttp://dbpedia.org/resource/Karachi
p26
aa(lp27
a(lp28
aa(lp29
(lp30
a(lp31
a(lp32
aa(lp33
(lp34
a(lp35
a(lp36
aa(lp37
(lp38
a(lp39
Vhttp://dbpedia.org/resource/Abigail_Bush
p40
aa(lp41
aa(lp42
(lp43
a(lp44
a(lp45
aa(lp46
(lp47
a(lp48
a(lp49
aa(lp50
(lp51
a(lp52
a(lp53
aa(lp54
(lp55
a(lp56
a(lp57
aa(lp58
(lp59
a(lp60
a(lp61
aa(lp62
(lp63
a(lp64
a(lp65
aa(lp66
(lp67
a(lp68
a(lp69
aa(lp70
(lp71
a(lp72
a(lp73
aa.