(lp1
(lp2
(lp3
((lp4
Vhttp://dbpedia.org/class/yago/ArchaeologicalSitesInMalaysia
p5
aVhttp://dbpedia.org/class/yago/Cave109238926
p6
aVhttp://dbpedia.org/class/yago/GeologicalFormation109287968
p7
aVhttp://dbpedia.org/class/yago/Location100027167
p8
aVhttp://dbpedia.org/class/yago/Object100002684
p9
aVhttp://dbpedia.org/class/yago/Region108630985
p10
aVhttp://dbpedia.org/class/yago/Site108651247
p11
aVhttp://dbpedia.org/class/yago/Tract108673395
p12
aVhttp://dbpedia.org/class/yago/YagoGeoEntity
p13
aVhttp://dbpedia.org/class/yago/YagoLegalActorGeo
p14
aVhttp://www.w3.org/2002/07/owl#Thing
p15
aVhttp://dbpedia.org/ontology/Place
p16
aVhttp://dbpedia.org/ontology/Location
p17
aVhttp://www.wikidata.org/entity/Q35509
p18
aVhttp://dbpedia.org/ontology/Cave
p19
aVhttp://dbpedia.org/ontology/NaturalPlace
p20
aVhttp://schema.org/Place
p21
aVhttp://dbpedia.org/class/yago/CavesOfMalaysia
p22
aVhttp://dbpedia.org/class/yago/YagoPermanentlyLocatedEntity
p23
aVhttp://dbpedia.org/class/yago/GeographicalArea108574314
p24
aVhttp://dbpedia.org/class/yago/LimestoneCaves
p25
aVhttp://dbpedia.org/class/yago/PhysicalEntity100001930
p26
aVhttp://dbpedia.org/class/yago/WildCaves
p27
aVhttp://dbpedia.org/resource/Niah_National_Park
tp28
aa(lp29
a(lp30
((lp31
Vhttp://dbpedia.org/class/yago/18th-centuryScottishPeople
p32
aVhttp://dbpedia.org/class/yago/19th-centuryScottishPeople
p33
aVhttp://dbpedia.org/class/yago/3rdDragoonGuardsOfficers
p34
aVhttp://dbpedia.org/class/yago/7thDragoonGuardsOfficers
p35
aVhttp://dbpedia.org/class/yago/AlumniOfTheUniversityOfEdinburgh
p36
aVhttp://dbpedia.org/class/yago/Alumnus109786338
p37
aVhttp://dbpedia.org/class/yago/BritishArmyCommandersOfTheNapoleonicWars
p38
aVhttp://dbpedia.org/class/yago/BritishArmyGenerals
p39
aVhttp://dbpedia.org/class/yago/CausalAgent100007347
p40
aVhttp://dbpedia.org/class/yago/CommandingOfficer109941964
p41
aVhttp://dbpedia.org/class/yago/CommissionedMilitaryOfficer109943239
p42
aVhttp://dbpedia.org/class/yago/General110123844
p43
aVhttp://dbpedia.org/class/yago/GeneralOfficer110125786
p44
aVhttp://dbpedia.org/class/yago/Governor110140314
p45
aVhttp://dbpedia.org/class/yago/Intellectual109621545
p46
aVhttp://dbpedia.org/class/yago/Leader109623038
p47
aVhttp://dbpedia.org/class/yago/LivingThing100004258
p48
aVhttp://dbpedia.org/class/yago/MilitaryOfficer110317007
p49
aVhttp://dbpedia.org/class/yago/Object100002684
p50
aVhttp://dbpedia.org/class/yago/Organism100004475
p51
aVhttp://dbpedia.org/class/yago/Person100007846
p52
aVhttp://dbpedia.org/class/yago/Politician110451263
p53
aVhttp://dbpedia.org/class/yago/Scholar110557854
p54
aVhttp://dbpedia.org/class/yago/Serviceman110582746
p55
aVhttp://dbpedia.org/class/yago/SkilledWorker110605985
p56
aVhttp://dbpedia.org/class/yago/Whole100003553
p57
aVhttp://dbpedia.org/class/yago/Worker109632518
p58
aVhttp://dbpedia.org/class/yago/YagoLegalActorGeo
p59
aVhttp://dbpedia.org/class/yago/RoyalScotsGreysOfficers
p60
aVhttp://dbpedia.org/class/yago/RoyalWarwickshireFusiliersOfficers
p61
aVhttp://dbpedia.org/class/yago/ScottishGenerals
p62
aVhttp://www.w3.org/2002/07/owl#Thing
p63
aVhttp://xmlns.com/foaf/0.1/Person
p64
aVhttp://dbpedia.org/ontology/Person
p65
aVhttp://www.ontologydesignpatterns.org/ont/dul/DUL.owl#Agent
p66
aVhttp://www.ontologydesignpatterns.org/ont/dul/DUL.owl#NaturalPerson
p67
aVhttp://www.wikidata.org/entity/Q215627
p68
aVhttp://www.wikidata.org/entity/Q5
p69
aVhttp://dbpedia.org/ontology/Agent
p70
aVhttp://dbpedia.org/ontology/MilitaryPerson
p71
aVhttp://schema.org/Person
p72
aVhttp://umbel.org/umbel/rc/MilitaryPerson
p73
aVhttp://umbel.org/umbel/rc/PersonWithOccupation
p74
aVhttp://dbpedia.org/class/yago/PeopleFromClackmannanshire
p75
aVhttp://dbpedia.org/class/yago/YagoLegalActor
p76
aVhttp://dbpedia.org/class/yago/CommissionedOfficer109942970
p77
aVhttp://dbpedia.org/class/yago/GovernorsOfTrinidadAndTobago
p78
aVhttp://dbpedia.org/class/yago/PhysicalEntity100001930
p79
aVhttp://dbpedia.org/resource/Ralph_Abercromby
tp80
aa(lp81
((lp82
Vhttp://dbpedia.org/class/yago/Cave109238926
p83
aVhttp://dbpedia.org/class/yago/GeologicalFormation109287968
p84
aVhttp://dbpedia.org/class/yago/Object100002684
p85
aVhttp://dbpedia.org/class/yago/YagoGeoEntity
p86
aVhttp://dbpedia.org/class/yago/ShowCavesInTheUnitedStates
p87
aVhttp://www.w3.org/2002/07/owl#Thing
p88
aVhttp://dbpedia.org/ontology/Place
p89
aVhttp://dbpedia.org/ontology/Location
p90
aVhttp://www.wikidata.org/entity/Q35509
p91
aVhttp://dbpedia.org/ontology/Cave
p92
aVhttp://dbpedia.org/ontology/NaturalPlace
p93
aVhttp://schema.org/Place
p94
aVhttp://dbpedia.org/class/yago/CavesOfCalifornia
p95
aVhttp://dbpedia.org/class/yago/YagoPermanentlyLocatedEntity
p96
aVhttp://dbpedia.org/class/yago/PhysicalEntity100001930
p97
aVhttp://dbpedia.org/resource/Boyden_Cave
tp98
aa(lp99
((lp100
Vhttp://dbpedia.org/class/yago/Abstraction100002137
p101
aVhttp://dbpedia.org/class/yago/AmorphousShape113867492
p102
aVhttp://dbpedia.org/class/yago/Area108497294
p103
aVhttp://dbpedia.org/class/yago/Attribute100024264
p104
aVhttp://dbpedia.org/class/yago/Cave109238926
p105
aVhttp://dbpedia.org/class/yago/GeologicalFormation109287968
p106
aVhttp://dbpedia.org/class/yago/Location100027167
p107
aVhttp://dbpedia.org/class/yago/Object100002684
p108
aVhttp://dbpedia.org/class/yago/Opening109379111
p109
aVhttp://dbpedia.org/class/yago/Region108630985
p110
aVhttp://dbpedia.org/class/yago/Shape100027807
p111
aVhttp://dbpedia.org/class/yago/Space113910384
p112
aVhttp://dbpedia.org/class/yago/Vent109470550
p113
aVhttp://dbpedia.org/class/yago/YagoGeoEntity
p114
aVhttp://dbpedia.org/class/yago/YagoLegalActorGeo
p115
aVhttp://dbpedia.org/class/yago/ProtectedAreasOfArgyllAndBute
p116
aVhttp://dbpedia.org/class/yago/SeaCaves
p117
aVhttp://www.w3.org/2002/07/owl#Thing
p118
aVhttp://dbpedia.org/ontology/Place
p119
aVhttp://dbpedia.org/ontology/Location
p120
aVhttp://www.wikidata.org/entity/Q35509
p121
aVhttp://dbpedia.org/ontology/Cave
p122
aVhttp://dbpedia.org/ontology/NaturalPlace
p123
aVhttp://www.w3.org/2003/01/geo/wgs84_pos#SpatialThing
p124
aVhttp://schema.org/Place
p125
aVhttp://dbpedia.org/class/yago/CavesOfScotland
p126
aVhttp://dbpedia.org/class/yago/Crack109258715
p127
aVhttp://dbpedia.org/class/yago/YagoPermanentlyLocatedEntity
p128
aVhttp://dbpedia.org/class/yago/PhysicalEntity100001930
p129
aVhttp://dbpedia.org/class/yago/VolcanoesOfScotland
p130
aVhttp://dbpedia.org/resource/Fingal's_Cave
tp131
aa(lp132
((lp133
Vhttp://dbpedia.org/class/yago/Artifact100021939
p134
aVhttp://dbpedia.org/class/yago/Cave109238926
p135
aVhttp://dbpedia.org/class/yago/Conduit103089014
p136
aVhttp://dbpedia.org/class/yago/GeologicalFormation109287968
p137
aVhttp://dbpedia.org/class/yago/Object100002684
p138
aVhttp://dbpedia.org/class/yago/Passage103895293
p139
aVhttp://dbpedia.org/class/yago/Tube104493505
p140
aVhttp://dbpedia.org/class/yago/Way104564698
p141
aVhttp://dbpedia.org/class/yago/Whole100003553
p142
aVhttp://dbpedia.org/class/yago/YagoGeoEntity
p143
aVhttp://dbpedia.org/class/yago/ShowCavesInTheUnitedStates
p144
aVhttp://www.w3.org/2002/07/owl#Thing
p145
aVhttp://dbpedia.org/ontology/Place
p146
aVhttp://dbpedia.org/ontology/Location
p147
aVhttp://www.wikidata.org/entity/Q35509
p148
aVhttp://dbpedia.org/ontology/Cave
p149
aVhttp://dbpedia.org/ontology/NaturalPlace
p150
aVhttp://www.w3.org/2003/01/geo/wgs84_pos#SpatialThing
p151
aVhttp://schema.org/Place
p152
aVhttp://umbel.org/umbel/rc/Cave
p153
aVhttp://dbpedia.org/class/yago/CavesOfOregon
p154
aVhttp://dbpedia.org/class/yago/YagoPermanentlyLocatedEntity
p155
aVhttp://dbpedia.org/class/yago/LavaTubes
p156
aVhttp://dbpedia.org/class/yago/PhysicalEntity100001930
p157
aVhttp://dbpedia.org/resource/Lava_River_Cave
tp158
aa(lp159
((lp160
Vhttp://dbpedia.org/class/yago/ArchaeologicalSitesInCalifornia
p161
aVhttp://dbpedia.org/class/yago/Area108497294
p162
aVhttp://dbpedia.org/class/yago/Cave109238926
p163
aVhttp://dbpedia.org/class/yago/GeologicalFormation109287968
p164
aVhttp://dbpedia.org/class/yago/Landmark108624891
p165
aVhttp://dbpedia.org/class/yago/Location100027167
p166
aVhttp://dbpedia.org/class/yago/Object100002684
p167
aVhttp://dbpedia.org/class/yago/Point108620061
p168
aVhttp://dbpedia.org/class/yago/Position108621598
p169
aVhttp://dbpedia.org/class/yago/Region108630985
p170
aVhttp://dbpedia.org/class/yago/Site108651247
p171
aVhttp://dbpedia.org/class/yago/Tract108673395
p172
aVhttp://dbpedia.org/class/yago/YagoGeoEntity
p173
aVhttp://dbpedia.org/class/yago/YagoLegalActorGeo
p174
aVhttp://dbpedia.org/class/yago/ProtectedAreasOfSanBernardinoCounty,California
p175
aVhttp://dbpedia.org/class/yago/ProtectedAreasOfTheMojaveDesert
p176
aVhttp://www.w3.org/2002/07/owl#Thing
p177
aVhttp://dbpedia.org/ontology/Place
p178
aVhttp://dbpedia.org/ontology/Location
p179
aVhttp://www.wikidata.org/entity/Q35509
p180
aVhttp://dbpedia.org/ontology/Cave
p181
aVhttp://dbpedia.org/ontology/NaturalPlace
p182
aVhttp://schema.org/Place
p183
aVhttp://dbpedia.org/class/yago/CavesOfCalifornia
p184
aVhttp://dbpedia.org/class/yago/YagoPermanentlyLocatedEntity
p185
aVhttp://dbpedia.org/class/yago/NationalNaturalLandmarksInCalifornia
p186
aVhttp://dbpedia.org/class/yago/GeographicalArea108574314
p187
aVhttp://dbpedia.org/class/yago/LandmarksInCalifornia
p188
aVhttp://dbpedia.org/class/yago/LimestoneCaves
p189
aVhttp://dbpedia.org/class/yago/PhysicalEntity100001930
p190
aVhttp://dbpedia.org/resource/Mitchell_Caverns
tp191
aa(lp192
((lp193
Vhttp://dbpedia.org/class/yago/Artifact100021939
p194
aVhttp://dbpedia.org/class/yago/Establishment103297735
p195
aVhttp://dbpedia.org/class/yago/MercantileEstablishment103748162
p196
aVhttp://dbpedia.org/class/yago/Object100002684
p197
aVhttp://dbpedia.org/class/yago/Structure104341686
p198
aVhttp://dbpedia.org/class/yago/Whole100003553
p199
aVhttp://dbpedia.org/class/yago/YagoGeoEntity
p200
aVhttp://dbpedia.org/class/yago/ShoppingMallsInMassachusetts
p201
aVhttp://www.w3.org/2002/07/owl#Thing
p202
aVhttp://dbpedia.org/ontology/Place
p203
aVhttp://dbpedia.org/ontology/Location
p204
aVhttp://www.wikidata.org/entity/Q11315
p205
aVhttp://www.wikidata.org/entity/Q41176
p206
aVhttp://dbpedia.org/ontology/ArchitecturalStructure
p207
aVhttp://dbpedia.org/ontology/Building
p208
aVhttp://dbpedia.org/ontology/ShoppingMall
p209
aVhttp://www.w3.org/2003/01/geo/wgs84_pos#SpatialThing
p210
aVhttp://schema.org/Place
p211
aVhttp://schema.org/ShoppingCenter
p212
aVhttp://umbel.org/umbel/rc/ShoppingMallBuilding
p213
aVhttp://dbpedia.org/class/yago/YagoPermanentlyLocatedEntity
p214
aVhttp://dbpedia.org/class/yago/Plaza103965456
p215
aVhttp://dbpedia.org/class/yago/PhysicalEntity100001930
p216
aVhttp://dbpedia.org/class/yago/PlaceOfBusiness103953020
p217
aVhttp://dbpedia.org/resource/Swansea_Mall
tp218
aa(lp219
((lp220
Vhttp://dbpedia.org/class/yago/ArchaeologicalSitesInStaffordshire
p221
aVhttp://dbpedia.org/class/yago/Area108497294
p222
aVhttp://dbpedia.org/class/yago/Artifact100021939
p223
aVhttp://dbpedia.org/class/yago/BronzeAgeSitesInEngland
p224
aVhttp://dbpedia.org/class/yago/Cave109238926
p225
aVhttp://dbpedia.org/class/yago/Facility103315023
p226
aVhttp://dbpedia.org/class/yago/GeologicalFormation109287968
p227
aVhttp://dbpedia.org/class/yago/Location100027167
p228
aVhttp://dbpedia.org/class/yago/Mountain109359803
p229
aVhttp://dbpedia.org/class/yago/Object100002684
p230
aVhttp://dbpedia.org/class/yago/RailwayStation104049098
p231
aVhttp://dbpedia.org/class/yago/Region108630985
p232
aVhttp://dbpedia.org/class/yago/Site108651247
p233
aVhttp://dbpedia.org/class/yago/Station104306080
p234
aVhttp://dbpedia.org/class/yago/Terminal104412901
p235
aVhttp://dbpedia.org/class/yago/Tract108673395
p236
aVhttp://dbpedia.org/class/yago/Whole100003553
p237
aVhttp://dbpedia.org/class/yago/YagoGeoEntity
p238
aVhttp://dbpedia.org/class/yago/YagoLegalActorGeo
p239
aVhttp://dbpedia.org/class/yago/RomanSitesInEngland
p240
aVhttp://dbpedia.org/class/yago/StoneAgeSitesInEngland
p241
aVhttp://www.w3.org/2002/07/owl#Thing
p242
aVhttp://dbpedia.org/ontology/Place
p243
aVhttp://dbpedia.org/ontology/Location
p244
aVhttp://www.wikidata.org/entity/Q35509
p245
aVhttp://dbpedia.org/ontology/Cave
p246
aVhttp://dbpedia.org/ontology/NaturalPlace
p247
aVhttp://www.w3.org/2003/01/geo/wgs84_pos#SpatialThing
p248
aVhttp://schema.org/Place
p249
aVhttp://umbel.org/umbel/rc/Cave
p250
aVhttp://dbpedia.org/class/yago/CavesOfStaffordshire
p251
aVhttp://dbpedia.org/class/yago/ClimbingAreasOfEngland
p252
aVhttp://dbpedia.org/class/yago/DisusedRailwayStationsInStaffordshire
p253
aVhttp://dbpedia.org/class/yago/YagoPermanentlyLocatedEntity
p254
aVhttp://dbpedia.org/class/yago/MountainsAndHillsOfThePeakDistrict
p255
aVhttp://dbpedia.org/class/yago/GeographicalArea108574314
p256
aVhttp://dbpedia.org/class/yago/IronAgeSitesInEngland
p257
aVhttp://dbpedia.org/class/yago/NaturalElevation109366317
p258
aVhttp://dbpedia.org/class/yago/PhysicalEntity100001930
p259
aVhttp://dbpedia.org/resource/Thor's_Cave
tp260
aa(lp261
a(lp262
((lp263
Vhttp://dbpedia.org/class/yago/Artifact100021939
p264
aVhttp://dbpedia.org/class/yago/BuddhistTemplesInIndia
p265
aVhttp://dbpedia.org/class/yago/Building102913152
p266
aVhttp://dbpedia.org/class/yago/Object100002684
p267
aVhttp://dbpedia.org/class/yago/PlaceOfWorship103953416
p268
aVhttp://dbpedia.org/class/yago/Structure104341686
p269
aVhttp://dbpedia.org/class/yago/Temple104407435
p270
aVhttp://dbpedia.org/class/yago/Whole100003553
p271
aVhttp://dbpedia.org/class/yago/YagoGeoEntity
p272
aVhttp://www.w3.org/2002/07/owl#Thing
p273
aVhttp://dbpedia.org/ontology/Place
p274
aVhttp://dbpedia.org/ontology/Location
p275
aVhttp://www.wikidata.org/entity/Q35509
p276
aVhttp://dbpedia.org/ontology/Cave
p277
aVhttp://dbpedia.org/ontology/NaturalPlace
p278
aVhttp://www.w3.org/2003/01/geo/wgs84_pos#SpatialThing
p279
aVhttp://schema.org/Place
p280
aVhttp://umbel.org/umbel/rc/Cave
p281
aVhttp://dbpedia.org/class/yago/YagoPermanentlyLocatedEntity
p282
aVhttp://dbpedia.org/class/yago/HinduCaveTemples
p283
aVhttp://dbpedia.org/class/yago/HinduTemplesInMumbai
p284
aVhttp://dbpedia.org/class/yago/PhysicalEntity100001930
p285
aVhttp://dbpedia.org/resource/Jogeshwari_Caves
tp286
aa(lp287
((lp288
Vhttp://dbpedia.org/class/yago/Artifact100021939
p289
aVhttp://dbpedia.org/class/yago/BuddhistTemplesInIndia
p290
aVhttp://dbpedia.org/class/yago/Building102913152
p291
aVhttp://dbpedia.org/class/yago/Object100002684
p292
aVhttp://dbpedia.org/class/yago/PlaceOfWorship103953416
p293
aVhttp://dbpedia.org/class/yago/Structure104341686
p294
aVhttp://dbpedia.org/class/yago/Temple104407435
p295
aVhttp://dbpedia.org/class/yago/Whole100003553
p296
aVhttp://dbpedia.org/class/yago/YagoGeoEntity
p297
aVhttp://www.w3.org/2002/07/owl#Thing
p298
aVhttp://dbpedia.org/ontology/Place
p299
aVhttp://dbpedia.org/ontology/Location
p300
aVhttp://www.wikidata.org/entity/Q35509
p301
aVhttp://dbpedia.org/ontology/Cave
p302
aVhttp://dbpedia.org/ontology/NaturalPlace
p303
aVhttp://www.w3.org/2003/01/geo/wgs84_pos#SpatialThing
p304
aVhttp://schema.org/Place
p305
aVhttp://dbpedia.org/class/yago/YagoPermanentlyLocatedEntity
p306
aVhttp://dbpedia.org/class/yago/PhysicalEntity100001930
p307
aVhttp://dbpedia.org/resource/Karla_Caves
tp308
aa(lp309
((lp310
Vhttp://dbpedia.org/class/yago/Cave109238926
p311
aVhttp://dbpedia.org/class/yago/GeologicalFormation109287968
p312
aVhttp://dbpedia.org/class/yago/Hill109303008
p313
aVhttp://dbpedia.org/class/yago/Object100002684
p314
aVhttp://dbpedia.org/class/yago/YagoGeoEntity
p315
aVhttp://www.w3.org/2002/07/owl#Thing
p316
aVhttp://dbpedia.org/ontology/Place
p317
aVhttp://dbpedia.org/ontology/Location
p318
aVhttp://www.wikidata.org/entity/Q35509
p319
aVhttp://dbpedia.org/ontology/Cave
p320
aVhttp://dbpedia.org/ontology/NaturalPlace
p321
aVhttp://www.w3.org/2003/01/geo/wgs84_pos#SpatialThing
p322
aVhttp://schema.org/Place
p323
aVhttp://dbpedia.org/class/yago/CavesOfPennsylvania
p324
aVhttp://dbpedia.org/class/yago/YagoPermanentlyLocatedEntity
p325
aVhttp://dbpedia.org/class/yago/GravityHills
p326
aVhttp://dbpedia.org/class/yago/NaturalElevation109366317
p327
aVhttp://dbpedia.org/class/yago/PhysicalEntity100001930
p328
aVhttp://dbpedia.org/resource/Laurel_Caverns
tp329
aa(lp330
((lp331
Vhttp://dbpedia.org/class/yago/ArchaeologicalSitesInIndonesia
p332
aVhttp://dbpedia.org/class/yago/Cave109238926
p333
aVhttp://dbpedia.org/class/yago/GeologicalFormation109287968
p334
aVhttp://dbpedia.org/class/yago/Location100027167
p335
aVhttp://dbpedia.org/class/yago/Object100002684
p336
aVhttp://dbpedia.org/class/yago/Region108630985
p337
aVhttp://dbpedia.org/class/yago/Site108651247
p338
aVhttp://dbpedia.org/class/yago/Tract108673395
p339
aVhttp://dbpedia.org/class/yago/YagoGeoEntity
p340
aVhttp://dbpedia.org/class/yago/YagoLegalActorGeo
p341
aVhttp://www.w3.org/2002/07/owl#Thing
p342
aVhttp://dbpedia.org/ontology/Place
p343
aVhttp://dbpedia.org/ontology/Location
p344
aVhttp://www.wikidata.org/entity/Q35509
p345
aVhttp://dbpedia.org/ontology/Cave
p346
aVhttp://dbpedia.org/ontology/NaturalPlace
p347
aVhttp://www.w3.org/2003/01/geo/wgs84_pos#SpatialThing
p348
aVhttp://schema.org/Place
p349
aVhttp://dbpedia.org/class/yago/CavesOfIndonesia
p350
aVhttp://dbpedia.org/class/yago/YagoPermanentlyLocatedEntity
p351
aVhttp://dbpedia.org/class/yago/PaleoanthropologicalSites
p352
aVhttp://dbpedia.org/class/yago/PaleontologicalSitesOfAsia
p353
aVhttp://dbpedia.org/class/yago/GeographicalArea108574314
p354
aVhttp://dbpedia.org/class/yago/PhysicalEntity100001930
p355
aVhttp://dbpedia.org/resource/Liang_Bua
tp356
aa(lp357
((lp358
Vhttp://www.w3.org/2002/07/owl#Thing
p359
aVhttp://dbpedia.org/ontology/Place
p360
aVhttp://dbpedia.org/ontology/Location
p361
aVhttp://www.wikidata.org/entity/Q4022
p362
aVhttp://www.wikidata.org/entity/Q47521
p363
aVhttp://dbpedia.org/ontology/BodyOfWater
p364
aVhttp://dbpedia.org/ontology/NaturalPlace
p365
aVhttp://dbpedia.org/ontology/River
p366
aVhttp://dbpedia.org/ontology/Stream
p367
aVhttp://www.w3.org/2003/01/geo/wgs84_pos#SpatialThing
p368
aVhttp://schema.org/BodyOfWater
p369
aVhttp://schema.org/Place
p370
aVhttp://schema.org/RiverBodyOfWater
p371
aVhttp://dbpedia.org/resource/Sharda_River
tp372
aa(lp373
((lp374
Vhttp://dbpedia.org/class/yago/Cave109238926
p375
aVhttp://dbpedia.org/class/yago/GeologicalFormation109287968
p376
aVhttp://dbpedia.org/class/yago/Object100002684
p377
aVhttp://dbpedia.org/class/yago/YagoGeoEntity
p378
aVhttp://dbpedia.org/class/yago/ShowCaves
p379
aVhttp://www.w3.org/2002/07/owl#Thing
p380
aVhttp://dbpedia.org/ontology/Place
p381
aVhttp://dbpedia.org/ontology/Location
p382
aVhttp://www.wikidata.org/entity/Q35509
p383
aVhttp://dbpedia.org/ontology/Cave
p384
aVhttp://dbpedia.org/ontology/NaturalPlace
p385
aVhttp://www.w3.org/2003/01/geo/wgs84_pos#SpatialThing
p386
aVhttp://schema.org/Place
p387
aVhttp://umbel.org/umbel/rc/Cave
p388
aVhttp://dbpedia.org/class/yago/CavesOfEthiopia
p389
aVhttp://dbpedia.org/class/yago/YagoPermanentlyLocatedEntity
p390
aVhttp://dbpedia.org/class/yago/LimestoneCaves
p391
aVhttp://dbpedia.org/class/yago/PhysicalEntity100001930
p392
aVhttp://dbpedia.org/resource/Sof_Omar_Caves
tp393
aa(lp394
((lp395
Vhttp://dbpedia.org/class/yago/ArchaeologicalSitesInSicily
p396
aVhttp://dbpedia.org/class/yago/Cave109238926
p397
aVhttp://dbpedia.org/class/yago/GeologicalFormation109287968
p398
aVhttp://dbpedia.org/class/yago/Location100027167
p399
aVhttp://dbpedia.org/class/yago/Object100002684
p400
aVhttp://dbpedia.org/class/yago/Region108630985
p401
aVhttp://dbpedia.org/class/yago/Site108651247
p402
aVhttp://dbpedia.org/class/yago/Tract108673395
p403
aVhttp://dbpedia.org/class/yago/YagoGeoEntity
p404
aVhttp://dbpedia.org/class/yago/YagoLegalActorGeo
p405
aVhttp://www.w3.org/2002/07/owl#Thing
p406
aVhttp://dbpedia.org/ontology/Place
p407
aVhttp://dbpedia.org/ontology/Location
p408
aVhttp://www.wikidata.org/entity/Q35509
p409
aVhttp://dbpedia.org/ontology/Cave
p410
aVhttp://dbpedia.org/ontology/NaturalPlace
p411
aVhttp://www.w3.org/2003/01/geo/wgs84_pos#SpatialThing
p412
aVhttp://schema.org/Place
p413
aVhttp://dbpedia.org/class/yago/CavesOfItaly
p414
aVhttp://dbpedia.org/class/yago/YagoPermanentlyLocatedEntity
p415
aVhttp://dbpedia.org/class/yago/GeographicalArea108574314
p416
aVhttp://dbpedia.org/class/yago/PhysicalEntity100001930
p417
aVhttp://dbpedia.org/resource/Ear_of_Dionysius
tp418
aa(lp419
((lp420
Vhttp://dbpedia.org/class/yago/Cave109238926
p421
aVhttp://dbpedia.org/class/yago/GeologicalFormation109287968
p422
aVhttp://dbpedia.org/class/yago/Object100002684
p423
aVhttp://dbpedia.org/class/yago/YagoGeoEntity
p424
aVhttp://www.w3.org/2002/07/owl#Thing
p425
aVhttp://dbpedia.org/ontology/Place
p426
aVhttp://dbpedia.org/ontology/Location
p427
aVhttp://www.wikidata.org/entity/Q35509
p428
aVhttp://dbpedia.org/ontology/Cave
p429
aVhttp://dbpedia.org/ontology/NaturalPlace
p430
aVhttp://www.w3.org/2003/01/geo/wgs84_pos#SpatialThing
p431
aVhttp://schema.org/Place
p432
aVhttp://umbel.org/umbel/rc/Cave
p433
aVhttp://dbpedia.org/class/yago/CavesOfFrance
p434
aVhttp://dbpedia.org/class/yago/YagoPermanentlyLocatedEntity
p435
aVhttp://dbpedia.org/class/yago/PhysicalEntity100001930
p436
aVhttp://dbpedia.org/resource/Gouffre_Jean-Bernard
tp437
aa(lp438
((lp439
Vhttp://dbpedia.org/class/yago/Cave109238926
p440
aVhttp://dbpedia.org/class/yago/GeologicalFormation109287968
p441
aVhttp://dbpedia.org/class/yago/Object100002684
p442
aVhttp://dbpedia.org/class/yago/YagoGeoEntity
p443
aVhttp://www.w3.org/2002/07/owl#Thing
p444
aVhttp://dbpedia.org/ontology/Place
p445
aVhttp://dbpedia.org/ontology/Location
p446
aVhttp://www.wikidata.org/entity/Q35509
p447
aVhttp://dbpedia.org/ontology/Cave
p448
aVhttp://dbpedia.org/ontology/NaturalPlace
p449
aVhttp://www.w3.org/2003/01/geo/wgs84_pos#SpatialThing
p450
aVhttp://schema.org/Place
p451
aVhttp://umbel.org/umbel/rc/Cave
p452
aVhttp://dbpedia.org/class/yago/CavesOfPowys
p453
aVhttp://dbpedia.org/class/yago/CavesOfWales
p454
aVhttp://dbpedia.org/class/yago/YagoPermanentlyLocatedEntity
p455
aVhttp://dbpedia.org/class/yago/LimestoneCaves
p456
aVhttp://dbpedia.org/class/yago/PhysicalEntity100001930
p457
aVhttp://dbpedia.org/class/yago/WildCaves
p458
aVhttp://dbpedia.org/resource/Ogof_Craig_a_Ffynnon
p459
tp460
aaa.