ccollections
defaultdict
p1
(c__builtin__
dict
p2
tRp3
I3
(dp4
I1
(lp5
ssI4
(dp6
I1
(lp7
ssI5
(dp8
I1
(lp9
ssI6
(dp10
I1
(lp11
ssI7
(dp12
I1
(lp13
ssI8
(dp14
I1
(lp15
ssI9
(dp16
I1
(lp17
ssI11
(dp18
I1
(lp19
ssI12
(dp20
I1
(lp21
ssI13
(dp22
I1
(lp23
ssI14
(dp24
I1
(lp25
ssI17
(dp26
I1
(lp27
ssI18
(dp28
I1
(lp29
ss.