(lp1
(lp2
(lp3
a(lp4
Vhttp://dbpedia.org/resource/Mandibular_canal
p5
aa(lp6
Vhttp://dbpedia.org/resource/Herpes_zoster
p7
aa(lp8
Vhttp://dbpedia.org/resource/Mylohyoid_groove
p9
aa(lp10
Vhttp://dbpedia.org/resource/Mylohyoid_line
p11
aa(lp12
Vhttp://dbpedia.org/resource/Foramen_ovale_(skull)
p13
aa(lp14
Vhttp://dbpedia.org/resource/Frontal_crest
p15
aa(lp16
Vhttp://dbpedia.org/resource/Glossary_of_entomology_terms
p17
aa(lp18
Vhttp://dbpedia.org/resource/Obturator_foramen
p19
aa(lp20
Vhttp://dbpedia.org/resource/Scalene_tubercle
p21
aa(lp22
Vhttp://dbpedia.org/resource/Scapula
p23
aa(lp24
Vhttp://dbpedia.org/resource/Sphenoidal_lingula
p25
aa(lp26
a(lp27
Vhttp://dbpedia.org/resource/Ethmoid_bone
p28
aa(lp29
Vhttp://dbpedia.org/resource/Foramen_magnum
p30
aa(lp31
Vhttp://dbpedia.org/resource/Patella
p32
aa(lp33
Vhttp://dbpedia.org/resource/Upper_extremity_of_tibia
p34
aa(lp35
Vhttp://dbpedia.org/resource/Long_bone
p36
aa(lp37
Vhttp://dbpedia.org/resource/Foramen_spinosum
p38
aaa.