(lp1
(lp2
(lp3
a(lp4
a(lp5
a(lp6
a(lp7
a(lp8
a(lp9
a(lp10
a(lp11
aa(lp12
(lp13
a(lp14
a(lp15
a(lp16
a(lp17
a(lp18
a(lp19
a(lp20
a(lp21
aa(lp22
(lp23
a(lp24
a(lp25
a(lp26
a(lp27
a(lp28
a(lp29
a(lp30
a(lp31
aa(lp32
(lp33
a(lp34
a(lp35
a(lp36
a(lp37
a(lp38
a(lp39
a(lp40
a(lp41
aa(lp42
(lp43
a(lp44
a(lp45
a(lp46
a(lp47
a(lp48
a(lp49
a(lp50
a(lp51
aa(lp52
(lp53
a(lp54
a(lp55
a(lp56
a(lp57
a(lp58
a(lp59
a(lp60
a(lp61
aa(lp62
(lp63
a(lp64
a(lp65
a(lp66
Vhttp://dbpedia.org/resource/Beaver_Tail_(American_railcar)
p67
aa(lp68
a(lp69
a(lp70
a(lp71
a(lp72
aa(lp73
(lp74
a(lp75
a(lp76
a(lp77
Vhttp://dbpedia.org/resource/Comet_(railcar)
p78
aa(lp79
a(lp80
a(lp81
a(lp82
a(lp83
aa(lp84
(lp85
a(lp86
a(lp87
a(lp88
Vhttp://dbpedia.org/resource/Comet_(train)
p89
aa(lp90
a(lp91
a(lp92
a(lp93
a(lp94
aa(lp95
(lp96
a(lp97
a(lp98
a(lp99
a(lp100
a(lp101
a(lp102
a(lp103
a(lp104
aa(lp105
(lp106
a(lp107
a(lp108
a(lp109
a(lp110
a(lp111
a(lp112
a(lp113
a(lp114
aa(lp115
(lp116
a(lp117
a(lp118
a(lp119
a(lp120
a(lp121
a(lp122
a(lp123
a(lp124
aa(lp125
(lp126
a(lp127
a(lp128
a(lp129
Vhttp://dbpedia.org/resource/Harris_(train)
p130
aa(lp131
a(lp132
a(lp133
a(lp134
a(lp135
aa(lp136
(lp137
a(lp138
a(lp139
a(lp140
Vhttp://dbpedia.org/resource/Hitachi_(Australian_train)
p141
aa(lp142
a(lp143
a(lp144
a(lp145
a(lp146
aa(lp147
(lp148
a(lp149
a(lp150
a(lp151
Vhttp://dbpedia.org/resource/New_Measurement_Train
p152
aa(lp153
a(lp154
a(lp155
a(lp156
a(lp157
aa(lp158
(lp159
a(lp160
a(lp161
a(lp162
Vhttp://dbpedia.org/resource/New_South_Wales_Hunter_railcar
p163
aa(lp164
a(lp165
a(lp166
a(lp167
a(lp168
aa(lp169
(lp170
a(lp171
a(lp172
a(lp173
Vhttp://dbpedia.org/resource/New_Zealand_FP_class_electric_multiple_unit
p174
aa(lp175
a(lp176
a(lp177
a(lp178
a(lp179
aa(lp180
(lp181
a(lp182
a(lp183
a(lp184
Vhttp://dbpedia.org/resource/Propelling_Control_Vehicle
p185
aa(lp186
a(lp187
a(lp188
a(lp189
a(lp190
aa(lp191
(lp192
a(lp193
a(lp194
a(lp195
Vhttp://dbpedia.org/resource/Roger_Williams_(train)
p196
aa(lp197
a(lp198
a(lp199
a(lp200
a(lp201
aa.