(lp1
(lp2
(lp3
((lp4
Vhttp://dbpedia.org/class/yago/Adult109605289
p5
aVhttp://dbpedia.org/class/yago/AmericanMaleSingers
p6
aVhttp://dbpedia.org/class/yago/AmericanTalkRadioHosts
p7
aVhttp://dbpedia.org/class/yago/AmericanWriters
p8
aVhttp://dbpedia.org/class/yago/Artist109812338
p9
aVhttp://dbpedia.org/class/yago/CausalAgent100007347
p10
aVhttp://dbpedia.org/class/yago/Communicator109610660
p11
aVhttp://dbpedia.org/class/yago/Creator109614315
p12
aVhttp://dbpedia.org/class/yago/Entertainer109616922
p13
aVhttp://dbpedia.org/class/yago/Host110187130
p14
aVhttp://dbpedia.org/class/yago/LivingThing100004258
p15
aVhttp://dbpedia.org/class/yago/Musician110339966
p16
aVhttp://dbpedia.org/class/yago/Musician110340312
p17
aVhttp://dbpedia.org/class/yago/Object100002684
p18
aVhttp://dbpedia.org/class/yago/Organism100004475
p19
aVhttp://dbpedia.org/class/yago/Performer110415638
p20
aVhttp://dbpedia.org/class/yago/Person100007846
p21
aVhttp://dbpedia.org/class/yago/Presenter110466387
p22
aVhttp://dbpedia.org/class/yago/Singer110599806
p23
aVhttp://dbpedia.org/class/yago/Whole100003553
p24
aVhttp://dbpedia.org/class/yago/Writer110794014
p25
aVhttp://dbpedia.org/class/yago/YagoLegalActorGeo
p26
aVhttp://www.w3.org/2002/07/owl#Thing
p27
aVhttp://xmlns.com/foaf/0.1/Person
p28
aVhttp://dbpedia.org/ontology/Person
p29
aVhttp://www.ontologydesignpatterns.org/ont/dul/DUL.owl#Agent
p30
aVhttp://www.ontologydesignpatterns.org/ont/dul/DUL.owl#NaturalPerson
p31
aVhttp://www.wikidata.org/entity/Q13590141
p32
aVhttp://www.wikidata.org/entity/Q215627
p33
aVhttp://www.wikidata.org/entity/Q5
p34
aVhttp://dbpedia.org/ontology/Agent
p35
aVhttp://dbpedia.org/ontology/Presenter
p36
aVhttp://schema.org/Person
p37
aVhttp://dbpedia.org/class/yago/MusiciansFromPennsylvania
p38
aVhttp://dbpedia.org/class/yago/YagoLegalActor
p39
aVhttp://dbpedia.org/class/yago/LivingPeople
p40
aVhttp://dbpedia.org/class/yago/PhysicalEntity100001930
p41
aVhttp://dbpedia.org/resource/Michael_Tearson
tp42
aa(lp43
((lp44
Vhttp://www.w3.org/2002/07/owl#Thing
p45
aVhttp://xmlns.com/foaf/0.1/Person
p46
aVhttp://dbpedia.org/ontology/Person
p47
aVhttp://www.ontologydesignpatterns.org/ont/dul/DUL.owl#Agent
p48
aVhttp://www.ontologydesignpatterns.org/ont/dul/DUL.owl#NaturalPerson
p49
aVhttp://www.wikidata.org/entity/Q13590141
p50
aVhttp://www.wikidata.org/entity/Q215627
p51
aVhttp://www.wikidata.org/entity/Q5
p52
aVhttp://www.wikidata.org/entity/Q947873
p53
aVhttp://dbpedia.org/ontology/Agent
p54
aVhttp://dbpedia.org/ontology/Presenter
p55
aVhttp://dbpedia.org/ontology/TelevisionHost
p56
aVhttp://schema.org/Person
p57
aVhttp://dbpedia.org/resource/Andy_Dean
tp58
aa(lp59
((lp60
Vhttp://dbpedia.org/class/yago/Alumnus109786338
p61
aVhttp://dbpedia.org/class/yago/CausalAgent100007347
p62
aVhttp://dbpedia.org/class/yago/Communicator109610660
p63
aVhttp://dbpedia.org/class/yago/Intellectual109621545
p64
aVhttp://dbpedia.org/class/yago/LivingThing100004258
p65
aVhttp://dbpedia.org/class/yago/Object100002684
p66
aVhttp://dbpedia.org/class/yago/Organism100004475
p67
aVhttp://dbpedia.org/class/yago/Person100007846
p68
aVhttp://dbpedia.org/class/yago/Presenter110466387
p69
aVhttp://dbpedia.org/class/yago/Scholar110557854
p70
aVhttp://dbpedia.org/class/yago/Whole100003553
p71
aVhttp://dbpedia.org/class/yago/YagoLegalActorGeo
p72
aVhttp://www.w3.org/2002/07/owl#Thing
p73
aVhttp://xmlns.com/foaf/0.1/Person
p74
aVhttp://dbpedia.org/ontology/Person
p75
aVhttp://www.ontologydesignpatterns.org/ont/dul/DUL.owl#Agent
p76
aVhttp://www.ontologydesignpatterns.org/ont/dul/DUL.owl#NaturalPerson
p77
aVhttp://www.wikidata.org/entity/Q13590141
p78
aVhttp://www.wikidata.org/entity/Q215627
p79
aVhttp://www.wikidata.org/entity/Q5
p80
aVhttp://dbpedia.org/ontology/Agent
p81
aVhttp://dbpedia.org/ontology/Presenter
p82
aVhttp://schema.org/Person
p83
aVhttp://dbpedia.org/class/yago/ClaremontGraduateUniversityAlumni
p84
aVhttp://dbpedia.org/class/yago/ClarkAtlantaUniversityAlumni
p85
aVhttp://dbpedia.org/class/yago/PeopleFromHouston,Texas
p86
aVhttp://dbpedia.org/class/yago/YagoLegalActor
p87
aVhttp://dbpedia.org/class/yago/LivingPeople
p88
aVhttp://dbpedia.org/class/yago/PhysicalEntity100001930
p89
aVhttp://dbpedia.org/resource/Bomani_Jones
tp90
aa(lp91
((lp92
Vhttp://dbpedia.org/class/yago/Adult109605289
p93
aVhttp://dbpedia.org/class/yago/CausalAgent100007347
p94
aVhttp://dbpedia.org/class/yago/Communicator109610660
p95
aVhttp://dbpedia.org/class/yago/CosmeticSurgeon109967270
p96
aVhttp://dbpedia.org/class/yago/Doctor110020890
p97
aVhttp://dbpedia.org/class/yago/HealthProfessional110165109
p98
aVhttp://dbpedia.org/class/yago/LivingThing100004258
p99
aVhttp://dbpedia.org/class/yago/Object100002684
p100
aVhttp://dbpedia.org/class/yago/Organism100004475
p101
aVhttp://dbpedia.org/class/yago/Person100007846
p102
aVhttp://dbpedia.org/class/yago/Presenter110466387
p103
aVhttp://dbpedia.org/class/yago/Professional110480253
p104
aVhttp://dbpedia.org/class/yago/Surgeon110679174
p105
aVhttp://dbpedia.org/class/yago/Whole100003553
p106
aVhttp://dbpedia.org/class/yago/YagoLegalActorGeo
p107
aVhttp://www.w3.org/2002/07/owl#Thing
p108
aVhttp://xmlns.com/foaf/0.1/Person
p109
aVhttp://dbpedia.org/ontology/Person
p110
aVhttp://www.ontologydesignpatterns.org/ont/dul/DUL.owl#Agent
p111
aVhttp://www.ontologydesignpatterns.org/ont/dul/DUL.owl#NaturalPerson
p112
aVhttp://www.wikidata.org/entity/Q13590141
p113
aVhttp://www.wikidata.org/entity/Q215627
p114
aVhttp://www.wikidata.org/entity/Q5
p115
aVhttp://dbpedia.org/ontology/Agent
p116
aVhttp://dbpedia.org/ontology/Presenter
p117
aVhttp://schema.org/Person
p118
aVhttp://dbpedia.org/class/yago/PlasticSurgeons
p119
aVhttp://dbpedia.org/class/yago/YagoLegalActor
p120
aVhttp://dbpedia.org/class/yago/MedicalPractitioner110305802
p121
aVhttp://dbpedia.org/class/yago/PhysicalEntity100001930
p122
aVhttp://dbpedia.org/resource/Brent_Moelleken
tp123
aa(lp124
((lp125
Vhttp://dbpedia.org/class/yago/AmericanSportsAnnouncers
p126
aVhttp://dbpedia.org/class/yago/Announcer109795124
p127
aVhttp://dbpedia.org/class/yago/Broadcaster109875786
p128
aVhttp://dbpedia.org/class/yago/CausalAgent100007347
p129
aVhttp://dbpedia.org/class/yago/Communicator109610660
p130
aVhttp://dbpedia.org/class/yago/LivingThing100004258
p131
aVhttp://dbpedia.org/class/yago/Object100002684
p132
aVhttp://dbpedia.org/class/yago/Organism100004475
p133
aVhttp://dbpedia.org/class/yago/Person100007846
p134
aVhttp://dbpedia.org/class/yago/Presenter110466387
p135
aVhttp://dbpedia.org/class/yago/SportsAnnouncer110639637
p136
aVhttp://dbpedia.org/class/yago/Whole100003553
p137
aVhttp://dbpedia.org/class/yago/YagoLegalActorGeo
p138
aVhttp://www.w3.org/2002/07/owl#Thing
p139
aVhttp://xmlns.com/foaf/0.1/Person
p140
aVhttp://dbpedia.org/ontology/Person
p141
aVhttp://www.ontologydesignpatterns.org/ont/dul/DUL.owl#Agent
p142
aVhttp://www.ontologydesignpatterns.org/ont/dul/DUL.owl#NaturalPerson
p143
aVhttp://www.wikidata.org/entity/Q13590141
p144
aVhttp://www.wikidata.org/entity/Q215627
p145
aVhttp://www.wikidata.org/entity/Q5
p146
aVhttp://www.wikidata.org/entity/Q947873
p147
aVhttp://dbpedia.org/ontology/Agent
p148
aVhttp://dbpedia.org/ontology/Presenter
p149
aVhttp://dbpedia.org/ontology/TelevisionHost
p150
aVhttp://schema.org/Person
p151
aVhttp://dbpedia.org/class/yago/PeopleFromIowa
p152
aVhttp://dbpedia.org/class/yago/YagoLegalActor
p153
aVhttp://dbpedia.org/class/yago/LivingPeople
p154
aVhttp://dbpedia.org/class/yago/PhysicalEntity100001930
p155
aVhttp://dbpedia.org/resource/Gary_Dolphin
tp156
aa(lp157
((lp158
Vhttp://dbpedia.org/class/yago/Alumnus109786338
p159
aVhttp://dbpedia.org/class/yago/CausalAgent100007347
p160
aVhttp://dbpedia.org/class/yago/Intellectual109621545
p161
aVhttp://dbpedia.org/class/yago/LivingThing100004258
p162
aVhttp://dbpedia.org/class/yago/Object100002684
p163
aVhttp://dbpedia.org/class/yago/Organism100004475
p164
aVhttp://dbpedia.org/class/yago/Person100007846
p165
aVhttp://dbpedia.org/class/yago/Scholar110557854
p166
aVhttp://dbpedia.org/class/yago/Whole100003553
p167
aVhttp://dbpedia.org/class/yago/YagoLegalActorGeo
p168
aVhttp://www.w3.org/2002/07/owl#Thing
p169
aVhttp://xmlns.com/foaf/0.1/Person
p170
aVhttp://dbpedia.org/ontology/Person
p171
aVhttp://www.ontologydesignpatterns.org/ont/dul/DUL.owl#Agent
p172
aVhttp://www.ontologydesignpatterns.org/ont/dul/DUL.owl#NaturalPerson
p173
aVhttp://www.wikidata.org/entity/Q13590141
p174
aVhttp://www.wikidata.org/entity/Q215627
p175
aVhttp://www.wikidata.org/entity/Q2722764
p176
aVhttp://www.wikidata.org/entity/Q5
p177
aVhttp://dbpedia.org/ontology/Agent
p178
aVhttp://dbpedia.org/ontology/Presenter
p179
aVhttp://dbpedia.org/ontology/RadioHost
p180
aVhttp://schema.org/Person
p181
aVhttp://dbpedia.org/class/yago/OregonStateUniversityAlumni
p182
aVhttp://dbpedia.org/class/yago/PeopleFromPolkCounty,Oregon
p183
aVhttp://dbpedia.org/class/yago/YagoLegalActor
p184
aVhttp://dbpedia.org/class/yago/LivingPeople
p185
aVhttp://dbpedia.org/class/yago/PhysicalEntity100001930
p186
aVhttp://dbpedia.org/resource/Greg_Nibler
tp187
aa(lp188
((lp189
Vhttp://dbpedia.org/class/yago/CausalAgent100007347
p190
aVhttp://dbpedia.org/class/yago/Communicator109610660
p191
aVhttp://dbpedia.org/class/yago/LivingThing100004258
p192
aVhttp://dbpedia.org/class/yago/Object100002684
p193
aVhttp://dbpedia.org/class/yago/Organism100004475
p194
aVhttp://dbpedia.org/class/yago/Person100007846
p195
aVhttp://dbpedia.org/class/yago/Presenter110466387
p196
aVhttp://dbpedia.org/class/yago/Whole100003553
p197
aVhttp://dbpedia.org/class/yago/YagoLegalActorGeo
p198
aVhttp://www.w3.org/2002/07/owl#Thing
p199
aVhttp://xmlns.com/foaf/0.1/Person
p200
aVhttp://dbpedia.org/ontology/Person
p201
aVhttp://www.ontologydesignpatterns.org/ont/dul/DUL.owl#Agent
p202
aVhttp://www.ontologydesignpatterns.org/ont/dul/DUL.owl#NaturalPerson
p203
aVhttp://www.wikidata.org/entity/Q13590141
p204
aVhttp://www.wikidata.org/entity/Q215627
p205
aVhttp://www.wikidata.org/entity/Q2722764
p206
aVhttp://www.wikidata.org/entity/Q5
p207
aVhttp://dbpedia.org/ontology/Agent
p208
aVhttp://dbpedia.org/ontology/Presenter
p209
aVhttp://dbpedia.org/ontology/RadioHost
p210
aVhttp://schema.org/Person
p211
aVhttp://dbpedia.org/class/yago/YagoLegalActor
p212
aVhttp://dbpedia.org/class/yago/LivingPeople
p213
aVhttp://dbpedia.org/class/yago/PhysicalEntity100001930
p214
aVhttp://dbpedia.org/resource/Jim_Johnson_(radio)
tp215
aa(lp216
((lp217
Vhttp://dbpedia.org/class/yago/Actor109765278
p218
aVhttp://dbpedia.org/class/yago/CausalAgent100007347
p219
aVhttp://dbpedia.org/class/yago/Communicator109610660
p220
aVhttp://dbpedia.org/class/yago/Entertainer109616922
p221
aVhttp://dbpedia.org/class/yago/Journalist110224578
p222
aVhttp://dbpedia.org/class/yago/LivingThing100004258
p223
aVhttp://dbpedia.org/class/yago/Object100002684
p224
aVhttp://dbpedia.org/class/yago/Organism100004475
p225
aVhttp://dbpedia.org/class/yago/Performer110415638
p226
aVhttp://dbpedia.org/class/yago/Person100007846
p227
aVhttp://dbpedia.org/class/yago/Presenter110466387
p228
aVhttp://dbpedia.org/class/yago/Reporter110521662
p229
aVhttp://dbpedia.org/class/yago/Whole100003553
p230
aVhttp://dbpedia.org/class/yago/Writer110794014
p231
aVhttp://dbpedia.org/class/yago/YagoLegalActorGeo
p232
aVhttp://www.w3.org/2002/07/owl#Thing
p233
aVhttp://xmlns.com/foaf/0.1/Person
p234
aVhttp://dbpedia.org/ontology/Person
p235
aVhttp://www.ontologydesignpatterns.org/ont/dul/DUL.owl#Agent
p236
aVhttp://www.ontologydesignpatterns.org/ont/dul/DUL.owl#NaturalPerson
p237
aVhttp://www.wikidata.org/entity/Q13590141
p238
aVhttp://www.wikidata.org/entity/Q215627
p239
aVhttp://www.wikidata.org/entity/Q2722764
p240
aVhttp://www.wikidata.org/entity/Q5
p241
aVhttp://dbpedia.org/ontology/Agent
p242
aVhttp://dbpedia.org/ontology/Presenter
p243
aVhttp://dbpedia.org/ontology/RadioHost
p244
aVhttp://schema.org/Person
p245
aVhttp://dbpedia.org/class/yago/YagoLegalActor
p246
aVhttp://dbpedia.org/class/yago/GermanActors
p247
aVhttp://dbpedia.org/class/yago/GermanJournalists
p248
aVhttp://dbpedia.org/class/yago/GermanReportersAndCorrespondents
p249
aVhttp://dbpedia.org/class/yago/GermanTelevisionActors
p250
aVhttp://dbpedia.org/class/yago/GermanVoiceActors
p251
aVhttp://dbpedia.org/class/yago/LivingPeople
p252
aVhttp://dbpedia.org/class/yago/PhysicalEntity100001930
p253
aVhttp://dbpedia.org/resource/Judith_Rakers
tp254
aa(lp255
((lp256
Vhttp://dbpedia.org/class/yago/Actor109765278
p257
aVhttp://dbpedia.org/class/yago/ActorsFromMissouri
p258
aVhttp://dbpedia.org/class/yago/AmericanComedians
p259
aVhttp://dbpedia.org/class/yago/AmericanRadioActors
p260
aVhttp://dbpedia.org/class/yago/CausalAgent100007347
p261
aVhttp://dbpedia.org/class/yago/Comedian109940146
p262
aVhttp://dbpedia.org/class/yago/Communicator109610660
p263
aVhttp://dbpedia.org/class/yago/Entertainer109616922
p264
aVhttp://dbpedia.org/class/yago/LivingThing100004258
p265
aVhttp://dbpedia.org/class/yago/Object100002684
p266
aVhttp://dbpedia.org/class/yago/Organism100004475
p267
aVhttp://dbpedia.org/class/yago/Performer110415638
p268
aVhttp://dbpedia.org/class/yago/Person100007846
p269
aVhttp://dbpedia.org/class/yago/Presenter110466387
p270
aVhttp://dbpedia.org/class/yago/Whole100003553
p271
aVhttp://dbpedia.org/class/yago/YagoLegalActorGeo
p272
aVhttp://www.w3.org/2002/07/owl#Thing
p273
aVhttp://xmlns.com/foaf/0.1/Person
p274
aVhttp://dbpedia.org/ontology/Person
p275
aVhttp://www.ontologydesignpatterns.org/ont/dul/DUL.owl#Agent
p276
aVhttp://www.ontologydesignpatterns.org/ont/dul/DUL.owl#NaturalPerson
p277
aVhttp://www.wikidata.org/entity/Q13590141
p278
aVhttp://www.wikidata.org/entity/Q215627
p279
aVhttp://www.wikidata.org/entity/Q2722764
p280
aVhttp://www.wikidata.org/entity/Q5
p281
aVhttp://dbpedia.org/ontology/Agent
p282
aVhttp://dbpedia.org/ontology/Presenter
p283
aVhttp://dbpedia.org/ontology/RadioHost
p284
aVhttp://schema.org/Person
p285
aVhttp://dbpedia.org/class/yago/PeopleFromKansasCity,Missouri
p286
aVhttp://dbpedia.org/class/yago/YagoLegalActor
p287
aVhttp://dbpedia.org/class/yago/PhysicalEntity100001930
p288
aVhttp://dbpedia.org/class/yago/WomenComedians
p289
aVhttp://dbpedia.org/resource/Jane_Ace
tp290
aa(lp291
((lp292
Vhttp://dbpedia.org/class/yago/Alumnus109786338
p293
aVhttp://dbpedia.org/class/yago/AmericanSportsAnnouncers
p294
aVhttp://dbpedia.org/class/yago/Announcer109795124
p295
aVhttp://dbpedia.org/class/yago/Announcer109795334
p296
aVhttp://dbpedia.org/class/yago/BasketballAnnouncers
p297
aVhttp://dbpedia.org/class/yago/Broadcaster109875786
p298
aVhttp://dbpedia.org/class/yago/CausalAgent100007347
p299
aVhttp://dbpedia.org/class/yago/Communicator109610660
p300
aVhttp://dbpedia.org/class/yago/Intellectual109621545
p301
aVhttp://dbpedia.org/class/yago/LivingThing100004258
p302
aVhttp://dbpedia.org/class/yago/Object100002684
p303
aVhttp://dbpedia.org/class/yago/Organism100004475
p304
aVhttp://dbpedia.org/class/yago/Person100007846
p305
aVhttp://dbpedia.org/class/yago/Presenter110466387
p306
aVhttp://dbpedia.org/class/yago/Scholar110557854
p307
aVhttp://dbpedia.org/class/yago/SportsAnnouncer110639637
p308
aVhttp://dbpedia.org/class/yago/Whole100003553
p309
aVhttp://dbpedia.org/class/yago/YagoLegalActorGeo
p310
aVhttp://www.w3.org/2002/07/owl#Thing
p311
aVhttp://xmlns.com/foaf/0.1/Person
p312
aVhttp://dbpedia.org/ontology/Person
p313
aVhttp://www.ontologydesignpatterns.org/ont/dul/DUL.owl#Agent
p314
aVhttp://www.ontologydesignpatterns.org/ont/dul/DUL.owl#NaturalPerson
p315
aVhttp://www.wikidata.org/entity/Q13590141
p316
aVhttp://www.wikidata.org/entity/Q215627
p317
aVhttp://www.wikidata.org/entity/Q5
p318
aVhttp://dbpedia.org/ontology/Agent
p319
aVhttp://dbpedia.org/ontology/Presenter
p320
aVhttp://schema.org/Person
p321
aVhttp://dbpedia.org/class/yago/PeopleFromPortland,Oregon
p322
aVhttp://dbpedia.org/class/yago/YagoLegalActor
p323
aVhttp://dbpedia.org/class/yago/LivingPeople
p324
aVhttp://dbpedia.org/class/yago/LoyolaUniversityChicagoAlumni
p325
aVhttp://dbpedia.org/class/yago/PhysicalEntity100001930
p326
aVhttp://dbpedia.org/resource/Brian_Wheeler
tp327
aa(lp328
((lp329
Vhttp://dbpedia.org/class/yago/CausalAgent100007347
p330
aVhttp://dbpedia.org/class/yago/Communicator109610660
p331
aVhttp://dbpedia.org/class/yago/LivingThing100004258
p332
aVhttp://dbpedia.org/class/yago/Object100002684
p333
aVhttp://dbpedia.org/class/yago/Organism100004475
p334
aVhttp://dbpedia.org/class/yago/Person100007846
p335
aVhttp://dbpedia.org/class/yago/Presenter110466387
p336
aVhttp://dbpedia.org/class/yago/Whole100003553
p337
aVhttp://dbpedia.org/class/yago/YagoLegalActorGeo
p338
aVhttp://www.w3.org/2002/07/owl#Thing
p339
aVhttp://xmlns.com/foaf/0.1/Person
p340
aVhttp://dbpedia.org/ontology/Person
p341
aVhttp://www.ontologydesignpatterns.org/ont/dul/DUL.owl#Agent
p342
aVhttp://www.ontologydesignpatterns.org/ont/dul/DUL.owl#NaturalPerson
p343
aVhttp://www.wikidata.org/entity/Q13590141
p344
aVhttp://www.wikidata.org/entity/Q215627
p345
aVhttp://www.wikidata.org/entity/Q2722764
p346
aVhttp://www.wikidata.org/entity/Q5
p347
aVhttp://dbpedia.org/ontology/Agent
p348
aVhttp://dbpedia.org/ontology/Presenter
p349
aVhttp://dbpedia.org/ontology/RadioHost
p350
aVhttp://schema.org/Person
p351
aVhttp://dbpedia.org/class/yago/PeopleFromAlbuquerque,NewMexico
p352
aVhttp://dbpedia.org/class/yago/YagoLegalActor
p353
aVhttp://dbpedia.org/class/yago/LivingPeople
p354
aVhttp://dbpedia.org/class/yago/PhysicalEntity100001930
p355
aVhttp://dbpedia.org/class/yago/WeatherPresenters
p356
aVhttp://dbpedia.org/resource/George_Fischbeck
tp357
aa(lp358
((lp359
Vhttp://dbpedia.org/class/yago/CausalAgent100007347
p360
aVhttp://dbpedia.org/class/yago/Comedian109940146
p361
aVhttp://dbpedia.org/class/yago/Communicator109610660
p362
aVhttp://dbpedia.org/class/yago/Entertainer109616922
p363
aVhttp://dbpedia.org/class/yago/Humorist110191943
p364
aVhttp://dbpedia.org/class/yago/LivingThing100004258
p365
aVhttp://dbpedia.org/class/yago/Object100002684
p366
aVhttp://dbpedia.org/class/yago/Organism100004475
p367
aVhttp://dbpedia.org/class/yago/Performer110415638
p368
aVhttp://dbpedia.org/class/yago/Person100007846
p369
aVhttp://dbpedia.org/class/yago/Presenter110466387
p370
aVhttp://dbpedia.org/class/yago/Satirist110552742
p371
aVhttp://dbpedia.org/class/yago/Whole100003553
p372
aVhttp://dbpedia.org/class/yago/YagoLegalActorGeo
p373
aVhttp://www.w3.org/2002/07/owl#Thing
p374
aVhttp://xmlns.com/foaf/0.1/Person
p375
aVhttp://dbpedia.org/ontology/Person
p376
aVhttp://www.ontologydesignpatterns.org/ont/dul/DUL.owl#Agent
p377
aVhttp://www.ontologydesignpatterns.org/ont/dul/DUL.owl#NaturalPerson
p378
aVhttp://www.wikidata.org/entity/Q13590141
p379
aVhttp://www.wikidata.org/entity/Q215627
p380
aVhttp://www.wikidata.org/entity/Q2722764
p381
aVhttp://www.wikidata.org/entity/Q5
p382
aVhttp://dbpedia.org/ontology/Agent
p383
aVhttp://dbpedia.org/ontology/Presenter
p384
aVhttp://dbpedia.org/ontology/RadioHost
p385
aVhttp://schema.org/Person
p386
aVhttp://dbpedia.org/class/yago/NewZealandComedians
p387
aVhttp://dbpedia.org/class/yago/NewZealandRadioPresenters
p388
aVhttp://dbpedia.org/class/yago/NewZealandSatirists
p389
aVhttp://dbpedia.org/class/yago/PeopleEducatedAtWanganuiCollegiateSchool
p390
aVhttp://dbpedia.org/class/yago/YagoLegalActor
p391
aVhttp://dbpedia.org/class/yago/LivingPeople
p392
aVhttp://dbpedia.org/class/yago/PhysicalEntity100001930
p393
aVhttp://dbpedia.org/resource/Jeremy_Wells
tp394
aa(lp395
((lp396
Vhttp://dbpedia.org/class/yago/Announcer109795124
p397
aVhttp://dbpedia.org/class/yago/BBCNewsreadersAndJournalists
p398
aVhttp://dbpedia.org/class/yago/BritishJournalists
p399
aVhttp://dbpedia.org/class/yago/Broadcaster109875786
p400
aVhttp://dbpedia.org/class/yago/CausalAgent100007347
p401
aVhttp://dbpedia.org/class/yago/Communicator109610660
p402
aVhttp://dbpedia.org/class/yago/Journalist110224578
p403
aVhttp://dbpedia.org/class/yago/LivingThing100004258
p404
aVhttp://dbpedia.org/class/yago/Newsreader110356877
p405
aVhttp://dbpedia.org/class/yago/Object100002684
p406
aVhttp://dbpedia.org/class/yago/Organism100004475
p407
aVhttp://dbpedia.org/class/yago/Person100007846
p408
aVhttp://dbpedia.org/class/yago/Whole100003553
p409
aVhttp://dbpedia.org/class/yago/Writer110794014
p410
aVhttp://dbpedia.org/class/yago/YagoLegalActorGeo
p411
aVhttp://dbpedia.org/class/yago/STVNewsreadersAndJournalists
p412
aVhttp://www.w3.org/2002/07/owl#Thing
p413
aVhttp://xmlns.com/foaf/0.1/Person
p414
aVhttp://dbpedia.org/ontology/Person
p415
aVhttp://www.ontologydesignpatterns.org/ont/dul/DUL.owl#Agent
p416
aVhttp://www.ontologydesignpatterns.org/ont/dul/DUL.owl#NaturalPerson
p417
aVhttp://www.wikidata.org/entity/Q13590141
p418
aVhttp://www.wikidata.org/entity/Q215627
p419
aVhttp://www.wikidata.org/entity/Q5
p420
aVhttp://dbpedia.org/ontology/Agent
p421
aVhttp://dbpedia.org/ontology/Presenter
p422
aVhttp://schema.org/Person
p423
aVhttp://dbpedia.org/class/yago/Newscaster110356344
p424
aVhttp://dbpedia.org/class/yago/YagoLegalActor
p425
aVhttp://dbpedia.org/class/yago/LivingPeople
p426
aVhttp://dbpedia.org/class/yago/PhysicalEntity100001930
p427
aVhttp://dbpedia.org/resource/Juliet_Dunlop
tp428
aa(lp429
((lp430
Vhttp://dbpedia.org/class/yago/CausalAgent100007347
p431
aVhttp://dbpedia.org/class/yago/Communicator109610660
p432
aVhttp://dbpedia.org/class/yago/LivingThing100004258
p433
aVhttp://dbpedia.org/class/yago/Object100002684
p434
aVhttp://dbpedia.org/class/yago/Organism100004475
p435
aVhttp://dbpedia.org/class/yago/Person100007846
p436
aVhttp://dbpedia.org/class/yago/Presenter110466387
p437
aVhttp://dbpedia.org/class/yago/Whole100003553
p438
aVhttp://dbpedia.org/class/yago/YagoLegalActorGeo
p439
aVhttp://www.w3.org/2002/07/owl#Thing
p440
aVhttp://xmlns.com/foaf/0.1/Person
p441
aVhttp://dbpedia.org/ontology/Person
p442
aVhttp://www.ontologydesignpatterns.org/ont/dul/DUL.owl#Agent
p443
aVhttp://www.ontologydesignpatterns.org/ont/dul/DUL.owl#NaturalPerson
p444
aVhttp://www.wikidata.org/entity/Q13590141
p445
aVhttp://www.wikidata.org/entity/Q215627
p446
aVhttp://www.wikidata.org/entity/Q5
p447
aVhttp://dbpedia.org/ontology/Agent
p448
aVhttp://dbpedia.org/ontology/Presenter
p449
aVhttp://schema.org/Person
p450
aVhttp://dbpedia.org/class/yago/YagoLegalActor
p451
aVhttp://dbpedia.org/class/yago/LivingPeople
p452
aVhttp://dbpedia.org/class/yago/PhysicalEntity100001930
p453
aVhttp://dbpedia.org/resource/Kenny_Hassan
tp454
aa(lp455
((lp456
Vhttp://dbpedia.org/class/yago/CausalAgent100007347
p457
aVhttp://dbpedia.org/class/yago/LivingThing100004258
p458
aVhttp://dbpedia.org/class/yago/Object100002684
p459
aVhttp://dbpedia.org/class/yago/Organism100004475
p460
aVhttp://dbpedia.org/class/yago/Person100007846
p461
aVhttp://dbpedia.org/class/yago/Whole100003553
p462
aVhttp://dbpedia.org/class/yago/YagoLegalActorGeo
p463
aVhttp://www.w3.org/2002/07/owl#Thing
p464
aVhttp://xmlns.com/foaf/0.1/Person
p465
aVhttp://dbpedia.org/ontology/Person
p466
aVhttp://www.ontologydesignpatterns.org/ont/dul/DUL.owl#Agent
p467
aVhttp://www.ontologydesignpatterns.org/ont/dul/DUL.owl#NaturalPerson
p468
aVhttp://www.wikidata.org/entity/Q13590141
p469
aVhttp://www.wikidata.org/entity/Q215627
p470
aVhttp://www.wikidata.org/entity/Q2722764
p471
aVhttp://www.wikidata.org/entity/Q5
p472
aVhttp://dbpedia.org/ontology/Agent
p473
aVhttp://dbpedia.org/ontology/Presenter
p474
aVhttp://dbpedia.org/ontology/RadioHost
p475
aVhttp://schema.org/Person
p476
aVhttp://dbpedia.org/class/yago/YagoLegalActor
p477
aVhttp://dbpedia.org/class/yago/LivingPeople
p478
aVhttp://dbpedia.org/class/yago/PhysicalEntity100001930
p479
aVhttp://dbpedia.org/resource/Tony_Delroy
tp480
aa(lp481
((lp482
Vhttp://dbpedia.org/class/yago/BBCRadio2Presenters
p483
aVhttp://dbpedia.org/class/yago/BlackBritishRadioPresenters
p484
aVhttp://dbpedia.org/class/yago/BritishRadioDJs
p485
aVhttp://dbpedia.org/class/yago/Broadcaster109875786
p486
aVhttp://dbpedia.org/class/yago/CausalAgent100007347
p487
aVhttp://dbpedia.org/class/yago/Communicator109610660
p488
aVhttp://dbpedia.org/class/yago/DiskJockey110017272
p489
aVhttp://dbpedia.org/class/yago/LivingThing100004258
p490
aVhttp://dbpedia.org/class/yago/Object100002684
p491
aVhttp://dbpedia.org/class/yago/Organism100004475
p492
aVhttp://dbpedia.org/class/yago/Person100007846
p493
aVhttp://dbpedia.org/class/yago/Presenter110466387
p494
aVhttp://dbpedia.org/class/yago/Whole100003553
p495
aVhttp://dbpedia.org/class/yago/YagoLegalActorGeo
p496
aVhttp://www.w3.org/2002/07/owl#Thing
p497
aVhttp://xmlns.com/foaf/0.1/Person
p498
aVhttp://dbpedia.org/ontology/Person
p499
aVhttp://www.ontologydesignpatterns.org/ont/dul/DUL.owl#Agent
p500
aVhttp://www.ontologydesignpatterns.org/ont/dul/DUL.owl#NaturalPerson
p501
aVhttp://www.wikidata.org/entity/Q13590141
p502
aVhttp://www.wikidata.org/entity/Q215627
p503
aVhttp://www.wikidata.org/entity/Q2722764
p504
aVhttp://www.wikidata.org/entity/Q5
p505
aVhttp://dbpedia.org/ontology/Agent
p506
aVhttp://dbpedia.org/ontology/Presenter
p507
aVhttp://dbpedia.org/ontology/RadioHost
p508
aVhttp://schema.org/Person
p509
aVhttp://dbpedia.org/class/yago/EnglishPeopleOfSaintLucianDescent
p510
aVhttp://dbpedia.org/class/yago/PeopleFromHackney
p511
aVhttp://dbpedia.org/class/yago/YagoLegalActor
p512
aVhttp://dbpedia.org/class/yago/LivingPeople
p513
aVhttp://dbpedia.org/class/yago/PhysicalEntity100001930
p514
aVhttp://dbpedia.org/resource/Trevor_Nelson
tp515
aa(lp516
((lp517
Vhttp://dbpedia.org/class/yago/AlumniOfNottinghamTrentUniversity
p518
aVhttp://dbpedia.org/class/yago/Alumnus109786338
p519
aVhttp://dbpedia.org/class/yago/BritishRadioPresenters
p520
aVhttp://dbpedia.org/class/yago/CausalAgent100007347
p521
aVhttp://dbpedia.org/class/yago/Communicator109610660
p522
aVhttp://dbpedia.org/class/yago/Intellectual109621545
p523
aVhttp://dbpedia.org/class/yago/LivingThing100004258
p524
aVhttp://dbpedia.org/class/yago/Object100002684
p525
aVhttp://dbpedia.org/class/yago/Organism100004475
p526
aVhttp://dbpedia.org/class/yago/Person100007846
p527
aVhttp://dbpedia.org/class/yago/Presenter110466387
p528
aVhttp://dbpedia.org/class/yago/Scholar110557854
p529
aVhttp://dbpedia.org/class/yago/Whole100003553
p530
aVhttp://dbpedia.org/class/yago/YagoLegalActorGeo
p531
aVhttp://www.w3.org/2002/07/owl#Thing
p532
aVhttp://xmlns.com/foaf/0.1/Person
p533
aVhttp://dbpedia.org/ontology/Person
p534
aVhttp://www.ontologydesignpatterns.org/ont/dul/DUL.owl#Agent
p535
aVhttp://www.ontologydesignpatterns.org/ont/dul/DUL.owl#NaturalPerson
p536
aVhttp://www.wikidata.org/entity/Q13590141
p537
aVhttp://www.wikidata.org/entity/Q215627
p538
aVhttp://www.wikidata.org/entity/Q5
p539
aVhttp://dbpedia.org/ontology/Agent
p540
aVhttp://dbpedia.org/ontology/Presenter
p541
aVhttp://schema.org/Person
p542
aVhttp://dbpedia.org/class/yago/PeopleEducatedAtTheKing'sSchool,Chester
p543
aVhttp://dbpedia.org/class/yago/PeopleFromChester
p544
aVhttp://dbpedia.org/class/yago/YagoLegalActor
p545
aVhttp://dbpedia.org/class/yago/LivingPeople
p546
aVhttp://dbpedia.org/class/yago/PhysicalEntity100001930
p547
aVhttp://dbpedia.org/resource/Mike_Parry
tp548
aa(lp549
((lp550
Vhttp://dbpedia.org/class/yago/CausalAgent100007347
p551
aVhttp://dbpedia.org/class/yago/Communicator109610660
p552
aVhttp://dbpedia.org/class/yago/LivingThing100004258
p553
aVhttp://dbpedia.org/class/yago/Object100002684
p554
aVhttp://dbpedia.org/class/yago/Organism100004475
p555
aVhttp://dbpedia.org/class/yago/Person100007846
p556
aVhttp://dbpedia.org/class/yago/Presenter110466387
p557
aVhttp://dbpedia.org/class/yago/Whole100003553
p558
aVhttp://dbpedia.org/class/yago/YagoLegalActorGeo
p559
aVhttp://www.w3.org/2002/07/owl#Thing
p560
aVhttp://xmlns.com/foaf/0.1/Person
p561
aVhttp://dbpedia.org/ontology/Person
p562
aVhttp://www.ontologydesignpatterns.org/ont/dul/DUL.owl#Agent
p563
aVhttp://www.ontologydesignpatterns.org/ont/dul/DUL.owl#NaturalPerson
p564
aVhttp://www.wikidata.org/entity/Q13590141
p565
aVhttp://www.wikidata.org/entity/Q215627
p566
aVhttp://www.wikidata.org/entity/Q2722764
p567
aVhttp://www.wikidata.org/entity/Q5
p568
aVhttp://dbpedia.org/ontology/Agent
p569
aVhttp://dbpedia.org/ontology/Presenter
p570
aVhttp://dbpedia.org/ontology/RadioHost
p571
aVhttp://schema.org/Person
p572
aVhttp://dbpedia.org/class/yago/YagoLegalActor
p573
aVhttp://dbpedia.org/class/yago/LivingPeople
p574
aVhttp://dbpedia.org/class/yago/PhysicalEntity100001930
p575
aVhttp://dbpedia.org/resource/Nadine_Ramkisson
tp576
aa(lp577
((lp578
Vhttp://dbpedia.org/class/yago/CausalAgent100007347
p579
aVhttp://dbpedia.org/class/yago/LivingThing100004258
p580
aVhttp://dbpedia.org/class/yago/Object100002684
p581
aVhttp://dbpedia.org/class/yago/Organism100004475
p582
aVhttp://dbpedia.org/class/yago/Person100007846
p583
aVhttp://dbpedia.org/class/yago/Whole100003553
p584
aVhttp://dbpedia.org/class/yago/YagoLegalActorGeo
p585
aVhttp://www.w3.org/2002/07/owl#Thing
p586
aVhttp://xmlns.com/foaf/0.1/Person
p587
aVhttp://dbpedia.org/ontology/Person
p588
aVhttp://www.ontologydesignpatterns.org/ont/dul/DUL.owl#Agent
p589
aVhttp://www.ontologydesignpatterns.org/ont/dul/DUL.owl#NaturalPerson
p590
aVhttp://www.wikidata.org/entity/Q13590141
p591
aVhttp://www.wikidata.org/entity/Q215627
p592
aVhttp://www.wikidata.org/entity/Q2722764
p593
aVhttp://www.wikidata.org/entity/Q5
p594
aVhttp://dbpedia.org/ontology/Agent
p595
aVhttp://dbpedia.org/ontology/Presenter
p596
aVhttp://dbpedia.org/ontology/RadioHost
p597
aVhttp://schema.org/Person
p598
aVhttp://dbpedia.org/class/yago/YagoLegalActor
p599
aVhttp://dbpedia.org/class/yago/LivingPeople
p600
aVhttp://dbpedia.org/class/yago/PhysicalEntity100001930
p601
aVhttp://dbpedia.org/resource/Bob_Conners
p602
tp603
aaa.