(lp1
(lp2
(lp3
Vhttp://dbpedia.org/resource/Fondmetal
p4
aa(lp5
Vhttp://dbpedia.org/resource/Forti
p6
aa(lp7
Vhttp://dbpedia.org/resource/Leyton_House_Racing
p8
aa(lp9
Vhttp://dbpedia.org/resource/Surtees
p10
aa(lp11
a(lp12
Vhttp://dbpedia.org/resource/Goldie_Hexagon_Racing
p13
aa(lp14
Vhttp://dbpedia.org/resource/Automobiles_Gonfaronnaises_Sportives
p15
aa(lp16
Vhttp://dbpedia.org/resource/Cooper_Car_Company
p17
aa(lp18
Vhttp://dbpedia.org/resource/Larrousse
p19
aa(lp20
Vhttp://dbpedia.org/resource/Spirit_Racing
p21
aa(lp22
Vhttp://dbpedia.org/resource/ATS_(wheels)
p23
aa(lp24
Vhttp://dbpedia.org/resource/Apollon_(Formula_One)
p25
aa(lp26
Vhttp://dbpedia.org/resource/Automobili_Turismo_e_Sport
p27
aa(lp28
a(lp29
Vhttp://dbpedia.org/resource/Rebaque
p30
aa(lp31
Vhttp://dbpedia.org/resource/Pacific_Marine_Ecozone_(CEC)
p32
aa(lp33
Vhttp://dbpedia.org/resource/Stewart_Grand_Prix
p34
aa(lp35
Vhttp://dbpedia.org/resource/Fittipaldi_Automotive
p36
aa(lp37
Vhttp://dbpedia.org/resource/Jaguar_Racing
p38
aaa.