(lp1
(dp2
I0
(dp3
I0
(lp4
sI1
(lp5
sI2
(lp6
sI3
(lp7
sI4
(lp8
sI5
(lp9
ssI1
(dp10
I0
g5
sI1
(lp11
sI2
(lp12
sI3
(lp13
sI4
(lp14
sI5
(lp15
ssI2
(dp16
I0
g6
sI1
g12
sI2
(lp17
sI3
(lp18
sI4
(lp19
sI5
(lp20
ssI3
(dp21
I0
g7
sI1
g13
sI2
g18
sI3
(lp22
sI4
(lp23
sI5
(lp24
ssI4
(dp25
I0
g8
sI1
g14
sI2
g19
sI3
g23
sI4
(lp26
sI5
(lp27
ssI5
(dp28
I0
g9
sI1
g15
sI2
g20
sI3
g24
sI4
g27
sI5
(lp29
ssa(dp30
I0
(dp31
I0
(lp32
sI1
(lp33
sI2
(lp34
sI3
(lp35
sI4
(lp36
sI5
(lp37
ssI1
(dp38
I1
(lp39
sI2
(lp40
sI3
(lp41
sI4
(lp42
sI5
(lp43
ssI2
(dp44
I0
g34
sI1
g40
sI2
(lp45
sI3
(lp46
sI4
(lp47
sI5
(lp48
ssI3
(dp49
I0
g35
sI1
g41
sI2
g46
sI3
(lp50
sI4
(lp51
sI5
(lp52
ssI4
(dp53
I0
g36
sI1
g42
sI2
g47
sI3
g51
sI4
(lp54
sI5
(lp55
ssI5
(dp56
I2
g48
sI3
g52
sI4
g55
sI5
(lp57
ssa(dp58
I0
(dp59
I0
(lp60
sI1
(lp61
sI2
(lp62
sI3
(lp63
sI4
(lp64
sI5
(lp65
ssI1
(dp66
I0
g61
sI1
(lp67
sI2
(lp68
sI3
(lp69
sI4
(lp70
sI5
(lp71
ssI2
(dp72
I0
g62
sI1
g68
sI2
(lp73
sI3
(lp74
sI4
(lp75
sI5
(lp76
ssI3
(dp77
I0
g63
sI1
g69
sI2
g74
sI3
(lp78
sI4
(lp79
sI5
(lp80
ssI4
(dp81
I0
g64
sI1
g70
sI2
g75
sI3
g79
sI4
(lp82
sI5
(lp83
ssI5
(dp84
I0
g65
sI1
g71
sI2
g76
sI3
g80
sI4
g83
sI5
(lp85
ssa(dp86
I0
(dp87
I0
(lp88
sI1
(lp89
sI2
(lp90
sI3
(lp91
sI4
(lp92
sI5
(lp93
ssI1
(dp94
I0
g89
sI1
(lp95
sI2
(lp96
sI3
(lp97
sI4
(lp98
sI5
(lp99
ssI2
(dp100
I0
g90
sI1
g96
sI2
(lp101
sI3
(lp102
sI4
(lp103
sI5
(lp104
ssI3
(dp105
I0
g91
sI1
g97
sI2
g102
sI3
(lp106
sI4
(lp107
sI5
(lp108
ssI4
(dp109
I0
g92
sI1
g98
sI2
g103
sI3
g107
sI4
(lp110
sI5
(lp111
ssI5
(dp112
I0
g93
sI2
g104
sI3
g108
sI4
g111
sI5
(lp113
ssa(dp114
I0
(dp115
I0
(lp116
sI1
(lp117
sI2
(lp118
sI3
(lp119
sI4
(lp120
sI5
(lp121
ssI1
(dp122
I1
(lp123
sI2
(lp124
sI3
(lp125
sI4
(lp126
sI5
(lp127
ssI2
(dp128
I0
g118
sI1
g124
sI2
(lp129
sI3
(lp130
sI4
(lp131
sI5
(lp132
ssI3
(dp133
I0
g119
sI1
g125
sI2
g130
sI3
(lp134
sI4
(lp135
sI5
(lp136
ssI4
(dp137
I0
g120
sI1
g126
sI2
g131
sI3
g135
sI4
(lp138
sI5
(lp139
ssI5
(dp140
I2
g132
sI3
g136
sI4
g139
sI5
(lp141
ssa(dp142
I0
(dp143
I0
(lp144
sI1
(lp145
sI2
(lp146
sI3
(lp147
sI4
(lp148
sI5
(lp149
ssI1
(dp150
I1
(lp151
sI2
(lp152
sI3
(lp153
sI4
(lp154
sI5
(lp155
ssI2
(dp156
I0
g146
sI1
g152
sI2
(lp157
sI3
(lp158
sI4
(lp159
sI5
(lp160
ssI3
(dp161
I0
g147
sI1
g153
sI2
g158
sI3
(lp162
sI4
(lp163
sI5
(lp164
ssI4
(dp165
I0
g148
sI1
g154
sI2
g159
sI3
g163
sI4
(lp166
sI5
(lp167
ssI5
(dp168
I2
g160
sI3
g164
sI4
g167
sI5
(lp169
ssa(dp170
I0
(dp171
I0
(lp172
sI1
(lp173
sI2
(lp174
sI3
(lp175
sI4
(lp176
sI5
(lp177
ssI1
(dp178
I1
(lp179
sI2
(lp180
sI3
(lp181
sI4
(lp182
sI5
(lp183
ssI2
(dp184
I0
g174
sI1
g180
sI2
(lp185
sI3
(lp186
sI4
(lp187
sI5
(lp188
ssI3
(dp189
I0
g175
sI1
g181
sI2
g186
sI3
(lp190
sI4
(lp191
sI5
(lp192
ssI4
(dp193
I0
g176
sI1
g182
sI2
g187
sI3
g191
sI4
(lp194
sI5
(lp195
ssI5
(dp196
I2
g188
sI3
g192
sI4
g195
sI5
(lp197
ssa(dp198
I0
(dp199
I0
(lp200
sI1
(lp201
sI2
(lp202
sI3
(lp203
sI4
(lp204
sI5
(lp205
ssI1
(dp206
I1
(lp207
sI2
(lp208
sI3
(lp209
sI4
(lp210
sI5
(lp211
ssI2
(dp212
I0
g202
sI1
g208
sI2
(lp213
sI3
(lp214
sI4
(lp215
sI5
(lp216
ssI3
(dp217
I0
g203
sI1
g209
sI2
g214
sI3
(lp218
sI4
(lp219
sI5
(lp220
ssI4
(dp221
I0
g204
sI1
g210
sI2
g215
sI3
g219
sI4
(lp222
sI5
(lp223
ssI5
(dp224
I2
g216
sI3
g220
sI4
g223
sI5
(lp225
ssa(dp226
I0
(dp227
I0
(lp228
sI1
(lp229
sI2
(lp230
sI3
(lp231
sI4
(lp232
sI5
(lp233
ssI1
(dp234
I0
g229
sI1
(lp235
sI2
(lp236
sI3
(lp237
sI4
(lp238
sI5
(lp239
ssI2
(dp240
I0
g230
sI1
g236
sI2
(lp241
sI3
(lp242
sI4
(lp243
Vhttp://www.w3.org/ns/prov#wasDerivedFrom
p244
asI5
(lp245
Vhttp://dbpedia.org/property/meaning
p246
aVhttp://dbpedia.org/ontology/abstract
p247
aVhttp://dbpedia.org/ontology/meaning
p248
aVhttp://www.w3.org/2000/01/rdf-schema#comment
p249
assI3
(dp250
I0
g231
sI1
g237
sI2
g242
sI3
(lp251
sI4
(lp252
sI5
(lp253
ssI4
(dp254
I0
g232
sI1
g238
sI2
g243
sI3
g252
sI4
(lp255
sI5
(lp256
ssI5
(dp257
I0
g233
sI1
g239
sI2
g245
sI3
g253
sI4
g256
sI5
(lp258
ssa(dp259
I0
(dp260
I0
(lp261
sI1
(lp262
sI2
(lp263
sI3
(lp264
sI4
(lp265
sI5
(lp266
ssI1
(dp267
I1
(lp268
sI2
(lp269
sI3
(lp270
sI4
(lp271
sI5
(lp272
ssI2
(dp273
I0
g263
sI1
g269
sI2
(lp274
sI3
(lp275
sI4
(lp276
sI5
(lp277
ssI3
(dp278
I0
g264
sI1
g270
sI2
g275
sI3
(lp279
sI4
(lp280
sI5
(lp281
ssI4
(dp282
I0
g265
sI1
g271
sI2
g276
sI3
g280
sI4
(lp283
sI5
(lp284
ssI5
(dp285
I2
g277
sI3
g281
sI4
g284
sI5
(lp286
ssa(dp287
I0
(dp288
I0
(lp289
sI1
(lp290
sI2
(lp291
Vhttp://dbpedia.org/ontology/gender
p292
asI3
(lp293
sI4
(lp294
sI5
(lp295
ssI1
(dp296
I0
g290
sI1
(lp297
sI2
(lp298
sI3
(lp299
sI4
(lp300
sI5
(lp301
ssI2
(dp302
I0
g291
sI1
g298
sI2
(lp303
sI3
(lp304
sI4
(lp305
sI5
(lp306
ssI3
(dp307
I0
g293
sI1
g299
sI2
g304
sI3
(lp308
sI4
(lp309
sI5
(lp310
ssI4
(dp311
I0
g294
sI1
g300
sI2
g305
sI3
g309
sI4
(lp312
sI5
(lp313
ssI5
(dp314
I0
g295
sI1
g301
sI2
g306
sI3
g310
sI4
g313
sI5
(lp315
ssa(dp316
I0
(dp317
I0
(lp318
sI1
(lp319
sI2
(lp320
sI3
(lp321
sI4
(lp322
sI5
(lp323
ssI1
(dp324
I0
g319
sI1
(lp325
sI2
(lp326
sI3
(lp327
sI4
(lp328
sI5
(lp329
ssI2
(dp330
I0
g320
sI1
g326
sI2
(lp331
sI3
(lp332
sI4
(lp333
sI5
(lp334
ssI3
(dp335
I0
g321
sI1
g327
sI2
g332
sI3
(lp336
sI4
(lp337
sI5
(lp338
ssI4
(dp339
I0
g322
sI1
g328
sI2
g333
sI3
g337
sI4
(lp340
sI5
(lp341
ssI5
(dp342
I0
g323
sI2
g334
sI3
g338
sI4
g341
sI5
(lp343
ssa(dp344
I0
(dp345
I0
(lp346
sI1
(lp347
sI2
(lp348
sI3
(lp349
sI4
(lp350
sI5
(lp351
ssI1
(dp352
I1
(lp353
sI2
(lp354
sI3
(lp355
sI4
(lp356
sI5
(lp357
ssI2
(dp358
I0
g348
sI1
g354
sI2
(lp359
sI3
(lp360
sI4
(lp361
sI5
(lp362
ssI3
(dp363
I0
g349
sI1
g355
sI2
g360
sI3
(lp364
sI4
(lp365
sI5
(lp366
ssI4
(dp367
I0
g350
sI1
g356
sI2
g361
sI3
g365
sI4
(lp368
sI5
(lp369
ssI5
(dp370
I2
g362
sI3
g366
sI4
g369
sI5
(lp371
ssa(dp372
I0
(dp373
I0
(lp374
sI1
(lp375
sI2
(lp376
sI3
(lp377
sI4
(lp378
sI5
(lp379
ssI1
(dp380
I1
(lp381
sI2
(lp382
sI3
(lp383
sI4
(lp384
sI5
(lp385
ssI2
(dp386
I0
g376
sI1
g382
sI2
(lp387
sI3
(lp388
sI4
(lp389
sI5
(lp390
ssI3
(dp391
I0
g377
sI1
g383
sI2
g388
sI3
(lp392
sI4
(lp393
sI5
(lp394
ssI4
(dp395
I0
g378
sI1
g384
sI2
g389
sI3
g393
sI4
(lp396
sI5
(lp397
ssI5
(dp398
I0
g379
sI1
g385
sI2
g390
sI3
g394
sI4
g397
sI5
(lp399
ssa(dp400
I0
(dp401
I0
(lp402
sI1
(lp403
sI2
(lp404
sI3
(lp405
sI4
(lp406
sI5
(lp407
ssI1
(dp408
I0
g403
sI1
(lp409
sI2
(lp410
sI3
(lp411
sI4
(lp412
sI5
(lp413
ssI2
(dp414
I0
g404
sI1
g410
sI2
(lp415
sI3
(lp416
sI4
(lp417
sI5
(lp418
ssI3
(dp419
I0
g405
sI1
g411
sI2
g416
sI3
(lp420
sI4
(lp421
sI5
(lp422
ssI4
(dp423
I0
g406
sI1
g412
sI2
g417
sI3
g421
sI4
(lp424
sI5
(lp425
ssI5
(dp426
I0
g407
sI1
g413
sI2
g418
sI3
g422
sI4
g425
sI5
(lp427
ssa(dp428
I0
(dp429
I0
(lp430
sI1
(lp431
sI2
(lp432
sI3
(lp433
sI4
(lp434
sI5
(lp435
ssI1
(dp436
I1
(lp437
sI2
(lp438
sI3
(lp439
sI4
(lp440
sI5
(lp441
ssI2
(dp442
I0
g432
sI1
g438
sI2
(lp443
sI3
(lp444
sI4
(lp445
sI5
(lp446
ssI3
(dp447
I0
g433
sI1
g439
sI2
g444
sI3
(lp448
sI4
(lp449
sI5
(lp450
ssI4
(dp451
I0
g434
sI1
g440
sI2
g445
sI3
g449
sI4
(lp452
sI5
(lp453
ssI5
(dp454
I2
g446
sI3
g450
sI4
g453
sI5
(lp455
ssa(dp456
I0
(dp457
I0
(lp458
sI1
(lp459
sI2
(lp460
sI3
(lp461
sI4
(lp462
sI5
(lp463
ssI1
(dp464
I1
(lp465
sI2
(lp466
sI3
(lp467
sI4
(lp468
sI5
(lp469
ssI2
(dp470
I0
g460
sI1
g466
sI2
(lp471
sI3
(lp472
sI4
(lp473
sI5
(lp474
ssI3
(dp475
I0
g461
sI1
g467
sI2
g472
sI3
(lp476
sI4
(lp477
sI5
(lp478
ssI4
(dp479
I0
g462
sI1
g468
sI2
g473
sI3
g477
sI4
(lp480
sI5
(lp481
ssI5
(dp482
I2
g474
sI3
g478
sI4
g481
sI5
(lp483
ssa(dp484
I0
(dp485
I0
(lp486
sI1
(lp487
sI2
(lp488
sI3
(lp489
sI4
(lp490
sI5
(lp491
ssI1
(dp492
I0
g487
sI1
(lp493
sI2
(lp494
sI3
(lp495
sI4
(lp496
sI5
(lp497
ssI2
(dp498
I0
g488
sI1
g494
sI2
(lp499
sI3
(lp500
sI4
(lp501
sI5
(lp502
ssI3
(dp503
I0
g489
sI1
g495
sI2
g500
sI3
(lp504
sI4
(lp505
sI5
(lp506
ssI4
(dp507
I0
g490
sI1
g496
sI2
g501
sI3
g505
sI4
(lp508
sI5
(lp509
ssI5
(dp510
I0
g491
sI1
g497
sI2
g502
sI3
g506
sI4
g509
sI5
(lp511
ssa.