(lp1
(lp2
(lp3
a(lp4
a(lp5
((lp6
Vhttp://dbpedia.org/class/yago/Alumnus109786338
p7
aVhttp://dbpedia.org/class/yago/AmericanReligiousLeaders
p8
aVhttp://dbpedia.org/class/yago/BrooklynLawSchoolAlumni
p9
aVhttp://dbpedia.org/class/yago/CausalAgent100007347
p10
aVhttp://dbpedia.org/class/yago/Intellectual109621545
p11
aVhttp://dbpedia.org/class/yago/Leader109623038
p12
aVhttp://dbpedia.org/class/yago/LivingThing100004258
p13
aVhttp://dbpedia.org/class/yago/Object100002684
p14
aVhttp://dbpedia.org/class/yago/Organism100004475
p15
aVhttp://dbpedia.org/class/yago/Person100007846
p16
aVhttp://dbpedia.org/class/yago/ReligiousLeader110519494
p17
aVhttp://dbpedia.org/class/yago/ReligiousPerson109628382
p18
aVhttp://dbpedia.org/class/yago/Scholar110557854
p19
aVhttp://dbpedia.org/class/yago/Whole100003553
p20
aVhttp://dbpedia.org/class/yago/YagoLegalActorGeo
p21
aVhttp://www.w3.org/2002/07/owl#Thing
p22
aVhttp://xmlns.com/foaf/0.1/Person
p23
aVhttp://dbpedia.org/ontology/Person
p24
aVhttp://www.ontologydesignpatterns.org/ont/dul/DUL.owl#Agent
p25
aVhttp://www.ontologydesignpatterns.org/ont/dul/DUL.owl#NaturalPerson
p26
aVhttp://www.wikidata.org/entity/Q215627
p27
aVhttp://www.wikidata.org/entity/Q2566598
p28
aVhttp://www.wikidata.org/entity/Q5
p29
aVhttp://dbpedia.org/ontology/Agent
p30
aVhttp://dbpedia.org/ontology/Religious
p31
aVhttp://schema.org/Person
p32
aVhttp://dbpedia.org/class/yago/ColumbiaUniversityAlumni
p33
aVhttp://dbpedia.org/class/yago/YagoLegalActor
p34
aVhttp://dbpedia.org/class/yago/PhysicalEntity100001930
p35
aVhttp://dbpedia.org/resource/Harry_Halpern
tp36
aaa(lp37
(lp38
a(lp39
a(lp40
((lp41
Vhttp://dbpedia.org/class/yago/Adult109605289
p42
aVhttp://dbpedia.org/class/yago/BuddhistNuns
p43
aVhttp://dbpedia.org/class/yago/BuddhistWriters
p44
aVhttp://dbpedia.org/class/yago/CausalAgent100007347
p45
aVhttp://dbpedia.org/class/yago/Communicator109610660
p46
aVhttp://dbpedia.org/class/yago/Educator110045713
p47
aVhttp://dbpedia.org/class/yago/LivingThing100004258
p48
aVhttp://dbpedia.org/class/yago/Nun110368009
p49
aVhttp://dbpedia.org/class/yago/Object100002684
p50
aVhttp://dbpedia.org/class/yago/Organism100004475
p51
aVhttp://dbpedia.org/class/yago/Person100007846
p52
aVhttp://dbpedia.org/class/yago/Professional110480253
p53
aVhttp://dbpedia.org/class/yago/ReligiousPerson109628382
p54
aVhttp://dbpedia.org/class/yago/Teacher110694258
p55
aVhttp://dbpedia.org/class/yago/Whole100003553
p56
aVhttp://dbpedia.org/class/yago/Writer110794014
p57
aVhttp://dbpedia.org/class/yago/YagoLegalActorGeo
p58
aVhttp://www.w3.org/2002/07/owl#Thing
p59
aVhttp://xmlns.com/foaf/0.1/Person
p60
aVhttp://dbpedia.org/ontology/Person
p61
aVhttp://www.ontologydesignpatterns.org/ont/dul/DUL.owl#Agent
p62
aVhttp://www.ontologydesignpatterns.org/ont/dul/DUL.owl#NaturalPerson
p63
aVhttp://www.wikidata.org/entity/Q215627
p64
aVhttp://www.wikidata.org/entity/Q2566598
p65
aVhttp://www.wikidata.org/entity/Q5
p66
aVhttp://dbpedia.org/ontology/Agent
p67
aVhttp://dbpedia.org/ontology/Religious
p68
aVhttp://schema.org/Person
p69
aVhttp://dbpedia.org/class/yago/YagoLegalActor
p70
aVhttp://dbpedia.org/class/yago/PhysicalEntity100001930
p71
aVhttp://dbpedia.org/class/yago/Religious110518602
p72
aVhttp://dbpedia.org/class/yago/ZenBuddhismWriters
p73
aVhttp://dbpedia.org/class/yago/ZenBuddhistNuns
p74
aVhttp://dbpedia.org/class/yago/ZenBuddhistTeachers
p75
aVhttp://dbpedia.org/resource/Myokyo-ni
tp76
aaa(lp77
(lp78
a(lp79
a(lp80
aa(lp81
(lp82
a(lp83
a(lp84
((lp85
Vhttp://dbpedia.org/class/yago/Adult109605289
p86
aVhttp://dbpedia.org/class/yago/BuddhistWriters
p87
aVhttp://dbpedia.org/class/yago/CausalAgent100007347
p88
aVhttp://dbpedia.org/class/yago/Communicator109610660
p89
aVhttp://dbpedia.org/class/yago/Educator110045713
p90
aVhttp://dbpedia.org/class/yago/LivingThing100004258
p91
aVhttp://dbpedia.org/class/yago/Object100002684
p92
aVhttp://dbpedia.org/class/yago/Organism100004475
p93
aVhttp://dbpedia.org/class/yago/Person100007846
p94
aVhttp://dbpedia.org/class/yago/Professional110480253
p95
aVhttp://dbpedia.org/class/yago/Teacher110694258
p96
aVhttp://dbpedia.org/class/yago/Whole100003553
p97
aVhttp://dbpedia.org/class/yago/Writer110794014
p98
aVhttp://dbpedia.org/class/yago/YagoLegalActorGeo
p99
aVhttp://www.w3.org/2002/07/owl#Thing
p100
aVhttp://xmlns.com/foaf/0.1/Person
p101
aVhttp://dbpedia.org/ontology/Person
p102
aVhttp://www.ontologydesignpatterns.org/ont/dul/DUL.owl#Agent
p103
aVhttp://www.ontologydesignpatterns.org/ont/dul/DUL.owl#NaturalPerson
p104
aVhttp://www.wikidata.org/entity/Q215627
p105
aVhttp://www.wikidata.org/entity/Q2566598
p106
aVhttp://www.wikidata.org/entity/Q5
p107
aVhttp://dbpedia.org/ontology/Agent
p108
aVhttp://dbpedia.org/ontology/Religious
p109
aVhttp://schema.org/Person
p110
aVhttp://dbpedia.org/class/yago/YagoLegalActor
p111
aVhttp://dbpedia.org/class/yago/LivingPeople
p112
aVhttp://dbpedia.org/class/yago/PhysicalEntity100001930
p113
aVhttp://dbpedia.org/class/yago/TheravadaBuddhismWriters
p114
aVhttp://dbpedia.org/class/yago/TheravadaBuddhistTeachers
p115
aVhttp://dbpedia.org/resource/Achan_Sobin_S._Namto
tp116
aaa(lp117
(lp118
a(lp119
a(lp120
((lp121
Vhttp://dbpedia.org/class/yago/Artist109812338
p122
aVhttp://dbpedia.org/class/yago/CausalAgent100007347
p123
aVhttp://dbpedia.org/class/yago/Creator109614315
p124
aVhttp://dbpedia.org/class/yago/LivingThing100004258
p125
aVhttp://dbpedia.org/class/yago/Monk110112129
p126
aVhttp://dbpedia.org/class/yago/Object100002684
p127
aVhttp://dbpedia.org/class/yago/Organism100004475
p128
aVhttp://dbpedia.org/class/yago/Person100007846
p129
aVhttp://dbpedia.org/class/yago/ReligiousPerson109628382
p130
aVhttp://dbpedia.org/class/yago/Sculptor110566072
p131
aVhttp://dbpedia.org/class/yago/Whole100003553
p132
aVhttp://dbpedia.org/class/yago/YagoLegalActorGeo
p133
aVhttp://www.w3.org/2002/07/owl#Thing
p134
aVhttp://xmlns.com/foaf/0.1/Person
p135
aVhttp://dbpedia.org/ontology/Person
p136
aVhttp://www.ontologydesignpatterns.org/ont/dul/DUL.owl#Agent
p137
aVhttp://www.ontologydesignpatterns.org/ont/dul/DUL.owl#NaturalPerson
p138
aVhttp://www.wikidata.org/entity/Q215627
p139
aVhttp://www.wikidata.org/entity/Q2566598
p140
aVhttp://www.wikidata.org/entity/Q5
p141
aVhttp://dbpedia.org/ontology/Agent
p142
aVhttp://dbpedia.org/ontology/Religious
p143
aVhttp://schema.org/Person
p144
aVhttp://dbpedia.org/class/yago/PeopleFromGifuPrefecture
p145
aVhttp://dbpedia.org/class/yago/YagoLegalActor
p146
aVhttp://dbpedia.org/class/yago/JapaneseBuddhistMonks
p147
aVhttp://dbpedia.org/class/yago/JapaneseSculptors
p148
aVhttp://dbpedia.org/class/yago/PhysicalEntity100001930
p149
aVhttp://dbpedia.org/class/yago/Religious110518602
p150
aVhttp://dbpedia.org/resource/Enk\u016b
tp151
aaa(lp152
(lp153
a(lp154
a(lp155
((lp156
Vhttp://dbpedia.org/class/yago/CausalAgent100007347
p157
aVhttp://dbpedia.org/class/yago/Disciple110016103
p158
aVhttp://dbpedia.org/class/yago/Follower110099375
p159
aVhttp://dbpedia.org/class/yago/LivingThing100004258
p160
aVhttp://dbpedia.org/class/yago/Object100002684
p161
aVhttp://dbpedia.org/class/yago/Organism100004475
p162
aVhttp://dbpedia.org/class/yago/Person100007846
p163
aVhttp://dbpedia.org/class/yago/Whole100003553
p164
aVhttp://dbpedia.org/class/yago/YagoLegalActorGeo
p165
aVhttp://www.w3.org/2002/07/owl#Thing
p166
aVhttp://xmlns.com/foaf/0.1/Person
p167
aVhttp://dbpedia.org/ontology/Person
p168
aVhttp://www.ontologydesignpatterns.org/ont/dul/DUL.owl#Agent
p169
aVhttp://www.ontologydesignpatterns.org/ont/dul/DUL.owl#NaturalPerson
p170
aVhttp://www.wikidata.org/entity/Q215627
p171
aVhttp://www.wikidata.org/entity/Q2566598
p172
aVhttp://www.wikidata.org/entity/Q5
p173
aVhttp://dbpedia.org/ontology/Agent
p174
aVhttp://dbpedia.org/ontology/Religious
p175
aVhttp://schema.org/Person
p176
aVhttp://dbpedia.org/class/yago/DisciplesOfGautamaBuddha
p177
aVhttp://dbpedia.org/class/yago/YagoLegalActor
p178
aVhttp://dbpedia.org/class/yago/PhysicalEntity100001930
p179
aVhttp://dbpedia.org/resource/Hatthaka_of_Alavi
tp180
aaa(lp181
(lp182
a(lp183
a(lp184
((lp185
Vhttp://dbpedia.org/class/yago/CausalAgent100007347
p186
aVhttp://dbpedia.org/class/yago/Lama110243664
p187
aVhttp://dbpedia.org/class/yago/Leader109623038
p188
aVhttp://dbpedia.org/class/yago/LivingThing100004258
p189
aVhttp://dbpedia.org/class/yago/Object100002684
p190
aVhttp://dbpedia.org/class/yago/Organism100004475
p191
aVhttp://dbpedia.org/class/yago/Person100007846
p192
aVhttp://dbpedia.org/class/yago/SpiritualLeader109505153
p193
aVhttp://dbpedia.org/class/yago/Whole100003553
p194
aVhttp://dbpedia.org/class/yago/YagoLegalActorGeo
p195
aVhttp://www.w3.org/2002/07/owl#Thing
p196
aVhttp://xmlns.com/foaf/0.1/Person
p197
aVhttp://dbpedia.org/ontology/Person
p198
aVhttp://www.ontologydesignpatterns.org/ont/dul/DUL.owl#Agent
p199
aVhttp://www.ontologydesignpatterns.org/ont/dul/DUL.owl#NaturalPerson
p200
aVhttp://www.wikidata.org/entity/Q215627
p201
aVhttp://www.wikidata.org/entity/Q2566598
p202
aVhttp://www.wikidata.org/entity/Q5
p203
aVhttp://dbpedia.org/ontology/Agent
p204
aVhttp://dbpedia.org/ontology/Religious
p205
aVhttp://schema.org/Person
p206
aVhttp://dbpedia.org/class/yago/YagoLegalActor
p207
aVhttp://dbpedia.org/class/yago/Lamas
p208
aVhttp://dbpedia.org/class/yago/PhysicalEntity100001930
p209
aVhttp://dbpedia.org/class/yago/Priest110471250
p210
aVhttp://dbpedia.org/resource/Mindrolling_Trichen
tp211
aaa(lp212
(lp213
a(lp214
a(lp215
aa(lp216
(lp217
a(lp218
a(lp219
((lp220
Vhttp://dbpedia.org/class/yago/CausalAgent100007347
p221
aVhttp://dbpedia.org/class/yago/LivingThing100004258
p222
aVhttp://dbpedia.org/class/yago/Monk110112129
p223
aVhttp://dbpedia.org/class/yago/Object100002684
p224
aVhttp://dbpedia.org/class/yago/Organism100004475
p225
aVhttp://dbpedia.org/class/yago/Person100007846
p226
aVhttp://dbpedia.org/class/yago/ReligiousPerson109628382
p227
aVhttp://dbpedia.org/class/yago/Whole100003553
p228
aVhttp://dbpedia.org/class/yago/YagoLegalActorGeo
p229
aVhttp://dbpedia.org/class/yago/SriLankanBuddhistMonks
p230
aVhttp://www.w3.org/2002/07/owl#Thing
p231
aVhttp://xmlns.com/foaf/0.1/Person
p232
aVhttp://dbpedia.org/ontology/Person
p233
aVhttp://www.ontologydesignpatterns.org/ont/dul/DUL.owl#Agent
p234
aVhttp://www.ontologydesignpatterns.org/ont/dul/DUL.owl#NaturalPerson
p235
aVhttp://www.wikidata.org/entity/Q215627
p236
aVhttp://www.wikidata.org/entity/Q2566598
p237
aVhttp://www.wikidata.org/entity/Q5
p238
aVhttp://dbpedia.org/ontology/Agent
p239
aVhttp://dbpedia.org/ontology/Religious
p240
aVhttp://schema.org/Person
p241
aVhttp://dbpedia.org/class/yago/FrenchBuddhistMonks
p242
aVhttp://dbpedia.org/class/yago/FrenchPeopleOfSriLankanDescent
p243
aVhttp://dbpedia.org/class/yago/YagoLegalActor
p244
aVhttp://dbpedia.org/class/yago/LivingPeople
p245
aVhttp://dbpedia.org/class/yago/PhysicalEntity100001930
p246
aVhttp://dbpedia.org/class/yago/Religious110518602
p247
aVhttp://dbpedia.org/resource/Tampalawela_Dhammaratana
tp248
aaa(lp249
(lp250
a(lp251
a(lp252
((lp253
Vhttp://dbpedia.org/class/yago/CausalAgent100007347
p254
aVhttp://dbpedia.org/class/yago/LivingThing100004258
p255
aVhttp://dbpedia.org/class/yago/Object100002684
p256
aVhttp://dbpedia.org/class/yago/Organism100004475
p257
aVhttp://dbpedia.org/class/yago/Person100007846
p258
aVhttp://dbpedia.org/class/yago/Whole100003553
p259
aVhttp://dbpedia.org/class/yago/YagoLegalActorGeo
p260
aVhttp://www.w3.org/2002/07/owl#Thing
p261
aVhttp://xmlns.com/foaf/0.1/Person
p262
aVhttp://dbpedia.org/ontology/Person
p263
aVhttp://www.ontologydesignpatterns.org/ont/dul/DUL.owl#Agent
p264
aVhttp://www.ontologydesignpatterns.org/ont/dul/DUL.owl#NaturalPerson
p265
aVhttp://www.wikidata.org/entity/Q215627
p266
aVhttp://www.wikidata.org/entity/Q2566598
p267
aVhttp://www.wikidata.org/entity/Q5
p268
aVhttp://dbpedia.org/ontology/Agent
p269
aVhttp://dbpedia.org/ontology/Religious
p270
aVhttp://schema.org/Person
p271
aVhttp://dbpedia.org/class/yago/PeopleFromPennsylvania
p272
aVhttp://dbpedia.org/class/yago/PeopleOfTheBlackHawkWar
p273
aVhttp://dbpedia.org/class/yago/YagoLegalActor
p274
aVhttp://dbpedia.org/class/yago/PhysicalEntity100001930
p275
aVhttp://dbpedia.org/resource/Adam_Payne
tp276
aaa(lp277
(lp278
a(lp279
a(lp280
((lp281
Vhttp://dbpedia.org/class/yago/BuddhistWriters
p282
aVhttp://dbpedia.org/class/yago/CausalAgent100007347
p283
aVhttp://dbpedia.org/class/yago/Communicator109610660
p284
aVhttp://dbpedia.org/class/yago/LivingThing100004258
p285
aVhttp://dbpedia.org/class/yago/Monk110112129
p286
aVhttp://dbpedia.org/class/yago/Object100002684
p287
aVhttp://dbpedia.org/class/yago/Organism100004475
p288
aVhttp://dbpedia.org/class/yago/Person100007846
p289
aVhttp://dbpedia.org/class/yago/ReligiousPerson109628382
p290
aVhttp://dbpedia.org/class/yago/Whole100003553
p291
aVhttp://dbpedia.org/class/yago/Writer110794014
p292
aVhttp://dbpedia.org/class/yago/YagoLegalActorGeo
p293
aVhttp://www.w3.org/2002/07/owl#Thing
p294
aVhttp://xmlns.com/foaf/0.1/Person
p295
aVhttp://dbpedia.org/ontology/Person
p296
aVhttp://www.ontologydesignpatterns.org/ont/dul/DUL.owl#Agent
p297
aVhttp://www.ontologydesignpatterns.org/ont/dul/DUL.owl#NaturalPerson
p298
aVhttp://www.wikidata.org/entity/Q215627
p299
aVhttp://www.wikidata.org/entity/Q2566598
p300
aVhttp://www.wikidata.org/entity/Q5
p301
aVhttp://dbpedia.org/ontology/Agent
p302
aVhttp://dbpedia.org/ontology/Religious
p303
aVhttp://schema.org/Person
p304
aVhttp://dbpedia.org/class/yago/YagoLegalActor
p305
aVhttp://dbpedia.org/class/yago/LivingPeople
p306
aVhttp://dbpedia.org/class/yago/ModernBuddhistWriters
p307
aVhttp://dbpedia.org/class/yago/PhysicalEntity100001930
p308
aVhttp://dbpedia.org/class/yago/Religious110518602
p309
aVhttp://dbpedia.org/class/yago/ZenBuddhistMonksAndPriests
p310
aVhttp://dbpedia.org/resource/Charles_Tenshin_Fletcher
tp311
aaa(lp312
(lp313
a(lp314
a(lp315
((lp316
Vhttp://dbpedia.org/class/yago/Adult109605289
p317
aVhttp://dbpedia.org/class/yago/BuddhistWriters
p318
aVhttp://dbpedia.org/class/yago/CausalAgent100007347
p319
aVhttp://dbpedia.org/class/yago/Communicator109610660
p320
aVhttp://dbpedia.org/class/yago/Educator110045713
p321
aVhttp://dbpedia.org/class/yago/LivingThing100004258
p322
aVhttp://dbpedia.org/class/yago/Object100002684
p323
aVhttp://dbpedia.org/class/yago/Organism100004475
p324
aVhttp://dbpedia.org/class/yago/Person100007846
p325
aVhttp://dbpedia.org/class/yago/Professional110480253
p326
aVhttp://dbpedia.org/class/yago/Teacher110694258
p327
aVhttp://dbpedia.org/class/yago/Whole100003553
p328
aVhttp://dbpedia.org/class/yago/Writer110794014
p329
aVhttp://dbpedia.org/class/yago/YagoLegalActorGeo
p330
aVhttp://www.w3.org/2002/07/owl#Thing
p331
aVhttp://xmlns.com/foaf/0.1/Person
p332
aVhttp://dbpedia.org/ontology/Person
p333
aVhttp://www.ontologydesignpatterns.org/ont/dul/DUL.owl#Agent
p334
aVhttp://www.ontologydesignpatterns.org/ont/dul/DUL.owl#NaturalPerson
p335
aVhttp://www.wikidata.org/entity/Q215627
p336
aVhttp://www.wikidata.org/entity/Q2566598
p337
aVhttp://www.wikidata.org/entity/Q5
p338
aVhttp://dbpedia.org/ontology/Agent
p339
aVhttp://dbpedia.org/ontology/Religious
p340
aVhttp://schema.org/Person
p341
aVhttp://dbpedia.org/class/yago/YagoLegalActor
p342
aVhttp://dbpedia.org/class/yago/LivingPeople
p343
aVhttp://dbpedia.org/class/yago/PhysicalEntity100001930
p344
aVhttp://dbpedia.org/class/yago/ThaiBuddhistTeachers
p345
aVhttp://dbpedia.org/class/yago/TheravadaBuddhismWriters
p346
aVhttp://dbpedia.org/resource/Phra_Dhammavisuddhikavi
tp347
aaa(lp348
(lp349
a(lp350
a(lp351
((lp352
Vhttp://dbpedia.org/class/yago/AdvaitinPhilosophers
p353
aVhttp://dbpedia.org/class/yago/CausalAgent100007347
p354
aVhttp://dbpedia.org/class/yago/Intellectual109621545
p355
aVhttp://dbpedia.org/class/yago/LivingThing100004258
p356
aVhttp://dbpedia.org/class/yago/Object100002684
p357
aVhttp://dbpedia.org/class/yago/Organism100004475
p358
aVhttp://dbpedia.org/class/yago/Person100007846
p359
aVhttp://dbpedia.org/class/yago/Philosopher110423589
p360
aVhttp://dbpedia.org/class/yago/Scholar110557854
p361
aVhttp://dbpedia.org/class/yago/Whole100003553
p362
aVhttp://dbpedia.org/class/yago/YagoLegalActorGeo
p363
aVhttp://www.w3.org/2002/07/owl#Thing
p364
aVhttp://xmlns.com/foaf/0.1/Person
p365
aVhttp://dbpedia.org/ontology/Person
p366
aVhttp://www.ontologydesignpatterns.org/ont/dul/DUL.owl#Agent
p367
aVhttp://www.ontologydesignpatterns.org/ont/dul/DUL.owl#NaturalPerson
p368
aVhttp://www.wikidata.org/entity/Q215627
p369
aVhttp://www.wikidata.org/entity/Q5
p370
aVhttp://dbpedia.org/ontology/Agent
p371
aVhttp://schema.org/Person
p372
aVhttp://dbpedia.org/class/yago/YagoLegalActor
p373
aVhttp://dbpedia.org/class/yago/PhysicalEntity100001930
p374
aVhttp://dbpedia.org/resource/Jagadguru_of_Sringeri_Sharada_Peetham
tp375
aaa(lp376
(lp377
a(lp378
a(lp379
((lp380
Vhttp://dbpedia.org/class/yago/CausalAgent100007347
p381
aVhttp://dbpedia.org/class/yago/LivingThing100004258
p382
aVhttp://dbpedia.org/class/yago/Monk110112129
p383
aVhttp://dbpedia.org/class/yago/Object100002684
p384
aVhttp://dbpedia.org/class/yago/Organism100004475
p385
aVhttp://dbpedia.org/class/yago/Person100007846
p386
aVhttp://dbpedia.org/class/yago/ReligiousPerson109628382
p387
aVhttp://dbpedia.org/class/yago/Whole100003553
p388
aVhttp://dbpedia.org/class/yago/YagoLegalActorGeo
p389
aVhttp://www.w3.org/2002/07/owl#Thing
p390
aVhttp://xmlns.com/foaf/0.1/Person
p391
aVhttp://dbpedia.org/ontology/Person
p392
aVhttp://www.ontologydesignpatterns.org/ont/dul/DUL.owl#Agent
p393
aVhttp://www.ontologydesignpatterns.org/ont/dul/DUL.owl#NaturalPerson
p394
aVhttp://www.wikidata.org/entity/Q215627
p395
aVhttp://www.wikidata.org/entity/Q2566598
p396
aVhttp://www.wikidata.org/entity/Q5
p397
aVhttp://dbpedia.org/ontology/Agent
p398
aVhttp://dbpedia.org/ontology/Religious
p399
aVhttp://schema.org/Person
p400
aVhttp://dbpedia.org/class/yago/YagoLegalActor
p401
aVhttp://dbpedia.org/class/yago/LivingPeople
p402
aVhttp://dbpedia.org/class/yago/PhysicalEntity100001930
p403
aVhttp://dbpedia.org/class/yago/Religious110518602
p404
aVhttp://dbpedia.org/class/yago/ZenBuddhistMonksAndPriests
p405
aVhttp://dbpedia.org/resource/Keido_Fukushima
tp406
aaa(lp407
(lp408
a(lp409
a(lp410
((lp411
Vhttp://dbpedia.org/class/yago/Actor109765278
p412
aVhttp://dbpedia.org/class/yago/AmericanFilmActors
p413
aVhttp://dbpedia.org/class/yago/AmericanTelevisionActors
p414
aVhttp://dbpedia.org/class/yago/CausalAgent100007347
p415
aVhttp://dbpedia.org/class/yago/Entertainer109616922
p416
aVhttp://dbpedia.org/class/yago/LivingThing100004258
p417
aVhttp://dbpedia.org/class/yago/Object100002684
p418
aVhttp://dbpedia.org/class/yago/Organism100004475
p419
aVhttp://dbpedia.org/class/yago/Performer110415638
p420
aVhttp://dbpedia.org/class/yago/Person100007846
p421
aVhttp://dbpedia.org/class/yago/Whole100003553
p422
aVhttp://dbpedia.org/class/yago/YagoLegalActorGeo
p423
aVhttp://www.w3.org/2002/07/owl#Thing
p424
aVhttp://xmlns.com/foaf/0.1/Person
p425
aVhttp://dbpedia.org/ontology/Person
p426
aVhttp://www.ontologydesignpatterns.org/ont/dul/DUL.owl#Agent
p427
aVhttp://www.ontologydesignpatterns.org/ont/dul/DUL.owl#NaturalPerson
p428
aVhttp://www.wikidata.org/entity/Q215627
p429
aVhttp://www.wikidata.org/entity/Q5
p430
aVhttp://dbpedia.org/ontology/Agent
p431
aVhttp://schema.org/Person
p432
aVhttp://dbpedia.org/class/yago/PeopleFromLongBranch,NewJersey
p433
aVhttp://dbpedia.org/class/yago/YagoLegalActor
p434
aVhttp://dbpedia.org/class/yago/LivingPeople
p435
aVhttp://dbpedia.org/class/yago/PhysicalEntity100001930
p436
aVhttp://dbpedia.org/resource/Maxine_Stuart
tp437
aaa(lp438
(lp439
a(lp440
a(lp441
((lp442
Vhttp://dbpedia.org/class/yago/Administrator109770949
p443
aVhttp://dbpedia.org/class/yago/AlumniOfHarrisManchesterCollege,Oxford
p444
aVhttp://dbpedia.org/class/yago/AlumniOfTrinityCollege,Dublin
p445
aVhttp://dbpedia.org/class/yago/Alumnus109786338
p446
aVhttp://dbpedia.org/class/yago/Associate109816771
p447
aVhttp://dbpedia.org/class/yago/BritishUnionists
p448
aVhttp://dbpedia.org/class/yago/CausalAgent100007347
p449
aVhttp://dbpedia.org/class/yago/CouncilMember109944763
p450
aVhttp://dbpedia.org/class/yago/Executive110069645
p451
aVhttp://dbpedia.org/class/yago/Head110162991
p452
aVhttp://dbpedia.org/class/yago/Intellectual109621545
p453
aVhttp://dbpedia.org/class/yago/Leader109623038
p454
aVhttp://dbpedia.org/class/yago/LivingThing100004258
p455
aVhttp://dbpedia.org/class/yago/Member110307234
p456
aVhttp://dbpedia.org/class/yago/Minister110320863
p457
aVhttp://dbpedia.org/class/yago/Object100002684
p458
aVhttp://dbpedia.org/class/yago/Organism100004475
p459
aVhttp://dbpedia.org/class/yago/Peer109626238
p460
aVhttp://dbpedia.org/class/yago/Person100007846
p461
aVhttp://dbpedia.org/class/yago/Politician110450303
p462
aVhttp://dbpedia.org/class/yago/Politician110451263
p463
aVhttp://dbpedia.org/class/yago/Scholar110557854
p464
aVhttp://dbpedia.org/class/yago/Socialist110618848
p465
aVhttp://dbpedia.org/class/yago/TradeUnionist110720964
p466
aVhttp://dbpedia.org/class/yago/Whole100003553
p467
aVhttp://dbpedia.org/class/yago/Worker109632518
p468
aVhttp://dbpedia.org/class/yago/YagoLegalActorGeo
p469
aVhttp://dbpedia.org/class/yago/PresbyterianMinisters
p470
aVhttp://dbpedia.org/class/yago/ScottishPoliticians
p471
aVhttp://dbpedia.org/class/yago/ScottishSocialists
p472
aVhttp://dbpedia.org/class/yago/ScottishUnionists
p473
aVhttp://dbpedia.org/class/yago/SocialistsFromNorthernIreland
p474
aVhttp://www.w3.org/2002/07/owl#Thing
p475
aVhttp://xmlns.com/foaf/0.1/Person
p476
aVhttp://dbpedia.org/ontology/Person
p477
aVhttp://www.ontologydesignpatterns.org/ont/dul/DUL.owl#Agent
p478
aVhttp://www.ontologydesignpatterns.org/ont/dul/DUL.owl#NaturalPerson
p479
aVhttp://www.wikidata.org/entity/Q215627
p480
aVhttp://www.wikidata.org/entity/Q2566598
p481
aVhttp://www.wikidata.org/entity/Q5
p482
aVhttp://dbpedia.org/ontology/Agent
p483
aVhttp://dbpedia.org/ontology/Religious
p484
aVhttp://schema.org/Person
p485
aVhttp://dbpedia.org/class/yago/CouncillorsInNorthernIreland
p486
aVhttp://dbpedia.org/class/yago/NorthernIrelandLabourPartyPoliticians
p487
aVhttp://dbpedia.org/class/yago/PeopleFromGlasgow
p488
aVhttp://dbpedia.org/class/yago/YagoLegalActor
p489
aVhttp://dbpedia.org/class/yago/LeadersOfPoliticalPartiesInNorthernIreland
p490
aVhttp://dbpedia.org/class/yago/PhysicalEntity100001930
p491
aVhttp://dbpedia.org/class/yago/UlsterLiberalPartyPoliticians
p492
aVhttp://dbpedia.org/resource/Albert_McElroy
tp493
aaa(lp494
(lp495
a(lp496
a(lp497
((lp498
Vhttp://dbpedia.org/class/yago/AlumniOfExeterCollege,Oxford
p499
aVhttp://dbpedia.org/class/yago/Alumnus109786338
p500
aVhttp://dbpedia.org/class/yago/BritishBuddhistMonks
p501
aVhttp://dbpedia.org/class/yago/BuddhistStudiesScholars
p502
aVhttp://dbpedia.org/class/yago/CausalAgent100007347
p503
aVhttp://dbpedia.org/class/yago/Convert109962414
p504
aVhttp://dbpedia.org/class/yago/Intellectual109621545
p505
aVhttp://dbpedia.org/class/yago/LivingThing100004258
p506
aVhttp://dbpedia.org/class/yago/Monk110112129
p507
aVhttp://dbpedia.org/class/yago/Object100002684
p508
aVhttp://dbpedia.org/class/yago/Organism100004475
p509
aVhttp://dbpedia.org/class/yago/Person100007846
p510
aVhttp://dbpedia.org/class/yago/ReligiousPerson109628382
p511
aVhttp://dbpedia.org/class/yago/Scholar110557854
p512
aVhttp://dbpedia.org/class/yago/Whole100003553
p513
aVhttp://dbpedia.org/class/yago/YagoLegalActorGeo
p514
aVhttp://www.w3.org/2002/07/owl#Thing
p515
aVhttp://xmlns.com/foaf/0.1/Person
p516
aVhttp://dbpedia.org/ontology/Person
p517
aVhttp://www.ontologydesignpatterns.org/ont/dul/DUL.owl#Agent
p518
aVhttp://www.ontologydesignpatterns.org/ont/dul/DUL.owl#NaturalPerson
p519
aVhttp://www.wikidata.org/entity/Q215627
p520
aVhttp://www.wikidata.org/entity/Q2566598
p521
aVhttp://www.wikidata.org/entity/Q5
p522
aVhttp://dbpedia.org/ontology/Agent
p523
aVhttp://dbpedia.org/ontology/Religious
p524
aVhttp://schema.org/Person
p525
aVhttp://dbpedia.org/class/yago/ConvertsToBuddhism
p526
aVhttp://dbpedia.org/class/yago/YagoLegalActor
p527
aVhttp://dbpedia.org/class/yago/PhysicalEntity100001930
p528
aVhttp://dbpedia.org/class/yago/Religious110518602
p529
aVhttp://dbpedia.org/class/yago/TheravadaBuddhistMonks
p530
aVhttp://dbpedia.org/resource/Nanamoli_Bhikkhu
p531
tp532
aaa(lp533
(lp534
a(lp535
a(lp536
aa.