ccollections
defaultdict
p1
(c__builtin__
dict
p2
tRp3
I0
(dp4
I1
(lp5
ssI4
(dp6
I1
(lp7
ssI5
(dp8
I1
(lp9
ssI6
(dp10
I1
(lp11
ssI7
(dp12
I1
(lp13
ssI9
(dp14
I1
(lp15
ssI11
(dp16
I1
(lp17
ssI13
(dp18
I1
(lp19
ssI15
(dp20
I1
(lp21
ssI16
(dp22
I1
(lp23
ssI18
(dp24
I1
(lp25
ss.