(lp1
(dp2
I0
(dp3
I0
(lp4
sI1
(lp5
sI2
(lp6
sI3
(lp7
sI4
(lp8
sI5
(lp9
Vhttp://dbpedia.org/ontology/abstract
p10
aVhttp://www.w3.org/2000/01/rdf-schema#label
p11
aVhttp://www.w3.org/2000/01/rdf-schema#comment
p12
asI6
(lp13
Vhttp://dbpedia.org/ontology/abstract
p14
aVhttp://www.w3.org/2000/01/rdf-schema#label
p15
aVhttp://www.w3.org/2000/01/rdf-schema#comment
p16
asI7
(lp17
Vhttp://dbpedia.org/ontology/abstract
p18
aVhttp://www.w3.org/2000/01/rdf-schema#label
p19
aVhttp://www.w3.org/2000/01/rdf-schema#comment
p20
asI8
(lp21
Vhttp://dbpedia.org/ontology/abstract
p22
aVhttp://www.w3.org/2000/01/rdf-schema#label
p23
aVhttp://www.w3.org/2000/01/rdf-schema#comment
p24
asI9
(lp25
sI10
(lp26
sI11
(lp27
sI12
(lp28
sI13
(lp29
sI14
(lp30
sI15
(lp31
sI16
(lp32
sI17
(lp33
sI18
(lp34
ssI1
(dp35
I0
g5
sI1
(lp36
sI2
(lp37
sI3
(lp38
sI4
(lp39
sI5
(lp40
sI6
(lp41
sI7
(lp42
sI8
(lp43
sI9
(lp44
sI10
(lp45
sI11
(lp46
sI12
(lp47
sI13
(lp48
sI14
(lp49
sI15
(lp50
sI16
(lp51
sI17
(lp52
sI18
(lp53
ssI2
(dp54
I0
g6
sI1
g37
sI2
(lp55
sI3
(lp56
sI4
(lp57
sI5
(lp58
sI6
(lp59
sI7
(lp60
sI8
(lp61
sI9
(lp62
sI10
(lp63
sI11
(lp64
sI12
(lp65
sI13
(lp66
sI14
(lp67
sI15
(lp68
sI16
(lp69
sI17
(lp70
sI18
(lp71
ssI3
(dp72
I0
g7
sI1
g38
sI2
g56
sI3
(lp73
sI4
(lp74
sI5
(lp75
sI6
(lp76
sI7
(lp77
sI8
(lp78
sI9
(lp79
sI10
(lp80
sI11
(lp81
sI12
(lp82
sI13
(lp83
sI14
(lp84
sI15
(lp85
sI16
(lp86
sI17
(lp87
sI18
(lp88
ssI4
(dp89
I0
g8
sI1
g39
sI2
g57
sI3
g74
sI4
(lp90
sI5
(lp91
sI6
(lp92
sI7
(lp93
sI8
(lp94
sI9
(lp95
sI10
(lp96
sI11
(lp97
sI12
(lp98
sI13
(lp99
sI14
(lp100
sI15
(lp101
sI16
(lp102
sI17
(lp103
sI18
(lp104
ssI5
(dp105
I0
g9
sI1
g40
sI2
g58
sI3
g75
sI4
g91
sI5
(lp106
sI6
(lp107
sI7
(lp108
sI8
(lp109
sI9
(lp110
sI10
(lp111
sI11
(lp112
sI12
(lp113
sI13
(lp114
sI14
(lp115
sI15
(lp116
sI16
(lp117
sI17
(lp118
sI18
(lp119
ssI6
(dp120
I0
g13
sI1
g41
sI2
g59
sI3
g76
sI4
g92
sI5
g107
sI6
(lp121
sI7
(lp122
Vhttp://dbpedia.org/ontology/abstract
p123
asI8
(lp124
sI9
(lp125
sI10
(lp126
sI11
(lp127
sI12
(lp128
sI13
(lp129
sI14
(lp130
sI15
(lp131
sI16
(lp132
sI17
(lp133
sI18
(lp134
ssI7
(dp135
I0
g17
sI1
g42
sI2
g60
sI3
g77
sI4
g93
sI5
g108
sI6
g122
sI7
(lp136
sI8
(lp137
sI9
(lp138
sI10
(lp139
sI11
(lp140
sI12
(lp141
sI13
(lp142
sI14
(lp143
sI15
(lp144
sI16
(lp145
sI17
(lp146
sI18
(lp147
ssI8
(dp148
I0
g21
sI1
g43
sI2
g61
sI3
g78
sI4
g94
sI5
g109
sI6
g124
sI7
g137
sI8
(lp149
sI9
(lp150
sI10
(lp151
sI11
(lp152
sI12
(lp153
sI13
(lp154
sI14
(lp155
sI15
(lp156
sI16
(lp157
sI17
(lp158
sI18
(lp159
ssI9
(dp160
I0
g25
sI1
g44
sI2
g62
sI3
g79
sI4
g95
sI5
g110
sI6
g125
sI7
g138
sI8
g150
sI9
(lp161
sI10
(lp162
sI11
(lp163
sI12
(lp164
sI13
(lp165
sI14
(lp166
sI15
(lp167
sI16
(lp168
sI17
(lp169
sI18
(lp170
ssI10
(dp171
I0
g26
sI1
g45
sI2
g63
sI3
g80
sI4
g96
sI5
g111
sI6
g126
sI7
g139
sI8
g151
sI9
g162
sI10
(lp172
sI11
(lp173
sI12
(lp174
sI13
(lp175
sI14
(lp176
sI15
(lp177
sI16
(lp178
sI17
(lp179
sI18
(lp180
ssI11
(dp181
I0
g27
sI1
g46
sI2
g64
sI3
g81
sI4
g97
sI5
g112
sI6
g127
sI7
g140
sI8
g152
sI9
g163
sI10
g173
sI11
(lp182
sI12
(lp183
sI13
(lp184
sI14
(lp185
sI15
(lp186
sI16
(lp187
sI17
(lp188
sI18
(lp189
ssI12
(dp190
I0
g28
sI1
g47
sI2
g65
sI3
g82
sI4
g98
sI5
g113
sI6
g128
sI7
g141
sI8
g153
sI9
g164
sI10
g174
sI11
g183
sI12
(lp191
sI13
(lp192
Vhttp://dbpedia.org/ontology/abstract
p193
aVhttp://www.w3.org/2000/01/rdf-schema#label
p194
aVhttp://www.w3.org/2000/01/rdf-schema#comment
p195
asI14
(lp196
sI15
(lp197
sI16
(lp198
sI17
(lp199
sI18
(lp200
ssI13
(dp201
I0
g29
sI1
g48
sI2
g66
sI3
g83
sI4
g99
sI5
g114
sI6
g129
sI7
g142
sI8
g154
sI9
g165
sI10
g175
sI11
g184
sI12
g192
sI13
(lp202
sI14
(lp203
sI15
(lp204
sI16
(lp205
sI17
(lp206
sI18
(lp207
ssI14
(dp208
I0
g30
sI1
g49
sI2
g67
sI3
g84
sI4
g100
sI5
g115
sI6
g130
sI7
g143
sI8
g155
sI9
g166
sI10
g176
sI11
g185
sI12
g196
sI13
g203
sI14
(lp209
sI15
(lp210
sI16
(lp211
sI17
(lp212
sI18
(lp213
ssI15
(dp214
I0
g31
sI1
g50
sI2
g68
sI3
g85
sI4
g101
sI5
g116
sI6
g131
sI7
g144
sI8
g156
sI9
g167
sI10
g177
sI11
g186
sI12
g197
sI13
g204
sI14
g210
sI15
(lp215
sI16
(lp216
sI17
(lp217
sI18
(lp218
ssI16
(dp219
I0
g32
sI1
g51
sI2
g69
sI3
g86
sI4
g102
sI5
g117
sI6
g132
sI7
g145
sI8
g157
sI9
g168
sI10
g178
sI11
g187
sI12
g198
sI13
g205
sI14
g211
sI15
g216
sI16
(lp220
sI17
(lp221
sI18
(lp222
ssI17
(dp223
I0
g33
sI1
g52
sI2
g70
sI3
g87
sI4
g103
sI5
g118
sI6
g133
sI7
g146
sI8
g158
sI9
g169
sI10
g179
sI11
g188
sI12
g199
sI13
g206
sI14
g212
sI15
g217
sI16
g221
sI17
(lp224
sI18
(lp225
ssI18
(dp226
I0
g34
sI1
g53
sI2
g71
sI3
g88
sI4
g104
sI5
g119
sI6
g134
sI7
g147
sI8
g159
sI9
g170
sI10
g180
sI11
g189
sI12
g200
sI13
g207
sI14
g213
sI15
g218
sI16
g222
sI17
g225
sI18
(lp227
ssa.