(lp1
(lp2
(lp3
Vhttp://dbpedia.org/resource/Akanksha_Singh
p4
aa(lp5
Vhttp://dbpedia.org/resource/Jamelle_Holieway
p6
aa(lp7
Vhttp://dbpedia.org/resource/Justin_Anderson_(running_back)
p8
aa(lp9
Vhttp://dbpedia.org/resource/Scott_Bacigalupo
p10
aa(lp11
Vhttp://dbpedia.org/resource/Tyrone_Prothro
p12
aa(lp13
Vhttp://dbpedia.org/resource/Brandon_Corp
p14
aa(lp15
Vhttp://dbpedia.org/resource/Angie_Bjorklund
p16
aa(lp17
Vhttp://dbpedia.org/resource/Shawntinice_Polk
p18
aa(lp19
Vhttp://dbpedia.org/resource/Shea_Ralph
p20
aa(lp21
Vhttp://dbpedia.org/resource/Chuck_Hartlieb
p22
aa(lp23
Vhttp://dbpedia.org/resource/Greg_Koubek
p24
aa(lp25
Vhttp://dbpedia.org/resource/Jeff_Taylor_(basketball)
p26
aa(lp27
Vhttp://dbpedia.org/resource/Brian_Sloan
p28
aa(lp29
Vhttp://dbpedia.org/resource/Scott_Sellers
p30
aa(lp31
Vhttp://dbpedia.org/resource/Beatrice_Bofia
p32
aa(lp33
Vhttp://dbpedia.org/resource/Eshaunte_Jones
p34
aa(lp35
Vhttp://dbpedia.org/resource/Reggie_Campbell
p36
aa(lp37
a(lp38
Vhttp://dbpedia.org/resource/Dave_Campbell_(American_football)
p39
aaa.