(lp1
(lp2
(lp3
((lp4
Vhttp://www.w3.org/2002/07/owl#Thing
p5
aVhttp://xmlns.com/foaf/0.1/Person
p6
aVhttp://dbpedia.org/ontology/Person
p7
aVhttp://www.ontologydesignpatterns.org/ont/dul/DUL.owl#Agent
p8
aVhttp://www.ontologydesignpatterns.org/ont/dul/DUL.owl#NaturalPerson
p9
aVhttp://www.wikidata.org/entity/Q215627
p10
aVhttp://www.wikidata.org/entity/Q5
p11
aVhttp://dbpedia.org/ontology/Agent
p12
aVhttp://dbpedia.org/ontology/Baronet
p13
aVhttp://dbpedia.org/ontology/BritishRoyalty
p14
aVhttp://dbpedia.org/ontology/Royalty
p15
aVhttp://schema.org/Person
p16
aVhttp://dbpedia.org/resource/Puleston_baronets
p17
tp18
aa(lp19
a(lp20
aa(lp21
(lp22
a(lp23
a(lp24
aa.