(lp1
(lp2
(lp3
a(lp4
a(lp5
a(lp6
aa(lp7
(lp8
a(lp9
a(lp10
a(lp11
aa(lp12
(lp13
a(lp14
((lp15
Vhttp://dbpedia.org/class/yago/Abstraction100002137
p16
aVhttp://dbpedia.org/class/yago/Currency113385913
p17
aVhttp://dbpedia.org/class/yago/Standard107260623
p18
aVhttp://dbpedia.org/class/yago/SystemOfMeasurement113577171
p19
aVhttp://www.w3.org/2002/07/owl#Thing
p20
aVhttp://dbpedia.org/ontology/Currency
p21
aVhttp://umbel.org/umbel/rc/Currency
p22
aVhttp://dbpedia.org/class/yago/CurrenciesOfEurope
p23
aVhttp://dbpedia.org/class/yago/Measure100033615
p24
aVhttp://dbpedia.org/class/yago/MediumOfExchange113372961
p25
aVhttp://dbpedia.org/resource/Armenian_dram
tp26
aa(lp27
a(lp28
aa(lp29
(lp30
a(lp31
((lp32
Vhttp://dbpedia.org/class/yago/Abstraction100002137
p33
aVhttp://dbpedia.org/class/yago/Currency113385913
p34
aVhttp://dbpedia.org/class/yago/Standard107260623
p35
aVhttp://dbpedia.org/class/yago/SystemOfMeasurement113577171
p36
aVhttp://www.w3.org/2002/07/owl#Thing
p37
aVhttp://dbpedia.org/ontology/Currency
p38
aVhttp://umbel.org/umbel/rc/Currency
p39
aVhttp://dbpedia.org/class/yago/Measure100033615
p40
aVhttp://dbpedia.org/class/yago/MediumOfExchange113372961
p41
aVhttp://dbpedia.org/resource/CFP_franc
tp42
aa(lp43
a(lp44
aa(lp45
(lp46
a(lp47
((lp48
Vhttp://dbpedia.org/class/yago/Abstraction100002137
p49
aVhttp://dbpedia.org/class/yago/Communication100033020
p50
aVhttp://dbpedia.org/class/yago/Currency113385913
p51
aVhttp://dbpedia.org/class/yago/Evidence106643408
p52
aVhttp://dbpedia.org/class/yago/Sign106646243
p53
aVhttp://dbpedia.org/class/yago/Standard107260623
p54
aVhttp://dbpedia.org/class/yago/SystemOfMeasurement113577171
p55
aVhttp://www.w3.org/2002/07/owl#Thing
p56
aVhttp://dbpedia.org/ontology/Currency
p57
aVhttp://umbel.org/umbel/rc/Currency
p58
aVhttp://dbpedia.org/class/yago/CirculatingCurrencies
p59
aVhttp://dbpedia.org/class/yago/Clue106643763
p60
aVhttp://dbpedia.org/class/yago/CurrenciesOfCambodia
p61
aVhttp://dbpedia.org/class/yago/CurrencySigns
p62
aVhttp://dbpedia.org/class/yago/Indication106797169
p63
aVhttp://dbpedia.org/class/yago/Measure100033615
p64
aVhttp://dbpedia.org/class/yago/MediumOfExchange113372961
p65
aVhttp://dbpedia.org/resource/Cambodian_riel
tp66
aa(lp67
a(lp68
aa(lp69
(lp70
a(lp71
((lp72
Vhttp://dbpedia.org/class/yago/Abstraction100002137
p73
aVhttp://dbpedia.org/class/yago/Currency113385913
p74
aVhttp://dbpedia.org/class/yago/Standard107260623
p75
aVhttp://dbpedia.org/class/yago/SystemOfMeasurement113577171
p76
aVhttp://www.w3.org/2002/07/owl#Thing
p77
aVhttp://dbpedia.org/ontology/Currency
p78
aVhttp://umbel.org/umbel/rc/Currency
p79
aVhttp://dbpedia.org/class/yago/Measure100033615
p80
aVhttp://dbpedia.org/class/yago/MediumOfExchange113372961
p81
aVhttp://dbpedia.org/resource/Haitian_gourde
tp82
aa(lp83
a(lp84
aa(lp85
(lp86
a(lp87
((lp88
Vhttp://dbpedia.org/class/yago/Abstraction100002137
p89
aVhttp://dbpedia.org/class/yago/Currency113385913
p90
aVhttp://dbpedia.org/class/yago/Standard107260623
p91
aVhttp://dbpedia.org/class/yago/SystemOfMeasurement113577171
p92
aVhttp://www.w3.org/2002/07/owl#Thing
p93
aVhttp://dbpedia.org/ontology/Currency
p94
aVhttp://umbel.org/umbel/rc/Currency
p95
aVhttp://dbpedia.org/class/yago/Measure100033615
p96
aVhttp://dbpedia.org/class/yago/MediumOfExchange113372961
p97
aVhttp://dbpedia.org/resource/Iranian_rial
tp98
aa(lp99
a(lp100
aa(lp101
(lp102
a(lp103
((lp104
Vhttp://dbpedia.org/class/yago/Abstraction100002137
p105
aVhttp://dbpedia.org/class/yago/Currency113385913
p106
aVhttp://dbpedia.org/class/yago/Standard107260623
p107
aVhttp://dbpedia.org/class/yago/SystemOfMeasurement113577171
p108
aVhttp://www.w3.org/2002/07/owl#Thing
p109
aVhttp://dbpedia.org/ontology/Currency
p110
aVhttp://umbel.org/umbel/rc/Currency
p111
aVhttp://dbpedia.org/class/yago/Measure100033615
p112
aVhttp://dbpedia.org/class/yago/MediumOfExchange113372961
p113
aVhttp://dbpedia.org/resource/Kuwaiti_dinar
tp114
aa(lp115
a(lp116
aa(lp117
(lp118
a(lp119
((lp120
Vhttp://dbpedia.org/class/yago/Abstraction100002137
p121
aVhttp://dbpedia.org/class/yago/Currency113385913
p122
aVhttp://dbpedia.org/class/yago/Standard107260623
p123
aVhttp://dbpedia.org/class/yago/SystemOfMeasurement113577171
p124
aVhttp://www.w3.org/2002/07/owl#Thing
p125
aVhttp://dbpedia.org/ontology/Currency
p126
aVhttp://umbel.org/umbel/rc/Currency
p127
aVhttp://dbpedia.org/class/yago/CurrenciesOfTheBritishCrownDependencies
p128
aVhttp://dbpedia.org/class/yago/Measure100033615
p129
aVhttp://dbpedia.org/class/yago/MediumOfExchange113372961
p130
aVhttp://dbpedia.org/resource/Manx_pound
tp131
aa(lp132
a(lp133
aa(lp134
(lp135
a(lp136
a(lp137
a(lp138
aa(lp139
(lp140
a(lp141
((lp142
Vhttp://dbpedia.org/class/yago/Abstraction100002137
p143
aVhttp://dbpedia.org/class/yago/Currency113385913
p144
aVhttp://dbpedia.org/class/yago/Standard107260623
p145
aVhttp://dbpedia.org/class/yago/SystemOfMeasurement113577171
p146
aVhttp://www.w3.org/2002/07/owl#Thing
p147
aVhttp://dbpedia.org/ontology/Currency
p148
aVhttp://umbel.org/umbel/rc/Currency
p149
aVhttp://dbpedia.org/class/yago/Measure100033615
p150
aVhttp://dbpedia.org/class/yago/MediumOfExchange113372961
p151
aVhttp://dbpedia.org/resource/Omani_rial
tp152
aa(lp153
a(lp154
aa(lp155
(lp156
a(lp157
((lp158
Vhttp://dbpedia.org/class/yago/Abstraction100002137
p159
aVhttp://dbpedia.org/class/yago/Currency113385913
p160
aVhttp://dbpedia.org/class/yago/Standard107260623
p161
aVhttp://dbpedia.org/class/yago/SystemOfMeasurement113577171
p162
aVhttp://www.w3.org/2002/07/owl#Thing
p163
aVhttp://dbpedia.org/ontology/Currency
p164
aVhttp://umbel.org/umbel/rc/Currency
p165
aVhttp://dbpedia.org/class/yago/CirculatingCurrencies
p166
aVhttp://dbpedia.org/class/yago/CurrenciesOfPapuaNewGuinea
p167
aVhttp://dbpedia.org/class/yago/Measure100033615
p168
aVhttp://dbpedia.org/class/yago/MediumOfExchange113372961
p169
aVhttp://dbpedia.org/resource/Papua_New_Guinean_kina
tp170
aa(lp171
a(lp172
aa(lp173
(lp174
a(lp175
((lp176
Vhttp://dbpedia.org/class/yago/Abstraction100002137
p177
aVhttp://dbpedia.org/class/yago/Currency113385913
p178
aVhttp://dbpedia.org/class/yago/Standard107260623
p179
aVhttp://dbpedia.org/class/yago/SystemOfMeasurement113577171
p180
aVhttp://www.w3.org/2002/07/owl#Thing
p181
aVhttp://dbpedia.org/ontology/Currency
p182
aVhttp://umbel.org/umbel/rc/Currency
p183
aVhttp://dbpedia.org/class/yago/Measure100033615
p184
aVhttp://dbpedia.org/class/yago/MediumOfExchange113372961
p185
aVhttp://dbpedia.org/resource/Qatari_riyal
tp186
aa(lp187
a(lp188
aa(lp189
(lp190
a(lp191
((lp192
Vhttp://dbpedia.org/class/yago/Abstraction100002137
p193
aVhttp://dbpedia.org/class/yago/Currency113385913
p194
aVhttp://dbpedia.org/class/yago/Standard107260623
p195
aVhttp://dbpedia.org/class/yago/SystemOfMeasurement113577171
p196
aVhttp://www.w3.org/2002/07/owl#Thing
p197
aVhttp://dbpedia.org/ontology/Currency
p198
aVhttp://umbel.org/umbel/rc/Currency
p199
aVhttp://dbpedia.org/class/yago/CurrenciesOfRussia
p200
aVhttp://dbpedia.org/class/yago/Measure100033615
p201
aVhttp://dbpedia.org/class/yago/MediumOfExchange113372961
p202
aVhttp://dbpedia.org/resource/Russian_ruble
tp203
aa(lp204
a(lp205
aa(lp206
(lp207
a(lp208
((lp209
Vhttp://dbpedia.org/class/yago/Abstraction100002137
p210
aVhttp://dbpedia.org/class/yago/Currency113385913
p211
aVhttp://dbpedia.org/class/yago/Standard107260623
p212
aVhttp://dbpedia.org/class/yago/SystemOfMeasurement113577171
p213
aVhttp://www.w3.org/2002/07/owl#Thing
p214
aVhttp://dbpedia.org/ontology/Currency
p215
aVhttp://umbel.org/umbel/rc/Currency
p216
aVhttp://dbpedia.org/class/yago/CirculatingCurrencies
p217
aVhttp://dbpedia.org/class/yago/CurrenciesOfEurope
p218
aVhttp://dbpedia.org/class/yago/CurrenciesOfSerbia
p219
aVhttp://dbpedia.org/class/yago/Measure100033615
p220
aVhttp://dbpedia.org/class/yago/MediumOfExchange113372961
p221
aVhttp://dbpedia.org/resource/Serbian_dinar
tp222
aa(lp223
a(lp224
aa(lp225
(lp226
a(lp227
((lp228
Vhttp://dbpedia.org/class/yago/Abstraction100002137
p229
aVhttp://dbpedia.org/class/yago/BanknotesOfTurkey
p230
aVhttp://dbpedia.org/class/yago/Bill113393762
p231
aVhttp://dbpedia.org/class/yago/Currency113385913
p232
aVhttp://dbpedia.org/class/yago/PaperMoney113387209
p233
aVhttp://dbpedia.org/class/yago/Standard107260623
p234
aVhttp://dbpedia.org/class/yago/SystemOfMeasurement113577171
p235
aVhttp://www.w3.org/2002/07/owl#Thing
p236
aVhttp://dbpedia.org/ontology/Currency
p237
aVhttp://umbel.org/umbel/rc/Currency
p238
aVhttp://dbpedia.org/class/yago/CurrenciesOfTurkey
p239
aVhttp://dbpedia.org/class/yago/Measure100033615
p240
aVhttp://dbpedia.org/class/yago/MediumOfExchange113372961
p241
aVhttp://dbpedia.org/resource/Turkish_lira
tp242
aa(lp243
a(lp244
aa(lp245
(lp246
a(lp247
((lp248
Vhttp://dbpedia.org/class/yago/Abstraction100002137
p249
aVhttp://dbpedia.org/class/yago/Currency113385913
p250
aVhttp://dbpedia.org/class/yago/Standard107260623
p251
aVhttp://dbpedia.org/class/yago/SystemOfMeasurement113577171
p252
aVhttp://www.w3.org/2002/07/owl#Thing
p253
aVhttp://dbpedia.org/ontology/Currency
p254
aVhttp://umbel.org/umbel/rc/Currency
p255
aVhttp://dbpedia.org/class/yago/Measure100033615
p256
aVhttp://dbpedia.org/class/yago/MediumOfExchange113372961
p257
aVhttp://dbpedia.org/resource/Yemeni_rial
tp258
aa(lp259
a(lp260
aa(lp261
(lp262
a(lp263
((lp264
Vhttp://dbpedia.org/class/yago/Abstraction100002137
p265
aVhttp://dbpedia.org/class/yago/Currency113385913
p266
aVhttp://dbpedia.org/class/yago/Standard107260623
p267
aVhttp://dbpedia.org/class/yago/SystemOfMeasurement113577171
p268
aVhttp://www.w3.org/2002/07/owl#Thing
p269
aVhttp://dbpedia.org/ontology/Currency
p270
aVhttp://umbel.org/umbel/rc/Currency
p271
aVhttp://dbpedia.org/class/yago/CirculatingCurrencies
p272
aVhttp://dbpedia.org/class/yago/Measure100033615
p273
aVhttp://dbpedia.org/class/yago/MediumOfExchange113372961
p274
aVhttp://dbpedia.org/resource/Kyrgyzstani_som
tp275
aa(lp276
a(lp277
aa(lp278
(lp279
a(lp280
((lp281
Vhttp://dbpedia.org/class/yago/Abstraction100002137
p282
aVhttp://dbpedia.org/class/yago/Currency113385913
p283
aVhttp://dbpedia.org/class/yago/Standard107260623
p284
aVhttp://dbpedia.org/class/yago/SystemOfMeasurement113577171
p285
aVhttp://www.w3.org/2002/07/owl#Thing
p286
aVhttp://dbpedia.org/ontology/Currency
p287
aVhttp://umbel.org/umbel/rc/Currency
p288
aVhttp://dbpedia.org/class/yago/Measure100033615
p289
aVhttp://dbpedia.org/class/yago/MediumOfExchange113372961
p290
aVhttp://dbpedia.org/resource/Bangladeshi_taka
p291
tp292
aa(lp293
a(lp294
aa.