(lp1
(lp2
(lp3
((lp4
Vhttp://dbpedia.org/class/yago/AnimalTissue105267548
p5
aVhttp://dbpedia.org/class/yago/BodyPart105220461
p6
aVhttp://dbpedia.org/class/yago/ConnectiveTissue105286536
p7
aVhttp://dbpedia.org/class/yago/Part109385911
p8
aVhttp://dbpedia.org/class/yago/Thing100002452
p9
aVhttp://dbpedia.org/class/yago/Tissue105267345
p10
aVhttp://www.w3.org/2002/07/owl#Thing
p11
aVhttp://www.wikidata.org/entity/Q39888
p12
aVhttp://www.wikidata.org/entity/Q4936952
p13
aVhttp://dbpedia.org/ontology/AnatomicalStructure
p14
aVhttp://dbpedia.org/ontology/Ligament
p15
aVhttp://dbpedia.org/class/yago/Ligament105295381
p16
aVhttp://dbpedia.org/class/yago/Ligaments
p17
aVhttp://dbpedia.org/class/yago/PhysicalEntity100001930
p18
aVhttp://dbpedia.org/resource/Interosseous_cuneocuboid_ligament
tp19
aa(lp20
((lp21
Vhttp://dbpedia.org/class/yago/AnimalTissue105267548
p22
aVhttp://dbpedia.org/class/yago/BodyPart105220461
p23
aVhttp://dbpedia.org/class/yago/ConnectiveTissue105286536
p24
aVhttp://dbpedia.org/class/yago/Part109385911
p25
aVhttp://dbpedia.org/class/yago/Thing100002452
p26
aVhttp://dbpedia.org/class/yago/Tissue105267345
p27
aVhttp://www.w3.org/2002/07/owl#Thing
p28
aVhttp://www.wikidata.org/entity/Q39888
p29
aVhttp://www.wikidata.org/entity/Q4936952
p30
aVhttp://dbpedia.org/ontology/AnatomicalStructure
p31
aVhttp://dbpedia.org/ontology/Ligament
p32
aVhttp://dbpedia.org/class/yago/Ligament105295381
p33
aVhttp://dbpedia.org/class/yago/LigamentsOfTheLowerLimb
p34
aVhttp://dbpedia.org/class/yago/PhysicalEntity100001930
p35
aVhttp://dbpedia.org/resource/Interosseous_metatarsal_ligaments
tp36
aa(lp37
((lp38
Vhttp://dbpedia.org/class/yago/AnimalTissue105267548
p39
aVhttp://dbpedia.org/class/yago/BodyPart105220461
p40
aVhttp://dbpedia.org/class/yago/ConnectiveTissue105286536
p41
aVhttp://dbpedia.org/class/yago/Part109385911
p42
aVhttp://dbpedia.org/class/yago/Thing100002452
p43
aVhttp://dbpedia.org/class/yago/Tissue105267345
p44
aVhttp://www.w3.org/2002/07/owl#Thing
p45
aVhttp://www.wikidata.org/entity/Q39888
p46
aVhttp://www.wikidata.org/entity/Q4936952
p47
aVhttp://dbpedia.org/ontology/AnatomicalStructure
p48
aVhttp://dbpedia.org/ontology/Ligament
p49
aVhttp://dbpedia.org/class/yago/Ligament105295381
p50
aVhttp://dbpedia.org/class/yago/LigamentsOfTheLowerLimb
p51
aVhttp://dbpedia.org/class/yago/PhysicalEntity100001930
p52
aVhttp://dbpedia.org/resource/Interosseous_intercuneiform_ligaments
tp53
aa(lp54
((lp55
Vhttp://dbpedia.org/class/yago/AnimalTissue105267548
p56
aVhttp://dbpedia.org/class/yago/BodyPart105220461
p57
aVhttp://dbpedia.org/class/yago/ConnectiveTissue105286536
p58
aVhttp://dbpedia.org/class/yago/Part109385911
p59
aVhttp://dbpedia.org/class/yago/Thing100002452
p60
aVhttp://dbpedia.org/class/yago/Tissue105267345
p61
aVhttp://www.w3.org/2002/07/owl#Thing
p62
aVhttp://www.wikidata.org/entity/Q39888
p63
aVhttp://www.wikidata.org/entity/Q4936952
p64
aVhttp://dbpedia.org/ontology/AnatomicalStructure
p65
aVhttp://dbpedia.org/ontology/Ligament
p66
aVhttp://dbpedia.org/class/yago/Ligament105295381
p67
aVhttp://dbpedia.org/class/yago/Ligaments
p68
aVhttp://dbpedia.org/class/yago/PhysicalEntity100001930
p69
aVhttp://dbpedia.org/resource/Interosseous_cuneometatarsal_ligaments
tp70
aa(lp71
((lp72
Vhttp://dbpedia.org/class/yago/AnimalTissue105267548
p73
aVhttp://dbpedia.org/class/yago/BodyPart105220461
p74
aVhttp://dbpedia.org/class/yago/ConnectiveTissue105286536
p75
aVhttp://dbpedia.org/class/yago/Part109385911
p76
aVhttp://dbpedia.org/class/yago/Thing100002452
p77
aVhttp://dbpedia.org/class/yago/Tissue105267345
p78
aVhttp://www.w3.org/2002/07/owl#Thing
p79
aVhttp://www.wikidata.org/entity/Q39888
p80
aVhttp://www.wikidata.org/entity/Q4936952
p81
aVhttp://dbpedia.org/ontology/AnatomicalStructure
p82
aVhttp://dbpedia.org/ontology/Ligament
p83
aVhttp://dbpedia.org/class/yago/Ligament105295381
p84
aVhttp://dbpedia.org/class/yago/LigamentsOfTheUpperLimb
p85
aVhttp://dbpedia.org/class/yago/PhysicalEntity100001930
p86
aVhttp://dbpedia.org/resource/Palmar_carpometacarpal_ligaments
tp87
aa(lp88
((lp89
Vhttp://dbpedia.org/class/yago/AnimalTissue105267548
p90
aVhttp://dbpedia.org/class/yago/BodyPart105220461
p91
aVhttp://dbpedia.org/class/yago/ConnectiveTissue105286536
p92
aVhttp://dbpedia.org/class/yago/Part109385911
p93
aVhttp://dbpedia.org/class/yago/Thing100002452
p94
aVhttp://dbpedia.org/class/yago/Tissue105267345
p95
aVhttp://www.w3.org/2002/07/owl#Thing
p96
aVhttp://www.wikidata.org/entity/Q39888
p97
aVhttp://www.wikidata.org/entity/Q4936952
p98
aVhttp://dbpedia.org/ontology/AnatomicalStructure
p99
aVhttp://dbpedia.org/ontology/Ligament
p100
aVhttp://dbpedia.org/class/yago/Ligament105295381
p101
aVhttp://dbpedia.org/class/yago/Ligaments
p102
aVhttp://dbpedia.org/class/yago/PhysicalEntity100001930
p103
aVhttp://dbpedia.org/resource/Palmar_carpal_ligament
tp104
aa(lp105
((lp106
Vhttp://dbpedia.org/class/yago/AnimalTissue105267548
p107
aVhttp://dbpedia.org/class/yago/BodyPart105220461
p108
aVhttp://dbpedia.org/class/yago/ConnectiveTissue105286536
p109
aVhttp://dbpedia.org/class/yago/Part109385911
p110
aVhttp://dbpedia.org/class/yago/Thing100002452
p111
aVhttp://dbpedia.org/class/yago/Tissue105267345
p112
aVhttp://www.w3.org/2002/07/owl#Thing
p113
aVhttp://www.wikidata.org/entity/Q39888
p114
aVhttp://www.wikidata.org/entity/Q4936952
p115
aVhttp://dbpedia.org/ontology/AnatomicalStructure
p116
aVhttp://dbpedia.org/ontology/Ligament
p117
aVhttp://dbpedia.org/class/yago/Ligament105295381
p118
aVhttp://dbpedia.org/class/yago/LigamentsOfTheLowerLimb
p119
aVhttp://dbpedia.org/class/yago/PhysicalEntity100001930
p120
aVhttp://dbpedia.org/resource/Plantar_cuboideonavicular_ligament
tp121
aa(lp122
((lp123
Vhttp://dbpedia.org/class/yago/AnimalTissue105267548
p124
aVhttp://dbpedia.org/class/yago/BodyPart105220461
p125
aVhttp://dbpedia.org/class/yago/ConnectiveTissue105286536
p126
aVhttp://dbpedia.org/class/yago/Part109385911
p127
aVhttp://dbpedia.org/class/yago/Thing100002452
p128
aVhttp://dbpedia.org/class/yago/Tissue105267345
p129
aVhttp://www.w3.org/2002/07/owl#Thing
p130
aVhttp://www.wikidata.org/entity/Q39888
p131
aVhttp://www.wikidata.org/entity/Q4936952
p132
aVhttp://dbpedia.org/ontology/AnatomicalStructure
p133
aVhttp://dbpedia.org/ontology/Ligament
p134
aVhttp://dbpedia.org/class/yago/Ligament105295381
p135
aVhttp://dbpedia.org/class/yago/Ligaments
p136
aVhttp://dbpedia.org/class/yago/PhysicalEntity100001930
p137
aVhttp://dbpedia.org/resource/Plantar_cuneocuboid_ligament
tp138
aa(lp139
((lp140
Vhttp://dbpedia.org/class/yago/AnimalTissue105267548
p141
aVhttp://dbpedia.org/class/yago/BodyPart105220461
p142
aVhttp://dbpedia.org/class/yago/ConnectiveTissue105286536
p143
aVhttp://dbpedia.org/class/yago/Part109385911
p144
aVhttp://dbpedia.org/class/yago/Thing100002452
p145
aVhttp://dbpedia.org/class/yago/Tissue105267345
p146
aVhttp://www.w3.org/2002/07/owl#Thing
p147
aVhttp://www.wikidata.org/entity/Q39888
p148
aVhttp://www.wikidata.org/entity/Q4936952
p149
aVhttp://dbpedia.org/ontology/AnatomicalStructure
p150
aVhttp://dbpedia.org/ontology/Ligament
p151
aVhttp://dbpedia.org/class/yago/Ligament105295381
p152
aVhttp://dbpedia.org/class/yago/LigamentsOfTheLowerLimb
p153
aVhttp://dbpedia.org/class/yago/PhysicalEntity100001930
p154
aVhttp://dbpedia.org/resource/Plantar_cuneonavicular_ligaments
tp155
aa(lp156
((lp157
Vhttp://dbpedia.org/class/yago/AnimalTissue105267548
p158
aVhttp://dbpedia.org/class/yago/BodyPart105220461
p159
aVhttp://dbpedia.org/class/yago/ConnectiveTissue105286536
p160
aVhttp://dbpedia.org/class/yago/Part109385911
p161
aVhttp://dbpedia.org/class/yago/Thing100002452
p162
aVhttp://dbpedia.org/class/yago/Tissue105267345
p163
aVhttp://www.w3.org/2002/07/owl#Thing
p164
aVhttp://www.wikidata.org/entity/Q39888
p165
aVhttp://www.wikidata.org/entity/Q4936952
p166
aVhttp://dbpedia.org/ontology/AnatomicalStructure
p167
aVhttp://dbpedia.org/ontology/Ligament
p168
aVhttp://dbpedia.org/class/yago/Ligament105295381
p169
aVhttp://dbpedia.org/class/yago/LigamentsOfTheLowerLimb
p170
aVhttp://dbpedia.org/class/yago/PhysicalEntity100001930
p171
aVhttp://dbpedia.org/resource/Plantar_intercuneiform_ligaments
tp172
aa(lp173
((lp174
Vhttp://dbpedia.org/class/yago/AnimalTissue105267548
p175
aVhttp://dbpedia.org/class/yago/BodyPart105220461
p176
aVhttp://dbpedia.org/class/yago/ConnectiveTissue105286536
p177
aVhttp://dbpedia.org/class/yago/Part109385911
p178
aVhttp://dbpedia.org/class/yago/Thing100002452
p179
aVhttp://dbpedia.org/class/yago/Tissue105267345
p180
aVhttp://www.w3.org/2002/07/owl#Thing
p181
aVhttp://www.wikidata.org/entity/Q39888
p182
aVhttp://www.wikidata.org/entity/Q4936952
p183
aVhttp://dbpedia.org/ontology/AnatomicalStructure
p184
aVhttp://dbpedia.org/ontology/Ligament
p185
aVhttp://dbpedia.org/class/yago/Ligament105295381
p186
aVhttp://dbpedia.org/class/yago/LigamentsOfTheLowerLimb
p187
aVhttp://dbpedia.org/class/yago/PhysicalEntity100001930
p188
aVhttp://dbpedia.org/resource/Plantar_metatarsal_ligaments
tp189
aa(lp190
((lp191
Vhttp://dbpedia.org/class/yago/AnimalTissue105267548
p192
aVhttp://dbpedia.org/class/yago/BodyPart105220461
p193
aVhttp://dbpedia.org/class/yago/ConnectiveTissue105286536
p194
aVhttp://dbpedia.org/class/yago/Part109385911
p195
aVhttp://dbpedia.org/class/yago/Thing100002452
p196
aVhttp://dbpedia.org/class/yago/Tissue105267345
p197
aVhttp://www.w3.org/2002/07/owl#Thing
p198
aVhttp://www.wikidata.org/entity/Q39888
p199
aVhttp://www.wikidata.org/entity/Q4936952
p200
aVhttp://dbpedia.org/ontology/AnatomicalStructure
p201
aVhttp://dbpedia.org/ontology/Ligament
p202
aVhttp://dbpedia.org/class/yago/Ligament105295381
p203
aVhttp://dbpedia.org/class/yago/Ligaments
p204
aVhttp://dbpedia.org/class/yago/PhysicalEntity100001930
p205
aVhttp://dbpedia.org/resource/Superior_ligament_of_epididymis
tp206
aa(lp207
((lp208
Vhttp://dbpedia.org/class/yago/AnimalTissue105267548
p209
aVhttp://dbpedia.org/class/yago/BodyPart105220461
p210
aVhttp://dbpedia.org/class/yago/ConnectiveTissue105286536
p211
aVhttp://dbpedia.org/class/yago/Part109385911
p212
aVhttp://dbpedia.org/class/yago/Thing100002452
p213
aVhttp://dbpedia.org/class/yago/Tissue105267345
p214
aVhttp://www.w3.org/2002/07/owl#Thing
p215
aVhttp://www.wikidata.org/entity/Q39888
p216
aVhttp://www.wikidata.org/entity/Q4936952
p217
aVhttp://dbpedia.org/ontology/AnatomicalStructure
p218
aVhttp://dbpedia.org/ontology/Ligament
p219
aVhttp://dbpedia.org/class/yago/Ligament105295381
p220
aVhttp://dbpedia.org/class/yago/LigamentsOfTheUpperLimb
p221
aVhttp://dbpedia.org/class/yago/PhysicalEntity100001930
p222
aVhttp://dbpedia.org/resource/Acromioclavicular_ligament
tp223
aa(lp224
((lp225
Vhttp://dbpedia.org/class/yago/AnimalTissue105267548
p226
aVhttp://dbpedia.org/class/yago/BodyPart105220461
p227
aVhttp://dbpedia.org/class/yago/ConnectiveTissue105286536
p228
aVhttp://dbpedia.org/class/yago/Part109385911
p229
aVhttp://dbpedia.org/class/yago/Thing100002452
p230
aVhttp://dbpedia.org/class/yago/Tissue105267345
p231
aVhttp://www.w3.org/2002/07/owl#Thing
p232
aVhttp://www.wikidata.org/entity/Q39888
p233
aVhttp://www.wikidata.org/entity/Q4936952
p234
aVhttp://dbpedia.org/ontology/AnatomicalStructure
p235
aVhttp://dbpedia.org/ontology/Ligament
p236
aVhttp://dbpedia.org/class/yago/Ligament105295381
p237
aVhttp://dbpedia.org/class/yago/Ligaments
p238
aVhttp://dbpedia.org/class/yago/PhysicalEntity100001930
p239
aVhttp://dbpedia.org/resource/Palmar_carpal_ligament
tp240
aa(lp241
((lp242
Vhttp://dbpedia.org/class/yago/AnimalTissue105267548
p243
aVhttp://dbpedia.org/class/yago/BodyPart105220461
p244
aVhttp://dbpedia.org/class/yago/ConnectiveTissue105286536
p245
aVhttp://dbpedia.org/class/yago/Part109385911
p246
aVhttp://dbpedia.org/class/yago/Thing100002452
p247
aVhttp://dbpedia.org/class/yago/Tissue105267345
p248
aVhttp://www.w3.org/2002/07/owl#Thing
p249
aVhttp://www.wikidata.org/entity/Q39888
p250
aVhttp://www.wikidata.org/entity/Q4936952
p251
aVhttp://dbpedia.org/ontology/AnatomicalStructure
p252
aVhttp://dbpedia.org/ontology/Ligament
p253
aVhttp://dbpedia.org/class/yago/Ligament105295381
p254
aVhttp://dbpedia.org/class/yago/Ligaments
p255
aVhttp://dbpedia.org/class/yago/PhysicalEntity100001930
p256
aVhttp://dbpedia.org/resource/Posterior_auricular_ligament
tp257
aa(lp258
((lp259
Vhttp://dbpedia.org/class/yago/AnimalTissue105267548
p260
aVhttp://dbpedia.org/class/yago/BodyPart105220461
p261
aVhttp://dbpedia.org/class/yago/ConnectiveTissue105286536
p262
aVhttp://dbpedia.org/class/yago/Part109385911
p263
aVhttp://dbpedia.org/class/yago/Thing100002452
p264
aVhttp://dbpedia.org/class/yago/Tissue105267345
p265
aVhttp://www.w3.org/2002/07/owl#Thing
p266
aVhttp://www.wikidata.org/entity/Q39888
p267
aVhttp://www.wikidata.org/entity/Q4936952
p268
aVhttp://dbpedia.org/ontology/AnatomicalStructure
p269
aVhttp://dbpedia.org/ontology/Ligament
p270
aVhttp://dbpedia.org/class/yago/Ligament105295381
p271
aVhttp://dbpedia.org/class/yago/LigamentsOfTheLowerLimb
p272
aVhttp://dbpedia.org/class/yago/PhysicalEntity100001930
p273
aVhttp://dbpedia.org/resource/Collateral_ligaments_of_interphalangeal_articulations_of_foot
tp274
aa(lp275
((lp276
Vhttp://dbpedia.org/class/yago/AnimalTissue105267548
p277
aVhttp://dbpedia.org/class/yago/BodyPart105220461
p278
aVhttp://dbpedia.org/class/yago/ConnectiveTissue105286536
p279
aVhttp://dbpedia.org/class/yago/Part109385911
p280
aVhttp://dbpedia.org/class/yago/Thing100002452
p281
aVhttp://dbpedia.org/class/yago/Tissue105267345
p282
aVhttp://www.w3.org/2002/07/owl#Thing
p283
aVhttp://www.wikidata.org/entity/Q39888
p284
aVhttp://www.wikidata.org/entity/Q4936952
p285
aVhttp://dbpedia.org/ontology/AnatomicalStructure
p286
aVhttp://dbpedia.org/ontology/Ligament
p287
aVhttp://dbpedia.org/class/yago/Ligament105295381
p288
aVhttp://dbpedia.org/class/yago/LigamentsOfTheLowerLimb
p289
aVhttp://dbpedia.org/class/yago/PhysicalEntity100001930
p290
aVhttp://dbpedia.org/resource/Collateral_ligaments_of_metatarsophalangeal_articulations
tp291
aa(lp292
((lp293
Vhttp://dbpedia.org/class/yago/Abstraction100002137
p294
aVhttp://dbpedia.org/class/yago/Anatomy106057539
p295
aVhttp://dbpedia.org/class/yago/Biology106037666
p296
aVhttp://dbpedia.org/class/yago/Cognition100023271
p297
aVhttp://dbpedia.org/class/yago/Content105809192
p298
aVhttp://dbpedia.org/class/yago/Discipline105996646
p299
aVhttp://dbpedia.org/class/yago/LifeScience106037298
p300
aVhttp://dbpedia.org/class/yago/Morphology106078327
p301
aVhttp://dbpedia.org/class/yago/Science105999797
p302
aVhttp://www.w3.org/2002/07/owl#Thing
p303
aVhttp://www.wikidata.org/entity/Q4936952
p304
aVhttp://dbpedia.org/ontology/AnatomicalStructure
p305
aVhttp://umbel.org/umbel/rc/AnimalBodyPart
p306
aVhttp://dbpedia.org/class/yago/PsychologicalFeature100023100
p307
aVhttp://dbpedia.org/class/yago/KnowledgeDomain105999266
p308
aVhttp://dbpedia.org/class/yago/NaturalScience106000400
p309
aVhttp://dbpedia.org/resource/Superior_extensor_retinaculum_of_foot
tp310
aa(lp311
((lp312
Vhttp://dbpedia.org/class/yago/AnimalTissue105267548
p313
aVhttp://dbpedia.org/class/yago/BodyPart105220461
p314
aVhttp://dbpedia.org/class/yago/ConnectiveTissue105286536
p315
aVhttp://dbpedia.org/class/yago/Part109385911
p316
aVhttp://dbpedia.org/class/yago/Thing100002452
p317
aVhttp://dbpedia.org/class/yago/Tissue105267345
p318
aVhttp://www.w3.org/2002/07/owl#Thing
p319
aVhttp://www.wikidata.org/entity/Q39888
p320
aVhttp://www.wikidata.org/entity/Q4936952
p321
aVhttp://dbpedia.org/ontology/AnatomicalStructure
p322
aVhttp://dbpedia.org/ontology/Ligament
p323
aVhttp://dbpedia.org/class/yago/Ligament105295381
p324
aVhttp://dbpedia.org/class/yago/LigamentsOfTheTorso
p325
aVhttp://dbpedia.org/class/yago/PhysicalEntity100001930
p326
aVhttp://dbpedia.org/resource/Posterior_longitudinal_ligament
p327
tp328
aaa.