(lp1
(lp2
(lp3
a(lp4
((lp5
Vhttp://dbpedia.org/class/yago/Junction103605722
p6
aVhttp://dbpedia.org/class/yago/Location100027167
p7
aVhttp://dbpedia.org/class/yago/Object100002684
p8
aVhttp://dbpedia.org/class/yago/Point108620061
p9
aVhttp://dbpedia.org/class/yago/TopographicPoint108664443
p10
aVhttp://dbpedia.org/class/yago/YagoGeoEntity
p11
aVhttp://dbpedia.org/class/yago/YagoLegalActorGeo
p12
aVhttp://dbpedia.org/class/yago/RoadInterchangesInCalifornia
p13
aVhttp://www.w3.org/2002/07/owl#Thing
p14
aVhttp://dbpedia.org/ontology/Place
p15
aVhttp://dbpedia.org/ontology/Location
p16
aVhttp://dbpedia.org/ontology/ArchitecturalStructure
p17
aVhttp://dbpedia.org/ontology/Infrastructure
p18
aVhttp://dbpedia.org/ontology/RoadJunction
p19
aVhttp://dbpedia.org/ontology/RouteOfTransportation
p20
aVhttp://www.w3.org/2003/01/geo/wgs84_pos#SpatialThing
p21
aVhttp://schema.org/Place
p22
aVhttp://dbpedia.org/class/yago/YagoPermanentlyLocatedEntity
p23
aVhttp://dbpedia.org/class/yago/Interchange103577818
p24
aVhttp://dbpedia.org/class/yago/PhysicalEntity100001930
p25
aVhttp://dbpedia.org/resource/West_Bakersfield_Interchange
tp26
aa(lp27
((lp28
Vhttp://dbpedia.org/class/yago/Junction103605722
p29
aVhttp://dbpedia.org/class/yago/Location100027167
p30
aVhttp://dbpedia.org/class/yago/Object100002684
p31
aVhttp://dbpedia.org/class/yago/Point108620061
p32
aVhttp://dbpedia.org/class/yago/TopographicPoint108664443
p33
aVhttp://dbpedia.org/class/yago/YagoGeoEntity
p34
aVhttp://dbpedia.org/class/yago/YagoLegalActorGeo
p35
aVhttp://dbpedia.org/class/yago/RoadInterchangesInCalifornia
p36
aVhttp://www.w3.org/2002/07/owl#Thing
p37
aVhttp://dbpedia.org/ontology/Place
p38
aVhttp://dbpedia.org/ontology/Location
p39
aVhttp://dbpedia.org/ontology/ArchitecturalStructure
p40
aVhttp://dbpedia.org/ontology/Infrastructure
p41
aVhttp://dbpedia.org/ontology/RoadJunction
p42
aVhttp://dbpedia.org/ontology/RouteOfTransportation
p43
aVhttp://www.w3.org/2003/01/geo/wgs84_pos#SpatialThing
p44
aVhttp://schema.org/Place
p45
aVhttp://dbpedia.org/class/yago/YagoPermanentlyLocatedEntity
p46
aVhttp://dbpedia.org/class/yago/Interchange103577818
p47
aVhttp://dbpedia.org/class/yago/PhysicalEntity100001930
p48
aVhttp://dbpedia.org/resource/Wheeler_Ridge_Interchange
tp49
aa(lp50
((lp51
Vhttp://dbpedia.org/class/yago/Artifact100021939
p52
aVhttp://dbpedia.org/class/yago/Junction103605722
p53
aVhttp://dbpedia.org/class/yago/Location100027167
p54
aVhttp://dbpedia.org/class/yago/Object100002684
p55
aVhttp://dbpedia.org/class/yago/Point108620061
p56
aVhttp://dbpedia.org/class/yago/Road104096066
p57
aVhttp://dbpedia.org/class/yago/TopographicPoint108664443
p58
aVhttp://dbpedia.org/class/yago/Way104564698
p59
aVhttp://dbpedia.org/class/yago/Whole100003553
p60
aVhttp://dbpedia.org/class/yago/YagoGeoEntity
p61
aVhttp://dbpedia.org/class/yago/YagoLegalActorGeo
p62
aVhttp://dbpedia.org/class/yago/RoadInterchanges
p63
aVhttp://dbpedia.org/class/yago/RoadsInThePhilippines
p64
aVhttp://www.w3.org/2002/07/owl#Thing
p65
aVhttp://dbpedia.org/ontology/Place
p66
aVhttp://dbpedia.org/ontology/Location
p67
aVhttp://dbpedia.org/ontology/ArchitecturalStructure
p68
aVhttp://dbpedia.org/ontology/Infrastructure
p69
aVhttp://dbpedia.org/ontology/RoadJunction
p70
aVhttp://dbpedia.org/ontology/RouteOfTransportation
p71
aVhttp://www.w3.org/2003/01/geo/wgs84_pos#SpatialThing
p72
aVhttp://schema.org/Place
p73
aVhttp://dbpedia.org/class/yago/YagoPermanentlyLocatedEntity
p74
aVhttp://dbpedia.org/class/yago/Interchange103577818
p75
aVhttp://dbpedia.org/class/yago/PhysicalEntity100001930
p76
aVhttp://dbpedia.org/resource/Magallanes_Interchange
tp77
aa(lp78
a(lp79
a(lp80
a(lp81
a(lp82
((lp83
Vhttp://www.w3.org/2002/07/owl#Thing
p84
aVhttp://dbpedia.org/ontology/Place
p85
aVhttp://dbpedia.org/ontology/Location
p86
aVhttp://dbpedia.org/ontology/ArchitecturalStructure
p87
aVhttp://dbpedia.org/ontology/Infrastructure
p88
aVhttp://dbpedia.org/ontology/RoadJunction
p89
aVhttp://dbpedia.org/ontology/RouteOfTransportation
p90
aVhttp://www.w3.org/2003/01/geo/wgs84_pos#SpatialThing
p91
aVhttp://schema.org/Place
p92
aVhttp://dbpedia.org/resource/Circumferential_Road_5\u2013Ortigas_Avenue_Interchange
p93
tp94
aa(lp95
a(lp96
a(lp97
a(lp98
a(lp99
a(lp100
a(lp101
a(lp102
a(lp103
a(lp104
aa.