(lp1
(lp2
(lp3
((lp4
Vhttp://dbpedia.org/class/yago/Location100027167
p5
aVhttp://dbpedia.org/class/yago/Object100002684
p6
aVhttp://dbpedia.org/class/yago/Park108615149
p7
aVhttp://dbpedia.org/class/yago/Region108630985
p8
aVhttp://dbpedia.org/class/yago/Tract108673395
p9
aVhttp://dbpedia.org/class/yago/YagoGeoEntity
p10
aVhttp://dbpedia.org/class/yago/YagoLegalActorGeo
p11
aVhttp://www.w3.org/2002/07/owl#Thing
p12
aVhttp://dbpedia.org/ontology/Place
p13
aVhttp://dbpedia.org/ontology/Location
p14
aVhttp://dbpedia.org/ontology/Park
p15
aVhttp://www.w3.org/2003/01/geo/wgs84_pos#SpatialThing
p16
aVhttp://schema.org/Park
p17
aVhttp://schema.org/Place
p18
aVhttp://dbpedia.org/class/yago/YagoPermanentlyLocatedEntity
p19
aVhttp://dbpedia.org/class/yago/ParksInSyracuse,NewYork
p20
aVhttp://dbpedia.org/class/yago/GeographicalArea108574314
p21
aVhttp://dbpedia.org/class/yago/PhysicalEntity100001930
p22
aVhttp://dbpedia.org/resource/Burnet_Park
tp23
aa(lp24
((lp25
Vhttp://dbpedia.org/class/yago/Location100027167
p26
aVhttp://dbpedia.org/class/yago/Object100002684
p27
aVhttp://dbpedia.org/class/yago/Park108615149
p28
aVhttp://dbpedia.org/class/yago/Region108630985
p29
aVhttp://dbpedia.org/class/yago/Tract108673395
p30
aVhttp://dbpedia.org/class/yago/YagoGeoEntity
p31
aVhttp://dbpedia.org/class/yago/YagoLegalActorGeo
p32
aVhttp://www.w3.org/2002/07/owl#Thing
p33
aVhttp://dbpedia.org/ontology/Place
p34
aVhttp://dbpedia.org/ontology/Location
p35
aVhttp://dbpedia.org/ontology/Park
p36
aVhttp://www.w3.org/2003/01/geo/wgs84_pos#SpatialThing
p37
aVhttp://schema.org/Park
p38
aVhttp://schema.org/Place
p39
aVhttp://dbpedia.org/class/yago/YagoPermanentlyLocatedEntity
p40
aVhttp://dbpedia.org/class/yago/NewYorkStateParks
p41
aVhttp://dbpedia.org/class/yago/ParksInJeffersonCounty,NewYork
p42
aVhttp://dbpedia.org/class/yago/GeographicalArea108574314
p43
aVhttp://dbpedia.org/class/yago/PhysicalEntity100001930
p44
aVhttp://dbpedia.org/resource/Burnham_Point_State_Park
tp45
aa(lp46
((lp47
Vhttp://dbpedia.org/class/yago/Location100027167
p48
aVhttp://dbpedia.org/class/yago/Object100002684
p49
aVhttp://dbpedia.org/class/yago/Park108615149
p50
aVhttp://dbpedia.org/class/yago/Region108630985
p51
aVhttp://dbpedia.org/class/yago/Tract108673395
p52
aVhttp://dbpedia.org/class/yago/YagoGeoEntity
p53
aVhttp://dbpedia.org/class/yago/YagoLegalActorGeo
p54
aVhttp://www.w3.org/2002/07/owl#Thing
p55
aVhttp://dbpedia.org/ontology/Place
p56
aVhttp://dbpedia.org/ontology/Location
p57
aVhttp://dbpedia.org/ontology/Park
p58
aVhttp://www.w3.org/2003/01/geo/wgs84_pos#SpatialThing
p59
aVhttp://schema.org/Park
p60
aVhttp://schema.org/Place
p61
aVhttp://dbpedia.org/class/yago/YagoPermanentlyLocatedEntity
p62
aVhttp://dbpedia.org/class/yago/NewYorkStateParks
p63
aVhttp://dbpedia.org/class/yago/ParksInOswegoCounty,NewYork
p64
aVhttp://dbpedia.org/class/yago/GeographicalArea108574314
p65
aVhttp://dbpedia.org/class/yago/PhysicalEntity100001930
p66
aVhttp://dbpedia.org/resource/Battle_Island_State_Park
tp67
aa(lp68
((lp69
Vhttp://dbpedia.org/class/yago/Location100027167
p70
aVhttp://dbpedia.org/class/yago/Object100002684
p71
aVhttp://dbpedia.org/class/yago/Park108615149
p72
aVhttp://dbpedia.org/class/yago/Region108630985
p73
aVhttp://dbpedia.org/class/yago/Tract108673395
p74
aVhttp://dbpedia.org/class/yago/YagoGeoEntity
p75
aVhttp://dbpedia.org/class/yago/YagoLegalActorGeo
p76
aVhttp://www.w3.org/2002/07/owl#Thing
p77
aVhttp://dbpedia.org/ontology/Place
p78
aVhttp://dbpedia.org/ontology/Location
p79
aVhttp://dbpedia.org/ontology/Park
p80
aVhttp://www.w3.org/2003/01/geo/wgs84_pos#SpatialThing
p81
aVhttp://schema.org/Park
p82
aVhttp://schema.org/Place
p83
aVhttp://dbpedia.org/class/yago/YagoPermanentlyLocatedEntity
p84
aVhttp://dbpedia.org/class/yago/NewYorkStateParks
p85
aVhttp://dbpedia.org/class/yago/ParksInTompkinsCounty,NewYork
p86
aVhttp://dbpedia.org/class/yago/GeographicalArea108574314
p87
aVhttp://dbpedia.org/class/yago/PhysicalEntity100001930
p88
aVhttp://dbpedia.org/resource/Buttermilk_Falls_State_Park
tp89
aa(lp90
((lp91
Vhttp://www.w3.org/2002/07/owl#Thing
p92
aVhttp://dbpedia.org/ontology/Place
p93
aVhttp://dbpedia.org/ontology/Location
p94
aVhttp://dbpedia.org/ontology/Park
p95
aVhttp://www.w3.org/2003/01/geo/wgs84_pos#SpatialThing
p96
aVhttp://schema.org/Park
p97
aVhttp://schema.org/Place
p98
aVhttp://dbpedia.org/resource/Camp_Dearborn
tp99
aa(lp100
((lp101
Vhttp://dbpedia.org/class/yago/Location100027167
p102
aVhttp://dbpedia.org/class/yago/Object100002684
p103
aVhttp://dbpedia.org/class/yago/Park108615149
p104
aVhttp://dbpedia.org/class/yago/Region108630985
p105
aVhttp://dbpedia.org/class/yago/Tract108673395
p106
aVhttp://dbpedia.org/class/yago/YagoGeoEntity
p107
aVhttp://dbpedia.org/class/yago/YagoLegalActorGeo
p108
aVhttp://www.w3.org/2002/07/owl#Thing
p109
aVhttp://dbpedia.org/ontology/Place
p110
aVhttp://dbpedia.org/ontology/Location
p111
aVhttp://dbpedia.org/ontology/Park
p112
aVhttp://www.w3.org/2003/01/geo/wgs84_pos#SpatialThing
p113
aVhttp://schema.org/Park
p114
aVhttp://schema.org/Place
p115
aVhttp://dbpedia.org/class/yago/YagoPermanentlyLocatedEntity
p116
aVhttp://dbpedia.org/class/yago/NewYorkStateParks
p117
aVhttp://dbpedia.org/class/yago/ParksInJeffersonCounty,NewYork
p118
aVhttp://dbpedia.org/class/yago/GeographicalArea108574314
p119
aVhttp://dbpedia.org/class/yago/PhysicalEntity100001930
p120
aVhttp://dbpedia.org/resource/Canoe-Picnic_Point_State_Park
tp121
aa(lp122
((lp123
Vhttp://dbpedia.org/class/yago/Location100027167
p124
aVhttp://dbpedia.org/class/yago/Object100002684
p125
aVhttp://dbpedia.org/class/yago/Park108615149
p126
aVhttp://dbpedia.org/class/yago/Region108630985
p127
aVhttp://dbpedia.org/class/yago/Tract108673395
p128
aVhttp://dbpedia.org/class/yago/YagoGeoEntity
p129
aVhttp://dbpedia.org/class/yago/YagoLegalActorGeo
p130
aVhttp://www.w3.org/2002/07/owl#Thing
p131
aVhttp://dbpedia.org/ontology/Place
p132
aVhttp://dbpedia.org/ontology/Location
p133
aVhttp://dbpedia.org/ontology/Park
p134
aVhttp://schema.org/Park
p135
aVhttp://schema.org/Place
p136
aVhttp://umbel.org/umbel/rc/Park
p137
aVhttp://dbpedia.org/class/yago/YagoPermanentlyLocatedEntity
p138
aVhttp://dbpedia.org/class/yago/OregonStateParks
p139
aVhttp://dbpedia.org/class/yago/ParksInCoosCounty,Oregon
p140
aVhttp://dbpedia.org/class/yago/GeographicalArea108574314
p141
aVhttp://dbpedia.org/class/yago/PhysicalEntity100001930
p142
aVhttp://dbpedia.org/resource/Cape_Arago_State_Park
tp143
aa(lp144
((lp145
Vhttp://dbpedia.org/class/yago/GeologicalFormation109287968
p146
aVhttp://dbpedia.org/class/yago/Location100027167
p147
aVhttp://dbpedia.org/class/yago/Object100002684
p148
aVhttp://dbpedia.org/class/yago/Park108615149
p149
aVhttp://dbpedia.org/class/yago/Region108630985
p150
aVhttp://dbpedia.org/class/yago/Tract108673395
p151
aVhttp://dbpedia.org/class/yago/YagoGeoEntity
p152
aVhttp://dbpedia.org/class/yago/YagoLegalActorGeo
p153
aVhttp://www.w3.org/2002/07/owl#Thing
p154
aVhttp://dbpedia.org/ontology/Place
p155
aVhttp://dbpedia.org/ontology/Location
p156
aVhttp://dbpedia.org/ontology/Park
p157
aVhttp://www.w3.org/2003/01/geo/wgs84_pos#SpatialThing
p158
aVhttp://schema.org/Park
p159
aVhttp://schema.org/Place
p160
aVhttp://dbpedia.org/class/yago/YagoPermanentlyLocatedEntity
p161
aVhttp://dbpedia.org/class/yago/OregonStateParks
p162
aVhttp://dbpedia.org/class/yago/ParksInCurryCounty,Oregon
p163
aVhttp://dbpedia.org/class/yago/GeographicalArea108574314
p164
aVhttp://dbpedia.org/class/yago/HeadlandsOfOregon
p165
aVhttp://dbpedia.org/class/yago/NaturalElevation109366317
p166
aVhttp://dbpedia.org/class/yago/PhysicalEntity100001930
p167
aVhttp://dbpedia.org/class/yago/Promontory109399592
p168
aVhttp://dbpedia.org/resource/Cape_Blanco_(Oregon)
tp169
aa(lp170
((lp171
Vhttp://dbpedia.org/class/yago/GeologicalFormation109287968
p172
aVhttp://dbpedia.org/class/yago/Location100027167
p173
aVhttp://dbpedia.org/class/yago/Object100002684
p174
aVhttp://dbpedia.org/class/yago/Park108615149
p175
aVhttp://dbpedia.org/class/yago/Region108630985
p176
aVhttp://dbpedia.org/class/yago/Tract108673395
p177
aVhttp://dbpedia.org/class/yago/YagoGeoEntity
p178
aVhttp://dbpedia.org/class/yago/YagoLegalActorGeo
p179
aVhttp://dbpedia.org/class/yago/SurfingLocationsInTheUnitedStates
p180
aVhttp://www.w3.org/2002/07/owl#Thing
p181
aVhttp://dbpedia.org/ontology/Place
p182
aVhttp://dbpedia.org/ontology/Location
p183
aVhttp://dbpedia.org/ontology/Park
p184
aVhttp://schema.org/Park
p185
aVhttp://schema.org/Place
p186
aVhttp://dbpedia.org/class/yago/YagoPermanentlyLocatedEntity
p187
aVhttp://dbpedia.org/class/yago/OregonStateParks
p188
aVhttp://dbpedia.org/class/yago/ParksInTillamookCounty,Oregon
p189
aVhttp://dbpedia.org/class/yago/GeographicalArea108574314
p190
aVhttp://dbpedia.org/class/yago/HeadlandsOfOregon
p191
aVhttp://dbpedia.org/class/yago/NaturalElevation109366317
p192
aVhttp://dbpedia.org/class/yago/PhysicalEntity100001930
p193
aVhttp://dbpedia.org/class/yago/Promontory109399592
p194
aVhttp://dbpedia.org/resource/Cape_Kiwanda_State_Natural_Area
tp195
aa(lp196
((lp197
Vhttp://dbpedia.org/class/yago/Location100027167
p198
aVhttp://dbpedia.org/class/yago/Object100002684
p199
aVhttp://dbpedia.org/class/yago/Park108615149
p200
aVhttp://dbpedia.org/class/yago/Region108630985
p201
aVhttp://dbpedia.org/class/yago/Tract108673395
p202
aVhttp://dbpedia.org/class/yago/YagoGeoEntity
p203
aVhttp://dbpedia.org/class/yago/YagoLegalActorGeo
p204
aVhttp://www.w3.org/2002/07/owl#Thing
p205
aVhttp://dbpedia.org/ontology/Place
p206
aVhttp://dbpedia.org/ontology/Location
p207
aVhttp://dbpedia.org/ontology/Park
p208
aVhttp://schema.org/Park
p209
aVhttp://schema.org/Place
p210
aVhttp://dbpedia.org/class/yago/YagoPermanentlyLocatedEntity
p211
aVhttp://dbpedia.org/class/yago/OregonStateParks
p212
aVhttp://dbpedia.org/class/yago/ParksInTillamookCounty,Oregon
p213
aVhttp://dbpedia.org/class/yago/GeographicalArea108574314
p214
aVhttp://dbpedia.org/class/yago/PhysicalEntity100001930
p215
aVhttp://dbpedia.org/resource/Cape_Lookout_State_Park
tp216
aa(lp217
((lp218
Vhttp://dbpedia.org/class/yago/Beach109217230
p219
aVhttp://dbpedia.org/class/yago/BeachesOfNewYork
p220
aVhttp://dbpedia.org/class/yago/GeologicalFormation109287968
p221
aVhttp://dbpedia.org/class/yago/Location100027167
p222
aVhttp://dbpedia.org/class/yago/Object100002684
p223
aVhttp://dbpedia.org/class/yago/Park108615149
p224
aVhttp://dbpedia.org/class/yago/Region108630985
p225
aVhttp://dbpedia.org/class/yago/Tract108673395
p226
aVhttp://dbpedia.org/class/yago/YagoGeoEntity
p227
aVhttp://dbpedia.org/class/yago/YagoLegalActorGeo
p228
aVhttp://www.w3.org/2002/07/owl#Thing
p229
aVhttp://dbpedia.org/ontology/Place
p230
aVhttp://dbpedia.org/ontology/Location
p231
aVhttp://dbpedia.org/ontology/Park
p232
aVhttp://www.w3.org/2003/01/geo/wgs84_pos#SpatialThing
p233
aVhttp://schema.org/Park
p234
aVhttp://schema.org/Place
p235
aVhttp://dbpedia.org/class/yago/YagoPermanentlyLocatedEntity
p236
aVhttp://dbpedia.org/class/yago/NewYorkStateParks
p237
aVhttp://dbpedia.org/class/yago/ParksInSuffolkCounty,NewYork
p238
aVhttp://dbpedia.org/class/yago/GeographicalArea108574314
p239
aVhttp://dbpedia.org/class/yago/MarineParksOfNewYork
p240
aVhttp://dbpedia.org/class/yago/PhysicalEntity100001930
p241
aVhttp://dbpedia.org/resource/Captree_State_Park
tp242
aa(lp243
((lp244
Vhttp://dbpedia.org/class/yago/Location100027167
p245
aVhttp://dbpedia.org/class/yago/Object100002684
p246
aVhttp://dbpedia.org/class/yago/Park108615149
p247
aVhttp://dbpedia.org/class/yago/Region108630985
p248
aVhttp://dbpedia.org/class/yago/Tract108673395
p249
aVhttp://dbpedia.org/class/yago/YagoGeoEntity
p250
aVhttp://dbpedia.org/class/yago/YagoLegalActorGeo
p251
aVhttp://www.w3.org/2002/07/owl#Thing
p252
aVhttp://dbpedia.org/ontology/Place
p253
aVhttp://dbpedia.org/ontology/Location
p254
aVhttp://dbpedia.org/ontology/Park
p255
aVhttp://www.w3.org/2003/01/geo/wgs84_pos#SpatialThing
p256
aVhttp://schema.org/Park
p257
aVhttp://schema.org/Place
p258
aVhttp://umbel.org/umbel/rc/Park
p259
aVhttp://dbpedia.org/class/yago/YagoPermanentlyLocatedEntity
p260
aVhttp://dbpedia.org/class/yago/OregonStateParks
p261
aVhttp://dbpedia.org/class/yago/ParksInLaneCounty,Oregon
p262
aVhttp://dbpedia.org/class/yago/GeographicalArea108574314
p263
aVhttp://dbpedia.org/class/yago/PhysicalEntity100001930
p264
aVhttp://dbpedia.org/resource/Carl_G._Washburne_Memorial_State_Park
tp265
aa(lp266
((lp267
Vhttp://dbpedia.org/class/yago/Location100027167
p268
aVhttp://dbpedia.org/class/yago/Object100002684
p269
aVhttp://dbpedia.org/class/yago/Park108615149
p270
aVhttp://dbpedia.org/class/yago/Region108630985
p271
aVhttp://dbpedia.org/class/yago/Tract108673395
p272
aVhttp://dbpedia.org/class/yago/YagoGeoEntity
p273
aVhttp://dbpedia.org/class/yago/YagoLegalActorGeo
p274
aVhttp://www.w3.org/2002/07/owl#Thing
p275
aVhttp://dbpedia.org/ontology/Place
p276
aVhttp://dbpedia.org/ontology/Location
p277
aVhttp://dbpedia.org/ontology/Park
p278
aVhttp://schema.org/Park
p279
aVhttp://schema.org/Place
p280
aVhttp://umbel.org/umbel/rc/Park
p281
aVhttp://dbpedia.org/class/yago/YagoPermanentlyLocatedEntity
p282
aVhttp://dbpedia.org/class/yago/OregonStateParks
p283
aVhttp://dbpedia.org/class/yago/ParksInUnionCounty,Oregon
p284
aVhttp://dbpedia.org/class/yago/GeographicalArea108574314
p285
aVhttp://dbpedia.org/class/yago/PhysicalEntity100001930
p286
aVhttp://dbpedia.org/resource/Catherine_Creek_State_Park
tp287
aa(lp288
((lp289
Vhttp://dbpedia.org/class/yago/Location100027167
p290
aVhttp://dbpedia.org/class/yago/Object100002684
p291
aVhttp://dbpedia.org/class/yago/Park108615149
p292
aVhttp://dbpedia.org/class/yago/Region108630985
p293
aVhttp://dbpedia.org/class/yago/Tract108673395
p294
aVhttp://dbpedia.org/class/yago/YagoGeoEntity
p295
aVhttp://dbpedia.org/class/yago/YagoLegalActorGeo
p296
aVhttp://www.w3.org/2002/07/owl#Thing
p297
aVhttp://dbpedia.org/ontology/Place
p298
aVhttp://dbpedia.org/ontology/Location
p299
aVhttp://dbpedia.org/ontology/Park
p300
aVhttp://www.w3.org/2003/01/geo/wgs84_pos#SpatialThing
p301
aVhttp://schema.org/Park
p302
aVhttp://schema.org/Place
p303
aVhttp://dbpedia.org/class/yago/YagoPermanentlyLocatedEntity
p304
aVhttp://dbpedia.org/class/yago/NewYorkStateParks
p305
aVhttp://dbpedia.org/class/yago/ParksInSenecaCounty,NewYork
p306
aVhttp://dbpedia.org/class/yago/GeographicalArea108574314
p307
aVhttp://dbpedia.org/class/yago/PhysicalEntity100001930
p308
aVhttp://dbpedia.org/resource/Cayuga_Lake_State_Park
tp309
aa(lp310
((lp311
Vhttp://dbpedia.org/class/yago/Location100027167
p312
aVhttp://dbpedia.org/class/yago/Object100002684
p313
aVhttp://dbpedia.org/class/yago/Park108615149
p314
aVhttp://dbpedia.org/class/yago/Region108630985
p315
aVhttp://dbpedia.org/class/yago/Tract108673395
p316
aVhttp://dbpedia.org/class/yago/YagoGeoEntity
p317
aVhttp://dbpedia.org/class/yago/YagoLegalActorGeo
p318
aVhttp://www.w3.org/2002/07/owl#Thing
p319
aVhttp://dbpedia.org/ontology/Place
p320
aVhttp://dbpedia.org/ontology/Location
p321
aVhttp://dbpedia.org/ontology/Park
p322
aVhttp://schema.org/Park
p323
aVhttp://schema.org/Place
p324
aVhttp://dbpedia.org/class/yago/YagoPermanentlyLocatedEntity
p325
aVhttp://dbpedia.org/class/yago/OregonStateParks
p326
aVhttp://dbpedia.org/class/yago/ParksInMultnomahCounty,Oregon
p327
aVhttp://dbpedia.org/class/yago/GeographicalArea108574314
p328
aVhttp://dbpedia.org/class/yago/PhysicalEntity100001930
p329
aVhttp://dbpedia.org/resource/Chanticleer_Point
tp330
aa(lp331
((lp332
Vhttp://dbpedia.org/class/yago/Location100027167
p333
aVhttp://dbpedia.org/class/yago/Object100002684
p334
aVhttp://dbpedia.org/class/yago/Park108615149
p335
aVhttp://dbpedia.org/class/yago/Region108630985
p336
aVhttp://dbpedia.org/class/yago/Tract108673395
p337
aVhttp://dbpedia.org/class/yago/YagoGeoEntity
p338
aVhttp://dbpedia.org/class/yago/YagoLegalActorGeo
p339
aVhttp://www.w3.org/2002/07/owl#Thing
p340
aVhttp://dbpedia.org/ontology/Place
p341
aVhttp://dbpedia.org/ontology/Location
p342
aVhttp://dbpedia.org/ontology/Park
p343
aVhttp://www.w3.org/2003/01/geo/wgs84_pos#SpatialThing
p344
aVhttp://schema.org/Park
p345
aVhttp://schema.org/Place
p346
aVhttp://dbpedia.org/class/yago/YagoPermanentlyLocatedEntity
p347
aVhttp://dbpedia.org/class/yago/NewJerseyStateParks
p348
aVhttp://dbpedia.org/class/yago/ParksInMiddlesexCounty,NewJersey
p349
aVhttp://dbpedia.org/class/yago/GeographicalArea108574314
p350
aVhttp://dbpedia.org/class/yago/PhysicalEntity100001930
p351
aVhttp://dbpedia.org/resource/Cheesequake_State_Park
tp352
aa(lp353
((lp354
Vhttp://dbpedia.org/class/yago/Beach109217230
p355
aVhttp://dbpedia.org/class/yago/BeachesInToronto
p356
aVhttp://dbpedia.org/class/yago/GeologicalFormation109287968
p357
aVhttp://dbpedia.org/class/yago/Location100027167
p358
aVhttp://dbpedia.org/class/yago/Object100002684
p359
aVhttp://dbpedia.org/class/yago/Park108615149
p360
aVhttp://dbpedia.org/class/yago/Region108630985
p361
aVhttp://dbpedia.org/class/yago/Tract108673395
p362
aVhttp://dbpedia.org/class/yago/YagoGeoEntity
p363
aVhttp://dbpedia.org/class/yago/YagoLegalActorGeo
p364
aVhttp://www.w3.org/2002/07/owl#Thing
p365
aVhttp://dbpedia.org/ontology/Place
p366
aVhttp://dbpedia.org/ontology/Location
p367
aVhttp://dbpedia.org/ontology/Park
p368
aVhttp://www.w3.org/2003/01/geo/wgs84_pos#SpatialThing
p369
aVhttp://schema.org/Park
p370
aVhttp://schema.org/Place
p371
aVhttp://umbel.org/umbel/rc/Park
p372
aVhttp://dbpedia.org/class/yago/YagoPermanentlyLocatedEntity
p373
aVhttp://dbpedia.org/class/yago/ParksInToronto
p374
aVhttp://dbpedia.org/class/yago/GeographicalArea108574314
p375
aVhttp://dbpedia.org/class/yago/PhysicalEntity100001930
p376
aVhttp://dbpedia.org/resource/Cherry_Beach
tp377
aa(lp378
((lp379
Vhttp://dbpedia.org/class/yago/Location100027167
p380
aVhttp://dbpedia.org/class/yago/Object100002684
p381
aVhttp://dbpedia.org/class/yago/Park108615149
p382
aVhttp://dbpedia.org/class/yago/Region108630985
p383
aVhttp://dbpedia.org/class/yago/Tract108673395
p384
aVhttp://dbpedia.org/class/yago/YagoGeoEntity
p385
aVhttp://dbpedia.org/class/yago/YagoLegalActorGeo
p386
aVhttp://www.w3.org/2002/07/owl#Thing
p387
aVhttp://dbpedia.org/ontology/Place
p388
aVhttp://dbpedia.org/ontology/Location
p389
aVhttp://www.wikidata.org/entity/Q473972
p390
aVhttp://dbpedia.org/ontology/ProtectedArea
p391
aVhttp://www.w3.org/2003/01/geo/wgs84_pos#SpatialThing
p392
aVhttp://schema.org/Place
p393
aVhttp://umbel.org/umbel/rc/GeographicalRegion
p394
aVhttp://dbpedia.org/class/yago/YagoPermanentlyLocatedEntity
p395
aVhttp://dbpedia.org/class/yago/ParksInAlberta
p396
aVhttp://dbpedia.org/class/yago/GeographicalArea108574314
p397
aVhttp://dbpedia.org/class/yago/PhysicalEntity100001930
p398
aVhttp://dbpedia.org/resource/Bragg_Creek_Provincial_Park
tp399
aa(lp400
((lp401
Vhttp://dbpedia.org/class/yago/Area108497294
p402
aVhttp://dbpedia.org/class/yago/Location100027167
p403
aVhttp://dbpedia.org/class/yago/Object100002684
p404
aVhttp://dbpedia.org/class/yago/Park108615149
p405
aVhttp://dbpedia.org/class/yago/Region108630985
p406
aVhttp://dbpedia.org/class/yago/Tract108673395
p407
aVhttp://dbpedia.org/class/yago/YagoGeoEntity
p408
aVhttp://dbpedia.org/class/yago/YagoLegalActorGeo
p409
aVhttp://dbpedia.org/class/yago/ProtectedAreasEstablishedIn2010
p410
aVhttp://www.w3.org/2002/07/owl#Thing
p411
aVhttp://dbpedia.org/ontology/Place
p412
aVhttp://dbpedia.org/ontology/Location
p413
aVhttp://dbpedia.org/ontology/Park
p414
aVhttp://schema.org/Park
p415
aVhttp://schema.org/Place
p416
aVhttp://dbpedia.org/class/yago/YagoPermanentlyLocatedEntity
p417
aVhttp://dbpedia.org/class/yago/OregonStateParks
p418
aVhttp://dbpedia.org/class/yago/ParksInLincolnCounty,Oregon
p419
aVhttp://dbpedia.org/class/yago/GeographicalArea108574314
p420
aVhttp://dbpedia.org/class/yago/PhysicalEntity100001930
p421
aVhttp://dbpedia.org/resource/Beaver_Creek_State_Natural_Area
p422
tp423
aaa.