(lp1
(lp2
(lp3
((lp4
Vhttp://dbpedia.org/class/yago/Area102735688
p5
aVhttp://dbpedia.org/class/yago/Artifact100021939
p6
aVhttp://dbpedia.org/class/yago/Depository103177349
p7
aVhttp://dbpedia.org/class/yago/Facility103315023
p8
aVhttp://dbpedia.org/class/yago/Library103660909
p9
aVhttp://dbpedia.org/class/yago/Object100002684
p10
aVhttp://dbpedia.org/class/yago/Room104105893
p11
aVhttp://dbpedia.org/class/yago/Structure104341686
p12
aVhttp://dbpedia.org/class/yago/Whole100003553
p13
aVhttp://dbpedia.org/class/yago/YagoGeoEntity
p14
aVhttp://dbpedia.org/class/yago/Repositories
p15
aVhttp://www.w3.org/2002/07/owl#Thing
p16
aVhttp://dbpedia.org/ontology/Genre
p17
aVhttp://www.ontologydesignpatterns.org/ont/dul/DUL.owl#Concept
p18
aVhttp://www.wikidata.org/entity/Q188451
p19
aVhttp://dbpedia.org/ontology/TopicalConcept
p20
aVhttp://dbpedia.org/class/yago/Discipline-orientedDigitalLibraries
p21
aVhttp://dbpedia.org/class/yago/YagoPermanentlyLocatedEntity
p22
aVhttp://dbpedia.org/class/yago/PhysicalEntity100001930
p23
aVhttp://dbpedia.org/resource/Disciplinary_repository
tp24
aa(lp25
a(lp26
((lp27
Vhttp://www.w3.org/2002/07/owl#Thing
p28
aVhttp://dbpedia.org/ontology/Genre
p29
aVhttp://www.ontologydesignpatterns.org/ont/dul/DUL.owl#Concept
p30
aVhttp://www.wikidata.org/entity/Q188451
p31
aVhttp://dbpedia.org/ontology/TopicalConcept
p32
aVhttp://dbpedia.org/resource/Documentation
tp33
aa(lp34
((lp35
Vhttp://dbpedia.org/class/yago/Abstraction100002137
p36
aVhttp://dbpedia.org/class/yago/Communication100033020
p37
aVhttp://dbpedia.org/class/yago/Direction106786629
p38
aVhttp://dbpedia.org/class/yago/Message106598915
p39
aVhttp://dbpedia.org/class/yago/Protocol106665108
p40
aVhttp://dbpedia.org/class/yago/Rule106652242
p41
aVhttp://dbpedia.org/class/yago/Standard107260623
p42
aVhttp://dbpedia.org/class/yago/SystemOfMeasurement113577171
p43
aVhttp://www.w3.org/2002/07/owl#Thing
p44
aVhttp://dbpedia.org/ontology/Genre
p45
aVhttp://www.ontologydesignpatterns.org/ont/dul/DUL.owl#Concept
p46
aVhttp://www.wikidata.org/entity/Q188451
p47
aVhttp://dbpedia.org/ontology/TopicalConcept
p48
aVhttp://dbpedia.org/class/yago/InternetProtocols
p49
aVhttp://dbpedia.org/class/yago/InternetStandards
p50
aVhttp://dbpedia.org/class/yago/Measure100033615
p51
aVhttp://dbpedia.org/resource/Domain_Name_System_Security_Extensions
tp52
aa(lp53
((lp54
Vhttp://dbpedia.org/class/yago/Abstraction100002137
p55
aVhttp://dbpedia.org/class/yago/AuditoryCommunication107109019
p56
aVhttp://dbpedia.org/class/yago/Communication100033020
p57
aVhttp://dbpedia.org/class/yago/ExpressiveStyle107066659
p58
aVhttp://dbpedia.org/class/yago/Music107020895
p59
aVhttp://dbpedia.org/class/yago/MusicGenre107071942
p60
aVhttp://www.w3.org/2002/07/owl#Thing
p61
aVhttp://dbpedia.org/ontology/Genre
p62
aVhttp://www.ontologydesignpatterns.org/ont/dul/DUL.owl#Concept
p63
aVhttp://www.wikidata.org/entity/Q188451
p64
aVhttp://dbpedia.org/ontology/MusicGenre
p65
aVhttp://dbpedia.org/ontology/TopicalConcept
p66
aVhttp://umbel.org/umbel/rc/MusicalComposition
p67
aVhttp://dbpedia.org/resource/Doom_metal
tp68
aa(lp69
((lp70
Vhttp://dbpedia.org/class/yago/Ability105616246
p71
aVhttp://dbpedia.org/class/yago/Abstraction100002137
p72
aVhttp://dbpedia.org/class/yago/Cognition100023271
p73
aVhttp://dbpedia.org/class/yago/Know-how105616786
p74
aVhttp://dbpedia.org/class/yago/Method105660268
p75
aVhttp://dbpedia.org/class/yago/Technique105665146
p76
aVhttp://www.w3.org/2002/07/owl#Thing
p77
aVhttp://dbpedia.org/ontology/Genre
p78
aVhttp://www.ontologydesignpatterns.org/ont/dul/DUL.owl#Concept
p79
aVhttp://www.wikidata.org/entity/Q188451
p80
aVhttp://dbpedia.org/ontology/TopicalConcept
p81
aVhttp://dbpedia.org/class/yago/DrivingTechniques
p82
aVhttp://dbpedia.org/class/yago/PsychologicalFeature100023100
p83
aVhttp://dbpedia.org/resource/Drifting_(motorsport)
tp84
aa(lp85
((lp86
Vhttp://dbpedia.org/class/yago/1997VideoGames
p87
aVhttp://dbpedia.org/class/yago/Abstraction100002137
p88
aVhttp://dbpedia.org/class/yago/Act100030358
p89
aVhttp://dbpedia.org/class/yago/Activity100407535
p90
aVhttp://dbpedia.org/class/yago/ComputerGame100458890
p91
aVhttp://dbpedia.org/class/yago/Contest107456188
p92
aVhttp://dbpedia.org/class/yago/Diversion100426928
p93
aVhttp://dbpedia.org/class/yago/Event100029378
p94
aVhttp://dbpedia.org/class/yago/Game100456199
p95
aVhttp://dbpedia.org/class/yago/SocialEvent107288639
p96
aVhttp://www.w3.org/2002/07/owl#Thing
p97
aVhttp://dbpedia.org/ontology/Software
p98
aVhttp://www.wikidata.org/entity/Q386724
p99
aVhttp://www.wikidata.org/entity/Q7397
p100
aVhttp://www.wikidata.org/entity/Q7889
p101
aVhttp://dbpedia.org/ontology/VideoGame
p102
aVhttp://dbpedia.org/ontology/Work
p103
aVhttp://schema.org/CreativeWork
p104
aVhttp://umbel.org/umbel/rc/ComputerGameProgram
p105
aVhttp://umbel.org/umbel/rc/SoftwareObject
p106
aVhttp://dbpedia.org/class/yago/PsychologicalFeature100023100
p107
aVhttp://dbpedia.org/class/yago/YagoPermanentlyLocatedEntity
p108
aVhttp://dbpedia.org/class/yago/Game100430606
p109
aVhttp://dbpedia.org/class/yago/LinuxGames
p110
aVhttp://dbpedia.org/class/yago/Lua-scriptedVideoGames
p111
aVhttp://dbpedia.org/class/yago/WindowsGames
p112
aVhttp://dbpedia.org/resource/Linley's_Dungeon_Crawl
tp113
aa(lp114
((lp115
Vhttp://dbpedia.org/class/yago/Abstraction100002137
p116
aVhttp://dbpedia.org/class/yago/AuditoryCommunication107109019
p117
aVhttp://dbpedia.org/class/yago/Communication100033020
p118
aVhttp://dbpedia.org/class/yago/ExpressiveStyle107066659
p119
aVhttp://dbpedia.org/class/yago/Music107020895
p120
aVhttp://dbpedia.org/class/yago/MusicGenre107071942
p121
aVhttp://www.w3.org/2002/07/owl#Thing
p122
aVhttp://dbpedia.org/ontology/Genre
p123
aVhttp://www.ontologydesignpatterns.org/ont/dul/DUL.owl#Concept
p124
aVhttp://www.wikidata.org/entity/Q188451
p125
aVhttp://dbpedia.org/ontology/MusicGenre
p126
aVhttp://dbpedia.org/ontology/TopicalConcept
p127
aVhttp://umbel.org/umbel/rc/MusicalComposition
p128
aVhttp://dbpedia.org/resource/Electro-industrial
tp129
aa(lp130
((lp131
Vhttp://dbpedia.org/class/yago/Abstraction100002137
p132
aVhttp://dbpedia.org/class/yago/AuditoryCommunication107109019
p133
aVhttp://dbpedia.org/class/yago/Communication100033020
p134
aVhttp://dbpedia.org/class/yago/ExpressiveStyle107066659
p135
aVhttp://dbpedia.org/class/yago/Music107020895
p136
aVhttp://dbpedia.org/class/yago/MusicGenre107071942
p137
aVhttp://www.w3.org/2002/07/owl#Thing
p138
aVhttp://dbpedia.org/ontology/Genre
p139
aVhttp://www.ontologydesignpatterns.org/ont/dul/DUL.owl#Concept
p140
aVhttp://www.wikidata.org/entity/Q188451
p141
aVhttp://dbpedia.org/ontology/MusicGenre
p142
aVhttp://dbpedia.org/ontology/TopicalConcept
p143
aVhttp://dbpedia.org/resource/Electro_(music)
tp144
aa(lp145
((lp146
Vhttp://www.w3.org/2002/07/owl#Thing
p147
aVhttp://dbpedia.org/ontology/Genre
p148
aVhttp://www.ontologydesignpatterns.org/ont/dul/DUL.owl#Concept
p149
aVhttp://www.wikidata.org/entity/Q188451
p150
aVhttp://dbpedia.org/ontology/MusicGenre
p151
aVhttp://dbpedia.org/ontology/TopicalConcept
p152
aVhttp://umbel.org/umbel/rc/MusicalComposition
p153
aVhttp://dbpedia.org/resource/Electro_house
tp154
aa(lp155
((lp156
Vhttp://dbpedia.org/class/yago/Abstraction100002137
p157
aVhttp://dbpedia.org/class/yago/AuditoryCommunication107109019
p158
aVhttp://dbpedia.org/class/yago/Communication100033020
p159
aVhttp://dbpedia.org/class/yago/ExpressiveStyle107066659
p160
aVhttp://dbpedia.org/class/yago/Music107020895
p161
aVhttp://dbpedia.org/class/yago/MusicGenre107071942
p162
aVhttp://www.w3.org/2002/07/owl#Thing
p163
aVhttp://dbpedia.org/ontology/Genre
p164
aVhttp://www.ontologydesignpatterns.org/ont/dul/DUL.owl#Concept
p165
aVhttp://www.wikidata.org/entity/Q188451
p166
aVhttp://dbpedia.org/ontology/MusicGenre
p167
aVhttp://dbpedia.org/ontology/TopicalConcept
p168
aVhttp://umbel.org/umbel/rc/MusicalComposition
p169
aVhttp://dbpedia.org/class/yago/ElectronicMusicGenres
p170
aVhttp://dbpedia.org/resource/Electroclash
tp171
aa(lp172
((lp173
Vhttp://dbpedia.org/class/yago/Abstraction100002137
p174
aVhttp://dbpedia.org/class/yago/AuditoryCommunication107109019
p175
aVhttp://dbpedia.org/class/yago/Communication100033020
p176
aVhttp://dbpedia.org/class/yago/ExpressiveStyle107066659
p177
aVhttp://dbpedia.org/class/yago/Music107020895
p178
aVhttp://dbpedia.org/class/yago/MusicGenre107071942
p179
aVhttp://dbpedia.org/class/yago/RockMusicGenres
p180
aVhttp://www.w3.org/2002/07/owl#Thing
p181
aVhttp://dbpedia.org/ontology/Genre
p182
aVhttp://www.ontologydesignpatterns.org/ont/dul/DUL.owl#Concept
p183
aVhttp://www.wikidata.org/entity/Q188451
p184
aVhttp://dbpedia.org/ontology/MusicGenre
p185
aVhttp://dbpedia.org/ontology/TopicalConcept
p186
aVhttp://umbel.org/umbel/rc/MusicalComposition
p187
aVhttp://dbpedia.org/class/yago/ElectronicMusicGenres
p188
aVhttp://dbpedia.org/class/yago/PopMusicGenres
p189
aVhttp://dbpedia.org/resource/Synthpop
tp190
aa(lp191
((lp192
Vhttp://www.w3.org/2002/07/owl#Thing
p193
aVhttp://dbpedia.org/ontology/Genre
p194
aVhttp://www.ontologydesignpatterns.org/ont/dul/DUL.owl#Concept
p195
aVhttp://www.wikidata.org/entity/Q188451
p196
aVhttp://dbpedia.org/ontology/TopicalConcept
p197
aVhttp://dbpedia.org/resource/Enterprise_service_bus
tp198
aa(lp199
((lp200
Vhttp://dbpedia.org/class/yago/Abstraction100002137
p201
aVhttp://dbpedia.org/class/yago/Act100030358
p202
aVhttp://dbpedia.org/class/yago/Activity100407535
p203
aVhttp://dbpedia.org/class/yago/ComputerGame100458890
p204
aVhttp://dbpedia.org/class/yago/Diversion100426928
p205
aVhttp://dbpedia.org/class/yago/Event100029378
p206
aVhttp://www.w3.org/2002/07/owl#Thing
p207
aVhttp://dbpedia.org/ontology/Genre
p208
aVhttp://www.ontologydesignpatterns.org/ont/dul/DUL.owl#Concept
p209
aVhttp://www.wikidata.org/entity/Q188451
p210
aVhttp://dbpedia.org/ontology/TopicalConcept
p211
aVhttp://dbpedia.org/class/yago/EpisodicVideoGames
p212
aVhttp://dbpedia.org/class/yago/PsychologicalFeature100023100
p213
aVhttp://dbpedia.org/class/yago/YagoPermanentlyLocatedEntity
p214
aVhttp://dbpedia.org/class/yago/Game100430606
p215
aVhttp://dbpedia.org/resource/Episodic_video_game
tp216
aa(lp217
((lp218
Vhttp://www.w3.org/2002/07/owl#Thing
p219
aVhttp://dbpedia.org/ontology/Genre
p220
aVhttp://www.ontologydesignpatterns.org/ont/dul/DUL.owl#Concept
p221
aVhttp://www.wikidata.org/entity/Q188451
p222
aVhttp://dbpedia.org/ontology/TopicalConcept
p223
aVhttp://dbpedia.org/resource/Fair
tp224
aa(lp225
((lp226
Vhttp://www.w3.org/2002/07/owl#Thing
p227
aVhttp://www.wikidata.org/entity/Q15416
p228
aVhttp://www.wikidata.org/entity/Q386724
p229
aVhttp://dbpedia.org/ontology/TelevisionShow
p230
aVhttp://dbpedia.org/ontology/Work
p231
aVhttp://schema.org/CreativeWork
p232
aVhttp://dbpedia.org/resource/Familie
tp233
aa(lp234
((lp235
Vhttp://dbpedia.org/class/yago/Abstraction100002137
p236
aVhttp://dbpedia.org/class/yago/Act100030358
p237
aVhttp://dbpedia.org/class/yago/Activity100407535
p238
aVhttp://dbpedia.org/class/yago/ComputerGame100458890
p239
aVhttp://dbpedia.org/class/yago/Diversion100426928
p240
aVhttp://dbpedia.org/class/yago/Event100029378
p241
aVhttp://www.w3.org/2002/07/owl#Thing
p242
aVhttp://dbpedia.org/ontology/Genre
p243
aVhttp://www.ontologydesignpatterns.org/ont/dul/DUL.owl#Concept
p244
aVhttp://www.wikidata.org/entity/Q188451
p245
aVhttp://dbpedia.org/ontology/TopicalConcept
p246
aVhttp://dbpedia.org/class/yago/CrossoverVideoGames
p247
aVhttp://dbpedia.org/class/yago/PsychologicalFeature100023100
p248
aVhttp://dbpedia.org/class/yago/YagoPermanentlyLocatedEntity
p249
aVhttp://dbpedia.org/class/yago/Game100430606
p250
aVhttp://dbpedia.org/resource/Fictional_crossovers_in_video_games
tp251
aa(lp252
((lp253
Vhttp://dbpedia.org/class/yago/Artifact100021939
p254
aVhttp://dbpedia.org/class/yago/Device103183080
p255
aVhttp://dbpedia.org/class/yago/Guitar103467517
p256
aVhttp://dbpedia.org/class/yago/MusicalInstrument103800933
p257
aVhttp://dbpedia.org/class/yago/Object100002684
p258
aVhttp://dbpedia.org/class/yago/StringedInstrument104338517
p259
aVhttp://dbpedia.org/class/yago/Whole100003553
p260
aVhttp://www.w3.org/2002/07/owl#Thing
p261
aVhttp://dbpedia.org/ontology/Genre
p262
aVhttp://www.ontologydesignpatterns.org/ont/dul/DUL.owl#Concept
p263
aVhttp://www.wikidata.org/entity/Q188451
p264
aVhttp://dbpedia.org/ontology/TopicalConcept
p265
aVhttp://dbpedia.org/class/yago/Guitars
p266
aVhttp://dbpedia.org/class/yago/Instrumentality103575240
p267
aVhttp://dbpedia.org/class/yago/PhysicalEntity100001930
p268
aVhttp://dbpedia.org/resource/Fingerstyle_guitar
p269
tp270
aa(lp271
aa.