(lp1
(lp2
(lp3
a(lp4
aa(lp5
(lp6
a(lp7
aa(lp8
(lp9
a(lp10
aa(lp11
(lp12
a(lp13
aa(lp14
(lp15
((lp16
Vhttp://dbpedia.org/class/yago/AirMarshal109781171
p17
aVhttp://dbpedia.org/class/yago/AlumniOfNalandaCollege,Colombo
p18
aVhttp://dbpedia.org/class/yago/Alumnus109786338
p19
aVhttp://dbpedia.org/class/yago/CausalAgent100007347
p20
aVhttp://dbpedia.org/class/yago/Defender109614684
p21
aVhttp://dbpedia.org/class/yago/Intellectual109621545
p22
aVhttp://dbpedia.org/class/yago/Lawman110249459
p23
aVhttp://dbpedia.org/class/yago/LivingThing100004258
p24
aVhttp://dbpedia.org/class/yago/Marshal110295951
p25
aVhttp://dbpedia.org/class/yago/Object100002684
p26
aVhttp://dbpedia.org/class/yago/Organism100004475
p27
aVhttp://dbpedia.org/class/yago/Person100007846
p28
aVhttp://dbpedia.org/class/yago/Scholar110557854
p29
aVhttp://dbpedia.org/class/yago/Whole100003553
p30
aVhttp://dbpedia.org/class/yago/YagoLegalActorGeo
p31
aVhttp://dbpedia.org/class/yago/SriLankaAirForceAirMarshals
p32
aVhttp://www.w3.org/2002/07/owl#Thing
p33
aVhttp://xmlns.com/foaf/0.1/Person
p34
aVhttp://dbpedia.org/ontology/Person
p35
aVhttp://www.ontologydesignpatterns.org/ont/dul/DUL.owl#Agent
p36
aVhttp://www.ontologydesignpatterns.org/ont/dul/DUL.owl#NaturalPerson
p37
aVhttp://www.wikidata.org/entity/Q215627
p38
aVhttp://www.wikidata.org/entity/Q5
p39
aVhttp://dbpedia.org/ontology/Agent
p40
aVhttp://dbpedia.org/ontology/MilitaryPerson
p41
aVhttp://schema.org/Person
p42
aVhttp://dbpedia.org/class/yago/Preserver110466918
p43
aVhttp://dbpedia.org/class/yago/YagoLegalActor
p44
aVhttp://dbpedia.org/class/yago/LivingPeople
p45
aVhttp://dbpedia.org/class/yago/PhysicalEntity100001930
p46
aVhttp://dbpedia.org/resource/Kapila_Jayampathi
p47
tp48
aa(lp49
aa(lp50
(lp51
a(lp52
aa(lp53
(lp54
a(lp55
aa(lp56
(lp57
a(lp58
aa(lp59
(lp60
a(lp61
aa(lp62
(lp63
a(lp64
aa(lp65
(lp66
a(lp67
aa(lp68
(lp69
a(lp70
aa.