ccollections
defaultdict
p1
(c__builtin__
dict
p2
tRp3
I1
(dp4
I0
(lp5
sI1
(lp6
sI3
(lp7
ssI3
(dp8
I0
(lp9
Vhttp://dbpedia.org/ontology/wikiPageExternalLink
p10
aVhttp://xmlns.com/foaf/0.1/homepage
p11
aVhttp://dbpedia.org/property/s
p12
asI1
(lp13
sI3
(lp14
ssI4
(dp15
I0
(lp16
Vhttp://dbpedia.org/ontology/wikiPageExternalLink
p17
aVhttp://xmlns.com/foaf/0.1/homepage
p18
asI1
(lp19
sI3
(lp20
ssI5
(dp21
I0
(lp22
Vhttp://dbpedia.org/ontology/wikiPageExternalLink
p23
aVhttp://xmlns.com/foaf/0.1/homepage
p24
aVhttp://dbpedia.org/property/s
p25
asI1
(lp26
sI3
(lp27
ssI6
(dp28
I0
(lp29
Vhttp://dbpedia.org/ontology/wikiPageExternalLink
p30
aVhttp://xmlns.com/foaf/0.1/homepage
p31
aVhttp://dbpedia.org/property/s
p32
asI1
(lp33
sI3
(lp34
ssI7
(dp35
I0
(lp36
Vhttp://dbpedia.org/ontology/wikiPageExternalLink
p37
aVhttp://xmlns.com/foaf/0.1/homepage
p38
aVhttp://dbpedia.org/property/s
p39
asI1
(lp40
sI3
(lp41
ssI8
(dp42
I0
(lp43
Vhttp://dbpedia.org/ontology/wikiPageExternalLink
p44
aVhttp://xmlns.com/foaf/0.1/homepage
p45
aVhttp://dbpedia.org/property/s
p46
asI1
(lp47
sI3
(lp48
ssI9
(dp49
I0
(lp50
Vhttp://dbpedia.org/ontology/wikiPageExternalLink
p51
aVhttp://xmlns.com/foaf/0.1/homepage
p52
aVhttp://dbpedia.org/property/s
p53
asI1
(lp54
sI3
(lp55
ssI10
(dp56
I0
(lp57
sI1
(lp58
sI3
(lp59
ssI13
(dp60
I0
(lp61
sI1
(lp62
sI3
(lp63
ssI18
(dp64
I0
(lp65
Vhttp://dbpedia.org/ontology/wikiPageExternalLink
p66
aVhttp://dbpedia.org/property/report
p67
asI1
(lp68
sI3
(lp69
ss.