(lp1
(dp2
I0
(dp3
I0
(lp4
sI1
(lp5
sI2
(lp6
sI3
(lp7
ssI1
(dp8
I0
g5
sI1
(lp9
sI2
(lp10
sI3
(lp11
ssI2
(dp12
I0
g6
sI1
g10
sI2
(lp13
sI3
(lp14
ssI3
(dp15
I0
g7
sI1
g11
sI2
g14
sI3
(lp16
ssa(dp17
I0
(dp18
I0
(lp19
sI1
(lp20
sI2
(lp21
sI3
(lp22
ssI1
(dp23
I0
g20
sI1
(lp24
sI2
(lp25
sI3
(lp26
ssI2
(dp27
I0
g21
sI1
g25
sI2
(lp28
sI3
(lp29
ssI3
(dp30
I0
g22
sI1
g26
sI2
g29
sI3
(lp31
ssa(dp32
I0
(dp33
I0
(lp34
sI1
(lp35
sI2
(lp36
sI3
(lp37
ssI1
(dp38
I0
g35
sI1
(lp39
sI2
(lp40
sI3
(lp41
ssI2
(dp42
I0
g36
sI1
g40
sI2
(lp43
sI3
(lp44
ssI3
(dp45
I0
g37
sI1
g41
sI2
g44
sI3
(lp46
ssa(dp47
I0
(dp48
I0
(lp49
sI1
(lp50
sI2
(lp51
Vhttp://dbpedia.org/ontology/wikiPageExternalLink
p52
aVhttp://xmlns.com/foaf/0.1/homepage
p53
aVhttp://dbpedia.org/property/s
p54
asI3
(lp55
ssI1
(dp56
I0
g50
sI1
(lp57
sI2
(lp58
sI3
(lp59
ssI2
(dp60
I0
g51
sI1
g58
sI2
(lp61
sI3
(lp62
ssI3
(dp63
I0
g55
sI1
g59
sI2
g62
sI3
(lp64
ssa(dp65
I0
(dp66
I0
(lp67
sI1
(lp68
sI2
(lp69
Vhttp://dbpedia.org/ontology/wikiPageExternalLink
p70
aVhttp://xmlns.com/foaf/0.1/homepage
p71
asI3
(lp72
ssI1
(dp73
I0
g68
sI1
(lp74
sI2
(lp75
sI3
(lp76
ssI2
(dp77
I0
g69
sI1
g75
sI2
(lp78
sI3
(lp79
ssI3
(dp80
I0
g72
sI1
g76
sI2
g79
sI3
(lp81
ssa(dp82
I0
(dp83
I0
(lp84
sI1
(lp85
sI2
(lp86
Vhttp://dbpedia.org/ontology/wikiPageExternalLink
p87
aVhttp://xmlns.com/foaf/0.1/homepage
p88
aVhttp://dbpedia.org/property/s
p89
asI3
(lp90
ssI1
(dp91
I0
g85
sI1
(lp92
sI2
(lp93
sI3
(lp94
ssI2
(dp95
I0
g86
sI1
g93
sI2
(lp96
sI3
(lp97
ssI3
(dp98
I0
g90
sI1
g94
sI2
g97
sI3
(lp99
ssa(dp100
I0
(dp101
I0
(lp102
sI1
(lp103
sI2
(lp104
Vhttp://dbpedia.org/ontology/wikiPageExternalLink
p105
aVhttp://xmlns.com/foaf/0.1/homepage
p106
aVhttp://dbpedia.org/property/s
p107
asI3
(lp108
ssI1
(dp109
I0
g103
sI1
(lp110
sI2
(lp111
sI3
(lp112
ssI2
(dp113
I0
g104
sI1
g111
sI2
(lp114
sI3
(lp115
ssI3
(dp116
I0
g108
sI1
g112
sI2
g115
sI3
(lp117
ssa(dp118
I0
(dp119
I0
(lp120
sI1
(lp121
sI2
(lp122
Vhttp://dbpedia.org/ontology/wikiPageExternalLink
p123
aVhttp://xmlns.com/foaf/0.1/homepage
p124
aVhttp://dbpedia.org/property/s
p125
asI3
(lp126
ssI1
(dp127
I0
g121
sI1
(lp128
sI2
(lp129
sI3
(lp130
ssI2
(dp131
I0
g122
sI1
g129
sI2
(lp132
sI3
(lp133
ssI3
(dp134
I0
g126
sI1
g130
sI2
g133
sI3
(lp135
ssa(dp136
I0
(dp137
I0
(lp138
sI1
(lp139
sI2
(lp140
Vhttp://dbpedia.org/ontology/wikiPageExternalLink
p141
aVhttp://xmlns.com/foaf/0.1/homepage
p142
aVhttp://dbpedia.org/property/s
p143
asI3
(lp144
ssI1
(dp145
I0
g139
sI1
(lp146
sI2
(lp147
sI3
(lp148
ssI2
(dp149
I0
g140
sI1
g147
sI2
(lp150
sI3
(lp151
ssI3
(dp152
I0
g144
sI1
g148
sI2
g151
sI3
(lp153
ssa(dp154
I0
(dp155
I0
(lp156
sI1
(lp157
sI2
(lp158
Vhttp://dbpedia.org/ontology/wikiPageExternalLink
p159
aVhttp://xmlns.com/foaf/0.1/homepage
p160
aVhttp://dbpedia.org/property/s
p161
asI3
(lp162
ssI1
(dp163
I0
g157
sI1
(lp164
sI2
(lp165
sI3
(lp166
ssI2
(dp167
I0
g158
sI1
g165
sI2
(lp168
sI3
(lp169
ssI3
(dp170
I0
g162
sI1
g166
sI2
g169
sI3
(lp171
ssa(dp172
I0
(dp173
I0
(lp174
sI1
(lp175
sI2
(lp176
sI3
(lp177
ssI1
(dp178
I0
g175
sI1
(lp179
sI2
(lp180
sI3
(lp181
ssI2
(dp182
I0
g176
sI1
g180
sI2
(lp183
sI3
(lp184
ssI3
(dp185
I0
g177
sI1
g181
sI2
g184
sI3
(lp186
ssa(dp187
I0
(dp188
I0
(lp189
sI1
(lp190
sI2
(lp191
sI3
(lp192
ssI1
(dp193
I0
g190
sI1
(lp194
sI2
(lp195
sI3
(lp196
ssI2
(dp197
I0
g191
sI1
g195
sI2
(lp198
sI3
(lp199
ssI3
(dp200
I0
g192
sI1
g196
sI2
g199
sI3
(lp201
ssa(dp202
I0
(dp203
I0
(lp204
sI1
(lp205
sI2
(lp206
sI3
(lp207
ssI1
(dp208
I0
g205
sI1
(lp209
sI2
(lp210
sI3
(lp211
ssI2
(dp212
I0
g206
sI1
g210
sI2
(lp213
sI3
(lp214
ssI3
(dp215
I0
g207
sI1
g211
sI2
g214
sI3
(lp216
ssa(dp217
I0
(dp218
I0
(lp219
sI1
(lp220
sI2
(lp221
sI3
(lp222
ssI1
(dp223
I0
g220
sI1
(lp224
sI2
(lp225
sI3
(lp226
ssI2
(dp227
I0
g221
sI1
g225
sI2
(lp228
sI3
(lp229
ssI3
(dp230
I0
g222
sI1
g226
sI2
g229
sI3
(lp231
ssa(dp232
I0
(dp233
I0
(lp234
sI1
(lp235
sI2
(lp236
sI3
(lp237
ssI1
(dp238
I0
g235
sI1
(lp239
sI2
(lp240
sI3
(lp241
ssI2
(dp242
I0
g236
sI1
g240
sI2
(lp243
sI3
(lp244
ssI3
(dp245
I0
g237
sI1
g241
sI2
g244
sI3
(lp246
ssa(dp247
I0
(dp248
I0
(lp249
sI1
(lp250
sI2
(lp251
sI3
(lp252
ssI1
(dp253
I0
g250
sI1
(lp254
sI2
(lp255
sI3
(lp256
ssI2
(dp257
I0
g251
sI1
g255
sI2
(lp258
sI3
(lp259
ssI3
(dp260
I0
g252
sI1
g256
sI2
g259
sI3
(lp261
ssa(dp262
I0
(dp263
I0
(lp264
sI1
(lp265
sI2
(lp266
sI3
(lp267
ssI1
(dp268
I0
g265
sI1
(lp269
sI2
(lp270
sI3
(lp271
ssI2
(dp272
I0
g266
sI1
g270
sI2
(lp273
sI3
(lp274
ssI3
(dp275
I0
g267
sI1
g271
sI2
g274
sI3
(lp276
ssa(dp277
I0
(dp278
I0
(lp279
sI1
(lp280
sI2
(lp281
sI3
(lp282
ssI1
(dp283
I0
g280
sI1
(lp284
sI2
(lp285
sI3
(lp286
ssI2
(dp287
I0
g281
sI1
g285
sI2
(lp288
sI3
(lp289
ssI3
(dp290
I0
g282
sI1
g286
sI2
g289
sI3
(lp291
ssa(dp292
I0
(dp293
I0
(lp294
sI1
(lp295
sI2
(lp296
Vhttp://dbpedia.org/ontology/wikiPageExternalLink
p297
aVhttp://dbpedia.org/property/report
p298
asI3
(lp299
ssI1
(dp300
I0
g295
sI1
(lp301
sI2
(lp302
sI3
(lp303
ssI2
(dp304
I0
g296
sI1
g302
sI2
(lp305
sI3
(lp306
ssI3
(dp307
I0
g299
sI1
g303
sI2
g306
sI3
(lp308
ssa.