(lp1
(lp2
(lp3
((lVhttp://dbpedia.org/resource/ATP_Challenger_Tour
tp4
aa(lp5
a(lp6
((lp7
Vhttp://dbpedia.org/class/yago/Abstraction100002137
p8
aVhttp://dbpedia.org/class/yago/Contest107456188
p9
aVhttp://dbpedia.org/class/yago/Event100029378
p10
aVhttp://dbpedia.org/class/yago/SocialEvent107288639
p11
aVhttp://dbpedia.org/class/yago/Tournament107464725
p12
aVhttp://www.w3.org/2002/07/owl#Thing
p13
aVhttp://www.ontologydesignpatterns.org/ont/dul/DUL.owl#Event
p14
aVhttp://www.wikidata.org/entity/Q1656682
p15
aVhttp://www.wikidata.org/entity/Q500834
p16
aVhttp://dbpedia.org/ontology/Event
p17
aVhttp://dbpedia.org/ontology/SocietalEvent
p18
aVhttp://dbpedia.org/ontology/SportsEvent
p19
aVhttp://dbpedia.org/ontology/Tournament
p20
aVhttp://dbpedia.org/ontology/WomensTennisAssociationTournament
p21
aVhttp://schema.org/Event
p22
aVhttp://schema.org/SportsEvent
p23
aVhttp://dbpedia.org/class/yago/PsychologicalFeature100023100
p24
aVhttp://dbpedia.org/class/yago/YagoPermanentlyLocatedEntity
p25
aVhttp://dbpedia.org/class/yago/HardCourtTennisTournaments
p26
aVhttp://dbpedia.org/class/yago/TennisTournamentsInMexico
p27
aVhttp://dbpedia.org/resource/Jalisco_Open
tp28
aa(lp29
((lp30
Vhttp://dbpedia.org/class/yago/Abstraction100002137
p31
aVhttp://dbpedia.org/class/yago/Contest107456188
p32
aVhttp://dbpedia.org/class/yago/Event100029378
p33
aVhttp://dbpedia.org/class/yago/SocialEvent107288639
p34
aVhttp://dbpedia.org/class/yago/Tournament107464725
p35
aVhttp://www.w3.org/2002/07/owl#Thing
p36
aVhttp://www.ontologydesignpatterns.org/ont/dul/DUL.owl#Event
p37
aVhttp://www.wikidata.org/entity/Q1656682
p38
aVhttp://www.wikidata.org/entity/Q500834
p39
aVhttp://dbpedia.org/ontology/Event
p40
aVhttp://dbpedia.org/ontology/SocietalEvent
p41
aVhttp://dbpedia.org/ontology/SportsEvent
p42
aVhttp://dbpedia.org/ontology/Tournament
p43
aVhttp://dbpedia.org/ontology/WomensTennisAssociationTournament
p44
aVhttp://schema.org/Event
p45
aVhttp://schema.org/SportsEvent
p46
aVhttp://dbpedia.org/class/yago/PsychologicalFeature100023100
p47
aVhttp://dbpedia.org/class/yago/YagoPermanentlyLocatedEntity
p48
aVhttp://dbpedia.org/class/yago/HardCourtTennisTournaments
p49
aVhttp://dbpedia.org/class/yago/TennisTournamentsInFrance
p50
aVhttp://dbpedia.org/resource/Open_BNP_Paribas_Banque_de_Bretagne
tp51
aa(lp52
a(lp53
((lp54
Vhttp://dbpedia.org/class/yago/Abstraction100002137
p55
aVhttp://dbpedia.org/class/yago/Act100030358
p56
aVhttp://dbpedia.org/class/yago/Activity100407535
p57
aVhttp://dbpedia.org/class/yago/Contest107456188
p58
aVhttp://dbpedia.org/class/yago/Diversion100426928
p59
aVhttp://dbpedia.org/class/yago/Event100029378
p60
aVhttp://dbpedia.org/class/yago/SocialEvent107288639
p61
aVhttp://dbpedia.org/class/yago/Sport100523513
p62
aVhttp://dbpedia.org/class/yago/Tournament107464725
p63
aVhttp://dbpedia.org/class/yago/SportsInTheDallas%E2%80%93FortWorthMetroplex
p64
aVhttp://www.w3.org/2002/07/owl#Thing
p65
aVhttp://www.ontologydesignpatterns.org/ont/dul/DUL.owl#Event
p66
aVhttp://www.wikidata.org/entity/Q1656682
p67
aVhttp://www.wikidata.org/entity/Q500834
p68
aVhttp://dbpedia.org/ontology/Event
p69
aVhttp://dbpedia.org/ontology/SocietalEvent
p70
aVhttp://dbpedia.org/ontology/SportsEvent
p71
aVhttp://dbpedia.org/ontology/Tournament
p72
aVhttp://dbpedia.org/ontology/WomensTennisAssociationTournament
p73
aVhttp://schema.org/Event
p74
aVhttp://schema.org/SportsEvent
p75
aVhttp://dbpedia.org/class/yago/PsychologicalFeature100023100
p76
aVhttp://dbpedia.org/class/yago/YagoPermanentlyLocatedEntity
p77
aVhttp://dbpedia.org/class/yago/HardCourtTennisTournaments
p78
aVhttp://dbpedia.org/class/yago/TennisTournamentsInTheUnitedStates
p79
aVhttp://dbpedia.org/resource/Texas_Tennis_Open
tp80
aa(lp81
((lp82
Vhttp://dbpedia.org/class/yago/Abstraction100002137
p83
aVhttp://dbpedia.org/class/yago/Contest107456188
p84
aVhttp://dbpedia.org/class/yago/Event100029378
p85
aVhttp://dbpedia.org/class/yago/SocialEvent107288639
p86
aVhttp://dbpedia.org/class/yago/Tournament107464725
p87
aVhttp://www.w3.org/2002/07/owl#Thing
p88
aVhttp://www.ontologydesignpatterns.org/ont/dul/DUL.owl#Event
p89
aVhttp://www.wikidata.org/entity/Q1656682
p90
aVhttp://www.wikidata.org/entity/Q500834
p91
aVhttp://dbpedia.org/ontology/Event
p92
aVhttp://dbpedia.org/ontology/SocietalEvent
p93
aVhttp://dbpedia.org/ontology/SportsEvent
p94
aVhttp://dbpedia.org/ontology/Tournament
p95
aVhttp://dbpedia.org/ontology/WomensTennisAssociationTournament
p96
aVhttp://schema.org/Event
p97
aVhttp://schema.org/SportsEvent
p98
aVhttp://dbpedia.org/class/yago/ClayCourtTennisTournaments
p99
aVhttp://dbpedia.org/class/yago/PsychologicalFeature100023100
p100
aVhttp://dbpedia.org/class/yago/YagoPermanentlyLocatedEntity
p101
aVhttp://dbpedia.org/class/yago/TennisTournamentsInSpain
p102
aVhttp://dbpedia.org/resource/Torneo_Omnia_Tenis_Ciudad_Madrid
tp103
aa(lp104
a(lp105
((lp106
Vhttp://dbpedia.org/class/yago/Abstraction100002137
p107
aVhttp://dbpedia.org/class/yago/Contest107456188
p108
aVhttp://dbpedia.org/class/yago/Event100029378
p109
aVhttp://dbpedia.org/class/yago/SocialEvent107288639
p110
aVhttp://dbpedia.org/class/yago/Tournament107464725
p111
aVhttp://www.w3.org/2002/07/owl#Thing
p112
aVhttp://www.ontologydesignpatterns.org/ont/dul/DUL.owl#Event
p113
aVhttp://www.wikidata.org/entity/Q1656682
p114
aVhttp://www.wikidata.org/entity/Q500834
p115
aVhttp://dbpedia.org/ontology/Event
p116
aVhttp://dbpedia.org/ontology/SocietalEvent
p117
aVhttp://dbpedia.org/ontology/SportsEvent
p118
aVhttp://dbpedia.org/ontology/Tournament
p119
aVhttp://dbpedia.org/ontology/WomensTennisAssociationTournament
p120
aVhttp://www.w3.org/2003/01/geo/wgs84_pos#SpatialThing
p121
aVhttp://schema.org/Event
p122
aVhttp://schema.org/SportsEvent
p123
aVhttp://dbpedia.org/class/yago/PsychologicalFeature100023100
p124
aVhttp://dbpedia.org/class/yago/YagoPermanentlyLocatedEntity
p125
aVhttp://dbpedia.org/class/yago/HardCourtTennisTournaments
p126
aVhttp://dbpedia.org/class/yago/TennisTournamentsInTheUnitedStates
p127
aVhttp://dbpedia.org/resource/Winston-Salem_Open
tp128
aa(lp129
((lp130
Vhttp://dbpedia.org/class/yago/Abstraction100002137
p131
aVhttp://dbpedia.org/class/yago/Contest107456188
p132
aVhttp://dbpedia.org/class/yago/Event100029378
p133
aVhttp://dbpedia.org/class/yago/SocialEvent107288639
p134
aVhttp://dbpedia.org/class/yago/Tournament107464725
p135
aVhttp://www.w3.org/2002/07/owl#Thing
p136
aVhttp://www.ontologydesignpatterns.org/ont/dul/DUL.owl#Event
p137
aVhttp://www.wikidata.org/entity/Q1656682
p138
aVhttp://www.wikidata.org/entity/Q500834
p139
aVhttp://dbpedia.org/ontology/Event
p140
aVhttp://dbpedia.org/ontology/SocietalEvent
p141
aVhttp://dbpedia.org/ontology/SportsEvent
p142
aVhttp://dbpedia.org/ontology/Tournament
p143
aVhttp://dbpedia.org/ontology/WomensTennisAssociationTournament
p144
aVhttp://www.w3.org/2003/01/geo/wgs84_pos#SpatialThing
p145
aVhttp://schema.org/Event
p146
aVhttp://schema.org/SportsEvent
p147
aVhttp://umbel.org/umbel/rc/Event
p148
aVhttp://umbel.org/umbel/rc/SportsEvent
p149
aVhttp://umbel.org/umbel/rc/Tournament
p150
aVhttp://dbpedia.org/class/yago/ClayCourtTennisTournaments
p151
aVhttp://dbpedia.org/class/yago/PsychologicalFeature100023100
p152
aVhttp://dbpedia.org/class/yago/YagoPermanentlyLocatedEntity
p153
aVhttp://dbpedia.org/class/yago/TennisTournamentsInSpain
p154
aVhttp://dbpedia.org/resource/Andalucia_Tennis_Experience
tp155
aa(lp156
((lp157
Vhttp://dbpedia.org/class/yago/Abstraction100002137
p158
aVhttp://dbpedia.org/class/yago/Contest107456188
p159
aVhttp://dbpedia.org/class/yago/Event100029378
p160
aVhttp://dbpedia.org/class/yago/SocialEvent107288639
p161
aVhttp://dbpedia.org/class/yago/Tournament107464725
p162
aVhttp://www.w3.org/2002/07/owl#Thing
p163
aVhttp://www.ontologydesignpatterns.org/ont/dul/DUL.owl#Event
p164
aVhttp://www.wikidata.org/entity/Q1656682
p165
aVhttp://www.wikidata.org/entity/Q500834
p166
aVhttp://dbpedia.org/ontology/Event
p167
aVhttp://dbpedia.org/ontology/SocietalEvent
p168
aVhttp://dbpedia.org/ontology/SportsEvent
p169
aVhttp://dbpedia.org/ontology/Tournament
p170
aVhttp://dbpedia.org/ontology/WomensTennisAssociationTournament
p171
aVhttp://schema.org/Event
p172
aVhttp://schema.org/SportsEvent
p173
aVhttp://dbpedia.org/class/yago/PsychologicalFeature100023100
p174
aVhttp://dbpedia.org/class/yago/YagoPermanentlyLocatedEntity
p175
aVhttp://dbpedia.org/class/yago/HardCourtTennisTournaments
p176
aVhttp://dbpedia.org/class/yago/TennisTournamentsInTheUnitedStates
p177
aVhttp://dbpedia.org/resource/Boston_Cup
tp178
aa(lp179
((lp180
Vhttp://dbpedia.org/class/yago/Abstraction100002137
p181
aVhttp://dbpedia.org/class/yago/Contest107456188
p182
aVhttp://dbpedia.org/class/yago/Event100029378
p183
aVhttp://dbpedia.org/class/yago/SocialEvent107288639
p184
aVhttp://dbpedia.org/class/yago/Tournament107464725
p185
aVhttp://dbpedia.org/class/yago/RecurringEventsDisestablishedIn2006
p186
aVhttp://www.w3.org/2002/07/owl#Thing
p187
aVhttp://www.ontologydesignpatterns.org/ont/dul/DUL.owl#Event
p188
aVhttp://www.wikidata.org/entity/Q1656682
p189
aVhttp://www.wikidata.org/entity/Q500834
p190
aVhttp://dbpedia.org/ontology/Event
p191
aVhttp://dbpedia.org/ontology/SocietalEvent
p192
aVhttp://dbpedia.org/ontology/SportsEvent
p193
aVhttp://dbpedia.org/ontology/Tournament
p194
aVhttp://dbpedia.org/ontology/WomensTennisAssociationTournament
p195
aVhttp://schema.org/Event
p196
aVhttp://schema.org/SportsEvent
p197
aVhttp://dbpedia.org/class/yago/ClayCourtTennisTournaments
p198
aVhttp://dbpedia.org/class/yago/PsychologicalFeature100023100
p199
aVhttp://dbpedia.org/class/yago/YagoPermanentlyLocatedEntity
p200
aVhttp://dbpedia.org/class/yago/TennisTournamentsInCatalonia
p201
aVhttp://dbpedia.org/class/yago/TennisTournamentsInSpain
p202
aVhttp://dbpedia.org/resource/Ciutat_de_Barcelona_Tennis_Tournament
tp203
aa(lp204
((lp205
Vhttp://dbpedia.org/class/yago/Abstraction100002137
p206
aVhttp://dbpedia.org/class/yago/Communication100033020
p207
aVhttp://dbpedia.org/class/yago/Currency113385913
p208
aVhttp://dbpedia.org/class/yago/Document106470073
p209
aVhttp://dbpedia.org/class/yago/LegalDocument106479665
p210
aVhttp://dbpedia.org/class/yago/Standard107260623
p211
aVhttp://dbpedia.org/class/yago/SystemOfMeasurement113577171
p212
aVhttp://dbpedia.org/class/yago/Warrant106547059
p213
aVhttp://dbpedia.org/class/yago/Writ106552984
p214
aVhttp://dbpedia.org/class/yago/Writing106362953
p215
aVhttp://www.w3.org/2002/07/owl#Thing
p216
aVhttp://dbpedia.org/ontology/Currency
p217
aVhttp://umbel.org/umbel/rc/Currency
p218
aVhttp://dbpedia.org/class/yago/CurrenciesOfAustralia
p219
aVhttp://dbpedia.org/class/yago/CurrenciesOfPapuaNewGuinea
p220
aVhttp://dbpedia.org/class/yago/WrittenCommunication106349220
p221
aVhttp://dbpedia.org/class/yago/Measure100033615
p222
aVhttp://dbpedia.org/class/yago/MediumOfExchange113372961
p223
aVhttp://dbpedia.org/class/yago/WarrantsIssuedInHongKongStockExchange
p224
aVhttp://dbpedia.org/resource/Australian_dollar
tp225
aa(lp226
((lp227
Vhttp://dbpedia.org/class/yago/Abstraction100002137
p228
aVhttp://dbpedia.org/class/yago/Contest107456188
p229
aVhttp://dbpedia.org/class/yago/Event100029378
p230
aVhttp://dbpedia.org/class/yago/SocialEvent107288639
p231
aVhttp://dbpedia.org/class/yago/Tournament107464725
p232
aVhttp://www.w3.org/2002/07/owl#Thing
p233
aVhttp://www.ontologydesignpatterns.org/ont/dul/DUL.owl#Event
p234
aVhttp://www.wikidata.org/entity/Q1656682
p235
aVhttp://www.wikidata.org/entity/Q500834
p236
aVhttp://dbpedia.org/ontology/Event
p237
aVhttp://dbpedia.org/ontology/SocietalEvent
p238
aVhttp://dbpedia.org/ontology/SportsEvent
p239
aVhttp://dbpedia.org/ontology/Tournament
p240
aVhttp://dbpedia.org/ontology/WomensTennisAssociationTournament
p241
aVhttp://schema.org/Event
p242
aVhttp://schema.org/SportsEvent
p243
aVhttp://dbpedia.org/class/yago/PsychologicalFeature100023100
p244
aVhttp://dbpedia.org/class/yago/YagoPermanentlyLocatedEntity
p245
aVhttp://dbpedia.org/class/yago/GrassCourtTennisTournaments
p246
aVhttp://dbpedia.org/class/yago/HardCourtTennisTournaments
p247
aVhttp://dbpedia.org/class/yago/TennisTournamentsInTheUnitedStates
p248
aVhttp://dbpedia.org/resource/Merion_Open
tp249
aa(lp250
((lp251
Vhttp://dbpedia.org/class/yago/Abstraction100002137
p252
aVhttp://dbpedia.org/class/yago/Contest107456188
p253
aVhttp://dbpedia.org/class/yago/Event100029378
p254
aVhttp://dbpedia.org/class/yago/SocialEvent107288639
p255
aVhttp://dbpedia.org/class/yago/Tournament107464725
p256
aVhttp://www.w3.org/2002/07/owl#Thing
p257
aVhttp://www.ontologydesignpatterns.org/ont/dul/DUL.owl#Event
p258
aVhttp://www.wikidata.org/entity/Q1656682
p259
aVhttp://www.wikidata.org/entity/Q500834
p260
aVhttp://dbpedia.org/ontology/Event
p261
aVhttp://dbpedia.org/ontology/SocietalEvent
p262
aVhttp://dbpedia.org/ontology/SportsEvent
p263
aVhttp://dbpedia.org/ontology/Tournament
p264
aVhttp://dbpedia.org/ontology/WomensTennisAssociationTournament
p265
aVhttp://schema.org/Event
p266
aVhttp://schema.org/SportsEvent
p267
aVhttp://dbpedia.org/class/yago/PsychologicalFeature100023100
p268
aVhttp://dbpedia.org/class/yago/YagoPermanentlyLocatedEntity
p269
aVhttp://dbpedia.org/class/yago/TennisTournamentsInCanada
p270
aVhttp://dbpedia.org/resource/Vancouver_WCT
tp271
aa(lp272
((lp273
Vhttp://dbpedia.org/class/yago/Abstraction100002137
p274
aVhttp://dbpedia.org/class/yago/Contest107456188
p275
aVhttp://dbpedia.org/class/yago/Event100029378
p276
aVhttp://dbpedia.org/class/yago/SocialEvent107288639
p277
aVhttp://dbpedia.org/class/yago/Tournament107464725
p278
aVhttp://www.w3.org/2002/07/owl#Thing
p279
aVhttp://www.ontologydesignpatterns.org/ont/dul/DUL.owl#Event
p280
aVhttp://www.wikidata.org/entity/Q1656682
p281
aVhttp://www.wikidata.org/entity/Q500834
p282
aVhttp://dbpedia.org/ontology/Event
p283
aVhttp://dbpedia.org/ontology/SocietalEvent
p284
aVhttp://dbpedia.org/ontology/SportsEvent
p285
aVhttp://dbpedia.org/ontology/Tournament
p286
aVhttp://dbpedia.org/ontology/WomensTennisAssociationTournament
p287
aVhttp://schema.org/Event
p288
aVhttp://schema.org/SportsEvent
p289
aVhttp://dbpedia.org/class/yago/PsychologicalFeature100023100
p290
aVhttp://dbpedia.org/class/yago/YagoPermanentlyLocatedEntity
p291
aVhttp://dbpedia.org/class/yago/HardCourtTennisTournaments
p292
aVhttp://dbpedia.org/class/yago/TennisTournamentsInTheUnitedStates
p293
aVhttp://dbpedia.org/resource/Rye_Brook_Open
tp294
aa(lp295
a(lp296
((lp297
Vhttp://dbpedia.org/class/yago/Abstraction100002137
p298
aVhttp://dbpedia.org/class/yago/Act100030358
p299
aVhttp://dbpedia.org/class/yago/Activity100407535
p300
aVhttp://dbpedia.org/class/yago/CarpetCourtTennisTournaments
p301
aVhttp://dbpedia.org/class/yago/Contest107456188
p302
aVhttp://dbpedia.org/class/yago/Diversion100426928
p303
aVhttp://dbpedia.org/class/yago/Event100029378
p304
aVhttp://dbpedia.org/class/yago/SocialEvent107288639
p305
aVhttp://dbpedia.org/class/yago/Sport100523513
p306
aVhttp://dbpedia.org/class/yago/Tournament107464725
p307
aVhttp://dbpedia.org/class/yago/SportsInBirmingham,Alabama
p308
aVhttp://www.w3.org/2002/07/owl#Thing
p309
aVhttp://www.ontologydesignpatterns.org/ont/dul/DUL.owl#Event
p310
aVhttp://www.wikidata.org/entity/Q1656682
p311
aVhttp://www.wikidata.org/entity/Q500834
p312
aVhttp://dbpedia.org/ontology/Event
p313
aVhttp://dbpedia.org/ontology/SocietalEvent
p314
aVhttp://dbpedia.org/ontology/SportsEvent
p315
aVhttp://dbpedia.org/ontology/Tournament
p316
aVhttp://dbpedia.org/ontology/WomensTennisAssociationTournament
p317
aVhttp://schema.org/Event
p318
aVhttp://schema.org/SportsEvent
p319
aVhttp://dbpedia.org/class/yago/PsychologicalFeature100023100
p320
aVhttp://dbpedia.org/class/yago/YagoPermanentlyLocatedEntity
p321
aVhttp://dbpedia.org/class/yago/IndoorTennisTournaments
p322
aVhttp://dbpedia.org/class/yago/TennisTournamentsInTheUnitedStates
p323
aVhttp://dbpedia.org/resource/ATP_Birmingham
tp324
aa(lp325
((lp326
Vhttp://dbpedia.org/class/yago/Abstraction100002137
p327
aVhttp://dbpedia.org/class/yago/Contest107456188
p328
aVhttp://dbpedia.org/class/yago/Event100029378
p329
aVhttp://dbpedia.org/class/yago/SocialEvent107288639
p330
aVhttp://dbpedia.org/class/yago/Tournament107464725
p331
aVhttp://www.w3.org/2002/07/owl#Thing
p332
aVhttp://www.ontologydesignpatterns.org/ont/dul/DUL.owl#Event
p333
aVhttp://www.wikidata.org/entity/Q1656682
p334
aVhttp://www.wikidata.org/entity/Q500834
p335
aVhttp://dbpedia.org/ontology/Event
p336
aVhttp://dbpedia.org/ontology/SocietalEvent
p337
aVhttp://dbpedia.org/ontology/SportsEvent
p338
aVhttp://dbpedia.org/ontology/Tournament
p339
aVhttp://dbpedia.org/ontology/WomensTennisAssociationTournament
p340
aVhttp://schema.org/Event
p341
aVhttp://schema.org/SportsEvent
p342
aVhttp://dbpedia.org/class/yago/ClayCourtTennisTournaments
p343
aVhttp://dbpedia.org/class/yago/PsychologicalFeature100023100
p344
aVhttp://dbpedia.org/class/yago/YagoPermanentlyLocatedEntity
p345
aVhttp://dbpedia.org/class/yago/TennisTournamentsInItaly
p346
aVhttp://dbpedia.org/resource/ATP_Florence
p347
tp348
aaa.