(lp1
(lp2
(lp3
a(lp4
aa(lp5
(lp6
a(lp7
aa(lp8
(lp9
a(lp10
aa(lp11
(lp12
a(lp13
aa(lp14
(lp15
a(lp16
aa(lp17
(lp18
a(lp19
aa(lp20
(lp21
a(lp22
aa(lp23
(lp24
a(lp25
aa(lp26
(lp27
((lp28
Vhttp://dbpedia.org/class/yago/Abstraction100002137
p29
aVhttp://dbpedia.org/class/yago/Act100030358
p30
aVhttp://dbpedia.org/class/yago/Activity100407535
p31
aVhttp://dbpedia.org/class/yago/Crime100766234
p32
aVhttp://dbpedia.org/class/yago/Event100029378
p33
aVhttp://dbpedia.org/class/yago/GroupAction101080366
p34
aVhttp://dbpedia.org/class/yago/MilitaryAction100952963
p35
aVhttp://dbpedia.org/class/yago/Transgression100745005
p36
aVhttp://dbpedia.org/class/yago/War100973077
p37
aVhttp://dbpedia.org/class/yago/Wrongdoing100732746
p38
aVhttp://dbpedia.org/class/yago/PsychologicalFeature100023100
p39
aVhttp://dbpedia.org/class/yago/YagoPermanentlyLocatedEntity
p40
aVhttp://dbpedia.org/class/yago/WarCrime100782518
p41
aVhttp://dbpedia.org/class/yago/WarCrimes
p42
aVhttp://dbpedia.org/class/yago/WarsByType
p43
aVhttp://dbpedia.org/resource/War_of_aggression
tp44
aa(lp45
aa(lp46
(lp47
a(lp48
aa(lp49
(lp50
a(lp51
aa(lp52
(lp53
a(lp54
aa(lp55
(lp56
((lVhttp://dbpedia.org/resource/Adaptive_behaviors
p57
tp58
aa(lp59
aa(lp60
(lp61
a(lp62
aa(lp63
(lp64
a(lp65
aa(lp66
(lp67
a(lp68
aa(lp69
(lp70
a(lp71
aa(lp72
(lp73
a(lp74
aa(lp75
(lp76
a(lp77
aa.