(lp1
(lp2
(lp3
a(lp4
a(lp5
Vhttp://dbpedia.org/resource/2006_Mr._Olympia
p6
aa(lp7
a(lp8
a(lp9
a(lp10
Vhttp://dbpedia.org/resource/United_States
p11
aaa(lp12
(lp13
a(lp14
a(lp15
a(lp16
a(lp17
a(lp18
a(lp19
aa(lp20
(lp21
a(lp22
a(lp23
a(lp24
a(lp25
a(lp26
a(lp27
aa(lp28
(lp29
a(lp30
a(lp31
a(lp32
a(lp33
a(lp34
a(lp35
aa(lp36
(lp37
a(lp38
a(lp39
a(lp40
a(lp41
a(lp42
a(lp43
aa(lp44
(lp45
a(lp46
a(lp47
a(lp48
a(lp49
a(lp50
a(lp51
aa(lp52
(lp53
a(lp54
a(lp55
a(lp56
a(lp57
a(lp58
a(lp59
aa(lp60
(lp61
a(lp62
a(lp63
Vhttp://dbpedia.org/resource/Busan_International_Film_Festival
p64
aa(lp65
a(lp66
a(lp67
a(lp68
aa(lp69
(lp70
a(lp71
a(lp72
Vhttp://dbpedia.org/resource/EB_Games_Expo
p73
aa(lp74
a(lp75
a(lp76
a(lp77
aa(lp78
(lp79
a(lp80
a(lp81
a(lp82
a(lp83
a(lp84
a(lp85
aa(lp86
(lp87
a(lp88
a(lp89
a(lp90
a(lp91
a(lp92
a(lp93
aa(lp94
(lp95
a(lp96
a(lp97
a(lp98
a(lp99
a(lp100
a(lp101
aa(lp102
(lp103
a(lp104
a(lp105
a(lp106
a(lp107
a(lp108
a(lp109
aa(lp110
(lp111
a(lp112
a(lp113
a(lp114
a(lp115
a(lp116
a(lp117
aa(lp118
(lp119
a(lp120
a(lp121
a(lp122
a(lp123
a(lp124
a(lp125
aa(lp126
(lp127
a(lp128
a(lp129
a(lp130
a(lp131
a(lp132
a(lp133
aa(lp134
(lp135
a(lp136
a(lp137
Vhttp://dbpedia.org/resource/Glastonbury_Festival_2014
p138
aa(lp139
a(lp140
a(lp141
a(lp142
aa(lp143
(lp144
a(lp145
a(lp146
Vhttp://dbpedia.org/resource/Great_Northern_Expedition
p147
aa(lp148
a(lp149
a(lp150
a(lp151
aa(lp152
(lp153
a(lp154
a(lp155
a(lp156
a(lp157
a(lp158
a(lp159
aa.