ccollections
defaultdict
p1
(c__builtin__
dict
p2
tRp3
I0
(dp4
I1
(lp5
Vhttp://dbpedia.org/property/nationalteam
p6
aVhttp://dbpedia.org/ontology/team
p7
asI2
(lp8
Vhttp://dbpedia.org/property/nationalteam
p9
aVhttp://dbpedia.org/ontology/team
p10
assI8
(dp11
I1
(lp12
sI2
(lp13
ssI2
(dp14
I1
(lp15
sI2
(lp16
ssI10
(dp17
I1
(lp18
sI2
(lp19
ss.