(lp1
(lp2
(lp3
Vhttp://dbpedia.org/resource/Addu_Atoll
p4
aa(lp5
Vhttp://dbpedia.org/resource/Adelaide_(disambiguation)
p6
aa(lp7
a(lp8
a(lp9
a(lp10
a(lp11
a(lp12
a(lp13
a(lp14
a(lp15
a(lp16
a(lp17
a(lp18
a(lp19
a(lp20
aa.