(lp1
(lp2
(lp3
a(lp4
a(lp5
Vhttp://dbpedia.org/resource/NGC_5679_Group
p6
aaa(lp7
(lp8
a(lp9
a(lp10
Vhttp://dbpedia.org/resource/NGC_2374
p11
aaa(lp12
(lp13
a(lp14
a(lp15
aa(lp16
(lp17
a(lp18
a(lp19
aa(lp20
(lp21
a(lp22
a(lp23
Vhttp://dbpedia.org/resource/NGC_32
p24
aaa(lp25
(lp26
a(lp27
a(lp28
Vhttp://dbpedia.org/resource/NGC_32
p29
aaa(lp30
(lp31
a(lp32
a(lp33
aa(lp34
(lp35
a(lp36
a(lp37
aa(lp38
(lp39
a(lp40
a(lp41
Vhttp://dbpedia.org/resource/Canes_Venatici_Dwarf_Galaxy
p42
aaa(lp43
(lp44
a(lp45
a(lp46
Vhttp://dbpedia.org/resource/NGC_6031
p47
aaa(lp48
(lp49
a(lp50
a(lp51
aa(lp52
(lp53
a(lp54
a(lp55
aa(lp56
(lp57
a(lp58
a(lp59
Vhttp://dbpedia.org/resource/NGC_32
p60
aaa(lp61
(lp62
a(lp63
a(lp64
aa(lp65
(lp66
a(lp67
a(lp68
Vhttp://dbpedia.org/resource/NGC_362
p69
aaa(lp70
(lp71
a(lp72
a(lp73
aa(lp74
(lp75
a(lp76
a(lp77
aa(lp78
(lp79
a(lp80
a(lp81
aa(lp82
(lp83
a(lp84
a(lp85
Vhttp://dbpedia.org/resource/Messier_110
p86
aaa.