(lp1
(dp2
I0
(dp3
I0
(lp4
sI1
(lp5
sI2
(lp6
sI3
(lp7
ssI1
(dp8
I0
g5
sI1
(lp9
sI2
(lp10
sI3
(lp11
ssI2
(dp12
I0
g6
sI1
g10
sI2
(lp13
sI3
(lp14
ssI3
(dp15
I0
g7
sI2
g14
sI3
(lp16
ssa(dp17
I0
(dp18
I0
(lp19
sI1
(lp20
sI2
(lp21
sI3
(lp22
ssI1
(dp23
I0
g20
sI1
(lp24
sI2
(lp25
sI3
(lp26
ssI2
(dp27
I0
g21
sI1
g25
sI2
(lp28
sI3
(lp29
ssI3
(dp30
I0
g22
sI2
g29
sI3
(lp31
ssa(dp32
I0
(dp33
I0
(lp34
sI1
(lp35
Vhttp://dbpedia.org/ontology/country
p36
aVhttp://dbpedia.org/ontology/birthPlace
p37
aVhttp://dbpedia.org/property/birthPlace
p38
aVhttp://dbpedia.org/property/placeOfBirth
p39
asI2
(lp40
sI3
(lp41
Vhttp://dbpedia.org/ontology/country
p42
aVhttp://dbpedia.org/ontology/birthPlace
p43
aVhttp://dbpedia.org/property/birthPlace
p44
aVhttp://dbpedia.org/property/placeOfBirth
p45
assI1
(dp46
I0
g35
sI1
(lp47
sI2
(lp48
sI3
(lp49
ssI2
(dp50
I0
g40
sI1
g48
sI2
(lp51
sI3
(lp52
ssI3
(dp53
I0
g41
sI2
g52
sI3
(lp54
ssa(dp55
I0
(dp56
I0
(lp57
sI1
(lp58
sI2
(lp59
sI3
(lp60
ssI1
(dp61
I0
g58
sI1
(lp62
sI2
(lp63
sI3
(lp64
ssI2
(dp65
I0
g59
sI2
(lp66
sI3
(lp67
ssI3
(dp68
I0
g60
sI3
(lp69
ssa(dp70
I0
(dp71
I0
(lp72
sI1
(lp73
sI2
(lp74
sI3
(lp75
ssI1
(dp76
I0
g73
sI1
(lp77
sI2
(lp78
sI3
(lp79
ssI2
(dp80
I0
g74
sI2
(lp81
sI3
(lp82
ssI3
(dp83
I0
g75
sI3
(lp84
ssa(dp85
I0
(dp86
I0
(lp87
sI1
(lp88
sI2
(lp89
sI3
(lp90
ssI1
(dp91
I0
g88
sI1
(lp92
sI2
(lp93
sI3
(lp94
ssI2
(dp95
I0
g89
sI2
(lp96
sI3
(lp97
ssI3
(dp98
I0
g90
sI3
(lp99
ssa(dp100
I0
(dp101
I0
(lp102
sI1
(lp103
Vhttp://dbpedia.org/ontology/hometown
p104
aVhttp://dbpedia.org/ontology/birthPlace
p105
aVhttp://dbpedia.org/property/birthPlace
p106
aVhttp://dbpedia.org/property/hometown
p107
asI2
(lp108
sI3
(lp109
Vhttp://dbpedia.org/ontology/country
p110
aVhttp://dbpedia.org/ontology/birthPlace
p111
aVhttp://dbpedia.org/property/placeOfBirth
p112
assI1
(dp113
I0
g103
sI1
(lp114
sI2
(lp115
sI3
(lp116
ssI2
(dp117
I0
g108
sI1
g115
sI2
(lp118
sI3
(lp119
ssI3
(dp120
I0
g109
sI1
g116
sI2
g119
sI3
(lp121
ssa(dp122
I0
(dp123
I0
(lp124
sI1
(lp125
sI2
(lp126
sI3
(lp127
ssI1
(dp128
I0
g125
sI1
(lp129
sI2
(lp130
sI3
(lp131
ssI2
(dp132
I0
g126
sI1
g130
sI2
(lp133
sI3
(lp134
ssI3
(dp135
I0
g127
sI2
g134
sI3
(lp136
ssa(dp137
I0
(dp138
I0
(lp139
sI1
(lp140
sI2
(lp141
sI3
(lp142
ssI1
(dp143
I0
g140
sI1
(lp144
sI2
(lp145
sI3
(lp146
ssI2
(dp147
I0
g141
sI2
(lp148
sI3
(lp149
ssI3
(dp150
I0
g142
sI3
(lp151
ssa(dp152
I0
(dp153
I0
(lp154
sI1
(lp155
sI2
(lp156
sI3
(lp157
ssI1
(dp158
I0
g155
sI1
(lp159
sI2
(lp160
sI3
(lp161
ssI2
(dp162
I0
g156
sI2
(lp163
sI3
(lp164
ssI3
(dp165
I0
g157
sI3
(lp166
ssa(dp167
I0
(dp168
I0
(lp169
sI1
(lp170
sI2
(lp171
sI3
(lp172
ssI1
(dp173
I0
g170
sI1
(lp174
sI2
(lp175
sI3
(lp176
ssI2
(dp177
I0
g171
sI2
(lp178
sI3
(lp179
ssI3
(dp180
I0
g172
sI3
(lp181
ssa(dp182
I0
(dp183
I0
(lp184
sI1
(lp185
sI2
(lp186
sI3
(lp187
ssI1
(dp188
I0
g185
sI1
(lp189
sI2
(lp190
sI3
(lp191
ssI2
(dp192
I0
g186
sI2
(lp193
sI3
(lp194
ssI3
(dp195
I0
g187
sI3
(lp196
ssa(dp197
I0
(dp198
I0
(lp199
sI1
(lp200
sI2
(lp201
sI3
(lp202
ssI1
(dp203
I0
g200
sI1
(lp204
sI2
(lp205
sI3
(lp206
ssI2
(dp207
I0
g201
sI2
(lp208
sI3
(lp209
ssI3
(dp210
I0
g202
sI3
(lp211
ssa(dp212
I0
(dp213
I0
(lp214
sI1
(lp215
sI2
(lp216
sI3
(lp217
ssI1
(dp218
I0
g215
sI1
(lp219
sI2
(lp220
sI3
(lp221
ssI2
(dp222
I0
g216
sI2
(lp223
sI3
(lp224
ssI3
(dp225
I0
g217
sI3
(lp226
ssa(dp227
I0
(dp228
I0
(lp229
sI1
(lp230
sI2
(lp231
sI3
(lp232
ssI1
(dp233
I0
g230
sI1
(lp234
sI2
(lp235
sI3
(lp236
ssI2
(dp237
I0
g231
sI2
(lp238
sI3
(lp239
ssI3
(dp240
I0
g232
sI3
(lp241
ssa(dp242
I0
(dp243
I0
(lp244
sI1
(lp245
sI2
(lp246
sI3
(lp247
ssI1
(dp248
I0
g245
sI1
(lp249
sI2
(lp250
sI3
(lp251
ssI2
(dp252
I0
g246
sI2
(lp253
sI3
(lp254
ssI3
(dp255
I0
g247
sI3
(lp256
ssa(dp257
I0
(dp258
I0
(lp259
sI1
(lp260
sI2
(lp261
sI3
(lp262
ssI1
(dp263
I0
g260
sI1
(lp264
sI2
(lp265
sI3
(lp266
ssI2
(dp267
I0
g261
sI2
(lp268
sI3
(lp269
ssI3
(dp270
I0
g262
sI3
(lp271
ssa(dp272
I0
(dp273
I0
(lp274
sI1
(lp275
sI2
(lp276
sI3
(lp277
ssI1
(dp278
I0
g275
sI1
(lp279
sI2
(lp280
sI3
(lp281
ssI2
(dp282
I0
g276
sI2
(lp283
sI3
(lp284
ssI3
(dp285
I0
g277
sI3
(lp286
ssa(dp287
I0
(dp288
I0
(lp289
sI1
(lp290
sI2
(lp291
sI3
(lp292
ssI1
(dp293
I0
g290
sI1
(lp294
sI2
(lp295
sI3
(lp296
ssI2
(dp297
I0
g291
sI1
g295
sI2
(lp298
sI3
(lp299
ssI3
(dp300
I0
g292
sI2
g299
sI3
(lp301
ssa.