(lp1
(lp2
(lp3
a(lp4
a(lp5
a(lp6
aa(lp7
(lp8
a(lp9
a(lp10
a(lp11
aa(lp12
(lp13
a(lp14
a(lp15
a(lp16
aa(lp17
(lp18
a(lp19
a(lp20
a(lp21
aa(lp22
(lp23
a(lp24
a(lp25
a(lp26
((lp27
Vhttp://dbpedia.org/class/yago/Abstraction100002137
p28
aVhttp://dbpedia.org/class/yago/Association108049401
p29
aVhttp://dbpedia.org/class/yago/Club108227214
p30
aVhttp://dbpedia.org/class/yago/Group100031264
p31
aVhttp://dbpedia.org/class/yago/Organization108008335
p32
aVhttp://dbpedia.org/class/yago/SocialGroup107950920
p33
aVhttp://dbpedia.org/class/yago/YagoLegalActorGeo
p34
aVhttp://dbpedia.org/class/yago/SportsClubsEstablishedIn1920
p35
aVhttp://www.w3.org/2002/07/owl#Thing
p36
aVhttp://dbpedia.org/class/yago/YagoPermanentlyLocatedEntity
p37
aVhttp://dbpedia.org/class/yago/YagoLegalActor
p38
aVhttp://dbpedia.org/resource/UCLA_Bruins_baseball
tp39
aaa(lp40
(lp41
a(lp42
a(lp43
a(lp44
aa(lp45
(lp46
a(lp47
a(lp48
a(lp49
aa(lp50
(lp51
a(lp52
a(lp53
a(lp54
((lp55
Vhttp://www.w3.org/2002/07/owl#Thing
p56
aVhttp://xmlns.com/foaf/0.1/Person
p57
aVhttp://dbpedia.org/ontology/Person
p58
aVhttp://www.ontologydesignpatterns.org/ont/dul/DUL.owl#Agent
p59
aVhttp://www.ontologydesignpatterns.org/ont/dul/DUL.owl#NaturalPerson
p60
aVhttp://www.wikidata.org/entity/Q215627
p61
aVhttp://www.wikidata.org/entity/Q5
p62
aVhttp://dbpedia.org/ontology/Agent
p63
aVhttp://dbpedia.org/ontology/OrganisationMember
p64
aVhttp://dbpedia.org/ontology/SportsTeamMember
p65
aVhttp://schema.org/Person
p66
aVhttp://dbpedia.org/resource/2011_Western_New_York_Flash_season
tp67
aaa(lp68
(lp69
a(lp70
a(lp71
a(lp72
aa(lp73
(lp74
a(lp75
a(lp76
a(lp77
aa(lp78
(lp79
a(lp80
a(lp81
a(lp82
((lVhttp://dbpedia.org/resource/2011\u201312_A-League_National_Youth_League
tp83
aaa(lp84
(lp85
a(lp86
a(lp87
a(lp88
aa(lp89
(lp90
a(lp91
a(lp92
a(lp93
aa(lp94
(lp95
a(lp96
a(lp97
a(lp98
aa(lp99
(lp100
a(lp101
a(lp102
a(lp103
((lVhttp://dbpedia.org/resource/2010%E2%80%9311_Bangor_City_F.C._season
tp104
aaa(lp105
(lp106
a(lp107
a(lp108
a(lp109
aa(lp110
(lp111
a(lp112
a(lp113
a(lp114
((lVhttp://dbpedia.org/resource/2012%E2%80%9313_Brisbane_Roar_season
tp115
aaa(lp116
(lp117
a(lp118
a(lp119
a(lp120
aa(lp121
(lp122
a(lp123
a(lp124
a(lp125
((lVhttp://dbpedia.org/resource/2010%E2%80%9311_C.D._Motagua_season
p126
tp127
aaa.