(lp1
(lp2
(lp3
a(lp4
a(lp5
a(lp6
aa(lp7
(lp8
a(lp9
a(lp10
a(lp11
aa(lp12
(lp13
a(lp14
a(lp15
a(lp16
aa(lp17
(lp18
a(lp19
a(lp20
a(lp21
aa(lp22
(lp23
a(lp24
a(lp25
a(lp26
aa(lp27
(lp28
a(lp29
a(lp30
a(lp31
aa(lp32
(lp33
Vhttp://dbpedia.org/resource/United_States_Ambassador_to_the_European_Union
p34
aa(lp35
a(lp36
a(lp37
aa(lp38
(lp39
a(lp40
a(lp41
a(lp42
aa(lp43
(lp44
a(lp45
a(lp46
a(lp47
aa(lp48
(lp49
a(lp50
a(lp51
a(lp52
aa(lp53
(lp54
Vhttp://dbpedia.org/resource/Archives_of_the_University_of_Santo_Tomas
p55
aa(lp56
a(lp57
a(lp58
aa(lp59
(lp60
a(lp61
a(lp62
a(lp63
aa(lp64
(lp65
a(lp66
a(lp67
a(lp68
aa(lp69
(lp70
Vhttp://dbpedia.org/resource/Ithaca_City_School_District
p71
aa(lp72
a(lp73
a(lp74
aa(lp75
(lp76
a(lp77
a(lp78
a(lp79
aa(lp80
(lp81
a(lp82
a(lp83
a(lp84
aa(lp85
(lp86
a(lp87
a(lp88
a(lp89
aa(lp90
(lp91
a(lp92
a(lp93
a(lp94
aa.