ccollections
defaultdict
p1
(c__builtin__
dict
p2
tRp3
I3
(dp4
I0
(lp5
sI1
(lp6
Vhttp://dbpedia.org/ontology/birthPlace
p7
aVhttp://dbpedia.org/property/birthPlace
p8
aVhttp://dbpedia.org/property/placeOfBirth
p9
assI4
(dp10
I0
(lp11
sI1
(lp12
ssI6
(dp13
I0
(lp14
sI1
(lp15
ssI8
(dp16
I0
(lp17
sI1
(lp18
ssI10
(dp19
I0
(lp20
sI1
(lp21
Vhttp://dbpedia.org/ontology/birthPlace
p22
aVhttp://dbpedia.org/property/birthPlace
p23
assI11
(dp24
I0
(lp25
sI1
(lp26
Vhttp://dbpedia.org/property/birthPlace
p27
assI12
(dp28
I0
(lp29
sI1
(lp30
ss.