ccollections
defaultdict
p1
(c__builtin__
dict
p2
tRp3
I0
(dp4
I0
(lp5
sI2
(lp6
Vhttp://dbpedia.org/ontology/wikiPageExternalLink
p7
asI3
(lp8
Vhttp://www.w3.org/ns/prov#wasDerivedFrom
p9
assI1
(dp10
I0
(lp11
sI2
(lp12
sI3
(lp13
ssI2
(dp14
I0
(lp15
sI2
(lp16
sI3
(lp17
ssI3
(dp18
I0
(lp19
sI2
(lp20
sI3
(lp21
ssI4
(dp22
I0
(lp23
sI2
(lp24
sI3
(lp25
ssI6
(dp26
I0
(lp27
sI2
(lp28
sI3
(lp29
ssI7
(dp30
I0
(lp31
sI2
(lp32
sI3
(lp33
ssI8
(dp34
I0
(lp35
sI2
(lp36
sI3
(lp37
ssI9
(dp38
I0
(lp39
sI2
(lp40
sI3
(lp41
ssI10
(dp42
I0
(lp43
sI2
(lp44
sI3
(lp45
ssI11
(dp46
I0
(lp47
sI2
(lp48
sI3
(lp49
ssI12
(dp50
I0
(lp51
sI2
(lp52
sI3
(lp53
ssI13
(dp54
I0
(lp55
sI2
(lp56
sI3
(lp57
ssI16
(dp58
I0
(lp59
sI2
(lp60
sI3
(lp61
ssI17
(dp62
I0
(lp63
sI2
(lp64
sI3
(lp65
ssI18
(dp66
I0
(lp67
sI2
(lp68
sI3
(lp69
ss.