(lp1
(lp2
(lp3
a(lp4
a(lp5
a(lp6
a(lp7
a(lp8
a(lp9
aa(lp10
(lp11
a(lp12
a(lp13
a(lp14
a(lp15
a(lp16
a(lp17
aa(lp18
(lp19
a(lp20
a(lp21
a(lp22
a(lp23
a(lp24
a(lp25
aa(lp26
(lp27
a(lp28
a(lp29
a(lp30
a(lp31
a(lp32
a(lp33
aa(lp34
(lp35
a(lp36
a(lp37
a(lp38
a(lp39
a(lp40
a(lp41
aa(lp42
(lp43
a(lp44
a(lp45
a(lp46
Vhttp://dbpedia.org/resource/Death's_Head
p47
aa(lp48
a(lp49
a(lp50
aa(lp51
(lp52
a(lp53
a(lp54
a(lp55
a(lp56
a(lp57
a(lp58
aa(lp59
(lp60
a(lp61
a(lp62
a(lp63
a(lp64
a(lp65
a(lp66
aa(lp67
(lp68
a(lp69
a(lp70
a(lp71
a(lp72
a(lp73
a(lp74
aa(lp75
(lp76
a(lp77
a(lp78
a(lp79
a(lp80
a(lp81
a(lp82
aa(lp83
(lp84
a(lp85
a(lp86
a(lp87
a(lp88
a(lp89
a(lp90
aa(lp91
(lp92
a(lp93
a(lp94
a(lp95
Vhttp://dbpedia.org/resource/Blombos_Cave
p96
aa(lp97
a(lp98
a(lp99
aa(lp100
(lp101
a(lp102
a(lp103
a(lp104
Vhttp://dbpedia.org/resource/Cave_Stream
p105
aa(lp106
a(lp107
a(lp108
aa(lp109
(lp110
a(lp111
a(lp112
a(lp113
Vhttp://dbpedia.org/resource/Gomantong_Caves
p114
aa(lp115
a(lp116
a(lp117
aa(lp118
(lp119
a(lp120
a(lp121
a(lp122
Vhttp://dbpedia.org/resource/Jenolan_River
p123
aa(lp124
a(lp125
a(lp126
aa(lp127
(lp128
a(lp129
a(lp130
a(lp131
Vhttp://dbpedia.org/resource/Kanheri_Caves
p132
aa(lp133
a(lp134
a(lp135
aa(lp136
(lp137
a(lp138
a(lp139
a(lp140
Vhttp://dbpedia.org/resource/Koonalda_Cave
p141
aa(lp142
a(lp143
a(lp144
aa.