(lp1
(lp2
(lp3
a(lp4
a(lp5
a(lp6
a(lp7
a(lp8
a(lp9
a(lp10
a(lp11
a(lp12
((lp13
Vhttp://dbpedia.org/class/yago/Abstraction100002137
p14
aVhttp://dbpedia.org/class/yago/BritishRugbyLeagueNinesCompetitions
p15
aVhttp://dbpedia.org/class/yago/Contest107456188
p16
aVhttp://dbpedia.org/class/yago/Event100029378
p17
aVhttp://dbpedia.org/class/yago/SocialEvent107288639
p18
aVhttp://dbpedia.org/class/yago/PsychologicalFeature100023100
p19
aVhttp://dbpedia.org/class/yago/YagoPermanentlyLocatedEntity
p20
aVhttp://dbpedia.org/resource/Cheltenham_Rugby_Festival
tp21
aa(lp22
a(lp23
a(lp24
((lp25
Vhttp://dbpedia.org/class/yago/Abstraction100002137
p26
aVhttp://dbpedia.org/class/yago/Act100030358
p27
aVhttp://dbpedia.org/class/yago/Activity100407535
p28
aVhttp://dbpedia.org/class/yago/Attraction106615561
p29
aVhttp://dbpedia.org/class/yago/Celebration100428000
p30
aVhttp://dbpedia.org/class/yago/Diversion100426928
p31
aVhttp://dbpedia.org/class/yago/Event100029378
p32
aVhttp://dbpedia.org/class/yago/Festival100517728
p33
aVhttp://dbpedia.org/class/yago/Festival115162388
p34
aVhttp://dbpedia.org/class/yago/FilmFestival100517418
p35
aVhttp://dbpedia.org/class/yago/Show106619065
p36
aVhttp://dbpedia.org/class/yago/SocialEvent107288639
p37
aVhttp://dbpedia.org/class/yago/TimePeriod115113229
p38
aVhttp://www.w3.org/2002/07/owl#Thing
p39
aVhttp://www.ontologydesignpatterns.org/ont/dul/DUL.owl#Agent
p40
aVhttp://www.ontologydesignpatterns.org/ont/dul/DUL.owl#SocialPerson
p41
aVhttp://www.wikidata.org/entity/Q43229
p42
aVhttp://dbpedia.org/ontology/Agent
p43
aVhttp://dbpedia.org/ontology/Organisation
p44
aVhttp://schema.org/Organization
p45
aVhttp://dbpedia.org/class/yago/FestivalsInFlorida
p46
aVhttp://dbpedia.org/class/yago/FilmFestivalsInTheUnitedStates
p47
aVhttp://dbpedia.org/class/yago/PsychologicalFeature100023100
p48
aVhttp://dbpedia.org/class/yago/YagoPermanentlyLocatedEntity
p49
aVhttp://dbpedia.org/class/yago/FundamentalQuantity113575869
p50
aVhttp://dbpedia.org/class/yago/InternationalFilmFestivals
p51
aVhttp://dbpedia.org/class/yago/Measure100033615
p52
aVhttp://dbpedia.org/class/yago/VisitorAttractionsInOrangeCounty,Florida
p53
aVhttp://dbpedia.org/resource/Florida_Film_Festival
tp54
aa(lp55
((lp56
Vhttp://dbpedia.org/class/yago/Abstraction100002137
p57
aVhttp://dbpedia.org/class/yago/Event100029378
p58
aVhttp://dbpedia.org/class/yago/Festival115162388
p59
aVhttp://dbpedia.org/class/yago/TimePeriod115113229
p60
aVhttp://dbpedia.org/class/yago/RecurringEventsDisestablishedIn2007
p61
aVhttp://dbpedia.org/class/yago/RecurringEventsEstablishedIn1996
p62
aVhttp://dbpedia.org/class/yago/FestivalsInLosAngeles,California
p63
aVhttp://dbpedia.org/class/yago/FoodFestivalsInTheUnitedStates
p64
aVhttp://dbpedia.org/class/yago/PsychologicalFeature100023100
p65
aVhttp://dbpedia.org/class/yago/YagoPermanentlyLocatedEntity
p66
aVhttp://dbpedia.org/class/yago/FundamentalQuantity113575869
p67
aVhttp://dbpedia.org/class/yago/Measure100033615
p68
aVhttp://dbpedia.org/resource/Los_Angeles_Tofu_Festival
p69
tp70
aa(lp71
a(lp72
a(lp73
a(lp74
a(lp75
aa.