(lp1
(lp2
(lp3
((lp4
Vhttp://www.w3.org/2002/07/owl#Thing
p5
aVhttp://purl.org/ontology/bibo/Book
p6
aVhttp://www.wikidata.org/entity/Q386724
p7
aVhttp://www.wikidata.org/entity/Q571
p8
aVhttp://dbpedia.org/ontology/Book
p9
aVhttp://dbpedia.org/ontology/Work
p10
aVhttp://dbpedia.org/ontology/WrittenWork
p11
aVhttp://schema.org/Book
p12
aVhttp://schema.org/CreativeWork
p13
aVhttp://umbel.org/umbel/rc/Book_CW
p14
aVhttp://dbpedia.org/class/yago/1884Novels
p15
aVhttp://dbpedia.org/class/yago/19th-centuryAmericanNovels
p16
aVhttp://dbpedia.org/class/yago/Abstraction100002137
p17
aVhttp://dbpedia.org/class/yago/AdventureNovels
p18
aVhttp://dbpedia.org/class/yago/AmericanAdventureNovels
p19
aVhttp://dbpedia.org/class/yago/AmericanChildren'sNovels
p20
aVhttp://dbpedia.org/class/yago/Communication100033020
p21
aVhttp://dbpedia.org/class/yago/LiteraryComposition106364329
p22
aVhttp://dbpedia.org/class/yago/Novel106367879
p23
aVhttp://dbpedia.org/class/yago/Writing106362953
p24
aVhttp://dbpedia.org/class/yago/Fiction106367107
p25
aVhttp://dbpedia.org/class/yago/WrittenCommunication106349220
p26
aVhttp://dbpedia.org/class/yago/NovelsAboutSlavery
p27
aVhttp://dbpedia.org/class/yago/NovelsByMarkTwain
p28
aVhttp://dbpedia.org/class/yago/PicaresqueNovels
p29
aVhttp://dbpedia.org/resource/Adventures_of_Huckleberry_Finn
tp30
aa(lp31
a(lp32
aa(lp33
(lp34
((lp35
Vhttp://www.w3.org/2002/07/owl#Thing
p36
aVhttp://purl.org/ontology/bibo/Book
p37
aVhttp://www.wikidata.org/entity/Q386724
p38
aVhttp://www.wikidata.org/entity/Q571
p39
aVhttp://dbpedia.org/ontology/Book
p40
aVhttp://dbpedia.org/ontology/Work
p41
aVhttp://dbpedia.org/ontology/WrittenWork
p42
aVhttp://schema.org/Book
p43
aVhttp://schema.org/CreativeWork
p44
aVhttp://umbel.org/umbel/rc/Book_CW
p45
aVhttp://dbpedia.org/class/yago/2002Novels
p46
aVhttp://dbpedia.org/class/yago/Ability105616246
p47
aVhttp://dbpedia.org/class/yago/Abstraction100002137
p48
aVhttp://dbpedia.org/class/yago/CaptainUnderpantsNovels
p49
aVhttp://dbpedia.org/class/yago/Cognition100023271
p50
aVhttp://dbpedia.org/class/yago/Communication100033020
p51
aVhttp://dbpedia.org/class/yago/FictionalCharacter109587565
p52
aVhttp://dbpedia.org/class/yago/LiteraryComposition106364329
p53
aVhttp://dbpedia.org/class/yago/Novel106367879
p54
aVhttp://dbpedia.org/class/yago/Writing106362953
p55
aVhttp://dbpedia.org/class/yago/Creativity105624700
p56
aVhttp://dbpedia.org/class/yago/Fiction106367107
p57
aVhttp://dbpedia.org/class/yago/ImaginaryBeing109483738
p58
aVhttp://dbpedia.org/class/yago/Imagination105625465
p59
aVhttp://dbpedia.org/class/yago/PsychologicalFeature100023100
p60
aVhttp://dbpedia.org/class/yago/WrittenCommunication106349220
p61
aVhttp://dbpedia.org/class/yago/MetafictionalCharacters
p62
aVhttp://dbpedia.org/resource/The_Adventures_of_Super_Diaper_Baby
tp63
aa(lp64
a(lp65
aa(lp66
(lp67
((lp68
Vhttp://www.w3.org/2002/07/owl#Thing
p69
aVhttp://purl.org/ontology/bibo/Book
p70
aVhttp://www.wikidata.org/entity/Q386724
p71
aVhttp://www.wikidata.org/entity/Q571
p72
aVhttp://dbpedia.org/ontology/Book
p73
aVhttp://dbpedia.org/ontology/Work
p74
aVhttp://dbpedia.org/ontology/WrittenWork
p75
aVhttp://schema.org/Book
p76
aVhttp://schema.org/CreativeWork
p77
aVhttp://umbel.org/umbel/rc/Book_CW
p78
aVhttp://dbpedia.org/class/yago/1876Novels
p79
aVhttp://dbpedia.org/class/yago/19th-centuryAmericanNovels
p80
aVhttp://dbpedia.org/class/yago/Abstraction100002137
p81
aVhttp://dbpedia.org/class/yago/AdventureNovels
p82
aVhttp://dbpedia.org/class/yago/AmericanAdventureNovels
p83
aVhttp://dbpedia.org/class/yago/AmericanChildren'sNovels
p84
aVhttp://dbpedia.org/class/yago/Communication100033020
p85
aVhttp://dbpedia.org/class/yago/LiteraryComposition106364329
p86
aVhttp://dbpedia.org/class/yago/Novel106367879
p87
aVhttp://dbpedia.org/class/yago/Writing106362953
p88
aVhttp://dbpedia.org/class/yago/Fiction106367107
p89
aVhttp://dbpedia.org/class/yago/WrittenCommunication106349220
p90
aVhttp://dbpedia.org/class/yago/NovelsByMarkTwain
p91
aVhttp://dbpedia.org/class/yago/PicaresqueNovels
p92
aVhttp://dbpedia.org/resource/The_Adventures_of_Tom_Sawyer
tp93
aa(lp94
a(lp95
aa(lp96
(lp97
((lVhttp://dbpedia.org/resource/Alice_series
tp98
aa(lp99
((lp100
Vhttp://www.w3.org/2002/07/owl#Thing
p101
aVhttp://xmlns.com/foaf/0.1/Person
p102
aVhttp://dbpedia.org/ontology/Person
p103
aVhttp://www.ontologydesignpatterns.org/ont/dul/DUL.owl#Agent
p104
aVhttp://www.ontologydesignpatterns.org/ont/dul/DUL.owl#NaturalPerson
p105
aVhttp://www.wikidata.org/entity/Q215627
p106
aVhttp://www.wikidata.org/entity/Q5
p107
aVhttp://dbpedia.org/ontology/Agent
p108
aVhttp://schema.org/Person
p109
aVhttp://umbel.org/umbel/rc/Writer
p110
aVhttp://dbpedia.org/class/yago/AmericanChildren'sWriters
p111
aVhttp://dbpedia.org/class/yago/AmericanWriters
p112
aVhttp://dbpedia.org/class/yago/CausalAgent100007347
p113
aVhttp://dbpedia.org/class/yago/Communicator109610660
p114
aVhttp://dbpedia.org/class/yago/Contestant109613191
p115
aVhttp://dbpedia.org/class/yago/Golfer110136959
p116
aVhttp://dbpedia.org/class/yago/LivingThing100004258
p117
aVhttp://dbpedia.org/class/yago/Medalist110304914
p118
aVhttp://dbpedia.org/class/yago/Object100002684
p119
aVhttp://dbpedia.org/class/yago/Organism100004475
p120
aVhttp://dbpedia.org/class/yago/Person100007846
p121
aVhttp://dbpedia.org/class/yago/Player110439851
p122
aVhttp://dbpedia.org/class/yago/Whole100003553
p123
aVhttp://dbpedia.org/class/yago/Writer110794014
p124
aVhttp://dbpedia.org/class/yago/YagoLegalActorGeo
p125
aVhttp://dbpedia.org/class/yago/PhysicalEntity100001930
p126
aVhttp://dbpedia.org/class/yago/LivingPeople
p127
aVhttp://dbpedia.org/class/yago/NewberyMedalWinners
p128
aVhttp://dbpedia.org/class/yago/PeopleFromAnderson,Indiana
p129
aVhttp://dbpedia.org/class/yago/YagoLegalActor
p130
aVhttp://dbpedia.org/class/yago/WritersOfYoungAdultLiterature
p131
aVhttp://dbpedia.org/resource/Phyllis_Reynolds_Naylor
tp132
aa(lp133
aa(lp134
(lp135
((lp136
Vhttp://www.w3.org/2002/07/owl#Thing
p137
aVhttp://purl.org/ontology/bibo/Book
p138
aVhttp://www.wikidata.org/entity/Q386724
p139
aVhttp://www.wikidata.org/entity/Q571
p140
aVhttp://dbpedia.org/ontology/Book
p141
aVhttp://dbpedia.org/ontology/Work
p142
aVhttp://dbpedia.org/ontology/WrittenWork
p143
aVhttp://schema.org/Book
p144
aVhttp://schema.org/CreativeWork
p145
aVhttp://umbel.org/umbel/rc/Book_CW
p146
aVhttp://dbpedia.org/class/yago/1946Novels
p147
aVhttp://dbpedia.org/class/yago/Abstraction100002137
p148
aVhttp://dbpedia.org/class/yago/AmericanPoliticalNovels
p149
aVhttp://dbpedia.org/class/yago/AmericanRomanAClefNovels
p150
aVhttp://dbpedia.org/class/yago/Communication100033020
p151
aVhttp://dbpedia.org/class/yago/LiteraryComposition106364329
p152
aVhttp://dbpedia.org/class/yago/Novel106367879
p153
aVhttp://dbpedia.org/class/yago/Writing106362953
p154
aVhttp://dbpedia.org/class/yago/Fiction106367107
p155
aVhttp://dbpedia.org/class/yago/WrittenCommunication106349220
p156
aVhttp://dbpedia.org/class/yago/NovelsAboutElections
p157
aVhttp://dbpedia.org/class/yago/NovelsAboutPoliticians
p158
aVhttp://dbpedia.org/class/yago/NovelsByRobertPennWarren
p159
aVhttp://dbpedia.org/resource/All_the_King's_Men
tp160
aa(lp161
((lp162
Vhttp://www.w3.org/2002/07/owl#Thing
p163
aVhttp://xmlns.com/foaf/0.1/Person
p164
aVhttp://dbpedia.org/ontology/Person
p165
aVhttp://www.ontologydesignpatterns.org/ont/dul/DUL.owl#Agent
p166
aVhttp://www.ontologydesignpatterns.org/ont/dul/DUL.owl#NaturalPerson
p167
aVhttp://www.wikidata.org/entity/Q215627
p168
aVhttp://www.wikidata.org/entity/Q36180
p169
aVhttp://www.wikidata.org/entity/Q483501
p170
aVhttp://www.wikidata.org/entity/Q5
p171
aVhttp://dbpedia.org/ontology/Agent
p172
aVhttp://dbpedia.org/ontology/Artist
p173
aVhttp://dbpedia.org/ontology/Writer
p174
aVhttp://schema.org/Person
p175
aVhttp://umbel.org/umbel/rc/Writer
p176
aVhttp://dbpedia.org/class/yago/Adult109605289
p177
aVhttp://dbpedia.org/class/yago/Alumnus109786338
p178
aVhttp://dbpedia.org/class/yago/AmericanLiteraryCritics
p179
aVhttp://dbpedia.org/class/yago/AmericanNovelists
p180
aVhttp://dbpedia.org/class/yago/AmericanPoets
p181
aVhttp://dbpedia.org/class/yago/AmericanRhodesScholars
p182
aVhttp://dbpedia.org/class/yago/Associate109816771
p183
aVhttp://dbpedia.org/class/yago/CausalAgent100007347
p184
aVhttp://dbpedia.org/class/yago/Colleague109935990
p185
aVhttp://dbpedia.org/class/yago/Communicator109610660
p186
aVhttp://dbpedia.org/class/yago/Critic109979589
p187
aVhttp://dbpedia.org/class/yago/Intellectual109621545
p188
aVhttp://dbpedia.org/class/yago/LiteraryCritic110266016
p189
aVhttp://dbpedia.org/class/yago/LivingThing100004258
p190
aVhttp://dbpedia.org/class/yago/Novelist110363573
p191
aVhttp://dbpedia.org/class/yago/Object100002684
p192
aVhttp://dbpedia.org/class/yago/Organism100004475
p193
aVhttp://dbpedia.org/class/yago/Peer109626238
p194
aVhttp://dbpedia.org/class/yago/Person100007846
p195
aVhttp://dbpedia.org/class/yago/Poet110444194
p196
aVhttp://dbpedia.org/class/yago/Professional110480253
p197
aVhttp://dbpedia.org/class/yago/Scholar110557854
p198
aVhttp://dbpedia.org/class/yago/Whole100003553
p199
aVhttp://dbpedia.org/class/yago/Writer110794014
p200
aVhttp://dbpedia.org/class/yago/YagoLegalActorGeo
p201
aVhttp://dbpedia.org/class/yago/FormalistPoets
p202
aVhttp://dbpedia.org/class/yago/PhysicalEntity100001930
p203
aVhttp://dbpedia.org/class/yago/GuggenheimFellows
p204
aVhttp://dbpedia.org/class/yago/MacArthurFellows
p205
aVhttp://dbpedia.org/class/yago/PeopleFromGuthrie,Kentucky
p206
aVhttp://dbpedia.org/class/yago/YagoLegalActor
p207
aVhttp://dbpedia.org/class/yago/VanderbiltUniversityAlumni
p208
aVhttp://dbpedia.org/class/yago/WritersFromKentucky
p209
aVhttp://dbpedia.org/class/yago/WritersFromLouisiana
p210
aVhttp://dbpedia.org/resource/Robert_Penn_Warren
tp211
aa(lp212
aa(lp213
(lp214
a(lp215
a(lp216
aa(lp217
(lp218
((lp219
Vhttp://www.w3.org/2002/07/owl#Thing
p220
aVhttp://purl.org/ontology/bibo/Book
p221
aVhttp://www.wikidata.org/entity/Q386724
p222
aVhttp://www.wikidata.org/entity/Q571
p223
aVhttp://dbpedia.org/ontology/Book
p224
aVhttp://dbpedia.org/ontology/Work
p225
aVhttp://dbpedia.org/ontology/WrittenWork
p226
aVhttp://schema.org/Book
p227
aVhttp://schema.org/CreativeWork
p228
aVhttp://umbel.org/umbel/rc/Book_CW
p229
aVhttp://dbpedia.org/class/yago/Abstraction100002137
p230
aVhttp://dbpedia.org/class/yago/AmericanNovelsAdaptedIntoFilms
p231
aVhttp://dbpedia.org/class/yago/Artifact100021939
p232
aVhttp://dbpedia.org/class/yago/Book106410904
p233
aVhttp://dbpedia.org/class/yago/BooksAboutTraders
p234
aVhttp://dbpedia.org/class/yago/Creation103129123
p235
aVhttp://dbpedia.org/class/yago/Event100029378
p236
aVhttp://dbpedia.org/class/yago/Movie106613686
p237
aVhttp://dbpedia.org/class/yago/Object100002684
p238
aVhttp://dbpedia.org/class/yago/Product104007894
p239
aVhttp://dbpedia.org/class/yago/Publication106589574
p240
aVhttp://dbpedia.org/class/yago/Show106619065
p241
aVhttp://dbpedia.org/class/yago/SocialEvent107288639
p242
aVhttp://dbpedia.org/class/yago/Whole100003553
p243
aVhttp://dbpedia.org/class/yago/PhysicalEntity100001930
p244
aVhttp://dbpedia.org/class/yago/PsychologicalFeature100023100
p245
aVhttp://dbpedia.org/class/yago/Work104599396
p246
aVhttp://dbpedia.org/class/yago/YagoPermanentlyLocatedEntity
p247
aVhttp://dbpedia.org/class/yago/SatiricalBooks
p248
aVhttp://dbpedia.org/resource/American_Psycho
tp249
aa(lp250
((lp251
Vhttp://www.w3.org/2002/07/owl#Thing
p252
aVhttp://xmlns.com/foaf/0.1/Person
p253
aVhttp://dbpedia.org/ontology/Person
p254
aVhttp://www.ontologydesignpatterns.org/ont/dul/DUL.owl#Agent
p255
aVhttp://www.ontologydesignpatterns.org/ont/dul/DUL.owl#NaturalPerson
p256
aVhttp://www.wikidata.org/entity/Q215627
p257
aVhttp://www.wikidata.org/entity/Q36180
p258
aVhttp://www.wikidata.org/entity/Q483501
p259
aVhttp://www.wikidata.org/entity/Q5
p260
aVhttp://dbpedia.org/ontology/Agent
p261
aVhttp://dbpedia.org/ontology/Artist
p262
aVhttp://dbpedia.org/ontology/Writer
p263
aVhttp://schema.org/Person
p264
aVhttp://umbel.org/umbel/rc/Artist
p265
aVhttp://umbel.org/umbel/rc/PersonWithOccupation
p266
aVhttp://umbel.org/umbel/rc/Writer
p267
aVhttp://dbpedia.org/class/yago/Alumnus109786338
p268
aVhttp://dbpedia.org/class/yago/AmericanNovelists
p269
aVhttp://dbpedia.org/class/yago/AmericanSatirists
p270
aVhttp://dbpedia.org/class/yago/BenningtonCollegeAlumni
p271
aVhttp://dbpedia.org/class/yago/BisexualWriters
p272
aVhttp://dbpedia.org/class/yago/CausalAgent100007347
p273
aVhttp://dbpedia.org/class/yago/Communicator109610660
p274
aVhttp://dbpedia.org/class/yago/Entertainer109616922
p275
aVhttp://dbpedia.org/class/yago/Humorist110191943
p276
aVhttp://dbpedia.org/class/yago/Intellectual109621545
p277
aVhttp://dbpedia.org/class/yago/LivingThing100004258
p278
aVhttp://dbpedia.org/class/yago/Novelist110363573
p279
aVhttp://dbpedia.org/class/yago/Object100002684
p280
aVhttp://dbpedia.org/class/yago/Organism100004475
p281
aVhttp://dbpedia.org/class/yago/Person100007846
p282
aVhttp://dbpedia.org/class/yago/Satirist110552742
p283
aVhttp://dbpedia.org/class/yago/Scholar110557854
p284
aVhttp://dbpedia.org/class/yago/Whole100003553
p285
aVhttp://dbpedia.org/class/yago/Writer110794014
p286
aVhttp://dbpedia.org/class/yago/YagoLegalActorGeo
p287
aVhttp://dbpedia.org/class/yago/PhysicalEntity100001930
p288
aVhttp://dbpedia.org/class/yago/LGBTWritersFromTheUnitedStates
p289
aVhttp://dbpedia.org/class/yago/LivingPeople
p290
aVhttp://dbpedia.org/class/yago/PeopleFromLosAngeles,California
p291
aVhttp://dbpedia.org/class/yago/YagoLegalActor
p292
aVhttp://dbpedia.org/class/yago/PostmodernWriters
p293
aVhttp://dbpedia.org/resource/Bret_Easton_Ellis
tp294
aa(lp295
aa(lp296
(lp297
a(lp298
((lp299
Vhttp://www.w3.org/2002/07/owl#Thing
p300
aVhttp://xmlns.com/foaf/0.1/Person
p301
aVhttp://dbpedia.org/ontology/Person
p302
aVhttp://www.ontologydesignpatterns.org/ont/dul/DUL.owl#Agent
p303
aVhttp://www.ontologydesignpatterns.org/ont/dul/DUL.owl#NaturalPerson
p304
aVhttp://www.wikidata.org/entity/Q215627
p305
aVhttp://www.wikidata.org/entity/Q5
p306
aVhttp://dbpedia.org/ontology/Agent
p307
aVhttp://schema.org/Person
p308
aVhttp://umbel.org/umbel/rc/PersonWithOccupation
p309
aVhttp://dbpedia.org/class/yago/AmericanAutobiographers
p310
aVhttp://dbpedia.org/class/yago/AmericanChristianScientists
p311
aVhttp://dbpedia.org/class/yago/AmericanEssayists
p312
aVhttp://dbpedia.org/class/yago/AmericanNovelists
p313
aVhttp://dbpedia.org/class/yago/AmericanPeopleOfDutchDescent
p314
aVhttp://dbpedia.org/class/yago/AmericanWriters
p315
aVhttp://dbpedia.org/class/yago/AmericanWritersOfGermanDescent
p316
aVhttp://dbpedia.org/class/yago/Autobiographer109825296
p317
aVhttp://dbpedia.org/class/yago/Biographer109855433
p318
aVhttp://dbpedia.org/class/yago/CausalAgent100007347
p319
aVhttp://dbpedia.org/class/yago/Communicator109610660
p320
aVhttp://dbpedia.org/class/yago/Essayist110064405
p321
aVhttp://dbpedia.org/class/yago/LivingThing100004258
p322
aVhttp://dbpedia.org/class/yago/Novelist110363573
p323
aVhttp://dbpedia.org/class/yago/Object100002684
p324
aVhttp://dbpedia.org/class/yago/Organism100004475
p325
aVhttp://dbpedia.org/class/yago/Person100007846
p326
aVhttp://dbpedia.org/class/yago/ReligiousPerson109628382
p327
aVhttp://dbpedia.org/class/yago/Whole100003553
p328
aVhttp://dbpedia.org/class/yago/Writer110794014
p329
aVhttp://dbpedia.org/class/yago/YagoLegalActorGeo
p330
aVhttp://dbpedia.org/class/yago/PhysicalEntity100001930
p331
aVhttp://dbpedia.org/class/yago/PeopleFromChicago,Illinois
p332
aVhttp://dbpedia.org/class/yago/PeopleFromTerreHaute,Indiana
p333
aVhttp://dbpedia.org/class/yago/YagoLegalActor
p334
aVhttp://dbpedia.org/class/yago/WritersFromChicago,Illinois
p335
aVhttp://dbpedia.org/class/yago/WritersFromIndiana
p336
aVhttp://dbpedia.org/resource/Theodore_Dreiser
tp337
aa(lp338
aa(lp339
(lp340
((lp341
Vhttp://www.w3.org/2002/07/owl#Thing
p342
aVhttp://purl.org/ontology/bibo/Book
p343
aVhttp://www.wikidata.org/entity/Q386724
p344
aVhttp://www.wikidata.org/entity/Q571
p345
aVhttp://dbpedia.org/ontology/Book
p346
aVhttp://dbpedia.org/ontology/Work
p347
aVhttp://dbpedia.org/ontology/WrittenWork
p348
aVhttp://schema.org/Book
p349
aVhttp://schema.org/CreativeWork
p350
aVhttp://dbpedia.org/class/Book
p351
aVhttp://umbel.org/umbel/rc/Book_CW
p352
aVhttp://dbpedia.org/class/yago/1971Books
p353
aVhttp://dbpedia.org/class/yago/AmericanNon-fictionBooks
p354
aVhttp://dbpedia.org/class/yago/Artifact100021939
p355
aVhttp://dbpedia.org/class/yago/Book106410904
p356
aVhttp://dbpedia.org/class/yago/Creation103129123
p357
aVhttp://dbpedia.org/class/yago/Object100002684
p358
aVhttp://dbpedia.org/class/yago/Product104007894
p359
aVhttp://dbpedia.org/class/yago/Publication106589574
p360
aVhttp://dbpedia.org/class/yago/Whole100003553
p361
aVhttp://dbpedia.org/class/yago/PhysicalEntity100001930
p362
aVhttp://dbpedia.org/class/yago/Work104599396
p363
aVhttp://dbpedia.org/resource/The_Anarchist_Cookbook
tp364
aa(lp365
a(lp366
aa(lp367
(lp368
((lp369
Vhttp://www.w3.org/2002/07/owl#Thing
p370
aVhttp://purl.org/ontology/bibo/Book
p371
aVhttp://www.wikidata.org/entity/Q386724
p372
aVhttp://www.wikidata.org/entity/Q571
p373
aVhttp://dbpedia.org/ontology/Book
p374
aVhttp://dbpedia.org/ontology/Work
p375
aVhttp://dbpedia.org/ontology/WrittenWork
p376
aVhttp://schema.org/Book
p377
aVhttp://schema.org/CreativeWork
p378
aVhttp://dbpedia.org/class/yago/1981Novels
p379
aVhttp://dbpedia.org/class/yago/Abstraction100002137
p380
aVhttp://dbpedia.org/class/yago/AmericanYoungAdultNovels
p381
aVhttp://dbpedia.org/class/yago/Communication100033020
p382
aVhttp://dbpedia.org/class/yago/LiteraryComposition106364329
p383
aVhttp://dbpedia.org/class/yago/Novel106367879
p384
aVhttp://dbpedia.org/class/yago/Writing106362953
p385
aVhttp://dbpedia.org/class/yago/Fiction106367107
p386
aVhttp://dbpedia.org/class/yago/WrittenCommunication106349220
p387
aVhttp://dbpedia.org/class/yago/NovelsAboutMoving
p388
aVhttp://dbpedia.org/class/yago/NovelsByLoisLowry
p389
aVhttp://dbpedia.org/resource/Anastasia_Again!
tp390
aa(lp391
a(lp392
aa(lp393
(lp394
a(lp395
a(lp396
aa(lp397
(lp398
a(lp399
a(lp400
aa(lp401
(lp402
((lp403
Vhttp://www.w3.org/2002/07/owl#Thing
p404
aVhttp://purl.org/ontology/bibo/Book
p405
aVhttp://www.wikidata.org/entity/Q386724
p406
aVhttp://www.wikidata.org/entity/Q571
p407
aVhttp://dbpedia.org/ontology/Book
p408
aVhttp://dbpedia.org/ontology/Work
p409
aVhttp://dbpedia.org/ontology/WrittenWork
p410
aVhttp://schema.org/Book
p411
aVhttp://schema.org/CreativeWork
p412
aVhttp://dbpedia.org/class/Book
p413
aVhttp://umbel.org/umbel/rc/Book_CW
p414
aVhttp://dbpedia.org/class/yago/1982Novels
p415
aVhttp://dbpedia.org/class/yago/Abstraction100002137
p416
aVhttp://dbpedia.org/class/yago/AmericanLGBTNovels
p417
aVhttp://dbpedia.org/class/yago/AmericanYoungAdultNovels
p418
aVhttp://dbpedia.org/class/yago/Communication100033020
p419
aVhttp://dbpedia.org/class/yago/LiteraryComposition106364329
p420
aVhttp://dbpedia.org/class/yago/Novel106367879
p421
aVhttp://dbpedia.org/class/yago/Writing106362953
p422
aVhttp://dbpedia.org/class/yago/Fiction106367107
p423
aVhttp://dbpedia.org/class/yago/WrittenCommunication106349220
p424
aVhttp://dbpedia.org/class/yago/LesbianNovels
p425
aVhttp://dbpedia.org/resource/Annie_on_My_Mind
tp426
aa(lp427
a(lp428
aa(lp429
(lp430
((lp431
Vhttp://www.w3.org/2002/07/owl#Thing
p432
aVhttp://purl.org/ontology/bibo/Book
p433
aVhttp://www.wikidata.org/entity/Q386724
p434
aVhttp://www.wikidata.org/entity/Q571
p435
aVhttp://dbpedia.org/ontology/Book
p436
aVhttp://dbpedia.org/ontology/Work
p437
aVhttp://dbpedia.org/ontology/WrittenWork
p438
aVhttp://schema.org/Book
p439
aVhttp://schema.org/CreativeWork
p440
aVhttp://dbpedia.org/class/Book
p441
aVhttp://umbel.org/umbel/rc/Book_CW
p442
aVhttp://dbpedia.org/class/yago/1970Novels
p443
aVhttp://dbpedia.org/class/yago/Abstraction100002137
p444
aVhttp://dbpedia.org/class/yago/AmericanYoungAdultNovels
p445
aVhttp://dbpedia.org/class/yago/Communication100033020
p446
aVhttp://dbpedia.org/class/yago/LiteraryComposition106364329
p447
aVhttp://dbpedia.org/class/yago/Novel106367879
p448
aVhttp://dbpedia.org/class/yago/Writing106362953
p449
aVhttp://dbpedia.org/class/yago/English-languageNovels
p450
aVhttp://dbpedia.org/class/yago/Fiction106367107
p451
aVhttp://dbpedia.org/class/yago/WrittenCommunication106349220
p452
aVhttp://dbpedia.org/class/yago/NovelsByJudyBlume
p453
aVhttp://dbpedia.org/resource/Are_You_There_God%3F_It's_Me,_Margaret.
tp454
aa(lp455
a(lp456
aa(lp457
(lp458
a(lp459
a(lp460
aa(lp461
(lp462
a(lp463
a(lp464
aa(lp465
(lp466
((lp467
Vhttp://dbpedia.org/class/Book
p468
aVhttp://dbpedia.org/resource/As_I_Lay_Dying
tp469
aa(lp470
((lp471
Vhttp://www.w3.org/2002/07/owl#Thing
p472
aVhttp://xmlns.com/foaf/0.1/Person
p473
aVhttp://dbpedia.org/ontology/Person
p474
aVhttp://www.ontologydesignpatterns.org/ont/dul/DUL.owl#Agent
p475
aVhttp://www.ontologydesignpatterns.org/ont/dul/DUL.owl#NaturalPerson
p476
aVhttp://www.wikidata.org/entity/Q215627
p477
aVhttp://www.wikidata.org/entity/Q36180
p478
aVhttp://www.wikidata.org/entity/Q483501
p479
aVhttp://www.wikidata.org/entity/Q5
p480
aVhttp://dbpedia.org/ontology/Agent
p481
aVhttp://dbpedia.org/ontology/Artist
p482
aVhttp://dbpedia.org/ontology/Writer
p483
aVhttp://schema.org/Person
p484
aVhttp://umbel.org/umbel/rc/Artist
p485
aVhttp://umbel.org/umbel/rc/PersonWithOccupation
p486
aVhttp://umbel.org/umbel/rc/Writer
p487
aVhttp://dbpedia.org/class/yago/Acquirer109764201
p488
aVhttp://dbpedia.org/class/yago/AmericanNobelLaureates
p489
aVhttp://dbpedia.org/class/yago/AmericanNovelists
p490
aVhttp://dbpedia.org/class/yago/AmericanShortStoryWriters
p491
aVhttp://dbpedia.org/class/yago/CausalAgent100007347
p492
aVhttp://dbpedia.org/class/yago/Communicator109610660
p493
aVhttp://dbpedia.org/class/yago/Honoree110183757
p494
aVhttp://dbpedia.org/class/yago/Laureate110249011
p495
aVhttp://dbpedia.org/class/yago/LivingThing100004258
p496
aVhttp://dbpedia.org/class/yago/Novelist110363573
p497
aVhttp://dbpedia.org/class/yago/Object100002684
p498
aVhttp://dbpedia.org/class/yago/Organism100004475
p499
aVhttp://dbpedia.org/class/yago/Person100007846
p500
aVhttp://dbpedia.org/class/yago/Recipient109627906
p501
aVhttp://dbpedia.org/class/yago/Whole100003553
p502
aVhttp://dbpedia.org/class/yago/Writer110794014
p503
aVhttp://dbpedia.org/class/yago/YagoLegalActorGeo
p504
aVhttp://dbpedia.org/class/yago/PhysicalEntity100001930
p505
aVhttp://dbpedia.org/class/yago/NobelLaureatesInLiterature
p506
aVhttp://dbpedia.org/class/yago/PeopleFromOxford,Mississippi
p507
aVhttp://dbpedia.org/class/yago/PeopleFromUnionCounty,Mississippi
p508
aVhttp://dbpedia.org/class/yago/YagoLegalActor
p509
aVhttp://dbpedia.org/class/yago/PostmodernWriters
p510
aVhttp://dbpedia.org/class/yago/WritersFromMississippi
p511
aVhttp://dbpedia.org/resource/William_Faulkner
p512
tp513
aa(lp514
aa(lp515
(lp516
a(lp517
a(lp518
aa(lp519
(lp520
a(lp521
a(lp522
aa(lp523
(lp524
a(lp525
a(lp526
aa.