(lp1
(lp2
(dp3
Vstart
p4
I0
sVdisambiguatedURL
p5
Vhttp://dbpedia.org/resource/Adventures_of_Huckleberry_Finn
p6
sVnamedEntity
p7
Vadventures of huckleberry finn
p8
sVoffset
p9
I30
saa(lp10
(dp11
Vstart
p12
I0
sVdisambiguatedURL
p13
Vhttp://dbpedia.org/resource/The_Adventures_of_Super_Diaper_Baby
p14
sVnamedEntity
p15
Vthe adventures of super diaper baby
p16
sVoffset
p17
I35
saa(lp18
(dp19
Vstart
p20
I0
sVdisambiguatedURL
p21
Vhttp://dbpedia.org/resource/The_Adventures_of_Tom_Sawyer
p22
sVnamedEntity
p23
Vthe adventures of tom sawyer
p24
sVoffset
p25
I28
saa(lp26
(dp27
Vstart
p28
I0
sVdisambiguatedURL
p29
Vhttp://dbpedia.org/resource/Alice_series
p30
sVnamedEntity
p31
Valice series
p32
sVoffset
p33
I12
saa(lp34
(dp35
Vstart
p36
I0
sVdisambiguatedURL
p37
Vhttp://dbpedia.org/resource/All_the_King's_Men
p38
sVnamedEntity
p39
Vall the king's men
p40
sVoffset
p41
I18
saa(lp42
(dp43
Vstart
p44
I0
sVdisambiguatedURL
p45
NsVnamedEntity
p46
Valways running
p47
sVoffset
p48
I14
saa(lp49
(dp50
Vstart
p51
I0
sVdisambiguatedURL
p52
Vhttp://dbpedia.org/resource/American_Psycho
p53
sVnamedEntity
p54
Vamerican psycho
p55
sVoffset
p56
I15
saa(lp57
(dp58
Vstart
p59
I0
sVdisambiguatedURL
p60
NsVnamedEntity
p61
Van american tragedy
p62
sVoffset
p63
I19
saa(lp64
(dp65
Vstart
p66
I0
sVdisambiguatedURL
p67
Vhttp://dbpedia.org/resource/The_Anarchist_Cookbook
p68
sVnamedEntity
p69
Vthe anarchist cookbook
p70
sVoffset
p71
I22
saa(lp72
(dp73
Vstart
p74
I0
sVdisambiguatedURL
p75
Vhttp://dbpedia.org/resource/Anastasia_Again!
p76
sVnamedEntity
p77
Vanastasia again!
p78
sVoffset
p79
I16
saa(lp80
(dp81
Vstart
p82
I0
sVdisambiguatedURL
p83
NsVnamedEntity
p84
Vand tango makes three
p85
sVoffset
p86
I21
saa(lp87
(dp88
Vstart
p89
I0
sVdisambiguatedURL
p90
NsVnamedEntity
p91
Vangus thongs and full-frontal snogging
p92
sVoffset
p93
I38
saa(lp94
(dp95
Vstart
p96
I0
sVdisambiguatedURL
p97
Vhttp://dbpedia.org/resource/Annie_on_My_Mind
p98
sVnamedEntity
p99
Vannie on my mind
p100
sVoffset
p101
I16
saa(lp102
(dp103
Vstart
p104
I0
sVdisambiguatedURL
p105
Vhttp://dbpedia.org/resource/Are_You_There_God%3F_It's_Me,_Margaret.
p106
sVnamedEntity
p107
Vare you there god? it's me margaret
p108
sVoffset
p109
I35
saa(lp110
(dp111
Vstart
p112
I0
sVdisambiguatedURL
p113
NsVnamedEntity
p114
Varming america
p115
sVoffset
p116
I14
saa(lp117
(dp118
Vstart
p119
I0
sVdisambiguatedURL
p120
NsVnamedEntity
p121
Varizona kid
p122
sVoffset
p123
I11
saa(lp124
(dp125
Vstart
p126
I0
sVdisambiguatedURL
p127
Vhttp://dbpedia.org/resource/As_I_Lay_Dying
p128
sVnamedEntity
p129
Vas i lay dying
p130
sVoffset
p131
I14
saa(lp132
(dp133
Vstart
p134
I0
sVdisambiguatedURL
p135
NsVnamedEntity
p136
Vasking about sex and growing up
p137
sVoffset
p138
I31
saa(lp139
(dp140
Vstart
p141
I0
sVdisambiguatedURL
p142
NsVnamedEntity
p143
Vathletic shorts
p144
sVoffset
p145
I15
saa(lp146
(dp147
Vstart
p148
I0
sVdisambiguatedURL
p149
NsVnamedEntity
p150
Vbeloved
p151
sVoffset
p152
I7
saa.