(lp1
(lp2
(dp3
Vstart
p4
I0
sVdisambiguatedURL
p5
NsVnamedEntity
p6
V\ufffd\ufffd\ufffd\ufffd\ufffd\ufffd
p7
sVoffset
p8
I6
saa(lp9
(dp10
Vstart
p11
I0
sVdisambiguatedURL
p12
NsVnamedEntity
p13
V\u02f3\ufffd\ufffd\ufffd\ufffd
p14
sVoffset
p15
I5
saa.