(lp1
(lp2
(lp3
Vhttp://dbpedia.org/resource/Comcast
p4
aa(lp5
a(lp6
a(lp7
a(lp8
Vhttp://dbpedia.org/resource/TVNZ_7
p9
aaa(lp10
(lp11
Vhttp://dbpedia.org/resource/DirecTV
p12
aa(lp13
a(lp14
a(lp15
a(lp16
Vhttp://dbpedia.org/resource/TVNZ_7
p17
aaa(lp18
(lp19
Vhttp://dbpedia.org/resource/Walt_Disney
p20
aa(lp21
a(lp22
a(lp23
a(lp24
Vhttp://dbpedia.org/resource/TVNZ_7
p25
aaa(lp26
(lp27
Vhttp://dbpedia.org/resource/RR_Donnelley
p28
aa(lp29
a(lp30
a(lp31
a(lp32
Vhttp://dbpedia.org/resource/TVNZ_7
p33
aaa(lp34
(lp35
Vhttp://dbpedia.org/resource/John_Grey_&_Sons
p36
aa(lp37
a(lp38
a(lp39
a(lp40
Vhttp://dbpedia.org/resource/TVNZ_7
p41
aaa(lp42
(lp43
a(lp44
a(lp45
a(lp46
a(lp47
Vhttp://dbpedia.org/resource/TVNZ_7
p48
aaa(lp49
(lp50
Vhttp://dbpedia.org/resource/Thomas_Graves_Meredith
p51
aa(lp52
a(lp53
a(lp54
a(lp55
Vhttp://dbpedia.org/resource/TVNZ_7
p56
aaa(lp57
(lp58
Vhttp://dbpedia.org/resource/News
p59
aa(lp60
a(lp61
a(lp62
a(lp63
Vhttp://dbpedia.org/resource/TVNZ_7
p64
aaa(lp65
(lp66
Vhttp://dbpedia.org/resource/Omnicom_Group
p67
aa(lp68
a(lp69
a(lp70
a(lp71
Vhttp://dbpedia.org/resource/TVNZ_7
p72
aaa(lp73
(lp74
Vhttp://dbpedia.org/resource/E._W._Scripps_Company
p75
aa(lp76
a(lp77
a(lp78
a(lp79
Vhttp://dbpedia.org/resource/TVNZ_7
p80
aaa(lp81
(lp82
Vhttp://dbpedia.org/resource/Viacom
p83
aa(lp84
a(lp85
a(lp86
a(lp87
Vhttp://dbpedia.org/resource/TVNZ_7
p88
aaa(lp89
(lp90
Vhttp://dbpedia.org/resource/WPP_plc
p91
aa(lp92
a(lp93
a(lp94
a(lp95
Vhttp://dbpedia.org/resource/TVNZ_7
p96
aaa.