(lp1
(lp2
(lp3
((lp4
Vhttp://www.w3.org/2002/07/owl#Thing
p5
aVhttp://dbpedia.org/ontology/Company
p6
aVhttp://www.ontologydesignpatterns.org/ont/dul/DUL.owl#Agent
p7
aVhttp://www.ontologydesignpatterns.org/ont/dul/DUL.owl#SocialPerson
p8
aVhttp://www.wikidata.org/entity/Q43229
p9
aVhttp://dbpedia.org/ontology/Agent
p10
aVhttp://dbpedia.org/ontology/Organisation
p11
aVhttp://schema.org/Organization
p12
aVhttp://umbel.org/umbel/rc/Business
p13
aVhttp://umbel.org/umbel/rc/Organization
p14
aVhttp://dbpedia.org/class/yago/Abstraction100002137
p15
aVhttp://dbpedia.org/class/yago/CableTelevisionCompaniesOfTheUnitedStates
p16
aVhttp://dbpedia.org/class/yago/Company108058098
p17
aVhttp://dbpedia.org/class/yago/Group100031264
p18
aVhttp://dbpedia.org/class/yago/Institution108053576
p19
aVhttp://dbpedia.org/class/yago/Organization108008335
p20
aVhttp://dbpedia.org/class/yago/SocialGroup107950920
p21
aVhttp://dbpedia.org/class/yago/YagoLegalActorGeo
p22
aVhttp://dbpedia.org/class/yago/CompaniesBasedInPhiladelphia,Pennsylvania
p23
aVhttp://dbpedia.org/class/yago/CompaniesEstablishedIn1963
p24
aVhttp://dbpedia.org/class/yago/CompaniesListedOnNASDAQ
p25
aVhttp://dbpedia.org/class/yago/EntertainmentCompaniesOfTheUnitedStates
p26
aVhttp://dbpedia.org/class/yago/YagoPermanentlyLocatedEntity
p27
aVhttp://dbpedia.org/class/yago/MultinationalCompaniesHeadquarteredInTheUnitedStates
p28
aVhttp://dbpedia.org/class/yago/YagoLegalActor
p29
aVhttp://dbpedia.org/class/yago/PubliclyTradedCompaniesOfTheUnitedStates
p30
aVhttp://dbpedia.org/class/yago/VoIPCompanies
p31
aVhttp://dbpedia.org/resource/Comcast
tp32
aa(lp33
a(lp34
a(lp35
a(lp36
((lp37
Vhttp://umbel.org/umbel/rc/Business
p38
aVhttp://dbpedia.org/resource/TVNZ_7
tp39
aaa(lp40
(lp41
((lp42
Vhttp://www.w3.org/2002/07/owl#Thing
p43
aVhttp://dbpedia.org/ontology/Company
p44
aVhttp://www.ontologydesignpatterns.org/ont/dul/DUL.owl#Agent
p45
aVhttp://www.ontologydesignpatterns.org/ont/dul/DUL.owl#SocialPerson
p46
aVhttp://www.wikidata.org/entity/Q43229
p47
aVhttp://dbpedia.org/ontology/Agent
p48
aVhttp://dbpedia.org/ontology/Organisation
p49
aVhttp://schema.org/Organization
p50
aVhttp://umbel.org/umbel/rc/Business
p51
aVhttp://umbel.org/umbel/rc/Organization
p52
aVhttp://dbpedia.org/class/yago/Abstraction100002137
p53
aVhttp://dbpedia.org/class/yago/Company108058098
p54
aVhttp://dbpedia.org/class/yago/Group100031264
p55
aVhttp://dbpedia.org/class/yago/Institution108053576
p56
aVhttp://dbpedia.org/class/yago/Organization108008335
p57
aVhttp://dbpedia.org/class/yago/SocialGroup107950920
p58
aVhttp://dbpedia.org/class/yago/YagoLegalActorGeo
p59
aVhttp://dbpedia.org/class/yago/CompaniesBasedInLosAngelesCounty,California
p60
aVhttp://dbpedia.org/class/yago/CompaniesEstablishedIn1994
p61
aVhttp://dbpedia.org/class/yago/CompaniesListedOnNASDAQ
p62
aVhttp://dbpedia.org/class/yago/YagoPermanentlyLocatedEntity
p63
aVhttp://dbpedia.org/class/yago/YagoLegalActor
p64
aVhttp://dbpedia.org/resource/DirecTV
tp65
aa(lp66
a(lp67
a(lp68
a(lp69
((lp70
Vhttp://umbel.org/umbel/rc/Business
p71
aVhttp://dbpedia.org/resource/TVNZ_7
tp72
aaa(lp73
(lp74
((lp75
Vhttp://www.w3.org/2002/07/owl#Thing
p76
aVhttp://xmlns.com/foaf/0.1/Person
p77
aVhttp://dbpedia.org/ontology/Person
p78
aVhttp://www.ontologydesignpatterns.org/ont/dul/DUL.owl#Agent
p79
aVhttp://www.ontologydesignpatterns.org/ont/dul/DUL.owl#NaturalPerson
p80
aVhttp://www.wikidata.org/entity/Q215627
p81
aVhttp://www.wikidata.org/entity/Q5
p82
aVhttp://dbpedia.org/ontology/Agent
p83
aVhttp://schema.org/Person
p84
aVhttp://umbel.org/umbel/rc/PersonWithOccupation
p85
aVhttp://dbpedia.org/class/yago/Actor109765278
p86
aVhttp://dbpedia.org/class/yago/Actor109767197
p87
aVhttp://dbpedia.org/class/yago/Administrator109770949
p88
aVhttp://dbpedia.org/class/yago/Alumnus109786338
p89
aVhttp://dbpedia.org/class/yago/AmericanAnimators
p90
aVhttp://dbpedia.org/class/yago/AmericanArtistsOfGermanDescent
p91
aVhttp://dbpedia.org/class/yago/AmericanCartoonists
p92
aVhttp://dbpedia.org/class/yago/AmericanFilmDirectors
p93
aVhttp://dbpedia.org/class/yago/AmericanFilmProducers
p94
aVhttp://dbpedia.org/class/yago/AmericanPeopleOfCanadianDescent
p95
aVhttp://dbpedia.org/class/yago/AmericanPeopleOfEnglishDescent
p96
aVhttp://dbpedia.org/class/yago/AmericanPeopleOfFrenchDescent
p97
aVhttp://dbpedia.org/class/yago/AmericanScreenwriters
p98
aVhttp://dbpedia.org/class/yago/AmericanVoiceActors
p99
aVhttp://dbpedia.org/class/yago/AmericanWritersOfGermanDescent
p100
aVhttp://dbpedia.org/class/yago/AmericanWritersOfIrishDescent
p101
aVhttp://dbpedia.org/class/yago/AnimatedFilmDirectors
p102
aVhttp://dbpedia.org/class/yago/AnimatedFilmProducers
p103
aVhttp://dbpedia.org/class/yago/Artist109812338
p104
aVhttp://dbpedia.org/class/yago/Cartoonist109898346
p105
aVhttp://dbpedia.org/class/yago/CausalAgent100007347
p106
aVhttp://dbpedia.org/class/yago/Communicator109610660
p107
aVhttp://dbpedia.org/class/yago/Creator109614315
p108
aVhttp://dbpedia.org/class/yago/Draftsman110029068
p109
aVhttp://dbpedia.org/class/yago/Energizer110056103
p110
aVhttp://dbpedia.org/class/yago/Entertainer109616922
p111
aVhttp://dbpedia.org/class/yago/Executive110069645
p112
aVhttp://dbpedia.org/class/yago/FilmDirector110088200
p113
aVhttp://dbpedia.org/class/yago/FilmMaker110088390
p114
aVhttp://dbpedia.org/class/yago/Head110162991
p115
aVhttp://dbpedia.org/class/yago/Intellectual109621545
p116
aVhttp://dbpedia.org/class/yago/Leader109623038
p117
aVhttp://dbpedia.org/class/yago/LivingThing100004258
p118
aVhttp://dbpedia.org/class/yago/Object100002684
p119
aVhttp://dbpedia.org/class/yago/Organism100004475
p120
aVhttp://dbpedia.org/class/yago/Performer110415638
p121
aVhttp://dbpedia.org/class/yago/Person100007846
p122
aVhttp://dbpedia.org/class/yago/Scholar110557854
p123
aVhttp://dbpedia.org/class/yago/Screenwriter110564400
p124
aVhttp://dbpedia.org/class/yago/Whole100003553
p125
aVhttp://dbpedia.org/class/yago/Writer110794014
p126
aVhttp://dbpedia.org/class/yago/YagoLegalActorGeo
p127
aVhttp://dbpedia.org/class/yago/DisneyComicsWriters
p128
aVhttp://dbpedia.org/class/yago/DisneyPeople
p129
aVhttp://dbpedia.org/class/yago/English-languageFilmDirectors
p130
aVhttp://dbpedia.org/class/yago/FilmStudioExecutives
p131
aVhttp://dbpedia.org/class/yago/PhysicalEntity100001930
p132
aVhttp://dbpedia.org/class/yago/Producer110480018
p133
aVhttp://dbpedia.org/class/yago/KansasCityArtInstituteAlumni
p134
aVhttp://dbpedia.org/class/yago/PeopleFromChicago,Illinois
p135
aVhttp://dbpedia.org/class/yago/YagoLegalActor
p136
aVhttp://dbpedia.org/class/yago/Scriptwriter110564905
p137
aVhttp://dbpedia.org/resource/Walt_Disney
tp138
aa(lp139
a(lp140
a(lp141
a(lp142
((lp143
Vhttp://umbel.org/umbel/rc/Business
p144
aVhttp://dbpedia.org/resource/TVNZ_7
tp145
aaa(lp146
(lp147
((lp148
Vhttp://www.w3.org/2002/07/owl#Thing
p149
aVhttp://dbpedia.org/ontology/Company
p150
aVhttp://www.ontologydesignpatterns.org/ont/dul/DUL.owl#Agent
p151
aVhttp://www.ontologydesignpatterns.org/ont/dul/DUL.owl#SocialPerson
p152
aVhttp://www.wikidata.org/entity/Q43229
p153
aVhttp://dbpedia.org/ontology/Agent
p154
aVhttp://dbpedia.org/ontology/Organisation
p155
aVhttp://schema.org/Organization
p156
aVhttp://umbel.org/umbel/rc/Business
p157
aVhttp://dbpedia.org/class/yago/Abstraction100002137
p158
aVhttp://dbpedia.org/class/yago/Company108058098
p159
aVhttp://dbpedia.org/class/yago/Group100031264
p160
aVhttp://dbpedia.org/class/yago/Institution108053576
p161
aVhttp://dbpedia.org/class/yago/Organization108008335
p162
aVhttp://dbpedia.org/class/yago/SocialGroup107950920
p163
aVhttp://dbpedia.org/class/yago/YagoLegalActorGeo
p164
aVhttp://dbpedia.org/class/yago/CompaniesBasedInChicago,Illinois
p165
aVhttp://dbpedia.org/class/yago/CompaniesEstablishedIn1864
p166
aVhttp://dbpedia.org/class/yago/CompaniesListedOnNASDAQ
p167
aVhttp://dbpedia.org/class/yago/YagoPermanentlyLocatedEntity
p168
aVhttp://dbpedia.org/class/yago/YagoLegalActor
p169
aVhttp://dbpedia.org/class/yago/PrintingCompanies
p170
aVhttp://dbpedia.org/class/yago/PrintingConcern108069627
p171
aVhttp://dbpedia.org/resource/RR_Donnelley
tp172
aa(lp173
a(lp174
a(lp175
a(lp176
((lp177
Vhttp://umbel.org/umbel/rc/Business
p178
aVhttp://dbpedia.org/resource/TVNZ_7
tp179
aaa(lp180
(lp181
((lp182
Vhttp://dbpedia.org/class/yago/Abstraction100002137
p183
aVhttp://dbpedia.org/class/yago/Company108058098
p184
aVhttp://dbpedia.org/class/yago/Group100031264
p185
aVhttp://dbpedia.org/class/yago/Institution108053576
p186
aVhttp://dbpedia.org/class/yago/Organization108008335
p187
aVhttp://dbpedia.org/class/yago/SocialGroup107950920
p188
aVhttp://dbpedia.org/class/yago/YagoLegalActorGeo
p189
aVhttp://dbpedia.org/class/yago/CompaniesEstablishedIn1832
p190
aVhttp://dbpedia.org/class/yago/YagoPermanentlyLocatedEntity
p191
aVhttp://dbpedia.org/class/yago/YagoLegalActor
p192
aVhttp://dbpedia.org/resource/John_Grey_&_Sons
tp193
aa(lp194
a(lp195
a(lp196
a(lp197
((lp198
Vhttp://umbel.org/umbel/rc/Business
p199
aVhttp://dbpedia.org/resource/TVNZ_7
tp200
aaa(lp201
(lp202
a(lp203
a(lp204
a(lp205
a(lp206
((lp207
Vhttp://umbel.org/umbel/rc/Business
p208
aVhttp://dbpedia.org/resource/TVNZ_7
tp209
aaa(lp210
(lp211
((lp212
Vhttp://www.w3.org/2002/07/owl#Thing
p213
aVhttp://xmlns.com/foaf/0.1/Person
p214
aVhttp://dbpedia.org/ontology/Person
p215
aVhttp://www.ontologydesignpatterns.org/ont/dul/DUL.owl#Agent
p216
aVhttp://www.ontologydesignpatterns.org/ont/dul/DUL.owl#NaturalPerson
p217
aVhttp://www.wikidata.org/entity/Q215627
p218
aVhttp://www.wikidata.org/entity/Q5
p219
aVhttp://dbpedia.org/ontology/Agent
p220
aVhttp://schema.org/Person
p221
aVhttp://dbpedia.org/class/yago/Adult109605289
p222
aVhttp://dbpedia.org/class/yago/CanadianLawyers
p223
aVhttp://dbpedia.org/class/yago/CausalAgent100007347
p224
aVhttp://dbpedia.org/class/yago/Lawyer110249950
p225
aVhttp://dbpedia.org/class/yago/LivingThing100004258
p226
aVhttp://dbpedia.org/class/yago/Object100002684
p227
aVhttp://dbpedia.org/class/yago/Organism100004475
p228
aVhttp://dbpedia.org/class/yago/Person100007846
p229
aVhttp://dbpedia.org/class/yago/Professional110480253
p230
aVhttp://dbpedia.org/class/yago/Whole100003553
p231
aVhttp://dbpedia.org/class/yago/YagoLegalActorGeo
p232
aVhttp://dbpedia.org/class/yago/PhysicalEntity100001930
p233
aVhttp://dbpedia.org/class/yago/YagoLegalActor
p234
aVhttp://dbpedia.org/resource/Thomas_Graves_Meredith
tp235
aa(lp236
a(lp237
a(lp238
a(lp239
((lp240
Vhttp://umbel.org/umbel/rc/Business
p241
aVhttp://dbpedia.org/resource/TVNZ_7
tp242
aaa(lp243
(lp244
((lVhttp://dbpedia.org/resource/News
tp245
aa(lp246
a(lp247
a(lp248
a(lp249
((lp250
Vhttp://umbel.org/umbel/rc/Business
p251
aVhttp://dbpedia.org/resource/TVNZ_7
tp252
aaa(lp253
(lp254
((lp255
Vhttp://www.w3.org/2002/07/owl#Thing
p256
aVhttp://dbpedia.org/ontology/Company
p257
aVhttp://www.ontologydesignpatterns.org/ont/dul/DUL.owl#Agent
p258
aVhttp://www.ontologydesignpatterns.org/ont/dul/DUL.owl#SocialPerson
p259
aVhttp://www.wikidata.org/entity/Q43229
p260
aVhttp://dbpedia.org/ontology/Agent
p261
aVhttp://dbpedia.org/ontology/Organisation
p262
aVhttp://schema.org/Organization
p263
aVhttp://umbel.org/umbel/rc/Business
p264
aVhttp://umbel.org/umbel/rc/Organization
p265
aVhttp://dbpedia.org/class/yago/Abstraction100002137
p266
aVhttp://dbpedia.org/class/yago/AdvertisingAgenciesOfTheUnitedStates
p267
aVhttp://dbpedia.org/class/yago/AdvertisingAgency108353912
p268
aVhttp://dbpedia.org/class/yago/Agency108057206
p269
aVhttp://dbpedia.org/class/yago/Business108061042
p270
aVhttp://dbpedia.org/class/yago/Company108058098
p271
aVhttp://dbpedia.org/class/yago/Enterprise108056231
p272
aVhttp://dbpedia.org/class/yago/Group100031264
p273
aVhttp://dbpedia.org/class/yago/Institution108053576
p274
aVhttp://dbpedia.org/class/yago/Organization108008335
p275
aVhttp://dbpedia.org/class/yago/SocialGroup107950920
p276
aVhttp://dbpedia.org/class/yago/YagoLegalActorGeo
p277
aVhttp://dbpedia.org/class/yago/CompaniesBasedInNewYorkCity
p278
aVhttp://dbpedia.org/class/yago/CompaniesEstablishedIn1986
p279
aVhttp://dbpedia.org/class/yago/YagoPermanentlyLocatedEntity
p280
aVhttp://dbpedia.org/class/yago/YagoLegalActor
p281
aVhttp://dbpedia.org/resource/Omnicom_Group
tp282
aa(lp283
a(lp284
a(lp285
a(lp286
((lp287
Vhttp://umbel.org/umbel/rc/Business
p288
aVhttp://dbpedia.org/resource/TVNZ_7
tp289
aaa(lp290
(lp291
((lp292
Vhttp://www.w3.org/2002/07/owl#Thing
p293
aVhttp://dbpedia.org/ontology/Company
p294
aVhttp://www.ontologydesignpatterns.org/ont/dul/DUL.owl#Agent
p295
aVhttp://www.ontologydesignpatterns.org/ont/dul/DUL.owl#SocialPerson
p296
aVhttp://www.wikidata.org/entity/Q43229
p297
aVhttp://dbpedia.org/ontology/Agent
p298
aVhttp://dbpedia.org/ontology/Organisation
p299
aVhttp://schema.org/Organization
p300
aVhttp://umbel.org/umbel/rc/Business
p301
aVhttp://umbel.org/umbel/rc/Organization
p302
aVhttp://dbpedia.org/class/yago/Abstraction100002137
p303
aVhttp://dbpedia.org/class/yago/Business108061042
p304
aVhttp://dbpedia.org/class/yago/Company108058098
p305
aVhttp://dbpedia.org/class/yago/Enterprise108056231
p306
aVhttp://dbpedia.org/class/yago/Firm108059870
p307
aVhttp://dbpedia.org/class/yago/Group100031264
p308
aVhttp://dbpedia.org/class/yago/Institution108053576
p309
aVhttp://dbpedia.org/class/yago/Organization108008335
p310
aVhttp://dbpedia.org/class/yago/Publisher108062623
p311
aVhttp://dbpedia.org/class/yago/SocialGroup107950920
p312
aVhttp://dbpedia.org/class/yago/YagoLegalActorGeo
p313
aVhttp://dbpedia.org/class/yago/CompaniesBasedInCincinnati,Ohio
p314
aVhttp://dbpedia.org/class/yago/YagoPermanentlyLocatedEntity
p315
aVhttp://dbpedia.org/class/yago/NewspaperCompaniesOfTheUnitedStates
p316
aVhttp://dbpedia.org/class/yago/YagoLegalActor
p317
aVhttp://dbpedia.org/class/yago/PublishingCompaniesEstablishedIn1878
p318
aVhttp://dbpedia.org/resource/E._W._Scripps_Company
tp319
aa(lp320
a(lp321
a(lp322
a(lp323
((lp324
Vhttp://umbel.org/umbel/rc/Business
p325
aVhttp://dbpedia.org/resource/TVNZ_7
tp326
aaa(lp327
(lp328
((lp329
Vhttp://www.w3.org/2002/07/owl#Thing
p330
aVhttp://dbpedia.org/ontology/Company
p331
aVhttp://www.ontologydesignpatterns.org/ont/dul/DUL.owl#Agent
p332
aVhttp://www.ontologydesignpatterns.org/ont/dul/DUL.owl#SocialPerson
p333
aVhttp://www.wikidata.org/entity/Q43229
p334
aVhttp://dbpedia.org/ontology/Agent
p335
aVhttp://dbpedia.org/ontology/Organisation
p336
aVhttp://schema.org/Organization
p337
aVhttp://umbel.org/umbel/rc/Business
p338
aVhttp://umbel.org/umbel/rc/Organization
p339
aVhttp://dbpedia.org/class/yago/Abstraction100002137
p340
aVhttp://dbpedia.org/class/yago/Company108058098
p341
aVhttp://dbpedia.org/class/yago/Group100031264
p342
aVhttp://dbpedia.org/class/yago/Institution108053576
p343
aVhttp://dbpedia.org/class/yago/Organization108008335
p344
aVhttp://dbpedia.org/class/yago/SocialGroup107950920
p345
aVhttp://dbpedia.org/class/yago/SubsidiaryCompany108003935
p346
aVhttp://dbpedia.org/class/yago/YagoLegalActorGeo
p347
aVhttp://dbpedia.org/class/yago/CompaniesBasedInManhattan
p348
aVhttp://dbpedia.org/class/yago/CompaniesEstablishedIn2006
p349
aVhttp://dbpedia.org/class/yago/CompaniesListedOnNASDAQ
p350
aVhttp://dbpedia.org/class/yago/YagoPermanentlyLocatedEntity
p351
aVhttp://dbpedia.org/class/yago/MediaCompaniesBasedInNewYorkCity
p352
aVhttp://dbpedia.org/class/yago/MultinationalCompaniesBasedInNewYorkCity
p353
aVhttp://dbpedia.org/class/yago/YagoLegalActor
p354
aVhttp://dbpedia.org/class/yago/PubliclyTradedCompaniesBasedInNewYorkCity
p355
aVhttp://dbpedia.org/class/yago/ViacomSubsidiaries
p356
aVhttp://dbpedia.org/resource/Viacom
tp357
aa(lp358
a(lp359
a(lp360
a(lp361
((lp362
Vhttp://umbel.org/umbel/rc/Business
p363
aVhttp://dbpedia.org/resource/TVNZ_7
tp364
aaa(lp365
(lp366
((lp367
Vhttp://www.w3.org/2002/07/owl#Thing
p368
aVhttp://dbpedia.org/ontology/Company
p369
aVhttp://www.ontologydesignpatterns.org/ont/dul/DUL.owl#Agent
p370
aVhttp://www.ontologydesignpatterns.org/ont/dul/DUL.owl#SocialPerson
p371
aVhttp://www.wikidata.org/entity/Q43229
p372
aVhttp://dbpedia.org/ontology/Agent
p373
aVhttp://dbpedia.org/ontology/Organisation
p374
aVhttp://schema.org/Organization
p375
aVhttp://dbpedia.org/class/yago/Abstraction100002137
p376
aVhttp://dbpedia.org/class/yago/AdvertisingAgenciesOfTheUnitedKingdom
p377
aVhttp://dbpedia.org/class/yago/AdvertisingAgency108353912
p378
aVhttp://dbpedia.org/class/yago/Agency108057206
p379
aVhttp://dbpedia.org/class/yago/Business108061042
p380
aVhttp://dbpedia.org/class/yago/BusinessServicesCompaniesOfTheUnitedKingdom
p381
aVhttp://dbpedia.org/class/yago/Company108058098
p382
aVhttp://dbpedia.org/class/yago/Enterprise108056231
p383
aVhttp://dbpedia.org/class/yago/Group100031264
p384
aVhttp://dbpedia.org/class/yago/Institution108053576
p385
aVhttp://dbpedia.org/class/yago/Organization108008335
p386
aVhttp://dbpedia.org/class/yago/SocialGroup107950920
p387
aVhttp://dbpedia.org/class/yago/YagoLegalActorGeo
p388
aVhttp://dbpedia.org/class/yago/CompaniesBasedInDublin(city)
p389
aVhttp://dbpedia.org/class/yago/CompaniesBasedInLondon
p390
aVhttp://dbpedia.org/class/yago/CompaniesEstablishedIn1985
p391
aVhttp://dbpedia.org/class/yago/CompaniesListedOnNASDAQ
p392
aVhttp://dbpedia.org/class/yago/YagoPermanentlyLocatedEntity
p393
aVhttp://dbpedia.org/class/yago/MediaCompaniesOfTheUnitedKingdom
p394
aVhttp://dbpedia.org/class/yago/YagoLegalActor
p395
aVhttp://dbpedia.org/class/yago/PublicRelationsCompaniesOfTheUnitedKingdom
p396
aVhttp://dbpedia.org/resource/WPP_plc
tp397
aa(lp398
a(lp399
a(lp400
a(lp401
((lp402
Vhttp://umbel.org/umbel/rc/Business
p403
aVhttp://dbpedia.org/resource/TVNZ_7
p404
tp405
aaa.