(lp1
(lp2
(dp3
Vstart
p4
I0
sS'classes'
p5
(lp6
Vhttp://www.w3.org/2002/07/owl#Thing
p7
aVhttp://dbpedia.org/ontology/Company
p8
aVhttp://www.ontologydesignpatterns.org/ont/dul/DUL.owl#Agent
p9
aVhttp://www.ontologydesignpatterns.org/ont/dul/DUL.owl#SocialPerson
p10
aVhttp://www.wikidata.org/entity/Q43229
p11
aVhttp://dbpedia.org/ontology/Agent
p12
aVhttp://dbpedia.org/ontology/Organisation
p13
aVhttp://schema.org/Organization
p14
aVhttp://umbel.org/umbel/rc/Business
p15
aVhttp://umbel.org/umbel/rc/Organization
p16
aVhttp://dbpedia.org/class/yago/Abstraction100002137
p17
aVhttp://dbpedia.org/class/yago/CableTelevisionCompaniesOfTheUnitedStates
p18
aVhttp://dbpedia.org/class/yago/Company108058098
p19
aVhttp://dbpedia.org/class/yago/Group100031264
p20
aVhttp://dbpedia.org/class/yago/Institution108053576
p21
aVhttp://dbpedia.org/class/yago/Organization108008335
p22
aVhttp://dbpedia.org/class/yago/SocialGroup107950920
p23
aVhttp://dbpedia.org/class/yago/YagoLegalActorGeo
p24
aVhttp://dbpedia.org/class/yago/CompaniesBasedInPhiladelphia,Pennsylvania
p25
aVhttp://dbpedia.org/class/yago/CompaniesEstablishedIn1963
p26
aVhttp://dbpedia.org/class/yago/CompaniesListedOnNASDAQ
p27
aVhttp://dbpedia.org/class/yago/EntertainmentCompaniesOfTheUnitedStates
p28
aVhttp://dbpedia.org/class/yago/YagoPermanentlyLocatedEntity
p29
aVhttp://dbpedia.org/class/yago/MultinationalCompaniesHeadquarteredInTheUnitedStates
p30
aVhttp://dbpedia.org/class/yago/YagoLegalActor
p31
aVhttp://dbpedia.org/class/yago/PubliclyTradedCompaniesOfTheUnitedStates
p32
aVhttp://dbpedia.org/class/yago/VoIPCompanies
p33
asVdisambiguatedURL
p34
Vhttp://dbpedia.org/resource/Comcast
p35
sVnamedEntity
p36
VComcast
p37
sVoffset
p38
I7
saa(lp39
(dp40
Vstart
p41
I0
sg5
(lp42
Vhttp://www.w3.org/2002/07/owl#Thing
p43
aVhttp://dbpedia.org/ontology/Company
p44
aVhttp://www.ontologydesignpatterns.org/ont/dul/DUL.owl#Agent
p45
aVhttp://www.ontologydesignpatterns.org/ont/dul/DUL.owl#SocialPerson
p46
aVhttp://www.wikidata.org/entity/Q43229
p47
aVhttp://dbpedia.org/ontology/Agent
p48
aVhttp://dbpedia.org/ontology/Organisation
p49
aVhttp://schema.org/Organization
p50
aVhttp://umbel.org/umbel/rc/Business
p51
aVhttp://umbel.org/umbel/rc/Organization
p52
aVhttp://dbpedia.org/class/yago/Abstraction100002137
p53
aVhttp://dbpedia.org/class/yago/Company108058098
p54
aVhttp://dbpedia.org/class/yago/Group100031264
p55
aVhttp://dbpedia.org/class/yago/Institution108053576
p56
aVhttp://dbpedia.org/class/yago/Organization108008335
p57
aVhttp://dbpedia.org/class/yago/SocialGroup107950920
p58
aVhttp://dbpedia.org/class/yago/YagoLegalActorGeo
p59
aVhttp://dbpedia.org/class/yago/CompaniesBasedInLosAngelesCounty,California
p60
aVhttp://dbpedia.org/class/yago/CompaniesEstablishedIn1994
p61
aVhttp://dbpedia.org/class/yago/CompaniesListedOnNASDAQ
p62
aVhttp://dbpedia.org/class/yago/YagoPermanentlyLocatedEntity
p63
aVhttp://dbpedia.org/class/yago/YagoLegalActor
p64
asVdisambiguatedURL
p65
Vhttp://dbpedia.org/resource/DirecTV
p66
sVnamedEntity
p67
VDirecTV Group
p68
sVoffset
p69
I13
saa(lp70
(dp71
Vstart
p72
I0
sg5
(lp73
Vhttp://www.w3.org/2002/07/owl#Thing
p74
aVhttp://xmlns.com/foaf/0.1/Person
p75
aVhttp://dbpedia.org/ontology/Person
p76
aVhttp://www.ontologydesignpatterns.org/ont/dul/DUL.owl#Agent
p77
aVhttp://www.ontologydesignpatterns.org/ont/dul/DUL.owl#NaturalPerson
p78
aVhttp://www.wikidata.org/entity/Q215627
p79
aVhttp://www.wikidata.org/entity/Q5
p80
aVhttp://dbpedia.org/ontology/Agent
p81
aVhttp://schema.org/Person
p82
aVhttp://umbel.org/umbel/rc/PersonWithOccupation
p83
aVhttp://dbpedia.org/class/yago/Actor109765278
p84
aVhttp://dbpedia.org/class/yago/Actor109767197
p85
aVhttp://dbpedia.org/class/yago/Administrator109770949
p86
aVhttp://dbpedia.org/class/yago/Alumnus109786338
p87
aVhttp://dbpedia.org/class/yago/AmericanAnimators
p88
aVhttp://dbpedia.org/class/yago/AmericanArtistsOfGermanDescent
p89
aVhttp://dbpedia.org/class/yago/AmericanCartoonists
p90
aVhttp://dbpedia.org/class/yago/AmericanFilmDirectors
p91
aVhttp://dbpedia.org/class/yago/AmericanFilmProducers
p92
aVhttp://dbpedia.org/class/yago/AmericanPeopleOfCanadianDescent
p93
aVhttp://dbpedia.org/class/yago/AmericanPeopleOfEnglishDescent
p94
aVhttp://dbpedia.org/class/yago/AmericanPeopleOfFrenchDescent
p95
aVhttp://dbpedia.org/class/yago/AmericanScreenwriters
p96
aVhttp://dbpedia.org/class/yago/AmericanVoiceActors
p97
aVhttp://dbpedia.org/class/yago/AmericanWritersOfGermanDescent
p98
aVhttp://dbpedia.org/class/yago/AmericanWritersOfIrishDescent
p99
aVhttp://dbpedia.org/class/yago/AnimatedFilmDirectors
p100
aVhttp://dbpedia.org/class/yago/AnimatedFilmProducers
p101
aVhttp://dbpedia.org/class/yago/Artist109812338
p102
aVhttp://dbpedia.org/class/yago/Cartoonist109898346
p103
aVhttp://dbpedia.org/class/yago/CausalAgent100007347
p104
aVhttp://dbpedia.org/class/yago/Communicator109610660
p105
aVhttp://dbpedia.org/class/yago/Creator109614315
p106
aVhttp://dbpedia.org/class/yago/Draftsman110029068
p107
aVhttp://dbpedia.org/class/yago/Energizer110056103
p108
aVhttp://dbpedia.org/class/yago/Entertainer109616922
p109
aVhttp://dbpedia.org/class/yago/Executive110069645
p110
aVhttp://dbpedia.org/class/yago/FilmDirector110088200
p111
aVhttp://dbpedia.org/class/yago/FilmMaker110088390
p112
aVhttp://dbpedia.org/class/yago/Head110162991
p113
aVhttp://dbpedia.org/class/yago/Intellectual109621545
p114
aVhttp://dbpedia.org/class/yago/Leader109623038
p115
aVhttp://dbpedia.org/class/yago/LivingThing100004258
p116
aVhttp://dbpedia.org/class/yago/Object100002684
p117
aVhttp://dbpedia.org/class/yago/Organism100004475
p118
aVhttp://dbpedia.org/class/yago/Performer110415638
p119
aVhttp://dbpedia.org/class/yago/Person100007846
p120
aVhttp://dbpedia.org/class/yago/Scholar110557854
p121
aVhttp://dbpedia.org/class/yago/Screenwriter110564400
p122
aVhttp://dbpedia.org/class/yago/Whole100003553
p123
aVhttp://dbpedia.org/class/yago/Writer110794014
p124
aVhttp://dbpedia.org/class/yago/YagoLegalActorGeo
p125
aVhttp://dbpedia.org/class/yago/DisneyComicsWriters
p126
aVhttp://dbpedia.org/class/yago/DisneyPeople
p127
aVhttp://dbpedia.org/class/yago/English-languageFilmDirectors
p128
aVhttp://dbpedia.org/class/yago/FilmStudioExecutives
p129
aVhttp://dbpedia.org/class/yago/PhysicalEntity100001930
p130
aVhttp://dbpedia.org/class/yago/Producer110480018
p131
aVhttp://dbpedia.org/class/yago/KansasCityArtInstituteAlumni
p132
aVhttp://dbpedia.org/class/yago/PeopleFromChicago,Illinois
p133
aVhttp://dbpedia.org/class/yago/YagoLegalActor
p134
aVhttp://dbpedia.org/class/yago/Scriptwriter110564905
p135
asVdisambiguatedURL
p136
Vhttp://dbpedia.org/resource/Walt_Disney
p137
sVnamedEntity
p138
VWalt Disney
p139
sVoffset
p140
I11
saa(lp141
(dp142
Vstart
p143
I0
sg5
(lp144
Vhttp://www.w3.org/2002/07/owl#Thing
p145
aVhttp://dbpedia.org/ontology/Company
p146
aVhttp://www.ontologydesignpatterns.org/ont/dul/DUL.owl#Agent
p147
aVhttp://www.ontologydesignpatterns.org/ont/dul/DUL.owl#SocialPerson
p148
aVhttp://www.wikidata.org/entity/Q43229
p149
aVhttp://dbpedia.org/ontology/Agent
p150
aVhttp://dbpedia.org/ontology/Organisation
p151
aVhttp://schema.org/Organization
p152
aVhttp://umbel.org/umbel/rc/Business
p153
aVhttp://dbpedia.org/class/yago/Abstraction100002137
p154
aVhttp://dbpedia.org/class/yago/Company108058098
p155
aVhttp://dbpedia.org/class/yago/Group100031264
p156
aVhttp://dbpedia.org/class/yago/Institution108053576
p157
aVhttp://dbpedia.org/class/yago/Organization108008335
p158
aVhttp://dbpedia.org/class/yago/SocialGroup107950920
p159
aVhttp://dbpedia.org/class/yago/YagoLegalActorGeo
p160
aVhttp://dbpedia.org/class/yago/CompaniesBasedInChicago,Illinois
p161
aVhttp://dbpedia.org/class/yago/CompaniesEstablishedIn1864
p162
aVhttp://dbpedia.org/class/yago/CompaniesListedOnNASDAQ
p163
aVhttp://dbpedia.org/class/yago/YagoPermanentlyLocatedEntity
p164
aVhttp://dbpedia.org/class/yago/YagoLegalActor
p165
aVhttp://dbpedia.org/class/yago/PrintingCompanies
p166
aVhttp://dbpedia.org/class/yago/PrintingConcern108069627
p167
asVdisambiguatedURL
p168
Vhttp://dbpedia.org/resource/RR_Donnelley
p169
sVnamedEntity
p170
VRR Donnelley & Sons
p171
sVoffset
p172
I19
saa(lp173
(dp174
Vstart
p175
I0
sg5
(lp176
Vhttp://dbpedia.org/class/yago/Abstraction100002137
p177
aVhttp://dbpedia.org/class/yago/Company108058098
p178
aVhttp://dbpedia.org/class/yago/Group100031264
p179
aVhttp://dbpedia.org/class/yago/Institution108053576
p180
aVhttp://dbpedia.org/class/yago/Organization108008335
p181
aVhttp://dbpedia.org/class/yago/SocialGroup107950920
p182
aVhttp://dbpedia.org/class/yago/YagoLegalActorGeo
p183
aVhttp://dbpedia.org/class/yago/CompaniesEstablishedIn1832
p184
aVhttp://dbpedia.org/class/yago/YagoPermanentlyLocatedEntity
p185
aVhttp://dbpedia.org/class/yago/YagoLegalActor
p186
asVdisambiguatedURL
p187
Vhttp://dbpedia.org/resource/John_Grey_&_Sons
p188
sVnamedEntity
p189
VJohn Wiley & Sons
p190
sVoffset
p191
I17
saa(lp192
a(lp193
(dp194
Vstart
p195
I0
sg5
(lp196
Vhttp://www.w3.org/2002/07/owl#Thing
p197
aVhttp://xmlns.com/foaf/0.1/Person
p198
aVhttp://dbpedia.org/ontology/Person
p199
aVhttp://www.ontologydesignpatterns.org/ont/dul/DUL.owl#Agent
p200
aVhttp://www.ontologydesignpatterns.org/ont/dul/DUL.owl#NaturalPerson
p201
aVhttp://www.wikidata.org/entity/Q215627
p202
aVhttp://www.wikidata.org/entity/Q5
p203
aVhttp://dbpedia.org/ontology/Agent
p204
aVhttp://schema.org/Person
p205
aVhttp://dbpedia.org/class/yago/Adult109605289
p206
aVhttp://dbpedia.org/class/yago/CanadianLawyers
p207
aVhttp://dbpedia.org/class/yago/CausalAgent100007347
p208
aVhttp://dbpedia.org/class/yago/Lawyer110249950
p209
aVhttp://dbpedia.org/class/yago/LivingThing100004258
p210
aVhttp://dbpedia.org/class/yago/Object100002684
p211
aVhttp://dbpedia.org/class/yago/Organism100004475
p212
aVhttp://dbpedia.org/class/yago/Person100007846
p213
aVhttp://dbpedia.org/class/yago/Professional110480253
p214
aVhttp://dbpedia.org/class/yago/Whole100003553
p215
aVhttp://dbpedia.org/class/yago/YagoLegalActorGeo
p216
aVhttp://dbpedia.org/class/yago/PhysicalEntity100001930
p217
aVhttp://dbpedia.org/class/yago/YagoLegalActor
p218
asVdisambiguatedURL
p219
Vhttp://dbpedia.org/resource/Thomas_Graves_Meredith
p220
sVnamedEntity
p221
VMeredith
p222
sVoffset
p223
I8
saa(lp224
a(lp225
(dp226
Vstart
p227
I0
sg5
(lp228
Vhttp://www.w3.org/2002/07/owl#Thing
p229
aVhttp://dbpedia.org/ontology/Company
p230
aVhttp://www.ontologydesignpatterns.org/ont/dul/DUL.owl#Agent
p231
aVhttp://www.ontologydesignpatterns.org/ont/dul/DUL.owl#SocialPerson
p232
aVhttp://www.wikidata.org/entity/Q43229
p233
aVhttp://dbpedia.org/ontology/Agent
p234
aVhttp://dbpedia.org/ontology/Organisation
p235
aVhttp://schema.org/Organization
p236
aVhttp://umbel.org/umbel/rc/Business
p237
aVhttp://umbel.org/umbel/rc/Organization
p238
aVhttp://dbpedia.org/class/yago/Abstraction100002137
p239
aVhttp://dbpedia.org/class/yago/AdvertisingAgenciesOfTheUnitedStates
p240
aVhttp://dbpedia.org/class/yago/AdvertisingAgency108353912
p241
aVhttp://dbpedia.org/class/yago/Agency108057206
p242
aVhttp://dbpedia.org/class/yago/Business108061042
p243
aVhttp://dbpedia.org/class/yago/Company108058098
p244
aVhttp://dbpedia.org/class/yago/Enterprise108056231
p245
aVhttp://dbpedia.org/class/yago/Group100031264
p246
aVhttp://dbpedia.org/class/yago/Institution108053576
p247
aVhttp://dbpedia.org/class/yago/Organization108008335
p248
aVhttp://dbpedia.org/class/yago/SocialGroup107950920
p249
aVhttp://dbpedia.org/class/yago/YagoLegalActorGeo
p250
aVhttp://dbpedia.org/class/yago/CompaniesBasedInNewYorkCity
p251
aVhttp://dbpedia.org/class/yago/CompaniesEstablishedIn1986
p252
aVhttp://dbpedia.org/class/yago/YagoPermanentlyLocatedEntity
p253
aVhttp://dbpedia.org/class/yago/YagoLegalActor
p254
asVdisambiguatedURL
p255
Vhttp://dbpedia.org/resource/Omnicom_Group
p256
sVnamedEntity
p257
VOmnicom Group
p258
sVoffset
p259
I13
saa(lp260
(dp261
Vstart
p262
I0
sg5
(lp263
Vhttp://www.w3.org/2002/07/owl#Thing
p264
aVhttp://dbpedia.org/ontology/Company
p265
aVhttp://www.ontologydesignpatterns.org/ont/dul/DUL.owl#Agent
p266
aVhttp://www.ontologydesignpatterns.org/ont/dul/DUL.owl#SocialPerson
p267
aVhttp://www.wikidata.org/entity/Q43229
p268
aVhttp://dbpedia.org/ontology/Agent
p269
aVhttp://dbpedia.org/ontology/Organisation
p270
aVhttp://schema.org/Organization
p271
aVhttp://umbel.org/umbel/rc/Business
p272
aVhttp://umbel.org/umbel/rc/Organization
p273
aVhttp://dbpedia.org/class/yago/Abstraction100002137
p274
aVhttp://dbpedia.org/class/yago/Business108061042
p275
aVhttp://dbpedia.org/class/yago/Company108058098
p276
aVhttp://dbpedia.org/class/yago/Enterprise108056231
p277
aVhttp://dbpedia.org/class/yago/Firm108059870
p278
aVhttp://dbpedia.org/class/yago/Group100031264
p279
aVhttp://dbpedia.org/class/yago/Institution108053576
p280
aVhttp://dbpedia.org/class/yago/Organization108008335
p281
aVhttp://dbpedia.org/class/yago/Publisher108062623
p282
aVhttp://dbpedia.org/class/yago/SocialGroup107950920
p283
aVhttp://dbpedia.org/class/yago/YagoLegalActorGeo
p284
aVhttp://dbpedia.org/class/yago/CompaniesBasedInCincinnati,Ohio
p285
aVhttp://dbpedia.org/class/yago/YagoPermanentlyLocatedEntity
p286
aVhttp://dbpedia.org/class/yago/NewspaperCompaniesOfTheUnitedStates
p287
aVhttp://dbpedia.org/class/yago/YagoLegalActor
p288
aVhttp://dbpedia.org/class/yago/PublishingCompaniesEstablishedIn1878
p289
asVdisambiguatedURL
p290
Vhttp://dbpedia.org/resource/E._W._Scripps_Company
p291
sVnamedEntity
p292
VEW Scripps
p293
sVoffset
p294
I10
saa(lp295
(dp296
Vstart
p297
I0
sg5
(lp298
Vhttp://www.w3.org/2002/07/owl#Thing
p299
aVhttp://dbpedia.org/ontology/Company
p300
aVhttp://www.ontologydesignpatterns.org/ont/dul/DUL.owl#Agent
p301
aVhttp://www.ontologydesignpatterns.org/ont/dul/DUL.owl#SocialPerson
p302
aVhttp://www.wikidata.org/entity/Q43229
p303
aVhttp://dbpedia.org/ontology/Agent
p304
aVhttp://dbpedia.org/ontology/Organisation
p305
aVhttp://schema.org/Organization
p306
aVhttp://umbel.org/umbel/rc/Business
p307
aVhttp://umbel.org/umbel/rc/Organization
p308
aVhttp://dbpedia.org/class/yago/Abstraction100002137
p309
aVhttp://dbpedia.org/class/yago/Company108058098
p310
aVhttp://dbpedia.org/class/yago/Group100031264
p311
aVhttp://dbpedia.org/class/yago/Institution108053576
p312
aVhttp://dbpedia.org/class/yago/Organization108008335
p313
aVhttp://dbpedia.org/class/yago/SocialGroup107950920
p314
aVhttp://dbpedia.org/class/yago/SubsidiaryCompany108003935
p315
aVhttp://dbpedia.org/class/yago/YagoLegalActorGeo
p316
aVhttp://dbpedia.org/class/yago/CompaniesBasedInManhattan
p317
aVhttp://dbpedia.org/class/yago/CompaniesEstablishedIn2006
p318
aVhttp://dbpedia.org/class/yago/CompaniesListedOnNASDAQ
p319
aVhttp://dbpedia.org/class/yago/YagoPermanentlyLocatedEntity
p320
aVhttp://dbpedia.org/class/yago/MediaCompaniesBasedInNewYorkCity
p321
aVhttp://dbpedia.org/class/yago/MultinationalCompaniesBasedInNewYorkCity
p322
aVhttp://dbpedia.org/class/yago/YagoLegalActor
p323
aVhttp://dbpedia.org/class/yago/PubliclyTradedCompaniesBasedInNewYorkCity
p324
aVhttp://dbpedia.org/class/yago/ViacomSubsidiaries
p325
asVdisambiguatedURL
p326
Vhttp://dbpedia.org/resource/Viacom
p327
sVnamedEntity
p328
VViacom
p329
sVoffset
p330
I6
saa(lp331
(dp332
Vstart
p333
I0
sg5
(lp334
Vhttp://www.w3.org/2002/07/owl#Thing
p335
aVhttp://dbpedia.org/ontology/Company
p336
aVhttp://www.ontologydesignpatterns.org/ont/dul/DUL.owl#Agent
p337
aVhttp://www.ontologydesignpatterns.org/ont/dul/DUL.owl#SocialPerson
p338
aVhttp://www.wikidata.org/entity/Q43229
p339
aVhttp://dbpedia.org/ontology/Agent
p340
aVhttp://dbpedia.org/ontology/Organisation
p341
aVhttp://schema.org/Organization
p342
aVhttp://dbpedia.org/class/yago/Abstraction100002137
p343
aVhttp://dbpedia.org/class/yago/AdvertisingAgenciesOfTheUnitedKingdom
p344
aVhttp://dbpedia.org/class/yago/AdvertisingAgency108353912
p345
aVhttp://dbpedia.org/class/yago/Agency108057206
p346
aVhttp://dbpedia.org/class/yago/Business108061042
p347
aVhttp://dbpedia.org/class/yago/BusinessServicesCompaniesOfTheUnitedKingdom
p348
aVhttp://dbpedia.org/class/yago/Company108058098
p349
aVhttp://dbpedia.org/class/yago/Enterprise108056231
p350
aVhttp://dbpedia.org/class/yago/Group100031264
p351
aVhttp://dbpedia.org/class/yago/Institution108053576
p352
aVhttp://dbpedia.org/class/yago/Organization108008335
p353
aVhttp://dbpedia.org/class/yago/SocialGroup107950920
p354
aVhttp://dbpedia.org/class/yago/YagoLegalActorGeo
p355
aVhttp://dbpedia.org/class/yago/CompaniesBasedInDublin(city)
p356
aVhttp://dbpedia.org/class/yago/CompaniesBasedInLondon
p357
aVhttp://dbpedia.org/class/yago/CompaniesEstablishedIn1985
p358
aVhttp://dbpedia.org/class/yago/CompaniesListedOnNASDAQ
p359
aVhttp://dbpedia.org/class/yago/YagoPermanentlyLocatedEntity
p360
aVhttp://dbpedia.org/class/yago/MediaCompaniesOfTheUnitedKingdom
p361
aVhttp://dbpedia.org/class/yago/YagoLegalActor
p362
aVhttp://dbpedia.org/class/yago/PublicRelationsCompaniesOfTheUnitedKingdom
p363
asVdisambiguatedURL
p364
Vhttp://dbpedia.org/resource/WPP_plc
p365
sVnamedEntity
p366
VWPP Group
p367
sVoffset
p368
I9
saa.