(lp1
(lp2
(dp3
Vstart
p4
I0
sVdisambiguatedURL
p5
Vhttp://dbpedia.org/resource/United_States
p6
sVnamedEntity
p7
VUSA
p8
sVoffset
p9
I3
saa(lp10
(dp11
Vstart
p12
I0
sVdisambiguatedURL
p13
Vhttp://dbpedia.org/resource/Brazil
p14
sVnamedEntity
p15
VBrazil
p16
sVoffset
p17
I6
saa(lp18
(dp19
Vstart
p20
I0
sVdisambiguatedURL
p21
Vhttp://dbpedia.org/resource/Canada
p22
sVnamedEntity
p23
VCanada
p24
sVoffset
p25
I6
saa(lp26
(dp27
Vstart
p28
I0
sVdisambiguatedURL
p29
Vhttp://dbpedia.org/resource/China
p30
sVnamedEntity
p31
VChina
p32
sVoffset
p33
I5
saa(lp34
(dp35
Vstart
p36
I0
sVdisambiguatedURL
p37
Vhttp://dbpedia.org/resource/Czech_Republic
p38
sVnamedEntity
p39
VCzech Republic
p40
sVoffset
p41
I14
saa(lp42
(dp43
Vstart
p44
I0
sVdisambiguatedURL
p45
Vhttp://dbpedia.org/resource/Denmark
p46
sVnamedEntity
p47
VDenmark
p48
sVoffset
p49
I7
saa(lp50
(dp51
Vstart
p52
I0
sVdisambiguatedURL
p53
Vhttp://dbpedia.org/resource/Finland
p54
sVnamedEntity
p55
VFinland
p56
sVoffset
p57
I7
saa(lp58
(dp59
Vstart
p60
I0
sVdisambiguatedURL
p61
Vhttp://dbpedia.org/resource/France_2
p62
sVnamedEntity
p63
VFrance
p64
sVoffset
p65
I6
saa(lp66
(dp67
Vstart
p68
I0
sVdisambiguatedURL
p69
Vhttp://dbpedia.org/resource/Germany
p70
sVnamedEntity
p71
VGermany
p72
sVoffset
p73
I7
saa(lp74
(dp75
Vstart
p76
I0
sVdisambiguatedURL
p77
Vhttp://dbpedia.org/resource/Italy
p78
sVnamedEntity
p79
VItaly
p80
sVoffset
p81
I5
saa(lp82
(dp83
Vstart
p84
I0
sVdisambiguatedURL
p85
Vhttp://dbpedia.org/resource/Japan
p86
sVnamedEntity
p87
VJapan
p88
sVoffset
p89
I5
saa(lp90
(dp91
Vstart
p92
I0
sVdisambiguatedURL
p93
Vhttp://dbpedia.org/resource/Korea
p94
sVnamedEntity
p95
VKorea
p96
sVoffset
p97
I5
saa(lp98
(dp99
Vstart
p100
I0
sVdisambiguatedURL
p101
NsVnamedEntity
p102
VLatin America (LTAM) excluding Brasil
p103
sVoffset
p104
I37
saa(lp105
(dp106
Vstart
p107
I0
sVdisambiguatedURL
p108
Vhttp://dbpedia.org/resource/Netherlands
p109
sVnamedEntity
p110
VNetherlands
p111
sVoffset
p112
I11
saa(lp113
(dp114
Vstart
p115
I0
sVdisambiguatedURL
p116
Vhttp://dbpedia.org/resource/Norway
p117
sVnamedEntity
p118
VNorway
p119
sVoffset
p120
I6
saa(lp121
(dp122
Vstart
p123
I0
sVdisambiguatedURL
p124
Vhttp://dbpedia.org/resource/Poland
p125
sVnamedEntity
p126
VPoland
p127
sVoffset
p128
I6
saa(lp129
(dp130
Vstart
p131
I0
sVdisambiguatedURL
p132
Vhttp://dbpedia.org/resource/Portugal
p133
sVnamedEntity
p134
VPortugal
p135
sVoffset
p136
I8
saa(lp137
(dp138
Vstart
p139
I0
sVdisambiguatedURL
p140
Vhttp://dbpedia.org/resource/Russia
p141
sVnamedEntity
p142
VRussia
p143
sVoffset
p144
I6
saa(lp145
(dp146
Vstart
p147
I0
sVdisambiguatedURL
p148
Vhttp://dbpedia.org/resource/Spain
p149
sVnamedEntity
p150
VSpain
p151
sVoffset
p152
I5
saa(lp153
(dp154
Vstart
p155
I0
sVdisambiguatedURL
p156
Vhttp://dbpedia.org/resource/Sweden
p157
sVnamedEntity
p158
VSweden
p159
sVoffset
p160
I6
saa.