ccollections
defaultdict
p1
(c__builtin__
dict
p2
tRp3
I0
(dp4
I1
(lp5
Vhttp://dbpedia.org/property/origin
p6
aVhttp://dbpedia.org/property/placeOfDeath
p7
aVhttp://dbpedia.org/property/footnoteA
p8
aVhttp://dbpedia.org/property/footnoteB
p9
aVhttp://dbpedia.org/ontology/country
p10
aVhttp://dbpedia.org/property/region
p11
aVhttp://www.w3.org/1999/02/22-rdf-syntax-ns#type
p12
aVhttp://dbpedia.org/property/allegiance
p13
aVhttp://dbpedia.org/ontology/nationality
p14
aVhttp://dbpedia.org/property/birthPlace
p15
aVhttp://dbpedia.org/ontology/language
p16
aVhttp://dbpedia.org/property/nationality
p17
aVhttp://dbpedia.org/property/country
p18
aVhttp://dbpedia.org/property/regionalLanguages
p19
aVhttp://dbpedia.org/property/placeOfBirth
p20
aVhttp://purl.org/dc/terms/subject
p21
aVhttp://dbpedia.org/ontology/populationPlace
p22
aVhttp://dbpedia.org/ontology/residence
p23
aVhttp://dbpedia.org/property/deathPlace
p24
aVhttp://dbpedia.org/property/location
p25
aVhttp://dbpedia.org/ontology/deathPlace
p26
aVhttp://dbpedia.org/property/subdivisionName
p27
aVhttp://dbpedia.org/ontology/sourceCountry
p28
aVhttp://dbpedia.org/ontology/location
p29
aVhttp://dbpedia.org/property/languages
p30
aVhttp://dbpedia.org/property/basinCountries
p31
aVhttp://dbpedia.org/ontology/regionalLanguage
p32
aVhttp://dbpedia.org/ontology/birthPlace
p33
aVhttp://dbpedia.org/ontology/hometown
p34
aVhttp://dbpedia.org/property/locationCity
p35
aVhttp://dbpedia.org/ontology/spokenIn
p36
aVhttp://dbpedia.org/ontology/stateOfOrigin
p37
aVhttp://dbpedia.org/ontology/locationCity
p38
asI2
(lp39
ssI1
(dp40
I1
(lp41
Vhttp://www.w3.org/1999/02/22-rdf-syntax-ns#type
p42
aVhttp://purl.org/dc/terms/subject
p43
aVhttp://dbpedia.org/property/officialLanguages
p44
aVhttp://www.w3.org/2000/01/rdf-schema#comment
p45
aVhttp://dbpedia.org/ontology/abstract
p46
aVhttp://dbpedia.org/property/place
p47
aVhttp://dbpedia.org/property/location
p48
aVhttp://dbpedia.org/ontology/place
p49
aVhttp://dbpedia.org/ontology/spokenIn
p50
aVhttp://dbpedia.org/ontology/officialLanguage
p51
aVhttp://dbpedia.org/ontology/language
p52
aVhttp://dbpedia.org/ontology/populationPlace
p53
asI2
(lp54
ssI2
(dp55
I1
(lp56
Vhttp://www.w3.org/2000/01/rdf-schema#seeAlso
p57
aVhttp://dbpedia.org/ontology/country
p58
aVhttp://www.w3.org/1999/02/22-rdf-syntax-ns#type
p59
aVhttp://purl.org/dc/terms/subject
p60
aVhttp://dbpedia.org/property/officialLanguages
p61
aVhttp://dbpedia.org/property/origin
p62
aVhttp://dbpedia.org/ontology/nationality
p63
aVhttp://dbpedia.org/ontology/birthPlace
p64
aVhttp://dbpedia.org/property/locationCountry
p65
aVhttp://dbpedia.org/property/location
p66
aVhttp://dbpedia.org/ontology/hometown
p67
aVhttp://dbpedia.org/property/birthPlace
p68
aVhttp://dbpedia.org/property/placeOfBirth
p69
aVhttp://dbpedia.org/property/popplace
p70
aVhttp://dbpedia.org/property/country
p71
aVhttp://dbpedia.org/ontology/officialLanguage
p72
aVhttp://dbpedia.org/ontology/language
p73
aVhttp://dbpedia.org/ontology/populationPlace
p74
asI2
(lp75
ssI3
(dp76
I1
(lp77
Vhttp://dbpedia.org/ontology/abstract
p78
aVhttp://www.w3.org/2000/01/rdf-schema#comment
p79
asI2
(lp80
ssI4
(dp81
I1
(lp82
Vhttp://www.w3.org/2000/01/rdf-schema#seeAlso
p83
aVhttp://dbpedia.org/property/currency
p84
aVhttp://dbpedia.org/property/stadium
p85
aVhttp://dbpedia.org/property/conventionalLongName
p86
aVhttp://dbpedia.org/property/legislature
p87
aVhttp://dbpedia.org/property/sovereigntyType
p88
aVhttp://dbpedia.org/ontology/longName
p89
aVhttp://www.w3.org/ns/prov#wasDerivedFrom
p90
aVhttp://dbpedia.org/property/caption
p91
aVhttp://dbpedia.org/property/territory
p92
aVhttp://dbpedia.org/ontology/demonym
p93
aVhttp://dbpedia.org/property/hasPhotoCollection
p94
aVhttp://dbpedia.org/property/footer
p95
aVhttp://dbpedia.org/ontology/country
p96
aVhttp://dbpedia.org/property/region
p97
aVhttp://www.w3.org/2000/01/rdf-schema#label
p98
aVhttp://dbpedia.org/property/upperHouse
p99
aVhttp://dbpedia.org/property/image
p100
aVhttp://dbpedia.org/property/lowerHouse
p101
aVhttp://dbpedia.org/ontology/place
p102
aVhttp://xmlns.com/foaf/0.1/isPrimaryTopicOf
p103
aVhttp://dbpedia.org/ontology/currency
p104
aVhttp://dbpedia.org/property/imageFlag
p105
aVhttp://dbpedia.org/property/linkingName
p106
aVhttp://dbpedia.org/ontology/regionServed
p107
aVhttp://dbpedia.org/ontology/wikiPageDisambiguates
p108
aVhttp://dbpedia.org/property/establishedEvent
p109
aVhttp://dbpedia.org/ontology/wikiPageExternalLink
p110
aVhttp://xmlns.com/foaf/0.1/primaryTopic
p111
aVhttp://purl.org/dc/terms/subject
p112
aVhttp://dbpedia.org/ontology/populationPlace
p113
aVhttp://dbpedia.org/property/origin
p114
aVhttp://dbpedia.org/ontology/abstract
p115
aVhttp://xmlns.com/foaf/0.1/depiction
p116
aVhttp://dbpedia.org/property/location
p117
aVhttp://dbpedia.org/ontology/usingCountry
p118
aVhttp://dbpedia.org/property/states
p119
aVhttp://dbpedia.org/ontology/locationCountry
p120
aVhttp://dbpedia.org/ontology/thumbnail
p121
aVhttp://dbpedia.org/property/country
p122
aVhttp://dbpedia.org/property/regionServed
p123
aVhttp://dbpedia.org/ontology/flag
p124
aVhttp://dbpedia.org/property/commonName
p125
aVhttp://dbpedia.org/ontology/language
p126
aVhttp://dbpedia.org/property/title
p127
aVhttp://dbpedia.org/property/languages
p128
aVhttp://dbpedia.org/property/armiger
p129
aVhttp://dbpedia.org/property/imageMap
p130
aVhttp://dbpedia.org/ontology/location
p131
aVhttp://www.w3.org/2000/01/rdf-schema#comment
p132
aVhttp://dbpedia.org/property/countryName
p133
aVhttp://dbpedia.org/ontology/wikiPageRedirects
p134
aVhttp://dbpedia.org/property/remit
p135
aVhttp://dbpedia.org/ontology/hometown
p136
aVhttp://dbpedia.org/property/bankOf
p137
aVhttp://dbpedia.org/property/demonym
p138
aVhttp://dbpedia.org/property/areaServed
p139
aVhttp://dbpedia.org/property/headquarters
p140
aVhttp://dbpedia.org/property/imageCoat
p141
aVhttp://xmlns.com/foaf/0.1/name
p142
aVhttp://xmlns.com/foaf/0.1/homepage
p143
aVhttp://dbpedia.org/ontology/spokenIn
p144
aVhttp://dbpedia.org/property/leaderTitle
p145
aVhttp://dbpedia.org/property/locationCountry
p146
aVhttp://www.w3.org/2002/07/owl#sameAs
p147
aVhttp://dbpedia.org/ontology/headquarter
p148
asI2
(lp149
ssI5
(dp150
I1
(lp151
Vhttp://dbpedia.org/property/origin
p152
aVhttp://dbpedia.org/property/currency
p153
aVhttp://dbpedia.org/ontology/origin
p154
aVhttp://dbpedia.org/ontology/currency
p155
aVhttp://dbpedia.org/ontology/foundationPlace
p156
aVhttp://dbpedia.org/property/placeOfDeath
p157
aVhttp://dbpedia.org/property/caption
p158
aVhttp://dbpedia.org/property/imageMap2Caption
p159
aVhttp://dbpedia.org/ontology/demonym
p160
aVhttp://dbpedia.org/ontology/officialLanguage
p161
aVhttp://dbpedia.org/property/label
p162
aVhttp://dbpedia.org/ontology/country
p163
aVhttp://dbpedia.org/property/region
p164
aVhttp://www.w3.org/1999/02/22-rdf-syntax-ns#type
p165
aVhttp://dbpedia.org/property/locationCountry
p166
aVhttp://dbpedia.org/property/allegiance
p167
aVhttp://dbpedia.org/property/birthPlace
p168
aVhttp://dbpedia.org/property/headquarters
p169
aVhttp://dbpedia.org/property/placeOfBirth
p170
aVhttp://dbpedia.org/property/country
p171
aVhttp://dbpedia.org/property/imageMapCaption
p172
aVhttp://dbpedia.org/property/establishedEvent
p173
aVhttp://dbpedia.org/ontology/wikiPageExternalLink
p174
aVhttp://purl.org/dc/terms/subject
p175
aVhttp://dbpedia.org/ontology/abstract
p176
aVhttp://dbpedia.org/property/deathPlace
p177
aVhttp://dbpedia.org/ontology/usingCountry
p178
aVhttp://dbpedia.org/property/location
p179
aVhttp://dbpedia.org/ontology/locationCountry
p180
aVhttp://dbpedia.org/ontology/headquarter
p181
aVhttp://dbpedia.org/property/foundation
p182
aVhttp://dbpedia.org/property/shipNamesake
p183
aVhttp://dbpedia.org/ontology/language
p184
aVhttp://dbpedia.org/ontology/location
p185
aVhttp://dbpedia.org/property/officialLanguages
p186
aVhttp://www.w3.org/2000/01/rdf-schema#comment
p187
aVhttp://dbpedia.org/ontology/birthPlace
p188
aVhttp://dbpedia.org/ontology/wikiPageRedirects
p189
aVhttp://dbpedia.org/ontology/hometown
p190
aVhttp://dbpedia.org/ontology/spokenIn
p191
aVhttp://dbpedia.org/property/jurisdiction
p192
aVhttp://dbpedia.org/ontology/deathPlace
p193
asI2
(lp194
ssI6
(dp195
I1
(lp196
Vhttp://www.w3.org/2000/01/rdf-schema#seeAlso
p197
aVhttp://dbpedia.org/ontology/ideology
p198
aVhttp://dbpedia.org/ontology/origin
p199
aVhttp://dbpedia.org/property/place
p200
aVhttp://dbpedia.org/ontology/jurisdiction
p201
aVhttp://dbpedia.org/property/territory
p202
aVhttp://dbpedia.org/ontology/demonym
p203
aVhttp://dbpedia.org/ontology/officialLanguage
p204
aVhttp://dbpedia.org/property/religion
p205
aVhttp://dbpedia.org/property/reason
p206
aVhttp://dbpedia.org/property/region
p207
aVhttp://dbpedia.org/property/empire
p208
aVhttp://dbpedia.org/property/site
p209
aVhttp://dbpedia.org/property/birthPlace
p210
aVhttp://dbpedia.org/property/headquarters
p211
aVhttp://dbpedia.org/ontology/place
p212
aVhttp://dbpedia.org/property/placeOfBirth
p213
aVhttp://dbpedia.org/property/counties
p214
aVhttp://dbpedia.org/property/country
p215
aVhttp://dbpedia.org/property/establishedEvent
p216
aVhttp://dbpedia.org/ontology/county
p217
aVhttp://dbpedia.org/property/locale
p218
aVhttp://purl.org/dc/terms/subject
p219
aVhttp://dbpedia.org/ontology/populationPlace
p220
aVhttp://dbpedia.org/property/origin
p221
aVhttp://dbpedia.org/ontology/country
p222
aVhttp://dbpedia.org/property/ideology
p223
aVhttp://dbpedia.org/ontology/abstract
p224
aVhttp://dbpedia.org/property/location
p225
aVhttp://dbpedia.org/ontology/usingCountry
p226
aVhttp://dbpedia.org/property/states
p227
aVhttp://dbpedia.org/ontology/locationCountry
p228
aVhttp://dbpedia.org/ontology/headquarter
p229
aVhttp://dbpedia.org/ontology/similar
p230
aVhttp://dbpedia.org/ontology/language
p231
aVhttp://dbpedia.org/property/officialLanguages
p232
aVhttp://dbpedia.org/ontology/homeport
p233
aVhttp://dbpedia.org/property/jurisdiction
p234
aVhttp://dbpedia.org/ontology/location
p235
aVhttp://www.w3.org/2000/01/rdf-schema#comment
p236
aVhttp://dbpedia.org/ontology/birthPlace
p237
aVhttp://dbpedia.org/ontology/builder
p238
aVhttp://dbpedia.org/ontology/hometown
p239
aVhttp://dbpedia.org/ontology/garrison
p240
aVhttp://dbpedia.org/property/areaServed
p241
aVhttp://dbpedia.org/ontology/spokenIn
p242
aVhttp://dbpedia.org/property/garrison
p243
aVhttp://dbpedia.org/property/locationCountry
p244
aVhttp://dbpedia.org/property/observedby
p245
asI2
(lp246
ssI7
(dp247
I1
(lp248
Vhttp://dbpedia.org/ontology/abstract
p249
aVhttp://purl.org/dc/terms/subject
p250
aVhttp://www.w3.org/2000/01/rdf-schema#comment
p251
asI2
(lp252
ssI8
(dp253
I1
(lp254
Vhttp://dbpedia.org/property/origin
p255
aVhttp://dbpedia.org/property/placeOfDeath
p256
aVhttp://dbpedia.org/property/broadcastArea
p257
aVhttp://dbpedia.org/property/sovereigntyType
p258
aVhttp://www.w3.org/ns/prov#wasDerivedFrom
p259
aVhttp://dbpedia.org/ontology/fastestDriverCountry
p260
aVhttp://dbpedia.org/ontology/demonym
p261
aVhttp://dbpedia.org/ontology/regionServed
p262
aVhttp://dbpedia.org/ontology/nationality
p263
aVhttp://xmlns.com/foaf/0.1/isPrimaryTopicOf
p264
aVhttp://dbpedia.org/property/byCountry
p265
aVhttp://dbpedia.org/property/nat
p266
aVhttp://dbpedia.org/property/nationality
p267
aVhttp://dbpedia.org/ontology/abstract
p268
aVhttp://dbpedia.org/ontology/recordedIn
p269
aVhttp://dbpedia.org/ontology/architecturalStyle
p270
aVhttp://dbpedia.org/ontology/location
p271
aVhttp://dbpedia.org/property/imageMap
p272
aVhttp://dbpedia.org/property/officialLanguages
p273
aVhttp://dbpedia.org/property/area
p274
aVhttp://dbpedia.org/ontology/hometown
p275
aVhttp://dbpedia.org/ontology/spokenIn
p276
aVhttp://dbpedia.org/property/leaderTitle
p277
aVhttp://www.w3.org/2000/01/rdf-schema#seeAlso
p278
aVhttp://dbpedia.org/ontology/wikiPageExternalLink
p279
aVhttp://dbpedia.org/property/hostCity
p280
aVhttp://dbpedia.org/property/conventionalLongName
p281
aVhttp://dbpedia.org/ontology/foundationPlace
p282
aVhttp://dbpedia.org/ontology/poleDriverCountry
p283
aVhttp://dbpedia.org/ontology/locatedInArea
p284
aVhttp://dbpedia.org/ontology/officialLanguage
p285
aVhttp://dbpedia.org/ontology/country
p286
aVhttp://dbpedia.org/property/birthPlace
p287
aVhttp://dbpedia.org/property/country/region
p288
aVhttp://dbpedia.org/property/country
p289
aVhttp://dbpedia.org/ontology/county
p290
aVhttp://xmlns.com/foaf/0.1/primaryTopic
p291
aVhttp://dbpedia.org/ontology/campus
p292
aVhttp://dbpedia.org/ontology/firstDriverCountry
p293
aVhttp://dbpedia.org/property/states
p294
aVhttp://dbpedia.org/ontology/locationCountry
p295
aVhttp://dbpedia.org/ontology/deathPlace
p296
aVhttp://dbpedia.org/property/hasPhotoCollection
p297
aVhttp://dbpedia.org/property/headquarters
p298
aVhttp://dbpedia.org/ontology/birthPlace
p299
aVhttp://dbpedia.org/ontology/wikiPageRedirects
p300
aVhttp://dbpedia.org/property/citizenship
p301
aVhttp://dbpedia.org/property/imageCoat
p302
aVhttp://dbpedia.org/ontology/stateOfOrigin
p303
aVhttp://www.w3.org/2002/07/owl#sameAs
p304
aVhttp://dbpedia.org/property/recorded
p305
aVhttp://dbpedia.org/property/winnerOrigin
p306
aVhttp://dbpedia.org/ontology/longName
p307
aVhttp://www.w3.org/1999/02/22-rdf-syntax-ns#type
p308
aVhttp://dbpedia.org/property/locationCountry
p309
aVhttp://dbpedia.org/ontology/secondDriverCountry
p310
aVhttp://dbpedia.org/property/locationSigned
p311
aVhttp://dbpedia.org/property/namedAfter
p312
aVhttp://dbpedia.org/property/title
p313
aVhttp://dbpedia.org/property/placeOfBirth
p314
aVhttp://xmlns.com/foaf/0.1/depiction
p315
aVhttp://dbpedia.org/property/observedby
p316
aVhttp://dbpedia.org/ontology/flag
p317
aVhttp://dbpedia.org/property/commonName
p318
aVhttp://dbpedia.org/property/subdivisionName
p319
aVhttp://dbpedia.org/property/shipCountry
p320
aVhttp://dbpedia.org/property/locationCity
p321
aVhttp://dbpedia.org/property/establishedEvent
p322
aVhttp://dbpedia.org/property/stadium
p323
aVhttp://dbpedia.org/property/place
p324
aVhttp://dbpedia.org/property/footnoteA
p325
aVhttp://dbpedia.org/property/caption
p326
aVhttp://dbpedia.org/ontology/thirdDriverCountry
p327
aVhttp://www.w3.org/2002/07/owl#differentFrom
p328
aVhttp://dbpedia.org/property/upperHouse
p329
aVhttp://dbpedia.org/property/locations
p330
aVhttp://dbpedia.org/ontology/place
p331
aVhttp://dbpedia.org/property/language
p332
aVhttp://dbpedia.org/property/demonym
p333
aVhttp://dbpedia.org/ontology/wikiPageDisambiguates
p334
aVhttp://purl.org/dc/terms/subject
p335
aVhttp://dbpedia.org/ontology/populationPlace
p336
aVhttp://dbpedia.org/property/location
p337
aVhttp://dbpedia.org/property/armiger
p338
aVhttp://dbpedia.org/ontology/headquarter
p339
aVhttp://dbpedia.org/property/foundation
p340
aVhttp://www.w3.org/2000/01/rdf-schema#label
p341
aVhttp://dbpedia.org/ontology/language
p342
aVhttp://dbpedia.org/ontology/broadcastArea
p343
aVhttp://dbpedia.org/property/basinCountries
p344
aVhttp://www.w3.org/2000/01/rdf-schema#comment
p345
aVhttp://dbpedia.org/property/seat
p346
aVhttp://dbpedia.org/property/imageFlag
p347
aVhttp://dbpedia.org/property/regionServed
p348
aVhttp://xmlns.com/foaf/0.1/name
p349
aVhttp://dbpedia.org/ontology/locationCity
p350
aVhttp://dbpedia.org/property/buried
p351
aVhttp://dbpedia.org/ontology/thumbnail
p352
asI2
(lp353
ssI9
(dp354
I1
(lp355
Vhttp://www.w3.org/2000/01/rdf-schema#seeAlso
p356
aVhttp://dbpedia.org/property/origin
p357
aVhttp://dbpedia.org/property/recorded
p358
aVhttp://dbpedia.org/property/broadcastArea
p359
aVhttp://dbpedia.org/ontology/origin
p360
aVhttp://dbpedia.org/property/conventionalLongName
p361
aVhttp://dbpedia.org/property/bases
p362
aVhttp://dbpedia.org/property/place
p363
aVhttp://dbpedia.org/ontology/foundationPlace
p364
aVhttp://dbpedia.org/property/city
p365
aVhttp://dbpedia.org/ontology/garrison
p366
aVhttp://dbpedia.org/ontology/longName
p367
aVhttp://dbpedia.org/property/legislature
p368
aVhttp://dbpedia.org/ontology/fastestDriverCountry
p369
aVhttp://dbpedia.org/property/footnoteB
p370
aVhttp://www.w3.org/2002/07/owl#differentFrom
p371
aVhttp://dbpedia.org/ontology/officialLanguage
p372
aVhttp://dbpedia.org/ontology/regionServed
p373
aVhttp://dbpedia.org/ontology/country
p374
aVhttp://www.w3.org/1999/02/22-rdf-syntax-ns#type
p375
aVhttp://dbpedia.org/ontology/demonym
p376
aVhttp://dbpedia.org/property/locationCountry
p377
aVhttp://dbpedia.org/ontology/secondDriverCountry
p378
aVhttp://dbpedia.org/property/allegiance
p379
aVhttp://dbpedia.org/property/combatant
p380
aVhttp://dbpedia.org/property/site
p381
aVhttp://dbpedia.org/property/birthPlace
p382
aVhttp://dbpedia.org/property/country/region
p383
aVhttp://dbpedia.org/ontology/place
p384
aVhttp://dbpedia.org/property/placeOfBirth
p385
aVhttp://dbpedia.org/property/regionServed
p386
aVhttp://dbpedia.org/property/country
p387
aVhttp://dbpedia.org/property/shipCountry
p388
aVhttp://dbpedia.org/property/establishedEvent
p389
aVhttp://dbpedia.org/ontology/targetAirport
p390
aVhttp://purl.org/dc/terms/subject
p391
aVhttp://dbpedia.org/ontology/populationPlace
p392
aVhttp://dbpedia.org/ontology/abstract
p393
aVhttp://dbpedia.org/ontology/recordedIn
p394
aVhttp://dbpedia.org/ontology/firstDriverCountry
p395
aVhttp://dbpedia.org/property/location
p396
aVhttp://dbpedia.org/ontology/usingCountry
p397
aVhttp://dbpedia.org/property/states
p398
aVhttp://dbpedia.org/ontology/locationCountry
p399
aVhttp://dbpedia.org/ontology/headquarter
p400
aVhttp://dbpedia.org/ontology/city
p401
aVhttp://dbpedia.org/property/shipNamesake
p402
aVhttp://dbpedia.org/ontology/language
p403
aVhttp://dbpedia.org/ontology/location
p404
aVhttp://dbpedia.org/property/basinCountries
p405
aVhttp://dbpedia.org/property/jurisdiction
p406
aVhttp://dbpedia.org/property/officialLanguages
p407
aVhttp://www.w3.org/2000/01/rdf-schema#comment
p408
aVhttp://dbpedia.org/ontology/birthPlace
p409
aVhttp://dbpedia.org/ontology/wikiPageRedirects
p410
aVhttp://dbpedia.org/ontology/poleDriverCountry
p411
aVhttp://dbpedia.org/property/area
p412
aVhttp://dbpedia.org/property/remit
p413
aVhttp://dbpedia.org/ontology/hometown
p414
aVhttp://dbpedia.org/ontology/jurisdiction
p415
aVhttp://dbpedia.org/property/demonym
p416
aVhttp://dbpedia.org/property/areaServed
p417
aVhttp://dbpedia.org/property/headquarters
p418
aVhttp://dbpedia.org/ontology/spokenIn
p419
aVhttp://dbpedia.org/property/garrison
p420
aVhttp://dbpedia.org/ontology/thirdDriverCountry
p421
aVhttp://dbpedia.org/property/stadium
p422
aVhttp://dbpedia.org/property/observedby
p423
asI2
(lp424
ssI10
(dp425
I1
(lp426
Vhttp://www.w3.org/2000/01/rdf-schema#seeAlso
p427
aVhttp://dbpedia.org/property/origin
p428
aVhttp://dbpedia.org/ontology/origin
p429
aVhttp://dbpedia.org/ontology/currency
p430
aVhttp://dbpedia.org/property/residence
p431
aVhttp://dbpedia.org/ontology/garrison
p432
aVhttp://dbpedia.org/ontology/thirdDriverCountry
p433
aVhttp://www.w3.org/2002/07/owl#differentFrom
p434
aVhttp://dbpedia.org/ontology/regionServed
p435
aVhttp://dbpedia.org/ontology/country
p436
aVhttp://dbpedia.org/property/region
p437
aVhttp://dbpedia.org/ontology/demonym
p438
aVhttp://dbpedia.org/property/locations
p439
aVhttp://dbpedia.org/property/birthPlace
p440
aVhttp://dbpedia.org/property/headquarters
p441
aVhttp://dbpedia.org/ontology/ethnicGroup
p442
aVhttp://dbpedia.org/property/country
p443
aVhttp://dbpedia.org/property/shipCountry
p444
aVhttp://dbpedia.org/property/placeOfBirth
p445
aVhttp://dbpedia.org/ontology/populationPlace
p446
aVhttp://dbpedia.org/ontology/abstract
p447
aVhttp://dbpedia.org/property/location
p448
aVhttp://dbpedia.org/ontology/usingCountry
p449
aVhttp://dbpedia.org/property/states
p450
aVhttp://dbpedia.org/ontology/builder
p451
aVhttp://dbpedia.org/ontology/headquarter
p452
aVhttp://dbpedia.org/ontology/language
p453
aVhttp://dbpedia.org/ontology/location
p454
aVhttp://dbpedia.org/property/languages
p455
aVhttp://dbpedia.org/ontology/territory
p456
aVhttp://dbpedia.org/property/shipBuilder
p457
aVhttp://dbpedia.org/ontology/regionalLanguage
p458
aVhttp://www.w3.org/2000/01/rdf-schema#comment
p459
aVhttp://dbpedia.org/ontology/birthPlace
p460
aVhttp://dbpedia.org/property/countries
p461
aVhttp://dbpedia.org/ontology/wikiPageRedirects
p462
aVhttp://dbpedia.org/property/related
p463
aVhttp://dbpedia.org/ontology/hometown
p464
aVhttp://dbpedia.org/property/demonym
p465
aVhttp://dbpedia.org/ontology/spokenIn
p466
aVhttp://dbpedia.org/property/garrison
p467
asI2
(lp468
ssI11
(dp469
I1
(lp470
Vhttp://www.w3.org/2000/01/rdf-schema#seeAlso
p471
aVhttp://dbpedia.org/property/currency
p472
aVhttp://dbpedia.org/property/region
p473
aVhttp://www.w3.org/2000/01/rdf-schema#comment
p474
aVhttp://dbpedia.org/ontology/currency
p475
aVhttp://dbpedia.org/ontology/abstract
p476
aVhttp://dbpedia.org/property/languages
p477
aVhttp://dbpedia.org/ontology/wikiPageRedirects
p478
aVhttp://dbpedia.org/property/location
p479
aVhttp://dbpedia.org/property/destination
p480
aVhttp://dbpedia.org/ontology/deathPlace
p481
aVhttp://xmlns.com/foaf/0.1/name
p482
aVhttp://dbpedia.org/property/country
p483
aVhttp://dbpedia.org/ontology/language
p484
asI2
(lp485
ssI13
(dp486
I1
(lp487
Vhttp://www.w3.org/2000/01/rdf-schema#seeAlso
p488
aVhttp://dbpedia.org/property/origin
p489
aVhttp://dbpedia.org/ontology/origin
p490
aVhttp://dbpedia.org/property/place
p491
aVhttp://dbpedia.org/property/usedBy
p492
aVhttp://dbpedia.org/property/adminCenter
p493
aVhttp://dbpedia.org/property/footnoteC
p494
aVhttp://www.w3.org/2002/07/owl#differentFrom
p495
aVhttp://dbpedia.org/property/footnoteD
p496
aVhttp://dbpedia.org/ontology/country
p497
aVhttp://dbpedia.org/property/region
p498
aVhttp://www.w3.org/1999/02/22-rdf-syntax-ns#type
p499
aVhttp://dbpedia.org/ontology/demonym
p500
aVhttp://dbpedia.org/ontology/officialLanguage
p501
aVhttp://dbpedia.org/ontology/nationality
p502
aVhttp://dbpedia.org/property/birthPlace
p503
aVhttp://dbpedia.org/property/country/region
p504
aVhttp://dbpedia.org/ontology/place
p505
aVhttp://dbpedia.org/ontology/ethnicGroup
p506
aVhttp://dbpedia.org/property/locationSigned
p507
aVhttp://dbpedia.org/property/depositor
p508
aVhttp://dbpedia.org/property/country
p509
aVhttp://dbpedia.org/property/regionalLanguages
p510
aVhttp://purl.org/dc/terms/subject
p511
aVhttp://dbpedia.org/ontology/populationPlace
p512
aVhttp://dbpedia.org/property/ideology
p513
aVhttp://dbpedia.org/ontology/abstract
p514
aVhttp://dbpedia.org/ontology/recordedIn
p515
aVhttp://dbpedia.org/property/venue
p516
aVhttp://dbpedia.org/property/location
p517
aVhttp://dbpedia.org/property/states
p518
aVhttp://dbpedia.org/ontology/headquarter
p519
aVhttp://dbpedia.org/property/officialLanguages
p520
aVhttp://dbpedia.org/ontology/language
p521
aVhttp://dbpedia.org/ontology/location
p522
aVhttp://dbpedia.org/ontology/regionalLanguage
p523
aVhttp://www.w3.org/2000/01/rdf-schema#comment
p524
aVhttp://dbpedia.org/ontology/birthPlace
p525
aVhttp://dbpedia.org/ontology/wikiPageRedirects
p526
aVhttp://dbpedia.org/ontology/hometown
p527
aVhttp://dbpedia.org/property/demonym
p528
aVhttp://dbpedia.org/property/headquarters
p529
aVhttp://dbpedia.org/ontology/spokenIn
p530
aVhttp://dbpedia.org/ontology/stateOfOrigin
p531
aVhttp://dbpedia.org/property/stadium
p532
asI2
(lp533
ssI14
(dp534
I1
(lp535
Vhttp://www.w3.org/2000/01/rdf-schema#seeAlso
p536
aVhttp://dbpedia.org/property/origin
p537
aVhttp://dbpedia.org/property/awardedBy
p538
aVhttp://dbpedia.org/property/place
p539
aVhttp://dbpedia.org/property/northwest
p540
aVhttp://dbpedia.org/property/placeOfDeath
p541
aVhttp://dbpedia.org/ontology/regionServed
p542
aVhttp://dbpedia.org/ontology/country
p543
aVhttp://dbpedia.org/property/region
p544
aVhttp://dbpedia.org/property/locationCountry
p545
aVhttp://dbpedia.org/property/allegiance
p546
aVhttp://dbpedia.org/property/combatant
p547
aVhttp://dbpedia.org/ontology/place
p548
aVhttp://dbpedia.org/property/placeOfBirth
p549
aVhttp://dbpedia.org/property/office
p550
aVhttp://dbpedia.org/property/owner
p551
aVhttp://dbpedia.org/property/country
p552
aVhttp://dbpedia.org/property/areaServed
p553
aVhttp://dbpedia.org/ontology/abstract
p554
aVhttp://dbpedia.org/property/regionServed
p555
aVhttp://dbpedia.org/property/location
p556
aVhttp://dbpedia.org/ontology/usingCountry
p557
aVhttp://dbpedia.org/property/states
p558
aVhttp://dbpedia.org/ontology/locationCountry
p559
aVhttp://dbpedia.org/ontology/deathPlace
p560
aVhttp://dbpedia.org/property/observedby
p561
aVhttp://dbpedia.org/property/foundation
p562
aVhttp://dbpedia.org/ontology/foundationPlace
p563
aVhttp://dbpedia.org/property/headquarters
p564
aVhttp://dbpedia.org/property/basinCountries
p565
aVhttp://dbpedia.org/ontology/location
p566
aVhttp://www.w3.org/2000/01/rdf-schema#comment
p567
aVhttp://dbpedia.org/ontology/birthPlace
p568
aVhttp://dbpedia.org/ontology/wikiPageRedirects
p569
aVhttp://dbpedia.org/ontology/hometown
p570
aVhttp://dbpedia.org/ontology/spokenIn
p571
aVhttp://dbpedia.org/ontology/headquarter
p572
asI2
(lp573
ssI15
(dp574
I1
(lp575
Vhttp://www.w3.org/2000/01/rdf-schema#seeAlso
p576
aVhttp://dbpedia.org/property/origin
p577
aVhttp://dbpedia.org/ontology/type
p578
aVhttp://dbpedia.org/ontology/currency
p579
aVhttp://dbpedia.org/property/place
p580
aVhttp://dbpedia.org/property/city
p581
aVhttp://dbpedia.org/ontology/garrison
p582
aVhttp://dbpedia.org/property/territory
p583
aVhttp://dbpedia.org/ontology/demonym
p584
aVhttp://dbpedia.org/ontology/regionServed
p585
aVhttp://dbpedia.org/ontology/country
p586
aVhttp://dbpedia.org/property/locationCountry
p587
aVhttp://dbpedia.org/ontology/place
p588
aVhttp://dbpedia.org/property/locationSigned
p589
aVhttp://dbpedia.org/property/owner
p590
aVhttp://dbpedia.org/property/country
p591
aVhttp://dbpedia.org/property/establishedEvent
p592
aVhttp://dbpedia.org/ontology/populationPlace
p593
aVhttp://dbpedia.org/ontology/abstract
p594
aVhttp://dbpedia.org/property/regionServed
p595
aVhttp://dbpedia.org/property/location
p596
aVhttp://dbpedia.org/ontology/usingCountry
p597
aVhttp://dbpedia.org/ontology/locationCountry
p598
aVhttp://dbpedia.org/ontology/headquarter
p599
aVhttp://dbpedia.org/ontology/language
p600
aVhttp://dbpedia.org/property/headquarters
p601
aVhttp://dbpedia.org/property/languages
p602
aVhttp://dbpedia.org/ontology/location
p603
aVhttp://www.w3.org/2000/01/rdf-schema#comment
p604
aVhttp://dbpedia.org/ontology/wikiPageRedirects
p605
aVhttp://dbpedia.org/property/area
p606
aVhttp://dbpedia.org/ontology/hometown
p607
aVhttp://dbpedia.org/property/demonym
p608
aVhttp://dbpedia.org/property/areaServed
p609
aVhttp://dbpedia.org/ontology/spokenIn
p610
aVhttp://dbpedia.org/property/foundingLocation
p611
asI2
(lp612
ssI16
(dp613
I1
(lp614
Vhttp://www.w3.org/2000/01/rdf-schema#seeAlso
p615
aVhttp://dbpedia.org/property/origin
p616
aVhttp://dbpedia.org/ontology/origin
p617
aVhttp://dbpedia.org/property/conventionalLongName
p618
aVhttp://dbpedia.org/ontology/garrison
p619
aVhttp://dbpedia.org/ontology/longName
p620
aVhttp://dbpedia.org/property/footnoteA
p621
aVhttp://dbpedia.org/ontology/demonym
p622
aVhttp://dbpedia.org/ontology/officialLanguage
p623
aVhttp://dbpedia.org/ontology/country
p624
aVhttp://dbpedia.org/property/region
p625
aVhttp://www.w3.org/1999/02/22-rdf-syntax-ns#type
p626
aVhttp://dbpedia.org/property/birthPlace
p627
aVhttp://dbpedia.org/property/headquarters
p628
aVhttp://dbpedia.org/ontology/place
p629
aVhttp://dbpedia.org/ontology/ethnicGroup
p630
aVhttp://dbpedia.org/property/country
p631
aVhttp://dbpedia.org/property/shipCountry
p632
aVhttp://dbpedia.org/property/establishedEvent
p633
aVhttp://dbpedia.org/property/placeOfBirth
p634
aVhttp://dbpedia.org/ontology/wikiPageExternalLink
p635
aVhttp://purl.org/dc/terms/subject
p636
aVhttp://dbpedia.org/ontology/abstract
p637
aVhttp://dbpedia.org/property/regionServed
p638
aVhttp://dbpedia.org/property/location
p639
aVhttp://dbpedia.org/ontology/usingCountry
p640
aVhttp://dbpedia.org/property/states
p641
aVhttp://dbpedia.org/ontology/headquarter
p642
aVhttp://dbpedia.org/property/builder
p643
aVhttp://dbpedia.org/ontology/language
p644
aVhttp://dbpedia.org/ontology/location
p645
aVhttp://dbpedia.org/property/jurisdiction
p646
aVhttp://dbpedia.org/property/officialLanguages
p647
aVhttp://www.w3.org/2000/01/rdf-schema#comment
p648
aVhttp://dbpedia.org/ontology/birthPlace
p649
aVhttp://dbpedia.org/ontology/wikiPageRedirects
p650
aVhttp://dbpedia.org/ontology/hometown
p651
aVhttp://dbpedia.org/property/demonym
p652
aVhttp://dbpedia.org/ontology/spokenIn
p653
aVhttp://dbpedia.org/property/garrison
p654
asI2
(lp655
ssI17
(dp656
I1
(lp657
Vhttp://www.w3.org/2000/01/rdf-schema#seeAlso
p658
aVhttp://dbpedia.org/property/currency
p659
aVhttp://dbpedia.org/property/broadcastArea
p660
aVhttp://dbpedia.org/ontology/origin
p661
aVhttp://dbpedia.org/property/conventionalLongName
p662
aVhttp://dbpedia.org/property/place
p663
aVhttp://dbpedia.org/ontology/wikiPageRedirects
p664
aVhttp://dbpedia.org/property/city
p665
aVhttp://dbpedia.org/ontology/isPartOfMilitaryConflict
p666
aVhttp://dbpedia.org/property/placeOfDeath
p667
aVhttp://dbpedia.org/ontology/longName
p668
aVhttp://dbpedia.org/property/caption
p669
aVhttp://dbpedia.org/property/territory
p670
aVhttp://www.w3.org/2002/07/owl#differentFrom
p671
aVhttp://dbpedia.org/ontology/officialLanguage
p672
aVhttp://dbpedia.org/property/possessions
p673
aVhttp://dbpedia.org/ontology/regionServed
p674
aVhttp://dbpedia.org/ontology/country
p675
aVhttp://dbpedia.org/property/region
p676
aVhttp://www.w3.org/1999/02/22-rdf-syntax-ns#type
p677
aVhttp://dbpedia.org/ontology/demonym
p678
aVhttp://dbpedia.org/property/locationCountry
p679
aVhttp://dbpedia.org/property/birthPlace
p680
aVhttp://dbpedia.org/property/image
p681
aVhttp://dbpedia.org/property/headquarters
p682
aVhttp://dbpedia.org/ontology/place
p683
aVhttp://dbpedia.org/ontology/ethnicGroup
p684
aVhttp://dbpedia.org/ontology/currency
p685
aVhttp://dbpedia.org/property/country
p686
aVhttp://dbpedia.org/property/shipCountry
p687
aVhttp://dbpedia.org/property/establishedEvent
p688
aVhttp://dbpedia.org/property/placeOfBirth
p689
aVhttp://dbpedia.org/ontology/wikiPageExternalLink
p690
aVhttp://purl.org/dc/terms/subject
p691
aVhttp://dbpedia.org/property/origin
p692
aVhttp://dbpedia.org/ontology/abstract
p693
aVhttp://dbpedia.org/ontology/spokenIn
p694
aVhttp://dbpedia.org/property/deathPlace
p695
aVhttp://dbpedia.org/property/location
p696
aVhttp://dbpedia.org/ontology/builder
p697
aVhttp://dbpedia.org/ontology/ideology
p698
aVhttp://dbpedia.org/ontology/headquarter
p699
aVhttp://dbpedia.org/property/headquarter
p700
aVhttp://dbpedia.org/property/foundingLocation
p701
aVhttp://dbpedia.org/property/usedBy
p702
aVhttp://dbpedia.org/property/shipNamesake
p703
aVhttp://dbpedia.org/property/controlledby
p704
aVhttp://dbpedia.org/ontology/language
p705
aVhttp://dbpedia.org/ontology/location
p706
aVhttp://dbpedia.org/property/locale
p707
aVhttp://dbpedia.org/property/imageMap
p708
aVhttp://dbpedia.org/property/shipBuilder
p709
aVhttp://dbpedia.org/property/officialLanguages
p710
aVhttp://www.w3.org/2000/01/rdf-schema#comment
p711
aVhttp://dbpedia.org/ontology/birthPlace
p712
aVhttp://dbpedia.org/property/address
p713
aVhttp://dbpedia.org/ontology/locationCountry
p714
aVhttp://dbpedia.org/property/remit
p715
aVhttp://dbpedia.org/ontology/hometown
p716
aVhttp://dbpedia.org/property/demonym
p717
aVhttp://dbpedia.org/property/areaServed
p718
aVhttp://dbpedia.org/property/imageCoat
p719
aVhttp://dbpedia.org/property/regionServed
p720
aVhttp://dbpedia.org/property/builders
p721
aVhttp://dbpedia.org/property/stadium
p722
aVhttp://dbpedia.org/ontology/deathPlace
p723
asI2
(lp724
ssI18
(dp725
I1
(lp726
Vhttp://www.w3.org/2000/01/rdf-schema#seeAlso
p727
aVhttp://dbpedia.org/property/origin
p728
aVhttp://dbpedia.org/ontology/wikiPageRedirects
p729
aVhttp://dbpedia.org/ontology/poleDriverCountry
p730
aVhttp://dbpedia.org/ontology/demonym
p731
aVhttp://dbpedia.org/ontology/country
p732
aVhttp://www.w3.org/1999/02/22-rdf-syntax-ns#type
p733
aVhttp://dbpedia.org/property/locationCountry
p734
aVhttp://dbpedia.org/ontology/secondDriverCountry
p735
aVhttp://dbpedia.org/property/allegiance
p736
aVhttp://dbpedia.org/property/locationCity
p737
aVhttp://dbpedia.org/property/birthPlace
p738
aVhttp://dbpedia.org/ontology/place
p739
aVhttp://dbpedia.org/ontology/ethnicGroup
p740
aVhttp://dbpedia.org/property/office
p741
aVhttp://dbpedia.org/property/country
p742
aVhttp://dbpedia.org/property/shipCountry
p743
aVhttp://dbpedia.org/property/areaServed
p744
aVhttp://dbpedia.org/property/placeOfBirth
p745
aVhttp://dbpedia.org/ontology/ideology
p746
aVhttp://purl.org/dc/terms/subject
p747
aVhttp://dbpedia.org/property/ideology
p748
aVhttp://dbpedia.org/ontology/abstract
p749
aVhttp://dbpedia.org/ontology/firstDriverCountry
p750
aVhttp://dbpedia.org/property/location
p751
aVhttp://dbpedia.org/property/states
p752
aVhttp://dbpedia.org/ontology/locationCountry
p753
aVhttp://dbpedia.org/ontology/headquarter
p754
aVhttp://dbpedia.org/ontology/language
p755
aVhttp://dbpedia.org/property/headquarters
p756
aVhttp://dbpedia.org/property/languages
p757
aVhttp://dbpedia.org/ontology/territory
p758
aVhttp://dbpedia.org/property/shipBuilder
p759
aVhttp://dbpedia.org/ontology/location
p760
aVhttp://www.w3.org/2000/01/rdf-schema#comment
p761
aVhttp://dbpedia.org/ontology/birthPlace
p762
aVhttp://dbpedia.org/ontology/builder
p763
aVhttp://dbpedia.org/ontology/hometown
p764
aVhttp://dbpedia.org/ontology/garrison
p765
aVhttp://dbpedia.org/property/demonym
p766
aVhttp://dbpedia.org/ontology/spokenIn
p767
aVhttp://dbpedia.org/property/jurisdiction
p768
aVhttp://dbpedia.org/property/garrison
p769
aVhttp://dbpedia.org/ontology/locationCity
p770
aVhttp://dbpedia.org/ontology/deathPlace
p771
asI2
(lp772
ssI19
(dp773
I1
(lp774
Vhttp://www.w3.org/2000/01/rdf-schema#seeAlso
p775
aVhttp://dbpedia.org/property/currency
p776
aVhttp://dbpedia.org/ontology/currency
p777
aVhttp://dbpedia.org/property/place
p778
aVhttp://dbpedia.org/ontology/foundationPlace
p779
aVhttp://dbpedia.org/property/territorialExtent
p780
aVhttp://dbpedia.org/ontology/poleDriverCountry
p781
aVhttp://dbpedia.org/property/foundation
p782
aVhttp://dbpedia.org/ontology/thirdDriverCountry
p783
aVhttp://dbpedia.org/ontology/demonym
p784
aVhttp://dbpedia.org/ontology/officialLanguage
p785
aVhttp://dbpedia.org/ontology/regionServed
p786
aVhttp://dbpedia.org/ontology/country
p787
aVhttp://dbpedia.org/property/locationCountry
p788
aVhttp://dbpedia.org/ontology/secondDriverCountry
p789
aVhttp://dbpedia.org/property/allegiance
p790
aVhttp://dbpedia.org/property/site
p791
aVhttp://dbpedia.org/ontology/nationality
p792
aVhttp://dbpedia.org/property/birthPlace
p793
aVhttp://dbpedia.org/property/headquarters
p794
aVhttp://dbpedia.org/ontology/place
p795
aVhttp://dbpedia.org/property/nationalOrigin
p796
aVhttp://dbpedia.org/property/office
p797
aVhttp://dbpedia.org/property/country
p798
aVhttp://dbpedia.org/property/areaServed
p799
aVhttp://dbpedia.org/property/placeOfBirth
p800
aVhttp://purl.org/dc/terms/subject
p801
aVhttp://dbpedia.org/ontology/populationPlace
p802
aVhttp://dbpedia.org/property/origin
p803
aVhttp://dbpedia.org/ontology/abstract
p804
aVhttp://dbpedia.org/property/regionServed
p805
aVhttp://dbpedia.org/property/location
p806
aVhttp://dbpedia.org/property/states
p807
aVhttp://dbpedia.org/ontology/locationCountry
p808
aVhttp://dbpedia.org/ontology/headquarter
p809
aVhttp://dbpedia.org/ontology/city
p810
aVhttp://dbpedia.org/ontology/language
p811
aVhttp://dbpedia.org/ontology/location
p812
aVhttp://dbpedia.org/property/officialLanguages
p813
aVhttp://www.w3.org/2000/01/rdf-schema#comment
p814
aVhttp://dbpedia.org/ontology/birthPlace
p815
aVhttp://dbpedia.org/property/hostcity
p816
aVhttp://dbpedia.org/ontology/wikiPageRedirects
p817
aVhttp://dbpedia.org/ontology/hometown
p818
aVhttp://dbpedia.org/property/bankOf
p819
aVhttp://dbpedia.org/property/locationCity
p820
aVhttp://dbpedia.org/ontology/spokenIn
p821
aVhttp://dbpedia.org/property/jurisdiction
p822
aVhttp://dbpedia.org/ontology/locationCity
p823
aVhttp://dbpedia.org/ontology/deathPlace
p824
asI2
(lp825
ss.