(lp1
(lp2
(lp3
a(lp4
a(lp5
a(lp6
a(lp7
a(lp8
a(lp9
aa(lp10
(lp11
a(lp12
a(lp13
a(lp14
a(lp15
a(lp16
a(lp17
aa(lp18
(lp19
a(lp20
a(lp21
a(lp22
a(lp23
a(lp24
a(lp25
aa(lp26
(lp27
a(lp28
a(lp29
a(lp30
a(lp31
a(lp32
a(lp33
aa(lp34
(lp35
a(lp36
a(lp37
a(lp38
a(lp39
a(lp40
a(lp41
aa(lp42
(lp43
a(lp44
a(lp45
a(lp46
a(lp47
a(lp48
a(lp49
aa(lp50
(lp51
a(lp52
a(lp53
a(lp54
a(lp55
a(lp56
a(lp57
aa(lp58
(lp59
((lp60
Vhttp://www.w3.org/2002/07/owl#Thing
p61
aVhttp://dbpedia.org/ontology/Place
p62
aVhttp://dbpedia.org/ontology/Location
p63
aVhttp://www.wikidata.org/entity/Q8502
p64
aVhttp://dbpedia.org/ontology/Mountain
p65
aVhttp://dbpedia.org/ontology/NaturalPlace
p66
aVhttp://www.w3.org/2003/01/geo/wgs84_pos#SpatialThing
p67
aVhttp://schema.org/Mountain
p68
aVhttp://schema.org/Place
p69
aVhttp://umbel.org/umbel/rc/Mountain
p70
aVhttp://dbpedia.org/class/yago/GeologicalFormation109287968
p71
aVhttp://dbpedia.org/class/yago/Mountain109359803
p72
aVhttp://dbpedia.org/class/yago/Object100002684
p73
aVhttp://dbpedia.org/class/yago/YagoGeoEntity
p74
aVhttp://dbpedia.org/class/yago/PhysicalEntity100001930
p75
aVhttp://dbpedia.org/class/yago/YagoPermanentlyLocatedEntity
p76
aVhttp://dbpedia.org/class/yago/NaturalElevation109366317
p77
aVhttp://dbpedia.org/resource/Bannerdale_Crags
tp78
aa(lp79
a(lp80
a(lp81
a(lp82
a(lp83
a(lp84
aa(lp85
(lp86
a(lp87
a(lp88
a(lp89
a(lp90
a(lp91
a(lp92
aa(lp93
(lp94
a(lp95
a(lp96
a(lp97
a(lp98
a(lp99
a(lp100
aa(lp101
(lp102
a(lp103
a(lp104
a(lp105
((lVhttp://dbpedia.org/resource/ISO_639:w
tp106
aa(lp107
a(lp108
a(lp109
aa(lp110
(lp111
a(lp112
a(lp113
a(lp114
a(lp115
a(lp116
a(lp117
aa(lp118
(lp119
a(lp120
a(lp121
a(lp122
a(lp123
a(lp124
a(lp125
aa(lp126
(lp127
a(lp128
a(lp129
a(lp130
a(lp131
a(lp132
a(lp133
aa(lp134
(lp135
a(lp136
a(lp137
a(lp138
a(lp139
a(lp140
a(lp141
aa(lp142
(lp143
a(lp144
a(lp145
a(lp146
((lp147
Vhttp://www.w3.org/2002/07/owl#Thing
p148
aVhttp://dbpedia.org/class/yago/Abstraction100002137
p149
aVhttp://dbpedia.org/class/yago/DefiniteQuantity113576101
p150
aVhttp://dbpedia.org/class/yago/UnitOfMeasurement113583724
p151
aVhttp://dbpedia.org/class/yago/Measure100033615
p152
aVhttp://dbpedia.org/class/yago/UnitsOfFlow
p153
aVhttp://dbpedia.org/class/yago/UnitsOfInformation
p154
aVhttp://dbpedia.org/resource/Data_rate_units
tp155
aa(lp156
a(lp157
a(lp158
aa(lp159
(lp160
a(lp161
a(lp162
a(lp163
((lVhttp://dbpedia.org/resource/ISO_639:w
p164
tp165
aa(lp166
a(lp167
a(lp168
aa(lp169
(lp170
a(lp171
a(lp172
a(lp173
a(lp174
a(lp175
a(lp176
aa(lp177
(lp178
a(lp179
a(lp180
a(lp181
a(lp182
a(lp183
a(lp184
aa(lp185
(lp186
a(lp187
a(lp188
a(lp189
a(lp190
a(lp191
a(lp192
aa.