(lp1
(lp2
(lp3
a(lp4
aa(lp5
(lp6
Vhttp://dbpedia.org/resource/List_of_Home_and_Away_characters_(2013)
p7
aa(lp8
aa(lp9
(lp10
Vhttp://dbpedia.org/resource/List_of_Home_and_Away_characters_(2014)
p11
aa(lp12
aa(lp13
(lp14
Vhttp://dbpedia.org/resource/List_of_Home_and_Away_characters_(2013)
p15
aa(lp16
aa(lp17
(lp18
Vhttp://dbpedia.org/resource/List_of_Neighbours_characters_(2006)
p19
aa(lp20
aa(lp21
(lp22
a(lp23
aa(lp24
(lp25
Vhttp://dbpedia.org/resource/List_of_Home_and_Away_characters_(2013)
p26
aa(lp27
aa(lp28
(lp29
Vhttp://dbpedia.org/resource/List_of_Home_and_Away_characters_(2013)
p30
aa(lp31
aa(lp32
(lp33
a(lp34
aa(lp35
(lp36
a(lp37
aa(lp38
(lp39
a(lp40
aa(lp41
(lp42
a(lp43
aa(lp44
(lp45
Vhttp://dbpedia.org/resource/Camille_Jordan_(politician)
p46
aa(lp47
aa(lp48
(lp49
a(lp50
aa(lp51
(lp52
Vhttp://dbpedia.org/resource/Alec_Gilroy
p53
aa(lp54
aa(lp55
(lp56
Vhttp://dbpedia.org/resource/Angelo_Rosetta
p57
aa(lp58
aa(lp59
(lp60
Vhttp://dbpedia.org/resource/Angie_Watts
p61
aa(lp62
aa(lp63
(lp64
Vhttp://dbpedia.org/resource/Basil_Fawlty
p65
aa(lp66
aa(lp67
(lp68
Vhttp://dbpedia.org/resource/Bianca_Jackson
p69
aa(lp70
aa.