(lp1
(lp2
(lp3
a(lp4
Vhttp://dbpedia.org/resource/Israeli_Air_Force
p5
aa(lp6
a(lp7
a(lp8
Vhttp://dbpedia.org/resource/Afghanistan
p9
aa(lp10
a(lp11
a(lp12
a(lp13
a(lp14
Vhttp://dbpedia.org/resource/Null
p15
aaa(lp16
(lp17
a(lp18
a(lp19
a(lp20
a(lp21
a(lp22
a(lp23
a(lp24
a(lp25
a(lp26
Vhttp://dbpedia.org/resource/Null
p27
aaa(lp28
(lp29
a(lp30
a(lp31
a(lp32
a(lp33
a(lp34
a(lp35
a(lp36
a(lp37
a(lp38
Vhttp://dbpedia.org/resource/Null
p39
aaa(lp40
(lp41
a(lp42
a(lp43
a(lp44
a(lp45
Vhttp://dbpedia.org/resource/American_Samoa
p46
aa(lp47
a(lp48
a(lp49
a(lp50
a(lp51
Vhttp://dbpedia.org/resource/Null
p52
aaa(lp53
(lp54
a(lp55
a(lp56
a(lp57
a(lp58
a(lp59
a(lp60
a(lp61
a(lp62
a(lp63
Vhttp://dbpedia.org/resource/Null
p64
aaa(lp65
(lp66
a(lp67
a(lp68
a(lp69
a(lp70
a(lp71
a(lp72
a(lp73
a(lp74
a(lp75
Vhttp://dbpedia.org/resource/Null
p76
aaa(lp77
(lp78
a(lp79
a(lp80
a(lp81
a(lp82
a(lp83
a(lp84
a(lp85
a(lp86
a(lp87
Vhttp://dbpedia.org/resource/Null
p88
aaa(lp89
(lp90
a(lp91
a(lp92
a(lp93
a(lp94
Vhttp://dbpedia.org/resource/Antigua_and_Barbuda
p95
aa(lp96
a(lp97
a(lp98
a(lp99
a(lp100
Vhttp://dbpedia.org/resource/Null
p101
aaa(lp102
(lp103
a(lp104
a(lp105
a(lp106
a(lp107
a(lp108
a(lp109
a(lp110
a(lp111
a(lp112
Vhttp://dbpedia.org/resource/Null
p113
aaa(lp114
(lp115
a(lp116
a(lp117
a(lp118
a(lp119
a(lp120
a(lp121
a(lp122
a(lp123
a(lp124
Vhttp://dbpedia.org/resource/Null
p125
aaa(lp126
(lp127
a(lp128
a(lp129
a(lp130
a(lp131
a(lp132
a(lp133
a(lp134
a(lp135
a(lp136
Vhttp://dbpedia.org/resource/Null
p137
aaa(lp138
(lp139
a(lp140
a(lp141
a(lp142
a(lp143
Vhttp://dbpedia.org/resource/Oceania
p144
aa(lp145
a(lp146
a(lp147
a(lp148
a(lp149
Vhttp://dbpedia.org/resource/Null
p150
aaa(lp151
(lp152
a(lp153
a(lp154
a(lp155
a(lp156
a(lp157
a(lp158
a(lp159
a(lp160
a(lp161
Vhttp://dbpedia.org/resource/Null
p162
aaa(lp163
(lp164
a(lp165
a(lp166
a(lp167
a(lp168
a(lp169
a(lp170
a(lp171
a(lp172
a(lp173
Vhttp://dbpedia.org/resource/Null
p174
aaa(lp175
(lp176
a(lp177
a(lp178
a(lp179
a(lp180
a(lp181
a(lp182
a(lp183
a(lp184
a(lp185
Vhttp://dbpedia.org/resource/Null
p186
aaa(lp187
(lp188
a(lp189
a(lp190
a(lp191
a(lp192
a(lp193
a(lp194
a(lp195
a(lp196
a(lp197
Vhttp://dbpedia.org/resource/Null
p198
aaa(lp199
(lp200
a(lp201
a(lp202
a(lp203
a(lp204
a(lp205
a(lp206
a(lp207
a(lp208
a(lp209
Vhttp://dbpedia.org/resource/Null
p210
aaa(lp211
(lp212
a(lp213
a(lp214
a(lp215
a(lp216
a(lp217
a(lp218
a(lp219
a(lp220
a(lp221
Vhttp://dbpedia.org/resource/Null
p222
aaa(lp223
(lp224
a(lp225
a(lp226
a(lp227
a(lp228
a(lp229
a(lp230
a(lp231
a(lp232
a(lp233
Vhttp://dbpedia.org/resource/Null
p234
aaa(lp235
(lp236
a(lp237
a(lp238
a(lp239
a(lp240
a(lp241
a(lp242
a(lp243
a(lp244
a(lp245
Vhttp://dbpedia.org/resource/Null
p246
aaa.