(lp1
(lp2
(lp3
a(lp4
a(lp5
a(lp6
a(lp7
aa(lp8
(lp9
a(lp10
a(lp11
a(lp12
a(lp13
aa(lp14
(lp15
a(lp16
a(lp17
a(lp18
a(lp19
aa(lp20
(lp21
a(lp22
a(lp23
a(lp24
a(lp25
aa(lp26
(lp27
a(lp28
a(lp29
a(lp30
a(lp31
aa(lp32
(lp33
a(lp34
a(lp35
a(lp36
a(lp37
aa(lp38
(lp39
a(lp40
a(lp41
((lp42
Vhttp://www.w3.org/2002/07/owl#Thing
p43
aVhttp://dbpedia.org/class/yago/Abstraction100002137
p44
aVhttp://dbpedia.org/class/yago/Communication100033020
p45
aVhttp://dbpedia.org/class/yago/Format106636806
p46
aVhttp://dbpedia.org/class/yago/Information106634376
p47
aVhttp://dbpedia.org/class/yago/Message106598915
p48
aVhttp://dbpedia.org/class/yago/RadioFormats
p49
aVhttp://dbpedia.org/resource/Talk_radio
tp50
aa(lp51
a(lp52
aa(lp53
(lp54
a(lp55
a(lp56
a(lp57
a(lp58
aa(lp59
(lp60
a(lp61
a(lp62
a(lp63
a(lp64
aa(lp65
(lp66
a(lp67
a(lp68
((lp69
Vhttp://www.w3.org/2002/07/owl#Thing
p70
aVhttp://dbpedia.org/ontology/Company
p71
aVhttp://www.ontologydesignpatterns.org/ont/dul/DUL.owl#Agent
p72
aVhttp://www.ontologydesignpatterns.org/ont/dul/DUL.owl#SocialPerson
p73
aVhttp://www.wikidata.org/entity/Q43229
p74
aVhttp://dbpedia.org/ontology/Agent
p75
aVhttp://dbpedia.org/ontology/Organisation
p76
aVhttp://schema.org/Organization
p77
aVhttp://dbpedia.org/class/yago/Abstraction100002137
p78
aVhttp://dbpedia.org/class/yago/Company108058098
p79
aVhttp://dbpedia.org/class/yago/Group100031264
p80
aVhttp://dbpedia.org/class/yago/Institution108053576
p81
aVhttp://dbpedia.org/class/yago/Organization108008335
p82
aVhttp://dbpedia.org/class/yago/SocialGroup107950920
p83
aVhttp://dbpedia.org/class/yago/YagoLegalActorGeo
p84
aVhttp://dbpedia.org/class/yago/YagoPermanentlyLocatedEntity
p85
aVhttp://dbpedia.org/class/yago/YagoLegalActor
p86
aVhttp://dbpedia.org/resource/CBC_News
tp87
aa(lp88
a(lp89
aa(lp90
(lp91
a(lp92
a(lp93
a(lp94
a(lp95
aa(lp96
(lp97
a(lp98
a(lp99
a(lp100
a(lp101
aa(lp102
(lp103
a(lp104
a(lp105
a(lp106
a(lp107
aa(lp108
(lp109
a(lp110
a(lp111
((lp112
Vhttp://dbpedia.org/class/yago/Abstraction100002137
p113
aVhttp://dbpedia.org/class/yago/Company108058098
p114
aVhttp://dbpedia.org/class/yago/Group100031264
p115
aVhttp://dbpedia.org/class/yago/Institution108053576
p116
aVhttp://dbpedia.org/class/yago/Organization108008335
p117
aVhttp://dbpedia.org/class/yago/SocialGroup107950920
p118
aVhttp://dbpedia.org/class/yago/YagoLegalActorGeo
p119
aVhttp://dbpedia.org/class/yago/ChristianMusicMedia
p120
aVhttp://dbpedia.org/class/yago/YagoPermanentlyLocatedEntity
p121
aVhttp://dbpedia.org/class/yago/YagoLegalActor
p122
aVhttp://dbpedia.org/resource/Christian_radio
tp123
aa(lp124
a(lp125
aa(lp126
(lp127
a(lp128
a(lp129
a(lp130
a(lp131
aa(lp132
(lp133
a(lp134
a(lp135
a(lp136
a(lp137
aa(lp138
(lp139
a(lp140
a(lp141
a(lp142
a(lp143
aa(lp144
(lp145
a(lp146
a(lp147
a(lp148
a(lp149
aa(lp150
(lp151
a(lp152
a(lp153
((lp154
Vhttp://www.w3.org/2002/07/owl#Thing
p155
aVhttp://dbpedia.org/ontology/Company
p156
aVhttp://www.ontologydesignpatterns.org/ont/dul/DUL.owl#Agent
p157
aVhttp://www.ontologydesignpatterns.org/ont/dul/DUL.owl#SocialPerson
p158
aVhttp://www.wikidata.org/entity/Q43229
p159
aVhttp://dbpedia.org/ontology/Agent
p160
aVhttp://dbpedia.org/ontology/Organisation
p161
aVhttp://schema.org/Organization
p162
aVhttp://dbpedia.org/class/yago/Abstraction100002137
p163
aVhttp://dbpedia.org/class/yago/Company108058098
p164
aVhttp://dbpedia.org/class/yago/Group100031264
p165
aVhttp://dbpedia.org/class/yago/Institution108053576
p166
aVhttp://dbpedia.org/class/yago/Organization108008335
p167
aVhttp://dbpedia.org/class/yago/SocialGroup107950920
p168
aVhttp://dbpedia.org/class/yago/YagoLegalActorGeo
p169
aVhttp://dbpedia.org/class/yago/YagoPermanentlyLocatedEntity
p170
aVhttp://dbpedia.org/class/yago/YagoLegalActor
p171
aVhttp://dbpedia.org/resource/CBC_News
tp172
aa(lp173
a(lp174
aa(lp175
(lp176
a(lp177
a(lp178
((lp179
Vhttp://www.w3.org/2002/07/owl#Thing
p180
aVhttp://dbpedia.org/class/yago/Abstraction100002137
p181
aVhttp://dbpedia.org/class/yago/Communication100033020
p182
aVhttp://dbpedia.org/class/yago/Format106636806
p183
aVhttp://dbpedia.org/class/yago/Information106634376
p184
aVhttp://dbpedia.org/class/yago/Message106598915
p185
aVhttp://dbpedia.org/class/yago/RadioFormats
p186
aVhttp://dbpedia.org/resource/Talk_radio
tp187
aa(lp188
a(lp189
aa(lp190
(lp191
a(lp192
a(lp193
((lp194
Vhttp://dbpedia.org/class/yago/Abstraction100002137
p195
aVhttp://dbpedia.org/class/yago/Communication100033020
p196
aVhttp://dbpedia.org/class/yago/Format106636806
p197
aVhttp://dbpedia.org/class/yago/Information106634376
p198
aVhttp://dbpedia.org/class/yago/Message106598915
p199
aVhttp://dbpedia.org/class/yago/RadioFormats
p200
aVhttp://dbpedia.org/resource/Adult_standards
tp201
aa(lp202
a(lp203
aa(lp204
(lp205
a(lp206
a(lp207
a(lp208
a(lp209
aa(lp210
(lp211
a(lp212
a(lp213
((lp214
Vhttp://dbpedia.org/class/yago/Abstraction100002137
p215
aVhttp://dbpedia.org/class/yago/Communication100033020
p216
aVhttp://dbpedia.org/class/yago/Format106636806
p217
aVhttp://dbpedia.org/class/yago/Information106634376
p218
aVhttp://dbpedia.org/class/yago/Message106598915
p219
aVhttp://dbpedia.org/class/yago/RadioFormats
p220
aVhttp://dbpedia.org/resource/Adult_standards
tp221
aa(lp222
a(lp223
aa(lp224
(lp225
a(lp226
a(lp227
a(lp228
a(lp229
aa(lp230
(lp231
a(lp232
a(lp233
a(lp234
a(lp235
aa(lp236
(lp237
a(lp238
a(lp239
a(lp240
a(lp241
aa(lp242
(lp243
a(lp244
a(lp245
a(lp246
a(lp247
aa(lp248
(lp249
a(lp250
a(lp251
a(lp252
a(lp253
aa(lp254
(lp255
a(lp256
a(lp257
((lp258
Vhttp://dbpedia.org/class/yago/Abstraction100002137
p259
aVhttp://dbpedia.org/class/yago/Communication100033020
p260
aVhttp://dbpedia.org/class/yago/Format106636806
p261
aVhttp://dbpedia.org/class/yago/Information106634376
p262
aVhttp://dbpedia.org/class/yago/Message106598915
p263
aVhttp://dbpedia.org/class/yago/RadioFormats
p264
aVhttp://dbpedia.org/resource/Sports_radio
p265
tp266
aa(lp267
a(lp268
aa(lp269
(lp270
a(lp271
a(lp272
a(lp273
a(lp274
aa.