(lp1
(dp2
I0
(dp3
I0
(lp4
sI1
(lp5
sI2
(lp6
sI3
(lp7
sI4
(lp8
ssI1
(dp9
I0
g5
sI1
(lp10
sI2
(lp11
sI3
(lp12
sI4
(lp13
ssI2
(dp14
I0
g6
sI1
g11
sI2
(lp15
sI3
(lp16
sI4
(lp17
ssI3
(dp18
I0
g7
sI1
g12
sI2
g16
sI3
(lp19
sI4
(lp20
ssI4
(dp21
I0
g8
sI1
g13
sI2
g17
sI3
g20
sI4
(lp22
ssa(dp23
I0
(dp24
I0
(lp25
sI1
(lp26
sI2
(lp27
sI3
(lp28
sI4
(lp29
ssI1
(dp30
I0
g26
sI1
(lp31
sI2
(lp32
sI3
(lp33
sI4
(lp34
ssI2
(dp35
I0
g27
sI1
g32
sI2
(lp36
sI3
(lp37
sI4
(lp38
ssI3
(dp39
I0
g28
sI1
g33
sI2
g37
sI3
(lp40
sI4
(lp41
ssI4
(dp42
I0
g29
sI1
g34
sI2
g38
sI3
g41
sI4
(lp43
ssa(dp44
I0
(dp45
I0
(lp46
sI1
(lp47
sI2
(lp48
sI3
(lp49
sI4
(lp50
ssI1
(dp51
I0
g47
sI1
(lp52
sI2
(lp53
sI3
(lp54
sI4
(lp55
ssI2
(dp56
I0
g48
sI1
g53
sI2
(lp57
sI3
(lp58
sI4
(lp59
ssI3
(dp60
I0
g49
sI1
g54
sI2
g58
sI3
(lp61
sI4
(lp62
ssI4
(dp63
I0
g50
sI1
g55
sI2
g59
sI3
g62
sI4
(lp64
ssa(dp65
I0
(dp66
I0
(lp67
sI1
(lp68
sI2
(lp69
sI3
(lp70
sI4
(lp71
ssI1
(dp72
I0
g68
sI1
(lp73
sI2
(lp74
sI3
(lp75
sI4
(lp76
ssI2
(dp77
I0
g69
sI1
g74
sI2
(lp78
sI3
(lp79
sI4
(lp80
ssI3
(dp81
I0
g70
sI1
g75
sI2
g79
sI3
(lp82
sI4
(lp83
ssI4
(dp84
I0
g71
sI1
g76
sI2
g80
sI3
g83
sI4
(lp85
ssa(dp86
I0
(dp87
I0
(lp88
sI1
(lp89
sI2
(lp90
sI3
(lp91
sI4
(lp92
ssI1
(dp93
I0
g89
sI1
(lp94
sI2
(lp95
sI3
(lp96
sI4
(lp97
ssI2
(dp98
I0
g90
sI1
g95
sI2
(lp99
sI3
(lp100
sI4
(lp101
ssI3
(dp102
I0
g91
sI1
g96
sI2
g100
sI3
(lp103
sI4
(lp104
ssI4
(dp105
I0
g92
sI1
g97
sI2
g101
sI3
g104
sI4
(lp106
ssa(dp107
I0
(dp108
I0
(lp109
sI1
(lp110
Vhttp://dbpedia.org/ontology/wikiPageExternalLink
p111
aVhttp://dbpedia.org/property/region
p112
aVhttp://www.w3.org/2000/01/rdf-schema#comment
p113
aVhttp://dbpedia.org/ontology/abstract
p114
aVhttp://dbpedia.org/ontology/wikiPageRedirects
p115
aVhttp://dbpedia.org/property/continent
p116
aVhttp://dbpedia.org/property/cityOrRegion
p117
asI2
(lp118
Vhttp://dbpedia.org/ontology/wikiPageExternalLink
p119
aVhttp://dbpedia.org/property/region
p120
aVhttp://dbpedia.org/ontology/territory
p121
aVhttp://www.w3.org/2000/01/rdf-schema#comment
p122
aVhttp://dbpedia.org/ontology/abstract
p123
aVhttp://dbpedia.org/property/continent
p124
aVhttp://dbpedia.org/property/locations
p125
aVhttp://dbpedia.org/ontology/wikiPageRedirects
p126
aVhttp://dbpedia.org/property/cityOrRegion
p127
aVhttp://dbpedia.org/property/cities
p128
aVhttp://dbpedia.org/ontology/regionServed
p129
asI3
(lp130
sI4
(lp131
ssI1
(dp132
I0
g110
sI1
(lp133
sI2
(lp134
sI3
(lp135
sI4
(lp136
ssI2
(dp137
I0
g118
sI1
g134
sI2
(lp138
sI3
(lp139
sI4
(lp140
ssI3
(dp141
I0
g130
sI1
g135
sI2
g139
sI3
(lp142
sI4
(lp143
ssI4
(dp144
I0
g131
sI1
g136
sI2
g140
sI3
g143
sI4
(lp145
ssa(dp146
I0
(dp147
I0
(lp148
sI1
(lp149
sI2
(lp150
sI3
(lp151
sI4
(lp152
ssI1
(dp153
I0
g149
sI1
(lp154
sI2
(lp155
sI3
(lp156
sI4
(lp157
ssI2
(dp158
I0
g150
sI1
g155
sI2
(lp159
sI3
(lp160
sI4
(lp161
ssI3
(dp162
I0
g151
sI1
g156
sI2
g160
sI3
(lp163
sI4
(lp164
ssI4
(dp165
I0
g152
sI1
g157
sI2
g161
sI3
g164
sI4
(lp166
ssa(dp167
I0
(dp168
I0
(lp169
sI1
(lp170
sI2
(lp171
sI3
(lp172
sI4
(lp173
ssI1
(dp174
I0
g170
sI1
(lp175
sI2
(lp176
sI3
(lp177
sI4
(lp178
ssI2
(dp179
I0
g171
sI1
g176
sI2
(lp180
sI3
(lp181
sI4
(lp182
ssI3
(dp183
I0
g172
sI1
g177
sI2
g181
sI3
(lp184
sI4
(lp185
ssI4
(dp186
I0
g173
sI1
g178
sI2
g182
sI3
g185
sI4
(lp187
ssa(dp188
I0
(dp189
I0
(lp190
sI1
(lp191
sI2
(lp192
sI3
(lp193
sI4
(lp194
ssI1
(dp195
I0
g191
sI1
(lp196
sI2
(lp197
sI3
(lp198
sI4
(lp199
ssI2
(dp200
I0
g192
sI1
g197
sI2
(lp201
sI3
(lp202
sI4
(lp203
ssI3
(dp204
I0
g193
sI1
g198
sI2
g202
sI3
(lp205
sI4
(lp206
ssI4
(dp207
I0
g194
sI1
g199
sI2
g203
sI3
g206
sI4
(lp208
ssa(dp209
I0
(dp210
I0
(lp211
sI1
(lp212
sI2
(lp213
sI3
(lp214
sI4
(lp215
ssI1
(dp216
I0
g212
sI1
(lp217
sI2
(lp218
sI3
(lp219
sI4
(lp220
ssI2
(dp221
I0
g213
sI1
g218
sI2
(lp222
sI3
(lp223
sI4
(lp224
ssI3
(dp225
I0
g214
sI1
g219
sI2
g223
sI3
(lp226
sI4
(lp227
ssI4
(dp228
I0
g215
sI1
g220
sI2
g224
sI3
g227
sI4
(lp229
ssa(dp230
I0
(dp231
I0
(lp232
sI1
(lp233
sI2
(lp234
sI3
(lp235
sI4
(lp236
ssI1
(dp237
I0
g233
sI1
(lp238
sI2
(lp239
sI3
(lp240
sI4
(lp241
ssI2
(dp242
I0
g234
sI1
g239
sI2
(lp243
sI3
(lp244
sI4
(lp245
ssI3
(dp246
I0
g235
sI1
g240
sI2
g244
sI3
(lp247
sI4
(lp248
ssI4
(dp249
I0
g236
sI1
g241
sI2
g245
sI3
g248
sI4
(lp250
ssa(dp251
I0
(dp252
I0
(lp253
sI1
(lp254
sI2
(lp255
sI3
(lp256
sI4
(lp257
ssI1
(dp258
I0
g254
sI1
(lp259
sI2
(lp260
sI3
(lp261
sI4
(lp262
ssI2
(dp263
I0
g255
sI1
g260
sI2
(lp264
sI3
(lp265
sI4
(lp266
ssI3
(dp267
I0
g256
sI1
g261
sI2
g265
sI3
(lp268
sI4
(lp269
ssI4
(dp270
I0
g257
sI1
g262
sI2
g266
sI3
g269
sI4
(lp271
ssa(dp272
I0
(dp273
I0
(lp274
sI1
(lp275
sI2
(lp276
sI3
(lp277
sI4
(lp278
ssI1
(dp279
I0
g275
sI1
(lp280
sI2
(lp281
sI3
(lp282
sI4
(lp283
ssI2
(dp284
I0
g276
sI1
g281
sI2
(lp285
sI3
(lp286
sI4
(lp287
ssI3
(dp288
I0
g277
sI1
g282
sI2
g286
sI3
(lp289
sI4
(lp290
ssI4
(dp291
I0
g278
sI1
g283
sI2
g287
sI3
g290
sI4
(lp292
ssa(dp293
I0
(dp294
I0
(lp295
sI1
(lp296
sI2
(lp297
sI3
(lp298
sI4
(lp299
ssI1
(dp300
I0
g296
sI1
(lp301
sI2
(lp302
sI3
(lp303
sI4
(lp304
ssI2
(dp305
I0
g297
sI1
g302
sI2
(lp306
sI3
(lp307
sI4
(lp308
ssI3
(dp309
I0
g298
sI1
g303
sI2
g307
sI3
(lp310
sI4
(lp311
ssI4
(dp312
I0
g299
sI1
g304
sI2
g308
sI3
g311
sI4
(lp313
ssa(dp314
I0
(dp315
I0
(lp316
sI1
(lp317
sI2
(lp318
sI3
(lp319
sI4
(lp320
ssI1
(dp321
I0
g317
sI1
(lp322
sI2
(lp323
sI3
(lp324
sI4
(lp325
ssI2
(dp326
I0
g318
sI1
g323
sI2
(lp327
sI3
(lp328
sI4
(lp329
ssI3
(dp330
I0
g319
sI1
g324
sI2
g328
sI3
(lp331
sI4
(lp332
ssI4
(dp333
I0
g320
sI1
g325
sI2
g329
sI3
g332
sI4
(lp334
ssa(dp335
I0
(dp336
I0
(lp337
sI1
(lp338
sI2
(lp339
sI3
(lp340
sI4
(lp341
ssI1
(dp342
I0
g338
sI1
(lp343
sI2
(lp344
sI3
(lp345
sI4
(lp346
ssI2
(dp347
I0
g339
sI1
g344
sI2
(lp348
sI3
(lp349
sI4
(lp350
ssI3
(dp351
I0
g340
sI1
g345
sI2
g349
sI3
(lp352
sI4
(lp353
ssI4
(dp354
I0
g341
sI1
g346
sI2
g350
sI3
g353
sI4
(lp355
ssa(dp356
I0
(dp357
I0
(lp358
sI1
(lp359
sI2
(lp360
sI3
(lp361
sI4
(lp362
ssI1
(dp363
I0
g359
sI1
(lp364
sI2
(lp365
sI3
(lp366
sI4
(lp367
ssI2
(dp368
I0
g360
sI1
g365
sI2
(lp369
sI3
(lp370
sI4
(lp371
ssI3
(dp372
I0
g361
sI1
g366
sI2
g370
sI3
(lp373
sI4
(lp374
ssI4
(dp375
I0
g362
sI2
g371
sI3
g374
sI4
(lp376
ssa(dp377
I0
(dp378
I0
(lp379
sI1
(lp380
sI2
(lp381
sI3
(lp382
sI4
(lp383
ssI1
(dp384
I0
g380
sI1
(lp385
sI2
(lp386
sI3
(lp387
sI4
(lp388
ssI2
(dp389
I0
g381
sI1
g386
sI2
(lp390
sI3
(lp391
sI4
(lp392
ssI3
(dp393
I0
g382
sI1
g387
sI2
g391
sI3
(lp394
sI4
(lp395
ssI4
(dp396
I0
g383
sI1
g388
sI2
g392
sI3
g395
sI4
(lp397
ssa(dp398
I0
(dp399
I0
(lp400
sI1
(lp401
sI2
(lp402
sI3
(lp403
sI4
(lp404
ssI1
(dp405
I0
g401
sI1
(lp406
sI2
(lp407
sI3
(lp408
sI4
(lp409
ssI2
(dp410
I0
g402
sI1
g407
sI2
(lp411
sI3
(lp412
sI4
(lp413
ssI3
(dp414
I0
g403
sI1
g408
sI2
g412
sI3
(lp415
sI4
(lp416
ssI4
(dp417
I0
g404
sI1
g409
sI2
g413
sI3
g416
sI4
(lp418
ssa(dp419
I0
(dp420
I0
(lp421
sI1
(lp422
sI2
(lp423
sI3
(lp424
sI4
(lp425
ssI1
(dp426
I0
g422
sI1
(lp427
sI2
(lp428
sI3
(lp429
sI4
(lp430
ssI2
(dp431
I0
g423
sI1
g428
sI2
(lp432
sI3
(lp433
sI4
(lp434
ssI3
(dp435
I0
g424
sI1
g429
sI2
g433
sI3
(lp436
sI4
(lp437
ssI4
(dp438
I0
g425
sI1
g430
sI2
g434
sI3
g437
sI4
(lp439
ssa(dp440
I0
(dp441
I0
(lp442
sI1
(lp443
sI2
(lp444
sI3
(lp445
Vhttp://dbpedia.org/property/currency
p446
aVhttp://xmlns.com/foaf/0.1/primaryTopic
p447
aVhttp://www.w3.org/1999/02/22-rdf-syntax-ns#type
p448
aVhttp://purl.org/dc/terms/subject
p449
aVhttp://dbpedia.org/ontology/currency
p450
aVhttp://dbpedia.org/ontology/wikiPageRedirects
p451
aVhttp://xmlns.com/foaf/0.1/isPrimaryTopicOf
p452
aVhttp://www.w3.org/ns/prov#wasDerivedFrom
p453
aVhttp://dbpedia.org/property/hasPhotoCollection
p454
aVhttp://www.w3.org/2000/01/rdf-schema#label
p455
aVhttp://www.w3.org/2002/07/owl#sameAs
p456
asI4
(lp457
ssI1
(dp458
I0
g443
sI1
(lp459
sI2
(lp460
sI3
(lp461
Vhttp://dbpedia.org/property/currency
p462
aVhttp://xmlns.com/foaf/0.1/primaryTopic
p463
aVhttp://www.w3.org/1999/02/22-rdf-syntax-ns#type
p464
aVhttp://purl.org/dc/terms/subject
p465
aVhttp://www.w3.org/2000/01/rdf-schema#comment
p466
aVhttp://dbpedia.org/ontology/currency
p467
aVhttp://dbpedia.org/ontology/abstract
p468
aVhttp://dbpedia.org/ontology/wikiPageRedirects
p469
aVhttp://xmlns.com/foaf/0.1/isPrimaryTopicOf
p470
aVhttp://www.w3.org/ns/prov#wasDerivedFrom
p471
aVhttp://dbpedia.org/property/hasPhotoCollection
p472
aVhttp://www.w3.org/2000/01/rdf-schema#label
p473
aVhttp://www.w3.org/2002/07/owl#sameAs
p474
asI4
(lp475
ssI2
(dp476
I0
g444
sI1
g460
sI2
(lp477
sI3
(lp478
Vhttp://dbpedia.org/property/currency
p479
aVhttp://xmlns.com/foaf/0.1/primaryTopic
p480
aVhttp://www.w3.org/1999/02/22-rdf-syntax-ns#type
p481
aVhttp://purl.org/dc/terms/subject
p482
aVhttp://www.w3.org/2000/01/rdf-schema#comment
p483
aVhttp://dbpedia.org/ontology/currency
p484
aVhttp://dbpedia.org/ontology/abstract
p485
aVhttp://dbpedia.org/ontology/wikiPageRedirects
p486
aVhttp://xmlns.com/foaf/0.1/isPrimaryTopicOf
p487
aVhttp://www.w3.org/ns/prov#wasDerivedFrom
p488
aVhttp://dbpedia.org/property/hasPhotoCollection
p489
aVhttp://www.w3.org/2000/01/rdf-schema#label
p490
aVhttp://www.w3.org/2002/07/owl#sameAs
p491
asI4
(lp492
ssI3
(dp493
I0
g445
sI1
g461
sI2
g478
sI3
(lp494
sI4
(lp495
ssI4
(dp496
I0
g457
sI1
g475
sI2
g492
sI3
g495
sI4
(lp497
ssa(dp498
I0
(dp499
I0
(lp500
sI1
(lp501
sI2
(lp502
sI3
(lp503
sI4
(lp504
ssI1
(dp505
I0
g501
sI1
(lp506
sI2
(lp507
sI3
(lp508
sI4
(lp509
ssI2
(dp510
I0
g502
sI1
g507
sI2
(lp511
sI3
(lp512
sI4
(lp513
ssI3
(dp514
I0
g503
sI1
g508
sI2
g512
sI3
(lp515
sI4
(lp516
ssI4
(dp517
I0
g504
sI1
g509
sI2
g513
sI3
g516
sI4
(lp518
ssa(dp519
I0
(dp520
I0
(lp521
sI1
(lp522
sI2
(lp523
sI3
(lp524
sI4
(lp525
ssI1
(dp526
I0
g522
sI1
(lp527
sI2
(lp528
sI3
(lp529
sI4
(lp530
ssI2
(dp531
I0
g523
sI1
g528
sI2
(lp532
sI3
(lp533
sI4
(lp534
ssI3
(dp535
I0
g524
sI1
g529
sI2
g533
sI3
(lp536
sI4
(lp537
ssI4
(dp538
I0
g525
sI1
g530
sI2
g534
sI3
g537
sI4
(lp539
ssa(dp540
I0
(dp541
I0
(lp542
sI1
(lp543
sI2
(lp544
sI3
(lp545
sI4
(lp546
ssI1
(dp547
I0
g543
sI1
(lp548
sI2
(lp549
sI3
(lp550
sI4
(lp551
ssI2
(dp552
I0
g544
sI1
g549
sI2
(lp553
sI3
(lp554
sI4
(lp555
ssI3
(dp556
I0
g545
sI1
g550
sI2
g554
sI3
(lp557
sI4
(lp558
ssI4
(dp559
I0
g546
sI1
g551
sI2
g555
sI3
g558
sI4
(lp560
ssa(dp561
I0
(dp562
I0
(lp563
sI1
(lp564
sI2
(lp565
sI3
(lp566
sI4
(lp567
ssI1
(dp568
I0
g564
sI1
(lp569
sI2
(lp570
sI3
(lp571
sI4
(lp572
ssI2
(dp573
I0
g565
sI1
g570
sI2
(lp574
sI3
(lp575
sI4
(lp576
ssI3
(dp577
I0
g566
sI1
g571
sI2
g575
sI3
(lp578
sI4
(lp579
ssI4
(dp580
I0
g567
sI1
g572
sI2
g576
sI3
g579
sI4
(lp581
ssa(dp582
I0
(dp583
I0
(lp584
sI1
(lp585
sI2
(lp586
sI3
(lp587
sI4
(lp588
ssI1
(dp589
I0
g585
sI1
(lp590
sI2
(lp591
sI3
(lp592
sI4
(lp593
ssI2
(dp594
I0
g586
sI1
g591
sI2
(lp595
sI3
(lp596
sI4
(lp597
ssI3
(dp598
I0
g587
sI1
g592
sI2
g596
sI3
(lp599
sI4
(lp600
ssI4
(dp601
I0
g588
sI1
g593
sI2
g597
sI3
g600
sI4
(lp602
ssa(dp603
I0
(dp604
I0
(lp605
sI1
(lp606
sI2
(lp607
sI3
(lp608
sI4
(lp609
ssI1
(dp610
I0
g606
sI1
(lp611
sI2
(lp612
sI3
(lp613
sI4
(lp614
ssI2
(dp615
I0
g607
sI2
(lp616
sI3
(lp617
sI4
(lp618
ssI3
(dp619
I0
g608
sI1
g613
sI2
g617
sI3
(lp620
sI4
(lp621
ssI4
(dp622
I0
g609
sI1
g614
sI2
g618
sI3
g621
sI4
(lp623
ssa(dp624
I0
(dp625
I0
(lp626
sI1
(lp627
sI2
(lp628
sI3
(lp629
sI4
(lp630
ssI1
(dp631
I0
g627
sI1
(lp632
sI2
(lp633
sI3
(lp634
sI4
(lp635
ssI2
(dp636
I0
g628
sI2
(lp637
sI3
(lp638
sI4
(lp639
ssI3
(dp640
I0
g629
sI1
g634
sI2
g638
sI3
(lp641
sI4
(lp642
ssI4
(dp643
I0
g630
sI1
g635
sI2
g639
sI3
g642
sI4
(lp644
ssa(dp645
I0
(dp646
I0
(lp647
sI1
(lp648
sI2
(lp649
sI3
(lp650
sI4
(lp651
ssI1
(dp652
I0
g648
sI1
(lp653
sI2
(lp654
sI3
(lp655
sI4
(lp656
ssI2
(dp657
I0
g649
sI1
g654
sI2
(lp658
sI3
(lp659
sI4
(lp660
ssI3
(dp661
I0
g650
sI1
g655
sI2
g659
sI3
(lp662
sI4
(lp663
ssI4
(dp664
I0
g651
sI1
g656
sI2
g660
sI3
g663
sI4
(lp665
ssa(dp666
I0
(dp667
I0
(lp668
sI1
(lp669
sI2
(lp670
sI3
(lp671
Vhttp://dbpedia.org/property/currency
p672
aVhttp://dbpedia.org/ontology/abstract
p673
aVhttp://www.w3.org/1999/02/22-rdf-syntax-ns#type
p674
aVhttp://purl.org/dc/terms/subject
p675
aVhttp://www.w3.org/2000/01/rdf-schema#comment
p676
asI4
(lp677
ssI1
(dp678
I0
g669
sI1
(lp679
sI2
(lp680
sI3
(lp681
sI4
(lp682
ssI2
(dp683
I0
g670
sI1
g680
sI2
(lp684
sI3
(lp685
Vhttp://dbpedia.org/ontology/abstract
p686
aVhttp://dbpedia.org/ontology/wikiPageRedirects
p687
aVhttp://www.w3.org/2000/01/rdf-schema#comment
p688
asI4
(lp689
ssI3
(dp690
I0
g671
sI1
g681
sI2
g685
sI3
(lp691
sI4
(lp692
Vhttp://dbpedia.org/ontology/abstract
p693
aVhttp://www.w3.org/2000/01/rdf-schema#comment
p694
assI4
(dp695
I0
g677
sI1
g682
sI2
g689
sI3
g692
sI4
(lp696
ssa(dp697
I0
(dp698
I0
(lp699
sI1
(lp700
sI2
(lp701
sI3
(lp702
sI4
(lp703
ssI1
(dp704
I0
g700
sI1
(lp705
sI2
(lp706
sI3
(lp707
sI4
(lp708
ssI2
(dp709
I0
g701
sI1
g706
sI2
(lp710
sI3
(lp711
sI4
(lp712
ssI3
(dp713
I0
g702
sI1
g707
sI2
g711
sI3
(lp714
sI4
(lp715
ssI4
(dp716
I0
g703
sI1
g708
sI2
g712
sI4
(lp717
ssa(dp718
I0
(dp719
I0
(lp720
sI1
(lp721
sI2
(lp722
sI3
(lp723
sI4
(lp724
ssI1
(dp725
I0
g721
sI1
(lp726
sI2
(lp727
sI3
(lp728
sI4
(lp729
ssI2
(dp730
I0
g722
sI1
g727
sI2
(lp731
sI3
(lp732
sI4
(lp733
ssI3
(dp734
I0
g723
sI1
g728
sI2
g732
sI3
(lp735
sI4
(lp736
ssI4
(dp737
I0
g724
sI1
g729
sI2
g733
sI3
g736
sI4
(lp738
ssa(dp739
I0
(dp740
I0
(lp741
sI1
(lp742
sI2
(lp743
sI3
(lp744
sI4
(lp745
ssI1
(dp746
I0
g742
sI1
(lp747
sI2
(lp748
Vhttp://dbpedia.org/ontology/wikiPageExternalLink
p749
aVhttp://dbpedia.org/ontology/abstract
p750
aVhttp://www.w3.org/2002/07/owl#sameAs
p751
aVhttp://www.w3.org/2000/01/rdf-schema#comment
p752
asI3
(lp753
sI4
(lp754
ssI2
(dp755
I0
g743
sI1
g748
sI2
(lp756
sI3
(lp757
sI4
(lp758
ssI3
(dp759
I0
g744
sI1
g753
sI2
g757
sI3
(lp760
sI4
(lp761
ssI4
(dp762
I0
g745
sI1
g754
sI2
g758
sI3
g761
sI4
(lp763
ssa(dp764
I0
(dp765
I0
(lp766
sI1
(lp767
sI2
(lp768
sI3
(lp769
sI4
(lp770
ssI1
(dp771
I0
g767
sI1
(lp772
sI2
(lp773
sI3
(lp774
sI4
(lp775
ssI2
(dp776
I0
g768
sI1
g773
sI2
(lp777
sI3
(lp778
sI4
(lp779
ssI3
(dp780
I0
g769
sI1
g774
sI2
g778
sI3
(lp781
sI4
(lp782
ssI4
(dp783
I0
g770
sI1
g775
sI2
g779
sI3
g782
sI4
(lp784
ssa(dp785
I0
(dp786
I0
(lp787
sI1
(lp788
sI2
(lp789
sI3
(lp790
sI4
(lp791
ssI1
(dp792
I0
g788
sI1
(lp793
sI2
(lp794
sI3
(lp795
sI4
(lp796
ssI2
(dp797
I0
g789
sI1
g794
sI2
(lp798
sI3
(lp799
sI4
(lp800
ssI3
(dp801
I0
g790
sI1
g795
sI2
g799
sI3
(lp802
sI4
(lp803
ssI4
(dp804
I0
g791
sI1
g796
sI2
g800
sI3
g803
sI4
(lp805
ssa(dp806
I0
(dp807
I0
(lp808
sI1
(lp809
sI2
(lp810
sI3
(lp811
sI4
(lp812
ssI1
(dp813
I0
g809
sI1
(lp814
sI2
(lp815
sI3
(lp816
sI4
(lp817
ssI2
(dp818
I0
g810
sI1
g815
sI2
(lp819
sI3
(lp820
sI4
(lp821
ssI3
(dp822
I0
g811
sI1
g816
sI2
g820
sI3
(lp823
sI4
(lp824
ssI4
(dp825
I0
g812
sI1
g817
sI2
g821
sI3
g824
sI4
(lp826
ssa(dp827
I0
(dp828
I0
(lp829
sI1
(lp830
sI2
(lp831
sI3
(lp832
sI4
(lp833
ssI1
(dp834
I0
g830
sI1
(lp835
sI2
(lp836
sI3
(lp837
sI4
(lp838
ssI2
(dp839
I0
g831
sI1
g836
sI2
(lp840
sI3
(lp841
sI4
(lp842
ssI3
(dp843
I0
g832
sI1
g837
sI2
g841
sI3
(lp844
sI4
(lp845
ssI4
(dp846
I0
g833
sI1
g838
sI2
g842
sI3
g845
sI4
(lp847
ssa(dp848
I0
(dp849
I0
(lp850
sI1
(lp851
sI2
(lp852
sI3
(lp853
sI4
(lp854
ssI1
(dp855
I0
g851
sI1
(lp856
sI2
(lp857
sI3
(lp858
sI4
(lp859
ssI2
(dp860
I0
g852
sI1
g857
sI2
(lp861
sI3
(lp862
sI4
(lp863
ssI3
(dp864
I0
g853
sI1
g858
sI2
g862
sI3
(lp865
sI4
(lp866
ssI4
(dp867
I0
g854
sI2
g863
sI3
g866
sI4
(lp868
ssa(dp869
I0
(dp870
I0
(lp871
sI1
(lp872
sI2
(lp873
sI3
(lp874
sI4
(lp875
ssI1
(dp876
I0
g872
sI1
(lp877
sI2
(lp878
sI3
(lp879
sI4
(lp880
ssI2
(dp881
I0
g873
sI1
g878
sI2
(lp882
sI3
(lp883
sI4
(lp884
ssI3
(dp885
I0
g874
sI1
g879
sI2
g883
sI3
(lp886
sI4
(lp887
ssI4
(dp888
I0
g875
sI1
g880
sI2
g884
sI3
g887
sI4
(lp889
ssa(dp890
I0
(dp891
I0
(lp892
sI1
(lp893
sI2
(lp894
sI3
(lp895
sI4
(lp896
ssI1
(dp897
I0
g893
sI1
(lp898
sI2
(lp899
sI3
(lp900
sI4
(lp901
ssI2
(dp902
I0
g894
sI1
g899
sI2
(lp903
sI3
(lp904
sI4
(lp905
ssI3
(dp906
I0
g895
sI1
g900
sI2
g904
sI3
(lp907
sI4
(lp908
ssI4
(dp909
I0
g896
sI1
g901
sI2
g905
sI3
g908
sI4
(lp910
ssa(dp911
I0
(dp912
I0
(lp913
sI1
(lp914
sI2
(lp915
sI3
(lp916
sI4
(lp917
ssI1
(dp918
I0
g914
sI1
(lp919
sI2
(lp920
Vhttp://xmlns.com/foaf/0.1/primaryTopic
p921
aVhttp://www.w3.org/2000/01/rdf-schema#comment
p922
aVhttp://www.w3.org/2000/01/rdf-schema#label
p923
aVhttp://dbpedia.org/ontology/abstract
p924
aVhttp://dbpedia.org/ontology/wikiPageRedirects
p925
aVhttp://xmlns.com/foaf/0.1/isPrimaryTopicOf
p926
aVhttp://www.w3.org/ns/prov#wasDerivedFrom
p927
aVhttp://dbpedia.org/property/hasPhotoCollection
p928
aVhttp://dbpedia.org/ontology/wikiPageDisambiguates
p929
aVhttp://www.w3.org/2002/07/owl#sameAs
p930
asI3
(lp931
sI4
(lp932
ssI2
(dp933
I0
g915
sI1
g920
sI2
(lp934
sI3
(lp935
sI4
(lp936
ssI3
(dp937
I0
g916
sI1
g931
sI2
g935
sI3
(lp938
sI4
(lp939
ssI4
(dp940
I0
g917
sI1
g932
sI2
g936
sI3
g939
sI4
(lp941
ssa(dp942
I0
(dp943
I0
(lp944
sI1
(lp945
sI2
(lp946
sI3
(lp947
sI4
(lp948
ssI1
(dp949
I0
g945
sI1
(lp950
sI2
(lp951
sI3
(lp952
sI4
(lp953
ssI2
(dp954
I0
g946
sI2
(lp955
sI3
(lp956
sI4
(lp957
ssI3
(dp958
I0
g947
sI1
g952
sI2
g956
sI3
(lp959
sI4
(lp960
ssI4
(dp961
I0
g948
sI1
g953
sI2
g957
sI3
g960
sI4
(lp962
ssa(dp963
I0
(dp964
I0
(lp965
sI1
(lp966
sI2
(lp967
sI3
(lp968
sI4
(lp969
ssI1
(dp970
I0
g966
sI1
(lp971
sI2
(lp972
sI3
(lp973
sI4
(lp974
ssI2
(dp975
I0
g967
sI1
g972
sI2
(lp976
sI3
(lp977
sI4
(lp978
ssI3
(dp979
I0
g968
sI1
g973
sI2
g977
sI3
(lp980
sI4
(lp981
ssI4
(dp982
I0
g969
sI1
g974
sI2
g978
sI3
g981
sI4
(lp983
ssa(dp984
I0
(dp985
I0
(lp986
sI1
(lp987
sI2
(lp988
sI3
(lp989
sI4
(lp990
ssI1
(dp991
I0
g987
sI1
(lp992
sI2
(lp993
sI3
(lp994
sI4
(lp995
ssI2
(dp996
I0
g988
sI1
g993
sI2
(lp997
sI3
(lp998
sI4
(lp999
ssI3
(dp1000
I0
g989
sI1
g994
sI2
g998
sI3
(lp1001
sI4
(lp1002
ssI4
(dp1003
I0
g990
sI1
g995
sI2
g999
sI3
g1002
sI4
(lp1004
ssa(dp1005
I0
(dp1006
I0
(lp1007
sI1
(lp1008
sI2
(lp1009
sI3
(lp1010
sI4
(lp1011
ssI1
(dp1012
I0
g1008
sI1
(lp1013
sI2
(lp1014
sI3
(lp1015
sI4
(lp1016
ssI2
(dp1017
I0
g1009
sI1
g1014
sI2
(lp1018
sI3
(lp1019
sI4
(lp1020
ssI3
(dp1021
I0
g1010
sI1
g1015
sI2
g1019
sI3
(lp1022
sI4
(lp1023
ssI4
(dp1024
I0
g1011
sI1
g1016
sI2
g1020
sI3
g1023
sI4
(lp1025
ssa(dp1026
I0
(dp1027
I0
(lp1028
sI1
(lp1029
sI2
(lp1030
sI3
(lp1031
sI4
(lp1032
ssI1
(dp1033
I0
g1029
sI1
(lp1034
sI2
(lp1035
sI3
(lp1036
sI4
(lp1037
ssI2
(dp1038
I0
g1030
sI1
g1035
sI2
(lp1039
sI3
(lp1040
sI4
(lp1041
ssI3
(dp1042
I0
g1031
sI1
g1036
sI2
g1040
sI3
(lp1043
sI4
(lp1044
ssI4
(dp1045
I0
g1032
sI1
g1037
sI2
g1041
sI3
g1044
sI4
(lp1046
ssa(dp1047
I0
(dp1048
I0
(lp1049
sI1
(lp1050
sI2
(lp1051
sI3
(lp1052
sI4
(lp1053
ssI1
(dp1054
I0
g1050
sI1
(lp1055
sI2
(lp1056
sI3
(lp1057
sI4
(lp1058
ssI2
(dp1059
I0
g1051
sI1
g1056
sI2
(lp1060
sI3
(lp1061
sI4
(lp1062
ssI3
(dp1063
I0
g1052
sI1
g1057
sI2
g1061
sI3
(lp1064
sI4
(lp1065
ssI4
(dp1066
I0
g1053
sI1
g1058
sI2
g1062
sI3
g1065
sI4
(lp1067
ssa(dp1068
I0
(dp1069
I0
(lp1070
sI1
(lp1071
sI2
(lp1072
sI3
(lp1073
sI4
(lp1074
ssI1
(dp1075
I0
g1071
sI1
(lp1076
sI2
(lp1077
sI3
(lp1078
sI4
(lp1079
ssI2
(dp1080
I0
g1072
sI1
g1077
sI2
(lp1081
sI3
(lp1082
sI4
(lp1083
ssI3
(dp1084
I0
g1073
sI1
g1078
sI2
g1082
sI3
(lp1085
sI4
(lp1086
ssI4
(dp1087
I0
g1074
sI1
g1079
sI2
g1083
sI3
g1086
sI4
(lp1088
ssa(dp1089
I0
(dp1090
I0
(lp1091
sI1
(lp1092
sI2
(lp1093
sI3
(lp1094
sI4
(lp1095
ssI1
(dp1096
I0
g1092
sI1
(lp1097
sI2
(lp1098
sI3
(lp1099
sI4
(lp1100
ssI2
(dp1101
I0
g1093
sI1
g1098
sI2
(lp1102
sI3
(lp1103
sI4
(lp1104
ssI3
(dp1105
I0
g1094
sI1
g1099
sI2
g1103
sI3
(lp1106
sI4
(lp1107
ssI4
(dp1108
I0
g1095
sI1
g1100
sI2
g1104
sI3
g1107
sI4
(lp1109
ssa(dp1110
I0
(dp1111
I0
(lp1112
sI1
(lp1113
sI2
(lp1114
sI3
(lp1115
sI4
(lp1116
ssI1
(dp1117
I0
g1113
sI1
(lp1118
sI2
(lp1119
sI3
(lp1120
sI4
(lp1121
ssI2
(dp1122
I0
g1114
sI1
g1119
sI2
(lp1123
sI3
(lp1124
sI4
(lp1125
ssI3
(dp1126
I0
g1115
sI1
g1120
sI2
g1124
sI3
(lp1127
sI4
(lp1128
ssI4
(dp1129
I0
g1116
sI1
g1121
sI2
g1125
sI3
g1128
sI4
(lp1130
ssa(dp1131
I0
(dp1132
I0
(lp1133
sI1
(lp1134
sI2
(lp1135
sI3
(lp1136
sI4
(lp1137
ssI1
(dp1138
I0
g1134
sI1
(lp1139
sI2
(lp1140
sI3
(lp1141
sI4
(lp1142
ssI2
(dp1143
I0
g1135
sI1
g1140
sI2
(lp1144
sI3
(lp1145
sI4
(lp1146
ssI3
(dp1147
I0
g1136
sI1
g1141
sI2
g1145
sI3
(lp1148
sI4
(lp1149
ssI4
(dp1150
I0
g1137
sI1
g1142
sI2
g1146
sI3
g1149
sI4
(lp1151
ssa(dp1152
I0
(dp1153
I0
(lp1154
sI1
(lp1155
sI2
(lp1156
sI3
(lp1157
sI4
(lp1158
ssI1
(dp1159
I0
g1155
sI1
(lp1160
sI2
(lp1161
sI3
(lp1162
sI4
(lp1163
ssI2
(dp1164
I0
g1156
sI1
g1161
sI2
(lp1165
sI3
(lp1166
sI4
(lp1167
ssI3
(dp1168
I0
g1157
sI1
g1162
sI2
g1166
sI3
(lp1169
sI4
(lp1170
ssI4
(dp1171
I0
g1158
sI1
g1163
sI2
g1167
sI3
g1170
sI4
(lp1172
ssa(dp1173
I0
(dp1174
I0
(lp1175
sI1
(lp1176
sI2
(lp1177
sI3
(lp1178
sI4
(lp1179
ssI1
(dp1180
I0
g1176
sI1
(lp1181
sI2
(lp1182
sI3
(lp1183
sI4
(lp1184
ssI2
(dp1185
I0
g1177
sI1
g1182
sI2
(lp1186
sI3
(lp1187
sI4
(lp1188
ssI3
(dp1189
I0
g1178
sI1
g1183
sI2
g1187
sI3
(lp1190
sI4
(lp1191
ssI4
(dp1192
I0
g1179
sI1
g1184
sI2
g1188
sI3
g1191
sI4
(lp1193
ssa(dp1194
I0
(dp1195
I0
(lp1196
sI1
(lp1197
sI2
(lp1198
sI3
(lp1199
sI4
(lp1200
ssI1
(dp1201
I0
g1197
sI1
(lp1202
sI2
(lp1203
sI3
(lp1204
sI4
(lp1205
ssI2
(dp1206
I0
g1198
sI1
g1203
sI2
(lp1207
sI3
(lp1208
sI4
(lp1209
Vhttp://dbpedia.org/ontology/wikiPageExternalLink
p1210
aVhttp://xmlns.com/foaf/0.1/primaryTopic
p1211
aVhttp://www.w3.org/1999/02/22-rdf-syntax-ns#type
p1212
aVhttp://purl.org/dc/terms/subject
p1213
aVhttp://www.w3.org/2000/01/rdf-schema#comment
p1214
aVhttp://www.w3.org/2000/01/rdf-schema#label
p1215
aVhttp://dbpedia.org/ontology/abstract
p1216
aVhttp://xmlns.com/foaf/0.1/depiction
p1217
aVhttp://dbpedia.org/ontology/wikiPageRedirects
p1218
aVhttp://xmlns.com/foaf/0.1/isPrimaryTopicOf
p1219
aVhttp://www.w3.org/ns/prov#wasDerivedFrom
p1220
aVhttp://dbpedia.org/property/hasPhotoCollection
p1221
aVhttp://dbpedia.org/ontology/wikiPageDisambiguates
p1222
aVhttp://www.w3.org/2002/07/owl#sameAs
p1223
aVhttp://dbpedia.org/ontology/thumbnail
p1224
assI3
(dp1225
I0
g1199
sI1
g1204
sI2
g1208
sI3
(lp1226
sI4
(lp1227
ssI4
(dp1228
I0
g1200
sI1
g1205
sI2
g1209
sI3
g1227
sI4
(lp1229
ssa(dp1230
I0
(dp1231
I0
(lp1232
sI1
(lp1233
sI2
(lp1234
sI3
(lp1235
sI4
(lp1236
ssI1
(dp1237
I0
g1233
sI1
(lp1238
sI2
(lp1239
sI3
(lp1240
sI4
(lp1241
ssI2
(dp1242
I0
g1234
sI1
g1239
sI2
(lp1243
sI3
(lp1244
sI4
(lp1245
ssI3
(dp1246
I0
g1235
sI1
g1240
sI2
g1244
sI3
(lp1247
sI4
(lp1248
ssI4
(dp1249
I0
g1236
sI1
g1241
sI2
g1245
sI3
g1248
sI4
(lp1250
ssa(dp1251
I0
(dp1252
I0
(lp1253
sI1
(lp1254
sI2
(lp1255
sI3
(lp1256
sI4
(lp1257
ssI1
(dp1258
I0
g1254
sI1
(lp1259
sI2
(lp1260
sI3
(lp1261
sI4
(lp1262
ssI2
(dp1263
I0
g1255
sI1
g1260
sI2
(lp1264
sI3
(lp1265
sI4
(lp1266
ssI3
(dp1267
I0
g1256
sI1
g1261
sI2
g1265
sI3
(lp1268
sI4
(lp1269
ssI4
(dp1270
I0
g1257
sI1
g1262
sI2
g1266
sI3
g1269
sI4
(lp1271
ssa(dp1272
I0
(dp1273
I0
(lp1274
sI1
(lp1275
sI2
(lp1276
sI3
(lp1277
sI4
(lp1278
ssI1
(dp1279
I0
g1275
sI1
(lp1280
sI2
(lp1281
sI3
(lp1282
sI4
(lp1283
ssI2
(dp1284
I0
g1276
sI1
g1281
sI2
(lp1285
sI3
(lp1286
sI4
(lp1287
ssI3
(dp1288
I0
g1277
sI1
g1282
sI2
g1286
sI3
(lp1289
sI4
(lp1290
ssI4
(dp1291
I0
g1278
sI1
g1283
sI2
g1287
sI3
g1290
sI4
(lp1292
ssa(dp1293
I0
(dp1294
I0
(lp1295
sI1
(lp1296
sI2
(lp1297
sI3
(lp1298
sI4
(lp1299
ssI1
(dp1300
I0
g1296
sI1
(lp1301
sI2
(lp1302
sI3
(lp1303
sI4
(lp1304
ssI2
(dp1305
I0
g1297
sI1
g1302
sI2
(lp1306
sI3
(lp1307
sI4
(lp1308
ssI3
(dp1309
I0
g1298
sI1
g1303
sI2
g1307
sI3
(lp1310
sI4
(lp1311
ssI4
(dp1312
I0
g1299
sI1
g1304
sI2
g1308
sI3
g1311
sI4
(lp1313
ssa(dp1314
I0
(dp1315
I0
(lp1316
sI1
(lp1317
sI2
(lp1318
sI3
(lp1319
sI4
(lp1320
ssI1
(dp1321
I0
g1317
sI1
(lp1322
sI2
(lp1323
sI3
(lp1324
sI4
(lp1325
ssI2
(dp1326
I0
g1318
sI1
g1323
sI2
(lp1327
sI3
(lp1328
sI4
(lp1329
ssI3
(dp1330
I0
g1319
sI1
g1324
sI2
g1328
sI3
(lp1331
sI4
(lp1332
ssI4
(dp1333
I0
g1320
sI1
g1325
sI2
g1329
sI3
g1332
sI4
(lp1334
ssa(dp1335
I0
(dp1336
I0
(lp1337
sI1
(lp1338
sI2
(lp1339
sI3
(lp1340
sI4
(lp1341
ssI1
(dp1342
I0
g1338
sI1
(lp1343
sI2
(lp1344
sI3
(lp1345
sI4
(lp1346
ssI2
(dp1347
I0
g1339
sI1
g1344
sI2
(lp1348
sI3
(lp1349
sI4
(lp1350
ssI3
(dp1351
I0
g1340
sI1
g1345
sI2
g1349
sI3
(lp1352
sI4
(lp1353
ssI4
(dp1354
I0
g1341
sI1
g1346
sI2
g1350
sI3
g1353
sI4
(lp1355
ssa(dp1356
I0
(dp1357
I0
(lp1358
sI1
(lp1359
sI2
(lp1360
sI3
(lp1361
sI4
(lp1362
ssI1
(dp1363
I0
g1359
sI1
(lp1364
sI2
(lp1365
sI3
(lp1366
sI4
(lp1367
ssI2
(dp1368
I0
g1360
sI1
g1365
sI2
(lp1369
sI3
(lp1370
sI4
(lp1371
ssI3
(dp1372
I0
g1361
sI1
g1366
sI2
g1370
sI3
(lp1373
sI4
(lp1374
ssI4
(dp1375
I0
g1362
sI1
g1367
sI2
g1371
sI3
g1374
sI4
(lp1376
ssa(dp1377
I0
(dp1378
I0
(lp1379
sI1
(lp1380
sI2
(lp1381
sI3
(lp1382
sI4
(lp1383
ssI1
(dp1384
I0
g1380
sI1
(lp1385
sI2
(lp1386
sI3
(lp1387
sI4
(lp1388
ssI2
(dp1389
I0
g1381
sI1
g1386
sI2
(lp1390
sI3
(lp1391
sI4
(lp1392
ssI3
(dp1393
I0
g1382
sI1
g1387
sI2
g1391
sI3
(lp1394
sI4
(lp1395
ssI4
(dp1396
I0
g1383
sI1
g1388
sI2
g1392
sI3
g1395
sI4
(lp1397
ssa(dp1398
I0
(dp1399
I0
(lp1400
sI1
(lp1401
sI2
(lp1402
sI3
(lp1403
sI4
(lp1404
ssI1
(dp1405
I0
g1401
sI1
(lp1406
sI2
(lp1407
sI3
(lp1408
sI4
(lp1409
ssI2
(dp1410
I0
g1402
sI1
g1407
sI2
(lp1411
sI3
(lp1412
sI4
(lp1413
ssI3
(dp1414
I0
g1403
sI1
g1408
sI2
g1412
sI3
(lp1415
sI4
(lp1416
ssI4
(dp1417
I0
g1404
sI1
g1409
sI2
g1413
sI3
g1416
sI4
(lp1418
ssa(dp1419
I0
(dp1420
I0
(lp1421
sI1
(lp1422
sI2
(lp1423
sI3
(lp1424
Vhttp://dbpedia.org/property/currency
p1425
aVhttp://xmlns.com/foaf/0.1/primaryTopic
p1426
aVhttp://dbpedia.org/property/issuingAuthority
p1427
aVhttp://purl.org/dc/terms/subject
p1428
aVhttp://www.w3.org/2000/01/rdf-schema#comment
p1429
aVhttp://dbpedia.org/ontology/abstract
p1430
aVhttp://xmlns.com/foaf/0.1/depiction
p1431
aVhttp://dbpedia.org/ontology/wikiPageRedirects
p1432
aVhttp://dbpedia.org/property/image
p1433
aVhttp://xmlns.com/foaf/0.1/isPrimaryTopicOf
p1434
aVhttp://www.w3.org/ns/prov#wasDerivedFrom
p1435
aVhttp://dbpedia.org/property/hasPhotoCollection
p1436
aVhttp://www.w3.org/2000/01/rdf-schema#label
p1437
aVhttp://www.w3.org/2002/07/owl#sameAs
p1438
aVhttp://dbpedia.org/ontology/thumbnail
p1439
asI4
(lp1440
ssI1
(dp1441
I0
g1422
sI1
(lp1442
sI2
(lp1443
sI3
(lp1444
Vhttp://dbpedia.org/ontology/abstract
p1445
aVhttp://www.w3.org/2000/01/rdf-schema#label
p1446
aVhttp://www.w3.org/2000/01/rdf-schema#comment
p1447
asI4
(lp1448
ssI2
(dp1449
I0
g1423
sI1
g1443
sI2
(lp1450
sI3
(lp1451
Vhttp://dbpedia.org/ontology/wikiPageExternalLink
p1452
aVhttp://dbpedia.org/property/inflationSourceDate
p1453
aVhttp://www.w3.org/2000/01/rdf-schema#comment
p1454
aVhttp://dbpedia.org/ontology/abstract
p1455
aVhttp://dbpedia.org/property/isoCode
p1456
aVhttp://dbpedia.org/ontology/wikiPageRedirects
p1457
aVhttp://dbpedia.org/property/issuingAuthorityWebsite
p1458
aVhttp://www.w3.org/2000/01/rdf-schema#label
p1459
asI4
(lp1460
ssI3
(dp1461
I0
g1424
sI1
g1444
sI2
g1451
sI3
(lp1462
sI4
(lp1463
Vhttp://dbpedia.org/ontology/abstract
p1464
aVhttp://dbpedia.org/property/isoCode
p1465
aVhttp://dbpedia.org/ontology/wikiPageRedirects
p1466
aVhttp://www.w3.org/2000/01/rdf-schema#comment
p1467
assI4
(dp1468
I0
g1440
sI1
g1448
sI2
g1460
sI3
g1463
sI4
(lp1469
ssa(dp1470
I0
(dp1471
I0
(lp1472
sI1
(lp1473
sI2
(lp1474
sI3
(lp1475
sI4
(lp1476
ssI1
(dp1477
I0
g1473
sI1
(lp1478
sI2
(lp1479
sI3
(lp1480
sI4
(lp1481
ssI2
(dp1482
I0
g1474
sI1
g1479
sI2
(lp1483
sI3
(lp1484
sI4
(lp1485
ssI3
(dp1486
I0
g1475
sI1
g1480
sI2
g1484
sI3
(lp1487
sI4
(lp1488
ssI4
(dp1489
I0
g1476
sI1
g1481
sI2
g1485
sI3
g1488
sI4
(lp1490
ssa(dp1491
I0
(dp1492
I0
(lp1493
sI1
(lp1494
sI2
(lp1495
sI3
(lp1496
sI4
(lp1497
ssI1
(dp1498
I0
g1494
sI1
(lp1499
sI2
(lp1500
sI3
(lp1501
sI4
(lp1502
ssI2
(dp1503
I0
g1495
sI1
g1500
sI2
(lp1504
sI3
(lp1505
sI4
(lp1506
ssI3
(dp1507
I0
g1496
sI1
g1501
sI2
g1505
sI3
(lp1508
sI4
(lp1509
ssI4
(dp1510
I0
g1497
sI1
g1502
sI2
g1506
sI3
g1509
sI4
(lp1511
ssa(dp1512
I0
(dp1513
I0
(lp1514
sI1
(lp1515
sI2
(lp1516
sI3
(lp1517
sI4
(lp1518
ssI1
(dp1519
I0
g1515
sI1
(lp1520
sI2
(lp1521
sI3
(lp1522
sI4
(lp1523
ssI2
(dp1524
I0
g1516
sI1
g1521
sI2
(lp1525
sI3
(lp1526
sI4
(lp1527
ssI3
(dp1528
I0
g1517
sI1
g1522
sI2
g1526
sI3
(lp1529
sI4
(lp1530
ssI4
(dp1531
I0
g1518
sI1
g1523
sI2
g1527
sI3
g1530
sI4
(lp1532
ssa(dp1533
I0
(dp1534
I0
(lp1535
sI1
(lp1536
sI2
(lp1537
sI3
(lp1538
sI4
(lp1539
ssI1
(dp1540
I0
g1536
sI1
(lp1541
sI2
(lp1542
sI3
(lp1543
sI4
(lp1544
ssI2
(dp1545
I0
g1537
sI1
g1542
sI2
(lp1546
sI3
(lp1547
sI4
(lp1548
ssI3
(dp1549
I0
g1538
sI1
g1543
sI2
g1547
sI3
(lp1550
sI4
(lp1551
ssI4
(dp1552
I0
g1539
sI1
g1544
sI2
g1548
sI3
g1551
sI4
(lp1553
ssa(dp1554
I0
(dp1555
I0
(lp1556
sI1
(lp1557
sI2
(lp1558
sI3
(lp1559
sI4
(lp1560
ssI1
(dp1561
I0
g1557
sI1
(lp1562
sI2
(lp1563
sI3
(lp1564
sI4
(lp1565
ssI2
(dp1566
I0
g1558
sI1
g1563
sI2
(lp1567
sI3
(lp1568
sI4
(lp1569
ssI3
(dp1570
I0
g1559
sI1
g1564
sI2
g1568
sI3
(lp1571
sI4
(lp1572
ssI4
(dp1573
I0
g1560
sI1
g1565
sI2
g1569
sI3
g1572
sI4
(lp1574
ssa(dp1575
I0
(dp1576
I0
(lp1577
sI1
(lp1578
sI2
(lp1579
sI3
(lp1580
sI4
(lp1581
ssI1
(dp1582
I0
g1578
sI1
(lp1583
sI2
(lp1584
sI3
(lp1585
sI4
(lp1586
ssI2
(dp1587
I0
g1579
sI1
g1584
sI2
(lp1588
sI3
(lp1589
sI4
(lp1590
ssI3
(dp1591
I0
g1580
sI1
g1585
sI2
g1589
sI3
(lp1592
sI4
(lp1593
ssI4
(dp1594
I0
g1581
sI1
g1586
sI2
g1590
sI3
g1593
sI4
(lp1595
ssa(dp1596
I0
(dp1597
I0
(lp1598
sI1
(lp1599
sI2
(lp1600
sI3
(lp1601
sI4
(lp1602
ssI1
(dp1603
I0
g1599
sI1
(lp1604
sI2
(lp1605
sI3
(lp1606
sI4
(lp1607
ssI2
(dp1608
I0
g1600
sI1
g1605
sI2
(lp1609
sI3
(lp1610
sI4
(lp1611
ssI3
(dp1612
I0
g1601
sI1
g1606
sI2
g1610
sI3
(lp1613
sI4
(lp1614
ssI4
(dp1615
I0
g1602
sI1
g1607
sI2
g1611
sI3
g1614
sI4
(lp1616
ssa(dp1617
I0
(dp1618
I0
(lp1619
sI1
(lp1620
sI2
(lp1621
sI3
(lp1622
sI4
(lp1623
ssI1
(dp1624
I0
g1620
sI1
(lp1625
sI2
(lp1626
sI3
(lp1627
sI4
(lp1628
ssI2
(dp1629
I0
g1621
sI1
g1626
sI2
(lp1630
sI3
(lp1631
sI4
(lp1632
ssI3
(dp1633
I0
g1622
sI1
g1627
sI2
g1631
sI3
(lp1634
sI4
(lp1635
ssI4
(dp1636
I0
g1623
sI1
g1628
sI2
g1632
sI3
g1635
sI4
(lp1637
ssa(dp1638
I0
(dp1639
I0
(lp1640
sI1
(lp1641
sI2
(lp1642
sI3
(lp1643
sI4
(lp1644
ssI1
(dp1645
I0
g1641
sI1
(lp1646
sI2
(lp1647
sI3
(lp1648
sI4
(lp1649
ssI2
(dp1650
I0
g1642
sI1
g1647
sI2
(lp1651
sI3
(lp1652
sI4
(lp1653
ssI3
(dp1654
I0
g1643
sI1
g1648
sI2
g1652
sI3
(lp1655
sI4
(lp1656
ssI4
(dp1657
I0
g1644
sI1
g1649
sI2
g1653
sI3
g1656
sI4
(lp1658
ssa(dp1659
I0
(dp1660
I0
(lp1661
sI1
(lp1662
sI2
(lp1663
sI3
(lp1664
sI4
(lp1665
ssI1
(dp1666
I0
g1662
sI1
(lp1667
sI2
(lp1668
sI3
(lp1669
sI4
(lp1670
ssI2
(dp1671
I0
g1663
sI1
g1668
sI2
(lp1672
sI3
(lp1673
sI4
(lp1674
ssI3
(dp1675
I0
g1664
sI1
g1669
sI2
g1673
sI3
(lp1676
sI4
(lp1677
ssI4
(dp1678
I0
g1665
sI1
g1670
sI2
g1674
sI3
g1677
sI4
(lp1679
ssa(dp1680
I0
(dp1681
I0
(lp1682
sI1
(lp1683
sI2
(lp1684
sI3
(lp1685
sI4
(lp1686
ssI1
(dp1687
I0
g1683
sI1
(lp1688
sI2
(lp1689
sI3
(lp1690
sI4
(lp1691
ssI2
(dp1692
I0
g1684
sI1
g1689
sI2
(lp1693
sI3
(lp1694
sI4
(lp1695
ssI3
(dp1696
I0
g1685
sI1
g1690
sI2
g1694
sI3
(lp1697
sI4
(lp1698
ssI4
(dp1699
I0
g1686
sI1
g1691
sI2
g1695
sI3
g1698
sI4
(lp1700
ssa(dp1701
I0
(dp1702
I0
(lp1703
sI1
(lp1704
sI2
(lp1705
sI3
(lp1706
sI4
(lp1707
ssI1
(dp1708
I0
g1704
sI1
(lp1709
sI2
(lp1710
sI3
(lp1711
sI4
(lp1712
ssI2
(dp1713
I0
g1705
sI1
g1710
sI2
(lp1714
sI3
(lp1715
sI4
(lp1716
ssI3
(dp1717
I0
g1706
sI1
g1711
sI2
g1715
sI3
(lp1718
sI4
(lp1719
ssI4
(dp1720
I0
g1707
sI1
g1712
sI2
g1716
sI3
g1719
sI4
(lp1721
ssa(dp1722
I0
(dp1723
I0
(lp1724
sI1
(lp1725
sI2
(lp1726
sI3
(lp1727
sI4
(lp1728
ssI1
(dp1729
I0
g1725
sI1
(lp1730
sI2
(lp1731
sI3
(lp1732
sI4
(lp1733
ssI2
(dp1734
I0
g1726
sI1
g1731
sI2
(lp1735
sI3
(lp1736
sI4
(lp1737
ssI3
(dp1738
I0
g1727
sI1
g1732
sI2
g1736
sI3
(lp1739
sI4
(lp1740
ssI4
(dp1741
I0
g1728
sI1
g1733
sI2
g1737
sI3
g1740
sI4
(lp1742
ssa(dp1743
I0
(dp1744
I0
(lp1745
sI1
(lp1746
sI2
(lp1747
sI3
(lp1748
sI4
(lp1749
ssI1
(dp1750
I0
g1746
sI1
(lp1751
sI2
(lp1752
sI3
(lp1753
sI4
(lp1754
ssI2
(dp1755
I0
g1747
sI1
g1752
sI2
(lp1756
sI3
(lp1757
sI4
(lp1758
ssI3
(dp1759
I0
g1748
sI1
g1753
sI2
g1757
sI3
(lp1760
sI4
(lp1761
ssI4
(dp1762
I0
g1749
sI1
g1754
sI2
g1758
sI3
g1761
sI4
(lp1763
ssa(dp1764
I0
(dp1765
I0
(lp1766
sI1
(lp1767
sI2
(lp1768
sI3
(lp1769
sI4
(lp1770
ssI1
(dp1771
I0
g1767
sI1
(lp1772
sI2
(lp1773
sI3
(lp1774
sI4
(lp1775
ssI2
(dp1776
I0
g1768
sI1
g1773
sI2
(lp1777
sI3
(lp1778
sI4
(lp1779
ssI3
(dp1780
I0
g1769
sI1
g1774
sI2
g1778
sI3
(lp1781
sI4
(lp1782
ssI4
(dp1783
I0
g1770
sI1
g1775
sI2
g1779
sI3
g1782
sI4
(lp1784
ssa(dp1785
I0
(dp1786
I0
(lp1787
sI1
(lp1788
sI2
(lp1789
sI3
(lp1790
sI4
(lp1791
ssI1
(dp1792
I0
g1788
sI1
(lp1793
sI2
(lp1794
sI3
(lp1795
sI4
(lp1796
ssI2
(dp1797
I0
g1789
sI1
g1794
sI2
(lp1798
sI3
(lp1799
sI4
(lp1800
ssI3
(dp1801
I0
g1790
sI1
g1795
sI2
g1799
sI3
(lp1802
sI4
(lp1803
ssI4
(dp1804
I0
g1791
sI1
g1796
sI2
g1800
sI3
g1803
sI4
(lp1805
ssa(dp1806
I0
(dp1807
I0
(lp1808
sI1
(lp1809
sI2
(lp1810
sI3
(lp1811
sI4
(lp1812
ssI1
(dp1813
I0
g1809
sI1
(lp1814
sI2
(lp1815
sI3
(lp1816
sI4
(lp1817
ssI2
(dp1818
I0
g1810
sI1
g1815
sI2
(lp1819
sI3
(lp1820
sI4
(lp1821
ssI3
(dp1822
I0
g1811
sI1
g1816
sI2
g1820
sI3
(lp1823
sI4
(lp1824
ssI4
(dp1825
I0
g1812
sI1
g1817
sI2
g1821
sI3
g1824
sI4
(lp1826
ssa(dp1827
I0
(dp1828
I0
(lp1829
sI1
(lp1830
sI2
(lp1831
sI3
(lp1832
sI4
(lp1833
ssI1
(dp1834
I0
g1830
sI1
(lp1835
sI2
(lp1836
sI3
(lp1837
sI4
(lp1838
ssI2
(dp1839
I0
g1831
sI1
g1836
sI2
(lp1840
sI3
(lp1841
sI4
(lp1842
ssI3
(dp1843
I0
g1832
sI1
g1837
sI2
g1841
sI3
(lp1844
sI4
(lp1845
ssI4
(dp1846
I0
g1833
sI1
g1838
sI2
g1842
sI3
g1845
sI4
(lp1847
ssa(dp1848
I0
(dp1849
I0
(lp1850
sI1
(lp1851
sI2
(lp1852
sI3
(lp1853
sI4
(lp1854
ssI1
(dp1855
I0
g1851
sI1
(lp1856
sI2
(lp1857
sI3
(lp1858
sI4
(lp1859
ssI2
(dp1860
I0
g1852
sI1
g1857
sI2
(lp1861
sI3
(lp1862
sI4
(lp1863
ssI3
(dp1864
I0
g1853
sI1
g1858
sI2
g1862
sI3
(lp1865
sI4
(lp1866
ssI4
(dp1867
I0
g1854
sI1
g1859
sI2
g1863
sI3
g1866
sI4
(lp1868
ssa(dp1869
I0
(dp1870
I0
(lp1871
sI1
(lp1872
sI2
(lp1873
sI3
(lp1874
sI4
(lp1875
ssI1
(dp1876
I0
g1872
sI1
(lp1877
sI2
(lp1878
sI3
(lp1879
sI4
(lp1880
ssI2
(dp1881
I0
g1873
sI1
g1878
sI2
(lp1882
sI3
(lp1883
sI4
(lp1884
ssI3
(dp1885
I0
g1874
sI1
g1879
sI2
g1883
sI3
(lp1886
sI4
(lp1887
ssI4
(dp1888
I0
g1875
sI1
g1880
sI2
g1884
sI3
g1887
sI4
(lp1889
ssa(dp1890
I0
(dp1891
I0
(lp1892
sI1
(lp1893
sI2
(lp1894
sI3
(lp1895
sI4
(lp1896
ssI1
(dp1897
I0
g1893
sI1
(lp1898
sI2
(lp1899
sI3
(lp1900
sI4
(lp1901
ssI2
(dp1902
I0
g1894
sI1
g1899
sI2
(lp1903
sI3
(lp1904
sI4
(lp1905
ssI3
(dp1906
I0
g1895
sI1
g1900
sI2
g1904
sI3
(lp1907
sI4
(lp1908
ssI4
(dp1909
I0
g1896
sI2
g1905
sI3
g1908
sI4
(lp1910
ssa(dp1911
I0
(dp1912
I0
(lp1913
sI1
(lp1914
sI2
(lp1915
sI3
(lp1916
sI4
(lp1917
ssI1
(dp1918
I0
g1914
sI1
(lp1919
sI2
(lp1920
sI3
(lp1921
sI4
(lp1922
ssI2
(dp1923
I0
g1915
sI1
g1920
sI2
(lp1924
sI3
(lp1925
sI4
(lp1926
ssI3
(dp1927
I0
g1916
sI1
g1921
sI2
g1925
sI3
(lp1928
sI4
(lp1929
ssI4
(dp1930
I0
g1917
sI1
g1922
sI2
g1926
sI3
g1929
sI4
(lp1931
ssa(dp1932
I0
(dp1933
I0
(lp1934
sI1
(lp1935
sI2
(lp1936
sI3
(lp1937
sI4
(lp1938
ssI1
(dp1939
I0
g1935
sI1
(lp1940
sI2
(lp1941
sI3
(lp1942
sI4
(lp1943
ssI2
(dp1944
I0
g1936
sI1
g1941
sI2
(lp1945
sI3
(lp1946
sI4
(lp1947
ssI3
(dp1948
I0
g1937
sI1
g1942
sI2
g1946
sI3
(lp1949
sI4
(lp1950
ssI4
(dp1951
I0
g1938
sI1
g1943
sI2
g1947
sI3
g1950
sI4
(lp1952
ssa(dp1953
I0
(dp1954
I0
(lp1955
sI1
(lp1956
sI2
(lp1957
sI3
(lp1958
sI4
(lp1959
ssI1
(dp1960
I0
g1956
sI1
(lp1961
sI2
(lp1962
sI3
(lp1963
sI4
(lp1964
ssI2
(dp1965
I0
g1957
sI1
g1962
sI2
(lp1966
sI3
(lp1967
sI4
(lp1968
ssI3
(dp1969
I0
g1958
sI1
g1963
sI2
g1967
sI3
(lp1970
sI4
(lp1971
ssI4
(dp1972
I0
g1959
sI1
g1964
sI2
g1968
sI3
g1971
sI4
(lp1973
ssa(dp1974
I0
(dp1975
I0
(lp1976
sI1
(lp1977
sI2
(lp1978
sI3
(lp1979
sI4
(lp1980
ssI1
(dp1981
I0
g1977
sI1
(lp1982
sI2
(lp1983
sI3
(lp1984
sI4
(lp1985
ssI2
(dp1986
I0
g1978
sI1
g1983
sI2
(lp1987
sI3
(lp1988
sI4
(lp1989
ssI3
(dp1990
I0
g1979
sI1
g1984
sI2
g1988
sI3
(lp1991
sI4
(lp1992
ssI4
(dp1993
I0
g1980
sI1
g1985
sI2
g1989
sI3
g1992
sI4
(lp1994
ssa(dp1995
I0
(dp1996
I0
(lp1997
sI1
(lp1998
sI2
(lp1999
sI3
(lp2000
sI4
(lp2001
ssI1
(dp2002
I0
g1998
sI1
(lp2003
sI2
(lp2004
sI3
(lp2005
sI4
(lp2006
ssI2
(dp2007
I0
g1999
sI1
g2004
sI2
(lp2008
sI3
(lp2009
sI4
(lp2010
ssI3
(dp2011
I0
g2000
sI1
g2005
sI2
g2009
sI3
(lp2012
sI4
(lp2013
ssI4
(dp2014
I0
g2001
sI1
g2006
sI2
g2010
sI3
g2013
sI4
(lp2015
ssa(dp2016
I0
(dp2017
I0
(lp2018
sI1
(lp2019
sI2
(lp2020
sI3
(lp2021
sI4
(lp2022
ssI1
(dp2023
I0
g2019
sI1
(lp2024
sI2
(lp2025
sI3
(lp2026
sI4
(lp2027
ssI2
(dp2028
I0
g2020
sI1
g2025
sI2
(lp2029
sI3
(lp2030
sI4
(lp2031
ssI3
(dp2032
I0
g2021
sI1
g2026
sI2
g2030
sI3
(lp2033
sI4
(lp2034
ssI4
(dp2035
I0
g2022
sI1
g2027
sI2
g2031
sI3
g2034
sI4
(lp2036
ssa(dp2037
I0
(dp2038
I0
(lp2039
sI1
(lp2040
sI2
(lp2041
sI3
(lp2042
sI4
(lp2043
ssI1
(dp2044
I0
g2040
sI1
(lp2045
sI2
(lp2046
sI3
(lp2047
sI4
(lp2048
ssI2
(dp2049
I0
g2041
sI1
g2046
sI2
(lp2050
sI3
(lp2051
sI4
(lp2052
ssI3
(dp2053
I0
g2042
sI1
g2047
sI2
g2051
sI3
(lp2054
sI4
(lp2055
ssI4
(dp2056
I0
g2043
sI1
g2048
sI2
g2052
sI3
g2055
sI4
(lp2057
ssa(dp2058
I0
(dp2059
I0
(lp2060
sI1
(lp2061
sI2
(lp2062
sI3
(lp2063
sI4
(lp2064
ssI1
(dp2065
I0
g2061
sI1
(lp2066
sI2
(lp2067
sI3
(lp2068
sI4
(lp2069
ssI2
(dp2070
I0
g2062
sI1
g2067
sI2
(lp2071
sI3
(lp2072
sI4
(lp2073
ssI3
(dp2074
I0
g2063
sI1
g2068
sI2
g2072
sI3
(lp2075
sI4
(lp2076
ssI4
(dp2077
I0
g2064
sI1
g2069
sI2
g2073
sI3
g2076
sI4
(lp2078
ssa(dp2079
I0
(dp2080
I0
(lp2081
sI1
(lp2082
sI2
(lp2083
sI3
(lp2084
sI4
(lp2085
ssI1
(dp2086
I0
g2082
sI1
(lp2087
sI2
(lp2088
sI3
(lp2089
sI4
(lp2090
ssI2
(dp2091
I0
g2083
sI1
g2088
sI2
(lp2092
sI3
(lp2093
sI4
(lp2094
ssI3
(dp2095
I0
g2084
sI1
g2089
sI2
g2093
sI3
(lp2096
sI4
(lp2097
ssI4
(dp2098
I0
g2085
sI1
g2090
sI2
g2094
sI3
g2097
sI4
(lp2099
ssa(dp2100
I0
(dp2101
I0
(lp2102
sI1
(lp2103
sI2
(lp2104
sI3
(lp2105
sI4
(lp2106
ssI1
(dp2107
I0
g2103
sI1
(lp2108
sI2
(lp2109
sI3
(lp2110
sI4
(lp2111
ssI2
(dp2112
I0
g2104
sI1
g2109
sI2
(lp2113
sI3
(lp2114
sI4
(lp2115
ssI3
(dp2116
I0
g2105
sI1
g2110
sI2
g2114
sI3
(lp2117
sI4
(lp2118
ssI4
(dp2119
I0
g2106
sI1
g2111
sI2
g2115
sI3
g2118
sI4
(lp2120
ssa(dp2121
I0
(dp2122
I0
(lp2123
sI1
(lp2124
sI2
(lp2125
sI3
(lp2126
sI4
(lp2127
ssI1
(dp2128
I0
g2124
sI1
(lp2129
sI2
(lp2130
sI3
(lp2131
sI4
(lp2132
ssI2
(dp2133
I0
g2125
sI1
g2130
sI2
(lp2134
sI3
(lp2135
sI4
(lp2136
ssI3
(dp2137
I0
g2126
sI1
g2131
sI2
g2135
sI3
(lp2138
sI4
(lp2139
ssI4
(dp2140
I0
g2127
sI1
g2132
sI2
g2136
sI3
g2139
sI4
(lp2141
ssa(dp2142
I0
(dp2143
I0
(lp2144
sI1
(lp2145
sI2
(lp2146
sI3
(lp2147
Vhttp://purl.org/dc/terms/subject
p2148
aVhttp://www.w3.org/2000/01/rdf-schema#comment
p2149
aVhttp://dbpedia.org/ontology/abstract
p2150
aVhttp://dbpedia.org/ontology/wikiPageRedirects
p2151
aVhttp://www.w3.org/2000/01/rdf-schema#label
p2152
aVhttp://www.w3.org/2002/07/owl#sameAs
p2153
asI4
(lp2154
ssI1
(dp2155
I0
g2145
sI1
(lp2156
sI2
(lp2157
sI3
(lp2158
Vhttp://xmlns.com/foaf/0.1/primaryTopic
p2159
aVhttp://purl.org/dc/terms/subject
p2160
aVhttp://www.w3.org/2000/01/rdf-schema#comment
p2161
aVhttp://dbpedia.org/ontology/abstract
p2162
aVhttp://dbpedia.org/ontology/wikiPageRedirects
p2163
aVhttp://xmlns.com/foaf/0.1/isPrimaryTopicOf
p2164
aVhttp://www.w3.org/ns/prov#wasDerivedFrom
p2165
aVhttp://dbpedia.org/property/hasPhotoCollection
p2166
aVhttp://www.w3.org/2000/01/rdf-schema#label
p2167
aVhttp://www.w3.org/2002/07/owl#sameAs
p2168
asI4
(lp2169
ssI2
(dp2170
I0
g2146
sI1
g2157
sI2
(lp2171
sI3
(lp2172
sI4
(lp2173
ssI3
(dp2174
I0
g2147
sI1
g2158
sI2
g2172
sI3
(lp2175
sI4
(lp2176
ssI4
(dp2177
I0
g2154
sI1
g2169
sI2
g2173
sI3
g2176
sI4
(lp2178
ssa(dp2179
I0
(dp2180
I0
(lp2181
sI1
(lp2182
sI2
(lp2183
sI3
(lp2184
sI4
(lp2185
ssI1
(dp2186
I0
g2182
sI1
(lp2187
sI2
(lp2188
sI3
(lp2189
sI4
(lp2190
ssI2
(dp2191
I0
g2183
sI1
g2188
sI2
(lp2192
sI3
(lp2193
sI4
(lp2194
ssI3
(dp2195
I0
g2184
sI1
g2189
sI2
g2193
sI3
(lp2196
sI4
(lp2197
ssI4
(dp2198
I0
g2185
sI1
g2190
sI2
g2194
sI3
g2197
sI4
(lp2199
ssa(dp2200
I0
(dp2201
I0
(lp2202
sI1
(lp2203
sI2
(lp2204
sI3
(lp2205
sI4
(lp2206
ssI1
(dp2207
I0
g2203
sI1
(lp2208
sI2
(lp2209
sI3
(lp2210
sI4
(lp2211
ssI2
(dp2212
I0
g2204
sI1
g2209
sI2
(lp2213
sI3
(lp2214
sI4
(lp2215
ssI3
(dp2216
I0
g2205
sI1
g2210
sI2
g2214
sI3
(lp2217
sI4
(lp2218
ssI4
(dp2219
I0
g2206
sI1
g2211
sI2
g2215
sI3
g2218
sI4
(lp2220
ssa(dp2221
I0
(dp2222
I0
(lp2223
sI1
(lp2224
Vhttp://dbpedia.org/ontology/wikiPageDisambiguates
p2225
aVhttp://dbpedia.org/property/countryCode
p2226
asI2
(lp2227
Vhttp://www.w3.org/2000/01/rdf-schema#seeAlso
p2228
aVhttp://dbpedia.org/property/origin
p2229
aVhttp://dbpedia.org/property/recorded
p2230
aVhttp://dbpedia.org/property/cctld
p2231
aVhttp://dbpedia.org/ontology/foundationPlace
p2232
aVhttp://dbpedia.org/property/base
p2233
aVhttp://dbpedia.org/ontology/country
p2234
aVhttp://dbpedia.org/ontology/nationality
p2235
aVhttp://dbpedia.org/property/locationCountry
p2236
aVhttp://dbpedia.org/property/broadcastArea
p2237
aVhttp://dbpedia.org/property/subdivisionName
p2238
aVhttp://dbpedia.org/ontology/isPartOf
p2239
aVhttp://dbpedia.org/property/source
p2240
aVhttp://dbpedia.org/property/birthPlace
p2241
aVhttp://dbpedia.org/ontology/place
p2242
aVhttp://dbpedia.org/property/placeOfBirth
p2243
aVhttp://dbpedia.org/property/countryCode
p2244
aVhttp://dbpedia.org/property/country
p2245
aVhttp://dbpedia.org/property/shipCountry
p2246
aVhttp://dbpedia.org/ontology/wikiPageDisambiguates
p2247
aVhttp://dbpedia.org/ontology/wikiPageExternalLink
p2248
aVhttp://dbpedia.org/property/iso3166code
p2249
aVhttp://dbpedia.org/property/nationality
p2250
aVhttp://dbpedia.org/ontology/abstract
p2251
aVhttp://dbpedia.org/ontology/recordedIn
p2252
aVhttp://dbpedia.org/property/deathPlace
p2253
aVhttp://dbpedia.org/property/location
p2254
aVhttp://dbpedia.org/ontology/locationCountry
p2255
aVhttp://dbpedia.org/ontology/deathPlace
p2256
aVhttp://dbpedia.org/property/foundation
p2257
aVhttp://dbpedia.org/property/usedBy
p2258
aVhttp://dbpedia.org/property/availability
p2259
aVhttp://dbpedia.org/ontology/location
p2260
aVhttp://dbpedia.org/property/headquarters
p2261
aVhttp://www.w3.org/2000/01/rdf-schema#comment
p2262
aVhttp://dbpedia.org/ontology/birthPlace
p2263
aVhttp://dbpedia.org/ontology/wikiPageRedirects
p2264
aVhttp://dbpedia.org/ontology/hometown
p2265
aVhttp://www.w3.org/2004/02/skos/core#exactMatch
p2266
aVhttp://www.w3.org/2002/07/owl#sameAs
p2267
aVhttp://dbpedia.org/ontology/builder
p2268
aVhttp://xmlns.com/foaf/0.1/homepage
p2269
aVhttp://dbpedia.org/ontology/headquarter
p2270
aVhttp://dbpedia.org/ontology/stateOfOrigin
p2271
aVhttp://dbpedia.org/property/stadium
p2272
aVhttp://dbpedia.org/property/id
p2273
asI3
(lp2274
sI4
(lp2275
ssI1
(dp2276
I0
g2224
sI1
(lp2277
sI2
(lp2278
sI3
(lp2279
sI4
(lp2280
ssI2
(dp2281
I0
g2227
sI1
g2278
sI2
(lp2282
sI3
(lp2283
sI4
(lp2284
ssI3
(dp2285
I0
g2274
sI1
g2279
sI2
g2283
sI3
(lp2286
sI4
(lp2287
ssI4
(dp2288
I0
g2275
sI1
g2280
sI2
g2284
sI3
g2287
sI4
(lp2289
ssa(dp2290
I0
(dp2291
I0
(lp2292
sI1
(lp2293
sI2
(lp2294
sI3
(lp2295
sI4
(lp2296
ssI1
(dp2297
I0
g2293
sI1
(lp2298
sI2
(lp2299
sI3
(lp2300
sI4
(lp2301
ssI2
(dp2302
I0
g2294
sI1
g2299
sI2
(lp2303
sI3
(lp2304
sI4
(lp2305
ssI3
(dp2306
I0
g2295
sI1
g2300
sI2
g2304
sI3
(lp2307
sI4
(lp2308
ssI4
(dp2309
I0
g2296
sI1
g2301
sI2
g2305
sI3
g2308
sI4
(lp2310
ssa(dp2311
I0
(dp2312
I0
(lp2313
sI1
(lp2314
sI2
(lp2315
sI3
(lp2316
sI4
(lp2317
ssI1
(dp2318
I0
g2314
sI1
(lp2319
sI2
(lp2320
sI3
(lp2321
sI4
(lp2322
ssI2
(dp2323
I0
g2315
sI1
g2320
sI2
(lp2324
sI3
(lp2325
sI4
(lp2326
ssI3
(dp2327
I0
g2316
sI1
g2321
sI2
g2325
sI3
(lp2328
sI4
(lp2329
ssI4
(dp2330
I0
g2317
sI1
g2322
sI2
g2326
sI3
g2329
sI4
(lp2331
ssa(dp2332
I0
(dp2333
I0
(lp2334
sI1
(lp2335
sI2
(lp2336
sI3
(lp2337
sI4
(lp2338
ssI1
(dp2339
I0
g2335
sI1
(lp2340
sI2
(lp2341
sI3
(lp2342
sI4
(lp2343
ssI2
(dp2344
I0
g2336
sI1
g2341
sI2
(lp2345
sI3
(lp2346
sI4
(lp2347
ssI3
(dp2348
I0
g2337
sI1
g2342
sI2
g2346
sI3
(lp2349
sI4
(lp2350
ssI4
(dp2351
I0
g2338
sI1
g2343
sI2
g2347
sI3
g2350
sI4
(lp2352
ssa(dp2353
I0
(dp2354
I0
(lp2355
sI1
(lp2356
sI2
(lp2357
sI3
(lp2358
sI4
(lp2359
ssI1
(dp2360
I0
g2356
sI1
(lp2361
sI2
(lp2362
sI3
(lp2363
sI4
(lp2364
ssI2
(dp2365
I0
g2357
sI1
g2362
sI2
(lp2366
sI3
(lp2367
sI4
(lp2368
ssI3
(dp2369
I0
g2358
sI1
g2363
sI2
g2367
sI3
(lp2370
sI4
(lp2371
ssI4
(dp2372
I0
g2359
sI1
g2364
sI2
g2368
sI3
g2371
sI4
(lp2373
ssa(dp2374
I0
(dp2375
I0
(lp2376
sI1
(lp2377
sI2
(lp2378
sI3
(lp2379
sI4
(lp2380
ssI1
(dp2381
I0
g2377
sI1
(lp2382
sI2
(lp2383
sI3
(lp2384
sI4
(lp2385
ssI2
(dp2386
I0
g2378
sI1
g2383
sI2
(lp2387
sI3
(lp2388
sI4
(lp2389
ssI3
(dp2390
I0
g2379
sI1
g2384
sI2
g2388
sI3
(lp2391
sI4
(lp2392
ssI4
(dp2393
I0
g2380
sI1
g2385
sI2
g2389
sI3
g2392
sI4
(lp2394
ssa(dp2395
I0
(dp2396
I0
(lp2397
sI1
(lp2398
sI2
(lp2399
sI3
(lp2400
sI4
(lp2401
ssI1
(dp2402
I0
g2398
sI1
(lp2403
sI2
(lp2404
sI3
(lp2405
sI4
(lp2406
ssI2
(dp2407
I0
g2399
sI1
g2404
sI2
(lp2408
sI3
(lp2409
sI4
(lp2410
ssI3
(dp2411
I0
g2400
sI1
g2405
sI2
g2409
sI3
(lp2412
sI4
(lp2413
ssI4
(dp2414
I0
g2401
sI1
g2406
sI2
g2410
sI3
g2413
sI4
(lp2415
ssa(dp2416
I0
(dp2417
I0
(lp2418
sI1
(lp2419
sI2
(lp2420
sI3
(lp2421
sI4
(lp2422
ssI1
(dp2423
I0
g2419
sI1
(lp2424
sI2
(lp2425
sI3
(lp2426
sI4
(lp2427
ssI2
(dp2428
I0
g2420
sI1
g2425
sI2
(lp2429
sI3
(lp2430
sI4
(lp2431
ssI3
(dp2432
I0
g2421
sI1
g2426
sI2
g2430
sI3
(lp2433
sI4
(lp2434
ssI4
(dp2435
I0
g2422
sI1
g2427
sI2
g2431
sI3
g2434
sI4
(lp2436
ssa(dp2437
I0
(dp2438
I0
(lp2439
sI1
(lp2440
sI2
(lp2441
sI3
(lp2442
sI4
(lp2443
ssI1
(dp2444
I0
g2440
sI1
(lp2445
sI2
(lp2446
sI3
(lp2447
sI4
(lp2448
ssI2
(dp2449
I0
g2441
sI1
g2446
sI2
(lp2450
sI3
(lp2451
sI4
(lp2452
ssI3
(dp2453
I0
g2442
sI1
g2447
sI2
g2451
sI3
(lp2454
sI4
(lp2455
ssI4
(dp2456
I0
g2443
sI1
g2448
sI2
g2452
sI3
g2455
sI4
(lp2457
ssa(dp2458
I0
(dp2459
I0
(lp2460
sI1
(lp2461
sI2
(lp2462
sI3
(lp2463
sI4
(lp2464
ssI1
(dp2465
I0
g2461
sI1
(lp2466
sI2
(lp2467
sI3
(lp2468
sI4
(lp2469
ssI2
(dp2470
I0
g2462
sI1
g2467
sI2
(lp2471
sI3
(lp2472
sI4
(lp2473
ssI3
(dp2474
I0
g2463
sI1
g2468
sI2
g2472
sI3
(lp2475
sI4
(lp2476
ssI4
(dp2477
I0
g2464
sI1
g2469
sI2
g2473
sI3
g2476
sI4
(lp2478
ssa(dp2479
I0
(dp2480
I0
(lp2481
sI1
(lp2482
sI2
(lp2483
sI3
(lp2484
sI4
(lp2485
ssI1
(dp2486
I0
g2482
sI1
(lp2487
sI2
(lp2488
sI3
(lp2489
sI4
(lp2490
ssI2
(dp2491
I0
g2483
sI1
g2488
sI2
(lp2492
sI3
(lp2493
sI4
(lp2494
ssI3
(dp2495
I0
g2484
sI1
g2489
sI2
g2493
sI3
(lp2496
sI4
(lp2497
ssI4
(dp2498
I0
g2485
sI1
g2490
sI2
g2494
sI3
g2497
sI4
(lp2499
ssa(dp2500
I0
(dp2501
I0
(lp2502
sI1
(lp2503
sI2
(lp2504
sI3
(lp2505
sI4
(lp2506
ssI1
(dp2507
I0
g2503
sI1
(lp2508
sI2
(lp2509
sI3
(lp2510
sI4
(lp2511
ssI2
(dp2512
I0
g2504
sI1
g2509
sI2
(lp2513
sI3
(lp2514
sI4
(lp2515
ssI3
(dp2516
I0
g2505
sI1
g2510
sI2
g2514
sI3
(lp2517
sI4
(lp2518
ssI4
(dp2519
I0
g2506
sI1
g2511
sI2
g2515
sI3
g2518
sI4
(lp2520
ssa(dp2521
I0
(dp2522
I0
(lp2523
sI1
(lp2524
Vhttp://dbpedia.org/ontology/wikiPageExternalLink
p2525
aVhttp://dbpedia.org/property/sportCode
p2526
aVhttp://dbpedia.org/property/imageMap
p2527
aVhttp://dbpedia.org/ontology/wikiPageDisambiguates
p2528
asI2
(lp2529
Vhttp://dbpedia.org/property/origin
p2530
aVhttp://dbpedia.org/property/placeOfDeath
p2531
aVhttp://dbpedia.org/ontology/type
p2532
aVhttp://dbpedia.org/property/awardedBy
p2533
aVhttp://dbpedia.org/property/cctld
p2534
aVhttp://dbpedia.org/property/city
p2535
aVhttp://dbpedia.org/ontology/garrison
p2536
aVhttp://www.w3.org/ns/prov#wasDerivedFrom
p2537
aVhttp://dbpedia.org/ontology/regionServed
p2538
aVhttp://dbpedia.org/property/broadcastArea
p2539
aVhttp://dbpedia.org/property/timeZone
p2540
aVhttp://xmlns.com/foaf/0.1/isPrimaryTopicOf
p2541
aVhttp://dbpedia.org/ontology/sales
p2542
aVhttp://dbpedia.org/property/establishedEvent
p2543
aVhttp://dbpedia.org/property/publishingCountry
p2544
aVhttp://dbpedia.org/ontology/residence
p2545
aVhttp://dbpedia.org/ontology/abstract
p2546
aVhttp://dbpedia.org/property/venue
p2547
aVhttp://dbpedia.org/property/imageMap
p2548
aVhttp://dbpedia.org/property/sportCode
p2549
aVhttp://dbpedia.org/ontology/location
p2550
aVhttp://dbpedia.org/property/area
p2551
aVhttp://dbpedia.org/ontology/hometown
p2552
aVhttp://dbpedia.org/ontology/spokenIn
p2553
aVhttp://dbpedia.org/property/jurisdiction
p2554
aVhttp://dbpedia.org/property/leaderTitle
p2555
aVhttp://www.w3.org/2000/01/rdf-schema#seeAlso
p2556
aVhttp://dbpedia.org/ontology/citizenship
p2557
aVhttp://dbpedia.org/property/description
p2558
aVhttp://dbpedia.org/property/conventionalLongName
p2559
aVhttp://dbpedia.org/ontology/foundationPlace
p2560
aVhttp://dbpedia.org/property/birthplace
p2561
aVhttp://dbpedia.org/property/base
p2562
aVhttp://dbpedia.org/property/legislature
p2563
aVhttp://dbpedia.org/ontology/locatedInArea
p2564
aVhttp://dbpedia.org/property/site
p2565
aVhttp://dbpedia.org/ontology/country
p2566
aVhttp://dbpedia.org/property/region
p2567
aVhttp://dbpedia.org/property/birthPlace
p2568
aVhttp://dbpedia.org/property/stateParty
p2569
aVhttp://dbpedia.org/property/country
p2570
aVhttp://dbpedia.org/property/areaServed
p2571
aVhttp://dbpedia.org/ontology/wikiPageExternalLink
p2572
aVhttp://xmlns.com/foaf/0.1/primaryTopic
p2573
aVhttp://dbpedia.org/property/location
p2574
aVhttp://dbpedia.org/property/states
p2575
aVhttp://dbpedia.org/property/founded
p2576
aVhttp://dbpedia.org/ontology/locationCountry
p2577
aVhttp://dbpedia.org/ontology/deathPlace
p2578
aVhttp://dbpedia.org/property/hasPhotoCollection
p2579
aVhttp://dbpedia.org/property/headquarters
p2580
aVhttp://dbpedia.org/property/countryName
p2581
aVhttp://dbpedia.org/ontology/birthPlace
p2582
aVhttp://dbpedia.org/ontology/wikiPageRedirects
p2583
aVhttp://dbpedia.org/property/imageCoat
p2584
aVhttp://xmlns.com/foaf/0.1/homepage
p2585
aVhttp://dbpedia.org/property/garrison
p2586
aVhttp://www.w3.org/2002/07/owl#sameAs
p2587
aVhttp://dbpedia.org/property/areas
p2588
aVhttp://dbpedia.org/ontology/origin
p2589
aVhttp://dbpedia.org/ontology/currency
p2590
aVhttp://dbpedia.org/property/residence
p2591
aVhttp://dbpedia.org/ontology/longName
p2592
aVhttp://www.w3.org/1999/02/22-rdf-syntax-ns#type
p2593
aVhttp://dbpedia.org/ontology/nationality
p2594
aVhttp://dbpedia.org/property/locationCountry
p2595
aVhttp://dbpedia.org/property/lowerHouse
p2596
aVhttp://dbpedia.org/ontology/archipelago
p2597
aVhttp://dbpedia.org/ontology/broadcastArea
p2598
aVhttp://dbpedia.org/property/placeOfBirth
p2599
aVhttp://dbpedia.org/property/archipelago
p2600
aVhttp://xmlns.com/foaf/0.1/depiction
p2601
aVhttp://dbpedia.org/ontology/usingCountry
p2602
aVhttp://dbpedia.org/ontology/thumbnail
p2603
aVhttp://dbpedia.org/ontology/flag
p2604
aVhttp://dbpedia.org/property/commonName
p2605
aVhttp://dbpedia.org/property/destination
p2606
aVhttp://dbpedia.org/property/otherSymbolType
p2607
aVhttp://dbpedia.org/property/url
p2608
aVhttp://dbpedia.org/property/stadium
p2609
aVhttp://dbpedia.org/property/place
p2610
aVhttp://dbpedia.org/property/mapCaption
p2611
aVhttp://dbpedia.org/property/callsignMeaning
p2612
aVhttp://dbpedia.org/property/territorialExtent
p2613
aVhttp://dbpedia.org/ontology/jurisdiction
p2614
aVhttp://dbpedia.org/property/footnoteA
p2615
aVhttp://dbpedia.org/property/caption
p2616
aVhttp://dbpedia.org/property/upperHouse
p2617
aVhttp://dbpedia.org/property/image
p2618
aVhttp://dbpedia.org/ontology/place
p2619
aVhttp://dbpedia.org/property/nationality
p2620
aVhttp://dbpedia.org/property/imageFlag
p2621
aVhttp://dbpedia.org/ontology/wikiPageDisambiguates
p2622
aVhttp://dbpedia.org/property/countryAdminDivisionsTitle
p2623
aVhttp://purl.org/dc/terms/subject
p2624
aVhttp://dbpedia.org/property/deathPlace
p2625
aVhttp://dbpedia.org/property/armiger
p2626
aVhttp://dbpedia.org/ontology/headquarter
p2627
aVhttp://dbpedia.org/property/foundation
p2628
aVhttp://www.w3.org/2000/01/rdf-schema#label
p2629
aVhttp://dbpedia.org/ontology/language
p2630
aVhttp://dbpedia.org/property/title
p2631
aVhttp://dbpedia.org/property/basinCountries
p2632
aVhttp://dbpedia.org/property/currencyCode
p2633
aVhttp://dbpedia.org/ontology/assembly
p2634
aVhttp://www.w3.org/2000/01/rdf-schema#comment
p2635
aVhttp://dbpedia.org/ontology/timeZone
p2636
aVhttp://dbpedia.org/property/foundedArea
p2637
aVhttp://dbpedia.org/property/callingCode
p2638
aVhttp://dbpedia.org/property/shipHomeport
p2639
aVhttp://dbpedia.org/property/regionServed
p2640
aVhttp://xmlns.com/foaf/0.1/name
p2641
aVhttp://dbpedia.org/property/observedby
p2642
asI3
(lp2643
sI4
(lp2644
Vhttp://dbpedia.org/property/currencyCode
p2645
assI1
(dp2646
I0
g2524
sI1
(lp2647
sI2
(lp2648
sI3
(lp2649
sI4
(lp2650
ssI2
(dp2651
I0
g2529
sI1
g2648
sI2
(lp2652
sI3
(lp2653
sI4
(lp2654
ssI3
(dp2655
I0
g2643
sI1
g2649
sI2
g2653
sI3
(lp2656
sI4
(lp2657
ssI4
(dp2658
I0
g2644
sI1
g2650
sI2
g2654
sI3
g2657
sI4
(lp2659
ssa(dp2660
I0
(dp2661
I0
(lp2662
sI1
(lp2663
sI2
(lp2664
sI3
(lp2665
sI4
(lp2666
ssI1
(dp2667
I0
g2663
sI1
(lp2668
sI2
(lp2669
sI3
(lp2670
sI4
(lp2671
ssI2
(dp2672
I0
g2664
sI1
g2669
sI2
(lp2673
sI3
(lp2674
sI4
(lp2675
ssI3
(dp2676
I0
g2665
sI1
g2670
sI2
g2674
sI3
(lp2677
sI4
(lp2678
ssI4
(dp2679
I0
g2666
sI1
g2671
sI2
g2675
sI3
g2678
sI4
(lp2680
ssa(dp2681
I0
(dp2682
I0
(lp2683
sI1
(lp2684
sI2
(lp2685
sI3
(lp2686
sI4
(lp2687
ssI1
(dp2688
I0
g2684
sI1
(lp2689
sI2
(lp2690
sI3
(lp2691
sI4
(lp2692
ssI2
(dp2693
I0
g2685
sI1
g2690
sI2
(lp2694
sI3
(lp2695
sI4
(lp2696
ssI3
(dp2697
I0
g2686
sI1
g2691
sI2
g2695
sI3
(lp2698
sI4
(lp2699
ssI4
(dp2700
I0
g2687
sI1
g2692
sI2
g2696
sI3
g2699
sI4
(lp2701
ssa(dp2702
I0
(dp2703
I0
(lp2704
sI1
(lp2705
sI2
(lp2706
sI3
(lp2707
sI4
(lp2708
ssI1
(dp2709
I0
g2705
sI1
(lp2710
sI2
(lp2711
sI3
(lp2712
sI4
(lp2713
ssI2
(dp2714
I0
g2706
sI1
g2711
sI2
(lp2715
sI3
(lp2716
sI4
(lp2717
ssI3
(dp2718
I0
g2707
sI1
g2712
sI2
g2716
sI3
(lp2719
sI4
(lp2720
ssI4
(dp2721
I0
g2708
sI1
g2713
sI2
g2717
sI3
g2720
sI4
(lp2722
ssa(dp2723
I0
(dp2724
I0
(lp2725
sI1
(lp2726
sI2
(lp2727
sI3
(lp2728
sI4
(lp2729
ssI1
(dp2730
I0
g2726
sI1
(lp2731
sI2
(lp2732
sI3
(lp2733
sI4
(lp2734
ssI2
(dp2735
I0
g2727
sI1
g2732
sI2
(lp2736
sI3
(lp2737
sI4
(lp2738
ssI3
(dp2739
I0
g2728
sI1
g2733
sI2
g2737
sI3
(lp2740
sI4
(lp2741
ssI4
(dp2742
I0
g2729
sI1
g2734
sI2
g2738
sI3
g2741
sI4
(lp2743
ssa(dp2744
I0
(dp2745
I0
(lp2746
sI1
(lp2747
sI2
(lp2748
sI3
(lp2749
sI4
(lp2750
ssI1
(dp2751
I0
g2747
sI1
(lp2752
sI2
(lp2753
sI3
(lp2754
sI4
(lp2755
ssI2
(dp2756
I0
g2748
sI1
g2753
sI2
(lp2757
sI3
(lp2758
sI4
(lp2759
ssI3
(dp2760
I0
g2749
sI1
g2754
sI2
g2758
sI3
(lp2761
sI4
(lp2762
ssI4
(dp2763
I0
g2750
sI1
g2755
sI2
g2759
sI3
g2762
sI4
(lp2764
ssa(dp2765
I0
(dp2766
I0
(lp2767
sI1
(lp2768
sI2
(lp2769
sI3
(lp2770
sI4
(lp2771
ssI1
(dp2772
I0
g2768
sI1
(lp2773
sI2
(lp2774
sI3
(lp2775
sI4
(lp2776
ssI2
(dp2777
I0
g2769
sI1
g2774
sI2
(lp2778
sI3
(lp2779
sI4
(lp2780
ssI3
(dp2781
I0
g2770
sI1
g2775
sI2
g2779
sI3
(lp2782
sI4
(lp2783
ssI4
(dp2784
I0
g2771
sI1
g2776
sI2
g2780
sI3
g2783
sI4
(lp2785
ssa(dp2786
I0
(dp2787
I0
(lp2788
sI1
(lp2789
sI2
(lp2790
sI3
(lp2791
Vhttp://dbpedia.org/property/currency
p2792
aVhttp://xmlns.com/foaf/0.1/primaryTopic
p2793
aVhttp://dbpedia.org/property/issuingAuthority
p2794
aVhttp://purl.org/dc/terms/subject
p2795
aVhttp://www.w3.org/2000/01/rdf-schema#comment
p2796
aVhttp://dbpedia.org/ontology/abstract
p2797
aVhttp://dbpedia.org/ontology/wikiPageRedirects
p2798
aVhttp://xmlns.com/foaf/0.1/isPrimaryTopicOf
p2799
aVhttp://www.w3.org/ns/prov#wasDerivedFrom
p2800
aVhttp://dbpedia.org/property/hasPhotoCollection
p2801
aVhttp://www.w3.org/2000/01/rdf-schema#label
p2802
aVhttp://www.w3.org/2002/07/owl#sameAs
p2803
asI4
(lp2804
ssI1
(dp2805
I0
g2789
sI1
(lp2806
sI2
(lp2807
sI3
(lp2808
sI4
(lp2809
ssI2
(dp2810
I0
g2790
sI1
g2807
sI2
(lp2811
sI3
(lp2812
Vhttp://dbpedia.org/ontology/wikiPageExternalLink
p2813
aVhttp://www.w3.org/2000/01/rdf-schema#comment
p2814
aVhttp://dbpedia.org/property/symbol
p2815
aVhttp://dbpedia.org/property/isoCode
p2816
aVhttp://dbpedia.org/ontology/wikiPageRedirects
p2817
aVhttp://dbpedia.org/property/issuingAuthorityWebsite
p2818
aVhttp://dbpedia.org/ontology/abstract
p2819
asI4
(lp2820
ssI3
(dp2821
I0
g2791
sI1
g2808
sI2
g2812
sI3
(lp2822
sI4
(lp2823
Vhttp://dbpedia.org/ontology/abstract
p2824
aVhttp://dbpedia.org/property/isoCode
p2825
aVhttp://www.w3.org/2000/01/rdf-schema#comment
p2826
assI4
(dp2827
I0
g2804
sI1
g2809
sI2
g2820
sI3
g2823
sI4
(lp2828
ssa(dp2829
I0
(dp2830
I0
(lp2831
sI1
(lp2832
sI2
(lp2833
sI3
(lp2834
sI4
(lp2835
ssI1
(dp2836
I0
g2832
sI1
(lp2837
sI2
(lp2838
sI3
(lp2839
sI4
(lp2840
ssI2
(dp2841
I0
g2833
sI1
g2838
sI2
(lp2842
sI3
(lp2843
sI4
(lp2844
ssI3
(dp2845
I0
g2834
sI1
g2839
sI2
g2843
sI3
(lp2846
sI4
(lp2847
ssI4
(dp2848
I0
g2835
sI1
g2840
sI2
g2844
sI3
g2847
sI4
(lp2849
ssa(dp2850
I0
(dp2851
I0
(lp2852
sI1
(lp2853
sI2
(lp2854
sI3
(lp2855
sI4
(lp2856
ssI1
(dp2857
I0
g2853
sI1
(lp2858
sI2
(lp2859
sI3
(lp2860
sI4
(lp2861
ssI2
(dp2862
I0
g2854
sI1
g2859
sI2
(lp2863
sI3
(lp2864
sI4
(lp2865
ssI3
(dp2866
I0
g2855
sI1
g2860
sI2
g2864
sI3
(lp2867
sI4
(lp2868
ssI4
(dp2869
I0
g2856
sI1
g2861
sI2
g2865
sI3
g2868
sI4
(lp2870
ssa(dp2871
I0
(dp2872
I0
(lp2873
sI1
(lp2874
sI2
(lp2875
sI3
(lp2876
sI4
(lp2877
ssI1
(dp2878
I0
g2874
sI1
(lp2879
sI2
(lp2880
sI3
(lp2881
sI4
(lp2882
ssI2
(dp2883
I0
g2875
sI1
g2880
sI2
(lp2884
sI3
(lp2885
sI4
(lp2886
ssI3
(dp2887
I0
g2876
sI1
g2881
sI2
g2885
sI3
(lp2888
sI4
(lp2889
ssI4
(dp2890
I0
g2877
sI1
g2882
sI2
g2886
sI3
g2889
sI4
(lp2891
ssa(dp2892
I0
(dp2893
I0
(lp2894
sI1
(lp2895
sI2
(lp2896
sI3
(lp2897
sI4
(lp2898
ssI1
(dp2899
I0
g2895
sI1
(lp2900
sI2
(lp2901
sI3
(lp2902
sI4
(lp2903
ssI2
(dp2904
I0
g2896
sI1
g2901
sI2
(lp2905
sI3
(lp2906
sI4
(lp2907
ssI3
(dp2908
I0
g2897
sI1
g2902
sI2
g2906
sI3
(lp2909
sI4
(lp2910
ssI4
(dp2911
I0
g2898
sI1
g2903
sI2
g2907
sI3
g2910
sI4
(lp2912
ssa(dp2913
I0
(dp2914
I0
(lp2915
sI1
(lp2916
sI2
(lp2917
sI3
(lp2918
sI4
(lp2919
ssI1
(dp2920
I0
g2916
sI1
(lp2921
sI2
(lp2922
sI3
(lp2923
sI4
(lp2924
ssI2
(dp2925
I0
g2917
sI1
g2922
sI2
(lp2926
sI3
(lp2927
sI4
(lp2928
ssI3
(dp2929
I0
g2918
sI1
g2923
sI2
g2927
sI3
(lp2930
sI4
(lp2931
ssI4
(dp2932
I0
g2919
sI1
g2924
sI2
g2928
sI3
g2931
sI4
(lp2933
ssa(dp2934
I0
(dp2935
I0
(lp2936
sI1
(lp2937
sI2
(lp2938
sI3
(lp2939
sI4
(lp2940
ssI1
(dp2941
I0
g2937
sI1
(lp2942
sI2
(lp2943
sI3
(lp2944
sI4
(lp2945
ssI2
(dp2946
I0
g2938
sI1
g2943
sI2
(lp2947
sI3
(lp2948
sI4
(lp2949
ssI3
(dp2950
I0
g2939
sI1
g2944
sI2
g2948
sI3
(lp2951
sI4
(lp2952
ssI4
(dp2953
I0
g2940
sI1
g2945
sI2
g2949
sI3
g2952
sI4
(lp2954
ssa(dp2955
I0
(dp2956
I0
(lp2957
sI1
(lp2958
sI2
(lp2959
sI3
(lp2960
sI4
(lp2961
ssI1
(dp2962
I0
g2958
sI1
(lp2963
sI2
(lp2964
sI3
(lp2965
sI4
(lp2966
ssI2
(dp2967
I0
g2959
sI1
g2964
sI2
(lp2968
sI3
(lp2969
sI4
(lp2970
ssI3
(dp2971
I0
g2960
sI1
g2965
sI2
g2969
sI3
(lp2972
sI4
(lp2973
ssI4
(dp2974
I0
g2961
sI1
g2966
sI2
g2970
sI3
g2973
sI4
(lp2975
ssa(dp2976
I0
(dp2977
I0
(lp2978
sI1
(lp2979
sI2
(lp2980
sI3
(lp2981
sI4
(lp2982
ssI1
(dp2983
I0
g2979
sI1
(lp2984
sI2
(lp2985
sI3
(lp2986
sI4
(lp2987
ssI2
(dp2988
I0
g2980
sI1
g2985
sI2
(lp2989
sI3
(lp2990
sI4
(lp2991
ssI3
(dp2992
I0
g2981
sI1
g2986
sI2
g2990
sI3
(lp2993
sI4
(lp2994
ssI4
(dp2995
I0
g2982
sI1
g2987
sI2
g2991
sI3
g2994
sI4
(lp2996
ssa(dp2997
I0
(dp2998
I0
(lp2999
sI1
(lp3000
sI2
(lp3001
sI3
(lp3002
sI4
(lp3003
ssI1
(dp3004
I0
g3000
sI1
(lp3005
sI2
(lp3006
sI3
(lp3007
sI4
(lp3008
ssI2
(dp3009
I0
g3001
sI1
g3006
sI2
(lp3010
sI3
(lp3011
sI4
(lp3012
ssI3
(dp3013
I0
g3002
sI1
g3007
sI2
g3011
sI3
(lp3014
sI4
(lp3015
ssI4
(dp3016
I0
g3003
sI1
g3008
sI2
g3012
sI3
g3015
sI4
(lp3017
ssa(dp3018
I0
(dp3019
I0
(lp3020
sI1
(lp3021
sI2
(lp3022
sI3
(lp3023
sI4
(lp3024
ssI1
(dp3025
I0
g3021
sI1
(lp3026
sI2
(lp3027
sI3
(lp3028
sI4
(lp3029
ssI2
(dp3030
I0
g3022
sI1
g3027
sI2
(lp3031
sI3
(lp3032
sI4
(lp3033
ssI3
(dp3034
I0
g3023
sI1
g3028
sI2
g3032
sI3
(lp3035
sI4
(lp3036
ssI4
(dp3037
I0
g3024
sI2
g3033
sI3
g3036
sI4
(lp3038
ssa(dp3039
I0
(dp3040
I0
(lp3041
sI1
(lp3042
sI2
(lp3043
sI3
(lp3044
sI4
(lp3045
Vhttp://dbpedia.org/ontology/abstract
p3046
aVhttp://www.w3.org/2000/01/rdf-schema#comment
p3047
assI1
(dp3048
I0
g3042
sI1
(lp3049
sI2
(lp3050
sI3
(lp3051
sI4
(lp3052
ssI2
(dp3053
I0
g3043
sI2
(lp3054
sI3
(lp3055
sI4
(lp3056
ssI3
(dp3057
I1
g3051
sI2
g3055
sI3
(lp3058
sI4
(lp3059
Vhttp://dbpedia.org/ontology/abstract
p3060
aVhttp://www.w3.org/2000/01/rdf-schema#comment
p3061
assI4
(dp3062
I0
g3045
sI1
g3052
sI2
g3056
sI3
g3059
sI4
(lp3063
ssa(dp3064
I0
(dp3065
I0
(lp3066
sI1
(lp3067
sI2
(lp3068
sI3
(lp3069
sI4
(lp3070
ssI1
(dp3071
I0
g3067
sI1
(lp3072
sI2
(lp3073
sI3
(lp3074
sI4
(lp3075
ssI2
(dp3076
I0
g3068
sI1
g3073
sI2
(lp3077
sI3
(lp3078
sI4
(lp3079
ssI3
(dp3080
I0
g3069
sI1
g3074
sI2
g3078
sI3
(lp3081
sI4
(lp3082
ssI4
(dp3083
I0
g3070
sI1
g3075
sI2
g3079
sI3
g3082
sI4
(lp3084
ssa(dp3085
I0
(dp3086
I0
(lp3087
sI1
(lp3088
sI2
(lp3089
sI3
(lp3090
sI4
(lp3091
ssI1
(dp3092
I0
g3088
sI1
(lp3093
sI2
(lp3094
sI3
(lp3095
sI4
(lp3096
ssI2
(dp3097
I0
g3089
sI1
g3094
sI2
(lp3098
sI3
(lp3099
sI4
(lp3100
ssI3
(dp3101
I0
g3090
sI1
g3095
sI2
g3099
sI3
(lp3102
sI4
(lp3103
ssI4
(dp3104
I0
g3091
sI1
g3096
sI2
g3100
sI3
g3103
sI4
(lp3105
ssa(dp3106
I0
(dp3107
I0
(lp3108
sI1
(lp3109
sI2
(lp3110
sI3
(lp3111
sI4
(lp3112
ssI1
(dp3113
I0
g3109
sI1
(lp3114
sI2
(lp3115
sI3
(lp3116
sI4
(lp3117
ssI2
(dp3118
I0
g3110
sI1
g3115
sI2
(lp3119
sI3
(lp3120
sI4
(lp3121
ssI3
(dp3122
I0
g3111
sI1
g3116
sI2
g3120
sI3
(lp3123
sI4
(lp3124
ssI4
(dp3125
I0
g3112
sI1
g3117
sI2
g3121
sI3
g3124
sI4
(lp3126
ssa(dp3127
I0
(dp3128
I0
(lp3129
sI1
(lp3130
sI2
(lp3131
sI3
(lp3132
sI4
(lp3133
ssI1
(dp3134
I0
g3130
sI1
(lp3135
sI2
(lp3136
sI3
(lp3137
sI4
(lp3138
ssI2
(dp3139
I0
g3131
sI1
g3136
sI2
(lp3140
sI3
(lp3141
sI4
(lp3142
ssI3
(dp3143
I0
g3132
sI1
g3137
sI2
g3141
sI3
(lp3144
sI4
(lp3145
ssI4
(dp3146
I0
g3133
sI1
g3138
sI2
g3142
sI3
g3145
sI4
(lp3147
ssa(dp3148
I0
(dp3149
I0
(lp3150
sI1
(lp3151
sI2
(lp3152
sI3
(lp3153
sI4
(lp3154
ssI1
(dp3155
I0
g3151
sI1
(lp3156
sI2
(lp3157
sI3
(lp3158
sI4
(lp3159
ssI2
(dp3160
I0
g3152
sI1
g3157
sI2
(lp3161
sI3
(lp3162
sI4
(lp3163
ssI3
(dp3164
I0
g3153
sI1
g3158
sI2
g3162
sI3
(lp3165
sI4
(lp3166
ssI4
(dp3167
I0
g3154
sI1
g3159
sI2
g3163
sI3
g3166
sI4
(lp3168
ssa(dp3169
I0
(dp3170
I0
(lp3171
sI1
(lp3172
Vhttp://dbpedia.org/property/origin
p3173
aVhttp://dbpedia.org/property/placeOfDeath
p3174
aVhttp://dbpedia.org/ontology/citizenship
p3175
aVhttp://dbpedia.org/property/ground
p3176
aVhttp://dbpedia.org/ontology/origin
p3177
aVhttp://dbpedia.org/ontology/foundationPlace
p3178
aVhttp://dbpedia.org/property/residence
p3179
aVhttp://dbpedia.org/ontology/deathPlace
p3180
aVhttp://dbpedia.org/property/ethnicity
p3181
aVhttp://dbpedia.org/ontology/locatedInArea
p3182
aVhttp://dbpedia.org/ontology/country
p3183
aVhttp://www.w3.org/1999/02/22-rdf-syntax-ns#type
p3184
aVhttp://dbpedia.org/property/locationCountry
p3185
aVhttp://dbpedia.org/property/locations
p3186
aVhttp://dbpedia.org/ontology/ground
p3187
aVhttp://dbpedia.org/ontology/nationality
p3188
aVhttp://dbpedia.org/property/birthPlace
p3189
aVhttp://dbpedia.org/property/placeOfBirth
p3190
aVhttp://dbpedia.org/property/office
p3191
aVhttp://dbpedia.org/ontology/residence
p3192
aVhttp://dbpedia.org/property/foundedPlace
p3193
aVhttp://dbpedia.org/property/country
p3194
aVhttp://dbpedia.org/ontology/wikiPageExternalLink
p3195
aVhttp://dbpedia.org/ontology/movement
p3196
aVhttp://dbpedia.org/property/nationality
p3197
aVhttp://dbpedia.org/ontology/abstract
p3198
aVhttp://dbpedia.org/property/deathPlace
p3199
aVhttp://dbpedia.org/property/location
p3200
aVhttp://dbpedia.org/property/cityServed
p3201
aVhttp://dbpedia.org/ontology/locationCountry
p3202
aVhttp://dbpedia.org/ontology/headquarter
p3203
aVhttp://dbpedia.org/property/headquarter
p3204
aVhttp://dbpedia.org/ontology/city
p3205
aVhttp://dbpedia.org/property/usedBy
p3206
aVhttp://dbpedia.org/property/nationalOrigin
p3207
aVhttp://dbpedia.org/property/image
p3208
aVhttp://dbpedia.org/property/locale
p3209
aVhttp://dbpedia.org/property/headquarters
p3210
aVhttp://www.w3.org/2000/01/rdf-schema#comment
p3211
aVhttp://dbpedia.org/ontology/birthPlace
p3212
aVhttp://dbpedia.org/property/address
p3213
aVhttp://dbpedia.org/ontology/wikiPageRedirects
p3214
aVhttp://dbpedia.org/property/area
p3215
aVhttp://dbpedia.org/ontology/hometown
p3216
aVhttp://dbpedia.org/property/citizenship
p3217
aVhttp://dbpedia.org/property/regionServed
p3218
aVhttp://dbpedia.org/ontology/stateOfOrigin
p3219
aVhttp://dbpedia.org/ontology/locationCity
p3220
aVhttp://dbpedia.org/property/formercountry
p3221
aVhttp://dbpedia.org/ontology/location
p3222
asI2
(lp3223
Vhttp://dbpedia.org/property/origin
p3224
aVhttp://dbpedia.org/property/placeOfDeath
p3225
aVhttp://dbpedia.org/property/cctld
p3226
aVhttp://dbpedia.org/property/city
p3227
aVhttp://dbpedia.org/property/ethnicity
p3228
aVhttp://dbpedia.org/property/patronage
p3229
aVhttp://dbpedia.org/property/territory
p3230
aVhttp://dbpedia.org/ontology/routeEnd
p3231
aVhttp://dbpedia.org/ontology/regionServed
p3232
aVhttp://dbpedia.org/property/dateOfBirth
p3233
aVhttp://dbpedia.org/property/broadcastArea
p3234
aVhttp://dbpedia.org/property/patronSaint
p3235
aVhttp://dbpedia.org/ontology/nationality
p3236
aVhttp://dbpedia.org/property/shortDescription
p3237
aVhttp://dbpedia.org/property/placeOfBirth
p3238
aVhttp://dbpedia.org/property/nationality
p3239
aVhttp://dbpedia.org/ontology/abstract
p3240
aVhttp://dbpedia.org/ontology/recordedIn
p3241
aVhttp://dbpedia.org/property/leaderName
p3242
aVhttp://dbpedia.org/property/usedBy
p3243
aVhttp://dbpedia.org/property/nationalOrigin
p3244
aVhttp://dbpedia.org/ontology/location
p3245
aVhttp://dbpedia.org/ontology/wineRegion
p3246
aVhttp://dbpedia.org/property/area
p3247
aVhttp://dbpedia.org/ontology/hometown
p3248
aVhttp://dbpedia.org/ontology/restingPlace
p3249
aVhttp://dbpedia.org/ontology/spokenIn
p3250
aVhttp://www.w3.org/2000/01/rdf-schema#seeAlso
p3251
aVhttp://dbpedia.org/property/hostCity
p3252
aVhttp://dbpedia.org/ontology/foundationPlace
p3253
aVhttp://dbpedia.org/ontology/locatedInArea
p3254
aVhttp://dbpedia.org/property/before
p3255
aVhttp://dbpedia.org/ontology/country
p3256
aVhttp://dbpedia.org/property/region
p3257
aVhttp://dbpedia.org/property/rd1t5Loc
p3258
aVhttp://dbpedia.org/property/birthPlace
p3259
aVhttp://dbpedia.org/property/rd1t7Loc
p3260
aVhttp://dbpedia.org/property/stateParty
p3261
aVhttp://dbpedia.org/property/country
p3262
aVhttp://dbpedia.org/property/areaServed
p3263
aVhttp://dbpedia.org/property/areasAffected
p3264
aVhttp://dbpedia.org/ontology/wikiPageExternalLink
p3265
aVhttp://dbpedia.org/property/end
p3266
aVhttp://dbpedia.org/ontology/movement
p3267
aVhttp://dbpedia.org/property/deathPlace
p3268
aVhttp://dbpedia.org/property/states
p3269
aVhttp://dbpedia.org/ontology/locationCountry
p3270
aVhttp://dbpedia.org/ontology/homeStadium
p3271
aVhttp://dbpedia.org/property/rd2t4Loc
p3272
aVhttp://dbpedia.org/property/headquarters
p3273
aVhttp://dbpedia.org/ontology/birthPlace
p3274
aVhttp://dbpedia.org/ontology/wikiPageRedirects
p3275
aVhttp://dbpedia.org/property/currentHostCity
p3276
aVhttp://dbpedia.org/property/citizenship
p3277
aVhttp://dbpedia.org/property/host
p3278
aVhttp://dbpedia.org/ontology/stateOfOrigin
p3279
aVhttp://dbpedia.org/property/locationCountry
p3280
aVhttp://www.w3.org/2002/07/owl#sameAs
p3281
aVhttp://dbpedia.org/ontology/deathPlace
p3282
aVhttp://dbpedia.org/property/recorded
p3283
aVhttp://dbpedia.org/ontology/majorShrine
p3284
aVhttp://dbpedia.org/ontology/origin
p3285
aVhttp://dbpedia.org/property/residence
p3286
aVhttp://dbpedia.org/property/foundation
p3287
aVhttp://dbpedia.org/ontology/significantBuilding
p3288
aVhttp://www.w3.org/1999/02/22-rdf-syntax-ns#type
p3289
aVhttp://dbpedia.org/property/formercountry
p3290
aVhttp://dbpedia.org/property/education
p3291
aVhttp://dbpedia.org/property/rd1t2Loc
p3292
aVhttp://dbpedia.org/property/largestCity
p3293
aVhttp://dbpedia.org/ontology/ground
p3294
aVhttp://dbpedia.org/ontology/education
p3295
aVhttp://dbpedia.org/ontology/sourceCountry
p3296
aVhttp://dbpedia.org/property/winnerOrigin
p3297
aVhttp://dbpedia.org/ontology/broadcastArea
p3298
aVhttp://dbpedia.org/property/headquarter
p3299
aVhttp://dbpedia.org/property/fightingOutOf
p3300
aVhttp://dbpedia.org/property/rd2t7Loc
p3301
aVhttp://dbpedia.org/ontology/city
p3302
aVhttp://dbpedia.org/property/subdivisionName
p3303
aVhttp://dbpedia.org/property/languages
p3304
aVhttp://www.w3.org/2000/01/rdf-schema#comment
p3305
aVhttp://dbpedia.org/property/basedIn
p3306
aVhttp://dbpedia.org/property/stadium
p3307
aVhttp://dbpedia.org/property/significantBuildings
p3308
aVhttp://dbpedia.org/property/ground
p3309
aVhttp://dbpedia.org/property/place
p3310
aVhttp://dbpedia.org/ontology/citizenship
p3311
aVhttp://dbpedia.org/property/rd2t3Loc
p3312
aVhttp://dbpedia.org/ontology/nearestCity
p3313
aVhttp://dbpedia.org/property/locations
p3314
aVhttp://dbpedia.org/property/countryOfProduction
p3315
aVhttp://dbpedia.org/property/image
p3316
aVhttp://dbpedia.org/ontology/place
p3317
aVhttp://dbpedia.org/property/office
p3318
aVhttp://dbpedia.org/ontology/residence
p3319
aVhttp://dbpedia.org/property/foundedPlace
p3320
aVhttp://dbpedia.org/ontology/wikiPageDisambiguates
p3321
aVhttp://purl.org/dc/terms/subject
p3322
aVhttp://dbpedia.org/ontology/populationPlace
p3323
aVhttp://dbpedia.org/property/venue
p3324
aVhttp://dbpedia.org/property/possessions
p3325
aVhttp://dbpedia.org/property/location
p3326
aVhttp://dbpedia.org/property/cityServed
p3327
aVhttp://dbpedia.org/property/rd3t2Loc
p3328
aVhttp://dbpedia.org/ontology/leader
p3329
aVhttp://dbpedia.org/ontology/leaderTitle
p3330
aVhttp://www.w3.org/2000/01/rdf-schema#label
p3331
aVhttp://dbpedia.org/ontology/language
p3332
aVhttp://dbpedia.org/property/title
p3333
aVhttp://dbpedia.org/property/locale
p3334
aVhttp://dbpedia.org/property/basinCountries
p3335
aVhttp://dbpedia.org/property/currencyCode
p3336
aVhttp://dbpedia.org/property/asianPlace
p3337
aVhttp://dbpedia.org/property/rd2t1Loc
p3338
aVhttp://dbpedia.org/property/address
p3339
aVhttp://dbpedia.org/property/data
p3340
aVhttp://dbpedia.org/ontology/largestCity
p3341
aVhttp://dbpedia.org/property/regionServed
p3342
aVhttp://dbpedia.org/ontology/headquarter
p3343
aVhttp://dbpedia.org/ontology/locationCity
p3344
asI3
(lp3345
sI4
(lp3346
Vhttp://dbpedia.org/ontology/country
p3347
aVhttp://dbpedia.org/property/currencyCode
p3348
aVhttp://dbpedia.org/ontology/location
p3349
aVhttp://dbpedia.org/property/location
p3350
aVhttp://dbpedia.org/ontology/deathPlace
p3351
aVhttp://dbpedia.org/ontology/locatedInArea
p3352
assI1
(dp3353
I0
g3172
sI1
(lp3354
sI2
(lp3355
sI3
(lp3356
sI4
(lp3357
ssI2
(dp3358
I0
g3223
sI1
g3355
sI2
(lp3359
sI3
(lp3360
sI4
(lp3361
ssI3
(dp3362
I0
g3345
sI1
g3356
sI2
g3360
sI3
(lp3363
sI4
(lp3364
ssI4
(dp3365
I0
g3346
sI1
g3357
sI2
g3361
sI3
g3364
sI4
(lp3366
ssa(dp3367
I0
(dp3368
I0
(lp3369
sI1
(lp3370
sI2
(lp3371
sI3
(lp3372
sI4
(lp3373
ssI1
(dp3374
I0
g3370
sI1
(lp3375
sI2
(lp3376
sI3
(lp3377
sI4
(lp3378
ssI2
(dp3379
I0
g3371
sI1
g3376
sI2
(lp3380
sI3
(lp3381
sI4
(lp3382
ssI3
(dp3383
I0
g3372
sI1
g3377
sI2
g3381
sI3
(lp3384
sI4
(lp3385
ssI4
(dp3386
I0
g3373
sI1
g3378
sI2
g3382
sI3
g3385
sI4
(lp3387
ssa(dp3388
I0
(dp3389
I0
(lp3390
sI1
(lp3391
sI2
(lp3392
sI3
(lp3393
sI4
(lp3394
ssI1
(dp3395
I0
g3391
sI1
(lp3396
sI2
(lp3397
sI3
(lp3398
sI4
(lp3399
ssI2
(dp3400
I0
g3392
sI1
g3397
sI2
(lp3401
sI3
(lp3402
sI4
(lp3403
ssI3
(dp3404
I0
g3393
sI1
g3398
sI2
g3402
sI3
(lp3405
sI4
(lp3406
ssI4
(dp3407
I0
g3394
sI1
g3399
sI2
g3403
sI3
g3406
sI4
(lp3408
ssa(dp3409
I0
(dp3410
I0
(lp3411
sI1
(lp3412
sI2
(lp3413
sI3
(lp3414
sI4
(lp3415
ssI1
(dp3416
I0
g3412
sI1
(lp3417
sI2
(lp3418
sI3
(lp3419
sI4
(lp3420
ssI2
(dp3421
I0
g3413
sI1
g3418
sI2
(lp3422
sI3
(lp3423
sI4
(lp3424
ssI3
(dp3425
I0
g3414
sI1
g3419
sI2
g3423
sI3
(lp3426
sI4
(lp3427
ssI4
(dp3428
I0
g3415
sI1
g3420
sI2
g3424
sI3
g3427
sI4
(lp3429
ssa(dp3430
I0
(dp3431
I0
(lp3432
sI1
(lp3433
sI2
(lp3434
sI3
(lp3435
sI4
(lp3436
ssI1
(dp3437
I0
g3433
sI1
(lp3438
sI2
(lp3439
Vhttp://dbpedia.org/ontology/wikiPageExternalLink
p3440
aVhttp://xmlns.com/foaf/0.1/primaryTopic
p3441
aVhttp://www.w3.org/2000/01/rdf-schema#comment
p3442
aVhttp://dbpedia.org/ontology/abstract
p3443
aVhttp://dbpedia.org/ontology/wikiPageRedirects
p3444
aVhttp://xmlns.com/foaf/0.1/isPrimaryTopicOf
p3445
aVhttp://www.w3.org/ns/prov#wasDerivedFrom
p3446
aVhttp://dbpedia.org/property/hasPhotoCollection
p3447
aVhttp://www.w3.org/2000/01/rdf-schema#label
p3448
aVhttp://www.w3.org/2002/07/owl#sameAs
p3449
asI3
(lp3450
sI4
(lp3451
ssI2
(dp3452
I0
g3434
sI1
g3439
sI2
(lp3453
sI3
(lp3454
sI4
(lp3455
ssI3
(dp3456
I0
g3435
sI1
g3450
sI2
g3454
sI3
(lp3457
sI4
(lp3458
ssI4
(dp3459
I0
g3436
sI1
g3451
sI2
g3455
sI3
g3458
sI4
(lp3460
ssa(dp3461
I0
(dp3462
I0
(lp3463
sI1
(lp3464
sI2
(lp3465
sI3
(lp3466
sI4
(lp3467
ssI1
(dp3468
I0
g3464
sI1
(lp3469
sI2
(lp3470
sI3
(lp3471
sI4
(lp3472
ssI2
(dp3473
I0
g3465
sI1
g3470
sI2
(lp3474
sI3
(lp3475
sI4
(lp3476
ssI3
(dp3477
I0
g3466
sI1
g3471
sI2
g3475
sI3
(lp3478
sI4
(lp3479
ssI4
(dp3480
I0
g3467
sI1
g3472
sI2
g3476
sI3
g3479
sI4
(lp3481
ssa(dp3482
I0
(dp3483
I0
(lp3484
sI1
(lp3485
sI2
(lp3486
sI3
(lp3487
sI4
(lp3488
ssI1
(dp3489
I0
g3485
sI1
(lp3490
sI2
(lp3491
sI3
(lp3492
sI4
(lp3493
ssI2
(dp3494
I0
g3486
sI1
g3491
sI2
(lp3495
sI3
(lp3496
sI4
(lp3497
ssI3
(dp3498
I0
g3487
sI1
g3492
sI2
g3496
sI3
(lp3499
sI4
(lp3500
ssI4
(dp3501
I0
g3488
sI1
g3493
sI2
g3497
sI3
g3500
sI4
(lp3502
ssa(dp3503
I0
(dp3504
I0
(lp3505
sI1
(lp3506
sI2
(lp3507
sI3
(lp3508
sI4
(lp3509
ssI1
(dp3510
I0
g3506
sI1
(lp3511
sI2
(lp3512
sI3
(lp3513
sI4
(lp3514
ssI2
(dp3515
I0
g3507
sI1
g3512
sI2
(lp3516
sI3
(lp3517
sI4
(lp3518
ssI3
(dp3519
I0
g3508
sI1
g3513
sI2
g3517
sI3
(lp3520
sI4
(lp3521
ssI4
(dp3522
I0
g3509
sI1
g3514
sI2
g3518
sI3
g3521
sI4
(lp3523
ssa(dp3524
I0
(dp3525
I0
(lp3526
sI1
(lp3527
sI2
(lp3528
sI3
(lp3529
sI4
(lp3530
ssI1
(dp3531
I0
g3527
sI1
(lp3532
sI2
(lp3533
sI3
(lp3534
sI4
(lp3535
ssI2
(dp3536
I0
g3528
sI1
g3533
sI2
(lp3537
sI3
(lp3538
sI4
(lp3539
ssI3
(dp3540
I0
g3529
sI1
g3534
sI2
g3538
sI3
(lp3541
sI4
(lp3542
ssI4
(dp3543
I0
g3530
sI1
g3535
sI2
g3539
sI3
g3542
sI4
(lp3544
ssa(dp3545
I0
(dp3546
I0
(lp3547
sI1
(lp3548
sI2
(lp3549
sI3
(lp3550
sI4
(lp3551
ssI1
(dp3552
I0
g3548
sI1
(lp3553
sI2
(lp3554
sI3
(lp3555
sI4
(lp3556
ssI2
(dp3557
I0
g3549
sI1
g3554
sI2
(lp3558
sI3
(lp3559
sI4
(lp3560
ssI3
(dp3561
I0
g3550
sI1
g3555
sI2
g3559
sI3
(lp3562
sI4
(lp3563
ssI4
(dp3564
I0
g3551
sI1
g3556
sI2
g3560
sI3
g3563
sI4
(lp3565
ssa(dp3566
I0
(dp3567
I0
(lp3568
sI1
(lp3569
sI2
(lp3570
sI3
(lp3571
sI4
(lp3572
ssI1
(dp3573
I0
g3569
sI1
(lp3574
sI2
(lp3575
sI3
(lp3576
sI4
(lp3577
ssI2
(dp3578
I0
g3570
sI1
g3575
sI2
(lp3579
sI3
(lp3580
sI4
(lp3581
ssI3
(dp3582
I0
g3571
sI1
g3576
sI2
g3580
sI3
(lp3583
sI4
(lp3584
ssI4
(dp3585
I0
g3572
sI1
g3577
sI2
g3581
sI3
g3584
sI4
(lp3586
ssa(dp3587
I0
(dp3588
I0
(lp3589
sI1
(lp3590
sI2
(lp3591
sI3
(lp3592
sI4
(lp3593
ssI1
(dp3594
I0
g3590
sI1
(lp3595
sI2
(lp3596
sI3
(lp3597
sI4
(lp3598
ssI2
(dp3599
I0
g3591
sI1
g3596
sI2
(lp3600
sI3
(lp3601
sI4
(lp3602
ssI3
(dp3603
I0
g3592
sI1
g3597
sI2
g3601
sI3
(lp3604
sI4
(lp3605
ssI4
(dp3606
I0
g3593
sI1
g3598
sI2
g3602
sI3
g3605
sI4
(lp3607
ssa(dp3608
I0
(dp3609
I0
(lp3610
sI1
(lp3611
sI2
(lp3612
sI3
(lp3613
sI4
(lp3614
ssI1
(dp3615
I0
g3611
sI1
(lp3616
sI2
(lp3617
sI3
(lp3618
sI4
(lp3619
ssI2
(dp3620
I0
g3612
sI1
g3617
sI2
(lp3621
sI3
(lp3622
sI4
(lp3623
ssI3
(dp3624
I0
g3613
sI1
g3618
sI2
g3622
sI3
(lp3625
sI4
(lp3626
ssI4
(dp3627
I0
g3614
sI1
g3619
sI2
g3623
sI3
g3626
sI4
(lp3628
ssa(dp3629
I0
(dp3630
I0
(lp3631
sI1
(lp3632
sI2
(lp3633
sI3
(lp3634
sI4
(lp3635
ssI1
(dp3636
I0
g3632
sI1
(lp3637
sI2
(lp3638
sI3
(lp3639
sI4
(lp3640
ssI2
(dp3641
I0
g3633
sI1
g3638
sI2
(lp3642
sI3
(lp3643
sI4
(lp3644
ssI3
(dp3645
I0
g3634
sI1
g3639
sI2
g3643
sI3
(lp3646
sI4
(lp3647
ssI4
(dp3648
I0
g3635
sI1
g3640
sI2
g3644
sI3
g3647
sI4
(lp3649
ssa(dp3650
I0
(dp3651
I0
(lp3652
sI1
(lp3653
sI2
(lp3654
sI3
(lp3655
sI4
(lp3656
ssI1
(dp3657
I0
g3653
sI1
(lp3658
sI2
(lp3659
sI3
(lp3660
sI4
(lp3661
ssI2
(dp3662
I0
g3654
sI1
g3659
sI2
(lp3663
sI3
(lp3664
sI4
(lp3665
ssI3
(dp3666
I0
g3655
sI1
g3660
sI2
g3664
sI3
(lp3667
sI4
(lp3668
ssI4
(dp3669
I0
g3656
sI1
g3661
sI2
g3665
sI3
g3668
sI4
(lp3670
ssa(dp3671
I0
(dp3672
I0
(lp3673
sI1
(lp3674
sI2
(lp3675
sI3
(lp3676
sI4
(lp3677
ssI1
(dp3678
I0
g3674
sI1
(lp3679
sI2
(lp3680
sI3
(lp3681
sI4
(lp3682
ssI2
(dp3683
I0
g3675
sI1
g3680
sI2
(lp3684
sI3
(lp3685
sI4
(lp3686
ssI3
(dp3687
I0
g3676
sI1
g3681
sI2
g3685
sI3
(lp3688
sI4
(lp3689
ssI4
(dp3690
I0
g3677
sI1
g3682
sI2
g3686
sI3
g3689
sI4
(lp3691
ssa(dp3692
I0
(dp3693
I0
(lp3694
sI1
(lp3695
sI2
(lp3696
sI3
(lp3697
sI4
(lp3698
ssI1
(dp3699
I0
g3695
sI1
(lp3700
sI2
(lp3701
sI3
(lp3702
sI4
(lp3703
ssI2
(dp3704
I0
g3696
sI1
g3701
sI2
(lp3705
sI3
(lp3706
sI4
(lp3707
ssI3
(dp3708
I0
g3697
sI1
g3702
sI2
g3706
sI3
(lp3709
sI4
(lp3710
ssI4
(dp3711
I0
g3698
sI1
g3703
sI2
g3707
sI3
g3710
sI4
(lp3712
ssa(dp3713
I0
(dp3714
I0
(lp3715
sI1
(lp3716
sI2
(lp3717
sI3
(lp3718
sI4
(lp3719
ssI1
(dp3720
I0
g3716
sI1
(lp3721
sI2
(lp3722
sI3
(lp3723
sI4
(lp3724
ssI2
(dp3725
I0
g3717
sI1
g3722
sI2
(lp3726
sI3
(lp3727
sI4
(lp3728
ssI3
(dp3729
I0
g3718
sI1
g3723
sI2
g3727
sI3
(lp3730
sI4
(lp3731
ssI4
(dp3732
I0
g3719
sI1
g3724
sI2
g3728
sI3
g3731
sI4
(lp3733
ssa(dp3734
I0
(dp3735
I0
(lp3736
sI1
(lp3737
sI2
(lp3738
sI3
(lp3739
sI4
(lp3740
ssI1
(dp3741
I0
g3737
sI1
(lp3742
sI2
(lp3743
sI3
(lp3744
sI4
(lp3745
ssI2
(dp3746
I0
g3738
sI2
(lp3747
sI3
(lp3748
sI4
(lp3749
ssI3
(dp3750
I0
g3739
sI1
g3744
sI2
g3748
sI3
(lp3751
sI4
(lp3752
ssI4
(dp3753
I0
g3740
sI1
g3745
sI2
g3749
sI3
g3752
sI4
(lp3754
ssa(dp3755
I0
(dp3756
I0
(lp3757
sI1
(lp3758
sI2
(lp3759
sI3
(lp3760
sI4
(lp3761
ssI1
(dp3762
I0
g3758
sI1
(lp3763
sI2
(lp3764
sI3
(lp3765
sI4
(lp3766
ssI2
(dp3767
I0
g3759
sI1
g3764
sI2
(lp3768
sI3
(lp3769
sI4
(lp3770
ssI3
(dp3771
I0
g3760
sI1
g3765
sI2
g3769
sI3
(lp3772
sI4
(lp3773
ssI4
(dp3774
I0
g3761
sI1
g3766
sI2
g3770
sI3
g3773
sI4
(lp3775
ssa(dp3776
I0
(dp3777
I0
(lp3778
sI1
(lp3779
sI2
(lp3780
sI3
(lp3781
sI4
(lp3782
ssI1
(dp3783
I0
g3779
sI1
(lp3784
sI2
(lp3785
sI3
(lp3786
sI4
(lp3787
ssI2
(dp3788
I0
g3780
sI1
g3785
sI2
(lp3789
sI3
(lp3790
sI4
(lp3791
ssI3
(dp3792
I0
g3781
sI1
g3786
sI2
g3790
sI3
(lp3793
sI4
(lp3794
ssI4
(dp3795
I0
g3782
sI1
g3787
sI2
g3791
sI3
g3794
sI4
(lp3796
ssa(dp3797
I0
(dp3798
I0
(lp3799
sI1
(lp3800
sI2
(lp3801
sI3
(lp3802
sI4
(lp3803
ssI1
(dp3804
I0
g3800
sI1
(lp3805
sI2
(lp3806
sI3
(lp3807
sI4
(lp3808
ssI2
(dp3809
I0
g3801
sI1
g3806
sI2
(lp3810
sI3
(lp3811
sI4
(lp3812
ssI3
(dp3813
I0
g3802
sI1
g3807
sI2
g3811
sI3
(lp3814
sI4
(lp3815
ssI4
(dp3816
I0
g3803
sI1
g3808
sI2
g3812
sI3
g3815
sI4
(lp3817
ssa.