(lp1
(lp2
(lp3
a(lp4
a(lp5
a(lp6
aa(lp7
(lp8
a(lp9
a(lp10
a(lp11
aa(lp12
(lp13
a(lp14
a(lp15
a(lp16
aa(lp17
(lp18
a(lp19
a(lp20
a(lp21
aa(lp22
(lp23
a(lp24
a(lp25
a(lp26
aa(lp27
(lp28
a(lp29
a(lp30
a(lp31
aa(lp32
(lp33
a(lp34
((lp35
Vhttp://www.w3.org/2002/07/owl#Thing
p36
aVhttp://dbpedia.org/ontology/Place
p37
aVhttp://dbpedia.org/ontology/Location
p38
aVhttp://www.wikidata.org/entity/Q486972
p39
aVhttp://www.wikidata.org/entity/Q6256
p40
aVhttp://dbpedia.org/ontology/Country
p41
aVhttp://dbpedia.org/ontology/PopulatedPlace
p42
aVhttp://www.w3.org/2003/01/geo/wgs84_pos#SpatialThing
p43
aVhttp://schema.org/Country
p44
aVhttp://schema.org/Place
p45
aVhttp://umbel.org/umbel/rc/Country
p46
aVhttp://umbel.org/umbel/rc/Location_Underspecified
p47
aVhttp://umbel.org/umbel/rc/PopulatedPlace
p48
aVhttp://dbpedia.org/class/yago/Abstraction100002137
p49
aVhttp://dbpedia.org/class/yago/AdministrativeDistrict108491826
p50
aVhttp://dbpedia.org/class/yago/Area108497294
p51
aVhttp://dbpedia.org/class/yago/Capital108518505
p52
aVhttp://dbpedia.org/class/yago/CapitalsInEurope
p53
aVhttp://dbpedia.org/class/yago/Center108523483
p54
aVhttp://dbpedia.org/class/yago/City108524735
p55
aVhttp://dbpedia.org/class/yago/Country108544813
p56
aVhttp://dbpedia.org/class/yago/District108552138
p57
aVhttp://dbpedia.org/class/yago/Economy108366753
p58
aVhttp://dbpedia.org/class/yago/Enclave108553132
p59
aVhttp://dbpedia.org/class/yago/Group100031264
p60
aVhttp://dbpedia.org/class/yago/Location100027167
p61
aVhttp://dbpedia.org/class/yago/Object100002684
p62
aVhttp://dbpedia.org/class/yago/Region108630985
p63
aVhttp://dbpedia.org/class/yago/Seat108647945
p64
aVhttp://dbpedia.org/class/yago/Site108651247
p65
aVhttp://dbpedia.org/class/yago/System108435388
p66
aVhttp://dbpedia.org/class/yago/Tract108673395
p67
aVhttp://dbpedia.org/class/yago/UrbanArea108675967
p68
aVhttp://dbpedia.org/class/yago/YagoGeoEntity
p69
aVhttp://dbpedia.org/class/yago/YagoLegalActorGeo
p70
aVhttp://dbpedia.org/class/yago/CatholicPilgrimageSites
p71
aVhttp://dbpedia.org/class/yago/CountriesThatAreEnclavesOfItaly
p72
aVhttp://dbpedia.org/class/yago/Enclaves
p73
aVhttp://dbpedia.org/class/yago/EuropeanCountries
p74
aVhttp://dbpedia.org/class/yago/GeographicalArea108574314
p75
aVhttp://dbpedia.org/class/yago/Municipality108626283
p76
aVhttp://dbpedia.org/class/yago/PhysicalEntity100001930
p77
aVhttp://dbpedia.org/class/yago/YagoPermanentlyLocatedEntity
p78
aVhttp://dbpedia.org/class/yago/HolyCities
p79
aVhttp://dbpedia.org/class/yago/Italian-speakingCountries
p80
aVhttp://dbpedia.org/class/yago/LandlockedCountries
p81
aVhttp://dbpedia.org/class/yago/StatesAndTerritoriesEstablishedIn1929
p82
aVhttp://dbpedia.org/class/yago/WorldHeritageSitesInVaticanCity
p83
aVhttp://dbpedia.org/resource/Vatican_City
tp84
aa(lp85
a(lp86
aa(lp87
(lp88
((lp89
Vhttp://www.w3.org/2002/07/owl#Thing
p90
aVhttp://dbpedia.org/ontology/Place
p91
aVhttp://dbpedia.org/ontology/Location
p92
aVhttp://www.wikidata.org/entity/Q486972
p93
aVhttp://www.wikidata.org/entity/Q6256
p94
aVhttp://dbpedia.org/ontology/Country
p95
aVhttp://dbpedia.org/ontology/PopulatedPlace
p96
aVhttp://www.w3.org/2003/01/geo/wgs84_pos#SpatialThing
p97
aVhttp://schema.org/Country
p98
aVhttp://schema.org/Place
p99
aVhttp://umbel.org/umbel/rc/Country
p100
aVhttp://umbel.org/umbel/rc/Location_Underspecified
p101
aVhttp://umbel.org/umbel/rc/PopulatedPlace
p102
aVhttp://dbpedia.org/class/yago/Abstraction100002137
p103
aVhttp://dbpedia.org/class/yago/AdministrativeDistrict108491826
p104
aVhttp://dbpedia.org/class/yago/BicontinentalCountries
p105
aVhttp://dbpedia.org/class/yago/CaribbeanCountries
p106
aVhttp://dbpedia.org/class/yago/Country108544813
p107
aVhttp://dbpedia.org/class/yago/District108552138
p108
aVhttp://dbpedia.org/class/yago/Economy108366753
p109
aVhttp://dbpedia.org/class/yago/Group100031264
p110
aVhttp://dbpedia.org/class/yago/Location100027167
p111
aVhttp://dbpedia.org/class/yago/Object100002684
p112
aVhttp://dbpedia.org/class/yago/Region108630985
p113
aVhttp://dbpedia.org/class/yago/System108435388
p114
aVhttp://dbpedia.org/class/yago/YagoGeoEntity
p115
aVhttp://dbpedia.org/class/yago/YagoLegalActorGeo
p116
aVhttp://dbpedia.org/class/yago/CountriesBorderingTheAtlanticOcean
p117
aVhttp://dbpedia.org/class/yago/Dutch-speakingCountries
p118
aVhttp://dbpedia.org/class/yago/EuropeanCountries
p119
aVhttp://dbpedia.org/class/yago/EuropeanUnionMemberEconomies
p120
aVhttp://dbpedia.org/class/yago/PhysicalEntity100001930
p121
aVhttp://dbpedia.org/class/yago/YagoPermanentlyLocatedEntity
p122
aVhttp://dbpedia.org/class/yago/MemberStatesOfNATO
p123
aVhttp://dbpedia.org/class/yago/MemberStatesOfTheDutchLanguageUnion
p124
aVhttp://dbpedia.org/class/yago/MemberStatesOfTheEuropeanUnion
p125
aVhttp://dbpedia.org/class/yago/MemberStatesOfTheUnionForTheMediterranean
p126
aVhttp://dbpedia.org/resource/Netherlands
tp127
aa(lp128
a(lp129
a(lp130
aa(lp131
(lp132
a(lp133
a(lp134
a(lp135
aa(lp136
(lp137
((lp138
Vhttp://www.w3.org/2002/07/owl#Thing
p139
aVhttp://dbpedia.org/ontology/Place
p140
aVhttp://dbpedia.org/ontology/Location
p141
aVhttp://www.wikidata.org/entity/Q486972
p142
aVhttp://www.wikidata.org/entity/Q6256
p143
aVhttp://dbpedia.org/ontology/Country
p144
aVhttp://dbpedia.org/ontology/PopulatedPlace
p145
aVhttp://www.w3.org/2003/01/geo/wgs84_pos#SpatialThing
p146
aVhttp://schema.org/Country
p147
aVhttp://schema.org/Place
p148
aVhttp://umbel.org/umbel/rc/Country
p149
aVhttp://umbel.org/umbel/rc/Location_Underspecified
p150
aVhttp://umbel.org/umbel/rc/PopulatedPlace
p151
aVhttp://dbpedia.org/class/yago/Abstraction100002137
p152
aVhttp://dbpedia.org/class/yago/AdministrativeDistrict108491826
p153
aVhttp://dbpedia.org/class/yago/AlpineCountries
p154
aVhttp://dbpedia.org/class/yago/Country108544813
p155
aVhttp://dbpedia.org/class/yago/District108552138
p156
aVhttp://dbpedia.org/class/yago/Economy108366753
p157
aVhttp://dbpedia.org/class/yago/Group100031264
p158
aVhttp://dbpedia.org/class/yago/Location100027167
p159
aVhttp://dbpedia.org/class/yago/Object100002684
p160
aVhttp://dbpedia.org/class/yago/Region108630985
p161
aVhttp://dbpedia.org/class/yago/System108435388
p162
aVhttp://dbpedia.org/class/yago/YagoGeoEntity
p163
aVhttp://dbpedia.org/class/yago/YagoLegalActorGeo
p164
aVhttp://dbpedia.org/class/yago/EuropeanCountries
p165
aVhttp://dbpedia.org/class/yago/FederalCountries
p166
aVhttp://dbpedia.org/class/yago/French-speakingCountries
p167
aVhttp://dbpedia.org/class/yago/PhysicalEntity100001930
p168
aVhttp://dbpedia.org/class/yago/YagoPermanentlyLocatedEntity
p169
aVhttp://dbpedia.org/class/yago/German-speakingCountries
p170
aVhttp://dbpedia.org/class/yago/Italian-speakingCountries
p171
aVhttp://dbpedia.org/class/yago/LandlockedCountries
p172
aVhttp://dbpedia.org/class/yago/MemberStatesOfLaFrancophonie
p173
aVhttp://dbpedia.org/class/yago/MemberStatesOfTheUnitedNations
p174
aVhttp://dbpedia.org/class/yago/StatesAndTerritoriesEstablishedIn1291
p175
aVhttp://dbpedia.org/class/yago/WorldTradeOrganizationMemberEconomies
p176
aVhttp://dbpedia.org/resource/Switzerland
tp177
aa(lp178
a(lp179
a(lp180
aa(lp181
(lp182
a(lp183
a(lp184
a(lp185
aa(lp186
(lp187
a(lp188
a(lp189
a(lp190
aa(lp191
(lp192
a(lp193
((lp194
Vhttp://www.w3.org/2002/07/owl#Thing
p195
aVhttp://dbpedia.org/ontology/Place
p196
aVhttp://dbpedia.org/ontology/Location
p197
aVhttp://www.wikidata.org/entity/Q486972
p198
aVhttp://dbpedia.org/ontology/PopulatedPlace
p199
aVhttp://dbpedia.org/ontology/Settlement
p200
aVhttp://www.w3.org/2003/01/geo/wgs84_pos#SpatialThing
p201
aVhttp://schema.org/Place
p202
aVhttp://umbel.org/umbel/rc/Location_Underspecified
p203
aVhttp://umbel.org/umbel/rc/PopulatedPlace
p204
aVhttp://umbel.org/umbel/rc/Village
p205
aVhttp://dbpedia.org/class/yago/AdministrativeDistrict108491826
p206
aVhttp://dbpedia.org/class/yago/District108552138
p207
aVhttp://dbpedia.org/class/yago/Location100027167
p208
aVhttp://dbpedia.org/class/yago/Object100002684
p209
aVhttp://dbpedia.org/class/yago/Region108630985
p210
aVhttp://dbpedia.org/class/yago/YagoGeoEntity
p211
aVhttp://dbpedia.org/class/yago/YagoLegalActorGeo
p212
aVhttp://dbpedia.org/class/yago/PhysicalEntity100001930
p213
aVhttp://dbpedia.org/class/yago/YagoPermanentlyLocatedEntity
p214
aVhttp://dbpedia.org/resource/Monte_Carlo
p215
tp216
aa(lp217
a(lp218
aa(lp219
(lp220
a(lp221
a(lp222
a(lp223
aa(lp224
(lp225
a(lp226
a(lp227
a(lp228
aa(lp229
(lp230
a(lp231
a(lp232
a(lp233
aa(lp234
(lp235
a(lp236
a(lp237
a(lp238
aa(lp239
(lp240
a(lp241
a(lp242
a(lp243
aa(lp244
(lp245
a(lp246
a(lp247
a(lp248
aa(lp249
(lp250
a(lp251
a(lp252
a(lp253
aa.