(lp1
(lp2
(dp3
Vstart
p4
I0
sVdisambiguatedURL
p5
NsVnamedEntity
p6
V3m
p7
sVoffset
p8
I2
saa(lp9
(dp10
Vstart
p11
I0
sVdisambiguatedURL
p12
NsVnamedEntity
p13
Valcoa
p14
sVoffset
p15
I5
saa(lp16
(dp17
Vstart
p18
I0
sVdisambiguatedURL
p19
Vhttp://dbpedia.org/resource/American_Express
p20
sVnamedEntity
p21
Vamerican express
p22
sVoffset
p23
I16
saa(lp24
(dp25
Vstart
p26
I0
sVdisambiguatedURL
p27
NsVnamedEntity
p28
Vat&amp;t
p29
sVoffset
p30
I8
saa(lp31
(dp32
Vstart
p33
I0
sVdisambiguatedURL
p34
Vhttp://dbpedia.org/resource/Bank_of_America
p35
sVnamedEntity
p36
Vbank of america
p37
sVoffset
p38
I15
saa(lp39
(dp40
Vstart
p41
I0
sVdisambiguatedURL
p42
NsVnamedEntity
p43
Vboeing
p44
sVoffset
p45
I6
saa(lp46
(dp47
Vstart
p48
I0
sVdisambiguatedURL
p49
Vhttp://dbpedia.org/resource/Caterpillar
p50
sVnamedEntity
p51
Vcaterpillar
p52
sVoffset
p53
I11
saa(lp54
(dp55
Vstart
p56
I0
sVdisambiguatedURL
p57
Vhttp://dbpedia.org/resource/Chevron_Corporation
p58
sVnamedEntity
p59
Vchevron corporation
p60
sVoffset
p61
I19
saa(lp62
(dp63
Vstart
p64
I0
sVdisambiguatedURL
p65
NsVnamedEntity
p66
Vcitigroup
p67
sVoffset
p68
I9
saa(lp69
(dp70
Vstart
p71
I0
sVdisambiguatedURL
p72
NsVnamedEntity
p73
Vcoca-cola
p74
sVoffset
p75
I9
saa(lp76
(dp77
Vstart
p78
I0
sVdisambiguatedURL
p79
NsVnamedEntity
p80
Vdupont
p81
sVoffset
p82
I6
saa(lp83
(dp84
Vstart
p85
I0
sVdisambiguatedURL
p86
NsVnamedEntity
p87
Vexxonmobil
p88
sVoffset
p89
I10
saa(lp90
(dp91
Vstart
p92
I0
sVdisambiguatedURL
p93
Vhttp://dbpedia.org/resource/General_Electric
p94
sVnamedEntity
p95
Vgeneral electric
p96
sVoffset
p97
I16
saa(lp98
(dp99
Vstart
p100
I0
sVdisambiguatedURL
p101
Vhttp://dbpedia.org/resource/General_Motors
p102
sVnamedEntity
p103
Vgeneral motors
p104
sVoffset
p105
I14
saa(lp106
(dp107
Vstart
p108
I0
sVdisambiguatedURL
p109
Vhttp://dbpedia.org/resource/Hewlett-Packard
p110
sVnamedEntity
p111
Vhewlett-packard
p112
sVoffset
p113
I15
saa(lp114
(dp115
Vstart
p116
I0
sVdisambiguatedURL
p117
NsVnamedEntity
p118
Vthe home depot
p119
sVoffset
p120
I14
saa(lp121
(dp122
Vstart
p123
I0
sVdisambiguatedURL
p124
NsVnamedEntity
p125
Vintel
p126
sVoffset
p127
I5
saa(lp128
(dp129
Vstart
p130
I0
sVdisambiguatedURL
p131
NsVnamedEntity
p132
Vibm
p133
sVoffset
p134
I3
saa(lp135
(dp136
Vstart
p137
I0
sVdisambiguatedURL
p138
NsVnamedEntity
p139
Vjohnson &amp; johnson
p140
sVoffset
p141
I21
saa(lp142
(dp143
Vstart
p144
I0
sVdisambiguatedURL
p145
Vhttp://dbpedia.org/resource/JPMorgan_Chase
p146
sVnamedEntity
p147
Vjpmorgan chase
p148
sVoffset
p149
I14
saa.