(lp1
(dp2
I0
(dp3
I0
(lp4
sI1
(lp5
sI2
(lp6
sI3
(lp7
ssI1
(dp8
I0
g5
sI1
(lp9
sI2
(lp10
sI3
(lp11
ssI2
(dp12
I0
g6
sI1
g10
sI2
(lp13
sI3
(lp14
ssI3
(dp15
I0
g7
sI1
g11
sI2
g14
sI3
(lp16
ssa(dp17
I0
(dp18
I0
(lp19
sI1
(lp20
Vhttp://dbpedia.org/ontology/abstract
p21
aVhttp://dbpedia.org/ontology/wikiPageDisambiguates
p22
aVhttp://www.w3.org/2000/01/rdf-schema#comment
p23
asI2
(lp24
Vhttp://dbpedia.org/ontology/abstract
p25
aVhttp://dbpedia.org/property/products
p26
aVhttp://dbpedia.org/ontology/wikiPageRedirects
p27
aVhttp://www.w3.org/2000/01/rdf-schema#comment
p28
asI3
(lp29
ssI1
(dp30
I0
g20
sI1
(lp31
sI2
(lp32
sI3
(lp33
ssI2
(dp34
I0
g24
sI1
g32
sI2
(lp35
sI3
(lp36
ssI3
(dp37
I0
g29
sI1
g33
sI2
g36
sI3
(lp38
ssa(dp39
I0
(dp40
I0
(lp41
sI1
(lp42
Vhttp://dbpedia.org/ontology/abstract
p43
aVhttp://www.w3.org/2000/01/rdf-schema#comment
p44
asI2
(lp45
sI3
(lp46
ssI1
(dp47
I0
g42
sI1
(lp48
sI2
(lp49
sI3
(lp50
ssI2
(dp51
I0
g45
sI1
g49
sI2
(lp52
sI3
(lp53
ssI3
(dp54
I0
g46
sI1
g50
sI2
g53
sI3
(lp55
ssa(dp56
I0
(dp57
I0
(lp58
sI1
(lp59
sI2
(lp60
sI3
(lp61
ssI1
(dp62
I0
g59
sI1
(lp63
sI2
(lp64
Vhttp://dbpedia.org/property/industry
p65
aVhttp://www.w3.org/1999/02/22-rdf-syntax-ns#type
p66
aVhttp://purl.org/dc/terms/subject
p67
asI3
(lp68
ssI2
(dp69
I0
g60
sI1
g64
sI2
(lp70
sI3
(lp71
ssI3
(dp72
I0
g61
sI1
g68
sI2
g71
sI3
(lp73
ssa(dp74
I0
(dp75
I0
(lp76
sI1
(lp77
Vhttp://dbpedia.org/ontology/wikiPageExternalLink
p78
aVhttp://dbpedia.org/property/symbol
p79
aVhttp://dbpedia.org/ontology/abstract
p80
aVhttp://dbpedia.org/ontology/wikiPageRedirects
p81
aVhttp://www.w3.org/2000/01/rdf-schema#comment
p82
asI2
(lp83
sI3
(lp84
ssI1
(dp85
I0
g77
sI1
(lp86
sI2
(lp87
sI3
(lp88
ssI2
(dp89
I0
g83
sI1
g87
sI2
(lp90
sI3
(lp91
ssI3
(dp92
I0
g84
sI1
g88
sI2
g91
sI3
(lp93
ssa(dp94
I0
(dp95
I0
(lp96
sI1
(lp97
sI2
(lp98
sI3
(lp99
ssI1
(dp100
I0
g97
sI1
(lp101
sI2
(lp102
sI3
(lp103
ssI2
(dp104
I0
g98
sI1
g102
sI2
(lp105
sI3
(lp106
ssI3
(dp107
I0
g99
sI1
g103
sI2
g106
sI3
(lp108
ssa(dp109
I0
(dp110
I0
(lp111
sI1
(lp112
Vhttp://dbpedia.org/ontology/wikiPageExternalLink
p113
aVhttp://xmlns.com/foaf/0.1/primaryTopic
p114
aVhttp://purl.org/dc/terms/subject
p115
aVhttp://www.w3.org/2000/01/rdf-schema#comment
p116
aVhttp://www.w3.org/2000/01/rdf-schema#label
p117
aVhttp://dbpedia.org/ontology/abstract
p118
aVhttp://dbpedia.org/ontology/wikiPageRedirects
p119
aVhttp://xmlns.com/foaf/0.1/isPrimaryTopicOf
p120
aVhttp://www.w3.org/ns/prov#wasDerivedFrom
p121
aVhttp://dbpedia.org/property/hasPhotoCollection
p122
aVhttp://dbpedia.org/ontology/wikiPageDisambiguates
p123
aVhttp://dbpedia.org/ontology/species
p124
aVhttp://dbpedia.org/property/species
p125
asI2
(lp126
sI3
(lp127
ssI1
(dp128
I0
g112
sI1
(lp129
sI2
(lp130
sI3
(lp131
ssI2
(dp132
I0
g126
sI1
g130
sI2
(lp133
sI3
(lp134
ssI3
(dp135
I0
g127
sI1
g131
sI2
g134
sI3
(lp136
ssa(dp137
I0
(dp138
I0
(lp139
sI1
(lp140
Vhttp://dbpedia.org/ontology/abstract
p141
aVhttp://www.w3.org/2000/01/rdf-schema#comment
p142
asI2
(lp143
sI3
(lp144
ssI1
(dp145
I0
g140
sI1
(lp146
sI2
(lp147
sI3
(lp148
ssI2
(dp149
I0
g143
sI1
g147
sI2
(lp150
sI3
(lp151
ssI3
(dp152
I0
g144
sI1
g148
sI2
g151
sI3
(lp153
ssa(dp154
I0
(dp155
I0
(lp156
sI1
(lp157
Vhttp://dbpedia.org/ontology/type
p158
aVhttp://dbpedia.org/property/hoovers
p159
aVhttp://dbpedia.org/property/industry
p160
aVhttp://dbpedia.org/ontology/board
p161
aVhttp://dbpedia.org/property/name
p162
aVhttp://dbpedia.org/ontology/owningCompany
p163
aVhttp://dbpedia.org/property/homepage
p164
aVhttp://dbpedia.org/property/boards
p165
aVhttp://www.w3.org/ns/prov#wasDerivedFrom
p166
aVhttp://dbpedia.org/ontology/industry
p167
aVhttp://www.w3.org/2002/07/owl#differentFrom
p168
aVhttp://www.w3.org/1999/02/22-rdf-syntax-ns#type
p169
aVhttp://dbpedia.org/property/sponsors
p170
aVhttp://dbpedia.org/ontology/product
p171
aVhttp://dbpedia.org/property/parent
p172
aVhttp://dbpedia.org/property/wordnet_type
p173
aVhttp://dbpedia.org/property/products
p174
aVhttp://dbpedia.org/property/keyPeople
p175
aVhttp://dbpedia.org/ontology/subsidiary
p176
aVhttp://dbpedia.org/property/predecessor
p177
aVhttp://dbpedia.org/property/subsid
p178
aVhttp://dbpedia.org/property/symbol
p179
aVhttp://xmlns.com/foaf/0.1/isPrimaryTopicOf
p180
aVhttp://dbpedia.org/ontology/wikiPageExternalLink
p181
aVhttp://xmlns.com/foaf/0.1/primaryTopic
p182
aVhttp://purl.org/dc/terms/subject
p183
aVhttp://dbpedia.org/property/credits
p184
aVhttp://dbpedia.org/ontology/abstract
p185
aVhttp://xmlns.com/foaf/0.1/depiction
p186
aVhttp://dbpedia.org/property/type
p187
aVhttp://dbpedia.org/property/institution
p188
aVhttp://dbpedia.org/property/developer
p189
aVhttp://dbpedia.org/property/owner
p190
aVhttp://dbpedia.org/ontology/locationCountry
p191
aVhttp://dbpedia.org/ontology/thumbnail
p192
aVhttp://dbpedia.org/ontology/parentCompany
p193
aVhttp://dbpedia.org/property/hasPhotoCollection
p194
aVhttp://www.w3.org/2000/01/rdf-schema#label
p195
aVhttp://dbpedia.org/property/title
p196
aVhttp://dbpedia.org/ontology/predecessor
p197
aVhttp://dbpedia.org/ontology/institution
p198
aVhttp://dbpedia.org/property/tradedAs
p199
aVhttp://www.w3.org/2000/01/rdf-schema#comment
p200
aVhttp://dbpedia.org/ontology/wikiPageDisambiguates
p201
aVhttp://dbpedia.org/ontology/wikiPageRedirects
p202
aVhttp://dbpedia.org/ontology/keyPerson
p203
aVhttp://dbpedia.org/ontology/owner
p204
aVhttp://dbpedia.org/property/locationCity
p205
aVhttp://xmlns.com/foaf/0.1/name
p206
aVhttp://xmlns.com/foaf/0.1/homepage
p207
aVhttp://dbpedia.org/ontology/locationCity
p208
aVhttp://www.w3.org/2002/07/owl#sameAs
p209
aVhttp://dbpedia.org/ontology/occupation
p210
asI2
(lp211
Vhttp://dbpedia.org/property/industry
p212
aVhttp://www.w3.org/2000/01/rdf-schema#comment
p213
aVhttp://dbpedia.org/ontology/subsidiary
p214
aVhttp://dbpedia.org/ontology/abstract
p215
aVhttp://dbpedia.org/property/products
p216
aVhttp://dbpedia.org/property/subsid
p217
aVhttp://dbpedia.org/ontology/product
p218
asI3
(lp219
ssI1
(dp220
I0
g157
sI1
(lp221
sI2
(lp222
sI3
(lp223
ssI2
(dp224
I0
g211
sI1
g222
sI2
(lp225
sI3
(lp226
ssI3
(dp227
I0
g219
sI1
g223
sI2
g226
sI3
(lp228
ssa(dp229
I0
(dp230
I0
(lp231
sI1
(lp232
Vhttp://www.w3.org/2000/01/rdf-schema#comment
p233
aVhttp://dbpedia.org/ontology/abstract
p234
aVhttp://dbpedia.org/property/manufacturer
p235
aVhttp://dbpedia.org/property/employer
p236
aVhttp://www.w3.org/2002/07/owl#sameAs
p237
aVhttp://dbpedia.org/ontology/employer
p238
asI2
(lp239
sI3
(lp240
ssI1
(dp241
I0
g232
sI1
(lp242
sI2
(lp243
sI3
(lp244
ssI2
(dp245
I0
g239
sI1
g243
sI2
(lp246
sI3
(lp247
ssI3
(dp248
I0
g240
sI1
g244
sI2
g247
sI3
(lp249
ssa(dp250
I0
(dp251
I0
(lp252
sI1
(lp253
Vhttp://dbpedia.org/ontology/abstract
p254
aVhttp://dbpedia.org/property/workplaces
p255
aVhttp://www.w3.org/2000/01/rdf-schema#comment
p256
asI2
(lp257
sI3
(lp258
ssI1
(dp259
I0
g253
sI1
(lp260
sI2
(lp261
sI3
(lp262
ssI2
(dp263
I0
g257
sI1
g261
sI2
(lp264
sI3
(lp265
ssI3
(dp266
I0
g258
sI1
g262
sI2
g265
sI3
(lp267
ssa(dp268
I0
(dp269
I0
(lp270
sI1
(lp271
Vhttp://dbpedia.org/property/symbol
p272
aVhttp://dbpedia.org/ontology/wikiPageDisambiguates
p273
aVhttp://dbpedia.org/ontology/abstract
p274
aVhttp://www.w3.org/2000/01/rdf-schema#comment
p275
asI2
(lp276
sI3
(lp277
ssI1
(dp278
I0
g271
sI1
(lp279
sI2
(lp280
sI3
(lp281
ssI2
(dp282
I0
g276
sI1
g280
sI2
(lp283
sI3
(lp284
ssI3
(dp285
I0
g277
sI1
g281
sI2
g284
sI3
(lp286
ssa(dp287
I0
(dp288
I0
(lp289
sI1
(lp290
Vhttp://www.w3.org/2000/01/rdf-schema#seeAlso
p291
aVhttp://dbpedia.org/ontology/powerType
p292
aVhttp://dbpedia.org/ontology/type
p293
aVhttp://dbpedia.org/property/commissionedBy
p294
aVhttp://dbpedia.org/property/hoovers
p295
aVhttp://dbpedia.org/property/reactorSupplier
p296
aVhttp://dbpedia.org/property/name
p297
aVhttp://dbpedia.org/ontology/owningCompany
p298
aVhttp://dbpedia.org/property/homepage
p299
aVhttp://dbpedia.org/property/user
p300
aVhttp://www.w3.org/ns/prov#wasDerivedFrom
p301
aVhttp://www.w3.org/2002/07/owl#differentFrom
p302
aVhttp://dbpedia.org/property/hasPhotoCollection
p303
aVhttp://www.w3.org/1999/02/22-rdf-syntax-ns#type
p304
aVhttp://dbpedia.org/property/turbineManu
p305
aVhttp://dbpedia.org/ontology/designer
p306
aVhttp://dbpedia.org/property/parent
p307
aVhttp://dbpedia.org/property/plantTurbines
p308
aVhttp://xmlns.com/foaf/0.1/isPrimaryTopicOf
p309
aVhttp://dbpedia.org/property/owner
p310
aVhttp://dbpedia.org/property/turbineManuOther
p311
aVhttp://dbpedia.org/property/subsid
p312
aVhttp://dbpedia.org/property/symbol
p313
aVhttp://dbpedia.org/ontology/wikiPageExternalLink
p314
aVhttp://xmlns.com/foaf/0.1/primaryTopic
p315
aVhttp://purl.org/dc/terms/subject
p316
aVhttp://dbpedia.org/property/manufacturer
p317
aVhttp://dbpedia.org/ontology/subsidiary
p318
aVhttp://dbpedia.org/ontology/abstract
p319
aVhttp://xmlns.com/foaf/0.1/depiction
p320
aVhttp://dbpedia.org/ontology/builder
p321
aVhttp://dbpedia.org/property/designer
p322
aVhttp://dbpedia.org/property/generationUnits
p323
aVhttp://dbpedia.org/ontology/thumbnail
p324
aVhttp://xmlns.com/foaf/0.1/homepage
p325
aVhttp://dbpedia.org/ontology/parentCompany
p326
aVhttp://dbpedia.org/property/builder
p327
aVhttp://www.w3.org/2000/01/rdf-schema#label
p328
aVhttp://dbpedia.org/property/title
p329
aVhttp://dbpedia.org/property/turbineManuNpp
p330
aVhttp://www.w3.org/2000/01/rdf-schema#comment
p331
aVhttp://dbpedia.org/ontology/wikiPageDisambiguates
p332
aVhttp://dbpedia.org/ontology/wikiPageRedirects
p333
aVhttp://dbpedia.org/ontology/owner
p334
aVhttp://dbpedia.org/property/design
p335
aVhttp://xmlns.com/foaf/0.1/name
p336
aVhttp://dbpedia.org/property/technology
p337
aVhttp://www.w3.org/2002/07/owl#sameAs
p338
asI2
(lp339
Vhttp://dbpedia.org/property/industry
p340
aVhttp://www.w3.org/1999/02/22-rdf-syntax-ns#type
p341
aVhttp://purl.org/dc/terms/subject
p342
aVhttp://www.w3.org/2000/01/rdf-schema#comment
p343
aVhttp://dbpedia.org/ontology/abstract
p344
aVhttp://dbpedia.org/ontology/industry
p345
asI3
(lp346
ssI1
(dp347
I0
g290
sI1
(lp348
sI2
(lp349
Vhttp://dbpedia.org/property/industry
p350
aVhttp://www.w3.org/1999/02/22-rdf-syntax-ns#type
p351
aVhttp://purl.org/dc/terms/subject
p352
aVhttp://www.w3.org/2000/01/rdf-schema#comment
p353
aVhttp://dbpedia.org/ontology/abstract
p354
aVhttp://dbpedia.org/ontology/industry
p355
asI3
(lp356
ssI2
(dp357
I0
g339
sI1
g349
sI2
(lp358
sI3
(lp359
ssI3
(dp360
I0
g346
sI1
g356
sI2
g359
sI3
(lp361
ssa(dp362
I0
(dp363
I0
(lp364
sI1
(lp365
Vhttp://dbpedia.org/ontology/wikiPageExternalLink
p366
aVhttp://dbpedia.org/property/divisions
p367
aVhttp://dbpedia.org/property/imageCaption
p368
aVhttp://www.w3.org/2000/01/rdf-schema#comment
p369
aVhttp://dbpedia.org/ontology/wikiPageDisambiguates
p370
aVhttp://dbpedia.org/ontology/abstract
p371
aVhttp://dbpedia.org/property/manufacturer
p372
aVhttp://dbpedia.org/property/type
p373
aVhttp://dbpedia.org/ontology/wikiPageRedirects
p374
aVhttp://dbpedia.org/property/parent
p375
aVhttp://dbpedia.org/property/developer
p376
aVhttp://dbpedia.org/ontology/owner
p377
aVhttp://dbpedia.org/ontology/division
p378
aVhttp://dbpedia.org/property/homepage
p379
aVhttp://dbpedia.org/ontology/developer
p380
aVhttp://dbpedia.org/property/owner
p381
aVhttp://xmlns.com/foaf/0.1/homepage
p382
aVhttp://dbpedia.org/property/parentCompany
p383
aVhttp://dbpedia.org/ontology/parentCompany
p384
aVhttp://dbpedia.org/ontology/owningCompany
p385
aVhttp://dbpedia.org/ontology/manufacturer
p386
asI2
(lp387
Vhttp://dbpedia.org/property/products
p388
asI3
(lp389
ssI1
(dp390
I0
g365
sI1
(lp391
sI2
(lp392
Vhttp://dbpedia.org/property/products
p393
asI3
(lp394
ssI2
(dp395
I0
g387
sI1
g392
sI2
(lp396
sI3
(lp397
ssI3
(dp398
I0
g389
sI1
g394
sI2
g397
sI3
(lp399
ssa(dp400
I0
(dp401
I0
(lp402
sI1
(lp403
Vhttp://dbpedia.org/property/symbol
p404
aVhttp://dbpedia.org/ontology/abstract
p405
aVhttp://dbpedia.org/ontology/wikiPageRedirects
p406
aVhttp://www.w3.org/2000/01/rdf-schema#comment
p407
asI2
(lp408
sI3
(lp409
ssI1
(dp410
I0
g403
sI1
(lp411
sI2
(lp412
sI3
(lp413
ssI2
(dp414
I0
g408
sI1
g412
sI2
(lp415
sI3
(lp416
ssI3
(dp417
I0
g409
sI1
g413
sI2
g416
sI3
(lp418
ssa(dp419
I0
(dp420
I0
(lp421
sI1
(lp422
Vhttp://dbpedia.org/ontology/abstract
p423
aVhttp://dbpedia.org/ontology/wikiPageDisambiguates
p424
aVhttp://www.w3.org/2000/01/rdf-schema#comment
p425
asI2
(lp426
sI3
(lp427
ssI1
(dp428
I0
g422
sI1
(lp429
sI2
(lp430
sI3
(lp431
ssI2
(dp432
I0
g426
sI1
g430
sI2
(lp433
sI3
(lp434
ssI3
(dp435
I0
g427
sI1
g431
sI2
g434
sI3
(lp436
ssa(dp437
I0
(dp438
I0
(lp439
sI1
(lp440
Vhttp://dbpedia.org/property/symbol
p441
aVhttp://dbpedia.org/ontology/abstract
p442
aVhttp://dbpedia.org/ontology/wikiPageRedirects
p443
aVhttp://www.w3.org/2000/01/rdf-schema#comment
p444
asI2
(lp445
Vhttp://dbpedia.org/property/industry
p446
asI3
(lp447
ssI1
(dp448
I0
g440
sI1
(lp449
sI2
(lp450
Vhttp://dbpedia.org/property/industry
p451
asI3
(lp452
ssI2
(dp453
I0
g445
sI1
g450
sI2
(lp454
sI3
(lp455
ssI3
(dp456
I0
g447
sI1
g452
sI2
g455
sI3
(lp457
ssa(dp458
I0
(dp459
I0
(lp460
sI1
(lp461
sI2
(lp462
sI3
(lp463
ssI1
(dp464
I1
(lp465
sI2
(lp466
sI3
(lp467
ssI2
(dp468
I0
g462
sI1
g466
sI2
(lp469
sI3
(lp470
ssI3
(dp471
I0
g463
sI1
g467
sI2
g470
sI3
(lp472
ssa(dp473
I0
(dp474
I0
(lp475
sI1
(lp476
sI2
(lp477
sI3
(lp478
ssI1
(dp479
I0
g476
sI1
(lp480
sI2
(lp481
sI3
(lp482
ssI2
(dp483
I0
g477
sI1
g481
sI2
(lp484
sI3
(lp485
ssI3
(dp486
I0
g478
sI1
g482
sI2
g485
sI3
(lp487
ssa(dp488
I0
(dp489
I0
(lp490
sI1
(lp491
Vhttp://dbpedia.org/ontology/wikiPageExternalLink
p492
aVhttp://xmlns.com/foaf/0.1/primaryTopic
p493
aVhttp://purl.org/dc/terms/subject
p494
aVhttp://www.w3.org/2000/01/rdf-schema#comment
p495
aVhttp://www.w3.org/2000/01/rdf-schema#label
p496
aVhttp://dbpedia.org/property/symbol
p497
aVhttp://dbpedia.org/property/hoovers
p498
aVhttp://dbpedia.org/property/name
p499
aVhttp://dbpedia.org/ontology/wikiPageRedirects
p500
aVhttp://xmlns.com/foaf/0.1/name
p501
aVhttp://dbpedia.org/property/homepage
p502
aVhttp://xmlns.com/foaf/0.1/isPrimaryTopicOf
p503
aVhttp://www.w3.org/ns/prov#wasDerivedFrom
p504
aVhttp://xmlns.com/foaf/0.1/homepage
p505
aVhttp://dbpedia.org/property/hasPhotoCollection
p506
aVhttp://dbpedia.org/ontology/wikiPageDisambiguates
p507
aVhttp://dbpedia.org/ontology/abstract
p508
aVhttp://www.w3.org/2002/07/owl#sameAs
p509
asI2
(lp510
Vhttp://dbpedia.org/ontology/abstract
p511
aVhttp://dbpedia.org/property/products
p512
aVhttp://dbpedia.org/ontology/product
p513
aVhttp://www.w3.org/2000/01/rdf-schema#comment
p514
asI3
(lp515
ssI1
(dp516
I0
g491
sI1
(lp517
sI2
(lp518
sI3
(lp519
ssI2
(dp520
I0
g510
sI1
g518
sI2
(lp521
sI3
(lp522
ssI3
(dp523
I0
g515
sI1
g519
sI2
g522
sI3
(lp524
ssa.