(lp1
(lp2
(lp3
Vhttp://dbpedia.org/resource/Saudi_Arabia
p4
aa(lp5
Vhttp://dbpedia.org/resource/Null
p6
aa(lp7
Vhttp://dbpedia.org/resource/Arabic_script_in_Unicode
p8
aaa(lp9
(lp10
Vhttp://dbpedia.org/resource/Armenia
p11
aa(lp12
Vhttp://dbpedia.org/resource/Null
p13
aa(lp14
Vhttp://dbpedia.org/resource/Armenian
p15
aaa(lp16
(lp17
Vhttp://dbpedia.org/resource/Belarus
p18
aa(lp19
Vhttp://dbpedia.org/resource/Null
p20
aa(lp21
Vhttp://dbpedia.org/resource/Belarusian_cuisine
p22
aaa(lp23
(lp24
Vhttp://dbpedia.org/resource/Bulgaria
p25
aa(lp26
Vhttp://dbpedia.org/resource/Null
p27
aa(lp28
Vhttp://dbpedia.org/resource/Bulgarian_customs
p29
aaa(lp30
(lp31
Vhttp://dbpedia.org/resource/China
p32
aa(lp33
Vhttp://dbpedia.org/resource/Null
p34
aa(lp35
Vhttp://dbpedia.org/resource/Chinese
p36
aaa(lp37
(lp38
Vhttp://dbpedia.org/resource/Georgia_Street
p39
aa(lp40
Vhttp://dbpedia.org/resource/Null
p41
aa(lp42
Vhttp://dbpedia.org/resource/Air_Georgian
p43
aaa(lp44
(lp45
Vhttp://dbpedia.org/resource/Greece
p46
aa(lp47
Vhttp://dbpedia.org/resource/Null
p48
aa(lp49
Vhttp://dbpedia.org/resource/Greek
p50
aaa(lp51
(lp52
Vhttp://dbpedia.org/resource/India
p53
aa(lp54
Vhttp://dbpedia.org/resource/Null
p55
aa(lp56
Vhttp://dbpedia.org/resource/Hindi_Belt
p57
aaa(lp58
(lp59
Vhttp://dbpedia.org/resource/Israel
p60
aa(lp61
Vhttp://dbpedia.org/resource/Null
p62
aa(lp63
Vhttp://dbpedia.org/resource/Modern_Hebrew_phonology
p64
aaa.