(lp1
(lp2
(dp3
Vstart
p4
I0
sVdisambiguatedURL
p5
Vhttp://dbpedia.org/resource/S/mileage
p6
sVnamedEntity
p7
Vmileage:
p8
sVoffset
p9
I8
saa(lp10
(dp11
Vstart
p12
I0
sVdisambiguatedURL
p13
NsVnamedEntity
p14
Vstock #:
p15
sVoffset
p16
I8
saa.