(lp1
(lp2
(dp3
Vstart
p4
I0
sVdisambiguatedURL
p5
Vhttp://dbpedia.org/resource/Chinese
p6
sVnamedEntity
p7
VChinese
p8
sVoffset
p9
I7
saa(lp10
(dp11
Vstart
p12
I0
sVdisambiguatedURL
p13
Vhttp://dbpedia.org/resource/English,_Indiana
p14
sVnamedEntity
p15
VEnglish
p16
sVoffset
p17
I7
saa(lp18
(dp19
Vstart
p20
I0
sVdisambiguatedURL
p21
Vhttp://dbpedia.org/resource/English,_Indiana
p22
sVnamedEntity
p23
VEnglish
p24
sVoffset
p25
I7
saa(lp26
(dp27
Vstart
p28
I0
sVdisambiguatedURL
p29
Vhttp://dbpedia.org/resource/English,_Indiana
p30
sVnamedEntity
p31
VEnglish
p32
sVoffset
p33
I7
saa(lp34
(dp35
Vstart
p36
I0
sVdisambiguatedURL
p37
Vhttp://dbpedia.org/resource/English,_Indiana
p38
sVnamedEntity
p39
VEnglish
p40
sVoffset
p41
I7
saa(lp42
(dp43
Vstart
p44
I0
sVdisambiguatedURL
p45
Vhttp://dbpedia.org/resource/French_River_(Ontario)
p46
sVnamedEntity
p47
VFrench
p48
sVoffset
p49
I6
saa(lp50
(dp51
Vstart
p52
I0
sVdisambiguatedURL
p53
Vhttp://dbpedia.org/resource/Demographics_of_Kiribati
p54
sVnamedEntity
p55
VI-Kiribati
p56
sVoffset
p57
I10
saa(lp58
(dp59
Vstart
p60
I0
sVdisambiguatedURL
p61
NsVnamedEntity
p62
VKwara&#145;ae
p63
sVoffset
p64
I13
saa(lp65
(dp66
Vstart
p67
I0
sVdisambiguatedURL
p68
Vhttp://dbpedia.org/resource/Maina_(Cook_Islands)
p69
sVnamedEntity
p70
VMaori (Cook Islands)
p71
sVoffset
p72
I20
saa(lp73
(dp74
Vstart
p75
I0
sVdisambiguatedURL
p76
Vhttp://dbpedia.org/resource/Maina_(Cook_Islands)
p77
sVnamedEntity
p78
VMaori (Cook Islands)
p79
sVoffset
p80
I20
saa(lp81
(dp82
Vstart
p83
I0
sVdisambiguatedURL
p84
NsVnamedEntity
p85
VMarshallese
p86
sVoffset
p87
I11
saa(lp88
(dp89
Vstart
p90
I0
sVdisambiguatedURL
p91
NsVnamedEntity
p92
VMarshallese
p93
sVoffset
p94
I11
saa(lp95
(dp96
Vstart
p97
I0
sVdisambiguatedURL
p98
NsVnamedEntity
p99
VMarshallese
p100
sVoffset
p101
I11
saa(lp102
(dp103
Vstart
p104
I0
sVdisambiguatedURL
p105
NsVnamedEntity
p106
VMarshallese
p107
sVoffset
p108
I11
saa(lp109
(dp110
Vstart
p111
I0
sVdisambiguatedURL
p112
NsVnamedEntity
p113
VMarshallese
p114
sVoffset
p115
I11
saa(lp116
(dp117
Vstart
p118
I0
sVdisambiguatedURL
p119
NsVnamedEntity
p120
VPalauan
p121
sVoffset
p122
I7
saa(lp123
(dp124
Vstart
p125
I0
sVdisambiguatedURL
p126
NsVnamedEntity
p127
VPohnpeian
p128
sVoffset
p129
I9
saa(lp130
(dp131
Vstart
p132
I0
sVdisambiguatedURL
p133
Vhttp://dbpedia.org/resource/Spanish,_Ontario
p134
sVnamedEntity
p135
VSpanish
p136
sVoffset
p137
I7
saa(lp138
(dp139
Vstart
p140
I0
sVdisambiguatedURL
p141
Vhttp://dbpedia.org/resource/Spanish,_Ontario
p142
sVnamedEntity
p143
VSpanish
p144
sVoffset
p145
I7
saa(lp146
(dp147
Vstart
p148
I0
sVdisambiguatedURL
p149
Vhttp://dbpedia.org/resource/Spanish,_Ontario
p150
sVnamedEntity
p151
VSpanish
p152
sVoffset
p153
I7
saa.