(lp1
(dp2
I0
(dp3
I0
(lp4
sI1
(lp5
sI2
(lp6
Vhttp://purl.org/dc/terms/subject
p7
aVhttp://dbpedia.org/ontology/abstract
p8
aVhttp://xmlns.com/foaf/0.1/depiction
p9
aVhttp://dbpedia.org/ontology/wikiPageRedirects
p10
aVhttp://dbpedia.org/ontology/thumbnail
p11
aVhttp://dbpedia.org/property/hasPhotoCollection
p12
aVhttp://dbpedia.org/ontology/wikiPageDisambiguates
p13
aVhttp://www.w3.org/2002/07/owl#sameAs
p14
asI3
(lp15
ssI1
(dp16
I0
g5
sI1
(lp17
sI2
(lp18
Vhttp://www.w3.org/2000/01/rdf-schema#seeAlso
p19
aVhttp://dbpedia.org/ontology/wikiPageExternalLink
p20
aVhttp://xmlns.com/foaf/0.1/primaryTopic
p21
aVhttp://www.w3.org/1999/02/22-rdf-syntax-ns#type
p22
aVhttp://purl.org/dc/terms/subject
p23
aVhttp://www.w3.org/2000/01/rdf-schema#comment
p24
aVhttp://www.w3.org/2000/01/rdf-schema#label
p25
aVhttp://dbpedia.org/ontology/abstract
p26
aVhttp://xmlns.com/foaf/0.1/depiction
p27
aVhttp://dbpedia.org/ontology/wikiPageRedirects
p28
aVhttp://dbpedia.org/property/rating
p29
aVhttp://dbpedia.org/property/customValue
p30
aVhttp://dbpedia.org/property/tvRating
p31
aVhttp://dbpedia.org/ontology/thumbnail
p32
aVhttp://www.w3.org/ns/prov#wasDerivedFrom
p33
aVhttp://xmlns.com/foaf/0.1/homepage
p34
aVhttp://dbpedia.org/property/hasPhotoCollection
p35
aVhttp://dbpedia.org/ontology/wikiPageDisambiguates
p36
aVhttp://dbpedia.org/ontology/genre
p37
aVhttp://www.w3.org/2002/07/owl#sameAs
p38
aVhttp://xmlns.com/foaf/0.1/isPrimaryTopicOf
p39
asI3
(lp40
ssI2
(dp41
I0
g6
sI1
g18
sI2
(lp42
sI3
(lp43
ssI3
(dp44
I0
g15
sI1
g40
sI2
g43
sI3
(lp45
ssa(dp46
I0
(dp47
I0
(lp48
sI1
(lp49
sI2
(lp50
Vhttp://www.w3.org/2000/01/rdf-schema#seeAlso
p51
aVhttp://dbpedia.org/property/mainCharTeam
p52
aVhttp://dbpedia.org/property/base
p53
aVhttp://dbpedia.org/ontology/previousWork
p54
aVhttp://dbpedia.org/property/caption
p55
aVhttp://www.w3.org/ns/prov#wasDerivedFrom
p56
aVhttp://purl.org/dc/terms/subject
p57
aVhttp://dbpedia.org/property/alliances
p58
aVhttp://www.w3.org/1999/02/22-rdf-syntax-ns#type
p59
aVhttp://dbpedia.org/property/fullroster
p60
aVhttp://dbpedia.org/property/teams
p61
aVhttp://dbpedia.org/property/source
p62
aVhttp://xmlns.com/foaf/0.1/isPrimaryTopicOf
p63
aVhttp://dbpedia.org/ontology/wikiPageDisambiguates
p64
aVhttp://dbpedia.org/property/issues
p65
aVhttp://dbpedia.org/ontology/wikiPageExternalLink
p66
aVhttp://xmlns.com/foaf/0.1/primaryTopic
p67
aVhttp://dbpedia.org/property/supports
p68
aVhttp://dbpedia.org/ontology/abstract
p69
aVhttp://dbpedia.org/property/cvrCaption
p70
aVhttp://dbpedia.org/property/endishmo
p71
aVhttp://dbpedia.org/property/hasPhotoCollection
p72
aVhttp://www.w3.org/2000/01/rdf-schema#label
p73
aVhttp://dbpedia.org/property/partners
p74
aVhttp://dbpedia.org/property/notableWorks
p75
aVhttp://www.w3.org/2000/01/rdf-schema#comment
p76
aVhttp://dbpedia.org/ontology/wikiPageRedirects
p77
aVhttp://purl.org/voc/vrank#hasRank
p78
aVhttp://dbpedia.org/property/publisher
p79
aVhttp://www.w3.org/2002/07/owl#sameAs
p80
asI3
(lp81
ssI1
(dp82
I0
g49
sI1
(lp83
sI2
(lp84
Vhttp://www.w3.org/2000/01/rdf-schema#seeAlso
p85
aVhttp://dbpedia.org/ontology/genre
p86
aVhttp://xmlns.com/foaf/0.1/primaryTopic
p87
aVhttp://www.w3.org/1999/02/22-rdf-syntax-ns#type
p88
aVhttp://purl.org/dc/terms/subject
p89
aVhttp://www.w3.org/2000/01/rdf-schema#comment
p90
aVhttp://www.w3.org/2000/01/rdf-schema#label
p91
aVhttp://dbpedia.org/ontology/abstract
p92
aVhttp://xmlns.com/foaf/0.1/depiction
p93
aVhttp://dbpedia.org/ontology/wikiPageRedirects
p94
aVhttp://purl.org/voc/vrank#hasRank
p95
aVhttp://dbpedia.org/property/customValue
p96
aVhttp://dbpedia.org/property/tvRating
p97
aVhttp://dbpedia.org/ontology/thumbnail
p98
aVhttp://www.w3.org/ns/prov#wasDerivedFrom
p99
aVhttp://dbpedia.org/property/hasPhotoCollection
p100
aVhttp://dbpedia.org/property/rating
p101
aVhttp://dbpedia.org/ontology/wikiPageDisambiguates
p102
aVhttp://www.w3.org/2002/07/owl#sameAs
p103
aVhttp://xmlns.com/foaf/0.1/isPrimaryTopicOf
p104
asI3
(lp105
ssI2
(dp106
I0
g50
sI1
g84
sI2
(lp107
sI3
(lp108
ssI3
(dp109
I0
g81
sI1
g105
sI2
g108
sI3
(lp110
ssa(dp111
I0
(dp112
I0
(lp113
sI1
(lp114
sI2
(lp115
sI3
(lp116
ssI1
(dp117
I0
g114
sI1
(lp118
sI2
(lp119
Vhttp://dbpedia.org/property/keyPeople
p120
aVhttp://dbpedia.org/ontology/type
p121
aVhttp://dbpedia.org/property/sponsor
p122
aVhttp://dbpedia.org/property/producer
p123
aVhttp://dbpedia.org/ontology/company
p124
aVhttp://dbpedia.org/property/industry
p125
aVhttp://dbpedia.org/ontology/board
p126
aVhttp://dbpedia.org/property/workplaces
p127
aVhttp://dbpedia.org/ontology/owningCompany
p128
aVhttp://dbpedia.org/ontology/distributor
p129
aVhttp://dbpedia.org/property/homepage
p130
aVhttp://dbpedia.org/property/boards
p131
aVhttp://dbpedia.org/property/creator
p132
aVhttp://www.w3.org/ns/prov#wasDerivedFrom
p133
aVhttp://dbpedia.org/property/caption
p134
aVhttp://dbpedia.org/ontology/industry
p135
aVhttp://dbpedia.org/property/label
p136
aVhttp://dbpedia.org/property/wordnet_type
p137
aVhttp://www.w3.org/1999/02/22-rdf-syntax-ns#type
p138
aVhttp://dbpedia.org/property/currentowner
p139
aVhttp://dbpedia.org/property/parent
p140
aVhttp://dbpedia.org/property/distributor
p141
aVhttp://dbpedia.org/property/products
p142
aVhttp://xmlns.com/foaf/0.1/isPrimaryTopicOf
p143
aVhttp://dbpedia.org/property/owner
p144
aVhttp://dbpedia.org/property/subsid
p145
aVhttp://dbpedia.org/ontology/manufacturer
p146
aVhttp://dbpedia.org/ontology/wikiPageExternalLink
p147
aVhttp://xmlns.com/foaf/0.1/primaryTopic
p148
aVhttp://dbpedia.org/property/name
p149
aVhttp://purl.org/dc/terms/subject
p150
aVhttp://dbpedia.org/ontology/subsidiary
p151
aVhttp://dbpedia.org/ontology/abstract
p152
aVhttp://xmlns.com/foaf/0.1/depiction
p153
aVhttp://dbpedia.org/property/type
p154
aVhttp://dbpedia.org/ontology/foundedBy
p155
aVhttp://dbpedia.org/property/location
p156
aVhttp://dbpedia.org/property/previousowners
p157
aVhttp://dbpedia.org/property/company
p158
aVhttp://dbpedia.org/ontology/thumbnail
p159
aVhttp://dbpedia.org/ontology/parentCompany
p160
aVhttp://dbpedia.org/property/hasPhotoCollection
p161
aVhttp://www.w3.org/2000/01/rdf-schema#label
p162
aVhttp://dbpedia.org/property/studio
p163
aVhttp://dbpedia.org/ontology/location
p164
aVhttp://dbpedia.org/property/tradedAs
p165
aVhttp://www.w3.org/2000/01/rdf-schema#comment
p166
aVhttp://dbpedia.org/ontology/wikiPageDisambiguates
p167
aVhttp://dbpedia.org/ontology/wikiPageRedirects
p168
aVhttp://dbpedia.org/property/founder
p169
aVhttp://dbpedia.org/ontology/keyPerson
p170
aVhttp://dbpedia.org/ontology/owner
p171
aVhttp://xmlns.com/foaf/0.1/name
p172
aVhttp://xmlns.com/foaf/0.1/homepage
p173
aVhttp://dbpedia.org/ontology/employer
p174
aVhttp://www.w3.org/2002/07/owl#sameAs
p175
aVhttp://dbpedia.org/ontology/occupation
p176
asI3
(lp177
ssI2
(dp178
I0
g115
sI1
g119
sI2
(lp179
sI3
(lp180
ssI3
(dp181
I0
g116
sI1
g177
sI2
g180
sI3
(lp182
ssa(dp183
I0
(dp184
I0
(lp185
sI1
(lp186
sI2
(lp187
sI3
(lp188
ssI1
(dp189
I0
g186
sI1
(lp190
sI2
(lp191
Vhttp://dbpedia.org/ontology/abstract
p192
asI3
(lp193
ssI2
(dp194
I0
g187
sI1
g191
sI2
(lp195
sI3
(lp196
ssI3
(dp197
I0
g188
sI1
g193
sI2
g196
sI3
(lp198
ssa.