(lp1
(dp2
I0
(dp3
I0
(lp4
sI1
(lp5
sI2
(lp6
sI3
(lp7
Vhttp://dbpedia.org/ontology/abstract
p8
aVhttp://www.w3.org/2002/07/owl#sameAs
p9
assI1
(dp10
I0
g5
sI1
(lp11
sI2
(lp12
sI3
(lp13
ssI2
(dp14
I0
g6
sI1
g12
sI2
(lp15
sI3
(lp16
ssI3
(dp17
I0
g7
sI1
g13
sI2
g16
sI3
(lp18
ssa(dp19
I0
(dp20
I0
(lp21
sI1
(lp22
sI2
(lp23
sI3
(lp24
ssI1
(dp25
I0
g22
sI1
(lp26
sI2
(lp27
sI3
(lp28
ssI2
(dp29
I0
g23
sI1
g27
sI2
(lp30
sI3
(lp31
ssI3
(dp32
I0
g24
sI1
g28
sI2
g31
sI3
(lp33
ssa(dp34
I0
(dp35
I0
(lp36
sI1
(lp37
sI2
(lp38
sI3
(lp39
ssI1
(dp40
I0
g37
sI1
(lp41
sI2
(lp42
sI3
(lp43
ssI2
(dp44
I0
g38
sI1
g42
sI2
(lp45
sI3
(lp46
ssI3
(dp47
I0
g39
sI1
g43
sI2
g46
sI3
(lp48
ssa(dp49
I0
(dp50
I0
(lp51
sI1
(lp52
sI2
(lp53
sI3
(lp54
Vhttp://dbpedia.org/ontology/abstract
p55
aVhttp://www.w3.org/2000/01/rdf-schema#comment
p56
assI1
(dp57
I0
g52
sI1
(lp58
sI2
(lp59
sI3
(lp60
ssI2
(dp61
I0
g53
sI1
g59
sI2
(lp62
sI3
(lp63
ssI3
(dp64
I0
g54
sI1
g60
sI2
g63
sI3
(lp65
ssa(dp66
I0
(dp67
I0
(lp68
sI1
(lp69
sI2
(lp70
Vhttp://dbpedia.org/ontology/abstract
p71
aVhttp://www.w3.org/2000/01/rdf-schema#comment
p72
asI3
(lp73
Vhttp://dbpedia.org/ontology/abstract
p74
aVhttp://www.w3.org/2000/01/rdf-schema#comment
p75
assI1
(dp76
I0
g69
sI1
(lp77
sI2
(lp78
sI3
(lp79
ssI2
(dp80
I0
g70
sI1
g78
sI2
(lp81
sI3
(lp82
ssI3
(dp83
I0
g73
sI1
g79
sI2
g82
sI3
(lp84
ssa(dp85
I0
(dp86
I0
(lp87
sI1
(lp88
sI2
(lp89
sI3
(lp90
ssI1
(dp91
I0
g88
sI1
(lp92
sI2
(lp93
sI3
(lp94
ssI2
(dp95
I0
g89
sI1
g93
sI2
(lp96
sI3
(lp97
ssI3
(dp98
I0
g90
sI1
g94
sI2
g97
sI3
(lp99
ssa(dp100
I0
(dp101
I0
(lp102
sI1
(lp103
sI2
(lp104
sI3
(lp105
ssI1
(dp106
I0
g103
sI1
(lp107
sI2
(lp108
sI3
(lp109
ssI2
(dp110
I0
g104
sI1
g108
sI2
(lp111
sI3
(lp112
ssI3
(dp113
I0
g105
sI1
g109
sI2
g112
sI3
(lp114
ssa(dp115
I0
(dp116
I0
(lp117
sI1
(lp118
sI2
(lp119
sI3
(lp120
ssI1
(dp121
I0
g118
sI1
(lp122
sI2
(lp123
sI3
(lp124
ssI2
(dp125
I0
g119
sI1
g123
sI2
(lp126
sI3
(lp127
ssI3
(dp128
I0
g120
sI1
g124
sI2
g127
sI3
(lp129
ssa(dp130
I0
(dp131
I0
(lp132
sI1
(lp133
sI2
(lp134
sI3
(lp135
ssI1
(dp136
I0
g133
sI1
(lp137
sI2
(lp138
sI3
(lp139
ssI2
(dp140
I0
g134
sI1
g138
sI2
(lp141
sI3
(lp142
ssI3
(dp143
I0
g135
sI1
g139
sI2
g142
sI3
(lp144
ssa(dp145
I0
(dp146
I0
(lp147
sI1
(lp148
Vhttp://dbpedia.org/ontology/abstract
p149
aVhttp://www.w3.org/2000/01/rdf-schema#comment
p150
asI2
(lp151
Vhttp://dbpedia.org/ontology/abstract
p152
aVhttp://www.w3.org/2000/01/rdf-schema#comment
p153
asI3
(lp154
Vhttp://dbpedia.org/ontology/abstract
p155
aVhttp://www.w3.org/2000/01/rdf-schema#comment
p156
assI1
(dp157
I0
g148
sI1
(lp158
sI2
(lp159
sI3
(lp160
ssI2
(dp161
I0
g151
sI1
g159
sI2
(lp162
sI3
(lp163
ssI3
(dp164
I0
g154
sI1
g160
sI2
g163
sI3
(lp165
ssa(dp166
I0
(dp167
I0
(lp168
sI1
(lp169
sI2
(lp170
sI3
(lp171
Vhttp://dbpedia.org/ontology/abstract
p172
aVhttp://www.w3.org/2000/01/rdf-schema#comment
p173
assI1
(dp174
I0
g169
sI1
(lp175
sI2
(lp176
sI3
(lp177
ssI2
(dp178
I0
g170
sI1
g176
sI2
(lp179
sI3
(lp180
ssI3
(dp181
I0
g171
sI1
g177
sI2
g180
sI3
(lp182
ssa(dp183
I0
(dp184
I0
(lp185
sI1
(lp186
Vhttp://dbpedia.org/ontology/abstract
p187
asI2
(lp188
sI3
(lp189
Vhttp://dbpedia.org/ontology/abstract
p190
aVhttp://www.w3.org/2000/01/rdf-schema#comment
p191
assI1
(dp192
I0
g186
sI1
(lp193
sI2
(lp194
sI3
(lp195
ssI2
(dp196
I0
g188
sI1
g194
sI2
(lp197
sI3
(lp198
ssI3
(dp199
I0
g189
sI1
g195
sI2
g198
sI3
(lp200
ssa(dp201
I0
(dp202
I0
(lp203
sI1
(lp204
sI2
(lp205
sI3
(lp206
ssI1
(dp207
I0
g204
sI1
(lp208
sI2
(lp209
sI3
(lp210
ssI2
(dp211
I0
g205
sI1
g209
sI2
(lp212
sI3
(lp213
ssI3
(dp214
I0
g206
sI1
g210
sI2
g213
sI3
(lp215
ssa(dp216
I0
(dp217
I0
(lp218
sI1
(lp219
sI2
(lp220
sI3
(lp221
ssI1
(dp222
I0
g219
sI1
(lp223
sI2
(lp224
sI3
(lp225
ssI2
(dp226
I0
g220
sI1
g224
sI2
(lp227
sI3
(lp228
ssI3
(dp229
I0
g221
sI1
g225
sI2
g228
sI3
(lp230
ssa(dp231
I0
(dp232
I0
(lp233
sI1
(lp234
sI2
(lp235
sI3
(lp236
ssI1
(dp237
I0
g234
sI1
(lp238
sI2
(lp239
sI3
(lp240
ssI2
(dp241
I0
g235
sI1
g239
sI2
(lp242
sI3
(lp243
ssI3
(dp244
I0
g236
sI1
g240
sI2
g243
sI3
(lp245
ssa(dp246
I0
(dp247
I0
(lp248
sI1
(lp249
sI2
(lp250
sI3
(lp251
ssI1
(dp252
I0
g249
sI1
(lp253
sI2
(lp254
sI3
(lp255
ssI2
(dp256
I0
g250
sI1
g254
sI2
(lp257
sI3
(lp258
ssI3
(dp259
I0
g251
sI1
g255
sI2
g258
sI3
(lp260
ssa.