(lp1
(lp2
(lp3
Vhttp://dbpedia.org/resource/Lake_Superior
p4
aa(lp5
a(lp6
a(lp7
aa(lp8
(lp9
a(lp10
a(lp11
a(lp12
aa(lp13
(lp14
a(lp15
a(lp16
a(lp17
aa(lp18
(lp19
Vhttp://dbpedia.org/resource/Lake_Ontario
p20
aa(lp21
a(lp22
a(lp23
aa(lp24
(lp25
Vhttp://dbpedia.org/resource/Lake_Nipigon
p26
aa(lp27
a(lp28
a(lp29
aa(lp30
(lp31
a(lp32
a(lp33
a(lp34
aa(lp35
(lp36
a(lp37
a(lp38
a(lp39
aa(lp40
(lp41
a(lp42
a(lp43
a(lp44
aa(lp45
(lp46
a(lp47
a(lp48
a(lp49
aa(lp50
(lp51
Vhttp://dbpedia.org/resource/Lake_Abitibi
p52
aa(lp53
a(lp54
a(lp55
aa(lp56
(lp57
Vhttp://dbpedia.org/resource/Lake_Nipissing
p58
aa(lp59
a(lp60
a(lp61
aa(lp62
(lp63
Vhttp://dbpedia.org/resource/Lake_Simcoe
p64
aa(lp65
a(lp66
a(lp67
aa(lp68
(lp69
a(lp70
a(lp71
a(lp72
aa(lp73
(lp74
a(lp75
a(lp76
a(lp77
aa(lp78
(lp79
a(lp80
a(lp81
a(lp82
aa(lp83
(lp84
a(lp85
a(lp86
a(lp87
aa.