(lp1
(dp2
I0
(dp3
I0
(lp4
sI1
(lp5
sI2
(lp6
sI3
(lp7
sI4
(lp8
sI5
(lp9
sI6
(lp10
sI7
(lp11
ssI1
(dp12
I0
g5
sI1
(lp13
sI2
(lp14
Vhttp://www.w3.org/2002/07/owl#sameAs
p15
aVhttp://xmlns.com/foaf/0.1/primaryTopic
p16
aVhttp://www.w3.org/1999/02/22-rdf-syntax-ns#type
p17
aVhttp://purl.org/dc/terms/subject
p18
aVhttp://www.w3.org/2000/01/rdf-schema#comment
p19
aVhttp://dbpedia.org/ontology/abstract
p20
aVhttp://dbpedia.org/ontology/wikiPageRedirects
p21
aVhttp://dbpedia.org/ontology/locationCountry
p22
aVhttp://xmlns.com/foaf/0.1/isPrimaryTopicOf
p23
aVhttp://www.w3.org/ns/prov#wasDerivedFrom
p24
aVhttp://dbpedia.org/property/hasPhotoCollection
p25
aVhttp://www.w3.org/2000/01/rdf-schema#label
p26
aVhttp://dbpedia.org/property/locationCountry
p27
aVhttp://dbpedia.org/property/areaServed
p28
aVhttp://dbpedia.org/ontology/regionServed
p29
asI3
(lp30
sI4
(lp31
sI5
(lp32
sI6
(lp33
sI7
(lp34
ssI2
(dp35
I0
g6
sI1
g14
sI2
(lp36
sI3
(lp37
sI4
(lp38
sI5
(lp39
Vhttp://dbpedia.org/property/prev
p40
asI6
(lp41
sI7
(lp42
ssI3
(dp43
I0
g7
sI1
g30
sI2
g37
sI3
(lp44
sI4
(lp45
sI5
(lp46
sI6
(lp47
sI7
(lp48
ssI4
(dp49
I0
g8
sI1
g31
sI2
g38
sI3
g45
sI4
(lp50
sI5
(lp51
sI6
(lp52
sI7
(lp53
ssI5
(dp54
I0
g9
sI1
g32
sI2
g39
sI3
g46
sI4
g51
sI5
(lp55
sI6
(lp56
sI7
(lp57
ssI6
(dp58
I0
g10
sI1
g33
sI2
g41
sI3
g47
sI4
g52
sI5
g56
sI6
(lp59
sI7
(lp60
ssI7
(dp61
I0
g11
sI1
g34
sI2
g42
sI3
g48
sI4
g53
sI5
g57
sI6
g60
sI7
(lp62
ssa(dp63
I0
(dp64
I0
(lp65
sI1
(lp66
Vhttp://www.w3.org/1999/02/22-rdf-syntax-ns#type
p67
asI2
(lp68
Vhttp://www.georss.org/georss/point
p69
asI3
(lp70
sI4
(lp71
sI5
(lp72
sI6
(lp73
sI7
(lp74
ssI1
(dp75
I0
g66
sI1
(lp76
sI2
(lp77
Vhttp://dbpedia.org/ontology/wikiPageExternalLink
p78
aVhttp://www.w3.org/1999/02/22-rdf-syntax-ns#type
p79
aVhttp://purl.org/dc/terms/subject
p80
aVhttp://www.w3.org/2000/01/rdf-schema#comment
p81
aVhttp://dbpedia.org/property/locationCountry
p82
aVhttp://dbpedia.org/ontology/foundationPlace
p83
aVhttp://dbpedia.org/ontology/locationCountry
p84
aVhttp://dbpedia.org/property/foundation
p85
aVhttp://dbpedia.org/ontology/abstract
p86
asI3
(lp87
Vhttp://dbpedia.org/ontology/abstract
p88
aVhttp://www.w3.org/2000/01/rdf-schema#comment
p89
asI4
(lp90
sI5
(lp91
sI6
(lp92
sI7
(lp93
ssI2
(dp94
I0
g68
sI1
g77
sI2
(lp95
sI3
(lp96
sI4
(lp97
sI5
(lp98
sI6
(lp99
Vhttp://www.w3.org/2002/07/owl#sameAs
p100
asI7
(lp101
ssI3
(dp102
I0
g70
sI1
g87
sI2
g96
sI3
(lp103
sI4
(lp104
sI5
(lp105
sI6
(lp106
sI7
(lp107
ssI4
(dp108
I0
g71
sI1
g90
sI2
g97
sI3
g104
sI4
(lp109
sI5
(lp110
sI6
(lp111
sI7
(lp112
ssI5
(dp113
I0
g72
sI1
g91
sI2
g98
sI3
g105
sI4
g110
sI5
(lp114
sI6
(lp115
sI7
(lp116
ssI6
(dp117
I0
g73
sI1
g92
sI2
g99
sI3
g106
sI4
g111
sI5
g115
sI6
(lp118
sI7
(lp119
ssI7
(dp120
I0
g74
sI1
g93
sI2
g101
sI3
g107
sI4
g112
sI5
g116
sI6
g119
sI7
(lp121
ssa(dp122
I0
(dp123
I0
(lp124
sI1
(lp125
sI2
(lp126
sI3
(lp127
sI4
(lp128
sI5
(lp129
sI6
(lp130
sI7
(lp131
ssI1
(dp132
I0
g125
sI1
(lp133
sI2
(lp134
Vhttp://www.w3.org/1999/02/22-rdf-syntax-ns#type
p135
aVhttp://purl.org/dc/terms/subject
p136
aVhttp://dbpedia.org/ontology/location
p137
aVhttp://www.w3.org/2000/01/rdf-schema#comment
p138
aVhttp://dbpedia.org/ontology/abstract
p139
aVhttp://dbpedia.org/ontology/foundationPlace
p140
aVhttp://dbpedia.org/property/areaServed
p141
aVhttp://dbpedia.org/ontology/regionServed
p142
asI3
(lp143
sI4
(lp144
sI5
(lp145
sI6
(lp146
sI7
(lp147
ssI2
(dp148
I0
g126
sI1
g134
sI2
(lp149
sI3
(lp150
sI4
(lp151
Vhttp://purl.org/voc/vrank#hasRank
p152
asI5
(lp153
sI6
(lp154
sI7
(lp155
ssI3
(dp156
I0
g127
sI1
g143
sI2
g150
sI3
(lp157
sI4
(lp158
sI5
(lp159
sI6
(lp160
sI7
(lp161
ssI4
(dp162
I0
g128
sI1
g144
sI2
g151
sI3
g158
sI4
(lp163
sI5
(lp164
sI6
(lp165
sI7
(lp166
ssI5
(dp167
I0
g129
sI1
g145
sI2
g153
sI3
g159
sI4
g164
sI5
(lp168
sI6
(lp169
sI7
(lp170
ssI6
(dp171
I0
g130
sI1
g146
sI2
g154
sI3
g160
sI4
g165
sI5
g169
sI6
(lp172
sI7
(lp173
ssI7
(dp174
I0
g131
sI1
g147
sI2
g155
sI3
g161
sI4
g166
sI5
g170
sI6
g173
sI7
(lp175
ssa(dp176
I0
(dp177
I0
(lp178
sI1
(lp179
sI2
(lp180
Vhttp://dbpedia.org/ontology/abstract
p181
asI3
(lp182
sI4
(lp183
sI5
(lp184
sI6
(lp185
sI7
(lp186
ssI1
(dp187
I0
g179
sI1
(lp188
sI2
(lp189
Vhttp://dbpedia.org/property/placeOfDeath
p190
aVhttp://dbpedia.org/property/leaderParty
p191
aVhttp://dbpedia.org/property/governmentType
p192
aVhttp://dbpedia.org/ontology/type
p193
aVhttp://dbpedia.org/property/ground
p194
aVhttp://dbpedia.org/property/terminusB
p195
aVhttp://dbpedia.org/ontology/routeStart
p196
aVhttp://dbpedia.org/property/city
p197
aVhttp://dbpedia.org/property/mapAlt
p198
aVhttp://dbpedia.org/ontology/leaderParty
p199
aVhttp://dbpedia.org/property/capital
p200
aVhttp://dbpedia.org/ontology/routeEnd
p201
aVhttp://dbpedia.org/ontology/country
p202
aVhttp://www.w3.org/1999/02/22-rdf-syntax-ns#type
p203
aVhttp://dbpedia.org/ontology/capital
p204
aVhttp://dbpedia.org/ontology/ground
p205
aVhttp://dbpedia.org/ontology/isPartOf
p206
aVhttp://dbpedia.org/ontology/deathPlace
p207
aVhttp://dbpedia.org/ontology/governmentType
p208
aVhttp://dbpedia.org/property/locationTown
p209
aVhttp://dbpedia.org/property/metropolitan
p210
aVhttp://dbpedia.org/property/hqCity
p211
aVhttp://dbpedia.org/property/meetingPlace
p212
aVhttp://dbpedia.org/property/subdivisionType
p213
aVhttp://dbpedia.org/property/mapCaption
p214
aVhttp://purl.org/dc/terms/subject
p215
aVhttp://dbpedia.org/ontology/populationPlace
p216
aVhttp://dbpedia.org/ontology/abstract
p217
aVhttp://dbpedia.org/property/venue
p218
aVhttp://dbpedia.org/property/deathPlace
p219
aVhttp://dbpedia.org/property/location
p220
aVhttp://dbpedia.org/ontology/province
p221
aVhttp://dbpedia.org/ontology/headquarter
p222
aVhttp://dbpedia.org/ontology/city
p223
aVhttp://dbpedia.org/property/subdivisionName
p224
aVhttp://dbpedia.org/ontology/broadcastArea
p225
aVhttp://dbpedia.org/property/locale
p226
aVhttp://dbpedia.org/property/regions
p227
aVhttp://dbpedia.org/ontology/state
p228
aVhttp://dbpedia.org/property/imageMap
p229
aVhttp://dbpedia.org/property/headquarters
p230
aVhttp://dbpedia.org/property/timezone
p231
aVhttp://dbpedia.org/ontology/timeZone
p232
aVhttp://dbpedia.org/property/popplace
p233
aVhttp://www.w3.org/2000/01/rdf-schema#comment
p234
aVhttp://dbpedia.org/ontology/wikiPageRedirects
p235
aVhttp://dbpedia.org/property/area
p236
aVhttp://dbpedia.org/property/filmed
p237
aVhttp://dbpedia.org/property/locationCity
p238
aVhttp://dbpedia.org/property/province
p239
aVhttp://dbpedia.org/ontology/locationCity
p240
aVhttp://dbpedia.org/property/stadium
p241
aVhttp://dbpedia.org/ontology/location
p242
asI3
(lp243
sI4
(lp244
Vhttp://dbpedia.org/property/stadium
p245
asI5
(lp246
sI6
(lp247
sI7
(lp248
ssI2
(dp249
I0
g180
sI1
g189
sI2
(lp250
sI3
(lp251
sI4
(lp252
Vhttp://dbpedia.org/property/stadium
p253
asI5
(lp254
sI6
(lp255
sI7
(lp256
Vhttp://www.w3.org/2002/07/owl#sameAs
p257
assI3
(dp258
I0
g182
sI1
g243
sI2
g251
sI3
(lp259
sI4
(lp260
Vhttp://dbpedia.org/ontology/abstract
p261
asI5
(lp262
sI6
(lp263
sI7
(lp264
ssI4
(dp265
I0
g183
sI1
g244
sI2
g252
sI3
g260
sI4
(lp266
sI5
(lp267
sI6
(lp268
sI7
(lp269
ssI5
(dp270
I0
g184
sI1
g246
sI2
g254
sI3
g262
sI4
g267
sI5
(lp271
sI6
(lp272
sI7
(lp273
ssI6
(dp274
I0
g185
sI1
g247
sI2
g255
sI3
g263
sI4
g268
sI5
g272
sI6
(lp275
sI7
(lp276
ssI7
(dp277
I0
g186
sI1
g248
sI2
g256
sI3
g264
sI4
g269
sI5
g273
sI6
g276
sI7
(lp278
ssa(dp279
I0
(dp280
I0
(lp281
sI1
(lp282
sI2
(lp283
sI3
(lp284
sI4
(lp285
sI5
(lp286
sI6
(lp287
sI7
(lp288
ssI1
(dp289
I0
g282
sI1
(lp290
sI2
(lp291
sI3
(lp292
sI4
(lp293
sI5
(lp294
sI6
(lp295
sI7
(lp296
ssI2
(dp297
I0
g283
sI1
g291
sI2
(lp298
sI3
(lp299
sI4
(lp300
Vhttp://dbpedia.org/property/usedBy
p301
aVhttp://dbpedia.org/property/gamesPlace
p302
asI5
(lp303
sI6
(lp304
sI7
(lp305
Vhttp://www.w3.org/2002/07/owl#sameAs
p306
assI3
(dp307
I0
g284
sI1
g292
sI2
g299
sI3
(lp308
sI4
(lp309
sI5
(lp310
sI6
(lp311
sI7
(lp312
ssI4
(dp313
I0
g285
sI1
g293
sI2
g300
sI3
g309
sI4
(lp314
sI5
(lp315
sI6
(lp316
sI7
(lp317
ssI5
(dp318
I0
g286
sI1
g294
sI2
g303
sI3
g310
sI4
g315
sI5
(lp319
sI6
(lp320
sI7
(lp321
ssI6
(dp322
I0
g287
sI1
g295
sI2
g304
sI3
g311
sI4
g316
sI5
g320
sI6
(lp323
sI7
(lp324
ssI7
(dp325
I0
g288
sI1
g296
sI2
g305
sI3
g312
sI4
g317
sI5
g321
sI6
g324
sI7
(lp326
ssa(dp327
I0
(dp328
I0
(lp329
sI1
(lp330
sI2
(lp331
sI3
(lp332
sI4
(lp333
sI5
(lp334
sI6
(lp335
sI7
(lp336
ssI1
(dp337
I0
g330
sI1
(lp338
sI2
(lp339
Vhttp://www.w3.org/1999/02/22-rdf-syntax-ns#type
p340
aVhttp://purl.org/dc/terms/subject
p341
aVhttp://www.w3.org/2000/01/rdf-schema#comment
p342
aVhttp://dbpedia.org/ontology/abstract
p343
aVhttp://dbpedia.org/ontology/locationCountry
p344
aVhttp://dbpedia.org/property/locationCountry
p345
asI3
(lp346
Vhttp://dbpedia.org/ontology/abstract
p347
aVhttp://dbpedia.org/property/products
p348
aVhttp://dbpedia.org/ontology/product
p349
aVhttp://www.w3.org/2000/01/rdf-schema#comment
p350
asI4
(lp351
sI5
(lp352
sI6
(lp353
sI7
(lp354
ssI2
(dp355
I0
g331
sI1
g339
sI2
(lp356
sI3
(lp357
sI4
(lp358
sI5
(lp359
sI6
(lp360
sI7
(lp361
ssI3
(dp362
I0
g332
sI1
g346
sI2
g357
sI3
(lp363
sI4
(lp364
Vhttp://dbpedia.org/ontology/industry
p365
aVhttp://dbpedia.org/property/industry
p366
asI5
(lp367
sI6
(lp368
sI7
(lp369
ssI4
(dp370
I0
g333
sI1
g351
sI2
g358
sI3
g364
sI4
(lp371
sI5
(lp372
sI6
(lp373
sI7
(lp374
ssI5
(dp375
I0
g334
sI1
g352
sI2
g359
sI3
g367
sI4
g372
sI5
(lp376
sI6
(lp377
sI7
(lp378
ssI6
(dp379
I0
g335
sI1
g353
sI2
g360
sI3
g368
sI4
g373
sI5
g377
sI6
(lp380
sI7
(lp381
ssI7
(dp382
I0
g336
sI1
g354
sI2
g361
sI3
g369
sI4
g374
sI5
g378
sI6
g381
sI7
(lp383
ssa(dp384
I0
(dp385
I0
(lp386
sI1
(lp387
sI2
(lp388
sI3
(lp389
sI4
(lp390
sI5
(lp391
sI6
(lp392
sI7
(lp393
ssI1
(dp394
I0
g387
sI1
(lp395
sI2
(lp396
Vhttp://dbpedia.org/ontology/owner
p397
aVhttp://www.w3.org/1999/02/22-rdf-syntax-ns#type
p398
aVhttp://purl.org/dc/terms/subject
p399
aVhttp://www.w3.org/2000/01/rdf-schema#comment
p400
aVhttp://dbpedia.org/ontology/abstract
p401
aVhttp://dbpedia.org/ontology/owningCompany
p402
aVhttp://dbpedia.org/ontology/locationCountry
p403
aVhttp://dbpedia.org/property/owner
p404
aVhttp://dbpedia.org/property/locationCountry
p405
aVhttp://dbpedia.org/property/areaServed
p406
aVhttp://dbpedia.org/ontology/regionServed
p407
asI3
(lp408
sI4
(lp409
sI5
(lp410
sI6
(lp411
sI7
(lp412
ssI2
(dp413
I0
g388
sI1
g396
sI2
(lp414
sI3
(lp415
sI4
(lp416
Vhttp://dbpedia.org/ontology/abstract
p417
aVhttp://www.w3.org/2000/01/rdf-schema#comment
p418
asI5
(lp419
sI6
(lp420
sI7
(lp421
ssI3
(dp422
I0
g389
sI1
g408
sI2
g415
sI3
(lp423
sI4
(lp424
sI5
(lp425
sI6
(lp426
sI7
(lp427
ssI4
(dp428
I0
g390
sI1
g409
sI2
g416
sI3
g424
sI4
(lp429
sI5
(lp430
sI6
(lp431
sI7
(lp432
ssI5
(dp433
I0
g391
sI1
g410
sI2
g419
sI3
g425
sI4
g430
sI5
(lp434
sI6
(lp435
sI7
(lp436
ssI6
(dp437
I0
g392
sI1
g411
sI2
g420
sI3
g426
sI4
g431
sI5
g435
sI6
(lp438
sI7
(lp439
ssI7
(dp440
I0
g393
sI1
g412
sI2
g421
sI3
g427
sI4
g432
sI5
g436
sI6
g439
sI7
(lp441
ssa(dp442
I0
(dp443
I0
(lp444
sI1
(lp445
sI2
(lp446
sI3
(lp447
sI4
(lp448
sI5
(lp449
sI6
(lp450
sI7
(lp451
ssI1
(dp452
I0
g445
sI1
(lp453
sI2
(lp454
sI3
(lp455
sI4
(lp456
sI5
(lp457
sI6
(lp458
sI7
(lp459
ssI2
(dp460
I0
g446
sI1
g454
sI2
(lp461
sI3
(lp462
sI4
(lp463
Vhttp://purl.org/voc/vrank#hasRank
p464
asI5
(lp465
sI6
(lp466
sI7
(lp467
Vhttp://dbpedia.org/ontology/PopulatedPlace/areaTotal
p468
assI3
(dp469
I0
g447
sI1
g455
sI2
g462
sI3
(lp470
sI4
(lp471
sI5
(lp472
sI6
(lp473
sI7
(lp474
ssI4
(dp475
I0
g448
sI1
g456
sI2
g463
sI3
g471
sI4
(lp476
sI5
(lp477
sI6
(lp478
sI7
(lp479
ssI5
(dp480
I0
g449
sI1
g457
sI2
g465
sI3
g472
sI4
g477
sI5
(lp481
sI6
(lp482
sI7
(lp483
ssI6
(dp484
I0
g450
sI1
g458
sI2
g466
sI3
g473
sI4
g478
sI5
g482
sI6
(lp485
sI7
(lp486
ssI7
(dp487
I0
g451
sI1
g459
sI2
g467
sI3
g474
sI4
g479
sI5
g483
sI6
g486
sI7
(lp488
ssa(dp489
I0
(dp490
I0
(lp491
sI1
(lp492
sI2
(lp493
sI3
(lp494
sI4
(lp495
sI5
(lp496
sI6
(lp497
sI7
(lp498
ssI1
(dp499
I0
g492
sI1
(lp500
sI2
(lp501
Vhttp://dbpedia.org/ontology/owner
p502
aVhttp://purl.org/dc/terms/subject
p503
aVhttp://www.w3.org/2000/01/rdf-schema#comment
p504
aVhttp://dbpedia.org/ontology/abstract
p505
aVhttp://dbpedia.org/ontology/owningCompany
p506
aVhttp://dbpedia.org/ontology/locationCountry
p507
aVhttp://dbpedia.org/property/locationCountry
p508
asI3
(lp509
Vhttp://dbpedia.org/ontology/abstract
p510
aVhttp://www.w3.org/2000/01/rdf-schema#comment
p511
asI4
(lp512
sI5
(lp513
sI6
(lp514
sI7
(lp515
ssI2
(dp516
I0
g493
sI1
g501
sI2
(lp517
sI3
(lp518
sI4
(lp519
sI5
(lp520
Vhttp://www.georss.org/georss/point
p521
asI6
(lp522
sI7
(lp523
ssI3
(dp524
I0
g494
sI1
g509
sI2
g518
sI3
(lp525
sI4
(lp526
sI5
(lp527
sI6
(lp528
sI7
(lp529
ssI4
(dp530
I0
g495
sI1
g512
sI2
g519
sI3
g526
sI4
(lp531
sI5
(lp532
sI6
(lp533
sI7
(lp534
ssI5
(dp535
I0
g496
sI1
g513
sI2
g520
sI3
g527
sI4
g532
sI5
(lp536
sI6
(lp537
sI7
(lp538
ssI6
(dp539
I0
g497
sI1
g514
sI2
g522
sI3
g528
sI4
g533
sI5
g537
sI6
(lp540
sI7
(lp541
ssI7
(dp542
I0
g498
sI1
g515
sI2
g523
sI3
g529
sI4
g534
sI5
g538
sI6
g541
sI7
(lp543
ssa(dp544
I0
(dp545
I0
(lp546
sI1
(lp547
sI2
(lp548
sI3
(lp549
sI4
(lp550
sI5
(lp551
sI6
(lp552
sI7
(lp553
ssI1
(dp554
I0
g547
sI1
(lp555
sI2
(lp556
sI3
(lp557
sI4
(lp558
sI5
(lp559
sI6
(lp560
sI7
(lp561
ssI2
(dp562
I0
g548
sI1
g556
sI2
(lp563
sI3
(lp564
sI4
(lp565
sI5
(lp566
sI6
(lp567
sI7
(lp568
Vhttp://www.w3.org/1999/02/22-rdf-syntax-ns#type
p569
assI3
(dp570
I0
g549
sI1
g557
sI2
g564
sI3
(lp571
sI4
(lp572
sI5
(lp573
sI6
(lp574
sI7
(lp575
ssI4
(dp576
I0
g550
sI1
g558
sI2
g565
sI3
g572
sI4
(lp577
sI5
(lp578
sI6
(lp579
sI7
(lp580
ssI5
(dp581
I0
g551
sI1
g559
sI2
g566
sI3
g573
sI4
g578
sI5
(lp582
sI6
(lp583
sI7
(lp584
ssI6
(dp585
I0
g552
sI1
g560
sI2
g567
sI3
g574
sI4
g579
sI5
g583
sI6
(lp586
sI7
(lp587
ssI7
(dp588
I0
g553
sI1
g561
sI2
g568
sI3
g575
sI4
g580
sI5
g584
sI6
g587
sI7
(lp589
ssa(dp590
I0
(dp591
I0
(lp592
sI1
(lp593
sI2
(lp594
sI3
(lp595
sI4
(lp596
sI5
(lp597
sI6
(lp598
sI7
(lp599
ssI1
(dp600
I0
g593
sI1
(lp601
sI2
(lp602
Vhttp://dbpedia.org/ontology/wikiPageExternalLink
p603
aVhttp://www.w3.org/1999/02/22-rdf-syntax-ns#type
p604
aVhttp://purl.org/dc/terms/subject
p605
aVhttp://www.w3.org/2000/01/rdf-schema#comment
p606
aVhttp://dbpedia.org/ontology/abstract
p607
aVhttp://dbpedia.org/property/location
p608
aVhttp://dbpedia.org/property/areaServed
p609
asI3
(lp610
Vhttp://dbpedia.org/property/products
p611
asI4
(lp612
sI5
(lp613
Vhttp://www.w3.org/1999/02/22-rdf-syntax-ns#type
p614
asI6
(lp615
sI7
(lp616
ssI2
(dp617
I0
g594
sI1
g602
sI2
(lp618
sI3
(lp619
sI4
(lp620
sI5
(lp621
Vhttp://www.w3.org/1999/02/22-rdf-syntax-ns#type
p622
asI6
(lp623
sI7
(lp624
Vhttp://dbpedia.org/property/prev
p625
assI3
(dp626
I0
g595
sI1
g610
sI2
g619
sI3
(lp627
sI4
(lp628
sI5
(lp629
sI6
(lp630
sI7
(lp631
ssI4
(dp632
I0
g596
sI1
g612
sI2
g620
sI3
g628
sI4
(lp633
sI5
(lp634
sI6
(lp635
sI7
(lp636
ssI5
(dp637
I0
g597
sI1
g613
sI2
g621
sI3
g629
sI4
g634
sI5
(lp638
sI6
(lp639
sI7
(lp640
ssI6
(dp641
I0
g598
sI1
g615
sI2
g623
sI3
g630
sI4
g635
sI5
g639
sI6
(lp642
sI7
(lp643
ssI7
(dp644
I0
g599
sI1
g616
sI2
g624
sI3
g631
sI4
g636
sI5
g640
sI6
g643
sI7
(lp645
ssa(dp646
I0
(dp647
I0
(lp648
sI1
(lp649
sI2
(lp650
sI3
(lp651
sI4
(lp652
sI5
(lp653
sI6
(lp654
sI7
(lp655
ssI1
(dp656
I0
g649
sI1
(lp657
sI2
(lp658
sI3
(lp659
sI4
(lp660
sI5
(lp661
sI6
(lp662
sI7
(lp663
ssI2
(dp664
I0
g650
sI1
g658
sI2
(lp665
sI3
(lp666
sI4
(lp667
Vhttp://www.w3.org/1999/02/22-rdf-syntax-ns#type
p668
asI5
(lp669
sI6
(lp670
sI7
(lp671
Vhttp://dbpedia.org/ontology/abstract
p672
aVhttp://www.w3.org/2000/01/rdf-schema#comment
p673
assI3
(dp674
I0
g651
sI1
g659
sI2
g666
sI3
(lp675
sI4
(lp676
sI5
(lp677
sI6
(lp678
sI7
(lp679
ssI4
(dp680
I0
g652
sI1
g660
sI2
g667
sI3
g676
sI4
(lp681
sI5
(lp682
sI6
(lp683
sI7
(lp684
ssI5
(dp685
I0
g653
sI1
g661
sI2
g669
sI3
g677
sI4
g682
sI5
(lp686
sI6
(lp687
sI7
(lp688
ssI6
(dp689
I0
g654
sI1
g662
sI2
g670
sI3
g678
sI4
g683
sI5
g687
sI6
(lp690
sI7
(lp691
ssI7
(dp692
I0
g655
sI1
g663
sI2
g671
sI3
g679
sI4
g684
sI5
g688
sI6
g691
sI7
(lp693
ssa(dp694
I0
(dp695
I0
(lp696
sI1
(lp697
sI2
(lp698
sI3
(lp699
sI4
(lp700
sI5
(lp701
sI6
(lp702
sI7
(lp703
ssI1
(dp704
I0
g697
sI1
(lp705
sI2
(lp706
Vhttp://dbpedia.org/ontology/abstract
p707
aVhttp://www.w3.org/1999/02/22-rdf-syntax-ns#type
p708
aVhttp://purl.org/dc/terms/subject
p709
aVhttp://www.w3.org/2000/01/rdf-schema#comment
p710
asI3
(lp711
sI4
(lp712
sI5
(lp713
Vhttp://www.w3.org/1999/02/22-rdf-syntax-ns#type
p714
asI6
(lp715
sI7
(lp716
ssI2
(dp717
I0
g698
sI1
g706
sI2
(lp718
sI3
(lp719
sI4
(lp720
sI5
(lp721
Vhttp://dbpedia.org/ontology/wikiPageExternalLink
p722
aVhttp://www.w3.org/1999/02/22-rdf-syntax-ns#type
p723
asI6
(lp724
sI7
(lp725
ssI3
(dp726
I0
g699
sI1
g711
sI2
g719
sI3
(lp727
sI4
(lp728
sI5
(lp729
sI6
(lp730
sI7
(lp731
Vhttp://www.w3.org/2002/07/owl#sameAs
p732
assI4
(dp733
I0
g700
sI1
g712
sI2
g720
sI3
g728
sI4
(lp734
sI5
(lp735
sI6
(lp736
sI7
(lp737
ssI5
(dp738
I0
g701
sI1
g713
sI2
g721
sI3
g729
sI4
g735
sI5
(lp739
sI6
(lp740
sI7
(lp741
ssI6
(dp742
I0
g702
sI1
g715
sI2
g724
sI3
g730
sI4
g736
sI5
g740
sI6
(lp743
sI7
(lp744
ssI7
(dp745
I0
g703
sI1
g716
sI2
g725
sI3
g731
sI4
g737
sI5
g741
sI6
g744
sI7
(lp746
ssa.