(lp1
(lp2
(lp3
a(lp4
((lp5
Vhttp://www.w3.org/2002/07/owl#Thing
p6
aVhttp://dbpedia.org/ontology/Place
p7
aVhttp://dbpedia.org/ontology/Location
p8
aVhttp://www.wikidata.org/entity/Q3455524
p9
aVhttp://www.wikidata.org/entity/Q486972
p10
aVhttp://dbpedia.org/ontology/AdministrativeRegion
p11
aVhttp://dbpedia.org/ontology/PopulatedPlace
p12
aVhttp://dbpedia.org/ontology/Region
p13
aVhttp://schema.org/AdministrativeArea
p14
aVhttp://schema.org/Place
p15
aVhttp://umbel.org/umbel/rc/Location_Underspecified
p16
aVhttp://umbel.org/umbel/rc/PopulatedPlace
p17
aVhttp://dbpedia.org/class/yago/AdministrativeDistrict108491826
p18
aVhttp://dbpedia.org/class/yago/Country108544813
p19
aVhttp://dbpedia.org/class/yago/District108552138
p20
aVhttp://dbpedia.org/class/yago/Location100027167
p21
aVhttp://dbpedia.org/class/yago/Object100002684
p22
aVhttp://dbpedia.org/class/yago/Region108630985
p23
aVhttp://dbpedia.org/class/yago/YagoGeoEntity
p24
aVhttp://dbpedia.org/class/yago/YagoLegalActorGeo
p25
aVhttp://dbpedia.org/class/yago/PhysicalEntity100001930
p26
aVhttp://dbpedia.org/class/yago/YagoPermanentlyLocatedEntity
p27
aVhttp://dbpedia.org/class/yago/StatesOfTheUnitedStates
p28
aVhttp://dbpedia.org/resource/New_York
tp29
aa(lp30
a(lp31
((lp32
Vhttp://www.w3.org/2002/07/owl#Thing
p33
aVhttp://www.ontologydesignpatterns.org/ont/dul/DUL.owl#Agent
p34
aVhttp://www.ontologydesignpatterns.org/ont/dul/DUL.owl#SocialPerson
p35
aVhttp://www.wikidata.org/entity/Q15265344
p36
aVhttp://www.wikidata.org/entity/Q43229
p37
aVhttp://dbpedia.org/ontology/Agent
p38
aVhttp://dbpedia.org/ontology/Broadcaster
p39
aVhttp://dbpedia.org/ontology/Organisation
p40
aVhttp://dbpedia.org/ontology/TelevisionStation
p41
aVhttp://schema.org/Organization
p42
aVhttp://schema.org/TelevisionStation
p43
aVhttp://umbel.org/umbel/rc/Business
p44
aVhttp://umbel.org/umbel/rc/Organization
p45
aVhttp://dbpedia.org/class/yago/Artifact100021939
p46
aVhttp://dbpedia.org/class/yago/BroadcastingStation102903405
p47
aVhttp://dbpedia.org/class/yago/Channel103006398
p48
aVhttp://dbpedia.org/class/yago/Facility103315023
p49
aVhttp://dbpedia.org/class/yago/Object100002684
p50
aVhttp://dbpedia.org/class/yago/Station104306080
p51
aVhttp://dbpedia.org/class/yago/TelevisionStation104406350
p52
aVhttp://dbpedia.org/class/yago/Whole100003553
p53
aVhttp://dbpedia.org/class/yago/YagoGeoEntity
p54
aVhttp://dbpedia.org/class/yago/English-languageTelevisionStationsInTheUnitedStates
p55
aVhttp://dbpedia.org/class/yago/PhysicalEntity100001930
p56
aVhttp://dbpedia.org/class/yago/YagoPermanentlyLocatedEntity
p57
aVhttp://dbpedia.org/class/yago/TelevisionChannelsAndStationsEstablishedIn1987
p58
aVhttp://dbpedia.org/class/yago/TelevisionChannelsInItaly
p59
aVhttp://dbpedia.org/resource/E!
tp60
aaa(lp61
(lp62
a(lp63
((lp64
Vhttp://dbpedia.org/class/yago/Abstraction100002137
p65
aVhttp://dbpedia.org/class/yago/Company108058098
p66
aVhttp://dbpedia.org/class/yago/Group100031264
p67
aVhttp://dbpedia.org/class/yago/Institution108053576
p68
aVhttp://dbpedia.org/class/yago/Organization108008335
p69
aVhttp://dbpedia.org/class/yago/SocialGroup107950920
p70
aVhttp://dbpedia.org/class/yago/YagoLegalActorGeo
p71
aVhttp://dbpedia.org/class/yago/CompaniesEstablishedIn1994
p72
aVhttp://dbpedia.org/class/yago/YagoPermanentlyLocatedEntity
p73
aVhttp://dbpedia.org/class/yago/YagoLegalActor
p74
aVhttp://dbpedia.org/resource/Hauppauge_Computer_Works
tp75
aa(lp76
a(lp77
((lp78
Vhttp://www.w3.org/2002/07/owl#Thing
p79
aVhttp://dbpedia.org/resource/Business
tp80
aaa(lp81
(lp82
a(lp83
((lp84
Vhttp://www.w3.org/2002/07/owl#Thing
p85
aVhttp://dbpedia.org/ontology/Place
p86
aVhttp://dbpedia.org/ontology/Location
p87
aVhttp://www.wikidata.org/entity/Q3455524
p88
aVhttp://www.wikidata.org/entity/Q486972
p89
aVhttp://dbpedia.org/ontology/AdministrativeRegion
p90
aVhttp://dbpedia.org/ontology/PopulatedPlace
p91
aVhttp://dbpedia.org/ontology/Region
p92
aVhttp://schema.org/AdministrativeArea
p93
aVhttp://schema.org/Place
p94
aVhttp://umbel.org/umbel/rc/Location_Underspecified
p95
aVhttp://umbel.org/umbel/rc/PopulatedPlace
p96
aVhttp://dbpedia.org/class/yago/AdministrativeDistrict108491826
p97
aVhttp://dbpedia.org/class/yago/Country108544813
p98
aVhttp://dbpedia.org/class/yago/District108552138
p99
aVhttp://dbpedia.org/class/yago/Location100027167
p100
aVhttp://dbpedia.org/class/yago/Object100002684
p101
aVhttp://dbpedia.org/class/yago/Region108630985
p102
aVhttp://dbpedia.org/class/yago/YagoGeoEntity
p103
aVhttp://dbpedia.org/class/yago/YagoLegalActorGeo
p104
aVhttp://dbpedia.org/class/yago/PhysicalEntity100001930
p105
aVhttp://dbpedia.org/class/yago/YagoPermanentlyLocatedEntity
p106
aVhttp://dbpedia.org/class/yago/StatesOfTheUnitedStates
p107
aVhttp://dbpedia.org/resource/New_York
tp108
aa(lp109
a(lp110
((lp111
Vhttp://www.w3.org/2002/07/owl#Thing
p112
aVhttp://dbpedia.org/resource/Advertising
tp113
aaa(lp114
(lp115
a(lp116
((lp117
Vhttp://www.w3.org/2002/07/owl#Thing
p118
aVhttp://dbpedia.org/ontology/Place
p119
aVhttp://dbpedia.org/ontology/Location
p120
aVhttp://www.wikidata.org/entity/Q3455524
p121
aVhttp://www.wikidata.org/entity/Q486972
p122
aVhttp://dbpedia.org/ontology/AdministrativeRegion
p123
aVhttp://dbpedia.org/ontology/PopulatedPlace
p124
aVhttp://dbpedia.org/ontology/Region
p125
aVhttp://schema.org/AdministrativeArea
p126
aVhttp://schema.org/Place
p127
aVhttp://umbel.org/umbel/rc/Location_Underspecified
p128
aVhttp://umbel.org/umbel/rc/PopulatedPlace
p129
aVhttp://dbpedia.org/class/yago/AdministrativeDistrict108491826
p130
aVhttp://dbpedia.org/class/yago/Country108544813
p131
aVhttp://dbpedia.org/class/yago/District108552138
p132
aVhttp://dbpedia.org/class/yago/Location100027167
p133
aVhttp://dbpedia.org/class/yago/Object100002684
p134
aVhttp://dbpedia.org/class/yago/Region108630985
p135
aVhttp://dbpedia.org/class/yago/YagoGeoEntity
p136
aVhttp://dbpedia.org/class/yago/YagoLegalActorGeo
p137
aVhttp://dbpedia.org/class/yago/PhysicalEntity100001930
p138
aVhttp://dbpedia.org/class/yago/YagoPermanentlyLocatedEntity
p139
aVhttp://dbpedia.org/class/yago/StatesOfTheUnitedStates
p140
aVhttp://dbpedia.org/resource/New_York
tp141
aa(lp142
a(lp143
aa(lp144
(lp145
a(lp146
((lp147
Vhttp://www.w3.org/2002/07/owl#Thing
p148
aVhttp://dbpedia.org/ontology/Place
p149
aVhttp://dbpedia.org/ontology/Location
p150
aVhttp://www.wikidata.org/entity/Q3455524
p151
aVhttp://www.wikidata.org/entity/Q486972
p152
aVhttp://dbpedia.org/ontology/AdministrativeRegion
p153
aVhttp://dbpedia.org/ontology/PopulatedPlace
p154
aVhttp://dbpedia.org/ontology/Region
p155
aVhttp://schema.org/AdministrativeArea
p156
aVhttp://schema.org/Place
p157
aVhttp://umbel.org/umbel/rc/Location_Underspecified
p158
aVhttp://umbel.org/umbel/rc/PopulatedPlace
p159
aVhttp://dbpedia.org/class/yago/AdministrativeDistrict108491826
p160
aVhttp://dbpedia.org/class/yago/Country108544813
p161
aVhttp://dbpedia.org/class/yago/District108552138
p162
aVhttp://dbpedia.org/class/yago/Location100027167
p163
aVhttp://dbpedia.org/class/yago/Object100002684
p164
aVhttp://dbpedia.org/class/yago/Region108630985
p165
aVhttp://dbpedia.org/class/yago/YagoGeoEntity
p166
aVhttp://dbpedia.org/class/yago/YagoLegalActorGeo
p167
aVhttp://dbpedia.org/class/yago/PhysicalEntity100001930
p168
aVhttp://dbpedia.org/class/yago/YagoPermanentlyLocatedEntity
p169
aVhttp://dbpedia.org/class/yago/StatesOfTheUnitedStates
p170
aVhttp://dbpedia.org/resource/New_York
tp171
aa(lp172
a(lp173
aa(lp174
(lp175
a(lp176
((lp177
Vhttp://www.w3.org/2002/07/owl#Thing
p178
aVhttp://dbpedia.org/ontology/Place
p179
aVhttp://dbpedia.org/ontology/Location
p180
aVhttp://www.wikidata.org/entity/Q3455524
p181
aVhttp://www.wikidata.org/entity/Q486972
p182
aVhttp://dbpedia.org/ontology/AdministrativeRegion
p183
aVhttp://dbpedia.org/ontology/PopulatedPlace
p184
aVhttp://dbpedia.org/ontology/Region
p185
aVhttp://schema.org/AdministrativeArea
p186
aVhttp://schema.org/Place
p187
aVhttp://umbel.org/umbel/rc/Location_Underspecified
p188
aVhttp://umbel.org/umbel/rc/PopulatedPlace
p189
aVhttp://dbpedia.org/class/yago/AdministrativeDistrict108491826
p190
aVhttp://dbpedia.org/class/yago/Country108544813
p191
aVhttp://dbpedia.org/class/yago/District108552138
p192
aVhttp://dbpedia.org/class/yago/Location100027167
p193
aVhttp://dbpedia.org/class/yago/Object100002684
p194
aVhttp://dbpedia.org/class/yago/Region108630985
p195
aVhttp://dbpedia.org/class/yago/YagoGeoEntity
p196
aVhttp://dbpedia.org/class/yago/YagoLegalActorGeo
p197
aVhttp://dbpedia.org/class/yago/PhysicalEntity100001930
p198
aVhttp://dbpedia.org/class/yago/YagoPermanentlyLocatedEntity
p199
aVhttp://dbpedia.org/class/yago/StatesOfTheUnitedStates
p200
aVhttp://dbpedia.org/resource/New_York
tp201
aa(lp202
a(lp203
((lVhttp://dbpedia.org/resource/Fashion
tp204
aaa(lp205
(lp206
a(lp207
((lp208
Vhttp://www.w3.org/2002/07/owl#Thing
p209
aVhttp://dbpedia.org/ontology/Place
p210
aVhttp://dbpedia.org/ontology/Location
p211
aVhttp://www.wikidata.org/entity/Q3455524
p212
aVhttp://www.wikidata.org/entity/Q486972
p213
aVhttp://dbpedia.org/ontology/AdministrativeRegion
p214
aVhttp://dbpedia.org/ontology/PopulatedPlace
p215
aVhttp://dbpedia.org/ontology/Region
p216
aVhttp://schema.org/AdministrativeArea
p217
aVhttp://schema.org/Place
p218
aVhttp://umbel.org/umbel/rc/Location_Underspecified
p219
aVhttp://umbel.org/umbel/rc/PopulatedPlace
p220
aVhttp://dbpedia.org/class/yago/AdministrativeDistrict108491826
p221
aVhttp://dbpedia.org/class/yago/Country108544813
p222
aVhttp://dbpedia.org/class/yago/District108552138
p223
aVhttp://dbpedia.org/class/yago/Location100027167
p224
aVhttp://dbpedia.org/class/yago/Object100002684
p225
aVhttp://dbpedia.org/class/yago/Region108630985
p226
aVhttp://dbpedia.org/class/yago/YagoGeoEntity
p227
aVhttp://dbpedia.org/class/yago/YagoLegalActorGeo
p228
aVhttp://dbpedia.org/class/yago/PhysicalEntity100001930
p229
aVhttp://dbpedia.org/class/yago/YagoPermanentlyLocatedEntity
p230
aVhttp://dbpedia.org/class/yago/StatesOfTheUnitedStates
p231
aVhttp://dbpedia.org/resource/New_York
tp232
aa(lp233
a(lp234
((lVhttp://dbpedia.org/resource/Fashion
p235
tp236
aaa.