(lp1
(lp2
(lp3
a(lp4
a(lp5
((lp6
Vhttp://www.w3.org/2002/07/owl#Thing
p7
aVhttp://www.ontologydesignpatterns.org/ont/dul/DUL.owl#Agent
p8
aVhttp://www.ontologydesignpatterns.org/ont/dul/DUL.owl#SocialPerson
p9
aVhttp://www.wikidata.org/entity/Q215380
p10
aVhttp://www.wikidata.org/entity/Q43229
p11
aVhttp://dbpedia.org/ontology/Agent
p12
aVhttp://dbpedia.org/ontology/Band
p13
aVhttp://dbpedia.org/ontology/Group
p14
aVhttp://dbpedia.org/ontology/Organisation
p15
aVhttp://schema.org/MusicGroup
p16
aVhttp://schema.org/Organization
p17
aVhttp://dbpedia.org/class/yago/Abstraction100002137
p18
aVhttp://dbpedia.org/class/yago/DanceBand108249960
p19
aVhttp://dbpedia.org/class/yago/Group100031264
p20
aVhttp://dbpedia.org/class/yago/MusicalOrganization108246613
p21
aVhttp://dbpedia.org/class/yago/Organization108008335
p22
aVhttp://dbpedia.org/class/yago/RockGroup108250501
p23
aVhttp://dbpedia.org/class/yago/SocialGroup107950920
p24
aVhttp://dbpedia.org/class/yago/YagoLegalActorGeo
p25
aVhttp://dbpedia.org/class/yago/YagoPermanentlyLocatedEntity
p26
aVhttp://dbpedia.org/class/yago/JapaneseIndieRockGroups
p27
aVhttp://dbpedia.org/class/yago/YagoLegalActor
p28
aVhttp://dbpedia.org/resource/The_Watanabes
tp29
aa(lp30
a(lp31
a(lp32
aa(lp33
(lp34
a(lp35
a(lp36
((lp37
Vhttp://www.w3.org/2002/07/owl#Thing
p38
aVhttp://www.ontologydesignpatterns.org/ont/dul/DUL.owl#Agent
p39
aVhttp://www.ontologydesignpatterns.org/ont/dul/DUL.owl#SocialPerson
p40
aVhttp://www.wikidata.org/entity/Q215380
p41
aVhttp://www.wikidata.org/entity/Q43229
p42
aVhttp://dbpedia.org/ontology/Agent
p43
aVhttp://dbpedia.org/ontology/Band
p44
aVhttp://dbpedia.org/ontology/Group
p45
aVhttp://dbpedia.org/ontology/Organisation
p46
aVhttp://schema.org/MusicGroup
p47
aVhttp://schema.org/Organization
p48
aVhttp://dbpedia.org/class/yago/Abstraction100002137
p49
aVhttp://dbpedia.org/class/yago/DanceBand108249960
p50
aVhttp://dbpedia.org/class/yago/Group100031264
p51
aVhttp://dbpedia.org/class/yago/MusicalOrganization108246613
p52
aVhttp://dbpedia.org/class/yago/Organization108008335
p53
aVhttp://dbpedia.org/class/yago/RockGroup108250501
p54
aVhttp://dbpedia.org/class/yago/SocialGroup107950920
p55
aVhttp://dbpedia.org/class/yago/YagoLegalActorGeo
p56
aVhttp://dbpedia.org/class/yago/YagoPermanentlyLocatedEntity
p57
aVhttp://dbpedia.org/class/yago/JapaneseIndieRockGroups
p58
aVhttp://dbpedia.org/class/yago/YagoLegalActor
p59
aVhttp://dbpedia.org/resource/The_Watanabes
tp60
aa(lp61
a(lp62
a(lp63
aa(lp64
(lp65
a(lp66
a(lp67
((lp68
Vhttp://www.w3.org/2002/07/owl#Thing
p69
aVhttp://www.ontologydesignpatterns.org/ont/dul/DUL.owl#Agent
p70
aVhttp://www.ontologydesignpatterns.org/ont/dul/DUL.owl#SocialPerson
p71
aVhttp://www.wikidata.org/entity/Q215380
p72
aVhttp://www.wikidata.org/entity/Q43229
p73
aVhttp://dbpedia.org/ontology/Agent
p74
aVhttp://dbpedia.org/ontology/Band
p75
aVhttp://dbpedia.org/ontology/Group
p76
aVhttp://dbpedia.org/ontology/Organisation
p77
aVhttp://schema.org/MusicGroup
p78
aVhttp://schema.org/Organization
p79
aVhttp://dbpedia.org/class/yago/Abstraction100002137
p80
aVhttp://dbpedia.org/class/yago/DanceBand108249960
p81
aVhttp://dbpedia.org/class/yago/Group100031264
p82
aVhttp://dbpedia.org/class/yago/MusicalOrganization108246613
p83
aVhttp://dbpedia.org/class/yago/Organization108008335
p84
aVhttp://dbpedia.org/class/yago/RockGroup108250501
p85
aVhttp://dbpedia.org/class/yago/SocialGroup107950920
p86
aVhttp://dbpedia.org/class/yago/YagoLegalActorGeo
p87
aVhttp://dbpedia.org/class/yago/YagoPermanentlyLocatedEntity
p88
aVhttp://dbpedia.org/class/yago/JapaneseIndieRockGroups
p89
aVhttp://dbpedia.org/class/yago/YagoLegalActor
p90
aVhttp://dbpedia.org/resource/The_Watanabes
tp91
aa(lp92
a(lp93
a(lp94
aa(lp95
(lp96
a(lp97
((lp98
Vhttp://www.w3.org/2002/07/owl#Thing
p99
aVhttp://www.ontologydesignpatterns.org/ont/dul/DUL.owl#Agent
p100
aVhttp://www.ontologydesignpatterns.org/ont/dul/DUL.owl#SocialPerson
p101
aVhttp://www.wikidata.org/entity/Q215380
p102
aVhttp://www.wikidata.org/entity/Q43229
p103
aVhttp://dbpedia.org/ontology/Agent
p104
aVhttp://dbpedia.org/ontology/Band
p105
aVhttp://dbpedia.org/ontology/Group
p106
aVhttp://dbpedia.org/ontology/Organisation
p107
aVhttp://schema.org/MusicGroup
p108
aVhttp://schema.org/Organization
p109
aVhttp://dbpedia.org/class/yago/Abstraction100002137
p110
aVhttp://dbpedia.org/class/yago/AmericanNewWaveMusicalGroups
p111
aVhttp://dbpedia.org/class/yago/AmericanPowerPopGroups
p112
aVhttp://dbpedia.org/class/yago/Ensemble108188235
p113
aVhttp://dbpedia.org/class/yago/Group100031264
p114
aVhttp://dbpedia.org/class/yago/MusicalOrganization108246613
p115
aVhttp://dbpedia.org/class/yago/Organization108008335
p116
aVhttp://dbpedia.org/class/yago/PopGroup108249752
p117
aVhttp://dbpedia.org/class/yago/SocialGroup107950920
p118
aVhttp://dbpedia.org/class/yago/YagoLegalActorGeo
p119
aVhttp://dbpedia.org/class/yago/YagoPermanentlyLocatedEntity
p120
aVhttp://dbpedia.org/class/yago/MusicalGroupsEstablishedIn1977
p121
aVhttp://dbpedia.org/class/yago/MusicalGroupsFromDetroit,Michigan
p122
aVhttp://dbpedia.org/class/yago/YagoLegalActor
p123
aVhttp://dbpedia.org/resource/The_Romantics
tp124
aa(lp125
((lp126
Vhttp://www.w3.org/2002/07/owl#Thing
p127
aVhttp://www.ontologydesignpatterns.org/ont/dul/DUL.owl#Agent
p128
aVhttp://www.ontologydesignpatterns.org/ont/dul/DUL.owl#SocialPerson
p129
aVhttp://www.wikidata.org/entity/Q215380
p130
aVhttp://www.wikidata.org/entity/Q43229
p131
aVhttp://dbpedia.org/ontology/Agent
p132
aVhttp://dbpedia.org/ontology/Band
p133
aVhttp://dbpedia.org/ontology/Group
p134
aVhttp://dbpedia.org/ontology/Organisation
p135
aVhttp://schema.org/MusicGroup
p136
aVhttp://schema.org/Organization
p137
aVhttp://dbpedia.org/class/yago/Abstraction100002137
p138
aVhttp://dbpedia.org/class/yago/DanceBand108249960
p139
aVhttp://dbpedia.org/class/yago/Group100031264
p140
aVhttp://dbpedia.org/class/yago/MusicalOrganization108246613
p141
aVhttp://dbpedia.org/class/yago/Organization108008335
p142
aVhttp://dbpedia.org/class/yago/RockGroup108250501
p143
aVhttp://dbpedia.org/class/yago/SocialGroup107950920
p144
aVhttp://dbpedia.org/class/yago/YagoLegalActorGeo
p145
aVhttp://dbpedia.org/class/yago/YagoPermanentlyLocatedEntity
p146
aVhttp://dbpedia.org/class/yago/JapaneseIndieRockGroups
p147
aVhttp://dbpedia.org/class/yago/YagoLegalActor
p148
aVhttp://dbpedia.org/resource/The_Watanabes
tp149
aa(lp150
a(lp151
a(lp152
aa(lp153
(lp154
a(lp155
((lVhttp://dbpedia.org/resource/Guilt_(law)
tp156
aa(lp157
((lp158
Vhttp://www.w3.org/2002/07/owl#Thing
p159
aVhttp://www.ontologydesignpatterns.org/ont/dul/DUL.owl#Agent
p160
aVhttp://www.ontologydesignpatterns.org/ont/dul/DUL.owl#SocialPerson
p161
aVhttp://www.wikidata.org/entity/Q215380
p162
aVhttp://www.wikidata.org/entity/Q43229
p163
aVhttp://dbpedia.org/ontology/Agent
p164
aVhttp://dbpedia.org/ontology/Band
p165
aVhttp://dbpedia.org/ontology/Group
p166
aVhttp://dbpedia.org/ontology/Organisation
p167
aVhttp://schema.org/MusicGroup
p168
aVhttp://schema.org/Organization
p169
aVhttp://dbpedia.org/class/yago/Abstraction100002137
p170
aVhttp://dbpedia.org/class/yago/DanceBand108249960
p171
aVhttp://dbpedia.org/class/yago/Group100031264
p172
aVhttp://dbpedia.org/class/yago/MusicalOrganization108246613
p173
aVhttp://dbpedia.org/class/yago/Organization108008335
p174
aVhttp://dbpedia.org/class/yago/RockGroup108250501
p175
aVhttp://dbpedia.org/class/yago/SocialGroup107950920
p176
aVhttp://dbpedia.org/class/yago/YagoLegalActorGeo
p177
aVhttp://dbpedia.org/class/yago/YagoPermanentlyLocatedEntity
p178
aVhttp://dbpedia.org/class/yago/JapaneseIndieRockGroups
p179
aVhttp://dbpedia.org/class/yago/YagoLegalActor
p180
aVhttp://dbpedia.org/resource/The_Watanabes
tp181
aa(lp182
a(lp183
a(lp184
aa(lp185
(lp186
a(lp187
a(lp188
((lp189
Vhttp://www.w3.org/2002/07/owl#Thing
p190
aVhttp://www.ontologydesignpatterns.org/ont/dul/DUL.owl#Agent
p191
aVhttp://www.ontologydesignpatterns.org/ont/dul/DUL.owl#SocialPerson
p192
aVhttp://www.wikidata.org/entity/Q215380
p193
aVhttp://www.wikidata.org/entity/Q43229
p194
aVhttp://dbpedia.org/ontology/Agent
p195
aVhttp://dbpedia.org/ontology/Band
p196
aVhttp://dbpedia.org/ontology/Group
p197
aVhttp://dbpedia.org/ontology/Organisation
p198
aVhttp://schema.org/MusicGroup
p199
aVhttp://schema.org/Organization
p200
aVhttp://dbpedia.org/class/yago/Abstraction100002137
p201
aVhttp://dbpedia.org/class/yago/DanceBand108249960
p202
aVhttp://dbpedia.org/class/yago/Group100031264
p203
aVhttp://dbpedia.org/class/yago/MusicalOrganization108246613
p204
aVhttp://dbpedia.org/class/yago/Organization108008335
p205
aVhttp://dbpedia.org/class/yago/RockGroup108250501
p206
aVhttp://dbpedia.org/class/yago/SocialGroup107950920
p207
aVhttp://dbpedia.org/class/yago/YagoLegalActorGeo
p208
aVhttp://dbpedia.org/class/yago/YagoPermanentlyLocatedEntity
p209
aVhttp://dbpedia.org/class/yago/JapaneseIndieRockGroups
p210
aVhttp://dbpedia.org/class/yago/YagoLegalActor
p211
aVhttp://dbpedia.org/resource/The_Watanabes
tp212
aa(lp213
a(lp214
a(lp215
aa(lp216
(lp217
a(lp218
a(lp219
((lp220
Vhttp://www.w3.org/2002/07/owl#Thing
p221
aVhttp://www.ontologydesignpatterns.org/ont/dul/DUL.owl#Agent
p222
aVhttp://www.ontologydesignpatterns.org/ont/dul/DUL.owl#SocialPerson
p223
aVhttp://www.wikidata.org/entity/Q215380
p224
aVhttp://www.wikidata.org/entity/Q43229
p225
aVhttp://dbpedia.org/ontology/Agent
p226
aVhttp://dbpedia.org/ontology/Band
p227
aVhttp://dbpedia.org/ontology/Group
p228
aVhttp://dbpedia.org/ontology/Organisation
p229
aVhttp://schema.org/MusicGroup
p230
aVhttp://schema.org/Organization
p231
aVhttp://dbpedia.org/class/yago/Abstraction100002137
p232
aVhttp://dbpedia.org/class/yago/DanceBand108249960
p233
aVhttp://dbpedia.org/class/yago/Group100031264
p234
aVhttp://dbpedia.org/class/yago/MusicalOrganization108246613
p235
aVhttp://dbpedia.org/class/yago/Organization108008335
p236
aVhttp://dbpedia.org/class/yago/RockGroup108250501
p237
aVhttp://dbpedia.org/class/yago/SocialGroup107950920
p238
aVhttp://dbpedia.org/class/yago/YagoLegalActorGeo
p239
aVhttp://dbpedia.org/class/yago/YagoPermanentlyLocatedEntity
p240
aVhttp://dbpedia.org/class/yago/JapaneseIndieRockGroups
p241
aVhttp://dbpedia.org/class/yago/YagoLegalActor
p242
aVhttp://dbpedia.org/resource/The_Watanabes
tp243
aa(lp244
a(lp245
a(lp246
aa(lp247
(lp248
a(lp249
a(lp250
((lp251
Vhttp://www.w3.org/2002/07/owl#Thing
p252
aVhttp://www.ontologydesignpatterns.org/ont/dul/DUL.owl#Agent
p253
aVhttp://www.ontologydesignpatterns.org/ont/dul/DUL.owl#SocialPerson
p254
aVhttp://www.wikidata.org/entity/Q215380
p255
aVhttp://www.wikidata.org/entity/Q43229
p256
aVhttp://dbpedia.org/ontology/Agent
p257
aVhttp://dbpedia.org/ontology/Band
p258
aVhttp://dbpedia.org/ontology/Group
p259
aVhttp://dbpedia.org/ontology/Organisation
p260
aVhttp://schema.org/MusicGroup
p261
aVhttp://schema.org/Organization
p262
aVhttp://dbpedia.org/class/yago/Abstraction100002137
p263
aVhttp://dbpedia.org/class/yago/DanceBand108249960
p264
aVhttp://dbpedia.org/class/yago/Group100031264
p265
aVhttp://dbpedia.org/class/yago/MusicalOrganization108246613
p266
aVhttp://dbpedia.org/class/yago/Organization108008335
p267
aVhttp://dbpedia.org/class/yago/RockGroup108250501
p268
aVhttp://dbpedia.org/class/yago/SocialGroup107950920
p269
aVhttp://dbpedia.org/class/yago/YagoLegalActorGeo
p270
aVhttp://dbpedia.org/class/yago/YagoPermanentlyLocatedEntity
p271
aVhttp://dbpedia.org/class/yago/JapaneseIndieRockGroups
p272
aVhttp://dbpedia.org/class/yago/YagoLegalActor
p273
aVhttp://dbpedia.org/resource/The_Watanabes
tp274
aa(lp275
a(lp276
a(lp277
aa(lp278
(lp279
a(lp280
((lp281
Vhttp://www.w3.org/2002/07/owl#Thing
p282
aVhttp://dbpedia.org/resource/Ice_age
tp283
aa(lp284
((lp285
Vhttp://www.w3.org/2002/07/owl#Thing
p286
aVhttp://www.ontologydesignpatterns.org/ont/dul/DUL.owl#Agent
p287
aVhttp://www.ontologydesignpatterns.org/ont/dul/DUL.owl#SocialPerson
p288
aVhttp://www.wikidata.org/entity/Q215380
p289
aVhttp://www.wikidata.org/entity/Q43229
p290
aVhttp://dbpedia.org/ontology/Agent
p291
aVhttp://dbpedia.org/ontology/Band
p292
aVhttp://dbpedia.org/ontology/Group
p293
aVhttp://dbpedia.org/ontology/Organisation
p294
aVhttp://schema.org/MusicGroup
p295
aVhttp://schema.org/Organization
p296
aVhttp://dbpedia.org/class/yago/Abstraction100002137
p297
aVhttp://dbpedia.org/class/yago/DanceBand108249960
p298
aVhttp://dbpedia.org/class/yago/Group100031264
p299
aVhttp://dbpedia.org/class/yago/MusicalOrganization108246613
p300
aVhttp://dbpedia.org/class/yago/Organization108008335
p301
aVhttp://dbpedia.org/class/yago/RockGroup108250501
p302
aVhttp://dbpedia.org/class/yago/SocialGroup107950920
p303
aVhttp://dbpedia.org/class/yago/YagoLegalActorGeo
p304
aVhttp://dbpedia.org/class/yago/YagoPermanentlyLocatedEntity
p305
aVhttp://dbpedia.org/class/yago/JapaneseIndieRockGroups
p306
aVhttp://dbpedia.org/class/yago/YagoLegalActor
p307
aVhttp://dbpedia.org/resource/The_Watanabes
tp308
aa(lp309
a(lp310
a(lp311
aa(lp312
(lp313
a(lp314
((lVhttp://dbpedia.org/resource/Rolling_Papers
tp315
aa(lp316
((lp317
Vhttp://www.w3.org/2002/07/owl#Thing
p318
aVhttp://www.ontologydesignpatterns.org/ont/dul/DUL.owl#Agent
p319
aVhttp://www.ontologydesignpatterns.org/ont/dul/DUL.owl#SocialPerson
p320
aVhttp://www.wikidata.org/entity/Q215380
p321
aVhttp://www.wikidata.org/entity/Q43229
p322
aVhttp://dbpedia.org/ontology/Agent
p323
aVhttp://dbpedia.org/ontology/Band
p324
aVhttp://dbpedia.org/ontology/Group
p325
aVhttp://dbpedia.org/ontology/Organisation
p326
aVhttp://schema.org/MusicGroup
p327
aVhttp://schema.org/Organization
p328
aVhttp://dbpedia.org/class/yago/Abstraction100002137
p329
aVhttp://dbpedia.org/class/yago/DanceBand108249960
p330
aVhttp://dbpedia.org/class/yago/Group100031264
p331
aVhttp://dbpedia.org/class/yago/MusicalOrganization108246613
p332
aVhttp://dbpedia.org/class/yago/Organization108008335
p333
aVhttp://dbpedia.org/class/yago/RockGroup108250501
p334
aVhttp://dbpedia.org/class/yago/SocialGroup107950920
p335
aVhttp://dbpedia.org/class/yago/YagoLegalActorGeo
p336
aVhttp://dbpedia.org/class/yago/YagoPermanentlyLocatedEntity
p337
aVhttp://dbpedia.org/class/yago/JapaneseIndieRockGroups
p338
aVhttp://dbpedia.org/class/yago/YagoLegalActor
p339
aVhttp://dbpedia.org/resource/The_Watanabes
tp340
aa(lp341
a(lp342
a(lp343
aa(lp344
(lp345
a(lp346
a(lp347
((lp348
Vhttp://www.w3.org/2002/07/owl#Thing
p349
aVhttp://www.ontologydesignpatterns.org/ont/dul/DUL.owl#Agent
p350
aVhttp://www.ontologydesignpatterns.org/ont/dul/DUL.owl#SocialPerson
p351
aVhttp://www.wikidata.org/entity/Q215380
p352
aVhttp://www.wikidata.org/entity/Q43229
p353
aVhttp://dbpedia.org/ontology/Agent
p354
aVhttp://dbpedia.org/ontology/Band
p355
aVhttp://dbpedia.org/ontology/Group
p356
aVhttp://dbpedia.org/ontology/Organisation
p357
aVhttp://schema.org/MusicGroup
p358
aVhttp://schema.org/Organization
p359
aVhttp://dbpedia.org/class/yago/Abstraction100002137
p360
aVhttp://dbpedia.org/class/yago/DanceBand108249960
p361
aVhttp://dbpedia.org/class/yago/Group100031264
p362
aVhttp://dbpedia.org/class/yago/MusicalOrganization108246613
p363
aVhttp://dbpedia.org/class/yago/Organization108008335
p364
aVhttp://dbpedia.org/class/yago/RockGroup108250501
p365
aVhttp://dbpedia.org/class/yago/SocialGroup107950920
p366
aVhttp://dbpedia.org/class/yago/YagoLegalActorGeo
p367
aVhttp://dbpedia.org/class/yago/YagoPermanentlyLocatedEntity
p368
aVhttp://dbpedia.org/class/yago/JapaneseIndieRockGroups
p369
aVhttp://dbpedia.org/class/yago/YagoLegalActor
p370
aVhttp://dbpedia.org/resource/The_Watanabes
tp371
aa(lp372
a(lp373
a(lp374
aa(lp375
(lp376
a(lp377
((lVhttp://dbpedia.org/resource/Katsudon
tp378
aa(lp379
((lp380
Vhttp://www.w3.org/2002/07/owl#Thing
p381
aVhttp://www.ontologydesignpatterns.org/ont/dul/DUL.owl#Agent
p382
aVhttp://www.ontologydesignpatterns.org/ont/dul/DUL.owl#SocialPerson
p383
aVhttp://www.wikidata.org/entity/Q215380
p384
aVhttp://www.wikidata.org/entity/Q43229
p385
aVhttp://dbpedia.org/ontology/Agent
p386
aVhttp://dbpedia.org/ontology/Band
p387
aVhttp://dbpedia.org/ontology/Group
p388
aVhttp://dbpedia.org/ontology/Organisation
p389
aVhttp://schema.org/MusicGroup
p390
aVhttp://schema.org/Organization
p391
aVhttp://dbpedia.org/class/yago/Abstraction100002137
p392
aVhttp://dbpedia.org/class/yago/DanceBand108249960
p393
aVhttp://dbpedia.org/class/yago/Group100031264
p394
aVhttp://dbpedia.org/class/yago/MusicalOrganization108246613
p395
aVhttp://dbpedia.org/class/yago/Organization108008335
p396
aVhttp://dbpedia.org/class/yago/RockGroup108250501
p397
aVhttp://dbpedia.org/class/yago/SocialGroup107950920
p398
aVhttp://dbpedia.org/class/yago/YagoLegalActorGeo
p399
aVhttp://dbpedia.org/class/yago/YagoPermanentlyLocatedEntity
p400
aVhttp://dbpedia.org/class/yago/JapaneseIndieRockGroups
p401
aVhttp://dbpedia.org/class/yago/YagoLegalActor
p402
aVhttp://dbpedia.org/resource/The_Watanabes
p403
tp404
aa(lp405
a(lp406
a(lp407
aa.