(lp1
(lp2
(dp3
Vstart
p4
I0
sVdisambiguatedURL
p5
NsVnamedEntity
p6
V\u652f\u6255\u7dcf\u984d
p7
sVoffset
p8
I4
saa(lp9
(dp10
Vstart
p11
I0
sVdisambiguatedURL
p12
NsVnamedEntity
p13
V\u8d70\u884c\u8ddd\u96e2
p14
sVoffset
p15
I4
saa(lp16
(dp17
Vstart
p18
I0
sVdisambiguatedURL
p19
NsVnamedEntity
p20
V\u5e74\u5f0f(\u521d\u5ea6\u767b\u9332\u5e74)
p21
sVoffset
p22
I9
saa(lp23
(dp24
Vstart
p25
I0
sVdisambiguatedURL
p26
NsVnamedEntity
p27
V\u30c9\u30a2\u6570
p28
sVoffset
p29
I3
saa.