(lp1
(lp2
(dp3
Vstart
p4
I0
sVdisambiguatedURL
p5
NsVnamedEntity
p6
VProcessor Multi CB
p7
sVoffset
p8
I18
saa(lp9
(dp10
Vstart
p11
I0
sVdisambiguatedURL
p12
NsVnamedEntity
p13
VProcessor Single CB
p14
sVoffset
p15
I19
saa(lp16
(dp17
Vstart
p18
I0
sVdisambiguatedURL
p19
NsVnamedEntity
p20
VGraphics Card CB
p21
sVoffset
p22
I16
saa(lp23
(dp24
Vstart
p25
I0
sVdisambiguatedURL
p26
NsVnamedEntity
p27
VGraphics Games fps
p28
sVoffset
p29
I18
saa(lp30
(dp31
Vstart
p32
I0
sVdisambiguatedURL
p33
NsVnamedEntity
p34
VHard Drive sec.
p35
sVoffset
p36
I15
saa(lp37
(dp38
Vstart
p39
I0
sVdisambiguatedURL
p40
NsVnamedEntity
p41
VQuickTime sec.
p42
sVoffset
p43
I14
saa(lp44
(dp45
Vstart
p46
I0
sVdisambiguatedURL
p47
NsVnamedEntity
p48
V1.0GHz                More performance results ...
p49
sVoffset
p50
I139
saa.