(lp1
(lp2
(lp3
a(lp4
Vhttp://dbpedia.org/resource/The_Woman_in_Black
p5
aa(lp6
aa(lp7
(lp8
a(lp9
a(lp10
aa(lp11
(lp12
a(lp13
Vhttp://dbpedia.org/resource/The_Grey
p14
aa(lp15
aa(lp16
(lp17
a(lp18
a(lp19
aa(lp20
(lp21
a(lp22
a(lp23
aa.