(lp1
(lp2
(lp3
((lVhttp://dbpedia.org/resource/Null
tp4
aa(lp5
a(lp6
((lVhttp://dbpedia.org/resource/Null
tp7
aaa(lp8
(lp9
((lVhttp://dbpedia.org/resource/Null
tp10
aa(lp11
a(lp12
((lVhttp://dbpedia.org/resource/Null
tp13
aaa(lp14
(lp15
((lVhttp://dbpedia.org/resource/Null
tp16
aa(lp17
a(lp18
((lVhttp://dbpedia.org/resource/Null
tp19
aaa(lp20
(lp21
((lVhttp://dbpedia.org/resource/Null
tp22
aa(lp23
a(lp24
((lVhttp://dbpedia.org/resource/Null
tp25
aaa(lp26
(lp27
((lVhttp://dbpedia.org/resource/Null
tp28
aa(lp29
a(lp30
((lVhttp://dbpedia.org/resource/Null
tp31
aaa(lp32
(lp33
((lVhttp://dbpedia.org/resource/Null
tp34
aa(lp35
a(lp36
((lVhttp://dbpedia.org/resource/Null
tp37
aaa(lp38
(lp39
((lVhttp://dbpedia.org/resource/Null
tp40
aa(lp41
a(lp42
((lVhttp://dbpedia.org/resource/Null
tp43
aaa(lp44
(lp45
((lVhttp://dbpedia.org/resource/Null
tp46
aa(lp47
((lVhttp://dbpedia.org/resource/Null
tp48
aa(lp49
((lVhttp://dbpedia.org/resource/Null
p50
tp51
aaa.