(lp1
(lp2
(lp3
Vhttp://dbpedia.org/resource/Null
p4
aa(lp5
a(lp6
Vhttp://dbpedia.org/resource/Null
p7
aaa(lp8
(lp9
Vhttp://dbpedia.org/resource/Null
p10
aa(lp11
a(lp12
Vhttp://dbpedia.org/resource/Null
p13
aaa(lp14
(lp15
Vhttp://dbpedia.org/resource/Null
p16
aa(lp17
a(lp18
Vhttp://dbpedia.org/resource/Null
p19
aaa(lp20
(lp21
Vhttp://dbpedia.org/resource/Null
p22
aa(lp23
a(lp24
Vhttp://dbpedia.org/resource/Null
p25
aaa(lp26
(lp27
Vhttp://dbpedia.org/resource/Null
p28
aa(lp29
a(lp30
Vhttp://dbpedia.org/resource/Null
p31
aaa(lp32
(lp33
Vhttp://dbpedia.org/resource/Null
p34
aa(lp35
a(lp36
Vhttp://dbpedia.org/resource/Null
p37
aaa(lp38
(lp39
Vhttp://dbpedia.org/resource/Null
p40
aa(lp41
a(lp42
Vhttp://dbpedia.org/resource/Null
p43
aaa(lp44
(lp45
Vhttp://dbpedia.org/resource/Null
p46
aa(lp47
Vhttp://dbpedia.org/resource/Null
p48
aa(lp49
Vhttp://dbpedia.org/resource/Null
p50
aaa.