(lp1
(lp2
(lp3
a(lp4
a(lp5
a(lp6
((lVhttp://dbpedia.org/resource/Verification
tp7
aa(lp8
aa(lp9
(lp10
a(lp11
a(lp12
a(lp13
((lVhttp://dbpedia.org/resource/Verification
tp14
aa(lp15
aa(lp16
(lp17
a(lp18
a(lp19
a(lp20
((lVhttp://dbpedia.org/resource/Verification
tp21
aa(lp22
aa(lp23
(lp24
a(lp25
a(lp26
a(lp27
((lVhttp://dbpedia.org/resource/Verification
tp28
aa(lp29
aa(lp30
(lp31
a(lp32
a(lp33
a(lp34
((lVhttp://dbpedia.org/resource/Verification
tp35
aa(lp36
aa(lp37
(lp38
a(lp39
a(lp40
a(lp41
((lVhttp://dbpedia.org/resource/Verification
tp42
aa(lp43
aa(lp44
(lp45
a(lp46
a(lp47
a(lp48
((lVhttp://dbpedia.org/resource/Verification
tp49
aa(lp50
aa(lp51
(lp52
a(lp53
a(lp54
a(lp55
((lVhttp://dbpedia.org/resource/Verification
tp56
aa(lp57
aa(lp58
(lp59
a(lp60
a(lp61
a(lp62
((lVhttp://dbpedia.org/resource/Verification
p63
tp64
aa(lp65
aa.