(lp1
(dp2
I0
(dp3
I0
(lp4
sI1
(lp5
sI2
(lp6
sI3
(lp7
ssI1
(dp8
I0
g5
sI1
(lp9
sI2
(lp10
sI3
(lp11
ssI2
(dp12
I0
g6
sI1
g10
sI2
(lp13
sI3
(lp14
ssI3
(dp15
I0
g7
sI1
g11
sI2
g14
sI3
(lp16
ssa(dp17
I0
(dp18
I0
(lp19
sI1
(lp20
sI2
(lp21
sI3
(lp22
ssI1
(dp23
I0
g20
sI1
(lp24
sI2
(lp25
sI3
(lp26
ssI2
(dp27
I0
g21
sI1
g25
sI2
(lp28
sI3
(lp29
ssI3
(dp30
I0
g22
sI1
g26
sI2
g29
sI3
(lp31
ssa(dp32
I0
(dp33
I0
(lp34
sI1
(lp35
sI2
(lp36
sI3
(lp37
ssI1
(dp38
I0
g35
sI1
(lp39
sI2
(lp40
sI3
(lp41
ssI2
(dp42
I0
g36
sI1
g40
sI2
(lp43
sI3
(lp44
ssI3
(dp45
I0
g37
sI1
g41
sI2
g44
sI3
(lp46
ssa(dp47
I0
(dp48
I0
(lp49
sI1
(lp50
sI2
(lp51
sI3
(lp52
ssI1
(dp53
I0
g50
sI1
(lp54
sI2
(lp55
sI3
(lp56
ssI2
(dp57
I0
g51
sI1
g55
sI2
(lp58
sI3
(lp59
ssI3
(dp60
I0
g52
sI1
g56
sI2
g59
sI3
(lp61
ssa(dp62
I0
(dp63
I0
(lp64
sI1
(lp65
sI2
(lp66
sI3
(lp67
Vhttp://www.w3.org/1999/02/22-rdf-syntax-ns#type
p68
aVhttp://www.w3.org/2000/01/rdf-schema#comment
p69
aVhttp://dbpedia.org/ontology/abstract
p70
aVhttp://purl.org/voc/vrank#hasRank
p71
aVhttp://www.w3.org/ns/prov#wasDerivedFrom
p72
aVhttp://dbpedia.org/property/hasPhotoCollection
p73
aVhttp://www.w3.org/2002/07/owl#sameAs
p74
assI1
(dp75
I0
g65
sI1
(lp76
sI2
(lp77
sI3
(lp78
ssI2
(dp79
I0
g66
sI1
g77
sI2
(lp80
sI3
(lp81
ssI3
(dp82
I0
g67
sI1
g78
sI2
g81
sI3
(lp83
ssa(dp84
I0
(dp85
I0
(lp86
sI1
(lp87
sI2
(lp88
sI3
(lp89
ssI1
(dp90
I0
g87
sI1
(lp91
sI2
(lp92
sI3
(lp93
ssI2
(dp94
I0
g88
sI1
g92
sI2
(lp95
sI3
(lp96
ssI3
(dp97
I0
g89
sI1
g93
sI2
g96
sI3
(lp98
ssa(dp99
I0
(dp100
I0
(lp101
sI1
(lp102
sI2
(lp103
sI3
(lp104
ssI1
(dp105
I0
g102
sI1
(lp106
sI2
(lp107
sI3
(lp108
ssI2
(dp109
I0
g103
sI1
g107
sI2
(lp110
sI3
(lp111
ssI3
(dp112
I0
g104
sI1
g108
sI2
g111
sI3
(lp113
ssa(dp114
I0
(dp115
I0
(lp116
sI1
(lp117
sI2
(lp118
sI3
(lp119
ssI1
(dp120
I0
g117
sI1
(lp121
sI2
(lp122
sI3
(lp123
ssI2
(dp124
I0
g118
sI1
g122
sI2
(lp125
sI3
(lp126
ssI3
(dp127
I0
g119
sI1
g123
sI2
g126
sI3
(lp128
ssa(dp129
I0
(dp130
I0
(lp131
sI1
(lp132
sI2
(lp133
sI3
(lp134
ssI1
(dp135
I0
g132
sI1
(lp136
sI2
(lp137
sI3
(lp138
ssI2
(dp139
I0
g133
sI1
g137
sI2
(lp140
sI3
(lp141
ssI3
(dp142
I0
g134
sI1
g138
sI2
g141
sI3
(lp143
ssa(dp144
I0
(dp145
I0
(lp146
sI1
(lp147
sI2
(lp148
sI3
(lp149
ssI1
(dp150
I0
g147
sI1
(lp151
sI2
(lp152
sI3
(lp153
ssI2
(dp154
I0
g148
sI1
g152
sI2
(lp155
sI3
(lp156
ssI3
(dp157
I0
g149
sI1
g153
sI2
g156
sI3
(lp158
ssa.