(lp1
(lp2
(lp3
a(lp4
a(lp5
a(lp6
aa(lp7
(lp8
a(lp9
a(lp10
a(lp11
aa(lp12
(lp13
a(lp14
a(lp15
a(lp16
aa(lp17
(lp18
a(lp19
a(lp20
a(lp21
aa(lp22
(lp23
((lp24
Vhttp://www.w3.org/2002/07/owl#Thing
p25
aVhttp://dbpedia.org/ontology/Company
p26
aVhttp://www.ontologydesignpatterns.org/ont/dul/DUL.owl#Agent
p27
aVhttp://www.ontologydesignpatterns.org/ont/dul/DUL.owl#SocialPerson
p28
aVhttp://www.wikidata.org/entity/Q43229
p29
aVhttp://dbpedia.org/ontology/Agent
p30
aVhttp://dbpedia.org/ontology/Organisation
p31
aVhttp://schema.org/Organization
p32
aVhttp://dbpedia.org/class/yago/Abstraction100002137
p33
aVhttp://dbpedia.org/class/yago/Business108061042
p34
aVhttp://dbpedia.org/class/yago/Company108058098
p35
aVhttp://dbpedia.org/class/yago/Enterprise108056231
p36
aVhttp://dbpedia.org/class/yago/Firm108059870
p37
aVhttp://dbpedia.org/class/yago/Group100031264
p38
aVhttp://dbpedia.org/class/yago/Institution108053576
p39
aVhttp://dbpedia.org/class/yago/Organization108008335
p40
aVhttp://dbpedia.org/class/yago/Publisher108062623
p41
aVhttp://dbpedia.org/class/yago/SocialGroup107950920
p42
aVhttp://dbpedia.org/class/yago/YagoLegalActorGeo
p43
aVhttp://dbpedia.org/class/yago/CompaniesEstablishedIn1982
p44
aVhttp://dbpedia.org/class/yago/YagoPermanentlyLocatedEntity
p45
aVhttp://dbpedia.org/class/yago/YagoLegalActor
p46
aVhttp://dbpedia.org/class/yago/SoftwareCompaniesOfTheUnitedKingdom
p47
aVhttp://dbpedia.org/class/yago/VideoGameCompaniesOfTheUnitedKingdom
p48
aVhttp://dbpedia.org/class/yago/VideoGamePublishers
p49
aVhttp://dbpedia.org/resource/Superior_Software
p50
tp51
aa(lp52
a(lp53
a(lp54
aa(lp55
(lp56
a(lp57
a(lp58
a(lp59
aa(lp60
(lp61
a(lp62
a(lp63
a(lp64
aa(lp65
(lp66
a(lp67
a(lp68
a(lp69
aa(lp70
(lp71
a(lp72
a(lp73
a(lp74
aa(lp75
(lp76
a(lp77
a(lp78
a(lp79
aa.