(lp1
(lp2
(dp3
Vstart
p4
I0
sVdisambiguatedURL
p5
NsVnamedEntity
p6
VFan Garden Standard
p7
sVoffset
p8
I19
saa(lp9
(dp10
Vstart
p11
I0
sVdisambiguatedURL
p12
NsVnamedEntity
p13
VFan Garden Deluxe
p14
sVoffset
p15
I17
saa(lp16
(dp17
Vstart
p18
I0
sVdisambiguatedURL
p19
NsVnamedEntity
p20
VGarden Viwe Deluxe
p21
sVoffset
p22
I18
saa(lp23
(dp24
Vstart
p25
I0
sVdisambiguatedURL
p26
NsVnamedEntity
p27
VBeach Front Deluxe
p28
sVoffset
p29
I18
saa(lp30
(dp31
Vstart
p32
I0
sVdisambiguatedURL
p33
Vhttp://dbpedia.org/resource/Superior_Software
p34
sVnamedEntity
p35
VSuperior
p36
sVoffset
p37
I8
saa(lp38
(dp39
Vstart
p40
I0
sVdisambiguatedURL
p41
NsVnamedEntity
p42
VSuperior Deluxe
p43
sVoffset
p44
I15
saa(lp45
(dp46
Vstart
p47
I0
sVdisambiguatedURL
p48
NsVnamedEntity
p49
VChukit Deluxe
p50
sVoffset
p51
I13
saa(lp52
(dp53
Vstart
p54
I0
sVdisambiguatedURL
p55
NsVnamedEntity
p56
VChukit Family Deluxe 4 pax
p57
sVoffset
p58
I26
saa(lp59
(dp60
Vstart
p61
I0
sVdisambiguatedURL
p62
NsVnamedEntity
p63
VChukit Family Superior Deluxe for 4 paxs.
p64
sVoffset
p65
I41
saa(lp66
(dp67
Vstart
p68
I0
sVdisambiguatedURL
p69
NsVnamedEntity
p70
VChukit Family Superior Deluxe for 6 pax
p71
sVoffset
p72
I39
saa.