(lp1
(lp2
(dp3
Vstart
p4
I0
sS'classes'
p5
(lp6
Vhttp://www.w3.org/2002/07/owl#Thing
p7
aVhttp://www.ontologydesignpatterns.org/ont/dul/DUL.owl#Agent
p8
aVhttp://www.ontologydesignpatterns.org/ont/dul/DUL.owl#SocialPerson
p9
aVhttp://www.wikidata.org/entity/Q176799
p10
aVhttp://www.wikidata.org/entity/Q43229
p11
aVhttp://dbpedia.org/ontology/Agent
p12
aVhttp://dbpedia.org/ontology/MilitaryUnit
p13
aVhttp://dbpedia.org/ontology/Organisation
p14
aVhttp://schema.org/Organization
p15
aVhttp://umbel.org/umbel/rc/Organization
p16
aVhttp://umbel.org/umbel/rc/Troop_MilitaryUnit
p17
aVhttp://dbpedia.org/class/yago/Abstraction100002137
p18
aVhttp://dbpedia.org/class/yago/Group100031264
p19
aVhttp://dbpedia.org/class/yago/MilitaryUnit108198398
p20
aVhttp://dbpedia.org/class/yago/Organization108008335
p21
aVhttp://dbpedia.org/class/yago/SocialGroup107950920
p22
aVhttp://dbpedia.org/class/yago/Unit108189659
p23
aVhttp://dbpedia.org/class/yago/YagoLegalActorGeo
p24
aVhttp://dbpedia.org/class/yago/YagoPermanentlyLocatedEntity
p25
aVhttp://dbpedia.org/class/yago/MilitaryUnitsAndFormationsEstablishedIn1775
p26
aVhttp://dbpedia.org/class/yago/YagoLegalActor
p27
asVdisambiguatedURL
p28
Vhttp://dbpedia.org/resource/United_States_Marine_Corps
p29
sVnamedEntity
p30
VUSMC
p31
sVoffset
p32
I4
saa(lp33
(dp34
Vstart
p35
I0
sg5
(lp36
Vhttp://www.w3.org/2002/07/owl#Thing
p37
aVhttp://dbpedia.org/ontology/Company
p38
aVhttp://www.ontologydesignpatterns.org/ont/dul/DUL.owl#Agent
p39
aVhttp://www.ontologydesignpatterns.org/ont/dul/DUL.owl#SocialPerson
p40
aVhttp://www.wikidata.org/entity/Q43229
p41
aVhttp://dbpedia.org/ontology/Agent
p42
aVhttp://dbpedia.org/ontology/Organisation
p43
aVhttp://schema.org/Organization
p44
aVhttp://dbpedia.org/class/yago/Abstraction100002137
p45
aVhttp://dbpedia.org/class/yago/Company108058098
p46
aVhttp://dbpedia.org/class/yago/Group100031264
p47
aVhttp://dbpedia.org/class/yago/Institution108053576
p48
aVhttp://dbpedia.org/class/yago/Organization108008335
p49
aVhttp://dbpedia.org/class/yago/SocialGroup107950920
p50
aVhttp://dbpedia.org/class/yago/YagoLegalActorGeo
p51
aVhttp://dbpedia.org/class/yago/CompaniesEstablishedIn1964
p52
aVhttp://dbpedia.org/class/yago/YagoPermanentlyLocatedEntity
p53
aVhttp://dbpedia.org/class/yago/ManufacturingCompaniesOfTheUnitedKingdom
p54
aVhttp://dbpedia.org/class/yago/YagoLegalActor
p55
asVdisambiguatedURL
p56
Vhttp://dbpedia.org/resource/Morgan_Electro_Ceramics
p57
sVnamedEntity
p58
VMEC
p59
sVoffset
p60
I3
saa(lp61
(dp62
Vstart
p63
I0
sg5
(lp64
Vhttp://www.w3.org/2002/07/owl#Thing
p65
aVhttp://www.ontologydesignpatterns.org/ont/dul/DUL.owl#Agent
p66
aVhttp://www.ontologydesignpatterns.org/ont/dul/DUL.owl#SocialPerson
p67
aVhttp://www.wikidata.org/entity/Q43229
p68
aVhttp://www.wikidata.org/entity/Q7278
p69
aVhttp://dbpedia.org/ontology/Agent
p70
aVhttp://dbpedia.org/ontology/Organisation
p71
aVhttp://dbpedia.org/ontology/PoliticalParty
p72
aVhttp://schema.org/Organization
p73
aVhttp://dbpedia.org/class/yago/Abstraction100002137
p74
aVhttp://dbpedia.org/class/yago/Anti-RevisionistOrganizations
p75
aVhttp://dbpedia.org/class/yago/Group100031264
p76
aVhttp://dbpedia.org/class/yago/Organization108008335
p77
aVhttp://dbpedia.org/class/yago/Party108256968
p78
aVhttp://dbpedia.org/class/yago/SocialGroup107950920
p79
aVhttp://dbpedia.org/class/yago/YagoLegalActorGeo
p80
aVhttp://dbpedia.org/class/yago/CommunistPartiesInAlbania
p81
aVhttp://dbpedia.org/class/yago/DefunctPoliticalPartiesInAlbania
p82
aVhttp://dbpedia.org/class/yago/YagoPermanentlyLocatedEntity
p83
aVhttp://dbpedia.org/class/yago/HoxhaistParties
p84
aVhttp://dbpedia.org/class/yago/PartiesOfSingle-partySystems
p85
aVhttp://dbpedia.org/class/yago/PoliticalPartiesEstablishedIn1941
p86
aVhttp://dbpedia.org/class/yago/YagoLegalActor
p87
aVhttp://dbpedia.org/class/yago/RulingCommunistParties
p88
aVhttp://dbpedia.org/class/yago/StalinistParties
p89
asVdisambiguatedURL
p90
Vhttp://dbpedia.org/resource/Party_of_Labour_of_Albania
p91
sVnamedEntity
p92
VPLA
p93
sVoffset
p94
I3
saa(lp95
(dp96
Vstart
p97
I0
sg5
(lp98
Vhttp://www.w3.org/2002/07/owl#Thing
p99
aVhttp://www.ontologydesignpatterns.org/ont/dul/DUL.owl#Agent
p100
aVhttp://www.ontologydesignpatterns.org/ont/dul/DUL.owl#SocialPerson
p101
aVhttp://www.wikidata.org/entity/Q215380
p102
aVhttp://www.wikidata.org/entity/Q43229
p103
aVhttp://dbpedia.org/ontology/Agent
p104
aVhttp://dbpedia.org/ontology/Band
p105
aVhttp://dbpedia.org/ontology/Group
p106
aVhttp://dbpedia.org/ontology/Organisation
p107
aVhttp://schema.org/MusicGroup
p108
aVhttp://schema.org/Organization
p109
aVhttp://dbpedia.org/class/yago/Artist109812338
p110
aVhttp://dbpedia.org/class/yago/CausalAgent100007347
p111
aVhttp://dbpedia.org/class/yago/Creator109614315
p112
aVhttp://dbpedia.org/class/yago/LivingThing100004258
p113
aVhttp://dbpedia.org/class/yago/Object100002684
p114
aVhttp://dbpedia.org/class/yago/Organism100004475
p115
aVhttp://dbpedia.org/class/yago/Person100007846
p116
aVhttp://dbpedia.org/class/yago/Whole100003553
p117
aVhttp://dbpedia.org/class/yago/YagoLegalActorGeo
p118
aVhttp://dbpedia.org/class/yago/PhysicalEntity100001930
p119
aVhttp://dbpedia.org/class/yago/YagoLegalActor
p120
aVhttp://dbpedia.org/class/yago/StonesThrowRecordsArtists
p121
asVdisambiguatedURL
p122
Vhttp://dbpedia.org/resource/Strong_Arm_Steady
p123
sVnamedEntity
p124
VSAS
p125
sVoffset
p126
I3
saa(lp127
a(lp128
a(lp129
a(lp130
(dp131
Vstart
p132
I0
sg5
(lp133
Vhttp://www.w3.org/2002/07/owl#Thing
p134
asVdisambiguatedURL
p135
Vhttp://dbpedia.org/resource/Insurgency
p136
sVnamedEntity
p137
VInsurgents
p138
sVoffset
p139
I10
saa(lp140
(dp141
Vstart
p142
I0
sg5
(lp143
Vhttp://www.w3.org/2002/07/owl#Thing
p144
aVhttp://dbpedia.org/ontology/Species
p145
aVhttp://dbpedia.org/class/yago/Abstraction100002137
p146
aVhttp://dbpedia.org/class/yago/Alliance108293982
p147
aVhttp://dbpedia.org/class/yago/Economy108366753
p148
aVhttp://dbpedia.org/class/yago/Group100031264
p149
aVhttp://dbpedia.org/class/yago/Organization108008335
p150
aVhttp://dbpedia.org/class/yago/PoliticalUnit108359949
p151
aVhttp://dbpedia.org/class/yago/SocialGroup107950920
p152
aVhttp://dbpedia.org/class/yago/State108168978
p153
aVhttp://dbpedia.org/class/yago/System108435388
p154
aVhttp://dbpedia.org/class/yago/Unit108189659
p155
aVhttp://dbpedia.org/class/yago/YagoLegalActorGeo
p156
aVhttp://dbpedia.org/class/yago/EuropeanUnionMemberEconomies
p157
aVhttp://dbpedia.org/class/yago/WorldOrganization108294696
p158
aVhttp://dbpedia.org/class/yago/YagoPermanentlyLocatedEntity
p159
aVhttp://dbpedia.org/class/yago/G20Nations
p160
aVhttp://dbpedia.org/class/yago/InternationalOrganizationsOfEurope
p161
aVhttp://dbpedia.org/class/yago/YagoLegalActor
p162
aVhttp://dbpedia.org/class/yago/WorldTradeOrganizationMemberEconomies
p163
asVdisambiguatedURL
p164
Vhttp://dbpedia.org/resource/European_Union
p165
sVnamedEntity
p166
VEuropean Union
p167
sVoffset
p168
I14
saa(lp169
a(lp170
(dp171
Vstart
p172
I0
sg5
(lp173
Vhttp://www.w3.org/2002/07/owl#Thing
p174
asVdisambiguatedURL
p175
Vhttp://dbpedia.org/resource/Average
p176
sVnamedEntity
p177
VAverages
p178
sVoffset
p179
I8
saa.