(lp1
(lp2
a(lp3
a(lp4
a(lp5
a(lp6
a(lp7
a(lp8
a(lp9
a(lp10
a(lp11
(dp12
Vstart
p13
I0
sS'classes'
p14
(lp15
Vhttp://www.w3.org/2002/07/owl#Thing
p16
aVhttp://dbpedia.org/class/yago/Abstraction100002137
p17
aVhttp://dbpedia.org/class/yago/Code106353934
p18
aVhttp://dbpedia.org/class/yago/Communication100033020
p19
aVhttp://dbpedia.org/class/yago/Writing106359877
p20
aVhttp://dbpedia.org/class/yago/CodingSystem106353757
p21
aVhttp://dbpedia.org/class/yago/WrittenCommunication106349220
p22
aVhttp://dbpedia.org/class/yago/PostalCodesByCountry
p23
aVhttp://dbpedia.org/class/yago/Postcode106355705
p24
asVdisambiguatedURL
p25
Vhttp://dbpedia.org/resource/ZIP_code
p26
sVnamedEntity
p27
VZip Code
p28
sVoffset
p29
I8
saa(lp30
a(lp31
a(lp32
a(lp33
(dp34
Vstart
p35
I0
sg14
(lp36
Vhttp://www.w3.org/2002/07/owl#Thing
p37
asVdisambiguatedURL
p38
Vhttp://dbpedia.org/resource/Fax
p39
sVnamedEntity
p40
VFax
p41
sVoffset
p42
I3
saa(lp43
a(lp44
a(lp45
a.