ccollections
defaultdict
p1
(c__builtin__
dict
p2
tRp3
I9
(dp4
I1
(lp5
sI2
(lp6
sI3
(lp7
Vhttp://dbpedia.org/property/postalCodeType
p8
aVhttp://www.w3.org/1999/02/22-rdf-syntax-ns#type
p9
aVhttp://purl.org/dc/terms/subject
p10
asI4
(lp11
ssI13
(dp12
I1
(lp13
sI2
(lp14
sI3
(lp15
sI4
(lp16
ss.