(lp1
(lp2
(lp3
a(lp4
a(lp5
Vhttp://dbpedia.org/resource/Army_Reserve_(Ireland)
p6
aa(lp7
a(lp8
aa(lp9
(lp10
Vhttp://dbpedia.org/resource/March_31
p11
aa(lp12
a(lp13
Vhttp://dbpedia.org/resource/Army_Reserve_(Ireland)
p14
aa(lp15
a(lp16
aa(lp17
(lp18
a(lp19
a(lp20
a(lp21
a(lp22
Vhttp://dbpedia.org/resource/2005_Little_League_World_Series
p23
aaa(lp24
(lp25
Vhttp://dbpedia.org/resource/May_35
p26
aa(lp27
a(lp28
a(lp29
a(lp30
Vhttp://dbpedia.org/resource/2005_Little_League_World_Series
p31
aaa(lp32
(lp33
a(lp34
a(lp35
a(lp36
a(lp37
Vhttp://dbpedia.org/resource/2005_Little_League_World_Series
p38
aaa(lp39
(lp40
Vhttp://dbpedia.org/resource/June_12_(Eastern_Orthodox_liturgics)
p41
aa(lp42
a(lp43
Vhttp://dbpedia.org/resource/Army_Reserve_(Ireland)
p44
aa(lp45
a(lp46
Vhttp://dbpedia.org/resource/2005_Little_League_World_Series
p47
aaa(lp48
(lp49
a(lp50
a(lp51
a(lp52
a(lp53
Vhttp://dbpedia.org/resource/2005_Little_League_World_Series
p54
aaa(lp55
(lp56
Vhttp://dbpedia.org/resource/June_12_(Eastern_Orthodox_liturgics)
p57
aa(lp58
a(lp59
Vhttp://dbpedia.org/resource/Atlantic_City,_New_Jersey
p60
aa(lp61
a(lp62
Vhttp://dbpedia.org/resource/2005_Little_League_World_Series
p63
aaa(lp64
(lp65
a(lp66
a(lp67
a(lp68
a(lp69
Vhttp://dbpedia.org/resource/2005_Little_League_World_Series
p70
aaa(lp71
(lp72
Vhttp://dbpedia.org/resource/July_1_(Eastern_Orthodox_liturgics)
p73
aa(lp74
a(lp75
Vhttp://dbpedia.org/resource/Army_Reserve_(Ireland)
p76
aa(lp77
a(lp78
aa(lp79
(lp80
Vhttp://dbpedia.org/resource/July_1_(Eastern_Orthodox_liturgics)
p81
aa(lp82
a(lp83
a(lp84
a(lp85
aa(lp86
(lp87
a(lp88
a(lp89
a(lp90
a(lp91
Vhttp://dbpedia.org/resource/2005_Little_League_World_Series
p92
aaa(lp93
(lp94
a(lp95
a(lp96
a(lp97
a(lp98
Vhttp://dbpedia.org/resource/2005_Little_League_World_Series
p99
aaa.