(lp1
(dp2
I0
(dp3
I0
(lp4
sI1
(lp5
sI2
(lp6
sI3
(lp7
sI4
(lp8
ssI1
(dp9
I0
g5
sI1
(lp10
sI2
(lp11
sI3
(lp12
sI4
(lp13
ssI2
(dp14
I0
g6
sI1
g11
sI2
(lp15
sI3
(lp16
Vhttp://dbpedia.org/ontology/abstract
p17
aVhttp://dbpedia.org/property/hasPhotoCollection
p18
aVhttp://www.w3.org/2002/07/owl#sameAs
p19
asI4
(lp20
Vhttp://dbpedia.org/ontology/abstract
p21
aVhttp://dbpedia.org/property/hasPhotoCollection
p22
aVhttp://www.w3.org/2002/07/owl#sameAs
p23
assI3
(dp24
I0
g7
sI1
g12
sI2
g16
sI3
(lp25
sI4
(lp26
ssI4
(dp27
I0
g8
sI1
g13
sI2
g20
sI4
(lp28
ssa(dp29
I0
(dp30
I0
(lp31
sI1
(lp32
sI2
(lp33
sI3
(lp34
Vhttp://dbpedia.org/ontology/wikiPageExternalLink
p35
aVhttp://dbpedia.org/ontology/abstract
p36
aVhttp://dbpedia.org/property/hasPhotoCollection
p37
aVhttp://www.w3.org/2000/01/rdf-schema#comment
p38
asI4
(lp39
Vhttp://dbpedia.org/ontology/wikiPageExternalLink
p40
aVhttp://dbpedia.org/ontology/abstract
p41
aVhttp://dbpedia.org/property/hasPhotoCollection
p42
aVhttp://www.w3.org/2000/01/rdf-schema#comment
p43
assI1
(dp44
I0
g32
sI1
(lp45
sI2
(lp46
sI3
(lp47
sI4
(lp48
ssI2
(dp49
I0
g33
sI1
g46
sI2
(lp50
sI3
(lp51
Vhttp://dbpedia.org/ontology/abstract
p52
aVhttp://dbpedia.org/property/hasPhotoCollection
p53
aVhttp://www.w3.org/2002/07/owl#sameAs
p54
asI4
(lp55
Vhttp://dbpedia.org/ontology/abstract
p56
aVhttp://dbpedia.org/property/hasPhotoCollection
p57
aVhttp://www.w3.org/2002/07/owl#sameAs
p58
assI3
(dp59
I0
g34
sI1
g47
sI2
g51
sI3
(lp60
sI4
(lp61
ssI4
(dp62
I0
g39
sI1
g48
sI2
g55
sI4
(lp63
ssa(dp64
I0
(dp65
I0
(lp66
sI1
(lp67
sI2
(lp68
sI3
(lp69
sI4
(lp70
ssI1
(dp71
I0
g67
sI1
(lp72
sI2
(lp73
sI3
(lp74
sI4
(lp75
ssI2
(dp76
I0
g68
sI1
g73
sI2
(lp77
sI3
(lp78
sI4
(lp79
ssI3
(dp80
I0
g69
sI1
g74
sI2
g78
sI3
(lp81
sI4
(lp82
ssI4
(dp83
I0
g70
sI1
g75
sI2
g79
sI3
g82
sI4
(lp84
ssa(dp85
I0
(dp86
I0
(lp87
sI1
(lp88
sI2
(lp89
sI3
(lp90
sI4
(lp91
ssI1
(dp92
I0
g88
sI1
(lp93
sI2
(lp94
sI3
(lp95
sI4
(lp96
ssI2
(dp97
I0
g89
sI1
g94
sI2
(lp98
sI3
(lp99
sI4
(lp100
ssI3
(dp101
I0
g90
sI1
g95
sI2
g99
sI3
(lp102
sI4
(lp103
ssI4
(dp104
I0
g91
sI1
g96
sI2
g100
sI3
g103
sI4
(lp105
ssa(dp106
I0
(dp107
I0
(lp108
sI1
(lp109
sI2
(lp110
sI3
(lp111
sI4
(lp112
ssI1
(dp113
I0
g109
sI1
(lp114
sI2
(lp115
sI3
(lp116
sI4
(lp117
ssI2
(dp118
I0
g110
sI1
g115
sI2
(lp119
sI3
(lp120
sI4
(lp121
ssI3
(dp122
I0
g111
sI1
g116
sI2
g120
sI3
(lp123
sI4
(lp124
ssI4
(dp125
I0
g112
sI1
g117
sI2
g121
sI3
g124
sI4
(lp126
ssa(dp127
I0
(dp128
I0
(lp129
sI1
(lp130
sI2
(lp131
sI3
(lp132
sI4
(lp133
ssI1
(dp134
I0
g130
sI1
(lp135
sI2
(lp136
sI3
(lp137
sI4
(lp138
ssI2
(dp139
I0
g131
sI1
g136
sI2
(lp140
sI3
(lp141
sI4
(lp142
ssI3
(dp143
I0
g132
sI1
g137
sI2
g141
sI3
(lp144
sI4
(lp145
ssI4
(dp146
I0
g133
sI1
g138
sI2
g142
sI3
g145
sI4
(lp147
ssa(dp148
I0
(dp149
I0
(lp150
sI1
(lp151
sI2
(lp152
sI3
(lp153
sI4
(lp154
ssI1
(dp155
I0
g151
sI1
(lp156
sI2
(lp157
sI3
(lp158
sI4
(lp159
ssI2
(dp160
I0
g152
sI1
g157
sI2
(lp161
sI3
(lp162
sI4
(lp163
ssI3
(dp164
I0
g153
sI1
g158
sI2
g162
sI3
(lp165
sI4
(lp166
ssI4
(dp167
I0
g154
sI1
g159
sI2
g163
sI3
g166
sI4
(lp168
ssa(dp169
I0
(dp170
I0
(lp171
sI1
(lp172
sI2
(lp173
sI3
(lp174
Vhttp://dbpedia.org/ontology/abstract
p175
aVhttp://dbpedia.org/property/hasPhotoCollection
p176
aVhttp://www.w3.org/2000/01/rdf-schema#comment
p177
asI4
(lp178
ssI1
(dp179
I0
g172
sI1
(lp180
sI2
(lp181
sI3
(lp182
sI4
(lp183
ssI2
(dp184
I0
g173
sI1
g181
sI2
(lp185
sI3
(lp186
Vhttp://dbpedia.org/property/placeOfDeath
p187
aVhttp://dbpedia.org/property/coordinatesRegion
p188
aVhttp://dbpedia.org/property/city
p189
aVhttp://dbpedia.org/ontology/postalCode
p190
aVhttp://dbpedia.org/property/placeOfBirth
p191
aVhttp://dbpedia.org/ontology/wikiPageExternalLink
p192
aVhttp://purl.org/dc/terms/subject
p193
aVhttp://dbpedia.org/ontology/abstract
p194
aVhttp://dbpedia.org/property/deathPlace
p195
aVhttp://dbpedia.org/property/location
p196
aVhttp://www.georss.org/georss/point
p197
aVhttp://dbpedia.org/ontology/deathPlace
p198
aVhttp://dbpedia.org/ontology/city
p199
aVhttp://dbpedia.org/property/hasPhotoCollection
p200
aVhttp://www.w3.org/2000/01/rdf-schema#label
p201
aVhttp://dbpedia.org/ontology/broadcastArea
p202
aVhttp://dbpedia.org/property/imageMap
p203
aVhttp://dbpedia.org/ontology/location
p204
aVhttp://www.w3.org/2000/01/rdf-schema#comment
p205
aVhttp://dbpedia.org/ontology/birthPlace
p206
aVhttp://dbpedia.org/property/area
p207
aVhttp://dbpedia.org/ontology/locationCity
p208
aVhttp://www.w3.org/2002/07/owl#sameAs
p209
asI4
(lp210
ssI3
(dp211
I0
g174
sI1
g182
sI2
g186
sI3
(lp212
sI4
(lp213
Vhttp://www.w3.org/2000/01/rdf-schema#comment
p214
aVhttp://dbpedia.org/ontology/abstract
p215
aVhttp://dbpedia.org/property/endDate
p216
aVhttp://dbpedia.org/property/a
p217
aVhttp://dbpedia.org/property/c
p218
aVhttp://dbpedia.org/property/startDate
p219
aVhttp://dbpedia.org/property/hasPhotoCollection
p220
assI4
(dp221
I0
g178
sI1
g183
sI2
g210
sI3
g213
sI4
(lp222
ssa(dp223
I0
(dp224
I0
(lp225
sI1
(lp226
sI2
(lp227
sI3
(lp228
sI4
(lp229
ssI1
(dp230
I0
g226
sI1
(lp231
sI2
(lp232
sI3
(lp233
sI4
(lp234
ssI2
(dp235
I0
g227
sI1
g232
sI2
(lp236
sI3
(lp237
sI4
(lp238
ssI3
(dp239
I0
g228
sI1
g233
sI2
g237
sI3
(lp240
sI4
(lp241
ssI4
(dp242
I0
g229
sI1
g234
sI2
g238
sI3
g241
sI4
(lp243
ssa(dp244
I0
(dp245
I0
(lp246
sI1
(lp247
sI2
(lp248
sI3
(lp249
Vhttp://dbpedia.org/ontology/wikiPageExternalLink
p250
aVhttp://dbpedia.org/ontology/abstract
p251
aVhttp://dbpedia.org/property/hasPhotoCollection
p252
aVhttp://www.w3.org/2000/01/rdf-schema#comment
p253
asI4
(lp254
Vhttp://dbpedia.org/ontology/wikiPageExternalLink
p255
aVhttp://dbpedia.org/ontology/abstract
p256
aVhttp://dbpedia.org/property/hasPhotoCollection
p257
aVhttp://www.w3.org/2000/01/rdf-schema#comment
p258
assI1
(dp259
I0
g247
sI1
(lp260
sI2
(lp261
sI3
(lp262
sI4
(lp263
ssI2
(dp264
I0
g248
sI1
g261
sI2
(lp265
sI3
(lp266
Vhttp://dbpedia.org/ontology/abstract
p267
aVhttp://dbpedia.org/property/hasPhotoCollection
p268
aVhttp://www.w3.org/2002/07/owl#sameAs
p269
asI4
(lp270
Vhttp://dbpedia.org/ontology/abstract
p271
aVhttp://dbpedia.org/property/hasPhotoCollection
p272
aVhttp://www.w3.org/2002/07/owl#sameAs
p273
assI3
(dp274
I0
g249
sI1
g262
sI2
g266
sI3
(lp275
sI4
(lp276
ssI4
(dp277
I0
g254
sI1
g263
sI2
g270
sI4
(lp278
ssa(dp279
I0
(dp280
I0
(lp281
sI1
(lp282
sI2
(lp283
sI3
(lp284
Vhttp://dbpedia.org/ontology/wikiPageExternalLink
p285
aVhttp://dbpedia.org/ontology/abstract
p286
aVhttp://dbpedia.org/property/hasPhotoCollection
p287
aVhttp://www.w3.org/2000/01/rdf-schema#comment
p288
asI4
(lp289
Vhttp://dbpedia.org/ontology/wikiPageExternalLink
p290
aVhttp://dbpedia.org/ontology/abstract
p291
aVhttp://dbpedia.org/property/hasPhotoCollection
p292
aVhttp://www.w3.org/2000/01/rdf-schema#comment
p293
assI1
(dp294
I0
g282
sI1
(lp295
sI2
(lp296
sI3
(lp297
sI4
(lp298
ssI2
(dp299
I0
g283
sI1
g296
sI2
(lp300
sI3
(lp301
sI4
(lp302
ssI3
(dp303
I0
g284
sI1
g297
sI2
g301
sI3
(lp304
sI4
(lp305
ssI4
(dp306
I0
g289
sI1
g298
sI2
g302
sI4
(lp307
ssa(dp308
I0
(dp309
I0
(lp310
sI1
(lp311
sI2
(lp312
sI3
(lp313
sI4
(lp314
ssI1
(dp315
I0
g311
sI1
(lp316
sI2
(lp317
sI3
(lp318
sI4
(lp319
ssI2
(dp320
I0
g312
sI1
g317
sI2
(lp321
sI3
(lp322
sI4
(lp323
ssI3
(dp324
I0
g313
sI1
g318
sI2
g322
sI3
(lp325
sI4
(lp326
ssI4
(dp327
I0
g314
sI1
g319
sI2
g323
sI3
g326
sI4
(lp328
ssa(dp329
I0
(dp330
I0
(lp331
sI1
(lp332
sI2
(lp333
sI3
(lp334
sI4
(lp335
ssI1
(dp336
I0
g332
sI1
(lp337
sI2
(lp338
sI3
(lp339
sI4
(lp340
ssI2
(dp341
I0
g333
sI1
g338
sI2
(lp342
sI3
(lp343
sI4
(lp344
ssI3
(dp345
I0
g334
sI1
g339
sI2
g343
sI3
(lp346
sI4
(lp347
ssI4
(dp348
I0
g335
sI1
g340
sI2
g344
sI3
g347
sI4
(lp349
ssa.