(lp1
(lp2
(lp3
a(lp4
a(lp5
a(lp6
a(lp7
a(lp8
a(lp9
a(lp10
a(lp11
Vhttp://dbpedia.org/resource/Quantum_1/f_noise
p12
aa(lp13
a(lp14
a(lp15
aa(lp16
(lp17
a(lp18
a(lp19
a(lp20
Vhttp://dbpedia.org/resource/Karyopherin
p21
aa(lp22
a(lp23
a(lp24
a(lp25
a(lp26
a(lp27
Vhttp://dbpedia.org/resource/Quantum_1/f_noise
p28
aa(lp29
a(lp30
a(lp31
a(lp32
a(lp33
Vhttp://dbpedia.org/resource/Programmed_input/output
p34
aa(lp35
Vhttp://dbpedia.org/resource/Sailing_ship
p36
aa(lp37
aa(lp38
(lp39
a(lp40
a(lp41
a(lp42
a(lp43
Vhttp://dbpedia.org/resource/Gray_(unit)
p44
aa(lp45
a(lp46
a(lp47
Vhttp://dbpedia.org/resource/Programmed_input/output
p48
aa(lp49
a(lp50
a(lp51
a(lp52
a(lp53
aa(lp54
(lp55
a(lp56
a(lp57
a(lp58
Vhttp://dbpedia.org/resource/Karyopherin
p59
aa(lp60
a(lp61
a(lp62
a(lp63
Vhttp://dbpedia.org/resource/Data_rate_units
p64
aa(lp65
a(lp66
Vhttp://dbpedia.org/resource/Quantum_1/f_noise
p67
aa(lp68
Vhttp://dbpedia.org/resource/Programmed_input/output
p69
aa(lp70
a(lp71
a(lp72
a(lp73
aa(lp74
(lp75
a(lp76
a(lp77
a(lp78
Vhttp://dbpedia.org/resource/ISO_639:y
p79
aa(lp80
a(lp81
Vhttp://dbpedia.org/resource/Data_rate_units
p82
aa(lp83
a(lp84
a(lp85
a(lp86
Vhttp://dbpedia.org/resource/Barrel_(unit)
p87
aa(lp88
a(lp89
Vhttp://dbpedia.org/resource/ISO_639:y
p90
aa(lp91
Vhttp://dbpedia.org/resource/Data_rate_units
p92
aaa(lp93
(lp94
a(lp95
a(lp96
a(lp97
Vhttp://dbpedia.org/resource/Karyopherin
p98
aa(lp99
a(lp100
Vhttp://dbpedia.org/resource/Programmed_input/output
p101
aa(lp102
Vhttp://dbpedia.org/resource/Programmed_input/output
p103
aa(lp104
Vhttp://dbpedia.org/resource/Barrel_(unit)
p105
aa(lp106
a(lp107
a(lp108
Vhttp://dbpedia.org/resource/Programmed_input/output
p109
aa(lp110
a(lp111
a(lp112
aa(lp113
(lp114
a(lp115
a(lp116
a(lp117
a(lp118
a(lp119
Vhttp://dbpedia.org/resource/ISO_639:y
p120
aa(lp121
a(lp122
a(lp123
Vhttp://dbpedia.org/resource/Data_rate_units
p124
aa(lp125
a(lp126
Vhttp://dbpedia.org/resource/Barrel_(unit)
p127
aa(lp128
a(lp129
a(lp130
a(lp131
aa(lp132
(lp133
a(lp134
a(lp135
a(lp136
a(lp137
a(lp138
a(lp139
Vhttp://dbpedia.org/resource/Programmed_input/output
p140
aa(lp141
Vhttp://dbpedia.org/resource/Karyopherin
p142
aa(lp143
a(lp144
Vhttp://dbpedia.org/resource/Data_rate_units
p145
aa(lp146
a(lp147
a(lp148
a(lp149
Vhttp://dbpedia.org/resource/Barrel_(unit)
p150
aa(lp151
Vhttp://dbpedia.org/resource/Barrel_(unit)
p152
aa(lp153
a(lp154
aa(lp155
(lp156
a(lp157
a(lp158
a(lp159
a(lp160
a(lp161
a(lp162
a(lp163
a(lp164
a(lp165
a(lp166
Vhttp://dbpedia.org/resource/Programmed_input/output
p167
aa(lp168
a(lp169
a(lp170
a(lp171
a(lp172
a(lp173
a(lp174
Vhttp://dbpedia.org/resource/Programmed_input/output
p175
aa(lp176
a(lp177
Vhttp://dbpedia.org/resource/Data_rate_units
p178
aaa(lp179
(lp180
a(lp181
a(lp182
Vhttp://dbpedia.org/resource/Karyopherin
p183
aa(lp184
Vhttp://dbpedia.org/resource/Data_rate_units
p185
aa(lp186
a(lp187
aa.