ccollections
defaultdict
p1
(c__builtin__
dict
p2
tRp3
I8
(dp4
I0
(lp5
sI2
(lp6
Vhttp://dbpedia.org/ontology/wikiPageDisambiguates
p7
asI3
(lp8
Vhttp://dbpedia.org/ontology/wikiPageDisambiguates
p9
asI4
(lp10
Vhttp://dbpedia.org/ontology/wikiPageDisambiguates
p11
asI5
(lp12
Vhttp://xmlns.com/foaf/0.1/primaryTopic
p13
aVhttp://www.w3.org/2000/01/rdf-schema#label
p14
aVhttp://dbpedia.org/ontology/wikiPageRedirects
p15
aVhttp://purl.org/voc/vrank#hasRank
p16
aVhttp://xmlns.com/foaf/0.1/isPrimaryTopicOf
p17
aVhttp://www.w3.org/ns/prov#wasDerivedFrom
p18
aVhttp://dbpedia.org/ontology/wikiPageDisambiguates
p19
aVhttp://www.w3.org/2002/07/owl#sameAs
p20
assI10
(dp21
I0
(lp22
sI2
(lp23
Vhttp://dbpedia.org/ontology/wikiPageDisambiguates
p24
asI3
(lp25
Vhttp://xmlns.com/foaf/0.1/primaryTopic
p26
aVhttp://www.w3.org/2000/01/rdf-schema#label
p27
aVhttp://dbpedia.org/ontology/wikiPageRedirects
p28
aVhttp://purl.org/voc/vrank#hasRank
p29
aVhttp://xmlns.com/foaf/0.1/isPrimaryTopicOf
p30
aVhttp://www.w3.org/ns/prov#wasDerivedFrom
p31
aVhttp://dbpedia.org/ontology/wikiPageDisambiguates
p32
aVhttp://www.w3.org/2002/07/owl#sameAs
p33
asI4
(lp34
Vhttp://xmlns.com/foaf/0.1/primaryTopic
p35
aVhttp://www.w3.org/2000/01/rdf-schema#label
p36
aVhttp://dbpedia.org/ontology/wikiPageRedirects
p37
aVhttp://purl.org/voc/vrank#hasRank
p38
aVhttp://xmlns.com/foaf/0.1/isPrimaryTopicOf
p39
aVhttp://www.w3.org/ns/prov#wasDerivedFrom
p40
aVhttp://dbpedia.org/ontology/wikiPageDisambiguates
p41
aVhttp://www.w3.org/2002/07/owl#sameAs
p42
asI5
(lp43
Vhttp://xmlns.com/foaf/0.1/primaryTopic
p44
aVhttp://www.w3.org/2000/01/rdf-schema#label
p45
aVhttp://dbpedia.org/ontology/wikiPageRedirects
p46
aVhttp://purl.org/voc/vrank#hasRank
p47
aVhttp://xmlns.com/foaf/0.1/isPrimaryTopicOf
p48
aVhttp://www.w3.org/ns/prov#wasDerivedFrom
p49
aVhttp://dbpedia.org/ontology/wikiPageDisambiguates
p50
aVhttp://www.w3.org/2002/07/owl#sameAs
p51
assI5
(dp52
I0
(lp53
sI2
(lp54
sI3
(lp55
sI4
(lp56
sI5
(lp57
ssI7
(dp58
I0
(lp59
sI2
(lp60
Vhttp://dbpedia.org/ontology/wikiPageDisambiguates
p61
asI3
(lp62
Vhttp://dbpedia.org/ontology/wikiPageDisambiguates
p63
asI4
(lp64
Vhttp://dbpedia.org/ontology/wikiPageDisambiguates
p65
asI5
(lp66
Vhttp://xmlns.com/foaf/0.1/primaryTopic
p67
aVhttp://www.w3.org/2000/01/rdf-schema#label
p68
aVhttp://dbpedia.org/ontology/wikiPageRedirects
p69
aVhttp://purl.org/voc/vrank#hasRank
p70
aVhttp://xmlns.com/foaf/0.1/isPrimaryTopicOf
p71
aVhttp://www.w3.org/ns/prov#wasDerivedFrom
p72
aVhttp://dbpedia.org/ontology/wikiPageDisambiguates
p73
aVhttp://www.w3.org/2002/07/owl#sameAs
p74
ass.