ccollections
defaultdict
p1
(c__builtin__
dict
p2
tRp3
I0
(dp4
I0
(lp5
Vhttp://dbpedia.org/property/origin
p6
aVhttp://dbpedia.org/property/placeOfDeath
p7
aVhttp://dbpedia.org/property/southrm
p8
aVhttp://dbpedia.org/ontology/type
p9
aVhttp://dbpedia.org/property/awardedBy
p10
aVhttp://dbpedia.org/property/broadcastArea
p11
aVhttp://dbpedia.org/property/rd1t6Loc
p12
aVhttp://dbpedia.org/property/locations
p13
aVhttp://dbpedia.org/property/represented
p14
aVhttp://dbpedia.org/property/city
p15
aVhttp://dbpedia.org/property/utcOffset
p16
aVhttp://dbpedia.org/property/hqLocationCountry
p17
aVhttp://dbpedia.org/property/winnerOrigin
p18
aVhttp://dbpedia.org/ontology/regionServed
p19
aVhttp://dbpedia.org/property/assembly
p20
aVhttp://dbpedia.org/property/image
p21
aVhttp://dbpedia.org/ontology/nationality
p22
aVhttp://dbpedia.org/property/placeOfBirth
p23
aVhttp://dbpedia.org/property/hometown
p24
aVhttp://dbpedia.org/property/establishedEvent
p25
aVhttp://dbpedia.org/property/asianPlaceF
p26
aVhttp://dbpedia.org/property/primaryUser
p27
aVhttp://dbpedia.org/property/nationality
p28
aVhttp://dbpedia.org/ontology/abstract
p29
aVhttp://dbpedia.org/ontology/recordedIn
p30
aVhttp://dbpedia.org/property/venue
p31
aVhttp://dbpedia.org/property/returns
p32
aVhttp://dbpedia.org/property/usedBy
p33
aVhttp://dbpedia.org/property/shipNamesake
p34
aVhttp://dbpedia.org/property/nationalOrigin
p35
aVhttp://www.georss.org/georss/point
p36
aVhttp://dbpedia.org/property/shipBuilder
p37
aVhttp://dbpedia.org/ontology/location
p38
aVhttp://dbpedia.org/ontology/PopulatedPlace/areaTotal
p39
aVhttp://dbpedia.org/property/countriesAffected
p40
aVhttp://dbpedia.org/property/resides
p41
aVhttp://dbpedia.org/property/factory
p42
aVhttp://dbpedia.org/property/area
p43
aVhttp://dbpedia.org/ontology/hometown
p44
aVhttp://dbpedia.org/property/launchSite
p45
aVhttp://dbpedia.org/property/foundingLocation
p46
aVhttp://dbpedia.org/property/rd4t1Loc
p47
aVhttp://www.w3.org/2000/01/rdf-schema#seeAlso
p48
aVhttp://dbpedia.org/ontology/countryWithFirstSatellite
p49
aVhttp://dbpedia.org/property/hostCity
p50
aVhttp://dbpedia.org/property/deathDate
p51
aVhttp://dbpedia.org/property/users
p52
aVhttp://dbpedia.org/ontology/foundationPlace
p53
aVhttp://dbpedia.org/property/countryOfOrigin
p54
aVhttp://dbpedia.org/property/birthplace
p55
aVhttp://dbpedia.org/property/base
p56
aVhttp://dbpedia.org/ontology/locatedInArea
p57
aVhttp://dbpedia.org/property/rd2t3Loc
p58
aVhttp://dbpedia.org/property/based
p59
aVhttp://dbpedia.org/ontology/fastestDriverCountry
p60
aVhttp://dbpedia.org/property/label
p61
aVhttp://dbpedia.org/ontology/country
p62
aVhttp://dbpedia.org/property/region
p63
aVhttp://dbpedia.org/property/home
p64
aVhttp://dbpedia.org/property/rd1t5Loc
p65
aVhttp://dbpedia.org/property/championshipPlace
p66
aVhttp://dbpedia.org/property/discoverySite
p67
aVhttp://dbpedia.org/property/birthPlace
p68
aVhttp://dbpedia.org/property/areaAffected
p69
aVhttp://dbpedia.org/property/recLocation
p70
aVhttp://dbpedia.org/property/debuts
p71
aVhttp://dbpedia.org/property/country
p72
aVhttp://dbpedia.org/ontology/billed
p73
aVhttp://dbpedia.org/property/areaServed
p74
aVhttp://dbpedia.org/property/areasAffected
p75
aVhttp://dbpedia.org/ontology/wikiPageExternalLink
p76
aVhttp://dbpedia.org/property/county
p77
aVhttp://dbpedia.org/property/runnersUp
p78
aVhttp://dbpedia.org/ontology/firstDriverCountry
p79
aVhttp://dbpedia.org/property/location
p80
aVhttp://dbpedia.org/property/states
p81
aVhttp://dbpedia.org/ontology/locationCountry
p82
aVhttp://dbpedia.org/ontology/deathPlace
p83
aVhttp://dbpedia.org/property/rd2t4Loc
p84
aVhttp://dbpedia.org/property/headquarters
p85
aVhttp://dbpedia.org/ontology/birthPlace
p86
aVhttp://dbpedia.org/ontology/wikiPageRedirects
p87
aVhttp://dbpedia.org/property/citizenship
p88
aVhttp://dbpedia.org/ontology/stateOfOrigin
p89
aVhttp://dbpedia.org/property/residence
p90
aVhttp://www.w3.org/2002/07/owl#sameAs
p91
aVhttp://dbpedia.org/property/areas
p92
aVhttp://dbpedia.org/property/recorded
p93
aVhttp://dbpedia.org/property/target
p94
aVhttp://dbpedia.org/ontology/origin
p95
aVhttp://dbpedia.org/property/worldPlace
p96
aVhttp://dbpedia.org/property/countryOrigin
p97
aVhttp://dbpedia.org/property/asianPlace
p98
aVhttp://www.w3.org/1999/02/22-rdf-syntax-ns#type
p99
aVhttp://dbpedia.org/property/locationCountry
p100
aVhttp://dbpedia.org/ontology/secondDriverCountry
p101
aVhttp://dbpedia.org/property/rd1t2Loc
p102
aVhttp://dbpedia.org/property/withdraws
p103
aVhttp://dbpedia.org/property/satServ
p104
aVhttp://dbpedia.org/property/femaleIndividualChampionTeam
p105
aVhttp://dbpedia.org/property/namedAfter
p106
aVhttp://dbpedia.org/property/shipCountry
p107
aVhttp://dbpedia.org/property/co
p108
aVhttp://dbpedia.org/property/l
p109
aVhttp://dbpedia.org/ontology/countryOrigin
p110
aVhttp://dbpedia.org/property/rd1t8Loc
p111
aVhttp://dbpedia.org/property/fightingOutOf
p112
aVhttp://dbpedia.org/property/executedBy
p113
aVhttp://dbpedia.org/ontology/city
p114
aVhttp://dbpedia.org/property/fullname
p115
aVhttp://dbpedia.org/ontology/routeStart
p116
aVhttp://dbpedia.org/property/subdivisionName
p117
aVhttp://dbpedia.org/property/result
p118
aVhttp://dbpedia.org/ontology/homeport
p119
aVhttp://dbpedia.org/property/rd1t3Loc
p120
aVhttp://dbpedia.org/property/hostcity
p121
aVhttp://dbpedia.org/property/gdpNominalRank
p122
aVhttp://dbpedia.org/property/destination
p123
aVhttp://dbpedia.org/property/locationCity
p124
aVhttp://dbpedia.org/property/nat
p125
aVhttp://dbpedia.org/property/gdpPppRank
p126
aVhttp://dbpedia.org/property/operators
p127
aVhttp://dbpedia.org/property/stadium
p128
aVhttp://dbpedia.org/ontology/countryWithFirstAstronaut
p129
aVhttp://dbpedia.org/property/ground
p130
aVhttp://dbpedia.org/property/place
p131
aVhttp://dbpedia.org/ontology/citizenship
p132
aVhttp://dbpedia.org/property/utcOffsetDst
p133
aVhttp://dbpedia.org/property/transCoverage
p134
aVhttp://dbpedia.org/property/caption
p135
aVhttp://dbpedia.org/ontology/thirdDriverCountry
p136
aVhttp://dbpedia.org/ontology/PopulatedPlace/populationDensity
p137
aVhttp://dbpedia.org/property/asianPlaceQ
p138
aVhttp://dbpedia.org/ontology/nearestCity
p139
aVhttp://dbpedia.org/property/allegiance
p140
aVhttp://dbpedia.org/property/site
p141
aVhttp://dbpedia.org/property/combatant
p142
aVhttp://dbpedia.org/ontology/place
p143
aVhttp://dbpedia.org/property/language
p144
aVhttp://dbpedia.org/property/rd1t4Loc
p145
aVhttp://dbpedia.org/property/nearestCity
p146
aVhttp://dbpedia.org/property/tv
p147
aVhttp://purl.org/dc/terms/subject
p148
aVhttp://dbpedia.org/property/rd2t2Loc
p149
aVhttp://dbpedia.org/ontology/countryWithFirstSatelliteLaunched
p150
aVhttp://dbpedia.org/property/deathPlace
p151
aVhttp://dbpedia.org/property/cityServed
p152
aVhttp://dbpedia.org/property/rd3t2Loc
p153
aVhttp://dbpedia.org/ontology/headquarter
p154
aVhttp://dbpedia.org/property/stopover
p155
aVhttp://dbpedia.org/property/foundation
p156
aVhttp://dbpedia.org/property/worldPlaceF
p157
aVhttp://dbpedia.org/ontology/language
p158
aVhttp://dbpedia.org/ontology/broadcastArea
p159
aVhttp://dbpedia.org/property/locale
p160
aVhttp://dbpedia.org/property/basinCountries
p161
aVhttp://dbpedia.org/property/setting
p162
aVhttp://dbpedia.org/ontology/assembly
p163
aVhttp://dbpedia.org/property/rd2t1Loc
p164
aVhttp://www.w3.org/2000/01/rdf-schema#comment
p165
aVhttp://dbpedia.org/ontology/locationCity
p166
aVhttp://dbpedia.org/ontology/releaseLocation
p167
aVhttp://dbpedia.org/property/olympicPlace
p168
aVhttp://dbpedia.org/property/rd1t1Loc
p169
aVhttp://dbpedia.org/property/rd3t1Loc
p170
aVhttp://dbpedia.org/property/south
p171
aVhttp://dbpedia.org/property/shipHomeport
p172
aVhttp://dbpedia.org/property/date
p173
aVhttp://dbpedia.org/ontology/premierePlace
p174
aVhttp://dbpedia.org/property/data
p175
asI2
(lp176
sI3
(lp177
ssI1
(dp178
I0
(lp179
Vhttp://dbpedia.org/property/color
p180
aVhttp://dbpedia.org/property/broadcastArea
p181
aVhttp://dbpedia.org/property/caption
p182
aVhttp://www.w3.org/ns/prov#wasDerivedFrom
p183
aVhttp://dbpedia.org/property/width
p184
aVhttp://dbpedia.org/ontology/regionServed
p185
aVhttp://dbpedia.org/ontology/country
p186
aVhttp://www.w3.org/1999/02/22-rdf-syntax-ns#type
p187
aVhttp://dbpedia.org/property/image
p188
aVhttp://dbpedia.org/property/country
p189
aVhttp://dbpedia.org/property/footer
p190
aVhttp://dbpedia.org/property/areaServed
p191
aVhttp://dbpedia.org/ontology/wikiPageExternalLink
p192
aVhttp://purl.org/dc/terms/subject
p193
aVhttp://dbpedia.org/ontology/publisher
p194
aVhttp://dbpedia.org/property/gdpNominalPerCapita
p195
aVhttp://dbpedia.org/ontology/abstract
p196
aVhttp://dbpedia.org/property/gdpPpp
p197
aVhttp://www.w3.org/2000/01/rdf-schema#comment
p198
aVhttp://dbpedia.org/ontology/wikiPageRedirects
p199
aVhttp://purl.org/voc/vrank#hasRank
p200
aVhttp://dbpedia.org/property/altFlag
p201
aVhttp://www.w3.org/2002/07/owl#sameAs
p202
asI2
(lp203
Vhttp://www.w3.org/2000/01/rdf-schema#seeAlso
p204
aVhttp://dbpedia.org/property/currency
p205
aVhttp://xmlns.com/foaf/0.1/primaryTopic
p206
aVhttp://dbpedia.org/ontology/wikiPageRedirects
p207
aVhttp://dbpedia.org/ontology/jurisdiction
p208
aVhttp://dbpedia.org/property/sovereigntyType
p209
aVhttp://www.w3.org/ns/prov#wasDerivedFrom
p210
aVhttp://dbpedia.org/property/caption
p211
aVhttp://dbpedia.org/property/territory
p212
aVhttp://www.w3.org/2002/07/owl#differentFrom
p213
aVhttp://dbpedia.org/property/footer
p214
aVhttp://dbpedia.org/ontology/country
p215
aVhttp://dbpedia.org/property/region
p216
aVhttp://www.w3.org/1999/02/22-rdf-syntax-ns#type
p217
aVhttp://dbpedia.org/property/copyright
p218
aVhttp://dbpedia.org/property/timeZone
p219
aVhttp://dbpedia.org/property/image
p220
aVhttp://xmlns.com/foaf/0.1/isPrimaryTopicOf
p221
aVhttp://dbpedia.org/property/owner
p222
aVhttp://dbpedia.org/property/imageFlag
p223
aVhttp://dbpedia.org/property/linkingName
p224
aVhttp://dbpedia.org/ontology/regionServed
p225
aVhttp://dbpedia.org/ontology/wikiPageDisambiguates
p226
aVhttp://dbpedia.org/property/areaServed
p227
aVhttp://dbpedia.org/ontology/wikiPageExternalLink
p228
aVhttp://dbpedia.org/property/mapCaption
p229
aVhttp://purl.org/dc/terms/subject
p230
aVhttp://dbpedia.org/property/officialWebsite
p231
aVhttp://dbpedia.org/property/free
p232
aVhttp://dbpedia.org/ontology/abstract
p233
aVhttp://xmlns.com/foaf/0.1/depiction
p234
aVhttp://dbpedia.org/property/location
p235
aVhttp://dbpedia.org/property/id
p236
aVhttp://dbpedia.org/property/observedby
p237
aVhttp://dbpedia.org/property/country
p238
aVhttp://dbpedia.org/property/author
p239
aVhttp://dbpedia.org/property/edition
p240
aVhttp://dbpedia.org/property/hasPhotoCollection
p241
aVhttp://www.w3.org/2000/01/rdf-schema#label
p242
aVhttp://dbpedia.org/property/title
p243
aVhttp://dbpedia.org/property/imageMap
p244
aVhttp://www.w3.org/2000/01/rdf-schema#comment
p245
aVhttp://dbpedia.org/property/data
p246
aVhttp://dbpedia.org/ontology/nonFictionSubject
p247
aVhttp://dbpedia.org/property/name
p248
aVhttp://dbpedia.org/property/founder
p249
aVhttp://dbpedia.org/property/parentOrganization
p250
aVhttp://dbpedia.org/ontology/owner
p251
aVhttp://dbpedia.org/property/timeZoneDst
p252
aVhttp://dbpedia.org/property/demonym
p253
aVhttp://dbpedia.org/property/regionServed
p254
aVhttp://dbpedia.org/property/jurisdiction
p255
aVhttp://dbpedia.org/property/leaderTitle
p256
aVhttp://www.w3.org/2002/07/owl#sameAs
p257
aVhttp://dbpedia.org/ontology/thumbnail
p258
asI3
(lp259
Vhttp://www.w3.org/2000/01/rdf-schema#seeAlso
p260
aVhttp://dbpedia.org/property/currency
p261
aVhttp://xmlns.com/foaf/0.1/primaryTopic
p262
aVhttp://dbpedia.org/ontology/wikiPageRedirects
p263
aVhttp://dbpedia.org/ontology/jurisdiction
p264
aVhttp://dbpedia.org/property/sovereigntyType
p265
aVhttp://www.w3.org/ns/prov#wasDerivedFrom
p266
aVhttp://dbpedia.org/property/caption
p267
aVhttp://dbpedia.org/property/territory
p268
aVhttp://www.w3.org/2002/07/owl#differentFrom
p269
aVhttp://dbpedia.org/property/footer
p270
aVhttp://dbpedia.org/ontology/country
p271
aVhttp://dbpedia.org/property/region
p272
aVhttp://www.w3.org/1999/02/22-rdf-syntax-ns#type
p273
aVhttp://dbpedia.org/property/copyright
p274
aVhttp://dbpedia.org/property/timeZone
p275
aVhttp://dbpedia.org/property/image
p276
aVhttp://xmlns.com/foaf/0.1/isPrimaryTopicOf
p277
aVhttp://dbpedia.org/property/owner
p278
aVhttp://dbpedia.org/property/imageFlag
p279
aVhttp://dbpedia.org/property/linkingName
p280
aVhttp://dbpedia.org/ontology/regionServed
p281
aVhttp://dbpedia.org/ontology/wikiPageDisambiguates
p282
aVhttp://dbpedia.org/property/areaServed
p283
aVhttp://dbpedia.org/ontology/wikiPageExternalLink
p284
aVhttp://dbpedia.org/property/mapCaption
p285
aVhttp://purl.org/dc/terms/subject
p286
aVhttp://dbpedia.org/property/officialWebsite
p287
aVhttp://dbpedia.org/property/free
p288
aVhttp://dbpedia.org/ontology/abstract
p289
aVhttp://xmlns.com/foaf/0.1/depiction
p290
aVhttp://dbpedia.org/property/location
p291
aVhttp://dbpedia.org/property/id
p292
aVhttp://dbpedia.org/property/observedby
p293
aVhttp://dbpedia.org/property/country
p294
aVhttp://dbpedia.org/property/author
p295
aVhttp://dbpedia.org/property/edition
p296
aVhttp://dbpedia.org/property/hasPhotoCollection
p297
aVhttp://www.w3.org/2000/01/rdf-schema#label
p298
aVhttp://dbpedia.org/property/title
p299
aVhttp://dbpedia.org/property/imageMap
p300
aVhttp://dbpedia.org/ontology/location
p301
aVhttp://www.w3.org/2000/01/rdf-schema#comment
p302
aVhttp://dbpedia.org/property/data
p303
aVhttp://dbpedia.org/ontology/nonFictionSubject
p304
aVhttp://dbpedia.org/property/name
p305
aVhttp://dbpedia.org/property/founder
p306
aVhttp://dbpedia.org/property/parentOrganization
p307
aVhttp://dbpedia.org/ontology/owner
p308
aVhttp://dbpedia.org/property/timeZoneDst
p309
aVhttp://dbpedia.org/property/demonym
p310
aVhttp://dbpedia.org/property/regionServed
p311
aVhttp://dbpedia.org/property/jurisdiction
p312
aVhttp://dbpedia.org/property/leaderTitle
p313
aVhttp://www.w3.org/2002/07/owl#sameAs
p314
aVhttp://dbpedia.org/ontology/thumbnail
p315
assI2
(dp316
I0
(lp317
Vhttp://dbpedia.org/property/origin
p318
aVhttp://dbpedia.org/property/placeOfDeath
p319
aVhttp://dbpedia.org/ontology/wikiPageRedirects
p320
aVhttp://dbpedia.org/property/recorded
p321
aVhttp://dbpedia.org/property/producer
p322
aVhttp://dbpedia.org/property/hostCity
p323
aVhttp://dbpedia.org/ontology/origin
p324
aVhttp://dbpedia.org/property/madein
p325
aVhttp://dbpedia.org/property/place
p326
aVhttp://dbpedia.org/ontology/foundationPlace
p327
aVhttp://dbpedia.org/ontology/PopulatedPlace/areaTotal
p328
aVhttp://dbpedia.org/ontology/garrison
p329
aVhttp://dbpedia.org/property/rd1t1Loc
p330
aVhttp://dbpedia.org/property/asianPlace
p331
aVhttp://dbpedia.org/property/rd1t4Loc
p332
aVhttp://dbpedia.org/ontology/locatedInArea
p333
aVhttp://dbpedia.org/ontology/PopulatedPlace/populationDensity
p334
aVhttp://dbpedia.org/ontology/format
p335
aVhttp://dbpedia.org/ontology/country
p336
aVhttp://dbpedia.org/property/region
p337
aVhttp://www.w3.org/1999/02/22-rdf-syntax-ns#type
p338
aVhttp://dbpedia.org/property/city
p339
aVhttp://dbpedia.org/property/gamesPlaceF
p340
aVhttp://purl.org/voc/vrank#hasRank
p341
aVhttp://dbpedia.org/property/locationCountry
p342
aVhttp://dbpedia.org/property/shipBuilder
p343
aVhttp://dbpedia.org/property/assembly
p344
aVhttp://dbpedia.org/property/birthPlace
p345
aVhttp://dbpedia.org/property/site
p346
aVhttp://dbpedia.org/property/withdraws
p347
aVhttp://dbpedia.org/property/rd2t2Loc
p348
aVhttp://dbpedia.org/ontology/deathPlace
p349
aVhttp://dbpedia.org/property/usedBy
p350
aVhttp://dbpedia.org/property/placeOfBirth
p351
aVhttp://dbpedia.org/property/returns
p352
aVhttp://dbpedia.org/property/twin1Country
p353
aVhttp://dbpedia.org/property/country
p354
aVhttp://dbpedia.org/property/shipCountry
p355
aVhttp://dbpedia.org/ontology/sales
p356
aVhttp://dbpedia.org/property/areasAffected
p357
aVhttp://dbpedia.org/property/worldPlace
p358
aVhttp://dbpedia.org/property/regionalScenes
p359
aVhttp://dbpedia.org/property/areas
p360
aVhttp://dbpedia.org/property/asianPlaceQ
p361
aVhttp://dbpedia.org/property/gamesPlaceQ
p362
aVhttp://dbpedia.org/property/gdpNominalPerCapita
p363
aVhttp://dbpedia.org/ontology/abstract
p364
aVhttp://dbpedia.org/ontology/recordedIn
p365
aVhttp://dbpedia.org/property/venue
p366
aVhttp://dbpedia.org/property/deathPlace
p367
aVhttp://dbpedia.org/property/worldPlaceQ
p368
aVhttp://dbpedia.org/property/location
p369
aVhttp://dbpedia.org/property/cityServed
p370
aVhttp://dbpedia.org/property/gdpPppPerCapita
p371
aVhttp://dbpedia.org/ontology/builder
p372
aVhttp://dbpedia.org/ontology/thumbnail
p373
aVhttp://dbpedia.org/property/rd2t1Loc
p374
aVhttp://dbpedia.org/ontology/city
p375
aVhttp://dbpedia.org/property/hasPhotoCollection
p376
aVhttp://dbpedia.org/ontology/releaseLocation
p377
aVhttp://dbpedia.org/property/nationalOrigin
p378
aVhttp://dbpedia.org/property/title
p379
aVhttp://dbpedia.org/ontology/homeport
p380
aVhttp://dbpedia.org/property/states
p381
aVhttp://www.georss.org/georss/point
p382
aVhttp://dbpedia.org/ontology/assembly
p383
aVhttp://dbpedia.org/ontology/location
p384
aVhttp://dbpedia.org/property/worldPlaceF
p385
aVhttp://www.w3.org/2000/01/rdf-schema#comment
p386
aVhttp://dbpedia.org/ontology/birthPlace
p387
aVhttp://dbpedia.org/property/countriesAffected
p388
aVhttp://dbpedia.org/property/1rpt1Loc
p389
aVhttp://dbpedia.org/ontology/locationCountry
p390
aVhttp://dbpedia.org/property/olympicPlace
p391
aVhttp://dbpedia.org/property/gamesPlace
p392
aVhttp://dbpedia.org/ontology/hometown
p393
aVhttp://dbpedia.org/property/locationCity
p394
aVhttp://dbpedia.org/property/stadium
p395
aVhttp://dbpedia.org/property/host
p396
aVhttp://dbpedia.org/property/garrison
p397
aVhttp://dbpedia.org/ontology/locationCity
p398
aVhttp://www.w3.org/2002/07/owl#sameAs
p399
aVhttp://dbpedia.org/property/gdpNominalRank
p400
asI2
(lp401
sI3
(lp402
Vhttp://dbpedia.org/property/placeOfDeath
p403
aVhttp://dbpedia.org/property/currency
p404
aVhttp://dbpedia.org/ontology/currency
p405
aVhttp://dbpedia.org/ontology/birthPlace
p406
aVhttp://dbpedia.org/property/deathPlace
p407
aVhttp://dbpedia.org/ontology/usingCountry
p408
aVhttp://dbpedia.org/property/location
p409
aVhttp://dbpedia.org/ontology/nationality
p410
aVhttp://dbpedia.org/property/birthPlace
p411
aVhttp://dbpedia.org/ontology/deathPlace
p412
aVhttp://dbpedia.org/property/nationality
p413
aVhttp://dbpedia.org/property/country
p414
aVhttp://dbpedia.org/property/placeOfBirth
p415
assI3
(dp416
I0
(lp417
Vhttp://www.w3.org/2000/01/rdf-schema#seeAlso
p418
aVhttp://dbpedia.org/property/origin
p419
aVhttp://dbpedia.org/property/stadium
p420
aVhttp://dbpedia.org/property/restingplace
p421
aVhttp://dbpedia.org/property/shipRegistry
p422
aVhttp://dbpedia.org/property/hostCity
p423
aVhttp://dbpedia.org/ontology/origin
p424
aVhttp://dbpedia.org/property/place
p425
aVhttp://dbpedia.org/property/locations
p426
aVhttp://dbpedia.org/property/territorialExtent
p427
aVhttp://dbpedia.org/ontology/PopulatedPlace/areaTotal
p428
aVhttp://dbpedia.org/property/residence
p429
aVhttp://dbpedia.org/ontology/garrison
p430
aVhttp://dbpedia.org/property/placeOfDeath
p431
aVhttp://dbpedia.org/property/asianPlace
p432
aVhttp://www.w3.org/ns/prov#wasDerivedFrom
p433
aVhttp://dbpedia.org/ontology/fastestDriverCountry
p434
aVhttp://dbpedia.org/ontology/thirdDriverCountry
p435
aVhttp://dbpedia.org/ontology/PopulatedPlace/populationDensity
p436
aVhttp://dbpedia.org/ontology/regionServed
p437
aVhttp://dbpedia.org/ontology/country
p438
aVhttp://www.w3.org/1999/02/22-rdf-syntax-ns#type
p439
aVhttp://dbpedia.org/ontology/hometown
p440
aVhttp://dbpedia.org/ontology/locationCountry
p441
aVhttp://dbpedia.org/property/locationCountry
p442
aVhttp://dbpedia.org/ontology/secondDriverCountry
p443
aVhttp://dbpedia.org/property/assembly
p444
aVhttp://dbpedia.org/property/allegiance
p445
aVhttp://dbpedia.org/property/site
p446
aVhttp://dbpedia.org/property/venue
p447
aVhttp://dbpedia.org/ontology/nationality
p448
aVhttp://dbpedia.org/property/birthPlace
p449
aVhttp://dbpedia.org/property/headquarters
p450
aVhttp://dbpedia.org/property/nationalOrigin
p451
aVhttp://dbpedia.org/property/gdpNominalPerCapita
p452
aVhttp://dbpedia.org/property/country
p453
aVhttp://dbpedia.org/property/byCountry
p454
aVhttp://dbpedia.org/property/shipCountry
p455
aVhttp://dbpedia.org/property/l
p456
aVhttp://dbpedia.org/property/areaServed
p457
aVhttp://dbpedia.org/property/gdpNominal
p458
aVhttp://dbpedia.org/ontology/countryOrigin
p459
aVhttp://dbpedia.org/ontology/abstract
p460
aVhttp://dbpedia.org/ontology/recordedIn
p461
aVhttp://dbpedia.org/ontology/firstDriverCountry
p462
aVhttp://dbpedia.org/property/deathPlace
p463
aVhttp://dbpedia.org/property/location
p464
aVhttp://dbpedia.org/property/fightingOutOf
p465
aVhttp://dbpedia.org/property/gdpPppPerCapita
p466
aVhttp://dbpedia.org/ontology/builder
p467
aVhttp://dbpedia.org/ontology/deathPlace
p468
aVhttp://dbpedia.org/property/nationality
p469
aVhttp://dbpedia.org/property/gdpPpp
p470
aVhttp://dbpedia.org/property/moreUsers
p471
aVhttp://dbpedia.org/property/builder
p472
aVhttp://dbpedia.org/property/worldPlace
p473
aVhttp://dbpedia.org/ontology/language
p474
aVhttp://dbpedia.org/ontology/broadcastArea
p475
aVhttp://dbpedia.org/property/locationSigned
p476
aVhttp://dbpedia.org/property/countriesAffected
p477
aVhttp://dbpedia.org/property/garrison
p478
aVhttp://dbpedia.org/ontology/assembly
p479
aVhttp://dbpedia.org/ontology/location
p480
aVhttp://dbpedia.org/ontology/residence
p481
aVhttp://www.w3.org/2000/01/rdf-schema#comment
p482
aVhttp://dbpedia.org/ontology/birthPlace
p483
aVhttp://dbpedia.org/property/countries
p484
aVhttp://dbpedia.org/ontology/citizenship
p485
aVhttp://dbpedia.org/property/placeOfBirth
p486
aVhttp://dbpedia.org/property/area
p487
aVhttp://dbpedia.org/property/shipBuilder
p488
aVhttp://purl.org/voc/vrank#hasRank
p489
aVhttp://dbpedia.org/ontology/restingPlace
p490
aVhttp://dbpedia.org/property/citizenship
p491
aVhttp://dbpedia.org/ontology/stateOfOrigin
p492
aVhttp://dbpedia.org/property/countryOrigin
p493
aVhttp://www.w3.org/2002/07/owl#sameAs
p494
asI2
(lp495
sI3
(lp496
Vhttp://dbpedia.org/property/currencyCode
p497
assI4
(dp498
I0
(lp499
Vhttp://www.w3.org/2000/01/rdf-schema#seeAlso
p500
aVhttp://dbpedia.org/property/origin
p501
aVhttp://dbpedia.org/property/awardedBy
p502
aVhttp://dbpedia.org/property/place
p503
aVhttp://dbpedia.org/property/worldPlace
p504
aVhttp://dbpedia.org/ontology/garrison
p505
aVhttp://dbpedia.org/property/city
p506
aVhttp://dbpedia.org/property/birthplace
p507
aVhttp://dbpedia.org/property/populationEstimateRank
p508
aVhttp://dbpedia.org/property/utcOffsetDst
p509
aVhttp://dbpedia.org/property/placeOfDeath
p510
aVhttp://dbpedia.org/property/asianPlace
p511
aVhttp://www.w3.org/ns/prov#wasDerivedFrom
p512
aVhttp://dbpedia.org/ontology/fastestDriverCountry
p513
aVhttp://dbpedia.org/property/rd2t3Loc
p514
aVhttp://dbpedia.org/property/utcOffset
p515
aVhttp://dbpedia.org/property/team
p516
aVhttp://dbpedia.org/ontology/country
p517
aVhttp://dbpedia.org/property/region
p518
aVhttp://dbpedia.org/ontology/countryWithFirstSpaceflight
p519
aVhttp://dbpedia.org/property/youthclubs
p520
aVhttp://purl.org/voc/vrank#hasRank
p521
aVhttp://dbpedia.org/property/home
p522
aVhttp://dbpedia.org/ontology/secondDriverCountry
p523
aVhttp://dbpedia.org/property/assembly
p524
aVhttp://dbpedia.org/property/rd1t2Loc
p525
aVhttp://dbpedia.org/property/withdraws
p526
aVhttp://dbpedia.org/property/birthPlace
p527
aVhttp://dbpedia.org/property/usedBy
p528
aVhttp://dbpedia.org/property/placeOfBirth
p529
aVhttp://dbpedia.org/property/asianPlaceF
p530
aVhttp://dbpedia.org/property/returns
p531
aVhttp://dbpedia.org/property/country
p532
aVhttp://dbpedia.org/property/shipCountry
p533
aVhttp://dbpedia.org/property/l
p534
aVhttp://dbpedia.org/property/siteCityst
p535
aVhttp://dbpedia.org/property/rd2t1Loc
p536
aVhttp://dbpedia.org/property/rd2t2Loc
p537
aVhttp://dbpedia.org/property/gamesPlace
p538
aVhttp://dbpedia.org/ontology/abstract
p539
aVhttp://dbpedia.org/property/venue
p540
aVhttp://dbpedia.org/property/deathPlace
p541
aVhttp://dbpedia.org/property/location
p542
aVhttp://www.w3.org/1999/02/22-rdf-syntax-ns#type
p543
aVhttp://dbpedia.org/ontology/deathPlace
p544
aVhttp://dbpedia.org/property/hometown
p545
aVhttp://dbpedia.org/ontology/city
p546
aVhttp://dbpedia.org/property/hasPhotoCollection
p547
aVhttp://dbpedia.org/property/debuts
p548
aVhttp://dbpedia.org/property/nationalOrigin
p549
aVhttp://dbpedia.org/ontology/broadcastArea
p550
aVhttp://dbpedia.org/property/locale
p551
aVhttp://dbpedia.org/property/rd1t3Loc
p552
aVhttp://www.georss.org/georss/point
p553
aVhttp://dbpedia.org/ontology/assembly
p554
aVhttp://dbpedia.org/ontology/location
p555
aVhttp://www.w3.org/2000/01/rdf-schema#comment
p556
aVhttp://dbpedia.org/ontology/birthPlace
p557
aVhttp://dbpedia.org/property/countriesAffected
p558
aVhttp://dbpedia.org/property/olympicPlace
p559
aVhttp://dbpedia.org/property/area
p560
aVhttp://dbpedia.org/property/rd1t1Loc
p561
aVhttp://dbpedia.org/ontology/hometown
p562
aVhttp://dbpedia.org/ontology/poleDriverCountry
p563
aVhttp://dbpedia.org/property/stadium
p564
aVhttp://dbpedia.org/property/garrison
p565
aVhttp://www.w3.org/2002/07/owl#sameAs
p566
asI2
(lp567
sI3
(lp568
ssI5
(dp569
I0
(lp570
Vhttp://dbpedia.org/property/origin
p571
aVhttp://dbpedia.org/property/placeOfDeath
p572
aVhttp://dbpedia.org/ontology/origin
p573
aVhttp://dbpedia.org/property/worldPlace
p574
aVhttp://www.w3.org/ns/prov#wasDerivedFrom
p575
aVhttp://dbpedia.org/property/width
p576
aVhttp://dbpedia.org/property/rd2t3Loc
p577
aVhttp://dbpedia.org/ontology/PopulatedPlace/populationDensity
p578
aVhttp://dbpedia.org/property/rd1t4Loc
p579
aVhttp://dbpedia.org/ontology/country
p580
aVhttp://dbpedia.org/property/returns
p581
aVhttp://www.w3.org/1999/02/22-rdf-syntax-ns#type
p582
aVhttp://dbpedia.org/property/locationCountry
p583
aVhttp://dbpedia.org/property/rd1t2Loc
p584
aVhttp://dbpedia.org/property/countryOfProduction
p585
aVhttp://dbpedia.org/property/withdraws
p586
aVhttp://dbpedia.org/property/birthPlace
p587
aVhttp://dbpedia.org/ontology/place
p588
aVhttp://dbpedia.org/property/placeOfBirth
p589
aVhttp://dbpedia.org/property/country
p590
aVhttp://dbpedia.org/property/countries
p591
aVhttp://dbpedia.org/property/gdpNominal
p592
aVhttp://dbpedia.org/ontology/wikiPageExternalLink
p593
aVhttp://dbpedia.org/property/nationality
p594
aVhttp://dbpedia.org/ontology/abstract
p595
aVhttp://dbpedia.org/ontology/recordedIn
p596
aVhttp://dbpedia.org/property/venue
p597
aVhttp://dbpedia.org/property/deathPlace
p598
aVhttp://dbpedia.org/property/location
p599
aVhttp://dbpedia.org/ontology/deathPlace
p600
aVhttp://dbpedia.org/property/usedBy
p601
aVhttp://dbpedia.org/property/debuts
p602
aVhttp://dbpedia.org/property/subdivisionName
p603
aVhttp://dbpedia.org/property/locale
p604
aVhttp://dbpedia.org/property/countriesAffected
p605
aVhttp://www.georss.org/georss/point
p606
aVhttp://dbpedia.org/ontology/location
p607
aVhttp://www.w3.org/2000/01/rdf-schema#comment
p608
aVhttp://dbpedia.org/ontology/birthPlace
p609
aVhttp://dbpedia.org/property/address
p610
aVhttp://dbpedia.org/ontology/wikiPageRedirects
p611
aVhttp://dbpedia.org/property/rd1t3Loc
p612
aVhttp://purl.org/voc/vrank#hasRank
p613
aVhttp://dbpedia.org/property/twin2Country
p614
aVhttp://dbpedia.org/property/stadium
p615
aVhttp://dbpedia.org/property/host
p616
aVhttp://dbpedia.org/property/asianPlace
p617
aVhttp://www.w3.org/2002/07/owl#sameAs
p618
asI2
(lp619
sI3
(lp620
ssI6
(dp621
I0
(lp622
Vhttp://www.w3.org/2000/01/rdf-schema#seeAlso
p623
aVhttp://dbpedia.org/property/origin
p624
aVhttp://dbpedia.org/ontology/wikiPageRedirects
p625
aVhttp://dbpedia.org/property/hostCity
p626
aVhttp://dbpedia.org/ontology/origin
p627
aVhttp://dbpedia.org/property/nearestTown
p628
aVhttp://dbpedia.org/property/place
p629
aVhttp://dbpedia.org/ontology/foundationPlace
p630
aVhttp://dbpedia.org/ontology/PopulatedPlace/areaTotal
p631
aVhttp://dbpedia.org/property/usedBy
p632
aVhttp://dbpedia.org/property/utcOffsetDst
p633
aVhttp://dbpedia.org/property/mouthCountry
p634
aVhttp://dbpedia.org/property/placeOfDeath
p635
aVhttp://www.w3.org/ns/prov#wasDerivedFrom
p636
aVhttp://dbpedia.org/ontology/PopulatedPlace/populationDensity
p637
aVhttp://dbpedia.org/ontology/country
p638
aVhttp://dbpedia.org/property/returns
p639
aVhttp://www.w3.org/1999/02/22-rdf-syntax-ns#type
p640
aVhttp://dbpedia.org/property/city
p641
aVhttp://dbpedia.org/property/locationCountry
p642
aVhttp://dbpedia.org/property/assembly
p643
aVhttp://dbpedia.org/property/locations
p644
aVhttp://dbpedia.org/property/rd1t2Loc
p645
aVhttp://dbpedia.org/ontology/nationality
p646
aVhttp://dbpedia.org/property/birthPlace
p647
aVhttp://dbpedia.org/ontology/place
p648
aVhttp://dbpedia.org/property/placeOfBirth
p649
aVhttp://dbpedia.org/property/nationality
p650
aVhttp://dbpedia.org/property/country
p651
aVhttp://dbpedia.org/property/shipCountry
p652
aVhttp://dbpedia.org/property/meetingPlace
p653
aVhttp://dbpedia.org/property/regionalLanguages
p654
aVhttp://dbpedia.org/property/siteCityst
p655
aVhttp://purl.org/dc/terms/subject
p656
aVhttp://dbpedia.org/property/rd2t1Loc
p657
aVhttp://dbpedia.org/property/gdpNominalPerCapita
p658
aVhttp://dbpedia.org/ontology/abstract
p659
aVhttp://dbpedia.org/property/venue
p660
aVhttp://dbpedia.org/property/deathPlace
p661
aVhttp://dbpedia.org/property/location
p662
aVhttp://dbpedia.org/property/states
p663
aVhttp://dbpedia.org/ontology/locationCountry
p664
aVhttp://dbpedia.org/ontology/sportCountry
p665
aVhttp://dbpedia.org/ontology/deathPlace
p666
aVhttp://dbpedia.org/property/sourceCountry
p667
aVhttp://dbpedia.org/property/gdpPpp
p668
aVhttp://dbpedia.org/property/foundation
p669
aVhttp://dbpedia.org/property/builder
p670
aVhttp://dbpedia.org/property/worldPlace
p671
aVhttp://dbpedia.org/property/subdivisionName
p672
aVhttp://dbpedia.org/property/nationalOrigin
p673
aVhttp://dbpedia.org/property/shipRegistry
p674
aVhttp://dbpedia.org/property/basinCountries
p675
aVhttp://dbpedia.org/property/rd1t3Loc
p676
aVhttp://www.georss.org/georss/point
p677
aVhttp://dbpedia.org/ontology/assembly
p678
aVhttp://dbpedia.org/ontology/location
p679
aVhttp://www.w3.org/2000/01/rdf-schema#comment
p680
aVhttp://dbpedia.org/ontology/birthPlace
p681
aVhttp://dbpedia.org/property/countriesAffected
p682
aVhttp://dbpedia.org/ontology/builder
p683
aVhttp://dbpedia.org/ontology/hometown
p684
aVhttp://dbpedia.org/property/officelocation
p685
aVhttp://dbpedia.org/property/stadium
p686
aVhttp://dbpedia.org/property/debuts
p687
aVhttp://dbpedia.org/property/residence
p688
aVhttp://www.w3.org/2002/07/owl#sameAs
p689
aVhttp://dbpedia.org/property/areas
p690
asI2
(lp691
sI3
(lp692
ssI7
(dp693
I0
(lp694
Vhttp://dbpedia.org/property/cities
p695
aVhttp://dbpedia.org/property/broadcastArea
p696
aVhttp://dbpedia.org/property/place
p697
aVhttp://dbpedia.org/ontology/foundationPlace
p698
aVhttp://dbpedia.org/property/city
p699
aVhttp://dbpedia.org/property/utcOffsetDst
p700
aVhttp://www.w3.org/ns/prov#wasDerivedFrom
p701
aVhttp://dbpedia.org/property/utcOffset
p702
aVhttp://dbpedia.org/ontology/regionServed
p703
aVhttp://dbpedia.org/ontology/country
p704
aVhttp://dbpedia.org/property/returns
p705
aVhttp://www.w3.org/1999/02/22-rdf-syntax-ns#type
p706
aVhttp://dbpedia.org/property/firstRun
p707
aVhttp://dbpedia.org/property/available
p708
aVhttp://dbpedia.org/property/c
p709
aVhttp://dbpedia.org/ontology/place
p710
aVhttp://dbpedia.org/property/country
p711
aVhttp://dbpedia.org/property/team
p712
aVhttp://dbpedia.org/property/areaServed
p713
aVhttp://dbpedia.org/ontology/wikiPageExternalLink
p714
aVhttp://dbpedia.org/property/shipRoute
p715
aVhttp://dbpedia.org/property/rd0t1Loc
p716
aVhttp://purl.org/dc/terms/subject
p717
aVhttp://dbpedia.org/ontology/abstract
p718
aVhttp://dbpedia.org/property/venue
p719
aVhttp://dbpedia.org/property/location
p720
aVhttp://dbpedia.org/ontology/builder
p721
aVhttp://dbpedia.org/property/shipBuilder
p722
aVhttp://dbpedia.org/property/shipNamesake
p723
aVhttp://dbpedia.org/property/headquarters
p724
aVhttp://dbpedia.org/ontology/homeport
p725
aVhttp://www.georss.org/georss/point
p726
aVhttp://dbpedia.org/property/residence
p727
aVhttp://dbpedia.org/ontology/location
p728
aVhttp://www.w3.org/2000/01/rdf-schema#comment
p729
aVhttp://dbpedia.org/property/address
p730
aVhttp://dbpedia.org/ontology/wikiPageRedirects
p731
aVhttp://dbpedia.org/property/withdraws
p732
aVhttp://purl.org/voc/vrank#hasRank
p733
aVhttp://dbpedia.org/property/locationCity
p734
aVhttp://dbpedia.org/property/stadium
p735
aVhttp://dbpedia.org/property/debuts
p736
aVhttp://dbpedia.org/property/asianPlace
p737
aVhttp://dbpedia.org/ontology/locationCity
p738
aVhttp://www.w3.org/2002/07/owl#sameAs
p739
aVhttp://dbpedia.org/property/areas
p740
asI2
(lp741
Vhttp://dbpedia.org/ontology/abstract
p742
asI3
(lp743
ssI8
(dp744
I0
(lp745
Vhttp://dbpedia.org/property/origin
p746
aVhttp://dbpedia.org/property/placeOfDeath
p747
aVhttp://dbpedia.org/property/broadcastArea
p748
aVhttp://dbpedia.org/ontology/PopulatedPlace/areaTotal
p749
aVhttp://www.w3.org/ns/prov#wasDerivedFrom
p750
aVhttp://dbpedia.org/property/rd3t4Loc
p751
aVhttp://dbpedia.org/property/assembly
p752
aVhttp://dbpedia.org/ontology/nationality
p753
aVhttp://dbpedia.org/property/shortDescription
p754
aVhttp://dbpedia.org/property/placeOfBirth
p755
aVhttp://dbpedia.org/property/hometown
p756
aVhttp://dbpedia.org/property/nationality
p757
aVhttp://dbpedia.org/ontology/abstract
p758
aVhttp://dbpedia.org/ontology/recordedIn
p759
aVhttp://dbpedia.org/property/venue
p760
aVhttp://dbpedia.org/property/usedBy
p761
aVhttp://dbpedia.org/property/nationalOrigin
p762
aVhttp://www.georss.org/georss/point
p763
aVhttp://dbpedia.org/property/shipBuilder
p764
aVhttp://dbpedia.org/ontology/location
p765
aVhttp://dbpedia.org/property/city
p766
aVhttp://dbpedia.org/ontology/hometown
p767
aVhttp://dbpedia.org/property/rd4t2Loc
p768
aVhttp://dbpedia.org/property/jurisdiction
p769
aVhttp://dbpedia.org/property/rd4t1Loc
p770
aVhttp://www.w3.org/2000/01/rdf-schema#seeAlso
p771
aVhttp://dbpedia.org/property/rd2t6Loc
p772
aVhttp://dbpedia.org/ontology/countryWithFirstSatellite
p773
aVhttp://dbpedia.org/property/hostCity
p774
aVhttp://dbpedia.org/property/deathDate
p775
aVhttp://dbpedia.org/property/birthplace
p776
aVhttp://dbpedia.org/ontology/poleDriverCountry
p777
aVhttp://dbpedia.org/property/rd2t3Loc
p778
aVhttp://dbpedia.org/property/label
p779
aVhttp://dbpedia.org/ontology/country
p780
aVhttp://dbpedia.org/property/returns
p781
aVhttp://dbpedia.org/property/rd2t5Loc
p782
aVhttp://dbpedia.org/property/home
p783
aVhttp://dbpedia.org/property/rd1t5Loc
p784
aVhttp://dbpedia.org/property/birthPlace
p785
aVhttp://dbpedia.org/property/country
p786
aVhttp://dbpedia.org/ontology/wikiPageExternalLink
p787
aVhttp://dbpedia.org/property/location
p788
aVhttp://dbpedia.org/ontology/builder
p789
aVhttp://dbpedia.org/ontology/deathPlace
p790
aVhttp://dbpedia.org/property/rd2t4Loc
p791
aVhttp://dbpedia.org/property/headquarters
p792
aVhttp://dbpedia.org/ontology/birthPlace
p793
aVhttp://dbpedia.org/property/rd2t8Loc
p794
aVhttp://dbpedia.org/property/citizenship
p795
aVhttp://dbpedia.org/property/gold
p796
aVhttp://dbpedia.org/property/asianPlace
p797
aVhttp://www.w3.org/2002/07/owl#sameAs
p798
aVhttp://dbpedia.org/property/recorded
p799
aVhttp://dbpedia.org/ontology/origin
p800
aVhttp://dbpedia.org/property/worldPlace
p801
aVhttp://dbpedia.org/property/residence
p802
aVhttp://dbpedia.org/property/cityOrRegion
p803
aVhttp://www.w3.org/1999/02/22-rdf-syntax-ns#type
p804
aVhttp://dbpedia.org/property/affected
p805
aVhttp://dbpedia.org/property/birthDate
p806
aVhttp://dbpedia.org/property/rd3t3Loc
p807
aVhttp://dbpedia.org/property/locationCountry
p808
aVhttp://dbpedia.org/ontology/secondDriverCountry
p809
aVhttp://dbpedia.org/property/rd1t2Loc
p810
aVhttp://dbpedia.org/ontology/ground
p811
aVhttp://dbpedia.org/property/withdraws
p812
aVhttp://dbpedia.org/property/namedAfter
p813
aVhttp://dbpedia.org/property/shipCountry
p814
aVhttp://dbpedia.org/property/rd1t8Loc
p815
aVhttp://dbpedia.org/property/fightingOutOf
p816
aVhttp://dbpedia.org/property/rd2t7Loc
p817
aVhttp://dbpedia.org/ontology/city
p818
aVhttp://dbpedia.org/property/subdivisionName
p819
aVhttp://dbpedia.org/ontology/homeport
p820
aVhttp://dbpedia.org/property/rd1t3Loc
p821
aVhttp://dbpedia.org/property/rd5t1Loc
p822
aVhttp://dbpedia.org/property/stadium
p823
aVhttp://dbpedia.org/property/ground
p824
aVhttp://dbpedia.org/property/place
p825
aVhttp://dbpedia.org/property/debuts
p826
aVhttp://dbpedia.org/ontology/thirdDriverCountry
p827
aVhttp://dbpedia.org/ontology/PopulatedPlace/populationDensity
p828
aVhttp://dbpedia.org/property/footnoteG
p829
aVhttp://dbpedia.org/property/allegiance
p830
aVhttp://dbpedia.org/ontology/place
p831
aVhttp://dbpedia.org/property/rd2t2Loc
p832
aVhttp://dbpedia.org/property/deathPlace
p833
aVhttp://dbpedia.org/property/rd3t2Loc
p834
aVhttp://dbpedia.org/property/rd1t6Loc
p835
aVhttp://dbpedia.org/ontology/language
p836
aVhttp://dbpedia.org/property/locale
p837
aVhttp://dbpedia.org/property/basinCountries
p838
aVhttp://dbpedia.org/ontology/assembly
p839
aVhttp://dbpedia.org/property/rd2t1Loc
p840
aVhttp://www.w3.org/2000/01/rdf-schema#comment
p841
aVhttp://dbpedia.org/ontology/releaseLocation
p842
aVhttp://dbpedia.org/property/olympicPlace
p843
aVhttp://dbpedia.org/property/rd1t1Loc
p844
aVhttp://dbpedia.org/property/rd3t1Loc
p845
aVhttp://dbpedia.org/property/shipHomeport
p846
asI2
(lp847
sI3
(lp848
ssI9
(dp849
I0
(lp850
Vhttp://www.w3.org/2000/01/rdf-schema#seeAlso
p851
aVhttp://dbpedia.org/ontology/country
p852
aVhttp://www.w3.org/1999/02/22-rdf-syntax-ns#type
p853
aVhttp://dbpedia.org/ontology/assembly
p854
aVhttp://dbpedia.org/ontology/location
p855
aVhttp://www.w3.org/2000/01/rdf-schema#comment
p856
aVhttp://dbpedia.org/ontology/abstract
p857
aVhttp://dbpedia.org/property/nations
p858
aVhttp://dbpedia.org/property/venue
p859
aVhttp://dbpedia.org/property/location
p860
aVhttp://dbpedia.org/property/area
p861
aVhttp://dbpedia.org/property/withdraws
p862
aVhttp://dbpedia.org/property/city
p863
aVhttp://dbpedia.org/property/debuts
p864
aVhttp://dbpedia.org/property/title
p865
aVhttp://dbpedia.org/property/country
p866
aVhttp://dbpedia.org/ontology/city
p867
aVhttp://dbpedia.org/property/shipNamesake
p868
aVhttp://dbpedia.org/ontology/locationCity
p869
aVhttp://dbpedia.org/property/areaServed
p870
aVhttp://dbpedia.org/ontology/regionServed
p871
asI2
(lp872
sI3
(lp873
ssI10
(dp874
I0
(lp875
Vhttp://dbpedia.org/property/origin
p876
aVhttp://dbpedia.org/ontology/country
p877
aVhttp://dbpedia.org/property/returns
p878
aVhttp://dbpedia.org/ontology/location
p879
aVhttp://www.w3.org/2000/01/rdf-schema#comment
p880
aVhttp://dbpedia.org/ontology/abstract
p881
aVhttp://dbpedia.org/property/gamesPlace
p882
aVhttp://dbpedia.org/property/location
p883
aVhttp://dbpedia.org/property/worldPlace
p884
aVhttp://dbpedia.org/property/rd1t1Loc
p885
aVhttp://dbpedia.org/property/rd3t1Loc
p886
aVhttp://dbpedia.org/property/country
p887
aVhttp://www.w3.org/ns/prov#wasDerivedFrom
p888
aVhttp://dbpedia.org/ontology/city
p889
aVhttp://dbpedia.org/property/rd2t1Loc
p890
aVhttp://www.w3.org/2002/07/owl#sameAs
p891
aVhttp://dbpedia.org/property/areasAffected
p892
asI2
(lp893
sI3
(lp894
Vhttp://www.w3.org/2000/01/rdf-schema#seeAlso
p895
aVhttp://dbpedia.org/property/origin
p896
aVhttp://dbpedia.org/ontology/currency
p897
aVhttp://dbpedia.org/property/areas
p898
aVhttp://dbpedia.org/property/residence
p899
aVhttp://dbpedia.org/property/placeOfDeath
p900
aVhttp://dbpedia.org/ontology/locatedInArea
p901
aVhttp://dbpedia.org/ontology/regionServed
p902
aVhttp://dbpedia.org/ontology/country
p903
aVhttp://dbpedia.org/property/usingCountries
p904
aVhttp://dbpedia.org/property/locationCountry
p905
aVhttp://dbpedia.org/property/allegiance
p906
aVhttp://dbpedia.org/ontology/nationality
p907
aVhttp://dbpedia.org/property/birthPlace
p908
aVhttp://dbpedia.org/ontology/place
p909
aVhttp://dbpedia.org/property/placeOfBirth
p910
aVhttp://dbpedia.org/property/nationality
p911
aVhttp://dbpedia.org/property/country
p912
aVhttp://dbpedia.org/property/areaServed
p913
aVhttp://dbpedia.org/ontology/residence
p914
aVhttp://dbpedia.org/ontology/abstract
p915
aVhttp://dbpedia.org/ontology/recordedIn
p916
aVhttp://dbpedia.org/property/leaderName
p917
aVhttp://dbpedia.org/property/deathPlace
p918
aVhttp://dbpedia.org/ontology/usingCountry
p919
aVhttp://dbpedia.org/property/location
p920
aVhttp://dbpedia.org/property/fightingOutOf
p921
aVhttp://dbpedia.org/ontology/deathPlace
p922
aVhttp://dbpedia.org/property/subdivisionName
p923
aVhttp://dbpedia.org/ontology/location
p924
aVhttp://dbpedia.org/ontology/birthPlace
p925
aVhttp://dbpedia.org/ontology/citizenship
p926
aVhttp://dbpedia.org/property/area
p927
aVhttp://dbpedia.org/ontology/hometown
p928
aVhttp://dbpedia.org/property/citizenship
p929
aVhttp://dbpedia.org/ontology/stateOfOrigin
p930
aVhttp://dbpedia.org/property/data
p931
aVhttp://dbpedia.org/ontology/award
p932
aVhttp://dbpedia.org/ontology/leader
p933
assI11
(dp934
I0
(lp935
Vhttp://dbpedia.org/ontology/wikiPageExternalLink
p936
aVhttp://dbpedia.org/ontology/country
p937
aVhttp://dbpedia.org/property/returns
p938
aVhttp://www.w3.org/1999/02/22-rdf-syntax-ns#type
p939
aVhttp://dbpedia.org/ontology/location
p940
aVhttp://dbpedia.org/property/venue
p941
aVhttp://dbpedia.org/ontology/abstract
p942
aVhttp://dbpedia.org/property/place
p943
aVhttp://dbpedia.org/property/location
p944
aVhttp://dbpedia.org/property/debuts
p945
aVhttp://dbpedia.org/property/country/region
p946
aVhttp://dbpedia.org/property/prev
p947
aVhttp://dbpedia.org/property/country
p948
aVhttp://dbpedia.org/property/stadium
p949
asI2
(lp950
sI3
(lp951
ssI12
(dp952
I0
(lp953
Vhttp://www.w3.org/2000/01/rdf-schema#seeAlso
p954
aVhttp://dbpedia.org/ontology/country
p955
aVhttp://dbpedia.org/property/returns
p956
aVhttp://www.w3.org/1999/02/22-rdf-syntax-ns#type
p957
aVhttp://dbpedia.org/property/origin
p958
aVhttp://www.w3.org/2000/01/rdf-schema#comment
p959
aVhttp://dbpedia.org/property/home
p960
aVhttp://dbpedia.org/ontology/abstract
p961
aVhttp://dbpedia.org/property/countries
p962
aVhttp://dbpedia.org/property/venue
p963
aVhttp://dbpedia.org/property/location
p964
aVhttp://dbpedia.org/property/debuts
p965
aVhttp://dbpedia.org/ontology/hometown
p966
aVhttp://dbpedia.org/property/country
p967
aVhttp://dbpedia.org/property/usedBy
p968
aVhttp://dbpedia.org/property/hostCity
p969
aVhttp://www.w3.org/2002/07/owl#sameAs
p970
aVhttp://dbpedia.org/property/areasAffected
p971
asI2
(lp972
sI3
(lp973
ssI14
(dp974
I0
(lp975
Vhttp://dbpedia.org/ontology/wikiPageExternalLink
p976
aVhttp://dbpedia.org/ontology/country
p977
aVhttp://dbpedia.org/ontology/assembly
p978
aVhttp://dbpedia.org/ontology/location
p979
aVhttp://dbpedia.org/property/origin
p980
aVhttp://dbpedia.org/property/venue
p981
aVhttp://dbpedia.org/ontology/birthPlace
p982
aVhttp://dbpedia.org/property/place
p983
aVhttp://dbpedia.org/property/birthPlace
p984
aVhttp://dbpedia.org/property/location
p985
aVhttp://dbpedia.org/property/available
p986
aVhttp://dbpedia.org/property/shipBuilder
p987
aVhttp://dbpedia.org/ontology/builder
p988
aVhttp://dbpedia.org/ontology/place
p989
aVhttp://dbpedia.org/property/placeOfBirth
p990
aVhttp://dbpedia.org/property/country
p991
aVhttp://purl.org/dc/terms/subject
p992
asI2
(lp993
Vhttp://dbpedia.org/property/currency
p994
asI3
(lp995
Vhttp://dbpedia.org/property/origin
p996
aVhttp://dbpedia.org/property/placeOfDeath
p997
aVhttp://dbpedia.org/ontology/twinCountry
p998
aVhttp://dbpedia.org/ontology/type
p999
aVhttp://dbpedia.org/property/broadcastArea
p1000
aVhttp://dbpedia.org/ontology/mouthCountry
p1001
aVhttp://dbpedia.org/property/locations
p1002
aVhttp://dbpedia.org/property/city
p1003
aVhttp://dbpedia.org/ontology/garrison
p1004
aVhttp://dbpedia.org/ontology/knownFor
p1005
aVhttp://dbpedia.org/property/homeTown
p1006
aVhttp://www.w3.org/ns/prov#wasDerivedFrom
p1007
aVhttp://dbpedia.org/ontology/demonym
p1008
aVhttp://dbpedia.org/ontology/regionServed
p1009
aVhttp://dbpedia.org/property/assembly
p1010
aVhttp://dbpedia.org/property/availability
p1011
aVhttp://dbpedia.org/ontology/nationality
p1012
aVhttp://xmlns.com/foaf/0.1/isPrimaryTopicOf
p1013
aVhttp://dbpedia.org/property/hometown
p1014
aVhttp://dbpedia.org/property/establishedEvent
p1015
aVhttp://dbpedia.org/property/start
p1016
aVhttp://dbpedia.org/property/mapCaption
p1017
aVhttp://dbpedia.org/ontology/sourcePlace
p1018
aVhttp://dbpedia.org/ontology/residence
p1019
aVhttp://dbpedia.org/ontology/abstract
p1020
aVhttp://dbpedia.org/ontology/recordedIn
p1021
aVhttp://dbpedia.org/property/venue
p1022
aVhttp://dbpedia.org/property/foundedPlace
p1023
aVhttp://dbpedia.org/property/imageMap
p1024
aVhttp://dbpedia.org/property/shipBuilder
p1025
aVhttp://dbpedia.org/ontology/location
p1026
aVhttp://dbpedia.org/property/countries
p1027
aVhttp://dbpedia.org/ontology/wikiPageExternalLink
p1028
aVhttp://dbpedia.org/property/area
p1029
aVhttp://dbpedia.org/ontology/hometown
p1030
aVhttp://dbpedia.org/ontology/restingPlace
p1031
aVhttp://dbpedia.org/ontology/spokenIn
p1032
aVhttp://dbpedia.org/property/foundingLocation
p1033
aVhttp://dbpedia.org/property/jurisdiction
p1034
aVhttp://dbpedia.org/property/leaderTitle
p1035
aVhttp://www.w3.org/2000/01/rdf-schema#seeAlso
p1036
aVhttp://dbpedia.org/property/currency
p1037
aVhttp://dbpedia.org/property/sovereigntyType
p1038
aVhttp://dbpedia.org/property/hostCity
p1039
aVhttp://dbpedia.org/property/conventionalLongName
p1040
aVhttp://dbpedia.org/property/altMap
p1041
aVhttp://dbpedia.org/ontology/foundationPlace
p1042
aVhttp://dbpedia.org/property/legislature
p1043
aVhttp://dbpedia.org/ontology/locatedInArea
p1044
aVhttp://dbpedia.org/property/label
p1045
aVhttp://dbpedia.org/ontology/country
p1046
aVhttp://dbpedia.org/property/region
p1047
aVhttp://dbpedia.org/property/birthPlace
p1048
aVhttp://dbpedia.org/property/country/region
p1049
aVhttp://dbpedia.org/property/royalHouse
p1050
aVhttp://dbpedia.org/property/stateParty
p1051
aVhttp://dbpedia.org/property/country
p1052
aVhttp://dbpedia.org/ontology/billed
p1053
aVhttp://dbpedia.org/property/nation
p1054
aVhttp://dbpedia.org/property/areaServed
p1055
aVhttp://dbpedia.org/ontology/county
p1056
aVhttp://xmlns.com/foaf/0.1/primaryTopic
p1057
aVhttp://dbpedia.org/ontology/campus
p1058
aVhttp://dbpedia.org/property/county
p1059
aVhttp://dbpedia.org/property/reason
p1060
aVhttp://dbpedia.org/property/location
p1061
aVhttp://dbpedia.org/property/states
p1062
aVhttp://dbpedia.org/ontology/locationCountry
p1063
aVhttp://dbpedia.org/ontology/deathPlace
p1064
aVhttp://dbpedia.org/property/hasPhotoCollection
p1065
aVhttp://dbpedia.org/property/voySearch
p1066
aVhttp://dbpedia.org/ontology/genre
p1067
aVhttp://dbpedia.org/property/armiger
p1068
aVhttp://dbpedia.org/property/headquarters
p1069
aVhttp://dbpedia.org/property/countryName
p1070
aVhttp://dbpedia.org/ontology/birthPlace
p1071
aVhttp://dbpedia.org/ontology/wikiPageRedirects
p1072
aVhttp://dbpedia.org/property/parentOrganization
p1073
aVhttp://dbpedia.org/property/citizenship
p1074
aVhttp://dbpedia.org/property/imageCoat
p1075
aVhttp://dbpedia.org/ontology/stateOfOrigin
p1076
aVhttp://www.w3.org/2002/07/owl#sameAs
p1077
aVhttp://dbpedia.org/property/recorded
p1078
aVhttp://dbpedia.org/property/affiliation
p1079
aVhttp://dbpedia.org/ontology/origin
p1080
aVhttp://dbpedia.org/ontology/currency
p1081
aVhttp://dbpedia.org/property/imageCaption
p1082
aVhttp://dbpedia.org/property/residence
p1083
aVhttp://dbpedia.org/ontology/longName
p1084
aVhttp://dbpedia.org/property/governingRegion
p1085
aVhttp://dbpedia.org/property/builder
p1086
aVhttp://dbpedia.org/property/billed
p1087
aVhttp://www.w3.org/1999/02/22-rdf-syntax-ns#type
p1088
aVhttp://dbpedia.org/property/timeZone
p1089
aVhttp://dbpedia.org/property/locationCountry
p1090
aVhttp://dbpedia.org/property/data
p1091
aVhttp://dbpedia.org/ontology/ground
p1092
aVhttp://dbpedia.org/property/owner
p1093
aVhttp://dbpedia.org/property/placeOfBirth
p1094
aVhttp://xmlns.com/foaf/0.1/depiction
p1095
aVhttp://dbpedia.org/property/headquarter
p1096
aVhttp://dbpedia.org/ontology/usingCountry
p1097
aVhttp://dbpedia.org/ontology/province
p1098
aVhttp://dbpedia.org/ontology/thumbnail
p1099
aVhttp://dbpedia.org/property/row
p1100
aVhttp://dbpedia.org/ontology/city
p1101
aVhttp://dbpedia.org/ontology/flag
p1102
aVhttp://dbpedia.org/property/commonName
p1103
aVhttp://dbpedia.org/property/subdivisionName
p1104
aVhttp://dbpedia.org/ontology/ethnicity
p1105
aVhttp://dbpedia.org/property/address
p1106
aVhttp://dbpedia.org/property/locationCity
p1107
aVhttp://dbpedia.org/property/imageFlag
p1108
aVhttp://dbpedia.org/property/almaMater
p1109
aVhttp://dbpedia.org/property/largestUrbanAgglomeration
p1110
aVhttp://dbpedia.org/property/ground
p1111
aVhttp://dbpedia.org/property/place
p1112
aVhttp://dbpedia.org/ontology/citizenship
p1113
aVhttp://dbpedia.org/property/territorialExtent
p1114
aVhttp://dbpedia.org/ontology/jurisdiction
p1115
aVhttp://dbpedia.org/property/caption
p1116
aVhttp://www.w3.org/2002/07/owl#differentFrom
p1117
aVhttp://dbpedia.org/property/allegiance
p1118
aVhttp://dbpedia.org/property/countryOfProduction
p1119
aVhttp://dbpedia.org/property/available
p1120
aVhttp://dbpedia.org/property/combatant
p1121
aVhttp://dbpedia.org/ontology/place
p1122
aVhttp://dbpedia.org/property/office
p1123
aVhttp://dbpedia.org/property/nationality
p1124
aVhttp://dbpedia.org/property/body
p1125
aVhttp://dbpedia.org/property/callingCode
p1126
aVhttp://dbpedia.org/ontology/wikiPageDisambiguates
p1127
aVhttp://dbpedia.org/ontology/ideology
p1128
aVhttp://purl.org/dc/terms/subject
p1129
aVhttp://dbpedia.org/ontology/populationPlace
p1130
aVhttp://dbpedia.org/property/free
p1131
aVhttp://dbpedia.org/property/gamesPlace
p1132
aVhttp://dbpedia.org/property/deathPlace
p1133
aVhttp://dbpedia.org/ontology/sourceMountain
p1134
aVhttp://xmlns.com/foaf/0.1/name
p1135
aVhttp://dbpedia.org/ontology/headquarter
p1136
aVhttp://dbpedia.org/property/foundation
p1137
aVhttp://dbpedia.org/ontology/region
p1138
aVhttp://www.w3.org/2000/01/rdf-schema#label
p1139
aVhttp://dbpedia.org/ontology/sourceCountry
p1140
aVhttp://dbpedia.org/ontology/broadcastArea
p1141
aVhttp://dbpedia.org/property/locale
p1142
aVhttp://dbpedia.org/property/garrison
p1143
aVhttp://dbpedia.org/ontology/assembly
p1144
aVhttp://www.w3.org/2000/01/rdf-schema#comment
p1145
aVhttp://dbpedia.org/ontology/timeZone
p1146
aVhttp://dbpedia.org/property/northwest
p1147
aVhttp://dbpedia.org/property/seat
p1148
aVhttp://dbpedia.org/property/demonym
p1149
aVhttp://dbpedia.org/property/regionServed
p1150
aVhttp://dbpedia.org/ontology/builder
p1151
aVhttp://dbpedia.org/ontology/locationCity
p1152
ass.