(lp1
(lp2
(lp3
a(lp4
((lp5
Vhttp://www.w3.org/2002/07/owl#Thing
p6
aVhttp://dbpedia.org/ontology/Place
p7
aVhttp://dbpedia.org/ontology/Location
p8
aVhttp://www.wikidata.org/entity/Q486972
p9
aVhttp://www.wikidata.org/entity/Q6256
p10
aVhttp://dbpedia.org/ontology/Country
p11
aVhttp://dbpedia.org/ontology/PopulatedPlace
p12
aVhttp://www.w3.org/2003/01/geo/wgs84_pos#SpatialThing
p13
aVhttp://schema.org/Country
p14
aVhttp://schema.org/Place
p15
aVhttp://umbel.org/umbel/rc/Country
p16
aVhttp://umbel.org/umbel/rc/Location_Underspecified
p17
aVhttp://umbel.org/umbel/rc/PopulatedPlace
p18
aVhttp://dbpedia.org/class/yago/Abstraction100002137
p19
aVhttp://dbpedia.org/class/yago/AdministrativeDistrict108491826
p20
aVhttp://dbpedia.org/class/yago/BicontinentalCountries
p21
aVhttp://dbpedia.org/class/yago/Country108544813
p22
aVhttp://dbpedia.org/class/yago/District108552138
p23
aVhttp://dbpedia.org/class/yago/Economy108366753
p24
aVhttp://dbpedia.org/class/yago/Group100031264
p25
aVhttp://dbpedia.org/class/yago/Location100027167
p26
aVhttp://dbpedia.org/class/yago/Object100002684
p27
aVhttp://dbpedia.org/class/yago/Region108630985
p28
aVhttp://dbpedia.org/class/yago/System108435388
p29
aVhttp://dbpedia.org/class/yago/YagoGeoEntity
p30
aVhttp://dbpedia.org/class/yago/YagoLegalActorGeo
p31
aVhttp://dbpedia.org/class/yago/CountriesBorderingTheArcticOcean
p32
aVhttp://dbpedia.org/class/yago/CountriesBorderingTheAtlanticOcean
p33
aVhttp://dbpedia.org/class/yago/CountriesBorderingThePacificOcean
p34
aVhttp://dbpedia.org/class/yago/English-speakingCountriesAndTerritories
p35
aVhttp://dbpedia.org/class/yago/FederalCountries
p36
aVhttp://dbpedia.org/class/yago/PhysicalEntity100001930
p37
aVhttp://dbpedia.org/class/yago/YagoPermanentlyLocatedEntity
p38
aVhttp://dbpedia.org/class/yago/MemberStatesOfNATO
p39
aVhttp://dbpedia.org/class/yago/MemberStatesOfTheUnitedNations
p40
aVhttp://dbpedia.org/class/yago/NorthernAmericanCountries
p41
aVhttp://dbpedia.org/class/yago/StatesAndTerritoriesEstablishedIn1776
p42
aVhttp://dbpedia.org/class/yago/UnitedStates
p43
aVhttp://dbpedia.org/resource/United_States
tp44
aa(lp45
a(lp46
aa(lp47
(lp48
a(lp49
((lp50
Vhttp://www.w3.org/2002/07/owl#Thing
p51
aVhttp://dbpedia.org/ontology/Species
p52
aVhttp://dbpedia.org/class/yago/Abstraction100002137
p53
aVhttp://dbpedia.org/class/yago/Alliance108293982
p54
aVhttp://dbpedia.org/class/yago/Economy108366753
p55
aVhttp://dbpedia.org/class/yago/Group100031264
p56
aVhttp://dbpedia.org/class/yago/Organization108008335
p57
aVhttp://dbpedia.org/class/yago/PoliticalUnit108359949
p58
aVhttp://dbpedia.org/class/yago/SocialGroup107950920
p59
aVhttp://dbpedia.org/class/yago/State108168978
p60
aVhttp://dbpedia.org/class/yago/System108435388
p61
aVhttp://dbpedia.org/class/yago/Unit108189659
p62
aVhttp://dbpedia.org/class/yago/YagoLegalActorGeo
p63
aVhttp://dbpedia.org/class/yago/EuropeanUnionMemberEconomies
p64
aVhttp://dbpedia.org/class/yago/WorldOrganization108294696
p65
aVhttp://dbpedia.org/class/yago/YagoPermanentlyLocatedEntity
p66
aVhttp://dbpedia.org/class/yago/G20Nations
p67
aVhttp://dbpedia.org/class/yago/InternationalOrganizationsOfEurope
p68
aVhttp://dbpedia.org/class/yago/YagoLegalActor
p69
aVhttp://dbpedia.org/class/yago/WorldTradeOrganizationMemberEconomies
p70
aVhttp://dbpedia.org/resource/European_Union
tp71
aa(lp72
((lp73
Vhttp://www.w3.org/2002/07/owl#Thing
p74
aVhttp://dbpedia.org/ontology/Place
p75
aVhttp://dbpedia.org/ontology/Location
p76
aVhttp://www.wikidata.org/entity/Q3455524
p77
aVhttp://www.wikidata.org/entity/Q486972
p78
aVhttp://dbpedia.org/ontology/AdministrativeRegion
p79
aVhttp://dbpedia.org/ontology/PopulatedPlace
p80
aVhttp://dbpedia.org/ontology/Region
p81
aVhttp://www.w3.org/2003/01/geo/wgs84_pos#SpatialThing
p82
aVhttp://schema.org/AdministrativeArea
p83
aVhttp://schema.org/Place
p84
aVhttp://dbpedia.org/class/yago/AdministrativeDistrict108491826
p85
aVhttp://dbpedia.org/class/yago/District108552138
p86
aVhttp://dbpedia.org/class/yago/Location100027167
p87
aVhttp://dbpedia.org/class/yago/Object100002684
p88
aVhttp://dbpedia.org/class/yago/Region108630985
p89
aVhttp://dbpedia.org/class/yago/Town108665504
p90
aVhttp://dbpedia.org/class/yago/UrbanArea108675967
p91
aVhttp://dbpedia.org/class/yago/YagoGeoEntity
p92
aVhttp://dbpedia.org/class/yago/YagoLegalActorGeo
p93
aVhttp://dbpedia.org/class/yago/GeographicalArea108574314
p94
aVhttp://dbpedia.org/class/yago/GhostTown108671509
p95
aVhttp://dbpedia.org/class/yago/Municipality108626283
p96
aVhttp://dbpedia.org/class/yago/PhysicalEntity100001930
p97
aVhttp://dbpedia.org/class/yago/YagoPermanentlyLocatedEntity
p98
aVhttp://dbpedia.org/class/yago/GhostTownsInWesternAustralia
p99
aVhttp://dbpedia.org/resource/Euro,_Western_Australia
tp100
aa(lp101
aa(lp102
(lp103
a(lp104
((lp105
Vhttp://www.w3.org/2002/07/owl#Thing
p106
aVhttp://dbpedia.org/ontology/Place
p107
aVhttp://dbpedia.org/ontology/Location
p108
aVhttp://www.wikidata.org/entity/Q486972
p109
aVhttp://www.wikidata.org/entity/Q6256
p110
aVhttp://dbpedia.org/ontology/Country
p111
aVhttp://dbpedia.org/ontology/PopulatedPlace
p112
aVhttp://www.w3.org/2003/01/geo/wgs84_pos#SpatialThing
p113
aVhttp://schema.org/Country
p114
aVhttp://schema.org/Place
p115
aVhttp://umbel.org/umbel/rc/Country
p116
aVhttp://umbel.org/umbel/rc/Location_Underspecified
p117
aVhttp://umbel.org/umbel/rc/PopulatedPlace
p118
aVhttp://dbpedia.org/class/yago/Abstraction100002137
p119
aVhttp://dbpedia.org/class/yago/AdministrativeDistrict108491826
p120
aVhttp://dbpedia.org/class/yago/Country108544813
p121
aVhttp://dbpedia.org/class/yago/District108552138
p122
aVhttp://dbpedia.org/class/yago/Domain108556491
p123
aVhttp://dbpedia.org/class/yago/Economy108366753
p124
aVhttp://dbpedia.org/class/yago/Group100031264
p125
aVhttp://dbpedia.org/class/yago/Location100027167
p126
aVhttp://dbpedia.org/class/yago/Object100002684
p127
aVhttp://dbpedia.org/class/yago/Region108630985
p128
aVhttp://dbpedia.org/class/yago/System108435388
p129
aVhttp://dbpedia.org/class/yago/YagoGeoEntity
p130
aVhttp://dbpedia.org/class/yago/YagoLegalActorGeo
p131
aVhttp://dbpedia.org/class/yago/CountriesBorderingThePacificOcean
p132
aVhttp://dbpedia.org/class/yago/CountriesBorderingThePhilippineSea
p133
aVhttp://dbpedia.org/class/yago/EastAsianCountries
p134
aVhttp://dbpedia.org/class/yago/Empire108557482
p135
aVhttp://dbpedia.org/class/yago/Empires
p136
aVhttp://dbpedia.org/class/yago/PhysicalEntity100001930
p137
aVhttp://dbpedia.org/class/yago/YagoPermanentlyLocatedEntity
p138
aVhttp://dbpedia.org/class/yago/IslandCountries
p139
aVhttp://dbpedia.org/class/yago/MemberStatesOfTheUnitedNations
p140
aVhttp://dbpedia.org/class/yago/StatesAndTerritoriesEstablishedIn660BC
p141
aVhttp://dbpedia.org/resource/Japan
tp142
aa(lp143
a(lp144
aa(lp145
(lp146
a(lp147
((lp148
Vhttp://www.w3.org/2002/07/owl#Thing
p149
aVhttp://dbpedia.org/ontology/Place
p150
aVhttp://dbpedia.org/ontology/Location
p151
aVhttp://www.wikidata.org/entity/Q486972
p152
aVhttp://www.wikidata.org/entity/Q6256
p153
aVhttp://dbpedia.org/ontology/Country
p154
aVhttp://dbpedia.org/ontology/PopulatedPlace
p155
aVhttp://www.w3.org/2003/01/geo/wgs84_pos#SpatialThing
p156
aVhttp://schema.org/Country
p157
aVhttp://schema.org/Place
p158
aVhttp://umbel.org/umbel/rc/Country
p159
aVhttp://umbel.org/umbel/rc/Location_Underspecified
p160
aVhttp://umbel.org/umbel/rc/PopulatedPlace
p161
aVhttp://dbpedia.org/class/yago/Abstraction100002137
p162
aVhttp://dbpedia.org/class/yago/AdministrativeDistrict108491826
p163
aVhttp://dbpedia.org/class/yago/Country108544813
p164
aVhttp://dbpedia.org/class/yago/District108552138
p165
aVhttp://dbpedia.org/class/yago/Economy108366753
p166
aVhttp://dbpedia.org/class/yago/Group100031264
p167
aVhttp://dbpedia.org/class/yago/Location100027167
p168
aVhttp://dbpedia.org/class/yago/Object100002684
p169
aVhttp://dbpedia.org/class/yago/Region108630985
p170
aVhttp://dbpedia.org/class/yago/System108435388
p171
aVhttp://dbpedia.org/class/yago/YagoGeoEntity
p172
aVhttp://dbpedia.org/class/yago/YagoLegalActorGeo
p173
aVhttp://dbpedia.org/class/yago/CountriesBorderingTheAtlanticOcean
p174
aVhttp://dbpedia.org/class/yago/English-speakingCountriesAndTerritories
p175
aVhttp://dbpedia.org/class/yago/EuropeanCountries
p176
aVhttp://dbpedia.org/class/yago/EuropeanUnionMemberEconomies
p177
aVhttp://dbpedia.org/class/yago/PhysicalEntity100001930
p178
aVhttp://dbpedia.org/class/yago/YagoPermanentlyLocatedEntity
p179
aVhttp://dbpedia.org/class/yago/IslandCountries
p180
aVhttp://dbpedia.org/class/yago/MemberStatesOfNATO
p181
aVhttp://dbpedia.org/class/yago/MemberStatesOfTheCommonwealthOfNations
p182
aVhttp://dbpedia.org/class/yago/MemberStatesOfTheCouncilOfEurope
p183
aVhttp://dbpedia.org/class/yago/MemberStatesOfTheEuropeanUnion
p184
aVhttp://dbpedia.org/class/yago/MemberStatesOfTheUnionForTheMediterranean
p185
aVhttp://dbpedia.org/class/yago/MemberStatesOfTheUnitedNations
p186
aVhttp://dbpedia.org/resource/United_Kingdom
tp187
aa(lp188
a(lp189
aa(lp190
(lp191
a(lp192
((lp193
Vhttp://www.w3.org/2002/07/owl#Thing
p194
aVhttp://dbpedia.org/ontology/Place
p195
aVhttp://dbpedia.org/ontology/Location
p196
aVhttp://www.wikidata.org/entity/Q486972
p197
aVhttp://www.wikidata.org/entity/Q6256
p198
aVhttp://dbpedia.org/ontology/Country
p199
aVhttp://dbpedia.org/ontology/PopulatedPlace
p200
aVhttp://www.w3.org/2003/01/geo/wgs84_pos#SpatialThing
p201
aVhttp://schema.org/Country
p202
aVhttp://schema.org/Place
p203
aVhttp://umbel.org/umbel/rc/Country
p204
aVhttp://umbel.org/umbel/rc/Location_Underspecified
p205
aVhttp://umbel.org/umbel/rc/PopulatedPlace
p206
aVhttp://dbpedia.org/class/yago/Abstraction100002137
p207
aVhttp://dbpedia.org/class/yago/AdministrativeDistrict108491826
p208
aVhttp://dbpedia.org/class/yago/Country108544813
p209
aVhttp://dbpedia.org/class/yago/District108552138
p210
aVhttp://dbpedia.org/class/yago/Economy108366753
p211
aVhttp://dbpedia.org/class/yago/Group100031264
p212
aVhttp://dbpedia.org/class/yago/Island109316454
p213
aVhttp://dbpedia.org/class/yago/Land109334396
p214
aVhttp://dbpedia.org/class/yago/Location100027167
p215
aVhttp://dbpedia.org/class/yago/Object100002684
p216
aVhttp://dbpedia.org/class/yago/Region108630985
p217
aVhttp://dbpedia.org/class/yago/System108435388
p218
aVhttp://dbpedia.org/class/yago/YagoGeoEntity
p219
aVhttp://dbpedia.org/class/yago/YagoLegalActorGeo
p220
aVhttp://dbpedia.org/class/yago/CountriesBorderingThePacificOcean
p221
aVhttp://dbpedia.org/class/yago/CountriesOfTheIndianOcean
p222
aVhttp://dbpedia.org/class/yago/English-speakingCountriesAndTerritories
p223
aVhttp://dbpedia.org/class/yago/FederalCountries
p224
aVhttp://dbpedia.org/class/yago/PhysicalEntity100001930
p225
aVhttp://dbpedia.org/class/yago/YagoPermanentlyLocatedEntity
p226
aVhttp://dbpedia.org/class/yago/Islands
p227
aVhttp://dbpedia.org/class/yago/MemberStatesOfTheCommonwealthOfNations
p228
aVhttp://dbpedia.org/class/yago/MemberStatesOfTheUnitedNations
p229
aVhttp://dbpedia.org/class/yago/OceanianCountries
p230
aVhttp://dbpedia.org/class/yago/StatesAndTerritoriesEstablishedIn1901
p231
aVhttp://dbpedia.org/class/yago/WorldTradeOrganizationMemberEconomies
p232
aVhttp://dbpedia.org/resource/Australia
tp233
aa(lp234
a(lp235
aa(lp236
(lp237
a(lp238
((lp239
Vhttp://www.w3.org/2002/07/owl#Thing
p240
aVhttp://dbpedia.org/ontology/Place
p241
aVhttp://dbpedia.org/ontology/Location
p242
aVhttp://www.wikidata.org/entity/Q486972
p243
aVhttp://www.wikidata.org/entity/Q6256
p244
aVhttp://dbpedia.org/ontology/Country
p245
aVhttp://dbpedia.org/ontology/PopulatedPlace
p246
aVhttp://www.w3.org/2003/01/geo/wgs84_pos#SpatialThing
p247
aVhttp://schema.org/Country
p248
aVhttp://schema.org/Place
p249
aVhttp://umbel.org/umbel/rc/Country
p250
aVhttp://umbel.org/umbel/rc/Location_Underspecified
p251
aVhttp://umbel.org/umbel/rc/PopulatedPlace
p252
aVhttp://dbpedia.org/class/yago/Abstraction100002137
p253
aVhttp://dbpedia.org/class/yago/AdministrativeDistrict108491826
p254
aVhttp://dbpedia.org/class/yago/AlpineCountries
p255
aVhttp://dbpedia.org/class/yago/Country108544813
p256
aVhttp://dbpedia.org/class/yago/District108552138
p257
aVhttp://dbpedia.org/class/yago/Economy108366753
p258
aVhttp://dbpedia.org/class/yago/Group100031264
p259
aVhttp://dbpedia.org/class/yago/Location100027167
p260
aVhttp://dbpedia.org/class/yago/Object100002684
p261
aVhttp://dbpedia.org/class/yago/Region108630985
p262
aVhttp://dbpedia.org/class/yago/System108435388
p263
aVhttp://dbpedia.org/class/yago/YagoGeoEntity
p264
aVhttp://dbpedia.org/class/yago/YagoLegalActorGeo
p265
aVhttp://dbpedia.org/class/yago/EuropeanCountries
p266
aVhttp://dbpedia.org/class/yago/FederalCountries
p267
aVhttp://dbpedia.org/class/yago/French-speakingCountries
p268
aVhttp://dbpedia.org/class/yago/PhysicalEntity100001930
p269
aVhttp://dbpedia.org/class/yago/YagoPermanentlyLocatedEntity
p270
aVhttp://dbpedia.org/class/yago/German-speakingCountries
p271
aVhttp://dbpedia.org/class/yago/Italian-speakingCountries
p272
aVhttp://dbpedia.org/class/yago/LandlockedCountries
p273
aVhttp://dbpedia.org/class/yago/MemberStatesOfLaFrancophonie
p274
aVhttp://dbpedia.org/class/yago/MemberStatesOfTheUnitedNations
p275
aVhttp://dbpedia.org/class/yago/StatesAndTerritoriesEstablishedIn1291
p276
aVhttp://dbpedia.org/class/yago/WorldTradeOrganizationMemberEconomies
p277
aVhttp://dbpedia.org/resource/Switzerland
tp278
aa(lp279
a(lp280
aa(lp281
(lp282
a(lp283
((lp284
Vhttp://www.w3.org/2002/07/owl#Thing
p285
aVhttp://dbpedia.org/ontology/Place
p286
aVhttp://dbpedia.org/ontology/Location
p287
aVhttp://www.wikidata.org/entity/Q486972
p288
aVhttp://www.wikidata.org/entity/Q6256
p289
aVhttp://dbpedia.org/ontology/Country
p290
aVhttp://dbpedia.org/ontology/PopulatedPlace
p291
aVhttp://www.w3.org/2003/01/geo/wgs84_pos#SpatialThing
p292
aVhttp://schema.org/Country
p293
aVhttp://schema.org/Place
p294
aVhttp://umbel.org/umbel/rc/Country
p295
aVhttp://umbel.org/umbel/rc/Location_Underspecified
p296
aVhttp://umbel.org/umbel/rc/PopulatedPlace
p297
aVhttp://dbpedia.org/class/yago/Abstraction100002137
p298
aVhttp://dbpedia.org/class/yago/AdministrativeDistrict108491826
p299
aVhttp://dbpedia.org/class/yago/Country108544813
p300
aVhttp://dbpedia.org/class/yago/District108552138
p301
aVhttp://dbpedia.org/class/yago/Economy108366753
p302
aVhttp://dbpedia.org/class/yago/Group100031264
p303
aVhttp://dbpedia.org/class/yago/Location100027167
p304
aVhttp://dbpedia.org/class/yago/Object100002684
p305
aVhttp://dbpedia.org/class/yago/Region108630985
p306
aVhttp://dbpedia.org/class/yago/System108435388
p307
aVhttp://dbpedia.org/class/yago/YagoGeoEntity
p308
aVhttp://dbpedia.org/class/yago/YagoLegalActorGeo
p309
aVhttp://dbpedia.org/class/yago/CountriesBorderingTheArcticOcean
p310
aVhttp://dbpedia.org/class/yago/CountriesBorderingTheAtlanticOcean
p311
aVhttp://dbpedia.org/class/yago/CountriesBorderingThePacificOcean
p312
aVhttp://dbpedia.org/class/yago/English-speakingCountriesAndTerritories
p313
aVhttp://dbpedia.org/class/yago/FederalCountries
p314
aVhttp://dbpedia.org/class/yago/French-speakingCountries
p315
aVhttp://dbpedia.org/class/yago/PhysicalEntity100001930
p316
aVhttp://dbpedia.org/class/yago/YagoPermanentlyLocatedEntity
p317
aVhttp://dbpedia.org/class/yago/MemberStatesOfLaFrancophonie
p318
aVhttp://dbpedia.org/class/yago/MemberStatesOfNATO
p319
aVhttp://dbpedia.org/class/yago/MemberStatesOfTheCommonwealthOfNations
p320
aVhttp://dbpedia.org/class/yago/MemberStatesOfTheUnitedNations
p321
aVhttp://dbpedia.org/class/yago/NorthernAmericanCountries
p322
aVhttp://dbpedia.org/class/yago/StatesAndTerritoriesEstablishedIn1867
p323
aVhttp://dbpedia.org/resource/Canada
tp324
aa(lp325
a(lp326
aa(lp327
(lp328
a(lp329
((lp330
Vhttp://www.w3.org/2002/07/owl#Thing
p331
aVhttp://dbpedia.org/ontology/Place
p332
aVhttp://dbpedia.org/ontology/Location
p333
aVhttp://www.wikidata.org/entity/Q486972
p334
aVhttp://www.wikidata.org/entity/Q6256
p335
aVhttp://dbpedia.org/ontology/Country
p336
aVhttp://dbpedia.org/ontology/PopulatedPlace
p337
aVhttp://schema.org/Country
p338
aVhttp://schema.org/Place
p339
aVhttp://umbel.org/umbel/rc/Country
p340
aVhttp://umbel.org/umbel/rc/Location_Underspecified
p341
aVhttp://umbel.org/umbel/rc/PopulatedPlace
p342
aVhttp://dbpedia.org/class/yago/Abstraction100002137
p343
aVhttp://dbpedia.org/class/yago/AdministrativeDistrict108491826
p344
aVhttp://dbpedia.org/class/yago/Area108497294
p345
aVhttp://dbpedia.org/class/yago/City108524735
p346
aVhttp://dbpedia.org/class/yago/Country108544813
p347
aVhttp://dbpedia.org/class/yago/District108552138
p348
aVhttp://dbpedia.org/class/yago/Economy108366753
p349
aVhttp://dbpedia.org/class/yago/Group100031264
p350
aVhttp://dbpedia.org/class/yago/Location100027167
p351
aVhttp://dbpedia.org/class/yago/Object100002684
p352
aVhttp://dbpedia.org/class/yago/Region108630039
p353
aVhttp://dbpedia.org/class/yago/Region108630985
p354
aVhttp://dbpedia.org/class/yago/Site108651247
p355
aVhttp://dbpedia.org/class/yago/System108435388
p356
aVhttp://dbpedia.org/class/yago/Tract108673395
p357
aVhttp://dbpedia.org/class/yago/UrbanArea108675967
p358
aVhttp://dbpedia.org/class/yago/YagoGeoEntity
p359
aVhttp://dbpedia.org/class/yago/YagoLegalActorGeo
p360
aVhttp://dbpedia.org/class/yago/Chinese-speakingCountriesAndTerritories
p361
aVhttp://dbpedia.org/class/yago/English-speakingCountriesAndTerritories
p362
aVhttp://dbpedia.org/class/yago/GeographicalArea108574314
p363
aVhttp://dbpedia.org/class/yago/Municipality108626283
p364
aVhttp://dbpedia.org/class/yago/PhysicalEntity100001930
p365
aVhttp://dbpedia.org/class/yago/YagoPermanentlyLocatedEntity
p366
aVhttp://dbpedia.org/class/yago/IndependentCities
p367
aVhttp://dbpedia.org/class/yago/MetropolitanAreasOfChina
p368
aVhttp://dbpedia.org/class/yago/PopulatedCoastalPlacesInHongKong
p369
aVhttp://dbpedia.org/class/yago/PopulatedPlacesEstablishedIn1842
p370
aVhttp://dbpedia.org/class/yago/PortCitiesAndTownsInChina
p371
aVhttp://dbpedia.org/class/yago/SpecialAdministrativeRegionsOfThePeople'sRepublicOfChina
p372
aVhttp://dbpedia.org/class/yago/StatesAndTerritoriesEstablishedIn1997
p373
aVhttp://dbpedia.org/class/yago/WorldTradeOrganizationMemberEconomies
p374
aVhttp://dbpedia.org/resource/Hong_Kong
tp375
aa(lp376
a(lp377
aa(lp378
(lp379
a(lp380
((lp381
Vhttp://www.w3.org/2002/07/owl#Thing
p382
aVhttp://dbpedia.org/ontology/Place
p383
aVhttp://dbpedia.org/ontology/Location
p384
aVhttp://www.wikidata.org/entity/Q486972
p385
aVhttp://www.wikidata.org/entity/Q6256
p386
aVhttp://dbpedia.org/ontology/Country
p387
aVhttp://dbpedia.org/ontology/PopulatedPlace
p388
aVhttp://www.w3.org/2003/01/geo/wgs84_pos#SpatialThing
p389
aVhttp://schema.org/Country
p390
aVhttp://schema.org/Place
p391
aVhttp://umbel.org/umbel/rc/Country
p392
aVhttp://umbel.org/umbel/rc/Location_Underspecified
p393
aVhttp://umbel.org/umbel/rc/PopulatedPlace
p394
aVhttp://dbpedia.org/class/yago/Abstraction100002137
p395
aVhttp://dbpedia.org/class/yago/AdministrativeDistrict108491826
p396
aVhttp://dbpedia.org/class/yago/Country108544813
p397
aVhttp://dbpedia.org/class/yago/District108552138
p398
aVhttp://dbpedia.org/class/yago/Economy108366753
p399
aVhttp://dbpedia.org/class/yago/Group100031264
p400
aVhttp://dbpedia.org/class/yago/Location100027167
p401
aVhttp://dbpedia.org/class/yago/Object100002684
p402
aVhttp://dbpedia.org/class/yago/Region108630985
p403
aVhttp://dbpedia.org/class/yago/System108435388
p404
aVhttp://dbpedia.org/class/yago/YagoGeoEntity
p405
aVhttp://dbpedia.org/class/yago/YagoLegalActorGeo
p406
aVhttp://dbpedia.org/class/yago/CountriesBorderingTheAtlanticOcean
p407
aVhttp://dbpedia.org/class/yago/CountriesBorderingTheBalticSea
p408
aVhttp://dbpedia.org/class/yago/EuropeanCountries
p409
aVhttp://dbpedia.org/class/yago/EuropeanUnionMemberEconomies
p410
aVhttp://dbpedia.org/class/yago/PhysicalEntity100001930
p411
aVhttp://dbpedia.org/class/yago/YagoPermanentlyLocatedEntity
p412
aVhttp://dbpedia.org/class/yago/MemberStatesOfTheEuropeanUnion
p413
aVhttp://dbpedia.org/class/yago/MemberStatesOfTheUnionForTheMediterranean
p414
aVhttp://dbpedia.org/class/yago/MemberStatesOfTheUnitedNations
p415
aVhttp://dbpedia.org/class/yago/NordicCountries
p416
aVhttp://dbpedia.org/resource/Sweden
tp417
aa(lp418
a(lp419
aa(lp420
(lp421
a(lp422
((lp423
Vhttp://www.w3.org/2002/07/owl#Thing
p424
aVhttp://dbpedia.org/ontology/Place
p425
aVhttp://dbpedia.org/ontology/Location
p426
aVhttp://www.wikidata.org/entity/Q486972
p427
aVhttp://www.wikidata.org/entity/Q6256
p428
aVhttp://dbpedia.org/ontology/Country
p429
aVhttp://dbpedia.org/ontology/PopulatedPlace
p430
aVhttp://www.w3.org/2003/01/geo/wgs84_pos#SpatialThing
p431
aVhttp://schema.org/Country
p432
aVhttp://schema.org/Place
p433
aVhttp://umbel.org/umbel/rc/Country
p434
aVhttp://umbel.org/umbel/rc/Location_Underspecified
p435
aVhttp://umbel.org/umbel/rc/PopulatedPlace
p436
aVhttp://dbpedia.org/class/yago/Abstraction100002137
p437
aVhttp://dbpedia.org/class/yago/AdministrativeDistrict108491826
p438
aVhttp://dbpedia.org/class/yago/Archipelago109203827
p439
aVhttp://dbpedia.org/class/yago/ArchipelagoesOfThePacificOcean
p440
aVhttp://dbpedia.org/class/yago/Country108544813
p441
aVhttp://dbpedia.org/class/yago/District108552138
p442
aVhttp://dbpedia.org/class/yago/Economy108366753
p443
aVhttp://dbpedia.org/class/yago/Group100031264
p444
aVhttp://dbpedia.org/class/yago/Land109334396
p445
aVhttp://dbpedia.org/class/yago/Location100027167
p446
aVhttp://dbpedia.org/class/yago/Object100002684
p447
aVhttp://dbpedia.org/class/yago/Region108630985
p448
aVhttp://dbpedia.org/class/yago/System108435388
p449
aVhttp://dbpedia.org/class/yago/YagoGeoEntity
p450
aVhttp://dbpedia.org/class/yago/YagoLegalActorGeo
p451
aVhttp://dbpedia.org/class/yago/English-speakingCountriesAndTerritories
p452
aVhttp://dbpedia.org/class/yago/PhysicalEntity100001930
p453
aVhttp://dbpedia.org/class/yago/YagoPermanentlyLocatedEntity
p454
aVhttp://dbpedia.org/class/yago/IslandCountries
p455
aVhttp://dbpedia.org/class/yago/MemberStatesOfTheCommonwealthOfNations
p456
aVhttp://dbpedia.org/class/yago/MemberStatesOfTheUnitedNations
p457
aVhttp://dbpedia.org/class/yago/OceanianCountries
p458
aVhttp://dbpedia.org/class/yago/StatesAndTerritoriesEstablishedIn1840
p459
aVhttp://dbpedia.org/class/yago/WorldTradeOrganizationMemberEconomies
p460
aVhttp://dbpedia.org/resource/New_Zealand
tp461
aa(lp462
a(lp463
aa(lp464
(lp465
a(lp466
((lp467
Vhttp://www.w3.org/2002/07/owl#Thing
p468
aVhttp://dbpedia.org/ontology/Place
p469
aVhttp://dbpedia.org/ontology/Location
p470
aVhttp://www.wikidata.org/entity/Q486972
p471
aVhttp://www.wikidata.org/entity/Q6256
p472
aVhttp://dbpedia.org/ontology/Country
p473
aVhttp://dbpedia.org/ontology/PopulatedPlace
p474
aVhttp://www.w3.org/2003/01/geo/wgs84_pos#SpatialThing
p475
aVhttp://schema.org/Country
p476
aVhttp://schema.org/Place
p477
aVhttp://umbel.org/umbel/rc/Country
p478
aVhttp://umbel.org/umbel/rc/Location_Underspecified
p479
aVhttp://umbel.org/umbel/rc/PopulatedPlace
p480
aVhttp://dbpedia.org/class/yago/Abstraction100002137
p481
aVhttp://dbpedia.org/class/yago/AdministrativeDistrict108491826
p482
aVhttp://dbpedia.org/class/yago/Country108544813
p483
aVhttp://dbpedia.org/class/yago/District108552138
p484
aVhttp://dbpedia.org/class/yago/Economy108366753
p485
aVhttp://dbpedia.org/class/yago/Group100031264
p486
aVhttp://dbpedia.org/class/yago/Location100027167
p487
aVhttp://dbpedia.org/class/yago/Object100002684
p488
aVhttp://dbpedia.org/class/yago/Region108630039
p489
aVhttp://dbpedia.org/class/yago/Region108630985
p490
aVhttp://dbpedia.org/class/yago/System108435388
p491
aVhttp://dbpedia.org/class/yago/YagoGeoEntity
p492
aVhttp://dbpedia.org/class/yago/YagoLegalActorGeo
p493
aVhttp://dbpedia.org/class/yago/DividedRegions
p494
aVhttp://dbpedia.org/class/yago/EastAsianCountries
p495
aVhttp://dbpedia.org/class/yago/PhysicalEntity100001930
p496
aVhttp://dbpedia.org/class/yago/YagoPermanentlyLocatedEntity
p497
aVhttp://dbpedia.org/class/yago/MemberStatesOfTheUnitedNations
p498
aVhttp://dbpedia.org/class/yago/StatesAndTerritoriesEstablishedIn1948
p499
aVhttp://dbpedia.org/class/yago/WorldTradeOrganizationMemberEconomies
p500
aVhttp://dbpedia.org/resource/South_Korea
tp501
aa(lp502
((lp503
Vhttp://www.w3.org/2002/07/owl#Thing
p504
aVhttp://www.ontologydesignpatterns.org/ont/dul/DUL.owl#Agent
p505
aVhttp://www.ontologydesignpatterns.org/ont/dul/DUL.owl#SocialPerson
p506
aVhttp://www.wikidata.org/entity/Q43229
p507
aVhttp://dbpedia.org/ontology/Agent
p508
aVhttp://dbpedia.org/ontology/Organisation
p509
aVhttp://schema.org/Organization
p510
aVhttp://umbel.org/umbel/rc/Country
p511
aVhttp://dbpedia.org/class/yago/AdministrativeDistrict108491826
p512
aVhttp://dbpedia.org/class/yago/Country108544813
p513
aVhttp://dbpedia.org/class/yago/District108552138
p514
aVhttp://dbpedia.org/class/yago/Location100027167
p515
aVhttp://dbpedia.org/class/yago/Object100002684
p516
aVhttp://dbpedia.org/class/yago/Region108630039
p517
aVhttp://dbpedia.org/class/yago/Region108630985
p518
aVhttp://dbpedia.org/class/yago/YagoGeoEntity
p519
aVhttp://dbpedia.org/class/yago/YagoLegalActorGeo
p520
aVhttp://dbpedia.org/class/yago/DisputedTerritoriesInAsia
p521
aVhttp://dbpedia.org/class/yago/DividedRegions
p522
aVhttp://dbpedia.org/class/yago/PhysicalEntity100001930
p523
aVhttp://dbpedia.org/class/yago/YagoPermanentlyLocatedEntity
p524
aVhttp://dbpedia.org/resource/Korea
tp525
aa(lp526
aa(lp527
(lp528
a(lp529
((lp530
Vhttp://www.w3.org/2002/07/owl#Thing
p531
aVhttp://dbpedia.org/ontology/Place
p532
aVhttp://dbpedia.org/ontology/Location
p533
aVhttp://www.wikidata.org/entity/Q486972
p534
aVhttp://www.wikidata.org/entity/Q6256
p535
aVhttp://dbpedia.org/ontology/Country
p536
aVhttp://dbpedia.org/ontology/PopulatedPlace
p537
aVhttp://www.w3.org/2003/01/geo/wgs84_pos#SpatialThing
p538
aVhttp://schema.org/Country
p539
aVhttp://schema.org/Place
p540
aVhttp://umbel.org/umbel/rc/Country
p541
aVhttp://umbel.org/umbel/rc/Location_Underspecified
p542
aVhttp://umbel.org/umbel/rc/PopulatedPlace
p543
aVhttp://dbpedia.org/class/yago/Abstraction100002137
p544
aVhttp://dbpedia.org/class/yago/AdministrativeDistrict108491826
p545
aVhttp://dbpedia.org/class/yago/Area108497294
p546
aVhttp://dbpedia.org/class/yago/Capital108518505
p547
aVhttp://dbpedia.org/class/yago/CapitalsInAsia
p548
aVhttp://dbpedia.org/class/yago/Center108523483
p549
aVhttp://dbpedia.org/class/yago/City108524735
p550
aVhttp://dbpedia.org/class/yago/Country108544813
p551
aVhttp://dbpedia.org/class/yago/District108552138
p552
aVhttp://dbpedia.org/class/yago/Economy108366753
p553
aVhttp://dbpedia.org/class/yago/Group100031264
p554
aVhttp://dbpedia.org/class/yago/Location100027167
p555
aVhttp://dbpedia.org/class/yago/Object100002684
p556
aVhttp://dbpedia.org/class/yago/Region108630985
p557
aVhttp://dbpedia.org/class/yago/Seat108647945
p558
aVhttp://dbpedia.org/class/yago/Site108651247
p559
aVhttp://dbpedia.org/class/yago/System108435388
p560
aVhttp://dbpedia.org/class/yago/Tract108673395
p561
aVhttp://dbpedia.org/class/yago/UrbanArea108675967
p562
aVhttp://dbpedia.org/class/yago/YagoGeoEntity
p563
aVhttp://dbpedia.org/class/yago/YagoLegalActorGeo
p564
aVhttp://dbpedia.org/class/yago/Chinese-speakingCountriesAndTerritories
p565
aVhttp://dbpedia.org/class/yago/CountriesBorderingTheSouthChinaSea
p566
aVhttp://dbpedia.org/class/yago/English-speakingCountriesAndTerritories
p567
aVhttp://dbpedia.org/class/yago/GeographicalArea108574314
p568
aVhttp://dbpedia.org/class/yago/Municipality108626283
p569
aVhttp://dbpedia.org/class/yago/PhysicalEntity100001930
p570
aVhttp://dbpedia.org/class/yago/YagoPermanentlyLocatedEntity
p571
aVhttp://dbpedia.org/class/yago/IslandCountries
p572
aVhttp://dbpedia.org/class/yago/Malay-speakingCountriesAndTerritories
p573
aVhttp://dbpedia.org/class/yago/MemberStatesOfTheAssociationOfSoutheastAsianNations
p574
aVhttp://dbpedia.org/class/yago/MemberStatesOfTheCommonwealthOfNations
p575
aVhttp://dbpedia.org/class/yago/MemberStatesOfTheUnitedNations
p576
aVhttp://dbpedia.org/class/yago/PopulatedCoastalPlaces
p577
aVhttp://dbpedia.org/class/yago/SoutheastAsianCountries
p578
aVhttp://dbpedia.org/class/yago/StatesAndTerritoriesEstablishedIn1965
p579
aVhttp://dbpedia.org/class/yago/Tamil-speakingCountriesAndTerritories
p580
aVhttp://dbpedia.org/class/yago/WorldTradeOrganizationMemberEconomies
p581
aVhttp://dbpedia.org/class/yago/YouthOlympicGamesHostCities
p582
aVhttp://dbpedia.org/resource/Singapore
tp583
aa(lp584
a(lp585
aa(lp586
(lp587
a(lp588
((lp589
Vhttp://www.w3.org/2002/07/owl#Thing
p590
aVhttp://umbel.org/umbel/rc/Country
p591
aVhttp://umbel.org/umbel/rc/Location_Underspecified
p592
aVhttp://umbel.org/umbel/rc/PopulatedPlace
p593
aVhttp://dbpedia.org/class/yago/Abstraction100002137
p594
aVhttp://dbpedia.org/class/yago/AdministrativeDistrict108491826
p595
aVhttp://dbpedia.org/class/yago/Country108544813
p596
aVhttp://dbpedia.org/class/yago/District108552138
p597
aVhttp://dbpedia.org/class/yago/Economy108366753
p598
aVhttp://dbpedia.org/class/yago/Group100031264
p599
aVhttp://dbpedia.org/class/yago/Location100027167
p600
aVhttp://dbpedia.org/class/yago/Object100002684
p601
aVhttp://dbpedia.org/class/yago/Region108630985
p602
aVhttp://dbpedia.org/class/yago/System108435388
p603
aVhttp://dbpedia.org/class/yago/YagoGeoEntity
p604
aVhttp://dbpedia.org/class/yago/YagoLegalActorGeo
p605
aVhttp://dbpedia.org/class/yago/CountriesBorderingTheArcticOcean
p606
aVhttp://dbpedia.org/class/yago/CountriesBorderingTheAtlanticOcean
p607
aVhttp://dbpedia.org/class/yago/EuropeanCountries
p608
aVhttp://dbpedia.org/class/yago/PhysicalEntity100001930
p609
aVhttp://dbpedia.org/class/yago/YagoPermanentlyLocatedEntity
p610
aVhttp://dbpedia.org/class/yago/MemberStatesOfNATO
p611
aVhttp://dbpedia.org/class/yago/MemberStatesOfTheUnitedNations
p612
aVhttp://dbpedia.org/class/yago/NordicCountries
p613
aVhttp://dbpedia.org/class/yago/StatesAndTerritoriesEstablishedIn1905
p614
aVhttp://dbpedia.org/class/yago/StatesAndTerritoriesEstablishedIn872
p615
aVhttp://dbpedia.org/class/yago/WorldTradeOrganizationMemberEconomies
p616
aVhttp://dbpedia.org/resource/Norway
tp617
aa(lp618
((lp619
Vhttp://dbpedia.org/class/yago/Abstraction100002137
p620
aVhttp://dbpedia.org/class/yago/Autocracy108361001
p621
aVhttp://dbpedia.org/class/yago/Group100031264
p622
aVhttp://dbpedia.org/class/yago/PoliticalSystem108367880
p623
aVhttp://dbpedia.org/class/yago/SocialGroup107950920
p624
aVhttp://dbpedia.org/class/yago/CurrentMonarchies
p625
aVhttp://dbpedia.org/class/yago/Monarchy108363812
p626
aVhttp://dbpedia.org/resource/Monarchy_of_Norway
tp627
aa(lp628
aa(lp629
(lp630
a(lp631
a(lp632
a(lp633
aa(lp634
(lp635
a(lp636
((lp637
Vhttp://www.w3.org/2002/07/owl#Thing
p638
aVhttp://dbpedia.org/ontology/Place
p639
aVhttp://dbpedia.org/ontology/Location
p640
aVhttp://www.wikidata.org/entity/Q486972
p641
aVhttp://www.wikidata.org/entity/Q6256
p642
aVhttp://dbpedia.org/ontology/Country
p643
aVhttp://dbpedia.org/ontology/PopulatedPlace
p644
aVhttp://www.w3.org/2003/01/geo/wgs84_pos#SpatialThing
p645
aVhttp://schema.org/Country
p646
aVhttp://schema.org/Place
p647
aVhttp://umbel.org/umbel/rc/Country
p648
aVhttp://umbel.org/umbel/rc/Location_Underspecified
p649
aVhttp://umbel.org/umbel/rc/PopulatedPlace
p650
aVhttp://dbpedia.org/class/yago/Abstraction100002137
p651
aVhttp://dbpedia.org/class/yago/AdministrativeDistrict108491826
p652
aVhttp://dbpedia.org/class/yago/Country108544813
p653
aVhttp://dbpedia.org/class/yago/District108552138
p654
aVhttp://dbpedia.org/class/yago/Economy108366753
p655
aVhttp://dbpedia.org/class/yago/Group100031264
p656
aVhttp://dbpedia.org/class/yago/Location100027167
p657
aVhttp://dbpedia.org/class/yago/Object100002684
p658
aVhttp://dbpedia.org/class/yago/Region108630985
p659
aVhttp://dbpedia.org/class/yago/System108435388
p660
aVhttp://dbpedia.org/class/yago/YagoGeoEntity
p661
aVhttp://dbpedia.org/class/yago/YagoLegalActorGeo
p662
aVhttp://dbpedia.org/class/yago/CountriesOfTheIndianOcean
p663
aVhttp://dbpedia.org/class/yago/FederalCountries
p664
aVhttp://dbpedia.org/class/yago/PhysicalEntity100001930
p665
aVhttp://dbpedia.org/class/yago/YagoPermanentlyLocatedEntity
p666
aVhttp://dbpedia.org/class/yago/MemberStatesOfTheCommonwealthOfNations
p667
aVhttp://dbpedia.org/class/yago/MemberStatesOfTheSouthAsianAssociationForRegionalCooperation
p668
aVhttp://dbpedia.org/class/yago/MemberStatesOfTheUnitedNations
p669
aVhttp://dbpedia.org/class/yago/SouthAsianCountries
p670
aVhttp://dbpedia.org/class/yago/StatesAndTerritoriesEstablishedIn1947
p671
aVhttp://dbpedia.org/class/yago/WorldTradeOrganizationMemberEconomies
p672
aVhttp://dbpedia.org/resource/India
p673
tp674
aa(lp675
a(lp676
aa.