(lp1
(lp2
(dp3
Vstart
p4
I0
sS'classes'
p5
(lp6
Vhttp://www.w3.org/2002/07/owl#Thing
p7
aVhttp://dbpedia.org/class/yago/Abstraction100002137
p8
aVhttp://dbpedia.org/class/yago/Attribute100024264
p9
aVhttp://dbpedia.org/class/yago/Situation113927383
p10
aVhttp://dbpedia.org/class/yago/Sphere114514039
p11
aVhttp://dbpedia.org/class/yago/State100024720
p12
aVhttp://dbpedia.org/class/yago/Environment113934596
p13
aVhttp://dbpedia.org/class/yago/GenericTop-levelDomains
p14
asVdisambiguatedURL
p15
Vhttp://dbpedia.org/resource/.com
p16
sVnamedEntity
p17
V.com
p18
sVoffset
p19
I4
saa(lp20
(dp21
Vstart
p22
I0
sg5
(lp23
Vhttp://www.w3.org/2002/07/owl#Thing
p24
aVhttp://dbpedia.org/ontology/Software
p25
aVhttp://www.wikidata.org/entity/Q386724
p26
aVhttp://www.wikidata.org/entity/Q7397
p27
aVhttp://www.wikidata.org/entity/Q9143
p28
aVhttp://dbpedia.org/ontology/ProgrammingLanguage
p29
aVhttp://dbpedia.org/ontology/Work
p30
aVhttp://schema.org/CreativeWork
p31
aVhttp://www.ontologydesignpatterns.org/ont/dul/DUL.owl#InformationEntity
p32
aVhttp://dbpedia.org/class/yago/Abstraction100002137
p33
aVhttp://dbpedia.org/class/yago/Attribute100024264
p34
aVhttp://dbpedia.org/class/yago/Situation113927383
p35
aVhttp://dbpedia.org/class/yago/Sphere114514039
p36
aVhttp://dbpedia.org/class/yago/State100024720
p37
aVhttp://dbpedia.org/class/yago/Environment113934596
p38
aVhttp://dbpedia.org/class/yago/GenericTop-levelDomains
p39
asVdisambiguatedURL
p40
Vhttp://dbpedia.org/resource/.net
p41
sVnamedEntity
p42
V.net
p43
sVoffset
p44
I4
saa(lp45
(dp46
Vstart
p47
I0
sg5
(lp48
Vhttp://dbpedia.org/class/yago/Abstraction100002137
p49
aVhttp://dbpedia.org/class/yago/Attribute100024264
p50
aVhttp://dbpedia.org/class/yago/Situation113927383
p51
aVhttp://dbpedia.org/class/yago/Sphere114514039
p52
aVhttp://dbpedia.org/class/yago/State100024720
p53
aVhttp://dbpedia.org/class/yago/Environment113934596
p54
aVhttp://dbpedia.org/class/yago/GenericTop-levelDomains
p55
asVdisambiguatedURL
p56
Vhttp://dbpedia.org/resource/.org
p57
sVnamedEntity
p58
V.org
p59
sVoffset
p60
I4
saa(lp61
(dp62
Vstart
p63
I0
sg5
(lp64
Vhttp://dbpedia.org/class/yago/Abstraction100002137
p65
aVhttp://dbpedia.org/class/yago/Attribute100024264
p66
aVhttp://dbpedia.org/class/yago/Situation113927383
p67
aVhttp://dbpedia.org/class/yago/Sphere114514039
p68
aVhttp://dbpedia.org/class/yago/State100024720
p69
aVhttp://dbpedia.org/class/yago/Environment113934596
p70
aVhttp://dbpedia.org/class/yago/GenericTop-levelDomains
p71
asVdisambiguatedURL
p72
Vhttp://dbpedia.org/resource/.biz
p73
sVnamedEntity
p74
V.biz
p75
sVoffset
p76
I4
saa(lp77
(dp78
Vstart
p79
I0
sg5
(lp80
Vhttp://dbpedia.org/class/yago/Abstraction100002137
p81
aVhttp://dbpedia.org/class/yago/Attribute100024264
p82
aVhttp://dbpedia.org/class/yago/Situation113927383
p83
aVhttp://dbpedia.org/class/yago/Sphere114514039
p84
aVhttp://dbpedia.org/class/yago/State100024720
p85
aVhttp://dbpedia.org/class/yago/Environment113934596
p86
aVhttp://dbpedia.org/class/yago/GenericTop-levelDomains
p87
asVdisambiguatedURL
p88
Vhttp://dbpedia.org/resource/.info
p89
sVnamedEntity
p90
V.info
p91
sVoffset
p92
I5
saa(lp93
a(lp94
(dp95
Vstart
p96
I0
sg5
(lp97
Vhttp://dbpedia.org/class/yago/Abstraction100002137
p98
aVhttp://dbpedia.org/class/yago/Attribute100024264
p99
aVhttp://dbpedia.org/class/yago/Situation113927383
p100
aVhttp://dbpedia.org/class/yago/Sphere114514039
p101
aVhttp://dbpedia.org/class/yago/State100024720
p102
aVhttp://dbpedia.org/class/yago/CountryCodeTop-levelDomains
p103
aVhttp://dbpedia.org/class/yago/Environment113934596
p104
asVdisambiguatedURL
p105
Vhttp://dbpedia.org/resource/.ws
p106
sVnamedEntity
p107
V.ws
p108
sVoffset
p109
I3
saa(lp110
a.