ccollections
defaultdict
p1
(c__builtin__
dict
p2
tRp3
I0
(dp4
I0
(lp5
Vhttp://www.w3.org/1999/02/22-rdf-syntax-ns#type
p6
aVhttp://www.w3.org/2000/01/rdf-schema#comment
p7
aVhttp://dbpedia.org/ontology/abstract
p8
aVhttp://dbpedia.org/property/wordnet_type
p9
aVhttp://purl.org/voc/vrank#hasRank
p10
aVhttp://www.w3.org/2002/07/owl#sameAs
p11
asI2
(lp12
sI3
(lp13
Vhttp://dbpedia.org/property/industry
p14
assI2
(dp15
I0
(lp16
Vhttp://www.w3.org/1999/02/22-rdf-syntax-ns#type
p17
aVhttp://www.w3.org/2000/01/rdf-schema#comment
p18
aVhttp://dbpedia.org/ontology/abstract
p19
aVhttp://dbpedia.org/property/wordnet_type
p20
aVhttp://dbpedia.org/property/owner
p21
aVhttp://dbpedia.org/ontology/thumbnail
p22
aVhttp://www.w3.org/ns/prov#wasDerivedFrom
p23
aVhttp://dbpedia.org/property/hasPhotoCollection
p24
aVhttp://www.w3.org/2002/07/owl#sameAs
p25
asI2
(lp26
sI3
(lp27
ssI3
(dp28
I0
(lp29
Vhttp://www.w3.org/1999/02/22-rdf-syntax-ns#type
p30
aVhttp://purl.org/dc/terms/subject
p31
aVhttp://www.w3.org/2000/01/rdf-schema#comment
p32
aVhttp://dbpedia.org/ontology/abstract
p33
aVhttp://dbpedia.org/property/equityRatio
p34
aVhttp://dbpedia.org/property/operatingIncome
p35
aVhttp://dbpedia.org/ontology/operatingIncome
p36
asI2
(lp37
sI3
(lp38
ssI4
(dp39
I0
(lp40
Vhttp://dbpedia.org/ontology/wikiPageExternalLink
p41
aVhttp://www.w3.org/1999/02/22-rdf-syntax-ns#type
p42
aVhttp://dbpedia.org/ontology/equity
p43
aVhttp://dbpedia.org/ontology/abstract
p44
aVhttp://www.w3.org/2000/01/rdf-schema#comment
p45
aVhttp://dbpedia.org/property/operatingIncome
p46
aVhttp://dbpedia.org/property/hasPhotoCollection
p47
aVhttp://dbpedia.org/ontology/operatingIncome
p48
aVhttp://dbpedia.org/ontology/assets
p49
aVhttp://www.w3.org/2002/07/owl#sameAs
p50
asI2
(lp51
Vhttp://dbpedia.org/ontology/abstract
p52
aVhttp://www.w3.org/2000/01/rdf-schema#comment
p53
asI3
(lp54
ssI5
(dp55
I0
(lp56
Vhttp://www.w3.org/1999/02/22-rdf-syntax-ns#type
p57
aVhttp://www.w3.org/2000/01/rdf-schema#comment
p58
aVhttp://dbpedia.org/ontology/abstract
p59
aVhttp://dbpedia.org/property/wordnet_type
p60
aVhttp://www.w3.org/ns/prov#wasDerivedFrom
p61
aVhttp://www.w3.org/2002/07/owl#sameAs
p62
asI2
(lp63
sI3
(lp64
ssI6
(dp65
I0
(lp66
Vhttp://www.w3.org/1999/02/22-rdf-syntax-ns#type
p67
aVhttp://dbpedia.org/ontology/revenue
p68
aVhttp://dbpedia.org/property/assets
p69
aVhttp://dbpedia.org/property/profit
p70
aVhttp://dbpedia.org/ontology/assets
p71
aVhttp://dbpedia.org/property/revenue
p72
asI2
(lp73
Vhttp://dbpedia.org/ontology/abstract
p74
aVhttp://www.w3.org/2000/01/rdf-schema#comment
p75
asI3
(lp76
ssI7
(dp77
I0
(lp78
Vhttp://www.w3.org/1999/02/22-rdf-syntax-ns#type
p79
aVhttp://purl.org/dc/terms/subject
p80
aVhttp://www.w3.org/2000/01/rdf-schema#comment
p81
aVhttp://dbpedia.org/ontology/abstract
p82
aVhttp://purl.org/voc/vrank#hasRank
p83
aVhttp://dbpedia.org/property/operatingIncome
p84
aVhttp://dbpedia.org/ontology/operatingIncome
p85
asI2
(lp86
sI3
(lp87
ssI8
(dp88
I0
(lp89
Vhttp://www.w3.org/1999/02/22-rdf-syntax-ns#type
p90
aVhttp://dbpedia.org/property/manufacturer
p91
aVhttp://dbpedia.org/ontology/equity
p92
aVhttp://dbpedia.org/ontology/abstract
p93
aVhttp://www.w3.org/2000/01/rdf-schema#comment
p94
aVhttp://dbpedia.org/ontology/wikiPageRedirects
p95
aVhttp://dbpedia.org/property/netIncome
p96
aVhttp://dbpedia.org/property/operatingIncome
p97
aVhttp://dbpedia.org/ontology/netIncome
p98
aVhttp://dbpedia.org/ontology/operatingIncome
p99
aVhttp://dbpedia.org/ontology/manufacturer
p100
aVhttp://www.w3.org/2002/07/owl#sameAs
p101
aVhttp://dbpedia.org/property/equity
p102
asI2
(lp103
sI3
(lp104
ssI9
(dp105
I0
(lp106
Vhttp://www.w3.org/1999/02/22-rdf-syntax-ns#type
p107
asI2
(lp108
sI3
(lp109
ssI11
(dp110
I0
(lp111
Vhttp://www.w3.org/1999/02/22-rdf-syntax-ns#type
p112
asI2
(lp113
sI3
(lp114
Vhttp://dbpedia.org/property/products
p115
assI12
(dp116
I0
(lp117
Vhttp://www.w3.org/1999/02/22-rdf-syntax-ns#type
p118
asI2
(lp119
sI3
(lp120
Vhttp://dbpedia.org/property/industry
p121
aVhttp://www.w3.org/1999/02/22-rdf-syntax-ns#type
p122
aVhttp://purl.org/dc/terms/subject
p123
aVhttp://www.w3.org/2000/01/rdf-schema#comment
p124
aVhttp://dbpedia.org/ontology/abstract
p125
aVhttp://dbpedia.org/property/products
p126
aVhttp://dbpedia.org/ontology/industry
p127
aVhttp://dbpedia.org/ontology/product
p128
assI13
(dp129
I0
(lp130
sI2
(lp131
sI3
(lp132
ssI14
(dp133
I0
(lp134
sI2
(lp135
sI3
(lp136
ssI15
(dp137
I0
(lp138
Vhttp://dbpedia.org/ontology/wikiPageExternalLink
p139
asI2
(lp140
sI3
(lp141
Vhttp://www.w3.org/1999/02/22-rdf-syntax-ns#type
p142
aVhttp://purl.org/dc/terms/subject
p143
aVhttp://www.w3.org/2000/01/rdf-schema#comment
p144
aVhttp://dbpedia.org/ontology/abstract
p145
aVhttp://xmlns.com/foaf/0.1/depiction
p146
aVhttp://dbpedia.org/ontology/thumbnail
p147
assI17
(dp148
I0
(lp149
sI2
(lp150
sI3
(lp151
Vhttp://dbpedia.org/property/products
p152
aVhttp://dbpedia.org/ontology/product
p153
aVhttp://www.w3.org/1999/02/22-rdf-syntax-ns#type
p154
aVhttp://purl.org/dc/terms/subject
p155
aVhttp://dbpedia.org/ontology/wikiPageRedirects
p156
assI18
(dp157
I0
(lp158
Vhttp://dbpedia.org/ontology/abstract
p159
aVhttp://www.w3.org/1999/02/22-rdf-syntax-ns#type
p160
aVhttp://purl.org/dc/terms/subject
p161
aVhttp://www.w3.org/2000/01/rdf-schema#comment
p162
asI2
(lp163
sI3
(lp164
ssI19
(dp165
I0
(lp166
Vhttp://www.w3.org/1999/02/22-rdf-syntax-ns#type
p167
aVhttp://purl.org/dc/terms/subject
p168
aVhttp://www.w3.org/2000/01/rdf-schema#comment
p169
aVhttp://dbpedia.org/ontology/abstract
p170
aVhttp://dbpedia.org/property/wordnet_type
p171
aVhttp://dbpedia.org/property/caption
p172
asI2
(lp173
sI3
(lp174
ss.