(lp1
(lp2
(lp3
a(lp4
((lp5
Vhttp://www.w3.org/2002/07/owl#Thing
p6
aVhttp://dbpedia.org/ontology/Company
p7
aVhttp://www.ontologydesignpatterns.org/ont/dul/DUL.owl#Agent
p8
aVhttp://www.ontologydesignpatterns.org/ont/dul/DUL.owl#SocialPerson
p9
aVhttp://www.wikidata.org/entity/Q43229
p10
aVhttp://dbpedia.org/ontology/Agent
p11
aVhttp://dbpedia.org/ontology/Organisation
p12
aVhttp://schema.org/Organization
p13
aVhttp://dbpedia.org/class/yago/Abstraction100002137
p14
aVhttp://dbpedia.org/class/yago/Company108058098
p15
aVhttp://dbpedia.org/class/yago/Group100031264
p16
aVhttp://dbpedia.org/class/yago/Institution108053576
p17
aVhttp://dbpedia.org/class/yago/Organization108008335
p18
aVhttp://dbpedia.org/class/yago/SocialGroup107950920
p19
aVhttp://dbpedia.org/class/yago/YagoLegalActorGeo
p20
aVhttp://dbpedia.org/class/yago/CompaniesBasedInHelsinki
p21
aVhttp://dbpedia.org/class/yago/CompaniesEstablishedIn2005
p22
aVhttp://dbpedia.org/class/yago/CompaniesListedOnTheHelsinkiStockExchange
p23
aVhttp://dbpedia.org/class/yago/CompaniesOfFinland
p24
aVhttp://dbpedia.org/class/yago/YagoPermanentlyLocatedEntity
p25
aVhttp://dbpedia.org/class/yago/ManufacturingCompaniesOfFinland
p26
aVhttp://dbpedia.org/class/yago/YagoLegalActor
p27
aVhttp://dbpedia.org/resource/Cargotec
tp28
aa(lp29
a(lp30
((lp31
Vhttp://dbpedia.org/class/yago/Boundary108512259
p32
aVhttp://dbpedia.org/class/yago/Extremity108568978
p33
aVhttp://dbpedia.org/class/yago/Location100027167
p34
aVhttp://dbpedia.org/class/yago/Object100002684
p35
aVhttp://dbpedia.org/class/yago/Region108630039
p36
aVhttp://dbpedia.org/class/yago/YagoGeoEntity
p37
aVhttp://dbpedia.org/class/yago/YagoLegalActorGeo
p38
aVhttp://dbpedia.org/class/yago/Outline108612786
p39
aVhttp://dbpedia.org/class/yago/PhysicalEntity100001930
p40
aVhttp://dbpedia.org/class/yago/YagoPermanentlyLocatedEntity
p41
aVhttp://dbpedia.org/class/yago/Outlines
p42
aVhttp://dbpedia.org/resource/Outline_of_industrial_machinery
tp43
aaa(lp44
(lp45
a(lp46
((lp47
Vhttp://dbpedia.org/class/yago/Abstraction100002137
p48
aVhttp://dbpedia.org/class/yago/Cognition100023271
p49
aVhttp://dbpedia.org/class/yago/ProblemSolving105796750
p50
aVhttp://dbpedia.org/class/yago/Process105701363
p51
aVhttp://dbpedia.org/class/yago/Trial105799212
p52
aVhttp://dbpedia.org/class/yago/Experiment105798043
p53
aVhttp://dbpedia.org/class/yago/HigherCognitiveProcess105770664
p54
aVhttp://dbpedia.org/class/yago/Inquiry105797597
p55
aVhttp://dbpedia.org/class/yago/PsychologicalFeature100023100
p56
aVhttp://dbpedia.org/class/yago/Thinking105770926
p57
aVhttp://dbpedia.org/class/yago/ImmunologicTests
p58
aVhttp://dbpedia.org/resource/ELISA
tp59
aa(lp60
a(lp61
aa(lp62
(lp63
a(lp64
((lp65
Vhttp://www.w3.org/2002/07/owl#Thing
p66
aVhttp://dbpedia.org/ontology/Company
p67
aVhttp://www.ontologydesignpatterns.org/ont/dul/DUL.owl#Agent
p68
aVhttp://www.ontologydesignpatterns.org/ont/dul/DUL.owl#SocialPerson
p69
aVhttp://www.wikidata.org/entity/Q43229
p70
aVhttp://dbpedia.org/ontology/Agent
p71
aVhttp://dbpedia.org/ontology/Organisation
p72
aVhttp://schema.org/Organization
p73
aVhttp://umbel.org/umbel/rc/Business
p74
aVhttp://dbpedia.org/class/yago/Abstraction100002137
p75
aVhttp://dbpedia.org/class/yago/Company108058098
p76
aVhttp://dbpedia.org/class/yago/Group100031264
p77
aVhttp://dbpedia.org/class/yago/Institution108053576
p78
aVhttp://dbpedia.org/class/yago/Organization108008335
p79
aVhttp://dbpedia.org/class/yago/SocialGroup107950920
p80
aVhttp://dbpedia.org/class/yago/Utility108185758
p81
aVhttp://dbpedia.org/class/yago/YagoLegalActorGeo
p82
aVhttp://dbpedia.org/class/yago/CompaniesBasedInEspoo
p83
aVhttp://dbpedia.org/class/yago/CompaniesListedOnTheHelsinkiStockExchange
p84
aVhttp://dbpedia.org/class/yago/CompaniesOfFinland
p85
aVhttp://dbpedia.org/class/yago/PowerCompany108186393
p86
aVhttp://dbpedia.org/class/yago/YagoPermanentlyLocatedEntity
p87
aVhttp://dbpedia.org/class/yago/NuclearPowerCompanies
p88
aVhttp://dbpedia.org/class/yago/YagoLegalActor
p89
aVhttp://dbpedia.org/class/yago/PowerCompaniesOfFinland
p90
aVhttp://dbpedia.org/class/yago/PowerCompaniesOfNorway
p91
aVhttp://dbpedia.org/class/yago/Service108186047
p92
aVhttp://dbpedia.org/resource/Fortum
tp93
aa(lp94
a(lp95
((lp96
Vhttp://dbpedia.org/class/yago/Abstraction100002137
p97
aVhttp://dbpedia.org/class/yago/Company108058098
p98
aVhttp://dbpedia.org/class/yago/Group100031264
p99
aVhttp://dbpedia.org/class/yago/Institution108053576
p100
aVhttp://dbpedia.org/class/yago/Organization108008335
p101
aVhttp://dbpedia.org/class/yago/SocialGroup107950920
p102
aVhttp://dbpedia.org/class/yago/Utility108185758
p103
aVhttp://dbpedia.org/class/yago/YagoLegalActorGeo
p104
aVhttp://dbpedia.org/class/yago/ElectricUtilities
p105
aVhttp://dbpedia.org/class/yago/YagoPermanentlyLocatedEntity
p106
aVhttp://dbpedia.org/class/yago/YagoLegalActor
p107
aVhttp://dbpedia.org/class/yago/PublicUtilities
p108
aVhttp://dbpedia.org/class/yago/Service108186047
p109
aVhttp://dbpedia.org/resource/Electric_utility
tp110
aaa(lp111
(lp112
a(lp113
((lp114
Vhttp://www.w3.org/2002/07/owl#Thing
p115
aVhttp://dbpedia.org/ontology/Company
p116
aVhttp://www.ontologydesignpatterns.org/ont/dul/DUL.owl#Agent
p117
aVhttp://www.ontologydesignpatterns.org/ont/dul/DUL.owl#SocialPerson
p118
aVhttp://www.wikidata.org/entity/Q43229
p119
aVhttp://dbpedia.org/ontology/Agent
p120
aVhttp://dbpedia.org/ontology/Organisation
p121
aVhttp://schema.org/Organization
p122
aVhttp://umbel.org/umbel/rc/Business
p123
aVhttp://umbel.org/umbel/rc/Organization
p124
aVhttp://dbpedia.org/class/yago/Abstraction100002137
p125
aVhttp://dbpedia.org/class/yago/Company108058098
p126
aVhttp://dbpedia.org/class/yago/Group100031264
p127
aVhttp://dbpedia.org/class/yago/Institution108053576
p128
aVhttp://dbpedia.org/class/yago/Organization108008335
p129
aVhttp://dbpedia.org/class/yago/SocialGroup107950920
p130
aVhttp://dbpedia.org/class/yago/YagoLegalActorGeo
p131
aVhttp://dbpedia.org/class/yago/CompaniesBasedInHelsinki
p132
aVhttp://dbpedia.org/class/yago/CompaniesListedOnTheHelsinkiStockExchange
p133
aVhttp://dbpedia.org/class/yago/CompaniesOfFinland
p134
aVhttp://dbpedia.org/class/yago/YagoPermanentlyLocatedEntity
p135
aVhttp://dbpedia.org/class/yago/YagoLegalActor
p136
aVhttp://dbpedia.org/class/yago/RetailCompaniesOfFinland
p137
aVhttp://dbpedia.org/resource/Kesko
tp138
aa(lp139
a(lp140
aa(lp141
(lp142
a(lp143
((lp144
Vhttp://www.w3.org/2002/07/owl#Thing
p145
aVhttp://dbpedia.org/ontology/Company
p146
aVhttp://www.ontologydesignpatterns.org/ont/dul/DUL.owl#Agent
p147
aVhttp://www.ontologydesignpatterns.org/ont/dul/DUL.owl#SocialPerson
p148
aVhttp://www.wikidata.org/entity/Q43229
p149
aVhttp://dbpedia.org/ontology/Agent
p150
aVhttp://dbpedia.org/ontology/Organisation
p151
aVhttp://schema.org/Organization
p152
aVhttp://umbel.org/umbel/rc/Business
p153
aVhttp://umbel.org/umbel/rc/Organization
p154
aVhttp://dbpedia.org/class/yago/Abstraction100002137
p155
aVhttp://dbpedia.org/class/yago/Business108061042
p156
aVhttp://dbpedia.org/class/yago/Company108058098
p157
aVhttp://dbpedia.org/class/yago/Enterprise108056231
p158
aVhttp://dbpedia.org/class/yago/Group100031264
p159
aVhttp://dbpedia.org/class/yago/Institution108053576
p160
aVhttp://dbpedia.org/class/yago/Manufacturer108060446
p161
aVhttp://dbpedia.org/class/yago/Organization108008335
p162
aVhttp://dbpedia.org/class/yago/SocialGroup107950920
p163
aVhttp://dbpedia.org/class/yago/YagoLegalActorGeo
p164
aVhttp://dbpedia.org/class/yago/CompaniesEstablishedIn1910
p165
aVhttp://dbpedia.org/class/yago/CompaniesListedOnTheHelsinkiStockExchange
p166
aVhttp://dbpedia.org/class/yago/CompaniesOfFinland
p167
aVhttp://dbpedia.org/class/yago/ElevatorManufacturers
p168
aVhttp://dbpedia.org/class/yago/EscalatorManufacturers
p169
aVhttp://dbpedia.org/class/yago/YagoPermanentlyLocatedEntity
p170
aVhttp://dbpedia.org/class/yago/ManufacturingCompaniesOfFinland
p171
aVhttp://dbpedia.org/class/yago/YagoLegalActor
p172
aVhttp://dbpedia.org/resource/Kone
tp173
aa(lp174
a(lp175
((lp176
Vhttp://dbpedia.org/class/yago/Boundary108512259
p177
aVhttp://dbpedia.org/class/yago/Extremity108568978
p178
aVhttp://dbpedia.org/class/yago/Location100027167
p179
aVhttp://dbpedia.org/class/yago/Object100002684
p180
aVhttp://dbpedia.org/class/yago/Region108630039
p181
aVhttp://dbpedia.org/class/yago/YagoGeoEntity
p182
aVhttp://dbpedia.org/class/yago/YagoLegalActorGeo
p183
aVhttp://dbpedia.org/class/yago/Outline108612786
p184
aVhttp://dbpedia.org/class/yago/PhysicalEntity100001930
p185
aVhttp://dbpedia.org/class/yago/YagoPermanentlyLocatedEntity
p186
aVhttp://dbpedia.org/class/yago/Outlines
p187
aVhttp://dbpedia.org/resource/Outline_of_industrial_machinery
tp188
aaa(lp189
(lp190
a(lp191
((lp192
Vhttp://www.w3.org/2002/07/owl#Thing
p193
aVhttp://dbpedia.org/ontology/Company
p194
aVhttp://www.ontologydesignpatterns.org/ont/dul/DUL.owl#Agent
p195
aVhttp://www.ontologydesignpatterns.org/ont/dul/DUL.owl#SocialPerson
p196
aVhttp://www.wikidata.org/entity/Q43229
p197
aVhttp://dbpedia.org/ontology/Agent
p198
aVhttp://dbpedia.org/ontology/Organisation
p199
aVhttp://schema.org/Organization
p200
aVhttp://dbpedia.org/class/yago/Abstraction100002137
p201
aVhttp://dbpedia.org/class/yago/Company108058098
p202
aVhttp://dbpedia.org/class/yago/Group100031264
p203
aVhttp://dbpedia.org/class/yago/Institution108053576
p204
aVhttp://dbpedia.org/class/yago/Organization108008335
p205
aVhttp://dbpedia.org/class/yago/SocialGroup107950920
p206
aVhttp://dbpedia.org/class/yago/YagoLegalActorGeo
p207
aVhttp://dbpedia.org/class/yago/CompaniesEstablishedIn1994
p208
aVhttp://dbpedia.org/class/yago/CompaniesListedOnTheHelsinkiStockExchange
p209
aVhttp://dbpedia.org/class/yago/CompaniesOfFinland
p210
aVhttp://dbpedia.org/class/yago/EngineeringCompaniesOfFinland
p211
aVhttp://dbpedia.org/class/yago/YagoPermanentlyLocatedEntity
p212
aVhttp://dbpedia.org/class/yago/ManufacturingCompaniesOfFinland
p213
aVhttp://dbpedia.org/class/yago/YagoLegalActor
p214
aVhttp://dbpedia.org/resource/Konecranes
tp215
aa(lp216
a(lp217
((lp218
Vhttp://dbpedia.org/class/yago/Boundary108512259
p219
aVhttp://dbpedia.org/class/yago/Extremity108568978
p220
aVhttp://dbpedia.org/class/yago/Location100027167
p221
aVhttp://dbpedia.org/class/yago/Object100002684
p222
aVhttp://dbpedia.org/class/yago/Region108630039
p223
aVhttp://dbpedia.org/class/yago/YagoGeoEntity
p224
aVhttp://dbpedia.org/class/yago/YagoLegalActorGeo
p225
aVhttp://dbpedia.org/class/yago/Outline108612786
p226
aVhttp://dbpedia.org/class/yago/PhysicalEntity100001930
p227
aVhttp://dbpedia.org/class/yago/YagoPermanentlyLocatedEntity
p228
aVhttp://dbpedia.org/class/yago/Outlines
p229
aVhttp://dbpedia.org/resource/Outline_of_industrial_machinery
tp230
aaa(lp231
(lp232
a(lp233
((lp234
Vhttp://www.w3.org/2002/07/owl#Thing
p235
aVhttp://dbpedia.org/ontology/Company
p236
aVhttp://www.ontologydesignpatterns.org/ont/dul/DUL.owl#Agent
p237
aVhttp://www.ontologydesignpatterns.org/ont/dul/DUL.owl#SocialPerson
p238
aVhttp://www.wikidata.org/entity/Q43229
p239
aVhttp://dbpedia.org/ontology/Agent
p240
aVhttp://dbpedia.org/ontology/Organisation
p241
aVhttp://schema.org/Organization
p242
aVhttp://umbel.org/umbel/rc/Business
p243
aVhttp://dbpedia.org/class/yago/Abstraction100002137
p244
aVhttp://dbpedia.org/class/yago/Company108058098
p245
aVhttp://dbpedia.org/class/yago/Group100031264
p246
aVhttp://dbpedia.org/class/yago/Institution108053576
p247
aVhttp://dbpedia.org/class/yago/Organization108008335
p248
aVhttp://dbpedia.org/class/yago/SocialGroup107950920
p249
aVhttp://dbpedia.org/class/yago/YagoLegalActorGeo
p250
aVhttp://dbpedia.org/class/yago/CompaniesBasedInHelsinki
p251
aVhttp://dbpedia.org/class/yago/CompaniesEstablishedIn1999
p252
aVhttp://dbpedia.org/class/yago/CompaniesListedOnTheHelsinkiStockExchange
p253
aVhttp://dbpedia.org/class/yago/CompaniesOfFinland
p254
aVhttp://dbpedia.org/class/yago/EngineeringCompaniesOfFinland
p255
aVhttp://dbpedia.org/class/yago/YagoPermanentlyLocatedEntity
p256
aVhttp://dbpedia.org/class/yago/ManufacturingCompaniesOfFinland
p257
aVhttp://dbpedia.org/class/yago/MiningEquipmentCompanies
p258
aVhttp://dbpedia.org/class/yago/YagoLegalActor
p259
aVhttp://dbpedia.org/resource/Metso
tp260
aa(lp261
a(lp262
((lp263
Vhttp://dbpedia.org/class/yago/Boundary108512259
p264
aVhttp://dbpedia.org/class/yago/Extremity108568978
p265
aVhttp://dbpedia.org/class/yago/Location100027167
p266
aVhttp://dbpedia.org/class/yago/Object100002684
p267
aVhttp://dbpedia.org/class/yago/Region108630039
p268
aVhttp://dbpedia.org/class/yago/YagoGeoEntity
p269
aVhttp://dbpedia.org/class/yago/YagoLegalActorGeo
p270
aVhttp://dbpedia.org/class/yago/Outline108612786
p271
aVhttp://dbpedia.org/class/yago/PhysicalEntity100001930
p272
aVhttp://dbpedia.org/class/yago/YagoPermanentlyLocatedEntity
p273
aVhttp://dbpedia.org/class/yago/Outlines
p274
aVhttp://dbpedia.org/resource/Outline_of_industrial_machinery
tp275
aaa(lp276
(lp277
a(lp278
((lp279
Vhttp://www.w3.org/2002/07/owl#Thing
p280
aVhttp://dbpedia.org/ontology/Company
p281
aVhttp://www.ontologydesignpatterns.org/ont/dul/DUL.owl#Agent
p282
aVhttp://www.ontologydesignpatterns.org/ont/dul/DUL.owl#SocialPerson
p283
aVhttp://www.wikidata.org/entity/Q43229
p284
aVhttp://dbpedia.org/ontology/Agent
p285
aVhttp://dbpedia.org/ontology/Organisation
p286
aVhttp://schema.org/Organization
p287
aVhttp://umbel.org/umbel/rc/Business
p288
aVhttp://umbel.org/umbel/rc/Organization
p289
aVhttp://dbpedia.org/class/yago/Abstraction100002137
p290
aVhttp://dbpedia.org/class/yago/Company108058098
p291
aVhttp://dbpedia.org/class/yago/Group100031264
p292
aVhttp://dbpedia.org/class/yago/Institution108053576
p293
aVhttp://dbpedia.org/class/yago/OilCompany108069241
p294
aVhttp://dbpedia.org/class/yago/Organization108008335
p295
aVhttp://dbpedia.org/class/yago/SocialGroup107950920
p296
aVhttp://dbpedia.org/class/yago/YagoLegalActorGeo
p297
aVhttp://dbpedia.org/class/yago/CompaniesBasedInEspoo
p298
aVhttp://dbpedia.org/class/yago/CompaniesListedOnTheHelsinkiStockExchange
p299
aVhttp://dbpedia.org/class/yago/YagoPermanentlyLocatedEntity
p300
aVhttp://dbpedia.org/class/yago/OilCompaniesOfFinland
p301
aVhttp://dbpedia.org/class/yago/YagoLegalActor
p302
aVhttp://dbpedia.org/resource/Neste_Oil
tp303
aa(lp304
a(lp305
aa(lp306
(lp307
a(lp308
((lp309
Vhttp://www.w3.org/2002/07/owl#Thing
p310
aVhttp://dbpedia.org/ontology/Company
p311
aVhttp://www.ontologydesignpatterns.org/ont/dul/DUL.owl#Agent
p312
aVhttp://www.ontologydesignpatterns.org/ont/dul/DUL.owl#SocialPerson
p313
aVhttp://www.wikidata.org/entity/Q43229
p314
aVhttp://dbpedia.org/ontology/Agent
p315
aVhttp://dbpedia.org/ontology/Organisation
p316
aVhttp://schema.org/Organization
p317
aVhttp://umbel.org/umbel/rc/Business
p318
aVhttp://dbpedia.org/class/yago/Abstraction100002137
p319
aVhttp://dbpedia.org/class/yago/Business108061042
p320
aVhttp://dbpedia.org/class/yago/Company108058098
p321
aVhttp://dbpedia.org/class/yago/Enterprise108056231
p322
aVhttp://dbpedia.org/class/yago/Group100031264
p323
aVhttp://dbpedia.org/class/yago/Institution108053576
p324
aVhttp://dbpedia.org/class/yago/Manufacturer108060446
p325
aVhttp://dbpedia.org/class/yago/Organization108008335
p326
aVhttp://dbpedia.org/class/yago/SocialGroup107950920
p327
aVhttp://dbpedia.org/class/yago/TelephoneCompany108186221
p328
aVhttp://dbpedia.org/class/yago/Utility108185758
p329
aVhttp://dbpedia.org/class/yago/YagoLegalActorGeo
p330
aVhttp://dbpedia.org/class/yago/CompaniesBasedInEspoo
p331
aVhttp://dbpedia.org/class/yago/CompaniesEstablishedIn1865
p332
aVhttp://dbpedia.org/class/yago/CompaniesListedOnTheHelsinkiStockExchange
p333
aVhttp://dbpedia.org/class/yago/CompaniesOfFinland
p334
aVhttp://dbpedia.org/class/yago/DisplayTechnologyCompanies
p335
aVhttp://dbpedia.org/class/yago/ElectronicsCompaniesOfFinland
p336
aVhttp://dbpedia.org/class/yago/ElectronicsCompany108003035
p337
aVhttp://dbpedia.org/class/yago/YagoPermanentlyLocatedEntity
p338
aVhttp://dbpedia.org/class/yago/MobilePhoneCompaniesOfFinland
p339
aVhttp://dbpedia.org/class/yago/MobilePhoneManufacturers
p340
aVhttp://dbpedia.org/class/yago/YagoLegalActor
p341
aVhttp://dbpedia.org/class/yago/Service108186047
p342
aVhttp://dbpedia.org/resource/Nokia
tp343
aa(lp344
a(lp345
((lVhttp://dbpedia.org/resource/Telecommunications_equipment
tp346
aaa(lp347
(lp348
a(lp349
((lp350
Vhttp://www.w3.org/2002/07/owl#Thing
p351
aVhttp://dbpedia.org/ontology/Company
p352
aVhttp://www.ontologydesignpatterns.org/ont/dul/DUL.owl#Agent
p353
aVhttp://www.ontologydesignpatterns.org/ont/dul/DUL.owl#SocialPerson
p354
aVhttp://www.wikidata.org/entity/Q43229
p355
aVhttp://dbpedia.org/ontology/Agent
p356
aVhttp://dbpedia.org/ontology/Organisation
p357
aVhttp://schema.org/Organization
p358
aVhttp://umbel.org/umbel/rc/Business
p359
aVhttp://dbpedia.org/class/yago/Abstraction100002137
p360
aVhttp://dbpedia.org/class/yago/AutomotiveCompaniesOfFinland
p361
aVhttp://dbpedia.org/class/yago/Business108061042
p362
aVhttp://dbpedia.org/class/yago/Company108058098
p363
aVhttp://dbpedia.org/class/yago/Enterprise108056231
p364
aVhttp://dbpedia.org/class/yago/Group100031264
p365
aVhttp://dbpedia.org/class/yago/Institution108053576
p366
aVhttp://dbpedia.org/class/yago/Manufacturer108060446
p367
aVhttp://dbpedia.org/class/yago/Organization108008335
p368
aVhttp://dbpedia.org/class/yago/SocialGroup107950920
p369
aVhttp://dbpedia.org/class/yago/YagoLegalActorGeo
p370
aVhttp://dbpedia.org/class/yago/CompaniesEstablishedIn1988
p371
aVhttp://dbpedia.org/class/yago/CompaniesListedOnTheHelsinkiStockExchange
p372
aVhttp://dbpedia.org/class/yago/CompaniesOfFinland
p373
aVhttp://dbpedia.org/class/yago/CyclePartsManufacturers
p374
aVhttp://dbpedia.org/class/yago/YagoPermanentlyLocatedEntity
p375
aVhttp://dbpedia.org/class/yago/YagoLegalActor
p376
aVhttp://dbpedia.org/class/yago/TireManufacturers
p377
aVhttp://dbpedia.org/resource/Nokian_Tyres
tp378
aa(lp379
a(lp380
aa(lp381
(lp382
a(lp383
a(lp384
a(lp385
aa(lp386
(lp387
a(lp388
((lp389
Vhttp://www.w3.org/2002/07/owl#Thing
p390
aVhttp://dbpedia.org/ontology/Company
p391
aVhttp://www.ontologydesignpatterns.org/ont/dul/DUL.owl#Agent
p392
aVhttp://www.ontologydesignpatterns.org/ont/dul/DUL.owl#SocialPerson
p393
aVhttp://www.wikidata.org/entity/Q43229
p394
aVhttp://dbpedia.org/ontology/Agent
p395
aVhttp://dbpedia.org/ontology/Organisation
p396
aVhttp://schema.org/Organization
p397
aVhttp://umbel.org/umbel/rc/Business
p398
aVhttp://dbpedia.org/class/yago/Abstraction100002137
p399
aVhttp://dbpedia.org/class/yago/Company108058098
p400
aVhttp://dbpedia.org/class/yago/Group100031264
p401
aVhttp://dbpedia.org/class/yago/Institution108053576
p402
aVhttp://dbpedia.org/class/yago/Organization108008335
p403
aVhttp://dbpedia.org/class/yago/SocialGroup107950920
p404
aVhttp://dbpedia.org/class/yago/YagoLegalActorGeo
p405
aVhttp://dbpedia.org/class/yago/CompaniesBasedInEspoo
p406
aVhttp://dbpedia.org/class/yago/CompaniesEstablishedIn1917
p407
aVhttp://dbpedia.org/class/yago/CompaniesListedOnTheHelsinkiStockExchange
p408
aVhttp://dbpedia.org/class/yago/CompaniesOfFinland
p409
aVhttp://dbpedia.org/class/yago/DrugCompany108002578
p410
aVhttp://dbpedia.org/class/yago/YagoPermanentlyLocatedEntity
p411
aVhttp://dbpedia.org/class/yago/PharmaceuticalCompaniesOfFinland
p412
aVhttp://dbpedia.org/class/yago/YagoLegalActor
p413
aVhttp://dbpedia.org/resource/Orion_Corporation
tp414
aa(lp415
a(lp416
((lp417
Vhttp://www.w3.org/2002/07/owl#Thing
p418
aVhttp://dbpedia.org/resource/Pharmaceutical_drug
tp419
aaa(lp420
(lp421
a(lp422
((lp423
Vhttp://www.w3.org/2002/07/owl#Thing
p424
aVhttp://dbpedia.org/ontology/Company
p425
aVhttp://www.ontologydesignpatterns.org/ont/dul/DUL.owl#Agent
p426
aVhttp://www.ontologydesignpatterns.org/ont/dul/DUL.owl#SocialPerson
p427
aVhttp://www.wikidata.org/entity/Q43229
p428
aVhttp://dbpedia.org/ontology/Agent
p429
aVhttp://dbpedia.org/ontology/Organisation
p430
aVhttp://schema.org/Organization
p431
aVhttp://umbel.org/umbel/rc/Business
p432
aVhttp://umbel.org/umbel/rc/Organization
p433
aVhttp://dbpedia.org/class/yago/Abstraction100002137
p434
aVhttp://dbpedia.org/class/yago/Company108058098
p435
aVhttp://dbpedia.org/class/yago/Group100031264
p436
aVhttp://dbpedia.org/class/yago/Institution108053576
p437
aVhttp://dbpedia.org/class/yago/Organization108008335
p438
aVhttp://dbpedia.org/class/yago/SocialGroup107950920
p439
aVhttp://dbpedia.org/class/yago/YagoLegalActorGeo
p440
aVhttp://dbpedia.org/class/yago/CompaniesBasedInEspoo
p441
aVhttp://dbpedia.org/class/yago/CompaniesListedOnTheHelsinkiStockExchange
p442
aVhttp://dbpedia.org/class/yago/YagoPermanentlyLocatedEntity
p443
aVhttp://dbpedia.org/class/yago/MiningCompaniesOfFinland
p444
aVhttp://dbpedia.org/class/yago/MiningCompany108003619
p445
aVhttp://dbpedia.org/class/yago/YagoLegalActor
p446
aVhttp://dbpedia.org/class/yago/SteelCompaniesOfFinland
p447
aVhttp://dbpedia.org/class/yago/SteelCompany108003839
p448
aVhttp://dbpedia.org/resource/Outokumpu
tp449
aa(lp450
a(lp451
aa(lp452
(lp453
a(lp454
((lp455
Vhttp://www.w3.org/2002/07/owl#Thing
p456
aVhttp://dbpedia.org/ontology/Company
p457
aVhttp://www.ontologydesignpatterns.org/ont/dul/DUL.owl#Agent
p458
aVhttp://www.ontologydesignpatterns.org/ont/dul/DUL.owl#SocialPerson
p459
aVhttp://www.wikidata.org/entity/Q43229
p460
aVhttp://dbpedia.org/ontology/Agent
p461
aVhttp://dbpedia.org/ontology/Organisation
p462
aVhttp://schema.org/Organization
p463
aVhttp://umbel.org/umbel/rc/Business
p464
aVhttp://dbpedia.org/class/yago/Abstraction100002137
p465
aVhttp://dbpedia.org/class/yago/Company108058098
p466
aVhttp://dbpedia.org/class/yago/Group100031264
p467
aVhttp://dbpedia.org/class/yago/Institution108053576
p468
aVhttp://dbpedia.org/class/yago/Organization108008335
p469
aVhttp://dbpedia.org/class/yago/SocialGroup107950920
p470
aVhttp://dbpedia.org/class/yago/YagoLegalActorGeo
p471
aVhttp://dbpedia.org/class/yago/CompaniesBasedInEspoo
p472
aVhttp://dbpedia.org/class/yago/CompaniesListedOnTheHelsinkiStockExchange
p473
aVhttp://dbpedia.org/class/yago/EngineeringCompaniesOfFinland
p474
aVhttp://dbpedia.org/class/yago/YagoPermanentlyLocatedEntity
p475
aVhttp://dbpedia.org/class/yago/YagoLegalActor
p476
aVhttp://dbpedia.org/resource/Outotec
tp477
aa(lp478
a(lp479
aa(lp480
(lp481
a(lp482
((lp483
Vhttp://dbpedia.org/class/yago/Abstraction100002137
p484
aVhttp://dbpedia.org/class/yago/BanksOfFinland
p485
aVhttp://dbpedia.org/class/yago/BanksWithYearOfEstablishmentMissing
p486
aVhttp://dbpedia.org/class/yago/Company108058098
p487
aVhttp://dbpedia.org/class/yago/DepositoryFinancialInstitution108420278
p488
aVhttp://dbpedia.org/class/yago/FinancialInstitution108054721
p489
aVhttp://dbpedia.org/class/yago/Group100031264
p490
aVhttp://dbpedia.org/class/yago/Institution108053576
p491
aVhttp://dbpedia.org/class/yago/Organization108008335
p492
aVhttp://dbpedia.org/class/yago/SocialGroup107950920
p493
aVhttp://dbpedia.org/class/yago/YagoLegalActorGeo
p494
aVhttp://dbpedia.org/class/yago/CompaniesBasedInHelsinki
p495
aVhttp://dbpedia.org/class/yago/CompaniesOfFinland
p496
aVhttp://dbpedia.org/class/yago/YagoPermanentlyLocatedEntity
p497
aVhttp://dbpedia.org/class/yago/YagoLegalActor
p498
aVhttp://dbpedia.org/resource/OP-Pohjola_Group
tp499
aa(lp500
a(lp501
aa(lp502
(lp503
a(lp504
((lp505
Vhttp://www.w3.org/2002/07/owl#Thing
p506
aVhttp://dbpedia.org/ontology/Company
p507
aVhttp://www.ontologydesignpatterns.org/ont/dul/DUL.owl#Agent
p508
aVhttp://www.ontologydesignpatterns.org/ont/dul/DUL.owl#SocialPerson
p509
aVhttp://www.wikidata.org/entity/Q43229
p510
aVhttp://dbpedia.org/ontology/Agent
p511
aVhttp://dbpedia.org/ontology/Organisation
p512
aVhttp://schema.org/Organization
p513
aVhttp://dbpedia.org/class/yago/Abstraction100002137
p514
aVhttp://dbpedia.org/class/yago/Company108058098
p515
aVhttp://dbpedia.org/class/yago/Group100031264
p516
aVhttp://dbpedia.org/class/yago/Institution108053576
p517
aVhttp://dbpedia.org/class/yago/Organization108008335
p518
aVhttp://dbpedia.org/class/yago/SocialGroup107950920
p519
aVhttp://dbpedia.org/class/yago/YagoLegalActorGeo
p520
aVhttp://dbpedia.org/class/yago/CompaniesBasedInHelsinki
p521
aVhttp://dbpedia.org/class/yago/CompaniesListedOnTheHelsinkiStockExchange
p522
aVhttp://dbpedia.org/class/yago/CompaniesOfFinland
p523
aVhttp://dbpedia.org/class/yago/YagoPermanentlyLocatedEntity
p524
aVhttp://dbpedia.org/class/yago/ManufacturingCompaniesOfFinland
p525
aVhttp://dbpedia.org/class/yago/MetalsCompaniesOfFinland
p526
aVhttp://dbpedia.org/class/yago/YagoLegalActor
p527
aVhttp://dbpedia.org/class/yago/SteelCompaniesOfFinland
p528
aVhttp://dbpedia.org/class/yago/SteelCompany108003839
p529
aVhttp://dbpedia.org/resource/Rautaruukki
tp530
aa(lp531
a(lp532
aa(lp533
(lp534
a(lp535
((lp536
Vhttp://dbpedia.org/class/yago/Object100002684
p537
aVhttp://dbpedia.org/class/yago/PhysicalEntity100001930
p538
aVhttp://dbpedia.org/class/yago/MythologicalObjects
p539
aVhttp://dbpedia.org/resource/Sampo
tp540
aa(lp541
a(lp542
aa(lp543
(lp544
a(lp545
((lp546
Vhttp://www.w3.org/2002/07/owl#Thing
p547
aVhttp://dbpedia.org/ontology/Company
p548
aVhttp://www.ontologydesignpatterns.org/ont/dul/DUL.owl#Agent
p549
aVhttp://www.ontologydesignpatterns.org/ont/dul/DUL.owl#SocialPerson
p550
aVhttp://www.wikidata.org/entity/Q43229
p551
aVhttp://dbpedia.org/ontology/Agent
p552
aVhttp://dbpedia.org/ontology/Organisation
p553
aVhttp://schema.org/Organization
p554
aVhttp://umbel.org/umbel/rc/Business
p555
aVhttp://dbpedia.org/class/yago/Abstraction100002137
p556
aVhttp://dbpedia.org/class/yago/Business108061042
p557
aVhttp://dbpedia.org/class/yago/Company108058098
p558
aVhttp://dbpedia.org/class/yago/Enterprise108056231
p559
aVhttp://dbpedia.org/class/yago/Firm108059870
p560
aVhttp://dbpedia.org/class/yago/Group100031264
p561
aVhttp://dbpedia.org/class/yago/Institution108053576
p562
aVhttp://dbpedia.org/class/yago/Organization108008335
p563
aVhttp://dbpedia.org/class/yago/Publisher108062623
p564
aVhttp://dbpedia.org/class/yago/SocialGroup107950920
p565
aVhttp://dbpedia.org/class/yago/YagoLegalActorGeo
p566
aVhttp://dbpedia.org/class/yago/CompaniesBasedInHelsinki
p567
aVhttp://dbpedia.org/class/yago/CompaniesEstablishedIn1999
p568
aVhttp://dbpedia.org/class/yago/CompaniesListedOnTheHelsinkiStockExchange
p569
aVhttp://dbpedia.org/class/yago/CompaniesOfFinland
p570
aVhttp://dbpedia.org/class/yago/YagoPermanentlyLocatedEntity
p571
aVhttp://dbpedia.org/class/yago/MediaCompaniesOfFinland
p572
aVhttp://dbpedia.org/class/yago/YagoLegalActor
p573
aVhttp://dbpedia.org/class/yago/PublishingCompaniesEstablishedInThe1990s
p574
aVhttp://dbpedia.org/resource/Sanoma
tp575
aa(lp576
a(lp577
aa(lp578
(lp579
a(lp580
((lp581
Vhttp://www.w3.org/2002/07/owl#Thing
p582
aVhttp://dbpedia.org/ontology/Company
p583
aVhttp://www.ontologydesignpatterns.org/ont/dul/DUL.owl#Agent
p584
aVhttp://www.ontologydesignpatterns.org/ont/dul/DUL.owl#SocialPerson
p585
aVhttp://www.wikidata.org/entity/Q43229
p586
aVhttp://dbpedia.org/ontology/Agent
p587
aVhttp://dbpedia.org/ontology/Organisation
p588
aVhttp://schema.org/Organization
p589
aVhttp://umbel.org/umbel/rc/Business
p590
aVhttp://umbel.org/umbel/rc/Organization
p591
aVhttp://dbpedia.org/class/yago/Abstraction100002137
p592
aVhttp://dbpedia.org/class/yago/Company108058098
p593
aVhttp://dbpedia.org/class/yago/Group100031264
p594
aVhttp://dbpedia.org/class/yago/Institution108053576
p595
aVhttp://dbpedia.org/class/yago/Organization108008335
p596
aVhttp://dbpedia.org/class/yago/SocialGroup107950920
p597
aVhttp://dbpedia.org/class/yago/YagoLegalActorGeo
p598
aVhttp://dbpedia.org/class/yago/CompaniesBasedInHelsinki
p599
aVhttp://dbpedia.org/class/yago/CompaniesEstablishedIn1998
p600
aVhttp://dbpedia.org/class/yago/CompaniesListedOnTheHelsinkiStockExchange
p601
aVhttp://dbpedia.org/class/yago/CompaniesOfSweden
p602
aVhttp://dbpedia.org/class/yago/CompaniesRelatedToTheWallenbergFamily
p603
aVhttp://dbpedia.org/class/yago/YagoPermanentlyLocatedEntity
p604
aVhttp://dbpedia.org/class/yago/YagoLegalActor
p605
aVhttp://dbpedia.org/resource/Stora_Enso
p606
tp607
aa(lp608
a(lp609
aa.