(lp1
(dp2
I0
(dp3
I0
(lp4
sI1
(lp5
Vhttp://www.w3.org/1999/02/22-rdf-syntax-ns#type
p6
aVhttp://www.w3.org/2000/01/rdf-schema#comment
p7
aVhttp://dbpedia.org/ontology/abstract
p8
aVhttp://dbpedia.org/property/wordnet_type
p9
aVhttp://purl.org/voc/vrank#hasRank
p10
aVhttp://www.w3.org/2002/07/owl#sameAs
p11
asI2
(lp12
sI3
(lp13
Vhttp://www.w3.org/ns/prov#wasDerivedFrom
p14
aVhttp://purl.org/voc/vrank#hasRank
p15
aVhttp://www.w3.org/1999/02/22-rdf-syntax-ns#type
p16
aVhttp://www.w3.org/2002/07/owl#sameAs
p17
assI1
(dp18
I0
g5
sI1
(lp19
sI2
(lp20
sI3
(lp21
Vhttp://dbpedia.org/property/industry
p22
assI2
(dp23
I0
g12
sI1
g20
sI2
(lp24
sI3
(lp25
ssI3
(dp26
I0
g13
sI1
g21
sI2
g25
sI3
(lp27
ssa(dp28
I0
(dp29
I0
(lp30
sI1
(lp31
Vhttp://www.w3.org/1999/02/22-rdf-syntax-ns#type
p32
aVhttp://purl.org/dc/terms/subject
p33
aVhttp://dbpedia.org/ontology/equity
p34
aVhttp://dbpedia.org/ontology/abstract
p35
aVhttp://www.w3.org/2000/01/rdf-schema#comment
p36
aVhttp://dbpedia.org/property/cableServ
p37
aVhttp://purl.org/voc/vrank#hasRank
p38
aVhttp://dbpedia.org/property/operatingIncome
p39
aVhttp://dbpedia.org/property/assets
p40
aVhttp://www.w3.org/ns/prov#wasDerivedFrom
p41
aVhttp://dbpedia.org/ontology/operatingIncome
p42
aVhttp://dbpedia.org/ontology/assets
p43
aVhttp://www.w3.org/2002/07/owl#sameAs
p44
aVhttp://dbpedia.org/property/equity
p45
asI2
(lp46
sI3
(lp47
ssI1
(dp48
I0
g31
sI1
(lp49
sI2
(lp50
sI3
(lp51
ssI2
(dp52
I0
g46
sI1
g50
sI2
(lp53
sI3
(lp54
ssI3
(dp55
I0
g47
sI1
g51
sI2
g54
sI3
(lp56
ssa(dp57
I0
(dp58
I0
(lp59
sI1
(lp60
Vhttp://www.w3.org/1999/02/22-rdf-syntax-ns#type
p61
aVhttp://www.w3.org/2000/01/rdf-schema#comment
p62
aVhttp://dbpedia.org/ontology/abstract
p63
aVhttp://dbpedia.org/property/wordnet_type
p64
aVhttp://www.w3.org/ns/prov#wasDerivedFrom
p65
aVhttp://dbpedia.org/ontology/thumbnail
p66
aVhttp://dbpedia.org/property/owner
p67
aVhttp://dbpedia.org/property/hasPhotoCollection
p68
aVhttp://www.w3.org/2002/07/owl#sameAs
p69
asI2
(lp70
sI3
(lp71
Vhttp://www.w3.org/ns/prov#wasDerivedFrom
p72
aVhttp://dbpedia.org/property/hasPhotoCollection
p73
aVhttp://www.w3.org/1999/02/22-rdf-syntax-ns#type
p74
aVhttp://dbpedia.org/property/industry
p75
aVhttp://www.w3.org/2002/07/owl#sameAs
p76
assI1
(dp77
I0
g60
sI1
(lp78
sI2
(lp79
sI3
(lp80
ssI2
(dp81
I0
g70
sI1
g79
sI2
(lp82
sI3
(lp83
ssI3
(dp84
I0
g71
sI1
g80
sI2
g83
sI3
(lp85
ssa(dp86
I0
(dp87
I0
(lp88
sI1
(lp89
Vhttp://www.w3.org/1999/02/22-rdf-syntax-ns#type
p90
aVhttp://purl.org/dc/terms/subject
p91
aVhttp://www.w3.org/2000/01/rdf-schema#comment
p92
aVhttp://dbpedia.org/ontology/abstract
p93
aVhttp://dbpedia.org/property/equityRatio
p94
aVhttp://dbpedia.org/property/operatingIncome
p95
aVhttp://dbpedia.org/ontology/operatingIncome
p96
asI2
(lp97
sI3
(lp98
ssI1
(dp99
I0
g89
sI1
(lp100
sI2
(lp101
sI3
(lp102
ssI2
(dp103
I0
g97
sI1
g101
sI2
(lp104
sI3
(lp105
ssI3
(dp106
I0
g98
sI1
g102
sI2
g105
sI3
(lp107
ssa(dp108
I0
(dp109
I0
(lp110
sI1
(lp111
Vhttp://dbpedia.org/ontology/wikiPageExternalLink
p112
aVhttp://www.w3.org/1999/02/22-rdf-syntax-ns#type
p113
aVhttp://www.w3.org/2000/01/rdf-schema#comment
p114
aVhttp://dbpedia.org/ontology/abstract
p115
aVhttp://dbpedia.org/ontology/equity
p116
aVhttp://dbpedia.org/property/operatingIncome
p117
aVhttp://dbpedia.org/property/hasPhotoCollection
p118
aVhttp://dbpedia.org/ontology/operatingIncome
p119
aVhttp://dbpedia.org/ontology/assets
p120
aVhttp://www.w3.org/2002/07/owl#sameAs
p121
asI2
(lp122
sI3
(lp123
Vhttp://www.w3.org/ns/prov#wasDerivedFrom
p124
aVhttp://dbpedia.org/property/hasPhotoCollection
p125
aVhttp://www.w3.org/1999/02/22-rdf-syntax-ns#type
p126
aVhttp://www.w3.org/2002/07/owl#sameAs
p127
assI1
(dp128
I0
g111
sI1
(lp129
sI2
(lp130
Vhttp://dbpedia.org/ontology/abstract
p131
aVhttp://www.w3.org/2000/01/rdf-schema#comment
p132
asI3
(lp133
ssI2
(dp134
I0
g122
sI1
g130
sI2
(lp135
sI3
(lp136
ssI3
(dp137
I0
g123
sI1
g133
sI2
g136
sI3
(lp138
ssa(dp139
I0
(dp140
I0
(lp141
sI1
(lp142
Vhttp://www.w3.org/1999/02/22-rdf-syntax-ns#type
p143
aVhttp://www.w3.org/2000/01/rdf-schema#comment
p144
aVhttp://dbpedia.org/ontology/abstract
p145
aVhttp://dbpedia.org/property/wordnet_type
p146
aVhttp://www.w3.org/ns/prov#wasDerivedFrom
p147
aVhttp://www.w3.org/2002/07/owl#sameAs
p148
asI2
(lp149
sI3
(lp150
Vhttp://www.w3.org/ns/prov#wasDerivedFrom
p151
aVhttp://www.w3.org/1999/02/22-rdf-syntax-ns#type
p152
aVhttp://www.w3.org/2002/07/owl#sameAs
p153
assI1
(dp154
I0
g142
sI1
(lp155
sI2
(lp156
sI3
(lp157
ssI2
(dp158
I0
g149
sI1
g156
sI2
(lp159
sI3
(lp160
ssI3
(dp161
I0
g150
sI1
g157
sI2
g160
sI3
(lp162
ssa(dp163
I0
(dp164
I0
(lp165
sI1
(lp166
Vhttp://www.w3.org/1999/02/22-rdf-syntax-ns#type
p167
aVhttp://dbpedia.org/ontology/revenue
p168
aVhttp://dbpedia.org/property/assets
p169
aVhttp://dbpedia.org/property/profit
p170
aVhttp://dbpedia.org/ontology/assets
p171
aVhttp://dbpedia.org/property/revenue
p172
asI2
(lp173
sI3
(lp174
Vhttp://www.w3.org/ns/prov#wasDerivedFrom
p175
aVhttp://purl.org/voc/vrank#hasRank
p176
aVhttp://www.w3.org/1999/02/22-rdf-syntax-ns#type
p177
aVhttp://www.w3.org/2002/07/owl#sameAs
p178
assI1
(dp179
I0
g166
sI1
(lp180
sI2
(lp181
Vhttp://dbpedia.org/ontology/abstract
p182
aVhttp://www.w3.org/2000/01/rdf-schema#comment
p183
asI3
(lp184
ssI2
(dp185
I0
g173
sI1
g181
sI2
(lp186
sI3
(lp187
ssI3
(dp188
I0
g174
sI1
g184
sI2
g187
sI3
(lp189
ssa(dp190
I0
(dp191
I0
(lp192
sI1
(lp193
Vhttp://www.w3.org/1999/02/22-rdf-syntax-ns#type
p194
aVhttp://purl.org/dc/terms/subject
p195
aVhttp://www.w3.org/2000/01/rdf-schema#comment
p196
aVhttp://dbpedia.org/ontology/abstract
p197
aVhttp://purl.org/voc/vrank#hasRank
p198
aVhttp://dbpedia.org/property/operatingIncome
p199
aVhttp://dbpedia.org/ontology/operatingIncome
p200
asI2
(lp201
sI3
(lp202
ssI1
(dp203
I0
g193
sI1
(lp204
sI2
(lp205
sI3
(lp206
ssI2
(dp207
I0
g201
sI1
g205
sI2
(lp208
sI3
(lp209
ssI3
(dp210
I0
g202
sI1
g206
sI2
g209
sI3
(lp211
ssa(dp212
I0
(dp213
I0
(lp214
sI1
(lp215
Vhttp://www.w3.org/1999/02/22-rdf-syntax-ns#type
p216
aVhttp://dbpedia.org/property/manufacturer
p217
aVhttp://www.w3.org/2000/01/rdf-schema#comment
p218
aVhttp://dbpedia.org/ontology/abstract
p219
aVhttp://dbpedia.org/ontology/equity
p220
aVhttp://dbpedia.org/ontology/wikiPageRedirects
p221
aVhttp://dbpedia.org/property/equity
p222
aVhttp://dbpedia.org/property/netIncome
p223
aVhttp://dbpedia.org/property/operatingIncome
p224
aVhttp://dbpedia.org/ontology/netIncome
p225
aVhttp://dbpedia.org/ontology/operatingIncome
p226
aVhttp://www.w3.org/2002/07/owl#sameAs
p227
aVhttp://dbpedia.org/ontology/manufacturer
p228
asI2
(lp229
sI3
(lp230
Vhttp://dbpedia.org/ontology/abstract
p231
aVhttp://www.w3.org/2002/07/owl#sameAs
p232
aVhttp://www.w3.org/2000/01/rdf-schema#comment
p233
assI1
(dp234
I0
g215
sI1
(lp235
sI2
(lp236
sI3
(lp237
ssI2
(dp238
I0
g229
sI1
g236
sI2
(lp239
sI3
(lp240
ssI3
(dp241
I0
g230
sI1
g237
sI2
g240
sI3
(lp242
ssa(dp243
I0
(dp244
I0
(lp245
sI1
(lp246
Vhttp://www.w3.org/1999/02/22-rdf-syntax-ns#type
p247
asI2
(lp248
sI3
(lp249
ssI1
(dp250
I0
g246
sI1
(lp251
sI2
(lp252
sI3
(lp253
ssI2
(dp254
I0
g248
sI1
g252
sI2
(lp255
sI3
(lp256
ssI3
(dp257
I0
g249
sI1
g253
sI2
g256
sI3
(lp258
ssa(dp259
I0
(dp260
I0
(lp261
sI1
(lp262
sI2
(lp263
sI3
(lp264
ssI1
(dp265
I0
g262
sI1
(lp266
sI2
(lp267
sI3
(lp268
ssI2
(dp269
I0
g263
sI1
g267
sI2
(lp270
sI3
(lp271
ssI3
(dp272
I0
g264
sI1
g268
sI2
g271
sI3
(lp273
ssa(dp274
I0
(dp275
I0
(lp276
sI1
(lp277
Vhttp://www.w3.org/1999/02/22-rdf-syntax-ns#type
p278
asI2
(lp279
sI3
(lp280
Vhttp://dbpedia.org/ontology/abstract
p281
aVhttp://xmlns.com/foaf/0.1/depiction
p282
aVhttp://dbpedia.org/ontology/thumbnail
p283
aVhttp://www.w3.org/2002/07/owl#sameAs
p284
assI1
(dp285
I0
g277
sI1
(lp286
sI2
(lp287
sI3
(lp288
Vhttp://dbpedia.org/property/products
p289
assI2
(dp290
I0
g279
sI1
g287
sI2
(lp291
sI3
(lp292
ssI3
(dp293
I0
g280
sI1
g288
sI2
g292
sI3
(lp294
ssa(dp295
I0
(dp296
I0
(lp297
sI1
(lp298
Vhttp://www.w3.org/1999/02/22-rdf-syntax-ns#type
p299
asI2
(lp300
sI3
(lp301
ssI1
(dp302
I0
g298
sI1
(lp303
sI2
(lp304
sI3
(lp305
Vhttp://dbpedia.org/property/industry
p306
aVhttp://www.w3.org/1999/02/22-rdf-syntax-ns#type
p307
aVhttp://purl.org/dc/terms/subject
p308
aVhttp://www.w3.org/2000/01/rdf-schema#comment
p309
aVhttp://dbpedia.org/ontology/abstract
p310
aVhttp://dbpedia.org/property/products
p311
aVhttp://dbpedia.org/ontology/industry
p312
aVhttp://dbpedia.org/ontology/product
p313
assI2
(dp314
I0
g300
sI1
g304
sI2
(lp315
sI3
(lp316
ssI3
(dp317
I0
g301
sI1
g305
sI2
g316
sI3
(lp318
ssa(dp319
I0
(dp320
I0
(lp321
sI1
(lp322
sI2
(lp323
sI3
(lp324
ssI1
(dp325
I0
g322
sI1
(lp326
sI2
(lp327
sI3
(lp328
ssI2
(dp329
I0
g323
sI1
g327
sI2
(lp330
sI3
(lp331
ssI3
(dp332
I0
g324
sI1
g328
sI2
g331
sI3
(lp333
ssa(dp334
I0
(dp335
I0
(lp336
sI1
(lp337
sI2
(lp338
sI3
(lp339
ssI1
(dp340
I0
g337
sI1
(lp341
sI2
(lp342
sI3
(lp343
ssI2
(dp344
I0
g338
sI1
g342
sI2
(lp345
sI3
(lp346
ssI3
(dp347
I0
g339
sI1
g343
sI2
g346
sI3
(lp348
ssa(dp349
I0
(dp350
I0
(lp351
sI1
(lp352
Vhttp://dbpedia.org/ontology/wikiPageExternalLink
p353
asI2
(lp354
sI3
(lp355
ssI1
(dp356
I0
g352
sI1
(lp357
sI2
(lp358
sI3
(lp359
Vhttp://www.w3.org/1999/02/22-rdf-syntax-ns#type
p360
aVhttp://purl.org/dc/terms/subject
p361
aVhttp://www.w3.org/2000/01/rdf-schema#comment
p362
aVhttp://dbpedia.org/ontology/abstract
p363
aVhttp://xmlns.com/foaf/0.1/depiction
p364
aVhttp://dbpedia.org/ontology/thumbnail
p365
assI2
(dp366
I0
g354
sI1
g358
sI2
(lp367
sI3
(lp368
ssI3
(dp369
I0
g355
sI1
g359
sI2
g368
sI3
(lp370
ssa(dp371
I0
(dp372
I0
(lp373
sI1
(lp374
sI2
(lp375
sI3
(lp376
ssI1
(dp377
I0
g374
sI1
(lp378
sI2
(lp379
sI3
(lp380
ssI2
(dp381
I0
g375
sI1
g379
sI2
(lp382
sI3
(lp383
ssI3
(dp384
I0
g376
sI1
g380
sI2
g383
sI3
(lp385
ssa(dp386
I0
(dp387
I0
(lp388
sI1
(lp389
sI2
(lp390
sI3
(lp391
ssI1
(dp392
I0
g389
sI1
(lp393
sI2
(lp394
sI3
(lp395
Vhttp://purl.org/dc/terms/subject
p396
aVhttp://dbpedia.org/ontology/product
p397
aVhttp://www.w3.org/1999/02/22-rdf-syntax-ns#type
p398
aVhttp://dbpedia.org/property/products
p399
aVhttp://dbpedia.org/ontology/wikiPageRedirects
p400
assI2
(dp401
I0
g390
sI1
g394
sI2
(lp402
sI3
(lp403
ssI3
(dp404
I0
g391
sI1
g395
sI2
g403
sI3
(lp405
ssa(dp406
I0
(dp407
I0
(lp408
sI1
(lp409
Vhttp://dbpedia.org/ontology/abstract
p410
aVhttp://www.w3.org/1999/02/22-rdf-syntax-ns#type
p411
aVhttp://purl.org/dc/terms/subject
p412
aVhttp://www.w3.org/2000/01/rdf-schema#comment
p413
asI2
(lp414
sI3
(lp415
ssI1
(dp416
I0
g409
sI1
(lp417
sI2
(lp418
sI3
(lp419
ssI2
(dp420
I0
g414
sI1
g418
sI2
(lp421
sI3
(lp422
ssI3
(dp423
I0
g415
sI1
g419
sI2
g422
sI3
(lp424
ssa(dp425
I0
(dp426
I0
(lp427
sI1
(lp428
Vhttp://www.w3.org/1999/02/22-rdf-syntax-ns#type
p429
aVhttp://purl.org/dc/terms/subject
p430
aVhttp://www.w3.org/2000/01/rdf-schema#comment
p431
aVhttp://dbpedia.org/ontology/abstract
p432
aVhttp://dbpedia.org/property/wordnet_type
p433
aVhttp://dbpedia.org/property/caption
p434
asI2
(lp435
sI3
(lp436
ssI1
(dp437
I0
g428
sI1
(lp438
sI2
(lp439
sI3
(lp440
ssI2
(dp441
I0
g435
sI1
g439
sI2
(lp442
sI3
(lp443
ssI3
(dp444
I0
g436
sI1
g440
sI2
g443
sI3
(lp445
ssa.