ccollections
defaultdict
p1
(c__builtin__
dict
p2
tRp3
I19
(dp4
I1
(lp5
sI2
(lp6
ssI9
(dp7
I1
(lp8
Vhttp://dbpedia.org/ontology/abstract
p9
aVhttp://www.w3.org/1999/02/22-rdf-syntax-ns#type
p10
aVhttp://purl.org/dc/terms/subject
p11
aVhttp://dbpedia.org/ontology/product
p12
asI2
(lp13
ssI3
(dp14
I1
(lp15
sI2
(lp16
ssI14
(dp17
I1
(lp18
sI2
(lp19
ssI7
(dp20
I1
(lp21
sI2
(lp22
ss.