(lp1
(lp2
(lp3
a(lp4
a(lp5
aa(lp6
(lp7
a(lp8
a(lp9
aa(lp10
(lp11
Vhttp://dbpedia.org/resource/Cul-de-sac_(disambiguation)
p12
aa(lp13
a(lp14
aa(lp15
(lp16
Vhttp://dbpedia.org/resource/Tide_pool
p17
aa(lp18
a(lp19
aa(lp20
(lp21
Vhttp://dbpedia.org/resource/Custom_Builder
p22
aa(lp23
a(lp24
aa(lp25
(lp26
a(lp27
a(lp28
aa(lp29
(lp30
Vhttp://dbpedia.org/resource/Basement
p31
aa(lp32
a(lp33
aa(lp34
(lp35
a(lp36
a(lp37
aa(lp38
(lp39
Vhttp://dbpedia.org/resource/Loft
p40
aa(lp41
a(lp42
aa(lp43
(lp44
Vhttp://dbpedia.org/resource/Ranch1
p45
aa(lp46
a(lp47
aa(lp48
(lp49
Vhttp://dbpedia.org/resource/Golf_course
p50
aa(lp51
a(lp52
aa(lp53
(lp54
Vhttp://dbpedia.org/resource/Lake_View,_Mississippi
p55
aa(lp56
a(lp57
aa(lp58
(lp59
Vhttp://dbpedia.org/resource/Farm
p60
aa(lp61
a(lp62
aa(lp63
(lp64
Vhttp://dbpedia.org/resource/Foreclosure
p65
aa(lp66
a(lp67
aa(lp68
(lp69
Vhttp://dbpedia.org/resource/Tennis_court
p70
aa(lp71
a(lp72
aa.