(lp1
(lp2
(dp3
Vstart
p4
I0
sVdisambiguatedURL
p5
NsVnamedEntity
p6
Vc. lewis
p7
sVoffset
p8
I8
saa(lp9
(dp10
Vstart
p11
I0
sVdisambiguatedURL
p12
NsVnamedEntity
p13
Vj. recupero
p14
sVoffset
p15
I11
saa(lp16
(dp17
Vstart
p18
I0
sVdisambiguatedURL
p19
NsVnamedEntity
p20
Vj. zitarelli
p21
sVoffset
p22
I12
saa(lp23
(dp24
Vstart
p25
I0
sVdisambiguatedURL
p26
NsVnamedEntity
p27
Vp. kinch
p28
sVoffset
p29
I8
saa(lp30
(dp31
Vstart
p32
I0
sVdisambiguatedURL
p33
NsVnamedEntity
p34
Vf. reluzco
p35
sVoffset
p36
I10
saa(lp37
(dp38
Vstart
p39
I0
sVdisambiguatedURL
p40
NsVnamedEntity
p41
Vb. snow
p42
sVoffset
p43
I7
saa(lp44
(dp45
Vstart
p46
I0
sVdisambiguatedURL
p47
NsVnamedEntity
p48
Vr. seifert
p49
sVoffset
p50
I10
saa(lp51
(dp52
Vstart
p53
I0
sVdisambiguatedURL
p54
NsVnamedEntity
p55
Vtj laessig
p56
sVoffset
p57
I10
saa(lp58
(dp59
Vstart
p60
I0
sVdisambiguatedURL
p61
NsVnamedEntity
p62
Vn. laessig
p63
sVoffset
p64
I10
saa(lp65
(dp66
Vstart
p67
I0
sVdisambiguatedURL
p68
NsVnamedEntity
p69
Vf. linge
p70
sVoffset
p71
I8
saa.