(lp1
(lp2
(dp3
Vstart
p4
I0
sVdisambiguatedURL
p5
Vhttp://dbpedia.org/resource/Customer_service
p6
sVnamedEntity
p7
Vcustomer service:
p8
sVoffset
p9
I17
saa(lp10
(dp11
Vstart
p12
I0
sVdisambiguatedURL
p13
NsVnamedEntity
p14
Vyour account:
p15
sVoffset
p16
I13
saa(lp17
(dp18
Vstart
p19
I0
sVdisambiguatedURL
p20
NsVnamedEntity
p21
Vyour order code:
p22
sVoffset
p23
I16
saa.