(lp1
(dp2
I0
(dp3
I0
(lp4
sI1
(lp5
sI2
(lp6
sI3
(lp7
ssI1
(dp8
I0
g5
sI1
(lp9
sI2
(lp10
Vhttp://dbpedia.org/ontology/abstract
p11
aVhttp://www.w3.org/1999/02/22-rdf-syntax-ns#type
p12
aVhttp://www.w3.org/2002/07/owl#sameAs
p13
aVhttp://www.w3.org/2000/01/rdf-schema#comment
p14
asI3
(lp15
ssI2
(dp16
I0
g6
sI1
g10
sI2
(lp17
sI3
(lp18
Vhttp://dbpedia.org/ontology/abstract
p19
aVhttp://www.w3.org/2000/01/rdf-schema#comment
p20
assI3
(dp21
I0
g7
sI1
g15
sI2
g18
sI3
(lp22
ssa(dp23
I0
(dp24
I0
(lp25
sI1
(lp26
sI2
(lp27
sI3
(lp28
ssI1
(dp29
I0
g26
sI1
(lp30
sI2
(lp31
sI3
(lp32
ssI2
(dp33
I0
g27
sI1
g31
sI2
(lp34
sI3
(lp35
ssI3
(dp36
I0
g28
sI1
g32
sI2
g35
sI3
(lp37
ssa(dp38
I0
(dp39
I0
(lp40
sI1
(lp41
sI2
(lp42
sI3
(lp43
ssI1
(dp44
I0
g41
sI1
(lp45
sI2
(lp46
Vhttp://www.w3.org/ns/prov#wasDerivedFrom
p47
aVhttp://dbpedia.org/ontology/wikiPageExternalLink
p48
aVhttp://www.w3.org/1999/02/22-rdf-syntax-ns#type
p49
aVhttp://purl.org/voc/vrank#hasRank
p50
asI3
(lp51
ssI2
(dp52
I0
g42
sI1
g46
sI2
(lp53
sI3
(lp54
ssI3
(dp55
I0
g43
sI1
g51
sI2
g54
sI3
(lp56
ssa(dp57
I0
(dp58
I0
(lp59
sI1
(lp60
sI2
(lp61
sI3
(lp62
ssI1
(dp63
I0
g60
sI1
(lp64
sI2
(lp65
Vhttp://www.w3.org/ns/prov#wasDerivedFrom
p66
aVhttp://dbpedia.org/ontology/wikiPageExternalLink
p67
aVhttp://www.w3.org/1999/02/22-rdf-syntax-ns#type
p68
aVhttp://purl.org/voc/vrank#hasRank
p69
asI3
(lp70
ssI2
(dp71
I0
g61
sI1
g65
sI2
(lp72
sI3
(lp73
ssI3
(dp74
I0
g62
sI1
g70
sI2
g73
sI3
(lp75
ssa(dp76
I0
(dp77
I0
(lp78
sI1
(lp79
sI2
(lp80
sI3
(lp81
ssI1
(dp82
I0
g79
sI1
(lp83
sI2
(lp84
sI3
(lp85
ssI2
(dp86
I0
g80
sI1
g84
sI2
(lp87
sI3
(lp88
ssI3
(dp89
I0
g81
sI1
g85
sI2
g88
sI3
(lp90
ssa(dp91
I0
(dp92
I0
(lp93
sI1
(lp94
sI2
(lp95
sI3
(lp96
ssI1
(dp97
I0
g94
sI1
(lp98
sI2
(lp99
Vhttp://www.w3.org/ns/prov#wasDerivedFrom
p100
aVhttp://dbpedia.org/ontology/wikiPageExternalLink
p101
aVhttp://www.w3.org/1999/02/22-rdf-syntax-ns#type
p102
aVhttp://purl.org/voc/vrank#hasRank
p103
asI3
(lp104
ssI2
(dp105
I0
g95
sI1
g99
sI2
(lp106
sI3
(lp107
Vhttp://dbpedia.org/ontology/abstract
p108
aVhttp://www.w3.org/2000/01/rdf-schema#comment
p109
assI3
(dp110
I0
g96
sI1
g104
sI2
g107
sI3
(lp111
ssa(dp112
I0
(dp113
I0
(lp114
sI1
(lp115
sI2
(lp116
sI3
(lp117
ssI1
(dp118
I0
g115
sI1
(lp119
sI2
(lp120
sI3
(lp121
ssI2
(dp122
I0
g116
sI1
g120
sI2
(lp123
sI3
(lp124
ssI3
(dp125
I0
g117
sI1
g121
sI2
g124
sI3
(lp126
ssa(dp127
I0
(dp128
I0
(lp129
sI1
(lp130
sI2
(lp131
sI3
(lp132
ssI1
(dp133
I0
g130
sI1
(lp134
sI2
(lp135
sI3
(lp136
ssI2
(dp137
I0
g131
sI1
g135
sI2
(lp138
sI3
(lp139
ssI3
(dp140
I0
g132
sI1
g136
sI2
g139
sI3
(lp141
ssa(dp142
I0
(dp143
I0
(lp144
sI1
(lp145
sI2
(lp146
sI3
(lp147
ssI1
(dp148
I0
g145
sI1
(lp149
sI2
(lp150
sI3
(lp151
ssI2
(dp152
I0
g146
sI1
g150
sI2
(lp153
sI3
(lp154
ssI3
(dp155
I0
g147
sI1
g151
sI2
g154
sI3
(lp156
ssa(dp157
I0
(dp158
I0
(lp159
sI1
(lp160
sI2
(lp161
sI3
(lp162
ssI1
(dp163
I0
g160
sI1
(lp164
sI2
(lp165
sI3
(lp166
ssI2
(dp167
I0
g161
sI1
g165
sI2
(lp168
sI3
(lp169
ssI3
(dp170
I0
g162
sI1
g166
sI2
g169
sI3
(lp171
ssa(dp172
I0
(dp173
I0
(lp174
sI1
(lp175
sI2
(lp176
sI3
(lp177
ssI1
(dp178
I0
g175
sI1
(lp179
sI2
(lp180
sI3
(lp181
ssI2
(dp182
I0
g176
sI1
g180
sI2
(lp183
sI3
(lp184
ssI3
(dp185
I0
g177
sI1
g181
sI2
g184
sI3
(lp186
ssa(dp187
I0
(dp188
I0
(lp189
sI1
(lp190
sI2
(lp191
sI3
(lp192
ssI1
(dp193
I0
g190
sI1
(lp194
sI2
(lp195
sI3
(lp196
ssI2
(dp197
I0
g191
sI2
(lp198
sI3
(lp199
ssI3
(dp200
I0
g192
sI1
g196
sI2
g199
sI3
(lp201
ssa(dp202
I0
(dp203
I0
(lp204
sI1
(lp205
sI2
(lp206
sI3
(lp207
ssI1
(dp208
I0
g205
sI1
(lp209
sI2
(lp210
sI3
(lp211
ssI2
(dp212
I0
g206
sI1
g210
sI2
(lp213
sI3
(lp214
ssI3
(dp215
I0
g207
sI1
g211
sI2
g214
sI3
(lp216
ssa(dp217
I0
(dp218
I0
(lp219
sI1
(lp220
sI2
(lp221
sI3
(lp222
ssI1
(dp223
I0
g220
sI1
(lp224
sI2
(lp225
sI3
(lp226
ssI2
(dp227
I0
g221
sI1
g225
sI2
(lp228
sI3
(lp229
ssI3
(dp230
I0
g222
sI1
g226
sI2
g229
sI3
(lp231
ssa(dp232
I0
(dp233
I0
(lp234
sI1
(lp235
sI2
(lp236
sI3
(lp237
ssI1
(dp238
I0
g235
sI1
(lp239
sI2
(lp240
sI3
(lp241
ssI2
(dp242
I0
g236
sI2
(lp243
sI3
(lp244
ssI3
(dp245
I0
g237
sI1
g241
sI2
g244
sI3
(lp246
ssa(dp247
I0
(dp248
I0
(lp249
sI1
(lp250
sI2
(lp251
sI3
(lp252
ssI1
(dp253
I0
g250
sI1
(lp254
sI2
(lp255
sI3
(lp256
ssI2
(dp257
I0
g251
sI2
(lp258
sI3
(lp259
ssI3
(dp260
I0
g252
sI1
g256
sI2
g259
sI3
(lp261
ssa(dp262
I0
(dp263
I0
(lp264
sI1
(lp265
sI2
(lp266
sI3
(lp267
ssI1
(dp268
I0
g265
sI1
(lp269
sI2
(lp270
sI3
(lp271
ssI2
(dp272
I0
g266
sI1
g270
sI2
(lp273
sI3
(lp274
ssI3
(dp275
I0
g267
sI1
g271
sI2
g274
sI3
(lp276
ssa(dp277
I0
(dp278
I0
(lp279
sI1
(lp280
sI2
(lp281
sI3
(lp282
ssI1
(dp283
I0
g280
sI1
(lp284
sI2
(lp285
sI3
(lp286
ssI2
(dp287
I0
g281
sI1
g285
sI2
(lp288
sI3
(lp289
ssI3
(dp290
I0
g282
sI1
g286
sI2
g289
sI3
(lp291
ssa(dp292
I0
(dp293
I0
(lp294
sI1
(lp295
sI2
(lp296
sI3
(lp297
ssI1
(dp298
I0
g295
sI1
(lp299
sI2
(lp300
sI3
(lp301
ssI2
(dp302
I0
g296
sI1
g300
sI2
(lp303
sI3
(lp304
ssI3
(dp305
I0
g297
sI1
g301
sI2
g304
sI3
(lp306
ssa(dp307
I0
(dp308
I0
(lp309
sI1
(lp310
sI2
(lp311
sI3
(lp312
ssI1
(dp313
I0
g310
sI1
(lp314
sI2
(lp315
sI3
(lp316
ssI2
(dp317
I0
g311
sI1
g315
sI2
(lp318
sI3
(lp319
ssI3
(dp320
I0
g312
sI1
g316
sI2
g319
sI3
(lp321
ssa.