(lp1
(lp2
(dp3
Vstart
p4
I0
sVdisambiguatedURL
p5
NsVnamedEntity
p6
Vbroj poruka:
p7
sVoffset
p8
I12
saa(lp9
(dp10
Vstart
p11
I0
sVdisambiguatedURL
p12
NsVnamedEntity
p13
Vkontakt:
p14
sVoffset
p15
I8
saa(lp16
(dp17
Vstart
p18
I0
sVdisambiguatedURL
p19
NsVnamedEntity
p20
Vposlednja poseta:
p21
sVoffset
p22
I17
saa(lp23
(dp24
Vstart
p25
I0
sVdisambiguatedURL
p26
NsVnamedEntity
p27
Vvremenska zona:
p28
sVoffset
p29
I15
saa(lp30
(dp31
Vstart
p32
I0
sVdisambiguatedURL
p33
NsVnamedEntity
p34
Vdatum registracije:
p35
sVoffset
p36
I19
saa.