(lp1
(lp2
(dp3
Vstart
p4
I0
sVdisambiguatedURL
p5
NsVnamedEntity
p6
Vcalifornia institute of technology (caltech)
p7
sVoffset
p8
I44
saa(lp9
(dp10
Vstart
p11
I0
sVdisambiguatedURL
p12
NsVnamedEntity
p13
Vharvey mudd college
p14
sVoffset
p15
I19
saa(lp16
(dp17
Vstart
p18
I0
sVdisambiguatedURL
p19
Vhttp://dbpedia.org/resource/Harvard_University
p20
sVnamedEntity
p21
Vharvard university
p22
sVoffset
p23
I18
saa(lp24
(dp25
Vstart
p26
I0
sVdisambiguatedURL
p27
NsVnamedEntity
p28
Vmassachusetts institute of technology (mit)
p29
sVoffset
p30
I43
saa(lp31
(dp32
Vstart
p33
I0
sVdisambiguatedURL
p34
Vhttp://dbpedia.org/resource/Dartmouth_College
p35
sVnamedEntity
p36
Vdartmouth college
p37
sVoffset
p38
I17
saa(lp39
(dp40
Vstart
p41
I0
sVdisambiguatedURL
p42
NsVnamedEntity
p43
Vduke university
p44
sVoffset
p45
I15
saa(lp46
(dp47
Vstart
p48
I0
sVdisambiguatedURL
p49
NsVnamedEntity
p50
Vpolytechnic institute of new york university (nyu-poly)
p51
sVoffset
p52
I55
saa(lp53
(dp54
Vstart
p55
I0
sVdisambiguatedURL
p56
Vhttp://dbpedia.org/resource/Colgate_University
p57
sVnamedEntity
p58
Vcolgate university
p59
sVoffset
p60
I18
saa(lp61
(dp62
Vstart
p63
I0
sVdisambiguatedURL
p64
Vhttp://dbpedia.org/resource/Lehigh_University
p65
sVnamedEntity
p66
Vlehigh university
p67
sVoffset
p68
I17
saa(lp69
(dp70
Vstart
p71
I0
sVdisambiguatedURL
p72
Vhttp://dbpedia.org/resource/Stanford_University
p73
sVnamedEntity
p74
Vstanford university
p75
sVoffset
p76
I19
saa(lp77
(dp78
Vstart
p79
I0
sVdisambiguatedURL
p80
Vhttp://dbpedia.org/resource/College_of_the_Holy_Cross
p81
sVnamedEntity
p82
Vcollege of the holy cross
p83
sVoffset
p84
I25
saa(lp85
(dp86
Vstart
p87
I0
sVdisambiguatedURL
p88
NsVnamedEntity
p89
Vstate university of new york (suny) maritime college
p90
sVoffset
p91
I52
saa(lp92
(dp93
Vstart
p94
I0
sVdisambiguatedURL
p95
Vhttp://dbpedia.org/resource/Bucknell_University
p96
sVnamedEntity
p97
Vbucknell university
p98
sVoffset
p99
I19
saa(lp100
(dp101
Vstart
p102
I0
sVdisambiguatedURL
p103
NsVnamedEntity
p104
Vamherst college
p105
sVoffset
p106
I15
saa(lp107
(dp108
Vstart
p109
I0
sVdisambiguatedURL
p110
Vhttp://dbpedia.org/resource/Manhattan_College
p111
sVnamedEntity
p112
Vmanhattan college
p113
sVoffset
p114
I17
saa(lp115
(dp116
Vstart
p117
I0
sVdisambiguatedURL
p118
NsVnamedEntity
p119
Vrensselaer polytechnic institute (rpi)
p120
sVoffset
p121
I38
saa(lp122
(dp123
Vstart
p124
I0
sVdisambiguatedURL
p125
Vhttp://dbpedia.org/resource/University_of_Notre_Dame
p126
sVnamedEntity
p127
Vuniversity of notre dame
p128
sVoffset
p129
I24
saa(lp130
(dp131
Vstart
p132
I0
sVdisambiguatedURL
p133
Vhttp://dbpedia.org/resource/Babson_College
p134
sVnamedEntity
p135
Vbabson college
p136
sVoffset
p137
I14
saa(lp138
(dp139
Vstart
p140
I0
sVdisambiguatedURL
p141
Vhttp://dbpedia.org/resource/Colorado_School_of_Mines
p142
sVnamedEntity
p143
Vcolorado school of mines
p144
sVoffset
p145
I24
saa(lp146
(dp147
Vstart
p148
I0
sVdisambiguatedURL
p149
Vhttp://dbpedia.org/resource/Stevens_Institute_of_Technology
p150
sVnamedEntity
p151
Vstevens institute of technology
p152
sVoffset
p153
I31
saa.