(lp1
(lp2
(dp3
Vstart
p4
I0
sVdisambiguatedURL
p5
NsVnamedEntity
p6
V1                Aug 28 2003
p7
sVoffset
p8
I28
saa(lp9
(dp10
Vstart
p11
I0
sVdisambiguatedURL
p12
NsVnamedEntity
p13
V1                Sept 2 2003
p14
sVoffset
p15
I28
saa(lp16
(dp17
Vstart
p18
I0
sVdisambiguatedURL
p19
NsVnamedEntity
p20
V2                Sept 4 2003
p21
sVoffset
p22
I28
saa(lp23
(dp24
Vstart
p25
I0
sVdisambiguatedURL
p26
NsVnamedEntity
p27
V2                Sept 9 2003
p28
sVoffset
p29
I28
saa(lp30
(dp31
Vstart
p32
I0
sVdisambiguatedURL
p33
NsVnamedEntity
p34
V3                Sept 11 2003
p35
sVoffset
p36
I29
saa(lp37
(dp38
Vstart
p39
I0
sVdisambiguatedURL
p40
NsVnamedEntity
p41
V3                Sep 16 2003
p42
sVoffset
p43
I28
saa(lp44
(dp45
Vstart
p46
I0
sVdisambiguatedURL
p47
NsVnamedEntity
p48
V4                Sept 18 2003
p49
sVoffset
p50
I29
saa(lp51
(dp52
Vstart
p53
I0
sVdisambiguatedURL
p54
NsVnamedEntity
p55
V4                Sept 23 2003
p56
sVoffset
p57
I29
saa(lp58
(dp59
Vstart
p60
I0
sVdisambiguatedURL
p61
NsVnamedEntity
p62
V5                Sept 25 2003
p63
sVoffset
p64
I29
saa(lp65
(dp66
Vstart
p67
I0
sVdisambiguatedURL
p68
NsVnamedEntity
p69
V5                Sept 30 2003
p70
sVoffset
p71
I29
saa(lp72
(dp73
Vstart
p74
I0
sVdisambiguatedURL
p75
NsVnamedEntity
p76
V6                Oct 2 2003
p77
sVoffset
p78
I27
saa(lp79
(dp80
Vstart
p81
I0
sVdisambiguatedURL
p82
NsVnamedEntity
p83
V6                 Oct 7 2003
p84
sVoffset
p85
I28
saa(lp86
(dp87
Vstart
p88
I0
sVdisambiguatedURL
p89
NsVnamedEntity
p90
V7                Oct 9 2003
p91
sVoffset
p92
I27
saa(lp93
(dp94
Vstart
p95
I0
sVdisambiguatedURL
p96
NsVnamedEntity
p97
V7                 Oct 14 2003
p98
sVoffset
p99
I29
saa(lp100
(dp101
Vstart
p102
I0
sVdisambiguatedURL
p103
NsVnamedEntity
p104
V8                Oct 16 2003
p105
sVoffset
p106
I28
saa(lp107
(dp108
Vstart
p109
I0
sVdisambiguatedURL
p110
NsVnamedEntity
p111
V.
sVoffset
p112
I1
saa.