(lp1
(dp2
I0
(dp3
I0
(lp4
sI1
(lp5
sI2
(lp6
sI3
(lp7
sI4
(lp8
ssI1
(dp9
I0
g5
sI1
(lp10
sI2
(lp11
sI3
(lp12
sI4
(lp13
ssI2
(dp14
I0
g6
sI1
g11
sI2
(lp15
sI3
(lp16
sI4
(lp17
ssI3
(dp18
I0
g7
sI1
g12
sI2
g16
sI3
(lp19
sI4
(lp20
Vhttp://purl.org/voc/vrank#hasRank
p21
aVhttp://dbpedia.org/ontology/position
p22
aVhttp://dbpedia.org/property/deathstyle
p23
aVhttp://dbpedia.org/property/place
p24
aVhttp://dbpedia.org/property/league
p25
aVhttp://dbpedia.org/property/highSchool
p26
aVhttp://www.w3.org/ns/prov#wasDerivedFrom
p27
aVhttp://dbpedia.org/property/hasPhotoCollection
p28
assI4
(dp29
I0
g8
sI1
g13
sI2
g17
sI3
g20
sI4
(lp30
ssa(dp31
I0
(dp32
I0
(lp33
sI1
(lp34
sI2
(lp35
sI3
(lp36
sI4
(lp37
ssI1
(dp38
I0
g34
sI1
(lp39
sI2
(lp40
sI3
(lp41
sI4
(lp42
ssI2
(dp43
I0
g35
sI1
g40
sI2
(lp44
sI3
(lp45
sI4
(lp46
ssI3
(dp47
I0
g36
sI1
g41
sI2
g45
sI3
(lp48
sI4
(lp49
ssI4
(dp50
I0
g37
sI1
g42
sI2
g46
sI3
g49
sI4
(lp51
ssa(dp52
I0
(dp53
I0
(lp54
sI1
(lp55
sI2
(lp56
sI3
(lp57
sI4
(lp58
ssI1
(dp59
I0
g55
sI1
(lp60
sI2
(lp61
sI3
(lp62
sI4
(lp63
Vhttp://dbpedia.org/ontology/wikiPageExternalLink
p64
aVhttp://purl.org/voc/vrank#hasRank
p65
aVhttp://dbpedia.org/property/hasPhotoCollection
p66
aVhttp://www.w3.org/1999/02/22-rdf-syntax-ns#type
p67
aVhttp://www.w3.org/2002/07/owl#sameAs
p68
assI2
(dp69
I0
g56
sI1
g61
sI2
(lp70
sI3
(lp71
sI4
(lp72
ssI3
(dp73
I0
g57
sI1
g62
sI2
g71
sI3
(lp74
sI4
(lp75
Vhttp://purl.org/voc/vrank#hasRank
p76
aVhttp://dbpedia.org/ontology/position
p77
aVhttp://dbpedia.org/property/deathstyle
p78
aVhttp://dbpedia.org/property/place
p79
aVhttp://dbpedia.org/property/league
p80
aVhttp://dbpedia.org/property/highSchool
p81
aVhttp://www.w3.org/ns/prov#wasDerivedFrom
p82
aVhttp://dbpedia.org/property/hasPhotoCollection
p83
assI4
(dp84
I0
g58
sI1
g63
sI2
g72
sI3
g75
sI4
(lp85
ssa(dp86
I0
(dp87
I0
(lp88
sI1
(lp89
sI2
(lp90
sI3
(lp91
sI4
(lp92
ssI1
(dp93
I0
g89
sI1
(lp94
sI2
(lp95
sI3
(lp96
Vhttp://dbpedia.org/ontology/wikiPageExternalLink
p97
aVhttp://www.w3.org/1999/02/22-rdf-syntax-ns#type
p98
asI4
(lp99
Vhttp://dbpedia.org/ontology/wikiPageExternalLink
p100
aVhttp://purl.org/voc/vrank#hasRank
p101
aVhttp://dbpedia.org/property/hasPhotoCollection
p102
aVhttp://www.w3.org/1999/02/22-rdf-syntax-ns#type
p103
aVhttp://www.w3.org/2002/07/owl#sameAs
p104
assI2
(dp105
I0
g90
sI1
g95
sI2
(lp106
sI3
(lp107
sI4
(lp108
ssI3
(dp109
I0
g91
sI1
g96
sI2
g107
sI3
(lp110
sI4
(lp111
ssI4
(dp112
I0
g92
sI1
g99
sI2
g108
sI3
g111
sI4
(lp113
ssa(dp114
I0
(dp115
I0
(lp116
sI1
(lp117
sI2
(lp118
sI3
(lp119
sI4
(lp120
ssI1
(dp121
I0
g117
sI1
(lp122
sI2
(lp123
sI3
(lp124
sI4
(lp125
ssI2
(dp126
I0
g118
sI1
g123
sI2
(lp127
sI3
(lp128
sI4
(lp129
ssI3
(dp130
I0
g119
sI1
g124
sI2
g128
sI3
(lp131
sI4
(lp132
Vhttp://purl.org/voc/vrank#hasRank
p133
aVhttp://dbpedia.org/ontology/position
p134
aVhttp://dbpedia.org/property/deathstyle
p135
aVhttp://dbpedia.org/property/place
p136
aVhttp://dbpedia.org/property/league
p137
aVhttp://dbpedia.org/property/highSchool
p138
aVhttp://www.w3.org/ns/prov#wasDerivedFrom
p139
aVhttp://dbpedia.org/property/hasPhotoCollection
p140
assI4
(dp141
I0
g120
sI1
g125
sI2
g129
sI3
g132
sI4
(lp142
ssa(dp143
I0
(dp144
I0
(lp145
sI1
(lp146
sI2
(lp147
sI3
(lp148
sI4
(lp149
ssI1
(dp150
I0
g146
sI1
(lp151
sI2
(lp152
sI3
(lp153
sI4
(lp154
ssI2
(dp155
I0
g147
sI1
g152
sI2
(lp156
sI3
(lp157
sI4
(lp158
ssI3
(dp159
I0
g148
sI1
g153
sI2
g157
sI3
(lp160
sI4
(lp161
ssI4
(dp162
I0
g149
sI1
g154
sI2
g158
sI3
g161
sI4
(lp163
ssa(dp164
I0
(dp165
I0
(lp166
sI1
(lp167
sI2
(lp168
sI3
(lp169
sI4
(lp170
ssI1
(dp171
I0
g167
sI1
(lp172
sI2
(lp173
sI3
(lp174
sI4
(lp175
Vhttp://dbpedia.org/ontology/wikiPageExternalLink
p176
aVhttp://purl.org/voc/vrank#hasRank
p177
aVhttp://dbpedia.org/property/hasPhotoCollection
p178
aVhttp://www.w3.org/1999/02/22-rdf-syntax-ns#type
p179
aVhttp://www.w3.org/2002/07/owl#sameAs
p180
assI2
(dp181
I0
g168
sI1
g173
sI2
(lp182
sI3
(lp183
sI4
(lp184
ssI3
(dp185
I0
g169
sI1
g174
sI2
g183
sI3
(lp186
sI4
(lp187
Vhttp://purl.org/voc/vrank#hasRank
p188
aVhttp://dbpedia.org/ontology/position
p189
aVhttp://dbpedia.org/property/deathstyle
p190
aVhttp://dbpedia.org/property/place
p191
aVhttp://dbpedia.org/property/league
p192
aVhttp://dbpedia.org/property/highSchool
p193
aVhttp://www.w3.org/ns/prov#wasDerivedFrom
p194
aVhttp://dbpedia.org/property/hasPhotoCollection
p195
assI4
(dp196
I0
g170
sI1
g175
sI2
g184
sI3
g187
sI4
(lp197
ssa(dp198
I0
(dp199
I0
(lp200
sI1
(lp201
sI2
(lp202
sI3
(lp203
sI4
(lp204
ssI1
(dp205
I0
g201
sI1
(lp206
sI2
(lp207
sI3
(lp208
sI4
(lp209
ssI2
(dp210
I0
g202
sI1
g207
sI2
(lp211
sI3
(lp212
sI4
(lp213
ssI3
(dp214
I0
g203
sI1
g208
sI2
g212
sI3
(lp215
sI4
(lp216
ssI4
(dp217
I0
g204
sI1
g209
sI2
g213
sI3
g216
sI4
(lp218
ssa(dp219
I0
(dp220
I0
(lp221
sI1
(lp222
sI2
(lp223
sI3
(lp224
sI4
(lp225
ssI1
(dp226
I0
g222
sI1
(lp227
sI2
(lp228
sI3
(lp229
sI4
(lp230
ssI2
(dp231
I0
g223
sI1
g228
sI2
(lp232
sI3
(lp233
sI4
(lp234
ssI3
(dp235
I0
g224
sI1
g229
sI2
g233
sI3
(lp236
sI4
(lp237
Vhttp://purl.org/voc/vrank#hasRank
p238
aVhttp://dbpedia.org/ontology/position
p239
aVhttp://dbpedia.org/property/deathstyle
p240
aVhttp://dbpedia.org/property/place
p241
aVhttp://dbpedia.org/property/league
p242
aVhttp://dbpedia.org/property/highSchool
p243
aVhttp://www.w3.org/ns/prov#wasDerivedFrom
p244
aVhttp://dbpedia.org/property/hasPhotoCollection
p245
assI4
(dp246
I0
g225
sI1
g230
sI2
g234
sI3
g237
sI4
(lp247
ssa(dp248
I0
(dp249
I0
(lp250
sI1
(lp251
sI2
(lp252
sI3
(lp253
sI4
(lp254
ssI1
(dp255
I0
g251
sI1
(lp256
sI2
(lp257
sI3
(lp258
sI4
(lp259
ssI2
(dp260
I0
g252
sI1
g257
sI2
(lp261
sI3
(lp262
sI4
(lp263
ssI3
(dp264
I0
g253
sI1
g258
sI2
g262
sI3
(lp265
sI4
(lp266
ssI4
(dp267
I0
g254
sI1
g259
sI2
g263
sI3
g266
sI4
(lp268
ssa(dp269
I0
(dp270
I0
(lp271
sI1
(lp272
sI2
(lp273
sI3
(lp274
sI4
(lp275
ssI1
(dp276
I0
g272
sI1
(lp277
sI2
(lp278
sI3
(lp279
sI4
(lp280
Vhttp://dbpedia.org/ontology/wikiPageExternalLink
p281
aVhttp://purl.org/voc/vrank#hasRank
p282
aVhttp://dbpedia.org/property/hasPhotoCollection
p283
aVhttp://www.w3.org/1999/02/22-rdf-syntax-ns#type
p284
aVhttp://www.w3.org/2002/07/owl#sameAs
p285
assI2
(dp286
I0
g273
sI1
g278
sI2
(lp287
sI3
(lp288
sI4
(lp289
ssI3
(dp290
I0
g274
sI1
g279
sI2
g288
sI3
(lp291
sI4
(lp292
Vhttp://purl.org/voc/vrank#hasRank
p293
aVhttp://dbpedia.org/ontology/position
p294
aVhttp://dbpedia.org/property/deathstyle
p295
aVhttp://dbpedia.org/property/place
p296
aVhttp://dbpedia.org/property/league
p297
aVhttp://dbpedia.org/property/highSchool
p298
aVhttp://www.w3.org/ns/prov#wasDerivedFrom
p299
aVhttp://dbpedia.org/property/hasPhotoCollection
p300
assI4
(dp301
I0
g275
sI1
g280
sI2
g289
sI3
g292
sI4
(lp302
ssa(dp303
I0
(dp304
I0
(lp305
sI1
(lp306
sI2
(lp307
sI3
(lp308
sI4
(lp309
ssI1
(dp310
I0
g306
sI1
(lp311
sI2
(lp312
sI3
(lp313
sI4
(lp314
ssI2
(dp315
I0
g307
sI1
g312
sI2
(lp316
sI3
(lp317
sI4
(lp318
ssI3
(dp319
I0
g308
sI1
g313
sI2
g317
sI3
(lp320
sI4
(lp321
ssI4
(dp322
I0
g309
sI1
g314
sI2
g318
sI3
g321
sI4
(lp323
ssa(dp324
I0
(dp325
I0
(lp326
sI1
(lp327
sI2
(lp328
sI3
(lp329
sI4
(lp330
ssI1
(dp331
I0
g327
sI1
(lp332
sI2
(lp333
sI3
(lp334
sI4
(lp335
Vhttp://dbpedia.org/ontology/wikiPageExternalLink
p336
aVhttp://purl.org/voc/vrank#hasRank
p337
aVhttp://dbpedia.org/property/hasPhotoCollection
p338
aVhttp://www.w3.org/1999/02/22-rdf-syntax-ns#type
p339
aVhttp://www.w3.org/2002/07/owl#sameAs
p340
assI2
(dp341
I0
g328
sI1
g333
sI2
(lp342
sI3
(lp343
sI4
(lp344
ssI3
(dp345
I0
g329
sI1
g334
sI2
g343
sI3
(lp346
sI4
(lp347
Vhttp://purl.org/voc/vrank#hasRank
p348
aVhttp://dbpedia.org/ontology/position
p349
aVhttp://dbpedia.org/property/deathstyle
p350
aVhttp://dbpedia.org/property/place
p351
aVhttp://dbpedia.org/property/league
p352
aVhttp://dbpedia.org/property/highSchool
p353
aVhttp://www.w3.org/ns/prov#wasDerivedFrom
p354
aVhttp://dbpedia.org/property/hasPhotoCollection
p355
assI4
(dp356
I0
g330
sI1
g335
sI2
g344
sI3
g347
sI4
(lp357
ssa(dp358
I0
(dp359
I0
(lp360
sI1
(lp361
sI2
(lp362
sI3
(lp363
sI4
(lp364
ssI1
(dp365
I0
g361
sI1
(lp366
sI2
(lp367
sI3
(lp368
sI4
(lp369
ssI2
(dp370
I0
g362
sI1
g367
sI2
(lp371
sI3
(lp372
sI4
(lp373
ssI3
(dp374
I0
g363
sI1
g368
sI2
g372
sI3
(lp375
sI4
(lp376
ssI4
(dp377
I0
g364
sI1
g369
sI2
g373
sI3
g376
sI4
(lp378
ssa(dp379
I0
(dp380
I0
(lp381
sI1
(lp382
sI2
(lp383
sI3
(lp384
sI4
(lp385
ssI1
(dp386
I0
g382
sI1
(lp387
sI2
(lp388
sI3
(lp389
sI4
(lp390
ssI2
(dp391
I0
g383
sI1
g388
sI2
(lp392
sI3
(lp393
sI4
(lp394
ssI3
(dp395
I0
g384
sI1
g389
sI2
g393
sI3
(lp396
sI4
(lp397
ssI4
(dp398
I0
g385
sI1
g390
sI2
g394
sI3
g397
sI4
(lp399
ssa(dp400
I0
(dp401
I0
(lp402
sI1
(lp403
sI2
(lp404
sI3
(lp405
sI4
(lp406
ssI1
(dp407
I1
(lp408
sI2
(lp409
sI3
(lp410
sI4
(lp411
ssI2
(dp412
I0
g404
sI1
g409
sI2
(lp413
sI3
(lp414
sI4
(lp415
ssI3
(dp416
I0
g405
sI1
g410
sI2
g414
sI3
(lp417
sI4
(lp418
ssI4
(dp419
I0
g406
sI1
g411
sI2
g415
sI3
g418
sI4
(lp420
ssa.