(lp1
(lp2
(lp3
a(lp4
a(lp5
a(lp6
((lVhttp://dbpedia.org/resource/N/a
tp7
aa(lp8
aa(lp9
(lp10
a(lp11
a(lp12
a(lp13
a(lp14
aa(lp15
(lp16
a(lp17
((lp18
Vhttp://www.w3.org/2002/07/owl#Thing
p19
aVhttp://www.ontologydesignpatterns.org/ont/dul/DUL.owl#Agent
p20
aVhttp://www.ontologydesignpatterns.org/ont/dul/DUL.owl#SocialPerson
p21
aVhttp://www.wikidata.org/entity/Q215380
p22
aVhttp://www.wikidata.org/entity/Q43229
p23
aVhttp://dbpedia.org/ontology/Agent
p24
aVhttp://dbpedia.org/ontology/Band
p25
aVhttp://dbpedia.org/ontology/Group
p26
aVhttp://dbpedia.org/ontology/Organisation
p27
aVhttp://schema.org/MusicGroup
p28
aVhttp://schema.org/Organization
p29
aVhttp://dbpedia.org/resource/Chapter_14
tp30
aa(lp31
a(lp32
((lVhttp://dbpedia.org/resource/N/a
tp33
aa(lp34
aa(lp35
(lp36
a(lp37
((lp38
Vhttp://www.w3.org/2002/07/owl#Thing
p39
aVhttp://www.ontologydesignpatterns.org/ont/dul/DUL.owl#Agent
p40
aVhttp://www.ontologydesignpatterns.org/ont/dul/DUL.owl#SocialPerson
p41
aVhttp://www.wikidata.org/entity/Q215380
p42
aVhttp://www.wikidata.org/entity/Q43229
p43
aVhttp://dbpedia.org/ontology/Agent
p44
aVhttp://dbpedia.org/ontology/Band
p45
aVhttp://dbpedia.org/ontology/Group
p46
aVhttp://dbpedia.org/ontology/Organisation
p47
aVhttp://schema.org/MusicGroup
p48
aVhttp://schema.org/Organization
p49
aVhttp://dbpedia.org/resource/Chapter_14
tp50
aa(lp51
a(lp52
a(lp53
aa(lp54
(lp55
a(lp56
a(lp57
a(lp58
((lVhttp://dbpedia.org/resource/N/a
tp59
aa(lp60
aa(lp61
(lp62
a(lp63
a(lp64
a(lp65
a(lp66
aa(lp67
(lp68
a(lp69
((lp70
Vhttp://www.w3.org/2002/07/owl#Thing
p71
aVhttp://www.ontologydesignpatterns.org/ont/dul/DUL.owl#Agent
p72
aVhttp://www.ontologydesignpatterns.org/ont/dul/DUL.owl#SocialPerson
p73
aVhttp://www.wikidata.org/entity/Q215380
p74
aVhttp://www.wikidata.org/entity/Q43229
p75
aVhttp://dbpedia.org/ontology/Agent
p76
aVhttp://dbpedia.org/ontology/Band
p77
aVhttp://dbpedia.org/ontology/Group
p78
aVhttp://dbpedia.org/ontology/Organisation
p79
aVhttp://schema.org/MusicGroup
p80
aVhttp://schema.org/Organization
p81
aVhttp://dbpedia.org/resource/Chapter_14
tp82
aa(lp83
a(lp84
((lVhttp://dbpedia.org/resource/N/a
tp85
aa(lp86
aa(lp87
(lp88
a(lp89
a(lp90
a(lp91
a(lp92
aa(lp93
(lp94
a(lp95
a(lp96
a(lp97
((lVhttp://dbpedia.org/resource/N/a
tp98
aa(lp99
aa(lp100
(lp101
a(lp102
a(lp103
a(lp104
a(lp105
aa(lp106
(lp107
a(lp108
((lp109
Vhttp://www.w3.org/2002/07/owl#Thing
p110
aVhttp://www.ontologydesignpatterns.org/ont/dul/DUL.owl#Agent
p111
aVhttp://www.ontologydesignpatterns.org/ont/dul/DUL.owl#SocialPerson
p112
aVhttp://www.wikidata.org/entity/Q215380
p113
aVhttp://www.wikidata.org/entity/Q43229
p114
aVhttp://dbpedia.org/ontology/Agent
p115
aVhttp://dbpedia.org/ontology/Band
p116
aVhttp://dbpedia.org/ontology/Group
p117
aVhttp://dbpedia.org/ontology/Organisation
p118
aVhttp://schema.org/MusicGroup
p119
aVhttp://schema.org/Organization
p120
aVhttp://dbpedia.org/resource/Chapter_14
tp121
aa(lp122
a(lp123
((lVhttp://dbpedia.org/resource/N/a
tp124
aa(lp125
aa(lp126
(lp127
a(lp128
a(lp129
a(lp130
a(lp131
aa(lp132
(lp133
a(lp134
((lp135
Vhttp://www.w3.org/2002/07/owl#Thing
p136
aVhttp://www.ontologydesignpatterns.org/ont/dul/DUL.owl#Agent
p137
aVhttp://www.ontologydesignpatterns.org/ont/dul/DUL.owl#SocialPerson
p138
aVhttp://www.wikidata.org/entity/Q215380
p139
aVhttp://www.wikidata.org/entity/Q43229
p140
aVhttp://dbpedia.org/ontology/Agent
p141
aVhttp://dbpedia.org/ontology/Band
p142
aVhttp://dbpedia.org/ontology/Group
p143
aVhttp://dbpedia.org/ontology/Organisation
p144
aVhttp://schema.org/MusicGroup
p145
aVhttp://schema.org/Organization
p146
aVhttp://dbpedia.org/resource/Chapter_14
tp147
aa(lp148
a(lp149
((lVhttp://dbpedia.org/resource/N/a
tp150
aa(lp151
aa(lp152
(lp153
a(lp154
a(lp155
a(lp156
a(lp157
aa(lp158
(lp159
a(lp160
((lVhttp://dbpedia.org/resource/Final_examination
tp161
aa(lp162
a(lp163
a(lp164
((lVhttp://dbpedia.org/resource/Null
p165
tp166
aaa(lp167
(lp168
a(lp169
a(lp170
a(lp171
a(lp172
aa.