(lp1
(lp2
(lp3
a(lp4
a(lp5
Vhttp://dbpedia.org/resource/Home
p6
aa(lp7
a(lp8
a(lp9
Vhttp://dbpedia.org/resource/Resource
p10
aa(lp11
a(lp12
a(lp13
aa(lp14
(lp15
a(lp16
a(lp17
Vhttp://dbpedia.org/resource/Null
p18
aa(lp19
Vhttp://dbpedia.org/resource/Null
p20
aa(lp21
Vhttp://dbpedia.org/resource/Null
p22
aa(lp23
Vhttp://dbpedia.org/resource/Null
p24
aa(lp25
Vhttp://dbpedia.org/resource/Null
p26
aa(lp27
Vhttp://dbpedia.org/resource/Null
p28
aa(lp29
aa(lp30
(lp31
a(lp32
a(lp33
a(lp34
a(lp35
a(lp36
a(lp37
a(lp38
a(lp39
aa(lp40
(lp41
a(lp42
a(lp43
a(lp44
a(lp45
a(lp46
a(lp47
a(lp48
a(lp49
aa.