(lp1
(lp2
(lp3
((lp4
Vhttp://umbel.org/umbel/rc/HospitalBuilding
p5
aVhttp://dbpedia.org/class/yago/Artifact100021939
p6
aVhttp://dbpedia.org/class/yago/Building102913152
p7
aVhttp://dbpedia.org/class/yago/Hospital103540595
p8
aVhttp://dbpedia.org/class/yago/Object100002684
p9
aVhttp://dbpedia.org/class/yago/Structure104341686
p10
aVhttp://dbpedia.org/class/yago/Whole100003553
p11
aVhttp://dbpedia.org/class/yago/YagoGeoEntity
p12
aVhttp://dbpedia.org/class/yago/MedicalBuilding103739518
p13
aVhttp://dbpedia.org/class/yago/PhysicalEntity100001930
p14
aVhttp://dbpedia.org/class/yago/YagoPermanentlyLocatedEntity
p15
aVhttp://dbpedia.org/class/yago/HospitalsEstablishedIn1942
p16
aVhttp://dbpedia.org/class/yago/HospitalsInSydney
p17
aVhttp://dbpedia.org/class/yago/TeachingHospitalsInAustralia
p18
aVhttp://dbpedia.org/resource/Concord_Repatriation_General_Hospital
tp19
aa(lp20
a(lp21
a(lp22
a(lp23
aa(lp24
(lp25
a(lp26
a(lp27
a(lp28
a(lp29
aa(lp30
(lp31
((lp32
Vhttp://www.w3.org/2002/07/owl#Thing
p33
aVhttp://dbpedia.org/ontology/Place
p34
aVhttp://dbpedia.org/ontology/Location
p35
aVhttp://www.wikidata.org/entity/Q16917
p36
aVhttp://www.wikidata.org/entity/Q41176
p37
aVhttp://dbpedia.org/ontology/ArchitecturalStructure
p38
aVhttp://dbpedia.org/ontology/Building
p39
aVhttp://dbpedia.org/ontology/Hospital
p40
aVhttp://schema.org/Hospital
p41
aVhttp://schema.org/Place
p42
aVhttp://umbel.org/umbel/rc/HospitalBuilding
p43
aVhttp://dbpedia.org/class/yago/Artifact100021939
p44
aVhttp://dbpedia.org/class/yago/Building102913152
p45
aVhttp://dbpedia.org/class/yago/Hospital103540595
p46
aVhttp://dbpedia.org/class/yago/Object100002684
p47
aVhttp://dbpedia.org/class/yago/Structure104341686
p48
aVhttp://dbpedia.org/class/yago/Whole100003553
p49
aVhttp://dbpedia.org/class/yago/YagoGeoEntity
p50
aVhttp://dbpedia.org/class/yago/MedicalBuilding103739518
p51
aVhttp://dbpedia.org/class/yago/PhysicalEntity100001930
p52
aVhttp://dbpedia.org/class/yago/YagoPermanentlyLocatedEntity
p53
aVhttp://dbpedia.org/class/yago/HospitalsEstablishedInThe1790s
p54
aVhttp://dbpedia.org/class/yago/HospitalsInSydney
p55
aVhttp://dbpedia.org/class/yago/TeachingHospitalsInAustralia
p56
aVhttp://dbpedia.org/resource/Liverpool_Hospital
tp57
aa(lp58
a(lp59
a(lp60
a(lp61
aa(lp62
(lp63
a(lp64
a(lp65
a(lp66
a(lp67
aa(lp68
(lp69
a(lp70
a(lp71
a(lp72
a(lp73
aa(lp74
(lp75
a(lp76
a(lp77
a(lp78
a(lp79
aa(lp80
(lp81
((lp82
Vhttp://www.w3.org/2002/07/owl#Thing
p83
aVhttp://dbpedia.org/ontology/Place
p84
aVhttp://dbpedia.org/ontology/Location
p85
aVhttp://www.wikidata.org/entity/Q16917
p86
aVhttp://www.wikidata.org/entity/Q41176
p87
aVhttp://dbpedia.org/ontology/ArchitecturalStructure
p88
aVhttp://dbpedia.org/ontology/Building
p89
aVhttp://dbpedia.org/ontology/Hospital
p90
aVhttp://schema.org/Hospital
p91
aVhttp://schema.org/Place
p92
aVhttp://umbel.org/umbel/rc/HospitalBuilding
p93
aVhttp://dbpedia.org/class/yago/Artifact100021939
p94
aVhttp://dbpedia.org/class/yago/Building102913152
p95
aVhttp://dbpedia.org/class/yago/Hospital103540595
p96
aVhttp://dbpedia.org/class/yago/Object100002684
p97
aVhttp://dbpedia.org/class/yago/Structure104341686
p98
aVhttp://dbpedia.org/class/yago/Whole100003553
p99
aVhttp://dbpedia.org/class/yago/YagoGeoEntity
p100
aVhttp://dbpedia.org/class/yago/MedicalBuilding103739518
p101
aVhttp://dbpedia.org/class/yago/PhysicalEntity100001930
p102
aVhttp://dbpedia.org/class/yago/YagoPermanentlyLocatedEntity
p103
aVhttp://dbpedia.org/class/yago/HospitalsEstablishedIn1882
p104
aVhttp://dbpedia.org/class/yago/HospitalsInSydney
p105
aVhttp://dbpedia.org/class/yago/TeachingHospitalsInAustralia
p106
aVhttp://dbpedia.org/resource/Royal_Prince_Alfred_Hospital
tp107
aa(lp108
a(lp109
a(lp110
a(lp111
((lVhttp://dbpedia.org/resource/Null
tp112
aaa(lp113
(lp114
a(lp115
a(lp116
a(lp117
a(lp118
aa(lp119
(lp120
((lp121
Vhttp://www.w3.org/2002/07/owl#Thing
p122
aVhttp://dbpedia.org/ontology/Place
p123
aVhttp://dbpedia.org/ontology/Location
p124
aVhttp://www.wikidata.org/entity/Q16917
p125
aVhttp://www.wikidata.org/entity/Q41176
p126
aVhttp://dbpedia.org/ontology/ArchitecturalStructure
p127
aVhttp://dbpedia.org/ontology/Building
p128
aVhttp://dbpedia.org/ontology/Hospital
p129
aVhttp://schema.org/Hospital
p130
aVhttp://schema.org/Place
p131
aVhttp://umbel.org/umbel/rc/Building
p132
aVhttp://umbel.org/umbel/rc/HospitalBuilding
p133
aVhttp://dbpedia.org/class/yago/Artifact100021939
p134
aVhttp://dbpedia.org/class/yago/Building102913152
p135
aVhttp://dbpedia.org/class/yago/Hospital103540595
p136
aVhttp://dbpedia.org/class/yago/Object100002684
p137
aVhttp://dbpedia.org/class/yago/Structure104341686
p138
aVhttp://dbpedia.org/class/yago/Whole100003553
p139
aVhttp://dbpedia.org/class/yago/YagoGeoEntity
p140
aVhttp://dbpedia.org/class/yago/Children'sHospitalsInAustralia
p141
aVhttp://dbpedia.org/class/yago/MedicalBuilding103739518
p142
aVhttp://dbpedia.org/class/yago/PhysicalEntity100001930
p143
aVhttp://dbpedia.org/class/yago/YagoPermanentlyLocatedEntity
p144
aVhttp://dbpedia.org/class/yago/HospitalsEstablishedIn1880
p145
aVhttp://dbpedia.org/class/yago/HospitalsInSydney
p146
aVhttp://dbpedia.org/class/yago/TeachingHospitalsInAustralia
p147
aVhttp://dbpedia.org/resource/Royal_Alexandra_Hospital_for_Children
tp148
aa(lp149
a(lp150
a(lp151
((lVhttp://dbpedia.org/resource/Null
tp152
aa(lp153
aa(lp154
(lp155
((lp156
Vhttp://www.w3.org/2002/07/owl#Thing
p157
aVhttp://umbel.org/umbel/rc/HospitalBuilding
p158
aVhttp://dbpedia.org/class/yago/Artifact100021939
p159
aVhttp://dbpedia.org/class/yago/Building102913152
p160
aVhttp://dbpedia.org/class/yago/Hospital103540595
p161
aVhttp://dbpedia.org/class/yago/Object100002684
p162
aVhttp://dbpedia.org/class/yago/Structure104341686
p163
aVhttp://dbpedia.org/class/yago/Whole100003553
p164
aVhttp://dbpedia.org/class/yago/YagoGeoEntity
p165
aVhttp://dbpedia.org/class/yago/MedicalBuilding103739518
p166
aVhttp://dbpedia.org/class/yago/PhysicalEntity100001930
p167
aVhttp://dbpedia.org/class/yago/YagoPermanentlyLocatedEntity
p168
aVhttp://dbpedia.org/class/yago/HospitalsEstablishedIn1978
p169
aVhttp://dbpedia.org/class/yago/HospitalsInSydney
p170
aVhttp://dbpedia.org/class/yago/TeachingHospitalsInAustralia
p171
aVhttp://dbpedia.org/resource/Westmead_Hospital
p172
tp173
aa(lp174
a(lp175
a(lp176
a(lp177
aa.