(lp1
(lp2
(lp3
a(lp4
a(lp5
aa(lp6
(lp7
a(lp8
a(lp9
aa(lp10
(lp11
a(lp12
a(lp13
aa(lp14
(lp15
a(lp16
a(lp17
aa(lp18
(lp19
a(lp20
a(lp21
aa(lp22
(lp23
a(lp24
a(lp25
aa(lp26
(lp27
a(lp28
a(lp29
aa(lp30
(lp31
a(lp32
a(lp33
aa(lp34
(lp35
a(lp36
a(lp37
aa(lp38
(lp39
a(lp40
a(lp41
aa(lp42
(lp43
a(lp44
a(lp45
aa(lp46
(lp47
a(lp48
a(lp49
aa(lp50
(lp51
a(lp52
a(lp53
aa(lp54
(lp55
a(lp56
a(lp57
aa(lp58
(lp59
a(lp60
a(lp61
aa(lp62
(lp63
a(lp64
a(lp65
aa(lp66
(lp67
a(lp68
a(lp69
aa(lp70
(lp71
a(lp72
a(lp73
aa(lp74
(lp75
a(lp76
a(lp77
((lp78
Vhttp://dbpedia.org/class/yago/Abstraction100002137
p79
aVhttp://dbpedia.org/class/yago/AmericanFolkSongs
p80
aVhttp://dbpedia.org/class/yago/AuditoryCommunication107109019
p81
aVhttp://dbpedia.org/class/yago/BurlIvesSongs
p82
aVhttp://dbpedia.org/class/yago/Communication100033020
p83
aVhttp://dbpedia.org/class/yago/ExpressiveStyle107066659
p84
aVhttp://dbpedia.org/class/yago/FolkSong107050952
p85
aVhttp://dbpedia.org/class/yago/Music107020895
p86
aVhttp://dbpedia.org/class/yago/MusicGenre107071942
p87
aVhttp://dbpedia.org/class/yago/MusicalComposition107037465
p88
aVhttp://dbpedia.org/class/yago/Song107048000
p89
aVhttp://dbpedia.org/class/yago/SongsAboutTexas
p90
aVhttp://dbpedia.org/class/yago/SongsAboutTheUnitedStates
p91
aVhttp://dbpedia.org/class/yago/FolkMusic107060167
p92
aVhttp://dbpedia.org/class/yago/JohnnyCashSongs
p93
aVhttp://dbpedia.org/class/yago/PopularMusic107059255
p94
aVhttp://dbpedia.org/resource/Streets_of_Laredo_(song)
p95
tp96
aaa.