(lp1
(dp2
I0
(dp3
I0
(lp4
sI1
(lp5
sI2
(lp6
Vhttp://www.w3.org/1999/02/22-rdf-syntax-ns#type
p7
aVhttp://purl.org/dc/terms/subject
p8
aVhttp://www.w3.org/2000/01/rdf-schema#comment
p9
aVhttp://dbpedia.org/ontology/abstract
p10
aVhttp://dbpedia.org/property/wordnet_type
p11
aVhttp://purl.org/voc/vrank#hasRank
p12
aVhttp://www.w3.org/ns/prov#wasDerivedFrom
p13
aVhttp://dbpedia.org/ontology/viafId
p14
aVhttp://dbpedia.org/property/title
p15
asI3
(lp16
Vhttp://www.w3.org/2000/01/rdf-schema#seeAlso
p17
aVhttp://www.georss.org/georss/point
p18
aVhttp://purl.org/dc/terms/subject
p19
aVhttp://www.w3.org/2000/01/rdf-schema#comment
p20
aVhttp://dbpedia.org/property/volume
p21
aVhttp://dbpedia.org/ontology/abstract
p22
aVhttp://xmlns.com/foaf/0.1/depiction
p23
aVhttp://dbpedia.org/property/wordnet_type
p24
aVhttp://www.w3.org/1999/02/22-rdf-syntax-ns#type
p25
aVhttp://dbpedia.org/ontology/thumbnail
p26
aVhttp://dbpedia.org/ontology/nrhpReferenceNumber
p27
aVhttp://www.w3.org/2002/07/owl#sameAs
p28
asI4
(lp29
Vhttp://dbpedia.org/ontology/wikiPageExternalLink
p30
aVhttp://dbpedia.org/property/industry
p31
aVhttp://www.w3.org/1999/02/22-rdf-syntax-ns#type
p32
aVhttp://dbpedia.org/ontology/abstract
p33
aVhttp://dbpedia.org/property/products
p34
aVhttp://www.w3.org/ns/prov#wasDerivedFrom
p35
aVhttp://dbpedia.org/ontology/industry
p36
aVhttp://dbpedia.org/ontology/product
p37
aVhttp://www.w3.org/2002/07/owl#sameAs
p38
asI5
(lp39
Vhttp://www.w3.org/ns/prov#wasDerivedFrom
p40
aVhttp://dbpedia.org/ontology/abstract
p41
aVhttp://www.w3.org/1999/02/22-rdf-syntax-ns#type
p42
aVhttp://www.w3.org/2002/07/owl#sameAs
p43
aVhttp://www.w3.org/2000/01/rdf-schema#comment
p44
assI1
(dp45
I0
g5
sI1
(lp46
sI2
(lp47
sI3
(lp48
sI4
(lp49
sI5
(lp50
ssI2
(dp51
I0
g6
sI1
g47
sI2
(lp52
sI3
(lp53
sI4
(lp54
sI5
(lp55
Vhttp://dbpedia.org/ontology/associatedMusicalArtist
p56
aVhttp://dbpedia.org/ontology/recordLabel
p57
aVhttp://dbpedia.org/property/producer
p58
aVhttp://dbpedia.org/ontology/musicComposer
p59
aVhttp://dbpedia.org/ontology/musicalArtist
p60
aVhttp://dbpedia.org/ontology/musicalBand
p61
aVhttp://dbpedia.org/ontology/background
p62
aVhttp://dbpedia.org/property/occupation
p63
aVhttp://dbpedia.org/property/genre
p64
aVhttp://dbpedia.org/ontology/instrument
p65
aVhttp://dbpedia.org/property/writer
p66
aVhttp://dbpedia.org/property/background
p67
aVhttp://dbpedia.org/property/label
p68
aVhttp://www.w3.org/1999/02/22-rdf-syntax-ns#type
p69
aVhttp://dbpedia.org/property/music
p70
aVhttp://dbpedia.org/property/wordnet_type
p71
aVhttp://dbpedia.org/property/birthPlace
p72
aVhttp://dbpedia.org/ontology/writer
p73
aVhttp://dbpedia.org/property/placeOfBirth
p74
aVhttp://dbpedia.org/property/birthName
p75
aVhttp://dbpedia.org/property/associatedActs
p76
aVhttp://dbpedia.org/ontology/wikiPageDisambiguates
p77
aVhttp://dbpedia.org/ontology/wikiPageExternalLink
p78
aVhttp://xmlns.com/foaf/0.1/givenName
p79
aVhttp://purl.org/dc/terms/subject
p80
aVhttp://dbpedia.org/ontology/abstract
p81
aVhttp://xmlns.com/foaf/0.1/depiction
p82
aVhttp://dbpedia.org/ontology/foundedBy
p83
aVhttp://dbpedia.org/ontology/producer
p84
aVhttp://dbpedia.org/property/extra
p85
aVhttp://dbpedia.org/ontology/associatedBand
p86
aVhttp://dbpedia.org/ontology/thumbnail
p87
aVhttp://dbpedia.org/property/hasPhotoCollection
p88
aVhttp://dbpedia.org/ontology/genre
p89
aVhttp://www.w3.org/2000/01/rdf-schema#comment
p90
aVhttp://dbpedia.org/ontology/birthPlace
p91
aVhttp://dbpedia.org/ontology/wikiPageRedirects
p92
aVhttp://dbpedia.org/property/founder
p93
aVhttp://dbpedia.org/ontology/artist
p94
aVhttp://dbpedia.org/property/instrument
p95
aVhttp://dbpedia.org/property/artist
p96
aVhttp://www.w3.org/2002/07/owl#sameAs
p97
assI3
(dp98
I0
g16
sI1
g48
sI2
g53
sI3
(lp99
sI4
(lp100
sI5
(lp101
Vhttp://www.w3.org/2000/01/rdf-schema#seeAlso
p102
aVhttp://dbpedia.org/property/currency
p103
aVhttp://dbpedia.org/ontology/type
p104
aVhttp://dbpedia.org/property/volume
p105
aVhttp://dbpedia.org/ontology/board
p106
aVhttp://dbpedia.org/ontology/wikiPageRedirects
p107
aVhttp://dbpedia.org/property/boards
p108
aVhttp://dbpedia.org/ontology/knownFor
p109
aVhttp://www.w3.org/ns/prov#wasDerivedFrom
p110
aVhttp://www.w3.org/2002/07/owl#differentFrom
p111
aVhttp://dbpedia.org/ontology/architecturalStyle
p112
aVhttp://www.w3.org/1999/02/22-rdf-syntax-ns#type
p113
aVhttp://dbpedia.org/property/indexes
p114
aVhttp://dbpedia.org/ontology/architect
p115
aVhttp://dbpedia.org/property/wordnet_type
p116
aVhttp://xmlns.com/foaf/0.1/isPrimaryTopicOf
p117
aVhttp://dbpedia.org/property/employer
p118
aVhttp://dbpedia.org/property/owner
p119
aVhttp://dbpedia.org/property/country
p120
aVhttp://dbpedia.org/property/keyPeople
p121
aVhttp://dbpedia.org/ontology/wikiPageExternalLink
p122
aVhttp://dbpedia.org/property/divisions
p123
aVhttp://xmlns.com/foaf/0.1/primaryTopic
p124
aVhttp://dbpedia.org/property/name
p125
aVhttp://purl.org/dc/terms/subject
p126
aVhttp://dbpedia.org/ontology/residence
p127
aVhttp://dbpedia.org/ontology/abstract
p128
aVhttp://xmlns.com/foaf/0.1/depiction
p129
aVhttp://dbpedia.org/property/type
p130
aVhttp://dbpedia.org/property/location
p131
aVhttp://dbpedia.org/property/exchanges
p132
aVhttp://dbpedia.org/ontology/division
p133
aVhttp://dbpedia.org/ontology/thumbnail
p134
aVhttp://dbpedia.org/property/stockExchange
p135
aVhttp://dbpedia.org/property/hasPhotoCollection
p136
aVhttp://dbpedia.org/ontology/foundationPlace
p137
aVhttp://www.w3.org/2000/01/rdf-schema#label
p138
aVhttp://dbpedia.org/ontology/location
p139
aVhttp://dbpedia.org/property/tradedAs
p140
aVhttp://www.w3.org/2000/01/rdf-schema#comment
p141
aVhttp://dbpedia.org/property/subsidiaries
p142
aVhttp://dbpedia.org/property/workplaces
p143
aVhttp://dbpedia.org/property/mcap
p144
aVhttp://xmlns.com/foaf/0.1/homepage
p145
aVhttp://dbpedia.org/ontology/locationCity
p146
aVhttp://www.w3.org/2002/07/owl#sameAs
p147
aVhttp://dbpedia.org/ontology/occupation
p148
assI4
(dp149
I0
g29
sI1
g49
sI2
g54
sI3
g100
sI4
(lp150
sI5
(lp151
Vhttp://dbpedia.org/ontology/type
p152
aVhttp://xmlns.com/foaf/0.1/primaryTopic
p153
aVhttp://dbpedia.org/property/genre
p154
aVhttp://dbpedia.org/ontology/knownFor
p155
aVhttp://dbpedia.org/property/occupation
p156
aVhttp://www.w3.org/ns/prov#wasDerivedFrom
p157
aVhttp://dbpedia.org/ontology/industry
p158
aVhttp://dbpedia.org/property/practiceAreas
p159
aVhttp://dbpedia.org/property/formerType
p160
aVhttp://www.w3.org/1999/02/22-rdf-syntax-ns#type
p161
aVhttp://dbpedia.org/property/category
p162
aVhttp://dbpedia.org/ontology/product
p163
aVhttp://dbpedia.org/property/activitySector
p164
aVhttp://dbpedia.org/property/products
p165
aVhttp://xmlns.com/foaf/0.1/isPrimaryTopicOf
p166
aVhttp://dbpedia.org/property/services
p167
aVhttp://dbpedia.org/ontology/wikiPageExternalLink
p168
aVhttp://dbpedia.org/property/industry
p169
aVhttp://purl.org/dc/terms/subject
p170
aVhttp://dbpedia.org/property/service
p171
aVhttp://dbpedia.org/ontology/abstract
p172
aVhttp://dbpedia.org/property/type
p173
aVhttp://dbpedia.org/ontology/service
p174
aVhttp://dbpedia.org/property/profession
p175
aVhttp://dbpedia.org/property/activities
p176
aVhttp://dbpedia.org/property/hasPhotoCollection
p177
aVhttp://www.w3.org/2000/01/rdf-schema#label
p178
aVhttp://dbpedia.org/property/companyType
p179
aVhttp://dbpedia.org/ontology/genre
p180
aVhttp://www.w3.org/2000/01/rdf-schema#comment
p181
aVhttp://dbpedia.org/ontology/profession
p182
aVhttp://dbpedia.org/ontology/wikiPageRedirects
p183
aVhttp://dbpedia.org/property/discipline
p184
aVhttp://dbpedia.org/property/data
p185
aVhttp://www.w3.org/2002/07/owl#sameAs
p186
aVhttp://dbpedia.org/ontology/occupation
p187
assI5
(dp188
I0
g39
sI1
g50
sI2
g55
sI3
g101
sI4
g151
sI5
(lp189
ssa(dp190
I0
(dp191
I0
(lp192
sI1
(lp193
Vhttp://www.w3.org/1999/02/22-rdf-syntax-ns#type
p194
aVhttp://www.w3.org/2000/01/rdf-schema#comment
p195
aVhttp://dbpedia.org/ontology/abstract
p196
aVhttp://dbpedia.org/ontology/revenue
p197
aVhttp://dbpedia.org/property/wordnet_type
p198
aVhttp://purl.org/voc/vrank#hasRank
p199
aVhttp://www.w3.org/ns/prov#wasDerivedFrom
p200
aVhttp://www.w3.org/2002/07/owl#sameAs
p201
aVhttp://dbpedia.org/property/revenue
p202
asI2
(lp203
Vhttp://dbpedia.org/ontology/wikiPageDisambiguates
p204
asI3
(lp205
Vhttp://www.w3.org/2000/01/rdf-schema#seeAlso
p206
aVhttp://www.georss.org/georss/point
p207
aVhttp://www.w3.org/2000/01/rdf-schema#comment
p208
aVhttp://dbpedia.org/property/volume
p209
aVhttp://dbpedia.org/ontology/abstract
p210
aVhttp://xmlns.com/foaf/0.1/depiction
p211
aVhttp://dbpedia.org/property/exchanges
p212
aVhttp://dbpedia.org/property/wordnet_type
p213
aVhttp://purl.org/voc/vrank#hasRank
p214
aVhttp://www.w3.org/1999/02/22-rdf-syntax-ns#type
p215
aVhttp://dbpedia.org/property/homepage
p216
aVhttp://dbpedia.org/ontology/thumbnail
p217
aVhttp://www.w3.org/ns/prov#wasDerivedFrom
p218
aVhttp://www.w3.org/2002/07/owl#sameAs
p219
aVhttp://dbpedia.org/property/mcap
p220
asI4
(lp221
Vhttp://www.w3.org/1999/02/22-rdf-syntax-ns#type
p222
aVhttp://www.w3.org/2000/01/rdf-schema#comment
p223
aVhttp://dbpedia.org/ontology/revenue
p224
aVhttp://dbpedia.org/ontology/abstract
p225
aVhttp://xmlns.com/foaf/0.1/depiction
p226
aVhttp://dbpedia.org/property/wordnet_type
p227
aVhttp://purl.org/voc/vrank#hasRank
p228
aVhttp://dbpedia.org/ontology/thumbnail
p229
aVhttp://www.w3.org/ns/prov#wasDerivedFrom
p230
aVhttp://www.w3.org/2002/07/owl#sameAs
p231
aVhttp://dbpedia.org/property/revenue
p232
asI5
(lp233
Vhttp://www.w3.org/ns/prov#wasDerivedFrom
p234
aVhttp://purl.org/voc/vrank#hasRank
p235
aVhttp://www.w3.org/1999/02/22-rdf-syntax-ns#type
p236
assI1
(dp237
I0
g193
sI1
(lp238
sI2
(lp239
sI3
(lp240
sI4
(lp241
Vhttp://www.w3.org/1999/02/22-rdf-syntax-ns#type
p242
aVhttp://purl.org/dc/terms/subject
p243
asI5
(lp244
Vhttp://dbpedia.org/ontology/type
p245
aVhttp://dbpedia.org/ontology/owningCompany
p246
aVhttp://dbpedia.org/ontology/industry
p247
aVhttp://www.w3.org/1999/02/22-rdf-syntax-ns#type
p248
aVhttp://dbpedia.org/property/parent
p249
aVhttp://dbpedia.org/property/wordnet_type
p250
aVhttp://dbpedia.org/property/netIncome
p251
aVhttp://dbpedia.org/property/keyPeople
p252
aVhttp://dbpedia.org/property/owner
p253
aVhttp://dbpedia.org/property/subsid
p254
aVhttp://dbpedia.org/property/assets
p255
aVhttp://dbpedia.org/ontology/wikiPageExternalLink
p256
aVhttp://dbpedia.org/property/industry
p257
aVhttp://purl.org/dc/terms/subject
p258
aVhttp://dbpedia.org/ontology/subsidiary
p259
aVhttp://dbpedia.org/ontology/abstract
p260
aVhttp://xmlns.com/foaf/0.1/depiction
p261
aVhttp://dbpedia.org/property/type
p262
aVhttp://dbpedia.org/property/location
p263
aVhttp://dbpedia.org/ontology/thumbnail
p264
aVhttp://dbpedia.org/ontology/parentCompany
p265
aVhttp://dbpedia.org/property/hasPhotoCollection
p266
aVhttp://dbpedia.org/property/revenue
p267
aVhttp://dbpedia.org/ontology/location
p268
aVhttp://www.w3.org/2000/01/rdf-schema#comment
p269
aVhttp://dbpedia.org/ontology/wikiPageRedirects
p270
aVhttp://dbpedia.org/ontology/keyPerson
p271
aVhttp://dbpedia.org/ontology/owner
p272
aVhttp://www.w3.org/2002/07/owl#sameAs
p273
assI2
(dp274
I0
g203
sI1
g239
sI2
(lp275
sI3
(lp276
sI4
(lp277
sI5
(lp278
Vhttp://dbpedia.org/ontology/wikiPageDisambiguates
p279
aVhttp://dbpedia.org/ontology/wikiPageRedirects
p280
aVhttp://www.w3.org/2002/07/owl#sameAs
p281
assI3
(dp282
I0
g205
sI1
g240
sI2
g276
sI3
(lp283
sI4
(lp284
sI5
(lp285
Vhttp://www.w3.org/2000/01/rdf-schema#seeAlso
p286
aVhttp://dbpedia.org/property/currency
p287
aVhttp://dbpedia.org/ontology/type
p288
aVhttp://dbpedia.org/property/volume
p289
aVhttp://dbpedia.org/ontology/board
p290
aVhttp://dbpedia.org/ontology/wikiPageRedirects
p291
aVhttp://dbpedia.org/property/boards
p292
aVhttp://dbpedia.org/ontology/knownFor
p293
aVhttp://www.w3.org/ns/prov#wasDerivedFrom
p294
aVhttp://www.w3.org/2002/07/owl#differentFrom
p295
aVhttp://dbpedia.org/ontology/architecturalStyle
p296
aVhttp://www.w3.org/1999/02/22-rdf-syntax-ns#type
p297
aVhttp://dbpedia.org/property/indexes
p298
aVhttp://dbpedia.org/ontology/architect
p299
aVhttp://dbpedia.org/property/wordnet_type
p300
aVhttp://xmlns.com/foaf/0.1/isPrimaryTopicOf
p301
aVhttp://dbpedia.org/property/employer
p302
aVhttp://dbpedia.org/property/owner
p303
aVhttp://dbpedia.org/property/country
p304
aVhttp://dbpedia.org/property/keyPeople
p305
aVhttp://dbpedia.org/ontology/wikiPageExternalLink
p306
aVhttp://dbpedia.org/property/divisions
p307
aVhttp://xmlns.com/foaf/0.1/primaryTopic
p308
aVhttp://dbpedia.org/property/name
p309
aVhttp://purl.org/dc/terms/subject
p310
aVhttp://dbpedia.org/ontology/residence
p311
aVhttp://dbpedia.org/ontology/abstract
p312
aVhttp://xmlns.com/foaf/0.1/depiction
p313
aVhttp://dbpedia.org/property/type
p314
aVhttp://dbpedia.org/property/location
p315
aVhttp://dbpedia.org/property/exchanges
p316
aVhttp://dbpedia.org/ontology/division
p317
aVhttp://dbpedia.org/ontology/thumbnail
p318
aVhttp://dbpedia.org/property/stockExchange
p319
aVhttp://dbpedia.org/property/hasPhotoCollection
p320
aVhttp://dbpedia.org/ontology/foundationPlace
p321
aVhttp://www.w3.org/2000/01/rdf-schema#label
p322
aVhttp://dbpedia.org/ontology/location
p323
aVhttp://dbpedia.org/property/tradedAs
p324
aVhttp://www.w3.org/2000/01/rdf-schema#comment
p325
aVhttp://dbpedia.org/property/subsidiaries
p326
aVhttp://dbpedia.org/property/workplaces
p327
aVhttp://dbpedia.org/property/mcap
p328
aVhttp://xmlns.com/foaf/0.1/homepage
p329
aVhttp://dbpedia.org/ontology/locationCity
p330
aVhttp://www.w3.org/2002/07/owl#sameAs
p331
aVhttp://dbpedia.org/ontology/occupation
p332
assI4
(dp333
I0
g221
sI1
g241
sI2
g277
sI3
g284
sI4
(lp334
sI5
(lp335
Vhttp://dbpedia.org/ontology/type
p336
aVhttp://dbpedia.org/property/industry
p337
aVhttp://dbpedia.org/property/name
p338
aVhttp://dbpedia.org/property/homepage
p339
aVhttp://www.w3.org/ns/prov#wasDerivedFrom
p340
aVhttp://www.w3.org/1999/02/22-rdf-syntax-ns#type
p341
aVhttp://dbpedia.org/property/parent
p342
aVhttp://dbpedia.org/property/wordnet_type
p343
aVhttp://xmlns.com/foaf/0.1/isPrimaryTopicOf
p344
aVhttp://dbpedia.org/ontology/wikiPageDisambiguates
p345
aVhttp://dbpedia.org/ontology/wikiPageExternalLink
p346
aVhttp://xmlns.com/foaf/0.1/primaryTopic
p347
aVhttp://purl.org/dc/terms/subject
p348
aVhttp://dbpedia.org/ontology/abstract
p349
aVhttp://xmlns.com/foaf/0.1/depiction
p350
aVhttp://dbpedia.org/property/type
p351
aVhttp://dbpedia.org/ontology/foundedBy
p352
aVhttp://dbpedia.org/property/location
p353
aVhttp://dbpedia.org/property/logo
p354
aVhttp://dbpedia.org/ontology/thumbnail
p355
aVhttp://dbpedia.org/property/hasPhotoCollection
p356
aVhttp://www.w3.org/2000/01/rdf-schema#label
p357
aVhttp://dbpedia.org/ontology/location
p358
aVhttp://www.w3.org/2000/01/rdf-schema#comment
p359
aVhttp://dbpedia.org/ontology/wikiPageRedirects
p360
aVhttp://dbpedia.org/property/founder
p361
aVhttp://dbpedia.org/ontology/keyPerson
p362
aVhttp://xmlns.com/foaf/0.1/name
p363
aVhttp://xmlns.com/foaf/0.1/homepage
p364
aVhttp://www.w3.org/2002/07/owl#sameAs
p365
assI5
(dp366
I0
g233
sI1
g244
sI2
g278
sI3
g285
sI4
g335
sI5
(lp367
ssa(dp368
I0
(dp369
I0
(lp370
sI1
(lp371
Vhttp://www.w3.org/1999/02/22-rdf-syntax-ns#type
p372
aVhttp://purl.org/dc/terms/subject
p373
aVhttp://www.w3.org/2000/01/rdf-schema#comment
p374
aVhttp://dbpedia.org/ontology/abstract
p375
aVhttp://purl.org/voc/vrank#hasRank
p376
aVhttp://www.w3.org/ns/prov#wasDerivedFrom
p377
aVhttp://dbpedia.org/property/hasPhotoCollection
p378
aVhttp://www.w3.org/2002/07/owl#sameAs
p379
asI2
(lp380
Vhttp://dbpedia.org/property/origin
p381
aVhttp://dbpedia.org/property/placeOfDeath
p382
aVhttp://dbpedia.org/property/governmentType
p383
aVhttp://dbpedia.org/property/place
p384
aVhttp://dbpedia.org/property/city
p385
aVhttp://dbpedia.org/property/birthplace
p386
aVhttp://dbpedia.org/ontology/garrison
p387
aVhttp://www.w3.org/ns/prov#wasDerivedFrom
p388
aVhttp://dbpedia.org/ontology/routeEnd
p389
aVhttp://www.w3.org/1999/02/22-rdf-syntax-ns#type
p390
aVhttp://dbpedia.org/ontology/postalCode
p391
aVhttp://dbpedia.org/property/quote
p392
aVhttp://dbpedia.org/property/rd1t2Loc
p393
aVhttp://dbpedia.org/property/birthPlace
p394
aVhttp://dbpedia.org/property/placeOfBirth
p395
aVhttp://dbpedia.org/property/hometown
p396
aVhttp://dbpedia.org/ontology/abstract
p397
aVhttp://dbpedia.org/ontology/wikiPageExternalLink
p398
aVhttp://dbpedia.org/ontology/homeport
p399
aVhttp://dbpedia.org/property/nextcity
p400
aVhttp://dbpedia.org/property/siteCityst
p401
aVhttp://dbpedia.org/property/shipHomeport
p402
aVhttp://www.w3.org/2000/01/rdf-schema#comment
p403
aVhttp://dbpedia.org/property/home
p404
aVhttp://dbpedia.org/property/nextLocation
p405
aVhttp://dbpedia.org/ontology/recordedIn
p406
aVhttp://dbpedia.org/property/deathPlace
p407
aVhttp://dbpedia.org/property/location
p408
aVhttp://dbpedia.org/ontology/builder
p409
aVhttp://dbpedia.org/ontology/deathPlace
p410
aVhttp://dbpedia.org/property/hasPhotoCollection
p411
aVhttp://dbpedia.org/ontology/location
p412
aVhttp://dbpedia.org/property/shipRoute
p413
aVhttp://www.georss.org/georss/point
p414
aVhttp://dbpedia.org/property/shipBuilder
p415
aVhttp://dbpedia.org/property/headquarters
p416
aVhttp://dbpedia.org/ontology/PopulatedPlace/areaTotal
p417
aVhttp://dbpedia.org/property/twintowns
p418
aVhttp://dbpedia.org/ontology/locationCity
p419
aVhttp://dbpedia.org/ontology/birthPlace
p420
aVhttp://dbpedia.org/property/address
p421
aVhttp://dbpedia.org/property/founder
p422
aVhttp://dbpedia.org/ontology/hometown
p423
aVhttp://dbpedia.org/property/locationCity
p424
aVhttp://www.w3.org/2002/07/owl#sameAs
p425
aVhttp://dbpedia.org/property/mostrecent
p426
aVhttp://dbpedia.org/property/firstContested
p427
aVhttp://dbpedia.org/ontology/headquarter
p428
aVhttp://dbpedia.org/property/garrison
p429
aVhttp://dbpedia.org/property/residence
p430
aVhttp://dbpedia.org/property/stadium
p431
aVhttp://dbpedia.org/ontology/thumbnail
p432
asI3
(lp433
Vhttp://www.georss.org/georss/point
p434
aVhttp://www.w3.org/2000/01/rdf-schema#comment
p435
aVhttp://dbpedia.org/ontology/abstract
p436
aVhttp://dbpedia.org/property/wordnet_type
p437
aVhttp://purl.org/voc/vrank#hasRank
p438
aVhttp://www.w3.org/1999/02/22-rdf-syntax-ns#type
p439
aVhttp://dbpedia.org/ontology/thumbnail
p440
aVhttp://dbpedia.org/property/hasPhotoCollection
p441
aVhttp://www.w3.org/2002/07/owl#sameAs
p442
asI4
(lp443
Vhttp://www.w3.org/1999/02/22-rdf-syntax-ns#type
p444
aVhttp://purl.org/dc/terms/subject
p445
aVhttp://dbpedia.org/property/numEmployees
p446
aVhttp://xmlns.com/foaf/0.1/depiction
p447
aVhttp://dbpedia.org/property/wordnet_type
p448
aVhttp://purl.org/voc/vrank#hasRank
p449
aVhttp://dbpedia.org/property/operatingIncome
p450
aVhttp://dbpedia.org/ontology/thumbnail
p451
aVhttp://dbpedia.org/property/hasPhotoCollection
p452
aVhttp://dbpedia.org/ontology/operatingIncome
p453
aVhttp://www.w3.org/2002/07/owl#sameAs
p454
asI5
(lp455
Vhttp://www.w3.org/ns/prov#wasDerivedFrom
p456
aVhttp://dbpedia.org/property/hasPhotoCollection
p457
aVhttp://www.w3.org/1999/02/22-rdf-syntax-ns#type
p458
aVhttp://www.w3.org/2002/07/owl#sameAs
p459
assI1
(dp460
I0
g371
sI1
(lp461
sI2
(lp462
Vhttp://dbpedia.org/ontology/wikiPageExternalLink
p463
aVhttp://xmlns.com/foaf/0.1/primaryTopic
p464
aVhttp://purl.org/dc/terms/subject
p465
aVhttp://dbpedia.org/ontology/location
p466
aVhttp://www.w3.org/2000/01/rdf-schema#comment
p467
aVhttp://xmlns.com/foaf/0.1/name
p468
aVhttp://dbpedia.org/ontology/abstract
p469
aVhttp://dbpedia.org/ontology/wikiPageRedirects
p470
aVhttp://dbpedia.org/property/parent
p471
aVhttp://dbpedia.org/property/name
p472
aVhttp://dbpedia.org/property/location
p473
aVhttp://xmlns.com/foaf/0.1/isPrimaryTopicOf
p474
aVhttp://www.w3.org/ns/prov#wasDerivedFrom
p475
aVhttp://dbpedia.org/ontology/parentCompany
p476
aVhttp://xmlns.com/foaf/0.1/homepage
p477
aVhttp://dbpedia.org/property/hasPhotoCollection
p478
aVhttp://www.w3.org/2000/01/rdf-schema#label
p479
aVhttp://www.w3.org/2002/07/owl#sameAs
p480
asI3
(lp481
Vhttp://dbpedia.org/ontology/abstract
p482
aVhttp://www.w3.org/2000/01/rdf-schema#comment
p483
asI4
(lp484
Vhttp://www.w3.org/1999/02/22-rdf-syntax-ns#type
p485
aVhttp://purl.org/dc/terms/subject
p486
asI5
(lp487
Vhttp://dbpedia.org/ontology/type
p488
aVhttp://dbpedia.org/property/industry
p489
aVhttp://dbpedia.org/property/name
p490
aVhttp://www.w3.org/ns/prov#wasDerivedFrom
p491
aVhttp://dbpedia.org/ontology/industry
p492
aVhttp://www.w3.org/1999/02/22-rdf-syntax-ns#type
p493
aVhttp://dbpedia.org/property/parent
p494
aVhttp://dbpedia.org/property/netIncome
p495
aVhttp://xmlns.com/foaf/0.1/isPrimaryTopicOf
p496
aVhttp://dbpedia.org/property/assets
p497
aVhttp://dbpedia.org/ontology/wikiPageExternalLink
p498
aVhttp://xmlns.com/foaf/0.1/primaryTopic
p499
aVhttp://purl.org/dc/terms/subject
p500
aVhttp://dbpedia.org/ontology/abstract
p501
aVhttp://dbpedia.org/property/type
p502
aVhttp://dbpedia.org/property/location
p503
aVhttp://dbpedia.org/ontology/parentCompany
p504
aVhttp://dbpedia.org/property/hasPhotoCollection
p505
aVhttp://www.w3.org/2000/01/rdf-schema#label
p506
aVhttp://dbpedia.org/property/revenue
p507
aVhttp://dbpedia.org/ontology/location
p508
aVhttp://www.w3.org/2000/01/rdf-schema#comment
p509
aVhttp://dbpedia.org/ontology/wikiPageRedirects
p510
aVhttp://dbpedia.org/ontology/keyPerson
p511
aVhttp://xmlns.com/foaf/0.1/name
p512
aVhttp://xmlns.com/foaf/0.1/homepage
p513
aVhttp://www.w3.org/2002/07/owl#sameAs
p514
assI2
(dp515
I0
g380
sI1
g462
sI2
(lp516
sI3
(lp517
sI4
(lp518
sI5
(lp519
Vhttp://dbpedia.org/property/origin
p520
aVhttp://dbpedia.org/property/placeOfDeath
p521
aVhttp://dbpedia.org/ontology/type
p522
aVhttp://dbpedia.org/property/nextsupcity
p523
aVhttp://dbpedia.org/ontology/foundingPerson
p524
aVhttp://dbpedia.org/property/city
p525
aVhttp://dbpedia.org/ontology/garrison
p526
aVhttp://dbpedia.org/ontology/previousWork
p527
aVhttp://dbpedia.org/ontology/knownFor
p528
aVhttp://dbpedia.org/ontology/city
p529
aVhttp://www.w3.org/ns/prov#wasDerivedFrom
p530
aVhttp://dbpedia.org/property/coordinatesRegion
p531
aVhttp://dbpedia.org/property/territory
p532
aVhttp://dbpedia.org/ontology/routeEnd
p533
aVhttp://dbpedia.org/ontology/regionServed
p534
aVhttp://dbpedia.org/ontology/picture
p535
aVhttp://dbpedia.org/ontology/canonizedPlace
p536
aVhttp://dbpedia.org/ontology/field
p537
aVhttp://dbpedia.org/property/parentAgency
p538
aVhttp://dbpedia.org/ontology/governmentType
p539
aVhttp://dbpedia.org/ontology/subsequentWork
p540
aVhttp://dbpedia.org/ontology/isPartOf
p541
aVhttp://xmlns.com/foaf/0.1/isPrimaryTopicOf
p542
aVhttp://dbpedia.org/property/establishedTitle
p543
aVhttp://dbpedia.org/property/hometown
p544
aVhttp://dbpedia.org/property/meetingPlace
p545
aVhttp://dbpedia.org/property/start
p546
aVhttp://dbpedia.org/property/mapCaption
p547
aVhttp://dbpedia.org/property/imageCaption
p548
aVhttp://dbpedia.org/property/imageSkyline
p549
aVhttp://dbpedia.org/ontology/residence
p550
aVhttp://dbpedia.org/ontology/abstract
p551
aVhttp://dbpedia.org/ontology/recordedIn
p552
aVhttp://dbpedia.org/property/leaderName
p553
aVhttp://dbpedia.org/property/currentCity
p554
aVhttp://dbpedia.org/ontology/mouthMountain
p555
aVhttp://dbpedia.org/property/loop
p556
aVhttp://dbpedia.org/property/shipNamesake
p557
aVhttp://dbpedia.org/ontology/timeZone
p558
aVhttp://dbpedia.org/property/pushpinMapCaption
p559
aVhttp://dbpedia.org/property/imageMap
p560
aVhttp://dbpedia.org/property/shipBuilder
p561
aVhttp://dbpedia.org/ontology/location
p562
aVhttp://dbpedia.org/property/parentDepartment
p563
aVhttp://dbpedia.org/ontology/wikiPageDisambiguates
p564
aVhttp://dbpedia.org/property/governmentType
p565
aVhttp://dbpedia.org/property/departments
p566
aVhttp://dbpedia.org/property/area
p567
aVhttp://dbpedia.org/property/metroArea
p568
aVhttp://dbpedia.org/ontology/restingPlace
p569
aVhttp://dbpedia.org/property/mostrecent
p570
aVhttp://dbpedia.org/property/foundingLocation
p571
aVhttp://dbpedia.org/property/jurisdiction
p572
aVhttp://dbpedia.org/property/builders
p573
aVhttp://dbpedia.org/property/training
p574
aVhttp://www.w3.org/2000/01/rdf-schema#seeAlso
p575
aVhttp://dbpedia.org/ontology/wikiPageExternalLink
p576
aVhttp://dbpedia.org/ontology/wikiPageRedirects
p577
aVhttp://dbpedia.org/property/birthDate
p578
aVhttp://dbpedia.org/property/hostCity
p579
aVhttp://dbpedia.org/property/restingPlace
p580
aVhttp://dbpedia.org/property/nextcity
p581
aVhttp://dbpedia.org/ontology/foundationPlace
p582
aVhttp://dbpedia.org/property/namedFor
p583
aVhttp://dbpedia.org/property/birthplace
p584
aVhttp://dbpedia.org/property/base
p585
aVhttp://dbpedia.org/property/link
p586
aVhttp://dbpedia.org/ontology/locatedInArea
p587
aVhttp://dbpedia.org/property/based
p588
aVhttp://dbpedia.org/property/label
p589
aVhttp://dbpedia.org/ontology/country
p590
aVhttp://dbpedia.org/property/region
p591
aVhttp://dbpedia.org/property/birthName
p592
aVhttp://dbpedia.org/property/destinations
p593
aVhttp://dbpedia.org/property/quote
p594
aVhttp://dbpedia.org/ontology/routeStartLocation
p595
aVhttp://dbpedia.org/property/governingBody
p596
aVhttp://dbpedia.org/property/prev
p597
aVhttp://dbpedia.org/property/recLocation
p598
aVhttp://dbpedia.org/property/populationDemonym
p599
aVhttp://dbpedia.org/ontology/billed
p600
aVhttp://dbpedia.org/ontology/part
p601
aVhttp://dbpedia.org/property/state
p602
aVhttp://dbpedia.org/property/areaServed
p603
aVhttp://xmlns.com/foaf/0.1/nick
p604
aVhttp://xmlns.com/foaf/0.1/primaryTopic
p605
aVhttp://dbpedia.org/ontology/campus
p606
aVhttp://dbpedia.org/ontology/significantProject
p607
aVhttp://dbpedia.org/property/field
p608
aVhttp://dbpedia.org/property/county
p609
aVhttp://dbpedia.org/property/officialName
p610
aVhttp://dbpedia.org/property/pushpinMap
p611
aVhttp://dbpedia.org/property/deathPlace
p612
aVhttp://dbpedia.org/property/twin
p613
aVhttp://dbpedia.org/ontology/homeStadium
p614
aVhttp://dbpedia.org/property/resides
p615
aVhttp://dbpedia.org/property/hasPhotoCollection
p616
aVhttp://dbpedia.org/property/cityServed
p617
aVhttp://dbpedia.org/property/populationBlank1Title
p618
aVhttp://dbpedia.org/property/regions
p619
aVhttp://dbpedia.org/property/east
p620
aVhttp://dbpedia.org/property/north
p621
aVhttp://dbpedia.org/property/headquarters
p622
aVhttp://dbpedia.org/ontology/nearestCity
p623
aVhttp://dbpedia.org/property/twintowns
p624
aVhttp://dbpedia.org/property/leaderTitle
p625
aVhttp://dbpedia.org/ontology/birthPlace
p626
aVhttp://dbpedia.org/ontology/locationCountry
p627
aVhttp://dbpedia.org/property/aux
p628
aVhttp://dbpedia.org/property/timezoneDst
p629
aVhttp://dbpedia.org/property/firstContested
p630
aVhttp://xmlns.com/foaf/0.1/homepage
p631
aVhttp://dbpedia.org/property/garrison
p632
aVhttp://dbpedia.org/property/south
p633
aVhttp://dbpedia.org/ontology/deathPlace
p634
aVhttp://dbpedia.org/property/centre
p635
aVhttp://dbpedia.org/property/recorded
p636
aVhttp://dbpedia.org/ontology/majorShrine
p637
aVhttp://dbpedia.org/property/shipLocation
p638
aVhttp://dbpedia.org/ontology/origin
p639
aVhttp://dbpedia.org/ontology/broadcastArea
p640
aVhttp://dbpedia.org/property/boyhoodHome
p641
aVhttp://dbpedia.org/property/lo%23ationCity
p642
aVhttp://dbpedia.org/property/legaljuris
p643
aVhttp://dbpedia.org/property/residence
p644
aVhttp://dbpedia.org/property/edition
p645
aVhttp://dbpedia.org/property/nickname
p646
aVhttp://dbpedia.org/property/p
p647
aVhttp://dbpedia.org/property/billed
p648
aVhttp://www.w3.org/1999/02/22-rdf-syntax-ns#type
p649
aVhttp://dbpedia.org/ontology/award
p650
aVhttp://dbpedia.org/ontology/education
p651
aVhttp://dbpedia.org/property/locationCountry
p652
aVhttp://dbpedia.org/property/ground
p653
aVhttp://dbpedia.org/property/list
p654
aVhttp://dbpedia.org/property/rd1t2Loc
p655
aVhttp://dbpedia.org/ontology/ground
p656
aVhttp://dbpedia.org/property/dutyStation
p657
aVhttp://dbpedia.org/property/locationSigned
p658
aVhttp://dbpedia.org/property/owner
p659
aVhttp://dbpedia.org/property/mouthLocation
p660
aVhttp://dbpedia.org/ontology/routeJunction
p661
aVhttp://dbpedia.org/property/title
p662
aVhttp://dbpedia.org/property/blankName
p663
aVhttp://dbpedia.org/property/placeOfBirth
p664
aVhttp://dbpedia.org/property/subdivisionType
p665
aVhttp://dbpedia.org/property/southwest
p666
aVhttp://www.w3.org/2000/01/rdf-schema#comment
p667
aVhttp://dbpedia.org/property/foundedDate
p668
aVhttp://dbpedia.org/property/winnerOrigin
p669
aVhttp://dbpedia.org/property/settlementType
p670
aVhttp://dbpedia.org/property/fightingOutOf
p671
aVhttp://dbpedia.org/property/localScenes
p672
aVhttp://dbpedia.org/ontology/thumbnail
p673
aVhttp://dbpedia.org/property/shipRoute
p674
aVhttp://dbpedia.org/property/homeTown
p675
aVhttp://dbpedia.org/property/fullname
p676
aVhttp://dbpedia.org/ontology/routeStart
p677
aVhttp://dbpedia.org/ontology/mouthPlace
p678
aVhttp://dbpedia.org/property/subdivisionName
p679
aVhttp://dbpedia.org/ontology/homeport
p680
aVhttp://dbpedia.org/property/areaCodeType
p681
aVhttp://dbpedia.org/property/popplace
p682
aVhttp://dbpedia.org/property/address
p683
aVhttp://dbpedia.org/property/canonizedPlace
p684
aVhttp://dbpedia.org/property/founder
p685
aVhttp://dbpedia.org/property/terrServ
p686
aVhttp://dbpedia.org/property/destination
p687
aVhttp://dbpedia.org/property/previousLocations
p688
aVhttp://dbpedia.org/ontology/twinTown
p689
aVhttp://dbpedia.org/property/southeast
p690
aVhttp://dbpedia.org/ontology/governingBody
p691
aVhttp://dbpedia.org/property/countryAdminDivisions
p692
aVhttp://dbpedia.org/property/stadium
p693
aVhttp://dbpedia.org/property/terminusA
p694
aVhttp://dbpedia.org/property/cities
p695
aVhttp://dbpedia.org/property/next
p696
aVhttp://dbpedia.org/property/note
p697
aVhttp://dbpedia.org/property/usingJurisdiction
p698
aVhttp://dbpedia.org/property/place
p699
aVhttp://dbpedia.org/property/regionalScenes
p700
aVhttp://dbpedia.org/property/name
p701
aVhttp://dbpedia.org/property/timezone
p702
aVhttp://dbpedia.org/ontology/jurisdiction
p703
aVhttp://dbpedia.org/property/imageSeal
p704
aVhttp://www.w3.org/2002/07/owl#differentFrom
p705
aVhttp://dbpedia.org/ontology/locationCity
p706
aVhttp://dbpedia.org/property/siteCityst
p707
aVhttp://dbpedia.org/ontology/leaderTitle
p708
aVhttp://dbpedia.org/property/placeofburial
p709
aVhttp://dbpedia.org/property/postalCodeType
p710
aVhttp://dbpedia.org/property/locations
p711
aVhttp://dbpedia.org/property/after
p712
aVhttp://dbpedia.org/ontology/place
p713
aVhttp://dbpedia.org/property/office
p714
aVhttp://dbpedia.org/property/employer
p715
aVhttp://dbpedia.org/property/foundedPlace
p716
aVhttp://dbpedia.org/property/hqCity
p717
aVhttp://dbpedia.org/property/nearestCity
p718
aVhttp://dbpedia.org/property/blank2Name
p719
aVhttp://xmlns.com/foaf/0.1/depiction
p720
aVhttp://purl.org/dc/terms/subject
p721
aVhttp://dbpedia.org/ontology/populationPlace
p722
aVhttp://dbpedia.org/property/free
p723
aVhttp://dbpedia.org/property/venue
p724
aVhttp://dbpedia.org/property/nextLocation
p725
aVhttp://dbpedia.org/property/location
p726
aVhttp://dbpedia.org/property/extra
p727
aVhttp://dbpedia.org/property/armiger
p728
aVhttp://xmlns.com/foaf/0.1/name
p729
aVhttp://dbpedia.org/ontology/headquarter
p730
aVhttp://dbpedia.org/ontology/hometown
p731
aVhttp://dbpedia.org/property/west
p732
aVhttp://dbpedia.org/property/recordLocation
p733
aVhttp://dbpedia.org/property/foundation
p734
aVhttp://dbpedia.org/ontology/region
p735
aVhttp://dbpedia.org/property/northeast
p736
aVhttp://www.w3.org/2000/01/rdf-schema#label
p737
aVhttp://dbpedia.org/property/prevcity
p738
aVhttp://dbpedia.org/property/shipRegistry
p739
aVhttp://dbpedia.org/property/locale
p740
aVhttp://dbpedia.org/ontology/premierePlace
p741
aVhttp://dbpedia.org/ontology/leaderName
p742
aVhttp://dbpedia.org/property/rd2t1Loc
p743
aVhttp://dbpedia.org/property/birthPlace
p744
aVhttp://dbpedia.org/property/unitPref
p745
aVhttp://dbpedia.org/ontology/motto
p746
aVhttp://dbpedia.org/property/offices
p747
aVhttp://dbpedia.org/property/northwest
p748
aVhttp://dbpedia.org/property/recordedAt
p749
aVhttp://dbpedia.org/property/imageFlag
p750
aVhttp://www.w3.org/2002/07/owl#sameAs
p751
aVhttp://dbpedia.org/property/shipHomeport
p752
aVhttp://dbpedia.org/property/home
p753
aVhttp://dbpedia.org/ontology/builder
p754
aVhttp://dbpedia.org/property/locationCity
p755
aVhttp://dbpedia.org/property/setting
p756
aVhttp://dbpedia.org/property/data
p757
aVhttp://dbpedia.org/property/locationTown
p758
aVhttp://dbpedia.org/ontology/occupation
p759
assI3
(dp760
I0
g433
sI1
g481
sI2
g517
sI3
(lp761
sI4
(lp762
sI5
(lp763
Vhttp://www.w3.org/2000/01/rdf-schema#seeAlso
p764
aVhttp://dbpedia.org/property/currency
p765
aVhttp://dbpedia.org/ontology/type
p766
aVhttp://dbpedia.org/property/volume
p767
aVhttp://dbpedia.org/ontology/board
p768
aVhttp://dbpedia.org/ontology/wikiPageRedirects
p769
aVhttp://dbpedia.org/property/boards
p770
aVhttp://dbpedia.org/ontology/knownFor
p771
aVhttp://www.w3.org/ns/prov#wasDerivedFrom
p772
aVhttp://www.w3.org/2002/07/owl#differentFrom
p773
aVhttp://dbpedia.org/ontology/architecturalStyle
p774
aVhttp://www.w3.org/1999/02/22-rdf-syntax-ns#type
p775
aVhttp://dbpedia.org/property/indexes
p776
aVhttp://dbpedia.org/ontology/architect
p777
aVhttp://dbpedia.org/property/wordnet_type
p778
aVhttp://xmlns.com/foaf/0.1/isPrimaryTopicOf
p779
aVhttp://dbpedia.org/property/employer
p780
aVhttp://dbpedia.org/property/owner
p781
aVhttp://dbpedia.org/property/country
p782
aVhttp://dbpedia.org/property/keyPeople
p783
aVhttp://dbpedia.org/ontology/wikiPageExternalLink
p784
aVhttp://dbpedia.org/property/divisions
p785
aVhttp://xmlns.com/foaf/0.1/primaryTopic
p786
aVhttp://dbpedia.org/property/name
p787
aVhttp://purl.org/dc/terms/subject
p788
aVhttp://dbpedia.org/ontology/residence
p789
aVhttp://dbpedia.org/ontology/abstract
p790
aVhttp://xmlns.com/foaf/0.1/depiction
p791
aVhttp://dbpedia.org/property/type
p792
aVhttp://dbpedia.org/property/location
p793
aVhttp://dbpedia.org/property/exchanges
p794
aVhttp://dbpedia.org/ontology/division
p795
aVhttp://dbpedia.org/ontology/thumbnail
p796
aVhttp://dbpedia.org/property/stockExchange
p797
aVhttp://dbpedia.org/property/hasPhotoCollection
p798
aVhttp://dbpedia.org/ontology/foundationPlace
p799
aVhttp://www.w3.org/2000/01/rdf-schema#label
p800
aVhttp://dbpedia.org/ontology/location
p801
aVhttp://dbpedia.org/property/tradedAs
p802
aVhttp://www.w3.org/2000/01/rdf-schema#comment
p803
aVhttp://dbpedia.org/property/subsidiaries
p804
aVhttp://dbpedia.org/property/workplaces
p805
aVhttp://dbpedia.org/property/mcap
p806
aVhttp://xmlns.com/foaf/0.1/homepage
p807
aVhttp://dbpedia.org/ontology/locationCity
p808
aVhttp://www.w3.org/2002/07/owl#sameAs
p809
aVhttp://dbpedia.org/ontology/occupation
p810
assI4
(dp811
I0
g443
sI1
g484
sI2
g518
sI3
g762
sI4
(lp812
sI5
(lp813
Vhttp://dbpedia.org/ontology/type
p814
aVhttp://dbpedia.org/property/industry
p815
aVhttp://dbpedia.org/property/name
p816
aVhttp://dbpedia.org/property/homepage
p817
aVhttp://www.w3.org/ns/prov#wasDerivedFrom
p818
aVhttp://www.w3.org/1999/02/22-rdf-syntax-ns#type
p819
aVhttp://dbpedia.org/property/parent
p820
aVhttp://dbpedia.org/property/wordnet_type
p821
aVhttp://xmlns.com/foaf/0.1/isPrimaryTopicOf
p822
aVhttp://dbpedia.org/ontology/wikiPageDisambiguates
p823
aVhttp://dbpedia.org/ontology/wikiPageExternalLink
p824
aVhttp://xmlns.com/foaf/0.1/primaryTopic
p825
aVhttp://purl.org/dc/terms/subject
p826
aVhttp://dbpedia.org/ontology/abstract
p827
aVhttp://xmlns.com/foaf/0.1/depiction
p828
aVhttp://dbpedia.org/property/type
p829
aVhttp://dbpedia.org/ontology/foundedBy
p830
aVhttp://dbpedia.org/property/location
p831
aVhttp://dbpedia.org/property/logo
p832
aVhttp://dbpedia.org/ontology/thumbnail
p833
aVhttp://dbpedia.org/property/hasPhotoCollection
p834
aVhttp://www.w3.org/2000/01/rdf-schema#label
p835
aVhttp://dbpedia.org/ontology/location
p836
aVhttp://www.w3.org/2000/01/rdf-schema#comment
p837
aVhttp://dbpedia.org/ontology/wikiPageRedirects
p838
aVhttp://dbpedia.org/property/founder
p839
aVhttp://dbpedia.org/ontology/keyPerson
p840
aVhttp://xmlns.com/foaf/0.1/name
p841
aVhttp://xmlns.com/foaf/0.1/homepage
p842
aVhttp://www.w3.org/2002/07/owl#sameAs
p843
assI5
(dp844
I0
g455
sI1
g487
sI2
g519
sI3
g763
sI4
g813
sI5
(lp845
ssa(dp846
I0
(dp847
I0
(lp848
sI1
(lp849
sI2
(lp850
Vhttp://dbpedia.org/ontology/abstract
p851
aVhttp://www.w3.org/2002/07/owl#sameAs
p852
aVhttp://www.w3.org/2000/01/rdf-schema#comment
p853
asI3
(lp854
Vhttp://www.georss.org/georss/point
p855
aVhttp://www.w3.org/2000/01/rdf-schema#comment
p856
aVhttp://dbpedia.org/ontology/abstract
p857
aVhttp://purl.org/voc/vrank#hasRank
p858
aVhttp://www.w3.org/1999/02/22-rdf-syntax-ns#type
p859
aVhttp://www.w3.org/ns/prov#wasDerivedFrom
p860
aVhttp://www.w3.org/2002/07/owl#sameAs
p861
asI4
(lp862
Vhttp://www.w3.org/ns/prov#wasDerivedFrom
p863
aVhttp://purl.org/voc/vrank#hasRank
p864
aVhttp://dbpedia.org/property/industry
p865
aVhttp://www.w3.org/2002/07/owl#sameAs
p866
asI5
(lp867
Vhttp://www.w3.org/1999/02/22-rdf-syntax-ns#type
p868
aVhttp://dbpedia.org/ontology/recordLabel
p869
aVhttp://www.w3.org/2000/01/rdf-schema#comment
p870
aVhttp://dbpedia.org/ontology/abstract
p871
aVhttp://purl.org/dc/terms/subject
p872
aVhttp://www.w3.org/2002/07/owl#sameAs
p873
assI1
(dp874
I0
g849
sI1
(lp875
sI2
(lp876
sI3
(lp877
sI4
(lp878
sI5
(lp879
Vhttp://www.w3.org/2002/07/owl#sameAs
p880
assI2
(dp881
I0
g850
sI1
g876
sI2
(lp882
sI3
(lp883
sI4
(lp884
sI5
(lp885
Vhttp://dbpedia.org/ontology/wikiPageExternalLink
p886
aVhttp://purl.org/dc/terms/subject
p887
aVhttp://www.w3.org/2000/01/rdf-schema#comment
p888
aVhttp://www.w3.org/2000/01/rdf-schema#label
p889
aVhttp://dbpedia.org/ontology/abstract
p890
aVhttp://xmlns.com/foaf/0.1/depiction
p891
aVhttp://dbpedia.org/ontology/wikiPageRedirects
p892
aVhttp://dbpedia.org/ontology/service
p893
aVhttp://dbpedia.org/ontology/thumbnail
p894
aVhttp://dbpedia.org/property/hasPhotoCollection
p895
aVhttp://dbpedia.org/ontology/wikiPageDisambiguates
p896
aVhttp://www.w3.org/2002/07/owl#sameAs
p897
assI3
(dp898
I0
g854
sI1
g877
sI2
g883
sI3
(lp899
sI4
(lp900
sI5
(lp901
Vhttp://www.w3.org/2000/01/rdf-schema#seeAlso
p902
aVhttp://dbpedia.org/property/currency
p903
aVhttp://dbpedia.org/ontology/type
p904
aVhttp://dbpedia.org/property/volume
p905
aVhttp://dbpedia.org/ontology/board
p906
aVhttp://dbpedia.org/ontology/wikiPageRedirects
p907
aVhttp://dbpedia.org/property/boards
p908
aVhttp://dbpedia.org/ontology/knownFor
p909
aVhttp://www.w3.org/ns/prov#wasDerivedFrom
p910
aVhttp://www.w3.org/2002/07/owl#differentFrom
p911
aVhttp://dbpedia.org/ontology/architecturalStyle
p912
aVhttp://www.w3.org/1999/02/22-rdf-syntax-ns#type
p913
aVhttp://dbpedia.org/property/indexes
p914
aVhttp://dbpedia.org/ontology/architect
p915
aVhttp://dbpedia.org/property/wordnet_type
p916
aVhttp://xmlns.com/foaf/0.1/isPrimaryTopicOf
p917
aVhttp://dbpedia.org/property/employer
p918
aVhttp://dbpedia.org/property/owner
p919
aVhttp://dbpedia.org/property/country
p920
aVhttp://dbpedia.org/property/keyPeople
p921
aVhttp://dbpedia.org/ontology/wikiPageExternalLink
p922
aVhttp://dbpedia.org/property/divisions
p923
aVhttp://xmlns.com/foaf/0.1/primaryTopic
p924
aVhttp://dbpedia.org/property/name
p925
aVhttp://purl.org/dc/terms/subject
p926
aVhttp://dbpedia.org/ontology/residence
p927
aVhttp://dbpedia.org/ontology/abstract
p928
aVhttp://xmlns.com/foaf/0.1/depiction
p929
aVhttp://dbpedia.org/property/type
p930
aVhttp://dbpedia.org/property/location
p931
aVhttp://dbpedia.org/property/exchanges
p932
aVhttp://dbpedia.org/ontology/division
p933
aVhttp://dbpedia.org/ontology/thumbnail
p934
aVhttp://dbpedia.org/property/stockExchange
p935
aVhttp://dbpedia.org/property/hasPhotoCollection
p936
aVhttp://dbpedia.org/ontology/foundationPlace
p937
aVhttp://www.w3.org/2000/01/rdf-schema#label
p938
aVhttp://dbpedia.org/ontology/location
p939
aVhttp://dbpedia.org/property/tradedAs
p940
aVhttp://www.w3.org/2000/01/rdf-schema#comment
p941
aVhttp://dbpedia.org/property/subsidiaries
p942
aVhttp://dbpedia.org/property/workplaces
p943
aVhttp://dbpedia.org/property/mcap
p944
aVhttp://xmlns.com/foaf/0.1/homepage
p945
aVhttp://dbpedia.org/ontology/locationCity
p946
aVhttp://www.w3.org/2002/07/owl#sameAs
p947
aVhttp://dbpedia.org/ontology/occupation
p948
assI4
(dp949
I0
g862
sI1
g878
sI2
g884
sI3
g900
sI4
(lp950
sI5
(lp951
Vhttp://www.w3.org/2000/01/rdf-schema#seeAlso
p952
aVhttp://dbpedia.org/ontology/wikiPageExternalLink
p953
aVhttp://dbpedia.org/property/industry
p954
aVhttp://purl.org/dc/terms/subject
p955
aVhttp://www.w3.org/2000/01/rdf-schema#comment
p956
aVhttp://www.w3.org/2002/07/owl#sameAs
p957
aVhttp://www.w3.org/2000/01/rdf-schema#label
p958
aVhttp://dbpedia.org/ontology/abstract
p959
aVhttp://xmlns.com/foaf/0.1/depiction
p960
aVhttp://dbpedia.org/property/type
p961
aVhttp://dbpedia.org/ontology/wikiPageRedirects
p962
aVhttp://dbpedia.org/ontology/service
p963
aVhttp://dbpedia.org/property/course
p964
aVhttp://dbpedia.org/property/products
p965
aVhttp://dbpedia.org/ontology/thumbnail
p966
aVhttp://dbpedia.org/property/services
p967
aVhttp://dbpedia.org/ontology/type
p968
aVhttp://dbpedia.org/property/hasPhotoCollection
p969
aVhttp://dbpedia.org/ontology/wikiPageDisambiguates
p970
aVhttp://dbpedia.org/ontology/product
p971
aVhttp://dbpedia.org/ontology/industry
p972
assI5
(dp973
I0
g867
sI1
g879
sI2
g885
sI3
g901
sI4
g951
sI5
(lp974
ssa(dp975
I0
(dp976
I0
(lp977
sI1
(lp978
Vhttp://www.w3.org/1999/02/22-rdf-syntax-ns#type
p979
aVhttp://dbpedia.org/ontology/abstract
p980
aVhttp://dbpedia.org/property/assets
p981
aVhttp://www.w3.org/ns/prov#wasDerivedFrom
p982
aVhttp://dbpedia.org/property/hasPhotoCollection
p983
aVhttp://dbpedia.org/ontology/assets
p984
aVhttp://www.w3.org/2002/07/owl#sameAs
p985
asI2
(lp986
Vhttp://dbpedia.org/ontology/wikiPageExternalLink
p987
aVhttp://www.w3.org/1999/02/22-rdf-syntax-ns#type
p988
aVhttp://dbpedia.org/property/manufacturer
p989
aVhttp://dbpedia.org/property/aircraftType
p990
aVhttp://www.w3.org/ns/prov#wasDerivedFrom
p991
aVhttp://dbpedia.org/property/hasPhotoCollection
p992
aVhttp://dbpedia.org/ontology/manufacturer
p993
asI3
(lp994
Vhttp://www.w3.org/1999/02/22-rdf-syntax-ns#type
p995
aVhttp://www.w3.org/2000/01/rdf-schema#comment
p996
aVhttp://dbpedia.org/ontology/abstract
p997
aVhttp://dbpedia.org/property/indexes
p998
aVhttp://dbpedia.org/property/exchanges
p999
aVhttp://dbpedia.org/property/mcap
p1000
aVhttp://www.w3.org/ns/prov#wasDerivedFrom
p1001
aVhttp://dbpedia.org/property/hasPhotoCollection
p1002
aVhttp://www.w3.org/2002/07/owl#sameAs
p1003
asI4
(lp1004
Vhttp://www.w3.org/ns/prov#wasDerivedFrom
p1005
aVhttp://dbpedia.org/property/hasPhotoCollection
p1006
aVhttp://xmlns.com/foaf/0.1/depiction
p1007
aVhttp://dbpedia.org/ontology/thumbnail
p1008
aVhttp://www.w3.org/2002/07/owl#sameAs
p1009
asI5
(lp1010
Vhttp://www.w3.org/ns/prov#wasDerivedFrom
p1011
aVhttp://dbpedia.org/property/hasPhotoCollection
p1012
aVhttp://www.w3.org/1999/02/22-rdf-syntax-ns#type
p1013
aVhttp://www.w3.org/2002/07/owl#sameAs
p1014
assI1
(dp1015
I0
g978
sI1
(lp1016
sI2
(lp1017
sI3
(lp1018
sI4
(lp1019
Vhttp://www.w3.org/1999/02/22-rdf-syntax-ns#type
p1020
aVhttp://purl.org/dc/terms/subject
p1021
asI5
(lp1022
Vhttp://dbpedia.org/ontology/type
p1023
aVhttp://dbpedia.org/ontology/owningCompany
p1024
aVhttp://dbpedia.org/ontology/industry
p1025
aVhttp://dbpedia.org/ontology/keyPerson
p1026
aVhttp://www.w3.org/1999/02/22-rdf-syntax-ns#type
p1027
aVhttp://dbpedia.org/ontology/product
p1028
aVhttp://dbpedia.org/property/parent
p1029
aVhttp://dbpedia.org/property/wordnet_type
p1030
aVhttp://dbpedia.org/property/netIncome
p1031
aVhttp://dbpedia.org/property/products
p1032
aVhttp://dbpedia.org/property/assets
p1033
aVhttp://dbpedia.org/property/predecessor
p1034
aVhttp://dbpedia.org/property/subsid
p1035
aVhttp://dbpedia.org/property/keyPeople
p1036
aVhttp://dbpedia.org/ontology/wikiPageExternalLink
p1037
aVhttp://dbpedia.org/property/industry
p1038
aVhttp://purl.org/dc/terms/subject
p1039
aVhttp://dbpedia.org/ontology/subsidiary
p1040
aVhttp://dbpedia.org/ontology/abstract
p1041
aVhttp://dbpedia.org/property/type
p1042
aVhttp://dbpedia.org/property/location
p1043
aVhttp://dbpedia.org/ontology/parentCompany
p1044
aVhttp://dbpedia.org/property/hasPhotoCollection
p1045
aVhttp://dbpedia.org/property/revenue
p1046
aVhttp://dbpedia.org/ontology/predecessor
p1047
aVhttp://dbpedia.org/ontology/location
p1048
aVhttp://dbpedia.org/property/tradedAs
p1049
aVhttp://www.w3.org/2000/01/rdf-schema#comment
p1050
aVhttp://dbpedia.org/property/name
p1051
aVhttp://dbpedia.org/property/successor
p1052
aVhttp://dbpedia.org/ontology/owner
p1053
aVhttp://dbpedia.org/ontology/successor
p1054
aVhttp://xmlns.com/foaf/0.1/name
p1055
aVhttp://www.w3.org/2002/07/owl#sameAs
p1056
assI2
(dp1057
I0
g986
sI1
g1017
sI2
(lp1058
sI3
(lp1059
sI4
(lp1060
sI5
(lp1061
Vhttp://www.w3.org/2000/01/rdf-schema#seeAlso
p1062
aVhttp://dbpedia.org/ontology/type
p1063
aVhttp://dbpedia.org/property/industry
p1064
aVhttp://dbpedia.org/property/workplaces
p1065
aVhttp://www.w3.org/ns/prov#wasDerivedFrom
p1066
aVhttp://dbpedia.org/ontology/industry
p1067
aVhttp://www.w3.org/1999/02/22-rdf-syntax-ns#type
p1068
aVhttp://dbpedia.org/ontology/product
p1069
aVhttp://dbpedia.org/property/parent
p1070
aVhttp://dbpedia.org/property/wordnet_type
p1071
aVhttp://xmlns.com/foaf/0.1/isPrimaryTopicOf
p1072
aVhttp://dbpedia.org/property/aircraftType
p1073
aVhttp://dbpedia.org/property/employer
p1074
aVhttp://dbpedia.org/ontology/wikiPageDisambiguates
p1075
aVhttp://dbpedia.org/property/keyPeople
p1076
aVhttp://dbpedia.org/ontology/wikiPageExternalLink
p1077
aVhttp://xmlns.com/foaf/0.1/primaryTopic
p1078
aVhttp://dbpedia.org/property/name
p1079
aVhttp://purl.org/dc/terms/subject
p1080
aVhttp://dbpedia.org/property/manufacturer
p1081
aVhttp://dbpedia.org/property/primaryUser
p1082
aVhttp://dbpedia.org/ontology/abstract
p1083
aVhttp://dbpedia.org/property/type
p1084
aVhttp://dbpedia.org/ontology/foundedBy
p1085
aVhttp://dbpedia.org/ontology/division
p1086
aVhttp://dbpedia.org/ontology/locationCountry
p1087
aVhttp://dbpedia.org/ontology/parentCompany
p1088
aVhttp://dbpedia.org/property/hasPhotoCollection
p1089
aVhttp://www.w3.org/2000/01/rdf-schema#label
p1090
aVhttp://dbpedia.org/property/revenue
p1091
aVhttp://www.w3.org/2000/01/rdf-schema#comment
p1092
aVhttp://dbpedia.org/property/intl
p1093
aVhttp://dbpedia.org/ontology/wikiPageRedirects
p1094
aVhttp://dbpedia.org/property/founder
p1095
aVhttp://dbpedia.org/ontology/keyPerson
p1096
aVhttp://dbpedia.org/property/locationCity
p1097
aVhttp://xmlns.com/foaf/0.1/name
p1098
aVhttp://dbpedia.org/ontology/manufacturer
p1099
aVhttp://dbpedia.org/ontology/locationCity
p1100
aVhttp://dbpedia.org/property/locationCountry
p1101
aVhttp://www.w3.org/2002/07/owl#sameAs
p1102
aVhttp://dbpedia.org/ontology/employer
p1103
assI3
(dp1104
I0
g994
sI1
g1018
sI2
g1059
sI3
(lp1105
sI4
(lp1106
sI5
(lp1107
Vhttp://www.w3.org/2000/01/rdf-schema#seeAlso
p1108
aVhttp://dbpedia.org/property/currency
p1109
aVhttp://dbpedia.org/ontology/type
p1110
aVhttp://dbpedia.org/property/volume
p1111
aVhttp://dbpedia.org/ontology/board
p1112
aVhttp://dbpedia.org/ontology/wikiPageRedirects
p1113
aVhttp://dbpedia.org/property/boards
p1114
aVhttp://dbpedia.org/ontology/knownFor
p1115
aVhttp://www.w3.org/ns/prov#wasDerivedFrom
p1116
aVhttp://www.w3.org/2002/07/owl#differentFrom
p1117
aVhttp://dbpedia.org/ontology/architecturalStyle
p1118
aVhttp://www.w3.org/1999/02/22-rdf-syntax-ns#type
p1119
aVhttp://dbpedia.org/property/indexes
p1120
aVhttp://dbpedia.org/ontology/architect
p1121
aVhttp://dbpedia.org/property/wordnet_type
p1122
aVhttp://xmlns.com/foaf/0.1/isPrimaryTopicOf
p1123
aVhttp://dbpedia.org/property/employer
p1124
aVhttp://dbpedia.org/property/owner
p1125
aVhttp://dbpedia.org/property/country
p1126
aVhttp://dbpedia.org/property/keyPeople
p1127
aVhttp://dbpedia.org/ontology/wikiPageExternalLink
p1128
aVhttp://dbpedia.org/property/divisions
p1129
aVhttp://xmlns.com/foaf/0.1/primaryTopic
p1130
aVhttp://dbpedia.org/property/name
p1131
aVhttp://purl.org/dc/terms/subject
p1132
aVhttp://dbpedia.org/ontology/residence
p1133
aVhttp://dbpedia.org/ontology/abstract
p1134
aVhttp://xmlns.com/foaf/0.1/depiction
p1135
aVhttp://dbpedia.org/property/type
p1136
aVhttp://dbpedia.org/property/location
p1137
aVhttp://dbpedia.org/property/exchanges
p1138
aVhttp://dbpedia.org/ontology/division
p1139
aVhttp://dbpedia.org/ontology/thumbnail
p1140
aVhttp://dbpedia.org/property/stockExchange
p1141
aVhttp://dbpedia.org/property/hasPhotoCollection
p1142
aVhttp://dbpedia.org/ontology/foundationPlace
p1143
aVhttp://www.w3.org/2000/01/rdf-schema#label
p1144
aVhttp://dbpedia.org/ontology/location
p1145
aVhttp://dbpedia.org/property/tradedAs
p1146
aVhttp://www.w3.org/2000/01/rdf-schema#comment
p1147
aVhttp://dbpedia.org/property/subsidiaries
p1148
aVhttp://dbpedia.org/property/workplaces
p1149
aVhttp://dbpedia.org/property/mcap
p1150
aVhttp://xmlns.com/foaf/0.1/homepage
p1151
aVhttp://dbpedia.org/ontology/locationCity
p1152
aVhttp://www.w3.org/2002/07/owl#sameAs
p1153
aVhttp://dbpedia.org/ontology/occupation
p1154
assI4
(dp1155
I0
g1004
sI1
g1019
sI2
g1060
sI3
g1106
sI4
(lp1156
sI5
(lp1157
Vhttp://dbpedia.org/ontology/type
p1158
aVhttp://dbpedia.org/property/industry
p1159
aVhttp://dbpedia.org/property/name
p1160
aVhttp://dbpedia.org/property/homepage
p1161
aVhttp://www.w3.org/ns/prov#wasDerivedFrom
p1162
aVhttp://www.w3.org/1999/02/22-rdf-syntax-ns#type
p1163
aVhttp://dbpedia.org/property/parent
p1164
aVhttp://dbpedia.org/property/wordnet_type
p1165
aVhttp://xmlns.com/foaf/0.1/isPrimaryTopicOf
p1166
aVhttp://dbpedia.org/ontology/wikiPageDisambiguates
p1167
aVhttp://dbpedia.org/ontology/wikiPageExternalLink
p1168
aVhttp://xmlns.com/foaf/0.1/primaryTopic
p1169
aVhttp://purl.org/dc/terms/subject
p1170
aVhttp://dbpedia.org/ontology/abstract
p1171
aVhttp://xmlns.com/foaf/0.1/depiction
p1172
aVhttp://dbpedia.org/property/type
p1173
aVhttp://dbpedia.org/ontology/foundedBy
p1174
aVhttp://dbpedia.org/property/location
p1175
aVhttp://dbpedia.org/property/logo
p1176
aVhttp://dbpedia.org/ontology/thumbnail
p1177
aVhttp://dbpedia.org/property/hasPhotoCollection
p1178
aVhttp://www.w3.org/2000/01/rdf-schema#label
p1179
aVhttp://dbpedia.org/ontology/location
p1180
aVhttp://www.w3.org/2000/01/rdf-schema#comment
p1181
aVhttp://dbpedia.org/ontology/wikiPageRedirects
p1182
aVhttp://dbpedia.org/property/founder
p1183
aVhttp://dbpedia.org/ontology/keyPerson
p1184
aVhttp://xmlns.com/foaf/0.1/name
p1185
aVhttp://xmlns.com/foaf/0.1/homepage
p1186
aVhttp://www.w3.org/2002/07/owl#sameAs
p1187
assI5
(dp1188
I0
g1010
sI1
g1022
sI2
g1061
sI3
g1107
sI4
g1157
sI5
(lp1189
ssa(dp1190
I0
(dp1191
I0
(lp1192
sI1
(lp1193
sI2
(lp1194
sI3
(lp1195
Vhttp://www.georss.org/georss/point
p1196
aVhttp://www.w3.org/2000/01/rdf-schema#comment
p1197
aVhttp://dbpedia.org/property/volume
p1198
aVhttp://dbpedia.org/ontology/abstract
p1199
aVhttp://dbpedia.org/property/wordnet_type
p1200
aVhttp://purl.org/voc/vrank#hasRank
p1201
aVhttp://www.w3.org/1999/02/22-rdf-syntax-ns#type
p1202
aVhttp://dbpedia.org/property/homepage
p1203
aVhttp://www.w3.org/ns/prov#wasDerivedFrom
p1204
aVhttp://www.w3.org/2002/07/owl#sameAs
p1205
asI4
(lp1206
Vhttp://www.w3.org/ns/prov#wasDerivedFrom
p1207
asI5
(lp1208
Vhttp://www.w3.org/ns/prov#wasDerivedFrom
p1209
aVhttp://www.w3.org/1999/02/22-rdf-syntax-ns#type
p1210
assI1
(dp1211
I0
g1193
sI1
(lp1212
sI2
(lp1213
sI3
(lp1214
sI4
(lp1215
sI5
(lp1216
ssI2
(dp1217
I0
g1194
sI1
g1213
sI2
(lp1218
sI3
(lp1219
sI4
(lp1220
sI5
(lp1221
ssI3
(dp1222
I0
g1195
sI1
g1214
sI2
g1219
sI3
(lp1223
sI4
(lp1224
sI5
(lp1225
Vhttp://www.w3.org/2000/01/rdf-schema#seeAlso
p1226
aVhttp://dbpedia.org/property/currency
p1227
aVhttp://dbpedia.org/ontology/type
p1228
aVhttp://dbpedia.org/property/volume
p1229
aVhttp://dbpedia.org/ontology/board
p1230
aVhttp://dbpedia.org/ontology/wikiPageRedirects
p1231
aVhttp://dbpedia.org/property/boards
p1232
aVhttp://dbpedia.org/ontology/knownFor
p1233
aVhttp://www.w3.org/ns/prov#wasDerivedFrom
p1234
aVhttp://www.w3.org/2002/07/owl#differentFrom
p1235
aVhttp://dbpedia.org/ontology/architecturalStyle
p1236
aVhttp://www.w3.org/1999/02/22-rdf-syntax-ns#type
p1237
aVhttp://dbpedia.org/property/indexes
p1238
aVhttp://dbpedia.org/ontology/architect
p1239
aVhttp://dbpedia.org/property/wordnet_type
p1240
aVhttp://xmlns.com/foaf/0.1/isPrimaryTopicOf
p1241
aVhttp://dbpedia.org/property/employer
p1242
aVhttp://dbpedia.org/property/owner
p1243
aVhttp://dbpedia.org/property/country
p1244
aVhttp://dbpedia.org/property/keyPeople
p1245
aVhttp://dbpedia.org/ontology/wikiPageExternalLink
p1246
aVhttp://dbpedia.org/property/divisions
p1247
aVhttp://xmlns.com/foaf/0.1/primaryTopic
p1248
aVhttp://dbpedia.org/property/name
p1249
aVhttp://purl.org/dc/terms/subject
p1250
aVhttp://dbpedia.org/ontology/residence
p1251
aVhttp://dbpedia.org/ontology/abstract
p1252
aVhttp://xmlns.com/foaf/0.1/depiction
p1253
aVhttp://dbpedia.org/property/type
p1254
aVhttp://dbpedia.org/property/location
p1255
aVhttp://dbpedia.org/property/exchanges
p1256
aVhttp://dbpedia.org/ontology/division
p1257
aVhttp://dbpedia.org/ontology/thumbnail
p1258
aVhttp://dbpedia.org/property/stockExchange
p1259
aVhttp://dbpedia.org/property/hasPhotoCollection
p1260
aVhttp://dbpedia.org/ontology/foundationPlace
p1261
aVhttp://www.w3.org/2000/01/rdf-schema#label
p1262
aVhttp://dbpedia.org/ontology/location
p1263
aVhttp://dbpedia.org/property/tradedAs
p1264
aVhttp://www.w3.org/2000/01/rdf-schema#comment
p1265
aVhttp://dbpedia.org/property/subsidiaries
p1266
aVhttp://dbpedia.org/property/workplaces
p1267
aVhttp://dbpedia.org/property/mcap
p1268
aVhttp://xmlns.com/foaf/0.1/homepage
p1269
aVhttp://dbpedia.org/ontology/locationCity
p1270
aVhttp://www.w3.org/2002/07/owl#sameAs
p1271
aVhttp://dbpedia.org/ontology/occupation
p1272
assI4
(dp1273
I0
g1206
sI1
g1215
sI2
g1220
sI3
g1224
sI4
(lp1274
sI5
(lp1275
Vhttp://www.w3.org/2000/01/rdf-schema#seeAlso
p1276
aVhttp://dbpedia.org/ontology/wikiPageExternalLink
p1277
aVhttp://dbpedia.org/property/industry
p1278
aVhttp://purl.org/dc/terms/subject
p1279
aVhttp://www.w3.org/2000/01/rdf-schema#comment
p1280
aVhttp://www.w3.org/2002/07/owl#sameAs
p1281
aVhttp://www.w3.org/2000/01/rdf-schema#label
p1282
aVhttp://dbpedia.org/ontology/abstract
p1283
aVhttp://xmlns.com/foaf/0.1/depiction
p1284
aVhttp://dbpedia.org/property/type
p1285
aVhttp://dbpedia.org/ontology/wikiPageRedirects
p1286
aVhttp://dbpedia.org/ontology/service
p1287
aVhttp://dbpedia.org/property/course
p1288
aVhttp://dbpedia.org/property/products
p1289
aVhttp://dbpedia.org/ontology/thumbnail
p1290
aVhttp://dbpedia.org/property/services
p1291
aVhttp://dbpedia.org/ontology/type
p1292
aVhttp://dbpedia.org/property/hasPhotoCollection
p1293
aVhttp://dbpedia.org/ontology/wikiPageDisambiguates
p1294
aVhttp://dbpedia.org/ontology/product
p1295
aVhttp://dbpedia.org/ontology/industry
p1296
assI5
(dp1297
I0
g1208
sI1
g1216
sI2
g1221
sI3
g1225
sI4
g1275
sI5
(lp1298
ssa(dp1299
I0
(dp1300
I0
(lp1301
sI1
(lp1302
sI2
(lp1303
sI3
(lp1304
Vhttp://www.w3.org/1999/02/22-rdf-syntax-ns#type
p1305
aVhttp://purl.org/dc/terms/subject
p1306
aVhttp://www.w3.org/2000/01/rdf-schema#comment
p1307
aVhttp://dbpedia.org/ontology/abstract
p1308
aVhttp://www.georss.org/georss/point
p1309
aVhttp://www.w3.org/ns/prov#wasDerivedFrom
p1310
aVhttp://dbpedia.org/ontology/nrhpReferenceNumber
p1311
aVhttp://www.w3.org/2002/07/owl#sameAs
p1312
asI4
(lp1313
Vhttp://dbpedia.org/ontology/wikiPageExternalLink
p1314
aVhttp://dbpedia.org/property/industry
p1315
aVhttp://www.w3.org/1999/02/22-rdf-syntax-ns#type
p1316
aVhttp://purl.org/voc/vrank#hasRank
p1317
aVhttp://www.w3.org/ns/prov#wasDerivedFrom
p1318
aVhttp://www.w3.org/2002/07/owl#sameAs
p1319
asI5
(lp1320
Vhttp://purl.org/voc/vrank#hasRank
p1321
aVhttp://dbpedia.org/ontology/abstract
p1322
aVhttp://www.w3.org/1999/02/22-rdf-syntax-ns#type
p1323
aVhttp://www.w3.org/2002/07/owl#sameAs
p1324
aVhttp://www.w3.org/2000/01/rdf-schema#comment
p1325
assI1
(dp1326
I0
g1302
sI1
(lp1327
sI2
(lp1328
sI3
(lp1329
sI4
(lp1330
sI5
(lp1331
ssI2
(dp1332
I0
g1303
sI1
g1328
sI2
(lp1333
sI3
(lp1334
sI4
(lp1335
sI5
(lp1336
ssI3
(dp1337
I0
g1304
sI1
g1329
sI2
g1334
sI3
(lp1338
sI4
(lp1339
sI5
(lp1340
Vhttp://www.w3.org/2000/01/rdf-schema#seeAlso
p1341
aVhttp://dbpedia.org/property/currency
p1342
aVhttp://dbpedia.org/ontology/type
p1343
aVhttp://dbpedia.org/property/volume
p1344
aVhttp://dbpedia.org/ontology/board
p1345
aVhttp://dbpedia.org/ontology/wikiPageRedirects
p1346
aVhttp://dbpedia.org/property/boards
p1347
aVhttp://dbpedia.org/ontology/knownFor
p1348
aVhttp://www.w3.org/ns/prov#wasDerivedFrom
p1349
aVhttp://www.w3.org/2002/07/owl#differentFrom
p1350
aVhttp://dbpedia.org/ontology/architecturalStyle
p1351
aVhttp://www.w3.org/1999/02/22-rdf-syntax-ns#type
p1352
aVhttp://dbpedia.org/property/indexes
p1353
aVhttp://dbpedia.org/ontology/architect
p1354
aVhttp://dbpedia.org/property/wordnet_type
p1355
aVhttp://xmlns.com/foaf/0.1/isPrimaryTopicOf
p1356
aVhttp://dbpedia.org/property/employer
p1357
aVhttp://dbpedia.org/property/owner
p1358
aVhttp://dbpedia.org/property/country
p1359
aVhttp://dbpedia.org/property/keyPeople
p1360
aVhttp://dbpedia.org/ontology/wikiPageExternalLink
p1361
aVhttp://dbpedia.org/property/divisions
p1362
aVhttp://xmlns.com/foaf/0.1/primaryTopic
p1363
aVhttp://dbpedia.org/property/name
p1364
aVhttp://purl.org/dc/terms/subject
p1365
aVhttp://dbpedia.org/ontology/residence
p1366
aVhttp://dbpedia.org/ontology/abstract
p1367
aVhttp://xmlns.com/foaf/0.1/depiction
p1368
aVhttp://dbpedia.org/property/type
p1369
aVhttp://dbpedia.org/property/location
p1370
aVhttp://dbpedia.org/property/exchanges
p1371
aVhttp://dbpedia.org/ontology/division
p1372
aVhttp://dbpedia.org/ontology/thumbnail
p1373
aVhttp://dbpedia.org/property/stockExchange
p1374
aVhttp://dbpedia.org/property/hasPhotoCollection
p1375
aVhttp://dbpedia.org/ontology/foundationPlace
p1376
aVhttp://www.w3.org/2000/01/rdf-schema#label
p1377
aVhttp://dbpedia.org/ontology/location
p1378
aVhttp://dbpedia.org/property/tradedAs
p1379
aVhttp://www.w3.org/2000/01/rdf-schema#comment
p1380
aVhttp://dbpedia.org/property/subsidiaries
p1381
aVhttp://dbpedia.org/property/workplaces
p1382
aVhttp://dbpedia.org/property/mcap
p1383
aVhttp://xmlns.com/foaf/0.1/homepage
p1384
aVhttp://dbpedia.org/ontology/locationCity
p1385
aVhttp://www.w3.org/2002/07/owl#sameAs
p1386
aVhttp://dbpedia.org/ontology/occupation
p1387
assI4
(dp1388
I0
g1313
sI1
g1330
sI2
g1335
sI3
g1339
sI4
(lp1389
sI5
(lp1390
Vhttp://www.w3.org/2000/01/rdf-schema#seeAlso
p1391
aVhttp://dbpedia.org/ontology/wikiPageExternalLink
p1392
aVhttp://dbpedia.org/property/industry
p1393
aVhttp://purl.org/dc/terms/subject
p1394
aVhttp://www.w3.org/2000/01/rdf-schema#comment
p1395
aVhttp://www.w3.org/2002/07/owl#sameAs
p1396
aVhttp://www.w3.org/2000/01/rdf-schema#label
p1397
aVhttp://dbpedia.org/ontology/abstract
p1398
aVhttp://xmlns.com/foaf/0.1/depiction
p1399
aVhttp://dbpedia.org/property/type
p1400
aVhttp://dbpedia.org/ontology/wikiPageRedirects
p1401
aVhttp://dbpedia.org/ontology/service
p1402
aVhttp://dbpedia.org/property/course
p1403
aVhttp://dbpedia.org/property/products
p1404
aVhttp://dbpedia.org/ontology/thumbnail
p1405
aVhttp://dbpedia.org/property/services
p1406
aVhttp://dbpedia.org/ontology/type
p1407
aVhttp://dbpedia.org/property/hasPhotoCollection
p1408
aVhttp://dbpedia.org/ontology/wikiPageDisambiguates
p1409
aVhttp://dbpedia.org/ontology/product
p1410
aVhttp://dbpedia.org/ontology/industry
p1411
assI5
(dp1412
I0
g1320
sI1
g1331
sI2
g1336
sI3
g1340
sI4
g1390
sI5
(lp1413
ssa(dp1414
I0
(dp1415
I0
(lp1416
sI1
(lp1417
sI2
(lp1418
Vhttp://www.w3.org/ns/prov#wasDerivedFrom
p1419
aVhttp://purl.org/voc/vrank#hasRank
p1420
aVhttp://dbpedia.org/ontology/abstract
p1421
aVhttp://www.w3.org/1999/02/22-rdf-syntax-ns#type
p1422
aVhttp://www.w3.org/2002/07/owl#sameAs
p1423
asI3
(lp1424
Vhttp://www.georss.org/georss/point
p1425
aVhttp://purl.org/dc/terms/subject
p1426
aVhttp://www.w3.org/2000/01/rdf-schema#comment
p1427
aVhttp://dbpedia.org/ontology/abstract
p1428
aVhttp://purl.org/voc/vrank#hasRank
p1429
aVhttp://www.w3.org/1999/02/22-rdf-syntax-ns#type
p1430
aVhttp://dbpedia.org/ontology/nrhpReferenceNumber
p1431
aVhttp://www.w3.org/2002/07/owl#sameAs
p1432
asI4
(lp1433
Vhttp://www.w3.org/2000/01/rdf-schema#comment
p1434
aVhttp://dbpedia.org/ontology/abstract
p1435
aVhttp://purl.org/voc/vrank#hasRank
p1436
aVhttp://dbpedia.org/property/products
p1437
aVhttp://www.w3.org/ns/prov#wasDerivedFrom
p1438
aVhttp://dbpedia.org/ontology/engineType
p1439
asI5
(lp1440
Vhttp://purl.org/voc/vrank#hasRank
p1441
aVhttp://dbpedia.org/ontology/abstract
p1442
aVhttp://www.w3.org/1999/02/22-rdf-syntax-ns#type
p1443
aVhttp://www.w3.org/2002/07/owl#sameAs
p1444
aVhttp://www.w3.org/2000/01/rdf-schema#comment
p1445
assI1
(dp1446
I0
g1417
sI1
(lp1447
sI2
(lp1448
sI3
(lp1449
sI4
(lp1450
sI5
(lp1451
ssI2
(dp1452
I0
g1418
sI1
g1448
sI2
(lp1453
sI3
(lp1454
sI4
(lp1455
sI5
(lp1456
Vhttp://dbpedia.org/ontology/wikiPageExternalLink
p1457
aVhttp://www.w3.org/1999/02/22-rdf-syntax-ns#type
p1458
aVhttp://purl.org/dc/terms/subject
p1459
aVhttp://www.w3.org/2000/01/rdf-schema#comment
p1460
aVhttp://www.w3.org/2000/01/rdf-schema#label
p1461
aVhttp://dbpedia.org/ontology/abstract
p1462
aVhttp://dbpedia.org/property/hasPhotoCollection
p1463
aVhttp://dbpedia.org/ontology/wikiPageDisambiguates
p1464
aVhttp://www.w3.org/2002/07/owl#sameAs
p1465
assI3
(dp1466
I0
g1424
sI1
g1449
sI2
g1454
sI3
(lp1467
sI4
(lp1468
sI5
(lp1469
Vhttp://www.w3.org/2000/01/rdf-schema#seeAlso
p1470
aVhttp://dbpedia.org/property/currency
p1471
aVhttp://dbpedia.org/ontology/type
p1472
aVhttp://dbpedia.org/property/volume
p1473
aVhttp://dbpedia.org/ontology/board
p1474
aVhttp://dbpedia.org/ontology/wikiPageRedirects
p1475
aVhttp://dbpedia.org/property/boards
p1476
aVhttp://dbpedia.org/ontology/knownFor
p1477
aVhttp://www.w3.org/ns/prov#wasDerivedFrom
p1478
aVhttp://www.w3.org/2002/07/owl#differentFrom
p1479
aVhttp://dbpedia.org/ontology/architecturalStyle
p1480
aVhttp://www.w3.org/1999/02/22-rdf-syntax-ns#type
p1481
aVhttp://dbpedia.org/property/indexes
p1482
aVhttp://dbpedia.org/ontology/architect
p1483
aVhttp://dbpedia.org/property/wordnet_type
p1484
aVhttp://xmlns.com/foaf/0.1/isPrimaryTopicOf
p1485
aVhttp://dbpedia.org/property/employer
p1486
aVhttp://dbpedia.org/property/owner
p1487
aVhttp://dbpedia.org/property/country
p1488
aVhttp://dbpedia.org/property/keyPeople
p1489
aVhttp://dbpedia.org/ontology/wikiPageExternalLink
p1490
aVhttp://dbpedia.org/property/divisions
p1491
aVhttp://xmlns.com/foaf/0.1/primaryTopic
p1492
aVhttp://dbpedia.org/property/name
p1493
aVhttp://purl.org/dc/terms/subject
p1494
aVhttp://dbpedia.org/ontology/residence
p1495
aVhttp://dbpedia.org/ontology/abstract
p1496
aVhttp://xmlns.com/foaf/0.1/depiction
p1497
aVhttp://dbpedia.org/property/type
p1498
aVhttp://dbpedia.org/property/location
p1499
aVhttp://dbpedia.org/property/exchanges
p1500
aVhttp://dbpedia.org/ontology/division
p1501
aVhttp://dbpedia.org/ontology/thumbnail
p1502
aVhttp://dbpedia.org/property/stockExchange
p1503
aVhttp://dbpedia.org/property/hasPhotoCollection
p1504
aVhttp://dbpedia.org/ontology/foundationPlace
p1505
aVhttp://www.w3.org/2000/01/rdf-schema#label
p1506
aVhttp://dbpedia.org/ontology/location
p1507
aVhttp://dbpedia.org/property/tradedAs
p1508
aVhttp://www.w3.org/2000/01/rdf-schema#comment
p1509
aVhttp://dbpedia.org/property/subsidiaries
p1510
aVhttp://dbpedia.org/property/workplaces
p1511
aVhttp://dbpedia.org/property/mcap
p1512
aVhttp://xmlns.com/foaf/0.1/homepage
p1513
aVhttp://dbpedia.org/ontology/locationCity
p1514
aVhttp://www.w3.org/2002/07/owl#sameAs
p1515
aVhttp://dbpedia.org/ontology/occupation
p1516
assI4
(dp1517
I0
g1433
sI1
g1450
sI2
g1455
sI3
g1468
sI4
(lp1518
sI5
(lp1519
Vhttp://www.w3.org/2000/01/rdf-schema#seeAlso
p1520
aVhttp://dbpedia.org/property/trainheating
p1521
aVhttp://dbpedia.org/ontology/powerType
p1522
aVhttp://dbpedia.org/ontology/type
p1523
aVhttp://dbpedia.org/property/class
p1524
aVhttp://dbpedia.org/property/industries
p1525
aVhttp://dbpedia.org/property/genre
p1526
aVhttp://dbpedia.org/property/uses
p1527
aVhttp://dbpedia.org/ontology/knownFor
p1528
aVhttp://dbpedia.org/property/department
p1529
aVhttp://dbpedia.org/ontology/industry
p1530
aVhttp://dbpedia.org/property/fuelType
p1531
aVhttp://dbpedia.org/property/field
p1532
aVhttp://dbpedia.org/property/era2PropulsionSystem
p1533
aVhttp://dbpedia.org/ontology/engineType
p1534
aVhttp://dbpedia.org/ontology/product
p1535
aVhttp://dbpedia.org/property/focus
p1536
aVhttp://dbpedia.org/property/products
p1537
aVhttp://dbpedia.org/property/agencyType
p1538
aVhttp://dbpedia.org/property/services
p1539
aVhttp://dbpedia.org/ontology/wikiPageDisambiguates
p1540
aVhttp://dbpedia.org/ontology/abstract
p1541
aVhttp://dbpedia.org/property/club
p1542
aVhttp://dbpedia.org/property/divisions
p1543
aVhttp://dbpedia.org/property/industry
p1544
aVhttp://purl.org/dc/terms/subject
p1545
aVhttp://dbpedia.org/ontology/subsidiary
p1546
aVhttp://dbpedia.org/property/powertype
p1547
aVhttp://xmlns.com/foaf/0.1/depiction
p1548
aVhttp://dbpedia.org/ontology/service
p1549
aVhttp://dbpedia.org/property/commodity
p1550
aVhttp://dbpedia.org/property/hasPhotoCollection
p1551
aVhttp://dbpedia.org/property/era3PropulsionSystem
p1552
aVhttp://dbpedia.org/property/propulsionSystem
p1553
aVhttp://dbpedia.org/property/instruments
p1554
aVhttp://dbpedia.org/property/fuelSource
p1555
aVhttp://www.w3.org/2000/01/rdf-schema#comment
p1556
aVhttp://dbpedia.org/ontology/wikiPageExternalLink
p1557
aVhttp://dbpedia.org/ontology/wikiPageRedirects
p1558
aVhttp://dbpedia.org/property/aux
p1559
aVhttp://www.w3.org/2002/07/owl#sameAs
p1560
aVhttp://dbpedia.org/ontology/field
p1561
aVhttp://dbpedia.org/ontology/occupation
p1562
aVhttp://dbpedia.org/property/data
p1563
aVhttp://dbpedia.org/property/knownFor
p1564
aVhttp://dbpedia.org/ontology/thumbnail
p1565
assI5
(dp1566
I0
g1440
sI1
g1451
sI2
g1456
sI3
g1469
sI4
g1519
sI5
(lp1567
ssa(dp1568
I0
(dp1569
I0
(lp1570
sI1
(lp1571
Vhttp://www.w3.org/1999/02/22-rdf-syntax-ns#type
p1572
aVhttp://purl.org/dc/terms/subject
p1573
aVhttp://www.w3.org/2000/01/rdf-schema#comment
p1574
aVhttp://dbpedia.org/ontology/abstract
p1575
aVhttp://purl.org/voc/vrank#hasRank
p1576
aVhttp://www.w3.org/2002/07/owl#sameAs
p1577
asI2
(lp1578
Vhttp://dbpedia.org/property/partners
p1579
aVhttp://www.w3.org/1999/02/22-rdf-syntax-ns#type
p1580
aVhttp://purl.org/dc/terms/subject
p1581
aVhttp://www.w3.org/2000/01/rdf-schema#comment
p1582
aVhttp://dbpedia.org/ontology/abstract
p1583
aVhttp://dbpedia.org/property/operator
p1584
aVhttp://dbpedia.org/property/netIncome
p1585
aVhttp://dbpedia.org/property/assets
p1586
aVhttp://www.w3.org/ns/prov#wasDerivedFrom
p1587
aVhttp://dbpedia.org/ontology/netIncome
p1588
aVhttp://dbpedia.org/ontology/assets
p1589
aVhttp://www.w3.org/2002/07/owl#sameAs
p1590
asI3
(lp1591
Vhttp://www.w3.org/2000/01/rdf-schema#seeAlso
p1592
aVhttp://www.w3.org/1999/02/22-rdf-syntax-ns#type
p1593
aVhttp://www.w3.org/2000/01/rdf-schema#comment
p1594
aVhttp://dbpedia.org/ontology/abstract
p1595
aVhttp://purl.org/voc/vrank#hasRank
p1596
aVhttp://www.w3.org/ns/prov#wasDerivedFrom
p1597
aVhttp://www.w3.org/2002/07/owl#sameAs
p1598
asI4
(lp1599
Vhttp://dbpedia.org/ontology/wikiPageExternalLink
p1600
aVhttp://dbpedia.org/property/club
p1601
aVhttp://dbpedia.org/property/industry
p1602
aVhttp://www.w3.org/2000/01/rdf-schema#comment
p1603
aVhttp://dbpedia.org/ontology/abstract
p1604
aVhttp://dbpedia.org/property/field
p1605
asI5
(lp1606
Vhttp://www.w3.org/ns/prov#wasDerivedFrom
p1607
aVhttp://purl.org/voc/vrank#hasRank
p1608
aVhttp://dbpedia.org/ontology/abstract
p1609
aVhttp://www.w3.org/1999/02/22-rdf-syntax-ns#type
p1610
aVhttp://www.w3.org/2000/01/rdf-schema#comment
p1611
assI1
(dp1612
I0
g1571
sI1
(lp1613
sI2
(lp1614
Vhttp://dbpedia.org/ontology/abstract
p1615
aVhttp://www.w3.org/2000/01/rdf-schema#comment
p1616
asI3
(lp1617
sI4
(lp1618
Vhttp://dbpedia.org/ontology/abstract
p1619
asI5
(lp1620
Vhttp://dbpedia.org/ontology/wikiPageExternalLink
p1621
aVhttp://xmlns.com/foaf/0.1/primaryTopic
p1622
aVhttp://www.w3.org/1999/02/22-rdf-syntax-ns#type
p1623
aVhttp://purl.org/dc/terms/subject
p1624
aVhttp://www.w3.org/2000/01/rdf-schema#comment
p1625
aVhttp://dbpedia.org/ontology/abstract
p1626
aVhttp://dbpedia.org/ontology/wikiPageRedirects
p1627
aVhttp://dbpedia.org/property/parent
p1628
aVhttp://www.w3.org/ns/prov#wasDerivedFrom
p1629
aVhttp://xmlns.com/foaf/0.1/isPrimaryTopicOf
p1630
aVhttp://dbpedia.org/ontology/parentCompany
p1631
aVhttp://dbpedia.org/property/hasPhotoCollection
p1632
aVhttp://www.w3.org/2000/01/rdf-schema#label
p1633
aVhttp://www.w3.org/2002/07/owl#sameAs
p1634
assI2
(dp1635
I0
g1578
sI1
g1614
sI2
(lp1636
sI3
(lp1637
Vhttp://dbpedia.org/ontology/abstract
p1638
aVhttp://www.w3.org/2000/01/rdf-schema#comment
p1639
asI4
(lp1640
sI5
(lp1641
Vhttp://dbpedia.org/ontology/type
p1642
aVhttp://dbpedia.org/property/name
p1643
aVhttp://dbpedia.org/ontology/owningCompany
p1644
aVhttp://dbpedia.org/ontology/knownFor
p1645
aVhttp://dbpedia.org/ontology/industry
p1646
aVhttp://dbpedia.org/ontology/keyPerson
p1647
aVhttp://dbpedia.org/property/wordnet_type
p1648
aVhttp://www.w3.org/1999/02/22-rdf-syntax-ns#type
p1649
aVhttp://dbpedia.org/property/locationCountry
p1650
aVhttp://dbpedia.org/property/parent
p1651
aVhttp://dbpedia.org/property/operator
p1652
aVhttp://dbpedia.org/property/products
p1653
aVhttp://dbpedia.org/property/keyPeople
p1654
aVhttp://dbpedia.org/property/currentTenants
p1655
aVhttp://dbpedia.org/property/subsid
p1656
aVhttp://dbpedia.org/ontology/wikiPageExternalLink
p1657
aVhttp://dbpedia.org/property/industry
p1658
aVhttp://purl.org/dc/terms/subject
p1659
aVhttp://dbpedia.org/ontology/subsidiary
p1660
aVhttp://dbpedia.org/ontology/abstract
p1661
aVhttp://dbpedia.org/property/type
p1662
aVhttp://dbpedia.org/property/owner
p1663
aVhttp://dbpedia.org/ontology/locationCountry
p1664
aVhttp://dbpedia.org/ontology/parentCompany
p1665
aVhttp://dbpedia.org/property/hasPhotoCollection
p1666
aVhttp://www.w3.org/2000/01/rdf-schema#label
p1667
aVhttp://dbpedia.org/ontology/tenant
p1668
aVhttp://dbpedia.org/property/partners
p1669
aVhttp://www.w3.org/2000/01/rdf-schema#comment
p1670
aVhttp://dbpedia.org/ontology/wikiPageDisambiguates
p1671
aVhttp://dbpedia.org/property/operators
p1672
aVhttp://dbpedia.org/ontology/wikiPageRedirects
p1673
aVhttp://dbpedia.org/property/successor
p1674
aVhttp://dbpedia.org/ontology/owner
p1675
aVhttp://dbpedia.org/property/locationCity
p1676
aVhttp://dbpedia.org/property/contractors
p1677
aVhttp://xmlns.com/foaf/0.1/name
p1678
aVhttp://dbpedia.org/ontology/locationCity
p1679
aVhttp://dbpedia.org/ontology/product
p1680
aVhttp://www.w3.org/2002/07/owl#sameAs
p1681
assI3
(dp1682
I0
g1591
sI1
g1617
sI2
g1637
sI3
(lp1683
sI4
(lp1684
sI5
(lp1685
Vhttp://www.w3.org/2000/01/rdf-schema#seeAlso
p1686
aVhttp://dbpedia.org/property/currency
p1687
aVhttp://dbpedia.org/ontology/type
p1688
aVhttp://dbpedia.org/property/volume
p1689
aVhttp://dbpedia.org/ontology/board
p1690
aVhttp://dbpedia.org/ontology/wikiPageRedirects
p1691
aVhttp://dbpedia.org/property/boards
p1692
aVhttp://dbpedia.org/ontology/knownFor
p1693
aVhttp://www.w3.org/ns/prov#wasDerivedFrom
p1694
aVhttp://www.w3.org/2002/07/owl#differentFrom
p1695
aVhttp://dbpedia.org/ontology/architecturalStyle
p1696
aVhttp://www.w3.org/1999/02/22-rdf-syntax-ns#type
p1697
aVhttp://dbpedia.org/property/indexes
p1698
aVhttp://dbpedia.org/ontology/architect
p1699
aVhttp://dbpedia.org/property/wordnet_type
p1700
aVhttp://xmlns.com/foaf/0.1/isPrimaryTopicOf
p1701
aVhttp://dbpedia.org/property/employer
p1702
aVhttp://dbpedia.org/property/owner
p1703
aVhttp://dbpedia.org/property/country
p1704
aVhttp://dbpedia.org/property/keyPeople
p1705
aVhttp://dbpedia.org/ontology/wikiPageExternalLink
p1706
aVhttp://dbpedia.org/property/divisions
p1707
aVhttp://xmlns.com/foaf/0.1/primaryTopic
p1708
aVhttp://dbpedia.org/property/name
p1709
aVhttp://purl.org/dc/terms/subject
p1710
aVhttp://dbpedia.org/ontology/residence
p1711
aVhttp://dbpedia.org/ontology/abstract
p1712
aVhttp://xmlns.com/foaf/0.1/depiction
p1713
aVhttp://dbpedia.org/property/type
p1714
aVhttp://dbpedia.org/property/location
p1715
aVhttp://dbpedia.org/property/exchanges
p1716
aVhttp://dbpedia.org/ontology/division
p1717
aVhttp://dbpedia.org/ontology/thumbnail
p1718
aVhttp://dbpedia.org/property/stockExchange
p1719
aVhttp://dbpedia.org/property/hasPhotoCollection
p1720
aVhttp://dbpedia.org/ontology/foundationPlace
p1721
aVhttp://www.w3.org/2000/01/rdf-schema#label
p1722
aVhttp://dbpedia.org/ontology/location
p1723
aVhttp://dbpedia.org/property/tradedAs
p1724
aVhttp://www.w3.org/2000/01/rdf-schema#comment
p1725
aVhttp://dbpedia.org/property/subsidiaries
p1726
aVhttp://dbpedia.org/property/workplaces
p1727
aVhttp://dbpedia.org/property/mcap
p1728
aVhttp://xmlns.com/foaf/0.1/homepage
p1729
aVhttp://dbpedia.org/ontology/locationCity
p1730
aVhttp://www.w3.org/2002/07/owl#sameAs
p1731
aVhttp://dbpedia.org/ontology/occupation
p1732
assI4
(dp1733
I0
g1599
sI1
g1618
sI2
g1640
sI3
g1684
sI4
(lp1734
sI5
(lp1735
Vhttp://www.w3.org/2000/01/rdf-schema#seeAlso
p1736
aVhttp://dbpedia.org/property/trainheating
p1737
aVhttp://dbpedia.org/ontology/powerType
p1738
aVhttp://dbpedia.org/ontology/type
p1739
aVhttp://dbpedia.org/property/class
p1740
aVhttp://dbpedia.org/property/industries
p1741
aVhttp://dbpedia.org/property/genre
p1742
aVhttp://dbpedia.org/property/uses
p1743
aVhttp://dbpedia.org/ontology/knownFor
p1744
aVhttp://dbpedia.org/property/department
p1745
aVhttp://dbpedia.org/ontology/industry
p1746
aVhttp://dbpedia.org/property/fuelType
p1747
aVhttp://dbpedia.org/property/field
p1748
aVhttp://dbpedia.org/property/era2PropulsionSystem
p1749
aVhttp://dbpedia.org/ontology/engineType
p1750
aVhttp://dbpedia.org/ontology/product
p1751
aVhttp://dbpedia.org/property/focus
p1752
aVhttp://dbpedia.org/property/products
p1753
aVhttp://dbpedia.org/property/agencyType
p1754
aVhttp://dbpedia.org/property/services
p1755
aVhttp://dbpedia.org/ontology/wikiPageDisambiguates
p1756
aVhttp://dbpedia.org/ontology/abstract
p1757
aVhttp://dbpedia.org/property/club
p1758
aVhttp://dbpedia.org/property/divisions
p1759
aVhttp://dbpedia.org/property/industry
p1760
aVhttp://purl.org/dc/terms/subject
p1761
aVhttp://dbpedia.org/ontology/subsidiary
p1762
aVhttp://dbpedia.org/property/powertype
p1763
aVhttp://xmlns.com/foaf/0.1/depiction
p1764
aVhttp://dbpedia.org/ontology/service
p1765
aVhttp://dbpedia.org/property/commodity
p1766
aVhttp://dbpedia.org/property/hasPhotoCollection
p1767
aVhttp://dbpedia.org/property/era3PropulsionSystem
p1768
aVhttp://dbpedia.org/property/propulsionSystem
p1769
aVhttp://dbpedia.org/property/instruments
p1770
aVhttp://dbpedia.org/property/fuelSource
p1771
aVhttp://www.w3.org/2000/01/rdf-schema#comment
p1772
aVhttp://dbpedia.org/ontology/wikiPageExternalLink
p1773
aVhttp://dbpedia.org/ontology/wikiPageRedirects
p1774
aVhttp://dbpedia.org/property/aux
p1775
aVhttp://www.w3.org/2002/07/owl#sameAs
p1776
aVhttp://dbpedia.org/ontology/field
p1777
aVhttp://dbpedia.org/ontology/occupation
p1778
aVhttp://dbpedia.org/property/data
p1779
aVhttp://dbpedia.org/property/knownFor
p1780
aVhttp://dbpedia.org/ontology/thumbnail
p1781
assI5
(dp1782
I0
g1606
sI1
g1620
sI2
g1641
sI3
g1685
sI4
g1735
sI5
(lp1783
ssa(dp1784
I0
(dp1785
I0
(lp1786
sI1
(lp1787
Vhttp://dbpedia.org/property/operator
p1788
aVhttp://dbpedia.org/ontology/abstract
p1789
aVhttp://www.w3.org/1999/02/22-rdf-syntax-ns#type
p1790
aVhttp://dbpedia.org/ontology/wikiPageRedirects
p1791
asI2
(lp1792
Vhttp://dbpedia.org/ontology/abstract
p1793
aVhttp://www.w3.org/1999/02/22-rdf-syntax-ns#type
p1794
aVhttp://www.w3.org/2000/01/rdf-schema#comment
p1795
asI3
(lp1796
Vhttp://www.w3.org/1999/02/22-rdf-syntax-ns#type
p1797
aVhttp://dbpedia.org/ontology/abstract
p1798
aVhttp://www.georss.org/georss/point
p1799
aVhttp://www.w3.org/2002/07/owl#sameAs
p1800
aVhttp://www.w3.org/2000/01/rdf-schema#comment
p1801
asI4
(lp1802
Vhttp://www.w3.org/1999/02/22-rdf-syntax-ns#type
p1803
asI5
(lp1804
Vhttp://dbpedia.org/ontology/abstract
p1805
aVhttp://www.w3.org/1999/02/22-rdf-syntax-ns#type
p1806
aVhttp://www.w3.org/2000/01/rdf-schema#comment
p1807
assI1
(dp1808
I0
g1787
sI1
(lp1809
sI2
(lp1810
Vhttp://dbpedia.org/ontology/abstract
p1811
aVhttp://www.w3.org/2000/01/rdf-schema#comment
p1812
asI3
(lp1813
Vhttp://dbpedia.org/ontology/abstract
p1814
aVhttp://www.w3.org/2000/01/rdf-schema#comment
p1815
asI4
(lp1816
sI5
(lp1817
Vhttp://dbpedia.org/property/airline
p1818
aVhttp://dbpedia.org/property/alliance
p1819
aVhttp://dbpedia.org/property/secondaryHubs
p1820
aVhttp://www.w3.org/ns/prov#wasDerivedFrom
p1821
aVhttp://dbpedia.org/property/focusCities
p1822
aVhttp://dbpedia.org/property/operator
p1823
aVhttp://www.w3.org/1999/02/22-rdf-syntax-ns#type
p1824
aVhttp://dbpedia.org/property/hubs
p1825
aVhttp://dbpedia.org/ontology/product
p1826
aVhttp://dbpedia.org/property/parent
p1827
aVhttp://dbpedia.org/property/wordnet_type
p1828
aVhttp://dbpedia.org/property/netIncome
p1829
aVhttp://dbpedia.org/property/frequentFlyer
p1830
aVhttp://dbpedia.org/property/lounge
p1831
aVhttp://dbpedia.org/ontology/wikiPageDisambiguates
p1832
aVhttp://xmlns.com/foaf/0.1/isPrimaryTopicOf
p1833
aVhttp://dbpedia.org/ontology/wikiPageExternalLink
p1834
aVhttp://xmlns.com/foaf/0.1/primaryTopic
p1835
aVhttp://purl.org/dc/terms/subject
p1836
aVhttp://dbpedia.org/ontology/subsidiary
p1837
aVhttp://dbpedia.org/ontology/abstract
p1838
aVhttp://xmlns.com/foaf/0.1/depiction
p1839
aVhttp://dbpedia.org/property/logo
p1840
aVhttp://dbpedia.org/ontology/thumbnail
p1841
aVhttp://dbpedia.org/ontology/parentCompany
p1842
aVhttp://dbpedia.org/property/hasPhotoCollection
p1843
aVhttp://www.w3.org/2000/01/rdf-schema#label
p1844
aVhttp://dbpedia.org/property/revenue
p1845
aVhttp://dbpedia.org/property/moreUsers
p1846
aVhttp://dbpedia.org/property/headquarters
p1847
aVhttp://www.w3.org/2000/01/rdf-schema#comment
p1848
aVhttp://dbpedia.org/property/subsid
p1849
aVhttp://dbpedia.org/ontology/wikiPageRedirects
p1850
aVhttp://www.w3.org/2002/07/owl#sameAs
p1851
aVhttp://dbpedia.org/ontology/award
p1852
assI2
(dp1853
I0
g1792
sI1
g1810
sI2
(lp1854
sI3
(lp1855
sI4
(lp1856
sI5
(lp1857
Vhttp://dbpedia.org/ontology/type
p1858
aVhttp://dbpedia.org/ontology/company
p1859
aVhttp://dbpedia.org/property/industry
p1860
aVhttp://dbpedia.org/ontology/foundationPlace
p1861
aVhttp://dbpedia.org/ontology/distributor
p1862
aVhttp://dbpedia.org/property/homepage
p1863
aVhttp://dbpedia.org/property/name
p1864
aVhttp://www.w3.org/ns/prov#wasDerivedFrom
p1865
aVhttp://dbpedia.org/ontology/industry
p1866
aVhttp://www.w3.org/2002/07/owl#differentFrom
p1867
aVhttp://dbpedia.org/property/distributor
p1868
aVhttp://www.w3.org/1999/02/22-rdf-syntax-ns#type
p1869
aVhttp://dbpedia.org/ontology/product
p1870
aVhttp://dbpedia.org/property/parent
p1871
aVhttp://dbpedia.org/property/wordnet_type
p1872
aVhttp://dbpedia.org/property/products
p1873
aVhttp://xmlns.com/foaf/0.1/isPrimaryTopicOf
p1874
aVhttp://dbpedia.org/property/employer
p1875
aVhttp://dbpedia.org/property/owner
p1876
aVhttp://dbpedia.org/ontology/wikiPageDisambiguates
p1877
aVhttp://dbpedia.org/property/keyPeople
p1878
aVhttp://dbpedia.org/ontology/wikiPageExternalLink
p1879
aVhttp://xmlns.com/foaf/0.1/primaryTopic
p1880
aVhttp://dbpedia.org/property/licensedfrom
p1881
aVhttp://purl.org/dc/terms/subject
p1882
aVhttp://dbpedia.org/ontology/abstract
p1883
aVhttp://dbpedia.org/property/type
p1884
aVhttp://dbpedia.org/ontology/foundedBy
p1885
aVhttp://dbpedia.org/property/location
p1886
aVhttp://dbpedia.org/property/company
p1887
aVhttp://dbpedia.org/property/productionCompany
p1888
aVhttp://dbpedia.org/ontology/parentCompany
p1889
aVhttp://dbpedia.org/property/hasPhotoCollection
p1890
aVhttp://www.w3.org/2000/01/rdf-schema#label
p1891
aVhttp://dbpedia.org/ontology/predecessor
p1892
aVhttp://dbpedia.org/property/studio
p1893
aVhttp://dbpedia.org/ontology/location
p1894
aVhttp://www.w3.org/2000/01/rdf-schema#comment
p1895
aVhttp://dbpedia.org/ontology/wikiPageRedirects
p1896
aVhttp://dbpedia.org/property/founder
p1897
aVhttp://dbpedia.org/ontology/keyPerson
p1898
aVhttp://xmlns.com/foaf/0.1/name
p1899
aVhttp://xmlns.com/foaf/0.1/homepage
p1900
aVhttp://dbpedia.org/ontology/employer
p1901
aVhttp://www.w3.org/2002/07/owl#sameAs
p1902
aVhttp://dbpedia.org/ontology/occupation
p1903
assI3
(dp1904
I0
g1796
sI1
g1813
sI2
g1855
sI3
(lp1905
sI4
(lp1906
sI5
(lp1907
Vhttp://www.w3.org/2000/01/rdf-schema#seeAlso
p1908
aVhttp://dbpedia.org/property/currency
p1909
aVhttp://dbpedia.org/ontology/type
p1910
aVhttp://dbpedia.org/property/volume
p1911
aVhttp://dbpedia.org/ontology/board
p1912
aVhttp://dbpedia.org/ontology/wikiPageRedirects
p1913
aVhttp://dbpedia.org/property/boards
p1914
aVhttp://dbpedia.org/ontology/knownFor
p1915
aVhttp://www.w3.org/ns/prov#wasDerivedFrom
p1916
aVhttp://www.w3.org/2002/07/owl#differentFrom
p1917
aVhttp://dbpedia.org/ontology/architecturalStyle
p1918
aVhttp://www.w3.org/1999/02/22-rdf-syntax-ns#type
p1919
aVhttp://dbpedia.org/property/indexes
p1920
aVhttp://dbpedia.org/ontology/architect
p1921
aVhttp://dbpedia.org/property/wordnet_type
p1922
aVhttp://xmlns.com/foaf/0.1/isPrimaryTopicOf
p1923
aVhttp://dbpedia.org/property/employer
p1924
aVhttp://dbpedia.org/property/owner
p1925
aVhttp://dbpedia.org/property/country
p1926
aVhttp://dbpedia.org/property/keyPeople
p1927
aVhttp://dbpedia.org/ontology/wikiPageExternalLink
p1928
aVhttp://dbpedia.org/property/divisions
p1929
aVhttp://xmlns.com/foaf/0.1/primaryTopic
p1930
aVhttp://dbpedia.org/property/name
p1931
aVhttp://purl.org/dc/terms/subject
p1932
aVhttp://dbpedia.org/ontology/residence
p1933
aVhttp://dbpedia.org/ontology/abstract
p1934
aVhttp://xmlns.com/foaf/0.1/depiction
p1935
aVhttp://dbpedia.org/property/type
p1936
aVhttp://dbpedia.org/property/location
p1937
aVhttp://dbpedia.org/property/exchanges
p1938
aVhttp://dbpedia.org/ontology/division
p1939
aVhttp://dbpedia.org/ontology/thumbnail
p1940
aVhttp://dbpedia.org/property/stockExchange
p1941
aVhttp://dbpedia.org/property/hasPhotoCollection
p1942
aVhttp://dbpedia.org/ontology/foundationPlace
p1943
aVhttp://www.w3.org/2000/01/rdf-schema#label
p1944
aVhttp://dbpedia.org/ontology/location
p1945
aVhttp://dbpedia.org/property/tradedAs
p1946
aVhttp://www.w3.org/2000/01/rdf-schema#comment
p1947
aVhttp://dbpedia.org/property/subsidiaries
p1948
aVhttp://dbpedia.org/property/workplaces
p1949
aVhttp://dbpedia.org/property/mcap
p1950
aVhttp://xmlns.com/foaf/0.1/homepage
p1951
aVhttp://dbpedia.org/ontology/locationCity
p1952
aVhttp://www.w3.org/2002/07/owl#sameAs
p1953
aVhttp://dbpedia.org/ontology/occupation
p1954
assI4
(dp1955
I0
g1802
sI1
g1816
sI2
g1856
sI3
g1906
sI4
(lp1956
sI5
(lp1957
Vhttp://dbpedia.org/ontology/knownFor
p1958
aVhttp://www.w3.org/ns/prov#wasDerivedFrom
p1959
aVhttp://dbpedia.org/property/based
p1960
aVhttp://dbpedia.org/ontology/country
p1961
aVhttp://www.w3.org/1999/02/22-rdf-syntax-ns#type
p1962
aVhttp://dbpedia.org/property/imageFile
p1963
aVhttp://xmlns.com/foaf/0.1/isPrimaryTopicOf
p1964
aVhttp://dbpedia.org/property/language
p1965
aVhttp://dbpedia.org/property/country
p1966
aVhttp://dbpedia.org/ontology/wikiPageExternalLink
p1967
aVhttp://xmlns.com/foaf/0.1/primaryTopic
p1968
aVhttp://purl.org/dc/terms/subject
p1969
aVhttp://dbpedia.org/ontology/publisher
p1970
aVhttp://dbpedia.org/ontology/abstract
p1971
aVhttp://dbpedia.org/property/company
p1972
aVhttp://dbpedia.org/ontology/city
p1973
aVhttp://dbpedia.org/property/hasPhotoCollection
p1974
aVhttp://www.w3.org/2000/01/rdf-schema#label
p1975
aVhttp://dbpedia.org/ontology/language
p1976
aVhttp://dbpedia.org/property/title
p1977
aVhttp://www.w3.org/2000/01/rdf-schema#comment
p1978
aVhttp://dbpedia.org/ontology/wikiPageRedirects
p1979
aVhttp://xmlns.com/foaf/0.1/name
p1980
aVhttp://xmlns.com/foaf/0.1/homepage
p1981
aVhttp://www.w3.org/2002/07/owl#sameAs
p1982
assI5
(dp1983
I0
g1804
sI1
g1817
sI2
g1857
sI3
g1907
sI4
g1957
sI5
(lp1984
ssa(dp1985
I0
(dp1986
I0
(lp1987
sI1
(lp1988
sI2
(lp1989
Vhttp://www.w3.org/ns/prov#wasDerivedFrom
p1990
asI3
(lp1991
Vhttp://www.w3.org/1999/02/22-rdf-syntax-ns#type
p1992
aVhttp://dbpedia.org/ontology/abstract
p1993
aVhttp://www.georss.org/georss/point
p1994
aVhttp://www.w3.org/2000/01/rdf-schema#comment
p1995
asI4
(lp1996
sI5
(lp1997
Vhttp://www.w3.org/ns/prov#wasDerivedFrom
p1998
assI1
(dp1999
I0
g1988
sI1
(lp2000
sI2
(lp2001
Vhttp://xmlns.com/foaf/0.1/homepage
p2002
asI3
(lp2003
sI4
(lp2004
sI5
(lp2005
Vhttp://dbpedia.org/ontology/type
p2006
aVhttp://dbpedia.org/ontology/location
p2007
aVhttp://dbpedia.org/ontology/product
p2008
aVhttp://dbpedia.org/ontology/keyPerson
p2009
aVhttp://xmlns.com/foaf/0.1/name
p2010
aVhttp://xmlns.com/foaf/0.1/homepage
p2011
aVhttp://dbpedia.org/ontology/industry
p2012
aVhttp://www.w3.org/2002/07/owl#sameAs
p2013
assI2
(dp2014
I0
g1989
sI1
g2001
sI2
(lp2015
sI3
(lp2016
sI4
(lp2017
sI5
(lp2018
Vhttp://xmlns.com/foaf/0.1/primaryTopic
p2019
aVhttp://purl.org/dc/terms/subject
p2020
aVhttp://www.w3.org/2000/01/rdf-schema#label
p2021
aVhttp://dbpedia.org/ontology/wikiPageRedirects
p2022
aVhttp://xmlns.com/foaf/0.1/isPrimaryTopicOf
p2023
aVhttp://www.w3.org/ns/prov#wasDerivedFrom
p2024
aVhttp://dbpedia.org/property/hasPhotoCollection
p2025
aVhttp://dbpedia.org/ontology/wikiPageDisambiguates
p2026
aVhttp://www.w3.org/2002/07/owl#sameAs
p2027
assI3
(dp2028
I0
g1991
sI1
g2003
sI2
g2016
sI3
(lp2029
sI4
(lp2030
sI5
(lp2031
Vhttp://www.w3.org/2000/01/rdf-schema#seeAlso
p2032
aVhttp://dbpedia.org/property/currency
p2033
aVhttp://dbpedia.org/ontology/type
p2034
aVhttp://dbpedia.org/property/volume
p2035
aVhttp://dbpedia.org/ontology/board
p2036
aVhttp://dbpedia.org/ontology/wikiPageRedirects
p2037
aVhttp://dbpedia.org/property/boards
p2038
aVhttp://dbpedia.org/ontology/knownFor
p2039
aVhttp://www.w3.org/ns/prov#wasDerivedFrom
p2040
aVhttp://www.w3.org/2002/07/owl#differentFrom
p2041
aVhttp://dbpedia.org/ontology/architecturalStyle
p2042
aVhttp://www.w3.org/1999/02/22-rdf-syntax-ns#type
p2043
aVhttp://dbpedia.org/property/indexes
p2044
aVhttp://dbpedia.org/ontology/architect
p2045
aVhttp://dbpedia.org/property/wordnet_type
p2046
aVhttp://xmlns.com/foaf/0.1/isPrimaryTopicOf
p2047
aVhttp://dbpedia.org/property/employer
p2048
aVhttp://dbpedia.org/property/owner
p2049
aVhttp://dbpedia.org/property/country
p2050
aVhttp://dbpedia.org/property/keyPeople
p2051
aVhttp://dbpedia.org/ontology/wikiPageExternalLink
p2052
aVhttp://dbpedia.org/property/divisions
p2053
aVhttp://xmlns.com/foaf/0.1/primaryTopic
p2054
aVhttp://dbpedia.org/property/name
p2055
aVhttp://purl.org/dc/terms/subject
p2056
aVhttp://dbpedia.org/ontology/residence
p2057
aVhttp://dbpedia.org/ontology/abstract
p2058
aVhttp://xmlns.com/foaf/0.1/depiction
p2059
aVhttp://dbpedia.org/property/type
p2060
aVhttp://dbpedia.org/property/location
p2061
aVhttp://dbpedia.org/property/exchanges
p2062
aVhttp://dbpedia.org/ontology/division
p2063
aVhttp://dbpedia.org/ontology/thumbnail
p2064
aVhttp://dbpedia.org/property/stockExchange
p2065
aVhttp://dbpedia.org/property/hasPhotoCollection
p2066
aVhttp://dbpedia.org/ontology/foundationPlace
p2067
aVhttp://www.w3.org/2000/01/rdf-schema#label
p2068
aVhttp://dbpedia.org/ontology/location
p2069
aVhttp://dbpedia.org/property/tradedAs
p2070
aVhttp://www.w3.org/2000/01/rdf-schema#comment
p2071
aVhttp://dbpedia.org/property/subsidiaries
p2072
aVhttp://dbpedia.org/property/workplaces
p2073
aVhttp://dbpedia.org/property/mcap
p2074
aVhttp://xmlns.com/foaf/0.1/homepage
p2075
aVhttp://dbpedia.org/ontology/locationCity
p2076
aVhttp://www.w3.org/2002/07/owl#sameAs
p2077
aVhttp://dbpedia.org/ontology/occupation
p2078
assI4
(dp2079
I0
g1996
sI1
g2004
sI2
g2017
sI3
g2030
sI4
(lp2080
sI5
(lp2081
Vhttp://www.w3.org/2000/01/rdf-schema#seeAlso
p2082
aVhttp://dbpedia.org/property/industries
p2083
aVhttp://dbpedia.org/ontology/type
p2084
aVhttp://xmlns.com/foaf/0.1/primaryTopic
p2085
aVhttp://dbpedia.org/property/blankstats
p2086
aVhttp://dbpedia.org/property/occupation
p2087
aVhttp://www.w3.org/ns/prov#wasDerivedFrom
p2088
aVhttp://dbpedia.org/ontology/industry
p2089
aVhttp://dbpedia.org/ontology/product
p2090
aVhttp://dbpedia.org/property/products
p2091
aVhttp://xmlns.com/foaf/0.1/isPrimaryTopicOf
p2092
aVhttp://dbpedia.org/property/services
p2093
aVhttp://dbpedia.org/ontology/wikiPageDisambiguates
p2094
aVhttp://dbpedia.org/ontology/wikiPageExternalLink
p2095
aVhttp://dbpedia.org/property/industry
p2096
aVhttp://purl.org/dc/terms/subject
p2097
aVhttp://dbpedia.org/ontology/abstract
p2098
aVhttp://xmlns.com/foaf/0.1/depiction
p2099
aVhttp://dbpedia.org/property/type
p2100
aVhttp://dbpedia.org/ontology/service
p2101
aVhttp://dbpedia.org/property/fields
p2102
aVhttp://dbpedia.org/property/profession
p2103
aVhttp://dbpedia.org/ontology/thumbnail
p2104
aVhttp://dbpedia.org/property/hasPhotoCollection
p2105
aVhttp://www.w3.org/2000/01/rdf-schema#label
p2106
aVhttp://www.w3.org/2000/01/rdf-schema#comment
p2107
aVhttp://dbpedia.org/ontology/wikiPageRedirects
p2108
aVhttp://dbpedia.org/ontology/field
p2109
aVhttp://www.w3.org/2002/07/owl#sameAs
p2110
aVhttp://dbpedia.org/ontology/occupation
p2111
assI5
(dp2112
I0
g1997
sI1
g2005
sI2
g2018
sI3
g2031
sI4
g2081
sI5
(lp2113
ssa(dp2114
I0
(dp2115
I0
(lp2116
sI1
(lp2117
Vhttp://www.w3.org/ns/prov#wasDerivedFrom
p2118
aVhttp://www.w3.org/1999/02/22-rdf-syntax-ns#type
p2119
aVhttp://www.w3.org/2002/07/owl#sameAs
p2120
asI2
(lp2121
sI3
(lp2122
Vhttp://dbpedia.org/ontology/abstract
p2123
aVhttp://xmlns.com/foaf/0.1/depiction
p2124
aVhttp://dbpedia.org/ontology/thumbnail
p2125
aVhttp://www.w3.org/2002/07/owl#sameAs
p2126
asI4
(lp2127
sI5
(lp2128
Vhttp://www.w3.org/1999/02/22-rdf-syntax-ns#type
p2129
assI1
(dp2130
I0
g2117
sI1
(lp2131
sI2
(lp2132
Vhttp://dbpedia.org/ontology/abstract
p2133
aVhttp://www.w3.org/2000/01/rdf-schema#comment
p2134
asI3
(lp2135
Vhttp://dbpedia.org/ontology/abstract
p2136
aVhttp://www.w3.org/2000/01/rdf-schema#comment
p2137
asI4
(lp2138
sI5
(lp2139
Vhttp://dbpedia.org/ontology/wikiPageExternalLink
p2140
aVhttp://dbpedia.org/property/netIncome
p2141
aVhttp://www.w3.org/1999/02/22-rdf-syntax-ns#type
p2142
aVhttp://dbpedia.org/ontology/type
p2143
aVhttp://dbpedia.org/ontology/location
p2144
aVhttp://www.w3.org/2000/01/rdf-schema#comment
p2145
aVhttp://dbpedia.org/property/keyPeople
p2146
aVhttp://dbpedia.org/ontology/abstract
p2147
aVhttp://xmlns.com/foaf/0.1/depiction
p2148
aVhttp://dbpedia.org/property/type
p2149
aVhttp://dbpedia.org/ontology/wikiPageRedirects
p2150
aVhttp://dbpedia.org/property/name
p2151
aVhttp://dbpedia.org/property/location
p2152
aVhttp://dbpedia.org/ontology/thumbnail
p2153
aVhttp://xmlns.com/foaf/0.1/name
p2154
aVhttp://purl.org/dc/terms/subject
p2155
aVhttp://dbpedia.org/property/hasPhotoCollection
p2156
aVhttp://www.w3.org/2002/07/owl#sameAs
p2157
aVhttp://dbpedia.org/property/revenue
p2158
assI2
(dp2159
I0
g2121
sI1
g2132
sI2
(lp2160
sI3
(lp2161
sI4
(lp2162
sI5
(lp2163
Vhttp://dbpedia.org/ontology/wikiPageExternalLink
p2164
aVhttp://xmlns.com/foaf/0.1/primaryTopic
p2165
aVhttp://www.w3.org/1999/02/22-rdf-syntax-ns#type
p2166
aVhttp://purl.org/dc/terms/subject
p2167
aVhttp://www.w3.org/2000/01/rdf-schema#comment
p2168
aVhttp://www.w3.org/2000/01/rdf-schema#label
p2169
aVhttp://dbpedia.org/ontology/abstract
p2170
aVhttp://xmlns.com/foaf/0.1/depiction
p2171
aVhttp://dbpedia.org/ontology/wikiPageRedirects
p2172
aVhttp://dbpedia.org/property/oscillator
p2173
aVhttp://xmlns.com/foaf/0.1/isPrimaryTopicOf
p2174
aVhttp://www.w3.org/ns/prov#wasDerivedFrom
p2175
aVhttp://dbpedia.org/property/products
p2176
aVhttp://dbpedia.org/property/hasPhotoCollection
p2177
aVhttp://dbpedia.org/ontology/wikiPageDisambiguates
p2178
aVhttp://dbpedia.org/ontology/product
p2179
aVhttp://www.w3.org/2002/07/owl#sameAs
p2180
aVhttp://dbpedia.org/ontology/thumbnail
p2181
assI3
(dp2182
I0
g2122
sI1
g2135
sI2
g2161
sI3
(lp2183
sI4
(lp2184
sI5
(lp2185
Vhttp://www.w3.org/2000/01/rdf-schema#seeAlso
p2186
aVhttp://dbpedia.org/property/currency
p2187
aVhttp://dbpedia.org/ontology/type
p2188
aVhttp://dbpedia.org/property/volume
p2189
aVhttp://dbpedia.org/ontology/board
p2190
aVhttp://dbpedia.org/ontology/wikiPageRedirects
p2191
aVhttp://dbpedia.org/property/boards
p2192
aVhttp://dbpedia.org/ontology/knownFor
p2193
aVhttp://www.w3.org/ns/prov#wasDerivedFrom
p2194
aVhttp://www.w3.org/2002/07/owl#differentFrom
p2195
aVhttp://dbpedia.org/ontology/architecturalStyle
p2196
aVhttp://www.w3.org/1999/02/22-rdf-syntax-ns#type
p2197
aVhttp://dbpedia.org/property/indexes
p2198
aVhttp://dbpedia.org/ontology/architect
p2199
aVhttp://dbpedia.org/property/wordnet_type
p2200
aVhttp://xmlns.com/foaf/0.1/isPrimaryTopicOf
p2201
aVhttp://dbpedia.org/property/employer
p2202
aVhttp://dbpedia.org/property/owner
p2203
aVhttp://dbpedia.org/property/country
p2204
aVhttp://dbpedia.org/property/keyPeople
p2205
aVhttp://dbpedia.org/ontology/wikiPageExternalLink
p2206
aVhttp://dbpedia.org/property/divisions
p2207
aVhttp://xmlns.com/foaf/0.1/primaryTopic
p2208
aVhttp://dbpedia.org/property/name
p2209
aVhttp://purl.org/dc/terms/subject
p2210
aVhttp://dbpedia.org/ontology/residence
p2211
aVhttp://dbpedia.org/ontology/abstract
p2212
aVhttp://xmlns.com/foaf/0.1/depiction
p2213
aVhttp://dbpedia.org/property/type
p2214
aVhttp://dbpedia.org/property/location
p2215
aVhttp://dbpedia.org/property/exchanges
p2216
aVhttp://dbpedia.org/ontology/division
p2217
aVhttp://dbpedia.org/ontology/thumbnail
p2218
aVhttp://dbpedia.org/property/stockExchange
p2219
aVhttp://dbpedia.org/property/hasPhotoCollection
p2220
aVhttp://dbpedia.org/ontology/foundationPlace
p2221
aVhttp://www.w3.org/2000/01/rdf-schema#label
p2222
aVhttp://dbpedia.org/ontology/location
p2223
aVhttp://dbpedia.org/property/tradedAs
p2224
aVhttp://www.w3.org/2000/01/rdf-schema#comment
p2225
aVhttp://dbpedia.org/property/subsidiaries
p2226
aVhttp://dbpedia.org/property/workplaces
p2227
aVhttp://dbpedia.org/property/mcap
p2228
aVhttp://xmlns.com/foaf/0.1/homepage
p2229
aVhttp://dbpedia.org/ontology/locationCity
p2230
aVhttp://www.w3.org/2002/07/owl#sameAs
p2231
aVhttp://dbpedia.org/ontology/occupation
p2232
assI4
(dp2233
I0
g2127
sI1
g2138
sI2
g2162
sI3
g2184
sI4
(lp2234
sI5
(lp2235
Vhttp://www.w3.org/2000/01/rdf-schema#seeAlso
p2236
aVhttp://dbpedia.org/ontology/wikiPageExternalLink
p2237
aVhttp://dbpedia.org/property/industry
p2238
aVhttp://purl.org/dc/terms/subject
p2239
aVhttp://www.w3.org/2000/01/rdf-schema#comment
p2240
aVhttp://www.w3.org/2002/07/owl#sameAs
p2241
aVhttp://www.w3.org/2000/01/rdf-schema#label
p2242
aVhttp://dbpedia.org/ontology/abstract
p2243
aVhttp://xmlns.com/foaf/0.1/depiction
p2244
aVhttp://dbpedia.org/property/type
p2245
aVhttp://dbpedia.org/ontology/wikiPageRedirects
p2246
aVhttp://dbpedia.org/ontology/service
p2247
aVhttp://dbpedia.org/property/course
p2248
aVhttp://dbpedia.org/property/products
p2249
aVhttp://dbpedia.org/ontology/thumbnail
p2250
aVhttp://dbpedia.org/property/services
p2251
aVhttp://dbpedia.org/ontology/type
p2252
aVhttp://dbpedia.org/property/hasPhotoCollection
p2253
aVhttp://dbpedia.org/ontology/wikiPageDisambiguates
p2254
aVhttp://dbpedia.org/ontology/product
p2255
aVhttp://dbpedia.org/ontology/industry
p2256
assI5
(dp2257
I0
g2128
sI1
g2139
sI2
g2163
sI3
g2185
sI4
g2235
sI5
(lp2258
ssa(dp2259
I0
(dp2260
I0
(lp2261
sI1
(lp2262
Vhttp://www.w3.org/1999/02/22-rdf-syntax-ns#type
p2263
asI2
(lp2264
sI3
(lp2265
Vhttp://www.w3.org/1999/02/22-rdf-syntax-ns#type
p2266
asI4
(lp2267
sI5
(lp2268
ssI1
(dp2269
I0
g2262
sI1
(lp2270
sI2
(lp2271
sI3
(lp2272
sI4
(lp2273
sI5
(lp2274
Vhttp://dbpedia.org/ontology/type
p2275
aVhttp://dbpedia.org/property/industry
p2276
aVhttp://www.w3.org/ns/prov#wasDerivedFrom
p2277
aVhttp://dbpedia.org/ontology/industry
p2278
aVhttp://dbpedia.org/ontology/keyPerson
p2279
aVhttp://www.w3.org/1999/02/22-rdf-syntax-ns#type
p2280
aVhttp://dbpedia.org/ontology/product
p2281
aVhttp://dbpedia.org/property/parent
p2282
aVhttp://dbpedia.org/property/netIncome
p2283
aVhttp://dbpedia.org/property/products
p2284
aVhttp://xmlns.com/foaf/0.1/isPrimaryTopicOf
p2285
aVhttp://dbpedia.org/property/subsid
p2286
aVhttp://dbpedia.org/property/keyPeople
p2287
aVhttp://xmlns.com/foaf/0.1/primaryTopic
p2288
aVhttp://purl.org/dc/terms/subject
p2289
aVhttp://dbpedia.org/ontology/subsidiary
p2290
aVhttp://dbpedia.org/ontology/abstract
p2291
aVhttp://dbpedia.org/property/location
p2292
aVhttp://dbpedia.org/ontology/parentCompany
p2293
aVhttp://dbpedia.org/property/hasPhotoCollection
p2294
aVhttp://www.w3.org/2000/01/rdf-schema#label
p2295
aVhttp://dbpedia.org/property/companyType
p2296
aVhttp://dbpedia.org/property/revenue
p2297
aVhttp://dbpedia.org/ontology/location
p2298
aVhttp://www.w3.org/2000/01/rdf-schema#comment
p2299
aVhttp://dbpedia.org/property/companyName
p2300
aVhttp://xmlns.com/foaf/0.1/name
p2301
aVhttp://www.w3.org/2002/07/owl#sameAs
p2302
assI2
(dp2303
I0
g2264
sI1
g2271
sI2
(lp2304
sI3
(lp2305
sI4
(lp2306
sI5
(lp2307
ssI3
(dp2308
I0
g2265
sI1
g2272
sI2
g2305
sI3
(lp2309
sI4
(lp2310
sI5
(lp2311
Vhttp://dbpedia.org/property/origin
p2312
aVhttp://dbpedia.org/property/website
p2313
aVhttp://dbpedia.org/ontology/associatedMusicalArtist
p2314
aVhttp://dbpedia.org/ontology/recordLabel
p2315
aVhttp://dbpedia.org/property/currentMembers
p2316
aVhttp://dbpedia.org/ontology/musicalBand
p2317
aVhttp://dbpedia.org/property/genre
p2318
aVhttp://dbpedia.org/ontology/bandMember
p2319
aVhttp://dbpedia.org/ontology/producer
p2320
aVhttp://dbpedia.org/property/label
p2321
aVhttp://www.w3.org/1999/02/22-rdf-syntax-ns#type
p2322
aVhttp://dbpedia.org/property/wordnet_type
p2323
aVhttp://dbpedia.org/property/artist
p2324
aVhttp://dbpedia.org/property/associatedActs
p2325
aVhttp://dbpedia.org/ontology/wikiPageDisambiguates
p2326
aVhttp://dbpedia.org/ontology/wikiPageExternalLink
p2327
aVhttp://purl.org/dc/terms/subject
p2328
aVhttp://dbpedia.org/property/pastMembers
p2329
aVhttp://dbpedia.org/ontology/abstract
p2330
aVhttp://xmlns.com/foaf/0.1/depiction
p2331
aVhttp://dbpedia.org/property/extra
p2332
aVhttp://dbpedia.org/ontology/thumbnail
p2333
aVhttp://dbpedia.org/property/hasPhotoCollection
p2334
aVhttp://dbpedia.org/ontology/musicalArtist
p2335
aVhttp://dbpedia.org/ontology/genre
p2336
aVhttp://www.w3.org/2000/01/rdf-schema#comment
p2337
aVhttp://dbpedia.org/ontology/formerBandMember
p2338
aVhttp://dbpedia.org/ontology/wikiPageRedirects
p2339
aVhttp://dbpedia.org/ontology/artist
p2340
aVhttp://dbpedia.org/ontology/associatedBand
p2341
aVhttp://www.w3.org/2002/07/owl#sameAs
p2342
assI4
(dp2343
I0
g2267
sI1
g2273
sI2
g2306
sI3
g2310
sI4
(lp2344
sI5
(lp2345
ssI5
(dp2346
I0
g2268
sI1
g2274
sI2
g2307
sI3
g2311
sI4
g2345
sI5
(lp2347
ssa(dp2348
I0
(dp2349
I0
(lp2350
sI1
(lp2351
sI2
(lp2352
sI3
(lp2353
sI4
(lp2354
sI5
(lp2355
Vhttp://www.w3.org/1999/02/22-rdf-syntax-ns#type
p2356
assI1
(dp2357
I0
g2351
sI1
(lp2358
sI2
(lp2359
sI3
(lp2360
sI4
(lp2361
sI5
(lp2362
ssI2
(dp2363
I0
g2352
sI1
g2359
sI2
(lp2364
sI3
(lp2365
sI4
(lp2366
sI5
(lp2367
ssI3
(dp2368
I0
g2353
sI1
g2360
sI2
g2365
sI3
(lp2369
sI4
(lp2370
sI5
(lp2371
Vhttp://dbpedia.org/property/origin
p2372
aVhttp://dbpedia.org/property/website
p2373
aVhttp://dbpedia.org/ontology/associatedMusicalArtist
p2374
aVhttp://dbpedia.org/ontology/recordLabel
p2375
aVhttp://dbpedia.org/property/currentMembers
p2376
aVhttp://dbpedia.org/ontology/musicalBand
p2377
aVhttp://dbpedia.org/property/genre
p2378
aVhttp://dbpedia.org/ontology/bandMember
p2379
aVhttp://dbpedia.org/ontology/producer
p2380
aVhttp://dbpedia.org/property/label
p2381
aVhttp://www.w3.org/1999/02/22-rdf-syntax-ns#type
p2382
aVhttp://dbpedia.org/property/wordnet_type
p2383
aVhttp://dbpedia.org/property/artist
p2384
aVhttp://dbpedia.org/property/associatedActs
p2385
aVhttp://dbpedia.org/ontology/wikiPageDisambiguates
p2386
aVhttp://dbpedia.org/ontology/wikiPageExternalLink
p2387
aVhttp://purl.org/dc/terms/subject
p2388
aVhttp://dbpedia.org/property/pastMembers
p2389
aVhttp://dbpedia.org/ontology/abstract
p2390
aVhttp://xmlns.com/foaf/0.1/depiction
p2391
aVhttp://dbpedia.org/property/extra
p2392
aVhttp://dbpedia.org/ontology/thumbnail
p2393
aVhttp://dbpedia.org/property/hasPhotoCollection
p2394
aVhttp://dbpedia.org/ontology/musicalArtist
p2395
aVhttp://dbpedia.org/ontology/genre
p2396
aVhttp://www.w3.org/2000/01/rdf-schema#comment
p2397
aVhttp://dbpedia.org/ontology/formerBandMember
p2398
aVhttp://dbpedia.org/ontology/wikiPageRedirects
p2399
aVhttp://dbpedia.org/ontology/artist
p2400
aVhttp://dbpedia.org/ontology/associatedBand
p2401
aVhttp://www.w3.org/2002/07/owl#sameAs
p2402
assI4
(dp2403
I0
g2354
sI1
g2361
sI2
g2366
sI3
g2370
sI4
(lp2404
sI5
(lp2405
ssI5
(dp2406
I0
g2355
sI1
g2362
sI2
g2367
sI3
g2371
sI4
g2405
sI5
(lp2407
ssa.