(lp1
(lp2
(dp3
Vstart
p4
I0
sVdisambiguatedURL
p5
NsVnamedEntity
p6
V
sVoffset
p7
I0
saa(lp8
(dp9
Vstart
p10
I0
sVdisambiguatedURL
p11
Vhttp://dbpedia.org/resource/Null
p12
sVnamedEntity
p13
VNULL
p14
sVoffset
p15
I4
saa(lp16
(dp17
Vstart
p18
I0
sVdisambiguatedURL
p19
NsVnamedEntity
p20
Vrain in mm
p21
sVoffset
p22
I10
saa.