(lp1
(dp2
I0
(dp3
I0
(lp4
sI1
(lp5
sI2
(lp6
sI3
(lp7
Vhttp://www.w3.org/1999/02/22-rdf-syntax-ns#type
p8
aVhttp://purl.org/dc/terms/subject
p9
aVhttp://dbpedia.org/ontology/equity
p10
aVhttp://dbpedia.org/ontology/revenue
p11
aVhttp://dbpedia.org/ontology/abstract
p12
aVhttp://www.w3.org/2000/01/rdf-schema#comment
p13
aVhttp://dbpedia.org/ontology/assets
p14
aVhttp://dbpedia.org/property/wordnet_type
p15
aVhttp://purl.org/voc/vrank#hasRank
p16
aVhttp://dbpedia.org/ontology/thumbnail
p17
aVhttp://dbpedia.org/property/equity
p18
aVhttp://xmlns.com/foaf/0.1/depiction
p19
aVhttp://www.w3.org/2002/07/owl#sameAs
p20
aVhttp://dbpedia.org/property/revenue
p21
assI1
(dp22
I0
g5
sI1
(lp23
sI2
(lp24
sI3
(lp25
ssI2
(dp26
I0
g6
sI1
g24
sI2
(lp27
sI3
(lp28
ssI3
(dp29
I0
g7
sI1
g25
sI2
g28
sI3
(lp30
ssa(dp31
I0
(dp32
I0
(lp33
sI1
(lp34
sI2
(lp35
sI3
(lp36
ssI1
(dp37
I0
g34
sI1
(lp38
sI2
(lp39
sI3
(lp40
ssI2
(dp41
I0
g35
sI1
g39
sI2
(lp42
sI3
(lp43
ssI3
(dp44
I0
g36
sI1
g40
sI2
g43
sI3
(lp45
ssa(dp46
I0
(dp47
I0
(lp48
sI1
(lp49
sI2
(lp50
sI3
(lp51
ssI1
(dp52
I0
g49
sI1
(lp53
sI2
(lp54
sI3
(lp55
ssI2
(dp56
I0
g50
sI1
g54
sI2
(lp57
sI3
(lp58
ssI3
(dp59
I0
g51
sI1
g55
sI2
g58
sI3
(lp60
ssa(dp61
I0
(dp62
I0
(lp63
sI1
(lp64
sI2
(lp65
sI3
(lp66
Vhttp://www.w3.org/1999/02/22-rdf-syntax-ns#type
p67
aVhttp://purl.org/dc/terms/subject
p68
aVhttp://www.w3.org/2000/01/rdf-schema#comment
p69
aVhttp://dbpedia.org/ontology/abstract
p70
aVhttp://dbpedia.org/property/wordnet_type
p71
aVhttp://purl.org/voc/vrank#hasRank
p72
aVhttp://www.w3.org/ns/prov#wasDerivedFrom
p73
assI1
(dp74
I0
g64
sI1
(lp75
sI2
(lp76
sI3
(lp77
ssI2
(dp78
I0
g65
sI1
g76
sI2
(lp79
sI3
(lp80
ssI3
(dp81
I0
g66
sI1
g77
sI2
g80
sI3
(lp82
ssa(dp83
I0
(dp84
I0
(lp85
sI1
(lp86
sI2
(lp87
sI3
(lp88
Vhttp://dbpedia.org/ontology/wikiPageExternalLink
p89
aVhttp://www.w3.org/1999/02/22-rdf-syntax-ns#type
p90
aVhttp://purl.org/dc/terms/subject
p91
aVhttp://www.w3.org/2000/01/rdf-schema#comment
p92
aVhttp://dbpedia.org/ontology/revenue
p93
aVhttp://dbpedia.org/ontology/abstract
p94
aVhttp://dbpedia.org/ontology/equity
p95
aVhttp://dbpedia.org/property/wordnet_type
p96
aVhttp://www.w3.org/ns/prov#wasDerivedFrom
p97
aVhttp://dbpedia.org/property/equity
p98
aVhttp://dbpedia.org/ontology/assets
p99
aVhttp://www.w3.org/2002/07/owl#sameAs
p100
aVhttp://dbpedia.org/property/revenue
p101
assI1
(dp102
I0
g86
sI1
(lp103
sI2
(lp104
sI3
(lp105
ssI2
(dp106
I0
g87
sI1
g104
sI2
(lp107
sI3
(lp108
ssI3
(dp109
I0
g88
sI1
g105
sI2
g108
sI3
(lp110
ssa(dp111
I0
(dp112
I0
(lp113
sI1
(lp114
sI2
(lp115
sI3
(lp116
ssI1
(dp117
I0
g114
sI1
(lp118
sI2
(lp119
sI3
(lp120
ssI2
(dp121
I0
g115
sI2
(lp122
sI3
(lp123
ssI3
(dp124
I0
g116
sI3
(lp125
ssa.