ccollections
defaultdict
p1
(c__builtin__
dict
p2
tRp3
I128
(dp4
I1
(lp5
sI2
(lp6
Vhttp://dbpedia.org/ontology/abstract
p7
aVhttp://www.w3.org/2000/01/rdf-schema#comment
p8
asI3
(lp9
sI4
(lp10
sI5
(lp11
sI6
(lp12
ssI150
(dp13
I1
(lp14
sI2
(lp15
sI3
(lp16
sI4
(lp17
sI5
(lp18
sI6
(lp19
ssI93
(dp20
I1
(lp21
sI2
(lp22
sI3
(lp23
sI4
(lp24
sI5
(lp25
sI6
(lp26
ssI78
(dp27
I1
(lp28
sI2
(lp29
sI3
(lp30
sI4
(lp31
sI5
(lp32
sI6
(lp33
ssI143
(dp34
I1
(lp35
sI2
(lp36
sI3
(lp37
sI4
(lp38
sI5
(lp39
sI6
(lp40
ss.