(lp1
(lp2
(lp3
Vhttp://dbpedia.org/resource/Null
p4
aa(lp5
a(lp6
Vhttp://dbpedia.org/resource/Null
p7
aa(lp8
aa(lp9
(lp10
Vhttp://dbpedia.org/resource/Null
p11
aa(lp12
a(lp13
Vhttp://dbpedia.org/resource/Null
p14
aa(lp15
aa(lp16
(lp17
Vhttp://dbpedia.org/resource/Null
p18
aa(lp19
a(lp20
Vhttp://dbpedia.org/resource/Null
p21
aa(lp22
aa(lp23
(lp24
Vhttp://dbpedia.org/resource/Null
p25
aa(lp26
a(lp27
Vhttp://dbpedia.org/resource/Null
p28
aa(lp29
aa(lp30
(lp31
Vhttp://dbpedia.org/resource/Null
p32
aa(lp33
a(lp34
Vhttp://dbpedia.org/resource/Null
p35
aa(lp36
aa(lp37
(lp38
Vhttp://dbpedia.org/resource/Null
p39
aa(lp40
a(lp41
Vhttp://dbpedia.org/resource/Null
p42
aa(lp43
aa(lp44
(lp45
Vhttp://dbpedia.org/resource/Null
p46
aa(lp47
a(lp48
Vhttp://dbpedia.org/resource/Null
p49
aa(lp50
aa(lp51
(lp52
Vhttp://dbpedia.org/resource/Null
p53
aa(lp54
a(lp55
Vhttp://dbpedia.org/resource/Null
p56
aa(lp57
aa(lp58
(lp59
Vhttp://dbpedia.org/resource/Null
p60
aa(lp61
a(lp62
Vhttp://dbpedia.org/resource/Null
p63
aa(lp64
aa(lp65
(lp66
Vhttp://dbpedia.org/resource/Null
p67
aa(lp68
a(lp69
Vhttp://dbpedia.org/resource/Null
p70
aa(lp71
aa(lp72
(lp73
Vhttp://dbpedia.org/resource/Null
p74
aa(lp75
a(lp76
Vhttp://dbpedia.org/resource/Null
p77
aa(lp78
aa(lp79
(lp80
Vhttp://dbpedia.org/resource/Null
p81
aa(lp82
a(lp83
Vhttp://dbpedia.org/resource/Null
p84
aa(lp85
aa(lp86
(lp87
Vhttp://dbpedia.org/resource/Null
p88
aa(lp89
a(lp90
Vhttp://dbpedia.org/resource/Null
p91
aa(lp92
aa(lp93
(lp94
Vhttp://dbpedia.org/resource/Null
p95
aa(lp96
a(lp97
Vhttp://dbpedia.org/resource/Null
p98
aa(lp99
aa(lp100
(lp101
Vhttp://dbpedia.org/resource/Null
p102
aa(lp103
a(lp104
Vhttp://dbpedia.org/resource/Null
p105
aa(lp106
aa(lp107
(lp108
Vhttp://dbpedia.org/resource/Null
p109
aa(lp110
a(lp111
Vhttp://dbpedia.org/resource/Null
p112
aa(lp113
aa(lp114
(lp115
Vhttp://dbpedia.org/resource/Null
p116
aa(lp117
a(lp118
Vhttp://dbpedia.org/resource/Null
p119
aa(lp120
aa(lp121
(lp122
Vhttp://dbpedia.org/resource/Null
p123
aa(lp124
a(lp125
Vhttp://dbpedia.org/resource/Null
p126
aa(lp127
aa(lp128
(lp129
Vhttp://dbpedia.org/resource/Null
p130
aa(lp131
a(lp132
Vhttp://dbpedia.org/resource/Null
p133
aa(lp134
aa(lp135
(lp136
Vhttp://dbpedia.org/resource/Null
p137
aa(lp138
a(lp139
Vhttp://dbpedia.org/resource/Null
p140
aa(lp141
aa.