(lp1
(dp2
I0
(dp3
I0
(lp4
sI1
(lp5
sI2
(lp6
ssI1
(dp7
I0
g5
sI1
(lp8
sI2
(lp9
ssI2
(dp10
I0
g6
sI1
g9
sI2
(lp11
ssa(dp12
I0
(dp13
I0
(lp14
sI1
(lp15
sI2
(lp16
Vhttp://www.w3.org/2000/01/rdf-schema#seeAlso
p17
aVhttp://dbpedia.org/property/origin
p18
aVhttp://dbpedia.org/property/ground
p19
aVhttp://dbpedia.org/ontology/origin
p20
aVhttp://dbpedia.org/property/residence
p21
aVhttp://dbpedia.org/property/placeOfDeath
p22
aVhttp://dbpedia.org/ontology/locatedInArea
p23
aVhttp://dbpedia.org/property/hasPhotoCollection
p24
aVhttp://dbpedia.org/ontology/country
p25
aVhttp://www.w3.org/1999/02/22-rdf-syntax-ns#type
p26
aVhttp://dbpedia.org/property/birthPlace
p27
aVhttp://dbpedia.org/property/discoverySite
p28
aVhttp://dbpedia.org/ontology/ground
p29
aVhttp://dbpedia.org/ontology/nationality
p30
aVhttp://dbpedia.org/property/image
p31
aVhttp://dbpedia.org/property/placeOfBirth
p32
aVhttp://dbpedia.org/ontology/residence
p33
aVhttp://dbpedia.org/property/owner
p34
aVhttp://dbpedia.org/property/country
p35
aVhttp://dbpedia.org/property/shipCountry
p36
aVhttp://dbpedia.org/property/areaServed
p37
aVhttp://purl.org/dc/terms/subject
p38
aVhttp://dbpedia.org/property/nationality
p39
aVhttp://dbpedia.org/ontology/abstract
p40
aVhttp://dbpedia.org/property/venue
p41
aVhttp://dbpedia.org/property/deathPlace
p42
aVhttp://dbpedia.org/property/location
p43
aVhttp://dbpedia.org/property/nationalAnthem
p44
aVhttp://dbpedia.org/ontology/deathPlace
p45
aVhttp://dbpedia.org/property/usedBy
p46
aVhttp://dbpedia.org/property/subdivisionName
p47
aVhttp://dbpedia.org/ontology/sourceCountry
p48
aVhttp://www.georss.org/georss/point
p49
aVhttp://dbpedia.org/ontology/location
p50
aVhttp://www.w3.org/2000/01/rdf-schema#comment
p51
aVhttp://dbpedia.org/ontology/birthPlace
p52
aVhttp://dbpedia.org/ontology/wikiPageRedirects
p53
aVhttp://dbpedia.org/ontology/hometown
p54
aVhttp://dbpedia.org/property/regionServed
p55
aVhttp://www.w3.org/2002/07/owl#sameAs
p56
assI1
(dp57
I0
g15
sI1
(lp58
sI2
(lp59
ssI2
(dp60
I0
g16
sI1
g59
sI2
(lp61
ssa(dp62
I0
(dp63
I0
(lp64
sI1
(lp65
sI2
(lp66
Vhttp://www.w3.org/2000/01/rdf-schema#seeAlso
p67
aVhttp://dbpedia.org/property/origin
p68
aVhttp://dbpedia.org/property/governmentType
p69
aVhttp://dbpedia.org/ontology/occupation
p70
aVhttp://dbpedia.org/property/broadcastArea
p71
aVhttp://dbpedia.org/ontology/origin
p72
aVhttp://dbpedia.org/property/assembly
p73
aVhttp://dbpedia.org/property/place
p74
aVhttp://dbpedia.org/ontology/headquarter
p75
aVhttp://dbpedia.org/ontology/foundationPlace
p76
aVhttp://dbpedia.org/property/countryOfOrigin
p77
aVhttp://dbpedia.org/property/gan
p78
aVhttp://dbpedia.org/ontology/garrison
p79
aVhttp://dbpedia.org/property/placeOfDeath
p80
aVhttp://dbpedia.org/property/genre
p81
aVhttp://dbpedia.org/ontology/locatedInArea
p82
aVhttp://www.w3.org/2002/07/owl#differentFrom
p83
aVhttp://dbpedia.org/property/site
p84
aVhttp://dbpedia.org/ontology/regionServed
p85
aVhttp://dbpedia.org/ontology/country
p86
aVhttp://dbpedia.org/property/region
p87
aVhttp://www.w3.org/1999/02/22-rdf-syntax-ns#type
p88
aVhttp://dbpedia.org/property/poj
p89
aVhttp://dbpedia.org/property/w
p90
aVhttp://dbpedia.org/ontology/hometown
p91
aVhttp://dbpedia.org/property/hasPhotoCollection
p92
aVhttp://dbpedia.org/property/locationCountry
p93
aVhttp://dbpedia.org/property/hostCity
p94
aVhttp://dbpedia.org/property/madein
p95
aVhttp://dbpedia.org/property/image
p96
aVhttp://dbpedia.org/ontology/nationality
p97
aVhttp://dbpedia.org/property/birthPlace
p98
aVhttp://dbpedia.org/ontology/place
p99
aVhttp://dbpedia.org/property/placeOfBirth
p100
aVhttp://dbpedia.org/ontology/residence
p101
aVhttp://dbpedia.org/property/country
p102
aVhttp://dbpedia.org/property/hqCity
p103
aVhttp://dbpedia.org/property/nation
p104
aVhttp://dbpedia.org/property/areaServed
p105
aVhttp://dbpedia.org/property/citizenship
p106
aVhttp://dbpedia.org/ontology/wikiPageExternalLink
p107
aVhttp://dbpedia.org/property/buc
p108
aVhttp://dbpedia.org/property/ancestry
p109
aVhttp://purl.org/dc/terms/subject
p110
aVhttp://dbpedia.org/ontology/populationPlace
p111
aVhttp://dbpedia.org/property/manufacturer
p112
aVhttp://dbpedia.org/property/primaryUser
p113
aVhttp://dbpedia.org/property/allegiance
p114
aVhttp://dbpedia.org/ontology/abstract
p115
aVhttp://dbpedia.org/ontology/spokenIn
p116
aVhttp://dbpedia.org/property/venue
p117
aVhttp://dbpedia.org/property/deathPlace
p118
aVhttp://dbpedia.org/property/location
p119
aVhttp://dbpedia.org/property/states
p120
aVhttp://dbpedia.org/ontology/locationCountry
p121
aVhttp://dbpedia.org/ontology/deathPlace
p122
aVhttp://dbpedia.org/property/nationality
p123
aVhttp://dbpedia.org/property/areas
p124
aVhttp://dbpedia.org/ontology/assembly
p125
aVhttp://dbpedia.org/property/usedBy
p126
aVhttp://dbpedia.org/property/shipSponsor
p127
aVhttp://dbpedia.org/property/subdivisionName
p128
aVhttp://dbpedia.org/property/nationalOrigin
p129
aVhttp://dbpedia.org/ontology/location
p130
aVhttp://dbpedia.org/property/locale
p131
aVhttp://dbpedia.org/ontology/stateOfOrigin
p132
aVhttp://dbpedia.org/property/moreUsers
p133
aVhttp://dbpedia.org/property/headquarters
p134
aVhttp://dbpedia.org/property/residence
p135
aVhttp://dbpedia.org/property/southeast
p136
aVhttp://dbpedia.org/ontology/birthPlace
p137
aVhttp://dbpedia.org/property/countriesAffected
p138
aVhttp://dbpedia.org/property/shipCountry
p139
aVhttp://dbpedia.org/ontology/wikiPageRedirects
p140
aVhttp://www.w3.org/2000/01/rdf-schema#comment
p141
aVhttp://dbpedia.org/property/locationCity
p142
aVhttp://dbpedia.org/property/south
p143
aVhttp://dbpedia.org/property/regionServed
p144
aVhttp://www.w3.org/2002/07/owl#sameAs
p145
aVhttp://dbpedia.org/property/garrison
p146
aVhttp://dbpedia.org/ontology/locationCity
p147
aVhttp://dbpedia.org/property/stadium
p148
aVhttp://dbpedia.org/property/mps
p149
assI1
(dp150
I0
g65
sI1
(lp151
sI2
(lp152
ssI2
(dp153
I0
g66
sI1
g152
sI2
(lp154
ssa(dp155
I0
(dp156
I0
(lp157
sI1
(lp158
sI2
(lp159
Vhttp://www.w3.org/2000/01/rdf-schema#seeAlso
p160
aVhttp://dbpedia.org/property/origin
p161
aVhttp://dbpedia.org/property/ground
p162
aVhttp://dbpedia.org/ontology/origin
p163
aVhttp://dbpedia.org/ontology/citizenship
p164
aVhttp://dbpedia.org/property/city
p165
aVhttp://dbpedia.org/ontology/locatedInArea
p166
aVhttp://dbpedia.org/property/site
p167
aVhttp://dbpedia.org/ontology/regionServed
p168
aVhttp://dbpedia.org/ontology/country
p169
aVhttp://dbpedia.org/property/region
p170
aVhttp://www.w3.org/1999/02/22-rdf-syntax-ns#type
p171
aVhttp://dbpedia.org/property/assembly
p172
aVhttp://dbpedia.org/ontology/ground
p173
aVhttp://dbpedia.org/ontology/nationality
p174
aVhttp://dbpedia.org/property/birthPlace
p175
aVhttp://dbpedia.org/property/country/region
p176
aVhttp://dbpedia.org/property/placeOfBirth
p177
aVhttp://dbpedia.org/property/locationSigned
p178
aVhttp://dbpedia.org/property/country
p179
aVhttp://dbpedia.org/property/areaServed
p180
aVhttp://dbpedia.org/ontology/wikiPageExternalLink
p181
aVhttp://purl.org/dc/terms/subject
p182
aVhttp://dbpedia.org/ontology/populationPlace
p183
aVhttp://dbpedia.org/ontology/residence
p184
aVhttp://dbpedia.org/ontology/abstract
p185
aVhttp://dbpedia.org/ontology/spokenIn
p186
aVhttp://dbpedia.org/property/venue
p187
aVhttp://dbpedia.org/property/location
p188
aVhttp://dbpedia.org/property/states
p189
aVhttp://dbpedia.org/ontology/division
p190
aVhttp://dbpedia.org/ontology/headquarter
p191
aVhttp://dbpedia.org/ontology/city
p192
aVhttp://dbpedia.org/property/hasPhotoCollection
p193
aVhttp://dbpedia.org/property/subdivisionName
p194
aVhttp://dbpedia.org/ontology/location
p195
aVhttp://dbpedia.org/property/locale
p196
aVhttp://dbpedia.org/property/basinCountries
p197
aVhttp://www.georss.org/georss/point
p198
aVhttp://dbpedia.org/ontology/assembly
p199
aVhttp://dbpedia.org/property/headquarters
p200
aVhttp://www.w3.org/2000/01/rdf-schema#comment
p201
aVhttp://dbpedia.org/ontology/birthPlace
p202
aVhttp://dbpedia.org/ontology/wikiPageRedirects
p203
aVhttp://dbpedia.org/ontology/hometown
p204
aVhttp://www.w3.org/2002/07/owl#sameAs
p205
aVhttp://dbpedia.org/property/regionServed
p206
aVhttp://dbpedia.org/ontology/stateOfOrigin
p207
aVhttp://dbpedia.org/property/residence
p208
aVhttp://dbpedia.org/property/stadium
p209
aVhttp://dbpedia.org/ontology/deathPlace
p210
assI1
(dp211
I0
g158
sI1
(lp212
sI2
(lp213
ssI2
(dp214
I0
g159
sI1
g213
sI2
(lp215
ssa(dp216
I0
(dp217
I0
(lp218
sI1
(lp219
sI2
(lp220
ssI1
(dp221
I0
g219
sI1
(lp222
sI2
(lp223
ssI2
(dp224
I0
g220
sI1
g223
sI2
(lp225
ssa(dp226
I0
(dp227
I0
(lp228
sI1
(lp229
sI2
(lp230
Vhttp://www.w3.org/2000/01/rdf-schema#seeAlso
p231
aVhttp://dbpedia.org/property/origin
p232
aVhttp://dbpedia.org/ontology/wikiPageRedirects
p233
aVhttp://dbpedia.org/property/residence
p234
aVhttp://dbpedia.org/property/placeOfDeath
p235
aVhttp://dbpedia.org/property/hasPhotoCollection
p236
aVhttp://dbpedia.org/ontology/country
p237
aVhttp://dbpedia.org/property/region
p238
aVhttp://www.w3.org/1999/02/22-rdf-syntax-ns#type
p239
aVhttp://dbpedia.org/property/allegiance
p240
aVhttp://dbpedia.org/ontology/nationality
p241
aVhttp://dbpedia.org/property/birthPlace
p242
aVhttp://dbpedia.org/property/placeOfBirth
p243
aVhttp://dbpedia.org/ontology/residence
p244
aVhttp://dbpedia.org/property/country
p245
aVhttp://dbpedia.org/property/areaServed
p246
aVhttp://dbpedia.org/ontology/wikiPageExternalLink
p247
aVhttp://purl.org/dc/terms/subject
p248
aVhttp://dbpedia.org/property/nationality
p249
aVhttp://dbpedia.org/ontology/abstract
p250
aVhttp://dbpedia.org/property/location
p251
aVhttp://dbpedia.org/property/deathPlace
p252
aVhttp://dbpedia.org/ontology/headquarter
p253
aVhttp://dbpedia.org/property/usedBy
p254
aVhttp://dbpedia.org/property/subdivisionName
p255
aVhttp://dbpedia.org/ontology/location
p256
aVhttp://dbpedia.org/property/imageMap
p257
aVhttp://dbpedia.org/property/headquarters
p258
aVhttp://www.w3.org/2000/01/rdf-schema#comment
p259
aVhttp://dbpedia.org/ontology/birthPlace
p260
aVhttp://dbpedia.org/property/opponents
p261
aVhttp://dbpedia.org/ontology/citizenship
p262
aVhttp://dbpedia.org/property/area
p263
aVhttp://dbpedia.org/ontology/hometown
p264
aVhttp://www.w3.org/2002/07/owl#sameAs
p265
aVhttp://dbpedia.org/ontology/stateOfOrigin
p266
aVhttp://dbpedia.org/property/data
p267
aVhttp://dbpedia.org/property/stadium
p268
aVhttp://dbpedia.org/ontology/deathPlace
p269
assI1
(dp270
I0
g229
sI1
(lp271
sI2
(lp272
ssI2
(dp273
I0
g230
sI1
g272
sI2
(lp274
ssa(dp275
I0
(dp276
I0
(lp277
sI1
(lp278
sI2
(lp279
Vhttp://www.w3.org/2000/01/rdf-schema#seeAlso
p280
aVhttp://dbpedia.org/property/placeOfDeath
p281
aVhttp://dbpedia.org/property/ground
p282
aVhttp://dbpedia.org/ontology/origin
p283
aVhttp://dbpedia.org/ontology/citizenship
p284
aVhttp://dbpedia.org/property/residence
p285
aVhttp://dbpedia.org/property/territory
p286
aVhttp://dbpedia.org/property/hasPhotoCollection
p287
aVhttp://dbpedia.org/property/dateFormat
p288
aVhttp://dbpedia.org/ontology/country
p289
aVhttp://www.w3.org/1999/02/22-rdf-syntax-ns#type
p290
aVhttp://www.w3.org/2002/07/owl#sameAs
p291
aVhttp://dbpedia.org/property/locationCountry
p292
aVhttp://dbpedia.org/property/assembly
p293
aVhttp://dbpedia.org/property/birthPlace
p294
aVhttp://dbpedia.org/property/country/region
p295
aVhttp://dbpedia.org/property/placeOfBirth
p296
aVhttp://dbpedia.org/property/country
p297
aVhttp://dbpedia.org/ontology/regionServed
p298
aVhttp://dbpedia.org/property/establishedEvent
p299
aVhttp://dbpedia.org/ontology/wikiPageExternalLink
p300
aVhttp://purl.org/dc/terms/subject
p301
aVhttp://dbpedia.org/ontology/populationPlace
p302
aVhttp://dbpedia.org/ontology/residence
p303
aVhttp://dbpedia.org/ontology/abstract
p304
aVhttp://dbpedia.org/property/venue
p305
aVhttp://dbpedia.org/property/deathPlace
p306
aVhttp://dbpedia.org/property/location
p307
aVhttp://dbpedia.org/property/states
p308
aVhttp://dbpedia.org/ontology/deathPlace
p309
aVhttp://dbpedia.org/property/drivesOn
p310
aVhttp://dbpedia.org/property/usedBy
p311
aVhttp://dbpedia.org/property/subdivisionName
p312
aVhttp://dbpedia.org/ontology/location
p313
aVhttp://dbpedia.org/ontology/assembly
p314
aVhttp://dbpedia.org/property/headquarters
p315
aVhttp://www.w3.org/2000/01/rdf-schema#comment
p316
aVhttp://dbpedia.org/ontology/birthPlace
p317
aVhttp://dbpedia.org/property/countries
p318
aVhttp://dbpedia.org/ontology/wikiPageRedirects
p319
aVhttp://dbpedia.org/property/areaServed
p320
aVhttp://dbpedia.org/ontology/hometown
p321
aVhttp://dbpedia.org/property/citizenship
p322
aVhttp://dbpedia.org/ontology/spokenIn
p323
aVhttp://dbpedia.org/property/leaderTitle
p324
aVhttp://dbpedia.org/property/stadium
p325
assI1
(dp326
I0
g278
sI1
(lp327
sI2
(lp328
ssI2
(dp329
I0
g279
sI1
g328
sI2
(lp330
ssa(dp331
I0
(dp332
I0
(lp333
sI1
(lp334
sI2
(lp335
Vhttp://www.w3.org/2000/01/rdf-schema#seeAlso
p336
aVhttp://dbpedia.org/property/origin
p337
aVhttp://dbpedia.org/property/hostCity
p338
aVhttp://dbpedia.org/property/placeOfDeath
p339
aVhttp://dbpedia.org/ontology/locatedInArea
p340
aVhttp://dbpedia.org/ontology/country
p341
aVhttp://dbpedia.org/property/region
p342
aVhttp://www.w3.org/1999/02/22-rdf-syntax-ns#type
p343
aVhttp://dbpedia.org/ontology/leaderTitle
p344
aVhttp://www.w3.org/2002/07/owl#sameAs
p345
aVhttp://dbpedia.org/property/allegiance
p346
aVhttp://dbpedia.org/ontology/nationality
p347
aVhttp://dbpedia.org/property/birthPlace
p348
aVhttp://dbpedia.org/ontology/place
p349
aVhttp://dbpedia.org/ontology/ethnicGroup
p350
aVhttp://dbpedia.org/property/stateParty
p351
aVhttp://dbpedia.org/property/country
p352
aVhttp://dbpedia.org/property/shipCountry
p353
aVhttp://dbpedia.org/property/placeOfBirth
p354
aVhttp://dbpedia.org/ontology/wikiPageExternalLink
p355
aVhttp://purl.org/dc/terms/subject
p356
aVhttp://dbpedia.org/property/nationality
p357
aVhttp://dbpedia.org/ontology/abstract
p358
aVhttp://dbpedia.org/property/deathPlace
p359
aVhttp://dbpedia.org/property/location
p360
aVhttp://dbpedia.org/property/states
p361
aVhttp://dbpedia.org/property/nationalAnthem
p362
aVhttp://dbpedia.org/ontology/deathPlace
p363
aVhttp://dbpedia.org/property/hasPhotoCollection
p364
aVhttp://dbpedia.org/property/subdivisionName
p365
aVhttp://dbpedia.org/property/locale
p366
aVhttp://dbpedia.org/property/imageMap
p367
aVhttp://dbpedia.org/property/headquarters
p368
aVhttp://www.w3.org/2000/01/rdf-schema#comment
p369
aVhttp://dbpedia.org/ontology/birthPlace
p370
aVhttp://dbpedia.org/ontology/wikiPageRedirects
p371
aVhttp://dbpedia.org/ontology/hometown
p372
aVhttp://dbpedia.org/ontology/restingPlace
p373
aVhttp://dbpedia.org/property/citizenship
p374
aVhttp://dbpedia.org/ontology/spokenIn
p375
aVhttp://dbpedia.org/property/stadium
p376
assI1
(dp377
I0
g334
sI1
(lp378
sI2
(lp379
ssI2
(dp380
I0
g335
sI1
g379
sI2
(lp381
ssa(dp382
I0
(dp383
I0
(lp384
sI1
(lp385
sI2
(lp386
Vhttp://dbpedia.org/property/origin
p387
aVhttp://dbpedia.org/property/placeOfDeath
p388
aVhttp://dbpedia.org/ontology/origin
p389
aVhttp://dbpedia.org/property/footnoteA
p390
aVhttp://dbpedia.org/ontology/locatedInArea
p391
aVhttp://dbpedia.org/property/site
p392
aVhttp://dbpedia.org/ontology/related
p393
aVhttp://dbpedia.org/ontology/country
p394
aVhttp://www.w3.org/1999/02/22-rdf-syntax-ns#type
p395
aVhttp://dbpedia.org/property/hasPhotoCollection
p396
aVhttp://dbpedia.org/ontology/nationality
p397
aVhttp://dbpedia.org/property/birthPlace
p398
aVhttp://dbpedia.org/property/placeOfBirth
p399
aVhttp://dbpedia.org/property/office
p400
aVhttp://dbpedia.org/ontology/binomialAuthority
p401
aVhttp://dbpedia.org/property/country
p402
aVhttp://dbpedia.org/property/shipCountry
p403
aVhttp://dbpedia.org/ontology/wikiPageExternalLink
p404
aVhttp://purl.org/dc/terms/subject
p405
aVhttp://dbpedia.org/ontology/populationPlace
p406
aVhttp://dbpedia.org/property/primaryUser
p407
aVhttp://dbpedia.org/property/nationality
p408
aVhttp://dbpedia.org/ontology/abstract
p409
aVhttp://xmlns.com/foaf/0.1/depiction
p410
aVhttp://dbpedia.org/property/deathPlace
p411
aVhttp://dbpedia.org/property/location
p412
aVhttp://dbpedia.org/property/states
p413
aVhttp://dbpedia.org/ontology/deathPlace
p414
aVhttp://dbpedia.org/property/usedBy
p415
aVhttp://dbpedia.org/property/subdivisionName
p416
aVhttp://dbpedia.org/property/nationalOrigin
p417
aVhttp://www.georss.org/georss/point
p418
aVhttp://dbpedia.org/ontology/location
p419
aVhttp://www.w3.org/2000/01/rdf-schema#comment
p420
aVhttp://dbpedia.org/ontology/birthPlace
p421
aVhttp://dbpedia.org/property/countriesAffected
p422
aVhttp://dbpedia.org/ontology/wikiPageRedirects
p423
aVhttp://dbpedia.org/ontology/hometown
p424
aVhttp://dbpedia.org/property/regionServed
p425
aVhttp://xmlns.com/foaf/0.1/name
p426
aVhttp://dbpedia.org/ontology/spokenIn
p427
aVhttp://www.w3.org/2002/07/owl#sameAs
p428
assI1
(dp429
I0
g385
sI1
(lp430
sI2
(lp431
ssI2
(dp432
I0
g386
sI1
g431
sI2
(lp433
ssa(dp434
I0
(dp435
I0
(lp436
sI1
(lp437
sI2
(lp438
Vhttp://www.w3.org/2000/01/rdf-schema#seeAlso
p439
aVhttp://dbpedia.org/property/origin
p440
aVhttp://dbpedia.org/ontology/citizenship
p441
aVhttp://dbpedia.org/ontology/occupation
p442
aVhttp://dbpedia.org/ontology/origin
p443
aVhttp://dbpedia.org/property/place
p444
aVhttp://dbpedia.org/ontology/foundationPlace
p445
aVhttp://dbpedia.org/property/city
p446
aVhttp://dbpedia.org/ontology/garrison
p447
aVhttp://dbpedia.org/property/placeOfDeath
p448
aVhttp://dbpedia.org/ontology/locatedInArea
p449
aVhttp://dbpedia.org/property/caption
p450
aVhttp://dbpedia.org/property/footnoteB
p451
aVhttp://dbpedia.org/property/site
p452
aVhttp://dbpedia.org/property/dateFormat
p453
aVhttp://dbpedia.org/ontology/country
p454
aVhttp://dbpedia.org/property/region
p455
aVhttp://www.w3.org/1999/02/22-rdf-syntax-ns#type
p456
aVhttp://dbpedia.org/ontology/nearestCity
p457
aVhttp://dbpedia.org/property/hasPhotoCollection
p458
aVhttp://dbpedia.org/property/locationCountry
p459
aVhttp://dbpedia.org/property/madein
p460
aVhttp://dbpedia.org/property/image
p461
aVhttp://dbpedia.org/ontology/nationality
p462
aVhttp://dbpedia.org/property/birthPlace
p463
aVhttp://dbpedia.org/property/headquarters
p464
aVhttp://dbpedia.org/ontology/place
p465
aVhttp://dbpedia.org/property/placeOfBirth
p466
aVhttp://dbpedia.org/ontology/residence
p467
aVhttp://dbpedia.org/property/country
p468
aVhttp://dbpedia.org/ontology/regionServed
p469
aVhttp://dbpedia.org/property/nearestCity
p470
aVhttp://dbpedia.org/ontology/sales
p471
aVhttp://dbpedia.org/property/areaServed
p472
aVhttp://dbpedia.org/ontology/wikiPageExternalLink
p473
aVhttp://purl.org/dc/terms/subject
p474
aVhttp://dbpedia.org/ontology/populationPlace
p475
aVhttp://dbpedia.org/property/nationality
p476
aVhttp://dbpedia.org/ontology/abstract
p477
aVhttp://dbpedia.org/ontology/spokenIn
p478
aVhttp://dbpedia.org/property/deathPlace
p479
aVhttp://dbpedia.org/property/location
p480
aVhttp://dbpedia.org/property/cityServed
p481
aVhttp://dbpedia.org/ontology/locationCountry
p482
aVhttp://dbpedia.org/ontology/deathPlace
p483
aVhttp://dbpedia.org/property/garrison
p484
aVhttp://dbpedia.org/ontology/city
p485
aVhttp://dbpedia.org/property/usedBy
p486
aVhttp://dbpedia.org/property/subdivisionName
p487
aVhttp://dbpedia.org/property/nationalOrigin
p488
aVhttp://dbpedia.org/ontology/broadcastArea
p489
aVhttp://dbpedia.org/property/states
p490
aVhttp://dbpedia.org/property/foundation
p491
aVhttp://dbpedia.org/property/imageMap
p492
aVhttp://dbpedia.org/ontology/location
p493
aVhttp://www.w3.org/2000/01/rdf-schema#comment
p494
aVhttp://dbpedia.org/property/nationalMotto
p495
aVhttp://dbpedia.org/ontology/birthPlace
p496
aVhttp://dbpedia.org/ontology/motto
p497
aVhttp://dbpedia.org/property/shipCountry
p498
aVhttp://dbpedia.org/ontology/wikiPageRedirects
p499
aVhttp://dbpedia.org/ontology/hometown
p500
aVhttp://dbpedia.org/property/destination
p501
aVhttp://dbpedia.org/property/shipHomeport
p502
aVhttp://dbpedia.org/property/regionServed
p503
aVhttp://dbpedia.org/property/jurisdiction
p504
aVhttp://dbpedia.org/ontology/headquarter
p505
aVhttp://dbpedia.org/property/areas
p506
aVhttp://dbpedia.org/property/base
p507
aVhttp://www.w3.org/2002/07/owl#sameAs
p508
aVhttp://dbpedia.org/property/shortDescription
p509
assI1
(dp510
I0
g437
sI1
(lp511
sI2
(lp512
ssI2
(dp513
I0
g438
sI1
g512
sI2
(lp514
ssa(dp515
I0
(dp516
I0
(lp517
sI1
(lp518
sI2
(lp519
ssI1
(dp520
I0
g518
sI1
(lp521
sI2
(lp522
ssI2
(dp523
I0
g519
sI1
g522
sI2
(lp524
ssa(dp525
I0
(dp526
I0
(lp527
sI1
(lp528
sI2
(lp529
ssI1
(dp530
I0
g528
sI1
(lp531
sI2
(lp532
ssI2
(dp533
I0
g529
sI1
g532
sI2
(lp534
ssa(dp535
I0
(dp536
I0
(lp537
sI1
(lp538
sI2
(lp539
ssI1
(dp540
I0
g538
sI1
(lp541
sI2
(lp542
ssI2
(dp543
I0
g539
sI1
g542
sI2
(lp544
ssa.