(lp1
(lp2
(lp3
a(lp4
a(lp5
((lVhttp://dbpedia.org/resource/Stack_(abstract_data_type)
tp6
aaa(lp7
(lp8
a(lp9
a(lp10
aa(lp11
(lp12
a(lp13
a(lp14
((lVhttp://dbpedia.org/resource/Stack_(abstract_data_type)
tp15
aaa(lp16
(lp17
a(lp18
a(lp19
((lVhttp://dbpedia.org/resource/Stack_(abstract_data_type)
tp20
aaa(lp21
(lp22
a(lp23
((lp24
Vhttp://www.w3.org/2002/07/owl#Thing
p25
aVhttp://xmlns.com/foaf/0.1/Person
p26
aVhttp://dbpedia.org/ontology/Person
p27
aVhttp://www.ontologydesignpatterns.org/ont/dul/DUL.owl#Agent
p28
aVhttp://www.ontologydesignpatterns.org/ont/dul/DUL.owl#NaturalPerson
p29
aVhttp://www.wikidata.org/entity/Q215627
p30
aVhttp://www.wikidata.org/entity/Q483501
p31
aVhttp://www.wikidata.org/entity/Q5
p32
aVhttp://dbpedia.org/ontology/Agent
p33
aVhttp://dbpedia.org/ontology/Artist
p34
aVhttp://dbpedia.org/ontology/MusicalArtist
p35
aVhttp://schema.org/MusicGroup
p36
aVhttp://schema.org/Person
p37
aVhttp://umbel.org/umbel/rc/MusicalPerformer
p38
aVhttp://dbpedia.org/class/yago/AfricanAmericanMusicians
p39
aVhttp://dbpedia.org/class/yago/AmericanMaleSingers
p40
aVhttp://dbpedia.org/class/yago/Artist109812338
p41
aVhttp://dbpedia.org/class/yago/CausalAgent100007347
p42
aVhttp://dbpedia.org/class/yago/Creator109614315
p43
aVhttp://dbpedia.org/class/yago/Entertainer109616922
p44
aVhttp://dbpedia.org/class/yago/LivingThing100004258
p45
aVhttp://dbpedia.org/class/yago/Musician110339966
p46
aVhttp://dbpedia.org/class/yago/Musician110340312
p47
aVhttp://dbpedia.org/class/yago/Object100002684
p48
aVhttp://dbpedia.org/class/yago/Organism100004475
p49
aVhttp://dbpedia.org/class/yago/Performer110415638
p50
aVhttp://dbpedia.org/class/yago/Person100007846
p51
aVhttp://dbpedia.org/class/yago/Sailor110546633
p52
aVhttp://dbpedia.org/class/yago/Singer110599806
p53
aVhttp://dbpedia.org/class/yago/SkilledWorker110605985
p54
aVhttp://dbpedia.org/class/yago/Whole100003553
p55
aVhttp://dbpedia.org/class/yago/Worker109632518
p56
aVhttp://dbpedia.org/class/yago/YagoLegalActorGeo
p57
aVhttp://dbpedia.org/class/yago/ColumbiaRecordsArtists
p58
aVhttp://dbpedia.org/class/yago/PhysicalEntity100001930
p59
aVhttp://dbpedia.org/class/yago/LivingPeople
p60
aVhttp://dbpedia.org/class/yago/MusiciansFromWestVirginia
p61
aVhttp://dbpedia.org/class/yago/PeopleFromRaleighCounty,WestVirginia
p62
aVhttp://dbpedia.org/class/yago/YagoLegalActor
p63
aVhttp://dbpedia.org/class/yago/UnitedStatesNavySailors
p64
aVhttp://dbpedia.org/resource/Bill_Withers
tp65
aa(lp66
aa(lp67
(lp68
a(lp69
a(lp70
aa(lp71
(lp72
a(lp73
a(lp74
aa(lp75
(lp76
a(lp77
a(lp78
aa(lp79
(lp80
a(lp81
a(lp82
((lVhttp://dbpedia.org/resource/Stack_(abstract_data_type)
tp83
aaa(lp84
(lp85
a(lp86
a(lp87
aa(lp88
(lp89
a(lp90
a(lp91
aa(lp92
(lp93
((lVhttp://dbpedia.org/resource/American_Pie
tp94
aa(lp95
a(lp96
((lp97
Vhttp://www.w3.org/2002/07/owl#Thing
p98
aVhttp://dbpedia.org/class/yago/Abstraction100002137
p99
aVhttp://dbpedia.org/class/yago/Communication100033020
p100
aVhttp://dbpedia.org/class/yago/Format106636806
p101
aVhttp://dbpedia.org/class/yago/Information106634376
p102
aVhttp://dbpedia.org/class/yago/Message106598915
p103
aVhttp://dbpedia.org/class/yago/RadioFormats
p104
aVhttp://dbpedia.org/class/yago/RockRadioFormats
p105
aVhttp://dbpedia.org/resource/Classic_rock
tp106
aaa(lp107
(lp108
a(lp109
a(lp110
aa(lp111
(lp112
a(lp113
a(lp114
aa(lp115
(lp116
((lp117
Vhttp://www.w3.org/2002/07/owl#Thing
p118
aVhttp://www.ontologydesignpatterns.org/ont/dul/DUL.owl#Agent
p119
aVhttp://www.ontologydesignpatterns.org/ont/dul/DUL.owl#SocialPerson
p120
aVhttp://www.wikidata.org/entity/Q215380
p121
aVhttp://www.wikidata.org/entity/Q43229
p122
aVhttp://dbpedia.org/ontology/Agent
p123
aVhttp://dbpedia.org/ontology/Band
p124
aVhttp://dbpedia.org/ontology/Group
p125
aVhttp://dbpedia.org/ontology/Organisation
p126
aVhttp://schema.org/MusicGroup
p127
aVhttp://schema.org/Organization
p128
aVhttp://umbel.org/umbel/rc/Band_MusicGroup
p129
aVhttp://dbpedia.org/class/yago/Abstraction100002137
p130
aVhttp://dbpedia.org/class/yago/Group100031264
p131
aVhttp://dbpedia.org/class/yago/MusicalOrganization108246613
p132
aVhttp://dbpedia.org/class/yago/Organization108008335
p133
aVhttp://dbpedia.org/class/yago/SocialGroup107950920
p134
aVhttp://dbpedia.org/class/yago/YagoLegalActorGeo
p135
aVhttp://dbpedia.org/class/yago/EnglishHardRockMusicalGroups
p136
aVhttp://dbpedia.org/class/yago/YagoPermanentlyLocatedEntity
p137
aVhttp://dbpedia.org/class/yago/MusicalGroupsEstablishedIn1973
p138
aVhttp://dbpedia.org/class/yago/MusicalGroupsReestablishedIn2009
p139
aVhttp://dbpedia.org/class/yago/YagoLegalActor
p140
aVhttp://dbpedia.org/resource/Bad_Company
tp141
aa(lp142
a(lp143
aa(lp144
(lp145
a(lp146
a(lp147
aa(lp148
(lp149
a(lp150
a(lp151
((lp152
Vhttp://www.w3.org/2002/07/owl#Thing
p153
aVhttp://dbpedia.org/class/yago/Abstraction100002137
p154
aVhttp://dbpedia.org/class/yago/Communication100033020
p155
aVhttp://dbpedia.org/class/yago/Format106636806
p156
aVhttp://dbpedia.org/class/yago/Information106634376
p157
aVhttp://dbpedia.org/class/yago/Message106598915
p158
aVhttp://dbpedia.org/class/yago/RadioFormats
p159
aVhttp://dbpedia.org/class/yago/RockRadioFormats
p160
aVhttp://dbpedia.org/resource/Classic_rock
tp161
aaa(lp162
(lp163
a(lp164
a(lp165
aa(lp166
(lp167
a(lp168
a(lp169
((lVhttp://dbpedia.org/resource/Stack_(abstract_data_type)
tp170
aaa(lp171
(lp172
a(lp173
a(lp174
((lVhttp://dbpedia.org/resource/Stack_(abstract_data_type)
p175
tp176
aaa.