(lp1
(lp2
(dp3
Vstart
p4
I0
sVdisambiguatedURL
p5
NsVnamedEntity
p6
Vgreat northern diver
p7
sVoffset
p8
I20
saa(lp9
(dp10
Vstart
p11
I0
sVdisambiguatedURL
p12
NsVnamedEntity
p13
Vpacific diver
p14
sVoffset
p15
I13
saa(lp16
(dp17
Vstart
p18
I0
sVdisambiguatedURL
p19
NsVnamedEntity
p20
Vred-throated diver
p21
sVoffset
p22
I18
saa(lp23
(dp24
Vstart
p25
I0
sVdisambiguatedURL
p26
NsVnamedEntity
p27
Vhorned grebe
p28
sVoffset
p29
I12
saa(lp30
(dp31
Vstart
p32
I0
sVdisambiguatedURL
p33
NsVnamedEntity
p34
Vpied-billed grebe
p35
sVoffset
p36
I17
saa(lp37
(dp38
Vstart
p39
I0
sVdisambiguatedURL
p40
NsVnamedEntity
p41
Vred-necked grebe
p42
sVoffset
p43
I16
saa(lp44
(dp45
Vstart
p46
I0
sVdisambiguatedURL
p47
NsVnamedEntity
p48
Vdouble-crested cormorant
p49
sVoffset
p50
I24
saa(lp51
(dp52
Vstart
p53
I0
sVdisambiguatedURL
p54
NsVnamedEntity
p55
Vgreat blue heron
p56
sVoffset
p57
I16
saa(lp58
(dp59
Vstart
p60
I0
sVdisambiguatedURL
p61
NsVnamedEntity
p62
Vgreat white egret
p63
sVoffset
p64
I17
saa(lp65
(dp66
Vstart
p67
I0
sVdisambiguatedURL
p68
NsVnamedEntity
p69
Vgreen heron
p70
sVoffset
p71
I11
saa(lp72
(dp73
Vstart
p74
I0
sVdisambiguatedURL
p75
NsVnamedEntity
p76
Vblack-crowned night-heron
p77
sVoffset
p78
I25
saa(lp79
(dp80
Vstart
p81
I0
sVdisambiguatedURL
p82
NsVnamedEntity
p83
Vleast bittern
p84
sVoffset
p85
I13
saa(lp86
(dp87
Vstart
p88
I0
sVdisambiguatedURL
p89
NsVnamedEntity
p90
Vamerican bittern
p91
sVoffset
p92
I16
saa(lp93
(dp94
Vstart
p95
I0
sVdisambiguatedURL
p96
NsVnamedEntity
p97
Vtrumpeter swan
p98
sVoffset
p99
I14
saa(lp100
(dp101
Vstart
p102
I0
sVdisambiguatedURL
p103
NsVnamedEntity
p104
Vmute swan
p105
sVoffset
p106
I9
saa(lp107
(dp108
Vstart
p109
I0
sVdisambiguatedURL
p110
NsVnamedEntity
p111
Vcanada goose
p112
sVoffset
p113
I12
saa(lp114
(dp115
Vstart
p116
I0
sVdisambiguatedURL
p117
NsVnamedEntity
p118
Vwood duck
p119
sVoffset
p120
I9
saa(lp121
(dp122
Vstart
p123
I0
sVdisambiguatedURL
p124
NsVnamedEntity
p125
Vamerican wigeon
p126
sVoffset
p127
I15
saa(lp128
(dp129
Vstart
p130
I0
sVdisambiguatedURL
p131
NsVnamedEntity
p132
Vgadwall
p133
sVoffset
p134
I7
saa(lp135
(dp136
Vstart
p137
I0
sVdisambiguatedURL
p138
NsVnamedEntity
p139
Vgreen-winged teal
p140
sVoffset
p141
I17
saa.