(lp1
(lp2
(lp3
Vhttp://dbpedia.org/resource/Social_Democratic_Party
p4
aa(lp5
a(lp6
a(lp7
aa(lp8
(lp9
a(lp10
a(lp11
a(lp12
aa(lp13
(lp14
Vhttp://dbpedia.org/resource/Green_party
p15
aa(lp16
a(lp17
a(lp18
aa(lp19
(lp20
a(lp21
a(lp22
a(lp23
aa(lp24
(lp25
Vhttp://dbpedia.org/resource/Liberal_People's_Party_(Sweden)
p26
aa(lp27
a(lp28
a(lp29
aa(lp30
(lp31
Vhttp://dbpedia.org/resource/Sweden_Democrats
p32
aa(lp33
a(lp34
a(lp35
aa(lp36
(lp37
Vhttp://dbpedia.org/resource/List_of_Christian_democratic_parties
p38
aa(lp39
a(lp40
a(lp41
aa(lp42
(lp43
Vhttp://dbpedia.org/resource/Pirate_Party
p44
aa(lp45
a(lp46
a(lp47
aa(lp48
(lp49
Vhttp://dbpedia.org/resource/Centre_Party
p50
aa(lp51
a(lp52
a(lp53
aa(lp54
(lp55
a(lp56
a(lp57
a(lp58
aa(lp59
(lp60
Vhttp://dbpedia.org/resource/Feminist_Initiative
p61
aa(lp62
a(lp63
a(lp64
aa.