(lp1
(lp2
(dp3
Vstart
p4
I0
sVdisambiguatedURL
p5
Vhttp://dbpedia.org/resource/Social_Democratic_Party
p6
sVnamedEntity
p7
Vsocial democratic party
p8
sVoffset
p9
I23
saa(lp10
(dp11
Vstart
p12
I0
sVdisambiguatedURL
p13
NsVnamedEntity
p14
Vmoderate party
p15
sVoffset
p16
I14
saa(lp17
(dp18
Vstart
p19
I0
sVdisambiguatedURL
p20
Vhttp://dbpedia.org/resource/Green_party
p21
sVnamedEntity
p22
Vgreen party
p23
sVoffset
p24
I11
saa(lp25
(dp26
Vstart
p27
I0
sVdisambiguatedURL
p28
NsVnamedEntity
p29
Vleft party
p30
sVoffset
p31
I10
saa(lp32
(dp33
Vstart
p34
I0
sVdisambiguatedURL
p35
Vhttp://dbpedia.org/resource/Liberal_People's_Party_(Sweden)
p36
sVnamedEntity
p37
Vliberal people's party
p38
sVoffset
p39
I22
saa(lp40
(dp41
Vstart
p42
I0
sVdisambiguatedURL
p43
Vhttp://dbpedia.org/resource/Sweden_Democrats
p44
sVnamedEntity
p45
Vsweden democrats
p46
sVoffset
p47
I16
saa(lp48
(dp49
Vstart
p50
I0
sVdisambiguatedURL
p51
Vhttp://dbpedia.org/resource/List_of_Christian_democratic_parties
p52
sVnamedEntity
p53
Vchristian democrats
p54
sVoffset
p55
I19
saa(lp56
(dp57
Vstart
p58
I0
sVdisambiguatedURL
p59
Vhttp://dbpedia.org/resource/Pirate_Party
p60
sVnamedEntity
p61
Vpirate party
p62
sVoffset
p63
I12
saa(lp64
(dp65
Vstart
p66
I0
sVdisambiguatedURL
p67
Vhttp://dbpedia.org/resource/Centre_Party
p68
sVnamedEntity
p69
Vcentre party
p70
sVoffset
p71
I12
saa(lp72
(dp73
Vstart
p74
I0
sVdisambiguatedURL
p75
NsVnamedEntity
p76
Vjune list
p77
sVoffset
p78
I9
saa(lp79
(dp80
Vstart
p81
I0
sVdisambiguatedURL
p82
Vhttp://dbpedia.org/resource/Feminist_Initiative
p83
sVnamedEntity
p84
Vfeminist initiativ
p85
sVoffset
p86
I18
saa.