(lp1
(lp2
a(lp3
a(lp4
a(lp5
a(lp6
a(lp7
a(lp8
a(lp9
a(lp10
a(lp11
a(lp12
a(lp13
a(lp14
a(lp15
a(lp16
a(lp17
a(lp18
a(lp19
(dp20
Vstart
p21
I0
sS'classes'
p22
(lp23
Vhttp://dbpedia.org/class/yago/Abstraction100002137
p24
aVhttp://dbpedia.org/class/yago/Attribute100024264
p25
aVhttp://dbpedia.org/class/yago/Condition113920835
p26
aVhttp://dbpedia.org/class/yago/Safety114538472
p27
aVhttp://dbpedia.org/class/yago/State100024720
p28
aVhttp://dbpedia.org/class/yago/Security114539268
p29
aVhttp://dbpedia.org/class/yago/Securities
p30
asVdisambiguatedURL
p31
Vhttp://dbpedia.org/resource/Financial_innovation
p32
sVnamedEntity
p33
VFinancial information
p34
sVoffset
p35
I21
saa(lp36
a(lp37
a.