(lp1
(lp2
(lp3
Vhttp://dbpedia.org/resource/Abilene_Christian_University
p4
aa(lp5
a(lp6
aa(lp7
(lp8
Vhttp://dbpedia.org/resource/Adelphi_University
p9
aa(lp10
a(lp11
aa(lp12
(lp13
Vhttp://dbpedia.org/resource/Albany_State_University
p14
aa(lp15
a(lp16
aa(lp17
(lp18
Vhttp://dbpedia.org/resource/Alcorn_State_University
p19
aa(lp20
a(lp21
aa(lp22
(lp23
Vhttp://dbpedia.org/resource/American_International_College
p24
aa(lp25
a(lp26
aa(lp27
(lp28
Vhttp://dbpedia.org/resource/Anderson_University_(South_Carolina)
p29
aa(lp30
a(lp31
aa(lp32
(lp33
Vhttp://dbpedia.org/resource/Andrews_University
p34
aa(lp35
a(lp36
aa(lp37
(lp38
Vhttp://dbpedia.org/resource/Angelo_State_University
p39
aa(lp40
a(lp41
aa(lp42
(lp43
Vhttp://dbpedia.org/resource/Arizona_State_University
p44
aa(lp45
a(lp46
aa(lp47
(lp48
Vhttp://dbpedia.org/resource/Arkansas_State_University
p49
aa(lp50
a(lp51
aa(lp52
(lp53
Vhttp://dbpedia.org/resource/Armstrong_Atlantic_State_University
p54
aa(lp55
a(lp56
aa(lp57
(lp58
Vhttp://dbpedia.org/resource/Ashland_University
p59
aa(lp60
a(lp61
aa(lp62
(lp63
Vhttp://dbpedia.org/resource/Auburn_University
p64
aa(lp65
a(lp66
aa(lp67
(lp68
a(lp69
a(lp70
aa(lp71
(lp72
Vhttp://dbpedia.org/resource/Augusta_State_University
p73
aa(lp74
a(lp75
aa(lp76
(lp77
Vhttp://dbpedia.org/resource/Augustana_College_(Illinois)
p78
aa(lp79
a(lp80
aa(lp81
(lp82
Vhttp://dbpedia.org/resource/Aurora_University
p83
aa(lp84
a(lp85
aa(lp86
(lp87
Vhttp://dbpedia.org/resource/Austin_Peay_State_University
p88
aa(lp89
a(lp90
aa(lp91
(lp92
Vhttp://dbpedia.org/resource/Azusa_Pacific_University
p93
aa(lp94
a(lp95
aa(lp96
(lp97
Vhttp://dbpedia.org/resource/Baker_University
p98
aa(lp99
a(lp100
aa.