(lp1
(lp2
(lp3
Vhttp://dbpedia.org/resource/Belgium
p4
aa(lp5
a(lp6
a(lp7
Vhttp://dbpedia.org/resource/Haplogroup_F-M89
p8
aaa(lp9
(lp10
Vhttp://dbpedia.org/resource/Cyprus
p11
aa(lp12
a(lp13
a(lp14
Vhttp://dbpedia.org/resource/Electric_field
p15
aaa(lp16
(lp17
Vhttp://dbpedia.org/resource/Czech_Republic
p18
aa(lp19
a(lp20
a(lp21
Vhttp://dbpedia.org/resource/Electric_field
p22
aaa(lp23
(lp24
Vhttp://dbpedia.org/resource/Finland
p25
aa(lp26
Vhttp://dbpedia.org/resource/Finnish_Association_for_Nature_Conservation
p27
aa(lp28
a(lp29
Vhttp://dbpedia.org/resource/Electric_field
p30
aaa(lp31
(lp32
Vhttp://dbpedia.org/resource/France_2
p33
aa(lp34
a(lp35
a(lp36
aa(lp37
(lp38
Vhttp://dbpedia.org/resource/Hungary
p39
aa(lp40
a(lp41
a(lp42
Vhttp://dbpedia.org/resource/Electric_field
p43
aaa(lp44
(lp45
Vhttp://dbpedia.org/resource/Italy
p46
aa(lp47
a(lp48
a(lp49
Vhttp://dbpedia.org/resource/Electric_field
p50
aaa(lp51
(lp52
Vhttp://dbpedia.org/resource/Netherlands
p53
aa(lp54
a(lp55
a(lp56
Vhttp://dbpedia.org/resource/Electric_field
p57
aaa(lp58
(lp59
Vhttp://dbpedia.org/resource/Norway
p60
aa(lp61
a(lp62
a(lp63
Vhttp://dbpedia.org/resource/Electric_field
p64
aaa(lp65
(lp66
a(lp67
a(lp68
a(lp69
Vhttp://dbpedia.org/resource/Electric_field
p70
aaa(lp71
(lp72
Vhttp://dbpedia.org/resource/Slovakia
p73
aa(lp74
a(lp75
a(lp76
Vhttp://dbpedia.org/resource/Electric_field
p77
aaa(lp78
(lp79
Vhttp://dbpedia.org/resource/Slovenia
p80
aa(lp81
a(lp82
a(lp83
Vhttp://dbpedia.org/resource/Electric_field
p84
aaa(lp85
(lp86
Vhttp://dbpedia.org/resource/Spain
p87
aa(lp88
a(lp89
a(lp90
Vhttp://dbpedia.org/resource/Electric_field
p91
aaa(lp92
(lp93
Vhttp://dbpedia.org/resource/United_Kingdom
p94
aa(lp95
a(lp96
a(lp97
Vhttp://dbpedia.org/resource/Electric_field
p98
aaa.