(lp1
(lp2
(lp3
a(lp4
a(lp5
Vhttp://dbpedia.org/resource/Committee_on_Alleged_German_Outrages
p6
aaa(lp7
(lp8
a(lp9
a(lp10
aa(lp11
(lp12
a(lp13
a(lp14
Vhttp://dbpedia.org/resource/Chimgan
p15
aaa(lp16
(lp17
a(lp18
a(lp19
Vhttp://dbpedia.org/resource/Bald_Mountain_(Idaho)
p20
aaa(lp21
(lp22
a(lp23
a(lp24
Vhttp://dbpedia.org/resource/Bear_Paw_Ski_Bowl
p25
aaa(lp26
(lp27
a(lp28
a(lp29
Vhttp://dbpedia.org/resource/Beaver_Mountain
p30
aaa(lp31
(lp32
a(lp33
a(lp34
Vhttp://dbpedia.org/resource/Blizzard_Mountain_Ski_Area
p35
aaa(lp36
(lp37
a(lp38
a(lp39
Vhttp://dbpedia.org/resource/Brundage_Mountain
p40
aaa(lp41
(lp42
a(lp43
a(lp44
Vhttp://dbpedia.org/resource/Apex_Mountain_Resort
p45
aaa(lp46
(lp47
a(lp48
a(lp49
Vhttp://dbpedia.org/resource/Buck_Hill
p50
aaa(lp51
(lp52
a(lp53
a(lp54
Vhttp://dbpedia.org/resource/Camp_Fortune
p55
aaa(lp56
(lp57
a(lp58
a(lp59
Vhttp://dbpedia.org/resource/Canaan_Valley_Resort_State_Park
p60
aaa(lp61
(lp62
a(lp63
a(lp64
Vhttp://dbpedia.org/resource/Cascade_Mountain_(ski_area)
p65
aaa(lp66
(lp67
a(lp68
a(lp69
Vhttp://dbpedia.org/resource/Bear_Valley_(resort)
p70
aaa(lp71
(lp72
a(lp73
a(lp74
Vhttp://dbpedia.org/resource/Beaver_Creek_Resort
p75
aaa(lp76
(lp77
a(lp78
a(lp79
Vhttp://dbpedia.org/resource/Black_Mountain_Ski_Area_(New_Hampshire)
p80
aaa(lp81
(lp82
a(lp83
a(lp84
Vhttp://dbpedia.org/resource/Torghar_District
p85
aaa(lp86
(lp87
a(lp88
a(lp89
Vhttp://dbpedia.org/resource/Blue_Mountain_Ski_Area
p90
aaa(lp91
(lp92
a(lp93
a(lp94
Vhttp://dbpedia.org/resource/Bald_Mountain_Ski_Area
p95
aaa.