(lp1
(lp2
(lp3
a(lp4
a(lp5
a(lp6
a(lp7
a(lp8
aa(lp9
(lp10
a(lp11
a(lp12
a(lp13
a(lp14
a(lp15
aa(lp16
(lp17
a(lp18
a(lp19
a(lp20
a(lp21
a(lp22
aa(lp23
(lp24
a(lp25
a(lp26
a(lp27
a(lp28
a(lp29
aa(lp30
(lp31
a(lp32
a(lp33
a(lp34
a(lp35
a(lp36
((lVhttp://dbpedia.org/resource/Brodmann_area_49
tp37
aaa(lp38
(lp39
a(lp40
a(lp41
a(lp42
a(lp43
a(lp44
aa(lp45
(lp46
a(lp47
a(lp48
a(lp49
a(lp50
a(lp51
aa(lp52
(lp53
a(lp54
a(lp55
a(lp56
a(lp57
a(lp58
aa(lp59
(lp60
a(lp61
a(lp62
a(lp63
a(lp64
a(lp65
aa(lp66
(lp67
a(lp68
a(lp69
a(lp70
a(lp71
a(lp72
((lVhttp://dbpedia.org/resource/Brodmann_area_49
tp73
aaa(lp74
(lp75
a(lp76
a(lp77
a(lp78
a(lp79
a(lp80
aa(lp81
(lp82
a(lp83
a(lp84
a(lp85
a(lp86
a(lp87
aa(lp88
(lp89
a(lp90
a(lp91
a(lp92
a(lp93
a(lp94
aa(lp95
(lp96
a(lp97
a(lp98
a(lp99
a(lp100
a(lp101
aa(lp102
(lp103
a(lp104
a(lp105
a(lp106
((lp107
Vhttp://dbpedia.org/class/yago/Cell100006484
p108
aVhttp://dbpedia.org/class/yago/LivingThing100004258
p109
aVhttp://dbpedia.org/class/yago/NerveCell105465567
p110
aVhttp://dbpedia.org/class/yago/Object100002684
p111
aVhttp://dbpedia.org/class/yago/SomaticCell105430628
p112
aVhttp://dbpedia.org/class/yago/Whole100003553
p113
aVhttp://dbpedia.org/class/yago/Neurons
p114
aVhttp://dbpedia.org/class/yago/PhysicalEntity100001930
p115
aVhttp://dbpedia.org/resource/Olfactory_bulb_mitral_cell
tp116
aa(lp117
a(lp118
((lp119
Vhttp://www.w3.org/2002/07/owl#Thing
p120
aVhttp://www.wikidata.org/entity/Q4936952
p121
aVhttp://dbpedia.org/ontology/AnatomicalStructure
p122
aVhttp://dbpedia.org/ontology/Brain
p123
aVhttp://dbpedia.org/resource/Parvocellular_red_nucleus
p124
tp125
aaa(lp126
(lp127
a(lp128
a(lp129
a(lp130
a(lp131
a(lp132
aa(lp133
(lp134
a(lp135
a(lp136
a(lp137
a(lp138
a(lp139
aa(lp140
(lp141
a(lp142
a(lp143
a(lp144
a(lp145
a(lp146
aa(lp147
(lp148
a(lp149
a(lp150
a(lp151
a(lp152
a(lp153
aa.