(lp1
(dp2
I0
(dp3
I0
(lp4
sI1
(lp5
ssI1
(dp6
I0
g5
sI1
(lp7
ssa(dp8
I0
(dp9
I0
(lp10
sI1
(lp11
ssI1
(dp12
I0
g11
sI1
(lp13
ssa(dp14
I0
(dp15
I0
(lp16
sI1
(lp17
ssI1
(dp18
I0
g17
sI1
(lp19
ssa(dp20
I0
(dp21
I0
(lp22
sI1
(lp23
ssI1
(dp24
I0
g23
sI1
(lp25
ssa(dp26
I0
(dp27
I0
(lp28
sI1
(lp29
ssI1
(dp30
I0
g29
sI1
(lp31
ssa(dp32
I0
(dp33
I0
(lp34
sI1
(lp35
Vhttp://dbpedia.org/ontology/residence
p36
aVhttp://dbpedia.org/ontology/birthPlace
p37
assI1
(dp38
I0
g35
sI1
(lp39
ssa(dp40
I0
(dp41
I0
(lp42
sI1
(lp43
Vhttp://dbpedia.org/ontology/birthPlace
p44
assI1
(dp45
I0
g43
sI1
(lp46
ssa(dp47
I0
(dp48
I0
(lp49
sI1
(lp50
ssI1
(dp51
I0
g50
sI1
(lp52
ssa(dp53
I0
(dp54
I0
(lp55
sI1
(lp56
Vhttp://dbpedia.org/ontology/birthPlace
p57
aVhttp://dbpedia.org/property/birthPlace
p58
aVhttp://dbpedia.org/property/placeOfBirth
p59
assI1
(dp60
I0
g56
sI1
(lp61
ssa(dp62
I0
(dp63
I0
(lp64
sI1
(lp65
Vhttp://dbpedia.org/ontology/birthPlace
p66
aVhttp://dbpedia.org/property/birthPlace
p67
aVhttp://dbpedia.org/property/placeOfBirth
p68
assI1
(dp69
I0
g65
sI1
(lp70
ssa(dp71
I0
(dp72
I0
(lp73
sI1
(lp74
ssI1
(dp75
I0
g74
sI1
(lp76
ssa(dp77
I0
(dp78
I0
(lp79
sI1
(lp80
ssI1
(dp81
I0
g80
sI1
(lp82
ssa(dp83
I0
(dp84
I0
(lp85
sI1
(lp86
ssI1
(dp87
I0
g86
sI1
(lp88
ssa(dp89
I0
(dp90
I0
(lp91
sI1
(lp92
ssI1
(dp93
I0
g92
sI1
(lp94
ssa(dp95
I0
(dp96
I0
(lp97
sI1
(lp98
ssI1
(dp99
I0
g98
sI1
(lp100
ssa(dp101
I0
(dp102
I0
(lp103
sI1
(lp104
ssI1
(dp105
I0
g104
sI1
(lp106
ssa(dp107
I0
(dp108
I0
(lp109
sI1
(lp110
ssI1
(dp111
I0
g110
sI1
(lp112
ssa(dp113
I0
(dp114
I0
(lp115
sI1
(lp116
Vhttp://dbpedia.org/ontology/birthPlace
p117
aVhttp://dbpedia.org/property/birthPlace
p118
assI1
(dp119
I0
g116
sI1
(lp120
ssa(dp121
I0
(dp122
I0
(lp123
sI1
(lp124
Vhttp://dbpedia.org/ontology/birthPlace
p125
aVhttp://dbpedia.org/property/birthPlace
p126
aVhttp://dbpedia.org/property/placeOfBirth
p127
assI1
(dp128
I0
g124
sI1
(lp129
ssa.