ccollections
defaultdict
p1
(c__builtin__
dict
p2
tRp3
I1
(dp4
I1
(lp5
ssI3
(dp6
I1
(lp7
ssI4
(dp8
I1
(lp9
ssI5
(dp10
I1
(lp11
Vhttp://dbpedia.org/ontology/residence
p12
aVhttp://dbpedia.org/ontology/birthPlace
p13
assI6
(dp14
I1
(lp15
Vhttp://dbpedia.org/ontology/birthPlace
p16
assI8
(dp17
I1
(lp18
Vhttp://dbpedia.org/ontology/birthPlace
p19
aVhttp://dbpedia.org/property/birthPlace
p20
aVhttp://dbpedia.org/property/placeOfBirth
p21
assI9
(dp22
I1
(lp23
Vhttp://dbpedia.org/ontology/birthPlace
p24
aVhttp://dbpedia.org/property/birthPlace
p25
aVhttp://dbpedia.org/property/placeOfBirth
p26
assI15
(dp27
I1
(lp28
ssI17
(dp29
I1
(lp30
Vhttp://dbpedia.org/ontology/birthPlace
p31
aVhttp://dbpedia.org/property/birthPlace
p32
assI18
(dp33
I1
(lp34
Vhttp://dbpedia.org/ontology/birthPlace
p35
aVhttp://dbpedia.org/property/birthPlace
p36
aVhttp://dbpedia.org/property/placeOfBirth
p37
ass.