(lp1
(lp2
(lp3
a(lp4
aa(lp5
(lp6
a(lp7
aa(lp8
(lp9
a(lp10
aa(lp11
(lp12
a(lp13
aa(lp14
(lp15
a(lp16
aa(lp17
(lp18
a(lp19
aa(lp20
(lp21
Vhttp://dbpedia.org/resource/Planned_Parenthood_v._Rounds
p22
aa(lp23
aa(lp24
(lp25
a(lp26
aa(lp27
(lp28
a(lp29
aa(lp30
(lp31
a(lp32
aa(lp33
(lp34
Vhttp://dbpedia.org/resource/Perry_Watkins
p35
aa(lp36
aa(lp37
(lp38
Vhttp://dbpedia.org/resource/Davis_v._United_States
p39
aa(lp40
aa(lp41
(lp42
a(lp43
aa(lp44
(lp45
a(lp46
aa(lp47
(lp48
a(lp49
aa(lp50
(lp51
a(lp52
aa(lp53
(lp54
a(lp55
aa.