(lp1
(dp2
I0
(dp3
I0
(lp4
sI1
(lp5
sI2
(lp6
sI3
(lp7
sI4
(lp8
ssI1
(dp9
I0
g5
sI1
(lp10
sI2
(lp11
Vhttp://dbpedia.org/ontology/abstract
p12
aVhttp://www.w3.org/2000/01/rdf-schema#comment
p13
asI3
(lp14
Vhttp://dbpedia.org/ontology/abstract
p15
aVhttp://www.w3.org/2000/01/rdf-schema#comment
p16
asI4
(lp17
Vhttp://dbpedia.org/ontology/abstract
p18
aVhttp://purl.org/dc/terms/subject
p19
aVhttp://www.w3.org/2000/01/rdf-schema#comment
p20
assI2
(dp21
I0
g6
sI1
g11
sI2
(lp22
sI3
(lp23
sI4
(lp24
ssI3
(dp25
I0
g7
sI1
g14
sI2
g23
sI3
(lp26
sI4
(lp27
ssI4
(dp28
I0
g8
sI1
g17
sI2
g24
sI3
g27
sI4
(lp29
ssa(dp30
I0
(dp31
I0
(lp32
sI1
(lp33
sI2
(lp34
sI3
(lp35
sI4
(lp36
ssI1
(dp37
I0
g33
sI1
(lp38
sI2
(lp39
sI3
(lp40
sI4
(lp41
ssI2
(dp42
I0
g34
sI1
g39
sI2
(lp43
sI3
(lp44
sI4
(lp45
ssI3
(dp46
I0
g35
sI1
g40
sI2
g44
sI3
(lp47
sI4
(lp48
ssI4
(dp49
I0
g36
sI1
g41
sI2
g45
sI3
g48
sI4
(lp50
ssa(dp51
I0
(dp52
I0
(lp53
sI1
(lp54
sI2
(lp55
sI3
(lp56
Vhttp://dbpedia.org/property/namedAfter
p57
asI4
(lp58
ssI1
(dp59
I0
g54
sI1
(lp60
sI2
(lp61
sI3
(lp62
Vhttp://dbpedia.org/ontology/abstract
p63
aVhttp://dbpedia.org/property/years
p64
asI4
(lp65
ssI2
(dp66
I0
g55
sI1
g61
sI2
(lp67
sI3
(lp68
Vhttp://dbpedia.org/ontology/abstract
p69
aVhttp://www.w3.org/2000/01/rdf-schema#comment
p70
asI4
(lp71
ssI3
(dp72
I0
g56
sI1
g62
sI2
g68
sI3
(lp73
sI4
(lp74
ssI4
(dp75
I0
g58
sI1
g65
sI2
g71
sI3
g74
sI4
(lp76
ssa(dp77
I0
(dp78
I0
(lp79
sI1
(lp80
sI2
(lp81
sI3
(lp82
Vhttp://www.w3.org/1999/02/22-rdf-syntax-ns#type
p83
asI4
(lp84
ssI1
(dp85
I0
g80
sI1
(lp86
sI2
(lp87
sI3
(lp88
sI4
(lp89
ssI2
(dp90
I0
g81
sI1
g87
sI2
(lp91
sI3
(lp92
Vhttp://dbpedia.org/ontology/director
p93
aVhttp://dbpedia.org/property/director
p94
aVhttp://dbpedia.org/ontology/abstract
p95
aVhttp://dbpedia.org/ontology/writer
p96
asI4
(lp97
ssI3
(dp98
I0
g82
sI1
g88
sI2
g92
sI3
(lp99
sI4
(lp100
Vhttp://www.w3.org/1999/02/22-rdf-syntax-ns#type
p101
assI4
(dp102
I0
g84
sI1
g89
sI2
g97
sI3
g100
sI4
(lp103
ssa(dp104
I0
(dp105
I0
(lp106
sI1
(lp107
sI2
(lp108
sI3
(lp109
sI4
(lp110
ssI1
(dp111
I0
g107
sI1
(lp112
sI2
(lp113
sI3
(lp114
sI4
(lp115
ssI2
(dp116
I0
g108
sI1
g113
sI2
(lp117
sI3
(lp118
sI4
(lp119
ssI3
(dp120
I0
g109
sI1
g114
sI2
g118
sI3
(lp121
sI4
(lp122
ssI4
(dp123
I0
g110
sI1
g115
sI2
g119
sI3
g122
sI4
(lp124
ssa(dp125
I0
(dp126
I0
(lp127
sI1
(lp128
sI2
(lp129
sI3
(lp130
sI4
(lp131
ssI1
(dp132
I0
g128
sI1
(lp133
sI2
(lp134
sI3
(lp135
sI4
(lp136
ssI2
(dp137
I0
g129
sI1
g134
sI2
(lp138
sI3
(lp139
sI4
(lp140
ssI3
(dp141
I0
g130
sI1
g135
sI2
g139
sI3
(lp142
sI4
(lp143
ssI4
(dp144
I0
g131
sI1
g136
sI2
g140
sI3
g143
sI4
(lp145
ssa(dp146
I0
(dp147
I0
(lp148
sI1
(lp149
sI2
(lp150
sI3
(lp151
sI4
(lp152
ssI1
(dp153
I0
g149
sI1
(lp154
sI2
(lp155
sI3
(lp156
sI4
(lp157
ssI2
(dp158
I0
g150
sI1
g155
sI2
(lp159
sI3
(lp160
sI4
(lp161
ssI3
(dp162
I0
g151
sI1
g156
sI2
g160
sI3
(lp163
sI4
(lp164
ssI4
(dp165
I0
g152
sI1
g157
sI2
g161
sI3
g164
sI4
(lp166
ssa(dp167
I0
(dp168
I0
(lp169
sI1
(lp170
sI2
(lp171
sI3
(lp172
sI4
(lp173
ssI1
(dp174
I0
g170
sI1
(lp175
sI2
(lp176
sI3
(lp177
sI4
(lp178
ssI2
(dp179
I0
g171
sI1
g176
sI2
(lp180
sI3
(lp181
sI4
(lp182
ssI3
(dp183
I0
g172
sI1
g177
sI2
g181
sI3
(lp184
sI4
(lp185
ssI4
(dp186
I0
g173
sI1
g178
sI2
g182
sI3
g185
sI4
(lp187
ssa(dp188
I0
(dp189
I0
(lp190
sI1
(lp191
sI2
(lp192
sI3
(lp193
Vhttp://www.w3.org/1999/02/22-rdf-syntax-ns#type
p194
asI4
(lp195
ssI1
(dp196
I0
g191
sI1
(lp197
sI2
(lp198
sI3
(lp199
Vhttp://dbpedia.org/ontology/director
p200
aVhttp://dbpedia.org/ontology/starring
p201
aVhttp://dbpedia.org/ontology/abstract
p202
aVhttp://dbpedia.org/ontology/writer
p203
aVhttp://dbpedia.org/property/director
p204
aVhttp://dbpedia.org/property/starring
p205
asI4
(lp206
ssI2
(dp207
I0
g192
sI1
g198
sI2
(lp208
sI3
(lp209
Vhttp://dbpedia.org/ontology/abstract
p210
aVhttp://www.w3.org/2000/01/rdf-schema#comment
p211
asI4
(lp212
ssI3
(dp213
I0
g193
sI1
g199
sI2
g209
sI3
(lp214
sI4
(lp215
ssI4
(dp216
I0
g195
sI1
g206
sI2
g212
sI3
g215
sI4
(lp217
ssa(dp218
I0
(dp219
I0
(lp220
sI1
(lp221
sI2
(lp222
sI3
(lp223
sI4
(lp224
ssI1
(dp225
I0
g221
sI1
(lp226
sI2
(lp227
sI3
(lp228
sI4
(lp229
ssI2
(dp230
I0
g222
sI1
g227
sI2
(lp231
sI3
(lp232
sI4
(lp233
ssI3
(dp234
I0
g223
sI1
g228
sI2
g232
sI3
(lp235
sI4
(lp236
ssI4
(dp237
I0
g224
sI1
g229
sI2
g233
sI3
g236
sI4
(lp238
ssa(dp239
I0
(dp240
I0
(lp241
sI1
(lp242
sI2
(lp243
sI3
(lp244
sI4
(lp245
ssI1
(dp246
I0
g242
sI1
(lp247
sI2
(lp248
sI3
(lp249
sI4
(lp250
ssI2
(dp251
I0
g243
sI1
g248
sI2
(lp252
sI3
(lp253
sI4
(lp254
ssI3
(dp255
I0
g244
sI1
g249
sI2
g253
sI3
(lp256
sI4
(lp257
ssI4
(dp258
I0
g245
sI1
g250
sI2
g254
sI3
g257
sI4
(lp259
ssa(dp260
I0
(dp261
I0
(lp262
sI1
(lp263
sI2
(lp264
sI3
(lp265
sI4
(lp266
ssI1
(dp267
I0
g263
sI1
(lp268
sI2
(lp269
sI3
(lp270
sI4
(lp271
ssI2
(dp272
I0
g264
sI1
g269
sI2
(lp273
sI3
(lp274
Vhttp://dbpedia.org/ontology/abstract
p275
aVhttp://www.w3.org/2000/01/rdf-schema#comment
p276
asI4
(lp277
ssI3
(dp278
I0
g265
sI1
g270
sI2
g274
sI3
(lp279
sI4
(lp280
ssI4
(dp281
I0
g266
sI1
g271
sI2
g277
sI3
g280
sI4
(lp282
ssa(dp283
I0
(dp284
I0
(lp285
sI1
(lp286
sI2
(lp287
sI3
(lp288
sI4
(lp289
ssI1
(dp290
I0
g286
sI1
(lp291
sI2
(lp292
Vhttp://dbpedia.org/ontology/abstract
p293
aVhttp://www.w3.org/2000/01/rdf-schema#comment
p294
asI3
(lp295
Vhttp://dbpedia.org/ontology/abstract
p296
aVhttp://www.w3.org/2000/01/rdf-schema#comment
p297
asI4
(lp298
ssI2
(dp299
I0
g287
sI1
g292
sI2
(lp300
sI3
(lp301
sI4
(lp302
ssI3
(dp303
I0
g288
sI1
g295
sI2
g301
sI3
(lp304
sI4
(lp305
ssI4
(dp306
I0
g289
sI1
g298
sI2
g302
sI3
g305
sI4
(lp307
ssa(dp308
I0
(dp309
I0
(lp310
sI1
(lp311
sI2
(lp312
sI3
(lp313
sI4
(lp314
ssI1
(dp315
I0
g311
sI1
(lp316
sI2
(lp317
sI3
(lp318
Vhttp://dbpedia.org/property/quote
p319
aVhttp://dbpedia.org/ontology/abstract
p320
asI4
(lp321
ssI2
(dp322
I0
g312
sI1
g317
sI2
(lp323
sI3
(lp324
Vhttp://dbpedia.org/ontology/abstract
p325
asI4
(lp326
ssI3
(dp327
I0
g313
sI1
g318
sI2
g324
sI3
(lp328
sI4
(lp329
ssI4
(dp330
I0
g314
sI1
g321
sI2
g326
sI3
g329
sI4
(lp331
ssa(dp332
I0
(dp333
I0
(lp334
sI1
(lp335
sI2
(lp336
sI3
(lp337
sI4
(lp338
ssI1
(dp339
I0
g335
sI1
(lp340
sI2
(lp341
Vhttp://dbpedia.org/ontology/abstract
p342
asI3
(lp343
Vhttp://dbpedia.org/ontology/abstract
p344
asI4
(lp345
ssI2
(dp346
I0
g336
sI1
g341
sI2
(lp347
sI3
(lp348
Vhttp://dbpedia.org/ontology/abstract
p349
aVhttp://www.w3.org/2000/01/rdf-schema#comment
p350
asI4
(lp351
ssI3
(dp352
I0
g337
sI1
g343
sI2
g348
sI3
(lp353
sI4
(lp354
ssI4
(dp355
I0
g338
sI1
g345
sI2
g351
sI3
g354
sI4
(lp356
ssa(dp357
I0
(dp358
I0
(lp359
sI1
(lp360
sI2
(lp361
sI3
(lp362
sI4
(lp363
ssI1
(dp364
I0
g360
sI1
(lp365
sI2
(lp366
sI3
(lp367
sI4
(lp368
ssI2
(dp369
I0
g361
sI1
g366
sI2
(lp370
sI3
(lp371
sI4
(lp372
ssI3
(dp373
I0
g362
sI1
g367
sI2
g371
sI3
(lp374
sI4
(lp375
ssI4
(dp376
I0
g363
sI1
g368
sI2
g372
sI3
g375
sI4
(lp377
ssa(dp378
I0
(dp379
I0
(lp380
sI1
(lp381
sI2
(lp382
sI3
(lp383
sI4
(lp384
ssI1
(dp385
I0
g381
sI1
(lp386
sI2
(lp387
sI3
(lp388
sI4
(lp389
ssI2
(dp390
I0
g382
sI1
g387
sI2
(lp391
sI3
(lp392
sI4
(lp393
ssI3
(dp394
I0
g383
sI1
g388
sI2
g392
sI3
(lp395
sI4
(lp396
ssI4
(dp397
I0
g384
sI1
g389
sI2
g393
sI3
g396
sI4
(lp398
ssa(dp399
I0
(dp400
I0
(lp401
sI1
(lp402
sI2
(lp403
sI3
(lp404
Vhttp://dbpedia.org/ontology/wikiPageExternalLink
p405
asI4
(lp406
ssI1
(dp407
I0
g402
sI1
(lp408
sI2
(lp409
sI3
(lp410
sI4
(lp411
ssI2
(dp412
I0
g403
sI1
g409
sI2
(lp413
sI3
(lp414
sI4
(lp415
ssI3
(dp416
I0
g404
sI1
g410
sI2
g414
sI3
(lp417
sI4
(lp418
ssI4
(dp419
I0
g406
sI1
g411
sI2
g415
sI3
g418
sI4
(lp420
ssa(dp421
I0
(dp422
I0
(lp423
sI1
(lp424
sI2
(lp425
sI3
(lp426
sI4
(lp427
ssI1
(dp428
I0
g424
sI1
(lp429
sI2
(lp430
sI3
(lp431
sI4
(lp432
ssI2
(dp433
I0
g425
sI1
g430
sI2
(lp434
sI3
(lp435
sI4
(lp436
ssI3
(dp437
I0
g426
sI1
g431
sI2
g435
sI3
(lp438
sI4
(lp439
ssI4
(dp440
I0
g427
sI1
g432
sI2
g436
sI3
g439
sI4
(lp441
ssa(dp442
I0
(dp443
I0
(lp444
sI1
(lp445
sI2
(lp446
sI3
(lp447
sI4
(lp448
ssI1
(dp449
I0
g445
sI1
(lp450
sI2
(lp451
sI3
(lp452
sI4
(lp453
ssI2
(dp454
I0
g446
sI1
g451
sI2
(lp455
sI3
(lp456
sI4
(lp457
ssI3
(dp458
I0
g447
sI1
g452
sI2
g456
sI3
(lp459
sI4
(lp460
ssI4
(dp461
I0
g448
sI1
g453
sI2
g457
sI3
g460
sI4
(lp462
ssa.