(lp1
(lp2
(lp3
((lVhttp://dbpedia.org/resource/Catalan
tp4
aa(lp5
((lp6
Vhttp://www.w3.org/2002/07/owl#Thing
p7
aVhttp://dbpedia.org/ontology/Place
p8
aVhttp://dbpedia.org/ontology/Location
p9
aVhttp://www.wikidata.org/entity/Q486972
p10
aVhttp://www.wikidata.org/entity/Q6256
p11
aVhttp://dbpedia.org/ontology/Country
p12
aVhttp://dbpedia.org/ontology/PopulatedPlace
p13
aVhttp://www.w3.org/2003/01/geo/wgs84_pos#SpatialThing
p14
aVhttp://schema.org/Country
p15
aVhttp://schema.org/Place
p16
aVhttp://umbel.org/umbel/rc/Country
p17
aVhttp://umbel.org/umbel/rc/Location_Underspecified
p18
aVhttp://umbel.org/umbel/rc/PopulatedPlace
p19
aVhttp://dbpedia.org/class/yago/Abstraction100002137
p20
aVhttp://dbpedia.org/class/yago/AdministrativeDistrict108491826
p21
aVhttp://dbpedia.org/class/yago/BicontinentalCountries
p22
aVhttp://dbpedia.org/class/yago/Country108544813
p23
aVhttp://dbpedia.org/class/yago/District108552138
p24
aVhttp://dbpedia.org/class/yago/Economy108366753
p25
aVhttp://dbpedia.org/class/yago/Group100031264
p26
aVhttp://dbpedia.org/class/yago/Location100027167
p27
aVhttp://dbpedia.org/class/yago/Object100002684
p28
aVhttp://dbpedia.org/class/yago/Region108630985
p29
aVhttp://dbpedia.org/class/yago/System108435388
p30
aVhttp://dbpedia.org/class/yago/YagoGeoEntity
p31
aVhttp://dbpedia.org/class/yago/YagoLegalActorGeo
p32
aVhttp://dbpedia.org/class/yago/CountriesBorderingTheAtlanticOcean
p33
aVhttp://dbpedia.org/class/yago/CountriesOfTheMediterraneanSea
p34
aVhttp://dbpedia.org/class/yago/EuropeanCountries
p35
aVhttp://dbpedia.org/class/yago/EuropeanUnionMemberEconomies
p36
aVhttp://dbpedia.org/class/yago/PhysicalEntity100001930
p37
aVhttp://dbpedia.org/class/yago/YagoPermanentlyLocatedEntity
p38
aVhttp://dbpedia.org/class/yago/MemberStatesOfNATO
p39
aVhttp://dbpedia.org/class/yago/MemberStatesOfTheEuropeanUnion
p40
aVhttp://dbpedia.org/class/yago/MemberStatesOfTheUnionForTheMediterranean
p41
aVhttp://dbpedia.org/class/yago/MemberStatesOfTheUnitedNations
p42
aVhttp://dbpedia.org/class/yago/Spanish-speakingCountries
p43
aVhttp://dbpedia.org/class/yago/WorldTradeOrganizationMemberEconomies
p44
aVhttp://dbpedia.org/resource/Spain
tp45
aa(lp46
a(lp47
a(lp48
aa(lp49
(lp50
a(lp51
((lp52
Vhttp://www.w3.org/2002/07/owl#Thing
p53
aVhttp://dbpedia.org/ontology/Place
p54
aVhttp://dbpedia.org/ontology/Location
p55
aVhttp://www.wikidata.org/entity/Q486972
p56
aVhttp://www.wikidata.org/entity/Q6256
p57
aVhttp://dbpedia.org/ontology/Country
p58
aVhttp://dbpedia.org/ontology/PopulatedPlace
p59
aVhttp://www.w3.org/2003/01/geo/wgs84_pos#SpatialThing
p60
aVhttp://schema.org/Country
p61
aVhttp://schema.org/Place
p62
aVhttp://dbpedia.org/class/yago/Abstraction100002137
p63
aVhttp://dbpedia.org/class/yago/AdministrativeDistrict108491826
p64
aVhttp://dbpedia.org/class/yago/Country108544813
p65
aVhttp://dbpedia.org/class/yago/District108552138
p66
aVhttp://dbpedia.org/class/yago/Economy108366753
p67
aVhttp://dbpedia.org/class/yago/Group100031264
p68
aVhttp://dbpedia.org/class/yago/Location100027167
p69
aVhttp://dbpedia.org/class/yago/Object100002684
p70
aVhttp://dbpedia.org/class/yago/Region108630985
p71
aVhttp://dbpedia.org/class/yago/System108435388
p72
aVhttp://dbpedia.org/class/yago/YagoGeoEntity
p73
aVhttp://dbpedia.org/class/yago/YagoLegalActorGeo
p74
aVhttp://dbpedia.org/class/yago/CentralAsianCountries
p75
aVhttp://dbpedia.org/class/yago/Chinese-speakingCountriesAndTerritories
p76
aVhttp://dbpedia.org/class/yago/CommunistStates
p77
aVhttp://dbpedia.org/class/yago/CountriesBorderingThePacificOcean
p78
aVhttp://dbpedia.org/class/yago/CountriesBorderingTheSouthChinaSea
p79
aVhttp://dbpedia.org/class/yago/EastAsianCountries
p80
aVhttp://dbpedia.org/class/yago/EconomiesByRegion
p81
aVhttp://dbpedia.org/class/yago/PhysicalEntity100001930
p82
aVhttp://dbpedia.org/class/yago/YagoPermanentlyLocatedEntity
p83
aVhttp://dbpedia.org/class/yago/MemberStatesOfTheUnitedNations
p84
aVhttp://dbpedia.org/class/yago/Single-partyStates
p85
aVhttp://dbpedia.org/class/yago/SocialistStates
p86
aVhttp://dbpedia.org/class/yago/StatesAndTerritoriesEstablishedIn1949
p87
aVhttp://dbpedia.org/resource/China
tp88
aa(lp89
a(lp90
a(lp91
aa(lp92
(lp93
((lp94
Vhttp://www.w3.org/2002/07/owl#Thing
p95
aVhttp://dbpedia.org/ontology/Language
p96
aVhttp://www.wikidata.org/entity/Q315
p97
aVhttp://www.wikidata.org/entity/Q34770
p98
aVhttp://schema.org/Language
p99
aVhttp://dbpedia.org/class/yago/Ability105616246
p100
aVhttp://dbpedia.org/class/yago/Abstraction100002137
p101
aVhttp://dbpedia.org/class/yago/Cognition100023271
p102
aVhttp://dbpedia.org/class/yago/Communication100033020
p103
aVhttp://dbpedia.org/class/yago/DramaticComposition107007684
p104
aVhttp://dbpedia.org/class/yago/FictionalCharacter109587565
p105
aVhttp://dbpedia.org/class/yago/Orthography106351202
p106
aVhttp://dbpedia.org/class/yago/Script107009946
p107
aVhttp://dbpedia.org/class/yago/Writing106359877
p108
aVhttp://dbpedia.org/class/yago/Writing106362953
p109
aVhttp://dbpedia.org/class/yago/ChineseCharacters
p110
aVhttp://dbpedia.org/class/yago/ChineseScripts
p111
aVhttp://dbpedia.org/class/yago/Creativity105624700
p112
aVhttp://dbpedia.org/class/yago/ImaginaryBeing109483738
p113
aVhttp://dbpedia.org/class/yago/Imagination105625465
p114
aVhttp://dbpedia.org/class/yago/PsychologicalFeature100023100
p115
aVhttp://dbpedia.org/class/yago/WrittenCommunication106349220
p116
aVhttp://dbpedia.org/resource/Simplified_Chinese_characters
tp117
aa(lp118
((lp119
Vhttp://www.w3.org/2002/07/owl#Thing
p120
aVhttp://dbpedia.org/ontology/Place
p121
aVhttp://dbpedia.org/ontology/Location
p122
aVhttp://www.wikidata.org/entity/Q486972
p123
aVhttp://www.wikidata.org/entity/Q6256
p124
aVhttp://dbpedia.org/ontology/Country
p125
aVhttp://dbpedia.org/ontology/PopulatedPlace
p126
aVhttp://www.w3.org/2003/01/geo/wgs84_pos#SpatialThing
p127
aVhttp://schema.org/Country
p128
aVhttp://schema.org/Place
p129
aVhttp://dbpedia.org/class/yago/Abstraction100002137
p130
aVhttp://dbpedia.org/class/yago/AdministrativeDistrict108491826
p131
aVhttp://dbpedia.org/class/yago/Country108544813
p132
aVhttp://dbpedia.org/class/yago/District108552138
p133
aVhttp://dbpedia.org/class/yago/Economy108366753
p134
aVhttp://dbpedia.org/class/yago/Group100031264
p135
aVhttp://dbpedia.org/class/yago/Location100027167
p136
aVhttp://dbpedia.org/class/yago/Object100002684
p137
aVhttp://dbpedia.org/class/yago/Region108630985
p138
aVhttp://dbpedia.org/class/yago/System108435388
p139
aVhttp://dbpedia.org/class/yago/YagoGeoEntity
p140
aVhttp://dbpedia.org/class/yago/YagoLegalActorGeo
p141
aVhttp://dbpedia.org/class/yago/CentralAsianCountries
p142
aVhttp://dbpedia.org/class/yago/Chinese-speakingCountriesAndTerritories
p143
aVhttp://dbpedia.org/class/yago/CommunistStates
p144
aVhttp://dbpedia.org/class/yago/CountriesBorderingThePacificOcean
p145
aVhttp://dbpedia.org/class/yago/CountriesBorderingTheSouthChinaSea
p146
aVhttp://dbpedia.org/class/yago/EastAsianCountries
p147
aVhttp://dbpedia.org/class/yago/EconomiesByRegion
p148
aVhttp://dbpedia.org/class/yago/PhysicalEntity100001930
p149
aVhttp://dbpedia.org/class/yago/YagoPermanentlyLocatedEntity
p150
aVhttp://dbpedia.org/class/yago/MemberStatesOfTheUnitedNations
p151
aVhttp://dbpedia.org/class/yago/Single-partyStates
p152
aVhttp://dbpedia.org/class/yago/SocialistStates
p153
aVhttp://dbpedia.org/class/yago/StatesAndTerritoriesEstablishedIn1949
p154
aVhttp://dbpedia.org/resource/China
tp155
aa(lp156
a(lp157
a(lp158
aa(lp159
(lp160
((lp161
Vhttp://dbpedia.org/class/yago/Ability105616246
p162
aVhttp://dbpedia.org/class/yago/Abstraction100002137
p163
aVhttp://dbpedia.org/class/yago/Cognition100023271
p164
aVhttp://dbpedia.org/class/yago/Communication100033020
p165
aVhttp://dbpedia.org/class/yago/DramaticComposition107007684
p166
aVhttp://dbpedia.org/class/yago/FictionalCharacter109587565
p167
aVhttp://dbpedia.org/class/yago/Orthography106351202
p168
aVhttp://dbpedia.org/class/yago/Script107009946
p169
aVhttp://dbpedia.org/class/yago/Writing106359877
p170
aVhttp://dbpedia.org/class/yago/Writing106362953
p171
aVhttp://dbpedia.org/class/yago/ChineseCharacters
p172
aVhttp://dbpedia.org/class/yago/ChineseScripts
p173
aVhttp://dbpedia.org/class/yago/Creativity105624700
p174
aVhttp://dbpedia.org/class/yago/ImaginaryBeing109483738
p175
aVhttp://dbpedia.org/class/yago/Imagination105625465
p176
aVhttp://dbpedia.org/class/yago/PsychologicalFeature100023100
p177
aVhttp://dbpedia.org/class/yago/WrittenCommunication106349220
p178
aVhttp://dbpedia.org/resource/Traditional_Chinese_characters
tp179
aa(lp180
((lp181
Vhttp://www.w3.org/2002/07/owl#Thing
p182
aVhttp://dbpedia.org/ontology/Place
p183
aVhttp://dbpedia.org/ontology/Location
p184
aVhttp://www.wikidata.org/entity/Q486972
p185
aVhttp://www.wikidata.org/entity/Q6256
p186
aVhttp://dbpedia.org/ontology/Country
p187
aVhttp://dbpedia.org/ontology/PopulatedPlace
p188
aVhttp://www.w3.org/2003/01/geo/wgs84_pos#SpatialThing
p189
aVhttp://schema.org/Country
p190
aVhttp://schema.org/Place
p191
aVhttp://umbel.org/umbel/rc/Island
p192
aVhttp://umbel.org/umbel/rc/Location_Underspecified
p193
aVhttp://umbel.org/umbel/rc/PopulatedPlace
p194
aVhttp://dbpedia.org/class/yago/Abstraction100002137
p195
aVhttp://dbpedia.org/class/yago/AdministrativeDistrict108491826
p196
aVhttp://dbpedia.org/class/yago/Country108544813
p197
aVhttp://dbpedia.org/class/yago/District108552138
p198
aVhttp://dbpedia.org/class/yago/Economy108366753
p199
aVhttp://dbpedia.org/class/yago/Group100031264
p200
aVhttp://dbpedia.org/class/yago/Location100027167
p201
aVhttp://dbpedia.org/class/yago/Object100002684
p202
aVhttp://dbpedia.org/class/yago/Region108630985
p203
aVhttp://dbpedia.org/class/yago/System108435388
p204
aVhttp://dbpedia.org/class/yago/YagoGeoEntity
p205
aVhttp://dbpedia.org/class/yago/YagoLegalActorGeo
p206
aVhttp://dbpedia.org/class/yago/Chinese-speakingCountriesAndTerritories
p207
aVhttp://dbpedia.org/class/yago/CountriesBorderingThePacificOcean
p208
aVhttp://dbpedia.org/class/yago/CountriesBorderingThePhilippineSea
p209
aVhttp://dbpedia.org/class/yago/CountriesBorderingTheSouthChinaSea
p210
aVhttp://dbpedia.org/class/yago/EastAsianCountries
p211
aVhttp://dbpedia.org/class/yago/FormerMemberStatesOfTheUnitedNations
p212
aVhttp://dbpedia.org/class/yago/PhysicalEntity100001930
p213
aVhttp://dbpedia.org/class/yago/YagoPermanentlyLocatedEntity
p214
aVhttp://dbpedia.org/class/yago/IslandCountries
p215
aVhttp://dbpedia.org/class/yago/StatesAndTerritoriesEstablishedIn1912
p216
aVhttp://dbpedia.org/class/yago/UnrecognizedOrLargelyUnrecognizedStates
p217
aVhttp://dbpedia.org/class/yago/WorldTradeOrganizationMemberEconomies
p218
aVhttp://dbpedia.org/resource/Taiwan
tp219
aa(lp220
a(lp221
a(lp222
aa(lp223
(lp224
((lVhttp://dbpedia.org/resource/Danish_(name)
tp225
aa(lp226
((lp227
Vhttp://www.w3.org/2002/07/owl#Thing
p228
aVhttp://dbpedia.org/ontology/Place
p229
aVhttp://dbpedia.org/ontology/Location
p230
aVhttp://www.wikidata.org/entity/Q486972
p231
aVhttp://www.wikidata.org/entity/Q6256
p232
aVhttp://dbpedia.org/ontology/Country
p233
aVhttp://dbpedia.org/ontology/PopulatedPlace
p234
aVhttp://www.w3.org/2003/01/geo/wgs84_pos#SpatialThing
p235
aVhttp://schema.org/Country
p236
aVhttp://schema.org/Place
p237
aVhttp://umbel.org/umbel/rc/Country
p238
aVhttp://umbel.org/umbel/rc/Location_Underspecified
p239
aVhttp://umbel.org/umbel/rc/PopulatedPlace
p240
aVhttp://dbpedia.org/class/yago/Abstraction100002137
p241
aVhttp://dbpedia.org/class/yago/AdministrativeDistrict108491826
p242
aVhttp://dbpedia.org/class/yago/Country108544813
p243
aVhttp://dbpedia.org/class/yago/District108552138
p244
aVhttp://dbpedia.org/class/yago/Economy108366753
p245
aVhttp://dbpedia.org/class/yago/Group100031264
p246
aVhttp://dbpedia.org/class/yago/Location100027167
p247
aVhttp://dbpedia.org/class/yago/Object100002684
p248
aVhttp://dbpedia.org/class/yago/Region108630039
p249
aVhttp://dbpedia.org/class/yago/Region108630985
p250
aVhttp://dbpedia.org/class/yago/System108435388
p251
aVhttp://dbpedia.org/class/yago/YagoGeoEntity
p252
aVhttp://dbpedia.org/class/yago/YagoLegalActorGeo
p253
aVhttp://dbpedia.org/class/yago/CountriesBorderingTheAtlanticOcean
p254
aVhttp://dbpedia.org/class/yago/CountriesBorderingTheBalticSea
p255
aVhttp://dbpedia.org/class/yago/Danish-speakingCountries
p256
aVhttp://dbpedia.org/class/yago/EuropeanCountries
p257
aVhttp://dbpedia.org/class/yago/EuropeanUnionMemberEconomies
p258
aVhttp://dbpedia.org/class/yago/PhysicalEntity100001930
p259
aVhttp://dbpedia.org/class/yago/YagoPermanentlyLocatedEntity
p260
aVhttp://dbpedia.org/class/yago/MemberStatesOfNATO
p261
aVhttp://dbpedia.org/class/yago/MemberStatesOfTheEuropeanUnion
p262
aVhttp://dbpedia.org/class/yago/MemberStatesOfTheUnionForTheMediterranean
p263
aVhttp://dbpedia.org/class/yago/MemberStatesOfTheUnitedNations
p264
aVhttp://dbpedia.org/class/yago/NUTS2StatisticalRegionsOfTheEuropeanUnion
p265
aVhttp://dbpedia.org/class/yago/NordicCountries
p266
aVhttp://dbpedia.org/class/yago/StatesAndTerritoriesEstablishedIn1814
p267
aVhttp://dbpedia.org/resource/Denmark
tp268
aa(lp269
a(lp270
a(lp271
aa(lp272
(lp273
((lp274
Vhttp://www.w3.org/2002/07/owl#Thing
p275
aVhttp://xmlns.com/foaf/0.1/Person
p276
aVhttp://dbpedia.org/ontology/Person
p277
aVhttp://www.ontologydesignpatterns.org/ont/dul/DUL.owl#Agent
p278
aVhttp://www.ontologydesignpatterns.org/ont/dul/DUL.owl#NaturalPerson
p279
aVhttp://www.wikidata.org/entity/Q215627
p280
aVhttp://www.wikidata.org/entity/Q5
p281
aVhttp://dbpedia.org/ontology/Agent
p282
aVhttp://dbpedia.org/ontology/Athlete
p283
aVhttp://dbpedia.org/ontology/PokerPlayer
p284
aVhttp://schema.org/Person
p285
aVhttp://umbel.org/umbel/rc/PersonWithOccupation
p286
aVhttp://dbpedia.org/class/yago/AmericanPokerPlayers
p287
aVhttp://dbpedia.org/class/yago/CausalAgent100007347
p288
aVhttp://dbpedia.org/class/yago/Contestant109613191
p289
aVhttp://dbpedia.org/class/yago/LivingThing100004258
p290
aVhttp://dbpedia.org/class/yago/Object100002684
p291
aVhttp://dbpedia.org/class/yago/Organism100004475
p292
aVhttp://dbpedia.org/class/yago/Person100007846
p293
aVhttp://dbpedia.org/class/yago/Player110439851
p294
aVhttp://dbpedia.org/class/yago/Whole100003553
p295
aVhttp://dbpedia.org/class/yago/YagoLegalActorGeo
p296
aVhttp://dbpedia.org/class/yago/PhysicalEntity100001930
p297
aVhttp://dbpedia.org/class/yago/LivingPeople
p298
aVhttp://dbpedia.org/class/yago/PeopleWithBipolarDisorder
p299
aVhttp://dbpedia.org/class/yago/YagoLegalActor
p300
aVhttp://dbpedia.org/resource/Dutch_Boyd
tp301
aa(lp302
((lp303
Vhttp://www.w3.org/2002/07/owl#Thing
p304
aVhttp://dbpedia.org/ontology/Place
p305
aVhttp://dbpedia.org/ontology/Location
p306
aVhttp://www.wikidata.org/entity/Q486972
p307
aVhttp://www.wikidata.org/entity/Q6256
p308
aVhttp://dbpedia.org/ontology/Country
p309
aVhttp://dbpedia.org/ontology/PopulatedPlace
p310
aVhttp://www.w3.org/2003/01/geo/wgs84_pos#SpatialThing
p311
aVhttp://schema.org/Country
p312
aVhttp://schema.org/Place
p313
aVhttp://umbel.org/umbel/rc/Country
p314
aVhttp://umbel.org/umbel/rc/Location_Underspecified
p315
aVhttp://umbel.org/umbel/rc/PopulatedPlace
p316
aVhttp://dbpedia.org/class/yago/Abstraction100002137
p317
aVhttp://dbpedia.org/class/yago/AdministrativeDistrict108491826
p318
aVhttp://dbpedia.org/class/yago/BicontinentalCountries
p319
aVhttp://dbpedia.org/class/yago/CaribbeanCountries
p320
aVhttp://dbpedia.org/class/yago/Country108544813
p321
aVhttp://dbpedia.org/class/yago/District108552138
p322
aVhttp://dbpedia.org/class/yago/Economy108366753
p323
aVhttp://dbpedia.org/class/yago/Group100031264
p324
aVhttp://dbpedia.org/class/yago/Location100027167
p325
aVhttp://dbpedia.org/class/yago/Object100002684
p326
aVhttp://dbpedia.org/class/yago/Region108630985
p327
aVhttp://dbpedia.org/class/yago/System108435388
p328
aVhttp://dbpedia.org/class/yago/YagoGeoEntity
p329
aVhttp://dbpedia.org/class/yago/YagoLegalActorGeo
p330
aVhttp://dbpedia.org/class/yago/CountriesBorderingTheAtlanticOcean
p331
aVhttp://dbpedia.org/class/yago/Dutch-speakingCountries
p332
aVhttp://dbpedia.org/class/yago/EuropeanCountries
p333
aVhttp://dbpedia.org/class/yago/EuropeanUnionMemberEconomies
p334
aVhttp://dbpedia.org/class/yago/PhysicalEntity100001930
p335
aVhttp://dbpedia.org/class/yago/YagoPermanentlyLocatedEntity
p336
aVhttp://dbpedia.org/class/yago/MemberStatesOfNATO
p337
aVhttp://dbpedia.org/class/yago/MemberStatesOfTheDutchLanguageUnion
p338
aVhttp://dbpedia.org/class/yago/MemberStatesOfTheEuropeanUnion
p339
aVhttp://dbpedia.org/class/yago/MemberStatesOfTheUnionForTheMediterranean
p340
aVhttp://dbpedia.org/resource/Netherlands
tp341
aa(lp342
a(lp343
a(lp344
aa(lp345
(lp346
((lp347
Vhttp://www.w3.org/2002/07/owl#Thing
p348
aVhttp://dbpedia.org/ontology/Place
p349
aVhttp://dbpedia.org/ontology/Location
p350
aVhttp://www.wikidata.org/entity/Q3957
p351
aVhttp://www.wikidata.org/entity/Q486972
p352
aVhttp://dbpedia.org/ontology/PopulatedPlace
p353
aVhttp://dbpedia.org/ontology/Settlement
p354
aVhttp://dbpedia.org/ontology/Town
p355
aVhttp://www.w3.org/2003/01/geo/wgs84_pos#SpatialThing
p356
aVhttp://schema.org/Place
p357
aVhttp://umbel.org/umbel/rc/Town
p358
aVhttp://dbpedia.org/class/yago/AdministrativeDistrict108491826
p359
aVhttp://dbpedia.org/class/yago/Area108497294
p360
aVhttp://dbpedia.org/class/yago/Center108523483
p361
aVhttp://dbpedia.org/class/yago/District108552138
p362
aVhttp://dbpedia.org/class/yago/Location100027167
p363
aVhttp://dbpedia.org/class/yago/Object100002684
p364
aVhttp://dbpedia.org/class/yago/Region108630985
p365
aVhttp://dbpedia.org/class/yago/Seat108647945
p366
aVhttp://dbpedia.org/class/yago/Site108651247
p367
aVhttp://dbpedia.org/class/yago/Town108665504
p368
aVhttp://dbpedia.org/class/yago/Tract108673395
p369
aVhttp://dbpedia.org/class/yago/UrbanArea108675967
p370
aVhttp://dbpedia.org/class/yago/YagoGeoEntity
p371
aVhttp://dbpedia.org/class/yago/YagoLegalActorGeo
p372
aVhttp://dbpedia.org/class/yago/CountySeat108547143
p373
aVhttp://dbpedia.org/class/yago/CountySeatsInIndiana
p374
aVhttp://dbpedia.org/class/yago/GeographicalArea108574314
p375
aVhttp://dbpedia.org/class/yago/Municipality108626283
p376
aVhttp://dbpedia.org/class/yago/PhysicalEntity100001930
p377
aVhttp://dbpedia.org/class/yago/YagoPermanentlyLocatedEntity
p378
aVhttp://dbpedia.org/class/yago/PopulatedPlacesInCrawfordCounty,Indiana
p379
aVhttp://dbpedia.org/class/yago/TownsInIndiana
p380
aVhttp://dbpedia.org/resource/English,_Indiana
tp381
aa(lp382
((lp383
Vhttp://www.w3.org/2002/07/owl#Thing
p384
aVhttp://dbpedia.org/ontology/Place
p385
aVhttp://dbpedia.org/ontology/Location
p386
aVhttp://www.wikidata.org/entity/Q486972
p387
aVhttp://www.wikidata.org/entity/Q6256
p388
aVhttp://dbpedia.org/ontology/Country
p389
aVhttp://dbpedia.org/ontology/PopulatedPlace
p390
aVhttp://www.w3.org/2003/01/geo/wgs84_pos#SpatialThing
p391
aVhttp://schema.org/Country
p392
aVhttp://schema.org/Place
p393
aVhttp://umbel.org/umbel/rc/Country
p394
aVhttp://umbel.org/umbel/rc/Location_Underspecified
p395
aVhttp://umbel.org/umbel/rc/PopulatedPlace
p396
aVhttp://dbpedia.org/class/yago/Abstraction100002137
p397
aVhttp://dbpedia.org/class/yago/AdministrativeDistrict108491826
p398
aVhttp://dbpedia.org/class/yago/Country108544813
p399
aVhttp://dbpedia.org/class/yago/District108552138
p400
aVhttp://dbpedia.org/class/yago/Economy108366753
p401
aVhttp://dbpedia.org/class/yago/Group100031264
p402
aVhttp://dbpedia.org/class/yago/Island109316454
p403
aVhttp://dbpedia.org/class/yago/Land109334396
p404
aVhttp://dbpedia.org/class/yago/Location100027167
p405
aVhttp://dbpedia.org/class/yago/Object100002684
p406
aVhttp://dbpedia.org/class/yago/Region108630985
p407
aVhttp://dbpedia.org/class/yago/System108435388
p408
aVhttp://dbpedia.org/class/yago/YagoGeoEntity
p409
aVhttp://dbpedia.org/class/yago/YagoLegalActorGeo
p410
aVhttp://dbpedia.org/class/yago/CountriesBorderingThePacificOcean
p411
aVhttp://dbpedia.org/class/yago/CountriesOfTheIndianOcean
p412
aVhttp://dbpedia.org/class/yago/English-speakingCountriesAndTerritories
p413
aVhttp://dbpedia.org/class/yago/FederalCountries
p414
aVhttp://dbpedia.org/class/yago/PhysicalEntity100001930
p415
aVhttp://dbpedia.org/class/yago/YagoPermanentlyLocatedEntity
p416
aVhttp://dbpedia.org/class/yago/Islands
p417
aVhttp://dbpedia.org/class/yago/MemberStatesOfTheCommonwealthOfNations
p418
aVhttp://dbpedia.org/class/yago/MemberStatesOfTheUnitedNations
p419
aVhttp://dbpedia.org/class/yago/OceanianCountries
p420
aVhttp://dbpedia.org/class/yago/StatesAndTerritoriesEstablishedIn1901
p421
aVhttp://dbpedia.org/class/yago/WorldTradeOrganizationMemberEconomies
p422
aVhttp://dbpedia.org/resource/Australia
tp423
aa(lp424
a(lp425
a(lp426
aa(lp427
(lp428
((lp429
Vhttp://www.w3.org/2002/07/owl#Thing
p430
aVhttp://dbpedia.org/ontology/Place
p431
aVhttp://dbpedia.org/ontology/Location
p432
aVhttp://www.wikidata.org/entity/Q3957
p433
aVhttp://www.wikidata.org/entity/Q486972
p434
aVhttp://dbpedia.org/ontology/PopulatedPlace
p435
aVhttp://dbpedia.org/ontology/Settlement
p436
aVhttp://dbpedia.org/ontology/Town
p437
aVhttp://www.w3.org/2003/01/geo/wgs84_pos#SpatialThing
p438
aVhttp://schema.org/Place
p439
aVhttp://umbel.org/umbel/rc/Town
p440
aVhttp://dbpedia.org/class/yago/AdministrativeDistrict108491826
p441
aVhttp://dbpedia.org/class/yago/Area108497294
p442
aVhttp://dbpedia.org/class/yago/Center108523483
p443
aVhttp://dbpedia.org/class/yago/District108552138
p444
aVhttp://dbpedia.org/class/yago/Location100027167
p445
aVhttp://dbpedia.org/class/yago/Object100002684
p446
aVhttp://dbpedia.org/class/yago/Region108630985
p447
aVhttp://dbpedia.org/class/yago/Seat108647945
p448
aVhttp://dbpedia.org/class/yago/Site108651247
p449
aVhttp://dbpedia.org/class/yago/Town108665504
p450
aVhttp://dbpedia.org/class/yago/Tract108673395
p451
aVhttp://dbpedia.org/class/yago/UrbanArea108675967
p452
aVhttp://dbpedia.org/class/yago/YagoGeoEntity
p453
aVhttp://dbpedia.org/class/yago/YagoLegalActorGeo
p454
aVhttp://dbpedia.org/class/yago/CountySeat108547143
p455
aVhttp://dbpedia.org/class/yago/CountySeatsInIndiana
p456
aVhttp://dbpedia.org/class/yago/GeographicalArea108574314
p457
aVhttp://dbpedia.org/class/yago/Municipality108626283
p458
aVhttp://dbpedia.org/class/yago/PhysicalEntity100001930
p459
aVhttp://dbpedia.org/class/yago/YagoPermanentlyLocatedEntity
p460
aVhttp://dbpedia.org/class/yago/PopulatedPlacesInCrawfordCounty,Indiana
p461
aVhttp://dbpedia.org/class/yago/TownsInIndiana
p462
aVhttp://dbpedia.org/resource/English,_Indiana
tp463
aa(lp464
((lp465
Vhttp://www.w3.org/2002/07/owl#Thing
p466
aVhttp://dbpedia.org/ontology/Place
p467
aVhttp://dbpedia.org/ontology/Location
p468
aVhttp://www.wikidata.org/entity/Q486972
p469
aVhttp://www.wikidata.org/entity/Q6256
p470
aVhttp://dbpedia.org/ontology/Country
p471
aVhttp://dbpedia.org/ontology/PopulatedPlace
p472
aVhttp://www.w3.org/2003/01/geo/wgs84_pos#SpatialThing
p473
aVhttp://schema.org/Country
p474
aVhttp://schema.org/Place
p475
aVhttp://umbel.org/umbel/rc/Country
p476
aVhttp://umbel.org/umbel/rc/Location_Underspecified
p477
aVhttp://umbel.org/umbel/rc/PopulatedPlace
p478
aVhttp://dbpedia.org/class/yago/Abstraction100002137
p479
aVhttp://dbpedia.org/class/yago/AdministrativeDistrict108491826
p480
aVhttp://dbpedia.org/class/yago/Country108544813
p481
aVhttp://dbpedia.org/class/yago/District108552138
p482
aVhttp://dbpedia.org/class/yago/Economy108366753
p483
aVhttp://dbpedia.org/class/yago/Group100031264
p484
aVhttp://dbpedia.org/class/yago/Location100027167
p485
aVhttp://dbpedia.org/class/yago/Object100002684
p486
aVhttp://dbpedia.org/class/yago/Region108630985
p487
aVhttp://dbpedia.org/class/yago/System108435388
p488
aVhttp://dbpedia.org/class/yago/YagoGeoEntity
p489
aVhttp://dbpedia.org/class/yago/YagoLegalActorGeo
p490
aVhttp://dbpedia.org/class/yago/CountriesBorderingTheArcticOcean
p491
aVhttp://dbpedia.org/class/yago/CountriesBorderingTheAtlanticOcean
p492
aVhttp://dbpedia.org/class/yago/CountriesBorderingThePacificOcean
p493
aVhttp://dbpedia.org/class/yago/English-speakingCountriesAndTerritories
p494
aVhttp://dbpedia.org/class/yago/FederalCountries
p495
aVhttp://dbpedia.org/class/yago/French-speakingCountries
p496
aVhttp://dbpedia.org/class/yago/PhysicalEntity100001930
p497
aVhttp://dbpedia.org/class/yago/YagoPermanentlyLocatedEntity
p498
aVhttp://dbpedia.org/class/yago/MemberStatesOfLaFrancophonie
p499
aVhttp://dbpedia.org/class/yago/MemberStatesOfNATO
p500
aVhttp://dbpedia.org/class/yago/MemberStatesOfTheCommonwealthOfNations
p501
aVhttp://dbpedia.org/class/yago/MemberStatesOfTheUnitedNations
p502
aVhttp://dbpedia.org/class/yago/NorthernAmericanCountries
p503
aVhttp://dbpedia.org/class/yago/StatesAndTerritoriesEstablishedIn1867
p504
aVhttp://dbpedia.org/resource/Canada
tp505
aa(lp506
a(lp507
a(lp508
aa(lp509
(lp510
((lp511
Vhttp://www.w3.org/2002/07/owl#Thing
p512
aVhttp://dbpedia.org/ontology/Place
p513
aVhttp://dbpedia.org/ontology/Location
p514
aVhttp://www.wikidata.org/entity/Q3957
p515
aVhttp://www.wikidata.org/entity/Q486972
p516
aVhttp://dbpedia.org/ontology/PopulatedPlace
p517
aVhttp://dbpedia.org/ontology/Settlement
p518
aVhttp://dbpedia.org/ontology/Town
p519
aVhttp://www.w3.org/2003/01/geo/wgs84_pos#SpatialThing
p520
aVhttp://schema.org/Place
p521
aVhttp://umbel.org/umbel/rc/Town
p522
aVhttp://dbpedia.org/class/yago/AdministrativeDistrict108491826
p523
aVhttp://dbpedia.org/class/yago/Area108497294
p524
aVhttp://dbpedia.org/class/yago/Center108523483
p525
aVhttp://dbpedia.org/class/yago/District108552138
p526
aVhttp://dbpedia.org/class/yago/Location100027167
p527
aVhttp://dbpedia.org/class/yago/Object100002684
p528
aVhttp://dbpedia.org/class/yago/Region108630985
p529
aVhttp://dbpedia.org/class/yago/Seat108647945
p530
aVhttp://dbpedia.org/class/yago/Site108651247
p531
aVhttp://dbpedia.org/class/yago/Town108665504
p532
aVhttp://dbpedia.org/class/yago/Tract108673395
p533
aVhttp://dbpedia.org/class/yago/UrbanArea108675967
p534
aVhttp://dbpedia.org/class/yago/YagoGeoEntity
p535
aVhttp://dbpedia.org/class/yago/YagoLegalActorGeo
p536
aVhttp://dbpedia.org/class/yago/CountySeat108547143
p537
aVhttp://dbpedia.org/class/yago/CountySeatsInIndiana
p538
aVhttp://dbpedia.org/class/yago/GeographicalArea108574314
p539
aVhttp://dbpedia.org/class/yago/Municipality108626283
p540
aVhttp://dbpedia.org/class/yago/PhysicalEntity100001930
p541
aVhttp://dbpedia.org/class/yago/YagoPermanentlyLocatedEntity
p542
aVhttp://dbpedia.org/class/yago/PopulatedPlacesInCrawfordCounty,Indiana
p543
aVhttp://dbpedia.org/class/yago/TownsInIndiana
p544
aVhttp://dbpedia.org/resource/English,_Indiana
tp545
aa(lp546
((lp547
Vhttp://www.w3.org/2002/07/owl#Thing
p548
aVhttp://dbpedia.org/ontology/Place
p549
aVhttp://dbpedia.org/ontology/Location
p550
aVhttp://www.wikidata.org/entity/Q486972
p551
aVhttp://www.wikidata.org/entity/Q6256
p552
aVhttp://dbpedia.org/ontology/Country
p553
aVhttp://dbpedia.org/ontology/PopulatedPlace
p554
aVhttp://www.w3.org/2003/01/geo/wgs84_pos#SpatialThing
p555
aVhttp://schema.org/Country
p556
aVhttp://schema.org/Place
p557
aVhttp://umbel.org/umbel/rc/Country
p558
aVhttp://umbel.org/umbel/rc/Location_Underspecified
p559
aVhttp://umbel.org/umbel/rc/PopulatedPlace
p560
aVhttp://dbpedia.org/class/yago/Abstraction100002137
p561
aVhttp://dbpedia.org/class/yago/AdministrativeDistrict108491826
p562
aVhttp://dbpedia.org/class/yago/Country108544813
p563
aVhttp://dbpedia.org/class/yago/District108552138
p564
aVhttp://dbpedia.org/class/yago/Economy108366753
p565
aVhttp://dbpedia.org/class/yago/Group100031264
p566
aVhttp://dbpedia.org/class/yago/Location100027167
p567
aVhttp://dbpedia.org/class/yago/Object100002684
p568
aVhttp://dbpedia.org/class/yago/Region108630985
p569
aVhttp://dbpedia.org/class/yago/System108435388
p570
aVhttp://dbpedia.org/class/yago/YagoGeoEntity
p571
aVhttp://dbpedia.org/class/yago/YagoLegalActorGeo
p572
aVhttp://dbpedia.org/class/yago/CountriesOfTheIndianOcean
p573
aVhttp://dbpedia.org/class/yago/FederalCountries
p574
aVhttp://dbpedia.org/class/yago/PhysicalEntity100001930
p575
aVhttp://dbpedia.org/class/yago/YagoPermanentlyLocatedEntity
p576
aVhttp://dbpedia.org/class/yago/MemberStatesOfTheCommonwealthOfNations
p577
aVhttp://dbpedia.org/class/yago/MemberStatesOfTheSouthAsianAssociationForRegionalCooperation
p578
aVhttp://dbpedia.org/class/yago/MemberStatesOfTheUnitedNations
p579
aVhttp://dbpedia.org/class/yago/SouthAsianCountries
p580
aVhttp://dbpedia.org/class/yago/StatesAndTerritoriesEstablishedIn1947
p581
aVhttp://dbpedia.org/class/yago/WorldTradeOrganizationMemberEconomies
p582
aVhttp://dbpedia.org/resource/India
tp583
aa(lp584
a(lp585
a(lp586
aa(lp587
(lp588
((lp589
Vhttp://www.w3.org/2002/07/owl#Thing
p590
aVhttp://dbpedia.org/ontology/Place
p591
aVhttp://dbpedia.org/ontology/Location
p592
aVhttp://www.wikidata.org/entity/Q3957
p593
aVhttp://www.wikidata.org/entity/Q486972
p594
aVhttp://dbpedia.org/ontology/PopulatedPlace
p595
aVhttp://dbpedia.org/ontology/Settlement
p596
aVhttp://dbpedia.org/ontology/Town
p597
aVhttp://www.w3.org/2003/01/geo/wgs84_pos#SpatialThing
p598
aVhttp://schema.org/Place
p599
aVhttp://umbel.org/umbel/rc/Town
p600
aVhttp://dbpedia.org/class/yago/AdministrativeDistrict108491826
p601
aVhttp://dbpedia.org/class/yago/Area108497294
p602
aVhttp://dbpedia.org/class/yago/Center108523483
p603
aVhttp://dbpedia.org/class/yago/District108552138
p604
aVhttp://dbpedia.org/class/yago/Location100027167
p605
aVhttp://dbpedia.org/class/yago/Object100002684
p606
aVhttp://dbpedia.org/class/yago/Region108630985
p607
aVhttp://dbpedia.org/class/yago/Seat108647945
p608
aVhttp://dbpedia.org/class/yago/Site108651247
p609
aVhttp://dbpedia.org/class/yago/Town108665504
p610
aVhttp://dbpedia.org/class/yago/Tract108673395
p611
aVhttp://dbpedia.org/class/yago/UrbanArea108675967
p612
aVhttp://dbpedia.org/class/yago/YagoGeoEntity
p613
aVhttp://dbpedia.org/class/yago/YagoLegalActorGeo
p614
aVhttp://dbpedia.org/class/yago/CountySeat108547143
p615
aVhttp://dbpedia.org/class/yago/CountySeatsInIndiana
p616
aVhttp://dbpedia.org/class/yago/GeographicalArea108574314
p617
aVhttp://dbpedia.org/class/yago/Municipality108626283
p618
aVhttp://dbpedia.org/class/yago/PhysicalEntity100001930
p619
aVhttp://dbpedia.org/class/yago/YagoPermanentlyLocatedEntity
p620
aVhttp://dbpedia.org/class/yago/PopulatedPlacesInCrawfordCounty,Indiana
p621
aVhttp://dbpedia.org/class/yago/TownsInIndiana
p622
aVhttp://dbpedia.org/resource/English,_Indiana
tp623
aa(lp624
((lp625
Vhttp://www.w3.org/2002/07/owl#Thing
p626
aVhttp://dbpedia.org/ontology/Place
p627
aVhttp://dbpedia.org/ontology/Location
p628
aVhttp://www.wikidata.org/entity/Q486972
p629
aVhttp://www.wikidata.org/entity/Q6256
p630
aVhttp://dbpedia.org/ontology/Country
p631
aVhttp://dbpedia.org/ontology/PopulatedPlace
p632
aVhttp://www.w3.org/2003/01/geo/wgs84_pos#SpatialThing
p633
aVhttp://schema.org/Country
p634
aVhttp://schema.org/Place
p635
aVhttp://umbel.org/umbel/rc/Country
p636
aVhttp://umbel.org/umbel/rc/Location_Underspecified
p637
aVhttp://umbel.org/umbel/rc/PopulatedPlace
p638
aVhttp://dbpedia.org/class/yago/Abstraction100002137
p639
aVhttp://dbpedia.org/class/yago/AdministrativeDistrict108491826
p640
aVhttp://dbpedia.org/class/yago/Country108544813
p641
aVhttp://dbpedia.org/class/yago/District108552138
p642
aVhttp://dbpedia.org/class/yago/Economy108366753
p643
aVhttp://dbpedia.org/class/yago/Group100031264
p644
aVhttp://dbpedia.org/class/yago/Location100027167
p645
aVhttp://dbpedia.org/class/yago/Object100002684
p646
aVhttp://dbpedia.org/class/yago/Region108630985
p647
aVhttp://dbpedia.org/class/yago/System108435388
p648
aVhttp://dbpedia.org/class/yago/YagoGeoEntity
p649
aVhttp://dbpedia.org/class/yago/YagoLegalActorGeo
p650
aVhttp://dbpedia.org/class/yago/CountriesBorderingTheAtlanticOcean
p651
aVhttp://dbpedia.org/class/yago/English-speakingCountriesAndTerritories
p652
aVhttp://dbpedia.org/class/yago/EuropeanCountries
p653
aVhttp://dbpedia.org/class/yago/EuropeanUnionMemberEconomies
p654
aVhttp://dbpedia.org/class/yago/PhysicalEntity100001930
p655
aVhttp://dbpedia.org/class/yago/YagoPermanentlyLocatedEntity
p656
aVhttp://dbpedia.org/class/yago/IslandCountries
p657
aVhttp://dbpedia.org/class/yago/MemberStatesOfNATO
p658
aVhttp://dbpedia.org/class/yago/MemberStatesOfTheCommonwealthOfNations
p659
aVhttp://dbpedia.org/class/yago/MemberStatesOfTheCouncilOfEurope
p660
aVhttp://dbpedia.org/class/yago/MemberStatesOfTheEuropeanUnion
p661
aVhttp://dbpedia.org/class/yago/MemberStatesOfTheUnionForTheMediterranean
p662
aVhttp://dbpedia.org/class/yago/MemberStatesOfTheUnitedNations
p663
aVhttp://dbpedia.org/resource/United_Kingdom
tp664
aa(lp665
a(lp666
a(lp667
aa(lp668
(lp669
((lp670
Vhttp://www.w3.org/2002/07/owl#Thing
p671
aVhttp://dbpedia.org/ontology/Place
p672
aVhttp://dbpedia.org/ontology/Location
p673
aVhttp://www.wikidata.org/entity/Q3957
p674
aVhttp://www.wikidata.org/entity/Q486972
p675
aVhttp://dbpedia.org/ontology/PopulatedPlace
p676
aVhttp://dbpedia.org/ontology/Settlement
p677
aVhttp://dbpedia.org/ontology/Town
p678
aVhttp://www.w3.org/2003/01/geo/wgs84_pos#SpatialThing
p679
aVhttp://schema.org/Place
p680
aVhttp://umbel.org/umbel/rc/Town
p681
aVhttp://dbpedia.org/class/yago/AdministrativeDistrict108491826
p682
aVhttp://dbpedia.org/class/yago/Area108497294
p683
aVhttp://dbpedia.org/class/yago/Center108523483
p684
aVhttp://dbpedia.org/class/yago/District108552138
p685
aVhttp://dbpedia.org/class/yago/Location100027167
p686
aVhttp://dbpedia.org/class/yago/Object100002684
p687
aVhttp://dbpedia.org/class/yago/Region108630985
p688
aVhttp://dbpedia.org/class/yago/Seat108647945
p689
aVhttp://dbpedia.org/class/yago/Site108651247
p690
aVhttp://dbpedia.org/class/yago/Town108665504
p691
aVhttp://dbpedia.org/class/yago/Tract108673395
p692
aVhttp://dbpedia.org/class/yago/UrbanArea108675967
p693
aVhttp://dbpedia.org/class/yago/YagoGeoEntity
p694
aVhttp://dbpedia.org/class/yago/YagoLegalActorGeo
p695
aVhttp://dbpedia.org/class/yago/CountySeat108547143
p696
aVhttp://dbpedia.org/class/yago/CountySeatsInIndiana
p697
aVhttp://dbpedia.org/class/yago/GeographicalArea108574314
p698
aVhttp://dbpedia.org/class/yago/Municipality108626283
p699
aVhttp://dbpedia.org/class/yago/PhysicalEntity100001930
p700
aVhttp://dbpedia.org/class/yago/YagoPermanentlyLocatedEntity
p701
aVhttp://dbpedia.org/class/yago/PopulatedPlacesInCrawfordCounty,Indiana
p702
aVhttp://dbpedia.org/class/yago/TownsInIndiana
p703
aVhttp://dbpedia.org/resource/English,_Indiana
tp704
aa(lp705
((lp706
Vhttp://www.w3.org/2002/07/owl#Thing
p707
aVhttp://dbpedia.org/ontology/Place
p708
aVhttp://dbpedia.org/ontology/Location
p709
aVhttp://www.wikidata.org/entity/Q486972
p710
aVhttp://www.wikidata.org/entity/Q6256
p711
aVhttp://dbpedia.org/ontology/Country
p712
aVhttp://dbpedia.org/ontology/PopulatedPlace
p713
aVhttp://www.w3.org/2003/01/geo/wgs84_pos#SpatialThing
p714
aVhttp://schema.org/Country
p715
aVhttp://schema.org/Place
p716
aVhttp://umbel.org/umbel/rc/Country
p717
aVhttp://umbel.org/umbel/rc/Location_Underspecified
p718
aVhttp://umbel.org/umbel/rc/PopulatedPlace
p719
aVhttp://dbpedia.org/class/yago/Abstraction100002137
p720
aVhttp://dbpedia.org/class/yago/AdministrativeDistrict108491826
p721
aVhttp://dbpedia.org/class/yago/BicontinentalCountries
p722
aVhttp://dbpedia.org/class/yago/Country108544813
p723
aVhttp://dbpedia.org/class/yago/District108552138
p724
aVhttp://dbpedia.org/class/yago/Economy108366753
p725
aVhttp://dbpedia.org/class/yago/Group100031264
p726
aVhttp://dbpedia.org/class/yago/Location100027167
p727
aVhttp://dbpedia.org/class/yago/Object100002684
p728
aVhttp://dbpedia.org/class/yago/Region108630985
p729
aVhttp://dbpedia.org/class/yago/System108435388
p730
aVhttp://dbpedia.org/class/yago/YagoGeoEntity
p731
aVhttp://dbpedia.org/class/yago/YagoLegalActorGeo
p732
aVhttp://dbpedia.org/class/yago/CountriesBorderingTheArcticOcean
p733
aVhttp://dbpedia.org/class/yago/CountriesBorderingTheAtlanticOcean
p734
aVhttp://dbpedia.org/class/yago/CountriesBorderingThePacificOcean
p735
aVhttp://dbpedia.org/class/yago/English-speakingCountriesAndTerritories
p736
aVhttp://dbpedia.org/class/yago/FederalCountries
p737
aVhttp://dbpedia.org/class/yago/PhysicalEntity100001930
p738
aVhttp://dbpedia.org/class/yago/YagoPermanentlyLocatedEntity
p739
aVhttp://dbpedia.org/class/yago/MemberStatesOfNATO
p740
aVhttp://dbpedia.org/class/yago/MemberStatesOfTheUnitedNations
p741
aVhttp://dbpedia.org/class/yago/NorthernAmericanCountries
p742
aVhttp://dbpedia.org/class/yago/StatesAndTerritoriesEstablishedIn1776
p743
aVhttp://dbpedia.org/class/yago/UnitedStates
p744
aVhttp://dbpedia.org/resource/United_States
tp745
aa(lp746
a(lp747
a(lp748
aa(lp749
(lp750
((lVhttp://dbpedia.org/resource/Finnish_cuisine
tp751
aa(lp752
((lp753
Vhttp://www.w3.org/2002/07/owl#Thing
p754
aVhttp://dbpedia.org/ontology/Place
p755
aVhttp://dbpedia.org/ontology/Location
p756
aVhttp://www.wikidata.org/entity/Q486972
p757
aVhttp://www.wikidata.org/entity/Q6256
p758
aVhttp://dbpedia.org/ontology/Country
p759
aVhttp://dbpedia.org/ontology/PopulatedPlace
p760
aVhttp://www.w3.org/2003/01/geo/wgs84_pos#SpatialThing
p761
aVhttp://schema.org/Country
p762
aVhttp://schema.org/Place
p763
aVhttp://umbel.org/umbel/rc/Country
p764
aVhttp://umbel.org/umbel/rc/Location_Underspecified
p765
aVhttp://umbel.org/umbel/rc/PopulatedPlace
p766
aVhttp://dbpedia.org/class/yago/Abstraction100002137
p767
aVhttp://dbpedia.org/class/yago/AdministrativeDistrict108491826
p768
aVhttp://dbpedia.org/class/yago/Country108544813
p769
aVhttp://dbpedia.org/class/yago/District108552138
p770
aVhttp://dbpedia.org/class/yago/Economy108366753
p771
aVhttp://dbpedia.org/class/yago/Group100031264
p772
aVhttp://dbpedia.org/class/yago/Location100027167
p773
aVhttp://dbpedia.org/class/yago/Object100002684
p774
aVhttp://dbpedia.org/class/yago/Region108630985
p775
aVhttp://dbpedia.org/class/yago/System108435388
p776
aVhttp://dbpedia.org/class/yago/YagoGeoEntity
p777
aVhttp://dbpedia.org/class/yago/YagoLegalActorGeo
p778
aVhttp://dbpedia.org/class/yago/CountriesBorderingTheBalticSea
p779
aVhttp://dbpedia.org/class/yago/EuropeanCountries
p780
aVhttp://dbpedia.org/class/yago/EuropeanUnionMemberEconomies
p781
aVhttp://dbpedia.org/class/yago/PhysicalEntity100001930
p782
aVhttp://dbpedia.org/class/yago/YagoPermanentlyLocatedEntity
p783
aVhttp://dbpedia.org/class/yago/MemberStatesOfTheCouncilOfEurope
p784
aVhttp://dbpedia.org/class/yago/MemberStatesOfTheEuropeanUnion
p785
aVhttp://dbpedia.org/class/yago/MemberStatesOfTheUnionForTheMediterranean
p786
aVhttp://dbpedia.org/class/yago/MemberStatesOfTheUnitedNations
p787
aVhttp://dbpedia.org/class/yago/NordicCountries
p788
aVhttp://dbpedia.org/class/yago/StatesAndTerritoriesEstablishedIn1918
p789
aVhttp://dbpedia.org/resource/Finland
tp790
aa(lp791
a(lp792
a(lp793
aa(lp794
(lp795
((lp796
Vhttp://www.w3.org/2002/07/owl#Thing
p797
aVhttp://dbpedia.org/ontology/Place
p798
aVhttp://dbpedia.org/ontology/Location
p799
aVhttp://www.wikidata.org/entity/Q4022
p800
aVhttp://www.wikidata.org/entity/Q47521
p801
aVhttp://dbpedia.org/ontology/BodyOfWater
p802
aVhttp://dbpedia.org/ontology/NaturalPlace
p803
aVhttp://dbpedia.org/ontology/River
p804
aVhttp://dbpedia.org/ontology/Stream
p805
aVhttp://schema.org/BodyOfWater
p806
aVhttp://schema.org/Place
p807
aVhttp://schema.org/RiverBodyOfWater
p808
aVhttp://umbel.org/umbel/rc/BodyOfWater
p809
aVhttp://umbel.org/umbel/rc/River
p810
aVhttp://umbel.org/umbel/rc/Stream
p811
aVhttp://dbpedia.org/class/yago/BodyOfWater109225146
p812
aVhttp://dbpedia.org/class/yago/Branch109228324
p813
aVhttp://dbpedia.org/class/yago/CanadianHeritageRivers
p814
aVhttp://dbpedia.org/class/yago/River109411430
p815
aVhttp://dbpedia.org/class/yago/Stream109448361
p816
aVhttp://dbpedia.org/class/yago/Thing100002452
p817
aVhttp://dbpedia.org/class/yago/YagoGeoEntity
p818
aVhttp://dbpedia.org/class/yago/Feeder109278997
p819
aVhttp://dbpedia.org/class/yago/PhysicalEntity100001930
p820
aVhttp://dbpedia.org/class/yago/YagoPermanentlyLocatedEntity
p821
aVhttp://dbpedia.org/class/yago/RiversOfOntario
p822
aVhttp://dbpedia.org/class/yago/TributariesOfLakeHuron
p823
aVhttp://dbpedia.org/resource/French_River_(Ontario)
tp824
aa(lp825
((lp826
Vhttp://www.w3.org/2002/07/owl#Thing
p827
aVhttp://dbpedia.org/ontology/Place
p828
aVhttp://dbpedia.org/ontology/Location
p829
aVhttp://www.wikidata.org/entity/Q486972
p830
aVhttp://www.wikidata.org/entity/Q6256
p831
aVhttp://dbpedia.org/ontology/Country
p832
aVhttp://dbpedia.org/ontology/PopulatedPlace
p833
aVhttp://www.w3.org/2003/01/geo/wgs84_pos#SpatialThing
p834
aVhttp://schema.org/Country
p835
aVhttp://schema.org/Place
p836
aVhttp://umbel.org/umbel/rc/Country
p837
aVhttp://umbel.org/umbel/rc/Location_Underspecified
p838
aVhttp://umbel.org/umbel/rc/PopulatedPlace
p839
aVhttp://dbpedia.org/class/yago/Abstraction100002137
p840
aVhttp://dbpedia.org/class/yago/AdministrativeDistrict108491826
p841
aVhttp://dbpedia.org/class/yago/Country108544813
p842
aVhttp://dbpedia.org/class/yago/District108552138
p843
aVhttp://dbpedia.org/class/yago/Economy108366753
p844
aVhttp://dbpedia.org/class/yago/Group100031264
p845
aVhttp://dbpedia.org/class/yago/Location100027167
p846
aVhttp://dbpedia.org/class/yago/Object100002684
p847
aVhttp://dbpedia.org/class/yago/Region108630985
p848
aVhttp://dbpedia.org/class/yago/System108435388
p849
aVhttp://dbpedia.org/class/yago/YagoGeoEntity
p850
aVhttp://dbpedia.org/class/yago/YagoLegalActorGeo
p851
aVhttp://dbpedia.org/class/yago/CountriesBorderingTheArcticOcean
p852
aVhttp://dbpedia.org/class/yago/CountriesBorderingTheAtlanticOcean
p853
aVhttp://dbpedia.org/class/yago/CountriesBorderingThePacificOcean
p854
aVhttp://dbpedia.org/class/yago/English-speakingCountriesAndTerritories
p855
aVhttp://dbpedia.org/class/yago/FederalCountries
p856
aVhttp://dbpedia.org/class/yago/French-speakingCountries
p857
aVhttp://dbpedia.org/class/yago/PhysicalEntity100001930
p858
aVhttp://dbpedia.org/class/yago/YagoPermanentlyLocatedEntity
p859
aVhttp://dbpedia.org/class/yago/MemberStatesOfLaFrancophonie
p860
aVhttp://dbpedia.org/class/yago/MemberStatesOfNATO
p861
aVhttp://dbpedia.org/class/yago/MemberStatesOfTheCommonwealthOfNations
p862
aVhttp://dbpedia.org/class/yago/MemberStatesOfTheUnitedNations
p863
aVhttp://dbpedia.org/class/yago/NorthernAmericanCountries
p864
aVhttp://dbpedia.org/class/yago/StatesAndTerritoriesEstablishedIn1867
p865
aVhttp://dbpedia.org/resource/Canada
tp866
aa(lp867
a(lp868
a(lp869
aa(lp870
(lp871
((lp872
Vhttp://www.w3.org/2002/07/owl#Thing
p873
aVhttp://dbpedia.org/ontology/Place
p874
aVhttp://dbpedia.org/ontology/Location
p875
aVhttp://www.wikidata.org/entity/Q4022
p876
aVhttp://www.wikidata.org/entity/Q47521
p877
aVhttp://dbpedia.org/ontology/BodyOfWater
p878
aVhttp://dbpedia.org/ontology/NaturalPlace
p879
aVhttp://dbpedia.org/ontology/River
p880
aVhttp://dbpedia.org/ontology/Stream
p881
aVhttp://schema.org/BodyOfWater
p882
aVhttp://schema.org/Place
p883
aVhttp://schema.org/RiverBodyOfWater
p884
aVhttp://umbel.org/umbel/rc/BodyOfWater
p885
aVhttp://umbel.org/umbel/rc/River
p886
aVhttp://umbel.org/umbel/rc/Stream
p887
aVhttp://dbpedia.org/class/yago/BodyOfWater109225146
p888
aVhttp://dbpedia.org/class/yago/Branch109228324
p889
aVhttp://dbpedia.org/class/yago/CanadianHeritageRivers
p890
aVhttp://dbpedia.org/class/yago/River109411430
p891
aVhttp://dbpedia.org/class/yago/Stream109448361
p892
aVhttp://dbpedia.org/class/yago/Thing100002452
p893
aVhttp://dbpedia.org/class/yago/YagoGeoEntity
p894
aVhttp://dbpedia.org/class/yago/Feeder109278997
p895
aVhttp://dbpedia.org/class/yago/PhysicalEntity100001930
p896
aVhttp://dbpedia.org/class/yago/YagoPermanentlyLocatedEntity
p897
aVhttp://dbpedia.org/class/yago/RiversOfOntario
p898
aVhttp://dbpedia.org/class/yago/TributariesOfLakeHuron
p899
aVhttp://dbpedia.org/resource/French_River_(Ontario)
tp900
aa(lp901
((lp902
Vhttp://www.w3.org/2002/07/owl#Thing
p903
aVhttp://umbel.org/umbel/rc/Business
p904
aVhttp://umbel.org/umbel/rc/Organization
p905
aVhttp://dbpedia.org/resource/France_2
tp906
aa(lp907
a(lp908
a(lp909
aa(lp910
(lp911
((lp912
Vhttp://www.w3.org/2002/07/owl#Thing
p913
aVhttp://dbpedia.org/ontology/Place
p914
aVhttp://dbpedia.org/ontology/Location
p915
aVhttp://www.wikidata.org/entity/Q486972
p916
aVhttp://www.wikidata.org/entity/Q6256
p917
aVhttp://dbpedia.org/ontology/Country
p918
aVhttp://dbpedia.org/ontology/PopulatedPlace
p919
aVhttp://www.w3.org/2003/01/geo/wgs84_pos#SpatialThing
p920
aVhttp://schema.org/Country
p921
aVhttp://schema.org/Place
p922
aVhttp://umbel.org/umbel/rc/Country
p923
aVhttp://umbel.org/umbel/rc/Location_Underspecified
p924
aVhttp://umbel.org/umbel/rc/PopulatedPlace
p925
aVhttp://dbpedia.org/class/yago/Abstraction100002137
p926
aVhttp://dbpedia.org/class/yago/AdministrativeDistrict108491826
p927
aVhttp://dbpedia.org/class/yago/AlpineCountries
p928
aVhttp://dbpedia.org/class/yago/Country108544813
p929
aVhttp://dbpedia.org/class/yago/District108552138
p930
aVhttp://dbpedia.org/class/yago/Economy108366753
p931
aVhttp://dbpedia.org/class/yago/Group100031264
p932
aVhttp://dbpedia.org/class/yago/Location100027167
p933
aVhttp://dbpedia.org/class/yago/Object100002684
p934
aVhttp://dbpedia.org/class/yago/Region108630985
p935
aVhttp://dbpedia.org/class/yago/System108435388
p936
aVhttp://dbpedia.org/class/yago/YagoGeoEntity
p937
aVhttp://dbpedia.org/class/yago/YagoLegalActorGeo
p938
aVhttp://dbpedia.org/class/yago/CountriesBorderingTheAtlanticOcean
p939
aVhttp://dbpedia.org/class/yago/CountriesBorderingTheBalticSea
p940
aVhttp://dbpedia.org/class/yago/EuropeanCountries
p941
aVhttp://dbpedia.org/class/yago/EuropeanUnionMemberEconomies
p942
aVhttp://dbpedia.org/class/yago/FederalCountries
p943
aVhttp://dbpedia.org/class/yago/PhysicalEntity100001930
p944
aVhttp://dbpedia.org/class/yago/YagoPermanentlyLocatedEntity
p945
aVhttp://dbpedia.org/class/yago/German-speakingCountries
p946
aVhttp://dbpedia.org/class/yago/MemberStatesOfNATO
p947
aVhttp://dbpedia.org/class/yago/MemberStatesOfTheEuropeanUnion
p948
aVhttp://dbpedia.org/class/yago/MemberStatesOfTheUnionForTheMediterranean
p949
aVhttp://dbpedia.org/class/yago/MemberStatesOfTheUnitedNations
p950
aVhttp://dbpedia.org/class/yago/StatesAndTerritoriesEstablishedIn1871
p951
aVhttp://dbpedia.org/resource/Germany
tp952
aa(lp953
((lp954
Vhttp://www.w3.org/2002/07/owl#Thing
p955
aVhttp://dbpedia.org/ontology/Place
p956
aVhttp://dbpedia.org/ontology/Location
p957
aVhttp://www.wikidata.org/entity/Q486972
p958
aVhttp://www.wikidata.org/entity/Q6256
p959
aVhttp://dbpedia.org/ontology/Country
p960
aVhttp://dbpedia.org/ontology/PopulatedPlace
p961
aVhttp://www.w3.org/2003/01/geo/wgs84_pos#SpatialThing
p962
aVhttp://schema.org/Country
p963
aVhttp://schema.org/Place
p964
aVhttp://umbel.org/umbel/rc/Country
p965
aVhttp://umbel.org/umbel/rc/Location_Underspecified
p966
aVhttp://umbel.org/umbel/rc/PopulatedPlace
p967
aVhttp://dbpedia.org/class/yago/Abstraction100002137
p968
aVhttp://dbpedia.org/class/yago/AdministrativeDistrict108491826
p969
aVhttp://dbpedia.org/class/yago/AlpineCountries
p970
aVhttp://dbpedia.org/class/yago/Country108544813
p971
aVhttp://dbpedia.org/class/yago/District108552138
p972
aVhttp://dbpedia.org/class/yago/Economy108366753
p973
aVhttp://dbpedia.org/class/yago/Group100031264
p974
aVhttp://dbpedia.org/class/yago/Location100027167
p975
aVhttp://dbpedia.org/class/yago/Object100002684
p976
aVhttp://dbpedia.org/class/yago/Region108630985
p977
aVhttp://dbpedia.org/class/yago/System108435388
p978
aVhttp://dbpedia.org/class/yago/YagoGeoEntity
p979
aVhttp://dbpedia.org/class/yago/YagoLegalActorGeo
p980
aVhttp://dbpedia.org/class/yago/CountriesBorderingTheAtlanticOcean
p981
aVhttp://dbpedia.org/class/yago/CountriesBorderingTheBalticSea
p982
aVhttp://dbpedia.org/class/yago/EuropeanCountries
p983
aVhttp://dbpedia.org/class/yago/EuropeanUnionMemberEconomies
p984
aVhttp://dbpedia.org/class/yago/FederalCountries
p985
aVhttp://dbpedia.org/class/yago/PhysicalEntity100001930
p986
aVhttp://dbpedia.org/class/yago/YagoPermanentlyLocatedEntity
p987
aVhttp://dbpedia.org/class/yago/German-speakingCountries
p988
aVhttp://dbpedia.org/class/yago/MemberStatesOfNATO
p989
aVhttp://dbpedia.org/class/yago/MemberStatesOfTheEuropeanUnion
p990
aVhttp://dbpedia.org/class/yago/MemberStatesOfTheUnionForTheMediterranean
p991
aVhttp://dbpedia.org/class/yago/MemberStatesOfTheUnitedNations
p992
aVhttp://dbpedia.org/class/yago/StatesAndTerritoriesEstablishedIn1871
p993
aVhttp://dbpedia.org/resource/Germany
tp994
aa(lp995
a(lp996
a(lp997
aa(lp998
(lp999
((lp1000
Vhttp://dbpedia.org/class/yago/Abstraction100002137
p1001
aVhttp://dbpedia.org/class/yago/Act100030358
p1002
aVhttp://dbpedia.org/class/yago/Activity100407535
p1003
aVhttp://dbpedia.org/class/yago/Event100029378
p1004
aVhttp://dbpedia.org/class/yago/Order101009871
p1005
aVhttp://dbpedia.org/class/yago/Succession101010458
p1006
aVhttp://dbpedia.org/class/yago/ChessOpenings
p1007
aVhttp://dbpedia.org/class/yago/Opening100457890
p1008
aVhttp://dbpedia.org/class/yago/PsychologicalFeature100023100
p1009
aVhttp://dbpedia.org/class/yago/YagoPermanentlyLocatedEntity
p1010
aVhttp://dbpedia.org/class/yago/Organization101008378
p1011
aVhttp://dbpedia.org/resource/Italian_Gambit
tp1012
aa(lp1013
((lp1014
Vhttp://www.w3.org/2002/07/owl#Thing
p1015
aVhttp://dbpedia.org/ontology/Place
p1016
aVhttp://dbpedia.org/ontology/Location
p1017
aVhttp://www.wikidata.org/entity/Q486972
p1018
aVhttp://www.wikidata.org/entity/Q6256
p1019
aVhttp://dbpedia.org/ontology/Country
p1020
aVhttp://dbpedia.org/ontology/PopulatedPlace
p1021
aVhttp://www.w3.org/2003/01/geo/wgs84_pos#SpatialThing
p1022
aVhttp://schema.org/Country
p1023
aVhttp://schema.org/Place
p1024
aVhttp://umbel.org/umbel/rc/Country
p1025
aVhttp://umbel.org/umbel/rc/Location_Underspecified
p1026
aVhttp://umbel.org/umbel/rc/PopulatedPlace
p1027
aVhttp://dbpedia.org/class/yago/Abstraction100002137
p1028
aVhttp://dbpedia.org/class/yago/AdministrativeDistrict108491826
p1029
aVhttp://dbpedia.org/class/yago/AlpineCountries
p1030
aVhttp://dbpedia.org/class/yago/BicontinentalCountries
p1031
aVhttp://dbpedia.org/class/yago/Country108544813
p1032
aVhttp://dbpedia.org/class/yago/District108552138
p1033
aVhttp://dbpedia.org/class/yago/Economy108366753
p1034
aVhttp://dbpedia.org/class/yago/Group100031264
p1035
aVhttp://dbpedia.org/class/yago/Location100027167
p1036
aVhttp://dbpedia.org/class/yago/Object100002684
p1037
aVhttp://dbpedia.org/class/yago/Region108630985
p1038
aVhttp://dbpedia.org/class/yago/System108435388
p1039
aVhttp://dbpedia.org/class/yago/YagoGeoEntity
p1040
aVhttp://dbpedia.org/class/yago/YagoLegalActorGeo
p1041
aVhttp://dbpedia.org/class/yago/CountriesOfTheMediterraneanSea
p1042
aVhttp://dbpedia.org/class/yago/EuropeanCountries
p1043
aVhttp://dbpedia.org/class/yago/EuropeanUnionMemberEconomies
p1044
aVhttp://dbpedia.org/class/yago/PhysicalEntity100001930
p1045
aVhttp://dbpedia.org/class/yago/YagoPermanentlyLocatedEntity
p1046
aVhttp://dbpedia.org/class/yago/Italian-speakingCountries
p1047
aVhttp://dbpedia.org/class/yago/MemberStatesOfNATO
p1048
aVhttp://dbpedia.org/class/yago/MemberStatesOfTheCouncilOfEurope
p1049
aVhttp://dbpedia.org/class/yago/MemberStatesOfTheEuropeanUnion
p1050
aVhttp://dbpedia.org/class/yago/MemberStatesOfTheUnionForTheMediterranean
p1051
aVhttp://dbpedia.org/class/yago/MemberStatesOfTheUnitedNations
p1052
aVhttp://dbpedia.org/class/yago/StatesAndTerritoriesEstablishedIn1861
p1053
aVhttp://dbpedia.org/resource/Italy
tp1054
aa(lp1055
a(lp1056
a(lp1057
aa(lp1058
(lp1059
((lp1060
Vhttp://dbpedia.org/class/yago/Abstraction100002137
p1061
aVhttp://dbpedia.org/class/yago/BuyeoLanguages
p1062
aVhttp://dbpedia.org/class/yago/Class107997703
p1063
aVhttp://dbpedia.org/class/yago/Collection107951464
p1064
aVhttp://dbpedia.org/class/yago/Communication100033020
p1065
aVhttp://dbpedia.org/class/yago/Group100031264
p1066
aVhttp://dbpedia.org/class/yago/Language106282651
p1067
aVhttp://dbpedia.org/class/yago/JaponicLanguages
p1068
aVhttp://dbpedia.org/resource/Japonic_languages
tp1069
aa(lp1070
((lp1071
Vhttp://www.w3.org/2002/07/owl#Thing
p1072
aVhttp://dbpedia.org/ontology/Place
p1073
aVhttp://dbpedia.org/ontology/Location
p1074
aVhttp://www.wikidata.org/entity/Q486972
p1075
aVhttp://www.wikidata.org/entity/Q6256
p1076
aVhttp://dbpedia.org/ontology/Country
p1077
aVhttp://dbpedia.org/ontology/PopulatedPlace
p1078
aVhttp://www.w3.org/2003/01/geo/wgs84_pos#SpatialThing
p1079
aVhttp://schema.org/Country
p1080
aVhttp://schema.org/Place
p1081
aVhttp://umbel.org/umbel/rc/Country
p1082
aVhttp://umbel.org/umbel/rc/Location_Underspecified
p1083
aVhttp://umbel.org/umbel/rc/PopulatedPlace
p1084
aVhttp://dbpedia.org/class/yago/Abstraction100002137
p1085
aVhttp://dbpedia.org/class/yago/AdministrativeDistrict108491826
p1086
aVhttp://dbpedia.org/class/yago/Country108544813
p1087
aVhttp://dbpedia.org/class/yago/District108552138
p1088
aVhttp://dbpedia.org/class/yago/Domain108556491
p1089
aVhttp://dbpedia.org/class/yago/Economy108366753
p1090
aVhttp://dbpedia.org/class/yago/Group100031264
p1091
aVhttp://dbpedia.org/class/yago/Location100027167
p1092
aVhttp://dbpedia.org/class/yago/Object100002684
p1093
aVhttp://dbpedia.org/class/yago/Region108630985
p1094
aVhttp://dbpedia.org/class/yago/System108435388
p1095
aVhttp://dbpedia.org/class/yago/YagoGeoEntity
p1096
aVhttp://dbpedia.org/class/yago/YagoLegalActorGeo
p1097
aVhttp://dbpedia.org/class/yago/CountriesBorderingThePacificOcean
p1098
aVhttp://dbpedia.org/class/yago/CountriesBorderingThePhilippineSea
p1099
aVhttp://dbpedia.org/class/yago/EastAsianCountries
p1100
aVhttp://dbpedia.org/class/yago/Empire108557482
p1101
aVhttp://dbpedia.org/class/yago/Empires
p1102
aVhttp://dbpedia.org/class/yago/PhysicalEntity100001930
p1103
aVhttp://dbpedia.org/class/yago/YagoPermanentlyLocatedEntity
p1104
aVhttp://dbpedia.org/class/yago/IslandCountries
p1105
aVhttp://dbpedia.org/class/yago/MemberStatesOfTheUnitedNations
p1106
aVhttp://dbpedia.org/class/yago/StatesAndTerritoriesEstablishedIn660BC
p1107
aVhttp://dbpedia.org/resource/Japan
tp1108
aa(lp1109
a(lp1110
a(lp1111
aa(lp1112
(lp1113
((lp1114
Vhttp://www.w3.org/2002/07/owl#Thing
p1115
aVhttp://dbpedia.org/ontology/Place
p1116
aVhttp://dbpedia.org/ontology/Location
p1117
aVhttp://schema.org/Place
p1118
aVhttp://dbpedia.org/class/yago/Land109334396
p1119
aVhttp://dbpedia.org/class/yago/Object100002684
p1120
aVhttp://dbpedia.org/class/yago/Peninsula109388848
p1121
aVhttp://dbpedia.org/class/yago/YagoGeoEntity
p1122
aVhttp://dbpedia.org/class/yago/PhysicalEntity100001930
p1123
aVhttp://dbpedia.org/class/yago/YagoPermanentlyLocatedEntity
p1124
aVhttp://dbpedia.org/class/yago/PeninsulasOfAsia
p1125
aVhttp://dbpedia.org/resource/Korean_Peninsula
tp1126
aa(lp1127
((lp1128
Vhttp://www.w3.org/2002/07/owl#Thing
p1129
aVhttp://dbpedia.org/ontology/Place
p1130
aVhttp://dbpedia.org/ontology/Location
p1131
aVhttp://schema.org/Place
p1132
aVhttp://dbpedia.org/class/yago/Land109334396
p1133
aVhttp://dbpedia.org/class/yago/Object100002684
p1134
aVhttp://dbpedia.org/class/yago/Peninsula109388848
p1135
aVhttp://dbpedia.org/class/yago/YagoGeoEntity
p1136
aVhttp://dbpedia.org/class/yago/PhysicalEntity100001930
p1137
aVhttp://dbpedia.org/class/yago/YagoPermanentlyLocatedEntity
p1138
aVhttp://dbpedia.org/class/yago/PeninsulasOfAsia
p1139
aVhttp://dbpedia.org/resource/Korean_Peninsula
tp1140
aa(lp1141
a(lp1142
a(lp1143
aa(lp1144
(lp1145
a(lp1146
((lp1147
Vhttp://www.w3.org/2002/07/owl#Thing
p1148
aVhttp://umbel.org/umbel/rc/Country
p1149
aVhttp://umbel.org/umbel/rc/Location_Underspecified
p1150
aVhttp://umbel.org/umbel/rc/PopulatedPlace
p1151
aVhttp://dbpedia.org/class/yago/Abstraction100002137
p1152
aVhttp://dbpedia.org/class/yago/AdministrativeDistrict108491826
p1153
aVhttp://dbpedia.org/class/yago/Country108544813
p1154
aVhttp://dbpedia.org/class/yago/District108552138
p1155
aVhttp://dbpedia.org/class/yago/Economy108366753
p1156
aVhttp://dbpedia.org/class/yago/Group100031264
p1157
aVhttp://dbpedia.org/class/yago/Location100027167
p1158
aVhttp://dbpedia.org/class/yago/Object100002684
p1159
aVhttp://dbpedia.org/class/yago/Region108630985
p1160
aVhttp://dbpedia.org/class/yago/System108435388
p1161
aVhttp://dbpedia.org/class/yago/YagoGeoEntity
p1162
aVhttp://dbpedia.org/class/yago/YagoLegalActorGeo
p1163
aVhttp://dbpedia.org/class/yago/CountriesBorderingTheArcticOcean
p1164
aVhttp://dbpedia.org/class/yago/CountriesBorderingTheAtlanticOcean
p1165
aVhttp://dbpedia.org/class/yago/EuropeanCountries
p1166
aVhttp://dbpedia.org/class/yago/PhysicalEntity100001930
p1167
aVhttp://dbpedia.org/class/yago/YagoPermanentlyLocatedEntity
p1168
aVhttp://dbpedia.org/class/yago/MemberStatesOfNATO
p1169
aVhttp://dbpedia.org/class/yago/MemberStatesOfTheUnitedNations
p1170
aVhttp://dbpedia.org/class/yago/NordicCountries
p1171
aVhttp://dbpedia.org/class/yago/StatesAndTerritoriesEstablishedIn1905
p1172
aVhttp://dbpedia.org/class/yago/StatesAndTerritoriesEstablishedIn872
p1173
aVhttp://dbpedia.org/class/yago/WorldTradeOrganizationMemberEconomies
p1174
aVhttp://dbpedia.org/resource/Norway
tp1175
aa(lp1176
a(lp1177
a(lp1178
aa(lp1179
(lp1180
((lp1181
Vhttp://www.w3.org/2002/07/owl#Thing
p1182
aVhttp://dbpedia.org/resource/Polish_cuisine
tp1183
aa(lp1184
((lp1185
Vhttp://www.w3.org/2002/07/owl#Thing
p1186
aVhttp://dbpedia.org/ontology/Place
p1187
aVhttp://dbpedia.org/ontology/Location
p1188
aVhttp://www.wikidata.org/entity/Q486972
p1189
aVhttp://www.wikidata.org/entity/Q6256
p1190
aVhttp://dbpedia.org/ontology/Country
p1191
aVhttp://dbpedia.org/ontology/PopulatedPlace
p1192
aVhttp://www.w3.org/2003/01/geo/wgs84_pos#SpatialThing
p1193
aVhttp://schema.org/Country
p1194
aVhttp://schema.org/Place
p1195
aVhttp://umbel.org/umbel/rc/Country
p1196
aVhttp://umbel.org/umbel/rc/Location_Underspecified
p1197
aVhttp://umbel.org/umbel/rc/PopulatedPlace
p1198
aVhttp://dbpedia.org/class/yago/Abstraction100002137
p1199
aVhttp://dbpedia.org/class/yago/AdministrativeDistrict108491826
p1200
aVhttp://dbpedia.org/class/yago/Country108544813
p1201
aVhttp://dbpedia.org/class/yago/District108552138
p1202
aVhttp://dbpedia.org/class/yago/Economy108366753
p1203
aVhttp://dbpedia.org/class/yago/Group100031264
p1204
aVhttp://dbpedia.org/class/yago/Location100027167
p1205
aVhttp://dbpedia.org/class/yago/Object100002684
p1206
aVhttp://dbpedia.org/class/yago/Region108630985
p1207
aVhttp://dbpedia.org/class/yago/System108435388
p1208
aVhttp://dbpedia.org/class/yago/YagoGeoEntity
p1209
aVhttp://dbpedia.org/class/yago/YagoLegalActorGeo
p1210
aVhttp://dbpedia.org/class/yago/CountriesBorderingTheBalticSea
p1211
aVhttp://dbpedia.org/class/yago/EuropeanCountries
p1212
aVhttp://dbpedia.org/class/yago/EuropeanUnionMemberEconomies
p1213
aVhttp://dbpedia.org/class/yago/PhysicalEntity100001930
p1214
aVhttp://dbpedia.org/class/yago/YagoPermanentlyLocatedEntity
p1215
aVhttp://dbpedia.org/class/yago/MemberStatesOfNATO
p1216
aVhttp://dbpedia.org/class/yago/MemberStatesOfTheEuropeanUnion
p1217
aVhttp://dbpedia.org/class/yago/MemberStatesOfTheUnionForTheMediterranean
p1218
aVhttp://dbpedia.org/class/yago/MemberStatesOfTheUnitedNations
p1219
aVhttp://dbpedia.org/class/yago/SlavicCountries
p1220
aVhttp://dbpedia.org/class/yago/StatesAndTerritoriesEstablishedIn1918
p1221
aVhttp://dbpedia.org/class/yago/WorldTradeOrganizationMemberEconomies
p1222
aVhttp://dbpedia.org/resource/Poland
p1223
tp1224
aa(lp1225
a(lp1226
a(lp1227
aa.