(lp1
(lp2
(dp3
Vstart
p4
I0
sVdisambiguatedURL
p5
Vhttp://dbpedia.org/resource/Catalan
p6
sVnamedEntity
p7
VCatalan
p8
sVoffset
p9
I7
saa(lp10
(dp11
Vstart
p12
I0
sVdisambiguatedURL
p13
NsVnamedEntity
p14
VChinese (Hong Kong)
p15
sVoffset
p16
I19
saa(lp17
(dp18
Vstart
p19
I0
sVdisambiguatedURL
p20
Vhttp://dbpedia.org/resource/Simplified_Chinese_characters
p21
sVnamedEntity
p22
VChinese (Simplified)
p23
sVoffset
p24
I20
saa(lp25
(dp26
Vstart
p27
I0
sVdisambiguatedURL
p28
Vhttp://dbpedia.org/resource/Traditional_Chinese_characters
p29
sVnamedEntity
p30
VChinese (Traditional)
p31
sVoffset
p32
I21
saa(lp33
(dp34
Vstart
p35
I0
sVdisambiguatedURL
p36
Vhttp://dbpedia.org/resource/Danish_(name)
p37
sVnamedEntity
p38
VDanish
p39
sVoffset
p40
I6
saa(lp41
(dp42
Vstart
p43
I0
sVdisambiguatedURL
p44
Vhttp://dbpedia.org/resource/Dutch_Boyd
p45
sVnamedEntity
p46
VDutch
p47
sVoffset
p48
I5
saa(lp49
(dp50
Vstart
p51
I0
sVdisambiguatedURL
p52
Vhttp://dbpedia.org/resource/English,_Indiana
p53
sVnamedEntity
p54
VEnglish
p55
sVoffset
p56
I7
saa(lp57
(dp58
Vstart
p59
I0
sVdisambiguatedURL
p60
Vhttp://dbpedia.org/resource/English,_Indiana
p61
sVnamedEntity
p62
VEnglish
p63
sVoffset
p64
I7
saa(lp65
(dp66
Vstart
p67
I0
sVdisambiguatedURL
p68
Vhttp://dbpedia.org/resource/English,_Indiana
p69
sVnamedEntity
p70
VEnglish
p71
sVoffset
p72
I7
saa(lp73
(dp74
Vstart
p75
I0
sVdisambiguatedURL
p76
Vhttp://dbpedia.org/resource/English,_Indiana
p77
sVnamedEntity
p78
VEnglish
p79
sVoffset
p80
I7
saa(lp81
(dp82
Vstart
p83
I0
sVdisambiguatedURL
p84
Vhttp://dbpedia.org/resource/English,_Indiana
p85
sVnamedEntity
p86
VEnglish
p87
sVoffset
p88
I7
saa(lp89
(dp90
Vstart
p91
I0
sVdisambiguatedURL
p92
Vhttp://dbpedia.org/resource/Finnish_cuisine
p93
sVnamedEntity
p94
VFinnish
p95
sVoffset
p96
I7
saa(lp97
(dp98
Vstart
p99
I0
sVdisambiguatedURL
p100
Vhttp://dbpedia.org/resource/French_River_(Ontario)
p101
sVnamedEntity
p102
VFrench
p103
sVoffset
p104
I6
saa(lp105
(dp106
Vstart
p107
I0
sVdisambiguatedURL
p108
Vhttp://dbpedia.org/resource/French_River_(Ontario)
p109
sVnamedEntity
p110
VFrench
p111
sVoffset
p112
I6
saa(lp113
(dp114
Vstart
p115
I0
sVdisambiguatedURL
p116
Vhttp://dbpedia.org/resource/Germany
p117
sVnamedEntity
p118
VGerman
p119
sVoffset
p120
I6
saa(lp121
(dp122
Vstart
p123
I0
sVdisambiguatedURL
p124
Vhttp://dbpedia.org/resource/Italian_Gambit
p125
sVnamedEntity
p126
VItalian
p127
sVoffset
p128
I7
saa(lp129
(dp130
Vstart
p131
I0
sVdisambiguatedURL
p132
Vhttp://dbpedia.org/resource/Japonic_languages
p133
sVnamedEntity
p134
VJapanese
p135
sVoffset
p136
I8
saa(lp137
(dp138
Vstart
p139
I0
sVdisambiguatedURL
p140
Vhttp://dbpedia.org/resource/Korean_Peninsula
p141
sVnamedEntity
p142
VKorean
p143
sVoffset
p144
I6
saa(lp145
(dp146
Vstart
p147
I0
sVdisambiguatedURL
p148
NsVnamedEntity
p149
VNorwegian (Bokmal)
p150
sVoffset
p151
I18
saa(lp152
(dp153
Vstart
p154
I0
sVdisambiguatedURL
p155
Vhttp://dbpedia.org/resource/Polish_cuisine
p156
sVnamedEntity
p157
VPolish
p158
sVoffset
p159
I6
saa.