(lp1
(lp2
(dp3
Vstart
p4
I0
sVdisambiguatedURL
p5
NsVnamedEntity
p6
Vaccident investigation (2012)
p7
sVoffset
p8
I29
saa(lp9
(dp10
Vstart
p11
I0
sVdisambiguatedURL
p12
NsVnamedEntity
p13
Vthe foundering of fishing vessel ida
p14
sVoffset
p15
I36
saa.