(lp1
(lp2
a(lp3
(dp4
Vstart
p5
I0
sS'classes'
p6
(lp7
Vhttp://www.w3.org/2002/07/owl#Thing
p8
aVhttp://dbpedia.org/ontology/Place
p9
aVhttp://dbpedia.org/ontology/Location
p10
aVhttp://www.wikidata.org/entity/Q3957
p11
aVhttp://www.wikidata.org/entity/Q486972
p12
aVhttp://dbpedia.org/ontology/PopulatedPlace
p13
aVhttp://dbpedia.org/ontology/Settlement
p14
aVhttp://dbpedia.org/ontology/Town
p15
aVhttp://www.w3.org/2003/01/geo/wgs84_pos#SpatialThing
p16
aVhttp://schema.org/Place
p17
aVhttp://umbel.org/umbel/rc/Town
p18
aVhttp://dbpedia.org/class/yago/AdministrativeDistrict108491826
p19
aVhttp://dbpedia.org/class/yago/Area108497294
p20
aVhttp://dbpedia.org/class/yago/Center108523483
p21
aVhttp://dbpedia.org/class/yago/District108552138
p22
aVhttp://dbpedia.org/class/yago/Location100027167
p23
aVhttp://dbpedia.org/class/yago/Object100002684
p24
aVhttp://dbpedia.org/class/yago/Region108630985
p25
aVhttp://dbpedia.org/class/yago/Seat108647945
p26
aVhttp://dbpedia.org/class/yago/Site108651247
p27
aVhttp://dbpedia.org/class/yago/Town108665504
p28
aVhttp://dbpedia.org/class/yago/Tract108673395
p29
aVhttp://dbpedia.org/class/yago/UrbanArea108675967
p30
aVhttp://dbpedia.org/class/yago/YagoGeoEntity
p31
aVhttp://dbpedia.org/class/yago/YagoLegalActorGeo
p32
aVhttp://dbpedia.org/class/yago/CountySeat108547143
p33
aVhttp://dbpedia.org/class/yago/CountySeatsInIndiana
p34
aVhttp://dbpedia.org/class/yago/GeographicalArea108574314
p35
aVhttp://dbpedia.org/class/yago/Municipality108626283
p36
aVhttp://dbpedia.org/class/yago/PhysicalEntity100001930
p37
aVhttp://dbpedia.org/class/yago/YagoPermanentlyLocatedEntity
p38
aVhttp://dbpedia.org/class/yago/PopulatedPlacesInCrawfordCounty,Indiana
p39
aVhttp://dbpedia.org/class/yago/TownsInIndiana
p40
asVdisambiguatedURL
p41
Vhttp://dbpedia.org/resource/English,_Indiana
p42
sVnamedEntity
p43
VEnglish
p44
sVoffset
p45
I7
saa(lp46
(dp47
Vstart
p48
I0
sg6
(lp49
Vhttp://www.w3.org/2002/07/owl#Thing
p50
aVhttp://dbpedia.org/ontology/Place
p51
aVhttp://dbpedia.org/ontology/Location
p52
aVhttp://www.wikidata.org/entity/Q3957
p53
aVhttp://www.wikidata.org/entity/Q486972
p54
aVhttp://dbpedia.org/ontology/PopulatedPlace
p55
aVhttp://dbpedia.org/ontology/Settlement
p56
aVhttp://dbpedia.org/ontology/Town
p57
aVhttp://www.w3.org/2003/01/geo/wgs84_pos#SpatialThing
p58
aVhttp://schema.org/Place
p59
aVhttp://umbel.org/umbel/rc/Town
p60
aVhttp://dbpedia.org/class/yago/AdministrativeDistrict108491826
p61
aVhttp://dbpedia.org/class/yago/Area108497294
p62
aVhttp://dbpedia.org/class/yago/Center108523483
p63
aVhttp://dbpedia.org/class/yago/District108552138
p64
aVhttp://dbpedia.org/class/yago/Location100027167
p65
aVhttp://dbpedia.org/class/yago/Object100002684
p66
aVhttp://dbpedia.org/class/yago/Region108630985
p67
aVhttp://dbpedia.org/class/yago/Seat108647945
p68
aVhttp://dbpedia.org/class/yago/Site108651247
p69
aVhttp://dbpedia.org/class/yago/Town108665504
p70
aVhttp://dbpedia.org/class/yago/Tract108673395
p71
aVhttp://dbpedia.org/class/yago/UrbanArea108675967
p72
aVhttp://dbpedia.org/class/yago/YagoGeoEntity
p73
aVhttp://dbpedia.org/class/yago/YagoLegalActorGeo
p74
aVhttp://dbpedia.org/class/yago/CountySeat108547143
p75
aVhttp://dbpedia.org/class/yago/CountySeatsInIndiana
p76
aVhttp://dbpedia.org/class/yago/GeographicalArea108574314
p77
aVhttp://dbpedia.org/class/yago/Municipality108626283
p78
aVhttp://dbpedia.org/class/yago/PhysicalEntity100001930
p79
aVhttp://dbpedia.org/class/yago/YagoPermanentlyLocatedEntity
p80
aVhttp://dbpedia.org/class/yago/PopulatedPlacesInCrawfordCounty,Indiana
p81
aVhttp://dbpedia.org/class/yago/TownsInIndiana
p82
asVdisambiguatedURL
p83
Vhttp://dbpedia.org/resource/English,_Indiana
p84
sVnamedEntity
p85
VEnglish
p86
sVoffset
p87
I7
saa(lp88
(dp89
Vstart
p90
I0
sg6
(lp91
Vhttp://www.w3.org/2002/07/owl#Thing
p92
aVhttp://dbpedia.org/ontology/Place
p93
aVhttp://dbpedia.org/ontology/Location
p94
aVhttp://www.wikidata.org/entity/Q3957
p95
aVhttp://www.wikidata.org/entity/Q486972
p96
aVhttp://dbpedia.org/ontology/PopulatedPlace
p97
aVhttp://dbpedia.org/ontology/Settlement
p98
aVhttp://dbpedia.org/ontology/Town
p99
aVhttp://www.w3.org/2003/01/geo/wgs84_pos#SpatialThing
p100
aVhttp://schema.org/Place
p101
aVhttp://umbel.org/umbel/rc/Town
p102
aVhttp://dbpedia.org/class/yago/AdministrativeDistrict108491826
p103
aVhttp://dbpedia.org/class/yago/Area108497294
p104
aVhttp://dbpedia.org/class/yago/Center108523483
p105
aVhttp://dbpedia.org/class/yago/District108552138
p106
aVhttp://dbpedia.org/class/yago/Location100027167
p107
aVhttp://dbpedia.org/class/yago/Object100002684
p108
aVhttp://dbpedia.org/class/yago/Region108630985
p109
aVhttp://dbpedia.org/class/yago/Seat108647945
p110
aVhttp://dbpedia.org/class/yago/Site108651247
p111
aVhttp://dbpedia.org/class/yago/Town108665504
p112
aVhttp://dbpedia.org/class/yago/Tract108673395
p113
aVhttp://dbpedia.org/class/yago/UrbanArea108675967
p114
aVhttp://dbpedia.org/class/yago/YagoGeoEntity
p115
aVhttp://dbpedia.org/class/yago/YagoLegalActorGeo
p116
aVhttp://dbpedia.org/class/yago/CountySeat108547143
p117
aVhttp://dbpedia.org/class/yago/CountySeatsInIndiana
p118
aVhttp://dbpedia.org/class/yago/GeographicalArea108574314
p119
aVhttp://dbpedia.org/class/yago/Municipality108626283
p120
aVhttp://dbpedia.org/class/yago/PhysicalEntity100001930
p121
aVhttp://dbpedia.org/class/yago/YagoPermanentlyLocatedEntity
p122
aVhttp://dbpedia.org/class/yago/PopulatedPlacesInCrawfordCounty,Indiana
p123
aVhttp://dbpedia.org/class/yago/TownsInIndiana
p124
asVdisambiguatedURL
p125
Vhttp://dbpedia.org/resource/English,_Indiana
p126
sVnamedEntity
p127
VEnglish
p128
sVoffset
p129
I7
saa(lp130
(dp131
Vstart
p132
I0
sg6
(lp133
Vhttp://www.w3.org/2002/07/owl#Thing
p134
aVhttp://dbpedia.org/ontology/Place
p135
aVhttp://dbpedia.org/ontology/Location
p136
aVhttp://www.wikidata.org/entity/Q3957
p137
aVhttp://www.wikidata.org/entity/Q486972
p138
aVhttp://dbpedia.org/ontology/PopulatedPlace
p139
aVhttp://dbpedia.org/ontology/Settlement
p140
aVhttp://dbpedia.org/ontology/Town
p141
aVhttp://www.w3.org/2003/01/geo/wgs84_pos#SpatialThing
p142
aVhttp://schema.org/Place
p143
aVhttp://umbel.org/umbel/rc/Town
p144
aVhttp://dbpedia.org/class/yago/AdministrativeDistrict108491826
p145
aVhttp://dbpedia.org/class/yago/Area108497294
p146
aVhttp://dbpedia.org/class/yago/Center108523483
p147
aVhttp://dbpedia.org/class/yago/District108552138
p148
aVhttp://dbpedia.org/class/yago/Location100027167
p149
aVhttp://dbpedia.org/class/yago/Object100002684
p150
aVhttp://dbpedia.org/class/yago/Region108630985
p151
aVhttp://dbpedia.org/class/yago/Seat108647945
p152
aVhttp://dbpedia.org/class/yago/Site108651247
p153
aVhttp://dbpedia.org/class/yago/Town108665504
p154
aVhttp://dbpedia.org/class/yago/Tract108673395
p155
aVhttp://dbpedia.org/class/yago/UrbanArea108675967
p156
aVhttp://dbpedia.org/class/yago/YagoGeoEntity
p157
aVhttp://dbpedia.org/class/yago/YagoLegalActorGeo
p158
aVhttp://dbpedia.org/class/yago/CountySeat108547143
p159
aVhttp://dbpedia.org/class/yago/CountySeatsInIndiana
p160
aVhttp://dbpedia.org/class/yago/GeographicalArea108574314
p161
aVhttp://dbpedia.org/class/yago/Municipality108626283
p162
aVhttp://dbpedia.org/class/yago/PhysicalEntity100001930
p163
aVhttp://dbpedia.org/class/yago/YagoPermanentlyLocatedEntity
p164
aVhttp://dbpedia.org/class/yago/PopulatedPlacesInCrawfordCounty,Indiana
p165
aVhttp://dbpedia.org/class/yago/TownsInIndiana
p166
asVdisambiguatedURL
p167
Vhttp://dbpedia.org/resource/English,_Indiana
p168
sVnamedEntity
p169
VEnglish
p170
sVoffset
p171
I7
saa(lp172
(dp173
Vstart
p174
I0
sg6
(lp175
Vhttp://www.w3.org/2002/07/owl#Thing
p176
aVhttp://dbpedia.org/ontology/Place
p177
aVhttp://dbpedia.org/ontology/Location
p178
aVhttp://www.wikidata.org/entity/Q3957
p179
aVhttp://www.wikidata.org/entity/Q486972
p180
aVhttp://dbpedia.org/ontology/PopulatedPlace
p181
aVhttp://dbpedia.org/ontology/Settlement
p182
aVhttp://dbpedia.org/ontology/Town
p183
aVhttp://www.w3.org/2003/01/geo/wgs84_pos#SpatialThing
p184
aVhttp://schema.org/Place
p185
aVhttp://umbel.org/umbel/rc/Town
p186
aVhttp://dbpedia.org/class/yago/AdministrativeDistrict108491826
p187
aVhttp://dbpedia.org/class/yago/Area108497294
p188
aVhttp://dbpedia.org/class/yago/Center108523483
p189
aVhttp://dbpedia.org/class/yago/District108552138
p190
aVhttp://dbpedia.org/class/yago/Location100027167
p191
aVhttp://dbpedia.org/class/yago/Object100002684
p192
aVhttp://dbpedia.org/class/yago/Region108630985
p193
aVhttp://dbpedia.org/class/yago/Seat108647945
p194
aVhttp://dbpedia.org/class/yago/Site108651247
p195
aVhttp://dbpedia.org/class/yago/Town108665504
p196
aVhttp://dbpedia.org/class/yago/Tract108673395
p197
aVhttp://dbpedia.org/class/yago/UrbanArea108675967
p198
aVhttp://dbpedia.org/class/yago/YagoGeoEntity
p199
aVhttp://dbpedia.org/class/yago/YagoLegalActorGeo
p200
aVhttp://dbpedia.org/class/yago/CountySeat108547143
p201
aVhttp://dbpedia.org/class/yago/CountySeatsInIndiana
p202
aVhttp://dbpedia.org/class/yago/GeographicalArea108574314
p203
aVhttp://dbpedia.org/class/yago/Municipality108626283
p204
aVhttp://dbpedia.org/class/yago/PhysicalEntity100001930
p205
aVhttp://dbpedia.org/class/yago/YagoPermanentlyLocatedEntity
p206
aVhttp://dbpedia.org/class/yago/PopulatedPlacesInCrawfordCounty,Indiana
p207
aVhttp://dbpedia.org/class/yago/TownsInIndiana
p208
asVdisambiguatedURL
p209
Vhttp://dbpedia.org/resource/English,_Indiana
p210
sVnamedEntity
p211
VEnglish
p212
sVoffset
p213
I7
saa(lp214
(dp215
Vstart
p216
I0
sg6
(lp217
Vhttp://www.w3.org/2002/07/owl#Thing
p218
aVhttp://dbpedia.org/ontology/Place
p219
aVhttp://dbpedia.org/ontology/Location
p220
aVhttp://www.wikidata.org/entity/Q4022
p221
aVhttp://www.wikidata.org/entity/Q47521
p222
aVhttp://dbpedia.org/ontology/BodyOfWater
p223
aVhttp://dbpedia.org/ontology/NaturalPlace
p224
aVhttp://dbpedia.org/ontology/River
p225
aVhttp://dbpedia.org/ontology/Stream
p226
aVhttp://schema.org/BodyOfWater
p227
aVhttp://schema.org/Place
p228
aVhttp://schema.org/RiverBodyOfWater
p229
aVhttp://umbel.org/umbel/rc/BodyOfWater
p230
aVhttp://umbel.org/umbel/rc/River
p231
aVhttp://umbel.org/umbel/rc/Stream
p232
aVhttp://dbpedia.org/class/yago/BodyOfWater109225146
p233
aVhttp://dbpedia.org/class/yago/Branch109228324
p234
aVhttp://dbpedia.org/class/yago/CanadianHeritageRivers
p235
aVhttp://dbpedia.org/class/yago/River109411430
p236
aVhttp://dbpedia.org/class/yago/Stream109448361
p237
aVhttp://dbpedia.org/class/yago/Thing100002452
p238
aVhttp://dbpedia.org/class/yago/YagoGeoEntity
p239
aVhttp://dbpedia.org/class/yago/Feeder109278997
p240
aVhttp://dbpedia.org/class/yago/PhysicalEntity100001930
p241
aVhttp://dbpedia.org/class/yago/YagoPermanentlyLocatedEntity
p242
aVhttp://dbpedia.org/class/yago/RiversOfOntario
p243
aVhttp://dbpedia.org/class/yago/TributariesOfLakeHuron
p244
asVdisambiguatedURL
p245
Vhttp://dbpedia.org/resource/French_River_(Ontario)
p246
sVnamedEntity
p247
VFrench
p248
sVoffset
p249
I6
saa(lp250
(dp251
Vstart
p252
I0
sg6
(lp253
Vhttp://dbpedia.org/class/yago/Abstraction100002137
p254
aVhttp://dbpedia.org/class/yago/AmericanFootballTeamsInHawaii
p255
aVhttp://dbpedia.org/class/yago/Association108049401
p256
aVhttp://dbpedia.org/class/yago/Club108227214
p257
aVhttp://dbpedia.org/class/yago/FootballTeam108080025
p258
aVhttp://dbpedia.org/class/yago/Group100031264
p259
aVhttp://dbpedia.org/class/yago/Organization108008335
p260
aVhttp://dbpedia.org/class/yago/SocialGroup107950920
p261
aVhttp://dbpedia.org/class/yago/Team108208560
p262
aVhttp://dbpedia.org/class/yago/Unit108189659
p263
aVhttp://dbpedia.org/class/yago/YagoLegalActorGeo
p264
aVhttp://dbpedia.org/class/yago/DefunctAmericanFootballTeams
p265
aVhttp://dbpedia.org/class/yago/YagoPermanentlyLocatedEntity
p266
aVhttp://dbpedia.org/class/yago/YagoLegalActor
p267
aVhttp://dbpedia.org/class/yago/SportsClubsEstablishedIn1974
p268
aVhttp://dbpedia.org/class/yago/WorldFootballLeagueTeams
p269
asVdisambiguatedURL
p270
Vhttp://dbpedia.org/resource/The_Hawaiians
p271
sVnamedEntity
p272
VHawaiian
p273
sVoffset
p274
I8
saa(lp275
(dp276
Vstart
p277
I0
sg6
(lp278
Vhttp://dbpedia.org/class/yago/Abstraction100002137
p279
aVhttp://dbpedia.org/class/yago/AmericanFootballTeamsInHawaii
p280
aVhttp://dbpedia.org/class/yago/Association108049401
p281
aVhttp://dbpedia.org/class/yago/Club108227214
p282
aVhttp://dbpedia.org/class/yago/FootballTeam108080025
p283
aVhttp://dbpedia.org/class/yago/Group100031264
p284
aVhttp://dbpedia.org/class/yago/Organization108008335
p285
aVhttp://dbpedia.org/class/yago/SocialGroup107950920
p286
aVhttp://dbpedia.org/class/yago/Team108208560
p287
aVhttp://dbpedia.org/class/yago/Unit108189659
p288
aVhttp://dbpedia.org/class/yago/YagoLegalActorGeo
p289
aVhttp://dbpedia.org/class/yago/DefunctAmericanFootballTeams
p290
aVhttp://dbpedia.org/class/yago/YagoPermanentlyLocatedEntity
p291
aVhttp://dbpedia.org/class/yago/YagoLegalActor
p292
aVhttp://dbpedia.org/class/yago/SportsClubsEstablishedIn1974
p293
aVhttp://dbpedia.org/class/yago/WorldFootballLeagueTeams
p294
asVdisambiguatedURL
p295
Vhttp://dbpedia.org/resource/The_Hawaiians
p296
sVnamedEntity
p297
VHawaiian
p298
sVoffset
p299
I8
saa(lp300
(dp301
Vstart
p302
I0
sg6
(lp303
Vhttp://www.w3.org/2002/07/owl#Thing
p304
aVhttp://dbpedia.org/ontology/Place
p305
aVhttp://dbpedia.org/ontology/Location
p306
aVhttp://www.wikidata.org/entity/Q3957
p307
aVhttp://www.wikidata.org/entity/Q486972
p308
aVhttp://dbpedia.org/ontology/PopulatedPlace
p309
aVhttp://dbpedia.org/ontology/Settlement
p310
aVhttp://dbpedia.org/ontology/Town
p311
aVhttp://www.w3.org/2003/01/geo/wgs84_pos#SpatialThing
p312
aVhttp://schema.org/Place
p313
aVhttp://dbpedia.org/class/yago/AdministrativeDistrict108491826
p314
aVhttp://dbpedia.org/class/yago/District108552138
p315
aVhttp://dbpedia.org/class/yago/Location100027167
p316
aVhttp://dbpedia.org/class/yago/Object100002684
p317
aVhttp://dbpedia.org/class/yago/Region108630985
p318
aVhttp://dbpedia.org/class/yago/Town108665504
p319
aVhttp://dbpedia.org/class/yago/UrbanArea108675967
p320
aVhttp://dbpedia.org/class/yago/YagoGeoEntity
p321
aVhttp://dbpedia.org/class/yago/YagoLegalActorGeo
p322
aVhttp://dbpedia.org/class/yago/GeographicalArea108574314
p323
aVhttp://dbpedia.org/class/yago/Municipality108626283
p324
aVhttp://dbpedia.org/class/yago/PhysicalEntity100001930
p325
aVhttp://dbpedia.org/class/yago/YagoPermanentlyLocatedEntity
p326
aVhttp://dbpedia.org/class/yago/MunicipalitiesInAlgomaDistrict
p327
aVhttp://dbpedia.org/class/yago/TownsInOntario
p328
asVdisambiguatedURL
p329
Vhttp://dbpedia.org/resource/Spanish,_Ontario
p330
sVnamedEntity
p331
VSpanish
p332
sVoffset
p333
I7
saa(lp334
(dp335
Vstart
p336
I0
sg6
(lp337
Vhttp://www.w3.org/2002/07/owl#Thing
p338
aVhttp://dbpedia.org/ontology/Place
p339
aVhttp://dbpedia.org/ontology/Location
p340
aVhttp://www.wikidata.org/entity/Q3957
p341
aVhttp://www.wikidata.org/entity/Q486972
p342
aVhttp://dbpedia.org/ontology/PopulatedPlace
p343
aVhttp://dbpedia.org/ontology/Settlement
p344
aVhttp://dbpedia.org/ontology/Town
p345
aVhttp://www.w3.org/2003/01/geo/wgs84_pos#SpatialThing
p346
aVhttp://schema.org/Place
p347
aVhttp://dbpedia.org/class/yago/AdministrativeDistrict108491826
p348
aVhttp://dbpedia.org/class/yago/District108552138
p349
aVhttp://dbpedia.org/class/yago/Location100027167
p350
aVhttp://dbpedia.org/class/yago/Object100002684
p351
aVhttp://dbpedia.org/class/yago/Region108630985
p352
aVhttp://dbpedia.org/class/yago/Town108665504
p353
aVhttp://dbpedia.org/class/yago/UrbanArea108675967
p354
aVhttp://dbpedia.org/class/yago/YagoGeoEntity
p355
aVhttp://dbpedia.org/class/yago/YagoLegalActorGeo
p356
aVhttp://dbpedia.org/class/yago/GeographicalArea108574314
p357
aVhttp://dbpedia.org/class/yago/Municipality108626283
p358
aVhttp://dbpedia.org/class/yago/PhysicalEntity100001930
p359
aVhttp://dbpedia.org/class/yago/YagoPermanentlyLocatedEntity
p360
aVhttp://dbpedia.org/class/yago/MunicipalitiesInAlgomaDistrict
p361
aVhttp://dbpedia.org/class/yago/TownsInOntario
p362
asVdisambiguatedURL
p363
Vhttp://dbpedia.org/resource/Spanish,_Ontario
p364
sVnamedEntity
p365
VSpanish
p366
sVoffset
p367
I7
saa(lp368
(dp369
Vstart
p370
I0
sg6
(lp371
Vhttp://www.w3.org/2002/07/owl#Thing
p372
aVhttp://dbpedia.org/ontology/Place
p373
aVhttp://dbpedia.org/ontology/Location
p374
aVhttp://www.wikidata.org/entity/Q3957
p375
aVhttp://www.wikidata.org/entity/Q486972
p376
aVhttp://dbpedia.org/ontology/PopulatedPlace
p377
aVhttp://dbpedia.org/ontology/Settlement
p378
aVhttp://dbpedia.org/ontology/Town
p379
aVhttp://www.w3.org/2003/01/geo/wgs84_pos#SpatialThing
p380
aVhttp://schema.org/Place
p381
aVhttp://dbpedia.org/class/yago/AdministrativeDistrict108491826
p382
aVhttp://dbpedia.org/class/yago/District108552138
p383
aVhttp://dbpedia.org/class/yago/Location100027167
p384
aVhttp://dbpedia.org/class/yago/Object100002684
p385
aVhttp://dbpedia.org/class/yago/Region108630985
p386
aVhttp://dbpedia.org/class/yago/Town108665504
p387
aVhttp://dbpedia.org/class/yago/UrbanArea108675967
p388
aVhttp://dbpedia.org/class/yago/YagoGeoEntity
p389
aVhttp://dbpedia.org/class/yago/YagoLegalActorGeo
p390
aVhttp://dbpedia.org/class/yago/GeographicalArea108574314
p391
aVhttp://dbpedia.org/class/yago/Municipality108626283
p392
aVhttp://dbpedia.org/class/yago/PhysicalEntity100001930
p393
aVhttp://dbpedia.org/class/yago/YagoPermanentlyLocatedEntity
p394
aVhttp://dbpedia.org/class/yago/MunicipalitiesInAlgomaDistrict
p395
aVhttp://dbpedia.org/class/yago/TownsInOntario
p396
asVdisambiguatedURL
p397
Vhttp://dbpedia.org/resource/Spanish,_Ontario
p398
sVnamedEntity
p399
VSpanish
p400
sVoffset
p401
I7
saa(lp402
(dp403
Vstart
p404
I0
sg6
(lp405
Vhttp://www.w3.org/2002/07/owl#Thing
p406
aVhttp://dbpedia.org/ontology/Place
p407
aVhttp://dbpedia.org/ontology/Location
p408
aVhttp://www.wikidata.org/entity/Q3957
p409
aVhttp://www.wikidata.org/entity/Q486972
p410
aVhttp://dbpedia.org/ontology/PopulatedPlace
p411
aVhttp://dbpedia.org/ontology/Settlement
p412
aVhttp://dbpedia.org/ontology/Town
p413
aVhttp://www.w3.org/2003/01/geo/wgs84_pos#SpatialThing
p414
aVhttp://schema.org/Place
p415
aVhttp://dbpedia.org/class/yago/AdministrativeDistrict108491826
p416
aVhttp://dbpedia.org/class/yago/District108552138
p417
aVhttp://dbpedia.org/class/yago/Location100027167
p418
aVhttp://dbpedia.org/class/yago/Object100002684
p419
aVhttp://dbpedia.org/class/yago/Region108630985
p420
aVhttp://dbpedia.org/class/yago/Town108665504
p421
aVhttp://dbpedia.org/class/yago/UrbanArea108675967
p422
aVhttp://dbpedia.org/class/yago/YagoGeoEntity
p423
aVhttp://dbpedia.org/class/yago/YagoLegalActorGeo
p424
aVhttp://dbpedia.org/class/yago/GeographicalArea108574314
p425
aVhttp://dbpedia.org/class/yago/Municipality108626283
p426
aVhttp://dbpedia.org/class/yago/PhysicalEntity100001930
p427
aVhttp://dbpedia.org/class/yago/YagoPermanentlyLocatedEntity
p428
aVhttp://dbpedia.org/class/yago/MunicipalitiesInAlgomaDistrict
p429
aVhttp://dbpedia.org/class/yago/TownsInOntario
p430
asVdisambiguatedURL
p431
Vhttp://dbpedia.org/resource/Spanish,_Ontario
p432
sVnamedEntity
p433
VSpanish
p434
sVoffset
p435
I7
saa(lp436
(dp437
Vstart
p438
I0
sg6
(lp439
Vhttp://www.w3.org/2002/07/owl#Thing
p440
aVhttp://dbpedia.org/ontology/Place
p441
aVhttp://dbpedia.org/ontology/Location
p442
aVhttp://www.wikidata.org/entity/Q3957
p443
aVhttp://www.wikidata.org/entity/Q486972
p444
aVhttp://dbpedia.org/ontology/PopulatedPlace
p445
aVhttp://dbpedia.org/ontology/Settlement
p446
aVhttp://dbpedia.org/ontology/Town
p447
aVhttp://www.w3.org/2003/01/geo/wgs84_pos#SpatialThing
p448
aVhttp://schema.org/Place
p449
aVhttp://dbpedia.org/class/yago/AdministrativeDistrict108491826
p450
aVhttp://dbpedia.org/class/yago/District108552138
p451
aVhttp://dbpedia.org/class/yago/Location100027167
p452
aVhttp://dbpedia.org/class/yago/Object100002684
p453
aVhttp://dbpedia.org/class/yago/Region108630985
p454
aVhttp://dbpedia.org/class/yago/Town108665504
p455
aVhttp://dbpedia.org/class/yago/UrbanArea108675967
p456
aVhttp://dbpedia.org/class/yago/YagoGeoEntity
p457
aVhttp://dbpedia.org/class/yago/YagoLegalActorGeo
p458
aVhttp://dbpedia.org/class/yago/GeographicalArea108574314
p459
aVhttp://dbpedia.org/class/yago/Municipality108626283
p460
aVhttp://dbpedia.org/class/yago/PhysicalEntity100001930
p461
aVhttp://dbpedia.org/class/yago/YagoPermanentlyLocatedEntity
p462
aVhttp://dbpedia.org/class/yago/MunicipalitiesInAlgomaDistrict
p463
aVhttp://dbpedia.org/class/yago/TownsInOntario
p464
asVdisambiguatedURL
p465
Vhttp://dbpedia.org/resource/Spanish,_Ontario
p466
sVnamedEntity
p467
VSpanish
p468
sVoffset
p469
I7
saa(lp470
(dp471
Vstart
p472
I0
sg6
(lp473
Vhttp://www.w3.org/2002/07/owl#Thing
p474
aVhttp://dbpedia.org/ontology/Place
p475
aVhttp://dbpedia.org/ontology/Location
p476
aVhttp://www.wikidata.org/entity/Q3957
p477
aVhttp://www.wikidata.org/entity/Q486972
p478
aVhttp://dbpedia.org/ontology/PopulatedPlace
p479
aVhttp://dbpedia.org/ontology/Settlement
p480
aVhttp://dbpedia.org/ontology/Town
p481
aVhttp://www.w3.org/2003/01/geo/wgs84_pos#SpatialThing
p482
aVhttp://schema.org/Place
p483
aVhttp://dbpedia.org/class/yago/AdministrativeDistrict108491826
p484
aVhttp://dbpedia.org/class/yago/District108552138
p485
aVhttp://dbpedia.org/class/yago/Location100027167
p486
aVhttp://dbpedia.org/class/yago/Object100002684
p487
aVhttp://dbpedia.org/class/yago/Region108630985
p488
aVhttp://dbpedia.org/class/yago/Town108665504
p489
aVhttp://dbpedia.org/class/yago/UrbanArea108675967
p490
aVhttp://dbpedia.org/class/yago/YagoGeoEntity
p491
aVhttp://dbpedia.org/class/yago/YagoLegalActorGeo
p492
aVhttp://dbpedia.org/class/yago/GeographicalArea108574314
p493
aVhttp://dbpedia.org/class/yago/Municipality108626283
p494
aVhttp://dbpedia.org/class/yago/PhysicalEntity100001930
p495
aVhttp://dbpedia.org/class/yago/YagoPermanentlyLocatedEntity
p496
aVhttp://dbpedia.org/class/yago/MunicipalitiesInAlgomaDistrict
p497
aVhttp://dbpedia.org/class/yago/TownsInOntario
p498
asVdisambiguatedURL
p499
Vhttp://dbpedia.org/resource/Spanish,_Ontario
p500
sVnamedEntity
p501
VSpanish
p502
sVoffset
p503
I7
saa(lp504
(dp505
Vstart
p506
I0
sg6
(lp507
Vhttp://www.w3.org/2002/07/owl#Thing
p508
aVhttp://dbpedia.org/ontology/Place
p509
aVhttp://dbpedia.org/ontology/Location
p510
aVhttp://www.wikidata.org/entity/Q3957
p511
aVhttp://www.wikidata.org/entity/Q486972
p512
aVhttp://dbpedia.org/ontology/PopulatedPlace
p513
aVhttp://dbpedia.org/ontology/Settlement
p514
aVhttp://dbpedia.org/ontology/Town
p515
aVhttp://www.w3.org/2003/01/geo/wgs84_pos#SpatialThing
p516
aVhttp://schema.org/Place
p517
aVhttp://dbpedia.org/class/yago/AdministrativeDistrict108491826
p518
aVhttp://dbpedia.org/class/yago/District108552138
p519
aVhttp://dbpedia.org/class/yago/Location100027167
p520
aVhttp://dbpedia.org/class/yago/Object100002684
p521
aVhttp://dbpedia.org/class/yago/Region108630985
p522
aVhttp://dbpedia.org/class/yago/Town108665504
p523
aVhttp://dbpedia.org/class/yago/UrbanArea108675967
p524
aVhttp://dbpedia.org/class/yago/YagoGeoEntity
p525
aVhttp://dbpedia.org/class/yago/YagoLegalActorGeo
p526
aVhttp://dbpedia.org/class/yago/GeographicalArea108574314
p527
aVhttp://dbpedia.org/class/yago/Municipality108626283
p528
aVhttp://dbpedia.org/class/yago/PhysicalEntity100001930
p529
aVhttp://dbpedia.org/class/yago/YagoPermanentlyLocatedEntity
p530
aVhttp://dbpedia.org/class/yago/MunicipalitiesInAlgomaDistrict
p531
aVhttp://dbpedia.org/class/yago/TownsInOntario
p532
asVdisambiguatedURL
p533
Vhttp://dbpedia.org/resource/Spanish,_Ontario
p534
sVnamedEntity
p535
VSpanish
p536
sVoffset
p537
I7
saa(lp538
(dp539
Vstart
p540
I0
sg6
(lp541
Vhttp://www.w3.org/2002/07/owl#Thing
p542
aVhttp://dbpedia.org/ontology/Place
p543
aVhttp://dbpedia.org/ontology/Location
p544
aVhttp://www.wikidata.org/entity/Q3957
p545
aVhttp://www.wikidata.org/entity/Q486972
p546
aVhttp://dbpedia.org/ontology/PopulatedPlace
p547
aVhttp://dbpedia.org/ontology/Settlement
p548
aVhttp://dbpedia.org/ontology/Town
p549
aVhttp://www.w3.org/2003/01/geo/wgs84_pos#SpatialThing
p550
aVhttp://schema.org/Place
p551
aVhttp://dbpedia.org/class/yago/AdministrativeDistrict108491826
p552
aVhttp://dbpedia.org/class/yago/District108552138
p553
aVhttp://dbpedia.org/class/yago/Location100027167
p554
aVhttp://dbpedia.org/class/yago/Object100002684
p555
aVhttp://dbpedia.org/class/yago/Region108630985
p556
aVhttp://dbpedia.org/class/yago/Town108665504
p557
aVhttp://dbpedia.org/class/yago/UrbanArea108675967
p558
aVhttp://dbpedia.org/class/yago/YagoGeoEntity
p559
aVhttp://dbpedia.org/class/yago/YagoLegalActorGeo
p560
aVhttp://dbpedia.org/class/yago/GeographicalArea108574314
p561
aVhttp://dbpedia.org/class/yago/Municipality108626283
p562
aVhttp://dbpedia.org/class/yago/PhysicalEntity100001930
p563
aVhttp://dbpedia.org/class/yago/YagoPermanentlyLocatedEntity
p564
aVhttp://dbpedia.org/class/yago/MunicipalitiesInAlgomaDistrict
p565
aVhttp://dbpedia.org/class/yago/TownsInOntario
p566
asVdisambiguatedURL
p567
Vhttp://dbpedia.org/resource/Spanish,_Ontario
p568
sVnamedEntity
p569
VSpanish
p570
sVoffset
p571
I7
saa.