(lp1
(lp2
(lp3
a(lp4
a(lp5
aa(lp6
(lp7
a(lp8
Vhttp://dbpedia.org/resource/Logan_Martin_Lake
p9
aa(lp10
aa(lp11
(lp12
a(lp13
a(lp14
aa(lp15
(lp16
a(lp17
a(lp18
aa(lp19
(lp20
a(lp21
a(lp22
aa(lp23
(lp24
a(lp25
a(lp26
aa(lp27
(lp28
a(lp29
Vhttp://dbpedia.org/resource/Blue_Ridge_Reservoir
p30
aa(lp31
aa(lp32
(lp33
a(lp34
a(lp35
aa(lp36
(lp37
a(lp38
Vhttp://dbpedia.org/resource/Sunrise_Lake
p39
aa(lp40
aa(lp41
(lp42
a(lp43
Vhttp://dbpedia.org/resource/Beaver_Lake
p44
aa(lp45
aa(lp46
(lp47
a(lp48
a(lp49
aa(lp50
(lp51
a(lp52
Vhttp://dbpedia.org/resource/DeGray_Lake
p53
aa(lp54
aa(lp55
(lp56
a(lp57
a(lp58
aa(lp59
(lp60
a(lp61
Vhttp://dbpedia.org/resource/Greers_Ferry_Lake
p62
aa(lp63
aa(lp64
(lp65
a(lp66
a(lp67
aa(lp68
(lp69
a(lp70
a(lp71
aa(lp72
(lp73
a(lp74
a(lp75
aa(lp76
(lp77
a(lp78
Vhttp://dbpedia.org/resource/Diamond_Valley_Lake
p79
aa(lp80
aa(lp81
(lp82
a(lp83
a(lp84
aa(lp85
(lp86
a(lp87
a(lp88
aa.