(lp1
(lp2
(dp3
Vstart
p4
I0
sVdisambiguatedURL
p5
NsVnamedEntity
p6
Vbottomline
p7
sVoffset
p8
I10
saa(lp9
(dp10
Vstart
p11
I0
sVdisambiguatedURL
p12
NsVnamedEntity
p13
Vclubmac
p14
sVoffset
p15
I7
saa(lp16
(dp17
Vstart
p18
I0
sVdisambiguatedURL
p19
NsVnamedEntity
p20
Vmacmall
p21
sVoffset
p22
I7
saa(lp23
(dp24
Vstart
p25
I0
sVdisambiguatedURL
p26
NsVnamedEntity
p27
Vmacconnection
p28
sVoffset
p29
I13
saa(lp30
(dp31
Vstart
p32
I0
sVdisambiguatedURL
p33
NsVnamedEntity
p34
Vmacwarehouse
p35
sVoffset
p36
I12
saa(lp37
(dp38
Vstart
p39
I0
sVdisambiguatedURL
p40
NsVnamedEntity
p41
Vmaczone
p42
sVoffset
p43
I7
saa(lp44
(dp45
Vstart
p46
I0
sVdisambiguatedURL
p47
Vhttp://dbpedia.org/resource/Cyberian_Outpost
p48
sVnamedEntity
p49
Voutpost.com
p50
sVoffset
p51
I11
saa.