(lp1
(lp2
(dp3
Vstart
p4
I0
sVdisambiguatedURL
p5
NsVnamedEntity
p6
V442
p7
sVoffset
p8
I3
saa(lp9
(dp10
Vstart
p11
I0
sVdisambiguatedURL
p12
NsVnamedEntity
p13
V267
p14
sVoffset
p15
I3
saa(lp16
(dp17
Vstart
p18
I0
sVdisambiguatedURL
p19
NsVnamedEntity
p20
V505
p21
sVoffset
p22
I3
saa(lp23
(dp24
Vstart
p25
I0
sVdisambiguatedURL
p26
NsVnamedEntity
p27
V175
p28
sVoffset
p29
I3
saa(lp30
(dp31
Vstart
p32
I0
sVdisambiguatedURL
p33
NsVnamedEntity
p34
V486
p35
sVoffset
p36
I3
saa(lp37
(dp38
Vstart
p39
I0
sVdisambiguatedURL
p40
NsVnamedEntity
p41
V432
p42
sVoffset
p43
I3
saa(lp44
(dp45
Vstart
p46
I0
sVdisambiguatedURL
p47
NsVnamedEntity
p48
V180
p49
sVoffset
p50
I3
saa(lp51
(dp52
Vstart
p53
I0
sVdisambiguatedURL
p54
NsVnamedEntity
p55
V72
p56
sVoffset
p57
I2
saa(lp58
(dp59
Vstart
p60
I0
sVdisambiguatedURL
p61
NsVnamedEntity
p62
V317
p63
sVoffset
p64
I3
saa(lp65
(dp66
Vstart
p67
I0
sVdisambiguatedURL
p68
NsVnamedEntity
p69
V156
p70
sVoffset
p71
I3
saa(lp72
(dp73
Vstart
p74
I0
sVdisambiguatedURL
p75
NsVnamedEntity
p76
V1
sVoffset
p77
I1
saa(lp78
(dp79
Vstart
p80
I0
sVdisambiguatedURL
p81
NsVnamedEntity
p82
V4
sVoffset
p83
I1
saa(lp84
(dp85
Vstart
p86
I0
sVdisambiguatedURL
p87
NsVnamedEntity
p88
V256
p89
sVoffset
p90
I3
saa(lp91
(dp92
Vstart
p93
I0
sVdisambiguatedURL
p94
NsVnamedEntity
p95
V216
p96
sVoffset
p97
I3
saa(lp98
(dp99
Vstart
p100
I0
sVdisambiguatedURL
p101
NsVnamedEntity
p102
V240
p103
sVoffset
p104
I3
saa(lp105
(dp106
Vstart
p107
I0
sVdisambiguatedURL
p108
NsVnamedEntity
p109
V46
p110
sVoffset
p111
I2
saa(lp112
(dp113
Vstart
p114
I0
sVdisambiguatedURL
p115
NsVnamedEntity
p116
V133
p117
sVoffset
p118
I3
saa(lp119
(dp120
Vstart
p121
I0
sVdisambiguatedURL
p122
NsVnamedEntity
p123
V55
p124
sVoffset
p125
I2
saa(lp126
(dp127
Vstart
p128
I0
sVdisambiguatedURL
p129
NsVnamedEntity
p130
V6
sVoffset
p131
I1
saa(lp132
(dp133
Vstart
p134
I0
sVdisambiguatedURL
p135
NsVnamedEntity
p136
V352
p137
sVoffset
p138
I3
saa.