(lp1
(lp2
(dp3
Vstart
p4
I0
sS'classes'
p5
(lp6
Vhttp://www.w3.org/2002/07/owl#Thing
p7
aVhttp://dbpedia.org/ontology/Place
p8
aVhttp://dbpedia.org/ontology/Location
p9
aVhttp://www.wikidata.org/entity/Q23442
p10
aVhttp://www.wikidata.org/entity/Q486972
p11
aVhttp://dbpedia.org/ontology/Island
p12
aVhttp://dbpedia.org/ontology/PopulatedPlace
p13
aVhttp://schema.org/Place
p14
aVhttp://umbel.org/umbel/rc/Island
p15
aVhttp://dbpedia.org/class/yago/Island109316454
p16
aVhttp://dbpedia.org/class/yago/Land109334396
p17
aVhttp://dbpedia.org/class/yago/Object100002684
p18
aVhttp://dbpedia.org/class/yago/YagoGeoEntity
p19
aVhttp://dbpedia.org/class/yago/PhysicalEntity100001930
p20
aVhttp://dbpedia.org/class/yago/YagoPermanentlyLocatedEntity
p21
aVhttp://dbpedia.org/class/yago/IslandsOfAntiguaAndBarbuda
p22
asVdisambiguatedURL
p23
Vhttp://dbpedia.org/resource/Antigua
p24
sVnamedEntity
p25
VAntigua
p26
sVoffset
p27
I7
saa(lp28
(dp29
Vstart
p30
I0
sg5
(lp31
Vhttp://www.w3.org/2002/07/owl#Thing
p32
aVhttp://dbpedia.org/ontology/Place
p33
aVhttp://dbpedia.org/ontology/Location
p34
aVhttp://www.wikidata.org/entity/Q486972
p35
aVhttp://www.wikidata.org/entity/Q6256
p36
aVhttp://dbpedia.org/ontology/Country
p37
aVhttp://dbpedia.org/ontology/PopulatedPlace
p38
aVhttp://www.w3.org/2003/01/geo/wgs84_pos#SpatialThing
p39
aVhttp://schema.org/Country
p40
aVhttp://schema.org/Place
p41
aVhttp://umbel.org/umbel/rc/Country
p42
aVhttp://umbel.org/umbel/rc/Location_Underspecified
p43
aVhttp://umbel.org/umbel/rc/PopulatedPlace
p44
aVhttp://dbpedia.org/class/yago/Abstraction100002137
p45
aVhttp://dbpedia.org/class/yago/AdministrativeDistrict108491826
p46
aVhttp://dbpedia.org/class/yago/AlpineCountries
p47
aVhttp://dbpedia.org/class/yago/Country108544813
p48
aVhttp://dbpedia.org/class/yago/District108552138
p49
aVhttp://dbpedia.org/class/yago/Economy108366753
p50
aVhttp://dbpedia.org/class/yago/Group100031264
p51
aVhttp://dbpedia.org/class/yago/Location100027167
p52
aVhttp://dbpedia.org/class/yago/Object100002684
p53
aVhttp://dbpedia.org/class/yago/Point108620061
p54
aVhttp://dbpedia.org/class/yago/Region108630985
p55
aVhttp://dbpedia.org/class/yago/System108435388
p56
aVhttp://dbpedia.org/class/yago/TopographicPoint108664443
p57
aVhttp://dbpedia.org/class/yago/YagoGeoEntity
p58
aVhttp://dbpedia.org/class/yago/YagoLegalActorGeo
p59
aVhttp://dbpedia.org/class/yago/Zone108688247
p60
aVhttp://dbpedia.org/class/yago/EuropeanCountries
p61
aVhttp://dbpedia.org/class/yago/EuropeanUnionMemberEconomies
p62
aVhttp://dbpedia.org/class/yago/FederalCountries
p63
aVhttp://dbpedia.org/class/yago/PhysicalEntity100001930
p64
aVhttp://dbpedia.org/class/yago/YagoPermanentlyLocatedEntity
p65
aVhttp://dbpedia.org/class/yago/German-speakingCountries
p66
aVhttp://dbpedia.org/class/yago/LandlockedCountries
p67
aVhttp://dbpedia.org/class/yago/MemberStatesOfTheCouncilOfEurope
p68
aVhttp://dbpedia.org/class/yago/MemberStatesOfTheEuropeanUnion
p69
aVhttp://dbpedia.org/class/yago/MemberStatesOfTheUnionForTheMediterranean
p70
aVhttp://dbpedia.org/class/yago/MemberStatesOfTheUnitedNations
p71
aVhttp://dbpedia.org/class/yago/Nuclear-freeZones
p72
aVhttp://dbpedia.org/class/yago/StatesAndTerritoriesEstablishedIn1955
p73
asVdisambiguatedURL
p74
Vhttp://dbpedia.org/resource/Austria
p75
sVnamedEntity
p76
VAustria
p77
sVoffset
p78
I7
saa(lp79
(dp80
Vstart
p81
I0
sg5
(lp82
Vhttp://www.w3.org/2002/07/owl#Thing
p83
aVhttp://dbpedia.org/ontology/Place
p84
aVhttp://dbpedia.org/ontology/Location
p85
aVhttp://www.wikidata.org/entity/Q23442
p86
aVhttp://www.wikidata.org/entity/Q486972
p87
aVhttp://dbpedia.org/ontology/Island
p88
aVhttp://dbpedia.org/ontology/PopulatedPlace
p89
aVhttp://schema.org/Place
p90
aVhttp://umbel.org/umbel/rc/Island
p91
aVhttp://dbpedia.org/class/yago/Abstraction100002137
p92
aVhttp://dbpedia.org/class/yago/Attribute100024264
p93
aVhttp://dbpedia.org/class/yago/Body107965085
p94
aVhttp://dbpedia.org/class/yago/Colony108374049
p95
aVhttp://dbpedia.org/class/yago/Dependence114001348
p96
aVhttp://dbpedia.org/class/yago/Group100031264
p97
aVhttp://dbpedia.org/class/yago/SocialGroup107950920
p98
aVhttp://dbpedia.org/class/yago/State100024720
p99
aVhttp://dbpedia.org/class/yago/DependenciesOfAntiguaAndBarbuda
p100
aVhttp://dbpedia.org/class/yago/FormerEnglishColonies
p101
asVdisambiguatedURL
p102
Vhttp://dbpedia.org/resource/Barbuda
p103
sVnamedEntity
p104
VBarbuda
p105
sVoffset
p106
I7
saa(lp107
(dp108
Vstart
p109
I0
sg5
(lp110
Vhttp://www.w3.org/2002/07/owl#Thing
p111
aVhttp://dbpedia.org/ontology/Place
p112
aVhttp://dbpedia.org/ontology/Location
p113
aVhttp://www.wikidata.org/entity/Q486972
p114
aVhttp://www.wikidata.org/entity/Q6256
p115
aVhttp://dbpedia.org/ontology/Country
p116
aVhttp://dbpedia.org/ontology/PopulatedPlace
p117
aVhttp://www.w3.org/2003/01/geo/wgs84_pos#SpatialThing
p118
aVhttp://schema.org/Country
p119
aVhttp://schema.org/Place
p120
aVhttp://umbel.org/umbel/rc/Country
p121
aVhttp://umbel.org/umbel/rc/Location_Underspecified
p122
aVhttp://umbel.org/umbel/rc/PopulatedPlace
p123
aVhttp://dbpedia.org/class/yago/Abstraction100002137
p124
aVhttp://dbpedia.org/class/yago/AdministrativeDistrict108491826
p125
aVhttp://dbpedia.org/class/yago/AfricanCountries
p126
aVhttp://dbpedia.org/class/yago/AfricanUnionMemberEconomies
p127
aVhttp://dbpedia.org/class/yago/Country108544813
p128
aVhttp://dbpedia.org/class/yago/District108552138
p129
aVhttp://dbpedia.org/class/yago/Economy108366753
p130
aVhttp://dbpedia.org/class/yago/Group100031264
p131
aVhttp://dbpedia.org/class/yago/Location100027167
p132
aVhttp://dbpedia.org/class/yago/Object100002684
p133
aVhttp://dbpedia.org/class/yago/Region108630985
p134
aVhttp://dbpedia.org/class/yago/System108435388
p135
aVhttp://dbpedia.org/class/yago/YagoGeoEntity
p136
aVhttp://dbpedia.org/class/yago/YagoLegalActorGeo
p137
aVhttp://dbpedia.org/class/yago/CountriesBorderingTheAtlanticOcean
p138
aVhttp://dbpedia.org/class/yago/French-speakingCountries
p139
aVhttp://dbpedia.org/class/yago/PhysicalEntity100001930
p140
aVhttp://dbpedia.org/class/yago/YagoPermanentlyLocatedEntity
p141
aVhttp://dbpedia.org/class/yago/LeastDevelopedCountries
p142
aVhttp://dbpedia.org/class/yago/MemberStatesOfLaFrancophonie
p143
aVhttp://dbpedia.org/class/yago/MemberStatesOfTheAfricanUnion
p144
aVhttp://dbpedia.org/class/yago/MemberStatesOfTheOrganisationOfIslamicCooperation
p145
aVhttp://dbpedia.org/class/yago/MemberStatesOfTheUnitedNations
p146
aVhttp://dbpedia.org/class/yago/StatesAndTerritoriesEstablishedIn1960
p147
aVhttp://dbpedia.org/class/yago/WorldTradeOrganizationMemberEconomies
p148
asVdisambiguatedURL
p149
Vhttp://dbpedia.org/resource/Benin
p150
sVnamedEntity
p151
VBenin
p152
sVoffset
p153
I5
saa(lp154
(dp155
Vstart
p156
I0
sg5
(lp157
Vhttp://www.w3.org/2002/07/owl#Thing
p158
aVhttp://dbpedia.org/ontology/Place
p159
aVhttp://dbpedia.org/ontology/Location
p160
aVhttp://www.wikidata.org/entity/Q486972
p161
aVhttp://www.wikidata.org/entity/Q6256
p162
aVhttp://dbpedia.org/ontology/Country
p163
aVhttp://dbpedia.org/ontology/PopulatedPlace
p164
aVhttp://www.w3.org/2003/01/geo/wgs84_pos#SpatialThing
p165
aVhttp://schema.org/Country
p166
aVhttp://schema.org/Place
p167
aVhttp://umbel.org/umbel/rc/Country
p168
aVhttp://umbel.org/umbel/rc/Location_Underspecified
p169
aVhttp://umbel.org/umbel/rc/PopulatedPlace
p170
aVhttp://dbpedia.org/class/yago/Abstraction100002137
p171
aVhttp://dbpedia.org/class/yago/AdministrativeDistrict108491826
p172
aVhttp://dbpedia.org/class/yago/AfricanCountries
p173
aVhttp://dbpedia.org/class/yago/AfricanUnionMemberEconomies
p174
aVhttp://dbpedia.org/class/yago/BantuCountriesAndTerritories
p175
aVhttp://dbpedia.org/class/yago/Country108544813
p176
aVhttp://dbpedia.org/class/yago/District108552138
p177
aVhttp://dbpedia.org/class/yago/Economy108366753
p178
aVhttp://dbpedia.org/class/yago/Group100031264
p179
aVhttp://dbpedia.org/class/yago/Location100027167
p180
aVhttp://dbpedia.org/class/yago/Object100002684
p181
aVhttp://dbpedia.org/class/yago/Region108630985
p182
aVhttp://dbpedia.org/class/yago/System108435388
p183
aVhttp://dbpedia.org/class/yago/YagoGeoEntity
p184
aVhttp://dbpedia.org/class/yago/YagoLegalActorGeo
p185
aVhttp://dbpedia.org/class/yago/English-speakingCountriesAndTerritories
p186
aVhttp://dbpedia.org/class/yago/PhysicalEntity100001930
p187
aVhttp://dbpedia.org/class/yago/YagoPermanentlyLocatedEntity
p188
aVhttp://dbpedia.org/class/yago/LandlockedCountries
p189
aVhttp://dbpedia.org/class/yago/MemberStatesOfTheAfricanUnion
p190
aVhttp://dbpedia.org/class/yago/MemberStatesOfTheCommonwealthOfNations
p191
aVhttp://dbpedia.org/class/yago/MemberStatesOfTheUnitedNations
p192
aVhttp://dbpedia.org/class/yago/StatesAndTerritoriesEstablishedIn1966
p193
aVhttp://dbpedia.org/class/yago/WorldTradeOrganizationMemberEconomies
p194
asVdisambiguatedURL
p195
Vhttp://dbpedia.org/resource/Botswana
p196
sVnamedEntity
p197
VBotswana
p198
sVoffset
p199
I8
saa(lp200
(dp201
Vstart
p202
I0
sg5
(lp203
Vhttp://www.w3.org/2002/07/owl#Thing
p204
aVhttp://dbpedia.org/ontology/Place
p205
aVhttp://dbpedia.org/ontology/Location
p206
aVhttp://www.wikidata.org/entity/Q486972
p207
aVhttp://www.wikidata.org/entity/Q6256
p208
aVhttp://dbpedia.org/ontology/Country
p209
aVhttp://dbpedia.org/ontology/PopulatedPlace
p210
aVhttp://www.w3.org/2003/01/geo/wgs84_pos#SpatialThing
p211
aVhttp://schema.org/Country
p212
aVhttp://schema.org/Place
p213
aVhttp://umbel.org/umbel/rc/Country
p214
aVhttp://umbel.org/umbel/rc/Location_Underspecified
p215
aVhttp://umbel.org/umbel/rc/PopulatedPlace
p216
aVhttp://dbpedia.org/class/yago/Abstraction100002137
p217
aVhttp://dbpedia.org/class/yago/AdministrativeDistrict108491826
p218
aVhttp://dbpedia.org/class/yago/AfricanCountries
p219
aVhttp://dbpedia.org/class/yago/AfricanUnionMemberEconomies
p220
aVhttp://dbpedia.org/class/yago/Country108544813
p221
aVhttp://dbpedia.org/class/yago/District108552138
p222
aVhttp://dbpedia.org/class/yago/Economy108366753
p223
aVhttp://dbpedia.org/class/yago/Group100031264
p224
aVhttp://dbpedia.org/class/yago/Location100027167
p225
aVhttp://dbpedia.org/class/yago/Object100002684
p226
aVhttp://dbpedia.org/class/yago/Region108630985
p227
aVhttp://dbpedia.org/class/yago/System108435388
p228
aVhttp://dbpedia.org/class/yago/YagoGeoEntity
p229
aVhttp://dbpedia.org/class/yago/YagoLegalActorGeo
p230
aVhttp://dbpedia.org/class/yago/French-speakingCountries
p231
aVhttp://dbpedia.org/class/yago/PhysicalEntity100001930
p232
aVhttp://dbpedia.org/class/yago/YagoPermanentlyLocatedEntity
p233
aVhttp://dbpedia.org/class/yago/LandlockedCountries
p234
aVhttp://dbpedia.org/class/yago/LeastDevelopedCountries
p235
aVhttp://dbpedia.org/class/yago/MemberStatesOfLaFrancophonie
p236
aVhttp://dbpedia.org/class/yago/MemberStatesOfTheAfricanUnion
p237
aVhttp://dbpedia.org/class/yago/MemberStatesOfTheOrganisationOfIslamicCooperation
p238
aVhttp://dbpedia.org/class/yago/MemberStatesOfTheUnitedNations
p239
aVhttp://dbpedia.org/class/yago/StatesAndTerritoriesEstablishedIn1960
p240
aVhttp://dbpedia.org/class/yago/WorldTradeOrganizationMemberEconomies
p241
asVdisambiguatedURL
p242
Vhttp://dbpedia.org/resource/Burkina_Faso
p243
sVnamedEntity
p244
VBurkina Faso
p245
sVoffset
p246
I12
saa(lp247
(dp248
Vstart
p249
I0
sg5
(lp250
Vhttp://www.w3.org/2002/07/owl#Thing
p251
aVhttp://dbpedia.org/ontology/Place
p252
aVhttp://dbpedia.org/ontology/Location
p253
aVhttp://www.wikidata.org/entity/Q486972
p254
aVhttp://www.wikidata.org/entity/Q6256
p255
aVhttp://dbpedia.org/ontology/Country
p256
aVhttp://dbpedia.org/ontology/PopulatedPlace
p257
aVhttp://www.w3.org/2003/01/geo/wgs84_pos#SpatialThing
p258
aVhttp://schema.org/Country
p259
aVhttp://schema.org/Place
p260
aVhttp://umbel.org/umbel/rc/Country
p261
aVhttp://umbel.org/umbel/rc/Location_Underspecified
p262
aVhttp://umbel.org/umbel/rc/PopulatedPlace
p263
aVhttp://dbpedia.org/class/yago/Abstraction100002137
p264
aVhttp://dbpedia.org/class/yago/AdministrativeDistrict108491826
p265
aVhttp://dbpedia.org/class/yago/Country108544813
p266
aVhttp://dbpedia.org/class/yago/District108552138
p267
aVhttp://dbpedia.org/class/yago/Economy108366753
p268
aVhttp://dbpedia.org/class/yago/Group100031264
p269
aVhttp://dbpedia.org/class/yago/Location100027167
p270
aVhttp://dbpedia.org/class/yago/Object100002684
p271
aVhttp://dbpedia.org/class/yago/Region108630985
p272
aVhttp://dbpedia.org/class/yago/System108435388
p273
aVhttp://dbpedia.org/class/yago/YagoGeoEntity
p274
aVhttp://dbpedia.org/class/yago/YagoLegalActorGeo
p275
aVhttp://dbpedia.org/class/yago/CountriesBorderingTheArcticOcean
p276
aVhttp://dbpedia.org/class/yago/CountriesBorderingTheAtlanticOcean
p277
aVhttp://dbpedia.org/class/yago/CountriesBorderingThePacificOcean
p278
aVhttp://dbpedia.org/class/yago/English-speakingCountriesAndTerritories
p279
aVhttp://dbpedia.org/class/yago/FederalCountries
p280
aVhttp://dbpedia.org/class/yago/French-speakingCountries
p281
aVhttp://dbpedia.org/class/yago/PhysicalEntity100001930
p282
aVhttp://dbpedia.org/class/yago/YagoPermanentlyLocatedEntity
p283
aVhttp://dbpedia.org/class/yago/MemberStatesOfLaFrancophonie
p284
aVhttp://dbpedia.org/class/yago/MemberStatesOfNATO
p285
aVhttp://dbpedia.org/class/yago/MemberStatesOfTheCommonwealthOfNations
p286
aVhttp://dbpedia.org/class/yago/MemberStatesOfTheUnitedNations
p287
aVhttp://dbpedia.org/class/yago/NorthernAmericanCountries
p288
aVhttp://dbpedia.org/class/yago/StatesAndTerritoriesEstablishedIn1867
p289
asVdisambiguatedURL
p290
Vhttp://dbpedia.org/resource/Canada
p291
sVnamedEntity
p292
VCanada
p293
sVoffset
p294
I6
saa(lp295
(dp296
Vstart
p297
I0
sg5
(lp298
Vhttp://www.w3.org/2002/07/owl#Thing
p299
aVhttp://dbpedia.org/ontology/Place
p300
aVhttp://dbpedia.org/ontology/Location
p301
aVhttp://www.wikidata.org/entity/Q486972
p302
aVhttp://www.wikidata.org/entity/Q6256
p303
aVhttp://dbpedia.org/ontology/Country
p304
aVhttp://dbpedia.org/ontology/PopulatedPlace
p305
aVhttp://www.w3.org/2003/01/geo/wgs84_pos#SpatialThing
p306
aVhttp://schema.org/Country
p307
aVhttp://schema.org/Place
p308
aVhttp://dbpedia.org/class/yago/Abstraction100002137
p309
aVhttp://dbpedia.org/class/yago/AdministrativeDistrict108491826
p310
aVhttp://dbpedia.org/class/yago/Country108544813
p311
aVhttp://dbpedia.org/class/yago/District108552138
p312
aVhttp://dbpedia.org/class/yago/Economy108366753
p313
aVhttp://dbpedia.org/class/yago/Group100031264
p314
aVhttp://dbpedia.org/class/yago/Location100027167
p315
aVhttp://dbpedia.org/class/yago/Object100002684
p316
aVhttp://dbpedia.org/class/yago/Region108630985
p317
aVhttp://dbpedia.org/class/yago/System108435388
p318
aVhttp://dbpedia.org/class/yago/YagoGeoEntity
p319
aVhttp://dbpedia.org/class/yago/YagoLegalActorGeo
p320
aVhttp://dbpedia.org/class/yago/CentralAsianCountries
p321
aVhttp://dbpedia.org/class/yago/Chinese-speakingCountriesAndTerritories
p322
aVhttp://dbpedia.org/class/yago/CommunistStates
p323
aVhttp://dbpedia.org/class/yago/CountriesBorderingThePacificOcean
p324
aVhttp://dbpedia.org/class/yago/CountriesBorderingTheSouthChinaSea
p325
aVhttp://dbpedia.org/class/yago/EastAsianCountries
p326
aVhttp://dbpedia.org/class/yago/EconomiesByRegion
p327
aVhttp://dbpedia.org/class/yago/PhysicalEntity100001930
p328
aVhttp://dbpedia.org/class/yago/YagoPermanentlyLocatedEntity
p329
aVhttp://dbpedia.org/class/yago/MemberStatesOfTheUnitedNations
p330
aVhttp://dbpedia.org/class/yago/Single-partyStates
p331
aVhttp://dbpedia.org/class/yago/SocialistStates
p332
aVhttp://dbpedia.org/class/yago/StatesAndTerritoriesEstablishedIn1949
p333
asVdisambiguatedURL
p334
Vhttp://dbpedia.org/resource/China
p335
sVnamedEntity
p336
VChina
p337
sVoffset
p338
I5
saa(lp339
(dp340
Vstart
p341
I0
sg5
(lp342
Vhttp://www.w3.org/2002/07/owl#Thing
p343
aVhttp://dbpedia.org/ontology/Place
p344
aVhttp://dbpedia.org/ontology/Location
p345
aVhttp://www.wikidata.org/entity/Q486972
p346
aVhttp://www.wikidata.org/entity/Q6256
p347
aVhttp://dbpedia.org/ontology/Country
p348
aVhttp://dbpedia.org/ontology/PopulatedPlace
p349
aVhttp://www.w3.org/2003/01/geo/wgs84_pos#SpatialThing
p350
aVhttp://schema.org/Country
p351
aVhttp://schema.org/Place
p352
aVhttp://umbel.org/umbel/rc/Country
p353
aVhttp://umbel.org/umbel/rc/Location_Underspecified
p354
aVhttp://umbel.org/umbel/rc/PopulatedPlace
p355
aVhttp://dbpedia.org/class/yago/AdministrativeDistrict108491826
p356
aVhttp://dbpedia.org/class/yago/Country108544813
p357
aVhttp://dbpedia.org/class/yago/District108552138
p358
aVhttp://dbpedia.org/class/yago/Island109316454
p359
aVhttp://dbpedia.org/class/yago/Land109334396
p360
aVhttp://dbpedia.org/class/yago/Location100027167
p361
aVhttp://dbpedia.org/class/yago/Object100002684
p362
aVhttp://dbpedia.org/class/yago/Region108630985
p363
aVhttp://dbpedia.org/class/yago/YagoGeoEntity
p364
aVhttp://dbpedia.org/class/yago/YagoLegalActorGeo
p365
aVhttp://dbpedia.org/class/yago/CookIslands
p366
aVhttp://dbpedia.org/class/yago/English-speakingCountriesAndTerritories
p367
aVhttp://dbpedia.org/class/yago/FreelyAssociatedStatesOfNewZealand
p368
aVhttp://dbpedia.org/class/yago/PhysicalEntity100001930
p369
aVhttp://dbpedia.org/class/yago/Protectorate108627316
p370
aVhttp://dbpedia.org/class/yago/YagoPermanentlyLocatedEntity
p371
aVhttp://dbpedia.org/class/yago/IslandCountries
p372
aVhttp://dbpedia.org/class/yago/StatesAndTerritoriesEstablishedIn1965
p373
asVdisambiguatedURL
p374
Vhttp://dbpedia.org/resource/Cook_Islands
p375
sVnamedEntity
p376
VCook Islands
p377
sVoffset
p378
I12
saa(lp379
(dp380
Vstart
p381
I0
sg5
(lp382
Vhttp://www.w3.org/2002/07/owl#Thing
p383
aVhttp://dbpedia.org/ontology/Place
p384
aVhttp://dbpedia.org/ontology/Location
p385
aVhttp://www.wikidata.org/entity/Q486972
p386
aVhttp://www.wikidata.org/entity/Q6256
p387
aVhttp://dbpedia.org/ontology/Country
p388
aVhttp://dbpedia.org/ontology/PopulatedPlace
p389
aVhttp://www.w3.org/2003/01/geo/wgs84_pos#SpatialThing
p390
aVhttp://schema.org/Country
p391
aVhttp://schema.org/Place
p392
aVhttp://umbel.org/umbel/rc/Country
p393
aVhttp://umbel.org/umbel/rc/Location_Underspecified
p394
aVhttp://umbel.org/umbel/rc/PopulatedPlace
p395
aVhttp://dbpedia.org/class/yago/Abstraction100002137
p396
aVhttp://dbpedia.org/class/yago/AdministrativeDistrict108491826
p397
aVhttp://dbpedia.org/class/yago/BicontinentalCountries
p398
aVhttp://dbpedia.org/class/yago/Country108544813
p399
aVhttp://dbpedia.org/class/yago/District108552138
p400
aVhttp://dbpedia.org/class/yago/Economy108366753
p401
aVhttp://dbpedia.org/class/yago/Group100031264
p402
aVhttp://dbpedia.org/class/yago/Island109316454
p403
aVhttp://dbpedia.org/class/yago/Land109334396
p404
aVhttp://dbpedia.org/class/yago/Location100027167
p405
aVhttp://dbpedia.org/class/yago/Object100002684
p406
aVhttp://dbpedia.org/class/yago/Region108630039
p407
aVhttp://dbpedia.org/class/yago/Region108630985
p408
aVhttp://dbpedia.org/class/yago/System108435388
p409
aVhttp://dbpedia.org/class/yago/YagoGeoEntity
p410
aVhttp://dbpedia.org/class/yago/YagoLegalActorGeo
p411
aVhttp://dbpedia.org/class/yago/CountriesOfTheMediterraneanSea
p412
aVhttp://dbpedia.org/class/yago/DividedRegions
p413
aVhttp://dbpedia.org/class/yago/EasternMediterraneanCountries
p414
aVhttp://dbpedia.org/class/yago/EuropeanCountries
p415
aVhttp://dbpedia.org/class/yago/EuropeanUnionMemberEconomies
p416
aVhttp://dbpedia.org/class/yago/PhysicalEntity100001930
p417
aVhttp://dbpedia.org/class/yago/YagoPermanentlyLocatedEntity
p418
aVhttp://dbpedia.org/class/yago/InternationalIslands
p419
aVhttp://dbpedia.org/class/yago/IslandCountries
p420
aVhttp://dbpedia.org/class/yago/IslandsOfAsia
p421
aVhttp://dbpedia.org/class/yago/MediterraneanIslands
p422
aVhttp://dbpedia.org/class/yago/MemberStatesOfTheCommonwealthOfNations
p423
aVhttp://dbpedia.org/class/yago/MemberStatesOfTheEuropeanUnion
p424
aVhttp://dbpedia.org/class/yago/MemberStatesOfTheUnionForTheMediterranean
p425
aVhttp://dbpedia.org/class/yago/MemberStatesOfTheUnitedNations
p426
aVhttp://dbpedia.org/class/yago/MiddleEasternCountries
p427
aVhttp://dbpedia.org/class/yago/NearEasternCountries
p428
aVhttp://dbpedia.org/class/yago/StatesAndTerritoriesEstablishedIn1960
p429
aVhttp://dbpedia.org/class/yago/WesternAsianCountries
p430
asVdisambiguatedURL
p431
Vhttp://dbpedia.org/resource/Cyprus
p432
sVnamedEntity
p433
VCyprus
p434
sVoffset
p435
I6
saa(lp436
(dp437
Vstart
p438
I0
sg5
(lp439
Vhttp://www.w3.org/2002/07/owl#Thing
p440
aVhttp://dbpedia.org/ontology/Place
p441
aVhttp://dbpedia.org/ontology/Location
p442
aVhttp://www.wikidata.org/entity/Q486972
p443
aVhttp://www.wikidata.org/entity/Q6256
p444
aVhttp://dbpedia.org/ontology/Country
p445
aVhttp://dbpedia.org/ontology/PopulatedPlace
p446
aVhttp://www.w3.org/2003/01/geo/wgs84_pos#SpatialThing
p447
aVhttp://schema.org/Country
p448
aVhttp://schema.org/Place
p449
aVhttp://umbel.org/umbel/rc/Country
p450
aVhttp://umbel.org/umbel/rc/Location_Underspecified
p451
aVhttp://umbel.org/umbel/rc/PopulatedPlace
p452
aVhttp://dbpedia.org/class/yago/Abstraction100002137
p453
aVhttp://dbpedia.org/class/yago/AdministrativeDistrict108491826
p454
aVhttp://dbpedia.org/class/yago/Country108544813
p455
aVhttp://dbpedia.org/class/yago/District108552138
p456
aVhttp://dbpedia.org/class/yago/Economy108366753
p457
aVhttp://dbpedia.org/class/yago/Group100031264
p458
aVhttp://dbpedia.org/class/yago/Location100027167
p459
aVhttp://dbpedia.org/class/yago/Object100002684
p460
aVhttp://dbpedia.org/class/yago/Region108630039
p461
aVhttp://dbpedia.org/class/yago/Region108630985
p462
aVhttp://dbpedia.org/class/yago/System108435388
p463
aVhttp://dbpedia.org/class/yago/YagoGeoEntity
p464
aVhttp://dbpedia.org/class/yago/YagoLegalActorGeo
p465
aVhttp://dbpedia.org/class/yago/CountriesOfTheIndianOcean
p466
aVhttp://dbpedia.org/class/yago/DividedRegions
p467
aVhttp://dbpedia.org/class/yago/PhysicalEntity100001930
p468
aVhttp://dbpedia.org/class/yago/YagoPermanentlyLocatedEntity
p469
aVhttp://dbpedia.org/class/yago/IslandCountries
p470
aVhttp://dbpedia.org/class/yago/LeastDevelopedCountries
p471
aVhttp://dbpedia.org/class/yago/MemberStatesOfTheCommunityOfPortugueseLanguageCountries
p472
aVhttp://dbpedia.org/class/yago/MemberStatesOfTheUnitedNations
p473
aVhttp://dbpedia.org/class/yago/Portuguese-speakingCountries
p474
aVhttp://dbpedia.org/class/yago/SoutheastAsianCountries
p475
aVhttp://dbpedia.org/class/yago/StatesAndTerritoriesEstablishedIn2002
p476
asVdisambiguatedURL
p477
Vhttp://dbpedia.org/resource/East_Timor
p478
sVnamedEntity
p479
VEast Timor
p480
sVoffset
p481
I10
saa(lp482
(dp483
Vstart
p484
I0
sg5
(lp485
Vhttp://www.w3.org/2002/07/owl#Thing
p486
aVhttp://dbpedia.org/ontology/Place
p487
aVhttp://dbpedia.org/ontology/Location
p488
aVhttp://www.wikidata.org/entity/Q486972
p489
aVhttp://www.wikidata.org/entity/Q6256
p490
aVhttp://dbpedia.org/ontology/Country
p491
aVhttp://dbpedia.org/ontology/PopulatedPlace
p492
aVhttp://www.w3.org/2003/01/geo/wgs84_pos#SpatialThing
p493
aVhttp://schema.org/Country
p494
aVhttp://schema.org/Place
p495
aVhttp://umbel.org/umbel/rc/Country
p496
aVhttp://umbel.org/umbel/rc/Location_Underspecified
p497
aVhttp://umbel.org/umbel/rc/PopulatedPlace
p498
aVhttp://dbpedia.org/class/yago/Abstraction100002137
p499
aVhttp://dbpedia.org/class/yago/AdministrativeDistrict108491826
p500
aVhttp://dbpedia.org/class/yago/AfricanCountries
p501
aVhttp://dbpedia.org/class/yago/AfricanUnionMemberEconomies
p502
aVhttp://dbpedia.org/class/yago/BantuCountriesAndTerritories
p503
aVhttp://dbpedia.org/class/yago/Country108544813
p504
aVhttp://dbpedia.org/class/yago/District108552138
p505
aVhttp://dbpedia.org/class/yago/Economy108366753
p506
aVhttp://dbpedia.org/class/yago/Group100031264
p507
aVhttp://dbpedia.org/class/yago/Location100027167
p508
aVhttp://dbpedia.org/class/yago/Object100002684
p509
aVhttp://dbpedia.org/class/yago/Region108630985
p510
aVhttp://dbpedia.org/class/yago/System108435388
p511
aVhttp://dbpedia.org/class/yago/YagoGeoEntity
p512
aVhttp://dbpedia.org/class/yago/YagoLegalActorGeo
p513
aVhttp://dbpedia.org/class/yago/CountriesBorderingTheAtlanticOcean
p514
aVhttp://dbpedia.org/class/yago/French-speakingCountries
p515
aVhttp://dbpedia.org/class/yago/PhysicalEntity100001930
p516
aVhttp://dbpedia.org/class/yago/YagoPermanentlyLocatedEntity
p517
aVhttp://dbpedia.org/class/yago/LeastDevelopedCountries
p518
aVhttp://dbpedia.org/class/yago/MemberStatesOfLaFrancophonie
p519
aVhttp://dbpedia.org/class/yago/MemberStatesOfTheAfricanUnion
p520
aVhttp://dbpedia.org/class/yago/MemberStatesOfTheUnitedNations
p521
aVhttp://dbpedia.org/class/yago/Spanish-speakingCountries
p522
aVhttp://dbpedia.org/class/yago/StatesAndTerritoriesEstablishedIn1968
p523
asVdisambiguatedURL
p524
Vhttp://dbpedia.org/resource/Equatorial_Guinea
p525
sVnamedEntity
p526
VEquatorial Guinea
p527
sVoffset
p528
I17
saa(lp529
(dp530
Vstart
p531
I0
sg5
(lp532
Vhttp://www.w3.org/2002/07/owl#Thing
p533
aVhttp://dbpedia.org/ontology/Place
p534
aVhttp://dbpedia.org/ontology/Location
p535
aVhttp://www.wikidata.org/entity/Q486972
p536
aVhttp://www.wikidata.org/entity/Q6256
p537
aVhttp://dbpedia.org/ontology/Country
p538
aVhttp://dbpedia.org/ontology/PopulatedPlace
p539
aVhttp://www.w3.org/2003/01/geo/wgs84_pos#SpatialThing
p540
aVhttp://schema.org/Country
p541
aVhttp://schema.org/Place
p542
aVhttp://umbel.org/umbel/rc/Country
p543
aVhttp://umbel.org/umbel/rc/Location_Underspecified
p544
aVhttp://umbel.org/umbel/rc/PopulatedPlace
p545
aVhttp://dbpedia.org/class/yago/Abstraction100002137
p546
aVhttp://dbpedia.org/class/yago/AdministrativeDistrict108491826
p547
aVhttp://dbpedia.org/class/yago/Country108544813
p548
aVhttp://dbpedia.org/class/yago/District108552138
p549
aVhttp://dbpedia.org/class/yago/Economy108366753
p550
aVhttp://dbpedia.org/class/yago/Group100031264
p551
aVhttp://dbpedia.org/class/yago/Location100027167
p552
aVhttp://dbpedia.org/class/yago/Object100002684
p553
aVhttp://dbpedia.org/class/yago/Region108630985
p554
aVhttp://dbpedia.org/class/yago/System108435388
p555
aVhttp://dbpedia.org/class/yago/YagoGeoEntity
p556
aVhttp://dbpedia.org/class/yago/YagoLegalActorGeo
p557
aVhttp://dbpedia.org/class/yago/CountriesBorderingTheBalticSea
p558
aVhttp://dbpedia.org/class/yago/EuropeanCountries
p559
aVhttp://dbpedia.org/class/yago/EuropeanUnionMemberEconomies
p560
aVhttp://dbpedia.org/class/yago/PhysicalEntity100001930
p561
aVhttp://dbpedia.org/class/yago/YagoPermanentlyLocatedEntity
p562
aVhttp://dbpedia.org/class/yago/MemberStatesOfTheCouncilOfEurope
p563
aVhttp://dbpedia.org/class/yago/MemberStatesOfTheEuropeanUnion
p564
aVhttp://dbpedia.org/class/yago/MemberStatesOfTheUnionForTheMediterranean
p565
aVhttp://dbpedia.org/class/yago/MemberStatesOfTheUnitedNations
p566
aVhttp://dbpedia.org/class/yago/NordicCountries
p567
aVhttp://dbpedia.org/class/yago/StatesAndTerritoriesEstablishedIn1918
p568
asVdisambiguatedURL
p569
Vhttp://dbpedia.org/resource/Finland
p570
sVnamedEntity
p571
VFinland
p572
sVoffset
p573
I7
saa(lp574
(dp575
Vstart
p576
I0
sg5
(lp577
Vhttp://www.w3.org/2002/07/owl#Thing
p578
aVhttp://dbpedia.org/ontology/Place
p579
aVhttp://dbpedia.org/ontology/Location
p580
aVhttp://www.wikidata.org/entity/Q486972
p581
aVhttp://www.wikidata.org/entity/Q6256
p582
aVhttp://dbpedia.org/ontology/Country
p583
aVhttp://dbpedia.org/ontology/PopulatedPlace
p584
aVhttp://www.w3.org/2003/01/geo/wgs84_pos#SpatialThing
p585
aVhttp://schema.org/Country
p586
aVhttp://schema.org/Place
p587
aVhttp://umbel.org/umbel/rc/Country
p588
aVhttp://umbel.org/umbel/rc/Location_Underspecified
p589
aVhttp://umbel.org/umbel/rc/PopulatedPlace
p590
aVhttp://dbpedia.org/class/yago/Abstraction100002137
p591
aVhttp://dbpedia.org/class/yago/AdministrativeDistrict108491826
p592
aVhttp://dbpedia.org/class/yago/AfricanCountries
p593
aVhttp://dbpedia.org/class/yago/AfricanUnionMemberEconomies
p594
aVhttp://dbpedia.org/class/yago/Country108544813
p595
aVhttp://dbpedia.org/class/yago/District108552138
p596
aVhttp://dbpedia.org/class/yago/Economy108366753
p597
aVhttp://dbpedia.org/class/yago/Group100031264
p598
aVhttp://dbpedia.org/class/yago/Location100027167
p599
aVhttp://dbpedia.org/class/yago/Object100002684
p600
aVhttp://dbpedia.org/class/yago/Region108630985
p601
aVhttp://dbpedia.org/class/yago/System108435388
p602
aVhttp://dbpedia.org/class/yago/YagoGeoEntity
p603
aVhttp://dbpedia.org/class/yago/YagoLegalActorGeo
p604
aVhttp://dbpedia.org/class/yago/CountriesBorderingTheAtlanticOcean
p605
aVhttp://dbpedia.org/class/yago/English-speakingCountriesAndTerritories
p606
aVhttp://dbpedia.org/class/yago/PhysicalEntity100001930
p607
aVhttp://dbpedia.org/class/yago/YagoPermanentlyLocatedEntity
p608
aVhttp://dbpedia.org/class/yago/LeastDevelopedCountries
p609
aVhttp://dbpedia.org/class/yago/MemberStatesOfTheAfricanUnion
p610
aVhttp://dbpedia.org/class/yago/MemberStatesOfTheCommonwealthOfNations
p611
aVhttp://dbpedia.org/class/yago/MemberStatesOfTheOrganisationOfIslamicCooperation
p612
aVhttp://dbpedia.org/class/yago/MemberStatesOfTheUnitedNations
p613
aVhttp://dbpedia.org/class/yago/StatesAndTerritoriesEstablishedIn1965
p614
aVhttp://dbpedia.org/class/yago/WorldTradeOrganizationMemberEconomies
p615
asVdisambiguatedURL
p616
Vhttp://dbpedia.org/resource/The_Gambia
p617
sVnamedEntity
p618
VGambia
p619
sVoffset
p620
I6
saa(lp621
(dp622
Vstart
p623
I0
sg5
(lp624
Vhttp://www.w3.org/2002/07/owl#Thing
p625
aVhttp://dbpedia.org/ontology/Place
p626
aVhttp://dbpedia.org/ontology/Location
p627
aVhttp://www.wikidata.org/entity/Q486972
p628
aVhttp://www.wikidata.org/entity/Q6256
p629
aVhttp://dbpedia.org/ontology/Country
p630
aVhttp://dbpedia.org/ontology/PopulatedPlace
p631
aVhttp://www.w3.org/2003/01/geo/wgs84_pos#SpatialThing
p632
aVhttp://schema.org/Country
p633
aVhttp://schema.org/Place
p634
aVhttp://umbel.org/umbel/rc/Country
p635
aVhttp://umbel.org/umbel/rc/Location_Underspecified
p636
aVhttp://umbel.org/umbel/rc/PopulatedPlace
p637
aVhttp://dbpedia.org/class/yago/Abstraction100002137
p638
aVhttp://dbpedia.org/class/yago/AdministrativeDistrict108491826
p639
aVhttp://dbpedia.org/class/yago/Attribute100024264
p640
aVhttp://dbpedia.org/class/yago/BicontinentalCountries
p641
aVhttp://dbpedia.org/class/yago/Condition113920835
p642
aVhttp://dbpedia.org/class/yago/Country108544813
p643
aVhttp://dbpedia.org/class/yago/Difficulty114408086
p644
aVhttp://dbpedia.org/class/yago/District108552138
p645
aVhttp://dbpedia.org/class/yago/Economy108366753
p646
aVhttp://dbpedia.org/class/yago/Event100029378
p647
aVhttp://dbpedia.org/class/yago/Group100031264
p648
aVhttp://dbpedia.org/class/yago/Happening107283608
p649
aVhttp://dbpedia.org/class/yago/Location100027167
p650
aVhttp://dbpedia.org/class/yago/Noise107387509
p651
aVhttp://dbpedia.org/class/yago/Object100002684
p652
aVhttp://dbpedia.org/class/yago/Region108630985
p653
aVhttp://dbpedia.org/class/yago/Sound107371293
p654
aVhttp://dbpedia.org/class/yago/State100024720
p655
aVhttp://dbpedia.org/class/yago/System108435388
p656
aVhttp://dbpedia.org/class/yago/YagoGeoEntity
p657
aVhttp://dbpedia.org/class/yago/YagoLegalActorGeo
p658
aVhttp://dbpedia.org/class/yago/Clang107380144
p659
aVhttp://dbpedia.org/class/yago/CountriesOfTheMediterraneanSea
p660
aVhttp://dbpedia.org/class/yago/Crisis113933560
p661
aVhttp://dbpedia.org/class/yago/EasternMediterraneanCountries
p662
aVhttp://dbpedia.org/class/yago/EuropeanCountries
p663
aVhttp://dbpedia.org/class/yago/EuropeanUnionMemberEconomies
p664
aVhttp://dbpedia.org/class/yago/FinancialCrises
p665
aVhttp://dbpedia.org/class/yago/PhysicalEntity100001930
p666
aVhttp://dbpedia.org/class/yago/PsychologicalFeature100023100
p667
aVhttp://dbpedia.org/class/yago/Situation114411243
p668
aVhttp://dbpedia.org/class/yago/YagoPermanentlyLocatedEntity
p669
aVhttp://dbpedia.org/class/yago/MemberStatesOfLaFrancophonie
p670
aVhttp://dbpedia.org/class/yago/MemberStatesOfNATO
p671
aVhttp://dbpedia.org/class/yago/MemberStatesOfTheCouncilOfEurope
p672
aVhttp://dbpedia.org/class/yago/MemberStatesOfTheEuropeanUnion
p673
aVhttp://dbpedia.org/class/yago/MemberStatesOfTheUnionForTheMediterranean
p674
aVhttp://dbpedia.org/class/yago/MemberStatesOfTheUnitedNations
p675
aVhttp://dbpedia.org/class/yago/StatesAndTerritoriesEstablishedIn1821
p676
aVhttp://dbpedia.org/class/yago/StockMarketCrashes
p677
asVdisambiguatedURL
p678
Vhttp://dbpedia.org/resource/Greece
p679
sVnamedEntity
p680
VGreece
p681
sVoffset
p682
I6
saa(lp683
(dp684
Vstart
p685
I0
sg5
(lp686
Vhttp://www.w3.org/2002/07/owl#Thing
p687
aVhttp://dbpedia.org/ontology/Place
p688
aVhttp://dbpedia.org/ontology/Location
p689
aVhttp://www.wikidata.org/entity/Q486972
p690
aVhttp://www.wikidata.org/entity/Q6256
p691
aVhttp://dbpedia.org/ontology/Country
p692
aVhttp://dbpedia.org/ontology/PopulatedPlace
p693
aVhttp://www.w3.org/2003/01/geo/wgs84_pos#SpatialThing
p694
aVhttp://schema.org/Country
p695
aVhttp://schema.org/Place
p696
aVhttp://umbel.org/umbel/rc/Country
p697
aVhttp://umbel.org/umbel/rc/Location_Underspecified
p698
aVhttp://umbel.org/umbel/rc/PopulatedPlace
p699
aVhttp://dbpedia.org/class/yago/Abstraction100002137
p700
aVhttp://dbpedia.org/class/yago/AdministrativeDistrict108491826
p701
aVhttp://dbpedia.org/class/yago/Country108544813
p702
aVhttp://dbpedia.org/class/yago/District108552138
p703
aVhttp://dbpedia.org/class/yago/Economy108366753
p704
aVhttp://dbpedia.org/class/yago/Group100031264
p705
aVhttp://dbpedia.org/class/yago/Location100027167
p706
aVhttp://dbpedia.org/class/yago/Object100002684
p707
aVhttp://dbpedia.org/class/yago/Region108630985
p708
aVhttp://dbpedia.org/class/yago/System108435388
p709
aVhttp://dbpedia.org/class/yago/YagoGeoEntity
p710
aVhttp://dbpedia.org/class/yago/YagoLegalActorGeo
p711
aVhttp://dbpedia.org/class/yago/CentralAmericanCountries
p712
aVhttp://dbpedia.org/class/yago/PhysicalEntity100001930
p713
aVhttp://dbpedia.org/class/yago/YagoPermanentlyLocatedEntity
p714
aVhttp://dbpedia.org/class/yago/MemberStatesOfTheUnitedNations
p715
aVhttp://dbpedia.org/class/yago/Spanish-speakingCountries
p716
aVhttp://dbpedia.org/class/yago/StatesAndTerritoriesEstablishedIn1821
p717
aVhttp://dbpedia.org/class/yago/WorldTradeOrganizationMemberEconomies
p718
asVdisambiguatedURL
p719
Vhttp://dbpedia.org/resource/Guatemala
p720
sVnamedEntity
p721
VGuatemala
p722
sVoffset
p723
I9
saa(lp724
(dp725
Vstart
p726
I0
sg5
(lp727
Vhttp://www.w3.org/2002/07/owl#Thing
p728
aVhttp://dbpedia.org/ontology/Place
p729
aVhttp://dbpedia.org/ontology/Location
p730
aVhttp://www.wikidata.org/entity/Q486972
p731
aVhttp://www.wikidata.org/entity/Q6256
p732
aVhttp://dbpedia.org/ontology/Country
p733
aVhttp://dbpedia.org/ontology/PopulatedPlace
p734
aVhttp://www.w3.org/2003/01/geo/wgs84_pos#SpatialThing
p735
aVhttp://schema.org/Country
p736
aVhttp://schema.org/Place
p737
aVhttp://umbel.org/umbel/rc/Country
p738
aVhttp://umbel.org/umbel/rc/Location_Underspecified
p739
aVhttp://umbel.org/umbel/rc/PopulatedPlace
p740
aVhttp://dbpedia.org/class/yago/Abstraction100002137
p741
aVhttp://dbpedia.org/class/yago/AdministrativeDistrict108491826
p742
aVhttp://dbpedia.org/class/yago/CaribbeanCountries
p743
aVhttp://dbpedia.org/class/yago/Country108544813
p744
aVhttp://dbpedia.org/class/yago/District108552138
p745
aVhttp://dbpedia.org/class/yago/Economy108366753
p746
aVhttp://dbpedia.org/class/yago/Group100031264
p747
aVhttp://dbpedia.org/class/yago/Location100027167
p748
aVhttp://dbpedia.org/class/yago/Object100002684
p749
aVhttp://dbpedia.org/class/yago/Region108630985
p750
aVhttp://dbpedia.org/class/yago/System108435388
p751
aVhttp://dbpedia.org/class/yago/YagoGeoEntity
p752
aVhttp://dbpedia.org/class/yago/YagoLegalActorGeo
p753
aVhttp://dbpedia.org/class/yago/CentralAmericanCountries
p754
aVhttp://dbpedia.org/class/yago/CountriesBorderingThePacificOcean
p755
aVhttp://dbpedia.org/class/yago/PhysicalEntity100001930
p756
aVhttp://dbpedia.org/class/yago/YagoPermanentlyLocatedEntity
p757
aVhttp://dbpedia.org/class/yago/MemberStatesOfTheUnitedNations
p758
aVhttp://dbpedia.org/class/yago/Spanish-speakingCountries
p759
aVhttp://dbpedia.org/class/yago/StatesAndTerritoriesEstablishedIn1821
p760
aVhttp://dbpedia.org/class/yago/WorldTradeOrganizationMemberEconomies
p761
asVdisambiguatedURL
p762
Vhttp://dbpedia.org/resource/Honduras
p763
sVnamedEntity
p764
VHonduras
p765
sVoffset
p766
I8
saa(lp767
(dp768
Vstart
p769
I0
sg5
(lp770
Vhttp://www.w3.org/2002/07/owl#Thing
p771
aVhttp://dbpedia.org/ontology/Place
p772
aVhttp://dbpedia.org/ontology/Location
p773
aVhttp://www.wikidata.org/entity/Q486972
p774
aVhttp://www.wikidata.org/entity/Q6256
p775
aVhttp://dbpedia.org/ontology/Country
p776
aVhttp://dbpedia.org/ontology/PopulatedPlace
p777
aVhttp://www.w3.org/2003/01/geo/wgs84_pos#SpatialThing
p778
aVhttp://schema.org/Country
p779
aVhttp://schema.org/Place
p780
aVhttp://umbel.org/umbel/rc/Country
p781
aVhttp://umbel.org/umbel/rc/Location_Underspecified
p782
aVhttp://umbel.org/umbel/rc/PopulatedPlace
p783
aVhttp://dbpedia.org/class/yago/Abstraction100002137
p784
aVhttp://dbpedia.org/class/yago/AdministrativeDistrict108491826
p785
aVhttp://dbpedia.org/class/yago/Country108544813
p786
aVhttp://dbpedia.org/class/yago/District108552138
p787
aVhttp://dbpedia.org/class/yago/Economy108366753
p788
aVhttp://dbpedia.org/class/yago/Group100031264
p789
aVhttp://dbpedia.org/class/yago/Location100027167
p790
aVhttp://dbpedia.org/class/yago/Object100002684
p791
aVhttp://dbpedia.org/class/yago/Region108630985
p792
aVhttp://dbpedia.org/class/yago/System108435388
p793
aVhttp://dbpedia.org/class/yago/YagoGeoEntity
p794
aVhttp://dbpedia.org/class/yago/YagoLegalActorGeo
p795
aVhttp://dbpedia.org/class/yago/Developing8CountriesMemberStates
p796
aVhttp://dbpedia.org/class/yago/PhysicalEntity100001930
p797
aVhttp://dbpedia.org/class/yago/YagoPermanentlyLocatedEntity
p798
aVhttp://dbpedia.org/class/yago/IslandCountries
p799
aVhttp://dbpedia.org/class/yago/Malay-speakingCountriesAndTerritories
p800
aVhttp://dbpedia.org/class/yago/MemberStatesOfTheAssociationOfSoutheastAsianNations
p801
aVhttp://dbpedia.org/class/yago/MemberStatesOfTheOrganisationOfIslamicCooperation
p802
aVhttp://dbpedia.org/class/yago/MemberStatesOfTheUnitedNations
p803
aVhttp://dbpedia.org/class/yago/SoutheastAsianCountries
p804
aVhttp://dbpedia.org/class/yago/StatesAndTerritoriesEstablishedIn1949
p805
aVhttp://dbpedia.org/class/yago/WorldTradeOrganizationMemberEconomies
p806
asVdisambiguatedURL
p807
Vhttp://dbpedia.org/resource/Indonesia
p808
sVnamedEntity
p809
VIndonesia
p810
sVoffset
p811
I9
saa(lp812
(dp813
Vstart
p814
I0
sg5
(lp815
Vhttp://www.w3.org/2002/07/owl#Thing
p816
aVhttp://dbpedia.org/ontology/Place
p817
aVhttp://dbpedia.org/ontology/Location
p818
aVhttp://www.wikidata.org/entity/Q486972
p819
aVhttp://www.wikidata.org/entity/Q6256
p820
aVhttp://dbpedia.org/ontology/Country
p821
aVhttp://dbpedia.org/ontology/PopulatedPlace
p822
aVhttp://www.w3.org/2003/01/geo/wgs84_pos#SpatialThing
p823
aVhttp://schema.org/Country
p824
aVhttp://schema.org/Place
p825
aVhttp://umbel.org/umbel/rc/Country
p826
aVhttp://umbel.org/umbel/rc/Location_Underspecified
p827
aVhttp://umbel.org/umbel/rc/PopulatedPlace
p828
aVhttp://dbpedia.org/class/yago/Abstraction100002137
p829
aVhttp://dbpedia.org/class/yago/AdministrativeDistrict108491826
p830
aVhttp://dbpedia.org/class/yago/Country108544813
p831
aVhttp://dbpedia.org/class/yago/District108552138
p832
aVhttp://dbpedia.org/class/yago/Domain108556491
p833
aVhttp://dbpedia.org/class/yago/Economy108366753
p834
aVhttp://dbpedia.org/class/yago/Group100031264
p835
aVhttp://dbpedia.org/class/yago/Location100027167
p836
aVhttp://dbpedia.org/class/yago/Object100002684
p837
aVhttp://dbpedia.org/class/yago/Region108630985
p838
aVhttp://dbpedia.org/class/yago/System108435388
p839
aVhttp://dbpedia.org/class/yago/YagoGeoEntity
p840
aVhttp://dbpedia.org/class/yago/YagoLegalActorGeo
p841
aVhttp://dbpedia.org/class/yago/CountriesBorderingThePacificOcean
p842
aVhttp://dbpedia.org/class/yago/CountriesBorderingThePhilippineSea
p843
aVhttp://dbpedia.org/class/yago/EastAsianCountries
p844
aVhttp://dbpedia.org/class/yago/Empire108557482
p845
aVhttp://dbpedia.org/class/yago/Empires
p846
aVhttp://dbpedia.org/class/yago/PhysicalEntity100001930
p847
aVhttp://dbpedia.org/class/yago/YagoPermanentlyLocatedEntity
p848
aVhttp://dbpedia.org/class/yago/IslandCountries
p849
aVhttp://dbpedia.org/class/yago/MemberStatesOfTheUnitedNations
p850
aVhttp://dbpedia.org/class/yago/StatesAndTerritoriesEstablishedIn660BC
p851
asVdisambiguatedURL
p852
Vhttp://dbpedia.org/resource/Japan
p853
sVnamedEntity
p854
VJapan
p855
sVoffset
p856
I5
saa(lp857
(dp858
Vstart
p859
I0
sg5
(lp860
Vhttp://www.w3.org/2002/07/owl#Thing
p861
aVhttp://dbpedia.org/ontology/Place
p862
aVhttp://dbpedia.org/ontology/Location
p863
aVhttp://www.wikidata.org/entity/Q486972
p864
aVhttp://www.wikidata.org/entity/Q6256
p865
aVhttp://dbpedia.org/ontology/Country
p866
aVhttp://dbpedia.org/ontology/PopulatedPlace
p867
aVhttp://www.w3.org/2003/01/geo/wgs84_pos#SpatialThing
p868
aVhttp://schema.org/Country
p869
aVhttp://schema.org/Place
p870
aVhttp://umbel.org/umbel/rc/Country
p871
aVhttp://umbel.org/umbel/rc/Location_Underspecified
p872
aVhttp://umbel.org/umbel/rc/PopulatedPlace
p873
aVhttp://dbpedia.org/class/yago/Abstraction100002137
p874
aVhttp://dbpedia.org/class/yago/AdministrativeDistrict108491826
p875
aVhttp://dbpedia.org/class/yago/Country108544813
p876
aVhttp://dbpedia.org/class/yago/District108552138
p877
aVhttp://dbpedia.org/class/yago/Economy108366753
p878
aVhttp://dbpedia.org/class/yago/Group100031264
p879
aVhttp://dbpedia.org/class/yago/Location100027167
p880
aVhttp://dbpedia.org/class/yago/Object100002684
p881
aVhttp://dbpedia.org/class/yago/Region108630039
p882
aVhttp://dbpedia.org/class/yago/Region108630985
p883
aVhttp://dbpedia.org/class/yago/System108435388
p884
aVhttp://dbpedia.org/class/yago/YagoGeoEntity
p885
aVhttp://dbpedia.org/class/yago/YagoLegalActorGeo
p886
aVhttp://dbpedia.org/class/yago/DividedRegions
p887
aVhttp://dbpedia.org/class/yago/EastAsianCountries
p888
aVhttp://dbpedia.org/class/yago/PhysicalEntity100001930
p889
aVhttp://dbpedia.org/class/yago/YagoPermanentlyLocatedEntity
p890
aVhttp://dbpedia.org/class/yago/MemberStatesOfTheUnitedNations
p891
aVhttp://dbpedia.org/class/yago/StatesAndTerritoriesEstablishedIn1948
p892
aVhttp://dbpedia.org/class/yago/WorldTradeOrganizationMemberEconomies
p893
asVdisambiguatedURL
p894
Vhttp://dbpedia.org/resource/South_Korea
p895
sVnamedEntity
p896
VSouth Korea
p897
sVoffset
p898
I11
saa.