(lp1
(dp2
I0
(dp3
I0
(lp4
sI1
(lp5
sI2
(lp6
sI3
(lp7
sI4
(lp8
Vhttp://dbpedia.org/property/venue
p9
assI1
(dp10
I0
g5
sI1
(lp11
sI2
(lp12
sI3
(lp13
sI4
(lp14
Vhttp://dbpedia.org/property/location
p15
aVhttp://dbpedia.org/property/stadium
p16
assI2
(dp17
I0
g6
sI1
g12
sI2
(lp18
sI3
(lp19
sI4
(lp20
ssI3
(dp21
I0
g7
sI1
g13
sI2
g19
sI3
(lp22
sI4
(lp23
ssI4
(dp24
I0
g8
sI1
g14
sI2
g20
sI3
g23
sI4
(lp25
ssa(dp26
I0
(dp27
I0
(lp28
sI1
(lp29
Vhttp://dbpedia.org/property/location
p30
asI2
(lp31
sI3
(lp32
sI4
(lp33
ssI1
(dp34
I0
g29
sI1
(lp35
sI2
(lp36
sI3
(lp37
sI4
(lp38
ssI2
(dp39
I0
g31
sI1
g36
sI2
(lp40
sI3
(lp41
sI4
(lp42
ssI3
(dp43
I0
g32
sI1
g37
sI2
g41
sI3
(lp44
sI4
(lp45
ssI4
(dp46
I0
g33
sI1
g38
sI2
g42
sI3
g45
sI4
(lp47
ssa(dp48
I0
(dp49
I0
(lp50
sI1
(lp51
sI2
(lp52
sI3
(lp53
sI4
(lp54
ssI1
(dp55
I0
g51
sI1
(lp56
sI2
(lp57
sI3
(lp58
sI4
(lp59
ssI2
(dp60
I0
g52
sI1
g57
sI2
(lp61
sI3
(lp62
sI4
(lp63
ssI3
(dp64
I0
g53
sI1
g58
sI2
g62
sI3
(lp65
sI4
(lp66
ssI4
(dp67
I0
g54
sI1
g59
sI2
g63
sI3
g66
sI4
(lp68
ssa(dp69
I0
(dp70
I0
(lp71
sI1
(lp72
sI2
(lp73
sI3
(lp74
sI4
(lp75
ssI1
(dp76
I0
g72
sI1
(lp77
sI2
(lp78
sI3
(lp79
sI4
(lp80
ssI2
(dp81
I0
g73
sI1
g78
sI2
(lp82
sI3
(lp83
sI4
(lp84
ssI3
(dp85
I0
g74
sI1
g79
sI2
g83
sI3
(lp86
sI4
(lp87
ssI4
(dp88
I0
g75
sI1
g80
sI2
g84
sI3
g87
sI4
(lp89
ssa(dp90
I0
(dp91
I0
(lp92
sI1
(lp93
sI2
(lp94
sI3
(lp95
sI4
(lp96
ssI1
(dp97
I0
g93
sI1
(lp98
sI2
(lp99
sI3
(lp100
sI4
(lp101
ssI2
(dp102
I0
g94
sI1
g99
sI2
(lp103
sI3
(lp104
sI4
(lp105
Vhttp://dbpedia.org/property/popplace
p106
aVhttp://dbpedia.org/ontology/populationPlace
p107
assI3
(dp108
I0
g95
sI1
g100
sI2
g104
sI3
(lp109
sI4
(lp110
ssI4
(dp111
I0
g96
sI1
g101
sI2
g105
sI3
g110
sI4
(lp112
ssa(dp113
I0
(dp114
I0
(lp115
sI1
(lp116
sI2
(lp117
sI3
(lp118
sI4
(lp119
ssI1
(dp120
I0
g116
sI1
(lp121
sI2
(lp122
sI3
(lp123
sI4
(lp124
ssI2
(dp125
I0
g117
sI1
g122
sI2
(lp126
sI3
(lp127
sI4
(lp128
ssI3
(dp129
I0
g118
sI1
g123
sI2
g127
sI3
(lp130
sI4
(lp131
ssI4
(dp132
I0
g119
sI1
g124
sI2
g128
sI3
g131
sI4
(lp133
ssa(dp134
I0
(dp135
I0
(lp136
sI1
(lp137
sI2
(lp138
sI3
(lp139
Vhttp://dbpedia.org/property/origin
p140
aVhttp://dbpedia.org/ontology/country
p141
aVhttp://dbpedia.org/property/residence
p142
aVhttp://dbpedia.org/ontology/residence
p143
aVhttp://dbpedia.org/ontology/birthPlace
p144
aVhttp://dbpedia.org/ontology/hometown
p145
aVhttp://dbpedia.org/property/birthPlace
p146
aVhttp://dbpedia.org/property/placeOfBirth
p147
aVhttp://dbpedia.org/property/country
p148
asI4
(lp149
Vhttp://dbpedia.org/ontology/populationPlace
p150
aVhttp://dbpedia.org/property/location
p151
assI1
(dp152
I0
g137
sI1
(lp153
sI2
(lp154
sI3
(lp155
sI4
(lp156
ssI2
(dp157
I0
g138
sI1
g154
sI2
(lp158
sI3
(lp159
Vhttp://dbpedia.org/property/states
p160
aVhttp://dbpedia.org/ontology/abstract
p161
aVhttp://www.w3.org/2000/01/rdf-schema#comment
p162
aVhttp://dbpedia.org/property/region
p163
aVhttp://dbpedia.org/ontology/spokenIn
p164
asI4
(lp165
ssI3
(dp166
I0
g139
sI1
g155
sI2
g159
sI3
(lp167
sI4
(lp168
ssI4
(dp169
I0
g149
sI1
g156
sI2
g165
sI3
g168
sI4
(lp170
ssa(dp171
I0
(dp172
I0
(lp173
sI1
(lp174
Vhttp://dbpedia.org/property/location
p175
asI2
(lp176
sI3
(lp177
sI4
(lp178
ssI1
(dp179
I0
g174
sI1
(lp180
sI2
(lp181
sI3
(lp182
sI4
(lp183
ssI2
(dp184
I0
g176
sI1
g181
sI2
(lp185
sI3
(lp186
sI4
(lp187
ssI3
(dp188
I0
g177
sI1
g182
sI2
g186
sI3
(lp189
sI4
(lp190
ssI4
(dp191
I0
g178
sI1
g183
sI2
g187
sI3
g190
sI4
(lp192
ssa(dp193
I0
(dp194
I0
(lp195
sI1
(lp196
sI2
(lp197
sI3
(lp198
sI4
(lp199
ssI1
(dp200
I0
g196
sI1
(lp201
sI2
(lp202
sI3
(lp203
sI4
(lp204
ssI2
(dp205
I0
g197
sI1
g202
sI2
(lp206
sI3
(lp207
sI4
(lp208
ssI3
(dp209
I0
g198
sI1
g203
sI2
g207
sI3
(lp210
sI4
(lp211
ssI4
(dp212
I0
g199
sI1
g204
sI2
g208
sI3
g211
sI4
(lp213
ssa(dp214
I0
(dp215
I0
(lp216
sI1
(lp217
Vhttp://dbpedia.org/property/placeOfDeath
p218
aVhttp://dbpedia.org/ontology/restingPlace
p219
aVhttp://dbpedia.org/ontology/deathPlace
p220
aVhttp://dbpedia.org/property/deathPlace
p221
asI2
(lp222
sI3
(lp223
sI4
(lp224
ssI1
(dp225
I0
g217
sI1
(lp226
sI2
(lp227
sI3
(lp228
sI4
(lp229
ssI2
(dp230
I0
g222
sI1
g227
sI2
(lp231
sI3
(lp232
sI4
(lp233
ssI3
(dp234
I0
g223
sI1
g228
sI2
g232
sI3
(lp235
sI4
(lp236
ssI4
(dp237
I0
g224
sI1
g229
sI2
g233
sI3
g236
sI4
(lp238
ssa(dp239
I0
(dp240
I0
(lp241
sI1
(lp242
sI2
(lp243
sI3
(lp244
sI4
(lp245
ssI1
(dp246
I0
g242
sI1
(lp247
sI2
(lp248
sI3
(lp249
sI4
(lp250
Vhttp://dbpedia.org/property/location
p251
assI2
(dp252
I0
g243
sI1
g248
sI2
(lp253
sI3
(lp254
sI4
(lp255
Vhttp://dbpedia.org/property/location
p256
assI3
(dp257
I0
g244
sI1
g249
sI2
g254
sI3
(lp258
sI4
(lp259
ssI4
(dp260
I0
g245
sI1
g250
sI2
g255
sI3
g259
sI4
(lp261
ssa(dp262
I0
(dp263
I0
(lp264
sI1
(lp265
sI2
(lp266
sI3
(lp267
sI4
(lp268
ssI1
(dp269
I0
g265
sI1
(lp270
sI2
(lp271
sI3
(lp272
Vhttp://www.w3.org/2000/01/rdf-schema#seeAlso
p273
aVhttp://dbpedia.org/property/region
p274
aVhttp://dbpedia.org/ontology/territory
p275
aVhttp://www.w3.org/2000/01/rdf-schema#comment
p276
aVhttp://dbpedia.org/ontology/abstract
p277
aVhttp://dbpedia.org/property/place
p278
aVhttp://dbpedia.org/ontology/place
p279
aVhttp://dbpedia.org/property/establishedEvent
p280
asI4
(lp281
ssI2
(dp282
I0
g266
sI1
g271
sI2
(lp283
sI3
(lp284
sI4
(lp285
ssI3
(dp286
I0
g267
sI1
g272
sI2
g284
sI3
(lp287
sI4
(lp288
ssI4
(dp289
I0
g268
sI1
g281
sI2
g285
sI3
g288
sI4
(lp290
ssa(dp291
I0
(dp292
I0
(lp293
sI1
(lp294
Vhttp://dbpedia.org/property/usedBy
p295
aVhttp://dbpedia.org/property/location
p296
asI2
(lp297
sI3
(lp298
sI4
(lp299
ssI1
(dp300
I0
g294
sI1
(lp301
sI2
(lp302
sI3
(lp303
sI4
(lp304
ssI2
(dp305
I0
g297
sI1
g302
sI2
(lp306
sI3
(lp307
sI4
(lp308
ssI3
(dp309
I0
g298
sI1
g303
sI2
g307
sI3
(lp310
sI4
(lp311
ssI4
(dp312
I0
g299
sI1
g304
sI2
g308
sI3
g311
sI4
(lp313
ssa(dp314
I0
(dp315
I0
(lp316
sI1
(lp317
sI2
(lp318
sI3
(lp319
Vhttp://dbpedia.org/ontology/country
p320
asI4
(lp321
ssI1
(dp322
I0
g317
sI1
(lp323
sI2
(lp324
sI3
(lp325
sI4
(lp326
ssI2
(dp327
I0
g318
sI1
g324
sI2
(lp328
sI3
(lp329
Vhttp://dbpedia.org/ontology/populationPlace
p330
asI4
(lp331
ssI3
(dp332
I0
g319
sI1
g325
sI2
g329
sI3
(lp333
sI4
(lp334
ssI4
(dp335
I0
g321
sI1
g326
sI2
g331
sI3
g334
sI4
(lp336
ssa(dp337
I0
(dp338
I0
(lp339
sI1
(lp340
sI2
(lp341
sI3
(lp342
sI4
(lp343
ssI1
(dp344
I0
g340
sI1
(lp345
sI2
(lp346
sI3
(lp347
sI4
(lp348
ssI2
(dp349
I0
g341
sI1
g346
sI2
(lp350
sI3
(lp351
sI4
(lp352
ssI3
(dp353
I0
g342
sI1
g347
sI2
g351
sI3
(lp354
sI4
(lp355
Vhttp://dbpedia.org/ontology/abstract
p356
aVhttp://www.w3.org/2000/01/rdf-schema#comment
p357
assI4
(dp358
I0
g343
sI1
g348
sI2
g352
sI3
g355
sI4
(lp359
ssa(dp360
I0
(dp361
I0
(lp362
sI1
(lp363
sI2
(lp364
sI3
(lp365
sI4
(lp366
ssI1
(dp367
I0
g363
sI1
(lp368
sI2
(lp369
sI3
(lp370
sI4
(lp371
ssI2
(dp372
I0
g364
sI1
g369
sI2
(lp373
sI3
(lp374
sI4
(lp375
ssI3
(dp376
I0
g365
sI1
g370
sI2
g374
sI3
(lp377
sI4
(lp378
Vhttp://dbpedia.org/ontology/populationPlace
p379
assI4
(dp380
I0
g366
sI1
g371
sI2
g375
sI3
g378
sI4
(lp381
ssa(dp382
I0
(dp383
I0
(lp384
sI1
(lp385
sI2
(lp386
sI3
(lp387
sI4
(lp388
Vhttp://dbpedia.org/property/footnoteA
p389
assI1
(dp390
I0
g385
sI1
(lp391
sI2
(lp392
sI3
(lp393
sI4
(lp394
Vhttp://www.w3.org/2000/01/rdf-schema#seeAlso
p395
aVhttp://dbpedia.org/property/areaServed
p396
assI2
(dp397
I0
g386
sI1
g392
sI2
(lp398
sI3
(lp399
sI4
(lp400
ssI3
(dp401
I0
g387
sI1
g393
sI2
g399
sI3
(lp402
sI4
(lp403
ssI4
(dp404
I0
g388
sI1
g394
sI2
g400
sI3
g403
sI4
(lp405
ssa(dp406
I0
(dp407
I0
(lp408
sI1
(lp409
sI2
(lp410
sI3
(lp411
sI4
(lp412
ssI1
(dp413
I0
g409
sI1
(lp414
sI2
(lp415
sI3
(lp416
Vhttp://dbpedia.org/ontology/birthPlace
p417
aVhttp://dbpedia.org/property/birthPlace
p418
aVhttp://dbpedia.org/property/placeOfBirth
p419
asI4
(lp420
ssI2
(dp421
I0
g410
sI1
g415
sI2
(lp422
sI3
(lp423
Vhttp://dbpedia.org/property/placeOfDeath
p424
aVhttp://dbpedia.org/property/deathPlace
p425
aVhttp://dbpedia.org/property/location
p426
aVhttp://dbpedia.org/ontology/deathPlace
p427
asI4
(lp428
ssI3
(dp429
I0
g411
sI1
g416
sI2
g423
sI3
(lp430
sI4
(lp431
ssI4
(dp432
I0
g412
sI1
g420
sI2
g428
sI3
g431
sI4
(lp433
ssa(dp434
I0
(dp435
I0
(lp436
sI1
(lp437
Vhttp://dbpedia.org/property/location
p438
asI2
(lp439
sI3
(lp440
Vhttp://dbpedia.org/property/location
p441
asI4
(lp442
Vhttp://dbpedia.org/ontology/birthPlace
p443
aVhttp://dbpedia.org/property/birthPlace
p444
aVhttp://dbpedia.org/property/placeOfBirth
p445
assI1
(dp446
I0
g437
sI1
(lp447
sI2
(lp448
sI3
(lp449
sI4
(lp450
ssI2
(dp451
I0
g439
sI1
g448
sI2
(lp452
sI3
(lp453
Vhttp://dbpedia.org/property/location
p454
asI4
(lp455
ssI3
(dp456
I0
g440
sI1
g449
sI2
g453
sI3
(lp457
sI4
(lp458
ssI4
(dp459
I0
g442
sI1
g450
sI2
g455
sI3
g458
sI4
(lp460
ssa(dp461
I0
(dp462
I0
(lp463
sI1
(lp464
sI2
(lp465
sI3
(lp466
sI4
(lp467
ssI1
(dp468
I0
g464
sI1
(lp469
sI2
(lp470
sI3
(lp471
sI4
(lp472
ssI2
(dp473
I0
g465
sI1
g470
sI2
(lp474
sI3
(lp475
sI4
(lp476
ssI3
(dp477
I0
g466
sI1
g471
sI2
g475
sI3
(lp478
sI4
(lp479
ssI4
(dp480
I0
g467
sI1
g472
sI2
g476
sI3
g479
sI4
(lp481
ssa.