(lp1
(lp2
(lp3
Vhttp://dbpedia.org/resource/Country
p4
aa(lp5
Vhttp://dbpedia.org/resource/Cameroon
p6
aa(lp7
Vhttp://dbpedia.org/resource/Fax
p8
aa(lp9
aa(lp10
(lp11
a(lp12
a(lp13
Vhttp://dbpedia.org/resource/Email
p14
aa(lp15
aa(lp16
(lp17
a(lp18
a(lp19
Vhttp://dbpedia.org/resource/Website
p20
aa(lp21
aa(lp22
(lp23
a(lp24
a(lp25
a(lp26
aa(lp27
(lp28
a(lp29
a(lp30
a(lp31
aa(lp32
(lp33
a(lp34
a(lp35
a(lp36
aa.