(lp1
(lp2
(dp3
Vstart
p4
I0
sVdisambiguatedURL
p5
NsVnamedEntity
p6
Vnamco bandai games
p7
sVoffset
p8
I18
saa(lp9
(dp10
Vstart
p11
I0
sVdisambiguatedURL
p12
NsVnamedEntity
p13
Vsega
p14
sVoffset
p15
I4
saa(lp16
(dp17
Vstart
p18
I0
sVdisambiguatedURL
p19
Vhttp://dbpedia.org/resource/Electronic_Arts
p20
sVnamedEntity
p21
Velectronic arts
p22
sVoffset
p23
I15
saa(lp24
(dp25
Vstart
p26
I0
sVdisambiguatedURL
p27
NsVnamedEntity
p28
Vkoch media
p29
sVoffset
p30
I10
saa(lp31
(dp32
Vstart
p33
I0
sVdisambiguatedURL
p34
Vhttp://dbpedia.org/resource/Electronic_Arts
p35
sVnamedEntity
p36
Velectronic arts
p37
sVoffset
p38
I15
saa(lp39
(dp40
Vstart
p41
I0
sVdisambiguatedURL
p42
Vhttp://dbpedia.org/resource/Electronic_Arts
p43
sVnamedEntity
p44
Velectronic arts
p45
sVoffset
p46
I15
saa(lp47
(dp48
Vstart
p49
I0
sVdisambiguatedURL
p50
Vhttp://dbpedia.org/resource/Activision_Blizzard
p51
sVnamedEntity
p52
Vactivision blizzard
p53
sVoffset
p54
I19
saa(lp55
(dp56
Vstart
p57
I0
sVdisambiguatedURL
p58
Vhttp://dbpedia.org/resource/Activision_Blizzard
p59
sVnamedEntity
p60
Vactivision blizzard
p61
sVoffset
p62
I19
saa(lp63
(dp64
Vstart
p65
I0
sVdisambiguatedURL
p66
Vhttp://dbpedia.org/resource/Electronic_Arts
p67
sVnamedEntity
p68
Velectronic arts
p69
sVoffset
p70
I15
saa(lp71
(dp72
Vstart
p73
I0
sVdisambiguatedURL
p74
NsVnamedEntity
p75
Vsega
p76
sVoffset
p77
I4
saa(lp78
(dp79
Vstart
p80
I0
sVdisambiguatedURL
p81
NsVnamedEntity
p82
Vsquare enix europe
p83
sVoffset
p84
I18
saa(lp85
(dp86
Vstart
p87
I0
sVdisambiguatedURL
p88
Vhttp://dbpedia.org/resource/Bethesda_Softworks
p89
sVnamedEntity
p90
Vbethesda softworks
p91
sVoffset
p92
I18
saa(lp93
(dp94
Vstart
p95
I0
sVdisambiguatedURL
p96
NsVnamedEntity
p97
Vtake 2
p98
sVoffset
p99
I6
saa(lp100
(dp101
Vstart
p102
I0
sVdisambiguatedURL
p103
Vhttp://dbpedia.org/resource/Electronic_Arts
p104
sVnamedEntity
p105
Velectronic arts
p106
sVoffset
p107
I15
saa(lp108
(dp109
Vstart
p110
I0
sVdisambiguatedURL
p111
NsVnamedEntity
p112
Vtake 2
p113
sVoffset
p114
I6
saa(lp115
(dp116
Vstart
p117
I0
sVdisambiguatedURL
p118
Vhttp://dbpedia.org/resource/Electronic_Arts
p119
sVnamedEntity
p120
Velectronic arts
p121
sVoffset
p122
I15
saa(lp123
(dp124
Vstart
p125
I0
sVdisambiguatedURL
p126
NsVnamedEntity
p127
Vmicrosoft
p128
sVoffset
p129
I9
saa(lp130
(dp131
Vstart
p132
I0
sVdisambiguatedURL
p133
NsVnamedEntity
p134
Vubisoft
p135
sVoffset
p136
I7
saa(lp137
(dp138
Vstart
p139
I0
sVdisambiguatedURL
p140
NsVnamedEntity
p141
Vthq
p142
sVoffset
p143
I3
saa(lp144
(dp145
Vstart
p146
I0
sVdisambiguatedURL
p147
NsVnamedEntity
p148
Vthq
p149
sVoffset
p150
I3
saa.