(lp1
(lp2
(lp3
((lp4
Vhttp://www.w3.org/2002/07/owl#Thing
p5
aVhttp://dbpedia.org/resource/Country
tp6
aa(lp7
((lp8
Vhttp://www.w3.org/2002/07/owl#Thing
p9
aVhttp://dbpedia.org/ontology/Place
p10
aVhttp://dbpedia.org/ontology/Location
p11
aVhttp://www.wikidata.org/entity/Q486972
p12
aVhttp://www.wikidata.org/entity/Q6256
p13
aVhttp://dbpedia.org/ontology/Country
p14
aVhttp://dbpedia.org/ontology/PopulatedPlace
p15
aVhttp://www.w3.org/2003/01/geo/wgs84_pos#SpatialThing
p16
aVhttp://schema.org/Country
p17
aVhttp://schema.org/Place
p18
aVhttp://umbel.org/umbel/rc/Country
p19
aVhttp://umbel.org/umbel/rc/Location_Underspecified
p20
aVhttp://umbel.org/umbel/rc/PopulatedPlace
p21
aVhttp://dbpedia.org/class/yago/Abstraction100002137
p22
aVhttp://dbpedia.org/class/yago/AdministrativeDistrict108491826
p23
aVhttp://dbpedia.org/class/yago/AfricanCountries
p24
aVhttp://dbpedia.org/class/yago/AfricanUnionMemberEconomies
p25
aVhttp://dbpedia.org/class/yago/Country108544813
p26
aVhttp://dbpedia.org/class/yago/District108552138
p27
aVhttp://dbpedia.org/class/yago/Economy108366753
p28
aVhttp://dbpedia.org/class/yago/Group100031264
p29
aVhttp://dbpedia.org/class/yago/Location100027167
p30
aVhttp://dbpedia.org/class/yago/Object100002684
p31
aVhttp://dbpedia.org/class/yago/Region108630985
p32
aVhttp://dbpedia.org/class/yago/System108435388
p33
aVhttp://dbpedia.org/class/yago/YagoGeoEntity
p34
aVhttp://dbpedia.org/class/yago/YagoLegalActorGeo
p35
aVhttp://dbpedia.org/class/yago/CountriesBorderingTheAtlanticOcean
p36
aVhttp://dbpedia.org/class/yago/English-speakingCountriesAndTerritories
p37
aVhttp://dbpedia.org/class/yago/French-speakingCountries
p38
aVhttp://dbpedia.org/class/yago/PhysicalEntity100001930
p39
aVhttp://dbpedia.org/class/yago/YagoPermanentlyLocatedEntity
p40
aVhttp://dbpedia.org/class/yago/MemberStatesOfLaFrancophonie
p41
aVhttp://dbpedia.org/class/yago/MemberStatesOfTheAfricanUnion
p42
aVhttp://dbpedia.org/class/yago/MemberStatesOfTheCommonwealthOfNations
p43
aVhttp://dbpedia.org/class/yago/MemberStatesOfTheOrganisationOfIslamicCooperation
p44
aVhttp://dbpedia.org/class/yago/MemberStatesOfTheUnitedNations
p45
aVhttp://dbpedia.org/class/yago/StatesAndTerritoriesEstablishedIn1960
p46
aVhttp://dbpedia.org/class/yago/WorldTradeOrganizationMemberEconomies
p47
aVhttp://dbpedia.org/resource/Cameroon
tp48
aa(lp49
((lp50
Vhttp://www.w3.org/2002/07/owl#Thing
p51
aVhttp://dbpedia.org/resource/Fax
tp52
aa(lp53
aa(lp54
(lp55
a(lp56
a(lp57
((lVhttp://dbpedia.org/resource/Email
tp58
aa(lp59
aa(lp60
(lp61
a(lp62
a(lp63
((lp64
Vhttp://www.w3.org/2002/07/owl#Thing
p65
aVhttp://dbpedia.org/resource/Website
p66
tp67
aa(lp68
aa(lp69
(lp70
a(lp71
a(lp72
a(lp73
aa(lp74
(lp75
a(lp76
a(lp77
a(lp78
aa(lp79
(lp80
a(lp81
a(lp82
a(lp83
aa.