(lp1
(lp2
(dp3
Vstart
p4
I0
sVdisambiguatedURL
p5
NsVnamedEntity
p6
VDublin Housing Units
p7
sVoffset
p8
I20
saa(lp9
(dp10
Vstart
p11
I0
sVdisambiguatedURL
p12
Vhttp://dbpedia.org/resource/Military_occupation
p13
sVnamedEntity
p14
VOccupied
p15
sVoffset
p16
I8
saa(lp17
(dp18
Vstart
p19
I0
sVdisambiguatedURL
p20
Vhttp://dbpedia.org/resource/Owner-occupier
p21
sVnamedEntity
p22
VOwner Occupied
p23
sVoffset
p24
I14
saa(lp25
(dp26
Vstart
p27
I0
sVdisambiguatedURL
p28
NsVnamedEntity
p29
VHomes Rented
p30
sVoffset
p31
I12
saa(lp32
(dp33
Vstart
p34
I0
sVdisambiguatedURL
p35
Vhttp://dbpedia.org/resource/Rental_vacancy_rate
p36
sVnamedEntity
p37
VRental Vacancy Rate
p38
sVoffset
p39
I19
saa(lp40
(dp41
Vstart
p42
I0
sVdisambiguatedURL
p43
NsVnamedEntity
p44
VVacant Houses in Dublin
p45
sVoffset
p46
I23
saa(lp47
(dp48
Vstart
p49
I0
sVdisambiguatedURL
p50
NsVnamedEntity
p51
VHomes Mortgaged
p52
sVoffset
p53
I15
saa.