ccollections
defaultdict
p1
(c__builtin__
dict
p2
tRp3
I0
(dp4
I1
(lp5
sI2
(lp6
Vhttp://dbpedia.org/ontology/wikiPageExternalLink
p7
aVhttp://www.w3.org/1999/02/22-rdf-syntax-ns#type
p8
aVhttp://dbpedia.org/property/headquarters
p9
aVhttp://www.w3.org/2000/01/rdf-schema#comment
p10
aVhttp://dbpedia.org/ontology/abstract
p11
aVhttp://dbpedia.org/property/wordnet_type
p12
aVhttp://purl.org/voc/vrank#hasRank
p13
aVhttp://dbpedia.org/property/price
p14
aVhttp://dbpedia.org/ontology/thumbnail
p15
aVhttp://www.w3.org/ns/prov#wasDerivedFrom
p16
aVhttp://dbpedia.org/property/hasPhotoCollection
p17
aVhttp://www.w3.org/2002/07/owl#sameAs
p18
assI1
(dp19
I1
(lp20
sI2
(lp21
Vhttp://dbpedia.org/ontology/wikiPageExternalLink
p22
aVhttp://www.w3.org/1999/02/22-rdf-syntax-ns#type
p23
aVhttp://www.w3.org/2000/01/rdf-schema#comment
p24
aVhttp://dbpedia.org/ontology/abstract
p25
aVhttp://dbpedia.org/property/campus
p26
aVhttp://dbpedia.org/property/wordnet_type
p27
aVhttp://purl.org/voc/vrank#hasRank
p28
aVhttp://dbpedia.org/property/hasPhotoCollection
p29
aVhttp://www.w3.org/2002/07/owl#sameAs
p30
assI2
(dp31
I1
(lp32
sI2
(lp33
Vhttp://dbpedia.org/ontology/wikiPageExternalLink
p34
aVhttp://www.w3.org/1999/02/22-rdf-syntax-ns#type
p35
aVhttp://www.w3.org/2000/01/rdf-schema#comment
p36
aVhttp://dbpedia.org/ontology/abstract
p37
aVhttp://dbpedia.org/property/aux
p38
aVhttp://dbpedia.org/property/wordnet_type
p39
aVhttp://purl.org/voc/vrank#hasRank
p40
aVhttp://dbpedia.org/ontology/thumbnail
p41
aVhttp://dbpedia.org/property/hasPhotoCollection
p42
aVhttp://dbpedia.org/ontology/viafId
p43
aVhttp://www.w3.org/2002/07/owl#sameAs
p44
assI3
(dp45
I1
(lp46
sI2
(lp47
Vhttp://www.w3.org/1999/02/22-rdf-syntax-ns#type
p48
aVhttp://www.w3.org/2000/01/rdf-schema#comment
p49
aVhttp://dbpedia.org/ontology/abstract
p50
aVhttp://purl.org/voc/vrank#hasRank
p51
aVhttp://dbpedia.org/property/hasPhotoCollection
p52
aVhttp://www.w3.org/2002/07/owl#sameAs
p53
ass.