(lp1
(lp2
(dp3
Vstart
p4
I0
sVdisambiguatedURL
p5
Vhttp://dbpedia.org/resource/Milwaukee_Journal_Sentinel
p6
sVnamedEntity
p7
VJS Online
p8
sVoffset
p9
I9
saa(lp10
(dp11
Vstart
p12
I0
sVdisambiguatedURL
p13
Vhttp://dbpedia.org/resource/The_Hill_School
p14
sVnamedEntity
p15
VThe Hill
p16
sVoffset
p17
I8
saa(lp18
(dp19
Vstart
p20
I0
sVdisambiguatedURL
p21
Vhttp://dbpedia.org/resource/Alan_Dershowitz
p22
sVnamedEntity
p23
VAlan Dershowitz
p24
sVoffset
p25
I15
saa(lp26
(dp27
Vstart
p28
I0
sVdisambiguatedURL
p29
Vhttp://dbpedia.org/resource/Power_Line
p30
sVnamedEntity
p31
VPower Line
p32
sVoffset
p33
I10
saa.