(lp1
(lp2
(lp3
a(lp4
a(lp5
a(lp6
aa(lp7
(lp8
a(lp9
((lp10
Vhttp://www.w3.org/2002/07/owl#Thing
p11
aVhttp://www.ontologydesignpatterns.org/ont/dul/DUL.owl#Agent
p12
aVhttp://www.ontologydesignpatterns.org/ont/dul/DUL.owl#SocialPerson
p13
aVhttp://www.wikidata.org/entity/Q215380
p14
aVhttp://www.wikidata.org/entity/Q43229
p15
aVhttp://dbpedia.org/ontology/Agent
p16
aVhttp://dbpedia.org/ontology/Band
p17
aVhttp://dbpedia.org/ontology/Group
p18
aVhttp://dbpedia.org/ontology/Organisation
p19
aVhttp://schema.org/MusicGroup
p20
aVhttp://schema.org/Organization
p21
aVhttp://dbpedia.org/class/yago/Abstraction100002137
p22
aVhttp://dbpedia.org/class/yago/DanceBand108249960
p23
aVhttp://dbpedia.org/class/yago/Group100031264
p24
aVhttp://dbpedia.org/class/yago/MusicalOrganization108246613
p25
aVhttp://dbpedia.org/class/yago/Organization108008335
p26
aVhttp://dbpedia.org/class/yago/RockGroup108250501
p27
aVhttp://dbpedia.org/class/yago/SocialGroup107950920
p28
aVhttp://dbpedia.org/class/yago/YagoLegalActorGeo
p29
aVhttp://dbpedia.org/class/yago/YagoPermanentlyLocatedEntity
p30
aVhttp://dbpedia.org/class/yago/GlamRockGroups
p31
aVhttp://dbpedia.org/class/yago/IndustrialRockMusicalGroups
p32
aVhttp://dbpedia.org/class/yago/ItalianAlternativeRockGroups
p33
aVhttp://dbpedia.org/class/yago/MusicalGroupsEstablishedIn2003
p34
aVhttp://dbpedia.org/class/yago/YagoLegalActor
p35
aVhttp://dbpedia.org/resource/Dope_Stars_Inc.
tp36
aa(lp37
a(lp38
aa(lp39
(lp40
a(lp41
((lp42
Vhttp://www.w3.org/2002/07/owl#Thing
p43
aVhttp://www.ontologydesignpatterns.org/ont/dul/DUL.owl#Agent
p44
aVhttp://www.ontologydesignpatterns.org/ont/dul/DUL.owl#SocialPerson
p45
aVhttp://www.wikidata.org/entity/Q215380
p46
aVhttp://www.wikidata.org/entity/Q43229
p47
aVhttp://dbpedia.org/ontology/Agent
p48
aVhttp://dbpedia.org/ontology/Band
p49
aVhttp://dbpedia.org/ontology/Group
p50
aVhttp://dbpedia.org/ontology/Organisation
p51
aVhttp://schema.org/MusicGroup
p52
aVhttp://schema.org/Organization
p53
aVhttp://dbpedia.org/class/yago/Abstraction100002137
p54
aVhttp://dbpedia.org/class/yago/DanceBand108249960
p55
aVhttp://dbpedia.org/class/yago/Group100031264
p56
aVhttp://dbpedia.org/class/yago/MusicalOrganization108246613
p57
aVhttp://dbpedia.org/class/yago/Organization108008335
p58
aVhttp://dbpedia.org/class/yago/RockGroup108250501
p59
aVhttp://dbpedia.org/class/yago/SocialGroup107950920
p60
aVhttp://dbpedia.org/class/yago/YagoLegalActorGeo
p61
aVhttp://dbpedia.org/class/yago/YagoPermanentlyLocatedEntity
p62
aVhttp://dbpedia.org/class/yago/GlamRockGroups
p63
aVhttp://dbpedia.org/class/yago/IndustrialRockMusicalGroups
p64
aVhttp://dbpedia.org/class/yago/ItalianAlternativeRockGroups
p65
aVhttp://dbpedia.org/class/yago/MusicalGroupsEstablishedIn2003
p66
aVhttp://dbpedia.org/class/yago/YagoLegalActor
p67
aVhttp://dbpedia.org/resource/Dope_Stars_Inc.
tp68
aa(lp69
a(lp70
((lVhttp://dbpedia.org/resource/DO-204
tp71
aaa(lp72
(lp73
a(lp74
((lp75
Vhttp://www.w3.org/2002/07/owl#Thing
p76
aVhttp://xmlns.com/foaf/0.1/Person
p77
aVhttp://dbpedia.org/ontology/Person
p78
aVhttp://www.ontologydesignpatterns.org/ont/dul/DUL.owl#Agent
p79
aVhttp://www.ontologydesignpatterns.org/ont/dul/DUL.owl#NaturalPerson
p80
aVhttp://www.wikidata.org/entity/Q215627
p81
aVhttp://www.wikidata.org/entity/Q5
p82
aVhttp://www.wikidata.org/entity/Q95074
p83
aVhttp://dbpedia.org/ontology/Agent
p84
aVhttp://dbpedia.org/ontology/FictionalCharacter
p85
aVhttp://schema.org/Person
p86
aVhttp://dbpedia.org/class/yago/Ability105616246
p87
aVhttp://dbpedia.org/class/yago/Abstraction100002137
p88
aVhttp://dbpedia.org/class/yago/Cognition100023271
p89
aVhttp://dbpedia.org/class/yago/FictionalCharacter109587565
p90
aVhttp://dbpedia.org/class/yago/ComicsCharactersIntroducedIn1938
p91
aVhttp://dbpedia.org/class/yago/Creativity105624700
p92
aVhttp://dbpedia.org/class/yago/ImaginaryBeing109483738
p93
aVhttp://dbpedia.org/class/yago/Imagination105625465
p94
aVhttp://dbpedia.org/class/yago/PsychologicalFeature100023100
p95
aVhttp://dbpedia.org/class/yago/TheAddamsFamilyCharacters
p96
aVhttp://dbpedia.org/resource/Cousin_Itt
tp97
aa(lp98
a(lp99
aa(lp100
(lp101
a(lp102
((lp103
Vhttp://www.w3.org/2002/07/owl#Thing
p104
aVhttp://www.ontologydesignpatterns.org/ont/dul/DUL.owl#Agent
p105
aVhttp://www.ontologydesignpatterns.org/ont/dul/DUL.owl#SocialPerson
p106
aVhttp://www.wikidata.org/entity/Q215380
p107
aVhttp://www.wikidata.org/entity/Q43229
p108
aVhttp://dbpedia.org/ontology/Agent
p109
aVhttp://dbpedia.org/ontology/Band
p110
aVhttp://dbpedia.org/ontology/Group
p111
aVhttp://dbpedia.org/ontology/Organisation
p112
aVhttp://schema.org/MusicGroup
p113
aVhttp://schema.org/Organization
p114
aVhttp://dbpedia.org/class/yago/Abstraction100002137
p115
aVhttp://dbpedia.org/class/yago/DanceBand108249960
p116
aVhttp://dbpedia.org/class/yago/Group100031264
p117
aVhttp://dbpedia.org/class/yago/MusicalOrganization108246613
p118
aVhttp://dbpedia.org/class/yago/Organization108008335
p119
aVhttp://dbpedia.org/class/yago/RockGroup108250501
p120
aVhttp://dbpedia.org/class/yago/SocialGroup107950920
p121
aVhttp://dbpedia.org/class/yago/YagoLegalActorGeo
p122
aVhttp://dbpedia.org/class/yago/YagoPermanentlyLocatedEntity
p123
aVhttp://dbpedia.org/class/yago/GlamRockGroups
p124
aVhttp://dbpedia.org/class/yago/IndustrialRockMusicalGroups
p125
aVhttp://dbpedia.org/class/yago/ItalianAlternativeRockGroups
p126
aVhttp://dbpedia.org/class/yago/MusicalGroupsEstablishedIn2003
p127
aVhttp://dbpedia.org/class/yago/YagoLegalActor
p128
aVhttp://dbpedia.org/resource/Dope_Stars_Inc.
tp129
aa(lp130
a(lp131
aa(lp132
(lp133
a(lp134
((lp135
Vhttp://www.w3.org/2002/07/owl#Thing
p136
aVhttp://www.ontologydesignpatterns.org/ont/dul/DUL.owl#Agent
p137
aVhttp://www.ontologydesignpatterns.org/ont/dul/DUL.owl#SocialPerson
p138
aVhttp://www.wikidata.org/entity/Q215380
p139
aVhttp://www.wikidata.org/entity/Q43229
p140
aVhttp://dbpedia.org/ontology/Agent
p141
aVhttp://dbpedia.org/ontology/Band
p142
aVhttp://dbpedia.org/ontology/Group
p143
aVhttp://dbpedia.org/ontology/Organisation
p144
aVhttp://schema.org/MusicGroup
p145
aVhttp://schema.org/Organization
p146
aVhttp://umbel.org/umbel/rc/Band_MusicGroup
p147
aVhttp://umbel.org/umbel/rc/Organization
p148
aVhttp://dbpedia.org/class/yago/Abstraction100002137
p149
aVhttp://dbpedia.org/class/yago/DanceBand108249960
p150
aVhttp://dbpedia.org/class/yago/Group100031264
p151
aVhttp://dbpedia.org/class/yago/MusicalOrganization108246613
p152
aVhttp://dbpedia.org/class/yago/Organization108008335
p153
aVhttp://dbpedia.org/class/yago/RockGroup108250501
p154
aVhttp://dbpedia.org/class/yago/SocialGroup107950920
p155
aVhttp://dbpedia.org/class/yago/YagoLegalActorGeo
p156
aVhttp://dbpedia.org/class/yago/YagoPermanentlyLocatedEntity
p157
aVhttp://dbpedia.org/class/yago/MusicalGroupsEstablishedIn1994
p158
aVhttp://dbpedia.org/class/yago/YagoLegalActor
p159
aVhttp://dbpedia.org/class/yago/SwedishProgressiveRockGroups
p160
aVhttp://dbpedia.org/resource/The_Flower_Kings
tp161
aa(lp162
a(lp163
((lVhttp://dbpedia.org/resource/DO-204
tp164
aaa(lp165
(lp166
((lVhttp://dbpedia.org/resource/British_Airways_Flight_38
tp167
aa(lp168
((lp169
Vhttp://www.w3.org/2002/07/owl#Thing
p170
aVhttp://www.ontologydesignpatterns.org/ont/dul/DUL.owl#Agent
p171
aVhttp://www.ontologydesignpatterns.org/ont/dul/DUL.owl#SocialPerson
p172
aVhttp://www.wikidata.org/entity/Q215380
p173
aVhttp://www.wikidata.org/entity/Q43229
p174
aVhttp://dbpedia.org/ontology/Agent
p175
aVhttp://dbpedia.org/ontology/Band
p176
aVhttp://dbpedia.org/ontology/Group
p177
aVhttp://dbpedia.org/ontology/Organisation
p178
aVhttp://schema.org/MusicGroup
p179
aVhttp://schema.org/Organization
p180
aVhttp://dbpedia.org/class/yago/Abstraction100002137
p181
aVhttp://dbpedia.org/class/yago/DanceBand108249960
p182
aVhttp://dbpedia.org/class/yago/Group100031264
p183
aVhttp://dbpedia.org/class/yago/MusicalOrganization108246613
p184
aVhttp://dbpedia.org/class/yago/Organization108008335
p185
aVhttp://dbpedia.org/class/yago/RockGroup108250501
p186
aVhttp://dbpedia.org/class/yago/SocialGroup107950920
p187
aVhttp://dbpedia.org/class/yago/YagoLegalActorGeo
p188
aVhttp://dbpedia.org/class/yago/YagoPermanentlyLocatedEntity
p189
aVhttp://dbpedia.org/class/yago/GlamRockGroups
p190
aVhttp://dbpedia.org/class/yago/IndustrialRockMusicalGroups
p191
aVhttp://dbpedia.org/class/yago/ItalianAlternativeRockGroups
p192
aVhttp://dbpedia.org/class/yago/MusicalGroupsEstablishedIn2003
p193
aVhttp://dbpedia.org/class/yago/YagoLegalActor
p194
aVhttp://dbpedia.org/resource/Dope_Stars_Inc.
tp195
aa(lp196
a(lp197
aa(lp198
(lp199
a(lp200
((lp201
Vhttp://www.w3.org/2002/07/owl#Thing
p202
aVhttp://www.ontologydesignpatterns.org/ont/dul/DUL.owl#Agent
p203
aVhttp://www.ontologydesignpatterns.org/ont/dul/DUL.owl#SocialPerson
p204
aVhttp://www.wikidata.org/entity/Q215380
p205
aVhttp://www.wikidata.org/entity/Q43229
p206
aVhttp://dbpedia.org/ontology/Agent
p207
aVhttp://dbpedia.org/ontology/Band
p208
aVhttp://dbpedia.org/ontology/Group
p209
aVhttp://dbpedia.org/ontology/Organisation
p210
aVhttp://schema.org/MusicGroup
p211
aVhttp://schema.org/Organization
p212
aVhttp://umbel.org/umbel/rc/Band_MusicGroup
p213
aVhttp://dbpedia.org/class/yago/Artist109812338
p214
aVhttp://dbpedia.org/class/yago/CausalAgent100007347
p215
aVhttp://dbpedia.org/class/yago/Creator109614315
p216
aVhttp://dbpedia.org/class/yago/LivingThing100004258
p217
aVhttp://dbpedia.org/class/yago/Musician110339966
p218
aVhttp://dbpedia.org/class/yago/Object100002684
p219
aVhttp://dbpedia.org/class/yago/Organism100004475
p220
aVhttp://dbpedia.org/class/yago/Person100007846
p221
aVhttp://dbpedia.org/class/yago/Whole100003553
p222
aVhttp://dbpedia.org/class/yago/YagoLegalActorGeo
p223
aVhttp://dbpedia.org/class/yago/PhysicalEntity100001930
p224
aVhttp://dbpedia.org/class/yago/YagoLegalActor
p225
aVhttp://dbpedia.org/class/yago/VideoGameMusicians
p226
aVhttp://dbpedia.org/resource/S.S.T._Band
tp227
aa(lp228
a(lp229
aa(lp230
(lp231
a(lp232
((lp233
Vhttp://www.w3.org/2002/07/owl#Thing
p234
aVhttp://www.ontologydesignpatterns.org/ont/dul/DUL.owl#Agent
p235
aVhttp://www.ontologydesignpatterns.org/ont/dul/DUL.owl#SocialPerson
p236
aVhttp://www.wikidata.org/entity/Q215380
p237
aVhttp://www.wikidata.org/entity/Q43229
p238
aVhttp://dbpedia.org/ontology/Agent
p239
aVhttp://dbpedia.org/ontology/Band
p240
aVhttp://dbpedia.org/ontology/Group
p241
aVhttp://dbpedia.org/ontology/Organisation
p242
aVhttp://schema.org/MusicGroup
p243
aVhttp://schema.org/Organization
p244
aVhttp://dbpedia.org/class/yago/Abstraction100002137
p245
aVhttp://dbpedia.org/class/yago/DanceBand108249960
p246
aVhttp://dbpedia.org/class/yago/Group100031264
p247
aVhttp://dbpedia.org/class/yago/MusicalOrganization108246613
p248
aVhttp://dbpedia.org/class/yago/Organization108008335
p249
aVhttp://dbpedia.org/class/yago/RockGroup108250501
p250
aVhttp://dbpedia.org/class/yago/SocialGroup107950920
p251
aVhttp://dbpedia.org/class/yago/YagoLegalActorGeo
p252
aVhttp://dbpedia.org/class/yago/YagoPermanentlyLocatedEntity
p253
aVhttp://dbpedia.org/class/yago/GlamRockGroups
p254
aVhttp://dbpedia.org/class/yago/IndustrialRockMusicalGroups
p255
aVhttp://dbpedia.org/class/yago/ItalianAlternativeRockGroups
p256
aVhttp://dbpedia.org/class/yago/MusicalGroupsEstablishedIn2003
p257
aVhttp://dbpedia.org/class/yago/YagoLegalActor
p258
aVhttp://dbpedia.org/resource/Dope_Stars_Inc.
tp259
aa(lp260
a(lp261
aa(lp262
(lp263
a(lp264
((lp265
Vhttp://www.w3.org/2002/07/owl#Thing
p266
aVhttp://www.ontologydesignpatterns.org/ont/dul/DUL.owl#Agent
p267
aVhttp://www.ontologydesignpatterns.org/ont/dul/DUL.owl#SocialPerson
p268
aVhttp://www.wikidata.org/entity/Q215380
p269
aVhttp://www.wikidata.org/entity/Q43229
p270
aVhttp://dbpedia.org/ontology/Agent
p271
aVhttp://dbpedia.org/ontology/Band
p272
aVhttp://dbpedia.org/ontology/Group
p273
aVhttp://dbpedia.org/ontology/Organisation
p274
aVhttp://schema.org/MusicGroup
p275
aVhttp://schema.org/Organization
p276
aVhttp://dbpedia.org/class/yago/Abstraction100002137
p277
aVhttp://dbpedia.org/class/yago/DanceBand108249960
p278
aVhttp://dbpedia.org/class/yago/Group100031264
p279
aVhttp://dbpedia.org/class/yago/MusicalOrganization108246613
p280
aVhttp://dbpedia.org/class/yago/Organization108008335
p281
aVhttp://dbpedia.org/class/yago/RockGroup108250501
p282
aVhttp://dbpedia.org/class/yago/SocialGroup107950920
p283
aVhttp://dbpedia.org/class/yago/YagoLegalActorGeo
p284
aVhttp://dbpedia.org/class/yago/YagoPermanentlyLocatedEntity
p285
aVhttp://dbpedia.org/class/yago/GlamRockGroups
p286
aVhttp://dbpedia.org/class/yago/IndustrialRockMusicalGroups
p287
aVhttp://dbpedia.org/class/yago/ItalianAlternativeRockGroups
p288
aVhttp://dbpedia.org/class/yago/MusicalGroupsEstablishedIn2003
p289
aVhttp://dbpedia.org/class/yago/YagoLegalActor
p290
aVhttp://dbpedia.org/resource/Dope_Stars_Inc.
p291
tp292
aa(lp293
a(lp294
aa.