(lp1
(lp2
(lp3
a(lp4
a(lp5
aa(lp6
(lp7
a(lp8
a(lp9
aa(lp10
(lp11
a(lp12
a(lp13
aa(lp14
(lp15
a(lp16
((lp17
Vhttp://www.w3.org/2002/07/owl#Thing
p18
aVhttp://dbpedia.org/ontology/Place
p19
aVhttp://dbpedia.org/ontology/Location
p20
aVhttp://www.wikidata.org/entity/Q486972
p21
aVhttp://www.wikidata.org/entity/Q515
p22
aVhttp://dbpedia.org/ontology/City
p23
aVhttp://dbpedia.org/ontology/PopulatedPlace
p24
aVhttp://dbpedia.org/ontology/Settlement
p25
aVhttp://www.w3.org/2003/01/geo/wgs84_pos#SpatialThing
p26
aVhttp://schema.org/City
p27
aVhttp://schema.org/Place
p28
aVhttp://umbel.org/umbel/rc/City
p29
aVhttp://umbel.org/umbel/rc/Location_Underspecified
p30
aVhttp://umbel.org/umbel/rc/PopulatedPlace
p31
aVhttp://umbel.org/umbel/rc/Village
p32
aVhttp://dbpedia.org/class/yago/AdministrativeDistrict108491826
p33
aVhttp://dbpedia.org/class/yago/Area108497294
p34
aVhttp://dbpedia.org/class/yago/Capital108518505
p35
aVhttp://dbpedia.org/class/yago/Center108523483
p36
aVhttp://dbpedia.org/class/yago/City108524735
p37
aVhttp://dbpedia.org/class/yago/District108552138
p38
aVhttp://dbpedia.org/class/yago/Location100027167
p39
aVhttp://dbpedia.org/class/yago/Object100002684
p40
aVhttp://dbpedia.org/class/yago/Region108630985
p41
aVhttp://dbpedia.org/class/yago/Seat108647945
p42
aVhttp://dbpedia.org/class/yago/Site108651247
p43
aVhttp://dbpedia.org/class/yago/Tract108673395
p44
aVhttp://dbpedia.org/class/yago/UrbanArea108675967
p45
aVhttp://dbpedia.org/class/yago/YagoGeoEntity
p46
aVhttp://dbpedia.org/class/yago/YagoLegalActorGeo
p47
aVhttp://dbpedia.org/class/yago/CitiesInMaryland
p48
aVhttp://dbpedia.org/class/yago/EarlyAmericanIndustrialCenters
p49
aVhttp://dbpedia.org/class/yago/FormerCapitalsOfTheUnitedStates
p50
aVhttp://dbpedia.org/class/yago/GeographicalArea108574314
p51
aVhttp://dbpedia.org/class/yago/Municipality108626283
p52
aVhttp://dbpedia.org/class/yago/PhysicalEntity100001930
p53
aVhttp://dbpedia.org/class/yago/YagoPermanentlyLocatedEntity
p54
aVhttp://dbpedia.org/class/yago/IndependentCitiesInTheUnitedStates
p55
aVhttp://dbpedia.org/class/yago/PopulatedPlacesEstablishedIn1729
p56
aVhttp://dbpedia.org/class/yago/PopulatedPlacesInMarylandWithAfricanAmericanMajorityPopulations
p57
aVhttp://dbpedia.org/class/yago/PortSettlementsInTheUnitedStates
p58
aVhttp://dbpedia.org/resource/Baltimore
tp59
aa(lp60
aa(lp61
(lp62
a(lp63
((lp64
Vhttp://www.w3.org/2002/07/owl#Thing
p65
aVhttp://dbpedia.org/ontology/Place
p66
aVhttp://dbpedia.org/ontology/Location
p67
aVhttp://www.wikidata.org/entity/Q486972
p68
aVhttp://www.wikidata.org/entity/Q515
p69
aVhttp://dbpedia.org/ontology/City
p70
aVhttp://dbpedia.org/ontology/PopulatedPlace
p71
aVhttp://dbpedia.org/ontology/Settlement
p72
aVhttp://www.w3.org/2003/01/geo/wgs84_pos#SpatialThing
p73
aVhttp://schema.org/City
p74
aVhttp://schema.org/Place
p75
aVhttp://umbel.org/umbel/rc/City
p76
aVhttp://umbel.org/umbel/rc/Location_Underspecified
p77
aVhttp://umbel.org/umbel/rc/PopulatedPlace
p78
aVhttp://umbel.org/umbel/rc/Village
p79
aVhttp://dbpedia.org/class/yago/AdministrativeDistrict108491826
p80
aVhttp://dbpedia.org/class/yago/Area108497294
p81
aVhttp://dbpedia.org/class/yago/Center108523483
p82
aVhttp://dbpedia.org/class/yago/City108524735
p83
aVhttp://dbpedia.org/class/yago/District108552138
p84
aVhttp://dbpedia.org/class/yago/Location100027167
p85
aVhttp://dbpedia.org/class/yago/Object100002684
p86
aVhttp://dbpedia.org/class/yago/Region108630985
p87
aVhttp://dbpedia.org/class/yago/Seat108647945
p88
aVhttp://dbpedia.org/class/yago/Site108651247
p89
aVhttp://dbpedia.org/class/yago/Tract108673395
p90
aVhttp://dbpedia.org/class/yago/UrbanArea108675967
p91
aVhttp://dbpedia.org/class/yago/YagoGeoEntity
p92
aVhttp://dbpedia.org/class/yago/YagoLegalActorGeo
p93
aVhttp://dbpedia.org/class/yago/CitiesInNorthCarolina
p94
aVhttp://dbpedia.org/class/yago/CountySeat108547143
p95
aVhttp://dbpedia.org/class/yago/CountySeatsInNorthCarolina
p96
aVhttp://dbpedia.org/class/yago/GeographicalArea108574314
p97
aVhttp://dbpedia.org/class/yago/Municipality108626283
p98
aVhttp://dbpedia.org/class/yago/PhysicalEntity100001930
p99
aVhttp://dbpedia.org/class/yago/YagoPermanentlyLocatedEntity
p100
aVhttp://dbpedia.org/class/yago/PopulatedPlacesEstablishedIn1755
p101
aVhttp://dbpedia.org/class/yago/PopulatedPlacesInMecklenburgCounty,NorthCarolina
p102
aVhttp://dbpedia.org/resource/Charlotte,_North_Carolina
tp103
aa(lp104
aa(lp105
(lp106
a(lp107
a(lp108
aa(lp109
(lp110
a(lp111
a(lp112
aa(lp113
(lp114
a(lp115
a(lp116
aa(lp117
(lp118
a(lp119
a(lp120
aa(lp121
(lp122
a(lp123
a(lp124
aa(lp125
(lp126
a(lp127
a(lp128
aa(lp129
(lp130
a(lp131
a(lp132
aa(lp133
(lp134
a(lp135
a(lp136
aa(lp137
(lp138
a(lp139
a(lp140
aa(lp141
(lp142
a(lp143
a(lp144
aa(lp145
(lp146
a(lp147
a(lp148
aa(lp149
(lp150
a(lp151
a(lp152
aa(lp153
(lp154
a(lp155
a(lp156
aa(lp157
(lp158
a(lp159
((lp160
Vhttp://www.w3.org/2002/07/owl#Thing
p161
aVhttp://dbpedia.org/ontology/Place
p162
aVhttp://dbpedia.org/ontology/Location
p163
aVhttp://www.wikidata.org/entity/Q486972
p164
aVhttp://www.wikidata.org/entity/Q515
p165
aVhttp://dbpedia.org/ontology/City
p166
aVhttp://dbpedia.org/ontology/PopulatedPlace
p167
aVhttp://dbpedia.org/ontology/Settlement
p168
aVhttp://www.w3.org/2003/01/geo/wgs84_pos#SpatialThing
p169
aVhttp://schema.org/City
p170
aVhttp://schema.org/Place
p171
aVhttp://umbel.org/umbel/rc/City
p172
aVhttp://umbel.org/umbel/rc/Location_Underspecified
p173
aVhttp://umbel.org/umbel/rc/PopulatedPlace
p174
aVhttp://umbel.org/umbel/rc/Village
p175
aVhttp://dbpedia.org/class/yago/AdministrativeDistrict108491826
p176
aVhttp://dbpedia.org/class/yago/Area108497294
p177
aVhttp://dbpedia.org/class/yago/Center108523483
p178
aVhttp://dbpedia.org/class/yago/City108524735
p179
aVhttp://dbpedia.org/class/yago/District108552138
p180
aVhttp://dbpedia.org/class/yago/Location100027167
p181
aVhttp://dbpedia.org/class/yago/Object100002684
p182
aVhttp://dbpedia.org/class/yago/Region108630985
p183
aVhttp://dbpedia.org/class/yago/Seat108647945
p184
aVhttp://dbpedia.org/class/yago/Site108651247
p185
aVhttp://dbpedia.org/class/yago/Tract108673395
p186
aVhttp://dbpedia.org/class/yago/UrbanArea108675967
p187
aVhttp://dbpedia.org/class/yago/YagoGeoEntity
p188
aVhttp://dbpedia.org/class/yago/YagoLegalActorGeo
p189
aVhttp://dbpedia.org/class/yago/CitiesInLosAngelesCounty,California
p190
aVhttp://dbpedia.org/class/yago/CountySeat108547143
p191
aVhttp://dbpedia.org/class/yago/CountySeatsInCalifornia
p192
aVhttp://dbpedia.org/class/yago/GeographicalArea108574314
p193
aVhttp://dbpedia.org/class/yago/Municipality108626283
p194
aVhttp://dbpedia.org/class/yago/PhysicalEntity100001930
p195
aVhttp://dbpedia.org/class/yago/YagoPermanentlyLocatedEntity
p196
aVhttp://dbpedia.org/class/yago/HostCitiesOfTheSummerOlympicGames
p197
aVhttp://dbpedia.org/class/yago/IncorporatedCitiesAndTownsInCalifornia
p198
aVhttp://dbpedia.org/class/yago/PopulatedCoastalPlacesInCalifornia
p199
aVhttp://dbpedia.org/class/yago/PopulatedPlacesEstablishedIn1781
p200
aVhttp://dbpedia.org/class/yago/PopulatedPlacesInTheUnitedStatesWithHispanicPluralityPopulations
p201
aVhttp://dbpedia.org/class/yago/PortSettlementsInTheUnitedStates
p202
aVhttp://dbpedia.org/resource/Los_Angeles
p203
tp204
aa(lp205
aa.