(lp1
(lp2
(lp3
a(lp4
a(lp5
aa(lp6
(lp7
Vhttp://dbpedia.org/resource/MMA
p8
aa(lp9
a(lp10
aa(lp11
(lp12
a(lp13
a(lp14
aa(lp15
(lp16
a(lp17
a(lp18
aa(lp19
(lp20
a(lp21
a(lp22
aa(lp23
(lp24
a(lp25
a(lp26
aa(lp27
(lp28
a(lp29
a(lp30
aa.