(lp1
(lp2
a(lp3
a(lp4
a(lp5
a(lp6
(dp7
Vstart
p8
I0
sS'classes'
p9
(lp10
Vhttp://www.w3.org/2002/07/owl#Thing
p11
aVhttp://xmlns.com/foaf/0.1/Person
p12
aVhttp://dbpedia.org/ontology/Person
p13
aVhttp://www.ontologydesignpatterns.org/ont/dul/DUL.owl#Agent
p14
aVhttp://www.ontologydesignpatterns.org/ont/dul/DUL.owl#NaturalPerson
p15
aVhttp://www.wikidata.org/entity/Q215627
p16
aVhttp://www.wikidata.org/entity/Q5
p17
aVhttp://dbpedia.org/ontology/Agent
p18
aVhttp://schema.org/Person
p19
aVhttp://umbel.org/umbel/rc/PersonWithOccupation
p20
aVhttp://dbpedia.org/class/yago/3rd-centuryBCGreekPeople
p21
aVhttp://dbpedia.org/class/yago/3rd-centuryBCPoets
p22
aVhttp://dbpedia.org/class/yago/Adult109605289
p23
aVhttp://dbpedia.org/class/yago/AncientGreekAstronomers
p24
aVhttp://dbpedia.org/class/yago/AncientGreekAthletes
p25
aVhttp://dbpedia.org/class/yago/AncientGreekGeographers
p26
aVhttp://dbpedia.org/class/yago/AncientGreekMathematicians
p27
aVhttp://dbpedia.org/class/yago/AncientGreekMusicTheorists
p28
aVhttp://dbpedia.org/class/yago/AncientGreekPoets
p29
aVhttp://dbpedia.org/class/yago/Astronomer109818343
p30
aVhttp://dbpedia.org/class/yago/Athlete109820263
p31
aVhttp://dbpedia.org/class/yago/CausalAgent100007347
p32
aVhttp://dbpedia.org/class/yago/Communicator109610660
p33
aVhttp://dbpedia.org/class/yago/Contestant109613191
p34
aVhttp://dbpedia.org/class/yago/Expert109617867
p35
aVhttp://dbpedia.org/class/yago/Geographer110127555
p36
aVhttp://dbpedia.org/class/yago/Geometer110128016
p37
aVhttp://dbpedia.org/class/yago/Intellectual109621545
p38
aVhttp://dbpedia.org/class/yago/Librarian110257948
p39
aVhttp://dbpedia.org/class/yago/LivingThing100004258
p40
aVhttp://dbpedia.org/class/yago/Mathematician110301261
p41
aVhttp://dbpedia.org/class/yago/Object100002684
p42
aVhttp://dbpedia.org/class/yago/Organism100004475
p43
aVhttp://dbpedia.org/class/yago/Person100007846
p44
aVhttp://dbpedia.org/class/yago/Physicist110428004
p45
aVhttp://dbpedia.org/class/yago/Poet110444194
p46
aVhttp://dbpedia.org/class/yago/Professional110480253
p47
aVhttp://dbpedia.org/class/yago/Scientist110560637
p48
aVhttp://dbpedia.org/class/yago/Theorist110706812
p49
aVhttp://dbpedia.org/class/yago/Whole100003553
p50
aVhttp://dbpedia.org/class/yago/Writer110794014
p51
aVhttp://dbpedia.org/class/yago/YagoLegalActorGeo
p52
aVhttp://dbpedia.org/class/yago/PhysicalEntity100001930
p53
aVhttp://dbpedia.org/class/yago/Geometers
p54
aVhttp://dbpedia.org/class/yago/LibrariansOfAlexandria
p55
aVhttp://dbpedia.org/class/yago/NumberTheorist110366276
p56
aVhttp://dbpedia.org/class/yago/NumberTheorists
p57
aVhttp://dbpedia.org/class/yago/YagoLegalActor
p58
asVdisambiguatedURL
p59
Vhttp://dbpedia.org/resource/Eratosthenes
p60
sVnamedEntity
p61
Veratosthenes
p62
sVoffset
p63
I12
saa(lp64
a(lp65
a(lp66
(dp67
Vstart
p68
I0
sg9
(lp69
Vhttp://www.w3.org/2002/07/owl#Thing
p70
aVhttp://xmlns.com/foaf/0.1/Person
p71
aVhttp://dbpedia.org/ontology/Person
p72
aVhttp://www.ontologydesignpatterns.org/ont/dul/DUL.owl#Agent
p73
aVhttp://www.ontologydesignpatterns.org/ont/dul/DUL.owl#NaturalPerson
p74
aVhttp://www.wikidata.org/entity/Q215627
p75
aVhttp://www.wikidata.org/entity/Q5
p76
aVhttp://www.wikidata.org/entity/Q901
p77
aVhttp://dbpedia.org/ontology/Agent
p78
aVhttp://dbpedia.org/ontology/Scientist
p79
aVhttp://schema.org/Person
p80
aVhttp://umbel.org/umbel/rc/PersonWithOccupation
p81
aVhttp://umbel.org/umbel/rc/Scientist
p82
aVhttp://dbpedia.org/class/yago/16th-centuryAstronomers
p83
aVhttp://dbpedia.org/class/yago/16th-centuryLatin-languageWriters
p84
aVhttp://dbpedia.org/class/yago/16th-centuryMathematicians
p85
aVhttp://dbpedia.org/class/yago/AlumniOfJagiellonianUniversity
p86
aVhttp://dbpedia.org/class/yago/Alumnus109786338
p87
aVhttp://dbpedia.org/class/yago/AnglicanSaints
p88
aVhttp://dbpedia.org/class/yago/Astronomer109818343
p89
aVhttp://dbpedia.org/class/yago/AstronomersFromRoyalPrussia
p90
aVhttp://dbpedia.org/class/yago/CausalAgent100007347
p91
aVhttp://dbpedia.org/class/yago/Communicator109610660
p92
aVhttp://dbpedia.org/class/yago/Economist110043643
p93
aVhttp://dbpedia.org/class/yago/GoodPerson110138767
p94
aVhttp://dbpedia.org/class/yago/Intellectual109621545
p95
aVhttp://dbpedia.org/class/yago/LivingThing100004258
p96
aVhttp://dbpedia.org/class/yago/Mathematician110301261
p97
aVhttp://dbpedia.org/class/yago/Object100002684
p98
aVhttp://dbpedia.org/class/yago/Organism100004475
p99
aVhttp://dbpedia.org/class/yago/Person100007846
p100
aVhttp://dbpedia.org/class/yago/Philosopher110423589
p101
aVhttp://dbpedia.org/class/yago/Physicist110428004
p102
aVhttp://dbpedia.org/class/yago/Saint110546850
p103
aVhttp://dbpedia.org/class/yago/Scholar110557854
p104
aVhttp://dbpedia.org/class/yago/Scientist110560637
p105
aVhttp://dbpedia.org/class/yago/SocialScientist110619642
p106
aVhttp://dbpedia.org/class/yago/Whole100003553
p107
aVhttp://dbpedia.org/class/yago/Writer110794014
p108
aVhttp://dbpedia.org/class/yago/YagoLegalActorGeo
p109
aVhttp://dbpedia.org/class/yago/PhysicalEntity100001930
p110
aVhttp://dbpedia.org/class/yago/GermanAstronomers
p111
aVhttp://dbpedia.org/class/yago/GermanEconomists
p112
aVhttp://dbpedia.org/class/yago/GermanPhilosophers
p113
aVhttp://dbpedia.org/class/yago/PeopleCelebratedInTheLutheranLiturgicalCalendar
p114
aVhttp://dbpedia.org/class/yago/PeopleFromRoyalPrussia
p115
aVhttp://dbpedia.org/class/yago/PeopleFromToru%C5%84
p116
aVhttp://dbpedia.org/class/yago/PeopleOfThePolish%E2%80%93TeutonicWar1519%E2%80%931521
p117
aVhttp://dbpedia.org/class/yago/PolishAstronomers
p118
aVhttp://dbpedia.org/class/yago/PolishEconomists
p119
aVhttp://dbpedia.org/class/yago/PolishPhilosophers
p120
aVhttp://dbpedia.org/class/yago/YagoLegalActor
p121
aVhttp://dbpedia.org/class/yago/RenaissancePeople
p122
asVdisambiguatedURL
p123
Vhttp://dbpedia.org/resource/Nicolaus_Copernicus
p124
sVnamedEntity
p125
Vnicolaus copernicus
p126
sVoffset
p127
I19
saa(lp128
(dp129
Vstart
p130
I0
sg9
(lp131
Vhttp://www.w3.org/2002/07/owl#Thing
p132
aVhttp://xmlns.com/foaf/0.1/Person
p133
aVhttp://dbpedia.org/ontology/Person
p134
aVhttp://www.ontologydesignpatterns.org/ont/dul/DUL.owl#Agent
p135
aVhttp://www.ontologydesignpatterns.org/ont/dul/DUL.owl#NaturalPerson
p136
aVhttp://www.wikidata.org/entity/Q215627
p137
aVhttp://www.wikidata.org/entity/Q5
p138
aVhttp://www.wikidata.org/entity/Q901
p139
aVhttp://dbpedia.org/ontology/Agent
p140
aVhttp://dbpedia.org/ontology/Scientist
p141
aVhttp://schema.org/Person
p142
aVhttp://umbel.org/umbel/rc/Scientist
p143
aVhttp://dbpedia.org/class/yago/16th-centuryFlemishPhysicians
p144
aVhttp://dbpedia.org/class/yago/16th-centuryLatin-languageWriters
p145
aVhttp://dbpedia.org/class/yago/Adult109605289
p146
aVhttp://dbpedia.org/class/yago/Anatomist109792237
p147
aVhttp://dbpedia.org/class/yago/Anatomists
p148
aVhttp://dbpedia.org/class/yago/BelgianScientists
p149
aVhttp://dbpedia.org/class/yago/CausalAgent100007347
p150
aVhttp://dbpedia.org/class/yago/Communicator109610660
p151
aVhttp://dbpedia.org/class/yago/Doctor110020890
p152
aVhttp://dbpedia.org/class/yago/Expert109617867
p153
aVhttp://dbpedia.org/class/yago/HealthProfessional110165109
p154
aVhttp://dbpedia.org/class/yago/LivingThing100004258
p155
aVhttp://dbpedia.org/class/yago/Object100002684
p156
aVhttp://dbpedia.org/class/yago/Organism100004475
p157
aVhttp://dbpedia.org/class/yago/Person100007846
p158
aVhttp://dbpedia.org/class/yago/Professional110480253
p159
aVhttp://dbpedia.org/class/yago/Scientist110560637
p160
aVhttp://dbpedia.org/class/yago/Whole100003553
p161
aVhttp://dbpedia.org/class/yago/Writer110794014
p162
aVhttp://dbpedia.org/class/yago/YagoLegalActorGeo
p163
aVhttp://dbpedia.org/class/yago/MedicalPractitioner110305802
p164
aVhttp://dbpedia.org/class/yago/PhysicalEntity100001930
p165
aVhttp://dbpedia.org/class/yago/YagoLegalActor
p166
asVdisambiguatedURL
p167
Vhttp://dbpedia.org/resource/Andreas_Vesalius
p168
sVnamedEntity
p169
Vandreas vesalius
p170
sVoffset
p171
I16
saa(lp172
a(lp173
(dp174
Vstart
p175
I0
sg9
(lp176
Vhttp://www.w3.org/2002/07/owl#Thing
p177
aVhttp://xmlns.com/foaf/0.1/Person
p178
aVhttp://dbpedia.org/ontology/Person
p179
aVhttp://www.ontologydesignpatterns.org/ont/dul/DUL.owl#Agent
p180
aVhttp://www.ontologydesignpatterns.org/ont/dul/DUL.owl#NaturalPerson
p181
aVhttp://www.wikidata.org/entity/Q215627
p182
aVhttp://www.wikidata.org/entity/Q5
p183
aVhttp://www.wikidata.org/entity/Q901
p184
aVhttp://dbpedia.org/ontology/Agent
p185
aVhttp://dbpedia.org/ontology/Scientist
p186
aVhttp://schema.org/Person
p187
aVhttp://umbel.org/umbel/rc/Scientist
p188
aVhttp://dbpedia.org/class/yago/16th-centuryGermanPeople
p189
aVhttp://dbpedia.org/class/yago/16th-centuryLatin-languageWriters
p190
aVhttp://dbpedia.org/class/yago/16th-centuryMathematicians
p191
aVhttp://dbpedia.org/class/yago/17th-centuryAstronomers
p192
aVhttp://dbpedia.org/class/yago/17th-centuryGermanPeople
p193
aVhttp://dbpedia.org/class/yago/17th-centuryLatin-languageWriters
p194
aVhttp://dbpedia.org/class/yago/17th-centuryMathematicians
p195
aVhttp://dbpedia.org/class/yago/Absentee109757653
p196
aVhttp://dbpedia.org/class/yago/AnglicanSaints
p197
aVhttp://dbpedia.org/class/yago/Astrologer109817816
p198
aVhttp://dbpedia.org/class/yago/Astronomer109818343
p199
aVhttp://dbpedia.org/class/yago/CausalAgent100007347
p200
aVhttp://dbpedia.org/class/yago/Communicator109610660
p201
aVhttp://dbpedia.org/class/yago/Exile110071332
p202
aVhttp://dbpedia.org/class/yago/Forecaster110102506
p203
aVhttp://dbpedia.org/class/yago/GoodPerson110138767
p204
aVhttp://dbpedia.org/class/yago/Intellectual109621545
p205
aVhttp://dbpedia.org/class/yago/LivingThing100004258
p206
aVhttp://dbpedia.org/class/yago/Mathematician110301261
p207
aVhttp://dbpedia.org/class/yago/Object100002684
p208
aVhttp://dbpedia.org/class/yago/Organism100004475
p209
aVhttp://dbpedia.org/class/yago/Person100007846
p210
aVhttp://dbpedia.org/class/yago/Philosopher110423589
p211
aVhttp://dbpedia.org/class/yago/Physicist110428004
p212
aVhttp://dbpedia.org/class/yago/Saint110546850
p213
aVhttp://dbpedia.org/class/yago/Scholar110557854
p214
aVhttp://dbpedia.org/class/yago/Scientist110560637
p215
aVhttp://dbpedia.org/class/yago/Theorist110706812
p216
aVhttp://dbpedia.org/class/yago/Traveler109629752
p217
aVhttp://dbpedia.org/class/yago/Visionary110756433
p218
aVhttp://dbpedia.org/class/yago/Whole100003553
p219
aVhttp://dbpedia.org/class/yago/Writer110794014
p220
aVhttp://dbpedia.org/class/yago/YagoLegalActorGeo
p221
aVhttp://dbpedia.org/class/yago/ChristianAstrologers
p222
aVhttp://dbpedia.org/class/yago/Cosmologist109819667
p223
aVhttp://dbpedia.org/class/yago/Cosmologists
p224
aVhttp://dbpedia.org/class/yago/PhysicalEntity100001930
p225
aVhttp://dbpedia.org/class/yago/GermanAstrologers
p226
aVhttp://dbpedia.org/class/yago/GermanAstronomers
p227
aVhttp://dbpedia.org/class/yago/GermanExpatriatesInAustria
p228
aVhttp://dbpedia.org/class/yago/GermanExpatriatesInTheCzechLands
p229
aVhttp://dbpedia.org/class/yago/GermanMathematicians
p230
aVhttp://dbpedia.org/class/yago/GermanMusicTheorists
p231
aVhttp://dbpedia.org/class/yago/GermanScienceFictionWriters
p232
aVhttp://dbpedia.org/class/yago/NaturalPhilosophers
p233
aVhttp://dbpedia.org/class/yago/PeopleFromPrague
p234
aVhttp://dbpedia.org/class/yago/PeopleFromWeilDerStadt
p235
aVhttp://dbpedia.org/class/yago/YagoLegalActor
p236
asVdisambiguatedURL
p237
Vhttp://dbpedia.org/resource/Johannes_Kepler
p238
sVnamedEntity
p239
Vjohannes kepler
p240
sVoffset
p241
I15
saa(lp242
a(lp243
a(lp244
(dp245
Vstart
p246
I0
sg9
(lp247
Vhttp://www.w3.org/2002/07/owl#Thing
p248
aVhttp://xmlns.com/foaf/0.1/Person
p249
aVhttp://dbpedia.org/ontology/Person
p250
aVhttp://www.ontologydesignpatterns.org/ont/dul/DUL.owl#Agent
p251
aVhttp://www.ontologydesignpatterns.org/ont/dul/DUL.owl#NaturalPerson
p252
aVhttp://www.wikidata.org/entity/Q215627
p253
aVhttp://www.wikidata.org/entity/Q4964182
p254
aVhttp://www.wikidata.org/entity/Q5
p255
aVhttp://dbpedia.org/ontology/Agent
p256
aVhttp://dbpedia.org/ontology/Philosopher
p257
aVhttp://schema.org/Person
p258
aVhttp://umbel.org/umbel/rc/Philosopher
p259
aVhttp://dbpedia.org/class/yago/17th-centuryFrenchWriters
p260
aVhttp://dbpedia.org/class/yago/17th-centuryMathematicians
p261
aVhttp://dbpedia.org/class/yago/Advocate109774783
p262
aVhttp://dbpedia.org/class/yago/Aphorist109798404
p263
aVhttp://dbpedia.org/class/yago/Aphorists
p264
aVhttp://dbpedia.org/class/yago/Apologist109798534
p265
aVhttp://dbpedia.org/class/yago/Believer109847727
p266
aVhttp://dbpedia.org/class/yago/CausalAgent100007347
p267
aVhttp://dbpedia.org/class/yago/Communicator109610660
p268
aVhttp://dbpedia.org/class/yago/Creator109614315
p269
aVhttp://dbpedia.org/class/yago/Humanist110191192
p270
aVhttp://dbpedia.org/class/yago/Intellectual109621545
p271
aVhttp://dbpedia.org/class/yago/LivingThing100004258
p272
aVhttp://dbpedia.org/class/yago/Mathematician110301261
p273
aVhttp://dbpedia.org/class/yago/Mystic110343554
p274
aVhttp://dbpedia.org/class/yago/Object100002684
p275
aVhttp://dbpedia.org/class/yago/Organism100004475
p276
aVhttp://dbpedia.org/class/yago/Patient110405694
p277
aVhttp://dbpedia.org/class/yago/Person100007846
p278
aVhttp://dbpedia.org/class/yago/Philosopher110423589
p279
aVhttp://dbpedia.org/class/yago/Physicist110428004
p280
aVhttp://dbpedia.org/class/yago/Pioneer110434725
p281
aVhttp://dbpedia.org/class/yago/ReligiousPerson109628382
p282
aVhttp://dbpedia.org/class/yago/Scholar110557854
p283
aVhttp://dbpedia.org/class/yago/Scientist110560637
p284
aVhttp://dbpedia.org/class/yago/SickPerson110595647
p285
aVhttp://dbpedia.org/class/yago/Theologian110705615
p286
aVhttp://dbpedia.org/class/yago/Unfortunate109630641
p287
aVhttp://dbpedia.org/class/yago/Whole100003553
p288
aVhttp://dbpedia.org/class/yago/Writer110794014
p289
aVhttp://dbpedia.org/class/yago/YagoLegalActorGeo
p290
aVhttp://dbpedia.org/class/yago/Case109898892
p291
aVhttp://dbpedia.org/class/yago/ChristianApologists
p292
aVhttp://dbpedia.org/class/yago/ChristianHumanists
p293
aVhttp://dbpedia.org/class/yago/ChristianMystics
p294
aVhttp://dbpedia.org/class/yago/ChristianPhilosophers
p295
aVhttp://dbpedia.org/class/yago/ComputerPioneers
p296
aVhttp://dbpedia.org/class/yago/FrenchMathematicians
p297
aVhttp://dbpedia.org/class/yago/FrenchPhilosophers
p298
aVhttp://dbpedia.org/class/yago/FrenchPhysicists
p299
aVhttp://dbpedia.org/class/yago/FrenchReligiousWriters
p300
aVhttp://dbpedia.org/class/yago/FrenchTheologians
p301
aVhttp://dbpedia.org/class/yago/Originator110383816
p302
aVhttp://dbpedia.org/class/yago/PhysicalEntity100001930
p303
aVhttp://dbpedia.org/class/yago/Hypochondriac110195487
p304
aVhttp://dbpedia.org/class/yago/Hypochondriacs
p305
aVhttp://dbpedia.org/class/yago/PeopleFromClermont-Ferrand
p306
aVhttp://dbpedia.org/class/yago/YagoLegalActor
p307
aVhttp://dbpedia.org/class/yago/ProbabilityTheorist110477465
p308
aVhttp://dbpedia.org/class/yago/ProbabilityTheorists
p309
aVhttp://dbpedia.org/class/yago/RomanCatholicPhilosophers
p310
aVhttp://dbpedia.org/class/yago/RomanCatholicWriters
p311
asVdisambiguatedURL
p312
Vhttp://dbpedia.org/resource/Blaise_Pascal
p313
sVnamedEntity
p314
Vblaise pascal
p315
sVoffset
p316
I13
saa(lp317
a(lp318
(dp319
Vstart
p320
I0
sg9
(lp321
Vhttp://www.w3.org/2002/07/owl#Thing
p322
aVhttp://xmlns.com/foaf/0.1/Person
p323
aVhttp://dbpedia.org/ontology/Person
p324
aVhttp://www.ontologydesignpatterns.org/ont/dul/DUL.owl#Agent
p325
aVhttp://www.ontologydesignpatterns.org/ont/dul/DUL.owl#NaturalPerson
p326
aVhttp://www.wikidata.org/entity/Q215627
p327
aVhttp://www.wikidata.org/entity/Q5
p328
aVhttp://www.wikidata.org/entity/Q901
p329
aVhttp://dbpedia.org/ontology/Agent
p330
aVhttp://dbpedia.org/ontology/Scientist
p331
aVhttp://schema.org/Person
p332
aVhttp://umbel.org/umbel/rc/PersonWithOccupation
p333
aVhttp://umbel.org/umbel/rc/Scientist
p334
aVhttp://dbpedia.org/class/yago/17th-centuryAstronomers
p335
aVhttp://dbpedia.org/class/yago/17th-centuryLatin-languageWriters
p336
aVhttp://dbpedia.org/class/yago/17th-centuryMathematicians
p337
aVhttp://dbpedia.org/class/yago/Alumnus109786338
p338
aVhttp://dbpedia.org/class/yago/Associate109816771
p339
aVhttp://dbpedia.org/class/yago/Astronomer109818343
p340
aVhttp://dbpedia.org/class/yago/CausalAgent100007347
p341
aVhttp://dbpedia.org/class/yago/Colleague109935990
p342
aVhttp://dbpedia.org/class/yago/Communicator109610660
p343
aVhttp://dbpedia.org/class/yago/Creator109614315
p344
aVhttp://dbpedia.org/class/yago/Intellectual109621545
p345
aVhttp://dbpedia.org/class/yago/Inventor110214637
p346
aVhttp://dbpedia.org/class/yago/LivingThing100004258
p347
aVhttp://dbpedia.org/class/yago/Maker110284064
p348
aVhttp://dbpedia.org/class/yago/Mathematician110301261
p349
aVhttp://dbpedia.org/class/yago/Object100002684
p350
aVhttp://dbpedia.org/class/yago/Organism100004475
p351
aVhttp://dbpedia.org/class/yago/Peer109626238
p352
aVhttp://dbpedia.org/class/yago/Person100007846
p353
aVhttp://dbpedia.org/class/yago/Physicist110428004
p354
aVhttp://dbpedia.org/class/yago/Scholar110557854
p355
aVhttp://dbpedia.org/class/yago/Scientist110560637
p356
aVhttp://dbpedia.org/class/yago/Theorist110706812
p357
aVhttp://dbpedia.org/class/yago/Whole100003553
p358
aVhttp://dbpedia.org/class/yago/Writer110794014
p359
aVhttp://dbpedia.org/class/yago/YagoLegalActorGeo
p360
aVhttp://dbpedia.org/class/yago/DiscoverersOfMoons
p361
aVhttp://dbpedia.org/class/yago/DutchAstronomers
p362
aVhttp://dbpedia.org/class/yago/DutchInventors
p363
aVhttp://dbpedia.org/class/yago/DutchMathematicians
p364
aVhttp://dbpedia.org/class/yago/DutchMusicTheorists
p365
aVhttp://dbpedia.org/class/yago/DutchPhysicists
p366
aVhttp://dbpedia.org/class/yago/FellowsOfTheRoyalSociety
p367
aVhttp://dbpedia.org/class/yago/PhysicalEntity100001930
p368
aVhttp://dbpedia.org/class/yago/LeidenUniversityAlumni
p369
aVhttp://dbpedia.org/class/yago/OpticalPhysicists
p370
aVhttp://dbpedia.org/class/yago/PeopleFromTheHague
p371
aVhttp://dbpedia.org/class/yago/PeopleOfTheDutchGoldenAge
p372
aVhttp://dbpedia.org/class/yago/YagoLegalActor
p373
aVhttp://dbpedia.org/class/yago/ScientificInstrumentMakers
p374
aVhttp://dbpedia.org/class/yago/TheoreticalPhysicists
p375
asVdisambiguatedURL
p376
Vhttp://dbpedia.org/resource/Christiaan_Huygens
p377
sVnamedEntity
p378
Vchristian huygens
p379
sVoffset
p380
I17
saa(lp381
(dp382
Vstart
p383
I0
sg9
(lp384
Vhttp://www.w3.org/2002/07/owl#Thing
p385
aVhttp://xmlns.com/foaf/0.1/Person
p386
aVhttp://dbpedia.org/ontology/Person
p387
aVhttp://www.ontologydesignpatterns.org/ont/dul/DUL.owl#Agent
p388
aVhttp://www.ontologydesignpatterns.org/ont/dul/DUL.owl#NaturalPerson
p389
aVhttp://www.wikidata.org/entity/Q215627
p390
aVhttp://www.wikidata.org/entity/Q5
p391
aVhttp://www.wikidata.org/entity/Q901
p392
aVhttp://dbpedia.org/ontology/Agent
p393
aVhttp://dbpedia.org/ontology/Scientist
p394
aVhttp://schema.org/Person
p395
aVhttp://umbel.org/umbel/rc/PersonWithOccupation
p396
aVhttp://umbel.org/umbel/rc/Scientist
p397
aVhttp://dbpedia.org/class/yago/Associate109816771
p398
aVhttp://dbpedia.org/class/yago/CausalAgent100007347
p399
aVhttp://dbpedia.org/class/yago/Colleague109935990
p400
aVhttp://dbpedia.org/class/yago/Creator109614315
p401
aVhttp://dbpedia.org/class/yago/LivingThing100004258
p402
aVhttp://dbpedia.org/class/yago/Maker110284064
p403
aVhttp://dbpedia.org/class/yago/Object100002684
p404
aVhttp://dbpedia.org/class/yago/Organism100004475
p405
aVhttp://dbpedia.org/class/yago/Peer109626238
p406
aVhttp://dbpedia.org/class/yago/Person100007846
p407
aVhttp://dbpedia.org/class/yago/Scientist110560637
p408
aVhttp://dbpedia.org/class/yago/SkilledWorker110605985
p409
aVhttp://dbpedia.org/class/yago/Whole100003553
p410
aVhttp://dbpedia.org/class/yago/Worker109632518
p411
aVhttp://dbpedia.org/class/yago/YagoLegalActorGeo
p412
aVhttp://dbpedia.org/class/yago/DutchScientists
p413
aVhttp://dbpedia.org/class/yago/FellowsOfTheRoyalSociety
p414
aVhttp://dbpedia.org/class/yago/PhysicalEntity100001930
p415
aVhttp://dbpedia.org/class/yago/Microscopist110313872
p416
aVhttp://dbpedia.org/class/yago/Microscopists
p417
aVhttp://dbpedia.org/class/yago/Optician110380000
p418
aVhttp://dbpedia.org/class/yago/Opticians
p419
aVhttp://dbpedia.org/class/yago/PeopleFromDelft
p420
aVhttp://dbpedia.org/class/yago/PeopleOfTheDutchGoldenAge
p421
aVhttp://dbpedia.org/class/yago/YagoLegalActor
p422
aVhttp://dbpedia.org/class/yago/ScientificInstrumentMakers
p423
asVdisambiguatedURL
p424
Vhttp://dbpedia.org/resource/Antonie_van_Leeuwenhoek
p425
sVnamedEntity
p426
Vanton van leeuwenhoek
p427
sVoffset
p428
I21
saa(lp429
a(lp430
(dp431
Vstart
p432
I0
sg9
(lp433
Vhttp://www.w3.org/2002/07/owl#Thing
p434
aVhttp://xmlns.com/foaf/0.1/Person
p435
aVhttp://dbpedia.org/ontology/Person
p436
aVhttp://www.ontologydesignpatterns.org/ont/dul/DUL.owl#Agent
p437
aVhttp://www.ontologydesignpatterns.org/ont/dul/DUL.owl#NaturalPerson
p438
aVhttp://www.wikidata.org/entity/Q215627
p439
aVhttp://www.wikidata.org/entity/Q5
p440
aVhttp://www.wikidata.org/entity/Q901
p441
aVhttp://dbpedia.org/ontology/Agent
p442
aVhttp://dbpedia.org/ontology/Scientist
p443
aVhttp://schema.org/Person
p444
aVhttp://umbel.org/umbel/rc/PersonWithOccupation
p445
aVhttp://umbel.org/umbel/rc/Scientist
p446
aVhttp://dbpedia.org/class/yago/17th-centuryEnglishPeople
p447
aVhttp://dbpedia.org/class/yago/17th-centuryLatin-languageWriters
p448
aVhttp://dbpedia.org/class/yago/17th-centuryMathematicians
p449
aVhttp://dbpedia.org/class/yago/18th-centuryEnglishPeople
p450
aVhttp://dbpedia.org/class/yago/18th-centuryLatin-languageWriters
p451
aVhttp://dbpedia.org/class/yago/18th-centuryMathematicians
p452
aVhttp://dbpedia.org/class/yago/Academician109759069
p453
aVhttp://dbpedia.org/class/yago/Adult109605289
p454
aVhttp://dbpedia.org/class/yago/Alchemist109781921
p455
aVhttp://dbpedia.org/class/yago/AlumniOfTrinityCollege,Cambridge
p456
aVhttp://dbpedia.org/class/yago/Alumnus109786338
p457
aVhttp://dbpedia.org/class/yago/Artist109812338
p458
aVhttp://dbpedia.org/class/yago/Associate109816771
p459
aVhttp://dbpedia.org/class/yago/Astronomer109818343
p460
aVhttp://dbpedia.org/class/yago/BallisticsExperts
p461
aVhttp://dbpedia.org/class/yago/Believer109847727
p462
aVhttp://dbpedia.org/class/yago/CambridgeMathematicians
p463
aVhttp://dbpedia.org/class/yago/CausalAgent100007347
p464
aVhttp://dbpedia.org/class/yago/Colleague109935990
p465
aVhttp://dbpedia.org/class/yago/Communicator109610660
p466
aVhttp://dbpedia.org/class/yago/Creator109614315
p467
aVhttp://dbpedia.org/class/yago/Educator110045713
p468
aVhttp://dbpedia.org/class/yago/Expert109617867
p469
aVhttp://dbpedia.org/class/yago/HeadOfState110164747
p470
aVhttp://dbpedia.org/class/yago/Intellectual109621545
p471
aVhttp://dbpedia.org/class/yago/Inventor110214637
p472
aVhttp://dbpedia.org/class/yago/LivingThing100004258
p473
aVhttp://dbpedia.org/class/yago/Maestro110280130
p474
aVhttp://dbpedia.org/class/yago/Maker110284064
p475
aVhttp://dbpedia.org/class/yago/Mathematician110301261
p476
aVhttp://dbpedia.org/class/yago/Mystic110343554
p477
aVhttp://dbpedia.org/class/yago/Negotiator110351874
p478
aVhttp://dbpedia.org/class/yago/Object100002684
p479
aVhttp://dbpedia.org/class/yago/Organism100004475
p480
aVhttp://dbpedia.org/class/yago/Peer109626238
p481
aVhttp://dbpedia.org/class/yago/Person100007846
p482
aVhttp://dbpedia.org/class/yago/Philosopher110423589
p483
aVhttp://dbpedia.org/class/yago/Physicist110428004
p484
aVhttp://dbpedia.org/class/yago/President110467179
p485
aVhttp://dbpedia.org/class/yago/Professional110480253
p486
aVhttp://dbpedia.org/class/yago/Professor110480730
p487
aVhttp://dbpedia.org/class/yago/ReligiousPerson109628382
p488
aVhttp://dbpedia.org/class/yago/Representative110522035
p489
aVhttp://dbpedia.org/class/yago/Scholar110557854
p490
aVhttp://dbpedia.org/class/yago/Scientist110560637
p491
aVhttp://dbpedia.org/class/yago/Theologian110705615
p492
aVhttp://dbpedia.org/class/yago/Whole100003553
p493
aVhttp://dbpedia.org/class/yago/Writer110794014
p494
aVhttp://dbpedia.org/class/yago/YagoLegalActorGeo
p495
aVhttp://dbpedia.org/class/yago/ChristianMystics
p496
aVhttp://dbpedia.org/class/yago/ColorScientists
p497
aVhttp://dbpedia.org/class/yago/EnglishAlchemists
p498
aVhttp://dbpedia.org/class/yago/EnglishAstronomers
p499
aVhttp://dbpedia.org/class/yago/EnglishChristianTheologians
p500
aVhttp://dbpedia.org/class/yago/EnglishInventors
p501
aVhttp://dbpedia.org/class/yago/EnglishMathematicians
p502
aVhttp://dbpedia.org/class/yago/EnglishPhysicists
p503
aVhttp://dbpedia.org/class/yago/EnlightenmentScientists
p504
aVhttp://dbpedia.org/class/yago/ExperimentalPhysicists
p505
aVhttp://dbpedia.org/class/yago/FellowsOfTheRoyalSociety
p506
aVhttp://dbpedia.org/class/yago/FellowsOfTrinityCollege,Cambridge
p507
aVhttp://dbpedia.org/class/yago/PhysicalEntity100001930
p508
aVhttp://dbpedia.org/class/yago/LucasianProfessorsOfMathematics
p509
aVhttp://dbpedia.org/class/yago/MastersOfTheMint
p510
aVhttp://dbpedia.org/class/yago/NaturalPhilosophers
p511
aVhttp://dbpedia.org/class/yago/OpticalPhysicists
p512
aVhttp://dbpedia.org/class/yago/PeopleEducatedAtTheKing'sSchool,Grantham
p513
aVhttp://dbpedia.org/class/yago/PeopleFromSouthKesteven(district)
p514
aVhttp://dbpedia.org/class/yago/PhilosophersOfScience
p515
aVhttp://dbpedia.org/class/yago/YagoLegalActor
p516
aVhttp://dbpedia.org/class/yago/PresidentsOfTheRoyalSociety
p517
aVhttp://dbpedia.org/class/yago/ScientificInstrumentMakers
p518
aVhttp://dbpedia.org/class/yago/TheoreticalPhysicists
p519
asVdisambiguatedURL
p520
Vhttp://dbpedia.org/resource/Isaac_Newton
p521
sVnamedEntity
p522
Visaac newton
p523
sVoffset
p524
I12
saa(lp525
a.