(lp1
(lp2
(lp3
a(lp4
aa(lp5
(lp6
a(lp7
aa(lp8
(lp9
a(lp10
aa(lp11
(lp12
a(lp13
aa(lp14
(lp15
Vhttp://dbpedia.org/resource/Carroll_Independent_School_District
p16
aa(lp17
aa(lp18
(lp19
a(lp20
aa(lp21
(lp22
a(lp23
aa(lp24
(lp25
a(lp26
aa.