(lp1
(lp2
(dp3
Vstart
p4
I0
sVdisambiguatedURL
p5
Vhttp://dbpedia.org/resource/United_States
p6
sVnamedEntity
p7
VUSA
p8
sVoffset
p9
I3
saa(lp10
(dp11
Vstart
p12
I0
sVdisambiguatedURL
p13
Vhttp://dbpedia.org/resource/United_States
p14
sVnamedEntity
p15
VUSA
p16
sVoffset
p17
I3
saa(lp18
(dp19
Vstart
p20
I0
sVdisambiguatedURL
p21
Vhttp://dbpedia.org/resource/Germany
p22
sVnamedEntity
p23
VGermany
p24
sVoffset
p25
I7
saa(lp26
(dp27
Vstart
p28
I0
sVdisambiguatedURL
p29
Vhttp://dbpedia.org/resource/Austria
p30
sVnamedEntity
p31
VAustria
p32
sVoffset
p33
I7
saa(lp34
(dp35
Vstart
p36
I0
sVdisambiguatedURL
p37
Vhttp://dbpedia.org/resource/Netherlands
p38
sVnamedEntity
p39
VNetherlands
p40
sVoffset
p41
I11
saa(lp42
(dp43
Vstart
p44
I0
sVdisambiguatedURL
p45
Vhttp://dbpedia.org/resource/Russia
p46
sVnamedEntity
p47
VRussia
p48
sVoffset
p49
I6
saa(lp50
(dp51
Vstart
p52
I0
sVdisambiguatedURL
p53
Vhttp://dbpedia.org/resource/Russia
p54
sVnamedEntity
p55
VRussia
p56
sVoffset
p57
I6
saa(lp58
(dp59
Vstart
p60
I0
sVdisambiguatedURL
p61
Vhttp://dbpedia.org/resource/Russia
p62
sVnamedEntity
p63
VRussia
p64
sVoffset
p65
I6
saa(lp66
(dp67
Vstart
p68
I0
sVdisambiguatedURL
p69
Vhttp://dbpedia.org/resource/Kazakhstan
p70
sVnamedEntity
p71
VKazakhstan
p72
sVoffset
p73
I10
saa(lp74
(dp75
Vstart
p76
I0
sVdisambiguatedURL
p77
Vhttp://dbpedia.org/resource/Kazakhstan
p78
sVnamedEntity
p79
VKazakhstan
p80
sVoffset
p81
I10
saa(lp82
(dp83
Vstart
p84
I0
sVdisambiguatedURL
p85
Vhttp://dbpedia.org/resource/China
p86
sVnamedEntity
p87
VChina
p88
sVoffset
p89
I5
saa(lp90
(dp91
Vstart
p92
I0
sVdisambiguatedURL
p93
Vhttp://dbpedia.org/resource/Turkey
p94
sVnamedEntity
p95
VTurkey
p96
sVoffset
p97
I6
saa(lp98
(dp99
Vstart
p100
I0
sVdisambiguatedURL
p101
Vhttp://dbpedia.org/resource/Turkey
p102
sVnamedEntity
p103
VTurkey
p104
sVoffset
p105
I6
saa(lp106
(dp107
Vstart
p108
I0
sVdisambiguatedURL
p109
Vhttp://dbpedia.org/resource/Turkey
p110
sVnamedEntity
p111
VTurkey
p112
sVoffset
p113
I6
saa(lp114
(dp115
Vstart
p116
I0
sVdisambiguatedURL
p117
Vhttp://dbpedia.org/resource/Turkey
p118
sVnamedEntity
p119
VTurkey
p120
sVoffset
p121
I6
saa(lp122
(dp123
Vstart
p124
I0
sVdisambiguatedURL
p125
Vhttp://dbpedia.org/resource/Turkey
p126
sVnamedEntity
p127
VTurkey
p128
sVoffset
p129
I6
saa.