(lp1
(lp2
a(lp3
a(lp4
a(lp5
a(lp6
(dp7
Vstart
p8
I0
sS'classes'
p9
(lp10
Vhttp://www.w3.org/2002/07/owl#Thing
p11
aVhttp://xmlns.com/foaf/0.1/Organization
p12
aVhttp://dbpedia.org/ontology/School
p13
aVhttp://www.ontologydesignpatterns.org/ont/dul/DUL.owl#Agent
p14
aVhttp://www.ontologydesignpatterns.org/ont/dul/DUL.owl#SocialPerson
p15
aVhttp://www.wikidata.org/entity/Q3914
p16
aVhttp://www.wikidata.org/entity/Q43229
p17
aVhttp://dbpedia.org/ontology/Agent
p18
aVhttp://dbpedia.org/ontology/EducationalInstitution
p19
aVhttp://dbpedia.org/ontology/Organisation
p20
aVhttp://schema.org/EducationalOrganization
p21
aVhttp://schema.org/Organization
p22
aVhttp://schema.org/School
p23
aVhttp://umbel.org/umbel/rc/EducationalOrganization
p24
aVhttp://umbel.org/umbel/rc/School_AcademicOrganization
p25
aVhttp://dbpedia.org/class/yago/AdministrativeDistrict108491826
p26
aVhttp://dbpedia.org/class/yago/District108552138
p27
aVhttp://dbpedia.org/class/yago/Location100027167
p28
aVhttp://dbpedia.org/class/yago/Object100002684
p29
aVhttp://dbpedia.org/class/yago/Region108630985
p30
aVhttp://dbpedia.org/class/yago/YagoGeoEntity
p31
aVhttp://dbpedia.org/class/yago/YagoLegalActorGeo
p32
aVhttp://dbpedia.org/class/yago/PhysicalEntity100001930
p33
aVhttp://dbpedia.org/class/yago/SchoolDistrict108587709
p34
aVhttp://dbpedia.org/class/yago/YagoPermanentlyLocatedEntity
p35
aVhttp://dbpedia.org/class/yago/SchoolDistrictsEstablishedIn1919
p36
aVhttp://dbpedia.org/class/yago/SchoolDistrictsInTarrantCounty,Texas
p37
aVhttp://dbpedia.org/class/yago/SchoolDistrictsInTexas
p38
asVdisambiguatedURL
p39
Vhttp://dbpedia.org/resource/Carroll_Independent_School_District
p40
sVnamedEntity
p41
Vcarroll isd
p42
sVoffset
p43
I11
saa(lp44
a(lp45
a(lp46
a.