(lp1
(lp2
(lp3
((lp4
Vhttp://www.w3.org/2002/07/owl#Thing
p5
aVhttp://dbpedia.org/ontology/Place
p6
aVhttp://dbpedia.org/ontology/Location
p7
aVhttp://www.wikidata.org/entity/Q486972
p8
aVhttp://www.wikidata.org/entity/Q6256
p9
aVhttp://dbpedia.org/ontology/Country
p10
aVhttp://dbpedia.org/ontology/PopulatedPlace
p11
aVhttp://www.w3.org/2003/01/geo/wgs84_pos#SpatialThing
p12
aVhttp://schema.org/Country
p13
aVhttp://schema.org/Place
p14
aVhttp://umbel.org/umbel/rc/Country
p15
aVhttp://umbel.org/umbel/rc/Location_Underspecified
p16
aVhttp://umbel.org/umbel/rc/PopulatedPlace
p17
aVhttp://dbpedia.org/class/yago/Abstraction100002137
p18
aVhttp://dbpedia.org/class/yago/AdministrativeDistrict108491826
p19
aVhttp://dbpedia.org/class/yago/BicontinentalCountries
p20
aVhttp://dbpedia.org/class/yago/Country108544813
p21
aVhttp://dbpedia.org/class/yago/District108552138
p22
aVhttp://dbpedia.org/class/yago/Economy108366753
p23
aVhttp://dbpedia.org/class/yago/Group100031264
p24
aVhttp://dbpedia.org/class/yago/Location100027167
p25
aVhttp://dbpedia.org/class/yago/Object100002684
p26
aVhttp://dbpedia.org/class/yago/Region108630985
p27
aVhttp://dbpedia.org/class/yago/System108435388
p28
aVhttp://dbpedia.org/class/yago/YagoGeoEntity
p29
aVhttp://dbpedia.org/class/yago/YagoLegalActorGeo
p30
aVhttp://dbpedia.org/class/yago/CountriesBorderingTheArcticOcean
p31
aVhttp://dbpedia.org/class/yago/CountriesBorderingTheAtlanticOcean
p32
aVhttp://dbpedia.org/class/yago/CountriesBorderingThePacificOcean
p33
aVhttp://dbpedia.org/class/yago/English-speakingCountriesAndTerritories
p34
aVhttp://dbpedia.org/class/yago/FederalCountries
p35
aVhttp://dbpedia.org/class/yago/PhysicalEntity100001930
p36
aVhttp://dbpedia.org/class/yago/YagoPermanentlyLocatedEntity
p37
aVhttp://dbpedia.org/class/yago/MemberStatesOfNATO
p38
aVhttp://dbpedia.org/class/yago/MemberStatesOfTheUnitedNations
p39
aVhttp://dbpedia.org/class/yago/NorthernAmericanCountries
p40
aVhttp://dbpedia.org/class/yago/StatesAndTerritoriesEstablishedIn1776
p41
aVhttp://dbpedia.org/class/yago/UnitedStates
p42
aVhttp://dbpedia.org/resource/United_States
tp43
aa(lp44
((lp45
Vhttp://www.w3.org/2002/07/owl#Thing
p46
aVhttp://dbpedia.org/ontology/Company
p47
aVhttp://www.ontologydesignpatterns.org/ont/dul/DUL.owl#Agent
p48
aVhttp://www.ontologydesignpatterns.org/ont/dul/DUL.owl#SocialPerson
p49
aVhttp://www.wikidata.org/entity/Q43229
p50
aVhttp://dbpedia.org/ontology/Agent
p51
aVhttp://dbpedia.org/ontology/Bank
p52
aVhttp://dbpedia.org/ontology/Organisation
p53
aVhttp://schema.org/BankOrCreditUnion
p54
aVhttp://schema.org/Organization
p55
aVhttp://dbpedia.org/class/yago/Abstraction100002137
p56
aVhttp://dbpedia.org/class/yago/BanksOfTheUnitedKingdom
p57
aVhttp://dbpedia.org/class/yago/Company108058098
p58
aVhttp://dbpedia.org/class/yago/DepositoryFinancialInstitution108420278
p59
aVhttp://dbpedia.org/class/yago/FinancialInstitution108054721
p60
aVhttp://dbpedia.org/class/yago/Group100031264
p61
aVhttp://dbpedia.org/class/yago/Institution108053576
p62
aVhttp://dbpedia.org/class/yago/Organization108008335
p63
aVhttp://dbpedia.org/class/yago/SocialGroup107950920
p64
aVhttp://dbpedia.org/class/yago/YagoLegalActorGeo
p65
aVhttp://dbpedia.org/class/yago/CompaniesBasedInLondon
p66
aVhttp://dbpedia.org/class/yago/CompaniesEstablishedIn1853
p67
aVhttp://dbpedia.org/class/yago/CompaniesListedOnTheKarachiStockExchange
p68
aVhttp://dbpedia.org/class/yago/CompaniesListedOnTheLondonStockExchange
p69
aVhttp://dbpedia.org/class/yago/CompaniesListedOnTheNationalStockExchangeOfIndia
p70
aVhttp://dbpedia.org/class/yago/YagoPermanentlyLocatedEntity
p71
aVhttp://dbpedia.org/class/yago/YagoLegalActor
p72
aVhttp://dbpedia.org/resource/Standard_Chartered
tp73
aa(lp74
a(lp75
((lp76
Vhttp://www.w3.org/2002/07/owl#Thing
p77
aVhttp://dbpedia.org/class/yago/Abstraction100002137
p78
aVhttp://dbpedia.org/class/yago/AdministrativeUnit108077292
p79
aVhttp://dbpedia.org/class/yago/Agency108337324
p80
aVhttp://dbpedia.org/class/yago/Group100031264
p81
aVhttp://dbpedia.org/class/yago/Organization108008335
p82
aVhttp://dbpedia.org/class/yago/SocialGroup107950920
p83
aVhttp://dbpedia.org/class/yago/Unit108189659
p84
aVhttp://dbpedia.org/class/yago/YagoLegalActorGeo
p85
aVhttp://dbpedia.org/class/yago/YagoPermanentlyLocatedEntity
p86
aVhttp://dbpedia.org/class/yago/YagoLegalActor
p87
aVhttp://dbpedia.org/resource/United_States_Department_of_Defense
tp88
aaa(lp89
(lp90
((lp91
Vhttp://www.w3.org/2002/07/owl#Thing
p92
aVhttp://dbpedia.org/ontology/Place
p93
aVhttp://dbpedia.org/ontology/Location
p94
aVhttp://www.wikidata.org/entity/Q486972
p95
aVhttp://www.wikidata.org/entity/Q6256
p96
aVhttp://dbpedia.org/ontology/Country
p97
aVhttp://dbpedia.org/ontology/PopulatedPlace
p98
aVhttp://www.w3.org/2003/01/geo/wgs84_pos#SpatialThing
p99
aVhttp://schema.org/Country
p100
aVhttp://schema.org/Place
p101
aVhttp://umbel.org/umbel/rc/Country
p102
aVhttp://umbel.org/umbel/rc/Location_Underspecified
p103
aVhttp://umbel.org/umbel/rc/PopulatedPlace
p104
aVhttp://dbpedia.org/class/yago/Abstraction100002137
p105
aVhttp://dbpedia.org/class/yago/AdministrativeDistrict108491826
p106
aVhttp://dbpedia.org/class/yago/BicontinentalCountries
p107
aVhttp://dbpedia.org/class/yago/Country108544813
p108
aVhttp://dbpedia.org/class/yago/District108552138
p109
aVhttp://dbpedia.org/class/yago/Economy108366753
p110
aVhttp://dbpedia.org/class/yago/Group100031264
p111
aVhttp://dbpedia.org/class/yago/Location100027167
p112
aVhttp://dbpedia.org/class/yago/Object100002684
p113
aVhttp://dbpedia.org/class/yago/Region108630985
p114
aVhttp://dbpedia.org/class/yago/System108435388
p115
aVhttp://dbpedia.org/class/yago/YagoGeoEntity
p116
aVhttp://dbpedia.org/class/yago/YagoLegalActorGeo
p117
aVhttp://dbpedia.org/class/yago/CountriesBorderingTheArcticOcean
p118
aVhttp://dbpedia.org/class/yago/CountriesBorderingTheAtlanticOcean
p119
aVhttp://dbpedia.org/class/yago/CountriesBorderingThePacificOcean
p120
aVhttp://dbpedia.org/class/yago/English-speakingCountriesAndTerritories
p121
aVhttp://dbpedia.org/class/yago/FederalCountries
p122
aVhttp://dbpedia.org/class/yago/PhysicalEntity100001930
p123
aVhttp://dbpedia.org/class/yago/YagoPermanentlyLocatedEntity
p124
aVhttp://dbpedia.org/class/yago/MemberStatesOfNATO
p125
aVhttp://dbpedia.org/class/yago/MemberStatesOfTheUnitedNations
p126
aVhttp://dbpedia.org/class/yago/NorthernAmericanCountries
p127
aVhttp://dbpedia.org/class/yago/StatesAndTerritoriesEstablishedIn1776
p128
aVhttp://dbpedia.org/class/yago/UnitedStates
p129
aVhttp://dbpedia.org/resource/United_States
tp130
aa(lp131
((lp132
Vhttp://www.w3.org/2002/07/owl#Thing
p133
aVhttp://dbpedia.org/ontology/Company
p134
aVhttp://www.ontologydesignpatterns.org/ont/dul/DUL.owl#Agent
p135
aVhttp://www.ontologydesignpatterns.org/ont/dul/DUL.owl#SocialPerson
p136
aVhttp://www.wikidata.org/entity/Q43229
p137
aVhttp://dbpedia.org/ontology/Agent
p138
aVhttp://dbpedia.org/ontology/Organisation
p139
aVhttp://schema.org/Organization
p140
aVhttp://umbel.org/umbel/rc/Business
p141
aVhttp://umbel.org/umbel/rc/Organization
p142
aVhttp://dbpedia.org/class/yago/Abstraction100002137
p143
aVhttp://dbpedia.org/class/yago/BanksBasedInNewYorkCity
p144
aVhttp://dbpedia.org/class/yago/BanksEstablishedIn1812
p145
aVhttp://dbpedia.org/class/yago/Company108058098
p146
aVhttp://dbpedia.org/class/yago/DepositoryFinancialInstitution108420278
p147
aVhttp://dbpedia.org/class/yago/FinancialInstitution108054721
p148
aVhttp://dbpedia.org/class/yago/Group100031264
p149
aVhttp://dbpedia.org/class/yago/Institution108053576
p150
aVhttp://dbpedia.org/class/yago/Organization108008335
p151
aVhttp://dbpedia.org/class/yago/SocialGroup107950920
p152
aVhttp://dbpedia.org/class/yago/YagoLegalActorGeo
p153
aVhttp://dbpedia.org/class/yago/YagoPermanentlyLocatedEntity
p154
aVhttp://dbpedia.org/class/yago/YagoLegalActor
p155
aVhttp://dbpedia.org/class/yago/RegisteredBanksOfNewZealand
p156
aVhttp://dbpedia.org/resource/Citibank
tp157
aa(lp158
a(lp159
((lp160
Vhttp://www.w3.org/2002/07/owl#Thing
p161
aVhttp://dbpedia.org/class/yago/Abstraction100002137
p162
aVhttp://dbpedia.org/class/yago/AdministrativeUnit108077292
p163
aVhttp://dbpedia.org/class/yago/Agency108337324
p164
aVhttp://dbpedia.org/class/yago/Group100031264
p165
aVhttp://dbpedia.org/class/yago/Organization108008335
p166
aVhttp://dbpedia.org/class/yago/SocialGroup107950920
p167
aVhttp://dbpedia.org/class/yago/Unit108189659
p168
aVhttp://dbpedia.org/class/yago/YagoLegalActorGeo
p169
aVhttp://dbpedia.org/class/yago/YagoPermanentlyLocatedEntity
p170
aVhttp://dbpedia.org/class/yago/YagoLegalActor
p171
aVhttp://dbpedia.org/resource/United_States_Department_of_Defense
tp172
aaa(lp173
(lp174
((lp175
Vhttp://www.w3.org/2002/07/owl#Thing
p176
aVhttp://dbpedia.org/ontology/Place
p177
aVhttp://dbpedia.org/ontology/Location
p178
aVhttp://www.wikidata.org/entity/Q486972
p179
aVhttp://www.wikidata.org/entity/Q6256
p180
aVhttp://dbpedia.org/ontology/Country
p181
aVhttp://dbpedia.org/ontology/PopulatedPlace
p182
aVhttp://www.w3.org/2003/01/geo/wgs84_pos#SpatialThing
p183
aVhttp://schema.org/Country
p184
aVhttp://schema.org/Place
p185
aVhttp://umbel.org/umbel/rc/Country
p186
aVhttp://umbel.org/umbel/rc/Location_Underspecified
p187
aVhttp://umbel.org/umbel/rc/PopulatedPlace
p188
aVhttp://dbpedia.org/class/yago/Abstraction100002137
p189
aVhttp://dbpedia.org/class/yago/AdministrativeDistrict108491826
p190
aVhttp://dbpedia.org/class/yago/AlpineCountries
p191
aVhttp://dbpedia.org/class/yago/Country108544813
p192
aVhttp://dbpedia.org/class/yago/District108552138
p193
aVhttp://dbpedia.org/class/yago/Economy108366753
p194
aVhttp://dbpedia.org/class/yago/Group100031264
p195
aVhttp://dbpedia.org/class/yago/Location100027167
p196
aVhttp://dbpedia.org/class/yago/Object100002684
p197
aVhttp://dbpedia.org/class/yago/Region108630985
p198
aVhttp://dbpedia.org/class/yago/System108435388
p199
aVhttp://dbpedia.org/class/yago/YagoGeoEntity
p200
aVhttp://dbpedia.org/class/yago/YagoLegalActorGeo
p201
aVhttp://dbpedia.org/class/yago/CountriesBorderingTheAtlanticOcean
p202
aVhttp://dbpedia.org/class/yago/CountriesBorderingTheBalticSea
p203
aVhttp://dbpedia.org/class/yago/EuropeanCountries
p204
aVhttp://dbpedia.org/class/yago/EuropeanUnionMemberEconomies
p205
aVhttp://dbpedia.org/class/yago/FederalCountries
p206
aVhttp://dbpedia.org/class/yago/PhysicalEntity100001930
p207
aVhttp://dbpedia.org/class/yago/YagoPermanentlyLocatedEntity
p208
aVhttp://dbpedia.org/class/yago/German-speakingCountries
p209
aVhttp://dbpedia.org/class/yago/MemberStatesOfNATO
p210
aVhttp://dbpedia.org/class/yago/MemberStatesOfTheEuropeanUnion
p211
aVhttp://dbpedia.org/class/yago/MemberStatesOfTheUnionForTheMediterranean
p212
aVhttp://dbpedia.org/class/yago/MemberStatesOfTheUnitedNations
p213
aVhttp://dbpedia.org/class/yago/StatesAndTerritoriesEstablishedIn1871
p214
aVhttp://dbpedia.org/resource/Germany
tp215
aa(lp216
((lp217
Vhttp://www.w3.org/2002/07/owl#Thing
p218
aVhttp://dbpedia.org/ontology/Company
p219
aVhttp://www.ontologydesignpatterns.org/ont/dul/DUL.owl#Agent
p220
aVhttp://www.ontologydesignpatterns.org/ont/dul/DUL.owl#SocialPerson
p221
aVhttp://www.wikidata.org/entity/Q43229
p222
aVhttp://dbpedia.org/ontology/Agent
p223
aVhttp://dbpedia.org/ontology/Organisation
p224
aVhttp://schema.org/Organization
p225
aVhttp://umbel.org/umbel/rc/Business
p226
aVhttp://umbel.org/umbel/rc/Organization
p227
aVhttp://dbpedia.org/class/yago/Abstraction100002137
p228
aVhttp://dbpedia.org/class/yago/BanksEstablishedIn1870
p229
aVhttp://dbpedia.org/class/yago/BanksOfGermany
p230
aVhttp://dbpedia.org/class/yago/Company108058098
p231
aVhttp://dbpedia.org/class/yago/DepositoryFinancialInstitution108420278
p232
aVhttp://dbpedia.org/class/yago/FinancialInstitution108054721
p233
aVhttp://dbpedia.org/class/yago/Group100031264
p234
aVhttp://dbpedia.org/class/yago/Institution108053576
p235
aVhttp://dbpedia.org/class/yago/Organization108008335
p236
aVhttp://dbpedia.org/class/yago/SocialGroup107950920
p237
aVhttp://dbpedia.org/class/yago/YagoLegalActorGeo
p238
aVhttp://dbpedia.org/class/yago/CompaniesBasedInFrankfurt
p239
aVhttp://dbpedia.org/class/yago/YagoPermanentlyLocatedEntity
p240
aVhttp://dbpedia.org/class/yago/YagoLegalActor
p241
aVhttp://dbpedia.org/resource/Commerzbank
tp242
aa(lp243
a(lp244
aa(lp245
(lp246
((lp247
Vhttp://www.w3.org/2002/07/owl#Thing
p248
aVhttp://dbpedia.org/ontology/Place
p249
aVhttp://dbpedia.org/ontology/Location
p250
aVhttp://www.wikidata.org/entity/Q486972
p251
aVhttp://www.wikidata.org/entity/Q6256
p252
aVhttp://dbpedia.org/ontology/Country
p253
aVhttp://dbpedia.org/ontology/PopulatedPlace
p254
aVhttp://www.w3.org/2003/01/geo/wgs84_pos#SpatialThing
p255
aVhttp://schema.org/Country
p256
aVhttp://schema.org/Place
p257
aVhttp://umbel.org/umbel/rc/Country
p258
aVhttp://umbel.org/umbel/rc/Location_Underspecified
p259
aVhttp://umbel.org/umbel/rc/PopulatedPlace
p260
aVhttp://dbpedia.org/class/yago/Abstraction100002137
p261
aVhttp://dbpedia.org/class/yago/AdministrativeDistrict108491826
p262
aVhttp://dbpedia.org/class/yago/AlpineCountries
p263
aVhttp://dbpedia.org/class/yago/Country108544813
p264
aVhttp://dbpedia.org/class/yago/District108552138
p265
aVhttp://dbpedia.org/class/yago/Economy108366753
p266
aVhttp://dbpedia.org/class/yago/Group100031264
p267
aVhttp://dbpedia.org/class/yago/Location100027167
p268
aVhttp://dbpedia.org/class/yago/Object100002684
p269
aVhttp://dbpedia.org/class/yago/Point108620061
p270
aVhttp://dbpedia.org/class/yago/Region108630985
p271
aVhttp://dbpedia.org/class/yago/System108435388
p272
aVhttp://dbpedia.org/class/yago/TopographicPoint108664443
p273
aVhttp://dbpedia.org/class/yago/YagoGeoEntity
p274
aVhttp://dbpedia.org/class/yago/YagoLegalActorGeo
p275
aVhttp://dbpedia.org/class/yago/Zone108688247
p276
aVhttp://dbpedia.org/class/yago/EuropeanCountries
p277
aVhttp://dbpedia.org/class/yago/EuropeanUnionMemberEconomies
p278
aVhttp://dbpedia.org/class/yago/FederalCountries
p279
aVhttp://dbpedia.org/class/yago/PhysicalEntity100001930
p280
aVhttp://dbpedia.org/class/yago/YagoPermanentlyLocatedEntity
p281
aVhttp://dbpedia.org/class/yago/German-speakingCountries
p282
aVhttp://dbpedia.org/class/yago/LandlockedCountries
p283
aVhttp://dbpedia.org/class/yago/MemberStatesOfTheCouncilOfEurope
p284
aVhttp://dbpedia.org/class/yago/MemberStatesOfTheEuropeanUnion
p285
aVhttp://dbpedia.org/class/yago/MemberStatesOfTheUnionForTheMediterranean
p286
aVhttp://dbpedia.org/class/yago/MemberStatesOfTheUnitedNations
p287
aVhttp://dbpedia.org/class/yago/Nuclear-freeZones
p288
aVhttp://dbpedia.org/class/yago/StatesAndTerritoriesEstablishedIn1955
p289
aVhttp://dbpedia.org/resource/Austria
tp290
aa(lp291
((lp292
Vhttp://www.w3.org/2002/07/owl#Thing
p293
aVhttp://dbpedia.org/ontology/Company
p294
aVhttp://www.ontologydesignpatterns.org/ont/dul/DUL.owl#Agent
p295
aVhttp://www.ontologydesignpatterns.org/ont/dul/DUL.owl#SocialPerson
p296
aVhttp://www.wikidata.org/entity/Q43229
p297
aVhttp://dbpedia.org/ontology/Agent
p298
aVhttp://dbpedia.org/ontology/Organisation
p299
aVhttp://schema.org/Organization
p300
aVhttp://umbel.org/umbel/rc/Business
p301
aVhttp://dbpedia.org/class/yago/Abstraction100002137
p302
aVhttp://dbpedia.org/class/yago/BanksEstablishedIn1927
p303
aVhttp://dbpedia.org/class/yago/Company108058098
p304
aVhttp://dbpedia.org/class/yago/DepositoryFinancialInstitution108420278
p305
aVhttp://dbpedia.org/class/yago/FinancialInstitution108054721
p306
aVhttp://dbpedia.org/class/yago/Group100031264
p307
aVhttp://dbpedia.org/class/yago/Institution108053576
p308
aVhttp://dbpedia.org/class/yago/Organization108008335
p309
aVhttp://dbpedia.org/class/yago/SocialGroup107950920
p310
aVhttp://dbpedia.org/class/yago/YagoLegalActorGeo
p311
aVhttp://dbpedia.org/class/yago/CompaniesBasedInVienna
p312
aVhttp://dbpedia.org/class/yago/YagoPermanentlyLocatedEntity
p313
aVhttp://dbpedia.org/class/yago/YagoLegalActor
p314
aVhttp://dbpedia.org/resource/Raiffeisen_Zentralbank
tp315
aa(lp316
a(lp317
aa(lp318
(lp319
((lp320
Vhttp://www.w3.org/2002/07/owl#Thing
p321
aVhttp://dbpedia.org/ontology/Place
p322
aVhttp://dbpedia.org/ontology/Location
p323
aVhttp://www.wikidata.org/entity/Q486972
p324
aVhttp://www.wikidata.org/entity/Q6256
p325
aVhttp://dbpedia.org/ontology/Country
p326
aVhttp://dbpedia.org/ontology/PopulatedPlace
p327
aVhttp://www.w3.org/2003/01/geo/wgs84_pos#SpatialThing
p328
aVhttp://schema.org/Country
p329
aVhttp://schema.org/Place
p330
aVhttp://umbel.org/umbel/rc/Country
p331
aVhttp://umbel.org/umbel/rc/Location_Underspecified
p332
aVhttp://umbel.org/umbel/rc/PopulatedPlace
p333
aVhttp://dbpedia.org/class/yago/Abstraction100002137
p334
aVhttp://dbpedia.org/class/yago/AdministrativeDistrict108491826
p335
aVhttp://dbpedia.org/class/yago/BicontinentalCountries
p336
aVhttp://dbpedia.org/class/yago/CaribbeanCountries
p337
aVhttp://dbpedia.org/class/yago/Country108544813
p338
aVhttp://dbpedia.org/class/yago/District108552138
p339
aVhttp://dbpedia.org/class/yago/Economy108366753
p340
aVhttp://dbpedia.org/class/yago/Group100031264
p341
aVhttp://dbpedia.org/class/yago/Location100027167
p342
aVhttp://dbpedia.org/class/yago/Object100002684
p343
aVhttp://dbpedia.org/class/yago/Region108630985
p344
aVhttp://dbpedia.org/class/yago/System108435388
p345
aVhttp://dbpedia.org/class/yago/YagoGeoEntity
p346
aVhttp://dbpedia.org/class/yago/YagoLegalActorGeo
p347
aVhttp://dbpedia.org/class/yago/CountriesBorderingTheAtlanticOcean
p348
aVhttp://dbpedia.org/class/yago/Dutch-speakingCountries
p349
aVhttp://dbpedia.org/class/yago/EuropeanCountries
p350
aVhttp://dbpedia.org/class/yago/EuropeanUnionMemberEconomies
p351
aVhttp://dbpedia.org/class/yago/PhysicalEntity100001930
p352
aVhttp://dbpedia.org/class/yago/YagoPermanentlyLocatedEntity
p353
aVhttp://dbpedia.org/class/yago/MemberStatesOfNATO
p354
aVhttp://dbpedia.org/class/yago/MemberStatesOfTheDutchLanguageUnion
p355
aVhttp://dbpedia.org/class/yago/MemberStatesOfTheEuropeanUnion
p356
aVhttp://dbpedia.org/class/yago/MemberStatesOfTheUnionForTheMediterranean
p357
aVhttp://dbpedia.org/resource/Netherlands
tp358
aa(lp359
a(lp360
a(lp361
aa(lp362
(lp363
((lp364
Vhttp://www.w3.org/2002/07/owl#Thing
p365
aVhttp://dbpedia.org/ontology/Place
p366
aVhttp://dbpedia.org/ontology/Location
p367
aVhttp://www.wikidata.org/entity/Q486972
p368
aVhttp://www.wikidata.org/entity/Q6256
p369
aVhttp://dbpedia.org/ontology/Country
p370
aVhttp://dbpedia.org/ontology/PopulatedPlace
p371
aVhttp://www.w3.org/2003/01/geo/wgs84_pos#SpatialThing
p372
aVhttp://schema.org/Country
p373
aVhttp://schema.org/Place
p374
aVhttp://umbel.org/umbel/rc/Country
p375
aVhttp://umbel.org/umbel/rc/Location_Underspecified
p376
aVhttp://umbel.org/umbel/rc/PopulatedPlace
p377
aVhttp://dbpedia.org/class/yago/Abstraction100002137
p378
aVhttp://dbpedia.org/class/yago/AdministrativeDistrict108491826
p379
aVhttp://dbpedia.org/class/yago/BicontinentalCountries
p380
aVhttp://dbpedia.org/class/yago/BlackSeaCountries
p381
aVhttp://dbpedia.org/class/yago/Country108544813
p382
aVhttp://dbpedia.org/class/yago/District108552138
p383
aVhttp://dbpedia.org/class/yago/Economy108366753
p384
aVhttp://dbpedia.org/class/yago/Group100031264
p385
aVhttp://dbpedia.org/class/yago/Location100027167
p386
aVhttp://dbpedia.org/class/yago/Object100002684
p387
aVhttp://dbpedia.org/class/yago/Region108630985
p388
aVhttp://dbpedia.org/class/yago/System108435388
p389
aVhttp://dbpedia.org/class/yago/YagoGeoEntity
p390
aVhttp://dbpedia.org/class/yago/YagoLegalActorGeo
p391
aVhttp://dbpedia.org/class/yago/CentralAsianCountries
p392
aVhttp://dbpedia.org/class/yago/CountriesBorderingTheArcticOcean
p393
aVhttp://dbpedia.org/class/yago/CountriesBorderingTheBalticSea
p394
aVhttp://dbpedia.org/class/yago/CountriesBorderingThePacificOcean
p395
aVhttp://dbpedia.org/class/yago/EastAsianCountries
p396
aVhttp://dbpedia.org/class/yago/EuropeanCountries
p397
aVhttp://dbpedia.org/class/yago/FederalCountries
p398
aVhttp://dbpedia.org/class/yago/PhysicalEntity100001930
p399
aVhttp://dbpedia.org/class/yago/YagoPermanentlyLocatedEntity
p400
aVhttp://dbpedia.org/class/yago/MemberStatesOfTheCommonwealthOfIndependentStates
p401
aVhttp://dbpedia.org/class/yago/MemberStatesOfTheUnitedNations
p402
aVhttp://dbpedia.org/class/yago/NorthAsianCountries
p403
aVhttp://dbpedia.org/class/yago/Russian-speakingCountriesAndTerritories
p404
aVhttp://dbpedia.org/class/yago/SlavicCountries
p405
aVhttp://dbpedia.org/class/yago/StatesAndTerritoriesEstablishedIn862
p406
aVhttp://dbpedia.org/resource/Russia
tp407
aa(lp408
a(lp409
a(lp410
aa(lp411
(lp412
((lp413
Vhttp://www.w3.org/2002/07/owl#Thing
p414
aVhttp://dbpedia.org/ontology/Place
p415
aVhttp://dbpedia.org/ontology/Location
p416
aVhttp://www.wikidata.org/entity/Q486972
p417
aVhttp://www.wikidata.org/entity/Q6256
p418
aVhttp://dbpedia.org/ontology/Country
p419
aVhttp://dbpedia.org/ontology/PopulatedPlace
p420
aVhttp://www.w3.org/2003/01/geo/wgs84_pos#SpatialThing
p421
aVhttp://schema.org/Country
p422
aVhttp://schema.org/Place
p423
aVhttp://umbel.org/umbel/rc/Country
p424
aVhttp://umbel.org/umbel/rc/Location_Underspecified
p425
aVhttp://umbel.org/umbel/rc/PopulatedPlace
p426
aVhttp://dbpedia.org/class/yago/Abstraction100002137
p427
aVhttp://dbpedia.org/class/yago/AdministrativeDistrict108491826
p428
aVhttp://dbpedia.org/class/yago/BicontinentalCountries
p429
aVhttp://dbpedia.org/class/yago/BlackSeaCountries
p430
aVhttp://dbpedia.org/class/yago/Country108544813
p431
aVhttp://dbpedia.org/class/yago/District108552138
p432
aVhttp://dbpedia.org/class/yago/Economy108366753
p433
aVhttp://dbpedia.org/class/yago/Group100031264
p434
aVhttp://dbpedia.org/class/yago/Location100027167
p435
aVhttp://dbpedia.org/class/yago/Object100002684
p436
aVhttp://dbpedia.org/class/yago/Region108630985
p437
aVhttp://dbpedia.org/class/yago/System108435388
p438
aVhttp://dbpedia.org/class/yago/YagoGeoEntity
p439
aVhttp://dbpedia.org/class/yago/YagoLegalActorGeo
p440
aVhttp://dbpedia.org/class/yago/CentralAsianCountries
p441
aVhttp://dbpedia.org/class/yago/CountriesBorderingTheArcticOcean
p442
aVhttp://dbpedia.org/class/yago/CountriesBorderingTheBalticSea
p443
aVhttp://dbpedia.org/class/yago/CountriesBorderingThePacificOcean
p444
aVhttp://dbpedia.org/class/yago/EastAsianCountries
p445
aVhttp://dbpedia.org/class/yago/EuropeanCountries
p446
aVhttp://dbpedia.org/class/yago/FederalCountries
p447
aVhttp://dbpedia.org/class/yago/PhysicalEntity100001930
p448
aVhttp://dbpedia.org/class/yago/YagoPermanentlyLocatedEntity
p449
aVhttp://dbpedia.org/class/yago/MemberStatesOfTheCommonwealthOfIndependentStates
p450
aVhttp://dbpedia.org/class/yago/MemberStatesOfTheUnitedNations
p451
aVhttp://dbpedia.org/class/yago/NorthAsianCountries
p452
aVhttp://dbpedia.org/class/yago/Russian-speakingCountriesAndTerritories
p453
aVhttp://dbpedia.org/class/yago/SlavicCountries
p454
aVhttp://dbpedia.org/class/yago/StatesAndTerritoriesEstablishedIn862
p455
aVhttp://dbpedia.org/resource/Russia
tp456
aa(lp457
a(lp458
a(lp459
aa(lp460
(lp461
((lp462
Vhttp://www.w3.org/2002/07/owl#Thing
p463
aVhttp://dbpedia.org/ontology/Place
p464
aVhttp://dbpedia.org/ontology/Location
p465
aVhttp://www.wikidata.org/entity/Q486972
p466
aVhttp://www.wikidata.org/entity/Q6256
p467
aVhttp://dbpedia.org/ontology/Country
p468
aVhttp://dbpedia.org/ontology/PopulatedPlace
p469
aVhttp://www.w3.org/2003/01/geo/wgs84_pos#SpatialThing
p470
aVhttp://schema.org/Country
p471
aVhttp://schema.org/Place
p472
aVhttp://umbel.org/umbel/rc/Country
p473
aVhttp://umbel.org/umbel/rc/Location_Underspecified
p474
aVhttp://umbel.org/umbel/rc/PopulatedPlace
p475
aVhttp://dbpedia.org/class/yago/Abstraction100002137
p476
aVhttp://dbpedia.org/class/yago/AdministrativeDistrict108491826
p477
aVhttp://dbpedia.org/class/yago/BicontinentalCountries
p478
aVhttp://dbpedia.org/class/yago/BlackSeaCountries
p479
aVhttp://dbpedia.org/class/yago/Country108544813
p480
aVhttp://dbpedia.org/class/yago/District108552138
p481
aVhttp://dbpedia.org/class/yago/Economy108366753
p482
aVhttp://dbpedia.org/class/yago/Group100031264
p483
aVhttp://dbpedia.org/class/yago/Location100027167
p484
aVhttp://dbpedia.org/class/yago/Object100002684
p485
aVhttp://dbpedia.org/class/yago/Region108630985
p486
aVhttp://dbpedia.org/class/yago/System108435388
p487
aVhttp://dbpedia.org/class/yago/YagoGeoEntity
p488
aVhttp://dbpedia.org/class/yago/YagoLegalActorGeo
p489
aVhttp://dbpedia.org/class/yago/CentralAsianCountries
p490
aVhttp://dbpedia.org/class/yago/CountriesBorderingTheArcticOcean
p491
aVhttp://dbpedia.org/class/yago/CountriesBorderingTheBalticSea
p492
aVhttp://dbpedia.org/class/yago/CountriesBorderingThePacificOcean
p493
aVhttp://dbpedia.org/class/yago/EastAsianCountries
p494
aVhttp://dbpedia.org/class/yago/EuropeanCountries
p495
aVhttp://dbpedia.org/class/yago/FederalCountries
p496
aVhttp://dbpedia.org/class/yago/PhysicalEntity100001930
p497
aVhttp://dbpedia.org/class/yago/YagoPermanentlyLocatedEntity
p498
aVhttp://dbpedia.org/class/yago/MemberStatesOfTheCommonwealthOfIndependentStates
p499
aVhttp://dbpedia.org/class/yago/MemberStatesOfTheUnitedNations
p500
aVhttp://dbpedia.org/class/yago/NorthAsianCountries
p501
aVhttp://dbpedia.org/class/yago/Russian-speakingCountriesAndTerritories
p502
aVhttp://dbpedia.org/class/yago/SlavicCountries
p503
aVhttp://dbpedia.org/class/yago/StatesAndTerritoriesEstablishedIn862
p504
aVhttp://dbpedia.org/resource/Russia
tp505
aa(lp506
a(lp507
a(lp508
((lp509
Vhttp://www.w3.org/2002/07/owl#Thing
p510
aVhttp://dbpedia.org/class/yago/Abstraction100002137
p511
aVhttp://dbpedia.org/class/yago/AdministrativeUnit108077292
p512
aVhttp://dbpedia.org/class/yago/Agency108337324
p513
aVhttp://dbpedia.org/class/yago/Group100031264
p514
aVhttp://dbpedia.org/class/yago/Organization108008335
p515
aVhttp://dbpedia.org/class/yago/SocialGroup107950920
p516
aVhttp://dbpedia.org/class/yago/Unit108189659
p517
aVhttp://dbpedia.org/class/yago/YagoLegalActorGeo
p518
aVhttp://dbpedia.org/class/yago/YagoPermanentlyLocatedEntity
p519
aVhttp://dbpedia.org/class/yago/YagoLegalActor
p520
aVhttp://dbpedia.org/resource/United_States_Department_of_Defense
tp521
aaa(lp522
(lp523
((lp524
Vhttp://www.w3.org/2002/07/owl#Thing
p525
aVhttp://dbpedia.org/ontology/Place
p526
aVhttp://dbpedia.org/ontology/Location
p527
aVhttp://www.wikidata.org/entity/Q486972
p528
aVhttp://www.wikidata.org/entity/Q6256
p529
aVhttp://dbpedia.org/ontology/Country
p530
aVhttp://dbpedia.org/ontology/PopulatedPlace
p531
aVhttp://www.w3.org/2003/01/geo/wgs84_pos#SpatialThing
p532
aVhttp://schema.org/Country
p533
aVhttp://schema.org/Place
p534
aVhttp://umbel.org/umbel/rc/Country
p535
aVhttp://umbel.org/umbel/rc/Location_Underspecified
p536
aVhttp://umbel.org/umbel/rc/PopulatedPlace
p537
aVhttp://dbpedia.org/class/yago/Abstraction100002137
p538
aVhttp://dbpedia.org/class/yago/AdministrativeDistrict108491826
p539
aVhttp://dbpedia.org/class/yago/BicontinentalCountries
p540
aVhttp://dbpedia.org/class/yago/Country108544813
p541
aVhttp://dbpedia.org/class/yago/District108552138
p542
aVhttp://dbpedia.org/class/yago/Economy108366753
p543
aVhttp://dbpedia.org/class/yago/Group100031264
p544
aVhttp://dbpedia.org/class/yago/Location100027167
p545
aVhttp://dbpedia.org/class/yago/Object100002684
p546
aVhttp://dbpedia.org/class/yago/Region108630985
p547
aVhttp://dbpedia.org/class/yago/System108435388
p548
aVhttp://dbpedia.org/class/yago/YagoGeoEntity
p549
aVhttp://dbpedia.org/class/yago/YagoLegalActorGeo
p550
aVhttp://dbpedia.org/class/yago/CentralAsianCountries
p551
aVhttp://dbpedia.org/class/yago/PhysicalEntity100001930
p552
aVhttp://dbpedia.org/class/yago/YagoPermanentlyLocatedEntity
p553
aVhttp://dbpedia.org/class/yago/LandlockedCountries
p554
aVhttp://dbpedia.org/class/yago/MemberStatesOfTheCommonwealthOfIndependentStates
p555
aVhttp://dbpedia.org/class/yago/MemberStatesOfTheOrganisationOfIslamicCooperation
p556
aVhttp://dbpedia.org/class/yago/MemberStatesOfTheUnitedNations
p557
aVhttp://dbpedia.org/class/yago/ModernTurkicStates
p558
aVhttp://dbpedia.org/class/yago/Russian-speakingCountriesAndTerritories
p559
aVhttp://dbpedia.org/class/yago/StatesAndTerritoriesEstablishedIn1991
p560
aVhttp://dbpedia.org/resource/Kazakhstan
tp561
aa(lp562
a(lp563
a(lp564
aa(lp565
(lp566
((lp567
Vhttp://www.w3.org/2002/07/owl#Thing
p568
aVhttp://dbpedia.org/ontology/Place
p569
aVhttp://dbpedia.org/ontology/Location
p570
aVhttp://www.wikidata.org/entity/Q486972
p571
aVhttp://www.wikidata.org/entity/Q6256
p572
aVhttp://dbpedia.org/ontology/Country
p573
aVhttp://dbpedia.org/ontology/PopulatedPlace
p574
aVhttp://www.w3.org/2003/01/geo/wgs84_pos#SpatialThing
p575
aVhttp://schema.org/Country
p576
aVhttp://schema.org/Place
p577
aVhttp://umbel.org/umbel/rc/Country
p578
aVhttp://umbel.org/umbel/rc/Location_Underspecified
p579
aVhttp://umbel.org/umbel/rc/PopulatedPlace
p580
aVhttp://dbpedia.org/class/yago/Abstraction100002137
p581
aVhttp://dbpedia.org/class/yago/AdministrativeDistrict108491826
p582
aVhttp://dbpedia.org/class/yago/BicontinentalCountries
p583
aVhttp://dbpedia.org/class/yago/Country108544813
p584
aVhttp://dbpedia.org/class/yago/District108552138
p585
aVhttp://dbpedia.org/class/yago/Economy108366753
p586
aVhttp://dbpedia.org/class/yago/Group100031264
p587
aVhttp://dbpedia.org/class/yago/Location100027167
p588
aVhttp://dbpedia.org/class/yago/Object100002684
p589
aVhttp://dbpedia.org/class/yago/Region108630985
p590
aVhttp://dbpedia.org/class/yago/System108435388
p591
aVhttp://dbpedia.org/class/yago/YagoGeoEntity
p592
aVhttp://dbpedia.org/class/yago/YagoLegalActorGeo
p593
aVhttp://dbpedia.org/class/yago/CentralAsianCountries
p594
aVhttp://dbpedia.org/class/yago/PhysicalEntity100001930
p595
aVhttp://dbpedia.org/class/yago/YagoPermanentlyLocatedEntity
p596
aVhttp://dbpedia.org/class/yago/LandlockedCountries
p597
aVhttp://dbpedia.org/class/yago/MemberStatesOfTheCommonwealthOfIndependentStates
p598
aVhttp://dbpedia.org/class/yago/MemberStatesOfTheOrganisationOfIslamicCooperation
p599
aVhttp://dbpedia.org/class/yago/MemberStatesOfTheUnitedNations
p600
aVhttp://dbpedia.org/class/yago/ModernTurkicStates
p601
aVhttp://dbpedia.org/class/yago/Russian-speakingCountriesAndTerritories
p602
aVhttp://dbpedia.org/class/yago/StatesAndTerritoriesEstablishedIn1991
p603
aVhttp://dbpedia.org/resource/Kazakhstan
tp604
aa(lp605
a(lp606
a(lp607
aa(lp608
(lp609
((lp610
Vhttp://www.w3.org/2002/07/owl#Thing
p611
aVhttp://dbpedia.org/ontology/Place
p612
aVhttp://dbpedia.org/ontology/Location
p613
aVhttp://www.wikidata.org/entity/Q486972
p614
aVhttp://www.wikidata.org/entity/Q6256
p615
aVhttp://dbpedia.org/ontology/Country
p616
aVhttp://dbpedia.org/ontology/PopulatedPlace
p617
aVhttp://www.w3.org/2003/01/geo/wgs84_pos#SpatialThing
p618
aVhttp://schema.org/Country
p619
aVhttp://schema.org/Place
p620
aVhttp://dbpedia.org/class/yago/Abstraction100002137
p621
aVhttp://dbpedia.org/class/yago/AdministrativeDistrict108491826
p622
aVhttp://dbpedia.org/class/yago/Country108544813
p623
aVhttp://dbpedia.org/class/yago/District108552138
p624
aVhttp://dbpedia.org/class/yago/Economy108366753
p625
aVhttp://dbpedia.org/class/yago/Group100031264
p626
aVhttp://dbpedia.org/class/yago/Location100027167
p627
aVhttp://dbpedia.org/class/yago/Object100002684
p628
aVhttp://dbpedia.org/class/yago/Region108630985
p629
aVhttp://dbpedia.org/class/yago/System108435388
p630
aVhttp://dbpedia.org/class/yago/YagoGeoEntity
p631
aVhttp://dbpedia.org/class/yago/YagoLegalActorGeo
p632
aVhttp://dbpedia.org/class/yago/CentralAsianCountries
p633
aVhttp://dbpedia.org/class/yago/Chinese-speakingCountriesAndTerritories
p634
aVhttp://dbpedia.org/class/yago/CommunistStates
p635
aVhttp://dbpedia.org/class/yago/CountriesBorderingThePacificOcean
p636
aVhttp://dbpedia.org/class/yago/CountriesBorderingTheSouthChinaSea
p637
aVhttp://dbpedia.org/class/yago/EastAsianCountries
p638
aVhttp://dbpedia.org/class/yago/EconomiesByRegion
p639
aVhttp://dbpedia.org/class/yago/PhysicalEntity100001930
p640
aVhttp://dbpedia.org/class/yago/YagoPermanentlyLocatedEntity
p641
aVhttp://dbpedia.org/class/yago/MemberStatesOfTheUnitedNations
p642
aVhttp://dbpedia.org/class/yago/Single-partyStates
p643
aVhttp://dbpedia.org/class/yago/SocialistStates
p644
aVhttp://dbpedia.org/class/yago/StatesAndTerritoriesEstablishedIn1949
p645
aVhttp://dbpedia.org/resource/China
tp646
aa(lp647
a(lp648
a(lp649
((lp650
Vhttp://www.w3.org/2002/07/owl#Thing
p651
aVhttp://dbpedia.org/ontology/Place
p652
aVhttp://dbpedia.org/ontology/Location
p653
aVhttp://www.wikidata.org/entity/Q486972
p654
aVhttp://dbpedia.org/ontology/PopulatedPlace
p655
aVhttp://schema.org/Place
p656
aVhttp://dbpedia.org/class/yago/Location100027167
p657
aVhttp://dbpedia.org/class/yago/Object100002684
p658
aVhttp://dbpedia.org/class/yago/Region108630039
p659
aVhttp://dbpedia.org/class/yago/YagoGeoEntity
p660
aVhttp://dbpedia.org/class/yago/YagoLegalActorGeo
p661
aVhttp://dbpedia.org/class/yago/PhysicalEntity100001930
p662
aVhttp://dbpedia.org/class/yago/YagoPermanentlyLocatedEntity
p663
aVhttp://dbpedia.org/class/yago/RegionsOfNewYork
p664
aVhttp://dbpedia.org/resource/Central_New_York
tp665
aaa(lp666
(lp667
((lp668
Vhttp://www.w3.org/2002/07/owl#Thing
p669
aVhttp://dbpedia.org/ontology/Place
p670
aVhttp://dbpedia.org/ontology/Location
p671
aVhttp://www.wikidata.org/entity/Q486972
p672
aVhttp://www.wikidata.org/entity/Q6256
p673
aVhttp://dbpedia.org/ontology/Country
p674
aVhttp://dbpedia.org/ontology/PopulatedPlace
p675
aVhttp://www.w3.org/2003/01/geo/wgs84_pos#SpatialThing
p676
aVhttp://schema.org/Country
p677
aVhttp://schema.org/Place
p678
aVhttp://umbel.org/umbel/rc/Country
p679
aVhttp://umbel.org/umbel/rc/Location_Underspecified
p680
aVhttp://umbel.org/umbel/rc/PopulatedPlace
p681
aVhttp://dbpedia.org/resource/Turkey
tp682
aa(lp683
a(lp684
a(lp685
aa(lp686
(lp687
((lp688
Vhttp://www.w3.org/2002/07/owl#Thing
p689
aVhttp://dbpedia.org/ontology/Place
p690
aVhttp://dbpedia.org/ontology/Location
p691
aVhttp://www.wikidata.org/entity/Q486972
p692
aVhttp://www.wikidata.org/entity/Q6256
p693
aVhttp://dbpedia.org/ontology/Country
p694
aVhttp://dbpedia.org/ontology/PopulatedPlace
p695
aVhttp://www.w3.org/2003/01/geo/wgs84_pos#SpatialThing
p696
aVhttp://schema.org/Country
p697
aVhttp://schema.org/Place
p698
aVhttp://umbel.org/umbel/rc/Country
p699
aVhttp://umbel.org/umbel/rc/Location_Underspecified
p700
aVhttp://umbel.org/umbel/rc/PopulatedPlace
p701
aVhttp://dbpedia.org/resource/Turkey
tp702
aa(lp703
a(lp704
a(lp705
aa(lp706
(lp707
((lp708
Vhttp://www.w3.org/2002/07/owl#Thing
p709
aVhttp://dbpedia.org/ontology/Place
p710
aVhttp://dbpedia.org/ontology/Location
p711
aVhttp://www.wikidata.org/entity/Q486972
p712
aVhttp://www.wikidata.org/entity/Q6256
p713
aVhttp://dbpedia.org/ontology/Country
p714
aVhttp://dbpedia.org/ontology/PopulatedPlace
p715
aVhttp://www.w3.org/2003/01/geo/wgs84_pos#SpatialThing
p716
aVhttp://schema.org/Country
p717
aVhttp://schema.org/Place
p718
aVhttp://umbel.org/umbel/rc/Country
p719
aVhttp://umbel.org/umbel/rc/Location_Underspecified
p720
aVhttp://umbel.org/umbel/rc/PopulatedPlace
p721
aVhttp://dbpedia.org/resource/Turkey
tp722
aa(lp723
a(lp724
a(lp725
aa(lp726
(lp727
((lp728
Vhttp://www.w3.org/2002/07/owl#Thing
p729
aVhttp://dbpedia.org/ontology/Place
p730
aVhttp://dbpedia.org/ontology/Location
p731
aVhttp://www.wikidata.org/entity/Q486972
p732
aVhttp://www.wikidata.org/entity/Q6256
p733
aVhttp://dbpedia.org/ontology/Country
p734
aVhttp://dbpedia.org/ontology/PopulatedPlace
p735
aVhttp://www.w3.org/2003/01/geo/wgs84_pos#SpatialThing
p736
aVhttp://schema.org/Country
p737
aVhttp://schema.org/Place
p738
aVhttp://umbel.org/umbel/rc/Country
p739
aVhttp://umbel.org/umbel/rc/Location_Underspecified
p740
aVhttp://umbel.org/umbel/rc/PopulatedPlace
p741
aVhttp://dbpedia.org/resource/Turkey
tp742
aa(lp743
a(lp744
a(lp745
((lp746
Vhttp://www.w3.org/2002/07/owl#Thing
p747
aVhttp://dbpedia.org/class/yago/Abstraction100002137
p748
aVhttp://dbpedia.org/class/yago/AdministrativeUnit108077292
p749
aVhttp://dbpedia.org/class/yago/Agency108337324
p750
aVhttp://dbpedia.org/class/yago/Group100031264
p751
aVhttp://dbpedia.org/class/yago/Organization108008335
p752
aVhttp://dbpedia.org/class/yago/SocialGroup107950920
p753
aVhttp://dbpedia.org/class/yago/Unit108189659
p754
aVhttp://dbpedia.org/class/yago/YagoLegalActorGeo
p755
aVhttp://dbpedia.org/class/yago/YagoPermanentlyLocatedEntity
p756
aVhttp://dbpedia.org/class/yago/YagoLegalActor
p757
aVhttp://dbpedia.org/resource/United_States_Department_of_Defense
tp758
aaa(lp759
(lp760
((lp761
Vhttp://www.w3.org/2002/07/owl#Thing
p762
aVhttp://dbpedia.org/ontology/Place
p763
aVhttp://dbpedia.org/ontology/Location
p764
aVhttp://www.wikidata.org/entity/Q486972
p765
aVhttp://www.wikidata.org/entity/Q6256
p766
aVhttp://dbpedia.org/ontology/Country
p767
aVhttp://dbpedia.org/ontology/PopulatedPlace
p768
aVhttp://www.w3.org/2003/01/geo/wgs84_pos#SpatialThing
p769
aVhttp://schema.org/Country
p770
aVhttp://schema.org/Place
p771
aVhttp://umbel.org/umbel/rc/Country
p772
aVhttp://umbel.org/umbel/rc/Location_Underspecified
p773
aVhttp://umbel.org/umbel/rc/PopulatedPlace
p774
aVhttp://dbpedia.org/resource/Turkey
tp775
aa(lp776
a(lp777
a(lp778
((lp779
Vhttp://www.w3.org/2002/07/owl#Thing
p780
aVhttp://dbpedia.org/class/yago/Abstraction100002137
p781
aVhttp://dbpedia.org/class/yago/AdministrativeUnit108077292
p782
aVhttp://dbpedia.org/class/yago/Agency108337324
p783
aVhttp://dbpedia.org/class/yago/Group100031264
p784
aVhttp://dbpedia.org/class/yago/Organization108008335
p785
aVhttp://dbpedia.org/class/yago/SocialGroup107950920
p786
aVhttp://dbpedia.org/class/yago/Unit108189659
p787
aVhttp://dbpedia.org/class/yago/YagoLegalActorGeo
p788
aVhttp://dbpedia.org/class/yago/YagoPermanentlyLocatedEntity
p789
aVhttp://dbpedia.org/class/yago/YagoLegalActor
p790
aVhttp://dbpedia.org/resource/United_States_Department_of_Defense
p791
tp792
aaa.