ccollections
defaultdict
p1
(c__builtin__
dict
p2
tRp3
I0
(dp4
I0
(lp5
sI2
(lp6
sI3
(lp7
ssI1
(dp8
I0
(lp9
Vhttp://dbpedia.org/property/space
p10
asI2
(lp11
Vhttp://dbpedia.org/ontology/abstract
p12
aVhttp://www.w3.org/2000/01/rdf-schema#comment
p13
asI3
(lp14
ssI2
(dp15
I0
(lp16
Vhttp://www.w3.org/1999/02/22-rdf-syntax-ns#type
p17
aVhttp://purl.org/dc/terms/subject
p18
aVhttp://dbpedia.org/ontology/location
p19
aVhttp://dbpedia.org/property/location
p20
asI2
(lp21
sI3
(lp22
ssI3
(dp23
I0
(lp24
Vhttp://www.w3.org/2000/01/rdf-schema#seeAlso
p25
aVhttp://purl.org/dc/terms/subject
p26
aVhttp://dbpedia.org/ontology/location
p27
aVhttp://www.w3.org/2000/01/rdf-schema#comment
p28
aVhttp://dbpedia.org/ontology/abstract
p29
aVhttp://dbpedia.org/property/location
p30
asI2
(lp31
sI3
(lp32
ss.