(lp1
(lp2
(lp3
Vhttp://dbpedia.org/resource/Null
p4
aa(lp5
Vhttp://dbpedia.org/resource/Null
p6
aa(lp7
Vhttp://dbpedia.org/resource/Null
p8
aa(lp9
Vhttp://dbpedia.org/resource/Null
p10
aa(lp11
Vhttp://dbpedia.org/resource/Null
p12
aa(lp13
Vhttp://dbpedia.org/resource/Null
p14
aa(lp15
Vhttp://dbpedia.org/resource/Null
p16
aa(lp17
Vhttp://dbpedia.org/resource/Null
p18
aa(lp19
Vhttp://dbpedia.org/resource/Null
p20
aa(lp21
Vhttp://dbpedia.org/resource/Null
p22
aa(lp23
Vhttp://dbpedia.org/resource/Null
p24
aa(lp25
Vhttp://dbpedia.org/resource/Null
p26
aa(lp27
a(lp28
a(lp29
a(lp30
a(lp31
Vhttp://dbpedia.org/resource/Null
p32
aa(lp33
Vhttp://dbpedia.org/resource/Null
p34
aa(lp35
Vhttp://dbpedia.org/resource/Null
p36
aa(lp37
Vhttp://dbpedia.org/resource/Null
p38
aa(lp39
Vhttp://dbpedia.org/resource/Null
p40
aaa(lp41
(lp42
Vhttp://dbpedia.org/resource/Null
p43
aa(lp44
Vhttp://dbpedia.org/resource/Null
p45
aa(lp46
Vhttp://dbpedia.org/resource/Null
p47
aa(lp48
Vhttp://dbpedia.org/resource/Null
p49
aa(lp50
Vhttp://dbpedia.org/resource/Null
p51
aa(lp52
Vhttp://dbpedia.org/resource/Null
p53
aa(lp54
Vhttp://dbpedia.org/resource/Null
p55
aa(lp56
Vhttp://dbpedia.org/resource/Null
p57
aa(lp58
Vhttp://dbpedia.org/resource/Null
p59
aa(lp60
Vhttp://dbpedia.org/resource/Null
p61
aa(lp62
Vhttp://dbpedia.org/resource/Null
p63
aa(lp64
Vhttp://dbpedia.org/resource/Null
p65
aa(lp66
Vhttp://dbpedia.org/resource/Null
p67
aa(lp68
Vhttp://dbpedia.org/resource/Null
p69
aa(lp70
Vhttp://dbpedia.org/resource/Null
p71
aa(lp72
Vhttp://dbpedia.org/resource/Null
p73
aa(lp74
Vhttp://dbpedia.org/resource/Null
p75
aa(lp76
Vhttp://dbpedia.org/resource/Null
p77
aa(lp78
Vhttp://dbpedia.org/resource/Null
p79
aa(lp80
Vhttp://dbpedia.org/resource/Null
p81
aa(lp82
Vhttp://dbpedia.org/resource/Null
p83
aaa(lp84
(lp85
Vhttp://dbpedia.org/resource/Null
p86
aa(lp87
a(lp88
Vhttp://dbpedia.org/resource/Null
p89
aa(lp90
a(lp91
a(lp92
a(lp93
a(lp94
a(lp95
a(lp96
a(lp97
a(lp98
a(lp99
a(lp100
a(lp101
a(lp102
a(lp103
a(lp104
a(lp105
a(lp106
a(lp107
aa(lp108
(lp109
Vhttp://dbpedia.org/resource/Null
p110
aa(lp111
a(lp112
a(lp113
a(lp114
a(lp115
a(lp116
a(lp117
a(lp118
a(lp119
a(lp120
a(lp121
a(lp122
a(lp123
a(lp124
a(lp125
a(lp126
a(lp127
a(lp128
a(lp129
a(lp130
aa(lp131
(lp132
Vhttp://dbpedia.org/resource/Null
p133
aa(lp134
Vhttp://dbpedia.org/resource/Null
p135
aa(lp136
Vhttp://dbpedia.org/resource/Null
p137
aa(lp138
Vhttp://dbpedia.org/resource/Null
p139
aa(lp140
Vhttp://dbpedia.org/resource/Null
p141
aa(lp142
Vhttp://dbpedia.org/resource/Null
p143
aa(lp144
Vhttp://dbpedia.org/resource/Null
p145
aa(lp146
Vhttp://dbpedia.org/resource/Null
p147
aa(lp148
Vhttp://dbpedia.org/resource/Null
p149
aa(lp150
Vhttp://dbpedia.org/resource/Null
p151
aa(lp152
Vhttp://dbpedia.org/resource/Null
p153
aa(lp154
Vhttp://dbpedia.org/resource/Null
p155
aa(lp156
Vhttp://dbpedia.org/resource/Null
p157
aa(lp158
Vhttp://dbpedia.org/resource/Null
p159
aa(lp160
Vhttp://dbpedia.org/resource/Null
p161
aa(lp162
Vhttp://dbpedia.org/resource/Null
p163
aa(lp164
Vhttp://dbpedia.org/resource/Null
p165
aa(lp166
Vhttp://dbpedia.org/resource/Null
p167
aa(lp168
Vhttp://dbpedia.org/resource/Null
p169
aa(lp170
Vhttp://dbpedia.org/resource/Null
p171
aa(lp172
Vhttp://dbpedia.org/resource/Null
p173
aaa(lp174
(lp175
a(lp176
a(lp177
a(lp178
a(lp179
Vhttp://dbpedia.org/resource/Null
p180
aa(lp181
Vhttp://dbpedia.org/resource/Null
p182
aa(lp183
Vhttp://dbpedia.org/resource/Null
p184
aa(lp185
Vhttp://dbpedia.org/resource/Null
p186
aa(lp187
Vhttp://dbpedia.org/resource/Null
p188
aa(lp189
Vhttp://dbpedia.org/resource/Null
p190
aa(lp191
Vhttp://dbpedia.org/resource/Null
p192
aa(lp193
Vhttp://dbpedia.org/resource/Null
p194
aa(lp195
Vhttp://dbpedia.org/resource/Null
p196
aa(lp197
Vhttp://dbpedia.org/resource/Null
p198
aa(lp199
Vhttp://dbpedia.org/resource/Null
p200
aa(lp201
Vhttp://dbpedia.org/resource/Null
p202
aa(lp203
Vhttp://dbpedia.org/resource/Null
p204
aa(lp205
Vhttp://dbpedia.org/resource/Null
p206
aa(lp207
Vhttp://dbpedia.org/resource/Null
p208
aa(lp209
Vhttp://dbpedia.org/resource/Null
p210
aa(lp211
Vhttp://dbpedia.org/resource/Null
p212
aaa(lp213
(lp214
a(lp215
a(lp216
a(lp217
a(lp218
Vhttp://dbpedia.org/resource/Null
p219
aa(lp220
Vhttp://dbpedia.org/resource/Null
p221
aa(lp222
a(lp223
a(lp224
a(lp225
a(lp226
a(lp227
a(lp228
Vhttp://dbpedia.org/resource/Null
p229
aa(lp230
Vhttp://dbpedia.org/resource/Null
p231
aa(lp232
Vhttp://dbpedia.org/resource/Null
p233
aa(lp234
Vhttp://dbpedia.org/resource/Null
p235
aa(lp236
Vhttp://dbpedia.org/resource/Null
p237
aa(lp238
Vhttp://dbpedia.org/resource/Null
p239
aa(lp240
Vhttp://dbpedia.org/resource/Null
p241
aa(lp242
Vhttp://dbpedia.org/resource/Null
p243
aa(lp244
Vhttp://dbpedia.org/resource/Null
p245
aaa(lp246
(lp247
a(lp248
a(lp249
a(lp250
a(lp251
a(lp252
a(lp253
a(lp254
a(lp255
a(lp256
a(lp257
a(lp258
a(lp259
a(lp260
a(lp261
a(lp262
a(lp263
a(lp264
a(lp265
a(lp266
a(lp267
aa(lp268
(lp269
a(lp270
a(lp271
a(lp272
a(lp273
Vhttp://dbpedia.org/resource/Null
p274
aa(lp275
Vhttp://dbpedia.org/resource/Null
p276
aa(lp277
Vhttp://dbpedia.org/resource/Null
p278
aa(lp279
Vhttp://dbpedia.org/resource/Null
p280
aa(lp281
Vhttp://dbpedia.org/resource/Null
p282
aa(lp283
Vhttp://dbpedia.org/resource/Null
p284
aa(lp285
Vhttp://dbpedia.org/resource/Null
p286
aa(lp287
Vhttp://dbpedia.org/resource/Null
p288
aa(lp289
Vhttp://dbpedia.org/resource/Null
p290
aa(lp291
Vhttp://dbpedia.org/resource/Null
p292
aa(lp293
Vhttp://dbpedia.org/resource/Null
p294
aa(lp295
Vhttp://dbpedia.org/resource/Null
p296
aa(lp297
Vhttp://dbpedia.org/resource/Null
p298
aa(lp299
Vhttp://dbpedia.org/resource/Null
p300
aa(lp301
Vhttp://dbpedia.org/resource/Null
p302
aa(lp303
Vhttp://dbpedia.org/resource/Null
p304
aa(lp305
Vhttp://dbpedia.org/resource/Null
p306
aaa(lp307
(lp308
a(lp309
a(lp310
a(lp311
a(lp312
a(lp313
a(lp314
Vhttp://dbpedia.org/resource/Null
p315
aa(lp316
Vhttp://dbpedia.org/resource/Null
p317
aa(lp318
Vhttp://dbpedia.org/resource/Null
p319
aa(lp320
Vhttp://dbpedia.org/resource/Null
p321
aa(lp322
Vhttp://dbpedia.org/resource/Null
p323
aa(lp324
Vhttp://dbpedia.org/resource/Null
p325
aa(lp326
Vhttp://dbpedia.org/resource/Null
p327
aa(lp328
Vhttp://dbpedia.org/resource/Null
p329
aa(lp330
Vhttp://dbpedia.org/resource/Null
p331
aa(lp332
Vhttp://dbpedia.org/resource/Null
p333
aa(lp334
Vhttp://dbpedia.org/resource/Null
p335
aa(lp336
Vhttp://dbpedia.org/resource/Null
p337
aa(lp338
Vhttp://dbpedia.org/resource/Null
p339
aa(lp340
Vhttp://dbpedia.org/resource/Null
p341
aa(lp342
Vhttp://dbpedia.org/resource/Null
p343
aaa(lp344
(lp345
a(lp346
a(lp347
a(lp348
a(lp349
Vhttp://dbpedia.org/resource/Null
p350
aa(lp351
Vhttp://dbpedia.org/resource/Null
p352
aa(lp353
Vhttp://dbpedia.org/resource/Null
p354
aa(lp355
Vhttp://dbpedia.org/resource/Null
p356
aa(lp357
Vhttp://dbpedia.org/resource/Null
p358
aa(lp359
Vhttp://dbpedia.org/resource/Null
p360
aa(lp361
Vhttp://dbpedia.org/resource/Null
p362
aa(lp363
Vhttp://dbpedia.org/resource/Null
p364
aa(lp365
Vhttp://dbpedia.org/resource/Null
p366
aa(lp367
Vhttp://dbpedia.org/resource/Null
p368
aa(lp369
Vhttp://dbpedia.org/resource/Null
p370
aa(lp371
Vhttp://dbpedia.org/resource/Null
p372
aa(lp373
Vhttp://dbpedia.org/resource/Null
p374
aa(lp375
Vhttp://dbpedia.org/resource/Null
p376
aa(lp377
Vhttp://dbpedia.org/resource/Null
p378
aa(lp379
Vhttp://dbpedia.org/resource/Null
p380
aa(lp381
Vhttp://dbpedia.org/resource/Null
p382
aaa(lp383
(lp384
a(lp385
a(lp386
a(lp387
a(lp388
Vhttp://dbpedia.org/resource/Null
p389
aa(lp390
Vhttp://dbpedia.org/resource/Null
p391
aa(lp392
Vhttp://dbpedia.org/resource/Null
p393
aa(lp394
Vhttp://dbpedia.org/resource/Null
p395
aa(lp396
Vhttp://dbpedia.org/resource/Null
p397
aa(lp398
Vhttp://dbpedia.org/resource/Null
p399
aa(lp400
Vhttp://dbpedia.org/resource/Null
p401
aa(lp402
Vhttp://dbpedia.org/resource/Null
p403
aa(lp404
Vhttp://dbpedia.org/resource/Null
p405
aa(lp406
Vhttp://dbpedia.org/resource/Null
p407
aa(lp408
Vhttp://dbpedia.org/resource/Null
p409
aa(lp410
Vhttp://dbpedia.org/resource/Null
p411
aa(lp412
Vhttp://dbpedia.org/resource/Null
p413
aa(lp414
Vhttp://dbpedia.org/resource/Null
p415
aa(lp416
Vhttp://dbpedia.org/resource/Null
p417
aa(lp418
Vhttp://dbpedia.org/resource/Null
p419
aa(lp420
Vhttp://dbpedia.org/resource/Null
p421
aaa(lp422
(lp423
a(lp424
a(lp425
a(lp426
a(lp427
Vhttp://dbpedia.org/resource/Null
p428
aa(lp429
Vhttp://dbpedia.org/resource/Null
p430
aa(lp431
Vhttp://dbpedia.org/resource/Null
p432
aa(lp433
Vhttp://dbpedia.org/resource/Null
p434
aa(lp435
a(lp436
a(lp437
Vhttp://dbpedia.org/resource/Null
p438
aa(lp439
Vhttp://dbpedia.org/resource/Null
p440
aa(lp441
a(lp442
a(lp443
a(lp444
a(lp445
Vhttp://dbpedia.org/resource/Null
p446
aa(lp447
Vhttp://dbpedia.org/resource/Null
p448
aa(lp449
a(lp450
a(lp451
aa(lp452
(lp453
a(lp454
a(lp455
a(lp456
a(lp457
Vhttp://dbpedia.org/resource/Null
p458
aa(lp459
Vhttp://dbpedia.org/resource/Null
p460
aa(lp461
a(lp462
a(lp463
a(lp464
a(lp465
a(lp466
a(lp467
Vhttp://dbpedia.org/resource/Null
p468
aa(lp469
Vhttp://dbpedia.org/resource/Null
p470
aa(lp471
Vhttp://dbpedia.org/resource/Null
p472
aa(lp473
Vhttp://dbpedia.org/resource/Null
p474
aa(lp475
Vhttp://dbpedia.org/resource/Null
p476
aa(lp477
Vhttp://dbpedia.org/resource/Null
p478
aa(lp479
Vhttp://dbpedia.org/resource/Null
p480
aa(lp481
Vhttp://dbpedia.org/resource/Null
p482
aa(lp483
Vhttp://dbpedia.org/resource/Null
p484
aaa(lp485
(lp486
a(lp487
a(lp488
a(lp489
a(lp490
Vhttp://dbpedia.org/resource/Null
p491
aa(lp492
Vhttp://dbpedia.org/resource/Null
p493
aa(lp494
a(lp495
a(lp496
a(lp497
a(lp498
a(lp499
a(lp500
a(lp501
a(lp502
Vhttp://dbpedia.org/resource/Null
p503
aa(lp504
Vhttp://dbpedia.org/resource/Null
p505
aa(lp506
a(lp507
a(lp508
a(lp509
a(lp510
aa(lp511
(lp512
a(lp513
a(lp514
a(lp515
a(lp516
Vhttp://dbpedia.org/resource/Null
p517
aa(lp518
Vhttp://dbpedia.org/resource/Null
p519
aa(lp520
Vhttp://dbpedia.org/resource/Null
p521
aa(lp522
Vhttp://dbpedia.org/resource/Null
p523
aa(lp524
Vhttp://dbpedia.org/resource/Null
p525
aa(lp526
a(lp527
Vhttp://dbpedia.org/resource/Null
p528
aa(lp529
Vhttp://dbpedia.org/resource/Null
p530
aa(lp531
Vhttp://dbpedia.org/resource/Null
p532
aa(lp533
Vhttp://dbpedia.org/resource/Null
p534
aa(lp535
Vhttp://dbpedia.org/resource/Null
p536
aa(lp537
Vhttp://dbpedia.org/resource/Null
p538
aa(lp539
Vhttp://dbpedia.org/resource/Null
p540
aa(lp541
Vhttp://dbpedia.org/resource/Null
p542
aa(lp543
Vhttp://dbpedia.org/resource/Null
p544
aa(lp545
Vhttp://dbpedia.org/resource/Null
p546
aa(lp547
Vhttp://dbpedia.org/resource/Null
p548
aaa(lp549
(lp550
a(lp551
a(lp552
a(lp553
a(lp554
Vhttp://dbpedia.org/resource/Null
p555
aa(lp556
Vhttp://dbpedia.org/resource/Null
p557
aa(lp558
Vhttp://dbpedia.org/resource/Null
p559
aa(lp560
Vhttp://dbpedia.org/resource/Null
p561
aa(lp562
Vhttp://dbpedia.org/resource/Null
p563
aa(lp564
Vhttp://dbpedia.org/resource/Null
p565
aa(lp566
a(lp567
a(lp568
Vhttp://dbpedia.org/resource/Null
p569
aa(lp570
Vhttp://dbpedia.org/resource/Null
p571
aa(lp572
Vhttp://dbpedia.org/resource/Null
p573
aa(lp574
Vhttp://dbpedia.org/resource/Null
p575
aa(lp576
Vhttp://dbpedia.org/resource/Null
p577
aa(lp578
Vhttp://dbpedia.org/resource/Null
p579
aa(lp580
Vhttp://dbpedia.org/resource/Null
p581
aa(lp582
Vhttp://dbpedia.org/resource/Null
p583
aa(lp584
Vhttp://dbpedia.org/resource/Null
p585
aaa(lp586
(lp587
a(lp588
a(lp589
a(lp590
a(lp591
Vhttp://dbpedia.org/resource/Null
p592
aa(lp593
Vhttp://dbpedia.org/resource/Null
p594
aa(lp595
a(lp596
a(lp597
Vhttp://dbpedia.org/resource/Null
p598
aa(lp599
Vhttp://dbpedia.org/resource/Null
p600
aa(lp601
Vhttp://dbpedia.org/resource/Null
p602
aa(lp603
Vhttp://dbpedia.org/resource/Null
p604
aa(lp605
Vhttp://dbpedia.org/resource/Null
p606
aa(lp607
Vhttp://dbpedia.org/resource/Null
p608
aa(lp609
Vhttp://dbpedia.org/resource/Null
p610
aa(lp611
Vhttp://dbpedia.org/resource/Null
p612
aa(lp613
Vhttp://dbpedia.org/resource/Null
p614
aa(lp615
Vhttp://dbpedia.org/resource/Null
p616
aa(lp617
a(lp618
a(lp619
Vhttp://dbpedia.org/resource/Null
p620
aaa(lp621
(lp622
a(lp623
a(lp624
a(lp625
a(lp626
a(lp627
a(lp628
a(lp629
a(lp630
Vhttp://dbpedia.org/resource/Null
p631
aa(lp632
Vhttp://dbpedia.org/resource/Null
p633
aa(lp634
a(lp635
a(lp636
Vhttp://dbpedia.org/resource/Null
p637
aa(lp638
Vhttp://dbpedia.org/resource/Null
p639
aa(lp640
a(lp641
a(lp642
a(lp643
a(lp644
a(lp645
a(lp646
aa(lp647
(lp648
Vhttp://dbpedia.org/resource/Null
p649
aa(lp650
a(lp651
Vhttp://dbpedia.org/resource/Null
p652
aa(lp653
a(lp654
a(lp655
a(lp656
a(lp657
a(lp658
a(lp659
a(lp660
a(lp661
a(lp662
a(lp663
a(lp664
a(lp665
a(lp666
a(lp667
a(lp668
a(lp669
a(lp670
aa.