(lp1
(lp2
(lp3
a(lp4
a(lp5
a(lp6
aa(lp7
(lp8
a(lp9
a(lp10
a(lp11
((lVhttp://dbpedia.org/resource//dev/full
tp12
aaa(lp13
(lp14
a(lp15
a(lp16
a(lp17
aa(lp18
(lp19
a(lp20
a(lp21
a(lp22
aa(lp23
(lp24
a(lp25
a(lp26
a(lp27
aa(lp28
(lp29
a(lp30
a(lp31
a(lp32
((lVhttp://dbpedia.org/resource//dev/full
tp33
aaa(lp34
(lp35
a(lp36
a(lp37
a(lp38
((lVhttp://dbpedia.org/resource//dev/full
tp39
aaa(lp40
(lp41
a(lp42
a(lp43
a(lp44
aa(lp45
(lp46
a(lp47
a(lp48
a(lp49
aa(lp50
(lp51
a(lp52
a(lp53
a(lp54
aa(lp55
(lp56
a(lp57
a(lp58
a(lp59
aa(lp60
(lp61
a(lp62
a(lp63
a(lp64
aa(lp65
(lp66
a(lp67
a(lp68
a(lp69
((lVhttp://dbpedia.org/resource//dev/full
tp70
aaa(lp71
(lp72
a(lp73
a(lp74
a(lp75
aa(lp76
(lp77
a(lp78
a(lp79
a(lp80
aa(lp81
(lp82
a(lp83
((lp84
Vhttp://www.w3.org/2002/07/owl#Thing
p85
aVhttp://umbel.org/umbel/rc/Animal
p86
aVhttp://umbel.org/umbel/rc/BiologicalLivingObject
p87
aVhttp://umbel.org/umbel/rc/Bird
p88
aVhttp://umbel.org/umbel/rc/EukaryoticCell
p89
aVhttp://dbpedia.org/resource/Mallard
p90
tp91
aa(lp92
a(lp93
aa(lp94
(lp95
a(lp96
a(lp97
a(lp98
aa(lp99
(lp100
a(lp101
a(lp102
a(lp103
aa(lp104
(lp105
a(lp106
a(lp107
a(lp108
aa(lp109
(lp110
a(lp111
a(lp112
a(lp113
aa.