(lp1
(lp2
(lp3
((lp4
Vhttp://www.w3.org/2002/07/owl#Thing
p5
aVhttp://dbpedia.org/ontology/Place
p6
aVhttp://dbpedia.org/ontology/Location
p7
aVhttp://www.wikidata.org/entity/Q486972
p8
aVhttp://www.wikidata.org/entity/Q6256
p9
aVhttp://dbpedia.org/ontology/Country
p10
aVhttp://dbpedia.org/ontology/PopulatedPlace
p11
aVhttp://www.w3.org/2003/01/geo/wgs84_pos#SpatialThing
p12
aVhttp://schema.org/Country
p13
aVhttp://schema.org/Place
p14
aVhttp://umbel.org/umbel/rc/Country
p15
aVhttp://umbel.org/umbel/rc/Location_Underspecified
p16
aVhttp://umbel.org/umbel/rc/PopulatedPlace
p17
aVhttp://dbpedia.org/class/yago/Abstraction100002137
p18
aVhttp://dbpedia.org/class/yago/AdministrativeDistrict108491826
p19
aVhttp://dbpedia.org/class/yago/Country108544813
p20
aVhttp://dbpedia.org/class/yago/District108552138
p21
aVhttp://dbpedia.org/class/yago/Economy108366753
p22
aVhttp://dbpedia.org/class/yago/Group100031264
p23
aVhttp://dbpedia.org/class/yago/Location100027167
p24
aVhttp://dbpedia.org/class/yago/Object100002684
p25
aVhttp://dbpedia.org/class/yago/Region108630985
p26
aVhttp://dbpedia.org/class/yago/System108435388
p27
aVhttp://dbpedia.org/class/yago/YagoGeoEntity
p28
aVhttp://dbpedia.org/class/yago/YagoLegalActorGeo
p29
aVhttp://dbpedia.org/class/yago/CountriesBorderingTheAtlanticOcean
p30
aVhttp://dbpedia.org/class/yago/English-speakingCountriesAndTerritories
p31
aVhttp://dbpedia.org/class/yago/EuropeanCountries
p32
aVhttp://dbpedia.org/class/yago/EuropeanUnionMemberEconomies
p33
aVhttp://dbpedia.org/class/yago/PhysicalEntity100001930
p34
aVhttp://dbpedia.org/class/yago/YagoPermanentlyLocatedEntity
p35
aVhttp://dbpedia.org/class/yago/IslandCountries
p36
aVhttp://dbpedia.org/class/yago/MemberStatesOfNATO
p37
aVhttp://dbpedia.org/class/yago/MemberStatesOfTheCommonwealthOfNations
p38
aVhttp://dbpedia.org/class/yago/MemberStatesOfTheCouncilOfEurope
p39
aVhttp://dbpedia.org/class/yago/MemberStatesOfTheEuropeanUnion
p40
aVhttp://dbpedia.org/class/yago/MemberStatesOfTheUnionForTheMediterranean
p41
aVhttp://dbpedia.org/class/yago/MemberStatesOfTheUnitedNations
p42
aVhttp://dbpedia.org/resource/United_Kingdom
tp43
aa(lp44
((lp45
Vhttp://www.w3.org/2002/07/owl#Thing
p46
aVhttp://dbpedia.org/ontology/Place
p47
aVhttp://dbpedia.org/ontology/Location
p48
aVhttp://www.wikidata.org/entity/Q3957
p49
aVhttp://www.wikidata.org/entity/Q486972
p50
aVhttp://dbpedia.org/ontology/PopulatedPlace
p51
aVhttp://dbpedia.org/ontology/Settlement
p52
aVhttp://dbpedia.org/ontology/Town
p53
aVhttp://www.w3.org/2003/01/geo/wgs84_pos#SpatialThing
p54
aVhttp://schema.org/Place
p55
aVhttp://umbel.org/umbel/rc/Town
p56
aVhttp://dbpedia.org/class/yago/AdministrativeDistrict108491826
p57
aVhttp://dbpedia.org/class/yago/Area108497294
p58
aVhttp://dbpedia.org/class/yago/Center108523483
p59
aVhttp://dbpedia.org/class/yago/District108552138
p60
aVhttp://dbpedia.org/class/yago/Location100027167
p61
aVhttp://dbpedia.org/class/yago/Object100002684
p62
aVhttp://dbpedia.org/class/yago/Region108630985
p63
aVhttp://dbpedia.org/class/yago/Seat108647945
p64
aVhttp://dbpedia.org/class/yago/Site108651247
p65
aVhttp://dbpedia.org/class/yago/Town108665504
p66
aVhttp://dbpedia.org/class/yago/Tract108673395
p67
aVhttp://dbpedia.org/class/yago/UrbanArea108675967
p68
aVhttp://dbpedia.org/class/yago/YagoGeoEntity
p69
aVhttp://dbpedia.org/class/yago/YagoLegalActorGeo
p70
aVhttp://dbpedia.org/class/yago/CountySeat108547143
p71
aVhttp://dbpedia.org/class/yago/CountySeatsInIndiana
p72
aVhttp://dbpedia.org/class/yago/GeographicalArea108574314
p73
aVhttp://dbpedia.org/class/yago/Municipality108626283
p74
aVhttp://dbpedia.org/class/yago/PhysicalEntity100001930
p75
aVhttp://dbpedia.org/class/yago/YagoPermanentlyLocatedEntity
p76
aVhttp://dbpedia.org/class/yago/PopulatedPlacesInCrawfordCounty,Indiana
p77
aVhttp://dbpedia.org/class/yago/TownsInIndiana
p78
aVhttp://dbpedia.org/resource/English,_Indiana
tp79
aa(lp80
a(lp81
aa(lp82
(lp83
((lVhttp://dbpedia.org/resource/United_States_and_Canada
tp84
aa(lp85
((lp86
Vhttp://www.w3.org/2002/07/owl#Thing
p87
aVhttp://dbpedia.org/ontology/Place
p88
aVhttp://dbpedia.org/ontology/Location
p89
aVhttp://www.wikidata.org/entity/Q3957
p90
aVhttp://www.wikidata.org/entity/Q486972
p91
aVhttp://dbpedia.org/ontology/PopulatedPlace
p92
aVhttp://dbpedia.org/ontology/Settlement
p93
aVhttp://dbpedia.org/ontology/Town
p94
aVhttp://www.w3.org/2003/01/geo/wgs84_pos#SpatialThing
p95
aVhttp://schema.org/Place
p96
aVhttp://umbel.org/umbel/rc/Town
p97
aVhttp://dbpedia.org/class/yago/AdministrativeDistrict108491826
p98
aVhttp://dbpedia.org/class/yago/Area108497294
p99
aVhttp://dbpedia.org/class/yago/Center108523483
p100
aVhttp://dbpedia.org/class/yago/District108552138
p101
aVhttp://dbpedia.org/class/yago/Location100027167
p102
aVhttp://dbpedia.org/class/yago/Object100002684
p103
aVhttp://dbpedia.org/class/yago/Region108630985
p104
aVhttp://dbpedia.org/class/yago/Seat108647945
p105
aVhttp://dbpedia.org/class/yago/Site108651247
p106
aVhttp://dbpedia.org/class/yago/Town108665504
p107
aVhttp://dbpedia.org/class/yago/Tract108673395
p108
aVhttp://dbpedia.org/class/yago/UrbanArea108675967
p109
aVhttp://dbpedia.org/class/yago/YagoGeoEntity
p110
aVhttp://dbpedia.org/class/yago/YagoLegalActorGeo
p111
aVhttp://dbpedia.org/class/yago/CountySeat108547143
p112
aVhttp://dbpedia.org/class/yago/CountySeatsInIndiana
p113
aVhttp://dbpedia.org/class/yago/GeographicalArea108574314
p114
aVhttp://dbpedia.org/class/yago/Municipality108626283
p115
aVhttp://dbpedia.org/class/yago/PhysicalEntity100001930
p116
aVhttp://dbpedia.org/class/yago/YagoPermanentlyLocatedEntity
p117
aVhttp://dbpedia.org/class/yago/PopulatedPlacesInCrawfordCounty,Indiana
p118
aVhttp://dbpedia.org/class/yago/TownsInIndiana
p119
aVhttp://dbpedia.org/resource/English,_Indiana
tp120
aa(lp121
a(lp122
aa(lp123
(lp124
a(lp125
((lp126
Vhttp://www.w3.org/2002/07/owl#Thing
p127
aVhttp://dbpedia.org/ontology/Place
p128
aVhttp://dbpedia.org/ontology/Location
p129
aVhttp://www.wikidata.org/entity/Q3957
p130
aVhttp://www.wikidata.org/entity/Q486972
p131
aVhttp://dbpedia.org/ontology/PopulatedPlace
p132
aVhttp://dbpedia.org/ontology/Settlement
p133
aVhttp://dbpedia.org/ontology/Town
p134
aVhttp://www.w3.org/2003/01/geo/wgs84_pos#SpatialThing
p135
aVhttp://schema.org/Place
p136
aVhttp://umbel.org/umbel/rc/Town
p137
aVhttp://dbpedia.org/class/yago/AdministrativeDistrict108491826
p138
aVhttp://dbpedia.org/class/yago/Area108497294
p139
aVhttp://dbpedia.org/class/yago/Center108523483
p140
aVhttp://dbpedia.org/class/yago/District108552138
p141
aVhttp://dbpedia.org/class/yago/Location100027167
p142
aVhttp://dbpedia.org/class/yago/Object100002684
p143
aVhttp://dbpedia.org/class/yago/Region108630985
p144
aVhttp://dbpedia.org/class/yago/Seat108647945
p145
aVhttp://dbpedia.org/class/yago/Site108651247
p146
aVhttp://dbpedia.org/class/yago/Town108665504
p147
aVhttp://dbpedia.org/class/yago/Tract108673395
p148
aVhttp://dbpedia.org/class/yago/UrbanArea108675967
p149
aVhttp://dbpedia.org/class/yago/YagoGeoEntity
p150
aVhttp://dbpedia.org/class/yago/YagoLegalActorGeo
p151
aVhttp://dbpedia.org/class/yago/CountySeat108547143
p152
aVhttp://dbpedia.org/class/yago/CountySeatsInIndiana
p153
aVhttp://dbpedia.org/class/yago/GeographicalArea108574314
p154
aVhttp://dbpedia.org/class/yago/Municipality108626283
p155
aVhttp://dbpedia.org/class/yago/PhysicalEntity100001930
p156
aVhttp://dbpedia.org/class/yago/YagoPermanentlyLocatedEntity
p157
aVhttp://dbpedia.org/class/yago/PopulatedPlacesInCrawfordCounty,Indiana
p158
aVhttp://dbpedia.org/class/yago/TownsInIndiana
p159
aVhttp://dbpedia.org/resource/English,_Indiana
tp160
aa(lp161
a(lp162
aa(lp163
(lp164
((lp165
Vhttp://www.w3.org/2002/07/owl#Thing
p166
aVhttp://dbpedia.org/ontology/Place
p167
aVhttp://dbpedia.org/ontology/Location
p168
aVhttp://www.wikidata.org/entity/Q486972
p169
aVhttp://www.wikidata.org/entity/Q6256
p170
aVhttp://dbpedia.org/ontology/Country
p171
aVhttp://dbpedia.org/ontology/PopulatedPlace
p172
aVhttp://www.w3.org/2003/01/geo/wgs84_pos#SpatialThing
p173
aVhttp://schema.org/Country
p174
aVhttp://schema.org/Place
p175
aVhttp://umbel.org/umbel/rc/Country
p176
aVhttp://umbel.org/umbel/rc/Location_Underspecified
p177
aVhttp://umbel.org/umbel/rc/PopulatedPlace
p178
aVhttp://dbpedia.org/class/yago/Abstraction100002137
p179
aVhttp://dbpedia.org/class/yago/AdministrativeDistrict108491826
p180
aVhttp://dbpedia.org/class/yago/Country108544813
p181
aVhttp://dbpedia.org/class/yago/District108552138
p182
aVhttp://dbpedia.org/class/yago/Economy108366753
p183
aVhttp://dbpedia.org/class/yago/Group100031264
p184
aVhttp://dbpedia.org/class/yago/Location100027167
p185
aVhttp://dbpedia.org/class/yago/Object100002684
p186
aVhttp://dbpedia.org/class/yago/Region108630039
p187
aVhttp://dbpedia.org/class/yago/Region108630985
p188
aVhttp://dbpedia.org/class/yago/System108435388
p189
aVhttp://dbpedia.org/class/yago/YagoGeoEntity
p190
aVhttp://dbpedia.org/class/yago/YagoLegalActorGeo
p191
aVhttp://dbpedia.org/class/yago/CountriesBorderingTheAtlanticOcean
p192
aVhttp://dbpedia.org/class/yago/CountriesBorderingTheBalticSea
p193
aVhttp://dbpedia.org/class/yago/Danish-speakingCountries
p194
aVhttp://dbpedia.org/class/yago/EuropeanCountries
p195
aVhttp://dbpedia.org/class/yago/EuropeanUnionMemberEconomies
p196
aVhttp://dbpedia.org/class/yago/PhysicalEntity100001930
p197
aVhttp://dbpedia.org/class/yago/YagoPermanentlyLocatedEntity
p198
aVhttp://dbpedia.org/class/yago/MemberStatesOfNATO
p199
aVhttp://dbpedia.org/class/yago/MemberStatesOfTheEuropeanUnion
p200
aVhttp://dbpedia.org/class/yago/MemberStatesOfTheUnionForTheMediterranean
p201
aVhttp://dbpedia.org/class/yago/MemberStatesOfTheUnitedNations
p202
aVhttp://dbpedia.org/class/yago/NUTS2StatisticalRegionsOfTheEuropeanUnion
p203
aVhttp://dbpedia.org/class/yago/NordicCountries
p204
aVhttp://dbpedia.org/class/yago/StatesAndTerritoriesEstablishedIn1814
p205
aVhttp://dbpedia.org/resource/Denmark
tp206
aa(lp207
((lVhttp://dbpedia.org/resource/Danish_(name)
tp208
aa(lp209
a(lp210
aa(lp211
(lp212
((lp213
Vhttp://www.w3.org/2002/07/owl#Thing
p214
aVhttp://dbpedia.org/ontology/Place
p215
aVhttp://dbpedia.org/ontology/Location
p216
aVhttp://www.wikidata.org/entity/Q486972
p217
aVhttp://www.wikidata.org/entity/Q6256
p218
aVhttp://dbpedia.org/ontology/Country
p219
aVhttp://dbpedia.org/ontology/PopulatedPlace
p220
aVhttp://www.w3.org/2003/01/geo/wgs84_pos#SpatialThing
p221
aVhttp://schema.org/Country
p222
aVhttp://schema.org/Place
p223
aVhttp://umbel.org/umbel/rc/Country
p224
aVhttp://umbel.org/umbel/rc/Location_Underspecified
p225
aVhttp://umbel.org/umbel/rc/PopulatedPlace
p226
aVhttp://dbpedia.org/class/yago/Abstraction100002137
p227
aVhttp://dbpedia.org/class/yago/AdministrativeDistrict108491826
p228
aVhttp://dbpedia.org/class/yago/Country108544813
p229
aVhttp://dbpedia.org/class/yago/District108552138
p230
aVhttp://dbpedia.org/class/yago/Economy108366753
p231
aVhttp://dbpedia.org/class/yago/Group100031264
p232
aVhttp://dbpedia.org/class/yago/Location100027167
p233
aVhttp://dbpedia.org/class/yago/Object100002684
p234
aVhttp://dbpedia.org/class/yago/Region108630985
p235
aVhttp://dbpedia.org/class/yago/System108435388
p236
aVhttp://dbpedia.org/class/yago/YagoGeoEntity
p237
aVhttp://dbpedia.org/class/yago/YagoLegalActorGeo
p238
aVhttp://dbpedia.org/class/yago/CountriesBorderingTheBalticSea
p239
aVhttp://dbpedia.org/class/yago/EuropeanCountries
p240
aVhttp://dbpedia.org/class/yago/EuropeanUnionMemberEconomies
p241
aVhttp://dbpedia.org/class/yago/PhysicalEntity100001930
p242
aVhttp://dbpedia.org/class/yago/YagoPermanentlyLocatedEntity
p243
aVhttp://dbpedia.org/class/yago/MemberStatesOfTheCouncilOfEurope
p244
aVhttp://dbpedia.org/class/yago/MemberStatesOfTheEuropeanUnion
p245
aVhttp://dbpedia.org/class/yago/MemberStatesOfTheUnionForTheMediterranean
p246
aVhttp://dbpedia.org/class/yago/MemberStatesOfTheUnitedNations
p247
aVhttp://dbpedia.org/class/yago/NordicCountries
p248
aVhttp://dbpedia.org/class/yago/StatesAndTerritoriesEstablishedIn1918
p249
aVhttp://dbpedia.org/resource/Finland
tp250
aa(lp251
((lVhttp://dbpedia.org/resource/Finnish_cuisine
tp252
aa(lp253
a(lp254
aa(lp255
(lp256
((lp257
Vhttp://www.w3.org/2002/07/owl#Thing
p258
aVhttp://umbel.org/umbel/rc/Business
p259
aVhttp://umbel.org/umbel/rc/Organization
p260
aVhttp://dbpedia.org/resource/France_2
tp261
aa(lp262
((lp263
Vhttp://www.w3.org/2002/07/owl#Thing
p264
aVhttp://dbpedia.org/ontology/Place
p265
aVhttp://dbpedia.org/ontology/Location
p266
aVhttp://www.wikidata.org/entity/Q4022
p267
aVhttp://www.wikidata.org/entity/Q47521
p268
aVhttp://dbpedia.org/ontology/BodyOfWater
p269
aVhttp://dbpedia.org/ontology/NaturalPlace
p270
aVhttp://dbpedia.org/ontology/River
p271
aVhttp://dbpedia.org/ontology/Stream
p272
aVhttp://schema.org/BodyOfWater
p273
aVhttp://schema.org/Place
p274
aVhttp://schema.org/RiverBodyOfWater
p275
aVhttp://umbel.org/umbel/rc/BodyOfWater
p276
aVhttp://umbel.org/umbel/rc/River
p277
aVhttp://umbel.org/umbel/rc/Stream
p278
aVhttp://dbpedia.org/class/yago/BodyOfWater109225146
p279
aVhttp://dbpedia.org/class/yago/Branch109228324
p280
aVhttp://dbpedia.org/class/yago/CanadianHeritageRivers
p281
aVhttp://dbpedia.org/class/yago/River109411430
p282
aVhttp://dbpedia.org/class/yago/Stream109448361
p283
aVhttp://dbpedia.org/class/yago/Thing100002452
p284
aVhttp://dbpedia.org/class/yago/YagoGeoEntity
p285
aVhttp://dbpedia.org/class/yago/Feeder109278997
p286
aVhttp://dbpedia.org/class/yago/PhysicalEntity100001930
p287
aVhttp://dbpedia.org/class/yago/YagoPermanentlyLocatedEntity
p288
aVhttp://dbpedia.org/class/yago/RiversOfOntario
p289
aVhttp://dbpedia.org/class/yago/TributariesOfLakeHuron
p290
aVhttp://dbpedia.org/resource/French_River_(Ontario)
tp291
aa(lp292
a(lp293
aa(lp294
(lp295
((lp296
Vhttp://www.w3.org/2002/07/owl#Thing
p297
aVhttp://dbpedia.org/ontology/Place
p298
aVhttp://dbpedia.org/ontology/Location
p299
aVhttp://www.wikidata.org/entity/Q486972
p300
aVhttp://www.wikidata.org/entity/Q6256
p301
aVhttp://dbpedia.org/ontology/Country
p302
aVhttp://dbpedia.org/ontology/PopulatedPlace
p303
aVhttp://www.w3.org/2003/01/geo/wgs84_pos#SpatialThing
p304
aVhttp://schema.org/Country
p305
aVhttp://schema.org/Place
p306
aVhttp://umbel.org/umbel/rc/Country
p307
aVhttp://umbel.org/umbel/rc/Location_Underspecified
p308
aVhttp://umbel.org/umbel/rc/PopulatedPlace
p309
aVhttp://dbpedia.org/class/yago/Abstraction100002137
p310
aVhttp://dbpedia.org/class/yago/AdministrativeDistrict108491826
p311
aVhttp://dbpedia.org/class/yago/AlpineCountries
p312
aVhttp://dbpedia.org/class/yago/Country108544813
p313
aVhttp://dbpedia.org/class/yago/District108552138
p314
aVhttp://dbpedia.org/class/yago/Economy108366753
p315
aVhttp://dbpedia.org/class/yago/Group100031264
p316
aVhttp://dbpedia.org/class/yago/Location100027167
p317
aVhttp://dbpedia.org/class/yago/Object100002684
p318
aVhttp://dbpedia.org/class/yago/Region108630985
p319
aVhttp://dbpedia.org/class/yago/System108435388
p320
aVhttp://dbpedia.org/class/yago/YagoGeoEntity
p321
aVhttp://dbpedia.org/class/yago/YagoLegalActorGeo
p322
aVhttp://dbpedia.org/class/yago/CountriesBorderingTheAtlanticOcean
p323
aVhttp://dbpedia.org/class/yago/CountriesBorderingTheBalticSea
p324
aVhttp://dbpedia.org/class/yago/EuropeanCountries
p325
aVhttp://dbpedia.org/class/yago/EuropeanUnionMemberEconomies
p326
aVhttp://dbpedia.org/class/yago/FederalCountries
p327
aVhttp://dbpedia.org/class/yago/PhysicalEntity100001930
p328
aVhttp://dbpedia.org/class/yago/YagoPermanentlyLocatedEntity
p329
aVhttp://dbpedia.org/class/yago/German-speakingCountries
p330
aVhttp://dbpedia.org/class/yago/MemberStatesOfNATO
p331
aVhttp://dbpedia.org/class/yago/MemberStatesOfTheEuropeanUnion
p332
aVhttp://dbpedia.org/class/yago/MemberStatesOfTheUnionForTheMediterranean
p333
aVhttp://dbpedia.org/class/yago/MemberStatesOfTheUnitedNations
p334
aVhttp://dbpedia.org/class/yago/StatesAndTerritoriesEstablishedIn1871
p335
aVhttp://dbpedia.org/resource/Germany
tp336
aa(lp337
((lp338
Vhttp://www.w3.org/2002/07/owl#Thing
p339
aVhttp://dbpedia.org/ontology/Place
p340
aVhttp://dbpedia.org/ontology/Location
p341
aVhttp://www.wikidata.org/entity/Q486972
p342
aVhttp://www.wikidata.org/entity/Q6256
p343
aVhttp://dbpedia.org/ontology/Country
p344
aVhttp://dbpedia.org/ontology/PopulatedPlace
p345
aVhttp://www.w3.org/2003/01/geo/wgs84_pos#SpatialThing
p346
aVhttp://schema.org/Country
p347
aVhttp://schema.org/Place
p348
aVhttp://umbel.org/umbel/rc/Country
p349
aVhttp://umbel.org/umbel/rc/Location_Underspecified
p350
aVhttp://umbel.org/umbel/rc/PopulatedPlace
p351
aVhttp://dbpedia.org/class/yago/Abstraction100002137
p352
aVhttp://dbpedia.org/class/yago/AdministrativeDistrict108491826
p353
aVhttp://dbpedia.org/class/yago/AlpineCountries
p354
aVhttp://dbpedia.org/class/yago/Country108544813
p355
aVhttp://dbpedia.org/class/yago/District108552138
p356
aVhttp://dbpedia.org/class/yago/Economy108366753
p357
aVhttp://dbpedia.org/class/yago/Group100031264
p358
aVhttp://dbpedia.org/class/yago/Location100027167
p359
aVhttp://dbpedia.org/class/yago/Object100002684
p360
aVhttp://dbpedia.org/class/yago/Region108630985
p361
aVhttp://dbpedia.org/class/yago/System108435388
p362
aVhttp://dbpedia.org/class/yago/YagoGeoEntity
p363
aVhttp://dbpedia.org/class/yago/YagoLegalActorGeo
p364
aVhttp://dbpedia.org/class/yago/CountriesBorderingTheAtlanticOcean
p365
aVhttp://dbpedia.org/class/yago/CountriesBorderingTheBalticSea
p366
aVhttp://dbpedia.org/class/yago/EuropeanCountries
p367
aVhttp://dbpedia.org/class/yago/EuropeanUnionMemberEconomies
p368
aVhttp://dbpedia.org/class/yago/FederalCountries
p369
aVhttp://dbpedia.org/class/yago/PhysicalEntity100001930
p370
aVhttp://dbpedia.org/class/yago/YagoPermanentlyLocatedEntity
p371
aVhttp://dbpedia.org/class/yago/German-speakingCountries
p372
aVhttp://dbpedia.org/class/yago/MemberStatesOfNATO
p373
aVhttp://dbpedia.org/class/yago/MemberStatesOfTheEuropeanUnion
p374
aVhttp://dbpedia.org/class/yago/MemberStatesOfTheUnionForTheMediterranean
p375
aVhttp://dbpedia.org/class/yago/MemberStatesOfTheUnitedNations
p376
aVhttp://dbpedia.org/class/yago/StatesAndTerritoriesEstablishedIn1871
p377
aVhttp://dbpedia.org/resource/Germany
tp378
aa(lp379
a(lp380
aa(lp381
(lp382
((lp383
Vhttp://www.w3.org/2002/07/owl#Thing
p384
aVhttp://dbpedia.org/ontology/Place
p385
aVhttp://dbpedia.org/ontology/Location
p386
aVhttp://www.wikidata.org/entity/Q486972
p387
aVhttp://www.wikidata.org/entity/Q6256
p388
aVhttp://dbpedia.org/ontology/Country
p389
aVhttp://dbpedia.org/ontology/PopulatedPlace
p390
aVhttp://schema.org/Country
p391
aVhttp://schema.org/Place
p392
aVhttp://umbel.org/umbel/rc/Country
p393
aVhttp://umbel.org/umbel/rc/Location_Underspecified
p394
aVhttp://umbel.org/umbel/rc/PopulatedPlace
p395
aVhttp://dbpedia.org/class/yago/Abstraction100002137
p396
aVhttp://dbpedia.org/class/yago/AdministrativeDistrict108491826
p397
aVhttp://dbpedia.org/class/yago/Area108497294
p398
aVhttp://dbpedia.org/class/yago/City108524735
p399
aVhttp://dbpedia.org/class/yago/Country108544813
p400
aVhttp://dbpedia.org/class/yago/District108552138
p401
aVhttp://dbpedia.org/class/yago/Economy108366753
p402
aVhttp://dbpedia.org/class/yago/Group100031264
p403
aVhttp://dbpedia.org/class/yago/Location100027167
p404
aVhttp://dbpedia.org/class/yago/Object100002684
p405
aVhttp://dbpedia.org/class/yago/Region108630039
p406
aVhttp://dbpedia.org/class/yago/Region108630985
p407
aVhttp://dbpedia.org/class/yago/Site108651247
p408
aVhttp://dbpedia.org/class/yago/System108435388
p409
aVhttp://dbpedia.org/class/yago/Tract108673395
p410
aVhttp://dbpedia.org/class/yago/UrbanArea108675967
p411
aVhttp://dbpedia.org/class/yago/YagoGeoEntity
p412
aVhttp://dbpedia.org/class/yago/YagoLegalActorGeo
p413
aVhttp://dbpedia.org/class/yago/Chinese-speakingCountriesAndTerritories
p414
aVhttp://dbpedia.org/class/yago/English-speakingCountriesAndTerritories
p415
aVhttp://dbpedia.org/class/yago/GeographicalArea108574314
p416
aVhttp://dbpedia.org/class/yago/Municipality108626283
p417
aVhttp://dbpedia.org/class/yago/PhysicalEntity100001930
p418
aVhttp://dbpedia.org/class/yago/YagoPermanentlyLocatedEntity
p419
aVhttp://dbpedia.org/class/yago/IndependentCities
p420
aVhttp://dbpedia.org/class/yago/MetropolitanAreasOfChina
p421
aVhttp://dbpedia.org/class/yago/PopulatedCoastalPlacesInHongKong
p422
aVhttp://dbpedia.org/class/yago/PopulatedPlacesEstablishedIn1842
p423
aVhttp://dbpedia.org/class/yago/PortCitiesAndTownsInChina
p424
aVhttp://dbpedia.org/class/yago/SpecialAdministrativeRegionsOfThePeople'sRepublicOfChina
p425
aVhttp://dbpedia.org/class/yago/StatesAndTerritoriesEstablishedIn1997
p426
aVhttp://dbpedia.org/class/yago/WorldTradeOrganizationMemberEconomies
p427
aVhttp://dbpedia.org/resource/Hong_Kong
tp428
aa(lp429
((lp430
Vhttp://dbpedia.org/class/yago/Abstraction100002137
p431
aVhttp://dbpedia.org/class/yago/AuditoryCommunication107109019
p432
aVhttp://dbpedia.org/class/yago/Communication100033020
p433
aVhttp://dbpedia.org/class/yago/Dialect107155661
p434
aVhttp://dbpedia.org/class/yago/Language106282651
p435
aVhttp://dbpedia.org/class/yago/Non-standardSpeech107155081
p436
aVhttp://dbpedia.org/class/yago/EnglishDialects
p437
aVhttp://dbpedia.org/class/yago/Speech107109196
p438
aVhttp://dbpedia.org/class/yago/LanguagesOfHongKong
p439
aVhttp://dbpedia.org/resource/Hong_Kong_English
tp440
aa(lp441
a(lp442
aa(lp443
(lp444
((lp445
Vhttp://www.w3.org/2002/07/owl#Thing
p446
aVhttp://dbpedia.org/ontology/Place
p447
aVhttp://dbpedia.org/ontology/Location
p448
aVhttp://www.wikidata.org/entity/Q486972
p449
aVhttp://www.wikidata.org/entity/Q6256
p450
aVhttp://dbpedia.org/ontology/Country
p451
aVhttp://dbpedia.org/ontology/PopulatedPlace
p452
aVhttp://www.w3.org/2003/01/geo/wgs84_pos#SpatialThing
p453
aVhttp://schema.org/Country
p454
aVhttp://schema.org/Place
p455
aVhttp://umbel.org/umbel/rc/Country
p456
aVhttp://umbel.org/umbel/rc/Location_Underspecified
p457
aVhttp://umbel.org/umbel/rc/PopulatedPlace
p458
aVhttp://dbpedia.org/class/yago/Abstraction100002137
p459
aVhttp://dbpedia.org/class/yago/AdministrativeDistrict108491826
p460
aVhttp://dbpedia.org/class/yago/Country108544813
p461
aVhttp://dbpedia.org/class/yago/District108552138
p462
aVhttp://dbpedia.org/class/yago/Domain108556491
p463
aVhttp://dbpedia.org/class/yago/Economy108366753
p464
aVhttp://dbpedia.org/class/yago/Group100031264
p465
aVhttp://dbpedia.org/class/yago/Location100027167
p466
aVhttp://dbpedia.org/class/yago/Object100002684
p467
aVhttp://dbpedia.org/class/yago/Region108630985
p468
aVhttp://dbpedia.org/class/yago/System108435388
p469
aVhttp://dbpedia.org/class/yago/YagoGeoEntity
p470
aVhttp://dbpedia.org/class/yago/YagoLegalActorGeo
p471
aVhttp://dbpedia.org/class/yago/CountriesBorderingThePacificOcean
p472
aVhttp://dbpedia.org/class/yago/CountriesBorderingThePhilippineSea
p473
aVhttp://dbpedia.org/class/yago/EastAsianCountries
p474
aVhttp://dbpedia.org/class/yago/Empire108557482
p475
aVhttp://dbpedia.org/class/yago/Empires
p476
aVhttp://dbpedia.org/class/yago/PhysicalEntity100001930
p477
aVhttp://dbpedia.org/class/yago/YagoPermanentlyLocatedEntity
p478
aVhttp://dbpedia.org/class/yago/IslandCountries
p479
aVhttp://dbpedia.org/class/yago/MemberStatesOfTheUnitedNations
p480
aVhttp://dbpedia.org/class/yago/StatesAndTerritoriesEstablishedIn660BC
p481
aVhttp://dbpedia.org/resource/Japan
tp482
aa(lp483
((lp484
Vhttp://dbpedia.org/class/yago/Abstraction100002137
p485
aVhttp://dbpedia.org/class/yago/BuyeoLanguages
p486
aVhttp://dbpedia.org/class/yago/Class107997703
p487
aVhttp://dbpedia.org/class/yago/Collection107951464
p488
aVhttp://dbpedia.org/class/yago/Communication100033020
p489
aVhttp://dbpedia.org/class/yago/Group100031264
p490
aVhttp://dbpedia.org/class/yago/Language106282651
p491
aVhttp://dbpedia.org/class/yago/JaponicLanguages
p492
aVhttp://dbpedia.org/resource/Japonic_languages
tp493
aa(lp494
a(lp495
aa(lp496
(lp497
((lp498
Vhttp://www.w3.org/2002/07/owl#Thing
p499
aVhttp://umbel.org/umbel/rc/Country
p500
aVhttp://umbel.org/umbel/rc/Location_Underspecified
p501
aVhttp://umbel.org/umbel/rc/PopulatedPlace
p502
aVhttp://dbpedia.org/class/yago/Abstraction100002137
p503
aVhttp://dbpedia.org/class/yago/AdministrativeDistrict108491826
p504
aVhttp://dbpedia.org/class/yago/Country108544813
p505
aVhttp://dbpedia.org/class/yago/District108552138
p506
aVhttp://dbpedia.org/class/yago/Economy108366753
p507
aVhttp://dbpedia.org/class/yago/Group100031264
p508
aVhttp://dbpedia.org/class/yago/Location100027167
p509
aVhttp://dbpedia.org/class/yago/Object100002684
p510
aVhttp://dbpedia.org/class/yago/Region108630985
p511
aVhttp://dbpedia.org/class/yago/System108435388
p512
aVhttp://dbpedia.org/class/yago/YagoGeoEntity
p513
aVhttp://dbpedia.org/class/yago/YagoLegalActorGeo
p514
aVhttp://dbpedia.org/class/yago/CountriesBorderingTheArcticOcean
p515
aVhttp://dbpedia.org/class/yago/CountriesBorderingTheAtlanticOcean
p516
aVhttp://dbpedia.org/class/yago/EuropeanCountries
p517
aVhttp://dbpedia.org/class/yago/PhysicalEntity100001930
p518
aVhttp://dbpedia.org/class/yago/YagoPermanentlyLocatedEntity
p519
aVhttp://dbpedia.org/class/yago/MemberStatesOfNATO
p520
aVhttp://dbpedia.org/class/yago/MemberStatesOfTheUnitedNations
p521
aVhttp://dbpedia.org/class/yago/NordicCountries
p522
aVhttp://dbpedia.org/class/yago/StatesAndTerritoriesEstablishedIn1905
p523
aVhttp://dbpedia.org/class/yago/StatesAndTerritoriesEstablishedIn872
p524
aVhttp://dbpedia.org/class/yago/WorldTradeOrganizationMemberEconomies
p525
aVhttp://dbpedia.org/resource/Norway
tp526
aa(lp527
((lp528
Vhttp://www.w3.org/2002/07/owl#Thing
p529
aVhttp://dbpedia.org/ontology/Company
p530
aVhttp://www.ontologydesignpatterns.org/ont/dul/DUL.owl#Agent
p531
aVhttp://www.ontologydesignpatterns.org/ont/dul/DUL.owl#SocialPerson
p532
aVhttp://www.wikidata.org/entity/Q43229
p533
aVhttp://www.wikidata.org/entity/Q46970
p534
aVhttp://dbpedia.org/ontology/Agent
p535
aVhttp://dbpedia.org/ontology/Airline
p536
aVhttp://dbpedia.org/ontology/Organisation
p537
aVhttp://schema.org/Organization
p538
aVhttp://umbel.org/umbel/rc/AirlineCompany
p539
aVhttp://umbel.org/umbel/rc/Business
p540
aVhttp://umbel.org/umbel/rc/Organization
p541
aVhttp://dbpedia.org/class/yago/Abstraction100002137
p542
aVhttp://dbpedia.org/class/yago/Airline102690081
p543
aVhttp://dbpedia.org/class/yago/AirlinesEstablishedIn1993
p544
aVhttp://dbpedia.org/class/yago/AirlinesOfNorway
p545
aVhttp://dbpedia.org/class/yago/Business108061042
p546
aVhttp://dbpedia.org/class/yago/Carrier108057633
p547
aVhttp://dbpedia.org/class/yago/Company108058098
p548
aVhttp://dbpedia.org/class/yago/Enterprise108056231
p549
aVhttp://dbpedia.org/class/yago/Group100031264
p550
aVhttp://dbpedia.org/class/yago/Institution108053576
p551
aVhttp://dbpedia.org/class/yago/Line103671473
p552
aVhttp://dbpedia.org/class/yago/Organization108008335
p553
aVhttp://dbpedia.org/class/yago/SocialGroup107950920
p554
aVhttp://dbpedia.org/class/yago/YagoLegalActorGeo
p555
aVhttp://dbpedia.org/class/yago/CompaniesBasedInB%C3%A6rum
p556
aVhttp://dbpedia.org/class/yago/CompaniesListedOnTheOsloStockExchange
p557
aVhttp://dbpedia.org/class/yago/YagoPermanentlyLocatedEntity
p558
aVhttp://dbpedia.org/class/yago/Low-costAirlines
p559
aVhttp://dbpedia.org/class/yago/YagoLegalActor
p560
aVhttp://dbpedia.org/resource/Norwegian_Air_Shuttle
tp561
aa(lp562
a(lp563
aa(lp564
(lp565
((lp566
Vhttp://www.w3.org/2002/07/owl#Thing
p567
aVhttp://dbpedia.org/ontology/Place
p568
aVhttp://dbpedia.org/ontology/Location
p569
aVhttp://www.wikidata.org/entity/Q486972
p570
aVhttp://www.wikidata.org/entity/Q6256
p571
aVhttp://dbpedia.org/ontology/Country
p572
aVhttp://dbpedia.org/ontology/PopulatedPlace
p573
aVhttp://www.w3.org/2003/01/geo/wgs84_pos#SpatialThing
p574
aVhttp://schema.org/Country
p575
aVhttp://schema.org/Place
p576
aVhttp://umbel.org/umbel/rc/Country
p577
aVhttp://umbel.org/umbel/rc/Location_Underspecified
p578
aVhttp://umbel.org/umbel/rc/PopulatedPlace
p579
aVhttp://dbpedia.org/class/yago/Abstraction100002137
p580
aVhttp://dbpedia.org/class/yago/AdministrativeDistrict108491826
p581
aVhttp://dbpedia.org/class/yago/Country108544813
p582
aVhttp://dbpedia.org/class/yago/District108552138
p583
aVhttp://dbpedia.org/class/yago/Economy108366753
p584
aVhttp://dbpedia.org/class/yago/Group100031264
p585
aVhttp://dbpedia.org/class/yago/Location100027167
p586
aVhttp://dbpedia.org/class/yago/Object100002684
p587
aVhttp://dbpedia.org/class/yago/Region108630985
p588
aVhttp://dbpedia.org/class/yago/System108435388
p589
aVhttp://dbpedia.org/class/yago/YagoGeoEntity
p590
aVhttp://dbpedia.org/class/yago/YagoLegalActorGeo
p591
aVhttp://dbpedia.org/class/yago/CountriesBorderingTheAtlanticOcean
p592
aVhttp://dbpedia.org/class/yago/CountriesBorderingTheBalticSea
p593
aVhttp://dbpedia.org/class/yago/EuropeanCountries
p594
aVhttp://dbpedia.org/class/yago/EuropeanUnionMemberEconomies
p595
aVhttp://dbpedia.org/class/yago/PhysicalEntity100001930
p596
aVhttp://dbpedia.org/class/yago/YagoPermanentlyLocatedEntity
p597
aVhttp://dbpedia.org/class/yago/MemberStatesOfTheEuropeanUnion
p598
aVhttp://dbpedia.org/class/yago/MemberStatesOfTheUnionForTheMediterranean
p599
aVhttp://dbpedia.org/class/yago/MemberStatesOfTheUnitedNations
p600
aVhttp://dbpedia.org/class/yago/NordicCountries
p601
aVhttp://dbpedia.org/resource/Sweden
tp602
aa(lp603
((lVhttp://dbpedia.org/resource/Swedish
tp604
aa(lp605
a(lp606
aa(lp607
(lp608
a(lp609
((lp610
Vhttp://www.w3.org/2002/07/owl#Thing
p611
aVhttp://dbpedia.org/ontology/Place
p612
aVhttp://dbpedia.org/ontology/Location
p613
aVhttp://www.wikidata.org/entity/Q3957
p614
aVhttp://www.wikidata.org/entity/Q486972
p615
aVhttp://dbpedia.org/ontology/PopulatedPlace
p616
aVhttp://dbpedia.org/ontology/Settlement
p617
aVhttp://dbpedia.org/ontology/Town
p618
aVhttp://www.w3.org/2003/01/geo/wgs84_pos#SpatialThing
p619
aVhttp://schema.org/Place
p620
aVhttp://umbel.org/umbel/rc/Town
p621
aVhttp://dbpedia.org/class/yago/AdministrativeDistrict108491826
p622
aVhttp://dbpedia.org/class/yago/Area108497294
p623
aVhttp://dbpedia.org/class/yago/Center108523483
p624
aVhttp://dbpedia.org/class/yago/District108552138
p625
aVhttp://dbpedia.org/class/yago/Location100027167
p626
aVhttp://dbpedia.org/class/yago/Object100002684
p627
aVhttp://dbpedia.org/class/yago/Region108630985
p628
aVhttp://dbpedia.org/class/yago/Seat108647945
p629
aVhttp://dbpedia.org/class/yago/Site108651247
p630
aVhttp://dbpedia.org/class/yago/Town108665504
p631
aVhttp://dbpedia.org/class/yago/Tract108673395
p632
aVhttp://dbpedia.org/class/yago/UrbanArea108675967
p633
aVhttp://dbpedia.org/class/yago/YagoGeoEntity
p634
aVhttp://dbpedia.org/class/yago/YagoLegalActorGeo
p635
aVhttp://dbpedia.org/class/yago/CountySeat108547143
p636
aVhttp://dbpedia.org/class/yago/CountySeatsInIndiana
p637
aVhttp://dbpedia.org/class/yago/GeographicalArea108574314
p638
aVhttp://dbpedia.org/class/yago/Municipality108626283
p639
aVhttp://dbpedia.org/class/yago/PhysicalEntity100001930
p640
aVhttp://dbpedia.org/class/yago/YagoPermanentlyLocatedEntity
p641
aVhttp://dbpedia.org/class/yago/PopulatedPlacesInCrawfordCounty,Indiana
p642
aVhttp://dbpedia.org/class/yago/TownsInIndiana
p643
aVhttp://dbpedia.org/resource/English,_Indiana
p644
tp645
aa(lp646
a(lp647
aa.