(lp1
(lp2
(dp3
Vstart
p4
I0
sS'classes'
p5
(lp6
Vhttp://www.w3.org/2002/07/owl#Thing
p7
asVdisambiguatedURL
p8
Vhttp://dbpedia.org/resource/Arrest
p9
sVnamedEntity
p10
VArrests
p11
sVoffset
p12
I7
saa(lp13
(dp14
Vstart
p15
I0
sg5
(lp16
Vhttp://www.w3.org/2002/07/owl#Thing
p17
asVdisambiguatedURL
p18
Vhttp://dbpedia.org/resource/Residence_card_of_a_family_member_of_a_Union_citizen
p19
sVnamedEntity
p20
VResidence Hall
p21
sVoffset
p22
I14
saa(lp23
a(lp24
(dp25
Vstart
p26
I0
sg5
(lp27
Vhttp://www.w3.org/2002/07/owl#Thing
p28
aVhttp://xmlns.com/foaf/0.1/Person
p29
aVhttp://dbpedia.org/ontology/Person
p30
aVhttp://www.ontologydesignpatterns.org/ont/dul/DUL.owl#Agent
p31
aVhttp://www.ontologydesignpatterns.org/ont/dul/DUL.owl#NaturalPerson
p32
aVhttp://www.wikidata.org/entity/Q215627
p33
aVhttp://www.wikidata.org/entity/Q483501
p34
aVhttp://www.wikidata.org/entity/Q5
p35
aVhttp://dbpedia.org/ontology/Agent
p36
aVhttp://dbpedia.org/ontology/Artist
p37
aVhttp://dbpedia.org/ontology/MusicalArtist
p38
aVhttp://schema.org/MusicGroup
p39
aVhttp://schema.org/Person
p40
aVhttp://dbpedia.org/class/yago/AmericanComedyMusicians
p41
aVhttp://dbpedia.org/class/yago/Artist109812338
p42
aVhttp://dbpedia.org/class/yago/CausalAgent100007347
p43
aVhttp://dbpedia.org/class/yago/Creator109614315
p44
aVhttp://dbpedia.org/class/yago/LivingThing100004258
p45
aVhttp://dbpedia.org/class/yago/Musician110339966
p46
aVhttp://dbpedia.org/class/yago/Object100002684
p47
aVhttp://dbpedia.org/class/yago/Organism100004475
p48
aVhttp://dbpedia.org/class/yago/Person100007846
p49
aVhttp://dbpedia.org/class/yago/Whole100003553
p50
aVhttp://dbpedia.org/class/yago/YagoLegalActorGeo
p51
aVhttp://dbpedia.org/class/yago/PhysicalEntity100001930
p52
aVhttp://dbpedia.org/class/yago/MusiciansWhoCommittedSuicide
p53
aVhttp://dbpedia.org/class/yago/YagoLegalActor
p54
asVdisambiguatedURL
p55
Vhttp://dbpedia.org/resource/Dickie_Goodman
p56
sVnamedEntity
p57
VOn Campus
p58
sVoffset
p59
I9
saa(lp60
a(lp61
a(lp62
a(lp63
(dp64
Vstart
p65
I0
sg5
(lp66
Vhttp://www.w3.org/2002/07/owl#Thing
p67
asVdisambiguatedURL
p68
Vhttp://dbpedia.org/resource/Residence_card_of_a_family_member_of_a_Union_citizen
p69
sVnamedEntity
p70
VResidence Hall
p71
sVoffset
p72
I14
saa(lp73
a(lp74
a(lp75
(dp76
Vstart
p77
I0
sg5
(lp78
Vhttp://www.w3.org/2002/07/owl#Thing
p79
asVdisambiguatedURL
p80
Vhttp://dbpedia.org/resource/Arson
p81
sVnamedEntity
p82
VArson
p83
sVoffset
p84
I5
saa(lp85
(dp86
Vstart
p87
I0
sg5
(lp88
Vhttp://www.w3.org/2002/07/owl#Thing
p89
aVhttp://xmlns.com/foaf/0.1/Person
p90
aVhttp://dbpedia.org/ontology/Person
p91
aVhttp://www.ontologydesignpatterns.org/ont/dul/DUL.owl#Agent
p92
aVhttp://www.ontologydesignpatterns.org/ont/dul/DUL.owl#NaturalPerson
p93
aVhttp://www.wikidata.org/entity/Q215627
p94
aVhttp://www.wikidata.org/entity/Q483501
p95
aVhttp://www.wikidata.org/entity/Q5
p96
aVhttp://dbpedia.org/ontology/Agent
p97
aVhttp://dbpedia.org/ontology/Artist
p98
aVhttp://dbpedia.org/ontology/MusicalArtist
p99
aVhttp://schema.org/MusicGroup
p100
aVhttp://schema.org/Person
p101
aVhttp://dbpedia.org/class/yago/AmericanComedyMusicians
p102
aVhttp://dbpedia.org/class/yago/Artist109812338
p103
aVhttp://dbpedia.org/class/yago/CausalAgent100007347
p104
aVhttp://dbpedia.org/class/yago/Creator109614315
p105
aVhttp://dbpedia.org/class/yago/LivingThing100004258
p106
aVhttp://dbpedia.org/class/yago/Musician110339966
p107
aVhttp://dbpedia.org/class/yago/Object100002684
p108
aVhttp://dbpedia.org/class/yago/Organism100004475
p109
aVhttp://dbpedia.org/class/yago/Person100007846
p110
aVhttp://dbpedia.org/class/yago/Whole100003553
p111
aVhttp://dbpedia.org/class/yago/YagoLegalActorGeo
p112
aVhttp://dbpedia.org/class/yago/PhysicalEntity100001930
p113
aVhttp://dbpedia.org/class/yago/MusiciansWhoCommittedSuicide
p114
aVhttp://dbpedia.org/class/yago/YagoLegalActor
p115
asVdisambiguatedURL
p116
Vhttp://dbpedia.org/resource/Dickie_Goodman
p117
sVnamedEntity
p118
VOn Campus
p119
sVoffset
p120
I9
saa(lp121
a(lp122
a(lp123
(dp124
Vstart
p125
I0
sg5
(lp126
Vhttp://www.w3.org/2002/07/owl#Thing
p127
asVdisambiguatedURL
p128
Vhttp://dbpedia.org/resource/Assault
p129
sVnamedEntity
p130
VAggravated Assault
p131
sVoffset
p132
I18
saa(lp133
a(lp134
a(lp135
(dp136
Vstart
p137
I0
sg5
(lp138
Vhttp://www.w3.org/2002/07/owl#Thing
p139
asVdisambiguatedURL
p140
Vhttp://dbpedia.org/resource/Arson
p141
sVnamedEntity
p142
VArson
p143
sVoffset
p144
I5
saa.