ccollections
defaultdict
p1
(c__builtin__
dict
p2
tRp3
I12
(dp4
I1
(lp5
Vhttp://dbpedia.org/ontology/PopulatedPlace/areaTotal
p6
asI2
(lp7
sI3
(lp8
sI4
(lp9
sI5
(lp10
sI6
(lp11
ssI4
(dp12
I1
(lp13
sI2
(lp14
sI3
(lp15
sI4
(lp16
sI5
(lp17
sI6
(lp18
ss.