(lp1
(lp2
(lp3
a(lp4
a(lp5
a(lp6
a(lp7
a(lp8
((lp9
Vhttp://dbpedia.org/class/yago/Abstraction100002137
p10
aVhttp://dbpedia.org/class/yago/Group100031264
p11
aVhttp://dbpedia.org/class/yago/PoliticalSystem108367880
p12
aVhttp://dbpedia.org/class/yago/SocialGroup107950920
p13
aVhttp://dbpedia.org/class/yago/FormsOfGovernment
p14
aVhttp://dbpedia.org/resource/Parliamentary_system
tp15
aa(lp16
aa(lp17
(lp18
a(lp19
a(lp20
a(lp21
a(lp22
a(lp23
a(lp24
aa(lp25
(lp26
a(lp27
a(lp28
a(lp29
a(lp30
a(lp31
a(lp32
aa(lp33
(lp34
a(lp35
a(lp36
a(lp37
a(lp38
a(lp39
a(lp40
aa(lp41
(lp42
((lp43
Vhttp://www.w3.org/2002/07/owl#Thing
p44
aVhttp://dbpedia.org/ontology/Place
p45
aVhttp://dbpedia.org/ontology/Location
p46
aVhttp://www.wikidata.org/entity/Q486972
p47
aVhttp://dbpedia.org/ontology/Continent
p48
aVhttp://dbpedia.org/ontology/PopulatedPlace
p49
aVhttp://schema.org/Continent
p50
aVhttp://schema.org/Place
p51
aVhttp://dbpedia.org/class/yago/Abstraction100002137
p52
aVhttp://dbpedia.org/class/yago/Economy108366753
p53
aVhttp://dbpedia.org/class/yago/Group100031264
p54
aVhttp://dbpedia.org/class/yago/Land109334396
p55
aVhttp://dbpedia.org/class/yago/Object100002684
p56
aVhttp://dbpedia.org/class/yago/System108435388
p57
aVhttp://dbpedia.org/class/yago/YagoGeoEntity
p58
aVhttp://dbpedia.org/class/yago/Continent109254614
p59
aVhttp://dbpedia.org/class/yago/Continents
p60
aVhttp://dbpedia.org/class/yago/EconomiesByRegion
p61
aVhttp://dbpedia.org/class/yago/Landmass109335916
p62
aVhttp://dbpedia.org/class/yago/PhysicalEntity100001930
p63
aVhttp://dbpedia.org/class/yago/YagoPermanentlyLocatedEntity
p64
aVhttp://dbpedia.org/resource/Oceania
tp65
aa(lp66
a(lp67
a(lp68
a(lp69
a(lp70
a(lp71
aa(lp72
(lp73
a(lp74
a(lp75
a(lp76
a(lp77
a(lp78
((lVhttp://dbpedia.org/resource/Federal_republic
tp79
aa(lp80
aa(lp81
(lp82
a(lp83
a(lp84
a(lp85
a(lp86
a(lp87
a(lp88
aa(lp89
(lp90
a(lp91
a(lp92
a(lp93
a(lp94
a(lp95
((lp96
Vhttp://dbpedia.org/class/yago/Abstraction100002137
p97
aVhttp://dbpedia.org/class/yago/Group100031264
p98
aVhttp://dbpedia.org/class/yago/PoliticalSystem108367880
p99
aVhttp://dbpedia.org/class/yago/SocialGroup107950920
p100
aVhttp://dbpedia.org/class/yago/FormsOfGovernment
p101
aVhttp://dbpedia.org/resource/Parliamentary_system
tp102
aa(lp103
aa(lp104
(lp105
a(lp106
a(lp107
a(lp108
a(lp109
a(lp110
a(lp111
aa(lp112
(lp113
a(lp114
a(lp115
a(lp116
a(lp117
a(lp118
((lp119
Vhttp://dbpedia.org/class/yago/Abstraction100002137
p120
aVhttp://dbpedia.org/class/yago/Group100031264
p121
aVhttp://dbpedia.org/class/yago/PoliticalSystem108367880
p122
aVhttp://dbpedia.org/class/yago/SocialGroup107950920
p123
aVhttp://dbpedia.org/class/yago/FormsOfGovernment
p124
aVhttp://dbpedia.org/resource/Parliamentary_system
tp125
aa(lp126
aa(lp127
(lp128
a(lp129
a(lp130
a(lp131
a(lp132
a(lp133
((lp134
Vhttp://dbpedia.org/class/yago/Abstraction100002137
p135
aVhttp://dbpedia.org/class/yago/Group100031264
p136
aVhttp://dbpedia.org/class/yago/PoliticalSystem108367880
p137
aVhttp://dbpedia.org/class/yago/SocialGroup107950920
p138
aVhttp://dbpedia.org/class/yago/FormsOfGovernment
p139
aVhttp://dbpedia.org/resource/Constitutional_monarchy
tp140
aa(lp141
aa(lp142
(lp143
a(lp144
a(lp145
a(lp146
a(lp147
a(lp148
a(lp149
aa(lp150
(lp151
((lp152
Vhttp://www.w3.org/2002/07/owl#Thing
p153
aVhttp://dbpedia.org/ontology/Place
p154
aVhttp://dbpedia.org/ontology/Location
p155
aVhttp://www.wikidata.org/entity/Q486972
p156
aVhttp://www.wikidata.org/entity/Q6256
p157
aVhttp://dbpedia.org/ontology/Country
p158
aVhttp://dbpedia.org/ontology/PopulatedPlace
p159
aVhttp://www.w3.org/2003/01/geo/wgs84_pos#SpatialThing
p160
aVhttp://schema.org/Country
p161
aVhttp://schema.org/Place
p162
aVhttp://umbel.org/umbel/rc/Country
p163
aVhttp://umbel.org/umbel/rc/Location_Underspecified
p164
aVhttp://umbel.org/umbel/rc/PopulatedPlace
p165
aVhttp://dbpedia.org/resource/Bosnia_and_Herzegovina
tp166
aa(lp167
a(lp168
a(lp169
a(lp170
a(lp171
a(lp172
aa(lp173
(lp174
a(lp175
a(lp176
a(lp177
a(lp178
a(lp179
((lVhttp://dbpedia.org/resource/Federal_republic
tp180
aa(lp181
aa(lp182
(lp183
a(lp184
a(lp185
a(lp186
a(lp187
a(lp188
((lp189
Vhttp://dbpedia.org/class/yago/Abstraction100002137
p190
aVhttp://dbpedia.org/class/yago/Group100031264
p191
aVhttp://dbpedia.org/class/yago/PoliticalSystem108367880
p192
aVhttp://dbpedia.org/class/yago/SocialGroup107950920
p193
aVhttp://dbpedia.org/class/yago/FormsOfGovernment
p194
aVhttp://dbpedia.org/resource/Parliamentary_system
tp195
aa(lp196
aa(lp197
(lp198
a(lp199
a(lp200
a(lp201
a(lp202
a(lp203
((lp204
Vhttp://www.w3.org/2002/07/owl#Thing
p205
aVhttp://dbpedia.org/resource/Military_junta
tp206
aa(lp207
aa(lp208
(lp209
a(lp210
a(lp211
a(lp212
a(lp213
a(lp214
a(lp215
aa(lp216
(lp217
a(lp218
a(lp219
a(lp220
a(lp221
a(lp222
a(lp223
aa(lp224
(lp225
a(lp226
a(lp227
a(lp228
a(lp229
a(lp230
((lp231
Vhttp://dbpedia.org/class/yago/AdministrativeDistrict108491826
p232
aVhttp://dbpedia.org/class/yago/Country108544813
p233
aVhttp://dbpedia.org/class/yago/District108552138
p234
aVhttp://dbpedia.org/class/yago/Location100027167
p235
aVhttp://dbpedia.org/class/yago/Object100002684
p236
aVhttp://dbpedia.org/class/yago/Region108630985
p237
aVhttp://dbpedia.org/class/yago/YagoGeoEntity
p238
aVhttp://dbpedia.org/class/yago/YagoLegalActorGeo
p239
aVhttp://dbpedia.org/class/yago/CommunistStates
p240
aVhttp://dbpedia.org/class/yago/PhysicalEntity100001930
p241
aVhttp://dbpedia.org/class/yago/YagoPermanentlyLocatedEntity
p242
aVhttp://dbpedia.org/resource/Communist_state
p243
tp244
aa(lp245
aa(lp246
(lp247
a(lp248
a(lp249
a(lp250
a(lp251
a(lp252
a(lp253
aa.