(lp1
(lp2
(dp3
Vstart
p4
I0
sVdisambiguatedURL
p5
NsVnamedEntity
p6
VAustralia (AU)
p7
sVoffset
p8
I14
saa(lp9
(dp10
Vstart
p11
I0
sVdisambiguatedURL
p12
NsVnamedEntity
p13
VAustria (AT)
p14
sVoffset
p15
I12
saa(lp16
(dp17
Vstart
p18
I0
sVdisambiguatedURL
p19
NsVnamedEntity
p20
VBelgium (BE)
p21
sVoffset
p22
I12
saa(lp23
(dp24
Vstart
p25
I0
sVdisambiguatedURL
p26
NsVnamedEntity
p27
VBrazil (BR)
p28
sVoffset
p29
I11
saa(lp30
(dp31
Vstart
p32
I0
sVdisambiguatedURL
p33
NsVnamedEntity
p34
VCanada (CA)
p35
sVoffset
p36
I11
saa(lp37
(dp38
Vstart
p39
I0
sVdisambiguatedURL
p40
Vhttp://dbpedia.org/resource/Flag_of_the_Czech_Republic
p41
sVnamedEntity
p42
VCzech Republic (CZ)
p43
sVoffset
p44
I19
saa(lp45
(dp46
Vstart
p47
I0
sVdisambiguatedURL
p48
NsVnamedEntity
p49
VDenmark (DK)
p50
sVoffset
p51
I12
saa(lp52
(dp53
Vstart
p54
I0
sVdisambiguatedURL
p55
NsVnamedEntity
p56
VEstonia (EE)
p57
sVoffset
p58
I12
saa(lp59
(dp60
Vstart
p61
I0
sVdisambiguatedURL
p62
NsVnamedEntity
p63
VFinland (FI)
p64
sVoffset
p65
I12
saa(lp66
(dp67
Vstart
p68
I0
sVdisambiguatedURL
p69
NsVnamedEntity
p70
VFrance (FR)
p71
sVoffset
p72
I11
saa(lp73
(dp74
Vstart
p75
I0
sVdisambiguatedURL
p76
NsVnamedEntity
p77
VGermany (DE)
p78
sVoffset
p79
I12
saa(lp80
(dp81
Vstart
p82
I0
sVdisambiguatedURL
p83
Vhttp://dbpedia.org/resource/Great_Britain
p84
sVnamedEntity
p85
VGreat Britain (GB)
p86
sVoffset
p87
I18
saa(lp88
(dp89
Vstart
p90
I0
sVdisambiguatedURL
p91
NsVnamedEntity
p92
VGreece (GR)
p93
sVoffset
p94
I11
saa(lp95
(dp96
Vstart
p97
I0
sVdisambiguatedURL
p98
NsVnamedEntity
p99
VHong Kong (HK)
p100
sVoffset
p101
I14
saa(lp102
(dp103
Vstart
p104
I0
sVdisambiguatedURL
p105
NsVnamedEntity
p106
VHungary (HU)
p107
sVoffset
p108
I12
saa(lp109
(dp110
Vstart
p111
I0
sVdisambiguatedURL
p112
Vhttp://dbpedia.org/resource/Iceland_(supermarket)
p113
sVnamedEntity
p114
VIceland (IS)
p115
sVoffset
p116
I12
saa(lp117
(dp118
Vstart
p119
I0
sVdisambiguatedURL
p120
NsVnamedEntity
p121
VIndia (IN)
p122
sVoffset
p123
I10
saa(lp124
(dp125
Vstart
p126
I0
sVdisambiguatedURL
p127
NsVnamedEntity
p128
VIreland (IE)
p129
sVoffset
p130
I12
saa(lp131
(dp132
Vstart
p133
I0
sVdisambiguatedURL
p134
NsVnamedEntity
p135
VItaly (IT)
p136
sVoffset
p137
I10
saa(lp138
(dp139
Vstart
p140
I0
sVdisambiguatedURL
p141
NsVnamedEntity
p142
VLuxembourg (LU)
p143
sVoffset
p144
I15
saa.