(lp1
(lp2
(lp3
a(lp4
a(lp5
((lVhttp://dbpedia.org/resource/Check
tp6
aa(lp7
((lp8
Vhttp://dbpedia.org/class/yago/Artifact100021939
p9
aVhttp://dbpedia.org/class/yago/Object100002684
p10
aVhttp://dbpedia.org/class/yago/System104377057
p11
aVhttp://dbpedia.org/class/yago/Whole100003553
p12
aVhttp://dbpedia.org/class/yago/Instrumentality103575240
p13
aVhttp://dbpedia.org/class/yago/PhysicalEntity100001930
p14
aVhttp://dbpedia.org/class/yago/PaymentSystems
p15
aVhttp://dbpedia.org/resource/Electronic_funds_transfer
tp16
aaa(lp17
(lp18
a(lp19
a(lp20
((lVhttp://dbpedia.org/resource/Check
tp21
aa(lp22
((lp23
Vhttp://dbpedia.org/class/yago/Artifact100021939
p24
aVhttp://dbpedia.org/class/yago/Object100002684
p25
aVhttp://dbpedia.org/class/yago/System104377057
p26
aVhttp://dbpedia.org/class/yago/Whole100003553
p27
aVhttp://dbpedia.org/class/yago/Instrumentality103575240
p28
aVhttp://dbpedia.org/class/yago/PhysicalEntity100001930
p29
aVhttp://dbpedia.org/class/yago/PaymentSystems
p30
aVhttp://dbpedia.org/resource/Electronic_funds_transfer
tp31
aaa(lp32
(lp33
a(lp34
a(lp35
((lVhttp://dbpedia.org/resource/Check
tp36
aa(lp37
((lp38
Vhttp://dbpedia.org/class/yago/Artifact100021939
p39
aVhttp://dbpedia.org/class/yago/Object100002684
p40
aVhttp://dbpedia.org/class/yago/System104377057
p41
aVhttp://dbpedia.org/class/yago/Whole100003553
p42
aVhttp://dbpedia.org/class/yago/Instrumentality103575240
p43
aVhttp://dbpedia.org/class/yago/PhysicalEntity100001930
p44
aVhttp://dbpedia.org/class/yago/PaymentSystems
p45
aVhttp://dbpedia.org/resource/Electronic_funds_transfer
tp46
aaa(lp47
(lp48
a(lp49
a(lp50
((lVhttp://dbpedia.org/resource/Check
tp51
aa(lp52
((lp53
Vhttp://dbpedia.org/class/yago/Artifact100021939
p54
aVhttp://dbpedia.org/class/yago/Object100002684
p55
aVhttp://dbpedia.org/class/yago/System104377057
p56
aVhttp://dbpedia.org/class/yago/Whole100003553
p57
aVhttp://dbpedia.org/class/yago/Instrumentality103575240
p58
aVhttp://dbpedia.org/class/yago/PhysicalEntity100001930
p59
aVhttp://dbpedia.org/class/yago/PaymentSystems
p60
aVhttp://dbpedia.org/resource/Electronic_funds_transfer
tp61
aaa(lp62
(lp63
a(lp64
a(lp65
((lVhttp://dbpedia.org/resource/Check
tp66
aa(lp67
((lp68
Vhttp://dbpedia.org/class/yago/Artifact100021939
p69
aVhttp://dbpedia.org/class/yago/Object100002684
p70
aVhttp://dbpedia.org/class/yago/System104377057
p71
aVhttp://dbpedia.org/class/yago/Whole100003553
p72
aVhttp://dbpedia.org/class/yago/Instrumentality103575240
p73
aVhttp://dbpedia.org/class/yago/PhysicalEntity100001930
p74
aVhttp://dbpedia.org/class/yago/PaymentSystems
p75
aVhttp://dbpedia.org/resource/Electronic_funds_transfer
tp76
aaa(lp77
(lp78
((lp79
Vhttp://dbpedia.org/class/yago/Abstraction100002137
p80
aVhttp://dbpedia.org/class/yago/Artifact100021939
p81
aVhttp://dbpedia.org/class/yago/BasicCognitiveProcess105701944
p82
aVhttp://dbpedia.org/class/yago/Cognition100023271
p83
aVhttp://dbpedia.org/class/yago/Decoration103169390
p84
aVhttp://dbpedia.org/class/yago/Design103178782
p85
aVhttp://dbpedia.org/class/yago/Emblem106880664
p86
aVhttp://dbpedia.org/class/yago/Flag103354903
p87
aVhttp://dbpedia.org/class/yago/Object100002684
p88
aVhttp://dbpedia.org/class/yago/Process105701363
p89
aVhttp://dbpedia.org/class/yago/RepresentationalProcess105765159
p90
aVhttp://dbpedia.org/class/yago/Whole100003553
p91
aVhttp://dbpedia.org/class/yago/Emblem103282591
p92
aVhttp://dbpedia.org/class/yago/FlagsOfTheCzechRepublic
p93
aVhttp://dbpedia.org/class/yago/PhysicalEntity100001930
p94
aVhttp://dbpedia.org/class/yago/PsychologicalFeature100023100
p95
aVhttp://dbpedia.org/class/yago/Symbol105765415
p96
aVhttp://dbpedia.org/class/yago/NationalFlag106882009
p97
aVhttp://dbpedia.org/class/yago/NationalFlags
p98
aVhttp://dbpedia.org/resource/Flag_of_the_Czech_Republic
tp99
aa(lp100
a(lp101
((lVhttp://dbpedia.org/resource/Check
tp102
aa(lp103
aa(lp104
(lp105
a(lp106
a(lp107
((lVhttp://dbpedia.org/resource/Check
tp108
aa(lp109
aa(lp110
(lp111
a(lp112
a(lp113
((lVhttp://dbpedia.org/resource/Check
tp114
aa(lp115
aa(lp116
(lp117
a(lp118
a(lp119
((lVhttp://dbpedia.org/resource/Check
tp120
aa(lp121
((lp122
Vhttp://dbpedia.org/class/yago/Artifact100021939
p123
aVhttp://dbpedia.org/class/yago/Object100002684
p124
aVhttp://dbpedia.org/class/yago/System104377057
p125
aVhttp://dbpedia.org/class/yago/Whole100003553
p126
aVhttp://dbpedia.org/class/yago/Instrumentality103575240
p127
aVhttp://dbpedia.org/class/yago/PhysicalEntity100001930
p128
aVhttp://dbpedia.org/class/yago/PaymentSystems
p129
aVhttp://dbpedia.org/resource/Electronic_funds_transfer
tp130
aaa(lp131
(lp132
a(lp133
a(lp134
((lVhttp://dbpedia.org/resource/Check
tp135
aa(lp136
((lp137
Vhttp://dbpedia.org/class/yago/Artifact100021939
p138
aVhttp://dbpedia.org/class/yago/Object100002684
p139
aVhttp://dbpedia.org/class/yago/System104377057
p140
aVhttp://dbpedia.org/class/yago/Whole100003553
p141
aVhttp://dbpedia.org/class/yago/Instrumentality103575240
p142
aVhttp://dbpedia.org/class/yago/PhysicalEntity100001930
p143
aVhttp://dbpedia.org/class/yago/PaymentSystems
p144
aVhttp://dbpedia.org/resource/Electronic_funds_transfer
tp145
aaa(lp146
(lp147
a(lp148
a(lp149
((lVhttp://dbpedia.org/resource/Check
tp150
aa(lp151
((lp152
Vhttp://dbpedia.org/class/yago/Artifact100021939
p153
aVhttp://dbpedia.org/class/yago/Object100002684
p154
aVhttp://dbpedia.org/class/yago/System104377057
p155
aVhttp://dbpedia.org/class/yago/Whole100003553
p156
aVhttp://dbpedia.org/class/yago/Instrumentality103575240
p157
aVhttp://dbpedia.org/class/yago/PhysicalEntity100001930
p158
aVhttp://dbpedia.org/class/yago/PaymentSystems
p159
aVhttp://dbpedia.org/resource/Electronic_funds_transfer
tp160
aaa(lp161
(lp162
((lp163
Vhttp://www.w3.org/2002/07/owl#Thing
p164
aVhttp://dbpedia.org/ontology/Place
p165
aVhttp://dbpedia.org/ontology/Location
p166
aVhttp://www.wikidata.org/entity/Q23442
p167
aVhttp://www.wikidata.org/entity/Q486972
p168
aVhttp://dbpedia.org/ontology/Island
p169
aVhttp://dbpedia.org/ontology/PopulatedPlace
p170
aVhttp://schema.org/Place
p171
aVhttp://umbel.org/umbel/rc/Island
p172
aVhttp://umbel.org/umbel/rc/Location_Underspecified
p173
aVhttp://umbel.org/umbel/rc/PopulatedPlace
p174
aVhttp://dbpedia.org/class/yago/Island109316454
p175
aVhttp://dbpedia.org/class/yago/Land109334396
p176
aVhttp://dbpedia.org/class/yago/Object100002684
p177
aVhttp://dbpedia.org/class/yago/YagoGeoEntity
p178
aVhttp://dbpedia.org/class/yago/PhysicalEntity100001930
p179
aVhttp://dbpedia.org/class/yago/YagoPermanentlyLocatedEntity
p180
aVhttp://dbpedia.org/class/yago/IslandsOfTheBritishIsles
p181
aVhttp://dbpedia.org/resource/Great_Britain
tp182
aa(lp183
a(lp184
((lVhttp://dbpedia.org/resource/Check
tp185
aa(lp186
((lp187
Vhttp://dbpedia.org/class/yago/Artifact100021939
p188
aVhttp://dbpedia.org/class/yago/Object100002684
p189
aVhttp://dbpedia.org/class/yago/System104377057
p190
aVhttp://dbpedia.org/class/yago/Whole100003553
p191
aVhttp://dbpedia.org/class/yago/Instrumentality103575240
p192
aVhttp://dbpedia.org/class/yago/PhysicalEntity100001930
p193
aVhttp://dbpedia.org/class/yago/PaymentSystems
p194
aVhttp://dbpedia.org/resource/Electronic_funds_transfer
tp195
aaa(lp196
(lp197
a(lp198
a(lp199
((lVhttp://dbpedia.org/resource/Check
tp200
aa(lp201
((lp202
Vhttp://dbpedia.org/class/yago/Artifact100021939
p203
aVhttp://dbpedia.org/class/yago/Object100002684
p204
aVhttp://dbpedia.org/class/yago/System104377057
p205
aVhttp://dbpedia.org/class/yago/Whole100003553
p206
aVhttp://dbpedia.org/class/yago/Instrumentality103575240
p207
aVhttp://dbpedia.org/class/yago/PhysicalEntity100001930
p208
aVhttp://dbpedia.org/class/yago/PaymentSystems
p209
aVhttp://dbpedia.org/resource/Electronic_funds_transfer
tp210
aaa(lp211
(lp212
a(lp213
a(lp214
((lVhttp://dbpedia.org/resource/Check
tp215
aa(lp216
((lp217
Vhttp://dbpedia.org/class/yago/Artifact100021939
p218
aVhttp://dbpedia.org/class/yago/Object100002684
p219
aVhttp://dbpedia.org/class/yago/System104377057
p220
aVhttp://dbpedia.org/class/yago/Whole100003553
p221
aVhttp://dbpedia.org/class/yago/Instrumentality103575240
p222
aVhttp://dbpedia.org/class/yago/PhysicalEntity100001930
p223
aVhttp://dbpedia.org/class/yago/PaymentSystems
p224
aVhttp://dbpedia.org/resource/Electronic_funds_transfer
tp225
aaa(lp226
(lp227
a(lp228
a(lp229
((lVhttp://dbpedia.org/resource/Check
tp230
aa(lp231
aa(lp232
(lp233
((lp234
Vhttp://www.w3.org/2002/07/owl#Thing
p235
aVhttp://dbpedia.org/ontology/Company
p236
aVhttp://www.ontologydesignpatterns.org/ont/dul/DUL.owl#Agent
p237
aVhttp://www.ontologydesignpatterns.org/ont/dul/DUL.owl#SocialPerson
p238
aVhttp://www.wikidata.org/entity/Q43229
p239
aVhttp://dbpedia.org/ontology/Agent
p240
aVhttp://dbpedia.org/ontology/Organisation
p241
aVhttp://schema.org/Organization
p242
aVhttp://dbpedia.org/class/yago/Abstraction100002137
p243
aVhttp://dbpedia.org/class/yago/Company108058098
p244
aVhttp://dbpedia.org/class/yago/Group100031264
p245
aVhttp://dbpedia.org/class/yago/Institution108053576
p246
aVhttp://dbpedia.org/class/yago/Organization108008335
p247
aVhttp://dbpedia.org/class/yago/SocialGroup107950920
p248
aVhttp://dbpedia.org/class/yago/YagoLegalActorGeo
p249
aVhttp://dbpedia.org/class/yago/CompaniesEstablishedIn1970
p250
aVhttp://dbpedia.org/class/yago/CompaniesOfWales
p251
aVhttp://dbpedia.org/class/yago/YagoPermanentlyLocatedEntity
p252
aVhttp://dbpedia.org/class/yago/YagoLegalActor
p253
aVhttp://dbpedia.org/class/yago/PrivatelyHeldCompaniesOfTheUnitedKingdom
p254
aVhttp://dbpedia.org/resource/Iceland_(supermarket)
tp255
aa(lp256
a(lp257
((lVhttp://dbpedia.org/resource/Check
tp258
aa(lp259
aa(lp260
(lp261
a(lp262
a(lp263
((lVhttp://dbpedia.org/resource/Check
tp264
aa(lp265
((lp266
Vhttp://dbpedia.org/class/yago/Artifact100021939
p267
aVhttp://dbpedia.org/class/yago/Object100002684
p268
aVhttp://dbpedia.org/class/yago/System104377057
p269
aVhttp://dbpedia.org/class/yago/Whole100003553
p270
aVhttp://dbpedia.org/class/yago/Instrumentality103575240
p271
aVhttp://dbpedia.org/class/yago/PhysicalEntity100001930
p272
aVhttp://dbpedia.org/class/yago/PaymentSystems
p273
aVhttp://dbpedia.org/resource/Electronic_funds_transfer
tp274
aaa(lp275
(lp276
a(lp277
a(lp278
((lVhttp://dbpedia.org/resource/Check
tp279
aa(lp280
((lp281
Vhttp://dbpedia.org/class/yago/Artifact100021939
p282
aVhttp://dbpedia.org/class/yago/Object100002684
p283
aVhttp://dbpedia.org/class/yago/System104377057
p284
aVhttp://dbpedia.org/class/yago/Whole100003553
p285
aVhttp://dbpedia.org/class/yago/Instrumentality103575240
p286
aVhttp://dbpedia.org/class/yago/PhysicalEntity100001930
p287
aVhttp://dbpedia.org/class/yago/PaymentSystems
p288
aVhttp://dbpedia.org/resource/Electronic_funds_transfer
tp289
aaa(lp290
(lp291
a(lp292
a(lp293
((lVhttp://dbpedia.org/resource/Check
tp294
aa(lp295
((lp296
Vhttp://dbpedia.org/class/yago/Artifact100021939
p297
aVhttp://dbpedia.org/class/yago/Object100002684
p298
aVhttp://dbpedia.org/class/yago/System104377057
p299
aVhttp://dbpedia.org/class/yago/Whole100003553
p300
aVhttp://dbpedia.org/class/yago/Instrumentality103575240
p301
aVhttp://dbpedia.org/class/yago/PhysicalEntity100001930
p302
aVhttp://dbpedia.org/class/yago/PaymentSystems
p303
aVhttp://dbpedia.org/resource/Electronic_funds_transfer
tp304
aaa(lp305
(lp306
a(lp307
a(lp308
((lVhttp://dbpedia.org/resource/Check
tp309
aa(lp310
((lp311
Vhttp://dbpedia.org/class/yago/Artifact100021939
p312
aVhttp://dbpedia.org/class/yago/Object100002684
p313
aVhttp://dbpedia.org/class/yago/System104377057
p314
aVhttp://dbpedia.org/class/yago/Whole100003553
p315
aVhttp://dbpedia.org/class/yago/Instrumentality103575240
p316
aVhttp://dbpedia.org/class/yago/PhysicalEntity100001930
p317
aVhttp://dbpedia.org/class/yago/PaymentSystems
p318
aVhttp://dbpedia.org/resource/Electronic_funds_transfer
p319
tp320
aaa.