(lp1
(lp2
(lp3
a(lp4
a(lp5
a(lp6
a(lp7
a(lp8
aa(lp9
(lp10
a(lp11
a(lp12
a(lp13
a(lp14
Vhttp://dbpedia.org/resource/PlayStation_Network
p15
aa(lp16
aa(lp17
(lp18
a(lp19
a(lp20
a(lp21
a(lp22
a(lp23
aa(lp24
(lp25
a(lp26
a(lp27
a(lp28
a(lp29
Vhttp://dbpedia.org/resource/PlayStation_Network
p30
aa(lp31
aa(lp32
(lp33
a(lp34
a(lp35
a(lp36
a(lp37
Vhttp://dbpedia.org/resource/PlayStation_Network
p38
aa(lp39
aa(lp40
(lp41
a(lp42
a(lp43
a(lp44
a(lp45
a(lp46
aa(lp47
(lp48
a(lp49
a(lp50
a(lp51
a(lp52
Vhttp://dbpedia.org/resource/PlayStation_Network
p53
aa(lp54
aa(lp55
(lp56
a(lp57
a(lp58
a(lp59
a(lp60
Vhttp://dbpedia.org/resource/PlayStation_Network
p61
aa(lp62
aa(lp63
(lp64
a(lp65
a(lp66
a(lp67
a(lp68
a(lp69
aa(lp70
(lp71
a(lp72
a(lp73
a(lp74
a(lp75
a(lp76
aa(lp77
(lp78
a(lp79
a(lp80
a(lp81
a(lp82
a(lp83
aa(lp84
(lp85
a(lp86
a(lp87
a(lp88
a(lp89
Vhttp://dbpedia.org/resource/Action_Replay
p90
aa(lp91
aa(lp92
(lp93
a(lp94
a(lp95
a(lp96
a(lp97
a(lp98
aa(lp99
(lp100
a(lp101
a(lp102
a(lp103
a(lp104
a(lp105
Vhttp://dbpedia.org/resource/World_of_Warcraft_(comics)
p106
aaa(lp107
(lp108
a(lp109
a(lp110
a(lp111
a(lp112
a(lp113
aa(lp114
(lp115
a(lp116
a(lp117
a(lp118
a(lp119
a(lp120
aa(lp121
(lp122
a(lp123
a(lp124
a(lp125
a(lp126
a(lp127
aa(lp128
(lp129
a(lp130
a(lp131
a(lp132
a(lp133
Vhttp://dbpedia.org/resource/PlayStation_Network
p134
aa(lp135
aa(lp136
(lp137
a(lp138
a(lp139
a(lp140
a(lp141
a(lp142
aa(lp143
(lp144
a(lp145
a(lp146
a(lp147
a(lp148
a(lp149
aa.