(lp1
(lp2
(dp3
Vstart
p4
I0
sVdisambiguatedURL
p5
Vhttp://dbpedia.org/resource/Argentina
p6
sVnamedEntity
p7
VArgentina
p8
sVoffset
p9
I9
saa(lp10
(dp11
Vstart
p12
I0
sVdisambiguatedURL
p13
Vhttp://dbpedia.org/resource/Austria
p14
sVnamedEntity
p15
VAustria
p16
sVoffset
p17
I7
saa(lp18
(dp19
Vstart
p20
I0
sVdisambiguatedURL
p21
Vhttp://dbpedia.org/resource/Australia
p22
sVnamedEntity
p23
VAustralia
p24
sVoffset
p25
I9
saa(lp26
(dp27
Vstart
p28
I0
sVdisambiguatedURL
p29
Vhttp://dbpedia.org/resource/Brazil
p30
sVnamedEntity
p31
VBrazil
p32
sVoffset
p33
I6
saa(lp34
(dp35
Vstart
p36
I0
sVdisambiguatedURL
p37
Vhttp://dbpedia.org/resource/Canada
p38
sVnamedEntity
p39
VCanada
p40
sVoffset
p41
I6
saa(lp42
(dp43
Vstart
p44
I0
sVdisambiguatedURL
p45
Vhttp://dbpedia.org/resource/Chile
p46
sVnamedEntity
p47
VChile
p48
sVoffset
p49
I5
saa(lp50
(dp51
Vstart
p52
I0
sVdisambiguatedURL
p53
Vhttp://dbpedia.org/resource/Denmark
p54
sVnamedEntity
p55
VDenmark
p56
sVoffset
p57
I7
saa(lp58
(dp59
Vstart
p60
I0
sVdisambiguatedURL
p61
Vhttp://dbpedia.org/resource/Finland
p62
sVnamedEntity
p63
VFinland
p64
sVoffset
p65
I7
saa(lp66
(dp67
Vstart
p68
I0
sVdisambiguatedURL
p69
Vhttp://dbpedia.org/resource/Germany
p70
sVnamedEntity
p71
VGermany
p72
sVoffset
p73
I7
saa(lp74
(dp75
Vstart
p76
I0
sVdisambiguatedURL
p77
Vhttp://dbpedia.org/resource/Holland
p78
sVnamedEntity
p79
VHolland
p80
sVoffset
p81
I7
saa(lp82
(dp83
Vstart
p84
I0
sVdisambiguatedURL
p85
Vhttp://dbpedia.org/resource/Italy
p86
sVnamedEntity
p87
VItaly
p88
sVoffset
p89
I5
saa(lp90
(dp91
Vstart
p92
I0
sVdisambiguatedURL
p93
NsVnamedEntity
p94
VMexico
p95
sVoffset
p96
I6
saa(lp97
(dp98
Vstart
p99
I0
sVdisambiguatedURL
p100
Vhttp://dbpedia.org/resource/Norway
p101
sVnamedEntity
p102
VNorway
p103
sVoffset
p104
I6
saa(lp105
(dp106
Vstart
p107
I0
sVdisambiguatedURL
p108
Vhttp://dbpedia.org/resource/Portugal
p109
sVnamedEntity
p110
VPortugal
p111
sVoffset
p112
I8
saa(lp113
(dp114
Vstart
p115
I0
sVdisambiguatedURL
p116
NsVnamedEntity
p117
VSouth Afrika
p118
sVoffset
p119
I12
saa(lp120
(dp121
Vstart
p122
I0
sVdisambiguatedURL
p123
Vhttp://dbpedia.org/resource/Spain
p124
sVnamedEntity
p125
VSpain
p126
sVoffset
p127
I5
saa(lp128
(dp129
Vstart
p130
I0
sVdisambiguatedURL
p131
Vhttp://dbpedia.org/resource/Sweden
p132
sVnamedEntity
p133
VSweden
p134
sVoffset
p135
I6
saa(lp136
(dp137
Vstart
p138
I0
sVdisambiguatedURL
p139
Vhttp://dbpedia.org/resource/Switzerland
p140
sVnamedEntity
p141
VSwitzerland
p142
sVoffset
p143
I11
saa(lp144
(dp145
Vstart
p146
I0
sVdisambiguatedURL
p147
Vhttp://dbpedia.org/resource/United_States
p148
sVnamedEntity
p149
VUSA
p150
sVoffset
p151
I3
saa.