(lp1
(lp2
(dp3
Vstart
p4
I0
sVdisambiguatedURL
p5
NsVnamedEntity
p6
VQuintanilla Gill & Co Gilberto Quintanilla0 miles
p7
sVoffset
p8
I49
saa(lp9
(dp10
Vstart
p11
I0
sVdisambiguatedURL
p12
Vhttp://dbpedia.org/resource/Null
p13
sVnamedEntity
p14
VNULL
p15
sVoffset
p16
I4
saa(lp17
(dp18
Vstart
p19
I0
sVdisambiguatedURL
p20
NsVnamedEntity
p21
VLoni Offermann Bookkeeping Loni Offermann0 miles
p22
sVoffset
p23
I48
saa(lp24
(dp25
Vstart
p26
I0
sVdisambiguatedURL
p27
Vhttp://dbpedia.org/resource/Null
p28
sVnamedEntity
p29
VNULL
p30
sVoffset
p31
I4
saa(lp32
(dp33
Vstart
p34
I0
sVdisambiguatedURL
p35
NsVnamedEntity
p36
VAdvanced Payroll Svc Inc Linda Yelland9.45 miles
p37
sVoffset
p38
I48
saa(lp39
(dp40
Vstart
p41
I0
sVdisambiguatedURL
p42
Vhttp://dbpedia.org/resource/Null
p43
sVnamedEntity
p44
VNULL
p45
sVoffset
p46
I4
saa(lp47
(dp48
Vstart
p49
I0
sVdisambiguatedURL
p50
NsVnamedEntity
p51
VBMC Medical Billing Svc Josefina Mireles9.45 miles
p52
sVoffset
p53
I50
saa(lp54
(dp55
Vstart
p56
I0
sVdisambiguatedURL
p57
Vhttp://dbpedia.org/resource/Null
p58
sVnamedEntity
p59
VNULL
p60
sVoffset
p61
I4
saa(lp62
(dp63
Vstart
p64
I0
sVdisambiguatedURL
p65
NsVnamedEntity
p66
VBurton Mc Cumber & Cortez Richard Cortez9.45 miles
p67
sVoffset
p68
I50
saa(lp69
(dp70
Vstart
p71
I0
sVdisambiguatedURL
p72
Vhttp://dbpedia.org/resource/Null
p73
sVnamedEntity
p74
VNULL
p75
sVoffset
p76
I4
saa(lp77
(dp78
Vstart
p79
I0
sVdisambiguatedURL
p80
NsVnamedEntity
p81
VCorporate Solutions Patricia Johnsen9.45 miles
p82
sVoffset
p83
I46
saa(lp84
(dp85
Vstart
p86
I0
sVdisambiguatedURL
p87
Vhttp://dbpedia.org/resource/Null
p88
sVnamedEntity
p89
VNULL
p90
sVoffset
p91
I4
saa(lp92
(dp93
Vstart
p94
I0
sVdisambiguatedURL
p95
NsVnamedEntity
p96
VDial A Check Gracie Silva9.45 miles
p97
sVoffset
p98
I35
saa(lp99
(dp100
Vstart
p101
I0
sVdisambiguatedURL
p102
Vhttp://dbpedia.org/resource/Null
p103
sVnamedEntity
p104
VNULL
p105
sVoffset
p106
I4
saa(lp107
(dp108
Vstart
p109
I0
sVdisambiguatedURL
p110
NsVnamedEntity
p111
VEnrique Munoz CPA Enrique Munoz9.45 miles
p112
sVoffset
p113
I41
saa(lp114
(dp115
Vstart
p116
I0
sVdisambiguatedURL
p117
Vhttp://dbpedia.org/resource/Null
p118
sVnamedEntity
p119
VNULL
p120
sVoffset
p121
I4
saa(lp122
(dp123
Vstart
p124
I0
sVdisambiguatedURL
p125
NsVnamedEntity
p126
VNexpay Loel Garza9.45 miles
p127
sVoffset
p128
I27
saa(lp129
(dp130
Vstart
p131
I0
sVdisambiguatedURL
p132
Vhttp://dbpedia.org/resource/Null
p133
sVnamedEntity
p134
VNULL
p135
sVoffset
p136
I4
saa(lp137
(dp138
Vstart
p139
I0
sVdisambiguatedURL
p140
NsVnamedEntity
p141
VOzenbaugh & Crews D David Ozenbaugh9.45 miles
p142
sVoffset
p143
I45
saa(lp144
(dp145
Vstart
p146
I0
sVdisambiguatedURL
p147
Vhttp://dbpedia.org/resource/Null
p148
sVnamedEntity
p149
VNULL
p150
sVoffset
p151
I4
saa.