(lp1
(lp2
(lp3
a(lp4
a(lp5
aa(lp6
(lp7
a(lp8
Vhttp://dbpedia.org/resource/Living_Space
p9
aa(lp10
aa(lp11
(lp12
a(lp13
a(lp14
aa(lp15
(lp16
a(lp17
Vhttp://dbpedia.org/resource/List_of_countries_by_number_of_military_and_paramilitary_personnel
p18
aa(lp19
aa(lp20
(lp21
a(lp22
Vhttp://dbpedia.org/resource/Estate_(land)
p23
aa(lp24
aa(lp25
(lp26
a(lp27
a(lp28
Vhttp://dbpedia.org/resource/Yes_(band)
p29
aaa(lp30
(lp31
a(lp32
a(lp33
Vhttp://dbpedia.org/resource/Yes_(band)
p34
aaa(lp35
(lp36
Vhttp://dbpedia.org/resource/Room
p37
aa(lp38
Vhttp://dbpedia.org/resource/Room
p39
aa(lp40
Vhttp://dbpedia.org/resource/Room
p41
aaa(lp42
(lp43
a(lp44
Vhttp://dbpedia.org/resource/Kitchen
p45
aa(lp46
aa(lp47
(lp48
a(lp49
Vhttp://dbpedia.org/resource/Bedroom
p50
aa(lp51
aa(lp52
(lp53
a(lp54
Vhttp://dbpedia.org/resource/Bathroom
p55
aa(lp56
aa(lp57
(lp58
a(lp59
a(lp60
aa(lp61
(lp62
a(lp63
a(lp64
aa(lp65
(lp66
a(lp67
a(lp68
aa(lp69
(lp70
a(lp71
a(lp72
aa(lp73
(lp74
a(lp75
Vhttp://dbpedia.org/resource/Suite_(music)
p76
aa(lp77
aa(lp78
(lp79
Vhttp://dbpedia.org/resource/Financial_innovation
p80
aa(lp81
Vhttp://dbpedia.org/resource/Financial_innovation
p82
aa(lp83
Vhttp://dbpedia.org/resource/Financial_innovation
p84
aaa(lp85
(lp86
a(lp87
a(lp88
Vhttp://dbpedia.org/resource/EUR-Lex
p89
aaa(lp90
(lp91
a(lp92
a(lp93
Vhttp://dbpedia.org/resource/Yes_(band)
p94
aaa(lp95
(lp96
a(lp97
a(lp98
Vhttp://dbpedia.org/resource/Occupancy
p99
aaa.