(lp1
(lp2
(lp3
a(lp4
a(lp5
aa(lp6
(lp7
a(lp8
((lp9
Vhttp://www.w3.org/2002/07/owl#Thing
p10
aVhttp://www.wikidata.org/entity/Q386724
p11
aVhttp://dbpedia.org/ontology/Work
p12
aVhttp://dbpedia.org/ontology/WrittenWork
p13
aVhttp://schema.org/CreativeWork
p14
aVhttp://dbpedia.org/resource/Living_Space
tp15
aa(lp16
aa(lp17
(lp18
a(lp19
a(lp20
aa(lp21
(lp22
a(lp23
((lVhttp://dbpedia.org/resource/List_of_countries_by_number_of_military_and_paramilitary_personnel
tp24
aa(lp25
aa(lp26
(lp27
a(lp28
((lp29
Vhttp://www.w3.org/2002/07/owl#Thing
p30
aVhttp://dbpedia.org/class/yago/Environment108567235
p31
aVhttp://dbpedia.org/class/yago/Location100027167
p32
aVhttp://dbpedia.org/class/yago/Object100002684
p33
aVhttp://dbpedia.org/class/yago/Region108630985
p34
aVhttp://dbpedia.org/class/yago/YagoGeoEntity
p35
aVhttp://dbpedia.org/class/yago/YagoLegalActorGeo
p36
aVhttp://dbpedia.org/class/yago/GeographicalArea108574314
p37
aVhttp://dbpedia.org/class/yago/PhysicalEntity100001930
p38
aVhttp://dbpedia.org/class/yago/YagoPermanentlyLocatedEntity
p39
aVhttp://dbpedia.org/class/yago/Habitat108580583
p40
aVhttp://dbpedia.org/class/yago/HumanHabitats
p41
aVhttp://dbpedia.org/resource/Estate_(land)
tp42
aa(lp43
aa(lp44
(lp45
a(lp46
a(lp47
((lp48
Vhttp://www.w3.org/2002/07/owl#Thing
p49
aVhttp://www.ontologydesignpatterns.org/ont/dul/DUL.owl#Agent
p50
aVhttp://www.ontologydesignpatterns.org/ont/dul/DUL.owl#SocialPerson
p51
aVhttp://www.wikidata.org/entity/Q215380
p52
aVhttp://www.wikidata.org/entity/Q43229
p53
aVhttp://dbpedia.org/ontology/Agent
p54
aVhttp://dbpedia.org/ontology/Band
p55
aVhttp://dbpedia.org/ontology/Group
p56
aVhttp://dbpedia.org/ontology/Organisation
p57
aVhttp://schema.org/MusicGroup
p58
aVhttp://schema.org/Organization
p59
aVhttp://umbel.org/umbel/rc/Band_MusicGroup
p60
aVhttp://dbpedia.org/class/yago/Abstraction100002137
p61
aVhttp://dbpedia.org/class/yago/DanceBand108249960
p62
aVhttp://dbpedia.org/class/yago/Group100031264
p63
aVhttp://dbpedia.org/class/yago/MusicalOrganization108246613
p64
aVhttp://dbpedia.org/class/yago/Organization108008335
p65
aVhttp://dbpedia.org/class/yago/RockGroup108250501
p66
aVhttp://dbpedia.org/class/yago/SocialGroup107950920
p67
aVhttp://dbpedia.org/class/yago/YagoLegalActorGeo
p68
aVhttp://dbpedia.org/class/yago/EnglishProgressiveRockGroups
p69
aVhttp://dbpedia.org/class/yago/YagoPermanentlyLocatedEntity
p70
aVhttp://dbpedia.org/class/yago/MusicalGroupsEstablishedIn1968
p71
aVhttp://dbpedia.org/class/yago/MusicalGroupsFromLondon
p72
aVhttp://dbpedia.org/class/yago/YagoLegalActor
p73
aVhttp://dbpedia.org/resource/Yes_(band)
tp74
aaa(lp75
(lp76
a(lp77
a(lp78
((lp79
Vhttp://www.w3.org/2002/07/owl#Thing
p80
aVhttp://www.ontologydesignpatterns.org/ont/dul/DUL.owl#Agent
p81
aVhttp://www.ontologydesignpatterns.org/ont/dul/DUL.owl#SocialPerson
p82
aVhttp://www.wikidata.org/entity/Q215380
p83
aVhttp://www.wikidata.org/entity/Q43229
p84
aVhttp://dbpedia.org/ontology/Agent
p85
aVhttp://dbpedia.org/ontology/Band
p86
aVhttp://dbpedia.org/ontology/Group
p87
aVhttp://dbpedia.org/ontology/Organisation
p88
aVhttp://schema.org/MusicGroup
p89
aVhttp://schema.org/Organization
p90
aVhttp://umbel.org/umbel/rc/Band_MusicGroup
p91
aVhttp://dbpedia.org/class/yago/Abstraction100002137
p92
aVhttp://dbpedia.org/class/yago/DanceBand108249960
p93
aVhttp://dbpedia.org/class/yago/Group100031264
p94
aVhttp://dbpedia.org/class/yago/MusicalOrganization108246613
p95
aVhttp://dbpedia.org/class/yago/Organization108008335
p96
aVhttp://dbpedia.org/class/yago/RockGroup108250501
p97
aVhttp://dbpedia.org/class/yago/SocialGroup107950920
p98
aVhttp://dbpedia.org/class/yago/YagoLegalActorGeo
p99
aVhttp://dbpedia.org/class/yago/EnglishProgressiveRockGroups
p100
aVhttp://dbpedia.org/class/yago/YagoPermanentlyLocatedEntity
p101
aVhttp://dbpedia.org/class/yago/MusicalGroupsEstablishedIn1968
p102
aVhttp://dbpedia.org/class/yago/MusicalGroupsFromLondon
p103
aVhttp://dbpedia.org/class/yago/YagoLegalActor
p104
aVhttp://dbpedia.org/resource/Yes_(band)
tp105
aaa(lp106
(lp107
((lVhttp://dbpedia.org/resource/Room
tp108
aa(lp109
((lVhttp://dbpedia.org/resource/Room
tp110
aa(lp111
((lVhttp://dbpedia.org/resource/Room
tp112
aaa(lp113
(lp114
a(lp115
((lVhttp://dbpedia.org/resource/Kitchen
tp116
aa(lp117
aa(lp118
(lp119
a(lp120
((lVhttp://dbpedia.org/resource/Bedroom
tp121
aa(lp122
aa(lp123
(lp124
a(lp125
((lVhttp://dbpedia.org/resource/Bathroom
tp126
aa(lp127
aa(lp128
(lp129
a(lp130
a(lp131
aa(lp132
(lp133
a(lp134
a(lp135
aa(lp136
(lp137
a(lp138
a(lp139
aa(lp140
(lp141
a(lp142
a(lp143
aa(lp144
(lp145
a(lp146
((lp147
Vhttp://www.w3.org/2002/07/owl#Thing
p148
aVhttp://dbpedia.org/class/yago/Abstraction100002137
p149
aVhttp://dbpedia.org/class/yago/AuditoryCommunication107109019
p150
aVhttp://dbpedia.org/class/yago/Communication100033020
p151
aVhttp://dbpedia.org/class/yago/Music107020895
p152
aVhttp://dbpedia.org/class/yago/MusicalComposition107037465
p153
aVhttp://dbpedia.org/class/yago/Suite107047011
p154
aVhttp://dbpedia.org/class/yago/Suites
p155
aVhttp://dbpedia.org/resource/Suite_(music)
tp156
aa(lp157
aa(lp158
(lp159
((lp160
Vhttp://dbpedia.org/class/yago/Abstraction100002137
p161
aVhttp://dbpedia.org/class/yago/Attribute100024264
p162
aVhttp://dbpedia.org/class/yago/Condition113920835
p163
aVhttp://dbpedia.org/class/yago/Safety114538472
p164
aVhttp://dbpedia.org/class/yago/State100024720
p165
aVhttp://dbpedia.org/class/yago/Security114539268
p166
aVhttp://dbpedia.org/class/yago/Securities
p167
aVhttp://dbpedia.org/resource/Financial_innovation
tp168
aa(lp169
((lp170
Vhttp://dbpedia.org/class/yago/Abstraction100002137
p171
aVhttp://dbpedia.org/class/yago/Attribute100024264
p172
aVhttp://dbpedia.org/class/yago/Condition113920835
p173
aVhttp://dbpedia.org/class/yago/Safety114538472
p174
aVhttp://dbpedia.org/class/yago/State100024720
p175
aVhttp://dbpedia.org/class/yago/Security114539268
p176
aVhttp://dbpedia.org/class/yago/Securities
p177
aVhttp://dbpedia.org/resource/Financial_innovation
tp178
aa(lp179
((lp180
Vhttp://dbpedia.org/class/yago/Abstraction100002137
p181
aVhttp://dbpedia.org/class/yago/Attribute100024264
p182
aVhttp://dbpedia.org/class/yago/Condition113920835
p183
aVhttp://dbpedia.org/class/yago/Safety114538472
p184
aVhttp://dbpedia.org/class/yago/State100024720
p185
aVhttp://dbpedia.org/class/yago/Security114539268
p186
aVhttp://dbpedia.org/class/yago/Securities
p187
aVhttp://dbpedia.org/resource/Financial_innovation
tp188
aaa(lp189
(lp190
a(lp191
a(lp192
((lVhttp://dbpedia.org/resource/EUR-Lex
tp193
aaa(lp194
(lp195
a(lp196
a(lp197
((lp198
Vhttp://www.w3.org/2002/07/owl#Thing
p199
aVhttp://www.ontologydesignpatterns.org/ont/dul/DUL.owl#Agent
p200
aVhttp://www.ontologydesignpatterns.org/ont/dul/DUL.owl#SocialPerson
p201
aVhttp://www.wikidata.org/entity/Q215380
p202
aVhttp://www.wikidata.org/entity/Q43229
p203
aVhttp://dbpedia.org/ontology/Agent
p204
aVhttp://dbpedia.org/ontology/Band
p205
aVhttp://dbpedia.org/ontology/Group
p206
aVhttp://dbpedia.org/ontology/Organisation
p207
aVhttp://schema.org/MusicGroup
p208
aVhttp://schema.org/Organization
p209
aVhttp://umbel.org/umbel/rc/Band_MusicGroup
p210
aVhttp://dbpedia.org/class/yago/Abstraction100002137
p211
aVhttp://dbpedia.org/class/yago/DanceBand108249960
p212
aVhttp://dbpedia.org/class/yago/Group100031264
p213
aVhttp://dbpedia.org/class/yago/MusicalOrganization108246613
p214
aVhttp://dbpedia.org/class/yago/Organization108008335
p215
aVhttp://dbpedia.org/class/yago/RockGroup108250501
p216
aVhttp://dbpedia.org/class/yago/SocialGroup107950920
p217
aVhttp://dbpedia.org/class/yago/YagoLegalActorGeo
p218
aVhttp://dbpedia.org/class/yago/EnglishProgressiveRockGroups
p219
aVhttp://dbpedia.org/class/yago/YagoPermanentlyLocatedEntity
p220
aVhttp://dbpedia.org/class/yago/MusicalGroupsEstablishedIn1968
p221
aVhttp://dbpedia.org/class/yago/MusicalGroupsFromLondon
p222
aVhttp://dbpedia.org/class/yago/YagoLegalActor
p223
aVhttp://dbpedia.org/resource/Yes_(band)
tp224
aaa(lp225
(lp226
a(lp227
a(lp228
((lVhttp://dbpedia.org/resource/Occupancy
p229
tp230
aaa.