(lp1
(lp2
(lp3
a(lp4
aa(lp5
(lp6
a(lp7
aa(lp8
(lp9
a(lp10
aa(lp11
(lp12
a(lp13
aa(lp14
(lp15
a(lp16
aa(lp17
(lp18
a(lp19
aa(lp20
(lp21
((lp22
Vhttp://www.w3.org/2002/07/owl#Thing
p23
aVhttp://dbpedia.org/resource/Credential
tp24
aa(lp25
aa(lp26
(lp27
((lVhttp://dbpedia.org/resource/Member
p28
tp29
aa(lp30
aa(lp31
(lp32
a(lp33
aa.