(lp1
(lp2
(dp3
Vstart
p4
I0
sVdisambiguatedURL
p5
NsVnamedEntity
p6
VPARENTAGE:
p7
sVoffset
p8
I10
saa(lp9
(dp10
Vstart
p11
I0
sVdisambiguatedURL
p12
NsVnamedEntity
p13
VGROUP OF COLOR:
p14
sVoffset
p15
I15
saa(lp16
(dp17
Vstart
p18
I0
sVdisambiguatedURL
p19
NsVnamedEntity
p20
VSIZE OF SATSUKI FLOWER:
p21
sVoffset
p22
I23
saa(lp23
(dp24
Vstart
p25
I0
sVdisambiguatedURL
p26
NsVnamedEntity
p27
VSHAPE OF SATSUKI FLOWER:
p28
sVoffset
p29
I24
saa(lp30
(dp31
Vstart
p32
I0
sVdisambiguatedURL
p33
NsVnamedEntity
p34
VPATTERN OF SATSUKI FLOWER:
p35
sVoffset
p36
I26
saa(lp37
(dp38
Vstart
p39
I0
sVdisambiguatedURL
p40
NsVnamedEntity
p41
VSIZE OF LEAVES:
p42
sVoffset
p43
I15
saa(lp44
(dp45
Vstart
p46
I0
sVdisambiguatedURL
p47
NsVnamedEntity
p48
VPATTERN OF LEAVES:
p49
sVoffset
p50
I18
saa(lp51
(dp52
Vstart
p53
I0
sVdisambiguatedURL
p54
NsVnamedEntity
p55
VSTRONG-WEAK:
p56
sVoffset
p57
I12
saa(lp58
(dp59
Vstart
p60
I0
sVdisambiguatedURL
p61
NsVnamedEntity
p62
VKEY POINTS OF BONSAI STYLE:
p63
sVoffset
p64
I27
saa(lp65
(dp66
Vstart
p67
I0
sVdisambiguatedURL
p68
NsVnamedEntity
p69
VVOLUME OF PRODUCTION
p70
sVoffset
p71
I20
saa.