(lp1
(dp2
I0
(dp3
I0
(lp4
sI1
(lp5
sI2
(lp6
sI3
(lp7
sI4
(lp8
sI5
(lp9
ssI1
(dp10
I0
g5
sI1
(lp11
sI2
(lp12
sI3
(lp13
sI4
(lp14
sI5
(lp15
ssI2
(dp16
I0
g6
sI1
g12
sI2
(lp17
sI3
(lp18
sI4
(lp19
sI5
(lp20
ssI3
(dp21
I0
g7
sI1
g13
sI2
g18
sI3
(lp22
sI4
(lp23
sI5
(lp24
ssI4
(dp25
I0
g8
sI1
g14
sI2
g19
sI3
g23
sI4
(lp26
sI5
(lp27
ssI5
(dp28
I0
g9
sI1
g15
sI2
g20
sI3
g24
sI5
(lp29
ssa(dp30
I0
(dp31
I0
(lp32
sI1
(lp33
sI2
(lp34
sI3
(lp35
sI4
(lp36
sI5
(lp37
ssI1
(dp38
I0
g33
sI1
(lp39
sI2
(lp40
sI3
(lp41
sI4
(lp42
sI5
(lp43
ssI2
(dp44
I0
g34
sI1
g40
sI2
(lp45
sI3
(lp46
sI4
(lp47
sI5
(lp48
ssI3
(dp49
I0
g35
sI1
g41
sI2
g46
sI3
(lp50
sI4
(lp51
sI5
(lp52
ssI4
(dp53
I0
g36
sI1
g42
sI2
g47
sI3
g51
sI4
(lp54
sI5
(lp55
ssI5
(dp56
I0
g37
sI1
g43
sI2
g48
sI3
g52
sI5
(lp57
ssa(dp58
I0
(dp59
I0
(lp60
sI1
(lp61
sI2
(lp62
sI3
(lp63
sI4
(lp64
sI5
(lp65
ssI1
(dp66
I0
g61
sI1
(lp67
sI2
(lp68
sI3
(lp69
sI4
(lp70
sI5
(lp71
ssI2
(dp72
I0
g62
sI1
g68
sI2
(lp73
sI3
(lp74
sI4
(lp75
sI5
(lp76
ssI3
(dp77
I0
g63
sI1
g69
sI2
g74
sI3
(lp78
sI4
(lp79
sI5
(lp80
ssI4
(dp81
I0
g64
sI1
g70
sI2
g75
sI3
g79
sI4
(lp82
sI5
(lp83
ssI5
(dp84
I0
g65
sI1
g71
sI2
g76
sI3
g80
sI5
(lp85
ssa(dp86
I0
(dp87
I0
(lp88
sI1
(lp89
sI2
(lp90
sI3
(lp91
sI4
(lp92
sI5
(lp93
ssI1
(dp94
I0
g89
sI1
(lp95
sI2
(lp96
sI3
(lp97
sI4
(lp98
sI5
(lp99
ssI2
(dp100
I0
g90
sI1
g96
sI2
(lp101
sI3
(lp102
sI4
(lp103
sI5
(lp104
ssI3
(dp105
I0
g91
sI1
g97
sI2
g102
sI3
(lp106
sI4
(lp107
sI5
(lp108
ssI4
(dp109
I0
g92
sI1
g98
sI2
g103
sI3
g107
sI4
(lp110
sI5
(lp111
ssI5
(dp112
I0
g93
sI1
g99
sI2
g104
sI3
g108
sI5
(lp113
ssa(dp114
I0
(dp115
I0
(lp116
sI1
(lp117
sI2
(lp118
sI3
(lp119
sI4
(lp120
sI5
(lp121
ssI1
(dp122
I0
g117
sI1
(lp123
sI2
(lp124
sI3
(lp125
sI4
(lp126
sI5
(lp127
ssI2
(dp128
I0
g118
sI1
g124
sI2
(lp129
sI3
(lp130
sI4
(lp131
sI5
(lp132
ssI3
(dp133
I0
g119
sI1
g125
sI2
g130
sI3
(lp134
sI4
(lp135
sI5
(lp136
ssI4
(dp137
I0
g120
sI1
g126
sI2
g131
sI3
g135
sI4
(lp138
sI5
(lp139
ssI5
(dp140
I0
g121
sI1
g127
sI2
g132
sI3
g136
sI5
(lp141
ssa(dp142
I0
(dp143
I0
(lp144
sI1
(lp145
sI2
(lp146
sI3
(lp147
sI4
(lp148
sI5
(lp149
ssI1
(dp150
I0
g145
sI1
(lp151
sI2
(lp152
sI3
(lp153
sI4
(lp154
sI5
(lp155
ssI2
(dp156
I0
g146
sI1
g152
sI2
(lp157
sI3
(lp158
sI4
(lp159
sI5
(lp160
ssI3
(dp161
I0
g147
sI1
g153
sI2
g158
sI3
(lp162
sI4
(lp163
sI5
(lp164
ssI4
(dp165
I0
g148
sI1
g154
sI2
g159
sI3
g163
sI4
(lp166
sI5
(lp167
ssI5
(dp168
I0
g149
sI1
g155
sI2
g160
sI3
g164
sI5
(lp169
ssa(dp170
I0
(dp171
I0
(lp172
sI1
(lp173
sI2
(lp174
sI3
(lp175
sI4
(lp176
sI5
(lp177
ssI1
(dp178
I0
g173
sI1
(lp179
sI2
(lp180
sI3
(lp181
Vhttp://dbpedia.org/property/currency
p182
aVhttp://xmlns.com/foaf/0.1/primaryTopic
p183
aVhttp://www.w3.org/1999/02/22-rdf-syntax-ns#type
p184
aVhttp://purl.org/dc/terms/subject
p185
aVhttp://dbpedia.org/ontology/currency
p186
aVhttp://dbpedia.org/ontology/wikiPageRedirects
p187
aVhttp://xmlns.com/foaf/0.1/isPrimaryTopicOf
p188
aVhttp://www.w3.org/ns/prov#wasDerivedFrom
p189
aVhttp://dbpedia.org/property/hasPhotoCollection
p190
aVhttp://www.w3.org/2000/01/rdf-schema#label
p191
aVhttp://www.w3.org/2002/07/owl#sameAs
p192
asI4
(lp193
sI5
(lp194
ssI2
(dp195
I0
g174
sI1
g180
sI2
(lp196
sI3
(lp197
sI4
(lp198
sI5
(lp199
ssI3
(dp200
I0
g175
sI1
g181
sI2
g197
sI3
(lp201
sI4
(lp202
sI5
(lp203
ssI4
(dp204
I0
g176
sI1
g193
sI2
g198
sI3
g202
sI4
(lp205
sI5
(lp206
ssI5
(dp207
I0
g177
sI1
g194
sI2
g199
sI3
g203
sI5
(lp208
ssa(dp209
I0
(dp210
I0
(lp211
sI1
(lp212
sI2
(lp213
sI3
(lp214
sI4
(lp215
sI5
(lp216
ssI1
(dp217
I0
g212
sI1
(lp218
sI2
(lp219
sI3
(lp220
sI4
(lp221
sI5
(lp222
ssI2
(dp223
I0
g213
sI1
g219
sI2
(lp224
sI3
(lp225
sI4
(lp226
sI5
(lp227
ssI3
(dp228
I0
g214
sI1
g220
sI2
g225
sI3
(lp229
sI4
(lp230
sI5
(lp231
ssI4
(dp232
I0
g215
sI1
g221
sI2
g226
sI3
g230
sI4
(lp233
sI5
(lp234
ssI5
(dp235
I0
g216
sI1
g222
sI2
g227
sI3
g231
sI5
(lp236
ssa(dp237
I0
(dp238
I0
(lp239
sI1
(lp240
sI2
(lp241
sI3
(lp242
sI4
(lp243
sI5
(lp244
ssI1
(dp245
I0
g240
sI1
(lp246
sI2
(lp247
sI3
(lp248
sI4
(lp249
sI5
(lp250
ssI2
(dp251
I0
g241
sI1
g247
sI2
(lp252
sI3
(lp253
sI4
(lp254
sI5
(lp255
ssI3
(dp256
I0
g242
sI1
g248
sI2
g253
sI3
(lp257
sI4
(lp258
sI5
(lp259
ssI4
(dp260
I0
g243
sI1
g249
sI2
g254
sI3
g258
sI4
(lp261
sI5
(lp262
ssI5
(dp263
I0
g244
sI1
g250
sI2
g255
sI3
g259
sI5
(lp264
ssa(dp265
I0
(dp266
I0
(lp267
sI1
(lp268
sI2
(lp269
sI3
(lp270
sI4
(lp271
sI5
(lp272
ssI1
(dp273
I0
g268
sI1
(lp274
sI2
(lp275
sI3
(lp276
sI4
(lp277
sI5
(lp278
ssI2
(dp279
I0
g269
sI1
g275
sI2
(lp280
sI3
(lp281
sI4
(lp282
sI5
(lp283
ssI3
(dp284
I0
g270
sI1
g276
sI2
g281
sI3
(lp285
sI4
(lp286
sI5
(lp287
ssI4
(dp288
I0
g271
sI1
g277
sI2
g282
sI3
g286
sI4
(lp289
sI5
(lp290
ssI5
(dp291
I0
g272
sI1
g278
sI2
g283
sI3
g287
sI5
(lp292
ssa(dp293
I0
(dp294
I0
(lp295
sI1
(lp296
sI2
(lp297
sI3
(lp298
sI4
(lp299
sI5
(lp300
ssI1
(dp301
I0
g296
sI1
(lp302
sI2
(lp303
sI3
(lp304
sI4
(lp305
sI5
(lp306
ssI2
(dp307
I0
g297
sI1
g303
sI2
(lp308
sI3
(lp309
sI4
(lp310
sI5
(lp311
ssI3
(dp312
I0
g298
sI1
g304
sI2
g309
sI3
(lp313
sI4
(lp314
sI5
(lp315
ssI4
(dp316
I0
g299
sI1
g305
sI2
g310
sI3
g314
sI4
(lp317
sI5
(lp318
ssI5
(dp319
I0
g300
sI1
g306
sI2
g311
sI3
g315
sI5
(lp320
ssa(dp321
I0
(dp322
I0
(lp323
sI1
(lp324
sI2
(lp325
sI3
(lp326
sI4
(lp327
sI5
(lp328
ssI1
(dp329
I0
g324
sI1
(lp330
sI2
(lp331
sI3
(lp332
sI4
(lp333
sI5
(lp334
ssI2
(dp335
I0
g325
sI1
g331
sI2
(lp336
sI3
(lp337
sI4
(lp338
sI5
(lp339
ssI3
(dp340
I0
g326
sI1
g332
sI2
g337
sI3
(lp341
sI4
(lp342
sI5
(lp343
ssI4
(dp344
I0
g327
sI1
g333
sI2
g338
sI3
g342
sI4
(lp345
sI5
(lp346
ssI5
(dp347
I0
g328
sI1
g334
sI2
g339
sI3
g343
sI5
(lp348
ssa(dp349
I0
(dp350
I0
(lp351
sI1
(lp352
sI2
(lp353
sI3
(lp354
sI4
(lp355
sI5
(lp356
ssI1
(dp357
I0
g352
sI1
(lp358
sI2
(lp359
Vhttp://dbpedia.org/property/currencyCode
p360
asI3
(lp361
sI4
(lp362
sI5
(lp363
ssI2
(dp364
I0
g353
sI1
g359
sI2
(lp365
sI3
(lp366
sI4
(lp367
sI5
(lp368
ssI3
(dp369
I0
g354
sI1
g361
sI2
g366
sI3
(lp370
sI4
(lp371
sI5
(lp372
ssI4
(dp373
I0
g355
sI1
g362
sI2
g367
sI3
g371
sI4
(lp374
sI5
(lp375
ssI5
(dp376
I0
g356
sI1
g363
sI2
g368
sI3
g372
sI5
(lp377
ssa(dp378
I0
(dp379
I0
(lp380
sI1
(lp381
sI2
(lp382
sI3
(lp383
sI4
(lp384
sI5
(lp385
ssI1
(dp386
I0
g381
sI1
(lp387
sI2
(lp388
sI3
(lp389
sI4
(lp390
sI5
(lp391
ssI2
(dp392
I0
g382
sI1
g388
sI2
(lp393
sI3
(lp394
sI4
(lp395
sI5
(lp396
ssI3
(dp397
I0
g383
sI1
g389
sI2
g394
sI3
(lp398
sI4
(lp399
sI5
(lp400
ssI4
(dp401
I0
g384
sI1
g390
sI2
g395
sI3
g399
sI4
(lp402
sI5
(lp403
ssI5
(dp404
I0
g385
sI1
g391
sI2
g396
sI3
g400
sI5
(lp405
ssa(dp406
I0
(dp407
I0
(lp408
sI1
(lp409
sI2
(lp410
sI3
(lp411
sI4
(lp412
sI5
(lp413
ssI1
(dp414
I0
g409
sI1
(lp415
sI2
(lp416
sI3
(lp417
sI4
(lp418
sI5
(lp419
ssI2
(dp420
I0
g410
sI1
g416
sI2
(lp421
sI3
(lp422
sI4
(lp423
sI5
(lp424
ssI3
(dp425
I0
g411
sI1
g417
sI2
g422
sI3
(lp426
sI4
(lp427
sI5
(lp428
ssI4
(dp429
I0
g412
sI1
g418
sI2
g423
sI3
g427
sI4
(lp430
sI5
(lp431
ssI5
(dp432
I0
g413
sI1
g419
sI2
g424
sI3
g428
sI5
(lp433
ssa(dp434
I0
(dp435
I0
(lp436
sI1
(lp437
sI2
(lp438
sI3
(lp439
sI4
(lp440
sI5
(lp441
ssI1
(dp442
I0
g437
sI1
(lp443
sI2
(lp444
sI3
(lp445
sI4
(lp446
sI5
(lp447
ssI2
(dp448
I0
g438
sI1
g444
sI2
(lp449
sI3
(lp450
sI4
(lp451
sI5
(lp452
ssI3
(dp453
I0
g439
sI2
g450
sI3
(lp454
sI4
(lp455
sI5
(lp456
ssI4
(dp457
I0
g440
sI1
g446
sI2
g451
sI3
g455
sI4
(lp458
sI5
(lp459
ssI5
(dp460
I0
g441
sI1
g447
sI2
g452
sI3
g456
sI5
(lp461
ssa(dp462
I0
(dp463
I0
(lp464
sI1
(lp465
sI2
(lp466
sI3
(lp467
sI4
(lp468
sI5
(lp469
ssI1
(dp470
I0
g465
sI1
(lp471
sI2
(lp472
sI3
(lp473
sI4
(lp474
sI5
(lp475
ssI2
(dp476
I0
g466
sI1
g472
sI2
(lp477
sI3
(lp478
sI4
(lp479
sI5
(lp480
ssI3
(dp481
I0
g467
sI1
g473
sI2
g478
sI3
(lp482
sI4
(lp483
sI5
(lp484
ssI4
(dp485
I0
g468
sI1
g474
sI2
g479
sI3
g483
sI4
(lp486
sI5
(lp487
ssI5
(dp488
I0
g469
sI1
g475
sI2
g480
sI3
g484
sI5
(lp489
ssa(dp490
I0
(dp491
I0
(lp492
sI1
(lp493
sI2
(lp494
sI3
(lp495
sI4
(lp496
sI5
(lp497
ssI1
(dp498
I0
g493
sI1
(lp499
sI2
(lp500
sI3
(lp501
sI4
(lp502
sI5
(lp503
ssI2
(dp504
I0
g494
sI1
g500
sI2
(lp505
sI3
(lp506
sI4
(lp507
sI5
(lp508
ssI3
(dp509
I0
g495
sI1
g501
sI2
g506
sI3
(lp510
sI4
(lp511
sI5
(lp512
ssI4
(dp513
I0
g496
sI1
g502
sI2
g507
sI3
g511
sI4
(lp514
sI5
(lp515
ssI5
(dp516
I0
g497
sI1
g503
sI2
g508
sI3
g512
sI5
(lp517
ssa(dp518
I0
(dp519
I0
(lp520
sI1
(lp521
sI2
(lp522
sI3
(lp523
sI4
(lp524
sI5
(lp525
ssI1
(dp526
I0
g521
sI1
(lp527
sI2
(lp528
sI3
(lp529
sI4
(lp530
sI5
(lp531
ssI2
(dp532
I0
g522
sI1
g528
sI2
(lp533
sI3
(lp534
sI4
(lp535
sI5
(lp536
ssI3
(dp537
I0
g523
sI1
g529
sI2
g534
sI3
(lp538
sI4
(lp539
sI5
(lp540
ssI4
(dp541
I0
g524
sI1
g530
sI2
g535
sI3
g539
sI4
(lp542
sI5
(lp543
ssI5
(dp544
I0
g525
sI1
g531
sI2
g536
sI3
g540
sI5
(lp545
ssa(dp546
I0
(dp547
I0
(lp548
sI1
(lp549
sI2
(lp550
sI3
(lp551
sI4
(lp552
sI5
(lp553
ssI1
(dp554
I0
g549
sI1
(lp555
sI2
(lp556
sI3
(lp557
sI4
(lp558
sI5
(lp559
ssI2
(dp560
I0
g550
sI1
g556
sI2
(lp561
sI3
(lp562
sI4
(lp563
sI5
(lp564
ssI3
(dp565
I0
g551
sI1
g557
sI2
g562
sI3
(lp566
sI4
(lp567
sI5
(lp568
ssI4
(dp569
I0
g552
sI1
g558
sI2
g563
sI3
g567
sI4
(lp570
sI5
(lp571
ssI5
(dp572
I0
g553
sI1
g559
sI2
g564
sI3
g568
sI5
(lp573
ssa.