(lp1
(lp2
(lp3
((lVhttp://dbpedia.org/resource/Null
tp4
aa(lp5
a(lp6
a(lp7
a(lp8
a(lp9
aa(lp10
(lp11
((lVhttp://dbpedia.org/resource/Null
tp12
aa(lp13
a(lp14
a(lp15
a(lp16
a(lp17
aa(lp18
(lp19
((lVhttp://dbpedia.org/resource/Null
tp20
aa(lp21
((lp22
Vhttp://www.w3.org/2002/07/owl#Thing
p23
aVhttp://dbpedia.org/ontology/Place
p24
aVhttp://dbpedia.org/ontology/Location
p25
aVhttp://www.wikidata.org/entity/Q486972
p26
aVhttp://dbpedia.org/ontology/Continent
p27
aVhttp://dbpedia.org/ontology/PopulatedPlace
p28
aVhttp://schema.org/Continent
p29
aVhttp://schema.org/Place
p30
aVhttp://dbpedia.org/class/yago/Abstraction100002137
p31
aVhttp://dbpedia.org/class/yago/Economy108366753
p32
aVhttp://dbpedia.org/class/yago/Group100031264
p33
aVhttp://dbpedia.org/class/yago/Land109334396
p34
aVhttp://dbpedia.org/class/yago/Object100002684
p35
aVhttp://dbpedia.org/class/yago/System108435388
p36
aVhttp://dbpedia.org/class/yago/YagoGeoEntity
p37
aVhttp://dbpedia.org/class/yago/Continent109254614
p38
aVhttp://dbpedia.org/class/yago/Continents
p39
aVhttp://dbpedia.org/class/yago/EconomiesByRegion
p40
aVhttp://dbpedia.org/class/yago/Landmass109335916
p41
aVhttp://dbpedia.org/class/yago/PhysicalEntity100001930
p42
aVhttp://dbpedia.org/class/yago/YagoPermanentlyLocatedEntity
p43
aVhttp://dbpedia.org/resource/Oceania
tp44
aa(lp45
a(lp46
a(lp47
a(lp48
aa(lp49
(lp50
((lVhttp://dbpedia.org/resource/Null
tp51
aa(lp52
a(lp53
a(lp54
a(lp55
a(lp56
aa(lp57
(lp58
((lVhttp://dbpedia.org/resource/Null
tp59
aa(lp60
a(lp61
a(lp62
a(lp63
a(lp64
aa(lp65
(lp66
((lVhttp://dbpedia.org/resource/Null
tp67
aa(lp68
a(lp69
a(lp70
a(lp71
a(lp72
aa(lp73
(lp74
((lVhttp://dbpedia.org/resource/Null
tp75
aa(lp76
a(lp77
a(lp78
((lp79
Vhttp://dbpedia.org/class/yago/Abstraction100002137
p80
aVhttp://dbpedia.org/class/yago/Currency113385913
p81
aVhttp://dbpedia.org/class/yago/Standard107260623
p82
aVhttp://dbpedia.org/class/yago/SystemOfMeasurement113577171
p83
aVhttp://dbpedia.org/class/yago/CurrenciesOfBrazil
p84
aVhttp://dbpedia.org/class/yago/Measure100033615
p85
aVhttp://dbpedia.org/class/yago/MediumOfExchange113372961
p86
aVhttp://dbpedia.org/resource/Brazilian_real_(old)
tp87
aa(lp88
a(lp89
aa(lp90
(lp91
((lVhttp://dbpedia.org/resource/Null
tp92
aa(lp93
a(lp94
a(lp95
a(lp96
a(lp97
aa(lp98
(lp99
((lVhttp://dbpedia.org/resource/Null
tp100
aa(lp101
a(lp102
a(lp103
a(lp104
a(lp105
aa(lp106
(lp107
((lVhttp://dbpedia.org/resource/Null
tp108
aa(lp109
a(lp110
a(lp111
a(lp112
a(lp113
aa(lp114
(lp115
((lVhttp://dbpedia.org/resource/Null
tp116
aa(lp117
a(lp118
a(lp119
a(lp120
a(lp121
aa(lp122
(lp123
((lVhttp://dbpedia.org/resource/Null
tp124
aa(lp125
a(lp126
a(lp127
a(lp128
a(lp129
aa(lp130
(lp131
((lVhttp://dbpedia.org/resource/Null
tp132
aa(lp133
((lp134
Vhttp://www.w3.org/2002/07/owl#Thing
p135
aVhttp://dbpedia.org/ontology/Place
p136
aVhttp://dbpedia.org/ontology/Location
p137
aVhttp://www.wikidata.org/entity/Q486972
p138
aVhttp://www.wikidata.org/entity/Q6256
p139
aVhttp://dbpedia.org/ontology/Country
p140
aVhttp://dbpedia.org/ontology/PopulatedPlace
p141
aVhttp://www.w3.org/2003/01/geo/wgs84_pos#SpatialThing
p142
aVhttp://schema.org/Country
p143
aVhttp://schema.org/Place
p144
aVhttp://umbel.org/umbel/rc/Country
p145
aVhttp://umbel.org/umbel/rc/Location_Underspecified
p146
aVhttp://umbel.org/umbel/rc/PopulatedPlace
p147
aVhttp://dbpedia.org/class/yago/Abstraction100002137
p148
aVhttp://dbpedia.org/class/yago/AdministrativeDistrict108491826
p149
aVhttp://dbpedia.org/class/yago/Country108544813
p150
aVhttp://dbpedia.org/class/yago/District108552138
p151
aVhttp://dbpedia.org/class/yago/Economy108366753
p152
aVhttp://dbpedia.org/class/yago/Group100031264
p153
aVhttp://dbpedia.org/class/yago/Location100027167
p154
aVhttp://dbpedia.org/class/yago/Object100002684
p155
aVhttp://dbpedia.org/class/yago/Region108630985
p156
aVhttp://dbpedia.org/class/yago/System108435388
p157
aVhttp://dbpedia.org/class/yago/YagoGeoEntity
p158
aVhttp://dbpedia.org/class/yago/YagoLegalActorGeo
p159
aVhttp://dbpedia.org/class/yago/EuropeanCountries
p160
aVhttp://dbpedia.org/class/yago/EuropeanUnionMemberEconomies
p161
aVhttp://dbpedia.org/class/yago/PhysicalEntity100001930
p162
aVhttp://dbpedia.org/class/yago/YagoPermanentlyLocatedEntity
p163
aVhttp://dbpedia.org/class/yago/LandlockedCountries
p164
aVhttp://dbpedia.org/class/yago/MemberStatesOfNATO
p165
aVhttp://dbpedia.org/class/yago/MemberStatesOfTheEuropeanUnion
p166
aVhttp://dbpedia.org/class/yago/MemberStatesOfTheUnitedNations
p167
aVhttp://dbpedia.org/class/yago/SlavicCountries
p168
aVhttp://dbpedia.org/class/yago/StatesAndTerritoriesEstablishedIn1993
p169
aVhttp://dbpedia.org/resource/Czech_Republic
tp170
aa(lp171
a(lp172
a(lp173
a(lp174
aa(lp175
(lp176
((lVhttp://dbpedia.org/resource/Null
tp177
aa(lp178
a(lp179
a(lp180
a(lp181
a(lp182
aa(lp183
(lp184
((lVhttp://dbpedia.org/resource/Null
tp185
aa(lp186
a(lp187
a(lp188
a(lp189
a(lp190
aa(lp191
(lp192
((lVhttp://dbpedia.org/resource/Null
tp193
aa(lp194
a(lp195
a(lp196
a(lp197
a(lp198
aa(lp199
(lp200
((lVhttp://dbpedia.org/resource/Null
tp201
aa(lp202
a(lp203
a(lp204
a(lp205
a(lp206
aa(lp207
(lp208
((lVhttp://dbpedia.org/resource/Null
tp209
aa(lp210
((lp211
Vhttp://www.w3.org/2002/07/owl#Thing
p212
aVhttp://dbpedia.org/ontology/Place
p213
aVhttp://dbpedia.org/ontology/Location
p214
aVhttp://www.wikidata.org/entity/Q23442
p215
aVhttp://www.wikidata.org/entity/Q486972
p216
aVhttp://dbpedia.org/ontology/Island
p217
aVhttp://dbpedia.org/ontology/PopulatedPlace
p218
aVhttp://schema.org/Place
p219
aVhttp://umbel.org/umbel/rc/Island
p220
aVhttp://umbel.org/umbel/rc/Location_Underspecified
p221
aVhttp://umbel.org/umbel/rc/PopulatedPlace
p222
aVhttp://dbpedia.org/class/yago/Island109316454
p223
aVhttp://dbpedia.org/class/yago/Land109334396
p224
aVhttp://dbpedia.org/class/yago/Object100002684
p225
aVhttp://dbpedia.org/class/yago/YagoGeoEntity
p226
aVhttp://dbpedia.org/class/yago/PhysicalEntity100001930
p227
aVhttp://dbpedia.org/class/yago/YagoPermanentlyLocatedEntity
p228
aVhttp://dbpedia.org/class/yago/IslandsOfTheBritishIsles
p229
aVhttp://dbpedia.org/resource/Great_Britain
tp230
aa(lp231
a(lp232
a(lp233
a(lp234
aa(lp235
(lp236
((lVhttp://dbpedia.org/resource/Null
tp237
aa(lp238
a(lp239
a(lp240
a(lp241
a(lp242
aa(lp243
(lp244
((lVhttp://dbpedia.org/resource/Null
p245
tp246
aa(lp247
a(lp248
a(lp249
a(lp250
a(lp251
aa.