ccollections
defaultdict
p1
(c__builtin__
dict
p2
tRp3
I1
(dp4
I0
(lp5
sI2
(lp6
sI3
(lp7
sI4
(lp8
ssI2
(dp9
I0
(lp10
sI2
(lp11
sI3
(lp12
sI4
(lp13
ssI3
(dp14
I0
(lp15
sI2
(lp16
sI3
(lp17
sI4
(lp18
ssI4
(dp19
I0
(lp20
sI2
(lp21
sI3
(lp22
sI4
(lp23
ssI5
(dp24
I0
(lp25
sI2
(lp26
sI3
(lp27
sI4
(lp28
ssI7
(dp29
I0
(lp30
sI2
(lp31
sI3
(lp32
sI4
(lp33
ssI8
(dp34
I0
(lp35
sI2
(lp36
sI3
(lp37
sI4
(lp38
ssI9
(dp39
I0
(lp40
sI2
(lp41
sI3
(lp42
sI4
(lp43
ssI10
(dp44
I0
(lp45
sI2
(lp46
sI3
(lp47
sI4
(lp48
ssI12
(dp49
I0
(lp50
Vhttp://dbpedia.org/ontology/abstract
p51
aVhttp://www.w3.org/2000/01/rdf-schema#label
p52
aVhttp://www.w3.org/2000/01/rdf-schema#comment
p53
asI2
(lp54
sI3
(lp55
sI4
(lp56
ssI13
(dp57
I0
(lp58
sI2
(lp59
sI3
(lp60
sI4
(lp61
ssI14
(dp62
I0
(lp63
sI2
(lp64
sI3
(lp65
sI4
(lp66
ssI15
(dp67
I0
(lp68
sI2
(lp69
sI3
(lp70
sI4
(lp71
ssI16
(dp72
I0
(lp73
sI2
(lp74
sI3
(lp75
sI4
(lp76
ssI18
(dp77
I0
(lp78
sI2
(lp79
sI3
(lp80
sI4
(lp81
ss.