(lp1
(lp2
(lp3
a(lp4
a(lp5
a(lp6
a(lp7
a(lp8
a(lp9
((lVhttp://dbpedia.org/resource/2006_Korea_Open
tp10
aa(lp11
a(lp12
a(lp13
a(lp14
a(lp15
a(lp16
a(lp17
a(lp18
((lVhttp://dbpedia.org/resource/2006_Mr._Olympia
p19
tp20
aa(lp21
a(lp22
a(lp23
a(lp24
aa.