(lp1
(lp2
(lp3
a(lp4
((lVhttp://dbpedia.org/resource/Name
tp5
aa(lp6
a(lp7
aa(lp8
(lp9
((lVhttp://dbpedia.org/resource/Null
tp10
aa(lp11
((lVhttp://dbpedia.org/resource/Null
tp12
aa(lp13
((lVhttp://dbpedia.org/resource/Null
tp14
aa(lp15
((lVhttp://dbpedia.org/resource/Null
tp16
aaa(lp17
(lp18
a(lp19
((lp20
Vhttp://www.w3.org/2002/07/owl#Thing
p21
aVhttp://dbpedia.org/resource/Organization
tp22
aa(lp23
a(lp24
aa(lp25
(lp26
((lVhttp://dbpedia.org/resource/Null
tp27
aa(lp28
((lVhttp://dbpedia.org/resource/Null
tp29
aa(lp30
((lVhttp://dbpedia.org/resource/Null
tp31
aa(lp32
((lVhttp://dbpedia.org/resource/Null
tp33
aaa(lp34
(lp35
a(lp36
((lp37
Vhttp://dbpedia.org/class/yago/Artifact100021939
p38
aVhttp://dbpedia.org/class/yago/Building102913152
p39
aVhttp://dbpedia.org/class/yago/Object100002684
p40
aVhttp://dbpedia.org/class/yago/Structure104341686
p41
aVhttp://dbpedia.org/class/yago/Whole100003553
p42
aVhttp://dbpedia.org/class/yago/YagoGeoEntity
p43
aVhttp://dbpedia.org/class/yago/PhysicalEntity100001930
p44
aVhttp://dbpedia.org/class/yago/YagoPermanentlyLocatedEntity
p45
aVhttp://dbpedia.org/class/yago/ListedBuildingsInTheUnitedKingdom
p46
aVhttp://dbpedia.org/resource/Designation_(heritage_assets)
tp47
aa(lp48
a(lp49
aa(lp50
(lp51
((lVhttp://dbpedia.org/resource/Null
tp52
aa(lp53
((lVhttp://dbpedia.org/resource/Null
tp54
aa(lp55
((lVhttp://dbpedia.org/resource/Null
tp56
aa(lp57
((lVhttp://dbpedia.org/resource/Null
tp58
aaa(lp59
(lp60
a(lp61
((lVhttp://dbpedia.org/resource/Address_space
tp62
aa(lp63
a(lp64
aa(lp65
(lp66
((lVhttp://dbpedia.org/resource/Null
tp67
aa(lp68
((lVhttp://dbpedia.org/resource/Null
tp69
aa(lp70
((lVhttp://dbpedia.org/resource/Null
tp71
aa(lp72
((lVhttp://dbpedia.org/resource/Null
tp73
aaa(lp74
(lp75
a(lp76
((lVhttp://dbpedia.org/resource/Telephone_number
tp77
aa(lp78
a(lp79
aa(lp80
(lp81
((lVhttp://dbpedia.org/resource/Null
tp82
aa(lp83
((lVhttp://dbpedia.org/resource/Null
tp84
aa(lp85
((lVhttp://dbpedia.org/resource/Null
tp86
aa(lp87
((lVhttp://dbpedia.org/resource/Null
tp88
aaa(lp89
(lp90
a(lp91
((lp92
Vhttp://www.w3.org/2002/07/owl#Thing
p93
aVhttp://dbpedia.org/resource/Fax
tp94
aa(lp95
a(lp96
aa(lp97
(lp98
((lVhttp://dbpedia.org/resource/Null
tp99
aa(lp100
((lVhttp://dbpedia.org/resource/Null
tp101
aa(lp102
((lVhttp://dbpedia.org/resource/Null
tp103
aa(lp104
((lVhttp://dbpedia.org/resource/Null
tp105
aaa(lp106
(lp107
a(lp108
a(lp109
a(lp110
aa(lp111
(lp112
((lVhttp://dbpedia.org/resource/Null
tp113
aa(lp114
((lVhttp://dbpedia.org/resource/Null
tp115
aa(lp116
((lVhttp://dbpedia.org/resource/Null
tp117
aa(lp118
((lVhttp://dbpedia.org/resource/Null
tp119
aaa(lp120
(lp121
a(lp122
((lVhttp://dbpedia.org/resource/Email_address
tp123
aa(lp124
a(lp125
aa(lp126
(lp127
((lVhttp://dbpedia.org/resource/Null
tp128
aa(lp129
((lVhttp://dbpedia.org/resource/Null
tp130
aa(lp131
((lVhttp://dbpedia.org/resource/Null
tp132
aa(lp133
((lVhttp://dbpedia.org/resource/Null
tp134
aaa(lp135
(lp136
a(lp137
((lVhttp://dbpedia.org/resource/Comment
p138
tp139
aa(lp140
a(lp141
aa(lp142
(lp143
a(lp144
a(lp145
a(lp146
aa.