(lp1
(lp2
(lp3
Vhttp://dbpedia.org/resource/Null
p4
aa(lp5
a(lp6
aa(lp7
(lp8
Vhttp://dbpedia.org/resource/Null
p9
aa(lp10
a(lp11
aa(lp12
(lp13
Vhttp://dbpedia.org/resource/Null
p14
aa(lp15
a(lp16
aa(lp17
(lp18
Vhttp://dbpedia.org/resource/Null
p19
aa(lp20
a(lp21
aa(lp22
(lp23
Vhttp://dbpedia.org/resource/Null
p24
aa(lp25
a(lp26
aa(lp27
(lp28
Vhttp://dbpedia.org/resource/Null
p29
aa(lp30
a(lp31
aa(lp32
(lp33
Vhttp://dbpedia.org/resource/Null
p34
aa(lp35
a(lp36
aa(lp37
(lp38
Vhttp://dbpedia.org/resource/Null
p39
aa(lp40
a(lp41
aa(lp42
(lp43
Vhttp://dbpedia.org/resource/Null
p44
aa(lp45
a(lp46
aa.