(lp1
(lp2
(lp3
((lVhttp://dbpedia.org/resource/Null
tp4
aa(lp5
a(lp6
aa(lp7
(lp8
((lVhttp://dbpedia.org/resource/Null
tp9
aa(lp10
a(lp11
aa(lp12
(lp13
((lVhttp://dbpedia.org/resource/Null
tp14
aa(lp15
a(lp16
aa(lp17
(lp18
((lVhttp://dbpedia.org/resource/Null
tp19
aa(lp20
a(lp21
aa(lp22
(lp23
((lVhttp://dbpedia.org/resource/Null
tp24
aa(lp25
a(lp26
aa(lp27
(lp28
((lVhttp://dbpedia.org/resource/Null
tp29
aa(lp30
a(lp31
aa(lp32
(lp33
((lVhttp://dbpedia.org/resource/Null
tp34
aa(lp35
a(lp36
aa(lp37
(lp38
((lVhttp://dbpedia.org/resource/Null
tp39
aa(lp40
a(lp41
aa(lp42
(lp43
((lVhttp://dbpedia.org/resource/Null
p44
tp45
aa(lp46
a(lp47
aa.