(lp1
(lp2
(lp3
a(lp4
Vhttp://dbpedia.org/resource/2001:_A_Space_Odyssey
p5
aa(lp6
a(lp7
Vhttp://dbpedia.org/resource/Stanley_Kubrick
p8
aa(lp9
aa(lp10
(lp11
a(lp12
Vhttp://dbpedia.org/resource/The_Wizard_of_Oz
p13
aa(lp14
a(lp15
a(lp16
aa(lp17
(lp18
a(lp19
a(lp20
a(lp21
Vhttp://dbpedia.org/resource/George_Lucas
p22
aa(lp23
aa(lp24
(lp25
a(lp26
Vhttp://dbpedia.org/resource/T._E._Lawrence
p27
aa(lp28
a(lp29
a(lp30
aa(lp31
(lp32
a(lp33
a(lp34
a(lp35
Vhttp://dbpedia.org/resource/Steven_Spielberg
p36
aa(lp37
aa(lp38
(lp39
a(lp40
a(lp41
a(lp42
a(lp43
aa(lp44
(lp45
a(lp46
a(lp47
a(lp48
Vhttp://dbpedia.org/resource/Steven_Spielberg
p49
aa(lp50
aa(lp51
(lp52
a(lp53
a(lp54
a(lp55
Vhttp://dbpedia.org/resource/Alfred_Hitchcock
p56
aa(lp57
aa(lp58
(lp59
a(lp60
a(lp61
a(lp62
Vhttp://dbpedia.org/resource/Akira_Kurosawa
p63
aa(lp64
aa(lp65
(lp66
a(lp67
a(lp68
a(lp69
a(lp70
aa(lp71
(lp72
a(lp73
a(lp74
a(lp75
a(lp76
aa(lp77
(lp78
a(lp79
a(lp80
a(lp81
a(lp82
aa(lp83
(lp84
a(lp85
Vhttp://dbpedia.org/resource/The_Bridge_over_the_River_Kwai
p86
aa(lp87
a(lp88
a(lp89
aa(lp90
(lp91
a(lp92
a(lp93
a(lp94
Vhttp://dbpedia.org/resource/Peter_Jackson
p95
aa(lp96
aa(lp97
(lp98
a(lp99
a(lp100
a(lp101
Vhttp://dbpedia.org/resource/James_Cameron
p102
aa(lp103
aa(lp104
(lp105
a(lp106
a(lp107
a(lp108
Vhttp://dbpedia.org/resource/John_Lasseter
p109
aa(lp110
aa(lp111
(lp112
a(lp113
Vhttp://dbpedia.org/resource/Back_to_the_Future:_The_Pinball
p114
aa(lp115
a(lp116
a(lp117
aa(lp118
(lp119
a(lp120
Vhttp://dbpedia.org/resource/The_Treasure_of_the_Sierra_Madre
p121
aa(lp122
a(lp123
a(lp124
aa(lp125
(lp126
a(lp127
a(lp128
a(lp129
Vhttp://dbpedia.org/resource/Peter_Jackson
p130
aa(lp131
aa(lp132
(lp133
a(lp134
a(lp135
a(lp136
a(lp137
aa.