(lp1
(lp2
(lp3
a(lp4
a(lp5
a(lp6
aa(lp7
(lp8
a(lp9
a(lp10
a(lp11
aa(lp12
(lp13
Vhttp://dbpedia.org/resource/Office
p14
aa(lp15
a(lp16
a(lp17
aa(lp18
(lp19
Vhttp://dbpedia.org/resource/Null
p20
aa(lp21
Vhttp://dbpedia.org/resource/Null
p22
aa(lp23
Vhttp://dbpedia.org/resource/Null
p24
aa(lp25
aa(lp26
(lp27
Vhttp://dbpedia.org/resource/Comparison
p28
aa(lp29
a(lp30
a(lp31
aa(lp32
(lp33
a(lp34
a(lp35
a(lp36
aa.