(lp1
(lp2
a(lp3
a(lp4
a(lp5
(dp6
Vstart
p7
I0
sS'classes'
p8
(lp9
Vhttp://dbpedia.org/class/yago/Abstraction100002137
p10
aVhttp://dbpedia.org/class/yago/Communication100033020
p11
aVhttp://dbpedia.org/class/yago/Evidence106643408
p12
aVhttp://dbpedia.org/class/yago/Record106647206
p13
aVhttp://dbpedia.org/class/yago/Register106507041
p14
aVhttp://dbpedia.org/class/yago/WrittenRecord106502378
p15
aVhttp://dbpedia.org/class/yago/FamilyRegisters
p16
aVhttp://dbpedia.org/class/yago/Indication106797169
p17
asVdisambiguatedURL
p18
Vhttp://dbpedia.org/resource/Family_register
p19
sVnamedEntity
p20
VRegistry:
p21
sVoffset
p22
I9
saa(lp23
a(lp24
a(lp25
a.