(lp1
(lp2
(lp3
a(lp4
((lp5
Vhttp://www.w3.org/2002/07/owl#Thing
p6
aVhttp://dbpedia.org/ontology/Place
p7
aVhttp://dbpedia.org/ontology/Location
p8
aVhttp://www.wikidata.org/entity/Q486972
p9
aVhttp://dbpedia.org/ontology/PopulatedPlace
p10
aVhttp://dbpedia.org/ontology/Settlement
p11
aVhttp://www.w3.org/2003/01/geo/wgs84_pos#SpatialThing
p12
aVhttp://schema.org/Place
p13
aVhttp://umbel.org/umbel/rc/City
p14
aVhttp://umbel.org/umbel/rc/PopulatedPlace
p15
aVhttp://umbel.org/umbel/rc/Village
p16
aVhttp://dbpedia.org/class/yago/AdministrativeDistrict108491826
p17
aVhttp://dbpedia.org/class/yago/Area108497294
p18
aVhttp://dbpedia.org/class/yago/Center108523483
p19
aVhttp://dbpedia.org/class/yago/City108524735
p20
aVhttp://dbpedia.org/class/yago/District108552138
p21
aVhttp://dbpedia.org/class/yago/Location100027167
p22
aVhttp://dbpedia.org/class/yago/Object100002684
p23
aVhttp://dbpedia.org/class/yago/Region108630985
p24
aVhttp://dbpedia.org/class/yago/Seat108647945
p25
aVhttp://dbpedia.org/class/yago/Site108651247
p26
aVhttp://dbpedia.org/class/yago/Tract108673395
p27
aVhttp://dbpedia.org/class/yago/UrbanArea108675967
p28
aVhttp://dbpedia.org/class/yago/YagoGeoEntity
p29
aVhttp://dbpedia.org/class/yago/YagoLegalActorGeo
p30
aVhttp://dbpedia.org/class/yago/CitiesInPennsylvania
p31
aVhttp://dbpedia.org/class/yago/CountySeat108547143
p32
aVhttp://dbpedia.org/class/yago/CountySeatsInPennsylvania
p33
aVhttp://dbpedia.org/class/yago/EarlyAmericanIndustrialCenters
p34
aVhttp://dbpedia.org/class/yago/GeographicalArea108574314
p35
aVhttp://dbpedia.org/class/yago/Municipality108626283
p36
aVhttp://dbpedia.org/class/yago/PhysicalEntity100001930
p37
aVhttp://dbpedia.org/class/yago/YagoPermanentlyLocatedEntity
p38
aVhttp://dbpedia.org/class/yago/PopulatedPlacesEstablishedIn1735
p39
aVhttp://dbpedia.org/class/yago/PopulatedPlacesInLehighCounty,Pennsylvania
p40
aVhttp://dbpedia.org/class/yago/PopulatedPlacesOnTheLehighRiver
p41
aVhttp://dbpedia.org/resource/Allentown,_Pennsylvania
tp42
aa(lp43
a(lp44
aa(lp45
(lp46
a(lp47
((lp48
Vhttp://www.w3.org/2002/07/owl#Thing
p49
aVhttp://dbpedia.org/ontology/Place
p50
aVhttp://dbpedia.org/ontology/Location
p51
aVhttp://www.wikidata.org/entity/Q486972
p52
aVhttp://www.wikidata.org/entity/Q532
p53
aVhttp://dbpedia.org/ontology/PopulatedPlace
p54
aVhttp://dbpedia.org/ontology/Settlement
p55
aVhttp://dbpedia.org/ontology/Village
p56
aVhttp://www.w3.org/2003/01/geo/wgs84_pos#SpatialThing
p57
aVhttp://schema.org/Place
p58
aVhttp://dbpedia.org/class/yago/AdministrativeDistrict108491826
p59
aVhttp://dbpedia.org/class/yago/Area108497294
p60
aVhttp://dbpedia.org/class/yago/District108552138
p61
aVhttp://dbpedia.org/class/yago/Location100027167
p62
aVhttp://dbpedia.org/class/yago/Object100002684
p63
aVhttp://dbpedia.org/class/yago/Region108630985
p64
aVhttp://dbpedia.org/class/yago/Seat108647616
p65
aVhttp://dbpedia.org/class/yago/Space108652970
p66
aVhttp://dbpedia.org/class/yago/Village108672738
p67
aVhttp://dbpedia.org/class/yago/YagoGeoEntity
p68
aVhttp://dbpedia.org/class/yago/YagoLegalActorGeo
p69
aVhttp://dbpedia.org/class/yago/GeographicalArea108574314
p70
aVhttp://dbpedia.org/class/yago/PhysicalEntity100001930
p71
aVhttp://dbpedia.org/class/yago/YagoPermanentlyLocatedEntity
p72
aVhttp://dbpedia.org/class/yago/MunicipalSeatsInAlberta
p73
aVhttp://dbpedia.org/class/yago/Settlement108672562
p74
aVhttp://dbpedia.org/class/yago/VillagesInAlberta
p75
aVhttp://dbpedia.org/resource/Berwyn,_Alberta
tp76
aa(lp77
a(lp78
aa(lp79
(lp80
a(lp81
((lp82
Vhttp://www.w3.org/2002/07/owl#Thing
p83
aVhttp://umbel.org/umbel/rc/Location_Underspecified
p84
aVhttp://umbel.org/umbel/rc/PopulatedPlace
p85
aVhttp://dbpedia.org/class/yago/AdministrativeDistrict108491826
p86
aVhttp://dbpedia.org/class/yago/Country108544813
p87
aVhttp://dbpedia.org/class/yago/County108546183
p88
aVhttp://dbpedia.org/class/yago/District108552138
p89
aVhttp://dbpedia.org/class/yago/Location100027167
p90
aVhttp://dbpedia.org/class/yago/Object100002684
p91
aVhttp://dbpedia.org/class/yago/Region108630039
p92
aVhttp://dbpedia.org/class/yago/Region108630985
p93
aVhttp://dbpedia.org/class/yago/YagoGeoEntity
p94
aVhttp://dbpedia.org/class/yago/YagoLegalActorGeo
p95
aVhttp://dbpedia.org/class/yago/PhysicalEntity100001930
p96
aVhttp://dbpedia.org/class/yago/YagoPermanentlyLocatedEntity
p97
aVhttp://dbpedia.org/class/yago/PennsylvaniaCounties
p98
aVhttp://dbpedia.org/class/yago/StatesAndTerritoriesEstablishedIn1682
p99
aVhttp://dbpedia.org/resource/Bucks_County,_Pennsylvania
tp100
aa(lp101
a(lp102
aa(lp103
(lp104
a(lp105
((lVhttp://dbpedia.org/resource/Center_Valley
tp106
aa(lp107
a(lp108
aa(lp109
(lp110
a(lp111
a(lp112
a(lp113
aa(lp114
(lp115
a(lp116
((lp117
Vhttp://www.w3.org/2002/07/owl#Thing
p118
aVhttp://dbpedia.org/ontology/Place
p119
aVhttp://dbpedia.org/ontology/Location
p120
aVhttp://www.wikidata.org/entity/Q486972
p121
aVhttp://dbpedia.org/ontology/PopulatedPlace
p122
aVhttp://schema.org/Place
p123
aVhttp://umbel.org/umbel/rc/PopulatedPlace
p124
aVhttp://dbpedia.org/class/yago/County108546183
p125
aVhttp://dbpedia.org/class/yago/Location100027167
p126
aVhttp://dbpedia.org/class/yago/Object100002684
p127
aVhttp://dbpedia.org/class/yago/Region108630039
p128
aVhttp://dbpedia.org/class/yago/Region108630985
p129
aVhttp://dbpedia.org/class/yago/Site108651247
p130
aVhttp://dbpedia.org/class/yago/Tract108673395
p131
aVhttp://dbpedia.org/class/yago/YagoGeoEntity
p132
aVhttp://dbpedia.org/class/yago/YagoLegalActorGeo
p133
aVhttp://dbpedia.org/class/yago/GeographicalArea108574314
p134
aVhttp://dbpedia.org/class/yago/PhysicalEntity100001930
p135
aVhttp://dbpedia.org/class/yago/YagoPermanentlyLocatedEntity
p136
aVhttp://dbpedia.org/class/yago/PennsylvaniaCounties
p137
aVhttp://dbpedia.org/class/yago/PopulatedPlacesEstablishedIn1800
p138
aVhttp://dbpedia.org/resource/Adams_County,_Pennsylvania
tp139
aa(lp140
a(lp141
aa(lp142
(lp143
a(lp144
a(lp145
a(lp146
aa(lp147
(lp148
a(lp149
((lp150
Vhttp://www.w3.org/2002/07/owl#Thing
p151
aVhttp://dbpedia.org/ontology/Place
p152
aVhttp://dbpedia.org/ontology/Location
p153
aVhttp://www.wikidata.org/entity/Q486972
p154
aVhttp://dbpedia.org/ontology/PopulatedPlace
p155
aVhttp://dbpedia.org/ontology/Settlement
p156
aVhttp://www.w3.org/2003/01/geo/wgs84_pos#SpatialThing
p157
aVhttp://schema.org/Place
p158
aVhttp://dbpedia.org/class/yago/AdministrativeDistrict108491826
p159
aVhttp://dbpedia.org/class/yago/City108524735
p160
aVhttp://dbpedia.org/class/yago/District108552138
p161
aVhttp://dbpedia.org/class/yago/Location100027167
p162
aVhttp://dbpedia.org/class/yago/Object100002684
p163
aVhttp://dbpedia.org/class/yago/Region108630985
p164
aVhttp://dbpedia.org/class/yago/Site108651247
p165
aVhttp://dbpedia.org/class/yago/Tract108673395
p166
aVhttp://dbpedia.org/class/yago/UrbanArea108675967
p167
aVhttp://dbpedia.org/class/yago/YagoGeoEntity
p168
aVhttp://dbpedia.org/class/yago/YagoLegalActorGeo
p169
aVhttp://dbpedia.org/class/yago/CitiesInPennsylvania
p170
aVhttp://dbpedia.org/class/yago/GeographicalArea108574314
p171
aVhttp://dbpedia.org/class/yago/Municipality108626283
p172
aVhttp://dbpedia.org/class/yago/PhysicalEntity100001930
p173
aVhttp://dbpedia.org/class/yago/YagoPermanentlyLocatedEntity
p174
aVhttp://dbpedia.org/class/yago/PopulatedPlacesEstablishedIn1770
p175
aVhttp://dbpedia.org/class/yago/PopulatedPlacesInCambriaCounty,Pennsylvania
p176
aVhttp://dbpedia.org/resource/Johnstown,_Pennsylvania
tp177
aa(lp178
a(lp179
aa(lp180
(lp181
a(lp182
((lp183
Vhttp://www.w3.org/2002/07/owl#Thing
p184
aVhttp://dbpedia.org/ontology/Place
p185
aVhttp://dbpedia.org/ontology/Location
p186
aVhttp://dbpedia.org/ontology/WineRegion
p187
aVhttp://schema.org/Place
p188
aVhttp://umbel.org/umbel/rc/GeographicalRegion
p189
aVhttp://dbpedia.org/class/yago/AmericanViticulturalAreas
p190
aVhttp://dbpedia.org/class/yago/Area108497294
p191
aVhttp://dbpedia.org/class/yago/Location100027167
p192
aVhttp://dbpedia.org/class/yago/Object100002684
p193
aVhttp://dbpedia.org/class/yago/Region108630985
p194
aVhttp://dbpedia.org/class/yago/YagoGeoEntity
p195
aVhttp://dbpedia.org/class/yago/YagoLegalActorGeo
p196
aVhttp://dbpedia.org/class/yago/PhysicalEntity100001930
p197
aVhttp://dbpedia.org/class/yago/YagoPermanentlyLocatedEntity
p198
aVhttp://dbpedia.org/resource/Lancaster_Valley_AVA
tp199
aa(lp200
a(lp201
aa(lp202
(lp203
a(lp204
a(lp205
a(lp206
aa(lp207
(lp208
a(lp209
((lp210
Vhttp://www.w3.org/2002/07/owl#Thing
p211
aVhttp://dbpedia.org/ontology/Place
p212
aVhttp://dbpedia.org/ontology/Location
p213
aVhttp://www.wikidata.org/entity/Q3957
p214
aVhttp://www.wikidata.org/entity/Q486972
p215
aVhttp://dbpedia.org/ontology/PopulatedPlace
p216
aVhttp://dbpedia.org/ontology/Settlement
p217
aVhttp://dbpedia.org/ontology/Town
p218
aVhttp://www.w3.org/2003/01/geo/wgs84_pos#SpatialThing
p219
aVhttp://schema.org/Place
p220
aVhttp://dbpedia.org/resource/Leeds_and_the_Thousand_Islands
tp221
aa(lp222
a(lp223
aa(lp224
(lp225
a(lp226
((lp227
Vhttp://www.w3.org/2002/07/owl#Thing
p228
aVhttp://dbpedia.org/ontology/Place
p229
aVhttp://dbpedia.org/ontology/Location
p230
aVhttp://www.wikidata.org/entity/Q486972
p231
aVhttp://dbpedia.org/ontology/PopulatedPlace
p232
aVhttp://dbpedia.org/ontology/Settlement
p233
aVhttp://www.w3.org/2003/01/geo/wgs84_pos#SpatialThing
p234
aVhttp://schema.org/Place
p235
aVhttp://dbpedia.org/class/yago/AdministrativeDistrict108491826
p236
aVhttp://dbpedia.org/class/yago/Borough108540532
p237
aVhttp://dbpedia.org/class/yago/BoroughsInLehighCounty,Pennsylvania
p238
aVhttp://dbpedia.org/class/yago/District108552138
p239
aVhttp://dbpedia.org/class/yago/Location100027167
p240
aVhttp://dbpedia.org/class/yago/Object100002684
p241
aVhttp://dbpedia.org/class/yago/Region108630985
p242
aVhttp://dbpedia.org/class/yago/Site108651247
p243
aVhttp://dbpedia.org/class/yago/Tract108673395
p244
aVhttp://dbpedia.org/class/yago/YagoGeoEntity
p245
aVhttp://dbpedia.org/class/yago/YagoLegalActorGeo
p246
aVhttp://dbpedia.org/class/yago/GeographicalArea108574314
p247
aVhttp://dbpedia.org/class/yago/PhysicalEntity100001930
p248
aVhttp://dbpedia.org/class/yago/YagoPermanentlyLocatedEntity
p249
aVhttp://dbpedia.org/class/yago/PopulatedPlacesEstablishedIn1857
p250
aVhttp://dbpedia.org/resource/Macungie,_Pennsylvania
tp251
aa(lp252
a(lp253
aa(lp254
(lp255
a(lp256
((lp257
Vhttp://www.w3.org/2002/07/owl#Thing
p258
aVhttp://dbpedia.org/ontology/Place
p259
aVhttp://dbpedia.org/ontology/Location
p260
aVhttp://www.wikidata.org/entity/Q3957
p261
aVhttp://www.wikidata.org/entity/Q486972
p262
aVhttp://dbpedia.org/ontology/PopulatedPlace
p263
aVhttp://dbpedia.org/ontology/Settlement
p264
aVhttp://dbpedia.org/ontology/Town
p265
aVhttp://www.w3.org/2003/01/geo/wgs84_pos#SpatialThing
p266
aVhttp://schema.org/Place
p267
aVhttp://umbel.org/umbel/rc/Location_Underspecified
p268
aVhttp://umbel.org/umbel/rc/PopulatedPlace
p269
aVhttp://umbel.org/umbel/rc/Town
p270
aVhttp://umbel.org/umbel/rc/Village
p271
aVhttp://dbpedia.org/class/yago/AdministrativeDistrict108491826
p272
aVhttp://dbpedia.org/class/yago/District108552138
p273
aVhttp://dbpedia.org/class/yago/Location100027167
p274
aVhttp://dbpedia.org/class/yago/Object100002684
p275
aVhttp://dbpedia.org/class/yago/Region108630985
p276
aVhttp://dbpedia.org/class/yago/Town108665504
p277
aVhttp://dbpedia.org/class/yago/UrbanArea108675967
p278
aVhttp://dbpedia.org/class/yago/YagoGeoEntity
p279
aVhttp://dbpedia.org/class/yago/YagoLegalActorGeo
p280
aVhttp://dbpedia.org/class/yago/GeographicalArea108574314
p281
aVhttp://dbpedia.org/class/yago/Municipality108626283
p282
aVhttp://dbpedia.org/class/yago/PhysicalEntity100001930
p283
aVhttp://dbpedia.org/class/yago/YagoPermanentlyLocatedEntity
p284
aVhttp://dbpedia.org/class/yago/TownsInWorcesterCounty,Massachusetts
p285
aVhttp://dbpedia.org/resource/Milford,_Massachusetts
tp286
aa(lp287
a(lp288
aa(lp289
(lp290
a(lp291
((lp292
Vhttp://www.w3.org/2002/07/owl#Thing
p293
aVhttp://dbpedia.org/ontology/Place
p294
aVhttp://dbpedia.org/ontology/Location
p295
aVhttp://www.wikidata.org/entity/Q3957
p296
aVhttp://www.wikidata.org/entity/Q486972
p297
aVhttp://dbpedia.org/ontology/PopulatedPlace
p298
aVhttp://dbpedia.org/ontology/Settlement
p299
aVhttp://dbpedia.org/ontology/Town
p300
aVhttp://www.w3.org/2003/01/geo/wgs84_pos#SpatialThing
p301
aVhttp://schema.org/Place
p302
aVhttp://umbel.org/umbel/rc/Location_Underspecified
p303
aVhttp://umbel.org/umbel/rc/PopulatedPlace
p304
aVhttp://umbel.org/umbel/rc/Town
p305
aVhttp://umbel.org/umbel/rc/Village
p306
aVhttp://dbpedia.org/class/yago/AdministrativeDistrict108491826
p307
aVhttp://dbpedia.org/class/yago/District108552138
p308
aVhttp://dbpedia.org/class/yago/Location100027167
p309
aVhttp://dbpedia.org/class/yago/Object100002684
p310
aVhttp://dbpedia.org/class/yago/Region108630985
p311
aVhttp://dbpedia.org/class/yago/Town108665504
p312
aVhttp://dbpedia.org/class/yago/UrbanArea108675967
p313
aVhttp://dbpedia.org/class/yago/YagoGeoEntity
p314
aVhttp://dbpedia.org/class/yago/YagoLegalActorGeo
p315
aVhttp://dbpedia.org/class/yago/GeographicalArea108574314
p316
aVhttp://dbpedia.org/class/yago/Municipality108626283
p317
aVhttp://dbpedia.org/class/yago/PhysicalEntity100001930
p318
aVhttp://dbpedia.org/class/yago/YagoPermanentlyLocatedEntity
p319
aVhttp://dbpedia.org/class/yago/TownsInWorcesterCounty,Massachusetts
p320
aVhttp://dbpedia.org/resource/Milford,_Massachusetts
tp321
aa(lp322
a(lp323
aa(lp324
(lp325
a(lp326
((lp327
Vhttp://www.w3.org/2002/07/owl#Thing
p328
aVhttp://dbpedia.org/ontology/Place
p329
aVhttp://dbpedia.org/ontology/Location
p330
aVhttp://www.wikidata.org/entity/Q486972
p331
aVhttp://dbpedia.org/ontology/PopulatedPlace
p332
aVhttp://dbpedia.org/ontology/Settlement
p333
aVhttp://www.w3.org/2003/01/geo/wgs84_pos#SpatialThing
p334
aVhttp://schema.org/Place
p335
aVhttp://dbpedia.org/class/yago/AdministrativeDistrict108491826
p336
aVhttp://dbpedia.org/class/yago/District108552138
p337
aVhttp://dbpedia.org/class/yago/Location100027167
p338
aVhttp://dbpedia.org/class/yago/Object100002684
p339
aVhttp://dbpedia.org/class/yago/Region108630985
p340
aVhttp://dbpedia.org/class/yago/Site108651247
p341
aVhttp://dbpedia.org/class/yago/Tract108673395
p342
aVhttp://dbpedia.org/class/yago/YagoGeoEntity
p343
aVhttp://dbpedia.org/class/yago/YagoLegalActorGeo
p344
aVhttp://dbpedia.org/class/yago/Census-designatedPlacesInAdamsCounty,Pennsylvania
p345
aVhttp://dbpedia.org/class/yago/GeographicalArea108574314
p346
aVhttp://dbpedia.org/class/yago/PhysicalEntity100001930
p347
aVhttp://dbpedia.org/class/yago/YagoPermanentlyLocatedEntity
p348
aVhttp://dbpedia.org/resource/Orrtanna,_Pennsylvania
tp349
aa(lp350
a(lp351
aa(lp352
(lp353
a(lp354
((lp355
Vhttp://www.w3.org/2002/07/owl#Thing
p356
aVhttp://dbpedia.org/ontology/Place
p357
aVhttp://dbpedia.org/ontology/Location
p358
aVhttp://www.wikidata.org/entity/Q486972
p359
aVhttp://www.wikidata.org/entity/Q515
p360
aVhttp://dbpedia.org/ontology/City
p361
aVhttp://dbpedia.org/ontology/PopulatedPlace
p362
aVhttp://dbpedia.org/ontology/Settlement
p363
aVhttp://www.w3.org/2003/01/geo/wgs84_pos#SpatialThing
p364
aVhttp://schema.org/City
p365
aVhttp://schema.org/Place
p366
aVhttp://umbel.org/umbel/rc/City
p367
aVhttp://umbel.org/umbel/rc/Location_Underspecified
p368
aVhttp://umbel.org/umbel/rc/PopulatedPlace
p369
aVhttp://umbel.org/umbel/rc/Village
p370
aVhttp://dbpedia.org/class/yago/AdministrativeDistrict108491826
p371
aVhttp://dbpedia.org/class/yago/Area108497294
p372
aVhttp://dbpedia.org/class/yago/Capital108518505
p373
aVhttp://dbpedia.org/class/yago/Center108523483
p374
aVhttp://dbpedia.org/class/yago/City108524735
p375
aVhttp://dbpedia.org/class/yago/District108552138
p376
aVhttp://dbpedia.org/class/yago/Location100027167
p377
aVhttp://dbpedia.org/class/yago/Object100002684
p378
aVhttp://dbpedia.org/class/yago/Region108630985
p379
aVhttp://dbpedia.org/class/yago/Seat108647945
p380
aVhttp://dbpedia.org/class/yago/Site108651247
p381
aVhttp://dbpedia.org/class/yago/Tract108673395
p382
aVhttp://dbpedia.org/class/yago/UrbanArea108675967
p383
aVhttp://dbpedia.org/class/yago/YagoGeoEntity
p384
aVhttp://dbpedia.org/class/yago/YagoLegalActorGeo
p385
aVhttp://dbpedia.org/class/yago/CitiesInPennsylvania
p386
aVhttp://dbpedia.org/class/yago/CountySeat108547143
p387
aVhttp://dbpedia.org/class/yago/CountySeatsInPennsylvania
p388
aVhttp://dbpedia.org/class/yago/FormerCapitalsOfTheUnitedStates
p389
aVhttp://dbpedia.org/class/yago/FormerUnitedStatesStateCapitals
p390
aVhttp://dbpedia.org/class/yago/GeographicalArea108574314
p391
aVhttp://dbpedia.org/class/yago/Municipality108626283
p392
aVhttp://dbpedia.org/class/yago/PhysicalEntity100001930
p393
aVhttp://dbpedia.org/class/yago/StateCapital108695539
p394
aVhttp://dbpedia.org/class/yago/YagoPermanentlyLocatedEntity
p395
aVhttp://dbpedia.org/class/yago/PlannedCitiesInTheUnitedStates
p396
aVhttp://dbpedia.org/class/yago/PopulatedPlacesEstablishedIn1682
p397
aVhttp://dbpedia.org/class/yago/PopulatedPlacesInTheUnitedStatesWithAfricanAmericanPluralityPopulations
p398
aVhttp://dbpedia.org/class/yago/PopulatedPlacesOnTheSchuylkillRiver
p399
aVhttp://dbpedia.org/class/yago/PortSettlementsInTheUnitedStates
p400
aVhttp://dbpedia.org/resource/Philadelphia
tp401
aa(lp402
a(lp403
aa(lp404
(lp405
a(lp406
((lp407
Vhttp://www.w3.org/2002/07/owl#Thing
p408
aVhttp://dbpedia.org/ontology/Place
p409
aVhttp://dbpedia.org/ontology/Location
p410
aVhttp://www.wikidata.org/entity/Q486972
p411
aVhttp://www.wikidata.org/entity/Q515
p412
aVhttp://dbpedia.org/ontology/City
p413
aVhttp://dbpedia.org/ontology/PopulatedPlace
p414
aVhttp://dbpedia.org/ontology/Settlement
p415
aVhttp://www.w3.org/2003/01/geo/wgs84_pos#SpatialThing
p416
aVhttp://schema.org/City
p417
aVhttp://schema.org/Place
p418
aVhttp://umbel.org/umbel/rc/City
p419
aVhttp://umbel.org/umbel/rc/Location_Underspecified
p420
aVhttp://umbel.org/umbel/rc/PopulatedPlace
p421
aVhttp://umbel.org/umbel/rc/Village
p422
aVhttp://dbpedia.org/class/yago/AdministrativeDistrict108491826
p423
aVhttp://dbpedia.org/class/yago/Area108497294
p424
aVhttp://dbpedia.org/class/yago/Capital108518505
p425
aVhttp://dbpedia.org/class/yago/Center108523483
p426
aVhttp://dbpedia.org/class/yago/City108524735
p427
aVhttp://dbpedia.org/class/yago/District108552138
p428
aVhttp://dbpedia.org/class/yago/Location100027167
p429
aVhttp://dbpedia.org/class/yago/Object100002684
p430
aVhttp://dbpedia.org/class/yago/Region108630985
p431
aVhttp://dbpedia.org/class/yago/Seat108647945
p432
aVhttp://dbpedia.org/class/yago/Site108651247
p433
aVhttp://dbpedia.org/class/yago/Tract108673395
p434
aVhttp://dbpedia.org/class/yago/UrbanArea108675967
p435
aVhttp://dbpedia.org/class/yago/YagoGeoEntity
p436
aVhttp://dbpedia.org/class/yago/YagoLegalActorGeo
p437
aVhttp://dbpedia.org/class/yago/CitiesInPennsylvania
p438
aVhttp://dbpedia.org/class/yago/CountySeat108547143
p439
aVhttp://dbpedia.org/class/yago/CountySeatsInPennsylvania
p440
aVhttp://dbpedia.org/class/yago/FormerCapitalsOfTheUnitedStates
p441
aVhttp://dbpedia.org/class/yago/FormerUnitedStatesStateCapitals
p442
aVhttp://dbpedia.org/class/yago/GeographicalArea108574314
p443
aVhttp://dbpedia.org/class/yago/Municipality108626283
p444
aVhttp://dbpedia.org/class/yago/PhysicalEntity100001930
p445
aVhttp://dbpedia.org/class/yago/StateCapital108695539
p446
aVhttp://dbpedia.org/class/yago/YagoPermanentlyLocatedEntity
p447
aVhttp://dbpedia.org/class/yago/PlannedCitiesInTheUnitedStates
p448
aVhttp://dbpedia.org/class/yago/PopulatedPlacesEstablishedIn1682
p449
aVhttp://dbpedia.org/class/yago/PopulatedPlacesInTheUnitedStatesWithAfricanAmericanPluralityPopulations
p450
aVhttp://dbpedia.org/class/yago/PopulatedPlacesOnTheSchuylkillRiver
p451
aVhttp://dbpedia.org/class/yago/PortSettlementsInTheUnitedStates
p452
aVhttp://dbpedia.org/resource/Philadelphia
tp453
aa(lp454
a(lp455
aa(lp456
(lp457
a(lp458
((lp459
Vhttp://www.w3.org/2002/07/owl#Thing
p460
aVhttp://dbpedia.org/ontology/Place
p461
aVhttp://dbpedia.org/ontology/Location
p462
aVhttp://www.wikidata.org/entity/Q486972
p463
aVhttp://www.wikidata.org/entity/Q515
p464
aVhttp://dbpedia.org/ontology/City
p465
aVhttp://dbpedia.org/ontology/PopulatedPlace
p466
aVhttp://dbpedia.org/ontology/Settlement
p467
aVhttp://www.w3.org/2003/01/geo/wgs84_pos#SpatialThing
p468
aVhttp://schema.org/City
p469
aVhttp://schema.org/Place
p470
aVhttp://umbel.org/umbel/rc/City
p471
aVhttp://umbel.org/umbel/rc/Location_Underspecified
p472
aVhttp://umbel.org/umbel/rc/PopulatedPlace
p473
aVhttp://umbel.org/umbel/rc/Village
p474
aVhttp://dbpedia.org/class/yago/AdministrativeDistrict108491826
p475
aVhttp://dbpedia.org/class/yago/Area108497294
p476
aVhttp://dbpedia.org/class/yago/Capital108518505
p477
aVhttp://dbpedia.org/class/yago/Center108523483
p478
aVhttp://dbpedia.org/class/yago/City108524735
p479
aVhttp://dbpedia.org/class/yago/District108552138
p480
aVhttp://dbpedia.org/class/yago/Location100027167
p481
aVhttp://dbpedia.org/class/yago/Object100002684
p482
aVhttp://dbpedia.org/class/yago/Region108630985
p483
aVhttp://dbpedia.org/class/yago/Seat108647945
p484
aVhttp://dbpedia.org/class/yago/Site108651247
p485
aVhttp://dbpedia.org/class/yago/Tract108673395
p486
aVhttp://dbpedia.org/class/yago/UrbanArea108675967
p487
aVhttp://dbpedia.org/class/yago/YagoGeoEntity
p488
aVhttp://dbpedia.org/class/yago/YagoLegalActorGeo
p489
aVhttp://dbpedia.org/class/yago/CitiesInPennsylvania
p490
aVhttp://dbpedia.org/class/yago/CountySeat108547143
p491
aVhttp://dbpedia.org/class/yago/CountySeatsInPennsylvania
p492
aVhttp://dbpedia.org/class/yago/FormerCapitalsOfTheUnitedStates
p493
aVhttp://dbpedia.org/class/yago/FormerUnitedStatesStateCapitals
p494
aVhttp://dbpedia.org/class/yago/GeographicalArea108574314
p495
aVhttp://dbpedia.org/class/yago/Municipality108626283
p496
aVhttp://dbpedia.org/class/yago/PhysicalEntity100001930
p497
aVhttp://dbpedia.org/class/yago/StateCapital108695539
p498
aVhttp://dbpedia.org/class/yago/YagoPermanentlyLocatedEntity
p499
aVhttp://dbpedia.org/class/yago/PlannedCitiesInTheUnitedStates
p500
aVhttp://dbpedia.org/class/yago/PopulatedPlacesEstablishedIn1682
p501
aVhttp://dbpedia.org/class/yago/PopulatedPlacesInTheUnitedStatesWithAfricanAmericanPluralityPopulations
p502
aVhttp://dbpedia.org/class/yago/PopulatedPlacesOnTheSchuylkillRiver
p503
aVhttp://dbpedia.org/class/yago/PortSettlementsInTheUnitedStates
p504
aVhttp://dbpedia.org/resource/Philadelphia
p505
tp506
aa(lp507
a(lp508
aa(lp509
(lp510
a(lp511
a(lp512
a(lp513
aa(lp514
(lp515
a(lp516
a(lp517
a(lp518
aa.