(lp1
(lp2
(dp3
Vstart
p4
I0
sVdisambiguatedURL
p5
NsVnamedEntity
p6
V2.
p7
sVoffset
p8
I2
saa(lp9
(dp10
Vstart
p11
I0
sVdisambiguatedURL
p12
NsVnamedEntity
p13
V3.
p14
sVoffset
p15
I2
saa(lp16
(dp17
Vstart
p18
I0
sVdisambiguatedURL
p19
NsVnamedEntity
p20
V4.
p21
sVoffset
p22
I2
saa(lp23
(dp24
Vstart
p25
I0
sVdisambiguatedURL
p26
NsVnamedEntity
p27
V5.
p28
sVoffset
p29
I2
saa(lp30
(dp31
Vstart
p32
I0
sVdisambiguatedURL
p33
NsVnamedEntity
p34
V
sVoffset
p35
I0
saa(lp36
(dp37
Vstart
p38
I0
sVdisambiguatedURL
p39
NsVnamedEntity
p40
V
sVoffset
p41
I0
saa(lp42
(dp43
Vstart
p44
I0
sVdisambiguatedURL
p45
NsVnamedEntity
p46
V
sVoffset
p47
I0
saa(lp48
(dp49
Vstart
p50
I0
sVdisambiguatedURL
p51
NsVnamedEntity
p52
V
sVoffset
p53
I0
saa(lp54
(dp55
Vstart
p56
I0
sVdisambiguatedURL
p57
NsVnamedEntity
p58
V
sVoffset
p59
I0
saa(lp60
(dp61
Vstart
p62
I0
sVdisambiguatedURL
p63
NsVnamedEntity
p64
V
sVoffset
p65
I0
saa(lp66
(dp67
Vstart
p68
I0
sVdisambiguatedURL
p69
NsVnamedEntity
p70
V
sVoffset
p71
I0
saa(lp72
(dp73
Vstart
p74
I0
sVdisambiguatedURL
p75
NsVnamedEntity
p76
V6.
p77
sVoffset
p78
I2
saa(lp79
(dp80
Vstart
p81
I0
sVdisambiguatedURL
p82
NsVnamedEntity
p83
V
sVoffset
p84
I0
saa(lp85
(dp86
Vstart
p87
I0
sVdisambiguatedURL
p88
NsVnamedEntity
p89
V
sVoffset
p90
I0
saa(lp91
(dp92
Vstart
p93
I0
sVdisambiguatedURL
p94
NsVnamedEntity
p95
V7.
p96
sVoffset
p97
I2
saa(lp98
(dp99
Vstart
p100
I0
sVdisambiguatedURL
p101
NsVnamedEntity
p102
V
sVoffset
p103
I0
saa(lp104
(dp105
Vstart
p106
I0
sVdisambiguatedURL
p107
NsVnamedEntity
p108
V
sVoffset
p109
I0
saa(lp110
(dp111
Vstart
p112
I0
sVdisambiguatedURL
p113
NsVnamedEntity
p114
V
sVoffset
p115
I0
saa(lp116
(dp117
Vstart
p118
I0
sVdisambiguatedURL
p119
NsVnamedEntity
p120
V8.
p121
sVoffset
p122
I2
saa(lp123
(dp124
Vstart
p125
I0
sVdisambiguatedURL
p126
NsVnamedEntity
p127
V9.
p128
sVoffset
p129
I2
saa.