(lp1
(lp2
(dp3
Vstart
p4
I0
sVdisambiguatedURL
p5
NsVnamedEntity
p6
VDavid Joel DukesEAST DUBLIN GA
p7
sVoffset
p8
I30
saa(lp9
(dp10
Vstart
p11
I0
sVdisambiguatedURL
p12
NsVnamedEntity
p13
VDavid H DukesSPRING HILL TN
p14
sVoffset
p15
I27
saa(lp16
(dp17
Vstart
p18
I0
sVdisambiguatedURL
p19
NsVnamedEntity
p20
VDavid L DukesATLANTA GA
p21
sVoffset
p22
I23
saa(lp23
(dp24
Vstart
p25
I0
sVdisambiguatedURL
p26
NsVnamedEntity
p27
VDavid K DukesMARYVILLE TN
p28
sVoffset
p29
I25
saa(lp30
(dp31
Vstart
p32
I0
sVdisambiguatedURL
p33
NsVnamedEntity
p34
VDavid DukesLAKE OSWEGO OR
p35
sVoffset
p36
I25
saa(lp37
(dp38
Vstart
p39
I0
sVdisambiguatedURL
p40
NsVnamedEntity
p41
VDavid C DukesCOLQUITT GA
p42
sVoffset
p43
I24
saa(lp44
(dp45
Vstart
p46
I0
sVdisambiguatedURL
p47
NsVnamedEntity
p48
VDavid Lamar DukesSULPHUR LA
p49
sVoffset
p50
I27
saa(lp51
(dp52
Vstart
p53
I0
sVdisambiguatedURL
p54
NsVnamedEntity
p55
VDavid H DukesHOLLY SPRINGS MS
p56
sVoffset
p57
I29
saa(lp58
(dp59
Vstart
p60
I0
sVdisambiguatedURL
p61
NsVnamedEntity
p62
VDavid B DukesOAKRIDGE OR
p63
sVoffset
p64
I24
saa(lp65
(dp66
Vstart
p67
I0
sVdisambiguatedURL
p68
NsVnamedEntity
p69
VDavid B DukesROANOKE TX
p70
sVoffset
p71
I23
saa.