(lp1
(dp2
I0
(dp3
I0
(lp4
sI1
(lp5
Vhttp://dbpedia.org/property/placeOfDeath
p6
aVhttp://dbpedia.org/property/broadcastArea
p7
aVhttp://dbpedia.org/property/burial
p8
aVhttp://dbpedia.org/ontology/officialLanguage
p9
aVhttp://dbpedia.org/ontology/regionServed
p10
aVhttp://dbpedia.org/ontology/country
p11
aVhttp://www.w3.org/1999/02/22-rdf-syntax-ns#type
p12
aVhttp://dbpedia.org/ontology/place
p13
aVhttp://dbpedia.org/ontology/ethnicGroup
p14
aVhttp://dbpedia.org/property/country
p15
aVhttp://purl.org/dc/terms/subject
p16
aVhttp://dbpedia.org/ontology/abstract
p17
aVhttp://dbpedia.org/property/regionServed
p18
aVhttp://dbpedia.org/property/deathPlace
p19
aVhttp://dbpedia.org/property/location
p20
aVhttp://dbpedia.org/property/states
p21
aVhttp://dbpedia.org/ontology/locationCountry
p22
aVhttp://dbpedia.org/ontology/deathPlace
p23
aVhttp://dbpedia.org/ontology/language
p24
aVhttp://dbpedia.org/ontology/broadcastArea
p25
aVhttp://dbpedia.org/property/basinCountries
p26
aVhttp://dbpedia.org/property/officialLanguages
p27
aVhttp://www.w3.org/2000/01/rdf-schema#comment
p28
aVhttp://dbpedia.org/ontology/spokenIn
p29
asI2
(lp30
Vhttp://dbpedia.org/property/origin
p31
aVhttp://dbpedia.org/property/placeOfDeath
p32
aVhttp://dbpedia.org/property/rd2t6Loc
p33
aVhttp://dbpedia.org/property/almaMater
p34
aVhttp://dbpedia.org/property/hostCity
p35
aVhttp://dbpedia.org/ontology/origin
p36
aVhttp://dbpedia.org/property/place
p37
aVhttp://dbpedia.org/property/stateParty
p38
aVhttp://dbpedia.org/ontology/routeStart
p39
aVhttp://dbpedia.org/ontology/PopulatedPlace/areaTotal
p40
aVhttp://www.w3.org/ns/prov#wasDerivedFrom
p41
aVhttp://dbpedia.org/ontology/fastestDriverCountry
p42
aVhttp://dbpedia.org/ontology/PopulatedPlace/populationDensity
p43
aVhttp://dbpedia.org/ontology/country
p44
aVhttp://dbpedia.org/property/returns
p45
aVhttp://www.w3.org/1999/02/22-rdf-syntax-ns#type
p46
aVhttp://purl.org/voc/vrank#hasRank
p47
aVhttp://dbpedia.org/ontology/ground
p48
aVhttp://dbpedia.org/property/withdraws
p49
aVhttp://dbpedia.org/property/birthPlace
p50
aVhttp://dbpedia.org/ontology/place
p51
aVhttp://dbpedia.org/property/placeOfBirth
p52
aVhttp://dbpedia.org/property/gdpNominalPerCapita
p53
aVhttp://dbpedia.org/property/country
p54
aVhttp://dbpedia.org/property/constituencyMp
p55
aVhttp://dbpedia.org/property/gdpNominal
p56
aVhttp://dbpedia.org/property/lagePolitisch
p57
aVhttp://dbpedia.org/property/nationality
p58
aVhttp://dbpedia.org/ontology/abstract
p59
aVhttp://dbpedia.org/property/rd1t8Loc
p60
aVhttp://dbpedia.org/property/venue
p61
aVhttp://dbpedia.org/property/deathPlace
p62
aVhttp://dbpedia.org/property/location
p63
aVhttp://dbpedia.org/property/cityServed
p64
aVhttp://dbpedia.org/property/gdpPppPerCapita
p65
aVhttp://dbpedia.org/ontology/deathPlace
p66
aVhttp://dbpedia.org/property/rd2t4Loc
p67
aVhttp://dbpedia.org/property/namedAfter
p68
aVhttp://dbpedia.org/property/usedBy
p69
aVhttp://dbpedia.org/property/worldPlace
p70
aVhttp://dbpedia.org/property/subdivisionName
p71
aVhttp://dbpedia.org/property/nationalOrigin
p72
aVhttp://dbpedia.org/property/locale
p73
aVhttp://dbpedia.org/property/basinCountries
p74
aVhttp://www.georss.org/georss/point
p75
aVhttp://dbpedia.org/ontology/location
p76
aVhttp://www.w3.org/2000/01/rdf-schema#comment
p77
aVhttp://dbpedia.org/ontology/birthPlace
p78
aVhttp://dbpedia.org/property/countries
p79
aVhttp://dbpedia.org/ontology/wikiPageRedirects
p80
aVhttp://dbpedia.org/property/olympicPlace
p81
aVhttp://dbpedia.org/property/area
p82
aVhttp://dbpedia.org/property/rd1t1Loc
p83
aVhttp://dbpedia.org/property/rd2t5Loc
p84
aVhttp://dbpedia.org/property/rd2t8Loc
p85
aVhttp://www.w3.org/2002/07/owl#sameAs
p86
aVhttp://dbpedia.org/property/regionServed
p87
aVhttp://dbpedia.org/property/debuts
p88
aVhttp://dbpedia.org/property/jurisdiction
p89
aVhttp://dbpedia.org/property/asianPlace
p90
aVhttp://dbpedia.org/property/stadium
p91
aVhttp://dbpedia.org/ontology/homeStadium
p92
asI3
(lp93
sI4
(lp94
sI5
(lp95
ssI1
(dp96
I0
g5
sI1
(lp97
sI2
(lp98
Vhttp://dbpedia.org/property/origin
p99
aVhttp://dbpedia.org/property/placeOfDeath
p100
aVhttp://dbpedia.org/ontology/PopulatedPlace/areaTotal
p101
aVhttp://dbpedia.org/ontology/garrison
p102
aVhttp://dbpedia.org/property/ethnicity
p103
aVhttp://www.w3.org/ns/prov#wasDerivedFrom
p104
aVhttp://dbpedia.org/ontology/fastestDriverCountry
p105
aVhttp://dbpedia.org/property/areaRank
p106
aVhttp://dbpedia.org/property/lage
p107
aVhttp://dbpedia.org/property/assembly
p108
aVhttp://dbpedia.org/property/shortDescription
p109
aVhttp://dbpedia.org/property/placeOfBirth
p110
aVhttp://dbpedia.org/property/nationality
p111
aVhttp://dbpedia.org/ontology/abstract
p112
aVhttp://dbpedia.org/ontology/recordedIn
p113
aVhttp://dbpedia.org/property/venue
p114
aVhttp://dbpedia.org/property/gdpPpp
p115
aVhttp://dbpedia.org/property/usedBy
p116
aVhttp://dbpedia.org/property/nationalOrigin
p117
aVhttp://www.georss.org/georss/point
p118
aVhttp://dbpedia.org/property/shipBuilder
p119
aVhttp://dbpedia.org/ontology/location
p120
aVhttp://dbpedia.org/property/city
p121
aVhttp://dbpedia.org/property/countries
p122
aVhttp://dbpedia.org/ontology/hometown
p123
aVhttp://dbpedia.org/ontology/restingPlace
p124
aVhttp://dbpedia.org/property/dateOfDeath
p125
aVhttp://www.w3.org/2000/01/rdf-schema#seeAlso
p126
aVhttp://dbpedia.org/property/hostCity
p127
aVhttp://dbpedia.org/property/deathDate
p128
aVhttp://dbpedia.org/property/birthplace
p129
aVhttp://dbpedia.org/property/placeOfBurial
p130
aVhttp://dbpedia.org/property/site
p131
aVhttp://dbpedia.org/ontology/country
p132
aVhttp://dbpedia.org/property/region
p133
aVhttp://dbpedia.org/property/rd1t5Loc
p134
aVhttp://dbpedia.org/property/birthPlace
p135
aVhttp://dbpedia.org/property/stateParty
p136
aVhttp://dbpedia.org/property/country
p137
aVhttp://dbpedia.org/ontology/wikiPageExternalLink
p138
aVhttp://dbpedia.org/property/dateOfBirth
p139
aVhttp://dbpedia.org/ontology/firstDriverCountry
p140
aVhttp://dbpedia.org/property/madeIn
p141
aVhttp://dbpedia.org/property/worldPlaceQ
p142
aVhttp://dbpedia.org/property/states
p143
aVhttp://dbpedia.org/ontology/builder
p144
aVhttp://dbpedia.org/ontology/homeStadium
p145
aVhttp://dbpedia.org/property/headquarters
p146
aVhttp://dbpedia.org/ontology/birthPlace
p147
aVhttp://dbpedia.org/ontology/wikiPageRedirects
p148
aVhttp://purl.org/voc/vrank#hasRank
p149
aVhttp://dbpedia.org/property/citizenship
p150
aVhttp://dbpedia.org/property/rd3t4Loc
p151
aVhttp://dbpedia.org/property/host
p152
aVhttp://dbpedia.org/property/garrison
p153
aVhttp://www.w3.org/2002/07/owl#sameAs
p154
aVhttp://dbpedia.org/ontology/deathPlace
p155
aVhttp://dbpedia.org/ontology/origin
p156
aVhttp://dbpedia.org/property/worldPlace
p157
aVhttp://dbpedia.org/property/residence
p158
aVhttp://www.w3.org/1999/02/22-rdf-syntax-ns#type
p159
aVhttp://dbpedia.org/property/locationCountry
p160
aVhttp://dbpedia.org/ontology/secondDriverCountry
p161
aVhttp://dbpedia.org/ontology/ground
p162
aVhttp://dbpedia.org/property/winnerOrigin
p163
aVhttp://dbpedia.org/property/shipCountry
p164
aVhttp://dbpedia.org/ontology/city
p165
aVhttp://dbpedia.org/property/destination
p166
aVhttp://dbpedia.org/property/locationCity
p167
aVhttp://dbpedia.org/property/stadium
p168
aVhttp://dbpedia.org/property/place
p169
aVhttp://dbpedia.org/property/debuts
p170
aVhttp://dbpedia.org/ontology/thirdDriverCountry
p171
aVhttp://dbpedia.org/ontology/PopulatedPlace/populationDensity
p172
aVhttp://dbpedia.org/property/asianPlaceQ
p173
aVhttp://dbpedia.org/ontology/place
p174
aVhttp://dbpedia.org/property/asianPlaceF
p175
aVhttp://dbpedia.org/property/deathPlace
p176
aVhttp://dbpedia.org/property/cityServed
p177
aVhttp://dbpedia.org/property/rd3t2Loc
p178
aVhttp://dbpedia.org/property/worldPlaceF
p179
aVhttp://dbpedia.org/ontology/language
p180
aVhttp://dbpedia.org/property/locale
p181
aVhttp://dbpedia.org/property/basinCountries
p182
aVhttp://dbpedia.org/property/asianPlace
p183
aVhttp://dbpedia.org/ontology/assembly
p184
aVhttp://www.w3.org/2000/01/rdf-schema#comment
p185
aVhttp://dbpedia.org/property/location
p186
asI3
(lp187
sI4
(lp188
sI5
(lp189
ssI2
(dp190
I0
g30
sI1
g98
sI2
(lp191
sI3
(lp192
sI4
(lp193
sI5
(lp194
ssI3
(dp195
I0
g93
sI1
g187
sI2
g192
sI3
(lp196
sI4
(lp197
sI5
(lp198
ssI4
(dp199
I0
g94
sI1
g188
sI2
g193
sI4
(lp200
sI5
(lp201
ssI5
(dp202
I0
g95
sI1
g189
sI2
g194
sI5
(lp203
ssa(dp204
I0
(dp205
I0
(lp206
sI1
(lp207
Vhttp://dbpedia.org/property/placeOfDeath
p208
aVhttp://dbpedia.org/ontology/restingPlace
p209
aVhttp://dbpedia.org/ontology/deathPlace
p210
asI2
(lp211
sI3
(lp212
sI4
(lp213
sI5
(lp214
ssI1
(dp215
I0
g207
sI1
(lp216
sI2
(lp217
sI3
(lp218
sI4
(lp219
sI5
(lp220
ssI2
(dp221
I0
g211
sI1
g217
sI2
(lp222
sI3
(lp223
sI4
(lp224
sI5
(lp225
ssI3
(dp226
I0
g212
sI1
g218
sI3
(lp227
sI4
(lp228
sI5
(lp229
ssI4
(dp230
I0
g213
sI1
g219
sI4
(lp231
sI5
(lp232
ssI5
(dp233
I0
g214
sI1
g220
sI5
(lp234
ssa(dp235
I0
(dp236
I0
(lp237
sI1
(lp238
Vhttp://dbpedia.org/ontology/abstract
p239
aVhttp://dbpedia.org/property/waterbody
p240
aVhttp://www.w3.org/2000/01/rdf-schema#comment
p241
asI2
(lp242
sI3
(lp243
sI4
(lp244
sI5
(lp245
ssI1
(dp246
I0
g238
sI1
(lp247
sI2
(lp248
sI3
(lp249
sI4
(lp250
sI5
(lp251
ssI2
(dp252
I0
g242
sI1
g248
sI2
(lp253
sI3
(lp254
sI4
(lp255
sI5
(lp256
ssI3
(dp257
I0
g243
sI1
g249
sI3
(lp258
sI4
(lp259
sI5
(lp260
ssI4
(dp261
I0
g244
sI1
g250
sI4
(lp262
sI5
(lp263
ssI5
(dp264
I0
g245
sI1
g251
sI5
(lp265
ssa(dp266
I0
(dp267
I0
(lp268
sI1
(lp269
sI2
(lp270
sI3
(lp271
sI4
(lp272
sI5
(lp273
ssI1
(dp274
I0
g269
sI1
(lp275
sI2
(lp276
sI3
(lp277
sI4
(lp278
sI5
(lp279
ssI2
(dp280
I0
g270
sI1
g276
sI2
(lp281
sI3
(lp282
sI4
(lp283
sI5
(lp284
ssI3
(dp285
I0
g271
sI1
g277
sI3
(lp286
sI4
(lp287
sI5
(lp288
ssI4
(dp289
I0
g272
sI1
g278
sI4
(lp290
sI5
(lp291
ssI5
(dp292
I0
g273
sI1
g279
sI5
(lp293
ssa(dp294
I0
(dp295
I0
(lp296
sI1
(lp297
Vhttp://dbpedia.org/ontology/abstract
p298
asI2
(lp299
sI3
(lp300
sI4
(lp301
sI5
(lp302
ssI1
(dp303
I0
g297
sI1
(lp304
sI2
(lp305
sI3
(lp306
sI4
(lp307
sI5
(lp308
ssI2
(dp309
I0
g299
sI1
g305
sI2
(lp310
sI3
(lp311
sI4
(lp312
sI5
(lp313
ssI3
(dp314
I0
g300
sI1
g306
sI3
(lp315
sI4
(lp316
sI5
(lp317
ssI4
(dp318
I0
g301
sI1
g307
sI4
(lp319
sI5
(lp320
ssI5
(dp321
I0
g302
sI1
g308
sI5
(lp322
ssa(dp323
I0
(dp324
I0
(lp325
sI1
(lp326
sI2
(lp327
sI3
(lp328
sI4
(lp329
sI5
(lp330
ssI1
(dp331
I0
g326
sI1
(lp332
sI2
(lp333
sI3
(lp334
sI4
(lp335
sI5
(lp336
ssI2
(dp337
I0
g327
sI1
g333
sI2
(lp338
sI3
(lp339
sI4
(lp340
sI5
(lp341
ssI3
(dp342
I0
g328
sI1
g334
sI3
(lp343
sI4
(lp344
sI5
(lp345
ssI4
(dp346
I0
g329
sI1
g335
sI4
(lp347
sI5
(lp348
ssI5
(dp349
I0
g330
sI1
g336
sI5
(lp350
ssa(dp351
I0
(dp352
I0
(lp353
sI1
(lp354
sI2
(lp355
Vhttp://dbpedia.org/property/origin
p356
aVhttp://dbpedia.org/property/rd3Team
p357
aVhttp://dbpedia.org/property/twin5Country
p358
aVhttp://dbpedia.org/ontology/regionServed
p359
aVhttp://dbpedia.org/property/assembly
p360
aVhttp://dbpedia.org/property/placeOfBirth
p361
aVhttp://dbpedia.org/property/rallybase
p362
aVhttp://dbpedia.org/ontology/abstract
p363
aVhttp://dbpedia.org/ontology/recordedIn
p364
aVhttp://dbpedia.org/property/venue
p365
aVhttp://dbpedia.org/property/gdpPpp
p366
aVhttp://dbpedia.org/property/usedBy
p367
aVhttp://dbpedia.org/property/nationalOrigin
p368
aVhttp://www.georss.org/georss/point
p369
aVhttp://dbpedia.org/property/shipBuilder
p370
aVhttp://dbpedia.org/ontology/location
p371
aVhttp://dbpedia.org/property/before
p372
aVhttp://dbpedia.org/ontology/hometown
p373
aVhttp://dbpedia.org/property/builders
p374
aVhttp://www.w3.org/2000/01/rdf-schema#seeAlso
p375
aVhttp://dbpedia.org/property/rd2t6Loc
p376
aVhttp://dbpedia.org/property/hostCity
p377
aVhttp://dbpedia.org/property/2rpt2Loc
p378
aVhttp://dbpedia.org/property/birthplace
p379
aVhttp://dbpedia.org/property/genre
p380
aVhttp://dbpedia.org/property/rd2t3Loc
p381
aVhttp://dbpedia.org/property/site
p382
aVhttp://dbpedia.org/property/rd1t4Loc
p383
aVhttp://dbpedia.org/ontology/country
p384
aVhttp://dbpedia.org/property/returns
p385
aVhttp://dbpedia.org/property/home
p386
aVhttp://dbpedia.org/property/rd1t5Loc
p387
aVhttp://dbpedia.org/property/birthPlace
p388
aVhttp://dbpedia.org/property/title
p389
aVhttp://dbpedia.org/property/country
p390
aVhttp://dbpedia.org/ontology/assembly
p391
aVhttp://dbpedia.org/property/areaServed
p392
aVhttp://dbpedia.org/property/areasAffected
p393
aVhttp://dbpedia.org/ontology/wikiPageExternalLink
p394
aVhttp://dbpedia.org/ontology/locationCountry
p395
aVhttp://dbpedia.org/ontology/deathPlace
p396
aVhttp://dbpedia.org/property/rd2t4Loc
p397
aVhttp://dbpedia.org/ontology/genre
p398
aVhttp://dbpedia.org/property/headquarters
p399
aVhttp://dbpedia.org/ontology/birthPlace
p400
aVhttp://dbpedia.org/ontology/wikiPageRedirects
p401
aVhttp://purl.org/voc/vrank#hasRank
p402
aVhttp://dbpedia.org/property/asianPlace
p403
aVhttp://www.w3.org/2002/07/owl#sameAs
p404
aVhttp://dbpedia.org/property/twin1Country
p405
aVhttp://dbpedia.org/ontology/origin
p406
aVhttp://dbpedia.org/property/populationDensityRank
p407
aVhttp://dbpedia.org/property/worldPlace
p408
aVhttp://www.w3.org/1999/02/22-rdf-syntax-ns#type
p409
aVhttp://dbpedia.org/property/bronze
p410
aVhttp://dbpedia.org/property/locationCountry
p411
aVhttp://dbpedia.org/property/rd1t2Loc
p412
aVhttp://dbpedia.org/property/withdraws
p413
aVhttp://dbpedia.org/property/namedAfter
p414
aVhttp://dbpedia.org/property/shipCountry
p415
aVhttp://dbpedia.org/property/gdpNominal
p416
aVhttp://dbpedia.org/property/rd1t8Loc
p417
aVhttp://dbpedia.org/property/rd2t7Loc
p418
aVhttp://dbpedia.org/ontology/city
p419
aVhttp://dbpedia.org/ontology/homeport
p420
aVhttp://dbpedia.org/property/rd1t3Loc
p421
aVhttp://dbpedia.org/property/stadium
p422
aVhttp://dbpedia.org/property/place
p423
aVhttp://dbpedia.org/property/debuts
p424
aVhttp://dbpedia.org/ontology/PopulatedPlace/populationDensity
p425
aVhttp://dbpedia.org/property/asianPlaceQ
p426
aVhttp://dbpedia.org/ontology/nearestCity
p427
aVhttp://dbpedia.org/property/2rpt1Loc
p428
aVhttp://dbpedia.org/ontology/place
p429
aVhttp://purl.org/dc/terms/subject
p430
aVhttp://dbpedia.org/property/rd2t2Loc
p431
aVhttp://dbpedia.org/property/location
p432
aVhttp://dbpedia.org/property/date
p433
aVhttp://dbpedia.org/property/rd3t2Loc
p434
aVhttp://dbpedia.org/ontology/headquarter
p435
aVhttp://dbpedia.org/ontology/language
p436
aVhttp://dbpedia.org/property/shipRegistry
p437
aVhttp://dbpedia.org/property/moreUsers
p438
aVhttp://dbpedia.org/property/rd2t1Loc
p439
aVhttp://www.w3.org/2000/01/rdf-schema#comment
p440
aVhttp://dbpedia.org/property/olympicPlace
p441
aVhttp://dbpedia.org/property/rd3t1Loc
p442
aVhttp://dbpedia.org/property/shipHomeport
p443
aVhttp://dbpedia.org/ontology/builder
p444
asI3
(lp445
Vhttp://dbpedia.org/property/origin
p446
aVhttp://dbpedia.org/ontology/wikiPageExternalLink
p447
aVhttp://dbpedia.org/property/recorded
p448
aVhttp://dbpedia.org/property/rd3Team
p449
aVhttp://dbpedia.org/property/hostCity
p450
aVhttp://dbpedia.org/ontology/origin
p451
aVhttp://dbpedia.org/property/gdpPpp
p452
aVhttp://dbpedia.org/property/populationDensityRank
p453
aVhttp://dbpedia.org/ontology/foundationPlace
p454
aVhttp://dbpedia.org/ontology/PopulatedPlace/areaTotal
p455
aVhttp://dbpedia.org/property/birthplace
p456
aVhttp://dbpedia.org/ontology/city
p457
aVhttp://www.w3.org/ns/prov#wasDerivedFrom
p458
aVhttp://dbpedia.org/property/utcOffset
p459
aVhttp://dbpedia.org/property/rd2t3Loc
p460
aVhttp://dbpedia.org/ontology/PopulatedPlace/populationDensity
p461
aVhttp://dbpedia.org/ontology/country
p462
aVhttp://dbpedia.org/property/returns
p463
aVhttp://www.w3.org/1999/02/22-rdf-syntax-ns#type
p464
aVhttp://dbpedia.org/property/2rpt1Loc
p465
aVhttp://dbpedia.org/property/bronze
p466
aVhttp://purl.org/voc/vrank#hasRank
p467
aVhttp://www.w3.org/2002/07/owl#sameAs
p468
aVhttp://dbpedia.org/property/home
p469
aVhttp://dbpedia.org/property/genre
p470
aVhttp://dbpedia.org/property/assembly
p471
aVhttp://dbpedia.org/property/rd1t2Loc
p472
aVhttp://dbpedia.org/property/site
p473
aVhttp://dbpedia.org/property/withdraws
p474
aVhttp://dbpedia.org/property/2rpt2Loc
p475
aVhttp://dbpedia.org/property/after
p476
aVhttp://dbpedia.org/property/placeOfBirth
p477
aVhttp://dbpedia.org/property/counties
p478
aVhttp://dbpedia.org/property/country
p479
aVhttp://dbpedia.org/property/rallybase
p480
aVhttp://dbpedia.org/property/title
p481
aVhttp://dbpedia.org/ontology/assembly
p482
aVhttp://dbpedia.org/property/gdpNominal
p483
aVhttp://dbpedia.org/ontology/county
p484
aVhttp://dbpedia.org/ontology/genre
p485
aVhttp://dbpedia.org/property/rd0t1Loc
p486
aVhttp://purl.org/dc/terms/subject
p487
aVhttp://dbpedia.org/property/asianPlaceQ
p488
aVhttp://dbpedia.org/property/rd2t2Loc
p489
aVhttp://dbpedia.org/property/place
p490
aVhttp://dbpedia.org/ontology/abstract
p491
aVhttp://dbpedia.org/ontology/recordedIn
p492
aVhttp://dbpedia.org/property/venue
p493
aVhttp://dbpedia.org/property/location
p494
aVhttp://dbpedia.org/ontology/builder
p495
aVhttp://dbpedia.org/property/rd2t7Loc
p496
aVhttp://dbpedia.org/property/foundation
p497
aVhttp://dbpedia.org/property/usedBy
p498
aVhttp://dbpedia.org/property/debuts
p499
aVhttp://dbpedia.org/ontology/language
p500
aVhttp://dbpedia.org/property/shipRegistry
p501
aVhttp://dbpedia.org/property/locale
p502
aVhttp://dbpedia.org/property/basinCountries
p503
aVhttp://dbpedia.org/property/rd1t3Loc
p504
aVhttp://www.georss.org/georss/point
p505
aVhttp://dbpedia.org/property/shipBuilder
p506
aVhttp://dbpedia.org/property/rd2t1Loc
p507
aVhttp://dbpedia.org/property/worldPlaceF
p508
aVhttp://www.w3.org/2000/01/rdf-schema#comment
p509
aVhttp://dbpedia.org/ontology/birthPlace
p510
aVhttp://dbpedia.org/property/hostcity
p511
aVhttp://dbpedia.org/property/worldPlace
p512
aVhttp://dbpedia.org/property/olympicPlace
p513
aVhttp://dbpedia.org/property/before
p514
aVhttp://dbpedia.org/ontology/hometown
p515
aVhttp://dbpedia.org/property/asianPlace
p516
aVhttp://dbpedia.org/property/silver
p517
aVhttp://dbpedia.org/property/date
p518
aVhttp://dbpedia.org/property/areasAffected
p519
aVhttp://dbpedia.org/property/locationCountry
p520
aVhttp://dbpedia.org/property/stadium
p521
aVhttp://dbpedia.org/ontology/location
p522
asI4
(lp523
Vhttp://dbpedia.org/property/origin
p524
aVhttp://dbpedia.org/property/placeOfDeath
p525
aVhttp://dbpedia.org/property/twin5Country
p526
aVhttp://dbpedia.org/property/city
p527
aVhttp://www.w3.org/ns/prov#wasDerivedFrom
p528
aVhttp://dbpedia.org/property/nation
p529
aVhttp://dbpedia.org/property/assembly
p530
aVhttp://dbpedia.org/property/shortDescription
p531
aVhttp://dbpedia.org/property/placeOfBirth
p532
aVhttp://dbpedia.org/property/nationality
p533
aVhttp://dbpedia.org/ontology/abstract
p534
aVhttp://dbpedia.org/property/venue
p535
aVhttp://dbpedia.org/property/gdpPpp
p536
aVhttp://dbpedia.org/property/usedBy
p537
aVhttp://dbpedia.org/property/shipNamesake
p538
aVhttp://dbpedia.org/property/nationalOrigin
p539
aVhttp://www.georss.org/georss/point
p540
aVhttp://dbpedia.org/property/shipBuilder
p541
aVhttp://dbpedia.org/ontology/location
p542
aVhttp://dbpedia.org/property/countries
p543
aVhttp://dbpedia.org/property/area
p544
aVhttp://dbpedia.org/ontology/hometown
p545
aVhttp://dbpedia.org/property/setIn
p546
aVhttp://dbpedia.org/property/hostCity
p547
aVhttp://dbpedia.org/property/2rpt2Loc
p548
aVhttp://dbpedia.org/property/birthplace
p549
aVhttp://dbpedia.org/property/mouthCountry
p550
aVhttp://dbpedia.org/property/site
p551
aVhttp://dbpedia.org/ontology/country
p552
aVhttp://dbpedia.org/property/returns
p553
aVhttp://dbpedia.org/property/home
p554
aVhttp://dbpedia.org/property/nationalteam
p555
aVhttp://dbpedia.org/property/birthPlace
p556
aVhttp://dbpedia.org/property/stateParty
p557
aVhttp://dbpedia.org/property/country
p558
aVhttp://dbpedia.org/property/areaServed
p559
aVhttp://dbpedia.org/property/areasAffected
p560
aVhttp://dbpedia.org/ontology/wikiPageExternalLink
p561
aVhttp://dbpedia.org/property/location
p562
aVhttp://dbpedia.org/property/states
p563
aVhttp://dbpedia.org/ontology/builder
p564
aVhttp://dbpedia.org/ontology/deathPlace
p565
aVhttp://dbpedia.org/property/rd2t4Loc
p566
aVhttp://dbpedia.org/property/hasPhotoCollection
p567
aVhttp://dbpedia.org/property/headquarters
p568
aVhttp://dbpedia.org/ontology/birthPlace
p569
aVhttp://dbpedia.org/ontology/wikiPageRedirects
p570
aVhttp://dbpedia.org/ontology/PopulatedPlace/areaTotal
p571
aVhttp://dbpedia.org/property/citizenship
p572
aVhttp://dbpedia.org/property/deathPlace
p573
aVhttp://dbpedia.org/property/asianPlace
p574
aVhttp://www.w3.org/2002/07/owl#sameAs
p575
aVhttp://dbpedia.org/property/twin1Country
p576
aVhttp://dbpedia.org/property/recorded
p577
aVhttp://dbpedia.org/ontology/origin
p578
aVhttp://dbpedia.org/property/worldPlace
p579
aVhttp://dbpedia.org/property/residence
p580
aVhttp://www.w3.org/1999/02/22-rdf-syntax-ns#type
p581
aVhttp://dbpedia.org/property/locationCountry
p582
aVhttp://dbpedia.org/ontology/ground
p583
aVhttp://dbpedia.org/property/withdraws
p584
aVhttp://dbpedia.org/property/namedAfter
p585
aVhttp://dbpedia.org/ontology/broadcastArea
p586
aVhttp://dbpedia.org/ontology/thumbnail
p587
aVhttp://dbpedia.org/property/subdivisionName
p588
aVhttp://dbpedia.org/property/stadium
p589
aVhttp://dbpedia.org/property/ground
p590
aVhttp://dbpedia.org/property/place
p591
aVhttp://dbpedia.org/property/utcOffsetDst
p592
aVhttp://dbpedia.org/property/occupation
p593
aVhttp://dbpedia.org/ontology/PopulatedPlace/populationDensity
p594
aVhttp://dbpedia.org/property/asianPlaceQ
p595
aVhttp://dbpedia.org/ontology/place
p596
aVhttp://dbpedia.org/property/constituencyMp
p597
aVhttp://dbpedia.org/property/nearestCity
p598
aVhttp://purl.org/dc/terms/subject
p599
aVhttp://dbpedia.org/property/leaderName
p600
aVhttp://dbpedia.org/property/region
p601
aVhttp://dbpedia.org/property/cityServed
p602
aVhttp://dbpedia.org/property/premiereLocation
p603
aVhttp://dbpedia.org/property/foundation
p604
aVhttp://dbpedia.org/property/worldPlaceF
p605
aVhttp://dbpedia.org/ontology/language
p606
aVhttp://dbpedia.org/property/shipRegistry
p607
aVhttp://dbpedia.org/property/locale
p608
aVhttp://dbpedia.org/property/basinCountries
p609
aVhttp://dbpedia.org/ontology/assembly
p610
aVhttp://dbpedia.org/property/rd2t1Loc
p611
aVhttp://www.w3.org/2000/01/rdf-schema#comment
p612
aVhttp://dbpedia.org/property/olympicPlace
p613
aVhttp://dbpedia.org/property/regionServed
p614
asI5
(lp615
Vhttp://dbpedia.org/property/origin
p616
aVhttp://dbpedia.org/property/placeOfDeath
p617
aVhttp://dbpedia.org/property/ground
p618
aVhttp://dbpedia.org/ontology/origin
p619
aVhttp://dbpedia.org/property/place
p620
aVhttp://dbpedia.org/property/stateParty
p621
aVhttp://dbpedia.org/property/worldPlace
p622
aVhttp://dbpedia.org/property/city
p623
aVhttp://dbpedia.org/property/birthplace
p624
aVhttp://dbpedia.org/property/asianPlace
p625
aVhttp://www.w3.org/ns/prov#wasDerivedFrom
p626
aVhttp://dbpedia.org/property/nation
p627
aVhttp://dbpedia.org/ontology/country
p628
aVhttp://dbpedia.org/property/region
p629
aVhttp://www.w3.org/1999/02/22-rdf-syntax-ns#type
p630
aVhttp://www.w3.org/2002/07/owl#sameAs
p631
aVhttp://dbpedia.org/property/home
p632
aVhttp://dbpedia.org/property/locationCountry
p633
aVhttp://dbpedia.org/property/hostCity
p634
aVhttp://dbpedia.org/property/assembly
p635
aVhttp://dbpedia.org/ontology/ground
p636
aVhttp://dbpedia.org/property/nationalteam
p637
aVhttp://dbpedia.org/property/birthPlace
p638
aVhttp://dbpedia.org/ontology/place
p639
aVhttp://dbpedia.org/property/placeOfBirth
p640
aVhttp://dbpedia.org/property/title
p641
aVhttp://dbpedia.org/property/gdpNominalPerCapita
p642
aVhttp://dbpedia.org/property/country
p643
aVhttp://dbpedia.org/property/constituencyMp
p644
aVhttp://dbpedia.org/property/nearestCity
p645
aVhttp://dbpedia.org/property/basinCountries
p646
aVhttp://dbpedia.org/property/rd2t2Loc
p647
aVhttp://dbpedia.org/property/nationality
p648
aVhttp://dbpedia.org/ontology/abstract
p649
aVhttp://dbpedia.org/property/rd1t8Loc
p650
aVhttp://dbpedia.org/property/venue
p651
aVhttp://dbpedia.org/property/deathPlace
p652
aVhttp://dbpedia.org/property/location
p653
aVhttp://dbpedia.org/property/states
p654
aVhttp://dbpedia.org/property/gdpPppPerCapita
p655
aVhttp://dbpedia.org/ontology/locationCountry
p656
aVhttp://dbpedia.org/property/premiereLocation
p657
aVhttp://dbpedia.org/ontology/deathPlace
p658
aVhttp://dbpedia.org/property/namedAfter
p659
aVhttp://dbpedia.org/ontology/assembly
p660
aVhttp://dbpedia.org/property/usedBy
p661
aVhttp://dbpedia.org/property/shipNamesake
p662
aVhttp://dbpedia.org/property/subdivisionName
p663
aVhttp://dbpedia.org/property/nationalOrigin
p664
aVhttp://dbpedia.org/property/shipRegistry
p665
aVhttp://dbpedia.org/property/locale
p666
aVhttp://dbpedia.org/property/cityServed
p667
aVhttp://dbpedia.org/property/rd1t3Loc
p668
aVhttp://www.georss.org/georss/point
p669
aVhttp://dbpedia.org/property/moreUsers
p670
aVhttp://dbpedia.org/property/headquarters
p671
aVhttp://dbpedia.org/ontology/PopulatedPlace/areaTotal
p672
aVhttp://dbpedia.org/ontology/birthPlace
p673
aVhttp://www.w3.org/2000/01/rdf-schema#comment
p674
aVhttp://purl.org/voc/vrank#hasRank
p675
aVhttp://dbpedia.org/property/citizenship
p676
aVhttp://dbpedia.org/property/countries
p677
aVhttp://dbpedia.org/ontology/language
p678
aVhttp://dbpedia.org/property/residence
p679
aVhttp://dbpedia.org/property/stadium
p680
aVhttp://dbpedia.org/ontology/location
p681
assI1
(dp682
I0
g354
sI1
(lp683
sI2
(lp684
Vhttp://www.w3.org/1999/02/22-rdf-syntax-ns#type
p685
aVhttp://www.w3.org/2000/01/rdf-schema#comment
p686
aVhttp://dbpedia.org/ontology/postalCode
p687
aVhttp://dbpedia.org/ontology/abstract
p688
aVhttp://dbpedia.org/ontology/PopulatedPlace/areaTotal
p689
aVhttp://www.w3.org/ns/prov#wasDerivedFrom
p690
aVhttp://dbpedia.org/ontology/areaCode
p691
aVhttp://dbpedia.org/ontology/PopulatedPlace/populationDensity
p692
aVhttp://www.w3.org/2002/07/owl#sameAs
p693
asI3
(lp694
Vhttp://www.w3.org/1999/02/22-rdf-syntax-ns#type
p695
aVhttp://dbpedia.org/ontology/areaCode
p696
aVhttp://dbpedia.org/ontology/abstract
p697
aVhttp://www.w3.org/2000/01/rdf-schema#comment
p698
aVhttp://dbpedia.org/ontology/PopulatedPlace/areaTotal
p699
aVhttp://www.w3.org/ns/prov#wasDerivedFrom
p700
aVhttp://purl.org/voc/vrank#hasRank
p701
aVhttp://dbpedia.org/ontology/PopulatedPlace/populationDensity
p702
aVhttp://www.w3.org/2002/07/owl#sameAs
p703
asI4
(lp704
Vhttp://www.georss.org/georss/point
p705
aVhttp://dbpedia.org/ontology/PopulatedPlace/areaTotal
p706
aVhttp://purl.org/voc/vrank#hasRank
p707
aVhttp://www.w3.org/1999/02/22-rdf-syntax-ns#type
p708
aVhttp://dbpedia.org/ontology/thumbnail
p709
aVhttp://dbpedia.org/property/hasPhotoCollection
p710
aVhttp://dbpedia.org/ontology/PopulatedPlace/populationDensity
p711
aVhttp://www.w3.org/2002/07/owl#sameAs
p712
asI5
(lp713
Vhttp://www.georss.org/georss/point
p714
aVhttp://www.w3.org/2000/01/rdf-schema#comment
p715
aVhttp://dbpedia.org/ontology/postalCode
p716
aVhttp://dbpedia.org/ontology/abstract
p717
aVhttp://dbpedia.org/ontology/PopulatedPlace/areaTotal
p718
aVhttp://www.w3.org/1999/02/22-rdf-syntax-ns#type
p719
aVhttp://www.w3.org/ns/prov#wasDerivedFrom
p720
aVhttp://purl.org/voc/vrank#hasRank
p721
aVhttp://dbpedia.org/ontology/PopulatedPlace/populationDensity
p722
aVhttp://www.w3.org/2002/07/owl#sameAs
p723
assI2
(dp724
I0
g355
sI1
g684
sI2
(lp725
sI3
(lp726
sI4
(lp727
sI5
(lp728
ssI3
(dp729
I0
g445
sI1
g694
sI2
g726
sI3
(lp730
sI4
(lp731
sI5
(lp732
ssI4
(dp733
I0
g523
sI1
g704
sI2
g727
sI3
g731
sI4
(lp734
sI5
(lp735
ssI5
(dp736
I0
g615
sI1
g713
sI2
g728
sI3
g732
sI4
g735
sI5
(lp737
ssa(dp738
I0
(dp739
I0
(lp740
sI1
(lp741
sI2
(lp742
sI3
(lp743
sI4
(lp744
sI5
(lp745
ssI1
(dp746
I0
g741
sI1
(lp747
sI2
(lp748
sI3
(lp749
sI4
(lp750
sI5
(lp751
ssI2
(dp752
I0
g742
sI1
g748
sI2
(lp753
sI3
(lp754
sI4
(lp755
sI5
(lp756
ssI3
(dp757
I0
g743
sI1
g749
sI3
(lp758
sI4
(lp759
sI5
(lp760
ssI4
(dp761
I0
g744
sI1
g750
sI4
(lp762
sI5
(lp763
ssI5
(dp764
I0
g745
sI1
g751
sI5
(lp765
ssa(dp766
I0
(dp767
I0
(lp768
sI1
(lp769
Vhttp://dbpedia.org/ontology/country
p770
aVhttp://dbpedia.org/ontology/birthPlace
p771
aVhttp://dbpedia.org/ontology/recordedIn
p772
aVhttp://dbpedia.org/ontology/locationCountry
p773
aVhttp://dbpedia.org/property/placeOfBirth
p774
aVhttp://dbpedia.org/property/country
p775
asI2
(lp776
sI3
(lp777
sI4
(lp778
sI5
(lp779
ssI1
(dp780
I0
g769
sI1
(lp781
sI2
(lp782
sI3
(lp783
sI4
(lp784
sI5
(lp785
ssI2
(dp786
I0
g776
sI1
g782
sI2
(lp787
sI3
(lp788
sI4
(lp789
sI5
(lp790
ssI3
(dp791
I0
g777
sI1
g783
sI3
(lp792
sI4
(lp793
sI5
(lp794
ssI4
(dp795
I0
g778
sI1
g784
sI4
(lp796
sI5
(lp797
ssI5
(dp798
I0
g779
sI1
g785
sI5
(lp799
ssa(dp800
I0
(dp801
I0
(lp802
sI1
(lp803
Vhttp://dbpedia.org/property/origin
p804
aVhttp://dbpedia.org/property/placeOfDeath
p805
aVhttp://dbpedia.org/property/broadcastArea
p806
aVhttp://dbpedia.org/property/sovereigntyType
p807
aVhttp://www.w3.org/ns/prov#wasDerivedFrom
p808
aVhttp://dbpedia.org/ontology/fastestDriverCountry
p809
aVhttp://dbpedia.org/ontology/demonym
p810
aVhttp://dbpedia.org/ontology/regionServed
p811
aVhttp://dbpedia.org/ontology/nationality
p812
aVhttp://xmlns.com/foaf/0.1/isPrimaryTopicOf
p813
aVhttp://dbpedia.org/property/byCountry
p814
aVhttp://dbpedia.org/property/establishedEvent
p815
aVhttp://dbpedia.org/property/nationality
p816
aVhttp://dbpedia.org/ontology/abstract
p817
aVhttp://dbpedia.org/ontology/recordedIn
p818
aVhttp://dbpedia.org/ontology/architecturalStyle
p819
aVhttp://dbpedia.org/ontology/location
p820
aVhttp://dbpedia.org/property/imageMap
p821
aVhttp://dbpedia.org/property/officialLanguages
p822
aVhttp://dbpedia.org/property/area
p823
aVhttp://dbpedia.org/ontology/hometown
p824
aVhttp://dbpedia.org/ontology/spokenIn
p825
aVhttp://dbpedia.org/property/leaderTitle
p826
aVhttp://www.w3.org/2000/01/rdf-schema#seeAlso
p827
aVhttp://dbpedia.org/ontology/wikiPageExternalLink
p828
aVhttp://dbpedia.org/property/hostCity
p829
aVhttp://dbpedia.org/property/conventionalLongName
p830
aVhttp://dbpedia.org/ontology/foundationPlace
p831
aVhttp://dbpedia.org/ontology/poleDriverCountry
p832
aVhttp://dbpedia.org/ontology/locatedInArea
p833
aVhttp://dbpedia.org/ontology/officialLanguage
p834
aVhttp://dbpedia.org/ontology/country
p835
aVhttp://dbpedia.org/property/birthPlace
p836
aVhttp://dbpedia.org/property/country/region
p837
aVhttp://dbpedia.org/property/country
p838
aVhttp://dbpedia.org/ontology/county
p839
aVhttp://xmlns.com/foaf/0.1/primaryTopic
p840
aVhttp://dbpedia.org/ontology/campus
p841
aVhttp://dbpedia.org/ontology/firstDriverCountry
p842
aVhttp://dbpedia.org/property/states
p843
aVhttp://dbpedia.org/ontology/locationCountry
p844
aVhttp://dbpedia.org/ontology/deathPlace
p845
aVhttp://dbpedia.org/property/hasPhotoCollection
p846
aVhttp://dbpedia.org/property/locationSigned
p847
aVhttp://dbpedia.org/property/headquarters
p848
aVhttp://dbpedia.org/ontology/birthPlace
p849
aVhttp://dbpedia.org/ontology/wikiPageRedirects
p850
aVhttp://dbpedia.org/property/citizenship
p851
aVhttp://dbpedia.org/property/imageCoat
p852
aVhttp://dbpedia.org/ontology/stateOfOrigin
p853
aVhttp://www.w3.org/2002/07/owl#sameAs
p854
aVhttp://dbpedia.org/property/recorded
p855
aVhttp://dbpedia.org/ontology/longName
p856
aVhttp://www.w3.org/1999/02/22-rdf-syntax-ns#type
p857
aVhttp://dbpedia.org/property/locationCountry
p858
aVhttp://dbpedia.org/ontology/secondDriverCountry
p859
aVhttp://dbpedia.org/property/winnerOrigin
p860
aVhttp://dbpedia.org/property/namedAfter
p861
aVhttp://dbpedia.org/property/shipCountry
p862
aVhttp://dbpedia.org/property/placeOfBirth
p863
aVhttp://xmlns.com/foaf/0.1/depiction
p864
aVhttp://dbpedia.org/property/observedby
p865
aVhttp://dbpedia.org/ontology/flag
p866
aVhttp://dbpedia.org/property/commonName
p867
aVhttp://dbpedia.org/property/subdivisionName
p868
aVhttp://dbpedia.org/property/locationCity
p869
aVhttp://dbpedia.org/property/nat
p870
aVhttp://dbpedia.org/ontology/broadcastArea
p871
aVhttp://dbpedia.org/property/stadium
p872
aVhttp://dbpedia.org/property/place
p873
aVhttp://dbpedia.org/property/footnoteA
p874
aVhttp://dbpedia.org/property/caption
p875
aVhttp://dbpedia.org/ontology/thirdDriverCountry
p876
aVhttp://www.w3.org/2002/07/owl#differentFrom
p877
aVhttp://dbpedia.org/property/upperHouse
p878
aVhttp://dbpedia.org/property/locations
p879
aVhttp://dbpedia.org/ontology/place
p880
aVhttp://dbpedia.org/property/language
p881
aVhttp://dbpedia.org/property/imageFlag
p882
aVhttp://dbpedia.org/ontology/wikiPageDisambiguates
p883
aVhttp://purl.org/dc/terms/subject
p884
aVhttp://dbpedia.org/ontology/populationPlace
p885
aVhttp://dbpedia.org/property/location
p886
aVhttp://dbpedia.org/property/armiger
p887
aVhttp://dbpedia.org/ontology/headquarter
p888
aVhttp://dbpedia.org/property/foundation
p889
aVhttp://www.w3.org/2000/01/rdf-schema#label
p890
aVhttp://dbpedia.org/ontology/language
p891
aVhttp://dbpedia.org/property/title
p892
aVhttp://dbpedia.org/property/basinCountries
p893
aVhttp://www.w3.org/2000/01/rdf-schema#comment
p894
aVhttp://dbpedia.org/property/seat
p895
aVhttp://dbpedia.org/property/demonym
p896
aVhttp://dbpedia.org/property/regionServed
p897
aVhttp://xmlns.com/foaf/0.1/name
p898
aVhttp://dbpedia.org/ontology/locationCity
p899
aVhttp://dbpedia.org/property/buried
p900
aVhttp://dbpedia.org/ontology/thumbnail
p901
asI2
(lp902
sI3
(lp903
sI4
(lp904
sI5
(lp905
ssI1
(dp906
I0
g803
sI1
(lp907
sI2
(lp908
sI3
(lp909
sI4
(lp910
sI5
(lp911
ssI2
(dp912
I0
g902
sI1
g908
sI2
(lp913
sI3
(lp914
sI4
(lp915
sI5
(lp916
ssI3
(dp917
I0
g903
sI1
g909
sI3
(lp918
sI4
(lp919
sI5
(lp920
ssI4
(dp921
I0
g904
sI1
g910
sI4
(lp922
sI5
(lp923
ssI5
(dp924
I0
g905
sI1
g911
sI5
(lp925
ssa(dp926
I0
(dp927
I0
(lp928
sI1
(lp929
sI2
(lp930
sI3
(lp931
sI4
(lp932
sI5
(lp933
ssI1
(dp934
I0
g929
sI1
(lp935
sI2
(lp936
sI3
(lp937
sI4
(lp938
sI5
(lp939
ssI2
(dp940
I0
g930
sI1
g936
sI2
(lp941
sI3
(lp942
sI4
(lp943
sI5
(lp944
ssI3
(dp945
I0
g931
sI1
g937
sI3
(lp946
sI4
(lp947
sI5
(lp948
ssI4
(dp949
I0
g932
sI1
g938
sI4
(lp950
sI5
(lp951
ssI5
(dp952
I0
g933
sI1
g939
sI5
(lp953
ssa(dp954
I0
(dp955
I0
(lp956
sI1
(lp957
Vhttp://dbpedia.org/property/nationality
p958
aVhttp://dbpedia.org/ontology/abstract
p959
aVhttp://dbpedia.org/ontology/nationality
p960
aVhttp://dbpedia.org/property/birthPlace
p961
aVhttp://dbpedia.org/property/placeOfBirth
p962
aVhttp://dbpedia.org/ontology/spokenIn
p963
aVhttp://dbpedia.org/ontology/stateOfOrigin
p964
aVhttp://dbpedia.org/ontology/birthPlace
p965
asI2
(lp966
sI3
(lp967
sI4
(lp968
sI5
(lp969
ssI1
(dp970
I0
g957
sI1
(lp971
sI2
(lp972
sI3
(lp973
sI4
(lp974
sI5
(lp975
ssI2
(dp976
I0
g966
sI1
g972
sI2
(lp977
sI3
(lp978
sI4
(lp979
sI5
(lp980
ssI3
(dp981
I0
g967
sI1
g973
sI3
(lp982
sI4
(lp983
sI5
(lp984
ssI4
(dp985
I0
g968
sI1
g974
sI4
(lp986
sI5
(lp987
ssI5
(dp988
I0
g969
sI1
g975
sI5
(lp989
ssa(dp990
I0
(dp991
I0
(lp992
sI1
(lp993
Vhttp://dbpedia.org/property/ry
p994
aVhttp://dbpedia.org/property/stadium
p995
asI2
(lp996
sI3
(lp997
sI4
(lp998
sI5
(lp999
ssI1
(dp1000
I0
g993
sI1
(lp1001
sI2
(lp1002
sI3
(lp1003
sI4
(lp1004
sI5
(lp1005
ssI2
(dp1006
I0
g996
sI1
g1002
sI2
(lp1007
sI3
(lp1008
sI4
(lp1009
sI5
(lp1010
ssI3
(dp1011
I0
g997
sI1
g1003
sI3
(lp1012
sI4
(lp1013
sI5
(lp1014
ssI4
(dp1015
I0
g998
sI1
g1004
sI4
(lp1016
sI5
(lp1017
ssI5
(dp1018
I0
g999
sI1
g1005
sI5
(lp1019
ssa(dp1020
I0
(dp1021
I0
(lp1022
sI1
(lp1023
sI2
(lp1024
sI3
(lp1025
sI4
(lp1026
sI5
(lp1027
ssI1
(dp1028
I0
g1023
sI1
(lp1029
sI2
(lp1030
sI3
(lp1031
sI4
(lp1032
sI5
(lp1033
ssI2
(dp1034
I0
g1024
sI1
g1030
sI2
(lp1035
sI3
(lp1036
sI4
(lp1037
sI5
(lp1038
ssI3
(dp1039
I0
g1025
sI1
g1031
sI3
(lp1040
sI4
(lp1041
sI5
(lp1042
ssI4
(dp1043
I0
g1026
sI1
g1032
sI4
(lp1044
sI5
(lp1045
ssI5
(dp1046
I0
g1027
sI1
g1033
sI5
(lp1047
ssa(dp1048
I0
(dp1049
I0
(lp1050
sI1
(lp1051
Vhttp://dbpedia.org/ontology/wikiPageExternalLink
p1052
asI2
(lp1053
sI3
(lp1054
sI4
(lp1055
sI5
(lp1056
ssI1
(dp1057
I0
g1051
sI1
(lp1058
sI2
(lp1059
sI3
(lp1060
sI4
(lp1061
sI5
(lp1062
ssI2
(dp1063
I0
g1053
sI1
g1059
sI2
(lp1064
sI3
(lp1065
sI4
(lp1066
sI5
(lp1067
ssI3
(dp1068
I0
g1054
sI1
g1060
sI3
(lp1069
sI4
(lp1070
sI5
(lp1071
ssI4
(dp1072
I0
g1055
sI1
g1061
sI4
(lp1073
sI5
(lp1074
ssI5
(dp1075
I0
g1056
sI1
g1062
sI5
(lp1076
ssa(dp1077
I0
(dp1078
I0
(lp1079
sI1
(lp1080
Vhttp://dbpedia.org/ontology/wikiPageExternalLink
p1081
aVhttp://dbpedia.org/property/locale
p1082
asI2
(lp1083
sI3
(lp1084
sI4
(lp1085
sI5
(lp1086
ssI1
(dp1087
I0
g1080
sI1
(lp1088
sI2
(lp1089
sI3
(lp1090
sI4
(lp1091
sI5
(lp1092
ssI2
(dp1093
I0
g1083
sI1
g1089
sI2
(lp1094
sI3
(lp1095
sI4
(lp1096
sI5
(lp1097
ssI3
(dp1098
I0
g1084
sI1
g1090
sI3
(lp1099
sI4
(lp1100
sI5
(lp1101
ssI4
(dp1102
I0
g1085
sI1
g1091
sI4
(lp1103
sI5
(lp1104
ssI5
(dp1105
I0
g1086
sI1
g1092
sI5
(lp1106
ssa(dp1107
I0
(dp1108
I0
(lp1109
sI1
(lp1110
sI2
(lp1111
sI3
(lp1112
sI4
(lp1113
sI5
(lp1114
ssI1
(dp1115
I0
g1110
sI1
(lp1116
sI2
(lp1117
sI3
(lp1118
sI4
(lp1119
sI5
(lp1120
ssI2
(dp1121
I0
g1111
sI1
g1117
sI2
(lp1122
sI3
(lp1123
sI4
(lp1124
sI5
(lp1125
ssI3
(dp1126
I0
g1112
sI1
g1118
sI3
(lp1127
sI4
(lp1128
sI5
(lp1129
ssI4
(dp1130
I0
g1113
sI1
g1119
sI4
(lp1131
sI5
(lp1132
ssI5
(dp1133
I0
g1114
sI1
g1120
sI5
(lp1134
ssa(dp1135
I0
(dp1136
I0
(lp1137
sI1
(lp1138
sI2
(lp1139
sI3
(lp1140
sI4
(lp1141
sI5
(lp1142
ssI1
(dp1143
I0
g1138
sI1
(lp1144
sI2
(lp1145
sI3
(lp1146
sI4
(lp1147
sI5
(lp1148
ssI2
(dp1149
I0
g1139
sI1
g1145
sI2
(lp1150
sI3
(lp1151
sI4
(lp1152
sI5
(lp1153
ssI3
(dp1154
I0
g1140
sI1
g1146
sI3
(lp1155
sI4
(lp1156
sI5
(lp1157
ssI4
(dp1158
I0
g1141
sI1
g1147
sI4
(lp1159
sI5
(lp1160
ssI5
(dp1161
I0
g1142
sI1
g1148
sI5
(lp1162
ssa(dp1163
I0
(dp1164
I0
(lp1165
sI1
(lp1166
Vhttp://dbpedia.org/ontology/place
p1167
asI2
(lp1168
sI3
(lp1169
sI4
(lp1170
sI5
(lp1171
ssI1
(dp1172
I0
g1166
sI1
(lp1173
sI2
(lp1174
sI3
(lp1175
sI4
(lp1176
sI5
(lp1177
ssI2
(dp1178
I0
g1168
sI1
g1174
sI2
(lp1179
sI3
(lp1180
sI4
(lp1181
sI5
(lp1182
ssI3
(dp1183
I0
g1169
sI1
g1175
sI3
(lp1184
sI4
(lp1185
sI5
(lp1186
ssI4
(dp1187
I0
g1170
sI1
g1176
sI4
(lp1188
sI5
(lp1189
ssI5
(dp1190
I0
g1171
sI1
g1177
sI5
(lp1191
ssa(dp1192
I0
(dp1193
I0
(lp1194
sI1
(lp1195
Vhttp://dbpedia.org/ontology/location
p1196
aVhttp://dbpedia.org/property/location
p1197
asI2
(lp1198
sI3
(lp1199
sI4
(lp1200
sI5
(lp1201
ssI1
(dp1202
I0
g1195
sI1
(lp1203
sI2
(lp1204
sI3
(lp1205
sI4
(lp1206
sI5
(lp1207
ssI2
(dp1208
I0
g1198
sI1
g1204
sI2
(lp1209
sI3
(lp1210
sI4
(lp1211
sI5
(lp1212
ssI3
(dp1213
I0
g1199
sI1
g1205
sI3
(lp1214
sI4
(lp1215
sI5
(lp1216
ssI4
(dp1217
I0
g1200
sI1
g1206
sI4
(lp1218
sI5
(lp1219
ssI5
(dp1220
I0
g1201
sI1
g1207
sI5
(lp1221
ssa.