ccollections
defaultdict
p1
(c__builtin__
dict
p2
tRp3
I0
(dp4
I1
(lp5
Vhttp://dbpedia.org/property/placeOfDeath
p6
aVhttp://dbpedia.org/property/broadcastArea
p7
aVhttp://dbpedia.org/property/burial
p8
aVhttp://dbpedia.org/ontology/officialLanguage
p9
aVhttp://dbpedia.org/ontology/regionServed
p10
aVhttp://dbpedia.org/ontology/country
p11
aVhttp://www.w3.org/1999/02/22-rdf-syntax-ns#type
p12
aVhttp://dbpedia.org/ontology/place
p13
aVhttp://dbpedia.org/ontology/ethnicGroup
p14
aVhttp://dbpedia.org/property/country
p15
aVhttp://purl.org/dc/terms/subject
p16
aVhttp://dbpedia.org/ontology/abstract
p17
aVhttp://dbpedia.org/ontology/spokenIn
p18
aVhttp://dbpedia.org/property/deathPlace
p19
aVhttp://dbpedia.org/property/location
p20
aVhttp://dbpedia.org/property/states
p21
aVhttp://dbpedia.org/ontology/locationCountry
p22
aVhttp://dbpedia.org/ontology/deathPlace
p23
aVhttp://dbpedia.org/ontology/language
p24
aVhttp://dbpedia.org/ontology/broadcastArea
p25
aVhttp://dbpedia.org/property/basinCountries
p26
aVhttp://dbpedia.org/property/officialLanguages
p27
aVhttp://www.w3.org/2000/01/rdf-schema#comment
p28
aVhttp://dbpedia.org/property/regionServed
p29
asI2
(lp30
Vhttp://dbpedia.org/property/origin
p31
aVhttp://dbpedia.org/property/placeOfDeath
p32
aVhttp://dbpedia.org/property/rd2t6Loc
p33
aVhttp://dbpedia.org/property/almaMater
p34
aVhttp://dbpedia.org/property/hostCity
p35
aVhttp://dbpedia.org/ontology/origin
p36
aVhttp://dbpedia.org/property/place
p37
aVhttp://dbpedia.org/ontology/routeStart
p38
aVhttp://dbpedia.org/ontology/PopulatedPlace/areaTotal
p39
aVhttp://dbpedia.org/property/asianPlace
p40
aVhttp://www.w3.org/ns/prov#wasDerivedFrom
p41
aVhttp://dbpedia.org/ontology/fastestDriverCountry
p42
aVhttp://dbpedia.org/ontology/PopulatedPlace/populationDensity
p43
aVhttp://dbpedia.org/ontology/country
p44
aVhttp://dbpedia.org/property/returns
p45
aVhttp://www.w3.org/1999/02/22-rdf-syntax-ns#type
p46
aVhttp://dbpedia.org/property/rd2t5Loc
p47
aVhttp://dbpedia.org/ontology/ground
p48
aVhttp://dbpedia.org/property/withdraws
p49
aVhttp://dbpedia.org/property/birthPlace
p50
aVhttp://dbpedia.org/ontology/place
p51
aVhttp://dbpedia.org/property/placeOfBirth
p52
aVhttp://dbpedia.org/property/nationality
p53
aVhttp://dbpedia.org/property/country
p54
aVhttp://dbpedia.org/property/constituencyMp
p55
aVhttp://dbpedia.org/property/gdpNominal
p56
aVhttp://dbpedia.org/property/rd1t8Loc
p57
aVhttp://dbpedia.org/property/lagePolitisch
p58
aVhttp://dbpedia.org/property/gdpNominalPerCapita
p59
aVhttp://dbpedia.org/ontology/abstract
p60
aVhttp://dbpedia.org/property/stateParty
p61
aVhttp://dbpedia.org/property/venue
p62
aVhttp://dbpedia.org/property/deathPlace
p63
aVhttp://dbpedia.org/property/location
p64
aVhttp://dbpedia.org/property/cityServed
p65
aVhttp://dbpedia.org/property/gdpPppPerCapita
p66
aVhttp://dbpedia.org/ontology/deathPlace
p67
aVhttp://dbpedia.org/property/rd2t4Loc
p68
aVhttp://dbpedia.org/property/namedAfter
p69
aVhttp://dbpedia.org/property/usedBy
p70
aVhttp://dbpedia.org/property/worldPlace
p71
aVhttp://dbpedia.org/property/subdivisionName
p72
aVhttp://dbpedia.org/property/nationalOrigin
p73
aVhttp://dbpedia.org/property/locale
p74
aVhttp://dbpedia.org/property/basinCountries
p75
aVhttp://www.georss.org/georss/point
p76
aVhttp://dbpedia.org/ontology/location
p77
aVhttp://www.w3.org/2000/01/rdf-schema#comment
p78
aVhttp://dbpedia.org/ontology/birthPlace
p79
aVhttp://dbpedia.org/property/countries
p80
aVhttp://dbpedia.org/ontology/wikiPageRedirects
p81
aVhttp://dbpedia.org/property/olympicPlace
p82
aVhttp://dbpedia.org/property/area
p83
aVhttp://dbpedia.org/property/rd1t1Loc
p84
aVhttp://purl.org/voc/vrank#hasRank
p85
aVhttp://dbpedia.org/property/rd2t8Loc
p86
aVhttp://dbpedia.org/property/stadium
p87
aVhttp://dbpedia.org/property/regionServed
p88
aVhttp://dbpedia.org/property/debuts
p89
aVhttp://dbpedia.org/property/jurisdiction
p90
aVhttp://www.w3.org/2002/07/owl#sameAs
p91
aVhttp://dbpedia.org/ontology/homeStadium
p92
asI3
(lp93
sI4
(lp94
sI5
(lp95
ssI1
(dp96
I1
(lp97
Vhttp://dbpedia.org/property/placeOfDeath
p98
aVhttp://dbpedia.org/ontology/restingPlace
p99
aVhttp://dbpedia.org/ontology/deathPlace
p100
asI2
(lp101
sI3
(lp102
sI4
(lp103
sI5
(lp104
ssI2
(dp105
I1
(lp106
Vhttp://dbpedia.org/ontology/abstract
p107
aVhttp://dbpedia.org/property/waterbody
p108
aVhttp://www.w3.org/2000/01/rdf-schema#comment
p109
asI2
(lp110
sI3
(lp111
sI4
(lp112
sI5
(lp113
ssI3
(dp114
I1
(lp115
sI2
(lp116
sI3
(lp117
sI4
(lp118
sI5
(lp119
ssI4
(dp120
I1
(lp121
Vhttp://dbpedia.org/ontology/abstract
p122
asI2
(lp123
sI3
(lp124
sI4
(lp125
sI5
(lp126
ssI5
(dp127
I1
(lp128
sI2
(lp129
sI3
(lp130
sI4
(lp131
sI5
(lp132
ssI6
(dp133
I1
(lp134
sI2
(lp135
Vhttp://dbpedia.org/property/origin
p136
aVhttp://dbpedia.org/property/rd3Team
p137
aVhttp://dbpedia.org/property/twin5Country
p138
aVhttp://dbpedia.org/ontology/regionServed
p139
aVhttp://dbpedia.org/property/assembly
p140
aVhttp://dbpedia.org/property/placeOfBirth
p141
aVhttp://dbpedia.org/property/rallybase
p142
aVhttp://dbpedia.org/ontology/abstract
p143
aVhttp://dbpedia.org/ontology/recordedIn
p144
aVhttp://dbpedia.org/property/venue
p145
aVhttp://dbpedia.org/property/gdpPpp
p146
aVhttp://dbpedia.org/property/usedBy
p147
aVhttp://dbpedia.org/property/nationalOrigin
p148
aVhttp://www.georss.org/georss/point
p149
aVhttp://dbpedia.org/property/shipBuilder
p150
aVhttp://dbpedia.org/ontology/location
p151
aVhttp://dbpedia.org/property/before
p152
aVhttp://dbpedia.org/ontology/hometown
p153
aVhttp://dbpedia.org/property/builders
p154
aVhttp://www.w3.org/2000/01/rdf-schema#seeAlso
p155
aVhttp://dbpedia.org/property/rd2t6Loc
p156
aVhttp://dbpedia.org/property/hostCity
p157
aVhttp://dbpedia.org/property/2rpt2Loc
p158
aVhttp://dbpedia.org/property/birthplace
p159
aVhttp://dbpedia.org/property/genre
p160
aVhttp://dbpedia.org/property/rd2t3Loc
p161
aVhttp://dbpedia.org/property/site
p162
aVhttp://dbpedia.org/property/rd1t4Loc
p163
aVhttp://dbpedia.org/ontology/country
p164
aVhttp://dbpedia.org/property/returns
p165
aVhttp://dbpedia.org/ontology/locationCountry
p166
aVhttp://dbpedia.org/property/home
p167
aVhttp://dbpedia.org/property/rd1t5Loc
p168
aVhttp://dbpedia.org/property/birthPlace
p169
aVhttp://dbpedia.org/property/title
p170
aVhttp://dbpedia.org/property/country
p171
aVhttp://dbpedia.org/ontology/assembly
p172
aVhttp://dbpedia.org/property/areaServed
p173
aVhttp://dbpedia.org/property/areasAffected
p174
aVhttp://dbpedia.org/ontology/wikiPageExternalLink
p175
aVhttp://dbpedia.org/ontology/builder
p176
aVhttp://dbpedia.org/ontology/deathPlace
p177
aVhttp://dbpedia.org/property/rd2t4Loc
p178
aVhttp://dbpedia.org/ontology/genre
p179
aVhttp://dbpedia.org/property/headquarters
p180
aVhttp://dbpedia.org/ontology/birthPlace
p181
aVhttp://dbpedia.org/ontology/wikiPageRedirects
p182
aVhttp://purl.org/voc/vrank#hasRank
p183
aVhttp://dbpedia.org/property/asianPlace
p184
aVhttp://www.w3.org/2002/07/owl#sameAs
p185
aVhttp://dbpedia.org/property/twin1Country
p186
aVhttp://dbpedia.org/ontology/origin
p187
aVhttp://dbpedia.org/property/populationDensityRank
p188
aVhttp://dbpedia.org/property/worldPlace
p189
aVhttp://www.w3.org/1999/02/22-rdf-syntax-ns#type
p190
aVhttp://dbpedia.org/property/bronze
p191
aVhttp://dbpedia.org/property/locationCountry
p192
aVhttp://dbpedia.org/property/rd1t2Loc
p193
aVhttp://dbpedia.org/property/withdraws
p194
aVhttp://dbpedia.org/property/namedAfter
p195
aVhttp://dbpedia.org/property/shipCountry
p196
aVhttp://dbpedia.org/property/gdpNominal
p197
aVhttp://dbpedia.org/property/rd1t8Loc
p198
aVhttp://dbpedia.org/property/rd2t7Loc
p199
aVhttp://dbpedia.org/ontology/city
p200
aVhttp://dbpedia.org/ontology/homeport
p201
aVhttp://dbpedia.org/property/rd1t3Loc
p202
aVhttp://dbpedia.org/property/stadium
p203
aVhttp://dbpedia.org/property/place
p204
aVhttp://dbpedia.org/property/debuts
p205
aVhttp://dbpedia.org/ontology/PopulatedPlace/populationDensity
p206
aVhttp://dbpedia.org/property/asianPlaceQ
p207
aVhttp://dbpedia.org/ontology/nearestCity
p208
aVhttp://dbpedia.org/property/2rpt1Loc
p209
aVhttp://dbpedia.org/ontology/place
p210
aVhttp://purl.org/dc/terms/subject
p211
aVhttp://dbpedia.org/property/rd2t2Loc
p212
aVhttp://dbpedia.org/property/location
p213
aVhttp://dbpedia.org/property/rd3t2Loc
p214
aVhttp://dbpedia.org/ontology/headquarter
p215
aVhttp://dbpedia.org/ontology/language
p216
aVhttp://dbpedia.org/property/shipRegistry
p217
aVhttp://dbpedia.org/property/moreUsers
p218
aVhttp://dbpedia.org/property/rd2t1Loc
p219
aVhttp://www.w3.org/2000/01/rdf-schema#comment
p220
aVhttp://dbpedia.org/property/olympicPlace
p221
aVhttp://dbpedia.org/property/rd3t1Loc
p222
aVhttp://dbpedia.org/property/shipHomeport
p223
aVhttp://dbpedia.org/property/date
p224
asI3
(lp225
Vhttp://dbpedia.org/property/origin
p226
aVhttp://dbpedia.org/ontology/county
p227
aVhttp://dbpedia.org/property/recorded
p228
aVhttp://dbpedia.org/property/rd3Team
p229
aVhttp://dbpedia.org/property/hostCity
p230
aVhttp://dbpedia.org/ontology/origin
p231
aVhttp://dbpedia.org/property/rd2t7Loc
p232
aVhttp://dbpedia.org/property/populationDensityRank
p233
aVhttp://dbpedia.org/ontology/foundationPlace
p234
aVhttp://dbpedia.org/ontology/PopulatedPlace/areaTotal
p235
aVhttp://dbpedia.org/property/birthplace
p236
aVhttp://dbpedia.org/property/foundation
p237
aVhttp://www.w3.org/ns/prov#wasDerivedFrom
p238
aVhttp://dbpedia.org/property/utcOffset
p239
aVhttp://dbpedia.org/property/rd2t3Loc
p240
aVhttp://dbpedia.org/ontology/PopulatedPlace/populationDensity
p241
aVhttp://dbpedia.org/ontology/country
p242
aVhttp://dbpedia.org/property/returns
p243
aVhttp://www.w3.org/1999/02/22-rdf-syntax-ns#type
p244
aVhttp://dbpedia.org/property/2rpt1Loc
p245
aVhttp://dbpedia.org/property/bronze
p246
aVhttp://dbpedia.org/ontology/hometown
p247
aVhttp://dbpedia.org/property/home
p248
aVhttp://dbpedia.org/property/genre
p249
aVhttp://dbpedia.org/property/shipBuilder
p250
aVhttp://dbpedia.org/property/assembly
p251
aVhttp://dbpedia.org/property/rd1t2Loc
p252
aVhttp://dbpedia.org/property/site
p253
aVhttp://dbpedia.org/property/silver
p254
aVhttp://dbpedia.org/property/2rpt2Loc
p255
aVhttp://dbpedia.org/property/after
p256
aVhttp://dbpedia.org/property/debuts
p257
aVhttp://dbpedia.org/property/placeOfBirth
p258
aVhttp://dbpedia.org/property/counties
p259
aVhttp://dbpedia.org/property/country
p260
aVhttp://dbpedia.org/property/rallybase
p261
aVhttp://dbpedia.org/property/shipRegistry
p262
aVhttp://dbpedia.org/property/gdpNominal
p263
aVhttp://dbpedia.org/ontology/wikiPageExternalLink
p264
aVhttp://dbpedia.org/property/locale
p265
aVhttp://dbpedia.org/property/rd0t1Loc
p266
aVhttp://purl.org/dc/terms/subject
p267
aVhttp://dbpedia.org/property/asianPlaceQ
p268
aVhttp://dbpedia.org/property/rd2t2Loc
p269
aVhttp://dbpedia.org/property/place
p270
aVhttp://dbpedia.org/ontology/abstract
p271
aVhttp://dbpedia.org/ontology/recordedIn
p272
aVhttp://dbpedia.org/property/venue
p273
aVhttp://dbpedia.org/property/location
p274
aVhttp://dbpedia.org/ontology/builder
p275
aVhttp://dbpedia.org/property/rd2t1Loc
p276
aVhttp://dbpedia.org/property/gdpPpp
p277
aVhttp://dbpedia.org/ontology/city
p278
aVhttp://dbpedia.org/property/usedBy
p279
aVhttp://dbpedia.org/property/worldPlace
p280
aVhttp://dbpedia.org/ontology/language
p281
aVhttp://dbpedia.org/property/title
p282
aVhttp://dbpedia.org/ontology/genre
p283
aVhttp://dbpedia.org/property/basinCountries
p284
aVhttp://dbpedia.org/property/rd1t3Loc
p285
aVhttp://www.georss.org/georss/point
p286
aVhttp://dbpedia.org/ontology/assembly
p287
aVhttp://dbpedia.org/ontology/location
p288
aVhttp://dbpedia.org/property/worldPlaceF
p289
aVhttp://www.w3.org/2000/01/rdf-schema#comment
p290
aVhttp://dbpedia.org/ontology/birthPlace
p291
aVhttp://dbpedia.org/property/hostcity
p292
aVhttp://dbpedia.org/property/olympicPlace
p293
aVhttp://dbpedia.org/property/before
p294
aVhttp://dbpedia.org/property/withdraws
p295
aVhttp://purl.org/voc/vrank#hasRank
p296
aVhttp://dbpedia.org/property/stadium
p297
aVhttp://dbpedia.org/property/areasAffected
p298
aVhttp://dbpedia.org/property/date
p299
aVhttp://dbpedia.org/property/asianPlace
p300
aVhttp://dbpedia.org/property/locationCountry
p301
aVhttp://www.w3.org/2002/07/owl#sameAs
p302
asI4
(lp303
Vhttp://dbpedia.org/property/origin
p304
aVhttp://dbpedia.org/property/placeOfDeath
p305
aVhttp://dbpedia.org/property/twin5Country
p306
aVhttp://dbpedia.org/ontology/PopulatedPlace/areaTotal
p307
aVhttp://www.w3.org/ns/prov#wasDerivedFrom
p308
aVhttp://dbpedia.org/property/nation
p309
aVhttp://dbpedia.org/property/assembly
p310
aVhttp://dbpedia.org/property/shortDescription
p311
aVhttp://dbpedia.org/property/placeOfBirth
p312
aVhttp://dbpedia.org/property/nationality
p313
aVhttp://dbpedia.org/ontology/abstract
p314
aVhttp://dbpedia.org/property/venue
p315
aVhttp://dbpedia.org/property/gdpPpp
p316
aVhttp://dbpedia.org/property/usedBy
p317
aVhttp://dbpedia.org/property/shipNamesake
p318
aVhttp://dbpedia.org/property/nationalOrigin
p319
aVhttp://www.georss.org/georss/point
p320
aVhttp://dbpedia.org/property/shipBuilder
p321
aVhttp://dbpedia.org/ontology/location
p322
aVhttp://dbpedia.org/property/city
p323
aVhttp://dbpedia.org/property/countries
p324
aVhttp://dbpedia.org/property/area
p325
aVhttp://dbpedia.org/ontology/hometown
p326
aVhttp://dbpedia.org/property/setIn
p327
aVhttp://dbpedia.org/property/hostCity
p328
aVhttp://dbpedia.org/property/2rpt2Loc
p329
aVhttp://dbpedia.org/property/birthplace
p330
aVhttp://dbpedia.org/property/mouthCountry
p331
aVhttp://dbpedia.org/property/site
p332
aVhttp://dbpedia.org/ontology/country
p333
aVhttp://dbpedia.org/property/region
p334
aVhttp://dbpedia.org/property/home
p335
aVhttp://dbpedia.org/property/nationalteam
p336
aVhttp://dbpedia.org/property/birthPlace
p337
aVhttp://dbpedia.org/property/stateParty
p338
aVhttp://dbpedia.org/property/country
p339
aVhttp://dbpedia.org/property/areaServed
p340
aVhttp://dbpedia.org/property/areasAffected
p341
aVhttp://dbpedia.org/ontology/wikiPageExternalLink
p342
aVhttp://dbpedia.org/property/location
p343
aVhttp://dbpedia.org/property/states
p344
aVhttp://dbpedia.org/ontology/builder
p345
aVhttp://dbpedia.org/ontology/deathPlace
p346
aVhttp://dbpedia.org/property/rd2t4Loc
p347
aVhttp://dbpedia.org/property/hasPhotoCollection
p348
aVhttp://dbpedia.org/property/headquarters
p349
aVhttp://dbpedia.org/ontology/birthPlace
p350
aVhttp://dbpedia.org/ontology/wikiPageRedirects
p351
aVhttp://dbpedia.org/property/citizenship
p352
aVhttp://dbpedia.org/property/asianPlace
p353
aVhttp://www.w3.org/2002/07/owl#sameAs
p354
aVhttp://dbpedia.org/property/twin1Country
p355
aVhttp://dbpedia.org/property/recorded
p356
aVhttp://dbpedia.org/ontology/origin
p357
aVhttp://dbpedia.org/property/worldPlace
p358
aVhttp://dbpedia.org/property/residence
p359
aVhttp://www.w3.org/1999/02/22-rdf-syntax-ns#type
p360
aVhttp://dbpedia.org/property/locationCountry
p361
aVhttp://dbpedia.org/ontology/ground
p362
aVhttp://dbpedia.org/property/withdraws
p363
aVhttp://dbpedia.org/property/returns
p364
aVhttp://dbpedia.org/property/namedAfter
p365
aVhttp://dbpedia.org/ontology/broadcastArea
p366
aVhttp://dbpedia.org/ontology/thumbnail
p367
aVhttp://dbpedia.org/property/subdivisionName
p368
aVhttp://dbpedia.org/property/stadium
p369
aVhttp://dbpedia.org/property/ground
p370
aVhttp://dbpedia.org/property/place
p371
aVhttp://dbpedia.org/property/utcOffsetDst
p372
aVhttp://dbpedia.org/property/occupation
p373
aVhttp://dbpedia.org/ontology/PopulatedPlace/populationDensity
p374
aVhttp://dbpedia.org/property/asianPlaceQ
p375
aVhttp://dbpedia.org/ontology/place
p376
aVhttp://dbpedia.org/property/constituencyMp
p377
aVhttp://dbpedia.org/property/nearestCity
p378
aVhttp://purl.org/dc/terms/subject
p379
aVhttp://dbpedia.org/property/leaderName
p380
aVhttp://dbpedia.org/property/deathPlace
p381
aVhttp://dbpedia.org/property/cityServed
p382
aVhttp://dbpedia.org/property/premiereLocation
p383
aVhttp://dbpedia.org/property/foundation
p384
aVhttp://dbpedia.org/property/worldPlaceF
p385
aVhttp://dbpedia.org/ontology/language
p386
aVhttp://dbpedia.org/property/shipRegistry
p387
aVhttp://dbpedia.org/property/locale
p388
aVhttp://dbpedia.org/property/basinCountries
p389
aVhttp://dbpedia.org/ontology/assembly
p390
aVhttp://dbpedia.org/property/rd2t1Loc
p391
aVhttp://www.w3.org/2000/01/rdf-schema#comment
p392
aVhttp://dbpedia.org/property/olympicPlace
p393
aVhttp://dbpedia.org/property/regionServed
p394
asI5
(lp395
Vhttp://dbpedia.org/property/origin
p396
aVhttp://dbpedia.org/property/placeOfDeath
p397
aVhttp://dbpedia.org/property/stadium
p398
aVhttp://dbpedia.org/property/shipRegistry
p399
aVhttp://dbpedia.org/property/ground
p400
aVhttp://dbpedia.org/ontology/origin
p401
aVhttp://dbpedia.org/property/place
p402
aVhttp://dbpedia.org/property/states
p403
aVhttp://dbpedia.org/property/worldPlace
p404
aVhttp://dbpedia.org/ontology/PopulatedPlace/areaTotal
p405
aVhttp://dbpedia.org/property/birthplace
p406
aVhttp://www.w3.org/ns/prov#wasDerivedFrom
p407
aVhttp://dbpedia.org/property/nation
p408
aVhttp://dbpedia.org/ontology/country
p409
aVhttp://dbpedia.org/property/region
p410
aVhttp://www.w3.org/1999/02/22-rdf-syntax-ns#type
p411
aVhttp://dbpedia.org/property/city
p412
aVhttp://dbpedia.org/property/home
p413
aVhttp://dbpedia.org/property/locationCountry
p414
aVhttp://dbpedia.org/property/hostCity
p415
aVhttp://dbpedia.org/property/assembly
p416
aVhttp://dbpedia.org/ontology/ground
p417
aVhttp://dbpedia.org/property/nationalteam
p418
aVhttp://dbpedia.org/property/birthPlace
p419
aVhttp://dbpedia.org/property/headquarters
p420
aVhttp://dbpedia.org/ontology/place
p421
aVhttp://dbpedia.org/property/nationalOrigin
p422
aVhttp://dbpedia.org/property/nationality
p423
aVhttp://dbpedia.org/property/country
p424
aVhttp://dbpedia.org/property/constituencyMp
p425
aVhttp://dbpedia.org/property/nearestCity
p426
aVhttp://dbpedia.org/property/placeOfBirth
p427
aVhttp://dbpedia.org/property/rd1t8Loc
p428
aVhttp://dbpedia.org/property/rd2t2Loc
p429
aVhttp://dbpedia.org/property/gdpNominalPerCapita
p430
aVhttp://dbpedia.org/ontology/abstract
p431
aVhttp://dbpedia.org/property/stateParty
p432
aVhttp://dbpedia.org/property/venue
p433
aVhttp://dbpedia.org/property/deathPlace
p434
aVhttp://dbpedia.org/property/location
p435
aVhttp://dbpedia.org/property/cityServed
p436
aVhttp://dbpedia.org/property/gdpPppPerCapita
p437
aVhttp://dbpedia.org/ontology/locationCountry
p438
aVhttp://dbpedia.org/property/premiereLocation
p439
aVhttp://dbpedia.org/ontology/deathPlace
p440
aVhttp://dbpedia.org/property/namedAfter
p441
aVhttp://dbpedia.org/property/moreUsers
p442
aVhttp://dbpedia.org/property/usedBy
p443
aVhttp://dbpedia.org/property/shipNamesake
p444
aVhttp://dbpedia.org/property/subdivisionName
p445
aVhttp://dbpedia.org/ontology/language
p446
aVhttp://dbpedia.org/property/title
p447
aVhttp://dbpedia.org/property/locale
p448
aVhttp://dbpedia.org/property/basinCountries
p449
aVhttp://dbpedia.org/property/rd1t3Loc
p450
aVhttp://www.georss.org/georss/point
p451
aVhttp://dbpedia.org/ontology/assembly
p452
aVhttp://dbpedia.org/ontology/location
p453
aVhttp://www.w3.org/2000/01/rdf-schema#comment
p454
aVhttp://dbpedia.org/ontology/birthPlace
p455
aVhttp://dbpedia.org/property/countries
p456
aVhttp://purl.org/voc/vrank#hasRank
p457
aVhttp://dbpedia.org/property/citizenship
p458
aVhttp://dbpedia.org/property/asianPlace
p459
aVhttp://dbpedia.org/property/residence
p460
aVhttp://www.w3.org/2002/07/owl#sameAs
p461
assI7
(dp462
I1
(lp463
sI2
(lp464
sI3
(lp465
sI4
(lp466
sI5
(lp467
ssI8
(dp468
I1
(lp469
Vhttp://dbpedia.org/ontology/country
p470
aVhttp://dbpedia.org/ontology/birthPlace
p471
aVhttp://dbpedia.org/ontology/recordedIn
p472
aVhttp://dbpedia.org/ontology/locationCountry
p473
aVhttp://dbpedia.org/property/placeOfBirth
p474
aVhttp://dbpedia.org/property/country
p475
asI2
(lp476
sI3
(lp477
sI4
(lp478
sI5
(lp479
ssI9
(dp480
I1
(lp481
Vhttp://dbpedia.org/property/origin
p482
aVhttp://dbpedia.org/property/placeOfDeath
p483
aVhttp://dbpedia.org/property/broadcastArea
p484
aVhttp://dbpedia.org/property/sovereigntyType
p485
aVhttp://www.w3.org/ns/prov#wasDerivedFrom
p486
aVhttp://dbpedia.org/ontology/fastestDriverCountry
p487
aVhttp://dbpedia.org/ontology/demonym
p488
aVhttp://dbpedia.org/ontology/regionServed
p489
aVhttp://dbpedia.org/ontology/nationality
p490
aVhttp://xmlns.com/foaf/0.1/isPrimaryTopicOf
p491
aVhttp://dbpedia.org/property/byCountry
p492
aVhttp://dbpedia.org/property/nat
p493
aVhttp://dbpedia.org/property/nationality
p494
aVhttp://dbpedia.org/ontology/abstract
p495
aVhttp://dbpedia.org/ontology/recordedIn
p496
aVhttp://dbpedia.org/ontology/architecturalStyle
p497
aVhttp://dbpedia.org/ontology/location
p498
aVhttp://dbpedia.org/property/imageMap
p499
aVhttp://dbpedia.org/property/officialLanguages
p500
aVhttp://dbpedia.org/property/area
p501
aVhttp://dbpedia.org/ontology/hometown
p502
aVhttp://dbpedia.org/ontology/spokenIn
p503
aVhttp://dbpedia.org/property/leaderTitle
p504
aVhttp://www.w3.org/2000/01/rdf-schema#seeAlso
p505
aVhttp://dbpedia.org/ontology/wikiPageExternalLink
p506
aVhttp://dbpedia.org/property/hostCity
p507
aVhttp://dbpedia.org/property/conventionalLongName
p508
aVhttp://dbpedia.org/ontology/foundationPlace
p509
aVhttp://dbpedia.org/ontology/poleDriverCountry
p510
aVhttp://dbpedia.org/ontology/locatedInArea
p511
aVhttp://dbpedia.org/ontology/officialLanguage
p512
aVhttp://dbpedia.org/ontology/country
p513
aVhttp://dbpedia.org/property/birthPlace
p514
aVhttp://dbpedia.org/property/country/region
p515
aVhttp://dbpedia.org/property/country
p516
aVhttp://dbpedia.org/ontology/county
p517
aVhttp://xmlns.com/foaf/0.1/primaryTopic
p518
aVhttp://dbpedia.org/ontology/campus
p519
aVhttp://dbpedia.org/ontology/firstDriverCountry
p520
aVhttp://dbpedia.org/property/states
p521
aVhttp://dbpedia.org/ontology/locationCountry
p522
aVhttp://dbpedia.org/ontology/deathPlace
p523
aVhttp://dbpedia.org/property/hasPhotoCollection
p524
aVhttp://dbpedia.org/property/headquarters
p525
aVhttp://dbpedia.org/ontology/birthPlace
p526
aVhttp://dbpedia.org/ontology/wikiPageRedirects
p527
aVhttp://dbpedia.org/property/citizenship
p528
aVhttp://dbpedia.org/property/imageCoat
p529
aVhttp://dbpedia.org/ontology/stateOfOrigin
p530
aVhttp://www.w3.org/2002/07/owl#sameAs
p531
aVhttp://dbpedia.org/property/recorded
p532
aVhttp://dbpedia.org/property/winnerOrigin
p533
aVhttp://dbpedia.org/ontology/longName
p534
aVhttp://www.w3.org/1999/02/22-rdf-syntax-ns#type
p535
aVhttp://dbpedia.org/property/locationCountry
p536
aVhttp://dbpedia.org/ontology/secondDriverCountry
p537
aVhttp://dbpedia.org/property/locationSigned
p538
aVhttp://dbpedia.org/property/namedAfter
p539
aVhttp://dbpedia.org/property/title
p540
aVhttp://dbpedia.org/property/placeOfBirth
p541
aVhttp://xmlns.com/foaf/0.1/depiction
p542
aVhttp://dbpedia.org/property/observedby
p543
aVhttp://dbpedia.org/ontology/flag
p544
aVhttp://dbpedia.org/property/commonName
p545
aVhttp://dbpedia.org/property/subdivisionName
p546
aVhttp://dbpedia.org/property/shipCountry
p547
aVhttp://dbpedia.org/property/locationCity
p548
aVhttp://dbpedia.org/property/establishedEvent
p549
aVhttp://dbpedia.org/property/stadium
p550
aVhttp://dbpedia.org/property/place
p551
aVhttp://dbpedia.org/property/footnoteA
p552
aVhttp://dbpedia.org/property/caption
p553
aVhttp://dbpedia.org/ontology/thirdDriverCountry
p554
aVhttp://www.w3.org/2002/07/owl#differentFrom
p555
aVhttp://dbpedia.org/property/upperHouse
p556
aVhttp://dbpedia.org/property/locations
p557
aVhttp://dbpedia.org/ontology/place
p558
aVhttp://dbpedia.org/property/language
p559
aVhttp://dbpedia.org/property/demonym
p560
aVhttp://dbpedia.org/ontology/wikiPageDisambiguates
p561
aVhttp://purl.org/dc/terms/subject
p562
aVhttp://dbpedia.org/ontology/populationPlace
p563
aVhttp://dbpedia.org/property/location
p564
aVhttp://dbpedia.org/property/armiger
p565
aVhttp://dbpedia.org/ontology/headquarter
p566
aVhttp://dbpedia.org/property/foundation
p567
aVhttp://www.w3.org/2000/01/rdf-schema#label
p568
aVhttp://dbpedia.org/ontology/language
p569
aVhttp://dbpedia.org/ontology/broadcastArea
p570
aVhttp://dbpedia.org/property/basinCountries
p571
aVhttp://www.w3.org/2000/01/rdf-schema#comment
p572
aVhttp://dbpedia.org/property/seat
p573
aVhttp://dbpedia.org/property/imageFlag
p574
aVhttp://dbpedia.org/property/regionServed
p575
aVhttp://xmlns.com/foaf/0.1/name
p576
aVhttp://dbpedia.org/ontology/locationCity
p577
aVhttp://dbpedia.org/property/buried
p578
aVhttp://dbpedia.org/ontology/thumbnail
p579
asI2
(lp580
sI3
(lp581
sI4
(lp582
sI5
(lp583
ssI10
(dp584
I1
(lp585
sI2
(lp586
sI3
(lp587
sI4
(lp588
sI5
(lp589
ssI11
(dp590
I1
(lp591
Vhttp://dbpedia.org/property/nationality
p592
aVhttp://dbpedia.org/ontology/abstract
p593
aVhttp://dbpedia.org/ontology/nationality
p594
aVhttp://dbpedia.org/property/birthPlace
p595
aVhttp://dbpedia.org/property/placeOfBirth
p596
aVhttp://dbpedia.org/ontology/spokenIn
p597
aVhttp://dbpedia.org/ontology/stateOfOrigin
p598
aVhttp://dbpedia.org/ontology/birthPlace
p599
asI2
(lp600
sI3
(lp601
sI4
(lp602
sI5
(lp603
ssI12
(dp604
I1
(lp605
Vhttp://dbpedia.org/property/ry
p606
aVhttp://dbpedia.org/property/stadium
p607
asI2
(lp608
sI3
(lp609
sI4
(lp610
sI5
(lp611
ssI14
(dp612
I1
(lp613
Vhttp://dbpedia.org/ontology/wikiPageExternalLink
p614
asI2
(lp615
sI3
(lp616
sI4
(lp617
sI5
(lp618
ssI15
(dp619
I1
(lp620
Vhttp://dbpedia.org/ontology/wikiPageExternalLink
p621
aVhttp://dbpedia.org/property/locale
p622
asI2
(lp623
sI3
(lp624
sI4
(lp625
sI5
(lp626
ssI16
(dp627
I1
(lp628
sI2
(lp629
sI3
(lp630
sI4
(lp631
sI5
(lp632
ssI17
(dp633
I1
(lp634
sI2
(lp635
sI3
(lp636
sI4
(lp637
sI5
(lp638
ssI18
(dp639
I1
(lp640
Vhttp://dbpedia.org/ontology/place
p641
asI2
(lp642
sI3
(lp643
sI4
(lp644
sI5
(lp645
ssI19
(dp646
I1
(lp647
Vhttp://dbpedia.org/ontology/location
p648
aVhttp://dbpedia.org/property/location
p649
asI2
(lp650
sI3
(lp651
sI4
(lp652
sI5
(lp653
ss.