(lp1
(lp2
a(lp3
a(lp4
a(lp5
a(lp6
a(lp7
a(lp8
a(lp9
a(lp10
a(lp11
a(lp12
a(lp13
a(lp14
a(lp15
(dp16
Vstart
p17
I0
sS'classes'
p18
(lp19
Vhttp://www.w3.org/2002/07/owl#Thing
p20
aVhttp://xmlns.com/foaf/0.1/Person
p21
aVhttp://dbpedia.org/ontology/Person
p22
aVhttp://www.ontologydesignpatterns.org/ont/dul/DUL.owl#Agent
p23
aVhttp://www.ontologydesignpatterns.org/ont/dul/DUL.owl#NaturalPerson
p24
aVhttp://www.wikidata.org/entity/Q13474373
p25
aVhttp://www.wikidata.org/entity/Q215627
p26
aVhttp://www.wikidata.org/entity/Q5
p27
aVhttp://dbpedia.org/ontology/Agent
p28
aVhttp://dbpedia.org/ontology/Athlete
p29
aVhttp://dbpedia.org/ontology/Wrestler
p30
aVhttp://schema.org/Person
p31
aVhttp://umbel.org/umbel/rc/Athlete
p32
aVhttp://umbel.org/umbel/rc/Wrestler
p33
aVhttp://dbpedia.org/class/yago/AbileneChristianUniversityAlumni
p34
aVhttp://dbpedia.org/class/yago/AbileneChristianWildcatsFootballPlayers
p35
aVhttp://dbpedia.org/class/yago/Alumnus109786338
p36
aVhttp://dbpedia.org/class/yago/AmericanBusinessWriters
p37
aVhttp://dbpedia.org/class/yago/AmericanColorCommentators
p38
aVhttp://dbpedia.org/class/yago/AmericanProfessionalWrestlers
p39
aVhttp://dbpedia.org/class/yago/Athlete109820263
p40
aVhttp://dbpedia.org/class/yago/CausalAgent100007347
p41
aVhttp://dbpedia.org/class/yago/Combatant109939313
p42
aVhttp://dbpedia.org/class/yago/Communicator109610660
p43
aVhttp://dbpedia.org/class/yago/Contestant109613191
p44
aVhttp://dbpedia.org/class/yago/Expert109617867
p45
aVhttp://dbpedia.org/class/yago/FootballPlayer110101634
p46
aVhttp://dbpedia.org/class/yago/Intellectual109621545
p47
aVhttp://dbpedia.org/class/yago/LivingThing100004258
p48
aVhttp://dbpedia.org/class/yago/Object100002684
p49
aVhttp://dbpedia.org/class/yago/Observer110369528
p50
aVhttp://dbpedia.org/class/yago/Organism100004475
p51
aVhttp://dbpedia.org/class/yago/Person100007846
p52
aVhttp://dbpedia.org/class/yago/Player110439851
p53
aVhttp://dbpedia.org/class/yago/Scholar110557854
p54
aVhttp://dbpedia.org/class/yago/Whole100003553
p55
aVhttp://dbpedia.org/class/yago/Wrestler110793168
p56
aVhttp://dbpedia.org/class/yago/Writer110794014
p57
aVhttp://dbpedia.org/class/yago/YagoLegalActorGeo
p58
aVhttp://dbpedia.org/class/yago/PhysicalEntity100001930
p59
aVhttp://dbpedia.org/class/yago/LivingPeople
p60
aVhttp://dbpedia.org/class/yago/PeopleFromAbilene,Texas
p61
aVhttp://dbpedia.org/class/yago/PeopleFromNewYorkCity
p62
aVhttp://dbpedia.org/class/yago/YagoLegalActor
p63
aVhttp://dbpedia.org/class/yago/SanAntonioRidersPlayers
p64
asVdisambiguatedURL
p65
Vhttp://dbpedia.org/resource/John_Layfield
p66
sVnamedEntity
p67
Vblackjack bradshaw
p68
sVoffset
p69
I18
saa(lp70
a(lp71
a(lp72
a(lp73
a(lp74
(dp75
Vstart
p76
I0
sg18
(lp77
Vhttp://www.w3.org/2002/07/owl#Thing
p78
aVhttp://xmlns.com/foaf/0.1/Person
p79
aVhttp://dbpedia.org/ontology/Person
p80
aVhttp://www.ontologydesignpatterns.org/ont/dul/DUL.owl#Agent
p81
aVhttp://www.ontologydesignpatterns.org/ont/dul/DUL.owl#NaturalPerson
p82
aVhttp://www.wikidata.org/entity/Q13474373
p83
aVhttp://www.wikidata.org/entity/Q215627
p84
aVhttp://www.wikidata.org/entity/Q5
p85
aVhttp://dbpedia.org/ontology/Agent
p86
aVhttp://dbpedia.org/ontology/Athlete
p87
aVhttp://dbpedia.org/ontology/Wrestler
p88
aVhttp://schema.org/Person
p89
asVdisambiguatedURL
p90
Vhttp://dbpedia.org/resource/Brian_Christopher
p91
sVnamedEntity
p92
Vbrian christopher
p93
sVoffset
p94
I17
saa(lp95
a.