(lp1
(lp2
(dp3
Vstart
p4
I0
sVdisambiguatedURL
p5
NsVnamedEntity
p6
Vacer saccharum
p7
sVoffset
p8
I14
saa(lp9
(dp10
Vstart
p11
I0
sVdisambiguatedURL
p12
NsVnamedEntity
p13
Vacorus americanus
p14
sVoffset
p15
I17
saa(lp16
(dp17
Vstart
p18
I0
sVdisambiguatedURL
p19
NsVnamedEntity
p20
Vactaea pachypoda
p21
sVoffset
p22
I16
saa(lp23
(dp24
Vstart
p25
I0
sVdisambiguatedURL
p26
NsVnamedEntity
p27
Vadiantum pedatum
p28
sVoffset
p29
I16
saa(lp30
(dp31
Vstart
p32
I0
sVdisambiguatedURL
p33
NsVnamedEntity
p34
Vadlumia fungosa
p35
sVoffset
p36
I15
saa(lp37
(dp38
Vstart
p39
I0
sVdisambiguatedURL
p40
NsVnamedEntity
p41
Vaeschynomene virginica
p42
sVoffset
p43
I22
saa(lp44
(dp45
Vstart
p46
I0
sVdisambiguatedURL
p47
NsVnamedEntity
p48
Vagalinis fasciculata
p49
sVoffset
p50
I20
saa(lp51
(dp52
Vstart
p53
I0
sVdisambiguatedURL
p54
NsVnamedEntity
p55
V(agalinis virgata)
p56
sVoffset
p57
I18
saa(lp58
(dp59
Vstart
p60
I0
sVdisambiguatedURL
p61
NsVnamedEntity
p62
Vagalinis linifolia
p63
sVoffset
p64
I18
saa(lp65
(dp66
Vstart
p67
I0
sVdisambiguatedURL
p68
NsVnamedEntity
p69
Vagalinis maritima
p70
sVoffset
p71
I17
saa(lp72
(dp73
Vstart
p74
I0
sVdisambiguatedURL
p75
NsVnamedEntity
p76
Vagalinis obtusifolia
p77
sVoffset
p78
I20
saa(lp79
(dp80
Vstart
p81
I0
sVdisambiguatedURL
p82
NsVnamedEntity
p83
Vagalinis setacea
p84
sVoffset
p85
I16
saa(lp86
(dp87
Vstart
p88
I0
sVdisambiguatedURL
p89
NsVnamedEntity
p90
Vagalinis tenuifolia
p91
sVoffset
p92
I19
saa(lp93
(dp94
Vstart
p95
I0
sVdisambiguatedURL
p96
NsVnamedEntity
p97
Vagastache nepetoides
p98
sVoffset
p99
I20
saa(lp100
(dp101
Vstart
p102
I0
sVdisambiguatedURL
p103
NsVnamedEntity
p104
Vagastache scrophulariifolia
p105
sVoffset
p106
I27
saa(lp107
(dp108
Vstart
p109
I0
sVdisambiguatedURL
p110
NsVnamedEntity
p111
Vageratina aromatica
p112
sVoffset
p113
I19
saa(lp114
(dp115
Vstart
p116
I0
sVdisambiguatedURL
p117
NsVnamedEntity
p118
V(eupatorium aromaticum)
p119
sVoffset
p120
I23
saa(lp121
(dp122
Vstart
p123
I0
sVdisambiguatedURL
p124
NsVnamedEntity
p125
Vagrimonia gryposepala
p126
sVoffset
p127
I21
saa(lp128
(dp129
Vstart
p130
I0
sVdisambiguatedURL
p131
NsVnamedEntity
p132
Vagrimonia pubescens
p133
sVoffset
p134
I19
saa(lp135
(dp136
Vstart
p137
I0
sVdisambiguatedURL
p138
NsVnamedEntity
p139
Vagrimonia rostellata
p140
sVoffset
p141
I20
saa.