(lp1
(dp2
I0
(dp3
I0
(lp4
sI1
(lp5
Vhttp://dbpedia.org/ontology/abstract
p6
asI2
(lp7
ssI1
(dp8
I0
g5
sI1
(lp9
sI2
(lp10
ssI2
(dp11
I0
g7
sI1
g10
sI2
(lp12
ssa(dp13
I0
(dp14
I0
(lp15
sI1
(lp16
sI2
(lp17
ssI1
(dp18
I0
g16
sI1
(lp19
sI2
(lp20
ssI2
(dp21
I0
g17
sI1
g20
sI2
(lp22
ssa(dp23
I0
(dp24
I0
(lp25
sI1
(lp26
sI2
(lp27
ssI1
(dp28
I0
g26
sI1
(lp29
sI2
(lp30
ssI2
(dp31
I0
g27
sI1
g30
sI2
(lp32
ssa(dp33
I0
(dp34
I0
(lp35
sI1
(lp36
sI2
(lp37
ssI1
(dp38
I0
g36
sI1
(lp39
sI2
(lp40
ssI2
(dp41
I0
g37
sI1
g40
sI2
(lp42
ssa(dp43
I0
(dp44
I0
(lp45
sI1
(lp46
sI2
(lp47
ssI1
(dp48
I0
g46
sI1
(lp49
sI2
(lp50
ssI2
(dp51
I0
g47
sI1
g50
sI2
(lp52
ssa(dp53
I0
(dp54
I0
(lp55
sI1
(lp56
sI2
(lp57
ssI1
(dp58
I0
g56
sI1
(lp59
sI2
(lp60
ssI2
(dp61
I0
g57
sI1
g60
sI2
(lp62
ssa(dp63
I0
(dp64
I0
(lp65
sI1
(lp66
sI2
(lp67
ssI1
(dp68
I0
g66
sI1
(lp69
sI2
(lp70
ssI2
(dp71
I0
g67
sI1
g70
sI2
(lp72
ssa(dp73
I0
(dp74
I0
(lp75
sI1
(lp76
sI2
(lp77
ssI1
(dp78
I0
g76
sI1
(lp79
sI2
(lp80
ssI2
(dp81
I0
g77
sI1
g80
sI2
(lp82
ssa.