(lp1
(dp2
I0
(dp3
I0
(lp4
sI1
(lp5
Vhttp://www.w3.org/2000/01/rdf-schema#seeAlso
p6
aVhttp://dbpedia.org/ontology/wikiPageExternalLink
p7
aVhttp://xmlns.com/foaf/0.1/primaryTopic
p8
aVhttp://www.w3.org/1999/02/22-rdf-syntax-ns#type
p9
aVhttp://purl.org/dc/terms/subject
p10
aVhttp://www.w3.org/2000/01/rdf-schema#comment
p11
aVhttp://www.w3.org/2002/07/owl#differentFrom
p12
aVhttp://dbpedia.org/ontology/abstract
p13
aVhttp://dbpedia.org/ontology/wikiPageRedirects
p14
aVhttp://dbpedia.org/property/parties
p15
aVhttp://xmlns.com/foaf/0.1/isPrimaryTopicOf
p16
aVhttp://dbpedia.org/property/label
p17
aVhttp://www.w3.org/ns/prov#wasDerivedFrom
p18
aVhttp://xmlns.com/foaf/0.1/homepage
p19
aVhttp://dbpedia.org/property/hasPhotoCollection
p20
aVhttp://www.w3.org/2000/01/rdf-schema#label
p21
aVhttp://dbpedia.org/property/data
p22
aVhttp://www.w3.org/2002/07/owl#sameAs
p23
aVhttp://dbpedia.org/property/title
p24
asI2
(lp25
Vhttp://www.w3.org/2000/01/rdf-schema#seeAlso
p26
aVhttp://dbpedia.org/ontology/wikiPageExternalLink
p27
aVhttp://xmlns.com/foaf/0.1/primaryTopic
p28
aVhttp://www.w3.org/1999/02/22-rdf-syntax-ns#type
p29
aVhttp://purl.org/dc/terms/subject
p30
aVhttp://www.w3.org/2000/01/rdf-schema#comment
p31
aVhttp://www.w3.org/2002/07/owl#differentFrom
p32
aVhttp://dbpedia.org/ontology/abstract
p33
aVhttp://dbpedia.org/ontology/wikiPageRedirects
p34
aVhttp://dbpedia.org/property/parties
p35
aVhttp://xmlns.com/foaf/0.1/isPrimaryTopicOf
p36
aVhttp://dbpedia.org/property/label
p37
aVhttp://www.w3.org/ns/prov#wasDerivedFrom
p38
aVhttp://xmlns.com/foaf/0.1/homepage
p39
aVhttp://dbpedia.org/property/hasPhotoCollection
p40
aVhttp://www.w3.org/2000/01/rdf-schema#label
p41
aVhttp://dbpedia.org/property/data
p42
aVhttp://www.w3.org/2002/07/owl#sameAs
p43
aVhttp://dbpedia.org/property/title
p44
assI1
(dp45
I0
g5
sI1
(lp46
sI2
(lp47
Vhttp://xmlns.com/foaf/0.1/primaryTopic
p48
aVhttp://www.w3.org/2000/01/rdf-schema#comment
p49
aVhttp://www.w3.org/2000/01/rdf-schema#label
p50
aVhttp://dbpedia.org/ontology/abstract
p51
aVhttp://dbpedia.org/property/name
p52
aVhttp://xmlns.com/foaf/0.1/name
p53
aVhttp://xmlns.com/foaf/0.1/isPrimaryTopicOf
p54
aVhttp://www.w3.org/ns/prov#wasDerivedFrom
p55
aVhttp://dbpedia.org/property/hasPhotoCollection
p56
aVhttp://dbpedia.org/ontology/wikiPageDisambiguates
p57
aVhttp://www.w3.org/2002/07/owl#sameAs
p58
assI2
(dp59
I0
g25
sI1
g47
sI2
(lp60
ssa(dp61
I0
(dp62
I0
(lp63
sI1
(lp64
sI2
(lp65
Vhttp://dbpedia.org/ontology/wikiPageExternalLink
p66
aVhttp://dbpedia.org/ontology/country
p67
aVhttp://dbpedia.org/property/currencyCode
p68
aVhttp://dbpedia.org/ontology/location
p69
aVhttp://dbpedia.org/property/origin
p70
aVhttp://dbpedia.org/ontology/abstract
p71
aVhttp://dbpedia.org/property/locationCountry
p72
aVhttp://dbpedia.org/property/location
p73
aVhttp://dbpedia.org/ontology/foundationPlace
p74
aVhttp://dbpedia.org/ontology/hometown
p75
aVhttp://dbpedia.org/ontology/locationCountry
p76
aVhttp://dbpedia.org/property/country
p77
aVhttp://dbpedia.org/property/subdivisionName
p78
assI1
(dp79
I0
g64
sI1
(lp80
sI2
(lp81
Vhttp://dbpedia.org/ontology/abstract
p82
aVhttp://www.w3.org/2000/01/rdf-schema#comment
p83
assI2
(dp84
I0
g65
sI1
g81
sI2
(lp85
ssa(dp86
I0
(dp87
I0
(lp88
sI1
(lp89
sI2
(lp90
Vhttp://dbpedia.org/property/currencyCode
p91
assI1
(dp92
I0
g89
sI1
(lp93
sI2
(lp94
ssI2
(dp95
I0
g90
sI1
g94
sI2
(lp96
ssa(dp97
I0
(dp98
I0
(lp99
sI1
(lp100
Vhttp://dbpedia.org/ontology/country
p101
aVhttp://dbpedia.org/property/locationCountry
p102
aVhttp://dbpedia.org/property/shipCountry
p103
aVhttp://dbpedia.org/property/country
p104
asI2
(lp105
Vhttp://dbpedia.org/ontology/country
p106
aVhttp://dbpedia.org/property/currencyCode
p107
aVhttp://dbpedia.org/ontology/birthPlace
p108
aVhttp://dbpedia.org/property/birthPlace
p109
aVhttp://dbpedia.org/property/placeOfBirth
p110
aVhttp://dbpedia.org/property/country
p111
aVhttp://dbpedia.org/property/subdivisionName
p112
assI1
(dp113
I0
g100
sI1
(lp114
sI2
(lp115
ssI2
(dp116
I0
g105
sI1
g115
sI2
(lp117
ssa(dp118
I0
(dp119
I0
(lp120
sI1
(lp121
sI2
(lp122
Vhttp://dbpedia.org/ontology/country
p123
aVhttp://dbpedia.org/ontology/location
p124
aVhttp://dbpedia.org/property/basinCountries
p125
aVhttp://dbpedia.org/ontology/birthPlace
p126
aVhttp://dbpedia.org/property/location
p127
aVhttp://dbpedia.org/ontology/nationality
p128
aVhttp://dbpedia.org/property/birthPlace
p129
aVhttp://dbpedia.org/property/placeOfBirth
p130
aVhttp://dbpedia.org/property/areaServed
p131
aVhttp://dbpedia.org/ontology/regionServed
p132
assI1
(dp133
I0
g121
sI1
(lp134
sI2
(lp135
ssI2
(dp136
I0
g122
sI1
g135
sI2
(lp137
ssa(dp138
I0
(dp139
I0
(lp140
sI1
(lp141
sI2
(lp142
Vhttp://dbpedia.org/property/currencyCode
p143
aVhttp://dbpedia.org/ontology/location
p144
aVhttp://dbpedia.org/property/countryCode
p145
aVhttp://dbpedia.org/property/location
p146
assI1
(dp147
I0
g141
sI1
(lp148
sI2
(lp149
ssI2
(dp150
I0
g142
sI1
g149
sI2
(lp151
ssa(dp152
I0
(dp153
I0
(lp154
sI1
(lp155
sI2
(lp156
Vhttp://dbpedia.org/ontology/country
p157
aVhttp://dbpedia.org/property/currencyCode
p158
aVhttp://dbpedia.org/ontology/location
p159
aVhttp://dbpedia.org/property/location
p160
aVhttp://dbpedia.org/ontology/deathPlace
p161
aVhttp://dbpedia.org/ontology/locatedInArea
p162
assI1
(dp163
I0
g155
sI1
(lp164
sI2
(lp165
ssI2
(dp166
I0
g156
sI1
g165
sI2
(lp167
ssa(dp168
I0
(dp169
I0
(lp170
sI1
(lp171
Vhttp://dbpedia.org/property/origin
p172
aVhttp://dbpedia.org/ontology/hometown
p173
aVhttp://dbpedia.org/ontology/location
p174
asI2
(lp175
Vhttp://www.w3.org/2000/01/rdf-schema#seeAlso
p176
aVhttp://dbpedia.org/property/placeOfDeath
p177
aVhttp://dbpedia.org/property/ground
p178
aVhttp://dbpedia.org/ontology/origin
p179
aVhttp://dbpedia.org/ontology/citizenship
p180
aVhttp://dbpedia.org/property/residence
p181
aVhttp://dbpedia.org/ontology/regionServed
p182
aVhttp://dbpedia.org/ontology/country
p183
aVhttp://dbpedia.org/property/locationCountry
p184
aVhttp://dbpedia.org/property/allegiance
p185
aVhttp://dbpedia.org/ontology/ground
p186
aVhttp://dbpedia.org/ontology/nationality
p187
aVhttp://dbpedia.org/property/birthPlace
p188
aVhttp://dbpedia.org/ontology/place
p189
aVhttp://dbpedia.org/property/placeOfBirth
p190
aVhttp://dbpedia.org/ontology/residence
p191
aVhttp://dbpedia.org/property/country
p192
aVhttp://dbpedia.org/property/shipCountry
p193
aVhttp://dbpedia.org/property/areaServed
p194
aVhttp://dbpedia.org/ontology/sourceCountry
p195
aVhttp://dbpedia.org/property/regionalScenes
p196
aVhttp://dbpedia.org/ontology/populationPlace
p197
aVhttp://dbpedia.org/property/nationality
p198
aVhttp://dbpedia.org/ontology/abstract
p199
aVhttp://dbpedia.org/ontology/recordedIn
p200
aVhttp://dbpedia.org/property/deathPlace
p201
aVhttp://dbpedia.org/property/location
p202
aVhttp://dbpedia.org/property/states
p203
aVhttp://dbpedia.org/property/otherCountries
p204
aVhttp://dbpedia.org/ontology/deathPlace
p205
aVhttp://dbpedia.org/ontology/city
p206
aVhttp://dbpedia.org/property/subdivisionName
p207
aVhttp://dbpedia.org/property/nationalOrigin
p208
aVhttp://dbpedia.org/ontology/location
p209
aVhttp://dbpedia.org/property/basinCountries
p210
aVhttp://dbpedia.org/property/currencyCode
p211
aVhttp://dbpedia.org/property/headquarters
p212
aVhttp://dbpedia.org/ontology/birthPlace
p213
aVhttp://dbpedia.org/ontology/locationCountry
p214
aVhttp://dbpedia.org/ontology/hometown
p215
aVhttp://dbpedia.org/ontology/spokenIn
p216
aVhttp://dbpedia.org/property/regionServed
p217
aVhttp://dbpedia.org/ontology/headquarter
p218
aVhttp://dbpedia.org/ontology/stateOfOrigin
p219
aVhttp://dbpedia.org/property/shortDescription
p220
assI1
(dp221
I0
g171
sI1
(lp222
sI2
(lp223
Vhttp://dbpedia.org/ontology/abstract
p224
aVhttp://www.w3.org/2000/01/rdf-schema#comment
p225
assI2
(dp226
I0
g175
sI1
g223
sI2
(lp227
ssa(dp228
I0
(dp229
I0
(lp230
sI1
(lp231
Vhttp://dbpedia.org/property/placeOfDeath
p232
aVhttp://dbpedia.org/property/currency
p233
aVhttp://dbpedia.org/ontology/currency
p234
aVhttp://dbpedia.org/ontology/birthPlace
p235
aVhttp://dbpedia.org/property/deathPlace
p236
aVhttp://dbpedia.org/ontology/usingCountry
p237
aVhttp://dbpedia.org/property/location
p238
aVhttp://dbpedia.org/ontology/nationality
p239
aVhttp://dbpedia.org/property/birthPlace
p240
aVhttp://dbpedia.org/ontology/deathPlace
p241
aVhttp://dbpedia.org/property/nationality
p242
aVhttp://dbpedia.org/property/country
p243
aVhttp://dbpedia.org/property/placeOfBirth
p244
asI2
(lp245
Vhttp://dbpedia.org/property/currencyCode
p246
assI1
(dp247
I0
g231
sI1
(lp248
sI2
(lp249
ssI2
(dp250
I0
g245
sI1
g249
sI2
(lp251
ssa(dp252
I0
(dp253
I0
(lp254
sI1
(lp255
Vhttp://dbpedia.org/ontology/country
p256
aVhttp://dbpedia.org/property/country
p257
asI2
(lp258
Vhttp://dbpedia.org/property/origin
p259
aVhttp://dbpedia.org/ontology/country
p260
aVhttp://dbpedia.org/property/currencyCode
p261
aVhttp://dbpedia.org/property/shipBuilder
p262
aVhttp://dbpedia.org/ontology/nationality
p263
aVhttp://dbpedia.org/ontology/birthPlace
p264
aVhttp://dbpedia.org/property/deathPlace
p265
aVhttp://dbpedia.org/ontology/hometown
p266
aVhttp://dbpedia.org/property/birthPlace
p267
aVhttp://dbpedia.org/ontology/deathPlace
p268
aVhttp://dbpedia.org/property/placeOfDeath
p269
aVhttp://dbpedia.org/ontology/builder
p270
aVhttp://dbpedia.org/property/placeOfBirth
p271
assI1
(dp272
I0
g255
sI1
(lp273
sI2
(lp274
Vhttp://dbpedia.org/ontology/abstract
p275
aVhttp://www.w3.org/2000/01/rdf-schema#comment
p276
assI2
(dp277
I0
g258
sI1
g274
sI2
(lp278
ssa(dp279
I0
(dp280
I0
(lp281
sI1
(lp282
sI2
(lp283
Vhttp://dbpedia.org/property/currencyCode
p284
assI1
(dp285
I0
g282
sI1
(lp286
sI2
(lp287
Vhttp://dbpedia.org/ontology/abstract
p288
aVhttp://www.w3.org/2000/01/rdf-schema#comment
p289
assI2
(dp290
I0
g283
sI1
g287
sI2
(lp291
ssa(dp292
I0
(dp293
I0
(lp294
sI1
(lp295
sI2
(lp296
Vhttp://dbpedia.org/ontology/country
p297
aVhttp://dbpedia.org/ontology/birthPlace
p298
aVhttp://dbpedia.org/property/location
p299
aVhttp://dbpedia.org/property/birthPlace
p300
aVhttp://dbpedia.org/ontology/deathPlace
p301
aVhttp://dbpedia.org/property/placeOfBirth
p302
assI1
(dp303
I0
g295
sI1
(lp304
sI2
(lp305
ssI2
(dp306
I0
g296
sI1
g305
sI2
(lp307
ssa(dp308
I0
(dp309
I0
(lp310
sI1
(lp311
Vhttp://dbpedia.org/property/country
p312
aVhttp://dbpedia.org/ontology/abstract
p313
asI2
(lp314
ssI1
(dp315
I0
g311
sI1
(lp316
sI2
(lp317
ssI2
(dp318
I0
g314
sI1
g317
sI2
(lp319
ssa(dp320
I0
(dp321
I0
(lp322
sI1
(lp323
Vhttp://dbpedia.org/property/location
p324
aVhttp://dbpedia.org/ontology/usingCountry
p325
asI2
(lp326
ssI1
(dp327
I0
g323
sI1
(lp328
sI2
(lp329
ssI2
(dp330
I0
g326
sI1
g329
sI2
(lp331
ssa(dp332
I0
(dp333
I0
(lp334
sI1
(lp335
sI2
(lp336
Vhttp://dbpedia.org/property/currencyCode
p337
assI1
(dp338
I0
g335
sI1
(lp339
sI2
(lp340
ssI2
(dp341
I0
g336
sI1
g340
sI2
(lp342
ssa(dp343
I0
(dp344
I0
(lp345
sI1
(lp346
sI2
(lp347
Vhttp://dbpedia.org/property/currencyCode
p348
assI1
(dp349
I0
g346
sI1
(lp350
sI2
(lp351
ssI2
(dp352
I0
g347
sI1
g351
sI2
(lp353
ssa(dp354
I0
(dp355
I0
(lp356
sI1
(lp357
Vhttp://dbpedia.org/property/image
p358
asI2
(lp359
Vhttp://dbpedia.org/property/currencyCode
p360
assI1
(dp361
I0
g357
sI1
(lp362
sI2
(lp363
ssI2
(dp364
I0
g359
sI1
g363
sI2
(lp365
ssa(dp366
I0
(dp367
I0
(lp368
sI1
(lp369
sI2
(lp370
Vhttp://dbpedia.org/property/currencyCode
p371
assI1
(dp372
I0
g369
sI1
(lp373
sI2
(lp374
Vhttp://dbpedia.org/ontology/abstract
p375
aVhttp://www.w3.org/2000/01/rdf-schema#comment
p376
assI2
(dp377
I0
g370
sI1
g374
sI2
(lp378
ssa(dp379
I0
(dp380
I0
(lp381
sI1
(lp382
sI2
(lp383
Vhttp://dbpedia.org/ontology/wikiPageExternalLink
p384
aVhttp://dbpedia.org/property/currencyCode
p385
assI1
(dp386
I0
g382
sI1
(lp387
sI2
(lp388
Vhttp://dbpedia.org/ontology/abstract
p389
aVhttp://www.w3.org/2000/01/rdf-schema#comment
p390
assI2
(dp391
I0
g383
sI1
g388
sI2
(lp392
ssa(dp393
I0
(dp394
I0
(lp395
sI1
(lp396
sI2
(lp397
ssI1
(dp398
I0
g396
sI1
(lp399
sI2
(lp400
ssI2
(dp401
I0
g397
sI1
g400
sI2
(lp402
ssa.