(lp1
(lp2
(lp3
a(lp4
a(lp5
a(lp6
aa(lp7
(lp8
a(lp9
a(lp10
a(lp11
aa(lp12
(lp13
a(lp14
a(lp15
a(lp16
aa(lp17
(lp18
a(lp19
a(lp20
a(lp21
aa(lp22
(lp23
a(lp24
a(lp25
a(lp26
aa(lp27
(lp28
a(lp29
a(lp30
a(lp31
aa(lp32
(lp33
a(lp34
a(lp35
a(lp36
aa(lp37
(lp38
a(lp39
a(lp40
a(lp41
aa(lp42
(lp43
a(lp44
a(lp45
((lp46
Vhttp://www.w3.org/2002/07/owl#Thing
p47
aVhttp://dbpedia.org/ontology/Place
p48
aVhttp://dbpedia.org/ontology/Location
p49
aVhttp://www.wikidata.org/entity/Q486972
p50
aVhttp://www.wikidata.org/entity/Q6256
p51
aVhttp://dbpedia.org/ontology/Country
p52
aVhttp://dbpedia.org/ontology/PopulatedPlace
p53
aVhttp://www.w3.org/2003/01/geo/wgs84_pos#SpatialThing
p54
aVhttp://schema.org/Country
p55
aVhttp://schema.org/Place
p56
aVhttp://umbel.org/umbel/rc/Country
p57
aVhttp://umbel.org/umbel/rc/Location_Underspecified
p58
aVhttp://umbel.org/umbel/rc/PopulatedPlace
p59
aVhttp://dbpedia.org/class/yago/Abstraction100002137
p60
aVhttp://dbpedia.org/class/yago/AdministrativeDistrict108491826
p61
aVhttp://dbpedia.org/class/yago/BicontinentalCountries
p62
aVhttp://dbpedia.org/class/yago/CaribbeanCountries
p63
aVhttp://dbpedia.org/class/yago/Country108544813
p64
aVhttp://dbpedia.org/class/yago/District108552138
p65
aVhttp://dbpedia.org/class/yago/Economy108366753
p66
aVhttp://dbpedia.org/class/yago/Group100031264
p67
aVhttp://dbpedia.org/class/yago/Location100027167
p68
aVhttp://dbpedia.org/class/yago/Object100002684
p69
aVhttp://dbpedia.org/class/yago/Region108630985
p70
aVhttp://dbpedia.org/class/yago/System108435388
p71
aVhttp://dbpedia.org/class/yago/YagoGeoEntity
p72
aVhttp://dbpedia.org/class/yago/YagoLegalActorGeo
p73
aVhttp://dbpedia.org/class/yago/CountriesBorderingTheAtlanticOcean
p74
aVhttp://dbpedia.org/class/yago/Dutch-speakingCountries
p75
aVhttp://dbpedia.org/class/yago/EuropeanCountries
p76
aVhttp://dbpedia.org/class/yago/EuropeanUnionMemberEconomies
p77
aVhttp://dbpedia.org/class/yago/PhysicalEntity100001930
p78
aVhttp://dbpedia.org/class/yago/YagoPermanentlyLocatedEntity
p79
aVhttp://dbpedia.org/class/yago/MemberStatesOfNATO
p80
aVhttp://dbpedia.org/class/yago/MemberStatesOfTheDutchLanguageUnion
p81
aVhttp://dbpedia.org/class/yago/MemberStatesOfTheEuropeanUnion
p82
aVhttp://dbpedia.org/class/yago/MemberStatesOfTheUnionForTheMediterranean
p83
aVhttp://dbpedia.org/resource/Netherlands
tp84
aa(lp85
aa(lp86
(lp87
a(lp88
a(lp89
a(lp90
aa(lp91
(lp92
a(lp93
a(lp94
a(lp95
aa(lp96
(lp97
a(lp98
a(lp99
a(lp100
aa(lp101
(lp102
a(lp103
a(lp104
a(lp105
aa(lp106
(lp107
a(lp108
a(lp109
a(lp110
aa(lp111
(lp112
a(lp113
a(lp114
a(lp115
aa(lp116
(lp117
a(lp118
a(lp119
a(lp120
aa(lp121
(lp122
a(lp123
((lp124
Vhttp://www.w3.org/2002/07/owl#Thing
p125
aVhttp://dbpedia.org/ontology/Place
p126
aVhttp://dbpedia.org/ontology/Location
p127
aVhttp://www.wikidata.org/entity/Q3957
p128
aVhttp://www.wikidata.org/entity/Q486972
p129
aVhttp://dbpedia.org/ontology/PopulatedPlace
p130
aVhttp://dbpedia.org/ontology/Settlement
p131
aVhttp://dbpedia.org/ontology/Town
p132
aVhttp://www.w3.org/2003/01/geo/wgs84_pos#SpatialThing
p133
aVhttp://schema.org/Place
p134
aVhttp://umbel.org/umbel/rc/Town
p135
aVhttp://dbpedia.org/class/yago/AdministrativeDistrict108491826
p136
aVhttp://dbpedia.org/class/yago/District108552138
p137
aVhttp://dbpedia.org/class/yago/Location100027167
p138
aVhttp://dbpedia.org/class/yago/Object100002684
p139
aVhttp://dbpedia.org/class/yago/Region108630985
p140
aVhttp://dbpedia.org/class/yago/Site108651247
p141
aVhttp://dbpedia.org/class/yago/Town108665504
p142
aVhttp://dbpedia.org/class/yago/Tract108673395
p143
aVhttp://dbpedia.org/class/yago/UrbanArea108675967
p144
aVhttp://dbpedia.org/class/yago/YagoGeoEntity
p145
aVhttp://dbpedia.org/class/yago/YagoLegalActorGeo
p146
aVhttp://dbpedia.org/class/yago/Double-namedPlaces
p147
aVhttp://dbpedia.org/class/yago/GeographicalArea108574314
p148
aVhttp://dbpedia.org/class/yago/Municipality108626283
p149
aVhttp://dbpedia.org/class/yago/PhysicalEntity100001930
p150
aVhttp://dbpedia.org/class/yago/YagoPermanentlyLocatedEntity
p151
aVhttp://dbpedia.org/class/yago/SpaTownsInGermany
p152
aVhttp://dbpedia.org/class/yago/TownsInBaden-W%C3%BCrttemberg
p153
aVhttp://dbpedia.org/resource/Baden-Baden
p154
tp155
aa(lp156
a(lp157
aa(lp158
(lp159
a(lp160
a(lp161
a(lp162
aa(lp163
(lp164
a(lp165
a(lp166
a(lp167
aa(lp168
(lp169
a(lp170
a(lp171
a(lp172
aa.