(lp1
(dp2
I0
(dp3
I0
(lp4
sI1
(lp5
sI2
(lp6
ssI1
(dp7
I0
g5
sI1
(lp8
sI2
(lp9
ssI2
(dp10
I0
g6
sI1
g9
sI2
(lp11
ssa(dp12
I0
(dp13
I0
(lp14
sI1
(lp15
sI2
(lp16
ssI1
(dp17
I0
g15
sI1
(lp18
sI2
(lp19
ssI2
(dp20
I0
g16
sI1
g19
sI2
(lp21
ssa(dp22
I0
(dp23
I0
(lp24
sI1
(lp25
sI2
(lp26
ssI1
(dp27
I0
g25
sI1
(lp28
sI2
(lp29
ssI2
(dp30
I0
g26
sI1
g29
sI2
(lp31
ssa(dp32
I0
(dp33
I0
(lp34
sI1
(lp35
sI2
(lp36
ssI1
(dp37
I0
g35
sI1
(lp38
sI2
(lp39
ssI2
(dp40
I0
g36
sI1
g39
sI2
(lp41
ssa(dp42
I0
(dp43
I0
(lp44
sI1
(lp45
sI2
(lp46
ssI1
(dp47
I0
g45
sI1
(lp48
sI2
(lp49
ssI2
(dp50
I0
g46
sI1
g49
sI2
(lp51
ssa(dp52
I0
(dp53
I0
(lp54
sI1
(lp55
sI2
(lp56
ssI1
(dp57
I0
g55
sI1
(lp58
sI2
(lp59
ssI2
(dp60
I0
g56
sI1
g59
sI2
(lp61
ssa(dp62
I0
(dp63
I0
(lp64
sI1
(lp65
sI2
(lp66
ssI1
(dp67
I0
g65
sI1
(lp68
sI2
(lp69
ssI2
(dp70
I0
g66
sI1
g69
sI2
(lp71
ssa(dp72
I0
(dp73
I0
(lp74
sI1
(lp75
sI2
(lp76
ssI1
(dp77
I0
g75
sI1
(lp78
sI2
(lp79
ssI2
(dp80
I0
g76
sI1
g79
sI2
(lp81
ssa(dp82
I0
(dp83
I0
(lp84
sI1
(lp85
Vhttp://dbpedia.org/property/origin
p86
aVhttp://dbpedia.org/property/place
p87
aVhttp://dbpedia.org/ontology/routeStart
p88
aVhttp://dbpedia.org/property/city
p89
aVhttp://www.w3.org/1999/02/22-rdf-syntax-ns#type
p90
aVhttp://dbpedia.org/ontology/postalCode
p91
aVhttp://dbpedia.org/property/home
p92
aVhttp://dbpedia.org/property/birthPlace
p93
aVhttp://dbpedia.org/ontology/areaCode
p94
aVhttp://dbpedia.org/ontology/routeJunction
p95
aVhttp://dbpedia.org/property/siteCityst
p96
aVhttp://dbpedia.org/ontology/abstract
p97
aVhttp://dbpedia.org/ontology/recordedIn
p98
aVhttp://dbpedia.org/property/location
p99
aVhttp://dbpedia.org/ontology/deathPlace
p100
aVhttp://dbpedia.org/property/worldPlace
p101
aVhttp://dbpedia.org/ontology/location
p102
aVhttp://dbpedia.org/property/headquarters
p103
aVhttp://www.w3.org/2000/01/rdf-schema#comment
p104
aVhttp://dbpedia.org/ontology/birthPlace
p105
aVhttp://dbpedia.org/property/olympicPlace
p106
aVhttp://dbpedia.org/ontology/hometown
p107
aVhttp://dbpedia.org/property/date
p108
aVhttp://www.w3.org/2002/07/owl#sameAs
p109
asI2
(lp110
ssI1
(dp111
I0
g85
sI1
(lp112
sI2
(lp113
ssI2
(dp114
I0
g110
sI1
g113
sI2
(lp115
ssa(dp116
I0
(dp117
I0
(lp118
sI1
(lp119
sI2
(lp120
ssI1
(dp121
I0
g119
sI1
(lp122
sI2
(lp123
ssI2
(dp124
I0
g120
sI1
g123
sI2
(lp125
ssa(dp126
I0
(dp127
I0
(lp128
sI1
(lp129
sI2
(lp130
ssI1
(dp131
I0
g129
sI1
(lp132
sI2
(lp133
ssI2
(dp134
I0
g130
sI1
g133
sI2
(lp135
ssa(dp136
I0
(dp137
I0
(lp138
sI1
(lp139
sI2
(lp140
ssI1
(dp141
I0
g139
sI1
(lp142
sI2
(lp143
ssI2
(dp144
I0
g140
sI1
g143
sI2
(lp145
ssa(dp146
I0
(dp147
I0
(lp148
sI1
(lp149
sI2
(lp150
ssI1
(dp151
I0
g149
sI1
(lp152
sI2
(lp153
ssI2
(dp154
I0
g150
sI1
g153
sI2
(lp155
ssa(dp156
I0
(dp157
I0
(lp158
sI1
(lp159
sI2
(lp160
ssI1
(dp161
I0
g159
sI1
(lp162
sI2
(lp163
ssI2
(dp164
I0
g160
sI1
g163
sI2
(lp165
ssa(dp166
I0
(dp167
I0
(lp168
sI1
(lp169
sI2
(lp170
ssI1
(dp171
I0
g169
sI1
(lp172
sI2
(lp173
ssI2
(dp174
I0
g170
sI1
g173
sI2
(lp175
ssa(dp176
I0
(dp177
I0
(lp178
sI1
(lp179
Vhttp://dbpedia.org/ontology/abstract
p180
aVhttp://dbpedia.org/property/siteCityst
p181
aVhttp://www.w3.org/2000/01/rdf-schema#comment
p182
asI2
(lp183
ssI1
(dp184
I0
g179
sI1
(lp185
sI2
(lp186
ssI2
(dp187
I0
g183
sI1
g186
sI2
(lp188
ssa(dp189
I0
(dp190
I0
(lp191
sI1
(lp192
sI2
(lp193
ssI1
(dp194
I0
g192
sI1
(lp195
sI2
(lp196
ssI2
(dp197
I0
g193
sI1
g196
sI2
(lp198
ssa(dp199
I0
(dp200
I0
(lp201
sI1
(lp202
sI2
(lp203
ssI1
(dp204
I0
g202
sI1
(lp205
sI2
(lp206
ssI2
(dp207
I0
g203
sI1
g206
sI2
(lp208
ssa.