(lp1
(lp2
(lp3
a(lp4
a(lp5
aa(lp6
(lp7
a(lp8
((lp9
Vhttp://www.w3.org/2002/07/owl#Thing
p10
aVhttp://www.wikidata.org/entity/Q25379
p11
aVhttp://www.wikidata.org/entity/Q386724
p12
aVhttp://dbpedia.org/ontology/Play
p13
aVhttp://dbpedia.org/ontology/Work
p14
aVhttp://dbpedia.org/ontology/WrittenWork
p15
aVhttp://schema.org/CreativeWork
p16
aVhttp://dbpedia.org/resource/Snake_in_the_Grass
tp17
aa(lp18
aa(lp19
(lp20
a(lp21
((lp22
Vhttp://dbpedia.org/class/yago/1939Plays
p23
aVhttp://dbpedia.org/class/yago/Abstraction100002137
p24
aVhttp://dbpedia.org/class/yago/BroadwayPlays
p25
aVhttp://dbpedia.org/class/yago/Communication100033020
p26
aVhttp://dbpedia.org/class/yago/DramaticComposition107007684
p27
aVhttp://dbpedia.org/class/yago/Play107007945
p28
aVhttp://dbpedia.org/class/yago/Writing106362953
p29
aVhttp://www.w3.org/2002/07/owl#Thing
p30
aVhttp://www.wikidata.org/entity/Q25379
p31
aVhttp://www.wikidata.org/entity/Q386724
p32
aVhttp://dbpedia.org/ontology/Play
p33
aVhttp://dbpedia.org/ontology/Work
p34
aVhttp://dbpedia.org/ontology/WrittenWork
p35
aVhttp://schema.org/CreativeWork
p36
aVhttp://dbpedia.org/class/yago/ComedyPlays
p37
aVhttp://dbpedia.org/class/yago/WrittenCommunication106349220
p38
aVhttp://dbpedia.org/class/yago/PlaysByPhilipBarry
p39
aVhttp://dbpedia.org/resource/The_Philadelphia_Story_(play)
tp40
aa(lp41
aa(lp42
(lp43
a(lp44
((lp45
Vhttp://www.w3.org/2002/07/owl#Thing
p46
aVhttp://www.wikidata.org/entity/Q25379
p47
aVhttp://www.wikidata.org/entity/Q386724
p48
aVhttp://dbpedia.org/ontology/Play
p49
aVhttp://dbpedia.org/ontology/Work
p50
aVhttp://dbpedia.org/ontology/WrittenWork
p51
aVhttp://schema.org/CreativeWork
p52
aVhttp://dbpedia.org/resource/The_Tropicana_Holiday
tp53
aa(lp54
aa(lp55
(lp56
a(lp57
((lp58
Vhttp://www.w3.org/2002/07/owl#Thing
p59
aVhttp://www.wikidata.org/entity/Q25379
p60
aVhttp://www.wikidata.org/entity/Q386724
p61
aVhttp://dbpedia.org/ontology/Play
p62
aVhttp://dbpedia.org/ontology/Work
p63
aVhttp://dbpedia.org/ontology/WrittenWork
p64
aVhttp://schema.org/CreativeWork
p65
aVhttp://dbpedia.org/resource/Whose_Life_Is_It_Anyway%3F_(play)
tp66
aa(lp67
aa(lp68
(lp69
a(lp70
a(lp71
aa(lp72
(lp73
a(lp74
((lp75
Vhttp://www.w3.org/2002/07/owl#Thing
p76
aVhttp://www.wikidata.org/entity/Q25379
p77
aVhttp://www.wikidata.org/entity/Q386724
p78
aVhttp://dbpedia.org/ontology/Play
p79
aVhttp://dbpedia.org/ontology/Work
p80
aVhttp://dbpedia.org/ontology/WrittenWork
p81
aVhttp://schema.org/CreativeWork
p82
aVhttp://dbpedia.org/resource/Everyone_(play)
tp83
aa(lp84
aa(lp85
(lp86
a(lp87
((lp88
Vhttp://dbpedia.org/class/yago/2010Plays
p89
aVhttp://dbpedia.org/class/yago/Abstraction100002137
p90
aVhttp://dbpedia.org/class/yago/AmericanPlays
p91
aVhttp://dbpedia.org/class/yago/AsianAmericanPlays
p92
aVhttp://dbpedia.org/class/yago/Communication100033020
p93
aVhttp://dbpedia.org/class/yago/DramaticComposition107007684
p94
aVhttp://dbpedia.org/class/yago/Play107007945
p95
aVhttp://dbpedia.org/class/yago/Writing106362953
p96
aVhttp://www.w3.org/2002/07/owl#Thing
p97
aVhttp://www.wikidata.org/entity/Q25379
p98
aVhttp://www.wikidata.org/entity/Q386724
p99
aVhttp://dbpedia.org/ontology/Play
p100
aVhttp://dbpedia.org/ontology/Work
p101
aVhttp://dbpedia.org/ontology/WrittenWork
p102
aVhttp://schema.org/CreativeWork
p103
aVhttp://dbpedia.org/class/yago/WrittenCommunication106349220
p104
aVhttp://dbpedia.org/class/yago/PlaysBasedOnNovels
p105
aVhttp://dbpedia.org/resource/No-No_Boy_(play)
tp106
aa(lp107
aa(lp108
(lp109
a(lp110
a(lp111
aa(lp112
(lp113
a(lp114
((lp115
Vhttp://dbpedia.org/class/yago/1987Plays
p116
aVhttp://dbpedia.org/class/yago/Abstraction100002137
p117
aVhttp://dbpedia.org/class/yago/Communication100033020
p118
aVhttp://dbpedia.org/class/yago/DramaticComposition107007684
p119
aVhttp://dbpedia.org/class/yago/Play107007945
p120
aVhttp://dbpedia.org/class/yago/Writing106362953
p121
aVhttp://www.w3.org/2002/07/owl#Thing
p122
aVhttp://www.wikidata.org/entity/Q25379
p123
aVhttp://www.wikidata.org/entity/Q386724
p124
aVhttp://dbpedia.org/ontology/Play
p125
aVhttp://dbpedia.org/ontology/Work
p126
aVhttp://dbpedia.org/ontology/WrittenWork
p127
aVhttp://schema.org/CreativeWork
p128
aVhttp://dbpedia.org/class/yago/WrittenCommunication106349220
p129
aVhttp://dbpedia.org/class/yago/Off-BroadwayPlays
p130
aVhttp://dbpedia.org/class/yago/ThrillerPlays
p131
aVhttp://dbpedia.org/resource/Perfect_Crime_(play)
tp132
aa(lp133
aa(lp134
(lp135
a(lp136
((lp137
Vhttp://dbpedia.org/class/yago/1993Plays
p138
aVhttp://dbpedia.org/class/yago/Abstraction100002137
p139
aVhttp://dbpedia.org/class/yago/Communication100033020
p140
aVhttp://dbpedia.org/class/yago/DramaticComposition107007684
p141
aVhttp://dbpedia.org/class/yago/Play107007945
p142
aVhttp://dbpedia.org/class/yago/Writing106362953
p143
aVhttp://www.w3.org/2002/07/owl#Thing
p144
aVhttp://www.wikidata.org/entity/Q25379
p145
aVhttp://www.wikidata.org/entity/Q386724
p146
aVhttp://dbpedia.org/ontology/Play
p147
aVhttp://dbpedia.org/ontology/Work
p148
aVhttp://dbpedia.org/ontology/WrittenWork
p149
aVhttp://schema.org/CreativeWork
p150
aVhttp://dbpedia.org/class/yago/WrittenCommunication106349220
p151
aVhttp://dbpedia.org/class/yago/PlaysBySteveMartin
p152
aVhttp://dbpedia.org/resource/Picasso_at_the_Lapin_Agile
tp153
aa(lp154
aa(lp155
(lp156
a(lp157
a(lp158
aa(lp159
(lp160
a(lp161
((lp162
Vhttp://dbpedia.org/class/yago/1966Plays
p163
aVhttp://dbpedia.org/class/yago/Abstraction100002137
p164
aVhttp://dbpedia.org/class/yago/Communication100033020
p165
aVhttp://dbpedia.org/class/yago/DramaticComposition107007684
p166
aVhttp://dbpedia.org/class/yago/Play107007945
p167
aVhttp://dbpedia.org/class/yago/Writing106362953
p168
aVhttp://www.w3.org/2002/07/owl#Thing
p169
aVhttp://www.wikidata.org/entity/Q25379
p170
aVhttp://www.wikidata.org/entity/Q386724
p171
aVhttp://dbpedia.org/ontology/Play
p172
aVhttp://dbpedia.org/ontology/Work
p173
aVhttp://dbpedia.org/ontology/WrittenWork
p174
aVhttp://schema.org/CreativeWork
p175
aVhttp://dbpedia.org/class/yago/WrittenCommunication106349220
p176
aVhttp://dbpedia.org/class/yago/PlaysByAmiriBaraka
p177
aVhttp://dbpedia.org/resource/A_Black_Mass
tp178
aa(lp179
aa(lp180
(lp181
a(lp182
a(lp183
aa(lp184
(lp185
a(lp186
((lp187
Vhttp://dbpedia.org/class/yago/Abstraction100002137
p188
aVhttp://dbpedia.org/class/yago/Communication100033020
p189
aVhttp://dbpedia.org/class/yago/DramaticComposition107007684
p190
aVhttp://dbpedia.org/class/yago/Play107007945
p191
aVhttp://dbpedia.org/class/yago/Writing106362953
p192
aVhttp://www.w3.org/2002/07/owl#Thing
p193
aVhttp://www.wikidata.org/entity/Q25379
p194
aVhttp://www.wikidata.org/entity/Q386724
p195
aVhttp://dbpedia.org/ontology/Play
p196
aVhttp://dbpedia.org/ontology/Work
p197
aVhttp://dbpedia.org/ontology/WrittenWork
p198
aVhttp://schema.org/CreativeWork
p199
aVhttp://dbpedia.org/class/yago/WrittenCommunication106349220
p200
aVhttp://dbpedia.org/class/yago/PlaysByEuripides
p201
aVhttp://dbpedia.org/resource/Andromache_(play)
tp202
aa(lp203
aa(lp204
(lp205
a(lp206
((lp207
Vhttp://dbpedia.org/class/yago/1960Plays
p208
aVhttp://dbpedia.org/class/yago/Abstraction100002137
p209
aVhttp://dbpedia.org/class/yago/BroadwayPlays
p210
aVhttp://dbpedia.org/class/yago/Communication100033020
p211
aVhttp://dbpedia.org/class/yago/DramaticComposition107007684
p212
aVhttp://dbpedia.org/class/yago/Play107007945
p213
aVhttp://dbpedia.org/class/yago/Writing106362953
p214
aVhttp://www.w3.org/2002/07/owl#Thing
p215
aVhttp://www.wikidata.org/entity/Q25379
p216
aVhttp://www.wikidata.org/entity/Q386724
p217
aVhttp://dbpedia.org/ontology/Play
p218
aVhttp://dbpedia.org/ontology/Work
p219
aVhttp://dbpedia.org/ontology/WrittenWork
p220
aVhttp://schema.org/CreativeWork
p221
aVhttp://dbpedia.org/class/yago/WrittenCommunication106349220
p222
aVhttp://dbpedia.org/class/yago/PlaysByIraLevin
p223
aVhttp://dbpedia.org/resource/Critic's_Choice_(play)
tp224
aa(lp225
aa(lp226
(lp227
a(lp228
((lp229
Vhttp://www.w3.org/2002/07/owl#Thing
p230
aVhttp://www.wikidata.org/entity/Q25379
p231
aVhttp://www.wikidata.org/entity/Q386724
p232
aVhttp://dbpedia.org/ontology/Play
p233
aVhttp://dbpedia.org/ontology/Work
p234
aVhttp://dbpedia.org/ontology/WrittenWork
p235
aVhttp://schema.org/CreativeWork
p236
aVhttp://dbpedia.org/resource/Dracula_(1996_play)
tp237
aa(lp238
aa(lp239
(lp240
a(lp241
((lp242
Vhttp://www.w3.org/2002/07/owl#Thing
p243
aVhttp://www.wikidata.org/entity/Q25379
p244
aVhttp://www.wikidata.org/entity/Q386724
p245
aVhttp://dbpedia.org/ontology/Play
p246
aVhttp://dbpedia.org/ontology/Work
p247
aVhttp://dbpedia.org/ontology/WrittenWork
p248
aVhttp://schema.org/CreativeWork
p249
aVhttp://dbpedia.org/resource/Dracula_(1996_play)
tp250
aa(lp251
aa(lp252
(lp253
a(lp254
((lp255
Vhttp://www.w3.org/2002/07/owl#Thing
p256
aVhttp://www.wikidata.org/entity/Q25379
p257
aVhttp://www.wikidata.org/entity/Q386724
p258
aVhttp://dbpedia.org/ontology/Play
p259
aVhttp://dbpedia.org/ontology/Work
p260
aVhttp://dbpedia.org/ontology/WrittenWork
p261
aVhttp://schema.org/CreativeWork
p262
aVhttp://dbpedia.org/resource/Dracula_(1996_play)
p263
tp264
aa(lp265
aa.