(lp1
(lp2
(dp3
Vstart
p4
I0
sVdisambiguatedURL
p5
Vhttp://dbpedia.org/resource/Afghanistan
p6
sVnamedEntity
p7
Vafghanistan
p8
sVoffset
p9
I11
saa(lp10
(dp11
Vstart
p12
I0
sVdisambiguatedURL
p13
NsVnamedEntity
p14
Valbania
p15
sVoffset
p16
I7
saa(lp17
(dp18
Vstart
p19
I0
sVdisambiguatedURL
p20
NsVnamedEntity
p21
Valgeria
p22
sVoffset
p23
I7
saa(lp24
(dp25
Vstart
p26
I0
sVdisambiguatedURL
p27
Vhttp://dbpedia.org/resource/American_Samoa
p28
sVnamedEntity
p29
Vamerican samoa
p30
sVoffset
p31
I14
saa(lp32
(dp33
Vstart
p34
I0
sVdisambiguatedURL
p35
NsVnamedEntity
p36
Vandorra
p37
sVoffset
p38
I7
saa(lp39
(dp40
Vstart
p41
I0
sVdisambiguatedURL
p42
Vhttp://dbpedia.org/resource/Null
p43
sVnamedEntity
p44
VNULL
p45
sVoffset
p46
I4
saa(lp47
(dp48
Vstart
p49
I0
sVdisambiguatedURL
p50
Vhttp://dbpedia.org/resource/Null
p51
sVnamedEntity
p52
VNULL
p53
sVoffset
p54
I4
saa(lp55
(dp56
Vstart
p57
I0
sVdisambiguatedURL
p58
NsVnamedEntity
p59
Vangola
p60
sVoffset
p61
I6
saa(lp62
(dp63
Vstart
p64
I0
sVdisambiguatedURL
p65
Vhttp://dbpedia.org/resource/Null
p66
sVnamedEntity
p67
VNULL
p68
sVoffset
p69
I4
saa(lp70
(dp71
Vstart
p72
I0
sVdisambiguatedURL
p73
NsVnamedEntity
p74
Vanguilla
p75
sVoffset
p76
I8
saa(lp77
(dp78
Vstart
p79
I0
sVdisambiguatedURL
p80
NsVnamedEntity
p81
Vantarctica
p82
sVoffset
p83
I10
saa(lp84
(dp85
Vstart
p86
I0
sVdisambiguatedURL
p87
Vhttp://dbpedia.org/resource/Antigua_and_Barbuda
p88
sVnamedEntity
p89
Vantigua and barbuda
p90
sVoffset
p91
I19
saa(lp92
(dp93
Vstart
p94
I0
sVdisambiguatedURL
p95
NsVnamedEntity
p96
Vargentina
p97
sVoffset
p98
I9
saa(lp99
(dp100
Vstart
p101
I0
sVdisambiguatedURL
p102
NsVnamedEntity
p103
Varmenia
p104
sVoffset
p105
I7
saa(lp106
(dp107
Vstart
p108
I0
sVdisambiguatedURL
p109
NsVnamedEntity
p110
Varuba
p111
sVoffset
p112
I5
saa(lp113
(dp114
Vstart
p115
I0
sVdisambiguatedURL
p116
Vhttp://dbpedia.org/resource/Oceania
p117
sVnamedEntity
p118
Vaustralia
p119
sVoffset
p120
I9
saa(lp121
(dp122
Vstart
p123
I0
sVdisambiguatedURL
p124
NsVnamedEntity
p125
Vaustria
p126
sVoffset
p127
I7
saa(lp128
(dp129
Vstart
p130
I0
sVdisambiguatedURL
p131
NsVnamedEntity
p132
Vazerbaijan
p133
sVoffset
p134
I10
saa(lp135
(dp136
Vstart
p137
I0
sVdisambiguatedURL
p138
NsVnamedEntity
p139
Vbahamas
p140
sVoffset
p141
I7
saa(lp142
(dp143
Vstart
p144
I0
sVdisambiguatedURL
p145
NsVnamedEntity
p146
Vbahrain
p147
sVoffset
p148
I7
saa.