(lp1
(lp2
(lp3
Vhttp://dbpedia.org/resource/September_1913_(poem)
p4
aa(lp5
a(lp6
a(lp7
aa(lp8
(lp9
Vhttp://dbpedia.org/resource/September_1913_(poem)
p10
aa(lp11
a(lp12
a(lp13
aa(lp14
(lp15
Vhttp://dbpedia.org/resource/September_1913_(poem)
p16
aa(lp17
a(lp18
a(lp19
aa(lp20
(lp21
Vhttp://dbpedia.org/resource/September_1913_(poem)
p22
aa(lp23
a(lp24
a(lp25
aa.