ccollections
defaultdict
p1
(c__builtin__
dict
p2
tRp3
I3
(dp4
I1
(lp5
sI2
(lp6
sI3
(lp7
sI4
(lp8
Vhttp://www.w3.org/1999/02/22-rdf-syntax-ns#type
p9
aVhttp://purl.org/dc/terms/subject
p10
aVhttp://www.w3.org/2000/01/rdf-schema#comment
p11
aVhttp://dbpedia.org/ontology/abstract
p12
aVhttp://dbpedia.org/property/river
p13
aVhttp://dbpedia.org/property/sourceLocation
p14
aVhttp://purl.org/voc/vrank#hasRank
p15
aVhttp://dbpedia.org/property/mouth
p16
aVhttp://www.w3.org/2002/07/owl#sameAs
p17
assI4
(dp18
I1
(lp19
sI2
(lp20
sI3
(lp21
sI4
(lp22
Vhttp://dbpedia.org/ontology/wikiPageExternalLink
p23
aVhttp://www.w3.org/1999/02/22-rdf-syntax-ns#type
p24
assI5
(dp25
I1
(lp26
sI2
(lp27
sI3
(lp28
sI4
(lp29
Vhttp://www.w3.org/1999/02/22-rdf-syntax-ns#type
p30
aVhttp://www.w3.org/2002/07/owl#sameAs
p31
assI6
(dp32
I1
(lp33
sI2
(lp34
sI3
(lp35
sI4
(lp36
Vhttp://purl.org/voc/vrank#hasRank
p37
assI8
(dp38
I1
(lp39
sI2
(lp40
sI3
(lp41
sI4
(lp42
Vhttp://www.w3.org/1999/02/22-rdf-syntax-ns#type
p43
aVhttp://www.w3.org/2000/01/rdf-schema#comment
p44
aVhttp://dbpedia.org/ontology/abstract
p45
aVhttp://purl.org/voc/vrank#hasRank
p46
aVhttp://www.w3.org/ns/prov#wasDerivedFrom
p47
aVhttp://dbpedia.org/ontology/viafId
p48
aVhttp://www.w3.org/2002/07/owl#sameAs
p49
assI10
(dp50
I1
(lp51
sI2
(lp52
sI3
(lp53
sI4
(lp54
Vhttp://www.w3.org/1999/02/22-rdf-syntax-ns#type
p55
aVhttp://dbpedia.org/ontology/lccnId
p56
aVhttp://dbpedia.org/ontology/abstract
p57
aVhttp://dbpedia.org/property/lccn
p58
aVhttp://www.w3.org/ns/prov#wasDerivedFrom
p59
aVhttp://dbpedia.org/property/hasPhotoCollection
p60
aVhttp://dbpedia.org/ontology/viafId
p61
aVhttp://www.w3.org/2002/07/owl#sameAs
p62
assI11
(dp63
I1
(lp64
sI2
(lp65
sI3
(lp66
sI4
(lp67
Vhttp://dbpedia.org/property/hasPhotoCollection
p68
aVhttp://www.w3.org/1999/02/22-rdf-syntax-ns#type
p69
aVhttp://www.w3.org/2002/07/owl#sameAs
p70
ass.