(lp1
(lp2
(dp3
Vstart
p4
I0
sVdisambiguatedURL
p5
NsVnamedEntity
p6
VOPORTUNIDADE DE GANHAR DINHEIRO$0.00NATAL 59127-340 Georgia
p7
sVoffset
p8
I59
saa(lp9
(dp10
Vstart
p11
I0
sVdisambiguatedURL
p12
NsVnamedEntity
p13
Vmo only at Zeekler Penny$0.00Georgia 11111111 Georgia
p14
sVoffset
p15
I75
saa(lp16
(dp17
Vstart
p18
I0
sVdisambiguatedURL
p19
NsVnamedEntity
p20
VWin $500 worth of cash$0.00Kiev 71001 Georgia
p21
sVoffset
p22
I45
saa(lp23
(dp24
Vstart
p25
I0
sVdisambiguatedURL
p26
NsVnamedEntity
p27
VGet Up to 95% off laptops electronics jewelry and even cash$0.00Georgia 10286 Georgia
p28
sVoffset
p29
I85
saa.