(lp1
(lp2
(lp3
a(lp4
a(lp5
a(lp6
aa(lp7
(lp8
a(lp9
a(lp10
a(lp11
aa(lp12
(lp13
a(lp14
a(lp15
a(lp16
aa(lp17
(lp18
a(lp19
Vhttp://dbpedia.org/resource/Null
p20
aa(lp21
Vhttp://dbpedia.org/resource/Null
p22
aa(lp23
Vhttp://dbpedia.org/resource/Null
p24
aaa.