(lp1
(lp2
(dp3
Vstart
p4
I0
sVdisambiguatedURL
p5
NsVnamedEntity
p6
Vtory burch boots
p7
sVoffset
p8
I16
saa(lp9
(dp10
Vstart
p11
I0
sVdisambiguatedURL
p12
NsVnamedEntity
p13
VThe North Face Gore Tex Jacket Yellow &#8211; Women&#8217;s
p14
sVoffset
p15
I59
saa(lp16
(dp17
Vstart
p18
I0
sVdisambiguatedURL
p19
NsVnamedEntity
p20
VBest University for finance
p21
sVoffset
p22
I27
saa(lp23
(dp24
Vstart
p25
I0
sVdisambiguatedURL
p26
NsVnamedEntity
p27
Vquery
p28
sVoffset
p29
I5
saa(lp30
(dp31
Vstart
p32
I0
sVdisambiguatedURL
p33
NsVnamedEntity
p34
Vquery
p35
sVoffset
p36
I5
saa(lp37
(dp38
Vstart
p39
I0
sVdisambiguatedURL
p40
NsVnamedEntity
p41
VCFA Track of some MSc. Programs
p42
sVoffset
p43
I31
saa(lp44
(dp45
Vstart
p46
I0
sVdisambiguatedURL
p47
NsVnamedEntity
p48
VWhich offer should i choose???
p49
sVoffset
p50
I30
saa.