(lp1
(dp2
I0
(dp3
I0
(lp4
sI1
(lp5
sI2
(lp6
sI3
(lp7
ssI1
(dp8
I0
g5
sI1
(lp9
sI2
(lp10
sI3
(lp11
ssI2
(dp12
I0
g6
sI1
g10
sI2
(lp13
sI3
(lp14
ssI3
(dp15
I0
g7
sI1
g11
sI2
g14
sI3
(lp16
ssa(dp17
I0
(dp18
I0
(lp19
sI1
(lp20
sI2
(lp21
sI3
(lp22
ssI1
(dp23
I0
g20
sI1
(lp24
sI2
(lp25
sI3
(lp26
ssI2
(dp27
I0
g21
sI1
g25
sI2
(lp28
sI3
(lp29
ssI3
(dp30
I0
g22
sI1
g26
sI2
g29
sI3
(lp31
ssa(dp32
I0
(dp33
I0
(lp34
sI1
(lp35
sI2
(lp36
sI3
(lp37
ssI1
(dp38
I0
g35
sI1
(lp39
sI2
(lp40
sI3
(lp41
ssI2
(dp42
I0
g36
sI1
g40
sI2
(lp43
sI3
(lp44
ssI3
(dp45
I0
g37
sI1
g41
sI2
g44
sI3
(lp46
ssa(dp47
I0
(dp48
I0
(lp49
sI1
(lp50
sI2
(lp51
sI3
(lp52
ssI1
(dp53
I0
g50
sI1
(lp54
sI2
(lp55
sI3
(lp56
ssI2
(dp57
I0
g51
sI1
g55
sI2
(lp58
sI3
(lp59
ssI3
(dp60
I0
g52
sI1
g56
sI2
g59
sI3
(lp61
ssa(dp62
I0
(dp63
I0
(lp64
sI1
(lp65
sI2
(lp66
sI3
(lp67
ssI1
(dp68
I0
g65
sI1
(lp69
sI2
(lp70
Vhttp://www.w3.org/ns/prov#wasDerivedFrom
p71
aVhttp://dbpedia.org/ontology/wikiPageExternalLink
p72
aVhttp://www.w3.org/2002/07/owl#sameAs
p73
aVhttp://purl.org/voc/vrank#hasRank
p74
asI3
(lp75
ssI2
(dp76
I0
g66
sI1
g70
sI2
(lp77
sI3
(lp78
ssI3
(dp79
I0
g67
sI1
g75
sI2
g78
sI3
(lp80
ssa(dp81
I0
(dp82
I0
(lp83
sI1
(lp84
sI2
(lp85
sI3
(lp86
ssI1
(dp87
I0
g84
sI1
(lp88
sI2
(lp89
sI3
(lp90
ssI2
(dp91
I0
g85
sI1
g89
sI2
(lp92
sI3
(lp93
ssI3
(dp94
I0
g86
sI1
g90
sI2
g93
sI3
(lp95
ssa(dp96
I0
(dp97
I0
(lp98
sI1
(lp99
sI2
(lp100
sI3
(lp101
ssI1
(dp102
I0
g99
sI1
(lp103
sI2
(lp104
Vhttp://www.w3.org/ns/prov#wasDerivedFrom
p105
aVhttp://purl.org/voc/vrank#hasRank
p106
asI3
(lp107
ssI2
(dp108
I0
g100
sI1
g104
sI2
(lp109
sI3
(lp110
ssI3
(dp111
I0
g101
sI1
g107
sI2
g110
sI3
(lp112
ssa.