(lp1
(lp2
(lp3
a(lp4
a(lp5
a(lp6
a(lp7
a(lp8
aa(lp9
(lp10
a(lp11
a(lp12
a(lp13
a(lp14
a(lp15
aa(lp16
(lp17
a(lp18
a(lp19
a(lp20
a(lp21
a(lp22
aa(lp23
(lp24
a(lp25
a(lp26
Vhttp://dbpedia.org/resource/Deletion
p27
aa(lp28
a(lp29
Vhttp://dbpedia.org/resource/Deletion
p30
aa(lp31
Vhttp://dbpedia.org/resource/Deletion
p32
aaa(lp33
(lp34
a(lp35
a(lp36
Vhttp://dbpedia.org/resource/Table_of_keyboard_shortcuts
p37
aa(lp38
Vhttp://dbpedia.org/resource/Table_of_keyboard_shortcuts
p39
aa(lp40
Vhttp://dbpedia.org/resource/Table_of_keyboard_shortcuts
p41
aa(lp42
Vhttp://dbpedia.org/resource/Table_of_keyboard_shortcuts
p43
aaa(lp44
(lp45
a(lp46
a(lp47
a(lp48
a(lp49
a(lp50
aa(lp51
(lp52
a(lp53
a(lp54
a(lp55
a(lp56
a(lp57
aa(lp58
(lp59
a(lp60
a(lp61
a(lp62
a(lp63
a(lp64
aa(lp65
(lp66
a(lp67
a(lp68
Vhttp://dbpedia.org/resource/Table_of_keyboard_shortcuts
p69
aa(lp70
Vhttp://dbpedia.org/resource/Table_of_keyboard_shortcuts
p71
aa(lp72
Vhttp://dbpedia.org/resource/Table_of_keyboard_shortcuts
p73
aa(lp74
Vhttp://dbpedia.org/resource/Table_of_keyboard_shortcuts
p75
aaa(lp76
(lp77
a(lp78
a(lp79
a(lp80
a(lp81
a(lp82
aa(lp83
(lp84
a(lp85
a(lp86
a(lp87
a(lp88
a(lp89
aa(lp90
(lp91
a(lp92
a(lp93
a(lp94
a(lp95
a(lp96
aa(lp97
(lp98
a(lp99
a(lp100
Vhttp://dbpedia.org/resource/Table_of_keyboard_shortcuts
p101
aa(lp102
a(lp103
a(lp104
Vhttp://dbpedia.org/resource/Table_of_keyboard_shortcuts
p105
aaa(lp106
(lp107
a(lp108
a(lp109
Vhttp://dbpedia.org/resource/Table_of_keyboard_shortcuts
p110
aa(lp111
a(lp112
a(lp113
Vhttp://dbpedia.org/resource/Table_of_keyboard_shortcuts
p114
aaa(lp115
(lp116
a(lp117
a(lp118
a(lp119
a(lp120
a(lp121
aa(lp122
(lp123
a(lp124
a(lp125
a(lp126
a(lp127
a(lp128
aa(lp129
(lp130
a(lp131
a(lp132
Vhttp://dbpedia.org/resource/Table_of_keyboard_shortcuts
p133
aa(lp134
Vhttp://dbpedia.org/resource/Table_of_keyboard_shortcuts
p135
aa(lp136
Vhttp://dbpedia.org/resource/Table_of_keyboard_shortcuts
p137
aa(lp138
Vhttp://dbpedia.org/resource/Table_of_keyboard_shortcuts
p139
aaa(lp140
(lp141
a(lp142
a(lp143
a(lp144
a(lp145
a(lp146
aa(lp147
(lp148
a(lp149
a(lp150
Vhttp://dbpedia.org/resource/Table_of_keyboard_shortcuts
p151
aa(lp152
Vhttp://dbpedia.org/resource/Table_of_keyboard_shortcuts
p153
aa(lp154
Vhttp://dbpedia.org/resource/Table_of_keyboard_shortcuts
p155
aa(lp156
Vhttp://dbpedia.org/resource/Table_of_keyboard_shortcuts
p157
aaa(lp158
(lp159
a(lp160
a(lp161
a(lp162
a(lp163
a(lp164
aa.