(lp1
(lp2
(lp3
a(lp4
a(lp5
a(lp6
Vhttp://dbpedia.org/resource/Null
p7
aa(lp8
a(lp9
a(lp10
a(lp11
a(lp12
aa(lp13
(lp14
a(lp15
a(lp16
a(lp17
Vhttp://dbpedia.org/resource/Null
p18
aa(lp19
a(lp20
a(lp21
a(lp22
a(lp23
aa(lp24
(lp25
a(lp26
a(lp27
a(lp28
Vhttp://dbpedia.org/resource/Null
p29
aa(lp30
a(lp31
a(lp32
a(lp33
a(lp34
aa(lp35
(lp36
a(lp37
a(lp38
a(lp39
Vhttp://dbpedia.org/resource/Null
p40
aa(lp41
a(lp42
a(lp43
a(lp44
a(lp45
aa(lp46
(lp47
a(lp48
a(lp49
a(lp50
Vhttp://dbpedia.org/resource/Null
p51
aa(lp52
a(lp53
a(lp54
a(lp55
a(lp56
aa(lp57
(lp58
a(lp59
a(lp60
a(lp61
Vhttp://dbpedia.org/resource/Null
p62
aa(lp63
a(lp64
a(lp65
a(lp66
a(lp67
aa(lp68
(lp69
a(lp70
a(lp71
a(lp72
Vhttp://dbpedia.org/resource/Null
p73
aa(lp74
a(lp75
a(lp76
a(lp77
a(lp78
aa(lp79
(lp80
a(lp81
a(lp82
a(lp83
Vhttp://dbpedia.org/resource/Null
p84
aa(lp85
a(lp86
a(lp87
a(lp88
a(lp89
aa(lp90
(lp91
a(lp92
a(lp93
a(lp94
Vhttp://dbpedia.org/resource/Null
p95
aa(lp96
a(lp97
a(lp98
a(lp99
a(lp100
aa(lp101
(lp102
a(lp103
Vhttp://dbpedia.org/resource/Campbellsport,_Wisconsin
p104
aa(lp105
a(lp106
Vhttp://dbpedia.org/resource/Null
p107
aa(lp108
a(lp109
a(lp110
a(lp111
a(lp112
aa(lp113
(lp114
a(lp115
a(lp116
a(lp117
Vhttp://dbpedia.org/resource/Null
p118
aa(lp119
a(lp120
a(lp121
a(lp122
a(lp123
aa(lp124
(lp125
a(lp126
a(lp127
a(lp128
Vhttp://dbpedia.org/resource/Null
p129
aa(lp130
a(lp131
a(lp132
a(lp133
a(lp134
aa(lp135
(lp136
a(lp137
a(lp138
a(lp139
Vhttp://dbpedia.org/resource/Null
p140
aa(lp141
a(lp142
a(lp143
a(lp144
a(lp145
aa(lp146
(lp147
Vhttp://dbpedia.org/resource/Null
p148
aa(lp149
Vhttp://dbpedia.org/resource/Null
p150
aa(lp151
Vhttp://dbpedia.org/resource/Null
p152
aa(lp153
Vhttp://dbpedia.org/resource/Null
p154
aa(lp155
a(lp156
a(lp157
a(lp158
a(lp159
aa(lp160
(lp161
Vhttp://dbpedia.org/resource/Null
p162
aa(lp163
Vhttp://dbpedia.org/resource/Null
p164
aa(lp165
Vhttp://dbpedia.org/resource/Null
p166
aa(lp167
Vhttp://dbpedia.org/resource/Null
p168
aa(lp169
a(lp170
a(lp171
a(lp172
a(lp173
aa(lp174
(lp175
Vhttp://dbpedia.org/resource/Null
p176
aa(lp177
Vhttp://dbpedia.org/resource/Null
p178
aa(lp179
Vhttp://dbpedia.org/resource/Null
p180
aa(lp181
Vhttp://dbpedia.org/resource/Null
p182
aa(lp183
a(lp184
a(lp185
a(lp186
a(lp187
aa(lp188
(lp189
Vhttp://dbpedia.org/resource/Null
p190
aa(lp191
Vhttp://dbpedia.org/resource/Null
p192
aa(lp193
Vhttp://dbpedia.org/resource/Null
p194
aa(lp195
Vhttp://dbpedia.org/resource/Null
p196
aa(lp197
a(lp198
a(lp199
a(lp200
a(lp201
aa(lp202
(lp203
Vhttp://dbpedia.org/resource/Null
p204
aa(lp205
Vhttp://dbpedia.org/resource/Null
p206
aa(lp207
Vhttp://dbpedia.org/resource/Null
p208
aa(lp209
Vhttp://dbpedia.org/resource/Null
p210
aa(lp211
a(lp212
a(lp213
a(lp214
a(lp215
aa(lp216
(lp217
Vhttp://dbpedia.org/resource/Null
p218
aa(lp219
Vhttp://dbpedia.org/resource/Null
p220
aa(lp221
Vhttp://dbpedia.org/resource/Null
p222
aa(lp223
Vhttp://dbpedia.org/resource/Null
p224
aa(lp225
a(lp226
a(lp227
a(lp228
a(lp229
aa.