(lp1
(lp2
(lp3
a(lp4
a(lp5
a(lp6
((lVhttp://dbpedia.org/resource/Null
tp7
aa(lp8
a(lp9
a(lp10
a(lp11
a(lp12
aa(lp13
(lp14
a(lp15
a(lp16
a(lp17
((lVhttp://dbpedia.org/resource/Null
tp18
aa(lp19
a(lp20
a(lp21
a(lp22
a(lp23
aa(lp24
(lp25
a(lp26
a(lp27
a(lp28
((lVhttp://dbpedia.org/resource/Null
tp29
aa(lp30
a(lp31
a(lp32
a(lp33
a(lp34
aa(lp35
(lp36
a(lp37
a(lp38
a(lp39
((lVhttp://dbpedia.org/resource/Null
tp40
aa(lp41
a(lp42
a(lp43
a(lp44
a(lp45
aa(lp46
(lp47
a(lp48
a(lp49
a(lp50
((lVhttp://dbpedia.org/resource/Null
tp51
aa(lp52
a(lp53
a(lp54
a(lp55
a(lp56
aa(lp57
(lp58
a(lp59
a(lp60
a(lp61
((lVhttp://dbpedia.org/resource/Null
tp62
aa(lp63
a(lp64
a(lp65
a(lp66
a(lp67
aa(lp68
(lp69
a(lp70
a(lp71
a(lp72
((lVhttp://dbpedia.org/resource/Null
tp73
aa(lp74
a(lp75
a(lp76
a(lp77
a(lp78
aa(lp79
(lp80
a(lp81
a(lp82
a(lp83
((lVhttp://dbpedia.org/resource/Null
tp84
aa(lp85
a(lp86
a(lp87
a(lp88
a(lp89
aa(lp90
(lp91
a(lp92
a(lp93
a(lp94
((lVhttp://dbpedia.org/resource/Null
tp95
aa(lp96
a(lp97
a(lp98
a(lp99
a(lp100
aa(lp101
(lp102
a(lp103
((lp104
Vhttp://www.w3.org/2002/07/owl#Thing
p105
aVhttp://dbpedia.org/ontology/Place
p106
aVhttp://dbpedia.org/ontology/Location
p107
aVhttp://www.wikidata.org/entity/Q486972
p108
aVhttp://www.wikidata.org/entity/Q532
p109
aVhttp://dbpedia.org/ontology/PopulatedPlace
p110
aVhttp://dbpedia.org/ontology/Settlement
p111
aVhttp://dbpedia.org/ontology/Village
p112
aVhttp://www.w3.org/2003/01/geo/wgs84_pos#SpatialThing
p113
aVhttp://schema.org/Place
p114
aVhttp://umbel.org/umbel/rc/Village
p115
aVhttp://dbpedia.org/class/yago/AdministrativeDistrict108491826
p116
aVhttp://dbpedia.org/class/yago/District108552138
p117
aVhttp://dbpedia.org/class/yago/Location100027167
p118
aVhttp://dbpedia.org/class/yago/Object100002684
p119
aVhttp://dbpedia.org/class/yago/Region108630985
p120
aVhttp://dbpedia.org/class/yago/Site108651247
p121
aVhttp://dbpedia.org/class/yago/Tract108673395
p122
aVhttp://dbpedia.org/class/yago/Village108672738
p123
aVhttp://dbpedia.org/class/yago/YagoGeoEntity
p124
aVhttp://dbpedia.org/class/yago/YagoLegalActorGeo
p125
aVhttp://dbpedia.org/class/yago/GeographicalArea108574314
p126
aVhttp://dbpedia.org/class/yago/PhysicalEntity100001930
p127
aVhttp://dbpedia.org/class/yago/YagoPermanentlyLocatedEntity
p128
aVhttp://dbpedia.org/class/yago/PopulatedPlacesInFondDuLacCounty,Wisconsin
p129
aVhttp://dbpedia.org/class/yago/Settlement108672562
p130
aVhttp://dbpedia.org/class/yago/VillagesInWisconsin
p131
aVhttp://dbpedia.org/resource/Campbellsport,_Wisconsin
tp132
aa(lp133
a(lp134
((lVhttp://dbpedia.org/resource/Null
tp135
aa(lp136
a(lp137
a(lp138
a(lp139
a(lp140
aa(lp141
(lp142
a(lp143
a(lp144
a(lp145
((lVhttp://dbpedia.org/resource/Null
tp146
aa(lp147
a(lp148
a(lp149
a(lp150
a(lp151
aa(lp152
(lp153
a(lp154
a(lp155
a(lp156
((lVhttp://dbpedia.org/resource/Null
tp157
aa(lp158
a(lp159
a(lp160
a(lp161
a(lp162
aa(lp163
(lp164
a(lp165
a(lp166
a(lp167
((lVhttp://dbpedia.org/resource/Null
tp168
aa(lp169
a(lp170
a(lp171
a(lp172
a(lp173
aa(lp174
(lp175
((lVhttp://dbpedia.org/resource/Null
tp176
aa(lp177
((lVhttp://dbpedia.org/resource/Null
tp178
aa(lp179
((lVhttp://dbpedia.org/resource/Null
tp180
aa(lp181
((lVhttp://dbpedia.org/resource/Null
tp182
aa(lp183
a(lp184
a(lp185
a(lp186
a(lp187
aa(lp188
(lp189
((lVhttp://dbpedia.org/resource/Null
tp190
aa(lp191
((lVhttp://dbpedia.org/resource/Null
tp192
aa(lp193
((lVhttp://dbpedia.org/resource/Null
tp194
aa(lp195
((lVhttp://dbpedia.org/resource/Null
tp196
aa(lp197
a(lp198
a(lp199
a(lp200
a(lp201
aa(lp202
(lp203
((lVhttp://dbpedia.org/resource/Null
tp204
aa(lp205
((lVhttp://dbpedia.org/resource/Null
tp206
aa(lp207
((lVhttp://dbpedia.org/resource/Null
tp208
aa(lp209
((lVhttp://dbpedia.org/resource/Null
tp210
aa(lp211
a(lp212
a(lp213
a(lp214
a(lp215
aa(lp216
(lp217
((lVhttp://dbpedia.org/resource/Null
tp218
aa(lp219
((lVhttp://dbpedia.org/resource/Null
tp220
aa(lp221
((lVhttp://dbpedia.org/resource/Null
tp222
aa(lp223
((lVhttp://dbpedia.org/resource/Null
tp224
aa(lp225
a(lp226
a(lp227
a(lp228
a(lp229
aa(lp230
(lp231
((lVhttp://dbpedia.org/resource/Null
tp232
aa(lp233
((lVhttp://dbpedia.org/resource/Null
tp234
aa(lp235
((lVhttp://dbpedia.org/resource/Null
tp236
aa(lp237
((lVhttp://dbpedia.org/resource/Null
tp238
aa(lp239
a(lp240
a(lp241
a(lp242
a(lp243
aa(lp244
(lp245
((lVhttp://dbpedia.org/resource/Null
tp246
aa(lp247
((lVhttp://dbpedia.org/resource/Null
tp248
aa(lp249
((lVhttp://dbpedia.org/resource/Null
tp250
aa(lp251
((lVhttp://dbpedia.org/resource/Null
p252
tp253
aa(lp254
a(lp255
a(lp256
a(lp257
a(lp258
aa.