(lp1
(lp2
(dp3
Vstart
p4
I0
sVdisambiguatedURL
p5
NsVnamedEntity
p6
V8 Jul 201218:00
p7
sVoffset
p8
I15
saa(lp9
(dp10
Vstart
p11
I0
sVdisambiguatedURL
p12
NsVnamedEntity
p13
V8 Aug 201220:00
p14
sVoffset
p15
I15
saa(lp16
(dp17
Vstart
p18
I0
sVdisambiguatedURL
p19
NsVnamedEntity
p20
V10 Aug 201220:00
p21
sVoffset
p22
I16
saa(lp23
(dp24
Vstart
p25
I0
sVdisambiguatedURL
p26
NsVnamedEntity
p27
V15 Aug 201219:30
p28
sVoffset
p29
I16
saa(lp30
(dp31
Vstart
p32
I0
sVdisambiguatedURL
p33
NsVnamedEntity
p34
V18 Aug 201220:00
p35
sVoffset
p36
I16
saa.