(lp1
(lp2
(dp3
Vstart
p4
I0
sVdisambiguatedURL
p5
NsVnamedEntity
p6
V1
sVoffset
p7
I1
saa(lp8
(dp9
Vstart
p10
I0
sVdisambiguatedURL
p11
NsVnamedEntity
p12
V2
sVoffset
p13
I1
saa(lp14
(dp15
Vstart
p16
I0
sVdisambiguatedURL
p17
NsVnamedEntity
p18
V3
sVoffset
p19
I1
saa(lp20
(dp21
Vstart
p22
I0
sVdisambiguatedURL
p23
NsVnamedEntity
p24
V4
sVoffset
p25
I1
saa(lp26
(dp27
Vstart
p28
I0
sVdisambiguatedURL
p29
NsVnamedEntity
p30
V*5
p31
sVoffset
p32
I2
saa.