(lp1
(lp2
a(lp3
a(lp4
a(lp5
a(lp6
a(lp7
(dp8
Vstart
p9
I0
sS'classes'
p10
(lp11
Vhttp://www.w3.org/2002/07/owl#Thing
p12
aVhttp://dbpedia.org/ontology/Place
p13
aVhttp://dbpedia.org/ontology/Location
p14
aVhttp://www.wikidata.org/entity/Q486972
p15
aVhttp://www.wikidata.org/entity/Q515
p16
aVhttp://dbpedia.org/ontology/City
p17
aVhttp://dbpedia.org/ontology/PopulatedPlace
p18
aVhttp://dbpedia.org/ontology/Settlement
p19
aVhttp://www.w3.org/2003/01/geo/wgs84_pos#SpatialThing
p20
aVhttp://schema.org/City
p21
aVhttp://schema.org/Place
p22
aVhttp://umbel.org/umbel/rc/PopulatedPlace
p23
aVhttp://dbpedia.org/class/yago/AdministrativeDistrict108491826
p24
aVhttp://dbpedia.org/class/yago/City108524735
p25
aVhttp://dbpedia.org/class/yago/District108552138
p26
aVhttp://dbpedia.org/class/yago/Location100027167
p27
aVhttp://dbpedia.org/class/yago/Object100002684
p28
aVhttp://dbpedia.org/class/yago/Region108630985
p29
aVhttp://dbpedia.org/class/yago/UrbanArea108675967
p30
aVhttp://dbpedia.org/class/yago/YagoGeoEntity
p31
aVhttp://dbpedia.org/class/yago/YagoLegalActorGeo
p32
aVhttp://dbpedia.org/class/yago/CitiesAndTownsInPuneDistrict
p33
aVhttp://dbpedia.org/class/yago/GeographicalArea108574314
p34
aVhttp://dbpedia.org/class/yago/Municipality108626283
p35
aVhttp://dbpedia.org/class/yago/PhysicalEntity100001930
p36
aVhttp://dbpedia.org/class/yago/YagoPermanentlyLocatedEntity
p37
aVhttp://dbpedia.org/class/yago/TwinCities
p38
asVdisambiguatedURL
p39
Vhttp://dbpedia.org/resource/Pimpri-Chinchwad
p40
sVnamedEntity
p41
VPimpri-Chinchwad
p42
sVoffset
p43
I16
saa(lp44
a(lp45
(dp46
Vstart
p47
I0
sg10
(lp48
Vhttp://www.w3.org/2002/07/owl#Thing
p49
aVhttp://dbpedia.org/ontology/Place
p50
aVhttp://dbpedia.org/ontology/Location
p51
aVhttp://www.wikidata.org/entity/Q486972
p52
aVhttp://www.wikidata.org/entity/Q515
p53
aVhttp://dbpedia.org/ontology/City
p54
aVhttp://dbpedia.org/ontology/PopulatedPlace
p55
aVhttp://dbpedia.org/ontology/Settlement
p56
aVhttp://www.w3.org/2003/01/geo/wgs84_pos#SpatialThing
p57
aVhttp://schema.org/City
p58
aVhttp://schema.org/Place
p59
aVhttp://umbel.org/umbel/rc/Location_Underspecified
p60
aVhttp://umbel.org/umbel/rc/PopulatedPlace
p61
aVhttp://dbpedia.org/class/yago/AdministrativeDistrict108491826
p62
aVhttp://dbpedia.org/class/yago/City108524735
p63
aVhttp://dbpedia.org/class/yago/District108552138
p64
aVhttp://dbpedia.org/class/yago/Location100027167
p65
aVhttp://dbpedia.org/class/yago/Object100002684
p66
aVhttp://dbpedia.org/class/yago/Region108630985
p67
aVhttp://dbpedia.org/class/yago/Site108651247
p68
aVhttp://dbpedia.org/class/yago/Tract108673395
p69
aVhttp://dbpedia.org/class/yago/UrbanArea108675967
p70
aVhttp://dbpedia.org/class/yago/YagoGeoEntity
p71
aVhttp://dbpedia.org/class/yago/YagoLegalActorGeo
p72
aVhttp://dbpedia.org/class/yago/CitiesAndTownsInMaharashtra
p73
aVhttp://dbpedia.org/class/yago/GeographicalArea108574314
p74
aVhttp://dbpedia.org/class/yago/Municipality108626283
p75
aVhttp://dbpedia.org/class/yago/PhysicalEntity100001930
p76
aVhttp://dbpedia.org/class/yago/YagoPermanentlyLocatedEntity
p77
aVhttp://dbpedia.org/class/yago/IndianCapitalCities
p78
aVhttp://dbpedia.org/class/yago/MetropolitanCitiesInIndia
p79
aVhttp://dbpedia.org/class/yago/PopulatedCoastalPlacesInIndia
p80
aVhttp://dbpedia.org/class/yago/PortCitiesInIndia
p81
asVdisambiguatedURL
p82
Vhttp://dbpedia.org/resource/Mumbai
p83
sVnamedEntity
p84
VMumbai
p85
sVoffset
p86
I6
saa(lp87
a.