(lp1
(lp2
(lp3
a(lp4
a(lp5
a(lp6
((lp7
Vhttp://www.w3.org/2002/07/owl#Thing
p8
aVhttp://dbpedia.org/ontology/Place
p9
aVhttp://dbpedia.org/ontology/Location
p10
aVhttp://www.wikidata.org/entity/Q486972
p11
aVhttp://www.wikidata.org/entity/Q6256
p12
aVhttp://dbpedia.org/ontology/Country
p13
aVhttp://dbpedia.org/ontology/PopulatedPlace
p14
aVhttp://www.w3.org/2003/01/geo/wgs84_pos#SpatialThing
p15
aVhttp://schema.org/Country
p16
aVhttp://schema.org/Place
p17
aVhttp://umbel.org/umbel/rc/Country
p18
aVhttp://umbel.org/umbel/rc/Location_Underspecified
p19
aVhttp://umbel.org/umbel/rc/PopulatedPlace
p20
aVhttp://dbpedia.org/class/yago/Abstraction100002137
p21
aVhttp://dbpedia.org/class/yago/AdministrativeDistrict108491826
p22
aVhttp://dbpedia.org/class/yago/BlackSeaCountries
p23
aVhttp://dbpedia.org/class/yago/Country108544813
p24
aVhttp://dbpedia.org/class/yago/District108552138
p25
aVhttp://dbpedia.org/class/yago/Domain108556491
p26
aVhttp://dbpedia.org/class/yago/Economy108366753
p27
aVhttp://dbpedia.org/class/yago/Group100031264
p28
aVhttp://dbpedia.org/class/yago/Location100027167
p29
aVhttp://dbpedia.org/class/yago/Object100002684
p30
aVhttp://dbpedia.org/class/yago/Region108630985
p31
aVhttp://dbpedia.org/class/yago/System108435388
p32
aVhttp://dbpedia.org/class/yago/YagoGeoEntity
p33
aVhttp://dbpedia.org/class/yago/YagoLegalActorGeo
p34
aVhttp://dbpedia.org/class/yago/Empire108557482
p35
aVhttp://dbpedia.org/class/yago/EuropeanCountries
p36
aVhttp://dbpedia.org/class/yago/EuropeanUnionMemberEconomies
p37
aVhttp://dbpedia.org/class/yago/FormerEmpires
p38
aVhttp://dbpedia.org/class/yago/PhysicalEntity100001930
p39
aVhttp://dbpedia.org/class/yago/YagoPermanentlyLocatedEntity
p40
aVhttp://dbpedia.org/class/yago/MemberStatesOfLaFrancophonie
p41
aVhttp://dbpedia.org/class/yago/MemberStatesOfNATO
p42
aVhttp://dbpedia.org/class/yago/MemberStatesOfTheEuropeanUnion
p43
aVhttp://dbpedia.org/class/yago/MemberStatesOfTheUnionForTheMediterranean
p44
aVhttp://dbpedia.org/class/yago/MemberStatesOfTheUnitedNations
p45
aVhttp://dbpedia.org/class/yago/SlavicCountries
p46
aVhttp://dbpedia.org/class/yago/StatesAndTerritoriesEstablishedIn1878
p47
aVhttp://dbpedia.org/class/yago/StatesAndTerritoriesEstablishedIn1908
p48
aVhttp://dbpedia.org/class/yago/StatesAndTerritoriesEstablishedIn681
p49
aVhttp://dbpedia.org/class/yago/WorldTradeOrganizationMemberEconomies
p50
aVhttp://dbpedia.org/resource/Bulgaria
tp51
aa(lp52
((lp53
Vhttp://www.w3.org/2002/07/owl#Thing
p54
aVhttp://dbpedia.org/ontology/Place
p55
aVhttp://dbpedia.org/ontology/Location
p56
aVhttp://www.wikidata.org/entity/Q3957
p57
aVhttp://www.wikidata.org/entity/Q486972
p58
aVhttp://dbpedia.org/ontology/PopulatedPlace
p59
aVhttp://dbpedia.org/ontology/Settlement
p60
aVhttp://dbpedia.org/ontology/Town
p61
aVhttp://www.w3.org/2003/01/geo/wgs84_pos#SpatialThing
p62
aVhttp://schema.org/Place
p63
aVhttp://umbel.org/umbel/rc/Town
p64
aVhttp://dbpedia.org/class/yago/AdministrativeDistrict108491826
p65
aVhttp://dbpedia.org/class/yago/Area108497294
p66
aVhttp://dbpedia.org/class/yago/Center108523483
p67
aVhttp://dbpedia.org/class/yago/District108552138
p68
aVhttp://dbpedia.org/class/yago/Location100027167
p69
aVhttp://dbpedia.org/class/yago/Object100002684
p70
aVhttp://dbpedia.org/class/yago/Region108630985
p71
aVhttp://dbpedia.org/class/yago/Seat108647945
p72
aVhttp://dbpedia.org/class/yago/Site108651247
p73
aVhttp://dbpedia.org/class/yago/Town108665504
p74
aVhttp://dbpedia.org/class/yago/Tract108673395
p75
aVhttp://dbpedia.org/class/yago/UrbanArea108675967
p76
aVhttp://dbpedia.org/class/yago/YagoGeoEntity
p77
aVhttp://dbpedia.org/class/yago/YagoLegalActorGeo
p78
aVhttp://dbpedia.org/class/yago/CountySeat108547143
p79
aVhttp://dbpedia.org/class/yago/CountySeatsInIndiana
p80
aVhttp://dbpedia.org/class/yago/GeographicalArea108574314
p81
aVhttp://dbpedia.org/class/yago/Municipality108626283
p82
aVhttp://dbpedia.org/class/yago/PhysicalEntity100001930
p83
aVhttp://dbpedia.org/class/yago/YagoPermanentlyLocatedEntity
p84
aVhttp://dbpedia.org/class/yago/PopulatedPlacesInCrawfordCounty,Indiana
p85
aVhttp://dbpedia.org/class/yago/TownsInIndiana
p86
aVhttp://dbpedia.org/resource/English,_Indiana
tp87
aaa(lp88
(lp89
a(lp90
a(lp91
a(lp92
((lp93
Vhttp://www.w3.org/2002/07/owl#Thing
p94
aVhttp://dbpedia.org/ontology/Place
p95
aVhttp://dbpedia.org/ontology/Location
p96
aVhttp://www.wikidata.org/entity/Q486972
p97
aVhttp://www.wikidata.org/entity/Q6256
p98
aVhttp://dbpedia.org/ontology/Country
p99
aVhttp://dbpedia.org/ontology/PopulatedPlace
p100
aVhttp://www.w3.org/2003/01/geo/wgs84_pos#SpatialThing
p101
aVhttp://schema.org/Country
p102
aVhttp://schema.org/Place
p103
aVhttp://umbel.org/umbel/rc/Country
p104
aVhttp://umbel.org/umbel/rc/Location_Underspecified
p105
aVhttp://umbel.org/umbel/rc/PopulatedPlace
p106
aVhttp://dbpedia.org/class/yago/Abstraction100002137
p107
aVhttp://dbpedia.org/class/yago/AdministrativeDistrict108491826
p108
aVhttp://dbpedia.org/class/yago/BlackSeaCountries
p109
aVhttp://dbpedia.org/class/yago/Country108544813
p110
aVhttp://dbpedia.org/class/yago/District108552138
p111
aVhttp://dbpedia.org/class/yago/Economy108366753
p112
aVhttp://dbpedia.org/class/yago/Group100031264
p113
aVhttp://dbpedia.org/class/yago/Location100027167
p114
aVhttp://dbpedia.org/class/yago/Object100002684
p115
aVhttp://dbpedia.org/class/yago/Region108630985
p116
aVhttp://dbpedia.org/class/yago/System108435388
p117
aVhttp://dbpedia.org/class/yago/YagoGeoEntity
p118
aVhttp://dbpedia.org/class/yago/YagoLegalActorGeo
p119
aVhttp://dbpedia.org/class/yago/EuropeanCountries
p120
aVhttp://dbpedia.org/class/yago/EuropeanUnionMemberEconomies
p121
aVhttp://dbpedia.org/class/yago/PhysicalEntity100001930
p122
aVhttp://dbpedia.org/class/yago/YagoPermanentlyLocatedEntity
p123
aVhttp://dbpedia.org/class/yago/MemberStatesOfNATO
p124
aVhttp://dbpedia.org/class/yago/MemberStatesOfTheEuropeanUnion
p125
aVhttp://dbpedia.org/class/yago/MemberStatesOfTheUnionForTheMediterranean
p126
aVhttp://dbpedia.org/class/yago/MemberStatesOfTheUnitedNations
p127
aVhttp://dbpedia.org/class/yago/Romanian-speakingCountriesAndTerritories
p128
aVhttp://dbpedia.org/class/yago/StatesAndTerritoriesEstablishedIn1878
p129
aVhttp://dbpedia.org/resource/Romania
tp130
aa(lp131
((lp132
Vhttp://www.w3.org/2002/07/owl#Thing
p133
aVhttp://dbpedia.org/ontology/Place
p134
aVhttp://dbpedia.org/ontology/Location
p135
aVhttp://www.wikidata.org/entity/Q3957
p136
aVhttp://www.wikidata.org/entity/Q486972
p137
aVhttp://dbpedia.org/ontology/PopulatedPlace
p138
aVhttp://dbpedia.org/ontology/Settlement
p139
aVhttp://dbpedia.org/ontology/Town
p140
aVhttp://www.w3.org/2003/01/geo/wgs84_pos#SpatialThing
p141
aVhttp://schema.org/Place
p142
aVhttp://umbel.org/umbel/rc/Town
p143
aVhttp://dbpedia.org/class/yago/AdministrativeDistrict108491826
p144
aVhttp://dbpedia.org/class/yago/Area108497294
p145
aVhttp://dbpedia.org/class/yago/Center108523483
p146
aVhttp://dbpedia.org/class/yago/District108552138
p147
aVhttp://dbpedia.org/class/yago/Location100027167
p148
aVhttp://dbpedia.org/class/yago/Object100002684
p149
aVhttp://dbpedia.org/class/yago/Region108630985
p150
aVhttp://dbpedia.org/class/yago/Seat108647945
p151
aVhttp://dbpedia.org/class/yago/Site108651247
p152
aVhttp://dbpedia.org/class/yago/Town108665504
p153
aVhttp://dbpedia.org/class/yago/Tract108673395
p154
aVhttp://dbpedia.org/class/yago/UrbanArea108675967
p155
aVhttp://dbpedia.org/class/yago/YagoGeoEntity
p156
aVhttp://dbpedia.org/class/yago/YagoLegalActorGeo
p157
aVhttp://dbpedia.org/class/yago/CountySeat108547143
p158
aVhttp://dbpedia.org/class/yago/CountySeatsInIndiana
p159
aVhttp://dbpedia.org/class/yago/GeographicalArea108574314
p160
aVhttp://dbpedia.org/class/yago/Municipality108626283
p161
aVhttp://dbpedia.org/class/yago/PhysicalEntity100001930
p162
aVhttp://dbpedia.org/class/yago/YagoPermanentlyLocatedEntity
p163
aVhttp://dbpedia.org/class/yago/PopulatedPlacesInCrawfordCounty,Indiana
p164
aVhttp://dbpedia.org/class/yago/TownsInIndiana
p165
aVhttp://dbpedia.org/resource/English,_Indiana
tp166
aaa(lp167
(lp168
a(lp169
a(lp170
a(lp171
((lp172
Vhttp://www.w3.org/2002/07/owl#Thing
p173
aVhttp://dbpedia.org/ontology/Place
p174
aVhttp://dbpedia.org/ontology/Location
p175
aVhttp://www.wikidata.org/entity/Q23442
p176
aVhttp://www.wikidata.org/entity/Q486972
p177
aVhttp://dbpedia.org/ontology/Island
p178
aVhttp://dbpedia.org/ontology/PopulatedPlace
p179
aVhttp://schema.org/Place
p180
aVhttp://umbel.org/umbel/rc/Island
p181
aVhttp://umbel.org/umbel/rc/Location_Underspecified
p182
aVhttp://umbel.org/umbel/rc/PopulatedPlace
p183
aVhttp://dbpedia.org/class/yago/Island109316454
p184
aVhttp://dbpedia.org/class/yago/Land109334396
p185
aVhttp://dbpedia.org/class/yago/Object100002684
p186
aVhttp://dbpedia.org/class/yago/YagoGeoEntity
p187
aVhttp://dbpedia.org/class/yago/PhysicalEntity100001930
p188
aVhttp://dbpedia.org/class/yago/YagoPermanentlyLocatedEntity
p189
aVhttp://dbpedia.org/class/yago/IslandsOfTheBritishIsles
p190
aVhttp://dbpedia.org/resource/Great_Britain
tp191
aa(lp192
((lp193
Vhttp://www.w3.org/2002/07/owl#Thing
p194
aVhttp://dbpedia.org/ontology/Place
p195
aVhttp://dbpedia.org/ontology/Location
p196
aVhttp://www.wikidata.org/entity/Q3957
p197
aVhttp://www.wikidata.org/entity/Q486972
p198
aVhttp://dbpedia.org/ontology/PopulatedPlace
p199
aVhttp://dbpedia.org/ontology/Settlement
p200
aVhttp://dbpedia.org/ontology/Town
p201
aVhttp://www.w3.org/2003/01/geo/wgs84_pos#SpatialThing
p202
aVhttp://schema.org/Place
p203
aVhttp://umbel.org/umbel/rc/Town
p204
aVhttp://dbpedia.org/class/yago/AdministrativeDistrict108491826
p205
aVhttp://dbpedia.org/class/yago/Area108497294
p206
aVhttp://dbpedia.org/class/yago/Center108523483
p207
aVhttp://dbpedia.org/class/yago/District108552138
p208
aVhttp://dbpedia.org/class/yago/Location100027167
p209
aVhttp://dbpedia.org/class/yago/Object100002684
p210
aVhttp://dbpedia.org/class/yago/Region108630985
p211
aVhttp://dbpedia.org/class/yago/Seat108647945
p212
aVhttp://dbpedia.org/class/yago/Site108651247
p213
aVhttp://dbpedia.org/class/yago/Town108665504
p214
aVhttp://dbpedia.org/class/yago/Tract108673395
p215
aVhttp://dbpedia.org/class/yago/UrbanArea108675967
p216
aVhttp://dbpedia.org/class/yago/YagoGeoEntity
p217
aVhttp://dbpedia.org/class/yago/YagoLegalActorGeo
p218
aVhttp://dbpedia.org/class/yago/CountySeat108547143
p219
aVhttp://dbpedia.org/class/yago/CountySeatsInIndiana
p220
aVhttp://dbpedia.org/class/yago/GeographicalArea108574314
p221
aVhttp://dbpedia.org/class/yago/Municipality108626283
p222
aVhttp://dbpedia.org/class/yago/PhysicalEntity100001930
p223
aVhttp://dbpedia.org/class/yago/YagoPermanentlyLocatedEntity
p224
aVhttp://dbpedia.org/class/yago/PopulatedPlacesInCrawfordCounty,Indiana
p225
aVhttp://dbpedia.org/class/yago/TownsInIndiana
p226
aVhttp://dbpedia.org/resource/English,_Indiana
tp227
aaa(lp228
(lp229
a(lp230
a(lp231
a(lp232
((lp233
Vhttp://www.w3.org/2002/07/owl#Thing
p234
aVhttp://dbpedia.org/ontology/Place
p235
aVhttp://dbpedia.org/ontology/Location
p236
aVhttp://www.wikidata.org/entity/Q486972
p237
aVhttp://www.wikidata.org/entity/Q6256
p238
aVhttp://dbpedia.org/ontology/Country
p239
aVhttp://dbpedia.org/ontology/PopulatedPlace
p240
aVhttp://www.w3.org/2003/01/geo/wgs84_pos#SpatialThing
p241
aVhttp://schema.org/Country
p242
aVhttp://schema.org/Place
p243
aVhttp://umbel.org/umbel/rc/Country
p244
aVhttp://umbel.org/umbel/rc/Location_Underspecified
p245
aVhttp://umbel.org/umbel/rc/PopulatedPlace
p246
aVhttp://dbpedia.org/class/yago/Abstraction100002137
p247
aVhttp://dbpedia.org/class/yago/AdministrativeDistrict108491826
p248
aVhttp://dbpedia.org/class/yago/BicontinentalCountries
p249
aVhttp://dbpedia.org/class/yago/BlackSeaCountries
p250
aVhttp://dbpedia.org/class/yago/Country108544813
p251
aVhttp://dbpedia.org/class/yago/District108552138
p252
aVhttp://dbpedia.org/class/yago/Economy108366753
p253
aVhttp://dbpedia.org/class/yago/Group100031264
p254
aVhttp://dbpedia.org/class/yago/Location100027167
p255
aVhttp://dbpedia.org/class/yago/Object100002684
p256
aVhttp://dbpedia.org/class/yago/Region108630985
p257
aVhttp://dbpedia.org/class/yago/System108435388
p258
aVhttp://dbpedia.org/class/yago/YagoGeoEntity
p259
aVhttp://dbpedia.org/class/yago/YagoLegalActorGeo
p260
aVhttp://dbpedia.org/class/yago/CentralAsianCountries
p261
aVhttp://dbpedia.org/class/yago/CountriesBorderingTheArcticOcean
p262
aVhttp://dbpedia.org/class/yago/CountriesBorderingTheBalticSea
p263
aVhttp://dbpedia.org/class/yago/CountriesBorderingThePacificOcean
p264
aVhttp://dbpedia.org/class/yago/EastAsianCountries
p265
aVhttp://dbpedia.org/class/yago/EuropeanCountries
p266
aVhttp://dbpedia.org/class/yago/FederalCountries
p267
aVhttp://dbpedia.org/class/yago/PhysicalEntity100001930
p268
aVhttp://dbpedia.org/class/yago/YagoPermanentlyLocatedEntity
p269
aVhttp://dbpedia.org/class/yago/MemberStatesOfTheCommonwealthOfIndependentStates
p270
aVhttp://dbpedia.org/class/yago/MemberStatesOfTheUnitedNations
p271
aVhttp://dbpedia.org/class/yago/NorthAsianCountries
p272
aVhttp://dbpedia.org/class/yago/Russian-speakingCountriesAndTerritories
p273
aVhttp://dbpedia.org/class/yago/SlavicCountries
p274
aVhttp://dbpedia.org/class/yago/StatesAndTerritoriesEstablishedIn862
p275
aVhttp://dbpedia.org/resource/Russia
tp276
aa(lp277
((lp278
Vhttp://www.w3.org/2002/07/owl#Thing
p279
aVhttp://dbpedia.org/ontology/Place
p280
aVhttp://dbpedia.org/ontology/Location
p281
aVhttp://www.wikidata.org/entity/Q3957
p282
aVhttp://www.wikidata.org/entity/Q486972
p283
aVhttp://dbpedia.org/ontology/PopulatedPlace
p284
aVhttp://dbpedia.org/ontology/Settlement
p285
aVhttp://dbpedia.org/ontology/Town
p286
aVhttp://www.w3.org/2003/01/geo/wgs84_pos#SpatialThing
p287
aVhttp://schema.org/Place
p288
aVhttp://umbel.org/umbel/rc/Town
p289
aVhttp://dbpedia.org/class/yago/AdministrativeDistrict108491826
p290
aVhttp://dbpedia.org/class/yago/Area108497294
p291
aVhttp://dbpedia.org/class/yago/Center108523483
p292
aVhttp://dbpedia.org/class/yago/District108552138
p293
aVhttp://dbpedia.org/class/yago/Location100027167
p294
aVhttp://dbpedia.org/class/yago/Object100002684
p295
aVhttp://dbpedia.org/class/yago/Region108630985
p296
aVhttp://dbpedia.org/class/yago/Seat108647945
p297
aVhttp://dbpedia.org/class/yago/Site108651247
p298
aVhttp://dbpedia.org/class/yago/Town108665504
p299
aVhttp://dbpedia.org/class/yago/Tract108673395
p300
aVhttp://dbpedia.org/class/yago/UrbanArea108675967
p301
aVhttp://dbpedia.org/class/yago/YagoGeoEntity
p302
aVhttp://dbpedia.org/class/yago/YagoLegalActorGeo
p303
aVhttp://dbpedia.org/class/yago/CountySeat108547143
p304
aVhttp://dbpedia.org/class/yago/CountySeatsInIndiana
p305
aVhttp://dbpedia.org/class/yago/GeographicalArea108574314
p306
aVhttp://dbpedia.org/class/yago/Municipality108626283
p307
aVhttp://dbpedia.org/class/yago/PhysicalEntity100001930
p308
aVhttp://dbpedia.org/class/yago/YagoPermanentlyLocatedEntity
p309
aVhttp://dbpedia.org/class/yago/PopulatedPlacesInCrawfordCounty,Indiana
p310
aVhttp://dbpedia.org/class/yago/TownsInIndiana
p311
aVhttp://dbpedia.org/resource/English,_Indiana
tp312
aaa(lp313
(lp314
a(lp315
a(lp316
a(lp317
((lp318
Vhttp://www.w3.org/2002/07/owl#Thing
p319
aVhttp://dbpedia.org/ontology/Place
p320
aVhttp://dbpedia.org/ontology/Location
p321
aVhttp://www.wikidata.org/entity/Q486972
p322
aVhttp://www.wikidata.org/entity/Q6256
p323
aVhttp://dbpedia.org/ontology/Country
p324
aVhttp://dbpedia.org/ontology/PopulatedPlace
p325
aVhttp://www.w3.org/2003/01/geo/wgs84_pos#SpatialThing
p326
aVhttp://schema.org/Country
p327
aVhttp://schema.org/Place
p328
aVhttp://umbel.org/umbel/rc/Country
p329
aVhttp://umbel.org/umbel/rc/Location_Underspecified
p330
aVhttp://umbel.org/umbel/rc/PopulatedPlace
p331
aVhttp://dbpedia.org/class/yago/Abstraction100002137
p332
aVhttp://dbpedia.org/class/yago/AdministrativeDistrict108491826
p333
aVhttp://dbpedia.org/class/yago/Country108544813
p334
aVhttp://dbpedia.org/class/yago/District108552138
p335
aVhttp://dbpedia.org/class/yago/Economy108366753
p336
aVhttp://dbpedia.org/class/yago/Group100031264
p337
aVhttp://dbpedia.org/class/yago/Location100027167
p338
aVhttp://dbpedia.org/class/yago/Object100002684
p339
aVhttp://dbpedia.org/class/yago/Region108630985
p340
aVhttp://dbpedia.org/class/yago/System108435388
p341
aVhttp://dbpedia.org/class/yago/YagoGeoEntity
p342
aVhttp://dbpedia.org/class/yago/YagoLegalActorGeo
p343
aVhttp://dbpedia.org/class/yago/EuropeanCountries
p344
aVhttp://dbpedia.org/class/yago/EuropeanUnionMemberEconomies
p345
aVhttp://dbpedia.org/class/yago/PhysicalEntity100001930
p346
aVhttp://dbpedia.org/class/yago/YagoPermanentlyLocatedEntity
p347
aVhttp://dbpedia.org/class/yago/LandlockedCountries
p348
aVhttp://dbpedia.org/class/yago/MemberStatesOfNATO
p349
aVhttp://dbpedia.org/class/yago/MemberStatesOfTheEuropeanUnion
p350
aVhttp://dbpedia.org/class/yago/MemberStatesOfTheUnitedNations
p351
aVhttp://dbpedia.org/class/yago/SlavicCountries
p352
aVhttp://dbpedia.org/class/yago/StatesAndTerritoriesEstablishedIn1993
p353
aVhttp://dbpedia.org/resource/Czech_Republic
tp354
aa(lp355
((lp356
Vhttp://www.w3.org/2002/07/owl#Thing
p357
aVhttp://dbpedia.org/ontology/Place
p358
aVhttp://dbpedia.org/ontology/Location
p359
aVhttp://www.wikidata.org/entity/Q3957
p360
aVhttp://www.wikidata.org/entity/Q486972
p361
aVhttp://dbpedia.org/ontology/PopulatedPlace
p362
aVhttp://dbpedia.org/ontology/Settlement
p363
aVhttp://dbpedia.org/ontology/Town
p364
aVhttp://www.w3.org/2003/01/geo/wgs84_pos#SpatialThing
p365
aVhttp://schema.org/Place
p366
aVhttp://umbel.org/umbel/rc/Town
p367
aVhttp://dbpedia.org/class/yago/AdministrativeDistrict108491826
p368
aVhttp://dbpedia.org/class/yago/Area108497294
p369
aVhttp://dbpedia.org/class/yago/Center108523483
p370
aVhttp://dbpedia.org/class/yago/District108552138
p371
aVhttp://dbpedia.org/class/yago/Location100027167
p372
aVhttp://dbpedia.org/class/yago/Object100002684
p373
aVhttp://dbpedia.org/class/yago/Region108630985
p374
aVhttp://dbpedia.org/class/yago/Seat108647945
p375
aVhttp://dbpedia.org/class/yago/Site108651247
p376
aVhttp://dbpedia.org/class/yago/Town108665504
p377
aVhttp://dbpedia.org/class/yago/Tract108673395
p378
aVhttp://dbpedia.org/class/yago/UrbanArea108675967
p379
aVhttp://dbpedia.org/class/yago/YagoGeoEntity
p380
aVhttp://dbpedia.org/class/yago/YagoLegalActorGeo
p381
aVhttp://dbpedia.org/class/yago/CountySeat108547143
p382
aVhttp://dbpedia.org/class/yago/CountySeatsInIndiana
p383
aVhttp://dbpedia.org/class/yago/GeographicalArea108574314
p384
aVhttp://dbpedia.org/class/yago/Municipality108626283
p385
aVhttp://dbpedia.org/class/yago/PhysicalEntity100001930
p386
aVhttp://dbpedia.org/class/yago/YagoPermanentlyLocatedEntity
p387
aVhttp://dbpedia.org/class/yago/PopulatedPlacesInCrawfordCounty,Indiana
p388
aVhttp://dbpedia.org/class/yago/TownsInIndiana
p389
aVhttp://dbpedia.org/resource/English,_Indiana
tp390
aaa(lp391
(lp392
a(lp393
a(lp394
a(lp395
((lp396
Vhttp://www.w3.org/2002/07/owl#Thing
p397
aVhttp://dbpedia.org/ontology/Place
p398
aVhttp://dbpedia.org/ontology/Location
p399
aVhttp://www.wikidata.org/entity/Q486972
p400
aVhttp://www.wikidata.org/entity/Q6256
p401
aVhttp://dbpedia.org/ontology/Country
p402
aVhttp://dbpedia.org/ontology/PopulatedPlace
p403
aVhttp://www.w3.org/2003/01/geo/wgs84_pos#SpatialThing
p404
aVhttp://schema.org/Country
p405
aVhttp://schema.org/Place
p406
aVhttp://umbel.org/umbel/rc/Country
p407
aVhttp://umbel.org/umbel/rc/Location_Underspecified
p408
aVhttp://umbel.org/umbel/rc/PopulatedPlace
p409
aVhttp://dbpedia.org/class/yago/Abstraction100002137
p410
aVhttp://dbpedia.org/class/yago/AdministrativeDistrict108491826
p411
aVhttp://dbpedia.org/class/yago/Country108544813
p412
aVhttp://dbpedia.org/class/yago/District108552138
p413
aVhttp://dbpedia.org/class/yago/Economy108366753
p414
aVhttp://dbpedia.org/class/yago/Group100031264
p415
aVhttp://dbpedia.org/class/yago/Location100027167
p416
aVhttp://dbpedia.org/class/yago/Object100002684
p417
aVhttp://dbpedia.org/class/yago/Region108630985
p418
aVhttp://dbpedia.org/class/yago/System108435388
p419
aVhttp://dbpedia.org/class/yago/YagoGeoEntity
p420
aVhttp://dbpedia.org/class/yago/YagoLegalActorGeo
p421
aVhttp://dbpedia.org/class/yago/EuropeanCountries
p422
aVhttp://dbpedia.org/class/yago/EuropeanUnionMemberEconomies
p423
aVhttp://dbpedia.org/class/yago/PhysicalEntity100001930
p424
aVhttp://dbpedia.org/class/yago/YagoPermanentlyLocatedEntity
p425
aVhttp://dbpedia.org/class/yago/LandlockedCountries
p426
aVhttp://dbpedia.org/class/yago/MemberStatesOfNATO
p427
aVhttp://dbpedia.org/class/yago/MemberStatesOfTheEuropeanUnion
p428
aVhttp://dbpedia.org/class/yago/MemberStatesOfTheUnitedNations
p429
aVhttp://dbpedia.org/class/yago/SlavicCountries
p430
aVhttp://dbpedia.org/class/yago/StatesAndTerritoriesEstablishedIn1993
p431
aVhttp://dbpedia.org/resource/Czech_Republic
tp432
aa(lp433
((lp434
Vhttp://www.w3.org/2002/07/owl#Thing
p435
aVhttp://dbpedia.org/ontology/Place
p436
aVhttp://dbpedia.org/ontology/Location
p437
aVhttp://www.wikidata.org/entity/Q3957
p438
aVhttp://www.wikidata.org/entity/Q486972
p439
aVhttp://dbpedia.org/ontology/PopulatedPlace
p440
aVhttp://dbpedia.org/ontology/Settlement
p441
aVhttp://dbpedia.org/ontology/Town
p442
aVhttp://www.w3.org/2003/01/geo/wgs84_pos#SpatialThing
p443
aVhttp://schema.org/Place
p444
aVhttp://umbel.org/umbel/rc/Town
p445
aVhttp://dbpedia.org/class/yago/AdministrativeDistrict108491826
p446
aVhttp://dbpedia.org/class/yago/Area108497294
p447
aVhttp://dbpedia.org/class/yago/Center108523483
p448
aVhttp://dbpedia.org/class/yago/District108552138
p449
aVhttp://dbpedia.org/class/yago/Location100027167
p450
aVhttp://dbpedia.org/class/yago/Object100002684
p451
aVhttp://dbpedia.org/class/yago/Region108630985
p452
aVhttp://dbpedia.org/class/yago/Seat108647945
p453
aVhttp://dbpedia.org/class/yago/Site108651247
p454
aVhttp://dbpedia.org/class/yago/Town108665504
p455
aVhttp://dbpedia.org/class/yago/Tract108673395
p456
aVhttp://dbpedia.org/class/yago/UrbanArea108675967
p457
aVhttp://dbpedia.org/class/yago/YagoGeoEntity
p458
aVhttp://dbpedia.org/class/yago/YagoLegalActorGeo
p459
aVhttp://dbpedia.org/class/yago/CountySeat108547143
p460
aVhttp://dbpedia.org/class/yago/CountySeatsInIndiana
p461
aVhttp://dbpedia.org/class/yago/GeographicalArea108574314
p462
aVhttp://dbpedia.org/class/yago/Municipality108626283
p463
aVhttp://dbpedia.org/class/yago/PhysicalEntity100001930
p464
aVhttp://dbpedia.org/class/yago/YagoPermanentlyLocatedEntity
p465
aVhttp://dbpedia.org/class/yago/PopulatedPlacesInCrawfordCounty,Indiana
p466
aVhttp://dbpedia.org/class/yago/TownsInIndiana
p467
aVhttp://dbpedia.org/resource/English,_Indiana
tp468
aaa(lp469
(lp470
a(lp471
a(lp472
a(lp473
((lp474
Vhttp://www.w3.org/2002/07/owl#Thing
p475
aVhttp://dbpedia.org/ontology/Place
p476
aVhttp://dbpedia.org/ontology/Location
p477
aVhttp://www.wikidata.org/entity/Q486972
p478
aVhttp://www.wikidata.org/entity/Q6256
p479
aVhttp://dbpedia.org/ontology/Country
p480
aVhttp://dbpedia.org/ontology/PopulatedPlace
p481
aVhttp://www.w3.org/2003/01/geo/wgs84_pos#SpatialThing
p482
aVhttp://schema.org/Country
p483
aVhttp://schema.org/Place
p484
aVhttp://umbel.org/umbel/rc/Country
p485
aVhttp://umbel.org/umbel/rc/Location_Underspecified
p486
aVhttp://umbel.org/umbel/rc/PopulatedPlace
p487
aVhttp://dbpedia.org/class/yago/Abstraction100002137
p488
aVhttp://dbpedia.org/class/yago/AdministrativeDistrict108491826
p489
aVhttp://dbpedia.org/class/yago/Country108544813
p490
aVhttp://dbpedia.org/class/yago/District108552138
p491
aVhttp://dbpedia.org/class/yago/Economy108366753
p492
aVhttp://dbpedia.org/class/yago/Group100031264
p493
aVhttp://dbpedia.org/class/yago/Location100027167
p494
aVhttp://dbpedia.org/class/yago/Object100002684
p495
aVhttp://dbpedia.org/class/yago/Region108630985
p496
aVhttp://dbpedia.org/class/yago/System108435388
p497
aVhttp://dbpedia.org/class/yago/YagoGeoEntity
p498
aVhttp://dbpedia.org/class/yago/YagoLegalActorGeo
p499
aVhttp://dbpedia.org/class/yago/EuropeanCountries
p500
aVhttp://dbpedia.org/class/yago/EuropeanUnionMemberEconomies
p501
aVhttp://dbpedia.org/class/yago/PhysicalEntity100001930
p502
aVhttp://dbpedia.org/class/yago/YagoPermanentlyLocatedEntity
p503
aVhttp://dbpedia.org/class/yago/LandlockedCountries
p504
aVhttp://dbpedia.org/class/yago/MemberStatesOfNATO
p505
aVhttp://dbpedia.org/class/yago/MemberStatesOfTheEuropeanUnion
p506
aVhttp://dbpedia.org/class/yago/MemberStatesOfTheUnitedNations
p507
aVhttp://dbpedia.org/class/yago/SlavicCountries
p508
aVhttp://dbpedia.org/class/yago/StatesAndTerritoriesEstablishedIn1993
p509
aVhttp://dbpedia.org/resource/Czech_Republic
tp510
aa(lp511
((lp512
Vhttp://www.w3.org/2002/07/owl#Thing
p513
aVhttp://dbpedia.org/ontology/Company
p514
aVhttp://www.ontologydesignpatterns.org/ont/dul/DUL.owl#Agent
p515
aVhttp://www.ontologydesignpatterns.org/ont/dul/DUL.owl#SocialPerson
p516
aVhttp://www.wikidata.org/entity/Q43229
p517
aVhttp://dbpedia.org/ontology/Agent
p518
aVhttp://dbpedia.org/ontology/Organisation
p519
aVhttp://schema.org/Organization
p520
aVhttp://umbel.org/umbel/rc/Business
p521
aVhttp://umbel.org/umbel/rc/Organization
p522
aVhttp://dbpedia.org/class/yago/Abstraction100002137
p523
aVhttp://dbpedia.org/class/yago/Company108058098
p524
aVhttp://dbpedia.org/class/yago/Group100031264
p525
aVhttp://dbpedia.org/class/yago/Institution108053576
p526
aVhttp://dbpedia.org/class/yago/Organization108008335
p527
aVhttp://dbpedia.org/class/yago/SocialGroup107950920
p528
aVhttp://dbpedia.org/class/yago/YagoLegalActorGeo
p529
aVhttp://dbpedia.org/class/yago/CompaniesBasedInBonn
p530
aVhttp://dbpedia.org/class/yago/CompaniesEstablishedIn1996
p531
aVhttp://dbpedia.org/class/yago/YagoPermanentlyLocatedEntity
p532
aVhttp://dbpedia.org/class/yago/YagoLegalActor
p533
aVhttp://dbpedia.org/class/yago/TelecommunicationsCompaniesOfGermany
p534
aVhttp://dbpedia.org/resource/Deutsche_Telekom
tp535
aaa(lp536
(lp537
a(lp538
a(lp539
a(lp540
((lp541
Vhttp://www.w3.org/2002/07/owl#Thing
p542
aVhttp://dbpedia.org/ontology/Place
p543
aVhttp://dbpedia.org/ontology/Location
p544
aVhttp://www.wikidata.org/entity/Q486972
p545
aVhttp://www.wikidata.org/entity/Q6256
p546
aVhttp://dbpedia.org/ontology/Country
p547
aVhttp://dbpedia.org/ontology/PopulatedPlace
p548
aVhttp://www.w3.org/2003/01/geo/wgs84_pos#SpatialThing
p549
aVhttp://schema.org/Country
p550
aVhttp://schema.org/Place
p551
aVhttp://umbel.org/umbel/rc/Country
p552
aVhttp://umbel.org/umbel/rc/Location_Underspecified
p553
aVhttp://umbel.org/umbel/rc/PopulatedPlace
p554
aVhttp://dbpedia.org/class/yago/Abstraction100002137
p555
aVhttp://dbpedia.org/class/yago/AdministrativeDistrict108491826
p556
aVhttp://dbpedia.org/class/yago/BlackSeaCountries
p557
aVhttp://dbpedia.org/class/yago/Country108544813
p558
aVhttp://dbpedia.org/class/yago/District108552138
p559
aVhttp://dbpedia.org/class/yago/Economy108366753
p560
aVhttp://dbpedia.org/class/yago/Group100031264
p561
aVhttp://dbpedia.org/class/yago/Location100027167
p562
aVhttp://dbpedia.org/class/yago/Object100002684
p563
aVhttp://dbpedia.org/class/yago/Region108630985
p564
aVhttp://dbpedia.org/class/yago/System108435388
p565
aVhttp://dbpedia.org/class/yago/YagoGeoEntity
p566
aVhttp://dbpedia.org/class/yago/YagoLegalActorGeo
p567
aVhttp://dbpedia.org/class/yago/EuropeanCountries
p568
aVhttp://dbpedia.org/class/yago/EuropeanUnionMemberEconomies
p569
aVhttp://dbpedia.org/class/yago/PhysicalEntity100001930
p570
aVhttp://dbpedia.org/class/yago/YagoPermanentlyLocatedEntity
p571
aVhttp://dbpedia.org/class/yago/MemberStatesOfNATO
p572
aVhttp://dbpedia.org/class/yago/MemberStatesOfTheEuropeanUnion
p573
aVhttp://dbpedia.org/class/yago/MemberStatesOfTheUnionForTheMediterranean
p574
aVhttp://dbpedia.org/class/yago/MemberStatesOfTheUnitedNations
p575
aVhttp://dbpedia.org/class/yago/Romanian-speakingCountriesAndTerritories
p576
aVhttp://dbpedia.org/class/yago/StatesAndTerritoriesEstablishedIn1878
p577
aVhttp://dbpedia.org/resource/Romania
tp578
aa(lp579
((lp580
Vhttp://www.w3.org/2002/07/owl#Thing
p581
aVhttp://dbpedia.org/ontology/Place
p582
aVhttp://dbpedia.org/ontology/Location
p583
aVhttp://www.wikidata.org/entity/Q3957
p584
aVhttp://www.wikidata.org/entity/Q486972
p585
aVhttp://dbpedia.org/ontology/PopulatedPlace
p586
aVhttp://dbpedia.org/ontology/Settlement
p587
aVhttp://dbpedia.org/ontology/Town
p588
aVhttp://www.w3.org/2003/01/geo/wgs84_pos#SpatialThing
p589
aVhttp://schema.org/Place
p590
aVhttp://umbel.org/umbel/rc/Town
p591
aVhttp://dbpedia.org/class/yago/AdministrativeDistrict108491826
p592
aVhttp://dbpedia.org/class/yago/Area108497294
p593
aVhttp://dbpedia.org/class/yago/Center108523483
p594
aVhttp://dbpedia.org/class/yago/District108552138
p595
aVhttp://dbpedia.org/class/yago/Location100027167
p596
aVhttp://dbpedia.org/class/yago/Object100002684
p597
aVhttp://dbpedia.org/class/yago/Region108630985
p598
aVhttp://dbpedia.org/class/yago/Seat108647945
p599
aVhttp://dbpedia.org/class/yago/Site108651247
p600
aVhttp://dbpedia.org/class/yago/Town108665504
p601
aVhttp://dbpedia.org/class/yago/Tract108673395
p602
aVhttp://dbpedia.org/class/yago/UrbanArea108675967
p603
aVhttp://dbpedia.org/class/yago/YagoGeoEntity
p604
aVhttp://dbpedia.org/class/yago/YagoLegalActorGeo
p605
aVhttp://dbpedia.org/class/yago/CountySeat108547143
p606
aVhttp://dbpedia.org/class/yago/CountySeatsInIndiana
p607
aVhttp://dbpedia.org/class/yago/GeographicalArea108574314
p608
aVhttp://dbpedia.org/class/yago/Municipality108626283
p609
aVhttp://dbpedia.org/class/yago/PhysicalEntity100001930
p610
aVhttp://dbpedia.org/class/yago/YagoPermanentlyLocatedEntity
p611
aVhttp://dbpedia.org/class/yago/PopulatedPlacesInCrawfordCounty,Indiana
p612
aVhttp://dbpedia.org/class/yago/TownsInIndiana
p613
aVhttp://dbpedia.org/resource/English,_Indiana
tp614
aaa(lp615
(lp616
a(lp617
a(lp618
a(lp619
((lp620
Vhttp://www.w3.org/2002/07/owl#Thing
p621
aVhttp://dbpedia.org/ontology/Place
p622
aVhttp://dbpedia.org/ontology/Location
p623
aVhttp://www.wikidata.org/entity/Q486972
p624
aVhttp://www.wikidata.org/entity/Q6256
p625
aVhttp://dbpedia.org/ontology/Country
p626
aVhttp://dbpedia.org/ontology/PopulatedPlace
p627
aVhttp://www.w3.org/2003/01/geo/wgs84_pos#SpatialThing
p628
aVhttp://schema.org/Country
p629
aVhttp://schema.org/Place
p630
aVhttp://umbel.org/umbel/rc/Country
p631
aVhttp://umbel.org/umbel/rc/Location_Underspecified
p632
aVhttp://umbel.org/umbel/rc/PopulatedPlace
p633
aVhttp://dbpedia.org/class/yago/Abstraction100002137
p634
aVhttp://dbpedia.org/class/yago/AdministrativeDistrict108491826
p635
aVhttp://dbpedia.org/class/yago/Country108544813
p636
aVhttp://dbpedia.org/class/yago/District108552138
p637
aVhttp://dbpedia.org/class/yago/Economy108366753
p638
aVhttp://dbpedia.org/class/yago/Group100031264
p639
aVhttp://dbpedia.org/class/yago/Location100027167
p640
aVhttp://dbpedia.org/class/yago/Object100002684
p641
aVhttp://dbpedia.org/class/yago/Region108630985
p642
aVhttp://dbpedia.org/class/yago/System108435388
p643
aVhttp://dbpedia.org/class/yago/YagoGeoEntity
p644
aVhttp://dbpedia.org/class/yago/YagoLegalActorGeo
p645
aVhttp://dbpedia.org/class/yago/EuropeanCountries
p646
aVhttp://dbpedia.org/class/yago/EuropeanUnionMemberEconomies
p647
aVhttp://dbpedia.org/class/yago/PhysicalEntity100001930
p648
aVhttp://dbpedia.org/class/yago/YagoPermanentlyLocatedEntity
p649
aVhttp://dbpedia.org/class/yago/LandlockedCountries
p650
aVhttp://dbpedia.org/class/yago/MemberStatesOfNATO
p651
aVhttp://dbpedia.org/class/yago/MemberStatesOfTheEuropeanUnion
p652
aVhttp://dbpedia.org/class/yago/MemberStatesOfTheUnionForTheMediterranean
p653
aVhttp://dbpedia.org/class/yago/MemberStatesOfTheUnitedNations
p654
aVhttp://dbpedia.org/class/yago/SlavicCountries
p655
aVhttp://dbpedia.org/class/yago/StatesAndTerritoriesEstablishedIn1993
p656
aVhttp://dbpedia.org/resource/Slovakia
tp657
aa(lp658
((lp659
Vhttp://www.w3.org/2002/07/owl#Thing
p660
aVhttp://dbpedia.org/ontology/Place
p661
aVhttp://dbpedia.org/ontology/Location
p662
aVhttp://www.wikidata.org/entity/Q3957
p663
aVhttp://www.wikidata.org/entity/Q486972
p664
aVhttp://dbpedia.org/ontology/PopulatedPlace
p665
aVhttp://dbpedia.org/ontology/Settlement
p666
aVhttp://dbpedia.org/ontology/Town
p667
aVhttp://www.w3.org/2003/01/geo/wgs84_pos#SpatialThing
p668
aVhttp://schema.org/Place
p669
aVhttp://umbel.org/umbel/rc/Town
p670
aVhttp://dbpedia.org/class/yago/AdministrativeDistrict108491826
p671
aVhttp://dbpedia.org/class/yago/Area108497294
p672
aVhttp://dbpedia.org/class/yago/Center108523483
p673
aVhttp://dbpedia.org/class/yago/District108552138
p674
aVhttp://dbpedia.org/class/yago/Location100027167
p675
aVhttp://dbpedia.org/class/yago/Object100002684
p676
aVhttp://dbpedia.org/class/yago/Region108630985
p677
aVhttp://dbpedia.org/class/yago/Seat108647945
p678
aVhttp://dbpedia.org/class/yago/Site108651247
p679
aVhttp://dbpedia.org/class/yago/Town108665504
p680
aVhttp://dbpedia.org/class/yago/Tract108673395
p681
aVhttp://dbpedia.org/class/yago/UrbanArea108675967
p682
aVhttp://dbpedia.org/class/yago/YagoGeoEntity
p683
aVhttp://dbpedia.org/class/yago/YagoLegalActorGeo
p684
aVhttp://dbpedia.org/class/yago/CountySeat108547143
p685
aVhttp://dbpedia.org/class/yago/CountySeatsInIndiana
p686
aVhttp://dbpedia.org/class/yago/GeographicalArea108574314
p687
aVhttp://dbpedia.org/class/yago/Municipality108626283
p688
aVhttp://dbpedia.org/class/yago/PhysicalEntity100001930
p689
aVhttp://dbpedia.org/class/yago/YagoPermanentlyLocatedEntity
p690
aVhttp://dbpedia.org/class/yago/PopulatedPlacesInCrawfordCounty,Indiana
p691
aVhttp://dbpedia.org/class/yago/TownsInIndiana
p692
aVhttp://dbpedia.org/resource/English,_Indiana
tp693
aaa(lp694
(lp695
a(lp696
a(lp697
a(lp698
((lp699
Vhttp://www.w3.org/2002/07/owl#Thing
p700
aVhttp://dbpedia.org/ontology/Place
p701
aVhttp://dbpedia.org/ontology/Location
p702
aVhttp://www.wikidata.org/entity/Q486972
p703
aVhttp://www.wikidata.org/entity/Q6256
p704
aVhttp://dbpedia.org/ontology/Country
p705
aVhttp://dbpedia.org/ontology/PopulatedPlace
p706
aVhttp://www.w3.org/2003/01/geo/wgs84_pos#SpatialThing
p707
aVhttp://schema.org/Country
p708
aVhttp://schema.org/Place
p709
aVhttp://umbel.org/umbel/rc/Country
p710
aVhttp://umbel.org/umbel/rc/Location_Underspecified
p711
aVhttp://umbel.org/umbel/rc/PopulatedPlace
p712
aVhttp://dbpedia.org/class/yago/Abstraction100002137
p713
aVhttp://dbpedia.org/class/yago/AdministrativeDistrict108491826
p714
aVhttp://dbpedia.org/class/yago/Country108544813
p715
aVhttp://dbpedia.org/class/yago/District108552138
p716
aVhttp://dbpedia.org/class/yago/Economy108366753
p717
aVhttp://dbpedia.org/class/yago/Group100031264
p718
aVhttp://dbpedia.org/class/yago/Location100027167
p719
aVhttp://dbpedia.org/class/yago/Object100002684
p720
aVhttp://dbpedia.org/class/yago/Region108630985
p721
aVhttp://dbpedia.org/class/yago/System108435388
p722
aVhttp://dbpedia.org/class/yago/YagoGeoEntity
p723
aVhttp://dbpedia.org/class/yago/YagoLegalActorGeo
p724
aVhttp://dbpedia.org/class/yago/EuropeanCountries
p725
aVhttp://dbpedia.org/class/yago/EuropeanUnionMemberEconomies
p726
aVhttp://dbpedia.org/class/yago/PhysicalEntity100001930
p727
aVhttp://dbpedia.org/class/yago/YagoPermanentlyLocatedEntity
p728
aVhttp://dbpedia.org/class/yago/LandlockedCountries
p729
aVhttp://dbpedia.org/class/yago/MemberStatesOfNATO
p730
aVhttp://dbpedia.org/class/yago/MemberStatesOfTheEuropeanUnion
p731
aVhttp://dbpedia.org/class/yago/MemberStatesOfTheUnionForTheMediterranean
p732
aVhttp://dbpedia.org/class/yago/MemberStatesOfTheUnitedNations
p733
aVhttp://dbpedia.org/class/yago/SlavicCountries
p734
aVhttp://dbpedia.org/class/yago/StatesAndTerritoriesEstablishedIn1993
p735
aVhttp://dbpedia.org/resource/Slovakia
tp736
aa(lp737
((lp738
Vhttp://www.w3.org/2002/07/owl#Thing
p739
aVhttp://dbpedia.org/ontology/Place
p740
aVhttp://dbpedia.org/ontology/Location
p741
aVhttp://www.wikidata.org/entity/Q3957
p742
aVhttp://www.wikidata.org/entity/Q486972
p743
aVhttp://dbpedia.org/ontology/PopulatedPlace
p744
aVhttp://dbpedia.org/ontology/Settlement
p745
aVhttp://dbpedia.org/ontology/Town
p746
aVhttp://www.w3.org/2003/01/geo/wgs84_pos#SpatialThing
p747
aVhttp://schema.org/Place
p748
aVhttp://umbel.org/umbel/rc/Town
p749
aVhttp://dbpedia.org/class/yago/AdministrativeDistrict108491826
p750
aVhttp://dbpedia.org/class/yago/Area108497294
p751
aVhttp://dbpedia.org/class/yago/Center108523483
p752
aVhttp://dbpedia.org/class/yago/District108552138
p753
aVhttp://dbpedia.org/class/yago/Location100027167
p754
aVhttp://dbpedia.org/class/yago/Object100002684
p755
aVhttp://dbpedia.org/class/yago/Region108630985
p756
aVhttp://dbpedia.org/class/yago/Seat108647945
p757
aVhttp://dbpedia.org/class/yago/Site108651247
p758
aVhttp://dbpedia.org/class/yago/Town108665504
p759
aVhttp://dbpedia.org/class/yago/Tract108673395
p760
aVhttp://dbpedia.org/class/yago/UrbanArea108675967
p761
aVhttp://dbpedia.org/class/yago/YagoGeoEntity
p762
aVhttp://dbpedia.org/class/yago/YagoLegalActorGeo
p763
aVhttp://dbpedia.org/class/yago/CountySeat108547143
p764
aVhttp://dbpedia.org/class/yago/CountySeatsInIndiana
p765
aVhttp://dbpedia.org/class/yago/GeographicalArea108574314
p766
aVhttp://dbpedia.org/class/yago/Municipality108626283
p767
aVhttp://dbpedia.org/class/yago/PhysicalEntity100001930
p768
aVhttp://dbpedia.org/class/yago/YagoPermanentlyLocatedEntity
p769
aVhttp://dbpedia.org/class/yago/PopulatedPlacesInCrawfordCounty,Indiana
p770
aVhttp://dbpedia.org/class/yago/TownsInIndiana
p771
aVhttp://dbpedia.org/resource/English,_Indiana
tp772
aaa(lp773
(lp774
a(lp775
a(lp776
a(lp777
((lp778
Vhttp://www.w3.org/2002/07/owl#Thing
p779
aVhttp://dbpedia.org/ontology/Place
p780
aVhttp://dbpedia.org/ontology/Location
p781
aVhttp://www.wikidata.org/entity/Q486972
p782
aVhttp://www.wikidata.org/entity/Q6256
p783
aVhttp://dbpedia.org/ontology/Country
p784
aVhttp://dbpedia.org/ontology/PopulatedPlace
p785
aVhttp://www.w3.org/2003/01/geo/wgs84_pos#SpatialThing
p786
aVhttp://schema.org/Country
p787
aVhttp://schema.org/Place
p788
aVhttp://umbel.org/umbel/rc/Country
p789
aVhttp://umbel.org/umbel/rc/Location_Underspecified
p790
aVhttp://umbel.org/umbel/rc/PopulatedPlace
p791
aVhttp://dbpedia.org/class/yago/Abstraction100002137
p792
aVhttp://dbpedia.org/class/yago/AdministrativeDistrict108491826
p793
aVhttp://dbpedia.org/class/yago/Country108544813
p794
aVhttp://dbpedia.org/class/yago/District108552138
p795
aVhttp://dbpedia.org/class/yago/Economy108366753
p796
aVhttp://dbpedia.org/class/yago/Group100031264
p797
aVhttp://dbpedia.org/class/yago/Location100027167
p798
aVhttp://dbpedia.org/class/yago/Object100002684
p799
aVhttp://dbpedia.org/class/yago/Region108630985
p800
aVhttp://dbpedia.org/class/yago/System108435388
p801
aVhttp://dbpedia.org/class/yago/YagoGeoEntity
p802
aVhttp://dbpedia.org/class/yago/YagoLegalActorGeo
p803
aVhttp://dbpedia.org/class/yago/EuropeanCountries
p804
aVhttp://dbpedia.org/class/yago/EuropeanUnionMemberEconomies
p805
aVhttp://dbpedia.org/class/yago/PhysicalEntity100001930
p806
aVhttp://dbpedia.org/class/yago/YagoPermanentlyLocatedEntity
p807
aVhttp://dbpedia.org/class/yago/LandlockedCountries
p808
aVhttp://dbpedia.org/class/yago/MemberStatesOfNATO
p809
aVhttp://dbpedia.org/class/yago/MemberStatesOfTheEuropeanUnion
p810
aVhttp://dbpedia.org/class/yago/MemberStatesOfTheUnionForTheMediterranean
p811
aVhttp://dbpedia.org/class/yago/MemberStatesOfTheUnitedNations
p812
aVhttp://dbpedia.org/class/yago/SlavicCountries
p813
aVhttp://dbpedia.org/class/yago/StatesAndTerritoriesEstablishedIn1993
p814
aVhttp://dbpedia.org/resource/Slovakia
tp815
aa(lp816
((lp817
Vhttp://www.w3.org/2002/07/owl#Thing
p818
aVhttp://dbpedia.org/ontology/Place
p819
aVhttp://dbpedia.org/ontology/Location
p820
aVhttp://www.wikidata.org/entity/Q3957
p821
aVhttp://www.wikidata.org/entity/Q486972
p822
aVhttp://dbpedia.org/ontology/PopulatedPlace
p823
aVhttp://dbpedia.org/ontology/Settlement
p824
aVhttp://dbpedia.org/ontology/Town
p825
aVhttp://www.w3.org/2003/01/geo/wgs84_pos#SpatialThing
p826
aVhttp://schema.org/Place
p827
aVhttp://umbel.org/umbel/rc/Town
p828
aVhttp://dbpedia.org/class/yago/AdministrativeDistrict108491826
p829
aVhttp://dbpedia.org/class/yago/Area108497294
p830
aVhttp://dbpedia.org/class/yago/Center108523483
p831
aVhttp://dbpedia.org/class/yago/District108552138
p832
aVhttp://dbpedia.org/class/yago/Location100027167
p833
aVhttp://dbpedia.org/class/yago/Object100002684
p834
aVhttp://dbpedia.org/class/yago/Region108630985
p835
aVhttp://dbpedia.org/class/yago/Seat108647945
p836
aVhttp://dbpedia.org/class/yago/Site108651247
p837
aVhttp://dbpedia.org/class/yago/Town108665504
p838
aVhttp://dbpedia.org/class/yago/Tract108673395
p839
aVhttp://dbpedia.org/class/yago/UrbanArea108675967
p840
aVhttp://dbpedia.org/class/yago/YagoGeoEntity
p841
aVhttp://dbpedia.org/class/yago/YagoLegalActorGeo
p842
aVhttp://dbpedia.org/class/yago/CountySeat108547143
p843
aVhttp://dbpedia.org/class/yago/CountySeatsInIndiana
p844
aVhttp://dbpedia.org/class/yago/GeographicalArea108574314
p845
aVhttp://dbpedia.org/class/yago/Municipality108626283
p846
aVhttp://dbpedia.org/class/yago/PhysicalEntity100001930
p847
aVhttp://dbpedia.org/class/yago/YagoPermanentlyLocatedEntity
p848
aVhttp://dbpedia.org/class/yago/PopulatedPlacesInCrawfordCounty,Indiana
p849
aVhttp://dbpedia.org/class/yago/TownsInIndiana
p850
aVhttp://dbpedia.org/resource/English,_Indiana
tp851
aaa(lp852
(lp853
a(lp854
a(lp855
a(lp856
((lp857
Vhttp://www.w3.org/2002/07/owl#Thing
p858
aVhttp://dbpedia.org/ontology/Place
p859
aVhttp://dbpedia.org/ontology/Location
p860
aVhttp://www.wikidata.org/entity/Q486972
p861
aVhttp://www.wikidata.org/entity/Q6256
p862
aVhttp://dbpedia.org/ontology/Country
p863
aVhttp://dbpedia.org/ontology/PopulatedPlace
p864
aVhttp://www.w3.org/2003/01/geo/wgs84_pos#SpatialThing
p865
aVhttp://schema.org/Country
p866
aVhttp://schema.org/Place
p867
aVhttp://umbel.org/umbel/rc/Country
p868
aVhttp://umbel.org/umbel/rc/Location_Underspecified
p869
aVhttp://umbel.org/umbel/rc/PopulatedPlace
p870
aVhttp://dbpedia.org/class/yago/Abstraction100002137
p871
aVhttp://dbpedia.org/class/yago/AdministrativeDistrict108491826
p872
aVhttp://dbpedia.org/class/yago/AlpineCountries
p873
aVhttp://dbpedia.org/class/yago/Country108544813
p874
aVhttp://dbpedia.org/class/yago/District108552138
p875
aVhttp://dbpedia.org/class/yago/Economy108366753
p876
aVhttp://dbpedia.org/class/yago/Group100031264
p877
aVhttp://dbpedia.org/class/yago/Location100027167
p878
aVhttp://dbpedia.org/class/yago/Object100002684
p879
aVhttp://dbpedia.org/class/yago/Region108630985
p880
aVhttp://dbpedia.org/class/yago/System108435388
p881
aVhttp://dbpedia.org/class/yago/YagoGeoEntity
p882
aVhttp://dbpedia.org/class/yago/YagoLegalActorGeo
p883
aVhttp://dbpedia.org/class/yago/CountriesBorderingTheAtlanticOcean
p884
aVhttp://dbpedia.org/class/yago/CountriesBorderingTheBalticSea
p885
aVhttp://dbpedia.org/class/yago/EuropeanCountries
p886
aVhttp://dbpedia.org/class/yago/EuropeanUnionMemberEconomies
p887
aVhttp://dbpedia.org/class/yago/FederalCountries
p888
aVhttp://dbpedia.org/class/yago/PhysicalEntity100001930
p889
aVhttp://dbpedia.org/class/yago/YagoPermanentlyLocatedEntity
p890
aVhttp://dbpedia.org/class/yago/German-speakingCountries
p891
aVhttp://dbpedia.org/class/yago/MemberStatesOfNATO
p892
aVhttp://dbpedia.org/class/yago/MemberStatesOfTheEuropeanUnion
p893
aVhttp://dbpedia.org/class/yago/MemberStatesOfTheUnionForTheMediterranean
p894
aVhttp://dbpedia.org/class/yago/MemberStatesOfTheUnitedNations
p895
aVhttp://dbpedia.org/class/yago/StatesAndTerritoriesEstablishedIn1871
p896
aVhttp://dbpedia.org/resource/Germany
tp897
aa(lp898
((lp899
Vhttp://www.w3.org/2002/07/owl#Thing
p900
aVhttp://dbpedia.org/ontology/Place
p901
aVhttp://dbpedia.org/ontology/Location
p902
aVhttp://www.wikidata.org/entity/Q3957
p903
aVhttp://www.wikidata.org/entity/Q486972
p904
aVhttp://dbpedia.org/ontology/PopulatedPlace
p905
aVhttp://dbpedia.org/ontology/Settlement
p906
aVhttp://dbpedia.org/ontology/Town
p907
aVhttp://www.w3.org/2003/01/geo/wgs84_pos#SpatialThing
p908
aVhttp://schema.org/Place
p909
aVhttp://umbel.org/umbel/rc/Town
p910
aVhttp://dbpedia.org/class/yago/AdministrativeDistrict108491826
p911
aVhttp://dbpedia.org/class/yago/Area108497294
p912
aVhttp://dbpedia.org/class/yago/Center108523483
p913
aVhttp://dbpedia.org/class/yago/District108552138
p914
aVhttp://dbpedia.org/class/yago/Location100027167
p915
aVhttp://dbpedia.org/class/yago/Object100002684
p916
aVhttp://dbpedia.org/class/yago/Region108630985
p917
aVhttp://dbpedia.org/class/yago/Seat108647945
p918
aVhttp://dbpedia.org/class/yago/Site108651247
p919
aVhttp://dbpedia.org/class/yago/Town108665504
p920
aVhttp://dbpedia.org/class/yago/Tract108673395
p921
aVhttp://dbpedia.org/class/yago/UrbanArea108675967
p922
aVhttp://dbpedia.org/class/yago/YagoGeoEntity
p923
aVhttp://dbpedia.org/class/yago/YagoLegalActorGeo
p924
aVhttp://dbpedia.org/class/yago/CountySeat108547143
p925
aVhttp://dbpedia.org/class/yago/CountySeatsInIndiana
p926
aVhttp://dbpedia.org/class/yago/GeographicalArea108574314
p927
aVhttp://dbpedia.org/class/yago/Municipality108626283
p928
aVhttp://dbpedia.org/class/yago/PhysicalEntity100001930
p929
aVhttp://dbpedia.org/class/yago/YagoPermanentlyLocatedEntity
p930
aVhttp://dbpedia.org/class/yago/PopulatedPlacesInCrawfordCounty,Indiana
p931
aVhttp://dbpedia.org/class/yago/TownsInIndiana
p932
aVhttp://dbpedia.org/resource/English,_Indiana
tp933
aaa(lp934
(lp935
a(lp936
a(lp937
a(lp938
((lp939
Vhttp://www.w3.org/2002/07/owl#Thing
p940
aVhttp://dbpedia.org/ontology/Place
p941
aVhttp://dbpedia.org/ontology/Location
p942
aVhttp://www.wikidata.org/entity/Q486972
p943
aVhttp://www.wikidata.org/entity/Q6256
p944
aVhttp://dbpedia.org/ontology/Country
p945
aVhttp://dbpedia.org/ontology/PopulatedPlace
p946
aVhttp://www.w3.org/2003/01/geo/wgs84_pos#SpatialThing
p947
aVhttp://schema.org/Country
p948
aVhttp://schema.org/Place
p949
aVhttp://umbel.org/umbel/rc/Country
p950
aVhttp://umbel.org/umbel/rc/Location_Underspecified
p951
aVhttp://umbel.org/umbel/rc/PopulatedPlace
p952
aVhttp://dbpedia.org/class/yago/Abstraction100002137
p953
aVhttp://dbpedia.org/class/yago/AdministrativeDistrict108491826
p954
aVhttp://dbpedia.org/class/yago/AlpineCountries
p955
aVhttp://dbpedia.org/class/yago/Country108544813
p956
aVhttp://dbpedia.org/class/yago/District108552138
p957
aVhttp://dbpedia.org/class/yago/Economy108366753
p958
aVhttp://dbpedia.org/class/yago/Group100031264
p959
aVhttp://dbpedia.org/class/yago/Location100027167
p960
aVhttp://dbpedia.org/class/yago/Object100002684
p961
aVhttp://dbpedia.org/class/yago/Region108630985
p962
aVhttp://dbpedia.org/class/yago/System108435388
p963
aVhttp://dbpedia.org/class/yago/YagoGeoEntity
p964
aVhttp://dbpedia.org/class/yago/YagoLegalActorGeo
p965
aVhttp://dbpedia.org/class/yago/CountriesBorderingTheAtlanticOcean
p966
aVhttp://dbpedia.org/class/yago/CountriesBorderingTheBalticSea
p967
aVhttp://dbpedia.org/class/yago/EuropeanCountries
p968
aVhttp://dbpedia.org/class/yago/EuropeanUnionMemberEconomies
p969
aVhttp://dbpedia.org/class/yago/FederalCountries
p970
aVhttp://dbpedia.org/class/yago/PhysicalEntity100001930
p971
aVhttp://dbpedia.org/class/yago/YagoPermanentlyLocatedEntity
p972
aVhttp://dbpedia.org/class/yago/German-speakingCountries
p973
aVhttp://dbpedia.org/class/yago/MemberStatesOfNATO
p974
aVhttp://dbpedia.org/class/yago/MemberStatesOfTheEuropeanUnion
p975
aVhttp://dbpedia.org/class/yago/MemberStatesOfTheUnionForTheMediterranean
p976
aVhttp://dbpedia.org/class/yago/MemberStatesOfTheUnitedNations
p977
aVhttp://dbpedia.org/class/yago/StatesAndTerritoriesEstablishedIn1871
p978
aVhttp://dbpedia.org/resource/Germany
tp979
aa(lp980
((lp981
Vhttp://www.w3.org/2002/07/owl#Thing
p982
aVhttp://dbpedia.org/ontology/Company
p983
aVhttp://www.ontologydesignpatterns.org/ont/dul/DUL.owl#Agent
p984
aVhttp://www.ontologydesignpatterns.org/ont/dul/DUL.owl#SocialPerson
p985
aVhttp://www.wikidata.org/entity/Q43229
p986
aVhttp://dbpedia.org/ontology/Agent
p987
aVhttp://dbpedia.org/ontology/Organisation
p988
aVhttp://schema.org/Organization
p989
aVhttp://umbel.org/umbel/rc/Business
p990
aVhttp://umbel.org/umbel/rc/Organization
p991
aVhttp://dbpedia.org/class/yago/Abstraction100002137
p992
aVhttp://dbpedia.org/class/yago/Company108058098
p993
aVhttp://dbpedia.org/class/yago/Group100031264
p994
aVhttp://dbpedia.org/class/yago/Institution108053576
p995
aVhttp://dbpedia.org/class/yago/Organization108008335
p996
aVhttp://dbpedia.org/class/yago/SocialGroup107950920
p997
aVhttp://dbpedia.org/class/yago/YagoLegalActorGeo
p998
aVhttp://dbpedia.org/class/yago/CompaniesBasedInBonn
p999
aVhttp://dbpedia.org/class/yago/CompaniesEstablishedIn1996
p1000
aVhttp://dbpedia.org/class/yago/YagoPermanentlyLocatedEntity
p1001
aVhttp://dbpedia.org/class/yago/YagoLegalActor
p1002
aVhttp://dbpedia.org/class/yago/TelecommunicationsCompaniesOfGermany
p1003
aVhttp://dbpedia.org/resource/Deutsche_Telekom
tp1004
aaa(lp1005
(lp1006
a(lp1007
a(lp1008
a(lp1009
((lp1010
Vhttp://www.w3.org/2002/07/owl#Thing
p1011
aVhttp://dbpedia.org/ontology/Place
p1012
aVhttp://dbpedia.org/ontology/Location
p1013
aVhttp://www.wikidata.org/entity/Q486972
p1014
aVhttp://www.wikidata.org/entity/Q6256
p1015
aVhttp://dbpedia.org/ontology/Country
p1016
aVhttp://dbpedia.org/ontology/PopulatedPlace
p1017
aVhttp://www.w3.org/2003/01/geo/wgs84_pos#SpatialThing
p1018
aVhttp://schema.org/Country
p1019
aVhttp://schema.org/Place
p1020
aVhttp://umbel.org/umbel/rc/Country
p1021
aVhttp://umbel.org/umbel/rc/Location_Underspecified
p1022
aVhttp://umbel.org/umbel/rc/PopulatedPlace
p1023
aVhttp://dbpedia.org/class/yago/Abstraction100002137
p1024
aVhttp://dbpedia.org/class/yago/AdministrativeDistrict108491826
p1025
aVhttp://dbpedia.org/class/yago/Country108544813
p1026
aVhttp://dbpedia.org/class/yago/District108552138
p1027
aVhttp://dbpedia.org/class/yago/Economy108366753
p1028
aVhttp://dbpedia.org/class/yago/Group100031264
p1029
aVhttp://dbpedia.org/class/yago/Location100027167
p1030
aVhttp://dbpedia.org/class/yago/Object100002684
p1031
aVhttp://dbpedia.org/class/yago/Region108630985
p1032
aVhttp://dbpedia.org/class/yago/System108435388
p1033
aVhttp://dbpedia.org/class/yago/YagoGeoEntity
p1034
aVhttp://dbpedia.org/class/yago/YagoLegalActorGeo
p1035
aVhttp://dbpedia.org/class/yago/EuropeanCountries
p1036
aVhttp://dbpedia.org/class/yago/EuropeanUnionMemberEconomies
p1037
aVhttp://dbpedia.org/class/yago/PhysicalEntity100001930
p1038
aVhttp://dbpedia.org/class/yago/YagoPermanentlyLocatedEntity
p1039
aVhttp://dbpedia.org/class/yago/LandlockedCountries
p1040
aVhttp://dbpedia.org/class/yago/MemberStatesOfNATO
p1041
aVhttp://dbpedia.org/class/yago/MemberStatesOfTheCouncilOfEurope
p1042
aVhttp://dbpedia.org/class/yago/MemberStatesOfTheEuropeanUnion
p1043
aVhttp://dbpedia.org/class/yago/MemberStatesOfTheUnionForTheMediterranean
p1044
aVhttp://dbpedia.org/class/yago/MemberStatesOfTheUnitedNations
p1045
aVhttp://dbpedia.org/resource/Hungary
tp1046
aa(lp1047
((lp1048
Vhttp://www.w3.org/2002/07/owl#Thing
p1049
aVhttp://dbpedia.org/ontology/Place
p1050
aVhttp://dbpedia.org/ontology/Location
p1051
aVhttp://www.wikidata.org/entity/Q3957
p1052
aVhttp://www.wikidata.org/entity/Q486972
p1053
aVhttp://dbpedia.org/ontology/PopulatedPlace
p1054
aVhttp://dbpedia.org/ontology/Settlement
p1055
aVhttp://dbpedia.org/ontology/Town
p1056
aVhttp://www.w3.org/2003/01/geo/wgs84_pos#SpatialThing
p1057
aVhttp://schema.org/Place
p1058
aVhttp://umbel.org/umbel/rc/Town
p1059
aVhttp://dbpedia.org/class/yago/AdministrativeDistrict108491826
p1060
aVhttp://dbpedia.org/class/yago/Area108497294
p1061
aVhttp://dbpedia.org/class/yago/Center108523483
p1062
aVhttp://dbpedia.org/class/yago/District108552138
p1063
aVhttp://dbpedia.org/class/yago/Location100027167
p1064
aVhttp://dbpedia.org/class/yago/Object100002684
p1065
aVhttp://dbpedia.org/class/yago/Region108630985
p1066
aVhttp://dbpedia.org/class/yago/Seat108647945
p1067
aVhttp://dbpedia.org/class/yago/Site108651247
p1068
aVhttp://dbpedia.org/class/yago/Town108665504
p1069
aVhttp://dbpedia.org/class/yago/Tract108673395
p1070
aVhttp://dbpedia.org/class/yago/UrbanArea108675967
p1071
aVhttp://dbpedia.org/class/yago/YagoGeoEntity
p1072
aVhttp://dbpedia.org/class/yago/YagoLegalActorGeo
p1073
aVhttp://dbpedia.org/class/yago/CountySeat108547143
p1074
aVhttp://dbpedia.org/class/yago/CountySeatsInIndiana
p1075
aVhttp://dbpedia.org/class/yago/GeographicalArea108574314
p1076
aVhttp://dbpedia.org/class/yago/Municipality108626283
p1077
aVhttp://dbpedia.org/class/yago/PhysicalEntity100001930
p1078
aVhttp://dbpedia.org/class/yago/YagoPermanentlyLocatedEntity
p1079
aVhttp://dbpedia.org/class/yago/PopulatedPlacesInCrawfordCounty,Indiana
p1080
aVhttp://dbpedia.org/class/yago/TownsInIndiana
p1081
aVhttp://dbpedia.org/resource/English,_Indiana
tp1082
aaa(lp1083
(lp1084
a(lp1085
a(lp1086
a(lp1087
((lp1088
Vhttp://www.w3.org/2002/07/owl#Thing
p1089
aVhttp://dbpedia.org/ontology/Place
p1090
aVhttp://dbpedia.org/ontology/Location
p1091
aVhttp://www.wikidata.org/entity/Q486972
p1092
aVhttp://www.wikidata.org/entity/Q6256
p1093
aVhttp://dbpedia.org/ontology/Country
p1094
aVhttp://dbpedia.org/ontology/PopulatedPlace
p1095
aVhttp://www.w3.org/2003/01/geo/wgs84_pos#SpatialThing
p1096
aVhttp://schema.org/Country
p1097
aVhttp://schema.org/Place
p1098
aVhttp://umbel.org/umbel/rc/Country
p1099
aVhttp://umbel.org/umbel/rc/Location_Underspecified
p1100
aVhttp://umbel.org/umbel/rc/PopulatedPlace
p1101
aVhttp://dbpedia.org/class/yago/Abstraction100002137
p1102
aVhttp://dbpedia.org/class/yago/AdministrativeDistrict108491826
p1103
aVhttp://dbpedia.org/class/yago/Country108544813
p1104
aVhttp://dbpedia.org/class/yago/District108552138
p1105
aVhttp://dbpedia.org/class/yago/Economy108366753
p1106
aVhttp://dbpedia.org/class/yago/Group100031264
p1107
aVhttp://dbpedia.org/class/yago/Location100027167
p1108
aVhttp://dbpedia.org/class/yago/Object100002684
p1109
aVhttp://dbpedia.org/class/yago/Region108630985
p1110
aVhttp://dbpedia.org/class/yago/System108435388
p1111
aVhttp://dbpedia.org/class/yago/YagoGeoEntity
p1112
aVhttp://dbpedia.org/class/yago/YagoLegalActorGeo
p1113
aVhttp://dbpedia.org/class/yago/EuropeanCountries
p1114
aVhttp://dbpedia.org/class/yago/EuropeanUnionMemberEconomies
p1115
aVhttp://dbpedia.org/class/yago/PhysicalEntity100001930
p1116
aVhttp://dbpedia.org/class/yago/YagoPermanentlyLocatedEntity
p1117
aVhttp://dbpedia.org/class/yago/LandlockedCountries
p1118
aVhttp://dbpedia.org/class/yago/MemberStatesOfNATO
p1119
aVhttp://dbpedia.org/class/yago/MemberStatesOfTheCouncilOfEurope
p1120
aVhttp://dbpedia.org/class/yago/MemberStatesOfTheEuropeanUnion
p1121
aVhttp://dbpedia.org/class/yago/MemberStatesOfTheUnionForTheMediterranean
p1122
aVhttp://dbpedia.org/class/yago/MemberStatesOfTheUnitedNations
p1123
aVhttp://dbpedia.org/resource/Hungary
tp1124
aa(lp1125
((lp1126
Vhttp://www.w3.org/2002/07/owl#Thing
p1127
aVhttp://dbpedia.org/ontology/Company
p1128
aVhttp://www.ontologydesignpatterns.org/ont/dul/DUL.owl#Agent
p1129
aVhttp://www.ontologydesignpatterns.org/ont/dul/DUL.owl#SocialPerson
p1130
aVhttp://www.wikidata.org/entity/Q43229
p1131
aVhttp://dbpedia.org/ontology/Agent
p1132
aVhttp://dbpedia.org/ontology/Organisation
p1133
aVhttp://schema.org/Organization
p1134
aVhttp://umbel.org/umbel/rc/Business
p1135
aVhttp://umbel.org/umbel/rc/Organization
p1136
aVhttp://dbpedia.org/class/yago/Abstraction100002137
p1137
aVhttp://dbpedia.org/class/yago/Company108058098
p1138
aVhttp://dbpedia.org/class/yago/Group100031264
p1139
aVhttp://dbpedia.org/class/yago/Institution108053576
p1140
aVhttp://dbpedia.org/class/yago/Organization108008335
p1141
aVhttp://dbpedia.org/class/yago/SocialGroup107950920
p1142
aVhttp://dbpedia.org/class/yago/YagoLegalActorGeo
p1143
aVhttp://dbpedia.org/class/yago/CompaniesBasedInBonn
p1144
aVhttp://dbpedia.org/class/yago/CompaniesEstablishedIn1996
p1145
aVhttp://dbpedia.org/class/yago/YagoPermanentlyLocatedEntity
p1146
aVhttp://dbpedia.org/class/yago/YagoLegalActor
p1147
aVhttp://dbpedia.org/class/yago/TelecommunicationsCompaniesOfGermany
p1148
aVhttp://dbpedia.org/resource/Deutsche_Telekom
tp1149
aaa(lp1150
(lp1151
a(lp1152
a(lp1153
a(lp1154
((lp1155
Vhttp://www.w3.org/2002/07/owl#Thing
p1156
aVhttp://dbpedia.org/ontology/Place
p1157
aVhttp://dbpedia.org/ontology/Location
p1158
aVhttp://www.wikidata.org/entity/Q486972
p1159
aVhttp://www.wikidata.org/entity/Q6256
p1160
aVhttp://dbpedia.org/ontology/Country
p1161
aVhttp://dbpedia.org/ontology/PopulatedPlace
p1162
aVhttp://www.w3.org/2003/01/geo/wgs84_pos#SpatialThing
p1163
aVhttp://schema.org/Country
p1164
aVhttp://schema.org/Place
p1165
aVhttp://umbel.org/umbel/rc/Country
p1166
aVhttp://umbel.org/umbel/rc/Location_Underspecified
p1167
aVhttp://umbel.org/umbel/rc/PopulatedPlace
p1168
aVhttp://dbpedia.org/class/yago/Abstraction100002137
p1169
aVhttp://dbpedia.org/class/yago/AdministrativeDistrict108491826
p1170
aVhttp://dbpedia.org/class/yago/Country108544813
p1171
aVhttp://dbpedia.org/class/yago/District108552138
p1172
aVhttp://dbpedia.org/class/yago/Economy108366753
p1173
aVhttp://dbpedia.org/class/yago/Group100031264
p1174
aVhttp://dbpedia.org/class/yago/Location100027167
p1175
aVhttp://dbpedia.org/class/yago/Object100002684
p1176
aVhttp://dbpedia.org/class/yago/Region108630985
p1177
aVhttp://dbpedia.org/class/yago/System108435388
p1178
aVhttp://dbpedia.org/class/yago/YagoGeoEntity
p1179
aVhttp://dbpedia.org/class/yago/YagoLegalActorGeo
p1180
aVhttp://dbpedia.org/class/yago/EuropeanCountries
p1181
aVhttp://dbpedia.org/class/yago/EuropeanUnionMemberEconomies
p1182
aVhttp://dbpedia.org/class/yago/PhysicalEntity100001930
p1183
aVhttp://dbpedia.org/class/yago/YagoPermanentlyLocatedEntity
p1184
aVhttp://dbpedia.org/class/yago/LandlockedCountries
p1185
aVhttp://dbpedia.org/class/yago/MemberStatesOfNATO
p1186
aVhttp://dbpedia.org/class/yago/MemberStatesOfTheCouncilOfEurope
p1187
aVhttp://dbpedia.org/class/yago/MemberStatesOfTheEuropeanUnion
p1188
aVhttp://dbpedia.org/class/yago/MemberStatesOfTheUnionForTheMediterranean
p1189
aVhttp://dbpedia.org/class/yago/MemberStatesOfTheUnitedNations
p1190
aVhttp://dbpedia.org/resource/Hungary
tp1191
aa(lp1192
((lp1193
Vhttp://www.w3.org/2002/07/owl#Thing
p1194
aVhttp://dbpedia.org/ontology/Place
p1195
aVhttp://dbpedia.org/ontology/Location
p1196
aVhttp://www.wikidata.org/entity/Q3957
p1197
aVhttp://www.wikidata.org/entity/Q486972
p1198
aVhttp://dbpedia.org/ontology/PopulatedPlace
p1199
aVhttp://dbpedia.org/ontology/Settlement
p1200
aVhttp://dbpedia.org/ontology/Town
p1201
aVhttp://www.w3.org/2003/01/geo/wgs84_pos#SpatialThing
p1202
aVhttp://schema.org/Place
p1203
aVhttp://umbel.org/umbel/rc/Town
p1204
aVhttp://dbpedia.org/class/yago/AdministrativeDistrict108491826
p1205
aVhttp://dbpedia.org/class/yago/Area108497294
p1206
aVhttp://dbpedia.org/class/yago/Center108523483
p1207
aVhttp://dbpedia.org/class/yago/District108552138
p1208
aVhttp://dbpedia.org/class/yago/Location100027167
p1209
aVhttp://dbpedia.org/class/yago/Object100002684
p1210
aVhttp://dbpedia.org/class/yago/Region108630985
p1211
aVhttp://dbpedia.org/class/yago/Seat108647945
p1212
aVhttp://dbpedia.org/class/yago/Site108651247
p1213
aVhttp://dbpedia.org/class/yago/Town108665504
p1214
aVhttp://dbpedia.org/class/yago/Tract108673395
p1215
aVhttp://dbpedia.org/class/yago/UrbanArea108675967
p1216
aVhttp://dbpedia.org/class/yago/YagoGeoEntity
p1217
aVhttp://dbpedia.org/class/yago/YagoLegalActorGeo
p1218
aVhttp://dbpedia.org/class/yago/CountySeat108547143
p1219
aVhttp://dbpedia.org/class/yago/CountySeatsInIndiana
p1220
aVhttp://dbpedia.org/class/yago/GeographicalArea108574314
p1221
aVhttp://dbpedia.org/class/yago/Municipality108626283
p1222
aVhttp://dbpedia.org/class/yago/PhysicalEntity100001930
p1223
aVhttp://dbpedia.org/class/yago/YagoPermanentlyLocatedEntity
p1224
aVhttp://dbpedia.org/class/yago/PopulatedPlacesInCrawfordCounty,Indiana
p1225
aVhttp://dbpedia.org/class/yago/TownsInIndiana
p1226
aVhttp://dbpedia.org/resource/English,_Indiana
tp1227
aaa(lp1228
(lp1229
a(lp1230
a(lp1231
a(lp1232
((lp1233
Vhttp://www.w3.org/2002/07/owl#Thing
p1234
aVhttp://dbpedia.org/ontology/Place
p1235
aVhttp://dbpedia.org/ontology/Location
p1236
aVhttp://www.wikidata.org/entity/Q486972
p1237
aVhttp://www.wikidata.org/entity/Q6256
p1238
aVhttp://dbpedia.org/ontology/Country
p1239
aVhttp://dbpedia.org/ontology/PopulatedPlace
p1240
aVhttp://www.w3.org/2003/01/geo/wgs84_pos#SpatialThing
p1241
aVhttp://schema.org/Country
p1242
aVhttp://schema.org/Place
p1243
aVhttp://umbel.org/umbel/rc/Country
p1244
aVhttp://umbel.org/umbel/rc/Location_Underspecified
p1245
aVhttp://umbel.org/umbel/rc/PopulatedPlace
p1246
aVhttp://dbpedia.org/class/yago/Abstraction100002137
p1247
aVhttp://dbpedia.org/class/yago/AdministrativeDistrict108491826
p1248
aVhttp://dbpedia.org/class/yago/Country108544813
p1249
aVhttp://dbpedia.org/class/yago/District108552138
p1250
aVhttp://dbpedia.org/class/yago/Economy108366753
p1251
aVhttp://dbpedia.org/class/yago/Group100031264
p1252
aVhttp://dbpedia.org/class/yago/Location100027167
p1253
aVhttp://dbpedia.org/class/yago/Object100002684
p1254
aVhttp://dbpedia.org/class/yago/Region108630985
p1255
aVhttp://dbpedia.org/class/yago/System108435388
p1256
aVhttp://dbpedia.org/class/yago/YagoGeoEntity
p1257
aVhttp://dbpedia.org/class/yago/YagoLegalActorGeo
p1258
aVhttp://dbpedia.org/class/yago/EuropeanCountries
p1259
aVhttp://dbpedia.org/class/yago/EuropeanUnionMemberEconomies
p1260
aVhttp://dbpedia.org/class/yago/PhysicalEntity100001930
p1261
aVhttp://dbpedia.org/class/yago/YagoPermanentlyLocatedEntity
p1262
aVhttp://dbpedia.org/class/yago/LandlockedCountries
p1263
aVhttp://dbpedia.org/class/yago/MemberStatesOfNATO
p1264
aVhttp://dbpedia.org/class/yago/MemberStatesOfTheCouncilOfEurope
p1265
aVhttp://dbpedia.org/class/yago/MemberStatesOfTheEuropeanUnion
p1266
aVhttp://dbpedia.org/class/yago/MemberStatesOfTheUnionForTheMediterranean
p1267
aVhttp://dbpedia.org/class/yago/MemberStatesOfTheUnitedNations
p1268
aVhttp://dbpedia.org/resource/Hungary
tp1269
aa(lp1270
((lp1271
Vhttp://www.w3.org/2002/07/owl#Thing
p1272
aVhttp://dbpedia.org/ontology/Place
p1273
aVhttp://dbpedia.org/ontology/Location
p1274
aVhttp://www.wikidata.org/entity/Q3957
p1275
aVhttp://www.wikidata.org/entity/Q486972
p1276
aVhttp://dbpedia.org/ontology/PopulatedPlace
p1277
aVhttp://dbpedia.org/ontology/Settlement
p1278
aVhttp://dbpedia.org/ontology/Town
p1279
aVhttp://www.w3.org/2003/01/geo/wgs84_pos#SpatialThing
p1280
aVhttp://schema.org/Place
p1281
aVhttp://umbel.org/umbel/rc/Town
p1282
aVhttp://dbpedia.org/class/yago/AdministrativeDistrict108491826
p1283
aVhttp://dbpedia.org/class/yago/Area108497294
p1284
aVhttp://dbpedia.org/class/yago/Center108523483
p1285
aVhttp://dbpedia.org/class/yago/District108552138
p1286
aVhttp://dbpedia.org/class/yago/Location100027167
p1287
aVhttp://dbpedia.org/class/yago/Object100002684
p1288
aVhttp://dbpedia.org/class/yago/Region108630985
p1289
aVhttp://dbpedia.org/class/yago/Seat108647945
p1290
aVhttp://dbpedia.org/class/yago/Site108651247
p1291
aVhttp://dbpedia.org/class/yago/Town108665504
p1292
aVhttp://dbpedia.org/class/yago/Tract108673395
p1293
aVhttp://dbpedia.org/class/yago/UrbanArea108675967
p1294
aVhttp://dbpedia.org/class/yago/YagoGeoEntity
p1295
aVhttp://dbpedia.org/class/yago/YagoLegalActorGeo
p1296
aVhttp://dbpedia.org/class/yago/CountySeat108547143
p1297
aVhttp://dbpedia.org/class/yago/CountySeatsInIndiana
p1298
aVhttp://dbpedia.org/class/yago/GeographicalArea108574314
p1299
aVhttp://dbpedia.org/class/yago/Municipality108626283
p1300
aVhttp://dbpedia.org/class/yago/PhysicalEntity100001930
p1301
aVhttp://dbpedia.org/class/yago/YagoPermanentlyLocatedEntity
p1302
aVhttp://dbpedia.org/class/yago/PopulatedPlacesInCrawfordCounty,Indiana
p1303
aVhttp://dbpedia.org/class/yago/TownsInIndiana
p1304
aVhttp://dbpedia.org/resource/English,_Indiana
p1305
tp1306
aaa.