(lp1
(lp2
(dp3
Vstart
p4
I0
sVdisambiguatedURL
p5
NsVnamedEntity
p6
V\u30b7\u30ea\u30fc\u30ba\u540d:
p7
sVoffset
p8
I6
saa(lp9
(dp10
Vstart
p11
I0
sVdisambiguatedURL
p12
NsVnamedEntity
p13
V\u5e74\u9f62\u6307\u5b9a:
p14
sVoffset
p15
I5
saa(lp16
(dp17
Vstart
p18
I0
sVdisambiguatedURL
p19
NsVnamedEntity
p20
V\u4f5c\u54c1\u5f62\u5f0f:
p21
sVoffset
p22
I5
saa(lp23
(dp24
Vstart
p25
I0
sVdisambiguatedURL
p26
NsVnamedEntity
p27
V\u30d5\u30a1\u30a4\u30eb\u5f62\u5f0f:
p28
sVoffset
p29
I7
saa(lp30
(dp31
Vstart
p32
I0
sVdisambiguatedURL
p33
NsVnamedEntity
p34
V\u5bfe\u5fdcos:
p35
sVoffset
p36
I5
saa(lp37
(dp38
Vstart
p39
I0
sVdisambiguatedURL
p40
NsVnamedEntity
p41
V\u305d\u306e\u4ed6:
p42
sVoffset
p43
I4
saa(lp44
(dp45
Vstart
p46
I0
sVdisambiguatedURL
p47
NsVnamedEntity
p48
V\u30b8\u30e3\u30f3\u30eb:
p49
sVoffset
p50
I5
saa.