(lp1
(lp2
a(lp3
(dp4
Vstart
p5
I0
sS'classes'
p6
(lp7
Vhttp://www.w3.org/2002/07/owl#Thing
p8
aVhttp://dbpedia.org/ontology/Place
p9
aVhttp://dbpedia.org/ontology/Location
p10
aVhttp://www.wikidata.org/entity/Q486972
p11
aVhttp://www.wikidata.org/entity/Q6256
p12
aVhttp://dbpedia.org/ontology/Country
p13
aVhttp://dbpedia.org/ontology/PopulatedPlace
p14
aVhttp://www.w3.org/2003/01/geo/wgs84_pos#SpatialThing
p15
aVhttp://schema.org/Country
p16
aVhttp://schema.org/Place
p17
aVhttp://umbel.org/umbel/rc/Country
p18
aVhttp://umbel.org/umbel/rc/Location_Underspecified
p19
aVhttp://umbel.org/umbel/rc/PopulatedPlace
p20
aVhttp://dbpedia.org/class/yago/Abstraction100002137
p21
aVhttp://dbpedia.org/class/yago/AdministrativeDistrict108491826
p22
aVhttp://dbpedia.org/class/yago/Arabic-speakingCountriesAndTerritories
p23
aVhttp://dbpedia.org/class/yago/Country108544813
p24
aVhttp://dbpedia.org/class/yago/District108552138
p25
aVhttp://dbpedia.org/class/yago/Economy108366753
p26
aVhttp://dbpedia.org/class/yago/Group100031264
p27
aVhttp://dbpedia.org/class/yago/Location100027167
p28
aVhttp://dbpedia.org/class/yago/Object100002684
p29
aVhttp://dbpedia.org/class/yago/Region108630985
p30
aVhttp://dbpedia.org/class/yago/System108435388
p31
aVhttp://dbpedia.org/class/yago/YagoGeoEntity
p32
aVhttp://dbpedia.org/class/yago/YagoLegalActorGeo
p33
aVhttp://dbpedia.org/class/yago/CountriesBorderingTheRedSea
p34
aVhttp://dbpedia.org/class/yago/EasternMediterraneanCountries
p35
aVhttp://dbpedia.org/class/yago/PhysicalEntity100001930
p36
aVhttp://dbpedia.org/class/yago/YagoPermanentlyLocatedEntity
p37
aVhttp://dbpedia.org/class/yago/MemberStatesOfTheUnionForTheMediterranean
p38
aVhttp://dbpedia.org/class/yago/MemberStatesOfTheUnitedNations
p39
aVhttp://dbpedia.org/class/yago/MiddleEasternCountries
p40
aVhttp://dbpedia.org/class/yago/NearEasternCountries
p41
aVhttp://dbpedia.org/class/yago/StatesAndTerritoriesEstablishedIn1948
p42
aVhttp://dbpedia.org/class/yago/WorldTradeOrganizationMemberEconomies
p43
asVdisambiguatedURL
p44
Vhttp://dbpedia.org/resource/Israel
p45
sVnamedEntity
p46
VIsrael
p47
sVoffset
p48
I6
saa(lp49
(dp50
Vstart
p51
I0
sg6
(lp52
Vhttp://www.w3.org/2002/07/owl#Thing
p53
aVhttp://dbpedia.org/ontology/Place
p54
aVhttp://dbpedia.org/ontology/Location
p55
aVhttp://www.wikidata.org/entity/Q486972
p56
aVhttp://www.wikidata.org/entity/Q6256
p57
aVhttp://dbpedia.org/ontology/Country
p58
aVhttp://dbpedia.org/ontology/PopulatedPlace
p59
aVhttp://www.w3.org/2003/01/geo/wgs84_pos#SpatialThing
p60
aVhttp://schema.org/Country
p61
aVhttp://schema.org/Place
p62
aVhttp://umbel.org/umbel/rc/Country
p63
aVhttp://umbel.org/umbel/rc/Location_Underspecified
p64
aVhttp://umbel.org/umbel/rc/PopulatedPlace
p65
aVhttp://dbpedia.org/class/yago/Abstraction100002137
p66
aVhttp://dbpedia.org/class/yago/AdministrativeDistrict108491826
p67
aVhttp://dbpedia.org/class/yago/Country108544813
p68
aVhttp://dbpedia.org/class/yago/District108552138
p69
aVhttp://dbpedia.org/class/yago/Economy108366753
p70
aVhttp://dbpedia.org/class/yago/Group100031264
p71
aVhttp://dbpedia.org/class/yago/Island109316454
p72
aVhttp://dbpedia.org/class/yago/Land109334396
p73
aVhttp://dbpedia.org/class/yago/Location100027167
p74
aVhttp://dbpedia.org/class/yago/Object100002684
p75
aVhttp://dbpedia.org/class/yago/Region108630985
p76
aVhttp://dbpedia.org/class/yago/System108435388
p77
aVhttp://dbpedia.org/class/yago/YagoGeoEntity
p78
aVhttp://dbpedia.org/class/yago/YagoLegalActorGeo
p79
aVhttp://dbpedia.org/class/yago/CountriesBorderingThePacificOcean
p80
aVhttp://dbpedia.org/class/yago/CountriesOfTheIndianOcean
p81
aVhttp://dbpedia.org/class/yago/English-speakingCountriesAndTerritories
p82
aVhttp://dbpedia.org/class/yago/FederalCountries
p83
aVhttp://dbpedia.org/class/yago/PhysicalEntity100001930
p84
aVhttp://dbpedia.org/class/yago/YagoPermanentlyLocatedEntity
p85
aVhttp://dbpedia.org/class/yago/Islands
p86
aVhttp://dbpedia.org/class/yago/MemberStatesOfTheCommonwealthOfNations
p87
aVhttp://dbpedia.org/class/yago/MemberStatesOfTheUnitedNations
p88
aVhttp://dbpedia.org/class/yago/OceanianCountries
p89
aVhttp://dbpedia.org/class/yago/StatesAndTerritoriesEstablishedIn1901
p90
aVhttp://dbpedia.org/class/yago/WorldTradeOrganizationMemberEconomies
p91
asVdisambiguatedURL
p92
Vhttp://dbpedia.org/resource/Australia
p93
sVnamedEntity
p94
VAustralia
p95
sVoffset
p96
I9
saa(lp97
(dp98
Vstart
p99
I0
sg6
(lp100
Vhttp://www.w3.org/2002/07/owl#Thing
p101
aVhttp://dbpedia.org/ontology/Place
p102
aVhttp://dbpedia.org/ontology/Location
p103
aVhttp://www.wikidata.org/entity/Q486972
p104
aVhttp://www.wikidata.org/entity/Q6256
p105
aVhttp://dbpedia.org/ontology/Country
p106
aVhttp://dbpedia.org/ontology/PopulatedPlace
p107
aVhttp://www.w3.org/2003/01/geo/wgs84_pos#SpatialThing
p108
aVhttp://schema.org/Country
p109
aVhttp://schema.org/Place
p110
aVhttp://umbel.org/umbel/rc/Country
p111
aVhttp://umbel.org/umbel/rc/Location_Underspecified
p112
aVhttp://umbel.org/umbel/rc/PopulatedPlace
p113
aVhttp://dbpedia.org/class/yago/Abstraction100002137
p114
aVhttp://dbpedia.org/class/yago/AdministrativeDistrict108491826
p115
aVhttp://dbpedia.org/class/yago/Arabic-speakingCountriesAndTerritories
p116
aVhttp://dbpedia.org/class/yago/Country108544813
p117
aVhttp://dbpedia.org/class/yago/District108552138
p118
aVhttp://dbpedia.org/class/yago/Domain108556491
p119
aVhttp://dbpedia.org/class/yago/Economy108366753
p120
aVhttp://dbpedia.org/class/yago/Group100031264
p121
aVhttp://dbpedia.org/class/yago/Location100027167
p122
aVhttp://dbpedia.org/class/yago/Object100002684
p123
aVhttp://dbpedia.org/class/yago/Region108630985
p124
aVhttp://dbpedia.org/class/yago/System108435388
p125
aVhttp://dbpedia.org/class/yago/YagoGeoEntity
p126
aVhttp://dbpedia.org/class/yago/YagoLegalActorGeo
p127
aVhttp://dbpedia.org/class/yago/Emirate108557396
p128
aVhttp://dbpedia.org/class/yago/Emirates
p129
aVhttp://dbpedia.org/class/yago/PhysicalEntity100001930
p130
aVhttp://dbpedia.org/class/yago/YagoPermanentlyLocatedEntity
p131
aVhttp://dbpedia.org/class/yago/MemberStatesOfOPEC
p132
aVhttp://dbpedia.org/class/yago/MemberStatesOfTheArabLeague
p133
aVhttp://dbpedia.org/class/yago/MemberStatesOfTheCooperationCouncilForTheArabStatesOfTheGulf
p134
aVhttp://dbpedia.org/class/yago/MemberStatesOfTheOrganisationOfIslamicCooperation
p135
aVhttp://dbpedia.org/class/yago/MemberStatesOfTheUnitedNations
p136
aVhttp://dbpedia.org/class/yago/MiddleEasternCountries
p137
aVhttp://dbpedia.org/class/yago/PersianGulfCountries
p138
aVhttp://dbpedia.org/class/yago/StatesAndTerritoriesEstablishedIn1961
p139
aVhttp://dbpedia.org/class/yago/WesternAsianCountries
p140
aVhttp://dbpedia.org/class/yago/WorldTradeOrganizationMemberEconomies
p141
asVdisambiguatedURL
p142
Vhttp://dbpedia.org/resource/Kuwait
p143
sVnamedEntity
p144
VKuwait
p145
sVoffset
p146
I6
saa(lp147
(dp148
Vstart
p149
I0
sg6
(lp150
Vhttp://www.w3.org/2002/07/owl#Thing
p151
aVhttp://dbpedia.org/ontology/Place
p152
aVhttp://dbpedia.org/ontology/Location
p153
aVhttp://www.wikidata.org/entity/Q486972
p154
aVhttp://www.wikidata.org/entity/Q6256
p155
aVhttp://dbpedia.org/ontology/Country
p156
aVhttp://dbpedia.org/ontology/PopulatedPlace
p157
aVhttp://www.w3.org/2003/01/geo/wgs84_pos#SpatialThing
p158
aVhttp://schema.org/Country
p159
aVhttp://schema.org/Place
p160
aVhttp://umbel.org/umbel/rc/Country
p161
aVhttp://umbel.org/umbel/rc/Location_Underspecified
p162
aVhttp://umbel.org/umbel/rc/PopulatedPlace
p163
aVhttp://dbpedia.org/class/yago/Abstraction100002137
p164
aVhttp://dbpedia.org/class/yago/AdministrativeDistrict108491826
p165
aVhttp://dbpedia.org/class/yago/Country108544813
p166
aVhttp://dbpedia.org/class/yago/District108552138
p167
aVhttp://dbpedia.org/class/yago/Economy108366753
p168
aVhttp://dbpedia.org/class/yago/Group100031264
p169
aVhttp://dbpedia.org/class/yago/Location100027167
p170
aVhttp://dbpedia.org/class/yago/Object100002684
p171
aVhttp://dbpedia.org/class/yago/Region108630985
p172
aVhttp://dbpedia.org/class/yago/System108435388
p173
aVhttp://dbpedia.org/class/yago/YagoGeoEntity
p174
aVhttp://dbpedia.org/class/yago/YagoLegalActorGeo
p175
aVhttp://dbpedia.org/class/yago/CountriesBorderingTheArcticOcean
p176
aVhttp://dbpedia.org/class/yago/CountriesBorderingTheAtlanticOcean
p177
aVhttp://dbpedia.org/class/yago/CountriesBorderingThePacificOcean
p178
aVhttp://dbpedia.org/class/yago/English-speakingCountriesAndTerritories
p179
aVhttp://dbpedia.org/class/yago/FederalCountries
p180
aVhttp://dbpedia.org/class/yago/French-speakingCountries
p181
aVhttp://dbpedia.org/class/yago/PhysicalEntity100001930
p182
aVhttp://dbpedia.org/class/yago/YagoPermanentlyLocatedEntity
p183
aVhttp://dbpedia.org/class/yago/MemberStatesOfLaFrancophonie
p184
aVhttp://dbpedia.org/class/yago/MemberStatesOfNATO
p185
aVhttp://dbpedia.org/class/yago/MemberStatesOfTheCommonwealthOfNations
p186
aVhttp://dbpedia.org/class/yago/MemberStatesOfTheUnitedNations
p187
aVhttp://dbpedia.org/class/yago/NorthernAmericanCountries
p188
aVhttp://dbpedia.org/class/yago/StatesAndTerritoriesEstablishedIn1867
p189
asVdisambiguatedURL
p190
Vhttp://dbpedia.org/resource/Canada
p191
sVnamedEntity
p192
VCanada
p193
sVoffset
p194
I6
saa(lp195
(dp196
Vstart
p197
I0
sg6
(lp198
Vhttp://www.w3.org/2002/07/owl#Thing
p199
aVhttp://dbpedia.org/ontology/Place
p200
aVhttp://dbpedia.org/ontology/Location
p201
aVhttp://www.wikidata.org/entity/Q486972
p202
aVhttp://www.wikidata.org/entity/Q6256
p203
aVhttp://dbpedia.org/ontology/Country
p204
aVhttp://dbpedia.org/ontology/PopulatedPlace
p205
aVhttp://www.w3.org/2003/01/geo/wgs84_pos#SpatialThing
p206
aVhttp://schema.org/Country
p207
aVhttp://schema.org/Place
p208
aVhttp://umbel.org/umbel/rc/Country
p209
aVhttp://umbel.org/umbel/rc/Location_Underspecified
p210
aVhttp://umbel.org/umbel/rc/PopulatedPlace
p211
aVhttp://dbpedia.org/class/yago/Abstraction100002137
p212
aVhttp://dbpedia.org/class/yago/AdministrativeDistrict108491826
p213
aVhttp://dbpedia.org/class/yago/Country108544813
p214
aVhttp://dbpedia.org/class/yago/District108552138
p215
aVhttp://dbpedia.org/class/yago/Economy108366753
p216
aVhttp://dbpedia.org/class/yago/Group100031264
p217
aVhttp://dbpedia.org/class/yago/Location100027167
p218
aVhttp://dbpedia.org/class/yago/Object100002684
p219
aVhttp://dbpedia.org/class/yago/Region108630985
p220
aVhttp://dbpedia.org/class/yago/System108435388
p221
aVhttp://dbpedia.org/class/yago/YagoGeoEntity
p222
aVhttp://dbpedia.org/class/yago/YagoLegalActorGeo
p223
aVhttp://dbpedia.org/class/yago/CountriesBorderingTheBalticSea
p224
aVhttp://dbpedia.org/class/yago/EuropeanCountries
p225
aVhttp://dbpedia.org/class/yago/EuropeanUnionMemberEconomies
p226
aVhttp://dbpedia.org/class/yago/PhysicalEntity100001930
p227
aVhttp://dbpedia.org/class/yago/YagoPermanentlyLocatedEntity
p228
aVhttp://dbpedia.org/class/yago/MemberStatesOfTheCouncilOfEurope
p229
aVhttp://dbpedia.org/class/yago/MemberStatesOfTheEuropeanUnion
p230
aVhttp://dbpedia.org/class/yago/MemberStatesOfTheUnionForTheMediterranean
p231
aVhttp://dbpedia.org/class/yago/MemberStatesOfTheUnitedNations
p232
aVhttp://dbpedia.org/class/yago/NordicCountries
p233
aVhttp://dbpedia.org/class/yago/StatesAndTerritoriesEstablishedIn1918
p234
asVdisambiguatedURL
p235
Vhttp://dbpedia.org/resource/Finland
p236
sVnamedEntity
p237
VFinland
p238
sVoffset
p239
I7
saa(lp240
a(lp241
(dp242
Vstart
p243
I0
sg6
(lp244
Vhttp://www.w3.org/2002/07/owl#Thing
p245
aVhttp://dbpedia.org/ontology/Place
p246
aVhttp://dbpedia.org/ontology/Location
p247
aVhttp://www.wikidata.org/entity/Q486972
p248
aVhttp://www.wikidata.org/entity/Q6256
p249
aVhttp://dbpedia.org/ontology/Country
p250
aVhttp://dbpedia.org/ontology/PopulatedPlace
p251
aVhttp://www.w3.org/2003/01/geo/wgs84_pos#SpatialThing
p252
aVhttp://schema.org/Country
p253
aVhttp://schema.org/Place
p254
aVhttp://umbel.org/umbel/rc/Country
p255
aVhttp://umbel.org/umbel/rc/Location_Underspecified
p256
aVhttp://umbel.org/umbel/rc/PopulatedPlace
p257
asVdisambiguatedURL
p258
Vhttp://dbpedia.org/resource/Turkey
p259
sVnamedEntity
p260
VTurkey
p261
sVoffset
p262
I6
saa(lp263
(dp264
Vstart
p265
I0
sg6
(lp266
Vhttp://www.w3.org/2002/07/owl#Thing
p267
aVhttp://dbpedia.org/ontology/Place
p268
aVhttp://dbpedia.org/ontology/Location
p269
aVhttp://www.wikidata.org/entity/Q486972
p270
aVhttp://www.wikidata.org/entity/Q6256
p271
aVhttp://dbpedia.org/ontology/Country
p272
aVhttp://dbpedia.org/ontology/PopulatedPlace
p273
aVhttp://www.w3.org/2003/01/geo/wgs84_pos#SpatialThing
p274
aVhttp://schema.org/Country
p275
aVhttp://schema.org/Place
p276
aVhttp://umbel.org/umbel/rc/Country
p277
aVhttp://umbel.org/umbel/rc/Location_Underspecified
p278
aVhttp://umbel.org/umbel/rc/PopulatedPlace
p279
aVhttp://dbpedia.org/class/yago/Abstraction100002137
p280
aVhttp://dbpedia.org/class/yago/AdministrativeDistrict108491826
p281
aVhttp://dbpedia.org/class/yago/BlackSeaCountries
p282
aVhttp://dbpedia.org/class/yago/Country108544813
p283
aVhttp://dbpedia.org/class/yago/District108552138
p284
aVhttp://dbpedia.org/class/yago/Economy108366753
p285
aVhttp://dbpedia.org/class/yago/Group100031264
p286
aVhttp://dbpedia.org/class/yago/Location100027167
p287
aVhttp://dbpedia.org/class/yago/Object100002684
p288
aVhttp://dbpedia.org/class/yago/Region108630985
p289
aVhttp://dbpedia.org/class/yago/System108435388
p290
aVhttp://dbpedia.org/class/yago/YagoGeoEntity
p291
aVhttp://dbpedia.org/class/yago/YagoLegalActorGeo
p292
aVhttp://dbpedia.org/class/yago/EuropeanCountries
p293
aVhttp://dbpedia.org/class/yago/EuropeanUnionMemberEconomies
p294
aVhttp://dbpedia.org/class/yago/PhysicalEntity100001930
p295
aVhttp://dbpedia.org/class/yago/YagoPermanentlyLocatedEntity
p296
aVhttp://dbpedia.org/class/yago/MemberStatesOfNATO
p297
aVhttp://dbpedia.org/class/yago/MemberStatesOfTheEuropeanUnion
p298
aVhttp://dbpedia.org/class/yago/MemberStatesOfTheUnionForTheMediterranean
p299
aVhttp://dbpedia.org/class/yago/MemberStatesOfTheUnitedNations
p300
aVhttp://dbpedia.org/class/yago/Romanian-speakingCountriesAndTerritories
p301
aVhttp://dbpedia.org/class/yago/StatesAndTerritoriesEstablishedIn1878
p302
asVdisambiguatedURL
p303
Vhttp://dbpedia.org/resource/Romania
p304
sVnamedEntity
p305
VRomania
p306
sVoffset
p307
I7
saa(lp308
(dp309
Vstart
p310
I0
sg6
(lp311
Vhttp://www.w3.org/2002/07/owl#Thing
p312
aVhttp://dbpedia.org/ontology/Place
p313
aVhttp://dbpedia.org/ontology/Location
p314
aVhttp://www.wikidata.org/entity/Q486972
p315
aVhttp://www.wikidata.org/entity/Q6256
p316
aVhttp://dbpedia.org/ontology/Country
p317
aVhttp://dbpedia.org/ontology/PopulatedPlace
p318
aVhttp://www.w3.org/2003/01/geo/wgs84_pos#SpatialThing
p319
aVhttp://schema.org/Country
p320
aVhttp://schema.org/Place
p321
aVhttp://umbel.org/umbel/rc/Country
p322
aVhttp://umbel.org/umbel/rc/Location_Underspecified
p323
aVhttp://umbel.org/umbel/rc/PopulatedPlace
p324
aVhttp://dbpedia.org/class/yago/Abstraction100002137
p325
aVhttp://dbpedia.org/class/yago/AdministrativeDistrict108491826
p326
aVhttp://dbpedia.org/class/yago/Country108544813
p327
aVhttp://dbpedia.org/class/yago/District108552138
p328
aVhttp://dbpedia.org/class/yago/Economy108366753
p329
aVhttp://dbpedia.org/class/yago/Group100031264
p330
aVhttp://dbpedia.org/class/yago/Location100027167
p331
aVhttp://dbpedia.org/class/yago/Object100002684
p332
aVhttp://dbpedia.org/class/yago/Region108630985
p333
aVhttp://dbpedia.org/class/yago/System108435388
p334
aVhttp://dbpedia.org/class/yago/YagoGeoEntity
p335
aVhttp://dbpedia.org/class/yago/YagoLegalActorGeo
p336
aVhttp://dbpedia.org/class/yago/EuropeanCountries
p337
aVhttp://dbpedia.org/class/yago/EuropeanUnionMemberEconomies
p338
aVhttp://dbpedia.org/class/yago/PhysicalEntity100001930
p339
aVhttp://dbpedia.org/class/yago/YagoPermanentlyLocatedEntity
p340
aVhttp://dbpedia.org/class/yago/LandlockedCountries
p341
aVhttp://dbpedia.org/class/yago/MemberStatesOfNATO
p342
aVhttp://dbpedia.org/class/yago/MemberStatesOfTheCouncilOfEurope
p343
aVhttp://dbpedia.org/class/yago/MemberStatesOfTheEuropeanUnion
p344
aVhttp://dbpedia.org/class/yago/MemberStatesOfTheUnionForTheMediterranean
p345
aVhttp://dbpedia.org/class/yago/MemberStatesOfTheUnitedNations
p346
asVdisambiguatedURL
p347
Vhttp://dbpedia.org/resource/Hungary
p348
sVnamedEntity
p349
VHungary
p350
sVoffset
p351
I7
saa(lp352
(dp353
Vstart
p354
I0
sg6
(lp355
Vhttp://www.w3.org/2002/07/owl#Thing
p356
aVhttp://dbpedia.org/ontology/Place
p357
aVhttp://dbpedia.org/ontology/Location
p358
aVhttp://www.wikidata.org/entity/Q486972
p359
aVhttp://www.wikidata.org/entity/Q6256
p360
aVhttp://dbpedia.org/ontology/Country
p361
aVhttp://dbpedia.org/ontology/PopulatedPlace
p362
aVhttp://schema.org/Country
p363
aVhttp://schema.org/Place
p364
aVhttp://umbel.org/umbel/rc/Country
p365
aVhttp://umbel.org/umbel/rc/Location_Underspecified
p366
aVhttp://umbel.org/umbel/rc/PopulatedPlace
p367
aVhttp://dbpedia.org/class/yago/Abstraction100002137
p368
aVhttp://dbpedia.org/class/yago/AdministrativeDistrict108491826
p369
aVhttp://dbpedia.org/class/yago/Area108497294
p370
aVhttp://dbpedia.org/class/yago/City108524735
p371
aVhttp://dbpedia.org/class/yago/Country108544813
p372
aVhttp://dbpedia.org/class/yago/District108552138
p373
aVhttp://dbpedia.org/class/yago/Economy108366753
p374
aVhttp://dbpedia.org/class/yago/Group100031264
p375
aVhttp://dbpedia.org/class/yago/Location100027167
p376
aVhttp://dbpedia.org/class/yago/Object100002684
p377
aVhttp://dbpedia.org/class/yago/Region108630039
p378
aVhttp://dbpedia.org/class/yago/Region108630985
p379
aVhttp://dbpedia.org/class/yago/Site108651247
p380
aVhttp://dbpedia.org/class/yago/System108435388
p381
aVhttp://dbpedia.org/class/yago/Tract108673395
p382
aVhttp://dbpedia.org/class/yago/UrbanArea108675967
p383
aVhttp://dbpedia.org/class/yago/YagoGeoEntity
p384
aVhttp://dbpedia.org/class/yago/YagoLegalActorGeo
p385
aVhttp://dbpedia.org/class/yago/Chinese-speakingCountriesAndTerritories
p386
aVhttp://dbpedia.org/class/yago/English-speakingCountriesAndTerritories
p387
aVhttp://dbpedia.org/class/yago/GeographicalArea108574314
p388
aVhttp://dbpedia.org/class/yago/Municipality108626283
p389
aVhttp://dbpedia.org/class/yago/PhysicalEntity100001930
p390
aVhttp://dbpedia.org/class/yago/YagoPermanentlyLocatedEntity
p391
aVhttp://dbpedia.org/class/yago/IndependentCities
p392
aVhttp://dbpedia.org/class/yago/MetropolitanAreasOfChina
p393
aVhttp://dbpedia.org/class/yago/PopulatedCoastalPlacesInHongKong
p394
aVhttp://dbpedia.org/class/yago/PopulatedPlacesEstablishedIn1842
p395
aVhttp://dbpedia.org/class/yago/PortCitiesAndTownsInChina
p396
aVhttp://dbpedia.org/class/yago/SpecialAdministrativeRegionsOfThePeople'sRepublicOfChina
p397
aVhttp://dbpedia.org/class/yago/StatesAndTerritoriesEstablishedIn1997
p398
aVhttp://dbpedia.org/class/yago/WorldTradeOrganizationMemberEconomies
p399
asVdisambiguatedURL
p400
Vhttp://dbpedia.org/resource/Hong_Kong
p401
sVnamedEntity
p402
VHong Kong
p403
sVoffset
p404
I9
saa(lp405
(dp406
Vstart
p407
I0
sg6
(lp408
Vhttp://www.w3.org/2002/07/owl#Thing
p409
aVhttp://dbpedia.org/ontology/Place
p410
aVhttp://dbpedia.org/ontology/Location
p411
aVhttp://www.wikidata.org/entity/Q486972
p412
aVhttp://www.wikidata.org/entity/Q6256
p413
aVhttp://dbpedia.org/ontology/Country
p414
aVhttp://dbpedia.org/ontology/PopulatedPlace
p415
aVhttp://www.w3.org/2003/01/geo/wgs84_pos#SpatialThing
p416
aVhttp://schema.org/Country
p417
aVhttp://schema.org/Place
p418
aVhttp://umbel.org/umbel/rc/Country
p419
aVhttp://umbel.org/umbel/rc/Location_Underspecified
p420
aVhttp://umbel.org/umbel/rc/PopulatedPlace
p421
aVhttp://dbpedia.org/class/yago/Abstraction100002137
p422
aVhttp://dbpedia.org/class/yago/AdministrativeDistrict108491826
p423
aVhttp://dbpedia.org/class/yago/Area108497294
p424
aVhttp://dbpedia.org/class/yago/Capital108518505
p425
aVhttp://dbpedia.org/class/yago/CapitalsInAsia
p426
aVhttp://dbpedia.org/class/yago/Center108523483
p427
aVhttp://dbpedia.org/class/yago/City108524735
p428
aVhttp://dbpedia.org/class/yago/Country108544813
p429
aVhttp://dbpedia.org/class/yago/District108552138
p430
aVhttp://dbpedia.org/class/yago/Economy108366753
p431
aVhttp://dbpedia.org/class/yago/Group100031264
p432
aVhttp://dbpedia.org/class/yago/Location100027167
p433
aVhttp://dbpedia.org/class/yago/Object100002684
p434
aVhttp://dbpedia.org/class/yago/Region108630985
p435
aVhttp://dbpedia.org/class/yago/Seat108647945
p436
aVhttp://dbpedia.org/class/yago/Site108651247
p437
aVhttp://dbpedia.org/class/yago/System108435388
p438
aVhttp://dbpedia.org/class/yago/Tract108673395
p439
aVhttp://dbpedia.org/class/yago/UrbanArea108675967
p440
aVhttp://dbpedia.org/class/yago/YagoGeoEntity
p441
aVhttp://dbpedia.org/class/yago/YagoLegalActorGeo
p442
aVhttp://dbpedia.org/class/yago/Chinese-speakingCountriesAndTerritories
p443
aVhttp://dbpedia.org/class/yago/CountriesBorderingTheSouthChinaSea
p444
aVhttp://dbpedia.org/class/yago/English-speakingCountriesAndTerritories
p445
aVhttp://dbpedia.org/class/yago/GeographicalArea108574314
p446
aVhttp://dbpedia.org/class/yago/Municipality108626283
p447
aVhttp://dbpedia.org/class/yago/PhysicalEntity100001930
p448
aVhttp://dbpedia.org/class/yago/YagoPermanentlyLocatedEntity
p449
aVhttp://dbpedia.org/class/yago/IslandCountries
p450
aVhttp://dbpedia.org/class/yago/Malay-speakingCountriesAndTerritories
p451
aVhttp://dbpedia.org/class/yago/MemberStatesOfTheAssociationOfSoutheastAsianNations
p452
aVhttp://dbpedia.org/class/yago/MemberStatesOfTheCommonwealthOfNations
p453
aVhttp://dbpedia.org/class/yago/MemberStatesOfTheUnitedNations
p454
aVhttp://dbpedia.org/class/yago/PopulatedCoastalPlaces
p455
aVhttp://dbpedia.org/class/yago/SoutheastAsianCountries
p456
aVhttp://dbpedia.org/class/yago/StatesAndTerritoriesEstablishedIn1965
p457
aVhttp://dbpedia.org/class/yago/Tamil-speakingCountriesAndTerritories
p458
aVhttp://dbpedia.org/class/yago/WorldTradeOrganizationMemberEconomies
p459
aVhttp://dbpedia.org/class/yago/YouthOlympicGamesHostCities
p460
asVdisambiguatedURL
p461
Vhttp://dbpedia.org/resource/Singapore
p462
sVnamedEntity
p463
VSingapore
p464
sVoffset
p465
I9
saa(lp466
(dp467
Vstart
p468
I0
sg6
(lp469
Vhttp://www.w3.org/2002/07/owl#Thing
p470
aVhttp://dbpedia.org/ontology/Place
p471
aVhttp://dbpedia.org/ontology/Location
p472
aVhttp://www.wikidata.org/entity/Q486972
p473
aVhttp://www.wikidata.org/entity/Q6256
p474
aVhttp://dbpedia.org/ontology/Country
p475
aVhttp://dbpedia.org/ontology/PopulatedPlace
p476
aVhttp://www.w3.org/2003/01/geo/wgs84_pos#SpatialThing
p477
aVhttp://schema.org/Country
p478
aVhttp://schema.org/Place
p479
aVhttp://umbel.org/umbel/rc/Country
p480
aVhttp://umbel.org/umbel/rc/Location_Underspecified
p481
aVhttp://umbel.org/umbel/rc/PopulatedPlace
p482
aVhttp://dbpedia.org/class/yago/Abstraction100002137
p483
aVhttp://dbpedia.org/class/yago/AdministrativeDistrict108491826
p484
aVhttp://dbpedia.org/class/yago/Country108544813
p485
aVhttp://dbpedia.org/class/yago/District108552138
p486
aVhttp://dbpedia.org/class/yago/Economy108366753
p487
aVhttp://dbpedia.org/class/yago/Group100031264
p488
aVhttp://dbpedia.org/class/yago/Location100027167
p489
aVhttp://dbpedia.org/class/yago/Object100002684
p490
aVhttp://dbpedia.org/class/yago/Region108630985
p491
aVhttp://dbpedia.org/class/yago/Site108651247
p492
aVhttp://dbpedia.org/class/yago/System108435388
p493
aVhttp://dbpedia.org/class/yago/Tract108673395
p494
aVhttp://dbpedia.org/class/yago/YagoGeoEntity
p495
aVhttp://dbpedia.org/class/yago/YagoLegalActorGeo
p496
aVhttp://dbpedia.org/class/yago/Chinese-speakingCountriesAndTerritories
p497
aVhttp://dbpedia.org/class/yago/CountriesBorderingTheSouthChinaSea
p498
aVhttp://dbpedia.org/class/yago/CountriesOfTheIndianOcean
p499
aVhttp://dbpedia.org/class/yago/Developing8CountriesMemberStates
p500
aVhttp://dbpedia.org/class/yago/English-speakingCountriesAndTerritories
p501
aVhttp://dbpedia.org/class/yago/FederalCountries
p502
aVhttp://dbpedia.org/class/yago/GeographicalArea108574314
p503
aVhttp://dbpedia.org/class/yago/PhysicalEntity100001930
p504
aVhttp://dbpedia.org/class/yago/YagoPermanentlyLocatedEntity
p505
aVhttp://dbpedia.org/class/yago/Malay-speakingCountriesAndTerritories
p506
aVhttp://dbpedia.org/class/yago/MemberStatesOfTheAssociationOfSoutheastAsianNations
p507
aVhttp://dbpedia.org/class/yago/MemberStatesOfTheCommonwealthOfNations
p508
aVhttp://dbpedia.org/class/yago/MemberStatesOfTheOrganisationOfIslamicCooperation
p509
aVhttp://dbpedia.org/class/yago/MemberStatesOfTheUnitedNations
p510
aVhttp://dbpedia.org/class/yago/SoutheastAsianCountries
p511
aVhttp://dbpedia.org/class/yago/StatesAndTerritoriesEstablishedIn1963
p512
aVhttp://dbpedia.org/class/yago/WorldTradeOrganizationMemberEconomies
p513
aVhttp://dbpedia.org/class/yago/WorldWarIISites
p514
asVdisambiguatedURL
p515
Vhttp://dbpedia.org/resource/Malaysia
p516
sVnamedEntity
p517
VMalaysia
p518
sVoffset
p519
I8
saa(lp520
(dp521
Vstart
p522
I0
sg6
(lp523
Vhttp://www.w3.org/2002/07/owl#Thing
p524
aVhttp://dbpedia.org/ontology/Place
p525
aVhttp://dbpedia.org/ontology/Location
p526
aVhttp://www.wikidata.org/entity/Q486972
p527
aVhttp://www.wikidata.org/entity/Q6256
p528
aVhttp://dbpedia.org/ontology/Country
p529
aVhttp://dbpedia.org/ontology/PopulatedPlace
p530
aVhttp://www.w3.org/2003/01/geo/wgs84_pos#SpatialThing
p531
aVhttp://schema.org/Country
p532
aVhttp://schema.org/Place
p533
aVhttp://umbel.org/umbel/rc/Country
p534
aVhttp://umbel.org/umbel/rc/Location_Underspecified
p535
aVhttp://umbel.org/umbel/rc/PopulatedPlace
p536
aVhttp://dbpedia.org/class/yago/Abstraction100002137
p537
aVhttp://dbpedia.org/class/yago/AdministrativeDistrict108491826
p538
aVhttp://dbpedia.org/class/yago/BicontinentalCountries
p539
aVhttp://dbpedia.org/class/yago/BlackSeaCountries
p540
aVhttp://dbpedia.org/class/yago/Country108544813
p541
aVhttp://dbpedia.org/class/yago/District108552138
p542
aVhttp://dbpedia.org/class/yago/Economy108366753
p543
aVhttp://dbpedia.org/class/yago/Group100031264
p544
aVhttp://dbpedia.org/class/yago/Location100027167
p545
aVhttp://dbpedia.org/class/yago/Object100002684
p546
aVhttp://dbpedia.org/class/yago/Region108630985
p547
aVhttp://dbpedia.org/class/yago/System108435388
p548
aVhttp://dbpedia.org/class/yago/YagoGeoEntity
p549
aVhttp://dbpedia.org/class/yago/YagoLegalActorGeo
p550
aVhttp://dbpedia.org/class/yago/CentralAsianCountries
p551
aVhttp://dbpedia.org/class/yago/CountriesBorderingTheArcticOcean
p552
aVhttp://dbpedia.org/class/yago/CountriesBorderingTheBalticSea
p553
aVhttp://dbpedia.org/class/yago/CountriesBorderingThePacificOcean
p554
aVhttp://dbpedia.org/class/yago/EastAsianCountries
p555
aVhttp://dbpedia.org/class/yago/EuropeanCountries
p556
aVhttp://dbpedia.org/class/yago/FederalCountries
p557
aVhttp://dbpedia.org/class/yago/PhysicalEntity100001930
p558
aVhttp://dbpedia.org/class/yago/YagoPermanentlyLocatedEntity
p559
aVhttp://dbpedia.org/class/yago/MemberStatesOfTheCommonwealthOfIndependentStates
p560
aVhttp://dbpedia.org/class/yago/MemberStatesOfTheUnitedNations
p561
aVhttp://dbpedia.org/class/yago/NorthAsianCountries
p562
aVhttp://dbpedia.org/class/yago/Russian-speakingCountriesAndTerritories
p563
aVhttp://dbpedia.org/class/yago/SlavicCountries
p564
aVhttp://dbpedia.org/class/yago/StatesAndTerritoriesEstablishedIn862
p565
asVdisambiguatedURL
p566
Vhttp://dbpedia.org/resource/Russia
p567
sVnamedEntity
p568
VRussia
p569
sVoffset
p570
I6
saa(lp571
(dp572
Vstart
p573
I0
sg6
(lp574
Vhttp://www.w3.org/2002/07/owl#Thing
p575
aVhttp://dbpedia.org/ontology/Place
p576
aVhttp://dbpedia.org/ontology/Location
p577
aVhttp://www.wikidata.org/entity/Q486972
p578
aVhttp://www.wikidata.org/entity/Q6256
p579
aVhttp://dbpedia.org/ontology/Country
p580
aVhttp://dbpedia.org/ontology/PopulatedPlace
p581
aVhttp://www.w3.org/2003/01/geo/wgs84_pos#SpatialThing
p582
aVhttp://schema.org/Country
p583
aVhttp://schema.org/Place
p584
aVhttp://umbel.org/umbel/rc/Country
p585
aVhttp://umbel.org/umbel/rc/Location_Underspecified
p586
aVhttp://umbel.org/umbel/rc/PopulatedPlace
p587
aVhttp://dbpedia.org/class/yago/Abstraction100002137
p588
aVhttp://dbpedia.org/class/yago/AdministrativeDistrict108491826
p589
aVhttp://dbpedia.org/class/yago/Country108544813
p590
aVhttp://dbpedia.org/class/yago/District108552138
p591
aVhttp://dbpedia.org/class/yago/Domain108556491
p592
aVhttp://dbpedia.org/class/yago/Economy108366753
p593
aVhttp://dbpedia.org/class/yago/Group100031264
p594
aVhttp://dbpedia.org/class/yago/Location100027167
p595
aVhttp://dbpedia.org/class/yago/Object100002684
p596
aVhttp://dbpedia.org/class/yago/Region108630985
p597
aVhttp://dbpedia.org/class/yago/System108435388
p598
aVhttp://dbpedia.org/class/yago/YagoGeoEntity
p599
aVhttp://dbpedia.org/class/yago/YagoLegalActorGeo
p600
aVhttp://dbpedia.org/class/yago/CountriesBorderingThePacificOcean
p601
aVhttp://dbpedia.org/class/yago/CountriesBorderingThePhilippineSea
p602
aVhttp://dbpedia.org/class/yago/EastAsianCountries
p603
aVhttp://dbpedia.org/class/yago/Empire108557482
p604
aVhttp://dbpedia.org/class/yago/Empires
p605
aVhttp://dbpedia.org/class/yago/PhysicalEntity100001930
p606
aVhttp://dbpedia.org/class/yago/YagoPermanentlyLocatedEntity
p607
aVhttp://dbpedia.org/class/yago/IslandCountries
p608
aVhttp://dbpedia.org/class/yago/MemberStatesOfTheUnitedNations
p609
aVhttp://dbpedia.org/class/yago/StatesAndTerritoriesEstablishedIn660BC
p610
asVdisambiguatedURL
p611
Vhttp://dbpedia.org/resource/Japan
p612
sVnamedEntity
p613
VJapan
p614
sVoffset
p615
I5
saa(lp616
(dp617
Vstart
p618
I0
sg6
(lp619
Vhttp://www.w3.org/2002/07/owl#Thing
p620
aVhttp://dbpedia.org/ontology/Place
p621
aVhttp://dbpedia.org/ontology/Location
p622
aVhttp://www.wikidata.org/entity/Q486972
p623
aVhttp://www.wikidata.org/entity/Q6256
p624
aVhttp://dbpedia.org/ontology/Country
p625
aVhttp://dbpedia.org/ontology/PopulatedPlace
p626
aVhttp://www.w3.org/2003/01/geo/wgs84_pos#SpatialThing
p627
aVhttp://schema.org/Country
p628
aVhttp://schema.org/Place
p629
aVhttp://umbel.org/umbel/rc/Country
p630
aVhttp://umbel.org/umbel/rc/Location_Underspecified
p631
aVhttp://umbel.org/umbel/rc/PopulatedPlace
p632
aVhttp://dbpedia.org/class/yago/Abstraction100002137
p633
aVhttp://dbpedia.org/class/yago/AdministrativeDistrict108491826
p634
aVhttp://dbpedia.org/class/yago/Country108544813
p635
aVhttp://dbpedia.org/class/yago/District108552138
p636
aVhttp://dbpedia.org/class/yago/Economy108366753
p637
aVhttp://dbpedia.org/class/yago/Group100031264
p638
aVhttp://dbpedia.org/class/yago/Location100027167
p639
aVhttp://dbpedia.org/class/yago/Object100002684
p640
aVhttp://dbpedia.org/class/yago/Region108630985
p641
aVhttp://dbpedia.org/class/yago/System108435388
p642
aVhttp://dbpedia.org/class/yago/YagoGeoEntity
p643
aVhttp://dbpedia.org/class/yago/YagoLegalActorGeo
p644
aVhttp://dbpedia.org/class/yago/CountriesBorderingTheBalticSea
p645
aVhttp://dbpedia.org/class/yago/EuropeanCountries
p646
aVhttp://dbpedia.org/class/yago/EuropeanUnionMemberEconomies
p647
aVhttp://dbpedia.org/class/yago/PhysicalEntity100001930
p648
aVhttp://dbpedia.org/class/yago/YagoPermanentlyLocatedEntity
p649
aVhttp://dbpedia.org/class/yago/MemberStatesOfNATO
p650
aVhttp://dbpedia.org/class/yago/MemberStatesOfTheEuropeanUnion
p651
aVhttp://dbpedia.org/class/yago/MemberStatesOfTheUnionForTheMediterranean
p652
aVhttp://dbpedia.org/class/yago/MemberStatesOfTheUnitedNations
p653
aVhttp://dbpedia.org/class/yago/SlavicCountries
p654
aVhttp://dbpedia.org/class/yago/StatesAndTerritoriesEstablishedIn1918
p655
aVhttp://dbpedia.org/class/yago/WorldTradeOrganizationMemberEconomies
p656
asVdisambiguatedURL
p657
Vhttp://dbpedia.org/resource/Poland
p658
sVnamedEntity
p659
VPoland
p660
sVoffset
p661
I6
saa(lp662
(dp663
Vstart
p664
I0
sg6
(lp665
Vhttp://www.w3.org/2002/07/owl#Thing
p666
aVhttp://dbpedia.org/ontology/Place
p667
aVhttp://dbpedia.org/ontology/Location
p668
aVhttp://www.wikidata.org/entity/Q486972
p669
aVhttp://www.wikidata.org/entity/Q6256
p670
aVhttp://dbpedia.org/ontology/Country
p671
aVhttp://dbpedia.org/ontology/PopulatedPlace
p672
aVhttp://www.w3.org/2003/01/geo/wgs84_pos#SpatialThing
p673
aVhttp://schema.org/Country
p674
aVhttp://schema.org/Place
p675
aVhttp://dbpedia.org/class/yago/Abstraction100002137
p676
aVhttp://dbpedia.org/class/yago/AdministrativeDistrict108491826
p677
aVhttp://dbpedia.org/class/yago/Country108544813
p678
aVhttp://dbpedia.org/class/yago/District108552138
p679
aVhttp://dbpedia.org/class/yago/Economy108366753
p680
aVhttp://dbpedia.org/class/yago/Group100031264
p681
aVhttp://dbpedia.org/class/yago/Location100027167
p682
aVhttp://dbpedia.org/class/yago/Object100002684
p683
aVhttp://dbpedia.org/class/yago/Region108630985
p684
aVhttp://dbpedia.org/class/yago/System108435388
p685
aVhttp://dbpedia.org/class/yago/YagoGeoEntity
p686
aVhttp://dbpedia.org/class/yago/YagoLegalActorGeo
p687
aVhttp://dbpedia.org/class/yago/CentralAsianCountries
p688
aVhttp://dbpedia.org/class/yago/Chinese-speakingCountriesAndTerritories
p689
aVhttp://dbpedia.org/class/yago/CommunistStates
p690
aVhttp://dbpedia.org/class/yago/CountriesBorderingThePacificOcean
p691
aVhttp://dbpedia.org/class/yago/CountriesBorderingTheSouthChinaSea
p692
aVhttp://dbpedia.org/class/yago/EastAsianCountries
p693
aVhttp://dbpedia.org/class/yago/EconomiesByRegion
p694
aVhttp://dbpedia.org/class/yago/PhysicalEntity100001930
p695
aVhttp://dbpedia.org/class/yago/YagoPermanentlyLocatedEntity
p696
aVhttp://dbpedia.org/class/yago/MemberStatesOfTheUnitedNations
p697
aVhttp://dbpedia.org/class/yago/Single-partyStates
p698
aVhttp://dbpedia.org/class/yago/SocialistStates
p699
aVhttp://dbpedia.org/class/yago/StatesAndTerritoriesEstablishedIn1949
p700
asVdisambiguatedURL
p701
Vhttp://dbpedia.org/resource/China
p702
sVnamedEntity
p703
VChina
p704
sVoffset
p705
I5
saa(lp706
(dp707
Vstart
p708
I0
sg6
(lp709
Vhttp://www.w3.org/2002/07/owl#Thing
p710
aVhttp://dbpedia.org/ontology/Place
p711
aVhttp://dbpedia.org/ontology/Location
p712
aVhttp://www.wikidata.org/entity/Q486972
p713
aVhttp://www.wikidata.org/entity/Q6256
p714
aVhttp://dbpedia.org/ontology/Country
p715
aVhttp://dbpedia.org/ontology/PopulatedPlace
p716
aVhttp://www.w3.org/2003/01/geo/wgs84_pos#SpatialThing
p717
aVhttp://schema.org/Country
p718
aVhttp://schema.org/Place
p719
aVhttp://umbel.org/umbel/rc/Country
p720
aVhttp://umbel.org/umbel/rc/Location_Underspecified
p721
aVhttp://umbel.org/umbel/rc/PopulatedPlace
p722
aVhttp://dbpedia.org/class/yago/Abstraction100002137
p723
aVhttp://dbpedia.org/class/yago/AdministrativeDistrict108491826
p724
aVhttp://dbpedia.org/class/yago/AlpineCountries
p725
aVhttp://dbpedia.org/class/yago/Country108544813
p726
aVhttp://dbpedia.org/class/yago/District108552138
p727
aVhttp://dbpedia.org/class/yago/Economy108366753
p728
aVhttp://dbpedia.org/class/yago/Group100031264
p729
aVhttp://dbpedia.org/class/yago/Location100027167
p730
aVhttp://dbpedia.org/class/yago/Object100002684
p731
aVhttp://dbpedia.org/class/yago/Region108630985
p732
aVhttp://dbpedia.org/class/yago/System108435388
p733
aVhttp://dbpedia.org/class/yago/YagoGeoEntity
p734
aVhttp://dbpedia.org/class/yago/YagoLegalActorGeo
p735
aVhttp://dbpedia.org/class/yago/EuropeanCountries
p736
aVhttp://dbpedia.org/class/yago/FederalCountries
p737
aVhttp://dbpedia.org/class/yago/French-speakingCountries
p738
aVhttp://dbpedia.org/class/yago/PhysicalEntity100001930
p739
aVhttp://dbpedia.org/class/yago/YagoPermanentlyLocatedEntity
p740
aVhttp://dbpedia.org/class/yago/German-speakingCountries
p741
aVhttp://dbpedia.org/class/yago/Italian-speakingCountries
p742
aVhttp://dbpedia.org/class/yago/LandlockedCountries
p743
aVhttp://dbpedia.org/class/yago/MemberStatesOfLaFrancophonie
p744
aVhttp://dbpedia.org/class/yago/MemberStatesOfTheUnitedNations
p745
aVhttp://dbpedia.org/class/yago/StatesAndTerritoriesEstablishedIn1291
p746
aVhttp://dbpedia.org/class/yago/WorldTradeOrganizationMemberEconomies
p747
asVdisambiguatedURL
p748
Vhttp://dbpedia.org/resource/Switzerland
p749
sVnamedEntity
p750
VSwitzerland
p751
sVoffset
p752
I11
saa(lp753
(dp754
Vstart
p755
I0
sg6
(lp756
Vhttp://www.w3.org/2002/07/owl#Thing
p757
aVhttp://dbpedia.org/ontology/Place
p758
aVhttp://dbpedia.org/ontology/Location
p759
aVhttp://www.wikidata.org/entity/Q23442
p760
aVhttp://www.wikidata.org/entity/Q486972
p761
aVhttp://dbpedia.org/ontology/Island
p762
aVhttp://dbpedia.org/ontology/PopulatedPlace
p763
aVhttp://schema.org/Place
p764
aVhttp://umbel.org/umbel/rc/Island
p765
aVhttp://umbel.org/umbel/rc/Location_Underspecified
p766
aVhttp://umbel.org/umbel/rc/PopulatedPlace
p767
aVhttp://dbpedia.org/class/yago/Island109316454
p768
aVhttp://dbpedia.org/class/yago/Land109334396
p769
aVhttp://dbpedia.org/class/yago/Location100027167
p770
aVhttp://dbpedia.org/class/yago/Object100002684
p771
aVhttp://dbpedia.org/class/yago/Region108630039
p772
aVhttp://dbpedia.org/class/yago/YagoGeoEntity
p773
aVhttp://dbpedia.org/class/yago/YagoLegalActorGeo
p774
aVhttp://dbpedia.org/class/yago/DividedRegions
p775
aVhttp://dbpedia.org/class/yago/PhysicalEntity100001930
p776
aVhttp://dbpedia.org/class/yago/YagoPermanentlyLocatedEntity
p777
aVhttp://dbpedia.org/class/yago/InternationalIslands
p778
asVdisambiguatedURL
p779
Vhttp://dbpedia.org/resource/Ireland
p780
sVnamedEntity
p781
VIreland
p782
sVoffset
p783
I7
saa(lp784
(dp785
Vstart
p786
I0
sg6
(lp787
Vhttp://www.w3.org/2002/07/owl#Thing
p788
aVhttp://dbpedia.org/ontology/Place
p789
aVhttp://dbpedia.org/ontology/Location
p790
aVhttp://www.wikidata.org/entity/Q486972
p791
aVhttp://www.wikidata.org/entity/Q6256
p792
aVhttp://dbpedia.org/ontology/Country
p793
aVhttp://dbpedia.org/ontology/PopulatedPlace
p794
aVhttp://www.w3.org/2003/01/geo/wgs84_pos#SpatialThing
p795
aVhttp://schema.org/Country
p796
aVhttp://schema.org/Place
p797
aVhttp://umbel.org/umbel/rc/Country
p798
aVhttp://umbel.org/umbel/rc/Location_Underspecified
p799
aVhttp://umbel.org/umbel/rc/PopulatedPlace
p800
aVhttp://dbpedia.org/class/yago/Abstraction100002137
p801
aVhttp://dbpedia.org/class/yago/AdministrativeDistrict108491826
p802
aVhttp://dbpedia.org/class/yago/Country108544813
p803
aVhttp://dbpedia.org/class/yago/District108552138
p804
aVhttp://dbpedia.org/class/yago/Economy108366753
p805
aVhttp://dbpedia.org/class/yago/Group100031264
p806
aVhttp://dbpedia.org/class/yago/Location100027167
p807
aVhttp://dbpedia.org/class/yago/Object100002684
p808
aVhttp://dbpedia.org/class/yago/Region108630985
p809
aVhttp://dbpedia.org/class/yago/System108435388
p810
aVhttp://dbpedia.org/class/yago/YagoGeoEntity
p811
aVhttp://dbpedia.org/class/yago/YagoLegalActorGeo
p812
aVhttp://dbpedia.org/class/yago/CountriesBorderingTheAtlanticOcean
p813
aVhttp://dbpedia.org/class/yago/English-speakingCountriesAndTerritories
p814
aVhttp://dbpedia.org/class/yago/EuropeanCountries
p815
aVhttp://dbpedia.org/class/yago/EuropeanUnionMemberEconomies
p816
aVhttp://dbpedia.org/class/yago/PhysicalEntity100001930
p817
aVhttp://dbpedia.org/class/yago/YagoPermanentlyLocatedEntity
p818
aVhttp://dbpedia.org/class/yago/IslandCountries
p819
aVhttp://dbpedia.org/class/yago/MemberStatesOfNATO
p820
aVhttp://dbpedia.org/class/yago/MemberStatesOfTheCommonwealthOfNations
p821
aVhttp://dbpedia.org/class/yago/MemberStatesOfTheCouncilOfEurope
p822
aVhttp://dbpedia.org/class/yago/MemberStatesOfTheEuropeanUnion
p823
aVhttp://dbpedia.org/class/yago/MemberStatesOfTheUnionForTheMediterranean
p824
aVhttp://dbpedia.org/class/yago/MemberStatesOfTheUnitedNations
p825
asVdisambiguatedURL
p826
Vhttp://dbpedia.org/resource/United_Kingdom
p827
sVnamedEntity
p828
VUnited Kingdom
p829
sVoffset
p830
I14
saa.