(lp1
(lp2
(dp3
Vstart
p4
I0
sVdisambiguatedURL
p5
NsVnamedEntity
p6
Vdufourspitze (pointe dufour)
p7
sVoffset
p8
I28
saa(lp9
(dp10
Vstart
p11
I0
sVdisambiguatedURL
p12
Vhttp://dbpedia.org/resource/Zumsteinspitze
p13
sVnamedEntity
p14
Vzumsteinspitze
p15
sVoffset
p16
I14
saa(lp17
(dp18
Vstart
p19
I0
sVdisambiguatedURL
p20
Vhttp://dbpedia.org/resource/Dominance_and_submission
p21
sVnamedEntity
p22
Vdom
p23
sVoffset
p24
I3
saa(lp25
(dp26
Vstart
p27
I0
sVdisambiguatedURL
p28
NsVnamedEntity
p29
Vnadelhorn
p30
sVoffset
p31
I9
saa(lp32
(dp33
Vstart
p34
I0
sVdisambiguatedURL
p35
Vhttp://dbpedia.org/resource/Grand_Combin
p36
sVnamedEntity
p37
Vgrand combin de grafeneire
p38
sVoffset
p39
I26
saa(lp40
(dp41
Vstart
p42
I0
sVdisambiguatedURL
p43
NsVnamedEntity
p44
Vlenzspitze
p45
sVoffset
p46
I10
saa(lp47
(dp48
Vstart
p49
I0
sVdisambiguatedURL
p50
Vhttp://dbpedia.org/resource/Finsteraarhorn
p51
sVnamedEntity
p52
Vfinsteraarhorn
p53
sVoffset
p54
I14
saa(lp55
(dp56
Vstart
p57
I0
sVdisambiguatedURL
p58
Vhttp://dbpedia.org/resource/Zinalrothorn
p59
sVnamedEntity
p60
Vzinalrothorn
p61
sVoffset
p62
I12
saa(lp63
(dp64
Vstart
p65
I0
sVdisambiguatedURL
p66
NsVnamedEntity
p67
Valphubel
p68
sVoffset
p69
I8
saa(lp70
(dp71
Vstart
p72
I0
sVdisambiguatedURL
p73
Vhttp://dbpedia.org/resource/Rimpfischhorn
p74
sVnamedEntity
p75
Vrimpfischhorn
p76
sVoffset
p77
I13
saa(lp78
(dp79
Vstart
p80
I0
sVdisambiguatedURL
p81
Vhttp://dbpedia.org/resource/Aletschhorn
p82
sVnamedEntity
p83
Valetschhorn
p84
sVoffset
p85
I11
saa(lp86
(dp87
Vstart
p88
I0
sVdisambiguatedURL
p89
NsVnamedEntity
p90
Vstrahlhorn
p91
sVoffset
p92
I10
saa(lp93
(dp94
Vstart
p95
I0
sVdisambiguatedURL
p96
NsVnamedEntity
p97
Vjungfrau
p98
sVoffset
p99
I8
saa(lp100
(dp101
Vstart
p102
I0
sVdisambiguatedURL
p103
NsVnamedEntity
p104
Vbishorn
p105
sVoffset
p106
I7
saa(lp107
(dp108
Vstart
p109
I0
sVdisambiguatedURL
p110
NsVnamedEntity
p111
Vm\ufffdnch
p112
sVoffset
p113
I5
saa(lp114
(dp115
Vstart
p116
I0
sVdisambiguatedURL
p117
Vhttp://dbpedia.org/resource/Gross_Fiescherhorn
p118
sVnamedEntity
p119
Vgrosses fiescherhorn
p120
sVoffset
p121
I20
saa(lp122
(dp123
Vstart
p124
I0
sVdisambiguatedURL
p125
NsVnamedEntity
p126
Vpiz bernina
p127
sVoffset
p128
I11
saa(lp129
(dp130
Vstart
p131
I0
sVdisambiguatedURL
p132
Vhttp://dbpedia.org/resource/Allalinhorn
p133
sVnamedEntity
p134
Vallalinhorn
p135
sVoffset
p136
I11
saa(lp137
(dp138
Vstart
p139
I0
sVdisambiguatedURL
p140
Vhttp://dbpedia.org/resource/Hinter_Fiescherhorn
p141
sVnamedEntity
p142
Vhinter fiescherhorn
p143
sVoffset
p144
I19
saa(lp145
(dp146
Vstart
p147
I0
sVdisambiguatedURL
p148
Vhttp://dbpedia.org/resource/Fletschhorn
p149
sVnamedEntity
p150
Vfletschhorn
p151
sVoffset
p152
I11
saa.