(lp1
(lp2
(lp3
a(lp4
a(lp5
a(lp6
aa(lp7
(lp8
a(lp9
a(lp10
a(lp11
((lp12
Vhttp://www.w3.org/2002/07/owl#Thing
p13
aVhttp://dbpedia.org/resource/Restaurant
tp14
aaa(lp15
(lp16
a(lp17
a(lp18
a(lp19
aa(lp20
(lp21
a(lp22
a(lp23
a(lp24
((lp25
Vhttp://dbpedia.org/class/yago/Abstraction100002137
p26
aVhttp://dbpedia.org/class/yago/Arrangement105726596
p27
aVhttp://dbpedia.org/class/yago/Cognition100023271
p28
aVhttp://dbpedia.org/class/yago/Standard107260623
p29
aVhttp://dbpedia.org/class/yago/Structure105726345
p30
aVhttp://dbpedia.org/class/yago/SystemOfMeasurement113577171
p31
aVhttp://dbpedia.org/class/yago/ClassificationSystem105727220
p32
aVhttp://dbpedia.org/class/yago/ComputerFileSystems
p33
aVhttp://dbpedia.org/class/yago/ComputerStandards
p34
aVhttp://dbpedia.org/class/yago/FileSystem105732614
p35
aVhttp://dbpedia.org/class/yago/Measure100033615
p36
aVhttp://dbpedia.org/class/yago/PsychologicalFeature100023100
p37
aVhttp://dbpedia.org/resource/Filesystem_Hierarchy_Standard
tp38
aaa(lp39
(lp40
a(lp41
a(lp42
a(lp43
aa(lp44
(lp45
a(lp46
a(lp47
a(lp48
aa(lp49
(lp50
a(lp51
a(lp52
a(lp53
((lp54
Vhttp://www.w3.org/2002/07/owl#Thing
p55
aVhttp://dbpedia.org/resource/Construction
tp56
aaa(lp57
(lp58
a(lp59
a(lp60
a(lp61
aa(lp62
(lp63
a(lp64
((lp65
Vhttp://www.w3.org/2002/07/owl#Thing
p66
aVhttp://dbpedia.org/ontology/Company
p67
aVhttp://www.ontologydesignpatterns.org/ont/dul/DUL.owl#Agent
p68
aVhttp://www.ontologydesignpatterns.org/ont/dul/DUL.owl#SocialPerson
p69
aVhttp://www.wikidata.org/entity/Q43229
p70
aVhttp://dbpedia.org/ontology/Agent
p71
aVhttp://dbpedia.org/ontology/Organisation
p72
aVhttp://schema.org/Organization
p73
aVhttp://umbel.org/umbel/rc/Business
p74
aVhttp://umbel.org/umbel/rc/Organization
p75
aVhttp://dbpedia.org/class/yago/Abstraction100002137
p76
aVhttp://dbpedia.org/class/yago/Company108058098
p77
aVhttp://dbpedia.org/class/yago/Group100031264
p78
aVhttp://dbpedia.org/class/yago/Institution108053576
p79
aVhttp://dbpedia.org/class/yago/Organization108008335
p80
aVhttp://dbpedia.org/class/yago/SocialGroup107950920
p81
aVhttp://dbpedia.org/class/yago/YagoLegalActorGeo
p82
aVhttp://dbpedia.org/class/yago/CompaniesBasedInDallas,Texas
p83
aVhttp://dbpedia.org/class/yago/CompaniesEstablishedIn1930
p84
aVhttp://dbpedia.org/class/yago/ElectronicsCompaniesOfTheUnitedStates
p85
aVhttp://dbpedia.org/class/yago/ElectronicsCompany108003035
p86
aVhttp://dbpedia.org/class/yago/YagoPermanentlyLocatedEntity
p87
aVhttp://dbpedia.org/class/yago/HomeComputerHardwareCompanies
p88
aVhttp://dbpedia.org/class/yago/YagoLegalActor
p89
aVhttp://dbpedia.org/class/yago/SemiconductorCompanies
p90
aVhttp://dbpedia.org/resource/Texas_Instruments
tp91
aa(lp92
a(lp93
((lVhttp://dbpedia.org/resource/Semiconductor
tp94
aaa(lp95
(lp96
a(lp97
a(lp98
a(lp99
aa(lp100
(lp101
a(lp102
((lVhttp://dbpedia.org/resource/Caterpillar
tp103
aa(lp104
a(lp105
((lVhttp://dbpedia.org/resource/Capital_good
tp106
aaa(lp107
(lp108
a(lp109
((lp110
Vhttp://www.w3.org/2002/07/owl#Thing
p111
aVhttp://dbpedia.org/ontology/Company
p112
aVhttp://www.ontologydesignpatterns.org/ont/dul/DUL.owl#Agent
p113
aVhttp://www.ontologydesignpatterns.org/ont/dul/DUL.owl#SocialPerson
p114
aVhttp://www.wikidata.org/entity/Q43229
p115
aVhttp://dbpedia.org/ontology/Agent
p116
aVhttp://dbpedia.org/ontology/Organisation
p117
aVhttp://schema.org/Organization
p118
aVhttp://umbel.org/umbel/rc/Business
p119
aVhttp://umbel.org/umbel/rc/Organization
p120
aVhttp://dbpedia.org/class/yago/Abstraction100002137
p121
aVhttp://dbpedia.org/class/yago/BatteryElectricVehicleManufacturers
p122
aVhttp://dbpedia.org/class/yago/Business108061042
p123
aVhttp://dbpedia.org/class/yago/CarManufacturer108066763
p124
aVhttp://dbpedia.org/class/yago/CarManufacturersOfTheUnitedStates
p125
aVhttp://dbpedia.org/class/yago/Company108058098
p126
aVhttp://dbpedia.org/class/yago/Enterprise108056231
p127
aVhttp://dbpedia.org/class/yago/Group100031264
p128
aVhttp://dbpedia.org/class/yago/HoldingCompany108185369
p129
aVhttp://dbpedia.org/class/yago/Institution108053576
p130
aVhttp://dbpedia.org/class/yago/Manufacturer108060446
p131
aVhttp://dbpedia.org/class/yago/Organization108008335
p132
aVhttp://dbpedia.org/class/yago/SocialGroup107950920
p133
aVhttp://dbpedia.org/class/yago/YagoLegalActorGeo
p134
aVhttp://dbpedia.org/class/yago/CompaniesBasedInDetroit,Michigan
p135
aVhttp://dbpedia.org/class/yago/CompaniesEstablishedIn1908
p136
aVhttp://dbpedia.org/class/yago/CompaniesEstablishedIn2009
p137
aVhttp://dbpedia.org/class/yago/ElectricVehicleManufacturers
p138
aVhttp://dbpedia.org/class/yago/YagoPermanentlyLocatedEntity
p139
aVhttp://dbpedia.org/class/yago/HoldingCompanies
p140
aVhttp://dbpedia.org/class/yago/HybridElectricBusManufacturers
p141
aVhttp://dbpedia.org/class/yago/MotorVehicleManufacturersBasedInMichigan
p142
aVhttp://dbpedia.org/class/yago/MotorVehicleManufacturersOfTheUnitedStates
p143
aVhttp://dbpedia.org/class/yago/YagoLegalActor
p144
aVhttp://dbpedia.org/class/yago/Re-establishedCompanies
p145
aVhttp://dbpedia.org/resource/General_Motors
tp146
aa(lp147
a(lp148
aa(lp149
(lp150
a(lp151
a(lp152
a(lp153
aa(lp154
(lp155
a(lp156
a(lp157
a(lp158
((lp159
Vhttp://www.w3.org/2002/07/owl#Thing
p160
aVhttp://dbpedia.org/resource/Pharmaceutical_drug
tp161
aaa(lp162
(lp163
a(lp164
a(lp165
a(lp166
((lVhttp://dbpedia.org/resource/Telecommunication
tp167
aaa(lp168
(lp169
a(lp170
a(lp171
a(lp172
aa(lp173
(lp174
a(lp175
a(lp176
a(lp177
((lVhttp://dbpedia.org/resource/Capital_good
tp178
aaa(lp179
(lp180
a(lp181
((lp182
Vhttp://www.w3.org/2002/07/owl#Thing
p183
aVhttp://dbpedia.org/ontology/Company
p184
aVhttp://www.ontologydesignpatterns.org/ont/dul/DUL.owl#Agent
p185
aVhttp://www.ontologydesignpatterns.org/ont/dul/DUL.owl#SocialPerson
p186
aVhttp://www.wikidata.org/entity/Q43229
p187
aVhttp://dbpedia.org/ontology/Agent
p188
aVhttp://dbpedia.org/ontology/Organisation
p189
aVhttp://schema.org/Organization
p190
aVhttp://umbel.org/umbel/rc/Business
p191
aVhttp://umbel.org/umbel/rc/Organization
p192
aVhttp://dbpedia.org/class/yago/Abstraction100002137
p193
aVhttp://dbpedia.org/class/yago/Company108058098
p194
aVhttp://dbpedia.org/class/yago/Group100031264
p195
aVhttp://dbpedia.org/class/yago/Institution108053576
p196
aVhttp://dbpedia.org/class/yago/Organization108008335
p197
aVhttp://dbpedia.org/class/yago/SocialGroup107950920
p198
aVhttp://dbpedia.org/class/yago/YagoLegalActorGeo
p199
aVhttp://dbpedia.org/class/yago/CompaniesBasedInMilwaukee,Wisconsin
p200
aVhttp://dbpedia.org/class/yago/CompaniesEstablishedIn1903
p201
aVhttp://dbpedia.org/class/yago/YagoPermanentlyLocatedEntity
p202
aVhttp://dbpedia.org/class/yago/YagoLegalActor
p203
aVhttp://dbpedia.org/resource/Harley-Davidson
tp204
aa(lp205
a(lp206
((lp207
Vhttp://dbpedia.org/class/yago/Abstraction100002137
p208
aVhttp://dbpedia.org/class/yago/Advantage105155821
p209
aVhttp://dbpedia.org/class/yago/Asset105154517
p210
aVhttp://dbpedia.org/class/yago/Attribute100024264
p211
aVhttp://dbpedia.org/class/yago/Good105159725
p212
aVhttp://dbpedia.org/class/yago/Quality104723816
p213
aVhttp://dbpedia.org/class/yago/Goods
p214
aVhttp://dbpedia.org/resource/Durable_good
p215
tp216
aaa(lp217
(lp218
a(lp219
a(lp220
a(lp221
aa(lp222
(lp223
a(lp224
a(lp225
a(lp226
aa.