(lp1
(lp2
(dp3
Vstart
p4
I0
sVdisambiguatedURL
p5
NsVnamedEntity
p6
Vthe moderate party (m)
p7
sVoffset
p8
I22
saa(lp9
(dp10
Vstart
p11
I0
sVdisambiguatedURL
p12
NsVnamedEntity
p13
Vthe centre party (c)
p14
sVoffset
p15
I20
saa(lp16
(dp17
Vstart
p18
I0
sVdisambiguatedURL
p19
NsVnamedEntity
p20
Vthe liberal party (fp)
p21
sVoffset
p22
I22
saa(lp23
(dp24
Vstart
p25
I0
sVdisambiguatedURL
p26
NsVnamedEntity
p27
Vchristian democrats (kd)
p28
sVoffset
p29
I24
saa(lp30
(dp31
Vstart
p32
I0
sVdisambiguatedURL
p33
NsVnamedEntity
p34
Vsocial democrats (s)
p35
sVoffset
p36
I20
saa(lp37
(dp38
Vstart
p39
I0
sVdisambiguatedURL
p40
NsVnamedEntity
p41
Vleft party (v)
p42
sVoffset
p43
I14
saa(lp44
(dp45
Vstart
p46
I0
sVdisambiguatedURL
p47
NsVnamedEntity
p48
Vthe green party (mp)
p49
sVoffset
p50
I20
saa(lp51
(dp52
Vstart
p53
I0
sVdisambiguatedURL
p54
NsVnamedEntity
p55
Vjune list (jl)
p56
sVoffset
p57
I14
saa(lp58
(dp59
Vstart
p60
I0
sVdisambiguatedURL
p61
NsVnamedEntity
p62
Vsweden democrats (sd)
p63
sVoffset
p64
I21
saa(lp65
(dp66
Vstart
p67
I0
sVdisambiguatedURL
p68
NsVnamedEntity
p69
Vother parties (&ouml;vr)
p70
sVoffset
p71
I24
saa.