(lp1
(lp2
(lp3
a(lp4
Vhttp://dbpedia.org/resource/Non-breaking_space
p5
aa(lp6
Vhttp://dbpedia.org/resource/United_States
p7
aaa(lp8
(lp9
a(lp10
Vhttp://dbpedia.org/resource/Non-breaking_space
p11
aa(lp12
Vhttp://dbpedia.org/resource/Ireland
p13
aaa(lp14
(lp15
a(lp16
Vhttp://dbpedia.org/resource/Non-breaking_space
p17
aa(lp18
Vhttp://dbpedia.org/resource/France
p19
aaa(lp20
(lp21
a(lp22
Vhttp://dbpedia.org/resource/Non-breaking_space
p23
aa(lp24
Vhttp://dbpedia.org/resource/Spain
p25
aaa.