(lp1
(lp2
(lp3
a(lp4
((lp5
Vhttp://www.w3.org/2002/07/owl#Thing
p6
aVhttp://www.ontologydesignpatterns.org/ont/dul/DUL.owl#Agent
p7
aVhttp://www.ontologydesignpatterns.org/ont/dul/DUL.owl#SocialPerson
p8
aVhttp://www.wikidata.org/entity/Q15265344
p9
aVhttp://www.wikidata.org/entity/Q43229
p10
aVhttp://dbpedia.org/ontology/Agent
p11
aVhttp://dbpedia.org/ontology/Broadcaster
p12
aVhttp://dbpedia.org/ontology/Organisation
p13
aVhttp://dbpedia.org/ontology/TelevisionStation
p14
aVhttp://schema.org/Organization
p15
aVhttp://schema.org/TelevisionStation
p16
aVhttp://dbpedia.org/resource/Speed_(TV_network)
tp17
aa(lp18
aa(lp19
(lp20
((lp21
Vhttp://www.w3.org/2002/07/owl#Thing
p22
aVhttp://dbpedia.org/resource/State_(polity)
tp23
aa(lp24
((lp25
Vhttp://www.w3.org/2002/07/owl#Thing
p26
aVhttp://dbpedia.org/ontology/Place
p27
aVhttp://dbpedia.org/ontology/Location
p28
aVhttp://www.wikidata.org/entity/Q3455524
p29
aVhttp://www.wikidata.org/entity/Q486972
p30
aVhttp://dbpedia.org/ontology/AdministrativeRegion
p31
aVhttp://dbpedia.org/ontology/PopulatedPlace
p32
aVhttp://dbpedia.org/ontology/Region
p33
aVhttp://schema.org/AdministrativeArea
p34
aVhttp://schema.org/Place
p35
aVhttp://umbel.org/umbel/rc/Location_Underspecified
p36
aVhttp://umbel.org/umbel/rc/PopulatedPlace
p37
aVhttp://dbpedia.org/class/yago/AdministrativeDistrict108491826
p38
aVhttp://dbpedia.org/class/yago/Country108544813
p39
aVhttp://dbpedia.org/class/yago/District108552138
p40
aVhttp://dbpedia.org/class/yago/Location100027167
p41
aVhttp://dbpedia.org/class/yago/Object100002684
p42
aVhttp://dbpedia.org/class/yago/Region108630985
p43
aVhttp://dbpedia.org/class/yago/YagoGeoEntity
p44
aVhttp://dbpedia.org/class/yago/YagoLegalActorGeo
p45
aVhttp://dbpedia.org/class/yago/PhysicalEntity100001930
p46
aVhttp://dbpedia.org/class/yago/YagoPermanentlyLocatedEntity
p47
aVhttp://dbpedia.org/class/yago/StatesAndTerritoriesEstablishedIn1789
p48
aVhttp://dbpedia.org/class/yago/StatesOfTheConfederateStatesOfAmerica
p49
aVhttp://dbpedia.org/class/yago/StatesOfTheSouthernUnitedStates
p50
aVhttp://dbpedia.org/class/yago/StatesOfTheUnitedStates
p51
aVhttp://dbpedia.org/resource/North_Carolina
tp52
aa(lp53
aa(lp54
(lp55
((lVhttp://dbpedia.org/resource/List_of_countries_by_population
tp56
aa(lp57
a(lp58
aa(lp59
(lp60
((lVhttp://dbpedia.org/resource/Unit_(housing)
tp61
aa(lp62
a(lp63
aa(lp64
(lp65
a(lp66
((lVhttp://dbpedia.org/resource/Square_mile
tp67
aa(lp68
aa(lp69
(lp70
((lVhttp://dbpedia.org/resource/List_of_countries_and_dependencies_by_area
tp71
aa(lp72
((lVhttp://dbpedia.org/resource/Square_mile
tp73
aa(lp74
aa(lp75
(lp76
((lVhttp://dbpedia.org/resource/List_of_countries_and_dependencies_by_area
tp77
aa(lp78
((lVhttp://dbpedia.org/resource/Square_mile
tp79
aa(lp80
aa(lp81
(lp82
((lVhttp://dbpedia.org/resource/Population_density
tp83
aa(lp84
a(lp85
aa(lp86
(lp87
((lVhttp://dbpedia.org/resource/Urban_density
tp88
aa(lp89
a(lp90
aa(lp91
(lp92
a(lp93
a(lp94
aa(lp95
(lp96
((lp97
Vhttp://www.w3.org/2002/07/owl#Thing
p98
aVhttp://dbpedia.org/resource/Violent_crime
tp99
aa(lp100
a(lp101
aa(lp102
(lp103
a(lp104
a(lp105
aa(lp106
(lp107
a(lp108
a(lp109
aa(lp110
(lp111
((lVhttp://dbpedia.org/resource/Robbery
tp112
aa(lp113
a(lp114
aa(lp115
(lp116
((lp117
Vhttp://www.w3.org/2002/07/owl#Thing
p118
aVhttp://dbpedia.org/resource/Assault
tp119
aa(lp120
a(lp121
aa(lp122
(lp123
((lp124
Vhttp://www.w3.org/2002/07/owl#Thing
p125
aVhttp://dbpedia.org/resource/Violent_crime
tp126
aa(lp127
a(lp128
aa(lp129
(lp130
((lVhttp://dbpedia.org/resource/Property_crime
tp131
aa(lp132
a(lp133
aa(lp134
(lp135
((lVhttp://dbpedia.org/resource/Burglary
tp136
aa(lp137
a(lp138
aa(lp139
(lp140
a(lp141
a(lp142
aa(lp143
(lp144
((lp145
Vhttp://www.w3.org/2002/07/owl#Thing
p146
aVhttp://dbpedia.org/class/yago/Abstraction100002137
p147
aVhttp://dbpedia.org/class/yago/Act100030358
p148
aVhttp://dbpedia.org/class/yago/Activity100407535
p149
aVhttp://dbpedia.org/class/yago/Crime100766234
p150
aVhttp://dbpedia.org/class/yago/Event100029378
p151
aVhttp://dbpedia.org/class/yago/Transgression100745005
p152
aVhttp://dbpedia.org/class/yago/Wrongdoing100732746
p153
aVhttp://dbpedia.org/class/yago/Crimes
p154
aVhttp://dbpedia.org/class/yago/PsychologicalFeature100023100
p155
aVhttp://dbpedia.org/class/yago/YagoPermanentlyLocatedEntity
p156
aVhttp://dbpedia.org/resource/Motor_vehicle_theft
p157
tp158
aa(lp159
a(lp160
aa.