(lp1
(lp2
(dp3
Vstart
p4
I0
sS'classes'
p5
(lp6
Vhttp://www.w3.org/2002/07/owl#Thing
p7
aVhttp://xmlns.com/foaf/0.1/Person
p8
aVhttp://dbpedia.org/ontology/Person
p9
aVhttp://www.ontologydesignpatterns.org/ont/dul/DUL.owl#Agent
p10
aVhttp://www.ontologydesignpatterns.org/ont/dul/DUL.owl#NaturalPerson
p11
aVhttp://www.wikidata.org/entity/Q215627
p12
aVhttp://www.wikidata.org/entity/Q5
p13
aVhttp://dbpedia.org/ontology/Agent
p14
aVhttp://schema.org/Person
p15
aVhttp://dbpedia.org/class/yago/15th-centuryGermanPeople
p16
aVhttp://dbpedia.org/class/yago/CausalAgent100007347
p17
aVhttp://dbpedia.org/class/yago/Compositor109949946
p18
aVhttp://dbpedia.org/class/yago/Creator109614315
p19
aVhttp://dbpedia.org/class/yago/Goldsmith110136615
p20
aVhttp://dbpedia.org/class/yago/Inventor110214637
p21
aVhttp://dbpedia.org/class/yago/JewelryMaker110221956
p22
aVhttp://dbpedia.org/class/yago/LivingThing100004258
p23
aVhttp://dbpedia.org/class/yago/Maker110284064
p24
aVhttp://dbpedia.org/class/yago/Object100002684
p25
aVhttp://dbpedia.org/class/yago/Organism100004475
p26
aVhttp://dbpedia.org/class/yago/Person100007846
p27
aVhttp://dbpedia.org/class/yago/Printer110475297
p28
aVhttp://dbpedia.org/class/yago/SkilledWorker110605985
p29
aVhttp://dbpedia.org/class/yago/Whole100003553
p30
aVhttp://dbpedia.org/class/yago/Worker109632518
p31
aVhttp://dbpedia.org/class/yago/YagoLegalActorGeo
p32
aVhttp://dbpedia.org/class/yago/PhysicalEntity100001930
p33
aVhttp://dbpedia.org/class/yago/GermanGoldsmiths
p34
aVhttp://dbpedia.org/class/yago/GermanInventors
p35
aVhttp://dbpedia.org/class/yago/GermanPrinters
p36
aVhttp://dbpedia.org/class/yago/PeopleFromMainz
p37
aVhttp://dbpedia.org/class/yago/YagoLegalActor
p38
aVhttp://dbpedia.org/class/yago/PrintersOfIncunabula
p39
aVhttp://dbpedia.org/class/yago/Typographers
p40
asVdisambiguatedURL
p41
Vhttp://dbpedia.org/resource/Johannes_Gutenberg
p42
sVnamedEntity
p43
Vjohann gutenberg
p44
sVoffset
p45
I16
saa(lp46
a(lp47
(dp48
Vstart
p49
I0
sg5
(lp50
Vhttp://www.w3.org/2002/07/owl#Thing
p51
aVhttp://xmlns.com/foaf/0.1/Person
p52
aVhttp://dbpedia.org/ontology/Person
p53
aVhttp://www.ontologydesignpatterns.org/ont/dul/DUL.owl#Agent
p54
aVhttp://www.ontologydesignpatterns.org/ont/dul/DUL.owl#NaturalPerson
p55
aVhttp://www.wikidata.org/entity/Q215627
p56
aVhttp://www.wikidata.org/entity/Q5
p57
aVhttp://www.wikidata.org/entity/Q901
p58
aVhttp://dbpedia.org/ontology/Agent
p59
aVhttp://dbpedia.org/ontology/Scientist
p60
aVhttp://schema.org/Person
p61
aVhttp://umbel.org/umbel/rc/Scientist
p62
aVhttp://dbpedia.org/class/yago/16th-centuryFlemishPhysicians
p63
aVhttp://dbpedia.org/class/yago/16th-centuryLatin-languageWriters
p64
aVhttp://dbpedia.org/class/yago/Adult109605289
p65
aVhttp://dbpedia.org/class/yago/Anatomist109792237
p66
aVhttp://dbpedia.org/class/yago/Anatomists
p67
aVhttp://dbpedia.org/class/yago/BelgianScientists
p68
aVhttp://dbpedia.org/class/yago/CausalAgent100007347
p69
aVhttp://dbpedia.org/class/yago/Communicator109610660
p70
aVhttp://dbpedia.org/class/yago/Doctor110020890
p71
aVhttp://dbpedia.org/class/yago/Expert109617867
p72
aVhttp://dbpedia.org/class/yago/HealthProfessional110165109
p73
aVhttp://dbpedia.org/class/yago/LivingThing100004258
p74
aVhttp://dbpedia.org/class/yago/Object100002684
p75
aVhttp://dbpedia.org/class/yago/Organism100004475
p76
aVhttp://dbpedia.org/class/yago/Person100007846
p77
aVhttp://dbpedia.org/class/yago/Professional110480253
p78
aVhttp://dbpedia.org/class/yago/Scientist110560637
p79
aVhttp://dbpedia.org/class/yago/Whole100003553
p80
aVhttp://dbpedia.org/class/yago/Writer110794014
p81
aVhttp://dbpedia.org/class/yago/YagoLegalActorGeo
p82
aVhttp://dbpedia.org/class/yago/MedicalPractitioner110305802
p83
aVhttp://dbpedia.org/class/yago/PhysicalEntity100001930
p84
aVhttp://dbpedia.org/class/yago/YagoLegalActor
p85
asVdisambiguatedURL
p86
Vhttp://dbpedia.org/resource/Andreas_Vesalius
p87
sVnamedEntity
p88
Vandreas vesalius
p89
sVoffset
p90
I16
saa(lp91
a(lp92
a(lp93
a(lp94
a(lp95
a(lp96
a(lp97
a(lp98
(dp99
Vstart
p100
I0
sg5
(lp101
Vhttp://www.w3.org/2002/07/owl#Thing
p102
aVhttp://xmlns.com/foaf/0.1/Person
p103
aVhttp://dbpedia.org/ontology/Person
p104
aVhttp://www.ontologydesignpatterns.org/ont/dul/DUL.owl#Agent
p105
aVhttp://www.ontologydesignpatterns.org/ont/dul/DUL.owl#NaturalPerson
p106
aVhttp://www.wikidata.org/entity/Q215627
p107
aVhttp://www.wikidata.org/entity/Q5
p108
aVhttp://www.wikidata.org/entity/Q901
p109
aVhttp://dbpedia.org/ontology/Agent
p110
aVhttp://dbpedia.org/ontology/Scientist
p111
aVhttp://schema.org/Person
p112
aVhttp://umbel.org/umbel/rc/PersonWithOccupation
p113
aVhttp://umbel.org/umbel/rc/Scientist
p114
aVhttp://dbpedia.org/class/yago/18th-centuryFrenchWriters
p115
aVhttp://dbpedia.org/class/yago/18th-centuryMathematicians
p116
aVhttp://dbpedia.org/class/yago/Associate109816771
p117
aVhttp://dbpedia.org/class/yago/CausalAgent100007347
p118
aVhttp://dbpedia.org/class/yago/Colleague109935990
p119
aVhttp://dbpedia.org/class/yago/Communicator109610660
p120
aVhttp://dbpedia.org/class/yago/Compiler109946957
p121
aVhttp://dbpedia.org/class/yago/Encyclopedist110055566
p122
aVhttp://dbpedia.org/class/yago/Intellectual109621545
p123
aVhttp://dbpedia.org/class/yago/LivingThing100004258
p124
aVhttp://dbpedia.org/class/yago/Mathematician110301261
p125
aVhttp://dbpedia.org/class/yago/Object100002684
p126
aVhttp://dbpedia.org/class/yago/Organism100004475
p127
aVhttp://dbpedia.org/class/yago/Peer109626238
p128
aVhttp://dbpedia.org/class/yago/Person100007846
p129
aVhttp://dbpedia.org/class/yago/Philosopher110423589
p130
aVhttp://dbpedia.org/class/yago/Physicist110428004
p131
aVhttp://dbpedia.org/class/yago/Scholar110557854
p132
aVhttp://dbpedia.org/class/yago/Scientist110560637
p133
aVhttp://dbpedia.org/class/yago/Theorist110706812
p134
aVhttp://dbpedia.org/class/yago/Whole100003553
p135
aVhttp://dbpedia.org/class/yago/Writer110794014
p136
aVhttp://dbpedia.org/class/yago/YagoLegalActorGeo
p137
aVhttp://dbpedia.org/class/yago/EarlyModernPhilosophers
p138
aVhttp://dbpedia.org/class/yago/FellowsOfTheAmericanAcademyOfArtsAndSciences
p139
aVhttp://dbpedia.org/class/yago/FellowsOfTheRoyalSociety
p140
aVhttp://dbpedia.org/class/yago/FrenchEncyclopedists
p141
aVhttp://dbpedia.org/class/yago/FrenchMathematicians
p142
aVhttp://dbpedia.org/class/yago/FrenchMusicTheorists
p143
aVhttp://dbpedia.org/class/yago/FrenchPhilosophers
p144
aVhttp://dbpedia.org/class/yago/FrenchPhysicists
p145
aVhttp://dbpedia.org/class/yago/PhysicalEntity100001930
p146
aVhttp://dbpedia.org/class/yago/YagoLegalActor
p147
aVhttp://dbpedia.org/class/yago/WritersFromParis
p148
asVdisambiguatedURL
p149
Vhttp://dbpedia.org/resource/Jean_le_Rond_d'Alembert
p150
sVnamedEntity
p151
Vjean le rond d\ufffdalembert
p152
sVoffset
p153
I23
saa(lp154
(dp155
Vstart
p156
I0
sg5
(lp157
Vhttp://www.w3.org/2002/07/owl#Thing
p158
aVhttp://xmlns.com/foaf/0.1/Person
p159
aVhttp://dbpedia.org/ontology/Person
p160
aVhttp://www.ontologydesignpatterns.org/ont/dul/DUL.owl#Agent
p161
aVhttp://www.ontologydesignpatterns.org/ont/dul/DUL.owl#NaturalPerson
p162
aVhttp://www.wikidata.org/entity/Q215627
p163
aVhttp://www.wikidata.org/entity/Q5
p164
aVhttp://dbpedia.org/ontology/Agent
p165
aVhttp://schema.org/Person
p166
aVhttp://dbpedia.org/class/yago/17th-centuryItalianPhysicians
p167
aVhttp://dbpedia.org/class/yago/Adult109605289
p168
aVhttp://dbpedia.org/class/yago/Anatomist109792237
p169
aVhttp://dbpedia.org/class/yago/Associate109816771
p170
aVhttp://dbpedia.org/class/yago/Biologist109855630
p171
aVhttp://dbpedia.org/class/yago/CausalAgent100007347
p172
aVhttp://dbpedia.org/class/yago/Colleague109935990
p173
aVhttp://dbpedia.org/class/yago/Doctor110020890
p174
aVhttp://dbpedia.org/class/yago/Expert109617867
p175
aVhttp://dbpedia.org/class/yago/HealthProfessional110165109
p176
aVhttp://dbpedia.org/class/yago/LivingThing100004258
p177
aVhttp://dbpedia.org/class/yago/Object100002684
p178
aVhttp://dbpedia.org/class/yago/Organism100004475
p179
aVhttp://dbpedia.org/class/yago/Peer109626238
p180
aVhttp://dbpedia.org/class/yago/Person100007846
p181
aVhttp://dbpedia.org/class/yago/Professional110480253
p182
aVhttp://dbpedia.org/class/yago/Scientist110560637
p183
aVhttp://dbpedia.org/class/yago/Whole100003553
p184
aVhttp://dbpedia.org/class/yago/YagoLegalActorGeo
p185
aVhttp://dbpedia.org/class/yago/FellowsOfTheRoyalSociety
p186
aVhttp://dbpedia.org/class/yago/MedicalPractitioner110305802
p187
aVhttp://dbpedia.org/class/yago/PhysicalEntity100001930
p188
aVhttp://dbpedia.org/class/yago/ItalianAnatomists
p189
aVhttp://dbpedia.org/class/yago/ItalianBiologists
p190
aVhttp://dbpedia.org/class/yago/PeopleFromCrevalcore
p191
aVhttp://dbpedia.org/class/yago/YagoLegalActor
p192
asVdisambiguatedURL
p193
Vhttp://dbpedia.org/resource/Marcello_Malpighi
p194
sVnamedEntity
p195
Vmarcello malpighi
p196
sVoffset
p197
I17
saa(lp198
(dp199
Vstart
p200
I0
sg5
(lp201
Vhttp://www.w3.org/2002/07/owl#Thing
p202
aVhttp://xmlns.com/foaf/0.1/Person
p203
aVhttp://dbpedia.org/ontology/Person
p204
aVhttp://www.ontologydesignpatterns.org/ont/dul/DUL.owl#Agent
p205
aVhttp://www.ontologydesignpatterns.org/ont/dul/DUL.owl#NaturalPerson
p206
aVhttp://www.wikidata.org/entity/Q215627
p207
aVhttp://www.wikidata.org/entity/Q5
p208
aVhttp://www.wikidata.org/entity/Q901
p209
aVhttp://dbpedia.org/ontology/Agent
p210
aVhttp://dbpedia.org/ontology/Scientist
p211
aVhttp://schema.org/Person
p212
aVhttp://umbel.org/umbel/rc/Scientist
p213
aVhttp://dbpedia.org/class/yago/18th-centuryLatin-languageWriters
p214
aVhttp://dbpedia.org/class/yago/18th-centuryMathematicians
p215
aVhttp://dbpedia.org/class/yago/Analyst109790482
p216
aVhttp://dbpedia.org/class/yago/Associate109816771
p217
aVhttp://dbpedia.org/class/yago/CausalAgent100007347
p218
aVhttp://dbpedia.org/class/yago/Colleague109935990
p219
aVhttp://dbpedia.org/class/yago/Communicator109610660
p220
aVhttp://dbpedia.org/class/yago/Expert109617867
p221
aVhttp://dbpedia.org/class/yago/LivingThing100004258
p222
aVhttp://dbpedia.org/class/yago/Mathematician110301261
p223
aVhttp://dbpedia.org/class/yago/Object100002684
p224
aVhttp://dbpedia.org/class/yago/Organism100004475
p225
aVhttp://dbpedia.org/class/yago/Peer109626238
p226
aVhttp://dbpedia.org/class/yago/Person100007846
p227
aVhttp://dbpedia.org/class/yago/Physicist110428004
p228
aVhttp://dbpedia.org/class/yago/Scientist110560637
p229
aVhttp://dbpedia.org/class/yago/Whole100003553
p230
aVhttp://dbpedia.org/class/yago/Writer110794014
p231
aVhttp://dbpedia.org/class/yago/YagoLegalActorGeo
p232
aVhttp://dbpedia.org/class/yago/DutchMathematicians
p233
aVhttp://dbpedia.org/class/yago/DutchPhysicists
p234
aVhttp://dbpedia.org/class/yago/FellowsOfTheRoyalSociety
p235
aVhttp://dbpedia.org/class/yago/PhysicalEntity100001930
p236
aVhttp://dbpedia.org/class/yago/MathematicalAnalysts
p237
aVhttp://dbpedia.org/class/yago/PeopleFromGroningen(city)
p238
aVhttp://dbpedia.org/class/yago/YagoLegalActor
p239
aVhttp://dbpedia.org/class/yago/ProbabilityTheorist110477465
p240
aVhttp://dbpedia.org/class/yago/ProbabilityTheorists
p241
aVhttp://dbpedia.org/class/yago/SwissMathematicians
p242
aVhttp://dbpedia.org/class/yago/SwissPhysicists
p243
asVdisambiguatedURL
p244
Vhttp://dbpedia.org/resource/Daniel_Bernoulli
p245
sVnamedEntity
p246
Vdaniel bernoulli
p247
sVoffset
p248
I16
saa(lp249
a(lp250
(dp251
Vstart
p252
I0
sg5
(lp253
Vhttp://www.w3.org/2002/07/owl#Thing
p254
aVhttp://xmlns.com/foaf/0.1/Person
p255
aVhttp://dbpedia.org/ontology/Person
p256
aVhttp://www.ontologydesignpatterns.org/ont/dul/DUL.owl#Agent
p257
aVhttp://www.ontologydesignpatterns.org/ont/dul/DUL.owl#NaturalPerson
p258
aVhttp://www.wikidata.org/entity/Q215627
p259
aVhttp://www.wikidata.org/entity/Q5
p260
aVhttp://www.wikidata.org/entity/Q901
p261
aVhttp://dbpedia.org/ontology/Agent
p262
aVhttp://dbpedia.org/ontology/Scientist
p263
aVhttp://schema.org/Person
p264
aVhttp://umbel.org/umbel/rc/PersonWithOccupation
p265
aVhttp://umbel.org/umbel/rc/Scientist
p266
aVhttp://dbpedia.org/class/yago/CausalAgent100007347
p267
aVhttp://dbpedia.org/class/yago/CivilEngineer109924540
p268
aVhttp://dbpedia.org/class/yago/Engineer109615807
p269
aVhttp://dbpedia.org/class/yago/LivingThing100004258
p270
aVhttp://dbpedia.org/class/yago/Object100002684
p271
aVhttp://dbpedia.org/class/yago/Organism100004475
p272
aVhttp://dbpedia.org/class/yago/Person100007846
p273
aVhttp://dbpedia.org/class/yago/Physicist110428004
p274
aVhttp://dbpedia.org/class/yago/Scientist110560637
p275
aVhttp://dbpedia.org/class/yago/Whole100003553
p276
aVhttp://dbpedia.org/class/yago/YagoLegalActorGeo
p277
aVhttp://dbpedia.org/class/yago/FrenchCivilEngineers
p278
aVhttp://dbpedia.org/class/yago/FrenchPhysicists
p279
aVhttp://dbpedia.org/class/yago/PhysicalEntity100001930
p280
aVhttp://dbpedia.org/class/yago/GeotechnicalEngineers
p281
aVhttp://dbpedia.org/class/yago/PeopleFromAngoul%C3%AAme
p282
aVhttp://dbpedia.org/class/yago/YagoLegalActor
p283
asVdisambiguatedURL
p284
Vhttp://dbpedia.org/resource/Charles-Augustin_de_Coulomb
p285
sVnamedEntity
p286
Vcharles augustin de  coulomb
p287
sVoffset
p288
I28
saa(lp289
(dp290
Vstart
p291
I0
sg5
(lp292
Vhttp://www.w3.org/2002/07/owl#Thing
p293
aVhttp://xmlns.com/foaf/0.1/Person
p294
aVhttp://dbpedia.org/ontology/Person
p295
aVhttp://www.ontologydesignpatterns.org/ont/dul/DUL.owl#Agent
p296
aVhttp://www.ontologydesignpatterns.org/ont/dul/DUL.owl#NaturalPerson
p297
aVhttp://www.wikidata.org/entity/Q215627
p298
aVhttp://www.wikidata.org/entity/Q5
p299
aVhttp://www.wikidata.org/entity/Q901
p300
aVhttp://dbpedia.org/ontology/Agent
p301
aVhttp://dbpedia.org/ontology/Scientist
p302
aVhttp://schema.org/Person
p303
asVdisambiguatedURL
p304
Vhttp://dbpedia.org/resource/Joseph-Louis_Lagrange
p305
sVnamedEntity
p306
Vjoseph-louis lagrange
p307
sVoffset
p308
I21
saa(lp309
a(lp310
(dp311
Vstart
p312
I0
sg5
(lp313
Vhttp://www.w3.org/2002/07/owl#Thing
p314
aVhttp://xmlns.com/foaf/0.1/Person
p315
aVhttp://dbpedia.org/ontology/Person
p316
aVhttp://www.ontologydesignpatterns.org/ont/dul/DUL.owl#Agent
p317
aVhttp://www.ontologydesignpatterns.org/ont/dul/DUL.owl#NaturalPerson
p318
aVhttp://www.wikidata.org/entity/Q215627
p319
aVhttp://www.wikidata.org/entity/Q5
p320
aVhttp://www.wikidata.org/entity/Q901
p321
aVhttp://dbpedia.org/ontology/Agent
p322
aVhttp://dbpedia.org/ontology/Scientist
p323
aVhttp://schema.org/Person
p324
aVhttp://dbpedia.org/class/yago/Associate109816771
p325
aVhttp://dbpedia.org/class/yago/CausalAgent100007347
p326
aVhttp://dbpedia.org/class/yago/Chemist109913824
p327
aVhttp://dbpedia.org/class/yago/Colleague109935990
p328
aVhttp://dbpedia.org/class/yago/LivingThing100004258
p329
aVhttp://dbpedia.org/class/yago/Object100002684
p330
aVhttp://dbpedia.org/class/yago/Organism100004475
p331
aVhttp://dbpedia.org/class/yago/Peer109626238
p332
aVhttp://dbpedia.org/class/yago/Person100007846
p333
aVhttp://dbpedia.org/class/yago/Scientist110560637
p334
aVhttp://dbpedia.org/class/yago/Whole100003553
p335
aVhttp://dbpedia.org/class/yago/YagoLegalActorGeo
p336
aVhttp://dbpedia.org/class/yago/FellowsOfTheRoyalSociety
p337
aVhttp://dbpedia.org/class/yago/FrenchChemists
p338
aVhttp://dbpedia.org/class/yago/PhysicalEntity100001930
p339
aVhttp://dbpedia.org/class/yago/PeopleFromHaute-Savoie
p340
aVhttp://dbpedia.org/class/yago/PeopleOfTheIndustrialRevolution
p341
aVhttp://dbpedia.org/class/yago/YagoLegalActor
p342
asVdisambiguatedURL
p343
Vhttp://dbpedia.org/resource/Claude_Louis_Berthollet
p344
sVnamedEntity
p345
Vclaude louis berthollet
p346
sVoffset
p347
I23
saa(lp348
a(lp349
a.