ccollections
defaultdict
p1
(c__builtin__
dict
p2
tRp3
I0
(dp4
I1
(lp5
sI2
(lp6
Vhttp://dbpedia.org/property/known
p7
aVhttp://dbpedia.org/ontology/abstract
p8
assI2
(dp9
I1
(lp10
sI2
(lp11
Vhttp://www.w3.org/1999/02/22-rdf-syntax-ns#type
p12
aVhttp://purl.org/dc/terms/subject
p13
aVhttp://www.w3.org/2000/01/rdf-schema#comment
p14
aVhttp://dbpedia.org/ontology/abstract
p15
aVhttp://purl.org/dc/elements/1.1/description
p16
aVhttp://dbpedia.org/property/shortDescription
p17
assI10
(dp18
I1
(lp19
sI2
(lp20
ssI11
(dp21
I1
(lp22
sI2
(lp23
ssI12
(dp24
I1
(lp25
Vhttp://dbpedia.org/ontology/abstract
p26
aVhttp://www.w3.org/2000/01/rdf-schema#comment
p27
asI2
(lp28
ssI14
(dp29
I1
(lp30
sI2
(lp31
ssI15
(dp32
I1
(lp33
sI2
(lp34
ssI17
(dp35
I1
(lp36
sI2
(lp37
ss.