(lp1
(lp2
(lp3
a(lp4
Vhttp://dbpedia.org/resource/Enzo_Knol
p5
aa(lp6
a(lp7
aa(lp8
(lp9
a(lp10
a(lp11
a(lp12
aa(lp13
(lp14
a(lp15
Vhttp://dbpedia.org/resource/Eric_Minh_Swenson
p16
aa(lp17
a(lp18
aa(lp19
(lp20
a(lp21
a(lp22
a(lp23
aa(lp24
(lp25
a(lp26
a(lp27
Vhttp://dbpedia.org/resource/Montreal,_Missouri
p28
aa(lp29
aa(lp30
(lp31
a(lp32
Vhttp://dbpedia.org/resource/Erin_Marie_Hogan
p33
aa(lp34
a(lp35
aa(lp36
(lp37
a(lp38
a(lp39
a(lp40
aa(lp41
(lp42
a(lp43
Vhttp://dbpedia.org/resource/Esther_Anil
p44
aa(lp45
a(lp46
aa(lp47
(lp48
a(lp49
a(lp50
a(lp51
aa(lp52
(lp53
a(lp54
a(lp55
a(lp56
aa(lp57
(lp58
a(lp59
Vhttp://dbpedia.org/resource/Eugenio_Bonivento
p60
aa(lp61
a(lp62
aa(lp63
(lp64
a(lp65
a(lp66
a(lp67
aa(lp68
(lp69
a(lp70
a(lp71
Vhttp://dbpedia.org/resource/Calgary_(electoral_district)
p72
aa(lp73
aa.