(lp1
(lp2
(lp3
a(lp4
a(lp5
a(lp6
a(lp7
a(lp8
aa(lp9
(lp10
a(lp11
a(lp12
a(lp13
a(lp14
a(lp15
aa(lp16
(lp17
((lVhttp://dbpedia.org/resource/Labour_Party
tp18
aa(lp19
a(lp20
a(lp21
a(lp22
a(lp23
aa(lp24
(lp25
((lp26
Vhttp://www.w3.org/2002/07/owl#Thing
p27
aVhttp://www.ontologydesignpatterns.org/ont/dul/DUL.owl#Agent
p28
aVhttp://www.ontologydesignpatterns.org/ont/dul/DUL.owl#SocialPerson
p29
aVhttp://www.wikidata.org/entity/Q43229
p30
aVhttp://www.wikidata.org/entity/Q7278
p31
aVhttp://dbpedia.org/ontology/Agent
p32
aVhttp://dbpedia.org/ontology/Organisation
p33
aVhttp://dbpedia.org/ontology/PoliticalParty
p34
aVhttp://schema.org/Organization
p35
aVhttp://dbpedia.org/class/yago/Abstraction100002137
p36
aVhttp://dbpedia.org/class/yago/Group100031264
p37
aVhttp://dbpedia.org/class/yago/Organization108008335
p38
aVhttp://dbpedia.org/class/yago/Party108256968
p39
aVhttp://dbpedia.org/class/yago/SocialGroup107950920
p40
aVhttp://dbpedia.org/class/yago/YagoLegalActorGeo
p41
aVhttp://dbpedia.org/class/yago/Conservative-liberalParties
p42
aVhttp://dbpedia.org/class/yago/DefunctLiberalPoliticalParties
p43
aVhttp://dbpedia.org/class/yago/DefunctPoliticalPartiesInTheRepublicOfIreland
p44
aVhttp://dbpedia.org/class/yago/YagoPermanentlyLocatedEntity
p45
aVhttp://dbpedia.org/class/yago/PoliticalPartiesDisestablishedIn2009
p46
aVhttp://dbpedia.org/class/yago/PoliticalPartiesEstablishedIn1985
p47
aVhttp://dbpedia.org/class/yago/PoliticalPartiesInTheRepublicOfIreland
p48
aVhttp://dbpedia.org/class/yago/YagoLegalActor
p49
aVhttp://dbpedia.org/resource/Progressive_Democrats
tp50
aa(lp51
a(lp52
a(lp53
a(lp54
a(lp55
aa(lp56
(lp57
((lp58
Vhttp://www.w3.org/2002/07/owl#Thing
p59
aVhttp://dbpedia.org/class/yago/Abstraction100002137
p60
aVhttp://dbpedia.org/class/yago/Group100031264
p61
aVhttp://dbpedia.org/class/yago/Organization108008335
p62
aVhttp://dbpedia.org/class/yago/Party108256968
p63
aVhttp://dbpedia.org/class/yago/SocialGroup107950920
p64
aVhttp://dbpedia.org/class/yago/YagoLegalActorGeo
p65
aVhttp://dbpedia.org/class/yago/YagoPermanentlyLocatedEntity
p66
aVhttp://dbpedia.org/class/yago/GreenPoliticalParties
p67
aVhttp://dbpedia.org/class/yago/YagoLegalActor
p68
aVhttp://dbpedia.org/resource/Green_party
tp69
aa(lp70
a(lp71
a(lp72
a(lp73
a(lp74
aa(lp75
(lp76
a(lp77
a(lp78
a(lp79
a(lp80
a(lp81
aa(lp82
(lp83
((lp84
Vhttp://www.w3.org/2002/07/owl#Thing
p85
aVhttp://dbpedia.org/class/yago/Abstraction100002137
p86
aVhttp://dbpedia.org/class/yago/Group100031264
p87
aVhttp://dbpedia.org/class/yago/Organization108008335
p88
aVhttp://dbpedia.org/class/yago/Party108256968
p89
aVhttp://dbpedia.org/class/yago/SocialGroup107950920
p90
aVhttp://dbpedia.org/class/yago/YagoLegalActorGeo
p91
aVhttp://dbpedia.org/class/yago/YagoPermanentlyLocatedEntity
p92
aVhttp://dbpedia.org/class/yago/YagoLegalActor
p93
aVhttp://dbpedia.org/class/yago/SocialistParties
p94
aVhttp://dbpedia.org/resource/Socialist_Party
p95
tp96
aa(lp97
a(lp98
a(lp99
a(lp100
a(lp101
aa(lp102
(lp103
a(lp104
a(lp105
a(lp106
a(lp107
a(lp108
aa.