(lp1
(dp2
I0
(dp3
I0
(lp4
sI1
(lp5
sI2
(lp6
sI3
(lp7
sI4
(lp8
sI5
(lp9
Vhttp://dbpedia.org/ontology/wikiPageExternalLink
p10
aVhttp://dbpedia.org/property/website
p11
aVhttp://www.w3.org/1999/02/22-rdf-syntax-ns#type
p12
aVhttp://dbpedia.org/property/coordinatesRegion
p13
aVhttp://dbpedia.org/ontology/location
p14
aVhttp://www.w3.org/2000/01/rdf-schema#comment
p15
aVhttp://dbpedia.org/ontology/postalCode
p16
aVhttp://dbpedia.org/ontology/abstract
p17
aVhttp://dbpedia.org/property/location
p18
aVhttp://dbpedia.org/property/postalCode
p19
aVhttp://dbpedia.org/property/birthPlace
p20
aVhttp://dbpedia.org/property/placeOfBirth
p21
aVhttp://xmlns.com/foaf/0.1/homepage
p22
aVhttp://dbpedia.org/ontology/birthPlace
p23
aVhttp://www.w3.org/2002/07/owl#sameAs
p24
asI6
(lp25
sI7
(lp26
sI8
(lp27
ssI1
(dp28
I0
g5
sI1
(lp29
sI2
(lp30
sI3
(lp31
sI4
(lp32
sI5
(lp33
Vhttp://dbpedia.org/property/website
p34
aVhttp://dbpedia.org/property/origin
p35
aVhttp://dbpedia.org/property/ground
p36
aVhttp://dbpedia.org/property/imageCaption
p37
aVhttp://dbpedia.org/property/mapCaption
p38
aVhttp://dbpedia.org/property/name
p39
aVhttp://www.w3.org/ns/prov#wasDerivedFrom
p40
aVhttp://dbpedia.org/property/imageSeal
p41
aVhttp://dbpedia.org/ontology/ground
p42
aVhttp://dbpedia.org/property/pushpinImage
p43
aVhttp://dbpedia.org/ontology/country
p44
aVhttp://www.w3.org/1999/02/22-rdf-syntax-ns#type
p45
aVhttp://dbpedia.org/ontology/capital
p46
aVhttp://dbpedia.org/property/capital
p47
aVhttp://dbpedia.org/ontology/isPartOf
p48
aVhttp://dbpedia.org/property/birthPlace
p49
aVhttp://xmlns.com/foaf/0.1/isPrimaryTopicOf
p50
aVhttp://dbpedia.org/property/populationDemonym
p51
aVhttp://dbpedia.org/ontology/wikiPageDisambiguates
p52
aVhttp://dbpedia.org/ontology/wikiPageExternalLink
p53
aVhttp://dbpedia.org/property/pushpinMapCaption
p54
aVhttp://xmlns.com/foaf/0.1/primaryTopic
p55
aVhttp://xmlns.com/foaf/0.1/depiction
p56
aVhttp://purl.org/dc/terms/subject
p57
aVhttp://dbpedia.org/property/imageSkyline
p58
aVhttp://dbpedia.org/ontology/abstract
p59
aVhttp://dbpedia.org/property/pushpinMap
p60
aVhttp://dbpedia.org/property/location
p61
aVhttp://dbpedia.org/property/homeStadium
p62
aVhttp://dbpedia.org/property/cityServed
p63
aVhttp://dbpedia.org/ontology/thumbnail
p64
aVhttp://dbpedia.org/ontology/city
p65
aVhttp://dbpedia.org/property/hasPhotoCollection
p66
aVhttp://www.w3.org/2000/01/rdf-schema#label
p67
aVhttp://dbpedia.org/property/subdivisionName
p68
aVhttp://dbpedia.org/ontology/location
p69
aVhttp://dbpedia.org/property/subdivisionType
p70
aVhttp://dbpedia.org/property/imageMap
p71
aVhttp://dbpedia.org/property/headquarters
p72
aVhttp://www.w3.org/2000/01/rdf-schema#comment
p73
aVhttp://dbpedia.org/ontology/birthPlace
p74
aVhttp://dbpedia.org/ontology/wikiPageRedirects
p75
aVhttp://dbpedia.org/ontology/hometown
p76
aVhttp://www.w3.org/2002/07/owl#sameAs
p77
aVhttp://xmlns.com/foaf/0.1/name
p78
aVhttp://xmlns.com/foaf/0.1/homepage
p79
aVhttp://dbpedia.org/property/stadium
p80
aVhttp://dbpedia.org/ontology/headquarter
p81
asI6
(lp82
sI7
(lp83
sI8
(lp84
ssI2
(dp85
I0
g6
sI1
g30
sI2
(lp86
sI3
(lp87
sI4
(lp88
sI5
(lp89
sI6
(lp90
sI7
(lp91
sI8
(lp92
ssI3
(dp93
I0
g7
sI1
g31
sI2
g87
sI3
(lp94
sI4
(lp95
sI5
(lp96
Vhttp://dbpedia.org/property/website
p97
aVhttp://dbpedia.org/property/origin
p98
aVhttp://dbpedia.org/property/ground
p99
aVhttp://dbpedia.org/property/imageCaption
p100
aVhttp://dbpedia.org/property/mapCaption
p101
aVhttp://dbpedia.org/property/name
p102
aVhttp://www.w3.org/ns/prov#wasDerivedFrom
p103
aVhttp://dbpedia.org/property/imageSeal
p104
aVhttp://dbpedia.org/ontology/ground
p105
aVhttp://dbpedia.org/property/pushpinImage
p106
aVhttp://dbpedia.org/ontology/country
p107
aVhttp://www.w3.org/1999/02/22-rdf-syntax-ns#type
p108
aVhttp://dbpedia.org/ontology/capital
p109
aVhttp://dbpedia.org/property/capital
p110
aVhttp://dbpedia.org/ontology/isPartOf
p111
aVhttp://dbpedia.org/property/birthPlace
p112
aVhttp://xmlns.com/foaf/0.1/isPrimaryTopicOf
p113
aVhttp://dbpedia.org/property/populationDemonym
p114
aVhttp://dbpedia.org/ontology/wikiPageDisambiguates
p115
aVhttp://dbpedia.org/property/placeOfBirth
p116
aVhttp://dbpedia.org/ontology/wikiPageExternalLink
p117
aVhttp://dbpedia.org/property/pushpinMapCaption
p118
aVhttp://xmlns.com/foaf/0.1/primaryTopic
p119
aVhttp://xmlns.com/foaf/0.1/depiction
p120
aVhttp://purl.org/dc/terms/subject
p121
aVhttp://dbpedia.org/property/imageSkyline
p122
aVhttp://dbpedia.org/ontology/abstract
p123
aVhttp://dbpedia.org/property/pushpinMap
p124
aVhttp://dbpedia.org/property/location
p125
aVhttp://dbpedia.org/property/homeStadium
p126
aVhttp://dbpedia.org/property/cityServed
p127
aVhttp://dbpedia.org/ontology/thumbnail
p128
aVhttp://dbpedia.org/ontology/district
p129
aVhttp://dbpedia.org/ontology/city
p130
aVhttp://dbpedia.org/property/hasPhotoCollection
p131
aVhttp://www.w3.org/2000/01/rdf-schema#label
p132
aVhttp://dbpedia.org/property/subdivisionName
p133
aVhttp://dbpedia.org/ontology/location
p134
aVhttp://dbpedia.org/property/subdivisionType
p135
aVhttp://dbpedia.org/property/imageMap
p136
aVhttp://dbpedia.org/property/headquarters
p137
aVhttp://www.w3.org/2000/01/rdf-schema#comment
p138
aVhttp://dbpedia.org/ontology/birthPlace
p139
aVhttp://dbpedia.org/ontology/wikiPageRedirects
p140
aVhttp://dbpedia.org/ontology/hometown
p141
aVhttp://dbpedia.org/property/locationCity
p142
aVhttp://www.w3.org/2002/07/owl#sameAs
p143
aVhttp://xmlns.com/foaf/0.1/name
p144
aVhttp://xmlns.com/foaf/0.1/homepage
p145
aVhttp://dbpedia.org/ontology/locationCity
p146
aVhttp://dbpedia.org/property/countryLargestCity
p147
aVhttp://dbpedia.org/property/stadium
p148
aVhttp://dbpedia.org/ontology/headquarter
p149
asI6
(lp150
sI7
(lp151
sI8
(lp152
ssI4
(dp153
I0
g8
sI1
g32
sI2
g88
sI3
g95
sI4
(lp154
sI5
(lp155
Vhttp://dbpedia.org/property/website
p156
aVhttp://dbpedia.org/property/ground
p157
aVhttp://dbpedia.org/property/imageCaption
p158
aVhttp://dbpedia.org/property/mapCaption
p159
aVhttp://dbpedia.org/property/name
p160
aVhttp://www.w3.org/ns/prov#wasDerivedFrom
p161
aVhttp://dbpedia.org/property/imageSeal
p162
aVhttp://dbpedia.org/ontology/ground
p163
aVhttp://dbpedia.org/property/pushpinImage
p164
aVhttp://dbpedia.org/ontology/country
p165
aVhttp://www.w3.org/1999/02/22-rdf-syntax-ns#type
p166
aVhttp://dbpedia.org/ontology/capital
p167
aVhttp://dbpedia.org/property/capital
p168
aVhttp://dbpedia.org/ontology/isPartOf
p169
aVhttp://xmlns.com/foaf/0.1/isPrimaryTopicOf
p170
aVhttp://dbpedia.org/property/populationDemonym
p171
aVhttp://dbpedia.org/ontology/wikiPageDisambiguates
p172
aVhttp://dbpedia.org/ontology/wikiPageExternalLink
p173
aVhttp://dbpedia.org/property/pushpinMapCaption
p174
aVhttp://xmlns.com/foaf/0.1/primaryTopic
p175
aVhttp://xmlns.com/foaf/0.1/depiction
p176
aVhttp://purl.org/dc/terms/subject
p177
aVhttp://dbpedia.org/property/imageSkyline
p178
aVhttp://dbpedia.org/ontology/abstract
p179
aVhttp://dbpedia.org/property/pushpinMap
p180
aVhttp://dbpedia.org/property/location
p181
aVhttp://dbpedia.org/property/homeStadium
p182
aVhttp://dbpedia.org/property/cityServed
p183
aVhttp://dbpedia.org/ontology/thumbnail
p184
aVhttp://dbpedia.org/ontology/city
p185
aVhttp://dbpedia.org/property/hasPhotoCollection
p186
aVhttp://www.w3.org/2000/01/rdf-schema#label
p187
aVhttp://dbpedia.org/property/subdivisionName
p188
aVhttp://dbpedia.org/ontology/location
p189
aVhttp://dbpedia.org/property/subdivisionType
p190
aVhttp://dbpedia.org/property/imageMap
p191
aVhttp://dbpedia.org/property/headquarters
p192
aVhttp://www.w3.org/2000/01/rdf-schema#comment
p193
aVhttp://dbpedia.org/ontology/birthPlace
p194
aVhttp://dbpedia.org/ontology/wikiPageRedirects
p195
aVhttp://xmlns.com/foaf/0.1/name
p196
aVhttp://xmlns.com/foaf/0.1/homepage
p197
aVhttp://www.w3.org/2002/07/owl#sameAs
p198
aVhttp://dbpedia.org/ontology/headquarter
p199
asI6
(lp200
sI7
(lp201
sI8
(lp202
ssI5
(dp203
I0
g9
sI1
g33
sI2
g89
sI3
g96
sI4
g155
sI5
(lp204
sI6
(lp205
sI7
(lp206
sI8
(lp207
Vhttp://www.w3.org/1999/02/22-rdf-syntax-ns#type
p208
aVhttp://purl.org/dc/terms/subject
p209
aVhttp://dbpedia.org/property/hostCity
p210
aVhttp://dbpedia.org/ontology/abstract
p211
aVhttp://www.w3.org/2000/01/rdf-schema#comment
p212
aVhttp://dbpedia.org/property/rd0t4Loc
p213
aVhttp://dbpedia.org/ontology/wikiPageRedirects
p214
aVhttp://www.w3.org/2002/07/owl#sameAs
p215
aVhttp://dbpedia.org/property/rd1t8Loc
p216
aVhttp://dbpedia.org/ontology/birthPlace
p217
aVhttp://dbpedia.org/property/stadium
p218
assI6
(dp219
I0
g25
sI1
g82
sI2
g90
sI3
g150
sI4
g200
sI5
g205
sI6
(lp220
sI7
(lp221
sI8
(lp222
ssI7
(dp223
I0
g26
sI1
g83
sI2
g91
sI3
g151
sI4
g201
sI5
g206
sI6
g221
sI7
(lp224
sI8
(lp225
ssI8
(dp226
I0
g27
sI1
g84
sI2
g92
sI3
g152
sI4
g202
sI5
g207
sI6
g222
sI7
g225
sI8
(lp227
ssa(dp228
I0
(dp229
I0
(lp230
sI1
(lp231
sI2
(lp232
sI3
(lp233
sI4
(lp234
Vhttp://dbpedia.org/property/placeOfDeath
p235
aVhttp://dbpedia.org/property/cctld
p236
aVhttp://dbpedia.org/property/city
p237
aVhttp://dbpedia.org/property/coordinatesType
p238
aVhttp://dbpedia.org/property/caption
p239
aVhttp://dbpedia.org/ontology/regionServed
p240
aVhttp://dbpedia.org/ontology/country
p241
aVhttp://dbpedia.org/property/locationCountry
p242
aVhttp://dbpedia.org/property/image
p243
aVhttp://dbpedia.org/ontology/nationality
p244
aVhttp://dbpedia.org/property/birthPlace
p245
aVhttp://dbpedia.org/property/country/region
p246
aVhttp://dbpedia.org/property/placeOfBirth
p247
aVhttp://dbpedia.org/property/countryCode
p248
aVhttp://dbpedia.org/property/nationality
p249
aVhttp://dbpedia.org/property/country
p250
aVhttp://dbpedia.org/ontology/wikiPageDisambiguates
p251
aVhttp://dbpedia.org/ontology/wikiPageExternalLink
p252
aVhttp://dbpedia.org/ontology/residence
p253
aVhttp://dbpedia.org/ontology/abstract
p254
aVhttp://dbpedia.org/property/stateParty
p255
aVhttp://dbpedia.org/property/venue
p256
aVhttp://dbpedia.org/property/deathPlace
p257
aVhttp://dbpedia.org/property/location
p258
aVhttp://dbpedia.org/ontology/locationCountry
p259
aVhttp://dbpedia.org/ontology/deathPlace
p260
aVhttp://dbpedia.org/ontology/city
p261
aVhttp://dbpedia.org/property/title
p262
aVhttp://dbpedia.org/property/locale
p263
aVhttp://dbpedia.org/property/currencyCode
p264
aVhttp://dbpedia.org/ontology/stateOfOrigin
p265
aVhttp://dbpedia.org/ontology/location
p266
aVhttp://www.w3.org/2000/01/rdf-schema#comment
p267
aVhttp://dbpedia.org/ontology/birthPlace
p268
aVhttp://dbpedia.org/ontology/wikiPageRedirects
p269
aVhttp://dbpedia.org/property/headquarters
p270
aVhttp://dbpedia.org/property/regionServed
p271
aVhttp://dbpedia.org/property/jurisdiction
p272
aVhttp://dbpedia.org/property/residence
p273
aVhttp://www.w3.org/2002/07/owl#sameAs
p274
aVhttp://dbpedia.org/ontology/headquarter
p275
asI5
(lp276
sI6
(lp277
sI7
(lp278
sI8
(lp279
ssI1
(dp280
I0
g231
sI1
(lp281
sI2
(lp282
sI3
(lp283
sI4
(lp284
Vhttp://dbpedia.org/ontology/wikiPageExternalLink
p285
aVhttp://dbpedia.org/ontology/country
p286
aVhttp://dbpedia.org/ontology/location
p287
aVhttp://dbpedia.org/ontology/locationCountry
p288
aVhttp://dbpedia.org/ontology/birthPlace
p289
aVhttp://dbpedia.org/ontology/abstract
p290
aVhttp://dbpedia.org/property/popplace
p291
aVhttp://dbpedia.org/ontology/wikiPageRedirects
p292
aVhttp://dbpedia.org/property/location
p293
aVhttp://dbpedia.org/property/birthPlace
p294
aVhttp://dbpedia.org/property/placeOfBirth
p295
aVhttp://dbpedia.org/property/country
p296
aVhttp://dbpedia.org/property/locationCountry
p297
aVhttp://www.w3.org/2002/07/owl#sameAs
p298
asI5
(lp299
sI6
(lp300
sI7
(lp301
sI8
(lp302
ssI2
(dp303
I0
g232
sI1
g282
sI2
(lp304
sI3
(lp305
sI4
(lp306
sI5
(lp307
sI6
(lp308
sI7
(lp309
sI8
(lp310
ssI3
(dp311
I1
g283
sI2
g305
sI3
(lp312
sI4
(lp313
Vhttp://dbpedia.org/property/placeOfDeath
p314
aVhttp://dbpedia.org/property/cctld
p315
aVhttp://dbpedia.org/property/city
p316
aVhttp://dbpedia.org/property/coordinatesType
p317
aVhttp://dbpedia.org/property/caption
p318
aVhttp://dbpedia.org/ontology/regionServed
p319
aVhttp://dbpedia.org/ontology/country
p320
aVhttp://dbpedia.org/property/locationCountry
p321
aVhttp://dbpedia.org/property/image
p322
aVhttp://dbpedia.org/ontology/nationality
p323
aVhttp://dbpedia.org/property/birthPlace
p324
aVhttp://dbpedia.org/property/country/region
p325
aVhttp://dbpedia.org/property/placeOfBirth
p326
aVhttp://dbpedia.org/property/countryCode
p327
aVhttp://dbpedia.org/property/nationality
p328
aVhttp://dbpedia.org/property/country
p329
aVhttp://dbpedia.org/ontology/wikiPageDisambiguates
p330
aVhttp://dbpedia.org/ontology/wikiPageExternalLink
p331
aVhttp://dbpedia.org/ontology/residence
p332
aVhttp://dbpedia.org/ontology/abstract
p333
aVhttp://dbpedia.org/property/stateParty
p334
aVhttp://dbpedia.org/property/venue
p335
aVhttp://dbpedia.org/property/deathPlace
p336
aVhttp://dbpedia.org/property/location
p337
aVhttp://dbpedia.org/ontology/locationCountry
p338
aVhttp://dbpedia.org/ontology/deathPlace
p339
aVhttp://dbpedia.org/ontology/city
p340
aVhttp://dbpedia.org/property/title
p341
aVhttp://dbpedia.org/property/locale
p342
aVhttp://dbpedia.org/property/currencyCode
p343
aVhttp://dbpedia.org/ontology/stateOfOrigin
p344
aVhttp://dbpedia.org/ontology/location
p345
aVhttp://www.w3.org/2000/01/rdf-schema#comment
p346
aVhttp://dbpedia.org/ontology/birthPlace
p347
aVhttp://dbpedia.org/ontology/wikiPageRedirects
p348
aVhttp://dbpedia.org/property/headquarters
p349
aVhttp://dbpedia.org/property/regionServed
p350
aVhttp://dbpedia.org/property/jurisdiction
p351
aVhttp://dbpedia.org/property/residence
p352
aVhttp://www.w3.org/2002/07/owl#sameAs
p353
aVhttp://dbpedia.org/ontology/headquarter
p354
asI5
(lp355
sI6
(lp356
sI7
(lp357
sI8
(lp358
ssI4
(dp359
I0
g234
sI1
g284
sI2
g306
sI3
g313
sI4
(lp360
sI5
(lp361
Vhttp://dbpedia.org/property/caption
p362
aVhttp://dbpedia.org/ontology/abstract
p363
aVhttp://dbpedia.org/property/image
p364
aVhttp://www.w3.org/2000/01/rdf-schema#comment
p365
asI6
(lp366
sI7
(lp367
sI8
(lp368
Vhttp://dbpedia.org/property/origin
p369
aVhttp://dbpedia.org/property/placeOfDeath
p370
aVhttp://dbpedia.org/property/ground
p371
aVhttp://dbpedia.org/ontology/foundationPlace
p372
aVhttp://dbpedia.org/property/residence
p373
aVhttp://dbpedia.org/property/caption
p374
aVhttp://dbpedia.org/ontology/locatedInArea
p375
aVhttp://dbpedia.org/property/footnoteB
p376
aVhttp://dbpedia.org/ontology/regionServed
p377
aVhttp://dbpedia.org/ontology/country
p378
aVhttp://www.w3.org/1999/02/22-rdf-syntax-ns#type
p379
aVhttp://dbpedia.org/property/locationCountry
p380
aVhttp://dbpedia.org/property/birthPlace
p381
aVhttp://dbpedia.org/ontology/ground
p382
aVhttp://dbpedia.org/ontology/nationality
p383
aVhttp://dbpedia.org/property/image
p384
aVhttp://dbpedia.org/ontology/ethnicGroup
p385
aVhttp://dbpedia.org/ontology/residence
p386
aVhttp://dbpedia.org/property/country
p387
aVhttp://dbpedia.org/property/leaderName
p388
aVhttp://dbpedia.org/property/l
p389
aVhttp://dbpedia.org/property/areaServed
p390
aVhttp://dbpedia.org/property/placeOfBirth
p391
aVhttp://dbpedia.org/ontology/wikiPageExternalLink
p392
aVhttp://purl.org/dc/terms/subject
p393
aVhttp://dbpedia.org/ontology/populationPlace
p394
aVhttp://dbpedia.org/property/nationality
p395
aVhttp://dbpedia.org/ontology/abstract
p396
aVhttp://dbpedia.org/ontology/recordedIn
p397
aVhttp://dbpedia.org/property/venue
p398
aVhttp://dbpedia.org/property/deathPlace
p399
aVhttp://dbpedia.org/property/location
p400
aVhttp://dbpedia.org/property/cityServed
p401
aVhttp://dbpedia.org/ontology/locationCountry
p402
aVhttp://dbpedia.org/property/territory
p403
aVhttp://dbpedia.org/ontology/deathPlace
p404
aVhttp://dbpedia.org/ontology/city
p405
aVhttp://dbpedia.org/property/subdivisionName
p406
aVhttp://dbpedia.org/ontology/location
p407
aVhttp://dbpedia.org/property/locale
p408
aVhttp://dbpedia.org/property/foundation
p409
aVhttp://dbpedia.org/property/asianPlace
p410
aVhttp://dbpedia.org/property/headquarters
p411
aVhttp://www.w3.org/2000/01/rdf-schema#comment
p412
aVhttp://dbpedia.org/ontology/birthPlace
p413
aVhttp://dbpedia.org/property/countriesAffected
p414
aVhttp://www.w3.org/2002/07/owl#sameAs
p415
aVhttp://dbpedia.org/ontology/headquarter
p416
aVhttp://dbpedia.org/property/jurisdiction
p417
aVhttp://dbpedia.org/ontology/stateOfOrigin
p418
aVhttp://dbpedia.org/property/stadium
p419
aVhttp://dbpedia.org/ontology/leader
p420
assI5
(dp421
I0
g276
sI1
g299
sI2
g307
sI3
g355
sI4
g361
sI5
(lp422
sI6
(lp423
sI7
(lp424
sI8
(lp425
ssI6
(dp426
I0
g277
sI1
g300
sI2
g308
sI3
g356
sI4
g366
sI5
g423
sI6
(lp427
sI7
(lp428
sI8
(lp429
ssI7
(dp430
I0
g278
sI1
g301
sI2
g309
sI3
g357
sI4
g367
sI5
g424
sI6
g428
sI7
(lp431
sI8
(lp432
ssI8
(dp433
I0
g279
sI1
g302
sI2
g310
sI3
g358
sI4
g368
sI5
g425
sI6
g429
sI7
g432
sI8
(lp434
ssa(dp435
I0
(dp436
I0
(lp437
sI1
(lp438
sI2
(lp439
sI3
(lp440
sI4
(lp441
sI5
(lp442
sI6
(lp443
sI7
(lp444
sI8
(lp445
Vhttp://dbpedia.org/ontology/wikiPageExternalLink
p446
aVhttp://dbpedia.org/ontology/aircraftAttack
p447
aVhttp://dbpedia.org/ontology/aircraftFighter
p448
aVhttp://www.w3.org/1999/02/22-rdf-syntax-ns#type
p449
aVhttp://dbpedia.org/property/moreUsers
p450
aVhttp://dbpedia.org/property/plane2Operator
p451
aVhttp://www.w3.org/2000/01/rdf-schema#comment
p452
aVhttp://dbpedia.org/property/primaryUser
p453
aVhttp://dbpedia.org/ontology/abstract
p454
aVhttp://dbpedia.org/ontology/aircraftPatrol
p455
aVhttp://dbpedia.org/property/ownership
p456
aVhttp://dbpedia.org/property/plane1Operator
p457
aVhttp://dbpedia.org/property/operator
p458
aVhttp://dbpedia.org/property/aircraftAttack
p459
aVhttp://www.w3.org/2002/07/owl#sameAs
p460
aVhttp://dbpedia.org/ontology/aircraftTrainer
p461
aVhttp://dbpedia.org/ontology/operator
p462
aVhttp://xmlns.com/foaf/0.1/homepage
p463
aVhttp://dbpedia.org/property/aircraftPatrol
p464
aVhttp://dbpedia.org/property/aircraftFighter
p465
aVhttp://dbpedia.org/property/aircraftTrainer
p466
assI1
(dp467
I0
g438
sI1
(lp468
sI2
(lp469
sI3
(lp470
sI4
(lp471
Vhttp://dbpedia.org/property/placeOfDeath
p472
aVhttp://dbpedia.org/property/broadcastArea
p473
aVhttp://dbpedia.org/ontology/garrison
p474
aVhttp://www.w3.org/ns/prov#wasDerivedFrom
p475
aVhttp://dbpedia.org/ontology/demonym
p476
aVhttp://dbpedia.org/ontology/nationality
p477
aVhttp://dbpedia.org/property/shortDescription
p478
aVhttp://xmlns.com/foaf/0.1/isPrimaryTopicOf
p479
aVhttp://dbpedia.org/property/establishedEvent
p480
aVhttp://dbpedia.org/property/nationality
p481
aVhttp://dbpedia.org/ontology/abstract
p482
aVhttp://dbpedia.org/property/imageMap
p483
aVhttp://dbpedia.org/ontology/location
p484
aVhttp://dbpedia.org/property/countriesAffected
p485
aVhttp://dbpedia.org/ontology/wikiPageExternalLink
p486
aVhttp://dbpedia.org/property/area
p487
aVhttp://dbpedia.org/ontology/spokenIn
p488
aVhttp://dbpedia.org/property/jurisdiction
p489
aVhttp://dbpedia.org/property/leaderTitle
p490
aVhttp://www.w3.org/2000/01/rdf-schema#seeAlso
p491
aVhttp://dbpedia.org/property/currency
p492
aVhttp://dbpedia.org/property/team1Name
p493
aVhttp://dbpedia.org/property/legislature
p494
aVhttp://dbpedia.org/property/site
p495
aVhttp://dbpedia.org/ontology/country
p496
aVhttp://dbpedia.org/property/nationalAnthem
p497
aVhttp://dbpedia.org/property/birthPlace
p498
aVhttp://dbpedia.org/property/country
p499
aVhttp://dbpedia.org/property/areaServed
p500
aVhttp://dbpedia.org/ontology/county
p501
aVhttp://xmlns.com/foaf/0.1/primaryTopic
p502
aVhttp://dbpedia.org/property/deathPlace
p503
aVhttp://dbpedia.org/property/states
p504
aVhttp://dbpedia.org/ontology/locationCountry
p505
aVhttp://dbpedia.org/ontology/deathPlace
p506
aVhttp://dbpedia.org/property/hasPhotoCollection
p507
aVhttp://dbpedia.org/property/headquarters
p508
aVhttp://dbpedia.org/property/countryName
p509
aVhttp://dbpedia.org/ontology/anthem
p510
aVhttp://dbpedia.org/ontology/birthPlace
p511
aVhttp://dbpedia.org/ontology/wikiPageRedirects
p512
aVhttp://dbpedia.org/property/citizenship
p513
aVhttp://dbpedia.org/property/imageCoat
p514
aVhttp://dbpedia.org/property/garrison
p515
aVhttp://www.w3.org/2002/07/owl#sameAs
p516
aVhttp://dbpedia.org/ontology/origin
p517
aVhttp://dbpedia.org/ontology/currency
p518
aVhttp://dbpedia.org/property/residence
p519
aVhttp://dbpedia.org/ontology/longName
p520
aVhttp://dbpedia.org/property/locationCountry
p521
aVhttp://dbpedia.org/ontology/ground
p522
aVhttp://dbpedia.org/property/lowerHouse
p523
aVhttp://dbpedia.org/property/countryCode
p524
aVhttp://dbpedia.org/property/placeOfBirth
p525
aVhttp://dbpedia.org/property/ideology
p526
aVhttp://xmlns.com/foaf/0.1/depiction
p527
aVhttp://dbpedia.org/property/observedby
p528
aVhttp://dbpedia.org/ontology/flag
p529
aVhttp://dbpedia.org/property/commonName
p530
aVhttp://dbpedia.org/property/subdivisionName
p531
aVhttp://dbpedia.org/property/destination
p532
aVhttp://dbpedia.org/property/imageFlag
p533
aVhttp://dbpedia.org/property/place
p534
aVhttp://dbpedia.org/ontology/jurisdiction
p535
aVhttp://dbpedia.org/property/lastStopover
p536
aVhttp://www.w3.org/2002/07/owl#differentFrom
p537
aVhttp://dbpedia.org/property/upperHouse
p538
aVhttp://dbpedia.org/property/available
p539
aVhttp://dbpedia.org/ontology/place
p540
aVhttp://dbpedia.org/property/office
p541
aVhttp://dbpedia.org/property/body
p542
aVhttp://dbpedia.org/property/demonym
p543
aVhttp://dbpedia.org/ontology/wikiPageDisambiguates
p544
aVhttp://purl.org/dc/terms/subject
p545
aVhttp://dbpedia.org/ontology/populationPlace
p546
aVhttp://dbpedia.org/property/location
p547
aVhttp://dbpedia.org/property/armiger
p548
aVhttp://dbpedia.org/ontology/nationalAffiliation
p549
aVhttp://dbpedia.org/ontology/headquarter
p550
aVhttp://dbpedia.org/property/stopover
p551
aVhttp://www.w3.org/2000/01/rdf-schema#label
p552
aVhttp://dbpedia.org/property/title
p553
aVhttp://dbpedia.org/property/locale
p554
aVhttp://dbpedia.org/ontology/stateOfOrigin
p555
aVhttp://www.w3.org/2000/01/rdf-schema#comment
p556
aVhttp://dbpedia.org/property/callingCode
p557
aVhttp://xmlns.com/foaf/0.1/name
p558
aVhttp://dbpedia.org/ontology/premierePlace
p559
aVhttp://dbpedia.org/property/through
p560
aVhttp://dbpedia.org/ontology/thumbnail
p561
asI5
(lp562
sI6
(lp563
sI7
(lp564
sI8
(lp565
ssI2
(dp566
I0
g439
sI1
g469
sI2
(lp567
sI3
(lp568
sI4
(lp569
Vhttp://dbpedia.org/property/withdraws
p570
aVhttp://dbpedia.org/ontology/abstract
p571
aVhttp://www.w3.org/2000/01/rdf-schema#comment
p572
asI5
(lp573
sI6
(lp574
sI7
(lp575
sI8
(lp576
ssI3
(dp577
I1
g470
sI2
g568
sI3
(lp578
sI4
(lp579
sI5
(lp580
sI6
(lp581
sI7
(lp582
sI8
(lp583
Vhttp://dbpedia.org/ontology/wikiPageExternalLink
p584
aVhttp://dbpedia.org/ontology/aircraftAttack
p585
aVhttp://dbpedia.org/ontology/aircraftFighter
p586
aVhttp://www.w3.org/1999/02/22-rdf-syntax-ns#type
p587
aVhttp://dbpedia.org/property/moreUsers
p588
aVhttp://dbpedia.org/property/plane2Operator
p589
aVhttp://www.w3.org/2000/01/rdf-schema#comment
p590
aVhttp://dbpedia.org/property/primaryUser
p591
aVhttp://dbpedia.org/ontology/abstract
p592
aVhttp://dbpedia.org/ontology/aircraftPatrol
p593
aVhttp://dbpedia.org/property/ownership
p594
aVhttp://dbpedia.org/property/plane1Operator
p595
aVhttp://dbpedia.org/property/operator
p596
aVhttp://dbpedia.org/property/aircraftAttack
p597
aVhttp://www.w3.org/2002/07/owl#sameAs
p598
aVhttp://dbpedia.org/ontology/aircraftTrainer
p599
aVhttp://dbpedia.org/ontology/operator
p600
aVhttp://xmlns.com/foaf/0.1/homepage
p601
aVhttp://dbpedia.org/property/aircraftPatrol
p602
aVhttp://dbpedia.org/property/aircraftFighter
p603
aVhttp://dbpedia.org/property/aircraftTrainer
p604
assI4
(dp605
I0
g441
sI1
g471
sI2
g569
sI3
g579
sI4
(lp606
sI5
(lp607
Vhttp://www.w3.org/2000/01/rdf-schema#seeAlso
p608
aVhttp://dbpedia.org/property/ground
p609
aVhttp://dbpedia.org/property/place
p610
aVhttp://dbpedia.org/property/capital
p611
aVhttp://dbpedia.org/ontology/country
p612
aVhttp://dbpedia.org/ontology/capital
p613
aVhttp://dbpedia.org/property/locationCountry
p614
aVhttp://dbpedia.org/property/largestCity
p615
aVhttp://dbpedia.org/ontology/ground
p616
aVhttp://dbpedia.org/ontology/nationality
p617
aVhttp://dbpedia.org/property/birthPlace
p618
aVhttp://dbpedia.org/ontology/place
p619
aVhttp://dbpedia.org/property/placeOfBirth
p620
aVhttp://dbpedia.org/property/country
p621
aVhttp://dbpedia.org/property/nationality
p622
aVhttp://dbpedia.org/ontology/abstract
p623
aVhttp://dbpedia.org/property/location
p624
aVhttp://dbpedia.org/ontology/location
p625
aVhttp://www.w3.org/2000/01/rdf-schema#comment
p626
aVhttp://dbpedia.org/ontology/birthPlace
p627
aVhttp://dbpedia.org/ontology/largestCity
p628
aVhttp://dbpedia.org/ontology/stateOfOrigin
p629
asI6
(lp630
sI7
(lp631
sI8
(lp632
Vhttp://www.w3.org/2000/01/rdf-schema#seeAlso
p633
aVhttp://dbpedia.org/property/origin
p634
aVhttp://dbpedia.org/property/commands
p635
aVhttp://dbpedia.org/ontology/type
p636
aVhttp://dbpedia.org/ontology/knownFor
p637
aVhttp://dbpedia.org/ontology/occupation
p638
aVhttp://dbpedia.org/property/ground
p639
aVhttp://dbpedia.org/ontology/leader
p640
aVhttp://dbpedia.org/property/place
p641
aVhttp://dbpedia.org/property/debuts
p642
aVhttp://dbpedia.org/property/legislature
p643
aVhttp://dbpedia.org/ontology/garrison
p644
aVhttp://dbpedia.org/property/placeOfDeath
p645
aVhttp://dbpedia.org/ontology/battle
p646
aVhttp://dbpedia.org/property/lastStopover
p647
aVhttp://dbpedia.org/ontology/regionServed
p648
aVhttp://dbpedia.org/ontology/country
p649
aVhttp://dbpedia.org/property/region
p650
aVhttp://www.w3.org/1999/02/22-rdf-syntax-ns#type
p651
aVhttp://dbpedia.org/property/locationCountry
p652
aVhttp://dbpedia.org/ontology/ground
p653
aVhttp://dbpedia.org/property/available
p654
aVhttp://dbpedia.org/ontology/nationality
p655
aVhttp://dbpedia.org/property/birthPlace
p656
aVhttp://dbpedia.org/ontology/restingPlace
p657
aVhttp://dbpedia.org/ontology/place
p658
aVhttp://dbpedia.org/property/placeOfBirth
p659
aVhttp://dbpedia.org/property/office
p660
aVhttp://dbpedia.org/ontology/residence
p661
aVhttp://dbpedia.org/property/country
p662
aVhttp://dbpedia.org/property/subject
p663
aVhttp://dbpedia.org/property/areaServed
p664
aVhttp://dbpedia.org/ontology/wikiPageExternalLink
p665
aVhttp://purl.org/dc/terms/subject
p666
aVhttp://dbpedia.org/ontology/populationPlace
p667
aVhttp://dbpedia.org/property/nationality
p668
aVhttp://dbpedia.org/ontology/abstract
p669
aVhttp://dbpedia.org/property/stateParty
p670
aVhttp://dbpedia.org/property/leaderName
p671
aVhttp://dbpedia.org/property/deathPlace
p672
aVhttp://dbpedia.org/property/architectureStyle
p673
aVhttp://dbpedia.org/property/states
p674
aVhttp://dbpedia.org/ontology/deathPlace
p675
aVhttp://dbpedia.org/property/battles
p676
aVhttp://dbpedia.org/property/subdivisionName
p677
aVhttp://dbpedia.org/ontology/language
p678
aVhttp://dbpedia.org/property/title
p679
aVhttp://dbpedia.org/property/languages
p680
aVhttp://dbpedia.org/property/headquarters
p681
aVhttp://www.w3.org/2000/01/rdf-schema#comment
p682
aVhttp://dbpedia.org/ontology/birthPlace
p683
aVhttp://dbpedia.org/ontology/nonFictionSubject
p684
aVhttp://dbpedia.org/ontology/wikiPageRedirects
p685
aVhttp://dbpedia.org/property/order
p686
aVhttp://dbpedia.org/ontology/hometown
p687
aVhttp://dbpedia.org/property/destination
p688
aVhttp://www.w3.org/2004/02/skos/core#subject
p689
aVhttp://dbpedia.org/property/citizenship
p690
aVhttp://dbpedia.org/ontology/broadcastArea
p691
aVhttp://dbpedia.org/ontology/spokenIn
p692
aVhttp://dbpedia.org/property/location
p693
aVhttp://dbpedia.org/ontology/stateOfOrigin
p694
aVhttp://dbpedia.org/property/residence
p695
aVhttp://dbpedia.org/ontology/location
p696
aVhttp://www.w3.org/2002/07/owl#sameAs
p697
aVhttp://dbpedia.org/property/shortDescription
p698
assI5
(dp699
I0
g442
sI1
g562
sI2
g573
sI3
g580
sI4
g607
sI5
(lp700
sI6
(lp701
sI7
(lp702
sI8
(lp703
ssI6
(dp704
I0
g443
sI1
g563
sI2
g574
sI3
g581
sI4
g630
sI5
g701
sI6
(lp705
sI7
(lp706
sI8
(lp707
ssI7
(dp708
I0
g444
sI1
g564
sI2
g575
sI3
g582
sI4
g631
sI5
g702
sI6
g706
sI7
(lp709
sI8
(lp710
ssI8
(dp711
I0
g445
sI1
g565
sI2
g576
sI3
g583
sI4
g632
sI5
g703
sI6
g707
sI7
g710
sI8
(lp712
ssa(dp713
I0
(dp714
I0
(lp715
sI1
(lp716
sI2
(lp717
sI3
(lp718
sI4
(lp719
Vhttp://dbpedia.org/property/officialLanguages
p720
aVhttp://www.w3.org/2000/01/rdf-schema#comment
p721
aVhttp://dbpedia.org/ontology/abstract
p722
aVhttp://xmlns.com/foaf/0.1/depiction
p723
aVhttp://dbpedia.org/property/venue
p724
aVhttp://dbpedia.org/ontology/wikiPageRedirects
p725
aVhttp://dbpedia.org/ontology/officialLanguage
p726
aVhttp://dbpedia.org/property/languagesType
p727
aVhttp://www.w3.org/2002/07/owl#sameAs
p728
aVhttp://xmlns.com/foaf/0.1/homepage
p729
aVhttp://dbpedia.org/property/cctld
p730
aVhttp://dbpedia.org/property/imageFlag
p731
aVhttp://dbpedia.org/ontology/flag
p732
aVhttp://dbpedia.org/property/subdivisionName
p733
aVhttp://dbpedia.org/ontology/language
p734
aVhttp://dbpedia.org/ontology/thumbnail
p735
asI5
(lp736
sI6
(lp737
sI7
(lp738
sI8
(lp739
ssI1
(dp740
I0
g716
sI1
(lp741
sI2
(lp742
sI3
(lp743
sI4
(lp744
Vhttp://dbpedia.org/ontology/wikiPageExternalLink
p745
aVhttp://dbpedia.org/property/imageMap
p746
asI5
(lp747
sI6
(lp748
sI7
(lp749
sI8
(lp750
ssI2
(dp751
I0
g717
sI1
g742
sI2
(lp752
sI3
(lp753
sI4
(lp754
sI5
(lp755
sI6
(lp756
sI7
(lp757
sI8
(lp758
ssI3
(dp759
I0
g718
sI1
g743
sI2
g753
sI3
(lp760
sI4
(lp761
Vhttp://dbpedia.org/ontology/wikiPageExternalLink
p762
aVhttp://www.w3.org/1999/02/22-rdf-syntax-ns#type
p763
aVhttp://purl.org/dc/terms/subject
p764
aVhttp://www.w3.org/2000/01/rdf-schema#comment
p765
aVhttp://dbpedia.org/property/nationalMotto
p766
aVhttp://dbpedia.org/ontology/birthPlace
p767
aVhttp://dbpedia.org/property/location
p768
aVhttp://dbpedia.org/ontology/motto
p769
aVhttp://dbpedia.org/property/birthPlace
p770
aVhttp://dbpedia.org/property/placeOfBirth
p771
aVhttp://dbpedia.org/ontology/abstract
p772
aVhttp://dbpedia.org/property/stadium
p773
asI5
(lp774
sI6
(lp775
sI7
(lp776
sI8
(lp777
ssI4
(dp778
I0
g719
sI1
g744
sI2
g754
sI3
g761
sI4
(lp779
sI5
(lp780
Vhttp://dbpedia.org/ontology/abstract
p781
asI6
(lp782
sI7
(lp783
sI8
(lp784
Vhttp://dbpedia.org/ontology/wikiPageExternalLink
p785
aVhttp://purl.org/dc/terms/subject
p786
aVhttp://www.w3.org/2000/01/rdf-schema#comment
p787
aVhttp://dbpedia.org/property/countryName
p788
aVhttp://dbpedia.org/ontology/abstract
p789
aVhttp://dbpedia.org/property/location
p790
aVhttp://dbpedia.org/ontology/governmentType
p791
aVhttp://dbpedia.org/property/footnoteA
p792
aVhttp://dbpedia.org/ontology/leaderTitle
p793
aVhttp://dbpedia.org/property/leaderTitle
p794
aVhttp://dbpedia.org/property/upperHouse
p795
aVhttp://www.w3.org/2002/07/owl#sameAs
p796
assI5
(dp797
I0
g736
sI1
g747
sI2
g755
sI3
g774
sI4
g780
sI5
(lp798
sI6
(lp799
sI7
(lp800
sI8
(lp801
ssI6
(dp802
I0
g737
sI1
g748
sI2
g756
sI3
g775
sI4
g782
sI5
g799
sI6
(lp803
sI7
(lp804
sI8
(lp805
ssI7
(dp806
I0
g738
sI1
g749
sI2
g757
sI3
g776
sI4
g783
sI5
g800
sI6
g804
sI7
(lp807
sI8
(lp808
ssI8
(dp809
I0
g739
sI1
g750
sI2
g758
sI3
g777
sI4
g784
sI5
g801
sI6
g805
sI7
g808
sI8
(lp810
ssa(dp811
I0
(dp812
I0
(lp813
sI1
(lp814
sI2
(lp815
sI3
(lp816
sI4
(lp817
sI5
(lp818
sI6
(lp819
sI7
(lp820
sI8
(lp821
ssI1
(dp822
I0
g814
sI1
(lp823
sI2
(lp824
sI3
(lp825
sI4
(lp826
sI5
(lp827
sI6
(lp828
sI7
(lp829
sI8
(lp830
ssI2
(dp831
I0
g815
sI1
g824
sI2
(lp832
sI3
(lp833
sI4
(lp834
sI5
(lp835
sI6
(lp836
sI7
(lp837
sI8
(lp838
ssI3
(dp839
I0
g816
sI1
g825
sI2
g833
sI3
(lp840
sI4
(lp841
sI5
(lp842
sI6
(lp843
sI7
(lp844
sI8
(lp845
ssI4
(dp846
I0
g817
sI1
g826
sI2
g834
sI3
g841
sI4
(lp847
sI5
(lp848
sI6
(lp849
sI7
(lp850
sI8
(lp851
ssI5
(dp852
I0
g818
sI1
g827
sI2
g835
sI3
g842
sI4
g848
sI5
(lp853
sI6
(lp854
sI7
(lp855
sI8
(lp856
ssI6
(dp857
I0
g819
sI1
g828
sI2
g836
sI3
g843
sI4
g849
sI5
g854
sI6
(lp858
sI7
(lp859
sI8
(lp860
ssI7
(dp861
I0
g820
sI1
g829
sI2
g837
sI3
g844
sI4
g850
sI5
g855
sI6
g859
sI7
(lp862
sI8
(lp863
ssI8
(dp864
I0
g821
sI1
g830
sI2
g838
sI3
g845
sI4
g851
sI5
g856
sI6
g860
sI7
g863
sI8
(lp865
ssa(dp866
I0
(dp867
I0
(lp868
sI1
(lp869
sI2
(lp870
sI3
(lp871
sI4
(lp872
sI5
(lp873
Vhttp://dbpedia.org/ontology/wikiPageExternalLink
p874
aVhttp://dbpedia.org/property/website
p875
aVhttp://dbpedia.org/property/motto
p876
aVhttp://www.w3.org/1999/02/22-rdf-syntax-ns#type
p877
aVhttp://purl.org/dc/terms/subject
p878
aVhttp://www.w3.org/2000/01/rdf-schema#comment
p879
aVhttp://dbpedia.org/ontology/abstract
p880
aVhttp://xmlns.com/foaf/0.1/homepage
p881
aVhttp://dbpedia.org/property/country
p882
asI6
(lp883
sI7
(lp884
sI8
(lp885
ssI1
(dp886
I0
g869
sI1
(lp887
sI2
(lp888
sI3
(lp889
sI4
(lp890
sI5
(lp891
Vhttp://dbpedia.org/property/country
p892
aVhttp://dbpedia.org/ontology/abstract
p893
aVhttp://www.w3.org/1999/02/22-rdf-syntax-ns#type
p894
aVhttp://purl.org/dc/terms/subject
p895
aVhttp://www.w3.org/2000/01/rdf-schema#comment
p896
asI6
(lp897
sI7
(lp898
sI8
(lp899
ssI2
(dp900
I0
g870
sI1
g888
sI2
(lp901
sI3
(lp902
sI4
(lp903
sI5
(lp904
Vhttp://www.w3.org/1999/02/22-rdf-syntax-ns#type
p905
asI6
(lp906
sI7
(lp907
sI8
(lp908
ssI3
(dp909
I1
g889
sI2
g902
sI3
(lp910
sI4
(lp911
sI5
(lp912
Vhttp://dbpedia.org/ontology/wikiPageExternalLink
p913
aVhttp://dbpedia.org/property/website
p914
aVhttp://dbpedia.org/property/motto
p915
aVhttp://www.w3.org/1999/02/22-rdf-syntax-ns#type
p916
aVhttp://purl.org/dc/terms/subject
p917
aVhttp://www.w3.org/2000/01/rdf-schema#comment
p918
aVhttp://dbpedia.org/ontology/abstract
p919
aVhttp://xmlns.com/foaf/0.1/homepage
p920
aVhttp://dbpedia.org/property/country
p921
asI6
(lp922
sI7
(lp923
sI8
(lp924
ssI4
(dp925
I0
g872
sI1
g890
sI2
g903
sI3
g911
sI4
(lp926
sI5
(lp927
Vhttp://dbpedia.org/property/country
p928
aVhttp://dbpedia.org/ontology/abstract
p929
aVhttp://www.w3.org/1999/02/22-rdf-syntax-ns#type
p930
aVhttp://purl.org/dc/terms/subject
p931
aVhttp://www.w3.org/2000/01/rdf-schema#comment
p932
asI6
(lp933
sI7
(lp934
sI8
(lp935
ssI5
(dp936
I0
g873
sI1
g891
sI2
g904
sI3
g912
sI4
g927
sI5
(lp937
sI6
(lp938
sI7
(lp939
sI8
(lp940
ssI6
(dp941
I0
g883
sI1
g897
sI2
g906
sI3
g922
sI4
g933
sI5
g938
sI6
(lp942
sI7
(lp943
sI8
(lp944
ssI7
(dp945
I0
g884
sI1
g898
sI2
g907
sI3
g923
sI4
g934
sI5
g939
sI6
g943
sI7
(lp946
sI8
(lp947
ssI8
(dp948
I0
g885
sI1
g899
sI2
g908
sI3
g924
sI4
g935
sI5
g940
sI6
g944
sI7
g947
sI8
(lp949
ssa(dp950
I0
(dp951
I0
(lp952
sI1
(lp953
sI2
(lp954
sI3
(lp955
sI4
(lp956
sI5
(lp957
sI6
(lp958
sI7
(lp959
sI8
(lp960
ssI1
(dp961
I0
g953
sI1
(lp962
sI2
(lp963
sI3
(lp964
sI4
(lp965
sI5
(lp966
sI6
(lp967
sI7
(lp968
sI8
(lp969
ssI2
(dp970
I0
g954
sI1
g963
sI2
(lp971
sI3
(lp972
sI4
(lp973
sI5
(lp974
sI6
(lp975
sI7
(lp976
sI8
(lp977
ssI3
(dp978
I1
g964
sI2
g972
sI3
(lp979
sI4
(lp980
sI5
(lp981
sI6
(lp982
sI7
(lp983
sI8
(lp984
ssI4
(dp985
I0
g956
sI1
g965
sI2
g973
sI3
g980
sI4
(lp986
sI5
(lp987
sI6
(lp988
sI7
(lp989
sI8
(lp990
ssI5
(dp991
I0
g957
sI1
g966
sI2
g974
sI3
g981
sI4
g987
sI5
(lp992
sI6
(lp993
sI7
(lp994
sI8
(lp995
ssI6
(dp996
I0
g958
sI1
g967
sI2
g975
sI3
g982
sI4
g988
sI5
g993
sI6
(lp997
sI7
(lp998
sI8
(lp999
ssI7
(dp1000
I0
g959
sI1
g968
sI2
g976
sI3
g983
sI4
g989
sI5
g994
sI6
g998
sI7
(lp1001
sI8
(lp1002
ssI8
(dp1003
I0
g960
sI1
g969
sI2
g977
sI3
g984
sI4
g990
sI5
g995
sI6
g999
sI7
g1002
sI8
(lp1004
ssa(dp1005
I0
(dp1006
I0
(lp1007
sI1
(lp1008
sI2
(lp1009
sI3
(lp1010
Vhttp://dbpedia.org/property/hasPhotoCollection
p1011
aVhttp://www.w3.org/1999/02/22-rdf-syntax-ns#type
p1012
asI4
(lp1013
Vhttp://dbpedia.org/ontology/wikiPageDisambiguates
p1014
aVhttp://dbpedia.org/ontology/wikiPageRedirects
p1015
asI5
(lp1016
sI6
(lp1017
sI7
(lp1018
sI8
(lp1019
ssI1
(dp1020
I0
g1008
sI1
(lp1021
sI2
(lp1022
sI3
(lp1023
Vhttp://www.w3.org/1999/02/22-rdf-syntax-ns#type
p1024
asI4
(lp1025
sI5
(lp1026
sI6
(lp1027
sI7
(lp1028
sI8
(lp1029
ssI2
(dp1030
I0
g1009
sI1
g1022
sI2
(lp1031
sI3
(lp1032
sI4
(lp1033
sI5
(lp1034
sI6
(lp1035
sI7
(lp1036
sI8
(lp1037
ssI3
(dp1038
I0
g1010
sI1
g1023
sI2
g1032
sI3
(lp1039
sI4
(lp1040
sI5
(lp1041
sI6
(lp1042
sI7
(lp1043
sI8
(lp1044
ssI4
(dp1045
I0
g1013
sI1
g1025
sI2
g1033
sI3
g1040
sI4
(lp1046
sI5
(lp1047
sI6
(lp1048
sI7
(lp1049
sI8
(lp1050
Vhttp://dbpedia.org/ontology/wikiPageDisambiguates
p1051
assI5
(dp1052
I0
g1016
sI1
g1026
sI2
g1034
sI3
g1041
sI4
g1047
sI5
(lp1053
sI6
(lp1054
sI7
(lp1055
sI8
(lp1056
ssI6
(dp1057
I0
g1017
sI1
g1027
sI2
g1035
sI3
g1042
sI4
g1048
sI5
g1054
sI6
(lp1058
sI7
(lp1059
sI8
(lp1060
ssI7
(dp1061
I0
g1018
sI1
g1028
sI2
g1036
sI3
g1043
sI4
g1049
sI5
g1055
sI6
g1059
sI7
(lp1062
sI8
(lp1063
ssI8
(dp1064
I0
g1019
sI1
g1029
sI2
g1037
sI3
g1044
sI4
g1050
sI5
g1056
sI6
g1060
sI7
g1063
sI8
(lp1065
ssa(dp1066
I0
(dp1067
I0
(lp1068
sI1
(lp1069
sI2
(lp1070
sI3
(lp1071
sI4
(lp1072
sI5
(lp1073
sI6
(lp1074
sI7
(lp1075
sI8
(lp1076
Vhttp://dbpedia.org/ontology/abstract
p1077
assI1
(dp1078
I0
g1069
sI1
(lp1079
sI2
(lp1080
sI3
(lp1081
sI4
(lp1082
sI5
(lp1083
sI6
(lp1084
sI7
(lp1085
sI8
(lp1086
Vhttp://www.w3.org/1999/02/22-rdf-syntax-ns#type
p1087
aVhttp://www.w3.org/2002/07/owl#sameAs
p1088
assI2
(dp1089
I0
g1070
sI1
g1080
sI2
(lp1090
sI3
(lp1091
sI4
(lp1092
sI5
(lp1093
sI6
(lp1094
sI7
(lp1095
sI8
(lp1096
ssI3
(dp1097
I1
g1081
sI2
g1091
sI3
(lp1098
sI4
(lp1099
sI5
(lp1100
sI6
(lp1101
sI7
(lp1102
sI8
(lp1103
Vhttp://dbpedia.org/ontology/abstract
p1104
assI4
(dp1105
I0
g1072
sI1
g1082
sI2
g1092
sI3
g1099
sI4
(lp1106
sI5
(lp1107
sI6
(lp1108
sI7
(lp1109
sI8
(lp1110
ssI5
(dp1111
I0
g1073
sI1
g1083
sI2
g1093
sI3
g1100
sI4
g1107
sI5
(lp1112
sI6
(lp1113
sI7
(lp1114
sI8
(lp1115
ssI6
(dp1116
I0
g1074
sI1
g1084
sI2
g1094
sI3
g1101
sI4
g1108
sI5
g1113
sI6
(lp1117
sI7
(lp1118
sI8
(lp1119
ssI7
(dp1120
I0
g1075
sI1
g1085
sI2
g1095
sI3
g1102
sI4
g1109
sI5
g1114
sI6
g1118
sI7
(lp1121
sI8
(lp1122
ssI8
(dp1123
I0
g1076
sI1
g1086
sI2
g1096
sI3
g1103
sI4
g1110
sI5
g1115
sI6
g1119
sI7
g1122
sI8
(lp1124
ssa(dp1125
I0
(dp1126
I0
(lp1127
sI1
(lp1128
sI2
(lp1129
sI3
(lp1130
sI4
(lp1131
sI5
(lp1132
sI6
(lp1133
sI7
(lp1134
sI8
(lp1135
ssI1
(dp1136
I0
g1128
sI1
(lp1137
sI2
(lp1138
sI3
(lp1139
sI4
(lp1140
sI5
(lp1141
Vhttp://www.w3.org/2002/07/owl#sameAs
p1142
asI6
(lp1143
sI7
(lp1144
sI8
(lp1145
ssI2
(dp1146
I0
g1129
sI1
g1138
sI2
(lp1147
sI3
(lp1148
sI4
(lp1149
sI5
(lp1150
sI6
(lp1151
sI7
(lp1152
sI8
(lp1153
ssI3
(dp1154
I0
g1130
sI1
g1139
sI2
g1148
sI3
(lp1155
sI4
(lp1156
sI5
(lp1157
sI6
(lp1158
sI7
(lp1159
sI8
(lp1160
ssI4
(dp1161
I0
g1131
sI1
g1140
sI2
g1149
sI3
g1156
sI4
(lp1162
sI5
(lp1163
sI6
(lp1164
sI7
(lp1165
sI8
(lp1166
ssI5
(dp1167
I0
g1132
sI1
g1141
sI2
g1150
sI3
g1157
sI4
g1163
sI5
(lp1168
sI6
(lp1169
sI7
(lp1170
Vhttp://purl.org/voc/vrank#hasRank
p1171
asI8
(lp1172
Vhttp://dbpedia.org/ontology/wikiPageDisambiguates
p1173
aVhttp://dbpedia.org/ontology/wikiPageRedirects
p1174
assI6
(dp1175
I0
g1133
sI1
g1143
sI2
g1151
sI3
g1158
sI4
g1164
sI5
g1169
sI6
(lp1176
sI7
(lp1177
sI8
(lp1178
ssI7
(dp1179
I0
g1134
sI1
g1144
sI2
g1152
sI3
g1159
sI4
g1165
sI5
g1170
sI6
g1177
sI7
(lp1180
sI8
(lp1181
ssI8
(dp1182
I0
g1135
sI1
g1145
sI2
g1153
sI3
g1160
sI4
g1166
sI5
g1172
sI6
g1178
sI7
g1181
sI8
(lp1183
ssa(dp1184
I0
(dp1185
I0
(lp1186
sI1
(lp1187
sI2
(lp1188
sI3
(lp1189
sI4
(lp1190
sI5
(lp1191
Vhttp://dbpedia.org/property/placeOfDeath
p1192
aVhttp://dbpedia.org/property/origin
p1193
aVhttp://dbpedia.org/property/coordinatesRegion
p1194
aVhttp://dbpedia.org/property/city
p1195
aVhttp://dbpedia.org/ontology/garrison
p1196
aVhttp://dbpedia.org/property/territory
p1197
aVhttp://dbpedia.org/property/assembly
p1198
aVhttp://dbpedia.org/ontology/isPartOf
p1199
aVhttp://dbpedia.org/property/locationTown
p1200
aVhttp://dbpedia.org/property/meetingPlace
p1201
aVhttp://dbpedia.org/property/mapCaption
p1202
aVhttp://dbpedia.org/ontology/residence
p1203
aVhttp://dbpedia.org/ontology/abstract
p1204
aVhttp://dbpedia.org/ontology/recordedIn
p1205
aVhttp://dbpedia.org/property/space
p1206
aVhttp://dbpedia.org/property/shipNamesake
p1207
aVhttp://dbpedia.org/property/shipRoute
p1208
aVhttp://dbpedia.org/ontology/state
p1209
aVhttp://dbpedia.org/ontology/location
p1210
aVhttp://dbpedia.org/property/constituency
p1211
aVhttp://dbpedia.org/property/area
p1212
aVhttp://dbpedia.org/ontology/hometown
p1213
aVhttp://dbpedia.org/ontology/restingPlace
p1214
aVhttp://dbpedia.org/property/province
p1215
aVhttp://dbpedia.org/property/sedeFinale
p1216
aVhttp://www.w3.org/2000/01/rdf-schema#seeAlso
p1217
aVhttp://dbpedia.org/ontology/wikiPageExternalLink
p1218
aVhttp://dbpedia.org/ontology/routeStart
p1219
aVhttp://dbpedia.org/property/before
p1220
aVhttp://dbpedia.org/ontology/country
p1221
aVhttp://dbpedia.org/property/region
p1222
aVhttp://dbpedia.org/property/birthPlace
p1223
aVhttp://xmlns.com/foaf/0.1/nick
p1224
aVhttp://dbpedia.org/property/pushpinMap
p1225
aVhttp://dbpedia.org/property/deathPlace
p1226
aVhttp://dbpedia.org/ontology/deathPlace
p1227
aVhttp://dbpedia.org/property/hqLocationCity
p1228
aVhttp://dbpedia.org/ontology/territory
p1229
aVhttp://dbpedia.org/property/headquarters
p1230
aVhttp://dbpedia.org/ontology/birthPlace
p1231
aVhttp://dbpedia.org/ontology/wikiPageRedirects
p1232
aVhttp://dbpedia.org/ontology/award
p1233
aVhttp://xmlns.com/foaf/0.1/homepage
p1234
aVhttp://dbpedia.org/property/garrison
p1235
aVhttp://dbpedia.org/property/residence
p1236
aVhttp://dbpedia.org/property/capital
p1237
aVhttp://dbpedia.org/property/nickname
p1238
aVhttp://www.w3.org/1999/02/22-rdf-syntax-ns#type
p1239
aVhttp://dbpedia.org/ontology/capital
p1240
aVhttp://dbpedia.org/ontology/ground
p1241
aVhttp://dbpedia.org/property/leadersSeat
p1242
aVhttp://dbpedia.org/property/metropolitan
p1243
aVhttp://dbpedia.org/property/owner
p1244
aVhttp://dbpedia.org/property/placeOfBirth
p1245
aVhttp://dbpedia.org/property/club
p1246
aVhttp://dbpedia.org/ontology/province
p1247
aVhttp://dbpedia.org/ontology/city
p1248
aVhttp://dbpedia.org/ontology/foundationPlace
p1249
aVhttp://dbpedia.org/property/subdivisionName
p1250
aVhttp://dbpedia.org/ontology/homeport
p1251
aVhttp://dbpedia.org/property/timezone
p1252
aVhttp://dbpedia.org/property/popplace
p1253
aVhttp://www.w3.org/2000/01/rdf-schema#comment
p1254
aVhttp://dbpedia.org/property/locationCity
p1255
aVhttp://dbpedia.org/property/stadium
p1256
aVhttp://dbpedia.org/property/terminusA
p1257
aVhttp://dbpedia.org/property/ground
p1258
aVhttp://dbpedia.org/property/place
p1259
aVhttp://dbpedia.org/property/homeState
p1260
aVhttp://dbpedia.org/property/caption
p1261
aVhttp://dbpedia.org/property/image
p1262
aVhttp://dbpedia.org/ontology/place
p1263
aVhttp://dbpedia.org/property/hqCity
p1264
aVhttp://purl.org/dc/terms/subject
p1265
aVhttp://dbpedia.org/ontology/populationPlace
p1266
aVhttp://dbpedia.org/property/state
p1267
aVhttp://dbpedia.org/property/location
p1268
aVhttp://dbpedia.org/property/cityServed
p1269
aVhttp://dbpedia.org/property/accreditation
p1270
aVhttp://dbpedia.org/ontology/headquarter
p1271
aVhttp://dbpedia.org/ontology/region
p1272
aVhttp://dbpedia.org/property/title
p1273
aVhttp://dbpedia.org/property/fightingOutOf
p1274
aVhttp://dbpedia.org/ontology/assembly
p1275
aVhttp://dbpedia.org/property/address
p1276
aVhttp://dbpedia.org/ontology/timeZone
p1277
aVhttp://dbpedia.org/ontology/premierePlace
p1278
aVhttp://dbpedia.org/ontology/locationCity
p1279
asI6
(lp1280
sI7
(lp1281
sI8
(lp1282
ssI1
(dp1283
I0
g1187
sI1
(lp1284
sI2
(lp1285
sI3
(lp1286
sI4
(lp1287
sI5
(lp1288
Vhttp://www.w3.org/2000/01/rdf-schema#seeAlso
p1289
aVhttp://dbpedia.org/property/origin
p1290
aVhttp://dbpedia.org/property/terminusA
p1291
aVhttp://dbpedia.org/property/place
p1292
aVhttp://dbpedia.org/ontology/routeStart
p1293
aVhttp://dbpedia.org/property/timezone
p1294
aVhttp://dbpedia.org/property/city
p1295
aVhttp://dbpedia.org/ontology/garrison
p1296
aVhttp://dbpedia.org/ontology/deathPlace
p1297
aVhttp://dbpedia.org/property/placeOfDeath
p1298
aVhttp://dbpedia.org/property/caption
p1299
aVhttp://dbpedia.org/ontology/locationCity
p1300
aVhttp://dbpedia.org/ontology/country
p1301
aVhttp://dbpedia.org/property/region
p1302
aVhttp://www.w3.org/1999/02/22-rdf-syntax-ns#type
p1303
aVhttp://dbpedia.org/ontology/capital
p1304
aVhttp://dbpedia.org/property/birthPlace
p1305
aVhttp://dbpedia.org/property/capital
p1306
aVhttp://dbpedia.org/property/image
p1307
aVhttp://dbpedia.org/ontology/place
p1308
aVhttp://dbpedia.org/property/locationTown
p1309
aVhttp://dbpedia.org/property/meetingPlace
p1310
aVhttp://dbpedia.org/ontology/abstract
p1311
aVhttp://dbpedia.org/property/placeOfBirth
p1312
aVhttp://dbpedia.org/ontology/wikiPageExternalLink
p1313
aVhttp://dbpedia.org/property/mapCaption
p1314
aVhttp://purl.org/dc/terms/subject
p1315
aVhttp://dbpedia.org/ontology/populationPlace
p1316
aVhttp://dbpedia.org/ontology/residence
p1317
aVhttp://dbpedia.org/property/state
p1318
aVhttp://dbpedia.org/property/pushpinMap
p1319
aVhttp://dbpedia.org/property/deathPlace
p1320
aVhttp://dbpedia.org/property/location
p1321
aVhttp://dbpedia.org/ontology/province
p1322
aVhttp://dbpedia.org/ontology/headquarter
p1323
aVhttp://dbpedia.org/ontology/city
p1324
aVhttp://dbpedia.org/property/leadersSeat
p1325
aVhttp://dbpedia.org/property/subdivisionName
p1326
aVhttp://dbpedia.org/property/hqLocationCity
p1327
aVhttp://dbpedia.org/ontology/state
p1328
aVhttp://dbpedia.org/property/headquarters
p1329
aVhttp://dbpedia.org/property/homeState
p1330
aVhttp://dbpedia.org/ontology/timeZone
p1331
aVhttp://dbpedia.org/ontology/birthPlace
p1332
aVhttp://www.w3.org/2000/01/rdf-schema#comment
p1333
aVhttp://dbpedia.org/ontology/wikiPageRedirects
p1334
aVhttp://dbpedia.org/property/area
p1335
aVhttp://dbpedia.org/ontology/hometown
p1336
aVhttp://dbpedia.org/property/locationCity
p1337
aVhttp://dbpedia.org/property/province
p1338
aVhttp://dbpedia.org/property/sedeFinale
p1339
aVhttp://dbpedia.org/property/garrison
p1340
aVhttp://dbpedia.org/property/residence
p1341
aVhttp://dbpedia.org/property/popplace
p1342
aVhttp://dbpedia.org/property/stadium
p1343
aVhttp://dbpedia.org/ontology/location
p1344
asI6
(lp1345
sI7
(lp1346
sI8
(lp1347
ssI2
(dp1348
I0
g1188
sI1
g1285
sI2
(lp1349
sI3
(lp1350
sI4
(lp1351
sI5
(lp1352
sI6
(lp1353
sI7
(lp1354
sI8
(lp1355
ssI3
(dp1356
I1
g1286
sI2
g1350
sI3
(lp1357
sI4
(lp1358
sI5
(lp1359
Vhttp://dbpedia.org/property/placeOfDeath
p1360
aVhttp://dbpedia.org/property/origin
p1361
aVhttp://dbpedia.org/property/coordinatesRegion
p1362
aVhttp://dbpedia.org/property/city
p1363
aVhttp://dbpedia.org/ontology/garrison
p1364
aVhttp://dbpedia.org/property/territory
p1365
aVhttp://dbpedia.org/property/assembly
p1366
aVhttp://dbpedia.org/ontology/isPartOf
p1367
aVhttp://dbpedia.org/property/locationTown
p1368
aVhttp://dbpedia.org/property/meetingPlace
p1369
aVhttp://dbpedia.org/property/mapCaption
p1370
aVhttp://dbpedia.org/ontology/residence
p1371
aVhttp://dbpedia.org/ontology/abstract
p1372
aVhttp://dbpedia.org/ontology/recordedIn
p1373
aVhttp://dbpedia.org/property/space
p1374
aVhttp://dbpedia.org/property/shipNamesake
p1375
aVhttp://dbpedia.org/property/shipRoute
p1376
aVhttp://dbpedia.org/ontology/state
p1377
aVhttp://dbpedia.org/ontology/location
p1378
aVhttp://dbpedia.org/property/constituency
p1379
aVhttp://dbpedia.org/property/area
p1380
aVhttp://dbpedia.org/ontology/hometown
p1381
aVhttp://dbpedia.org/ontology/restingPlace
p1382
aVhttp://dbpedia.org/property/province
p1383
aVhttp://dbpedia.org/property/sedeFinale
p1384
aVhttp://www.w3.org/2000/01/rdf-schema#seeAlso
p1385
aVhttp://dbpedia.org/ontology/wikiPageExternalLink
p1386
aVhttp://dbpedia.org/ontology/routeStart
p1387
aVhttp://dbpedia.org/property/before
p1388
aVhttp://dbpedia.org/ontology/country
p1389
aVhttp://dbpedia.org/property/region
p1390
aVhttp://dbpedia.org/property/birthPlace
p1391
aVhttp://xmlns.com/foaf/0.1/nick
p1392
aVhttp://dbpedia.org/property/pushpinMap
p1393
aVhttp://dbpedia.org/property/deathPlace
p1394
aVhttp://dbpedia.org/ontology/deathPlace
p1395
aVhttp://dbpedia.org/property/hqLocationCity
p1396
aVhttp://dbpedia.org/ontology/territory
p1397
aVhttp://dbpedia.org/property/headquarters
p1398
aVhttp://dbpedia.org/ontology/birthPlace
p1399
aVhttp://dbpedia.org/ontology/wikiPageRedirects
p1400
aVhttp://dbpedia.org/ontology/award
p1401
aVhttp://xmlns.com/foaf/0.1/homepage
p1402
aVhttp://dbpedia.org/property/garrison
p1403
aVhttp://dbpedia.org/property/residence
p1404
aVhttp://dbpedia.org/property/capital
p1405
aVhttp://dbpedia.org/property/nickname
p1406
aVhttp://www.w3.org/1999/02/22-rdf-syntax-ns#type
p1407
aVhttp://dbpedia.org/ontology/capital
p1408
aVhttp://dbpedia.org/ontology/ground
p1409
aVhttp://dbpedia.org/property/leadersSeat
p1410
aVhttp://dbpedia.org/property/metropolitan
p1411
aVhttp://dbpedia.org/property/owner
p1412
aVhttp://dbpedia.org/property/placeOfBirth
p1413
aVhttp://dbpedia.org/property/club
p1414
aVhttp://dbpedia.org/ontology/province
p1415
aVhttp://dbpedia.org/ontology/city
p1416
aVhttp://dbpedia.org/ontology/foundationPlace
p1417
aVhttp://dbpedia.org/property/subdivisionName
p1418
aVhttp://dbpedia.org/ontology/homeport
p1419
aVhttp://dbpedia.org/property/timezone
p1420
aVhttp://dbpedia.org/property/popplace
p1421
aVhttp://www.w3.org/2000/01/rdf-schema#comment
p1422
aVhttp://dbpedia.org/property/locationCity
p1423
aVhttp://dbpedia.org/property/stadium
p1424
aVhttp://dbpedia.org/property/terminusA
p1425
aVhttp://dbpedia.org/property/ground
p1426
aVhttp://dbpedia.org/property/place
p1427
aVhttp://dbpedia.org/property/homeState
p1428
aVhttp://dbpedia.org/property/caption
p1429
aVhttp://dbpedia.org/property/image
p1430
aVhttp://dbpedia.org/ontology/place
p1431
aVhttp://dbpedia.org/property/hqCity
p1432
aVhttp://purl.org/dc/terms/subject
p1433
aVhttp://dbpedia.org/ontology/populationPlace
p1434
aVhttp://dbpedia.org/property/state
p1435
aVhttp://dbpedia.org/property/location
p1436
aVhttp://dbpedia.org/property/cityServed
p1437
aVhttp://dbpedia.org/property/accreditation
p1438
aVhttp://dbpedia.org/ontology/headquarter
p1439
aVhttp://dbpedia.org/ontology/region
p1440
aVhttp://dbpedia.org/property/title
p1441
aVhttp://dbpedia.org/property/fightingOutOf
p1442
aVhttp://dbpedia.org/ontology/assembly
p1443
aVhttp://dbpedia.org/property/address
p1444
aVhttp://dbpedia.org/ontology/timeZone
p1445
aVhttp://dbpedia.org/ontology/premierePlace
p1446
aVhttp://dbpedia.org/ontology/locationCity
p1447
asI6
(lp1448
sI7
(lp1449
sI8
(lp1450
ssI4
(dp1451
I0
g1190
sI1
g1287
sI2
g1351
sI3
g1358
sI4
(lp1452
sI5
(lp1453
Vhttp://www.w3.org/2000/01/rdf-schema#seeAlso
p1454
aVhttp://dbpedia.org/property/origin
p1455
aVhttp://dbpedia.org/property/terminusA
p1456
aVhttp://dbpedia.org/ontology/routeStart
p1457
aVhttp://dbpedia.org/property/city
p1458
aVhttp://dbpedia.org/ontology/country
p1459
aVhttp://dbpedia.org/property/region
p1460
aVhttp://www.w3.org/1999/02/22-rdf-syntax-ns#type
p1461
aVhttp://dbpedia.org/ontology/capital
p1462
aVhttp://dbpedia.org/property/capital
p1463
aVhttp://dbpedia.org/property/birthPlace
p1464
aVhttp://dbpedia.org/property/placeOfBirth
p1465
aVhttp://dbpedia.org/ontology/abstract
p1466
aVhttp://dbpedia.org/ontology/wikiPageExternalLink
p1467
aVhttp://dbpedia.org/property/mapCaption
p1468
aVhttp://purl.org/dc/terms/subject
p1469
aVhttp://dbpedia.org/ontology/populationPlace
p1470
aVhttp://dbpedia.org/property/state
p1471
aVhttp://dbpedia.org/property/pushpinMap
p1472
aVhttp://dbpedia.org/property/location
p1473
aVhttp://dbpedia.org/ontology/province
p1474
aVhttp://dbpedia.org/ontology/headquarter
p1475
aVhttp://dbpedia.org/ontology/city
p1476
aVhttp://dbpedia.org/property/subdivisionName
p1477
aVhttp://dbpedia.org/ontology/location
p1478
aVhttp://dbpedia.org/ontology/state
p1479
aVhttp://dbpedia.org/property/headquarters
p1480
aVhttp://dbpedia.org/property/timezone
p1481
aVhttp://dbpedia.org/ontology/timeZone
p1482
aVhttp://dbpedia.org/ontology/birthPlace
p1483
aVhttp://www.w3.org/2000/01/rdf-schema#comment
p1484
aVhttp://dbpedia.org/ontology/wikiPageRedirects
p1485
aVhttp://dbpedia.org/property/area
p1486
aVhttp://dbpedia.org/property/locationCity
p1487
aVhttp://dbpedia.org/property/province
p1488
aVhttp://dbpedia.org/ontology/locationCity
p1489
aVhttp://dbpedia.org/property/popplace
p1490
aVhttp://dbpedia.org/property/stadium
p1491
asI6
(lp1492
sI7
(lp1493
sI8
(lp1494
ssI5
(dp1495
I0
g1191
sI1
g1288
sI2
g1352
sI3
g1359
sI4
g1453
sI5
(lp1496
sI6
(lp1497
sI7
(lp1498
sI8
(lp1499
Vhttp://dbpedia.org/property/origin
p1500
aVhttp://dbpedia.org/property/placeOfDeath
p1501
aVhttp://dbpedia.org/property/residence
p1502
aVhttp://dbpedia.org/ontology/city
p1503
aVhttp://dbpedia.org/property/area
p1504
aVhttp://dbpedia.org/property/region
p1505
aVhttp://www.w3.org/1999/02/22-rdf-syntax-ns#type
p1506
aVhttp://dbpedia.org/ontology/ground
p1507
aVhttp://dbpedia.org/ontology/isPartOf
p1508
aVhttp://dbpedia.org/property/birthPlace
p1509
aVhttp://dbpedia.org/property/locationTown
p1510
aVhttp://dbpedia.org/property/owner
p1511
aVhttp://dbpedia.org/property/hqCity
p1512
aVhttp://dbpedia.org/ontology/wikiPageDisambiguates
p1513
aVhttp://dbpedia.org/property/placeOfBirth
p1514
aVhttp://dbpedia.org/ontology/wikiPageExternalLink
p1515
aVhttp://dbpedia.org/ontology/residence
p1516
aVhttp://dbpedia.org/ontology/abstract
p1517
aVhttp://dbpedia.org/ontology/recordedIn
p1518
aVhttp://dbpedia.org/property/leaderName
p1519
aVhttp://dbpedia.org/property/deathPlace
p1520
aVhttp://dbpedia.org/property/location
p1521
aVhttp://dbpedia.org/ontology/province
p1522
aVhttp://dbpedia.org/ontology/headquarter
p1523
aVhttp://dbpedia.org/property/born
p1524
aVhttp://dbpedia.org/ontology/region
p1525
aVhttp://dbpedia.org/property/subdivisionName
p1526
aVhttp://dbpedia.org/ontology/location
p1527
aVhttp://dbpedia.org/ontology/leaderName
p1528
aVhttp://dbpedia.org/property/headquarters
p1529
aVhttp://dbpedia.org/property/city
p1530
aVhttp://dbpedia.org/ontology/birthPlace
p1531
aVhttp://www.w3.org/2000/01/rdf-schema#comment
p1532
aVhttp://dbpedia.org/ontology/wikiPageRedirects
p1533
aVhttp://dbpedia.org/property/before
p1534
aVhttp://dbpedia.org/ontology/hometown
p1535
aVhttp://dbpedia.org/ontology/restingPlace
p1536
aVhttp://dbpedia.org/property/locationCity
p1537
aVhttp://dbpedia.org/property/province
p1538
aVhttp://xmlns.com/foaf/0.1/homepage
p1539
aVhttp://dbpedia.org/ontology/locationCity
p1540
aVhttp://dbpedia.org/ontology/deathPlace
p1541
assI6
(dp1542
I0
g1280
sI1
g1345
sI2
g1353
sI3
g1448
sI4
g1492
sI5
g1497
sI6
(lp1543
sI7
(lp1544
sI8
(lp1545
ssI7
(dp1546
I0
g1281
sI1
g1346
sI2
g1354
sI3
g1449
sI4
g1493
sI5
g1498
sI6
g1544
sI7
(lp1547
sI8
(lp1548
ssI8
(dp1549
I0
g1282
sI1
g1347
sI2
g1355
sI3
g1450
sI4
g1494
sI5
g1499
sI6
g1545
sI7
g1548
sI8
(lp1550
ssa(dp1551
I0
(dp1552
I0
(lp1553
sI1
(lp1554
sI2
(lp1555
sI3
(lp1556
sI4
(lp1557
Vhttp://dbpedia.org/property/origin
p1558
aVhttp://dbpedia.org/property/cctld
p1559
aVhttp://dbpedia.org/ontology/knownFor
p1560
aVhttp://dbpedia.org/ontology/country
p1561
aVhttp://www.w3.org/1999/02/22-rdf-syntax-ns#type
p1562
aVhttp://dbpedia.org/ontology/isPartOf
p1563
aVhttp://dbpedia.org/ontology/nationality
p1564
aVhttp://dbpedia.org/property/birthPlace
p1565
aVhttp://dbpedia.org/ontology/ethnicGroup
p1566
aVhttp://dbpedia.org/property/countryCode
p1567
aVhttp://dbpedia.org/ontology/wikiPageDisambiguates
p1568
aVhttp://dbpedia.org/property/placeOfBirth
p1569
aVhttp://dbpedia.org/ontology/wikiPageExternalLink
p1570
aVhttp://purl.org/dc/terms/subject
p1571
aVhttp://dbpedia.org/property/county
p1572
aVhttp://dbpedia.org/ontology/abstract
p1573
aVhttp://dbpedia.org/ontology/leader
p1574
aVhttp://www.w3.org/2000/01/rdf-schema#comment
p1575
aVhttp://dbpedia.org/ontology/birthPlace
p1576
aVhttp://dbpedia.org/ontology/wikiPageRedirects
p1577
aVhttp://dbpedia.org/ontology/hometown
p1578
aVhttp://dbpedia.org/ontology/stateOfOrigin
p1579
aVhttp://www.w3.org/2002/07/owl#sameAs
p1580
asI5
(lp1581
sI6
(lp1582
sI7
(lp1583
sI8
(lp1584
ssI1
(dp1585
I0
g1554
sI1
(lp1586
sI2
(lp1587
sI3
(lp1588
sI4
(lp1589
Vhttp://dbpedia.org/property/countryCode
p1590
asI5
(lp1591
sI6
(lp1592
sI7
(lp1593
sI8
(lp1594
ssI2
(dp1595
I0
g1555
sI1
g1587
sI2
(lp1596
sI3
(lp1597
sI4
(lp1598
sI5
(lp1599
sI6
(lp1600
sI7
(lp1601
sI8
(lp1602
ssI3
(dp1603
I0
g1556
sI1
g1588
sI2
g1597
sI3
(lp1604
sI4
(lp1605
sI5
(lp1606
sI6
(lp1607
sI7
(lp1608
sI8
(lp1609
ssI4
(dp1610
I0
g1557
sI1
g1589
sI2
g1598
sI3
g1605
sI4
(lp1611
sI5
(lp1612
Vhttp://dbpedia.org/ontology/abstract
p1613
asI6
(lp1614
Vhttp://dbpedia.org/ontology/PopulatedPlace/areaTotal
p1615
asI7
(lp1616
sI8
(lp1617
Vhttp://dbpedia.org/ontology/territory
p1618
aVhttp://www.w3.org/2000/01/rdf-schema#comment
p1619
aVhttp://dbpedia.org/property/county
p1620
aVhttp://dbpedia.org/ontology/abstract
p1621
aVhttp://dbpedia.org/property/governmentType
p1622
aVhttp://dbpedia.org/ontology/wikiPageRedirects
p1623
aVhttp://dbpedia.org/property/birthPlace
p1624
aVhttp://www.w3.org/1999/02/22-rdf-syntax-ns#type
p1625
aVhttp://dbpedia.org/property/placeOfBirth
p1626
aVhttp://dbpedia.org/property/territory
p1627
aVhttp://dbpedia.org/ontology/birthPlace
p1628
aVhttp://dbpedia.org/ontology/occupation
p1629
assI5
(dp1630
I0
g1581
sI1
g1591
sI2
g1599
sI3
g1606
sI4
g1612
sI5
(lp1631
sI6
(lp1632
sI7
(lp1633
sI8
(lp1634
ssI6
(dp1635
I0
g1582
sI1
g1592
sI2
g1600
sI3
g1607
sI4
g1614
sI5
g1632
sI6
(lp1636
sI7
(lp1637
sI8
(lp1638
ssI7
(dp1639
I0
g1583
sI1
g1593
sI2
g1601
sI3
g1608
sI4
g1616
sI5
g1633
sI6
g1637
sI7
(lp1640
sI8
(lp1641
ssI8
(dp1642
I0
g1584
sI1
g1594
sI2
g1602
sI3
g1609
sI4
g1617
sI5
g1634
sI6
g1638
sI7
g1641
sI8
(lp1643
ssa(dp1644
I0
(dp1645
I0
(lp1646
sI1
(lp1647
sI2
(lp1648
sI3
(lp1649
sI4
(lp1650
sI5
(lp1651
sI6
(lp1652
sI7
(lp1653
sI8
(lp1654
ssI1
(dp1655
I0
g1647
sI1
(lp1656
sI2
(lp1657
sI3
(lp1658
sI4
(lp1659
sI5
(lp1660
sI6
(lp1661
sI7
(lp1662
sI8
(lp1663
ssI2
(dp1664
I0
g1648
sI1
g1657
sI2
(lp1665
sI3
(lp1666
sI4
(lp1667
sI5
(lp1668
sI6
(lp1669
sI7
(lp1670
sI8
(lp1671
ssI3
(dp1672
I0
g1649
sI1
g1658
sI2
g1666
sI3
(lp1673
sI4
(lp1674
sI5
(lp1675
sI6
(lp1676
sI7
(lp1677
sI8
(lp1678
ssI4
(dp1679
I0
g1650
sI1
g1659
sI2
g1667
sI3
g1674
sI4
(lp1680
sI5
(lp1681
sI6
(lp1682
sI7
(lp1683
sI8
(lp1684
ssI5
(dp1685
I0
g1651
sI1
g1660
sI2
g1668
sI3
g1675
sI4
g1681
sI5
(lp1686
sI6
(lp1687
sI7
(lp1688
sI8
(lp1689
ssI6
(dp1690
I0
g1652
sI1
g1661
sI2
g1669
sI3
g1676
sI4
g1682
sI5
g1687
sI6
(lp1691
sI7
(lp1692
sI8
(lp1693
ssI7
(dp1694
I0
g1653
sI1
g1662
sI2
g1670
sI3
g1677
sI4
g1683
sI5
g1688
sI6
g1692
sI7
(lp1695
sI8
(lp1696
ssI8
(dp1697
I0
g1654
sI1
g1663
sI2
g1671
sI3
g1678
sI4
g1684
sI5
g1689
sI6
g1693
sI7
g1696
sI8
(lp1698
ssa(dp1699
I0
(dp1700
I0
(lp1701
sI1
(lp1702
sI2
(lp1703
sI3
(lp1704
sI4
(lp1705
Vhttp://dbpedia.org/ontology/wikiPageExternalLink
p1706
aVhttp://dbpedia.org/property/region
p1707
aVhttp://dbpedia.org/ontology/territory
p1708
aVhttp://www.w3.org/2000/01/rdf-schema#comment
p1709
aVhttp://dbpedia.org/ontology/abstract
p1710
aVhttp://dbpedia.org/property/continent
p1711
aVhttp://dbpedia.org/property/locations
p1712
aVhttp://dbpedia.org/ontology/wikiPageRedirects
p1713
aVhttp://dbpedia.org/property/cityOrRegion
p1714
aVhttp://dbpedia.org/property/cities
p1715
aVhttp://dbpedia.org/ontology/regionServed
p1716
asI5
(lp1717
sI6
(lp1718
sI7
(lp1719
sI8
(lp1720
ssI1
(dp1721
I0
g1702
sI1
(lp1722
sI2
(lp1723
sI3
(lp1724
sI4
(lp1725
Vhttp://dbpedia.org/ontology/wikiPageExternalLink
p1726
aVhttp://dbpedia.org/property/region
p1727
aVhttp://www.w3.org/2000/01/rdf-schema#comment
p1728
aVhttp://dbpedia.org/ontology/abstract
p1729
aVhttp://dbpedia.org/ontology/wikiPageRedirects
p1730
aVhttp://dbpedia.org/property/continent
p1731
aVhttp://dbpedia.org/property/cityOrRegion
p1732
asI5
(lp1733
sI6
(lp1734
sI7
(lp1735
sI8
(lp1736
ssI2
(dp1737
I0
g1703
sI1
g1723
sI2
(lp1738
sI3
(lp1739
sI4
(lp1740
sI5
(lp1741
sI6
(lp1742
sI7
(lp1743
sI8
(lp1744
ssI3
(dp1745
I0
g1704
sI1
g1724
sI2
g1739
sI3
(lp1746
sI4
(lp1747
Vhttp://www.w3.org/2000/01/rdf-schema#seeAlso
p1748
aVhttp://www.w3.org/1999/02/22-rdf-syntax-ns#type
p1749
aVhttp://dbpedia.org/ontology/location
p1750
aVhttp://www.w3.org/2000/01/rdf-schema#comment
p1751
aVhttp://dbpedia.org/ontology/abstract
p1752
aVhttp://dbpedia.org/property/continent
p1753
aVhttp://dbpedia.org/property/locations
p1754
aVhttp://dbpedia.org/property/image
p1755
aVhttp://dbpedia.org/property/country/region
p1756
aVhttp://www.w3.org/2002/07/owl#sameAs
p1757
aVhttp://dbpedia.org/property/regionServed
p1758
aVhttp://dbpedia.org/property/territory
p1759
aVhttp://dbpedia.org/property/areaServed
p1760
aVhttp://dbpedia.org/ontology/regionServed
p1761
asI5
(lp1762
sI6
(lp1763
sI7
(lp1764
sI8
(lp1765
ssI4
(dp1766
I0
g1705
sI1
g1725
sI2
g1740
sI3
g1747
sI4
(lp1767
sI5
(lp1768
Vhttp://www.w3.org/2000/01/rdf-schema#seeAlso
p1769
aVhttp://dbpedia.org/property/cities
p1770
asI6
(lp1771
sI7
(lp1772
sI8
(lp1773
Vhttp://www.w3.org/2000/01/rdf-schema#seeAlso
p1774
aVhttp://dbpedia.org/property/cities
p1775
aVhttp://dbpedia.org/property/continent
p1776
aVhttp://dbpedia.org/property/cityOrRegion
p1777
aVhttp://www.w3.org/ns/prov#wasDerivedFrom
p1778
aVhttp://dbpedia.org/property/caption
p1779
aVhttp://dbpedia.org/ontology/demonym
p1780
aVhttp://dbpedia.org/ontology/regionServed
p1781
aVhttp://www.w3.org/1999/02/22-rdf-syntax-ns#type
p1782
aVhttp://dbpedia.org/property/locations
p1783
aVhttp://dbpedia.org/property/image
p1784
aVhttp://xmlns.com/foaf/0.1/isPrimaryTopicOf
p1785
aVhttp://dbpedia.org/property/country
p1786
aVhttp://dbpedia.org/ontology/wikiPageDisambiguates
p1787
aVhttp://dbpedia.org/property/areaServed
p1788
aVhttp://dbpedia.org/ontology/wikiPageExternalLink
p1789
aVhttp://xmlns.com/foaf/0.1/primaryTopic
p1790
aVhttp://purl.org/dc/terms/subject
p1791
aVhttp://dbpedia.org/ontology/abstract
p1792
aVhttp://xmlns.com/foaf/0.1/depiction
p1793
aVhttp://dbpedia.org/property/location
p1794
aVhttp://dbpedia.org/ontology/thumbnail
p1795
aVhttp://dbpedia.org/property/hasPhotoCollection
p1796
aVhttp://www.w3.org/2000/01/rdf-schema#label
p1797
aVhttp://dbpedia.org/property/title
p1798
aVhttp://www.w3.org/2000/01/rdf-schema#comment
p1799
aVhttp://dbpedia.org/ontology/wikiPageRedirects
p1800
aVhttp://dbpedia.org/property/demonym
p1801
aVhttp://dbpedia.org/property/regionServed
p1802
aVhttp://www.w3.org/2002/07/owl#sameAs
p1803
assI5
(dp1804
I0
g1717
sI1
g1733
sI2
g1741
sI3
g1762
sI4
g1768
sI5
(lp1805
sI6
(lp1806
sI7
(lp1807
sI8
(lp1808
ssI6
(dp1809
I0
g1718
sI1
g1734
sI2
g1742
sI3
g1763
sI4
g1771
sI5
g1806
sI6
(lp1810
sI7
(lp1811
sI8
(lp1812
ssI7
(dp1813
I0
g1719
sI1
g1735
sI2
g1743
sI3
g1764
sI4
g1772
sI5
g1807
sI6
g1811
sI7
(lp1814
sI8
(lp1815
ssI8
(dp1816
I0
g1720
sI1
g1736
sI2
g1744
sI3
g1765
sI4
g1773
sI5
g1808
sI6
g1812
sI7
g1815
sI8
(lp1817
ssa(dp1818
I0
(dp1819
I0
(lp1820
sI1
(lp1821
sI2
(lp1822
sI3
(lp1823
sI4
(lp1824
sI5
(lp1825
sI6
(lp1826
sI7
(lp1827
sI8
(lp1828
ssI1
(dp1829
I0
g1821
sI1
(lp1830
sI2
(lp1831
sI3
(lp1832
sI4
(lp1833
sI5
(lp1834
sI6
(lp1835
sI7
(lp1836
sI8
(lp1837
ssI2
(dp1838
I0
g1822
sI1
g1831
sI2
(lp1839
sI3
(lp1840
sI4
(lp1841
sI5
(lp1842
sI6
(lp1843
sI7
(lp1844
sI8
(lp1845
ssI3
(dp1846
I0
g1823
sI1
g1832
sI2
g1840
sI3
(lp1847
sI4
(lp1848
sI5
(lp1849
sI6
(lp1850
sI7
(lp1851
sI8
(lp1852
ssI4
(dp1853
I0
g1824
sI1
g1833
sI2
g1841
sI3
g1848
sI4
(lp1854
sI5
(lp1855
sI6
(lp1856
sI7
(lp1857
sI8
(lp1858
ssI5
(dp1859
I0
g1825
sI1
g1834
sI2
g1842
sI3
g1849
sI4
g1855
sI5
(lp1860
sI6
(lp1861
sI7
(lp1862
sI8
(lp1863
ssI6
(dp1864
I0
g1826
sI1
g1835
sI2
g1843
sI3
g1850
sI4
g1856
sI5
g1861
sI6
(lp1865
sI7
(lp1866
sI8
(lp1867
ssI7
(dp1868
I0
g1827
sI1
g1836
sI2
g1844
sI3
g1851
sI4
g1857
sI5
g1862
sI6
g1866
sI7
(lp1869
sI8
(lp1870
ssI8
(dp1871
I0
g1828
sI1
g1837
sI2
g1845
sI3
g1852
sI4
g1858
sI5
g1863
sI6
g1867
sI7
g1870
sI8
(lp1872
ssa(dp1873
I0
(dp1874
I0
(lp1875
sI1
(lp1876
sI2
(lp1877
sI3
(lp1878
sI4
(lp1879
sI5
(lp1880
sI6
(lp1881
sI7
(lp1882
sI8
(lp1883
ssI1
(dp1884
I0
g1876
sI1
(lp1885
sI2
(lp1886
sI3
(lp1887
sI4
(lp1888
sI5
(lp1889
sI6
(lp1890
sI7
(lp1891
sI8
(lp1892
ssI2
(dp1893
I0
g1877
sI1
g1886
sI2
(lp1894
sI3
(lp1895
sI4
(lp1896
sI5
(lp1897
sI6
(lp1898
sI7
(lp1899
sI8
(lp1900
ssI3
(dp1901
I0
g1878
sI1
g1887
sI2
g1895
sI3
(lp1902
sI4
(lp1903
sI5
(lp1904
sI6
(lp1905
sI7
(lp1906
sI8
(lp1907
ssI4
(dp1908
I0
g1879
sI1
g1888
sI2
g1896
sI3
g1903
sI4
(lp1909
sI5
(lp1910
sI6
(lp1911
sI7
(lp1912
sI8
(lp1913
ssI5
(dp1914
I0
g1880
sI1
g1889
sI2
g1897
sI3
g1904
sI4
g1910
sI5
(lp1915
sI6
(lp1916
sI7
(lp1917
sI8
(lp1918
ssI6
(dp1919
I0
g1881
sI1
g1890
sI2
g1898
sI4
g1911
sI5
g1916
sI6
(lp1920
sI7
(lp1921
sI8
(lp1922
ssI7
(dp1923
I0
g1882
sI1
g1891
sI2
g1899
sI3
g1906
sI4
g1912
sI5
g1917
sI6
g1921
sI7
(lp1924
sI8
(lp1925
ssI8
(dp1926
I0
g1883
sI1
g1892
sI2
g1900
sI3
g1907
sI4
g1913
sI5
g1918
sI6
g1922
sI7
g1925
sI8
(lp1927
ssa(dp1928
I0
(dp1929
I0
(lp1930
sI1
(lp1931
sI2
(lp1932
sI3
(lp1933
sI4
(lp1934
sI5
(lp1935
sI6
(lp1936
sI7
(lp1937
sI8
(lp1938
ssI1
(dp1939
I0
g1931
sI1
(lp1940
sI2
(lp1941
sI3
(lp1942
sI4
(lp1943
sI5
(lp1944
sI6
(lp1945
sI7
(lp1946
sI8
(lp1947
ssI2
(dp1948
I0
g1932
sI1
g1941
sI2
(lp1949
sI3
(lp1950
sI4
(lp1951
sI5
(lp1952
sI6
(lp1953
sI7
(lp1954
sI8
(lp1955
ssI3
(dp1956
I0
g1933
sI1
g1942
sI2
g1950
sI3
(lp1957
sI4
(lp1958
sI5
(lp1959
sI6
(lp1960
sI7
(lp1961
sI8
(lp1962
ssI4
(dp1963
I0
g1934
sI1
g1943
sI2
g1951
sI3
g1958
sI4
(lp1964
sI5
(lp1965
sI6
(lp1966
sI7
(lp1967
sI8
(lp1968
ssI5
(dp1969
I0
g1935
sI1
g1944
sI2
g1952
sI3
g1959
sI4
g1965
sI5
(lp1970
sI6
(lp1971
sI7
(lp1972
sI8
(lp1973
ssI6
(dp1974
I0
g1936
sI1
g1945
sI2
g1953
sI3
g1960
sI4
g1966
sI5
g1971
sI6
(lp1975
sI7
(lp1976
sI8
(lp1977
ssI7
(dp1978
I0
g1937
sI1
g1946
sI2
g1954
sI3
g1961
sI4
g1967
sI5
g1972
sI6
g1976
sI7
(lp1979
sI8
(lp1980
ssI8
(dp1981
I0
g1938
sI1
g1947
sI2
g1955
sI3
g1962
sI4
g1968
sI5
g1973
sI6
g1977
sI7
g1980
sI8
(lp1982
ssa(dp1983
I0
(dp1984
I0
(lp1985
sI1
(lp1986
sI2
(lp1987
sI3
(lp1988
sI4
(lp1989
Vhttp://www.w3.org/2000/01/rdf-schema#seeAlso
p1990
aVhttp://dbpedia.org/property/placeOfDeath
p1991
aVhttp://dbpedia.org/property/cctld
p1992
aVhttp://dbpedia.org/property/place
p1993
aVhttp://dbpedia.org/property/today
p1994
aVhttp://dbpedia.org/property/city
p1995
aVhttp://dbpedia.org/ontology/battle
p1996
aVhttp://dbpedia.org/ontology/regionServed
p1997
aVhttp://dbpedia.org/ontology/country
p1998
aVhttp://dbpedia.org/property/region
p1999
aVhttp://www.w3.org/2002/07/owl#sameAs
p2000
aVhttp://dbpedia.org/property/home
p2001
aVhttp://dbpedia.org/property/restingplace
p2002
aVhttp://dbpedia.org/property/image
p2003
aVhttp://dbpedia.org/ontology/nationality
p2004
aVhttp://dbpedia.org/property/birthPlace
p2005
aVhttp://dbpedia.org/ontology/restingPlace
p2006
aVhttp://dbpedia.org/ontology/place
p2007
aVhttp://dbpedia.org/property/placeOfBirth
p2008
aVhttp://dbpedia.org/ontology/residence
p2009
aVhttp://dbpedia.org/property/owner
p2010
aVhttp://dbpedia.org/property/country
p2011
aVhttp://dbpedia.org/ontology/wikiPageDisambiguates
p2012
aVhttp://dbpedia.org/property/establishedEvent
p2013
aVhttp://dbpedia.org/ontology/wikiPageExternalLink
p2014
aVhttp://purl.org/dc/terms/subject
p2015
aVhttp://dbpedia.org/property/nationality
p2016
aVhttp://dbpedia.org/ontology/abstract
p2017
aVhttp://dbpedia.org/ontology/award
p2018
aVhttp://dbpedia.org/property/deathPlace
p2019
aVhttp://dbpedia.org/property/location
p2020
aVhttp://dbpedia.org/property/iso31661Alpha
p2021
aVhttp://dbpedia.org/ontology/locationCountry
p2022
aVhttp://dbpedia.org/ontology/deathPlace
p2023
aVhttp://dbpedia.org/property/subdivisionName
p2024
aVhttp://dbpedia.org/ontology/sourceCountry
p2025
aVhttp://dbpedia.org/ontology/broadcastArea
p2026
aVhttp://dbpedia.org/property/basinCountries
p2027
aVhttp://dbpedia.org/property/currencyCode
p2028
aVhttp://dbpedia.org/property/headquarters
p2029
aVhttp://www.w3.org/2000/01/rdf-schema#comment
p2030
aVhttp://dbpedia.org/ontology/birthPlace
p2031
aVhttp://dbpedia.org/ontology/wikiPageRedirects
p2032
aVhttp://dbpedia.org/ontology/hometown
p2033
aVhttp://dbpedia.org/property/bankOf
p2034
aVhttp://dbpedia.org/property/areaServed
p2035
aVhttp://dbpedia.org/property/battles
p2036
aVhttp://dbpedia.org/property/broadcastArea
p2037
aVhttp://dbpedia.org/ontology/headquarter
p2038
aVhttp://dbpedia.org/property/residence
p2039
aVhttp://dbpedia.org/ontology/location
p2040
aVhttp://dbpedia.org/property/stadium
p2041
aVhttp://dbpedia.org/ontology/leader
p2042
asI5
(lp2043
sI6
(lp2044
sI7
(lp2045
sI8
(lp2046
ssI1
(dp2047
I0
g1986
sI1
(lp2048
sI2
(lp2049
sI3
(lp2050
sI4
(lp2051
Vhttp://dbpedia.org/ontology/country
p2052
aVhttp://dbpedia.org/property/imageMap
p2053
aVhttp://dbpedia.org/ontology/location
p2054
aVhttp://www.w3.org/2000/01/rdf-schema#comment
p2055
aVhttp://dbpedia.org/property/vehicleCode
p2056
aVhttp://dbpedia.org/ontology/abstract
p2057
aVhttp://dbpedia.org/property/locationCountry
p2058
aVhttp://dbpedia.org/property/place
p2059
aVhttp://dbpedia.org/property/altSportCode
p2060
aVhttp://dbpedia.org/ontology/wikiPageRedirects
p2061
aVhttp://dbpedia.org/property/iso31661Alpha
p2062
aVhttp://dbpedia.org/ontology/locationCountry
p2063
aVhttp://dbpedia.org/ontology/place
p2064
aVhttp://dbpedia.org/property/location
p2065
aVhttp://dbpedia.org/property/country
p2066
aVhttp://dbpedia.org/property/subdivisionName
p2067
aVhttp://dbpedia.org/property/areaServed
p2068
aVhttp://dbpedia.org/property/image
p2069
asI5
(lp2070
sI6
(lp2071
sI7
(lp2072
sI8
(lp2073
ssI2
(dp2074
I0
g1987
sI1
g2049
sI2
(lp2075
sI3
(lp2076
sI4
(lp2077
sI5
(lp2078
sI6
(lp2079
sI7
(lp2080
sI8
(lp2081
ssI3
(dp2082
I0
g1988
sI1
g2050
sI2
g2076
sI3
(lp2083
sI4
(lp2084
sI5
(lp2085
sI6
(lp2086
sI7
(lp2087
sI8
(lp2088
ssI4
(dp2089
I0
g1989
sI1
g2051
sI2
g2077
sI3
g2084
sI4
(lp2090
sI5
(lp2091
Vhttp://www.w3.org/2000/01/rdf-schema#seeAlso
p2092
aVhttp://dbpedia.org/ontology/wikiPageExternalLink
p2093
aVhttp://dbpedia.org/property/locale
p2094
aVhttp://www.w3.org/2000/01/rdf-schema#comment
p2095
aVhttp://dbpedia.org/ontology/country
p2096
aVhttp://dbpedia.org/ontology/abstract
p2097
aVhttp://dbpedia.org/property/place
p2098
aVhttp://dbpedia.org/property/location
p2099
aVhttp://dbpedia.org/property/city
p2100
aVhttp://dbpedia.org/ontology/locationCountry
p2101
aVhttp://dbpedia.org/ontology/city
p2102
aVhttp://dbpedia.org/property/country
p2103
aVhttp://dbpedia.org/property/fullname
p2104
aVhttp://dbpedia.org/property/caption
p2105
aVhttp://dbpedia.org/property/subdivisionName
p2106
aVhttp://dbpedia.org/ontology/location
p2107
asI6
(lp2108
sI7
(lp2109
sI8
(lp2110
Vhttp://www.w3.org/2000/01/rdf-schema#seeAlso
p2111
aVhttp://dbpedia.org/property/text
p2112
aVhttp://dbpedia.org/property/membership
p2113
aVhttp://dbpedia.org/ontology/battle
p2114
aVhttp://dbpedia.org/property/caption
p2115
aVhttp://dbpedia.org/property/rd2t3Loc
p2116
aVhttp://dbpedia.org/property/rd1t4Loc
p2117
aVhttp://dbpedia.org/ontology/country
p2118
aVhttp://dbpedia.org/property/timeZone
p2119
aVhttp://dbpedia.org/property/image
p2120
aVhttp://dbpedia.org/ontology/wikiPageExternalLink
p2121
aVhttp://purl.org/dc/terms/subject
p2122
aVhttp://dbpedia.org/ontology/abstract
p2123
aVhttp://dbpedia.org/property/location
p2124
aVhttp://dbpedia.org/property/timeZoneDst
p2125
aVhttp://dbpedia.org/property/rd1t6Loc
p2126
aVhttp://dbpedia.org/property/imageMap
p2127
aVhttp://dbpedia.org/ontology/location
p2128
aVhttp://www.w3.org/2000/01/rdf-schema#comment
p2129
aVhttp://dbpedia.org/ontology/timeZone
p2130
aVhttp://dbpedia.org/property/countries
p2131
aVhttp://dbpedia.org/property/rd3t1Loc
p2132
aVhttp://dbpedia.org/property/stadium
p2133
aVhttp://dbpedia.org/property/battles
p2134
aVhttp://www.w3.org/2002/07/owl#sameAs
p2135
assI5
(dp2136
I0
g2043
sI1
g2070
sI2
g2078
sI3
g2085
sI4
g2091
sI5
(lp2137
sI6
(lp2138
sI7
(lp2139
sI8
(lp2140
ssI6
(dp2141
I0
g2044
sI1
g2071
sI2
g2079
sI3
g2086
sI4
g2108
sI5
g2138
sI6
(lp2142
sI7
(lp2143
sI8
(lp2144
ssI7
(dp2145
I0
g2045
sI1
g2072
sI2
g2080
sI3
g2087
sI4
g2109
sI5
g2139
sI6
g2143
sI7
(lp2146
sI8
(lp2147
ssI8
(dp2148
I0
g2046
sI1
g2073
sI2
g2081
sI3
g2088
sI4
g2110
sI5
g2140
sI6
g2144
sI7
g2147
sI8
(lp2149
ssa(dp2150
I0
(dp2151
I0
(lp2152
sI1
(lp2153
sI2
(lp2154
sI3
(lp2155
sI4
(lp2156
sI5
(lp2157
sI6
(lp2158
sI7
(lp2159
sI8
(lp2160
ssI1
(dp2161
I0
g2153
sI1
(lp2162
sI2
(lp2163
sI3
(lp2164
sI4
(lp2165
sI5
(lp2166
sI6
(lp2167
sI7
(lp2168
sI8
(lp2169
ssI2
(dp2170
I0
g2154
sI1
g2163
sI2
(lp2171
sI3
(lp2172
sI4
(lp2173
sI5
(lp2174
sI6
(lp2175
sI7
(lp2176
sI8
(lp2177
ssI3
(dp2178
I1
g2164
sI2
g2172
sI3
(lp2179
sI4
(lp2180
sI5
(lp2181
sI6
(lp2182
sI7
(lp2183
sI8
(lp2184
ssI4
(dp2185
I0
g2156
sI1
g2165
sI2
g2173
sI3
g2180
sI4
(lp2186
sI5
(lp2187
sI6
(lp2188
sI7
(lp2189
sI8
(lp2190
ssI5
(dp2191
I0
g2157
sI1
g2166
sI2
g2174
sI3
g2181
sI4
g2187
sI5
(lp2192
sI6
(lp2193
sI7
(lp2194
sI8
(lp2195
ssI6
(dp2196
I0
g2158
sI1
g2167
sI2
g2175
sI3
g2182
sI4
g2188
sI5
g2193
sI6
(lp2197
sI7
(lp2198
sI8
(lp2199
ssI7
(dp2200
I0
g2159
sI1
g2168
sI2
g2176
sI3
g2183
sI4
g2189
sI5
g2194
sI6
g2198
sI7
(lp2201
sI8
(lp2202
ssI8
(dp2203
I0
g2160
sI1
g2169
sI2
g2177
sI3
g2184
sI4
g2190
sI5
g2195
sI6
g2199
sI7
g2202
sI8
(lp2204
ssa(dp2205
I0
(dp2206
I0
(lp2207
sI1
(lp2208
sI2
(lp2209
sI3
(lp2210
sI4
(lp2211
sI5
(lp2212
sI6
(lp2213
sI7
(lp2214
sI8
(lp2215
ssI1
(dp2216
I0
g2208
sI1
(lp2217
sI2
(lp2218
sI3
(lp2219
sI4
(lp2220
sI5
(lp2221
sI6
(lp2222
sI7
(lp2223
sI8
(lp2224
ssI2
(dp2225
I0
g2209
sI1
g2218
sI2
(lp2226
sI3
(lp2227
sI4
(lp2228
sI5
(lp2229
sI6
(lp2230
sI7
(lp2231
sI8
(lp2232
ssI3
(dp2233
I0
g2210
sI1
g2219
sI2
g2227
sI3
(lp2234
sI4
(lp2235
sI5
(lp2236
sI6
(lp2237
sI7
(lp2238
sI8
(lp2239
ssI4
(dp2240
I0
g2211
sI1
g2220
sI2
g2228
sI3
g2235
sI4
(lp2241
sI5
(lp2242
sI6
(lp2243
sI7
(lp2244
sI8
(lp2245
ssI5
(dp2246
I0
g2212
sI1
g2221
sI2
g2229
sI3
g2236
sI4
g2242
sI5
(lp2247
sI6
(lp2248
sI7
(lp2249
sI8
(lp2250
ssI6
(dp2251
I0
g2213
sI1
g2222
sI2
g2230
sI3
g2237
sI4
g2243
sI5
g2248
sI6
(lp2252
sI7
(lp2253
sI8
(lp2254
ssI7
(dp2255
I0
g2214
sI1
g2223
sI2
g2231
sI3
g2238
sI4
g2244
sI5
g2249
sI6
g2253
sI7
(lp2256
sI8
(lp2257
ssI8
(dp2258
I0
g2215
sI1
g2224
sI2
g2232
sI3
g2239
sI4
g2245
sI5
g2250
sI6
g2254
sI7
g2257
sI8
(lp2259
ssa.