ccollections
defaultdict
p1
(c__builtin__
dict
p2
tRp3
I0
(dp4
I0
(lp5
Vhttp://dbpedia.org/ontology/wikiPageExternalLink
p6
aVhttp://dbpedia.org/ontology/associatedMusicalArtist
p7
aVhttp://www.w3.org/1999/02/22-rdf-syntax-ns#type
p8
aVhttp://www.w3.org/2000/01/rdf-schema#comment
p9
aVhttp://dbpedia.org/ontology/abstract
p10
aVhttp://dbpedia.org/property/wordnet_type
p11
aVhttp://purl.org/voc/vrank#hasRank
p12
aVhttp://dbpedia.org/ontology/associatedBand
p13
asI1
(lp14
sI3
(lp15
sI4
(lp16
sI5
(lp17
ssI1
(dp18
I0
(lp19
Vhttp://dbpedia.org/ontology/wikiPageExternalLink
p20
aVhttp://www.w3.org/1999/02/22-rdf-syntax-ns#type
p21
aVhttp://www.w3.org/2000/01/rdf-schema#comment
p22
aVhttp://dbpedia.org/ontology/abstract
p23
aVhttp://dbpedia.org/property/extra
p24
aVhttp://dbpedia.org/property/wordnet_type
p25
aVhttp://purl.org/voc/vrank#hasRank
p26
aVhttp://dbpedia.org/property/artist
p27
aVhttp://www.w3.org/ns/prov#wasDerivedFrom
p28
asI1
(lp29
sI3
(lp30
sI4
(lp31
sI5
(lp32
ssI2
(dp33
I0
(lp34
Vhttp://dbpedia.org/ontology/wikiPageExternalLink
p35
aVhttp://dbpedia.org/ontology/associatedMusicalArtist
p36
aVhttp://www.w3.org/1999/02/22-rdf-syntax-ns#type
p37
aVhttp://dbpedia.org/property/wordnet_type
p38
aVhttp://dbpedia.org/ontology/thumbnail
p39
aVhttp://dbpedia.org/property/artist
p40
aVhttp://www.w3.org/ns/prov#wasDerivedFrom
p41
aVhttp://dbpedia.org/property/hasPhotoCollection
p42
aVhttp://dbpedia.org/ontology/associatedBand
p43
aVhttp://www.w3.org/2002/07/owl#sameAs
p44
asI1
(lp45
sI3
(lp46
sI4
(lp47
sI5
(lp48
ssI3
(dp49
I0
(lp50
Vhttp://dbpedia.org/ontology/wikiPageExternalLink
p51
aVhttp://www.w3.org/1999/02/22-rdf-syntax-ns#type
p52
aVhttp://www.w3.org/2000/01/rdf-schema#comment
p53
aVhttp://dbpedia.org/ontology/abstract
p54
aVhttp://www.w3.org/ns/prov#wasDerivedFrom
p55
aVhttp://www.w3.org/2002/07/owl#sameAs
p56
asI1
(lp57
sI3
(lp58
sI4
(lp59
sI5
(lp60
ssI4
(dp61
I0
(lp62
Vhttp://dbpedia.org/ontology/wikiPageExternalLink
p63
aVhttp://www.w3.org/1999/02/22-rdf-syntax-ns#type
p64
aVhttp://dbpedia.org/ontology/artist
p65
aVhttp://dbpedia.org/property/artist
p66
aVhttp://www.w3.org/ns/prov#wasDerivedFrom
p67
aVhttp://dbpedia.org/property/hasPhotoCollection
p68
asI1
(lp69
sI3
(lp70
sI4
(lp71
sI5
(lp72
ssI5
(dp73
I0
(lp74
Vhttp://www.w3.org/1999/02/22-rdf-syntax-ns#type
p75
aVhttp://dbpedia.org/ontology/artist
p76
aVhttp://dbpedia.org/property/wordnet_type
p77
aVhttp://purl.org/voc/vrank#hasRank
p78
aVhttp://dbpedia.org/property/artist
p79
aVhttp://www.w3.org/ns/prov#wasDerivedFrom
p80
aVhttp://dbpedia.org/property/extra
p81
aVhttp://www.w3.org/2002/07/owl#sameAs
p82
asI1
(lp83
sI3
(lp84
sI4
(lp85
sI5
(lp86
ssI6
(dp87
I0
(lp88
Vhttp://dbpedia.org/ontology/wikiPageExternalLink
p89
aVhttp://www.w3.org/1999/02/22-rdf-syntax-ns#type
p90
asI1
(lp91
sI3
(lp92
sI4
(lp93
sI5
(lp94
ssI7
(dp95
I0
(lp96
Vhttp://www.w3.org/ns/prov#wasDerivedFrom
p97
aVhttp://dbpedia.org/ontology/abstract
p98
aVhttp://www.w3.org/1999/02/22-rdf-syntax-ns#type
p99
aVhttp://www.w3.org/2002/07/owl#sameAs
p100
aVhttp://dbpedia.org/property/artist
p101
asI1
(lp102
sI3
(lp103
sI4
(lp104
sI5
(lp105
ssI8
(dp106
I0
(lp107
Vhttp://purl.org/voc/vrank#hasRank
p108
aVhttp://www.w3.org/1999/02/22-rdf-syntax-ns#type
p109
aVhttp://dbpedia.org/property/artist
p110
asI1
(lp111
sI3
(lp112
sI4
(lp113
sI5
(lp114
ssI9
(dp115
I0
(lp116
Vhttp://www.w3.org/1999/02/22-rdf-syntax-ns#type
p117
asI1
(lp118
sI3
(lp119
sI4
(lp120
sI5
(lp121
ssI10
(dp122
I0
(lp123
Vhttp://dbpedia.org/ontology/associatedMusicalArtist
p124
aVhttp://dbpedia.org/ontology/associatedBand
p125
asI1
(lp126
sI3
(lp127
sI4
(lp128
sI5
(lp129
ssI11
(dp130
I0
(lp131
Vhttp://dbpedia.org/ontology/abstract
p132
aVhttp://www.w3.org/1999/02/22-rdf-syntax-ns#type
p133
aVhttp://www.w3.org/2000/01/rdf-schema#comment
p134
asI1
(lp135
sI3
(lp136
sI4
(lp137
sI5
(lp138
ssI12
(dp139
I0
(lp140
Vhttp://www.w3.org/1999/02/22-rdf-syntax-ns#type
p141
asI1
(lp142
sI3
(lp143
sI4
(lp144
sI5
(lp145
ssI13
(dp146
I0
(lp147
Vhttp://dbpedia.org/ontology/abstract
p148
aVhttp://www.w3.org/2000/01/rdf-schema#comment
p149
asI1
(lp150
sI3
(lp151
sI4
(lp152
sI5
(lp153
ss.