(lp1
(lp2
(lp3
a(lp4
a(lp5
((lp6
Vhttp://www.w3.org/2002/07/owl#Thing
p7
aVhttp://www.ontologydesignpatterns.org/ont/dul/DUL.owl#Agent
p8
aVhttp://www.ontologydesignpatterns.org/ont/dul/DUL.owl#SocialPerson
p9
aVhttp://www.wikidata.org/entity/Q215380
p10
aVhttp://www.wikidata.org/entity/Q43229
p11
aVhttp://dbpedia.org/ontology/Agent
p12
aVhttp://dbpedia.org/ontology/Band
p13
aVhttp://dbpedia.org/ontology/Group
p14
aVhttp://dbpedia.org/ontology/Organisation
p15
aVhttp://schema.org/MusicGroup
p16
aVhttp://schema.org/Organization
p17
aVhttp://umbel.org/umbel/rc/Band_MusicGroup
p18
aVhttp://umbel.org/umbel/rc/Organization
p19
aVhttp://dbpedia.org/class/yago/Abstraction100002137
p20
aVhttp://dbpedia.org/class/yago/DanceBand108249960
p21
aVhttp://dbpedia.org/class/yago/Group100031264
p22
aVhttp://dbpedia.org/class/yago/MusicalOrganization108246613
p23
aVhttp://dbpedia.org/class/yago/Organization108008335
p24
aVhttp://dbpedia.org/class/yago/RockGroup108250501
p25
aVhttp://dbpedia.org/class/yago/SocialGroup107950920
p26
aVhttp://dbpedia.org/class/yago/YagoLegalActorGeo
p27
aVhttp://dbpedia.org/class/yago/YagoPermanentlyLocatedEntity
p28
aVhttp://dbpedia.org/class/yago/MusicalGroupsFromSanDiego,California
p29
aVhttp://dbpedia.org/class/yago/YagoLegalActor
p30
aVhttp://dbpedia.org/class/yago/ReggaeRockGroups
p31
aVhttp://dbpedia.org/resource/Slightly_Stoopid
tp32
aa(lp33
a(lp34
a(lp35
aa(lp36
(lp37
a(lp38
a(lp39
((lp40
Vhttp://www.w3.org/2002/07/owl#Thing
p41
aVhttp://www.ontologydesignpatterns.org/ont/dul/DUL.owl#Agent
p42
aVhttp://www.ontologydesignpatterns.org/ont/dul/DUL.owl#SocialPerson
p43
aVhttp://www.wikidata.org/entity/Q215380
p44
aVhttp://www.wikidata.org/entity/Q43229
p45
aVhttp://dbpedia.org/ontology/Agent
p46
aVhttp://dbpedia.org/ontology/Band
p47
aVhttp://dbpedia.org/ontology/Group
p48
aVhttp://dbpedia.org/ontology/Organisation
p49
aVhttp://schema.org/MusicGroup
p50
aVhttp://schema.org/Organization
p51
aVhttp://umbel.org/umbel/rc/Band_MusicGroup
p52
aVhttp://umbel.org/umbel/rc/Organization
p53
aVhttp://dbpedia.org/class/yago/Abstraction100002137
p54
aVhttp://dbpedia.org/class/yago/DanceBand108249960
p55
aVhttp://dbpedia.org/class/yago/Group100031264
p56
aVhttp://dbpedia.org/class/yago/MusicalOrganization108246613
p57
aVhttp://dbpedia.org/class/yago/Organization108008335
p58
aVhttp://dbpedia.org/class/yago/RockGroup108250501
p59
aVhttp://dbpedia.org/class/yago/SocialGroup107950920
p60
aVhttp://dbpedia.org/class/yago/YagoLegalActorGeo
p61
aVhttp://dbpedia.org/class/yago/YagoPermanentlyLocatedEntity
p62
aVhttp://dbpedia.org/class/yago/MusicalGroupsFromSanDiego,California
p63
aVhttp://dbpedia.org/class/yago/YagoLegalActor
p64
aVhttp://dbpedia.org/class/yago/ReggaeRockGroups
p65
aVhttp://dbpedia.org/resource/Slightly_Stoopid
tp66
aa(lp67
a(lp68
a(lp69
aa(lp70
(lp71
a(lp72
a(lp73
((lp74
Vhttp://www.w3.org/2002/07/owl#Thing
p75
aVhttp://www.ontologydesignpatterns.org/ont/dul/DUL.owl#Agent
p76
aVhttp://www.ontologydesignpatterns.org/ont/dul/DUL.owl#SocialPerson
p77
aVhttp://www.wikidata.org/entity/Q215380
p78
aVhttp://www.wikidata.org/entity/Q43229
p79
aVhttp://dbpedia.org/ontology/Agent
p80
aVhttp://dbpedia.org/ontology/Band
p81
aVhttp://dbpedia.org/ontology/Group
p82
aVhttp://dbpedia.org/ontology/Organisation
p83
aVhttp://schema.org/MusicGroup
p84
aVhttp://schema.org/Organization
p85
aVhttp://umbel.org/umbel/rc/Band_MusicGroup
p86
aVhttp://umbel.org/umbel/rc/Organization
p87
aVhttp://dbpedia.org/class/yago/Abstraction100002137
p88
aVhttp://dbpedia.org/class/yago/DanceBand108249960
p89
aVhttp://dbpedia.org/class/yago/Group100031264
p90
aVhttp://dbpedia.org/class/yago/MusicalOrganization108246613
p91
aVhttp://dbpedia.org/class/yago/Organization108008335
p92
aVhttp://dbpedia.org/class/yago/RockGroup108250501
p93
aVhttp://dbpedia.org/class/yago/SocialGroup107950920
p94
aVhttp://dbpedia.org/class/yago/YagoLegalActorGeo
p95
aVhttp://dbpedia.org/class/yago/YagoPermanentlyLocatedEntity
p96
aVhttp://dbpedia.org/class/yago/MusicalGroupsFromSanDiego,California
p97
aVhttp://dbpedia.org/class/yago/YagoLegalActor
p98
aVhttp://dbpedia.org/class/yago/ReggaeRockGroups
p99
aVhttp://dbpedia.org/resource/Slightly_Stoopid
tp100
aa(lp101
a(lp102
a(lp103
aa(lp104
(lp105
a(lp106
a(lp107
((lp108
Vhttp://www.w3.org/2002/07/owl#Thing
p109
aVhttp://www.ontologydesignpatterns.org/ont/dul/DUL.owl#Agent
p110
aVhttp://www.ontologydesignpatterns.org/ont/dul/DUL.owl#SocialPerson
p111
aVhttp://www.wikidata.org/entity/Q215380
p112
aVhttp://www.wikidata.org/entity/Q43229
p113
aVhttp://dbpedia.org/ontology/Agent
p114
aVhttp://dbpedia.org/ontology/Band
p115
aVhttp://dbpedia.org/ontology/Group
p116
aVhttp://dbpedia.org/ontology/Organisation
p117
aVhttp://schema.org/MusicGroup
p118
aVhttp://schema.org/Organization
p119
aVhttp://umbel.org/umbel/rc/Band_MusicGroup
p120
aVhttp://umbel.org/umbel/rc/Organization
p121
aVhttp://dbpedia.org/class/yago/Abstraction100002137
p122
aVhttp://dbpedia.org/class/yago/DanceBand108249960
p123
aVhttp://dbpedia.org/class/yago/Group100031264
p124
aVhttp://dbpedia.org/class/yago/MusicalOrganization108246613
p125
aVhttp://dbpedia.org/class/yago/Organization108008335
p126
aVhttp://dbpedia.org/class/yago/RockGroup108250501
p127
aVhttp://dbpedia.org/class/yago/SocialGroup107950920
p128
aVhttp://dbpedia.org/class/yago/YagoLegalActorGeo
p129
aVhttp://dbpedia.org/class/yago/YagoPermanentlyLocatedEntity
p130
aVhttp://dbpedia.org/class/yago/MusicalGroupsFromSanDiego,California
p131
aVhttp://dbpedia.org/class/yago/YagoLegalActor
p132
aVhttp://dbpedia.org/class/yago/ReggaeRockGroups
p133
aVhttp://dbpedia.org/resource/Slightly_Stoopid
tp134
aa(lp135
a(lp136
a(lp137
aa(lp138
(lp139
a(lp140
a(lp141
((lp142
Vhttp://www.w3.org/2002/07/owl#Thing
p143
aVhttp://www.ontologydesignpatterns.org/ont/dul/DUL.owl#Agent
p144
aVhttp://www.ontologydesignpatterns.org/ont/dul/DUL.owl#SocialPerson
p145
aVhttp://www.wikidata.org/entity/Q215380
p146
aVhttp://www.wikidata.org/entity/Q43229
p147
aVhttp://dbpedia.org/ontology/Agent
p148
aVhttp://dbpedia.org/ontology/Band
p149
aVhttp://dbpedia.org/ontology/Group
p150
aVhttp://dbpedia.org/ontology/Organisation
p151
aVhttp://schema.org/MusicGroup
p152
aVhttp://schema.org/Organization
p153
aVhttp://umbel.org/umbel/rc/Band_MusicGroup
p154
aVhttp://umbel.org/umbel/rc/Organization
p155
aVhttp://dbpedia.org/class/yago/Abstraction100002137
p156
aVhttp://dbpedia.org/class/yago/DanceBand108249960
p157
aVhttp://dbpedia.org/class/yago/Group100031264
p158
aVhttp://dbpedia.org/class/yago/MusicalOrganization108246613
p159
aVhttp://dbpedia.org/class/yago/Organization108008335
p160
aVhttp://dbpedia.org/class/yago/RockGroup108250501
p161
aVhttp://dbpedia.org/class/yago/SocialGroup107950920
p162
aVhttp://dbpedia.org/class/yago/YagoLegalActorGeo
p163
aVhttp://dbpedia.org/class/yago/YagoPermanentlyLocatedEntity
p164
aVhttp://dbpedia.org/class/yago/MusicalGroupsFromSanDiego,California
p165
aVhttp://dbpedia.org/class/yago/YagoLegalActor
p166
aVhttp://dbpedia.org/class/yago/ReggaeRockGroups
p167
aVhttp://dbpedia.org/resource/Slightly_Stoopid
tp168
aa(lp169
a(lp170
a(lp171
aa(lp172
(lp173
a(lp174
a(lp175
((lp176
Vhttp://www.w3.org/2002/07/owl#Thing
p177
aVhttp://www.ontologydesignpatterns.org/ont/dul/DUL.owl#Agent
p178
aVhttp://www.ontologydesignpatterns.org/ont/dul/DUL.owl#SocialPerson
p179
aVhttp://www.wikidata.org/entity/Q215380
p180
aVhttp://www.wikidata.org/entity/Q43229
p181
aVhttp://dbpedia.org/ontology/Agent
p182
aVhttp://dbpedia.org/ontology/Band
p183
aVhttp://dbpedia.org/ontology/Group
p184
aVhttp://dbpedia.org/ontology/Organisation
p185
aVhttp://schema.org/MusicGroup
p186
aVhttp://schema.org/Organization
p187
aVhttp://umbel.org/umbel/rc/Band_MusicGroup
p188
aVhttp://umbel.org/umbel/rc/Organization
p189
aVhttp://dbpedia.org/class/yago/Abstraction100002137
p190
aVhttp://dbpedia.org/class/yago/DanceBand108249960
p191
aVhttp://dbpedia.org/class/yago/Group100031264
p192
aVhttp://dbpedia.org/class/yago/MusicalOrganization108246613
p193
aVhttp://dbpedia.org/class/yago/Organization108008335
p194
aVhttp://dbpedia.org/class/yago/RockGroup108250501
p195
aVhttp://dbpedia.org/class/yago/SocialGroup107950920
p196
aVhttp://dbpedia.org/class/yago/YagoLegalActorGeo
p197
aVhttp://dbpedia.org/class/yago/YagoPermanentlyLocatedEntity
p198
aVhttp://dbpedia.org/class/yago/MusicalGroupsFromSanDiego,California
p199
aVhttp://dbpedia.org/class/yago/YagoLegalActor
p200
aVhttp://dbpedia.org/class/yago/ReggaeRockGroups
p201
aVhttp://dbpedia.org/resource/Slightly_Stoopid
tp202
aa(lp203
a(lp204
a(lp205
aa(lp206
(lp207
a(lp208
a(lp209
((lp210
Vhttp://www.w3.org/2002/07/owl#Thing
p211
aVhttp://www.ontologydesignpatterns.org/ont/dul/DUL.owl#Agent
p212
aVhttp://www.ontologydesignpatterns.org/ont/dul/DUL.owl#SocialPerson
p213
aVhttp://www.wikidata.org/entity/Q215380
p214
aVhttp://www.wikidata.org/entity/Q43229
p215
aVhttp://dbpedia.org/ontology/Agent
p216
aVhttp://dbpedia.org/ontology/Band
p217
aVhttp://dbpedia.org/ontology/Group
p218
aVhttp://dbpedia.org/ontology/Organisation
p219
aVhttp://schema.org/MusicGroup
p220
aVhttp://schema.org/Organization
p221
aVhttp://umbel.org/umbel/rc/Band_MusicGroup
p222
aVhttp://umbel.org/umbel/rc/Organization
p223
aVhttp://dbpedia.org/class/yago/Abstraction100002137
p224
aVhttp://dbpedia.org/class/yago/DanceBand108249960
p225
aVhttp://dbpedia.org/class/yago/Group100031264
p226
aVhttp://dbpedia.org/class/yago/MusicalOrganization108246613
p227
aVhttp://dbpedia.org/class/yago/Organization108008335
p228
aVhttp://dbpedia.org/class/yago/RockGroup108250501
p229
aVhttp://dbpedia.org/class/yago/SocialGroup107950920
p230
aVhttp://dbpedia.org/class/yago/YagoLegalActorGeo
p231
aVhttp://dbpedia.org/class/yago/YagoPermanentlyLocatedEntity
p232
aVhttp://dbpedia.org/class/yago/MusicalGroupsFromSanDiego,California
p233
aVhttp://dbpedia.org/class/yago/YagoLegalActor
p234
aVhttp://dbpedia.org/class/yago/ReggaeRockGroups
p235
aVhttp://dbpedia.org/resource/Slightly_Stoopid
tp236
aa(lp237
a(lp238
a(lp239
aa(lp240
(lp241
a(lp242
a(lp243
((lp244
Vhttp://www.w3.org/2002/07/owl#Thing
p245
aVhttp://www.ontologydesignpatterns.org/ont/dul/DUL.owl#Agent
p246
aVhttp://www.ontologydesignpatterns.org/ont/dul/DUL.owl#SocialPerson
p247
aVhttp://www.wikidata.org/entity/Q215380
p248
aVhttp://www.wikidata.org/entity/Q43229
p249
aVhttp://dbpedia.org/ontology/Agent
p250
aVhttp://dbpedia.org/ontology/Band
p251
aVhttp://dbpedia.org/ontology/Group
p252
aVhttp://dbpedia.org/ontology/Organisation
p253
aVhttp://schema.org/MusicGroup
p254
aVhttp://schema.org/Organization
p255
aVhttp://umbel.org/umbel/rc/Band_MusicGroup
p256
aVhttp://umbel.org/umbel/rc/Organization
p257
aVhttp://dbpedia.org/class/yago/Abstraction100002137
p258
aVhttp://dbpedia.org/class/yago/DanceBand108249960
p259
aVhttp://dbpedia.org/class/yago/Group100031264
p260
aVhttp://dbpedia.org/class/yago/MusicalOrganization108246613
p261
aVhttp://dbpedia.org/class/yago/Organization108008335
p262
aVhttp://dbpedia.org/class/yago/RockGroup108250501
p263
aVhttp://dbpedia.org/class/yago/SocialGroup107950920
p264
aVhttp://dbpedia.org/class/yago/YagoLegalActorGeo
p265
aVhttp://dbpedia.org/class/yago/YagoPermanentlyLocatedEntity
p266
aVhttp://dbpedia.org/class/yago/MusicalGroupsFromSanDiego,California
p267
aVhttp://dbpedia.org/class/yago/YagoLegalActor
p268
aVhttp://dbpedia.org/class/yago/ReggaeRockGroups
p269
aVhttp://dbpedia.org/resource/Slightly_Stoopid
tp270
aa(lp271
a(lp272
a(lp273
aa(lp274
(lp275
a(lp276
a(lp277
((lp278
Vhttp://www.w3.org/2002/07/owl#Thing
p279
aVhttp://www.ontologydesignpatterns.org/ont/dul/DUL.owl#Agent
p280
aVhttp://www.ontologydesignpatterns.org/ont/dul/DUL.owl#SocialPerson
p281
aVhttp://www.wikidata.org/entity/Q215380
p282
aVhttp://www.wikidata.org/entity/Q43229
p283
aVhttp://dbpedia.org/ontology/Agent
p284
aVhttp://dbpedia.org/ontology/Band
p285
aVhttp://dbpedia.org/ontology/Group
p286
aVhttp://dbpedia.org/ontology/Organisation
p287
aVhttp://schema.org/MusicGroup
p288
aVhttp://schema.org/Organization
p289
aVhttp://umbel.org/umbel/rc/Band_MusicGroup
p290
aVhttp://umbel.org/umbel/rc/Organization
p291
aVhttp://dbpedia.org/class/yago/Abstraction100002137
p292
aVhttp://dbpedia.org/class/yago/DanceBand108249960
p293
aVhttp://dbpedia.org/class/yago/Group100031264
p294
aVhttp://dbpedia.org/class/yago/MusicalOrganization108246613
p295
aVhttp://dbpedia.org/class/yago/Organization108008335
p296
aVhttp://dbpedia.org/class/yago/RockGroup108250501
p297
aVhttp://dbpedia.org/class/yago/SocialGroup107950920
p298
aVhttp://dbpedia.org/class/yago/YagoLegalActorGeo
p299
aVhttp://dbpedia.org/class/yago/YagoPermanentlyLocatedEntity
p300
aVhttp://dbpedia.org/class/yago/MusicalGroupsFromSanDiego,California
p301
aVhttp://dbpedia.org/class/yago/YagoLegalActor
p302
aVhttp://dbpedia.org/class/yago/ReggaeRockGroups
p303
aVhttp://dbpedia.org/resource/Slightly_Stoopid
tp304
aa(lp305
a(lp306
a(lp307
aa(lp308
(lp309
a(lp310
a(lp311
((lp312
Vhttp://www.w3.org/2002/07/owl#Thing
p313
aVhttp://www.ontologydesignpatterns.org/ont/dul/DUL.owl#Agent
p314
aVhttp://www.ontologydesignpatterns.org/ont/dul/DUL.owl#SocialPerson
p315
aVhttp://www.wikidata.org/entity/Q215380
p316
aVhttp://www.wikidata.org/entity/Q43229
p317
aVhttp://dbpedia.org/ontology/Agent
p318
aVhttp://dbpedia.org/ontology/Band
p319
aVhttp://dbpedia.org/ontology/Group
p320
aVhttp://dbpedia.org/ontology/Organisation
p321
aVhttp://schema.org/MusicGroup
p322
aVhttp://schema.org/Organization
p323
aVhttp://umbel.org/umbel/rc/Band_MusicGroup
p324
aVhttp://umbel.org/umbel/rc/Organization
p325
aVhttp://dbpedia.org/class/yago/Abstraction100002137
p326
aVhttp://dbpedia.org/class/yago/DanceBand108249960
p327
aVhttp://dbpedia.org/class/yago/Group100031264
p328
aVhttp://dbpedia.org/class/yago/MusicalOrganization108246613
p329
aVhttp://dbpedia.org/class/yago/Organization108008335
p330
aVhttp://dbpedia.org/class/yago/RockGroup108250501
p331
aVhttp://dbpedia.org/class/yago/SocialGroup107950920
p332
aVhttp://dbpedia.org/class/yago/YagoLegalActorGeo
p333
aVhttp://dbpedia.org/class/yago/YagoPermanentlyLocatedEntity
p334
aVhttp://dbpedia.org/class/yago/MusicalGroupsFromSanDiego,California
p335
aVhttp://dbpedia.org/class/yago/YagoLegalActor
p336
aVhttp://dbpedia.org/class/yago/ReggaeRockGroups
p337
aVhttp://dbpedia.org/resource/Slightly_Stoopid
tp338
aa(lp339
a(lp340
a(lp341
aa(lp342
(lp343
a(lp344
a(lp345
((lp346
Vhttp://www.w3.org/2002/07/owl#Thing
p347
aVhttp://www.ontologydesignpatterns.org/ont/dul/DUL.owl#Agent
p348
aVhttp://www.ontologydesignpatterns.org/ont/dul/DUL.owl#SocialPerson
p349
aVhttp://www.wikidata.org/entity/Q215380
p350
aVhttp://www.wikidata.org/entity/Q43229
p351
aVhttp://dbpedia.org/ontology/Agent
p352
aVhttp://dbpedia.org/ontology/Band
p353
aVhttp://dbpedia.org/ontology/Group
p354
aVhttp://dbpedia.org/ontology/Organisation
p355
aVhttp://schema.org/MusicGroup
p356
aVhttp://schema.org/Organization
p357
aVhttp://umbel.org/umbel/rc/Band_MusicGroup
p358
aVhttp://umbel.org/umbel/rc/Organization
p359
aVhttp://dbpedia.org/class/yago/Abstraction100002137
p360
aVhttp://dbpedia.org/class/yago/DanceBand108249960
p361
aVhttp://dbpedia.org/class/yago/Group100031264
p362
aVhttp://dbpedia.org/class/yago/MusicalOrganization108246613
p363
aVhttp://dbpedia.org/class/yago/Organization108008335
p364
aVhttp://dbpedia.org/class/yago/RockGroup108250501
p365
aVhttp://dbpedia.org/class/yago/SocialGroup107950920
p366
aVhttp://dbpedia.org/class/yago/YagoLegalActorGeo
p367
aVhttp://dbpedia.org/class/yago/YagoPermanentlyLocatedEntity
p368
aVhttp://dbpedia.org/class/yago/MusicalGroupsFromSanDiego,California
p369
aVhttp://dbpedia.org/class/yago/YagoLegalActor
p370
aVhttp://dbpedia.org/class/yago/ReggaeRockGroups
p371
aVhttp://dbpedia.org/resource/Slightly_Stoopid
tp372
aa(lp373
a(lp374
a(lp375
aa(lp376
(lp377
a(lp378
a(lp379
((lp380
Vhttp://www.w3.org/2002/07/owl#Thing
p381
aVhttp://www.ontologydesignpatterns.org/ont/dul/DUL.owl#Agent
p382
aVhttp://www.ontologydesignpatterns.org/ont/dul/DUL.owl#SocialPerson
p383
aVhttp://www.wikidata.org/entity/Q215380
p384
aVhttp://www.wikidata.org/entity/Q43229
p385
aVhttp://dbpedia.org/ontology/Agent
p386
aVhttp://dbpedia.org/ontology/Band
p387
aVhttp://dbpedia.org/ontology/Group
p388
aVhttp://dbpedia.org/ontology/Organisation
p389
aVhttp://schema.org/MusicGroup
p390
aVhttp://schema.org/Organization
p391
aVhttp://umbel.org/umbel/rc/Band_MusicGroup
p392
aVhttp://umbel.org/umbel/rc/Organization
p393
aVhttp://dbpedia.org/class/yago/Abstraction100002137
p394
aVhttp://dbpedia.org/class/yago/DanceBand108249960
p395
aVhttp://dbpedia.org/class/yago/Group100031264
p396
aVhttp://dbpedia.org/class/yago/MusicalOrganization108246613
p397
aVhttp://dbpedia.org/class/yago/Organization108008335
p398
aVhttp://dbpedia.org/class/yago/RockGroup108250501
p399
aVhttp://dbpedia.org/class/yago/SocialGroup107950920
p400
aVhttp://dbpedia.org/class/yago/YagoLegalActorGeo
p401
aVhttp://dbpedia.org/class/yago/YagoPermanentlyLocatedEntity
p402
aVhttp://dbpedia.org/class/yago/MusicalGroupsFromSanDiego,California
p403
aVhttp://dbpedia.org/class/yago/YagoLegalActor
p404
aVhttp://dbpedia.org/class/yago/ReggaeRockGroups
p405
aVhttp://dbpedia.org/resource/Slightly_Stoopid
tp406
aa(lp407
a(lp408
a(lp409
aa(lp410
(lp411
a(lp412
a(lp413
((lp414
Vhttp://www.w3.org/2002/07/owl#Thing
p415
aVhttp://www.ontologydesignpatterns.org/ont/dul/DUL.owl#Agent
p416
aVhttp://www.ontologydesignpatterns.org/ont/dul/DUL.owl#SocialPerson
p417
aVhttp://www.wikidata.org/entity/Q215380
p418
aVhttp://www.wikidata.org/entity/Q43229
p419
aVhttp://dbpedia.org/ontology/Agent
p420
aVhttp://dbpedia.org/ontology/Band
p421
aVhttp://dbpedia.org/ontology/Group
p422
aVhttp://dbpedia.org/ontology/Organisation
p423
aVhttp://schema.org/MusicGroup
p424
aVhttp://schema.org/Organization
p425
aVhttp://umbel.org/umbel/rc/Band_MusicGroup
p426
aVhttp://umbel.org/umbel/rc/Organization
p427
aVhttp://dbpedia.org/class/yago/Abstraction100002137
p428
aVhttp://dbpedia.org/class/yago/DanceBand108249960
p429
aVhttp://dbpedia.org/class/yago/Group100031264
p430
aVhttp://dbpedia.org/class/yago/MusicalOrganization108246613
p431
aVhttp://dbpedia.org/class/yago/Organization108008335
p432
aVhttp://dbpedia.org/class/yago/RockGroup108250501
p433
aVhttp://dbpedia.org/class/yago/SocialGroup107950920
p434
aVhttp://dbpedia.org/class/yago/YagoLegalActorGeo
p435
aVhttp://dbpedia.org/class/yago/YagoPermanentlyLocatedEntity
p436
aVhttp://dbpedia.org/class/yago/MusicalGroupsFromSanDiego,California
p437
aVhttp://dbpedia.org/class/yago/YagoLegalActor
p438
aVhttp://dbpedia.org/class/yago/ReggaeRockGroups
p439
aVhttp://dbpedia.org/resource/Slightly_Stoopid
tp440
aa(lp441
a(lp442
a(lp443
aa(lp444
(lp445
a(lp446
a(lp447
((lp448
Vhttp://www.w3.org/2002/07/owl#Thing
p449
aVhttp://www.ontologydesignpatterns.org/ont/dul/DUL.owl#Agent
p450
aVhttp://www.ontologydesignpatterns.org/ont/dul/DUL.owl#SocialPerson
p451
aVhttp://www.wikidata.org/entity/Q215380
p452
aVhttp://www.wikidata.org/entity/Q43229
p453
aVhttp://dbpedia.org/ontology/Agent
p454
aVhttp://dbpedia.org/ontology/Band
p455
aVhttp://dbpedia.org/ontology/Group
p456
aVhttp://dbpedia.org/ontology/Organisation
p457
aVhttp://schema.org/MusicGroup
p458
aVhttp://schema.org/Organization
p459
aVhttp://umbel.org/umbel/rc/Band_MusicGroup
p460
aVhttp://umbel.org/umbel/rc/Organization
p461
aVhttp://dbpedia.org/class/yago/Abstraction100002137
p462
aVhttp://dbpedia.org/class/yago/DanceBand108249960
p463
aVhttp://dbpedia.org/class/yago/Group100031264
p464
aVhttp://dbpedia.org/class/yago/MusicalOrganization108246613
p465
aVhttp://dbpedia.org/class/yago/Organization108008335
p466
aVhttp://dbpedia.org/class/yago/RockGroup108250501
p467
aVhttp://dbpedia.org/class/yago/SocialGroup107950920
p468
aVhttp://dbpedia.org/class/yago/YagoLegalActorGeo
p469
aVhttp://dbpedia.org/class/yago/YagoPermanentlyLocatedEntity
p470
aVhttp://dbpedia.org/class/yago/MusicalGroupsFromSanDiego,California
p471
aVhttp://dbpedia.org/class/yago/YagoLegalActor
p472
aVhttp://dbpedia.org/class/yago/ReggaeRockGroups
p473
aVhttp://dbpedia.org/resource/Slightly_Stoopid
p474
tp475
aa(lp476
a(lp477
a(lp478
aa.