(lp1
(lp2
(lp3
a(lp4
a(lp5
aa(lp6
(lp7
a(lp8
a(lp9
aa(lp10
(lp11
a(lp12
a(lp13
aa(lp14
(lp15
a(lp16
a(lp17
aa(lp18
(lp19
a(lp20
Vhttp://dbpedia.org/resource/Timecode
p21
aa(lp22
aa(lp23
(lp24
a(lp25
Vhttp://dbpedia.org/resource/Location_parameter
p26
aa(lp27
Vhttp://dbpedia.org/resource/London
p28
aaa(lp29
(lp30
a(lp31
a(lp32
aa(lp33
(lp34
a(lp35
Vhttp://dbpedia.org/resource/B5_(group)
p36
aa(lp37
Vhttp://dbpedia.org/resource/New_Order
p38
aaa(lp39
(lp40
a(lp41
Vhttp://dbpedia.org/resource/Color
p42
aa(lp43
Vhttp://dbpedia.org/resource/New_Order
p44
aaa(lp45
(lp46
a(lp47
Vhttp://dbpedia.org/resource/Heading
p48
aa(lp49
aa(lp50
(lp51
a(lp52
Vhttp://dbpedia.org/resource/Description
p53
aa(lp54
aa.