(lp1
(lp2
(dp3
Vstart
p4
I0
sVdisambiguatedURL
p5
NsVnamedEntity
p6
VThis clip is not available for streaming at this time.Please contact WPA.
p7
sVoffset
p8
I73
saa(lp9
(dp10
Vstart
p11
I0
sVdisambiguatedURL
p12
NsVnamedEntity
p13
VThis clip is not available for streaming at this time.Please contact WPA.
p14
sVoffset
p15
I73
saa(lp16
(dp17
Vstart
p18
I0
sVdisambiguatedURL
p19
NsVnamedEntity
p20
VThis clip is not available for streaming at this time.Please contact WPA.
p21
sVoffset
p22
I73
saa(lp23
(dp24
Vstart
p25
I0
sVdisambiguatedURL
p26
NsVnamedEntity
p27
VThis clip is not available for streaming at this time.Please contact WPA.
p28
sVoffset
p29
I73
saa(lp30
(dp31
Vstart
p32
I0
sVdisambiguatedURL
p33
NsVnamedEntity
p34
VThis clip is not available for streaming at this time.Please contact WPA.
p35
sVoffset
p36
I73
saa(lp37
(dp38
Vstart
p39
I0
sVdisambiguatedURL
p40
NsVnamedEntity
p41
VThis clip is not available for streaming at this time.Please contact WPA.
p42
sVoffset
p43
I73
saa(lp44
(dp45
Vstart
p46
I0
sVdisambiguatedURL
p47
NsVnamedEntity
p48
VThis clip is not available for streaming at this time.Please contact WPA.
p49
sVoffset
p50
I73
saa(lp51
(dp52
Vstart
p53
I0
sVdisambiguatedURL
p54
NsVnamedEntity
p55
VThis clip is not available for streaming at this time.Please contact WPA.
p56
sVoffset
p57
I73
saa(lp58
(dp59
Vstart
p60
I0
sVdisambiguatedURL
p61
NsVnamedEntity
p62
VThis clip is not available for streaming at this time.Please contact WPA.
p63
sVoffset
p64
I73
saa(lp65
(dp66
Vstart
p67
I0
sVdisambiguatedURL
p68
NsVnamedEntity
p69
VThis clip is not available for streaming at this time.Please contact WPA.
p70
sVoffset
p71
I73
saa(lp72
(dp73
Vstart
p74
I0
sVdisambiguatedURL
p75
NsVnamedEntity
p76
VThis clip is not available for streaming at this time.Please contact WPA.
p77
sVoffset
p78
I73
saa.