ccollections
defaultdict
p1
(c__builtin__
dict
p2
tRp3
I0
(dp4
I1
(lp5
sI2
(lp6
Vhttp://www.w3.org/ns/prov#wasDerivedFrom
p7
assI1
(dp8
I1
(lp9
sI2
(lp10
ssI2
(dp11
I1
(lp12
sI2
(lp13
Vhttp://www.w3.org/ns/prov#wasDerivedFrom
p14
assI3
(dp15
I1
(lp16
sI2
(lp17
ssI4
(dp18
I1
(lp19
sI2
(lp20
Vhttp://www.w3.org/ns/prov#wasDerivedFrom
p21
assI5
(dp22
I1
(lp23
sI2
(lp24
ssI6
(dp25
I1
(lp26
sI2
(lp27
ssI7
(dp28
I1
(lp29
sI2
(lp30
ssI8
(dp31
I1
(lp32
sI2
(lp33
Vhttp://www.w3.org/ns/prov#wasDerivedFrom
p34
assI9
(dp35
I1
(lp36
sI2
(lp37
ssI10
(dp38
I1
(lp39
sI2
(lp40
Vhttp://www.w3.org/ns/prov#wasDerivedFrom
p41
assI11
(dp42
I1
(lp43
sI2
(lp44
ssI12
(dp45
I1
(lp46
sI2
(lp47
ssI13
(dp48
I1
(lp49
sI2
(lp50
Vhttp://www.w3.org/ns/prov#wasDerivedFrom
p51
assI14
(dp52
I1
(lp53
sI2
(lp54
Vhttp://www.w3.org/ns/prov#wasDerivedFrom
p55
assI15
(dp56
I1
(lp57
sI2
(lp58
Vhttp://www.w3.org/ns/prov#wasDerivedFrom
p59
assI16
(dp60
I1
(lp61
sI2
(lp62
Vhttp://www.w3.org/ns/prov#wasDerivedFrom
p63
assI17
(dp64
I1
(lp65
sI2
(lp66
Vhttp://www.w3.org/ns/prov#wasDerivedFrom
p67
ass.