(lp1
(lp2
(lp3
Vhttp://dbpedia.org/resource/Samy_Deluxe
p4
aa(lp5
Vhttp://dbpedia.org/resource/Single_(cricket)
p6
aa(lp7
a(lp8
Vhttp://dbpedia.org/resource/Edgar_Allan_Poe
p9
aa(lp10
a(lp11
a(lp12
aa(lp13
(lp14
Vhttp://dbpedia.org/resource/Samy_Deluxe
p15
aa(lp16
Vhttp://dbpedia.org/resource/Double_(band)
p17
aa(lp18
a(lp19
Vhttp://dbpedia.org/resource/Edgar_Allan_Poe
p20
aa(lp21
a(lp22
a(lp23
aa(lp24
(lp25
Vhttp://dbpedia.org/resource/Samy_Deluxe
p26
aa(lp27
Vhttp://dbpedia.org/resource/Single_(cricket)
p28
aa(lp29
Vhttp://dbpedia.org/resource/AC
p30
aa(lp31
Vhttp://dbpedia.org/resource/Edgar_Allan_Poe
p32
aa(lp33
a(lp34
a(lp35
aa(lp36
(lp37
Vhttp://dbpedia.org/resource/Samy_Deluxe
p38
aa(lp39
Vhttp://dbpedia.org/resource/Double_(band)
p40
aa(lp41
Vhttp://dbpedia.org/resource/AC
p42
aa(lp43
Vhttp://dbpedia.org/resource/Edgar_Allan_Poe
p44
aa(lp45
a(lp46
a(lp47
aa(lp48
(lp49
Vhttp://dbpedia.org/resource/Super_Deluxe
p50
aa(lp51
Vhttp://dbpedia.org/resource/Single_(cricket)
p52
aa(lp53
Vhttp://dbpedia.org/resource/AC
p54
aa(lp55
Vhttp://dbpedia.org/resource/Edgar_Allan_Poe
p56
aa(lp57
a(lp58
a(lp59
aa(lp60
(lp61
Vhttp://dbpedia.org/resource/Super_Deluxe
p62
aa(lp63
Vhttp://dbpedia.org/resource/Double_(band)
p64
aa(lp65
Vhttp://dbpedia.org/resource/AC
p66
aa(lp67
Vhttp://dbpedia.org/resource/Edgar_Allan_Poe
p68
aa(lp69
a(lp70
a(lp71
aa.