(lp1
(lp2
(lp3
a(lp4
a(lp5
a(lp6
a(lp7
aa(lp8
(lp9
a(lp10
a(lp11
a(lp12
a(lp13
aa(lp14
(lp15
a(lp16
a(lp17
((lp18
Vhttp://www.w3.org/2002/07/owl#Thing
p19
aVhttp://xmlns.com/foaf/0.1/Person
p20
aVhttp://dbpedia.org/ontology/Person
p21
aVhttp://www.ontologydesignpatterns.org/ont/dul/DUL.owl#Agent
p22
aVhttp://www.ontologydesignpatterns.org/ont/dul/DUL.owl#NaturalPerson
p23
aVhttp://www.wikidata.org/entity/Q215627
p24
aVhttp://www.wikidata.org/entity/Q5
p25
aVhttp://dbpedia.org/ontology/Agent
p26
aVhttp://schema.org/Person
p27
aVhttp://umbel.org/umbel/rc/Monarch_HeadOfState
p28
aVhttp://umbel.org/umbel/rc/PersonWithOccupation
p29
aVhttp://dbpedia.org/class/yago/2nd-centuryRomanEmperors
p30
aVhttp://dbpedia.org/class/yago/CausalAgent100007347
p31
aVhttp://dbpedia.org/class/yago/Communicator109610660
p32
aVhttp://dbpedia.org/class/yago/Consul109959797
p33
aVhttp://dbpedia.org/class/yago/Diplomat110013927
p34
aVhttp://dbpedia.org/class/yago/Emperor110053004
p35
aVhttp://dbpedia.org/class/yago/HeadOfState110164747
p36
aVhttp://dbpedia.org/class/yago/LivingThing100004258
p37
aVhttp://dbpedia.org/class/yago/Negotiator110351874
p38
aVhttp://dbpedia.org/class/yago/Object100002684
p39
aVhttp://dbpedia.org/class/yago/Official110372373
p40
aVhttp://dbpedia.org/class/yago/Organism100004475
p41
aVhttp://dbpedia.org/class/yago/Person100007846
p42
aVhttp://dbpedia.org/class/yago/Representative110522035
p43
aVhttp://dbpedia.org/class/yago/Ruler110541229
p44
aVhttp://dbpedia.org/class/yago/SkilledWorker110605985
p45
aVhttp://dbpedia.org/class/yago/Sovereign110628644
p46
aVhttp://dbpedia.org/class/yago/Whole100003553
p47
aVhttp://dbpedia.org/class/yago/Worker109632518
p48
aVhttp://dbpedia.org/class/yago/YagoLegalActorGeo
p49
aVhttp://dbpedia.org/class/yago/DeifiedRomanEmperors
p50
aVhttp://dbpedia.org/class/yago/PhysicalEntity100001930
p51
aVhttp://dbpedia.org/class/yago/ImperialRomanConsuls
p52
aVhttp://dbpedia.org/class/yago/PeopleFromTheProvinceOfRome
p53
aVhttp://dbpedia.org/class/yago/YagoLegalActor
p54
aVhttp://dbpedia.org/class/yago/RomanEmperorsMurderedByThePraetorianGuard
p55
aVhttp://dbpedia.org/class/yago/RomanEmperorsToSufferPosthumousDenigrationOrDamnatioMemoriae
p56
aVhttp://dbpedia.org/resource/Commodus
tp57
aa(lp58
a(lp59
aa(lp60
(lp61
a(lp62
a(lp63
((lp64
Vhttp://www.w3.org/2002/07/owl#Thing
p65
aVhttp://xmlns.com/foaf/0.1/Person
p66
aVhttp://dbpedia.org/ontology/Person
p67
aVhttp://www.ontologydesignpatterns.org/ont/dul/DUL.owl#Agent
p68
aVhttp://www.ontologydesignpatterns.org/ont/dul/DUL.owl#NaturalPerson
p69
aVhttp://www.wikidata.org/entity/Q116
p70
aVhttp://www.wikidata.org/entity/Q215627
p71
aVhttp://www.wikidata.org/entity/Q5
p72
aVhttp://dbpedia.org/ontology/Agent
p73
aVhttp://dbpedia.org/ontology/Monarch
p74
aVhttp://schema.org/Person
p75
aVhttp://umbel.org/umbel/rc/Monarch_HeadOfState
p76
aVhttp://umbel.org/umbel/rc/PersonWithOccupation
p77
aVhttp://dbpedia.org/class/yago/2nd-centuryRomanEmperors
p78
aVhttp://dbpedia.org/class/yago/CausalAgent100007347
p79
aVhttp://dbpedia.org/class/yago/Communicator109610660
p80
aVhttp://dbpedia.org/class/yago/Consul109959797
p81
aVhttp://dbpedia.org/class/yago/Diplomat110013927
p82
aVhttp://dbpedia.org/class/yago/Emperor110053004
p83
aVhttp://dbpedia.org/class/yago/Governor110140314
p84
aVhttp://dbpedia.org/class/yago/HeadOfState110164747
p85
aVhttp://dbpedia.org/class/yago/Leader109623038
p86
aVhttp://dbpedia.org/class/yago/LivingThing100004258
p87
aVhttp://dbpedia.org/class/yago/Negotiator110351874
p88
aVhttp://dbpedia.org/class/yago/Object100002684
p89
aVhttp://dbpedia.org/class/yago/Official110372373
p90
aVhttp://dbpedia.org/class/yago/Organism100004475
p91
aVhttp://dbpedia.org/class/yago/Person100007846
p92
aVhttp://dbpedia.org/class/yago/Politician110451263
p93
aVhttp://dbpedia.org/class/yago/Representative110522035
p94
aVhttp://dbpedia.org/class/yago/Ruler110541229
p95
aVhttp://dbpedia.org/class/yago/SkilledWorker110605985
p96
aVhttp://dbpedia.org/class/yago/Sovereign110628644
p97
aVhttp://dbpedia.org/class/yago/Whole100003553
p98
aVhttp://dbpedia.org/class/yago/Worker109632518
p99
aVhttp://dbpedia.org/class/yago/YagoLegalActorGeo
p100
aVhttp://dbpedia.org/class/yago/DeifiedRomanEmperors
p101
aVhttp://dbpedia.org/class/yago/PhysicalEntity100001930
p102
aVhttp://dbpedia.org/class/yago/ImperialRomanConsuls
p103
aVhttp://dbpedia.org/class/yago/PeopleFromAlba,Piedmont
p104
aVhttp://dbpedia.org/class/yago/YagoLegalActor
p105
aVhttp://dbpedia.org/class/yago/RomanEmperorsMurderedByThePraetorianGuard
p106
aVhttp://dbpedia.org/class/yago/RomanGovernorsOfBritain
p107
aVhttp://dbpedia.org/class/yago/RomanGovernorsOfLowerMoesia
p108
aVhttp://dbpedia.org/resource/Pertinax
tp109
aa(lp110
a(lp111
aa(lp112
(lp113
a(lp114
a(lp115
((lp116
Vhttp://www.w3.org/2002/07/owl#Thing
p117
aVhttp://xmlns.com/foaf/0.1/Person
p118
aVhttp://dbpedia.org/ontology/Person
p119
aVhttp://www.ontologydesignpatterns.org/ont/dul/DUL.owl#Agent
p120
aVhttp://www.ontologydesignpatterns.org/ont/dul/DUL.owl#NaturalPerson
p121
aVhttp://www.wikidata.org/entity/Q215627
p122
aVhttp://www.wikidata.org/entity/Q5
p123
aVhttp://dbpedia.org/ontology/Agent
p124
aVhttp://schema.org/Person
p125
aVhttp://umbel.org/umbel/rc/Monarch_HeadOfState
p126
aVhttp://umbel.org/umbel/rc/PersonWithOccupation
p127
aVhttp://dbpedia.org/class/yago/2nd-centuryRomanEmperors
p128
aVhttp://dbpedia.org/class/yago/CausalAgent100007347
p129
aVhttp://dbpedia.org/class/yago/Communicator109610660
p130
aVhttp://dbpedia.org/class/yago/Consul109959797
p131
aVhttp://dbpedia.org/class/yago/Diplomat110013927
p132
aVhttp://dbpedia.org/class/yago/Emperor110053004
p133
aVhttp://dbpedia.org/class/yago/Governor110140314
p134
aVhttp://dbpedia.org/class/yago/HeadOfState110164747
p135
aVhttp://dbpedia.org/class/yago/Leader109623038
p136
aVhttp://dbpedia.org/class/yago/LivingThing100004258
p137
aVhttp://dbpedia.org/class/yago/Negotiator110351874
p138
aVhttp://dbpedia.org/class/yago/Object100002684
p139
aVhttp://dbpedia.org/class/yago/Official110372373
p140
aVhttp://dbpedia.org/class/yago/Organism100004475
p141
aVhttp://dbpedia.org/class/yago/Person100007846
p142
aVhttp://dbpedia.org/class/yago/Politician110451263
p143
aVhttp://dbpedia.org/class/yago/Representative110522035
p144
aVhttp://dbpedia.org/class/yago/Ruler110541229
p145
aVhttp://dbpedia.org/class/yago/SkilledWorker110605985
p146
aVhttp://dbpedia.org/class/yago/Sovereign110628644
p147
aVhttp://dbpedia.org/class/yago/Whole100003553
p148
aVhttp://dbpedia.org/class/yago/Worker109632518
p149
aVhttp://dbpedia.org/class/yago/YagoLegalActorGeo
p150
aVhttp://dbpedia.org/class/yago/ExecutedRomanEmperors
p151
aVhttp://dbpedia.org/class/yago/PhysicalEntity100001930
p152
aVhttp://dbpedia.org/class/yago/ImperialRomanConsuls
p153
aVhttp://dbpedia.org/class/yago/PeopleFromMilan
p154
aVhttp://dbpedia.org/class/yago/YagoLegalActor
p155
aVhttp://dbpedia.org/class/yago/RomanGovernorsOfGermaniaInferior
p156
aVhttp://dbpedia.org/resource/Didius_Julianus
p157
tp158
aa(lp159
a(lp160
aa.