(lp1
(lp2
(dp3
Vstart
p4
I0
sVdisambiguatedURL
p5
NsVnamedEntity
p6
Vmarcus aurelius
p7
sVoffset
p8
I15
saa(lp9
(dp10
Vstart
p11
I0
sVdisambiguatedURL
p12
NsVnamedEntity
p13
Vlucius verus
p14
sVoffset
p15
I12
saa(lp16
(dp17
Vstart
p18
I0
sVdisambiguatedURL
p19
NsVnamedEntity
p20
Vcommodus
p21
sVoffset
p22
I8
saa(lp23
(dp24
Vstart
p25
I0
sVdisambiguatedURL
p26
NsVnamedEntity
p27
Vpertinax
p28
sVoffset
p29
I8
saa(lp30
(dp31
Vstart
p32
I0
sVdisambiguatedURL
p33
NsVnamedEntity
p34
Vdidius julianus
p35
sVoffset
p36
I15
saa.