(lp1
(lp2
(lp3
Vhttp://dbpedia.org/resource/Japanese_cuisine
p4
aa(lp5
a(lp6
Vhttp://dbpedia.org/resource/Annual
p7
aa(lp8
Vhttp://dbpedia.org/resource/Japan
p9
aa(lp10
aa(lp11
(lp12
Vhttp://dbpedia.org/resource/Chinese
p13
aa(lp14
a(lp15
Vhttp://dbpedia.org/resource/Month
p16
aa(lp17
Vhttp://dbpedia.org/resource/Taiwan
p18
aa(lp19
aa(lp20
(lp21
a(lp22
Vhttp://dbpedia.org/resource/Global_cuisine
p23
aa(lp24
Vhttp://dbpedia.org/resource/Magazine
p25
aa(lp26
Vhttp://dbpedia.org/resource/Mainland_China
p27
aa(lp28
aa(lp29
(lp30
Vhttp://dbpedia.org/resource/Japanese_cuisine
p31
aa(lp32
Vhttp://dbpedia.org/resource/S.V._VESTA
p33
aa(lp34
Vhttp://dbpedia.org/resource/Magazine
p35
aa(lp36
Vhttp://dbpedia.org/resource/Japan
p37
aa(lp38
aa(lp39
(lp40
Vhttp://dbpedia.org/resource/Japanese_cuisine
p41
aa(lp42
a(lp43
Vhttp://dbpedia.org/resource/Bimonthly
p44
aa(lp45
Vhttp://dbpedia.org/resource/Japan
p46
aa(lp47
aa(lp48
(lp49
Vhttp://dbpedia.org/resource/Japanese_cuisine
p50
aa(lp51
Vhttp://dbpedia.org/resource/Professional_Commons
p52
aa(lp53
Vhttp://dbpedia.org/resource/Month
p54
aa(lp55
Vhttp://dbpedia.org/resource/Japan
p56
aa(lp57
aa(lp58
(lp59
Vhttp://dbpedia.org/resource/Japanese_cuisine
p60
aa(lp61
a(lp62
Vhttp://dbpedia.org/resource/Month
p63
aa(lp64
Vhttp://dbpedia.org/resource/Japan
p65
aa(lp66
aa(lp67
(lp68
Vhttp://dbpedia.org/resource/Chinese
p69
aa(lp70
Vhttp://dbpedia.org/resource/Taiwanese_tea
p71
aa(lp72
Vhttp://dbpedia.org/resource/Month
p73
aa(lp74
Vhttp://dbpedia.org/resource/Taiwan
p75
aa(lp76
aa(lp77
(lp78
Vhttp://dbpedia.org/resource/Chinese
p79
aa(lp80
a(lp81
Vhttp://dbpedia.org/resource/Month
p82
aa(lp83
Vhttp://dbpedia.org/resource/Taiwan
p84
aa(lp85
aa(lp86
(lp87
Vhttp://dbpedia.org/resource/Chinese
p88
aa(lp89
a(lp90
Vhttp://dbpedia.org/resource/Biweekly
p91
aa(lp92
Vhttp://dbpedia.org/resource/Taiwan
p93
aa(lp94
aa(lp95
(lp96
Vhttp://dbpedia.org/resource/Chinese
p97
aa(lp98
a(lp99
Vhttp://dbpedia.org/resource/Magazine
p100
aa(lp101
Vhttp://dbpedia.org/resource/Taiwan
p102
aa(lp103
aa(lp104
(lp105
a(lp106
a(lp107
Vhttp://dbpedia.org/resource/Month
p108
aa(lp109
Vhttp://dbpedia.org/resource/Mainland_China
p110
aa(lp111
aa(lp112
(lp113
a(lp114
a(lp115
Vhttp://dbpedia.org/resource/Magazine
p116
aa(lp117
Vhttp://dbpedia.org/resource/Mainland_China
p118
aa(lp119
aa(lp120
(lp121
Vhttp://dbpedia.org/resource/Chinese
p122
aa(lp123
a(lp124
Vhttp://dbpedia.org/resource/Bimonthly
p125
aa(lp126
Vhttp://dbpedia.org/resource/Taiwan
p127
aa(lp128
aa(lp129
(lp130
a(lp131
a(lp132
Vhttp://dbpedia.org/resource/Magazine
p133
aa(lp134
Vhttp://dbpedia.org/resource/Mainland_China
p135
aa(lp136
aa(lp137
(lp138
a(lp139
a(lp140
Vhttp://dbpedia.org/resource/Month
p141
aa(lp142
Vhttp://dbpedia.org/resource/Mainland_China
p143
aa(lp144
aa(lp145
(lp146
a(lp147
a(lp148
Vhttp://dbpedia.org/resource/Month
p149
aa(lp150
Vhttp://dbpedia.org/resource/Mainland_China
p151
aa(lp152
aa(lp153
(lp154
Vhttp://dbpedia.org/resource/Chinese
p155
aa(lp156
a(lp157
Vhttp://dbpedia.org/resource/Month
p158
aa(lp159
Vhttp://dbpedia.org/resource/Taiwan
p160
aa(lp161
aa(lp162
(lp163
a(lp164
a(lp165
Vhttp://dbpedia.org/resource/Bimonthly
p166
aa(lp167
Vhttp://dbpedia.org/resource/Mainland_China
p168
aa(lp169
aa.