(lp1
(lp2
(dp3
Vstart
p4
I0
sVdisambiguatedURL
p5
Vhttp://dbpedia.org/resource/Australia
p6
sVnamedEntity
p7
VAustralia
p8
sVoffset
p9
I9
saa(lp10
(dp11
Vstart
p12
I0
sVdisambiguatedURL
p13
Vhttp://dbpedia.org/resource/Christmas_Island
p14
sVnamedEntity
p15
VChristmas Island
p16
sVoffset
p17
I16
saa(lp18
(dp19
Vstart
p20
I0
sVdisambiguatedURL
p21
Vhttp://dbpedia.org/resource/Cocos_(Keeling)_Islands
p22
sVnamedEntity
p23
VCocos (Keeling) Islands
p24
sVoffset
p25
I23
saa(lp26
(dp27
Vstart
p28
I0
sVdisambiguatedURL
p29
Vhttp://dbpedia.org/resource/Cook_Islands
p30
sVnamedEntity
p31
VCook Islands
p32
sVoffset
p33
I12
saa(lp34
(dp35
Vstart
p36
I0
sVdisambiguatedURL
p37
Vhttp://dbpedia.org/resource/Fiji
p38
sVnamedEntity
p39
VFiji Islands
p40
sVoffset
p41
I12
saa(lp42
(dp43
Vstart
p44
I0
sVdisambiguatedURL
p45
Vhttp://dbpedia.org/resource/French_Polynesia
p46
sVnamedEntity
p47
VFrench Polynesia
p48
sVoffset
p49
I16
saa(lp50
(dp51
Vstart
p52
I0
sVdisambiguatedURL
p53
Vhttp://dbpedia.org/resource/French_Southern_and_Antarctic_Lands
p54
sVnamedEntity
p55
VFrench Southern and Antarctic Lands
p56
sVoffset
p57
I35
saa(lp58
(dp59
Vstart
p60
I0
sVdisambiguatedURL
p61
Vhttp://dbpedia.org/resource/Heard_Island_and_McDonald_Islands
p62
sVnamedEntity
p63
VHeard Island and McDonald Islands
p64
sVoffset
p65
I33
saa(lp66
(dp67
Vstart
p68
I0
sVdisambiguatedURL
p69
Vhttp://dbpedia.org/resource/Kiribati
p70
sVnamedEntity
p71
VKiribati
p72
sVoffset
p73
I8
saa(lp74
(dp75
Vstart
p76
I0
sVdisambiguatedURL
p77
Vhttp://dbpedia.org/resource/Marshall_Islands
p78
sVnamedEntity
p79
VMarshall Islands
p80
sVoffset
p81
I16
saa(lp82
(dp83
Vstart
p84
I0
sVdisambiguatedURL
p85
Vhttp://dbpedia.org/resource/Micronesia
p86
sVnamedEntity
p87
VMicronesia
p88
sVoffset
p89
I10
saa(lp90
(dp91
Vstart
p92
I0
sVdisambiguatedURL
p93
Vhttp://dbpedia.org/resource/Nauru
p94
sVnamedEntity
p95
VNauru
p96
sVoffset
p97
I5
saa(lp98
(dp99
Vstart
p100
I0
sVdisambiguatedURL
p101
Vhttp://dbpedia.org/resource/New_Caledonia
p102
sVnamedEntity
p103
VNew Caledonia
p104
sVoffset
p105
I13
saa(lp106
(dp107
Vstart
p108
I0
sVdisambiguatedURL
p109
Vhttp://dbpedia.org/resource/New_Zealand
p110
sVnamedEntity
p111
VNew Zealand
p112
sVoffset
p113
I11
saa(lp114
(dp115
Vstart
p116
I0
sVdisambiguatedURL
p117
Vhttp://dbpedia.org/resource/Niue
p118
sVnamedEntity
p119
VNiue
p120
sVoffset
p121
I4
saa(lp122
(dp123
Vstart
p124
I0
sVdisambiguatedURL
p125
Vhttp://dbpedia.org/resource/Norfolk_Island
p126
sVnamedEntity
p127
VNorfolk Island
p128
sVoffset
p129
I14
saa(lp130
(dp131
Vstart
p132
I0
sVdisambiguatedURL
p133
Vhttp://dbpedia.org/resource/Northern_Mariana_Islands
p134
sVnamedEntity
p135
VNorthern Mariana Islands
p136
sVoffset
p137
I24
saa(lp138
(dp139
Vstart
p140
I0
sVdisambiguatedURL
p141
Vhttp://dbpedia.org/resource/Palau
p142
sVnamedEntity
p143
VPalau
p144
sVoffset
p145
I5
saa(lp146
(dp147
Vstart
p148
I0
sVdisambiguatedURL
p149
Vhttp://dbpedia.org/resource/Papua_New_Guinea
p150
sVnamedEntity
p151
VPapua New Guinea
p152
sVoffset
p153
I16
saa(lp154
(dp155
Vstart
p156
I0
sVdisambiguatedURL
p157
Vhttp://dbpedia.org/resource/Pitcairn_Islands
p158
sVnamedEntity
p159
VPitcairn Islands
p160
sVoffset
p161
I16
saa.