ccollections
defaultdict
p1
(c__builtin__
dict
p2
tRp3
I0
(dp4
I0
(lp5
sI1
(lp6
Vhttp://www.w3.org/2000/01/rdf-schema#seeAlso
p7
aVhttp://dbpedia.org/property/origin
p8
aVhttp://dbpedia.org/property/recorded
p9
aVhttp://dbpedia.org/property/broadcastArea
p10
aVhttp://dbpedia.org/ontology/origin
p11
aVhttp://dbpedia.org/property/conventionalLongName
p12
aVhttp://dbpedia.org/property/bases
p13
aVhttp://dbpedia.org/property/place
p14
aVhttp://dbpedia.org/ontology/foundationPlace
p15
aVhttp://dbpedia.org/property/city
p16
aVhttp://dbpedia.org/ontology/garrison
p17
aVhttp://dbpedia.org/ontology/longName
p18
aVhttp://dbpedia.org/property/legislature
p19
aVhttp://dbpedia.org/ontology/fastestDriverCountry
p20
aVhttp://dbpedia.org/property/footnoteB
p21
aVhttp://www.w3.org/2002/07/owl#differentFrom
p22
aVhttp://dbpedia.org/ontology/officialLanguage
p23
aVhttp://dbpedia.org/ontology/regionServed
p24
aVhttp://dbpedia.org/ontology/country
p25
aVhttp://www.w3.org/1999/02/22-rdf-syntax-ns#type
p26
aVhttp://dbpedia.org/ontology/demonym
p27
aVhttp://dbpedia.org/property/locationCountry
p28
aVhttp://dbpedia.org/ontology/secondDriverCountry
p29
aVhttp://dbpedia.org/property/allegiance
p30
aVhttp://dbpedia.org/property/combatant
p31
aVhttp://dbpedia.org/property/site
p32
aVhttp://dbpedia.org/property/birthPlace
p33
aVhttp://dbpedia.org/property/country/region
p34
aVhttp://dbpedia.org/ontology/place
p35
aVhttp://dbpedia.org/property/placeOfBirth
p36
aVhttp://dbpedia.org/property/regionServed
p37
aVhttp://dbpedia.org/property/country
p38
aVhttp://dbpedia.org/property/shipCountry
p39
aVhttp://dbpedia.org/property/establishedEvent
p40
aVhttp://dbpedia.org/ontology/targetAirport
p41
aVhttp://purl.org/dc/terms/subject
p42
aVhttp://dbpedia.org/ontology/populationPlace
p43
aVhttp://dbpedia.org/ontology/abstract
p44
aVhttp://dbpedia.org/ontology/recordedIn
p45
aVhttp://dbpedia.org/ontology/firstDriverCountry
p46
aVhttp://dbpedia.org/property/location
p47
aVhttp://dbpedia.org/ontology/usingCountry
p48
aVhttp://dbpedia.org/property/states
p49
aVhttp://dbpedia.org/ontology/locationCountry
p50
aVhttp://dbpedia.org/ontology/headquarter
p51
aVhttp://dbpedia.org/ontology/city
p52
aVhttp://dbpedia.org/property/shipNamesake
p53
aVhttp://dbpedia.org/ontology/language
p54
aVhttp://dbpedia.org/ontology/location
p55
aVhttp://dbpedia.org/property/basinCountries
p56
aVhttp://dbpedia.org/property/jurisdiction
p57
aVhttp://dbpedia.org/property/officialLanguages
p58
aVhttp://www.w3.org/2000/01/rdf-schema#comment
p59
aVhttp://dbpedia.org/ontology/birthPlace
p60
aVhttp://dbpedia.org/ontology/wikiPageRedirects
p61
aVhttp://dbpedia.org/ontology/poleDriverCountry
p62
aVhttp://dbpedia.org/property/area
p63
aVhttp://dbpedia.org/property/remit
p64
aVhttp://dbpedia.org/ontology/hometown
p65
aVhttp://dbpedia.org/ontology/jurisdiction
p66
aVhttp://dbpedia.org/property/demonym
p67
aVhttp://dbpedia.org/property/areaServed
p68
aVhttp://dbpedia.org/property/headquarters
p69
aVhttp://dbpedia.org/ontology/spokenIn
p70
aVhttp://dbpedia.org/property/garrison
p71
aVhttp://dbpedia.org/ontology/thirdDriverCountry
p72
aVhttp://dbpedia.org/property/stadium
p73
aVhttp://dbpedia.org/property/observedby
p74
asI3
(lp75
sI4
(lp76
Vhttp://dbpedia.org/property/origin
p77
aVhttp://dbpedia.org/ontology/country
p78
aVhttp://www.w3.org/1999/02/22-rdf-syntax-ns#type
p79
aVhttp://dbpedia.org/ontology/location
p80
aVhttp://dbpedia.org/property/countries
p81
aVhttp://dbpedia.org/ontology/origin
p82
aVhttp://dbpedia.org/property/ground
p83
aVhttp://dbpedia.org/ontology/secondDriverCountry
p84
aVhttp://dbpedia.org/property/place
p85
aVhttp://dbpedia.org/property/location
p86
aVhttp://dbpedia.org/ontology/ground
p87
aVhttp://dbpedia.org/property/rd3t1Loc
p88
aVhttp://dbpedia.org/ontology/place
p89
aVhttp://dbpedia.org/property/nationalOrigin
p90
aVhttp://dbpedia.org/property/battles
p91
aVhttp://dbpedia.org/ontology/battle
p92
aVhttp://dbpedia.org/property/country
p93
aVhttp://www.w3.org/2002/07/owl#sameAs
p94
asI5
(lp95
ssI1
(dp96
I0
(lp97
sI1
(lp98
Vhttp://dbpedia.org/property/states
p99
aVhttp://dbpedia.org/ontology/country
p100
aVhttp://dbpedia.org/ontology/populationPlace
p101
aVhttp://dbpedia.org/ontology/spokenIn
p102
asI3
(lp103
sI4
(lp104
Vhttp://dbpedia.org/ontology/abstract
p105
aVhttp://www.w3.org/2002/07/owl#sameAs
p106
aVhttp://www.w3.org/2000/01/rdf-schema#comment
p107
asI5
(lp108
ssI2
(dp109
I0
(lp110
sI1
(lp111
Vhttp://dbpedia.org/property/origin
p112
aVhttp://dbpedia.org/property/placeOfDeath
p113
aVhttp://dbpedia.org/ontology/type
p114
aVhttp://dbpedia.org/ontology/language
p115
aVhttp://dbpedia.org/property/agencyName
p116
aVhttp://www.w3.org/ns/prov#wasDerivedFrom
p117
aVhttp://dbpedia.org/ontology/demonym
p118
aVhttp://dbpedia.org/property/nation
p119
aVhttp://dbpedia.org/ontology/nationality
p120
aVhttp://xmlns.com/foaf/0.1/isPrimaryTopicOf
p121
aVhttp://dbpedia.org/property/meetingPlace
p122
aVhttp://dbpedia.org/property/establishedEvent
p123
aVhttp://dbpedia.org/property/mapCaption
p124
aVhttp://dbpedia.org/ontology/residence
p125
aVhttp://dbpedia.org/ontology/abstract
p126
aVhttp://dbpedia.org/property/venue
p127
aVhttp://dbpedia.org/property/officialLanguages
p128
aVhttp://dbpedia.org/property/imageMap
p129
aVhttp://dbpedia.org/ontology/location
p130
aVhttp://dbpedia.org/property/placeOfBirth
p131
aVhttp://dbpedia.org/property/area
p132
aVhttp://dbpedia.org/ontology/hometown
p133
aVhttp://dbpedia.org/property/bankOf
p134
aVhttp://dbpedia.org/ontology/spokenIn
p135
aVhttp://dbpedia.org/property/leaderTitle
p136
aVhttp://www.w3.org/2000/01/rdf-schema#seeAlso
p137
aVhttp://dbpedia.org/property/currency
p138
aVhttp://dbpedia.org/property/sovereigntyType
p139
aVhttp://dbpedia.org/property/conventionalLongName
p140
aVhttp://dbpedia.org/ontology/foundationPlace
p141
aVhttp://dbpedia.org/property/legislature
p142
aVhttp://dbpedia.org/ontology/officialLanguage
p143
aVhttp://dbpedia.org/ontology/country
p144
aVhttp://dbpedia.org/property/region
p145
aVhttp://dbpedia.org/property/nationalAnthem
p146
aVhttp://dbpedia.org/property/birthPlace
p147
aVhttp://dbpedia.org/property/stateParty
p148
aVhttp://dbpedia.org/property/country
p149
aVhttp://dbpedia.org/property/winnerOrigin
p150
aVhttp://dbpedia.org/ontology/regionServed
p151
aVhttp://dbpedia.org/property/areaServed
p152
aVhttp://dbpedia.org/property/areasAffected
p153
aVhttp://dbpedia.org/ontology/wikiPageExternalLink
p154
aVhttp://xmlns.com/foaf/0.1/primaryTopic
p155
aVhttp://dbpedia.org/property/deathPlace
p156
aVhttp://dbpedia.org/property/states
p157
aVhttp://dbpedia.org/ontology/locationCountry
p158
aVhttp://dbpedia.org/ontology/deathPlace
p159
aVhttp://dbpedia.org/property/hasPhotoCollection
p160
aVhttp://dbpedia.org/property/headquarters
p161
aVhttp://dbpedia.org/property/countryName
p162
aVhttp://dbpedia.org/property/southeast
p163
aVhttp://dbpedia.org/ontology/birthPlace
p164
aVhttp://dbpedia.org/ontology/wikiPageRedirects
p165
aVhttp://dbpedia.org/property/imageCoat
p166
aVhttp://xmlns.com/foaf/0.1/homepage
p167
aVhttp://dbpedia.org/property/host
p168
aVhttp://dbpedia.org/ontology/stateOfOrigin
p169
aVhttp://dbpedia.org/property/south
p170
aVhttp://dbpedia.org/ontology/origin
p171
aVhttp://dbpedia.org/ontology/currency
p172
aVhttp://dbpedia.org/property/residence
p173
aVhttp://dbpedia.org/ontology/longName
p174
aVhttp://dbpedia.org/property/locationCountry
p175
aVhttp://dbpedia.org/ontology/ground
p176
aVhttp://dbpedia.org/ontology/ethnicGroup
p177
aVhttp://dbpedia.org/property/centre
p178
aVhttp://dbpedia.org/property/nativeName
p179
aVhttp://dbpedia.org/property/title
p180
aVhttp://dbpedia.org/property/royalAnthem
p181
aVhttp://xmlns.com/foaf/0.1/depiction
p182
aVhttp://dbpedia.org/property/fightingOutOf
p183
aVhttp://dbpedia.org/ontology/thumbnail
p184
aVhttp://dbpedia.org/ontology/city
p185
aVhttp://dbpedia.org/ontology/flag
p186
aVhttp://dbpedia.org/property/commonName
p187
aVhttp://dbpedia.org/property/subdivisionName
p188
aVhttp://dbpedia.org/property/languages
p189
aVhttp://dbpedia.org/property/popplace
p190
aVhttp://dbpedia.org/property/destination
p191
aVhttp://dbpedia.org/ontology/anthem
p192
aVhttp://dbpedia.org/property/founded
p193
aVhttp://dbpedia.org/property/imageFlag
p194
aVhttp://dbpedia.org/property/stadium
p195
aVhttp://dbpedia.org/property/ground
p196
aVhttp://dbpedia.org/property/place
p197
aVhttp://dbpedia.org/property/territorialExtent
p198
aVhttp://dbpedia.org/property/caption
p199
aVhttp://dbpedia.org/property/site
p200
aVhttp://dbpedia.org/ontology/place
p201
aVhttp://dbpedia.org/property/nationality
p202
aVhttp://dbpedia.org/property/callingCode
p203
aVhttp://dbpedia.org/ontology/wikiPageDisambiguates
p204
aVhttp://purl.org/dc/terms/subject
p205
aVhttp://dbpedia.org/ontology/populationPlace
p206
aVhttp://dbpedia.org/property/location
p207
aVhttp://dbpedia.org/ontology/headquarter
p208
aVhttp://www.w3.org/2000/01/rdf-schema#label
p209
aVhttp://dbpedia.org/ontology/sourceCountry
p210
aVhttp://dbpedia.org/ontology/broadcastArea
p211
aVhttp://dbpedia.org/property/locale
p212
aVhttp://www.w3.org/2000/01/rdf-schema#comment
p213
aVhttp://dbpedia.org/ontology/timeZone
p214
aVhttp://dbpedia.org/property/demonym
p215
aVhttp://www.w3.org/2002/07/owl#sameAs
p216
aVhttp://dbpedia.org/property/regionServed
p217
aVhttp://xmlns.com/foaf/0.1/name
p218
asI3
(lp219
sI4
(lp220
Vhttp://dbpedia.org/ontology/PopulatedPlace/areaTotal
p221
aVhttp://dbpedia.org/ontology/country
p222
asI5
(lp223
ssI3
(dp224
I0
(lp225
sI1
(lp226
Vhttp://dbpedia.org/property/languages
p227
aVhttp://www.w3.org/2000/01/rdf-schema#seeAlso
p228
aVhttp://dbpedia.org/ontology/populationPlace
p229
aVhttp://dbpedia.org/property/subdivisionName
p230
aVhttp://dbpedia.org/ontology/country
p231
aVhttp://dbpedia.org/ontology/abstract
p232
aVhttp://www.w3.org/2000/01/rdf-schema#comment
p233
aVhttp://dbpedia.org/property/deathPlace
p234
aVhttp://dbpedia.org/property/placeOfBirth
p235
aVhttp://dbpedia.org/property/location
p236
aVhttp://dbpedia.org/property/states
p237
aVhttp://dbpedia.org/property/birthPlace
p238
aVhttp://dbpedia.org/ontology/ethnicGroup
p239
aVhttp://dbpedia.org/property/placeOfDeath
p240
aVhttp://dbpedia.org/ontology/spokenIn
p241
aVhttp://dbpedia.org/ontology/birthPlace
p242
aVhttp://dbpedia.org/ontology/deathPlace
p243
asI3
(lp244
sI4
(lp245
Vhttp://dbpedia.org/ontology/wikiPageExternalLink
p246
aVhttp://dbpedia.org/property/gdpNominal
p247
asI5
(lp248
ssI4
(dp249
I0
(lp250
sI1
(lp251
Vhttp://dbpedia.org/ontology/country
p252
aVhttp://dbpedia.org/property/region
p253
aVhttp://dbpedia.org/ontology/populationPlace
p254
aVhttp://dbpedia.org/property/states
p255
aVhttp://dbpedia.org/ontology/ethnicGroup
p256
aVhttp://dbpedia.org/ontology/spokenIn
p257
aVhttp://dbpedia.org/property/country
p258
asI3
(lp259
sI4
(lp260
Vhttp://www.georss.org/georss/point
p261
aVhttp://dbpedia.org/property/venue
p262
aVhttp://dbpedia.org/property/place
p263
aVhttp://dbpedia.org/property/withdraws
p264
aVhttp://dbpedia.org/property/rd3t1Loc
p265
aVhttp://dbpedia.org/ontology/place
p266
aVhttp://www.w3.org/ns/prov#wasDerivedFrom
p267
aVhttp://dbpedia.org/property/site
p268
aVhttp://www.w3.org/2002/07/owl#sameAs
p269
asI5
(lp270
ssI5
(dp271
I0
(lp272
sI1
(lp273
sI3
(lp274
sI4
(lp275
Vhttp://dbpedia.org/ontology/wikiPageExternalLink
p276
aVhttp://dbpedia.org/ontology/homeport
p277
aVhttp://dbpedia.org/ontology/assembly
p278
aVhttp://www.w3.org/2000/01/rdf-schema#comment
p279
aVhttp://dbpedia.org/ontology/abstract
p280
aVhttp://dbpedia.org/property/countriesAffected
p281
aVhttp://dbpedia.org/property/birthPlace
p282
aVhttp://dbpedia.org/ontology/PopulatedPlace/areaTotal
p283
aVhttp://dbpedia.org/property/image
p284
aVhttp://dbpedia.org/property/placeOfBirth
p285
aVhttp://dbpedia.org/property/namedAfter
p286
aVhttp://dbpedia.org/ontology/birthPlace
p287
asI5
(lp288
ssI6
(dp289
I0
(lp290
sI1
(lp291
sI3
(lp292
sI4
(lp293
sI5
(lp294
ssI7
(dp295
I0
(lp296
sI1
(lp297
Vhttp://dbpedia.org/property/states
p298
aVhttp://dbpedia.org/ontology/spokenIn
p299
aVhttp://dbpedia.org/ontology/ethnicGroup
p300
aVhttp://dbpedia.org/ontology/populationPlace
p301
asI3
(lp302
sI4
(lp303
sI5
(lp304
ssI8
(dp305
I0
(lp306
sI1
(lp307
Vhttp://dbpedia.org/property/states
p308
aVhttp://dbpedia.org/ontology/spokenIn
p309
aVhttp://dbpedia.org/ontology/ethnicGroup
p310
aVhttp://dbpedia.org/ontology/populationPlace
p311
asI3
(lp312
sI4
(lp313
Vhttp://dbpedia.org/ontology/country
p314
asI5
(lp315
ssI9
(dp316
I0
(lp317
sI1
(lp318
Vhttp://dbpedia.org/property/states
p319
aVhttp://dbpedia.org/ontology/spokenIn
p320
asI3
(lp321
sI4
(lp322
sI5
(lp323
ssI10
(dp324
I0
(lp325
sI1
(lp326
Vhttp://dbpedia.org/ontology/country
p327
aVhttp://dbpedia.org/ontology/populationPlace
p328
aVhttp://www.w3.org/2000/01/rdf-schema#comment
p329
aVhttp://dbpedia.org/ontology/abstract
p330
aVhttp://dbpedia.org/property/subdivisionName
p331
aVhttp://dbpedia.org/ontology/ethnicGroup
p332
aVhttp://dbpedia.org/ontology/spokenIn
p333
aVhttp://dbpedia.org/property/popplace
p334
asI3
(lp335
sI4
(lp336
Vhttp://www.w3.org/1999/02/22-rdf-syntax-ns#type
p337
asI5
(lp338
ss.