(lp1
(lp2
a(lp3
a(lp4
(dp5
Vstart
p6
I0
sS'classes'
p7
(lp8
Vhttp://www.w3.org/2002/07/owl#Thing
p9
aVhttp://www.ontologydesignpatterns.org/ont/dul/DUL.owl#Agent
p10
aVhttp://www.ontologydesignpatterns.org/ont/dul/DUL.owl#SocialPerson
p11
aVhttp://www.wikidata.org/entity/Q3918
p12
aVhttp://www.wikidata.org/entity/Q43229
p13
aVhttp://dbpedia.org/ontology/Agent
p14
aVhttp://dbpedia.org/ontology/EducationalInstitution
p15
aVhttp://dbpedia.org/ontology/Organisation
p16
aVhttp://dbpedia.org/ontology/University
p17
aVhttp://schema.org/CollegeOrUniversity
p18
aVhttp://schema.org/EducationalOrganization
p19
aVhttp://schema.org/Organization
p20
aVhttp://umbel.org/umbel/rc/EducationalOrganization
p21
aVhttp://umbel.org/umbel/rc/Organization
p22
aVhttp://umbel.org/umbel/rc/University
p23
aVhttp://dbpedia.org/class/yago/Abstraction100002137
p24
aVhttp://dbpedia.org/class/yago/EducationalInstitution108276342
p25
aVhttp://dbpedia.org/class/yago/Group100031264
p26
aVhttp://dbpedia.org/class/yago/Institution108053576
p27
aVhttp://dbpedia.org/class/yago/Organization108008335
p28
aVhttp://dbpedia.org/class/yago/SocialGroup107950920
p29
aVhttp://dbpedia.org/class/yago/University108286569
p30
aVhttp://dbpedia.org/class/yago/YagoLegalActorGeo
p31
aVhttp://dbpedia.org/class/yago/EducationalInstitutionsEstablishedIn1972
p32
aVhttp://dbpedia.org/class/yago/YagoPermanentlyLocatedEntity
p33
aVhttp://dbpedia.org/class/yago/YagoLegalActor
p34
aVhttp://dbpedia.org/class/yago/UniversitiesAndCollegesAccreditedByTheNorthwestCommissionOnCollegesAndUniversities
p35
asVdisambiguatedURL
p36
Vhttp://dbpedia.org/resource/University_of_Alaska_Southeast
p37
sVnamedEntity
p38
Vuniversity of alaska southeast
p39
sVoffset
p40
I30
saa(lp41
(dp42
Vstart
p43
I0
sg7
(lp44
Vhttp://www.w3.org/2002/07/owl#Thing
p45
aVhttp://umbel.org/umbel/rc/EducationalOrganization
p46
aVhttp://umbel.org/umbel/rc/Organization
p47
aVhttp://umbel.org/umbel/rc/University
p48
aVhttp://dbpedia.org/class/yago/Abstraction100002137
p49
aVhttp://dbpedia.org/class/yago/AviationSchools
p50
aVhttp://dbpedia.org/class/yago/EducationalInstitution108276342
p51
aVhttp://dbpedia.org/class/yago/Group100031264
p52
aVhttp://dbpedia.org/class/yago/Institution108053576
p53
aVhttp://dbpedia.org/class/yago/Organization108008335
p54
aVhttp://dbpedia.org/class/yago/School108276720
p55
aVhttp://dbpedia.org/class/yago/SocialGroup107950920
p56
aVhttp://dbpedia.org/class/yago/University108286569
p57
aVhttp://dbpedia.org/class/yago/YagoLegalActorGeo
p58
aVhttp://dbpedia.org/class/yago/EducationalInstitutionsEstablishedIn1954
p59
aVhttp://dbpedia.org/class/yago/YagoPermanentlyLocatedEntity
p60
aVhttp://dbpedia.org/class/yago/YagoLegalActor
p61
aVhttp://dbpedia.org/class/yago/UniversitiesAndCollegesAccreditedByTheNorthwestCommissionOnCollegesAndUniversities
p62
asVdisambiguatedURL
p63
Vhttp://dbpedia.org/resource/University_of_Alaska_Anchorage
p64
sVnamedEntity
p65
Vuniversity of alaska - anchorage
p66
sVoffset
p67
I32
saa(lp68
(dp69
Vstart
p70
I0
sg7
(lp71
Vhttp://www.w3.org/2002/07/owl#Thing
p72
aVhttp://www.ontologydesignpatterns.org/ont/dul/DUL.owl#Agent
p73
aVhttp://www.ontologydesignpatterns.org/ont/dul/DUL.owl#SocialPerson
p74
aVhttp://www.wikidata.org/entity/Q3918
p75
aVhttp://www.wikidata.org/entity/Q43229
p76
aVhttp://dbpedia.org/ontology/Agent
p77
aVhttp://dbpedia.org/ontology/EducationalInstitution
p78
aVhttp://dbpedia.org/ontology/Organisation
p79
aVhttp://dbpedia.org/ontology/University
p80
aVhttp://schema.org/CollegeOrUniversity
p81
aVhttp://schema.org/EducationalOrganization
p82
aVhttp://schema.org/Organization
p83
aVhttp://umbel.org/umbel/rc/EducationalOrganization
p84
aVhttp://umbel.org/umbel/rc/Organization
p85
aVhttp://umbel.org/umbel/rc/University
p86
aVhttp://dbpedia.org/class/yago/Abstraction100002137
p87
aVhttp://dbpedia.org/class/yago/EducationalInstitution108276342
p88
aVhttp://dbpedia.org/class/yago/Group100031264
p89
aVhttp://dbpedia.org/class/yago/Institution108053576
p90
aVhttp://dbpedia.org/class/yago/Organization108008335
p91
aVhttp://dbpedia.org/class/yago/SocialGroup107950920
p92
aVhttp://dbpedia.org/class/yago/University108286569
p93
aVhttp://dbpedia.org/class/yago/YagoLegalActorGeo
p94
aVhttp://dbpedia.org/class/yago/EducationalInstitutionsEstablishedIn1917
p95
aVhttp://dbpedia.org/class/yago/FlagshipUniversitiesInTheUnitedStates
p96
aVhttp://dbpedia.org/class/yago/YagoPermanentlyLocatedEntity
p97
aVhttp://dbpedia.org/class/yago/Land-grantUniversitiesAndColleges
p98
aVhttp://dbpedia.org/class/yago/YagoLegalActor
p99
aVhttp://dbpedia.org/class/yago/UniversitiesAndCollegesAccreditedByTheNorthwestCommissionOnCollegesAndUniversities
p100
asVdisambiguatedURL
p101
Vhttp://dbpedia.org/resource/University_of_Alaska_Fairbanks
p102
sVnamedEntity
p103
Vuniversity of alaska fairbanks
p104
sVoffset
p105
I30
saa(lp106
(dp107
Vstart
p108
I0
sg7
(lp109
Vhttp://xmlns.com/foaf/0.1/Organization
p110
aVhttp://umbel.org/umbel/rc/EducationalOrganization
p111
aVhttp://umbel.org/umbel/rc/University
p112
aVhttp://dbpedia.org/class/yago/Abstraction100002137
p113
aVhttp://dbpedia.org/class/yago/EducationalInstitution108276342
p114
aVhttp://dbpedia.org/class/yago/Group100031264
p115
aVhttp://dbpedia.org/class/yago/Institution108053576
p116
aVhttp://dbpedia.org/class/yago/Organization108008335
p117
aVhttp://dbpedia.org/class/yago/SocialGroup107950920
p118
aVhttp://dbpedia.org/class/yago/University108286569
p119
aVhttp://dbpedia.org/class/yago/YagoLegalActorGeo
p120
aVhttp://dbpedia.org/class/yago/EducationalInstitutionsEstablishedIn1957
p121
aVhttp://dbpedia.org/class/yago/YagoPermanentlyLocatedEntity
p122
aVhttp://dbpedia.org/class/yago/YagoLegalActor
p123
aVhttp://dbpedia.org/class/yago/UniversitiesAndCollegesAccreditedByTheNorthwestCommissionOnCollegesAndUniversities
p124
aVhttp://dbpedia.org/class/yago/UniversitiesAndCollegesInAlaska
p125
asVdisambiguatedURL
p126
Vhttp://dbpedia.org/resource/Alaska_Pacific_University
p127
sVnamedEntity
p128
Valaska pacific university
p129
sVoffset
p130
I25
saa(lp131
(dp132
Vstart
p133
I0
sg7
(lp134
Vhttp://www.w3.org/2002/07/owl#Thing
p135
aVhttp://xmlns.com/foaf/0.1/Organization
p136
aVhttp://www.ontologydesignpatterns.org/ont/dul/DUL.owl#Agent
p137
aVhttp://www.ontologydesignpatterns.org/ont/dul/DUL.owl#SocialPerson
p138
aVhttp://www.wikidata.org/entity/Q3918
p139
aVhttp://www.wikidata.org/entity/Q43229
p140
aVhttp://dbpedia.org/ontology/Agent
p141
aVhttp://dbpedia.org/ontology/EducationalInstitution
p142
aVhttp://dbpedia.org/ontology/Organisation
p143
aVhttp://dbpedia.org/ontology/University
p144
aVhttp://schema.org/CollegeOrUniversity
p145
aVhttp://schema.org/EducationalOrganization
p146
aVhttp://schema.org/Organization
p147
aVhttp://umbel.org/umbel/rc/EducationalOrganization
p148
aVhttp://umbel.org/umbel/rc/University
p149
aVhttp://dbpedia.org/class/yago/Abstraction100002137
p150
aVhttp://dbpedia.org/class/yago/EducationalInstitution108276342
p151
aVhttp://dbpedia.org/class/yago/Group100031264
p152
aVhttp://dbpedia.org/class/yago/Institution108053576
p153
aVhttp://dbpedia.org/class/yago/Organization108008335
p154
aVhttp://dbpedia.org/class/yago/School108276720
p155
aVhttp://dbpedia.org/class/yago/SocialGroup107950920
p156
aVhttp://dbpedia.org/class/yago/University108286569
p157
aVhttp://dbpedia.org/class/yago/YagoLegalActorGeo
p158
aVhttp://dbpedia.org/class/yago/DefunctSchoolsInAlaska
p159
aVhttp://dbpedia.org/class/yago/DefunctUniversitiesAndCollegesInAlaska
p160
aVhttp://dbpedia.org/class/yago/EducationalInstitutionsDisestablishedIn2007
p161
aVhttp://dbpedia.org/class/yago/EducationalInstitutionsEstablishedIn1878
p162
aVhttp://dbpedia.org/class/yago/YagoPermanentlyLocatedEntity
p163
aVhttp://dbpedia.org/class/yago/InstitutionsAccreditedByTheAmericanAssociationOfMuseums
p164
aVhttp://dbpedia.org/class/yago/YagoLegalActor
p165
asVdisambiguatedURL
p166
Vhttp://dbpedia.org/resource/Sheldon_Jackson_College
p167
sVnamedEntity
p168
Vsheldon jackson college
p169
sVoffset
p170
I23
saa(lp171
(dp172
Vstart
p173
I0
sg7
(lp174
Vhttp://www.w3.org/2002/07/owl#Thing
p175
aVhttp://www.ontologydesignpatterns.org/ont/dul/DUL.owl#Agent
p176
aVhttp://www.ontologydesignpatterns.org/ont/dul/DUL.owl#SocialPerson
p177
aVhttp://www.wikidata.org/entity/Q3918
p178
aVhttp://www.wikidata.org/entity/Q43229
p179
aVhttp://dbpedia.org/ontology/Agent
p180
aVhttp://dbpedia.org/ontology/EducationalInstitution
p181
aVhttp://dbpedia.org/ontology/Organisation
p182
aVhttp://dbpedia.org/ontology/University
p183
aVhttp://schema.org/CollegeOrUniversity
p184
aVhttp://schema.org/EducationalOrganization
p185
aVhttp://schema.org/Organization
p186
aVhttp://umbel.org/umbel/rc/University
p187
aVhttp://dbpedia.org/class/yago/Abstraction100002137
p188
aVhttp://dbpedia.org/class/yago/Association108049401
p189
aVhttp://dbpedia.org/class/yago/Club108227214
p190
aVhttp://dbpedia.org/class/yago/EducationalInstitution108276342
p191
aVhttp://dbpedia.org/class/yago/Group100031264
p192
aVhttp://dbpedia.org/class/yago/Institution108053576
p193
aVhttp://dbpedia.org/class/yago/Organization108008335
p194
aVhttp://dbpedia.org/class/yago/SocialGroup107950920
p195
aVhttp://dbpedia.org/class/yago/University108286569
p196
aVhttp://dbpedia.org/class/yago/YagoLegalActorGeo
p197
aVhttp://dbpedia.org/class/yago/EducationalInstitutionsEstablishedIn1961
p198
aVhttp://dbpedia.org/class/yago/YagoPermanentlyLocatedEntity
p199
aVhttp://dbpedia.org/class/yago/Multi-sportClubsInTheUnitedStates
p200
aVhttp://dbpedia.org/class/yago/YagoLegalActor
p201
aVhttp://dbpedia.org/class/yago/UniversitiesAndCollegesAccreditedByTheSouthernAssociationOfCollegesAndSchools
p202
aVhttp://dbpedia.org/class/yago/UniversitiesAndCollegesAffiliatedWithTheSouthernBaptistConvention
p203
aVhttp://dbpedia.org/class/yago/UniversitiesAndCollegesInAlabama
p204
aVhttp://dbpedia.org/class/yago/UniversitiesAndCollegesInMobile,Alabama
p205
asVdisambiguatedURL
p206
Vhttp://dbpedia.org/resource/University_of_Mobile
p207
sVnamedEntity
p208
Vuniversity of mobile
p209
sVoffset
p210
I20
saa(lp211
(dp212
Vstart
p213
I0
sg7
(lp214
Vhttp://umbel.org/umbel/rc/University
p215
aVhttp://dbpedia.org/class/yago/Abstraction100002137
p216
aVhttp://dbpedia.org/class/yago/College108278324
p217
aVhttp://dbpedia.org/class/yago/EducationalInstitution108276342
p218
aVhttp://dbpedia.org/class/yago/Group100031264
p219
aVhttp://dbpedia.org/class/yago/Institution108053576
p220
aVhttp://dbpedia.org/class/yago/Organization108008335
p221
aVhttp://dbpedia.org/class/yago/SocialGroup107950920
p222
aVhttp://dbpedia.org/class/yago/University108286569
p223
aVhttp://dbpedia.org/class/yago/YagoLegalActorGeo
p224
aVhttp://dbpedia.org/class/yago/CommunityCollege108282542
p225
aVhttp://dbpedia.org/class/yago/CommunityCollegesInAlabama
p226
aVhttp://dbpedia.org/class/yago/EducationalInstitutionsEstablishedIn1927
p227
aVhttp://dbpedia.org/class/yago/JuniorCollege108282364
p228
aVhttp://dbpedia.org/class/yago/YagoPermanentlyLocatedEntity
p229
aVhttp://dbpedia.org/class/yago/HistoricallyBlackUniversitiesAndCollegesInTheUnitedStates
p230
aVhttp://dbpedia.org/class/yago/YagoLegalActor
p231
aVhttp://dbpedia.org/class/yago/UniversitiesAndCollegesAccreditedByTheSouthernAssociationOfCollegesAndSchools
p232
aVhttp://dbpedia.org/class/yago/UniversitiesAndCollegesInMobile,Alabama
p233
aVhttp://dbpedia.org/class/yago/UniversitiesInMobile,Alabama
p234
asVdisambiguatedURL
p235
Vhttp://dbpedia.org/resource/Bishop_State_Community_College
p236
sVnamedEntity
p237
Vbishop state community college
p238
sVoffset
p239
I30
saa(lp240
(dp241
Vstart
p242
I0
sg7
(lp243
Vhttp://umbel.org/umbel/rc/University
p244
aVhttp://dbpedia.org/class/yago/Abstraction100002137
p245
aVhttp://dbpedia.org/class/yago/College108278324
p246
aVhttp://dbpedia.org/class/yago/EducationalInstitution108276342
p247
aVhttp://dbpedia.org/class/yago/Group100031264
p248
aVhttp://dbpedia.org/class/yago/Institution108053576
p249
aVhttp://dbpedia.org/class/yago/Organization108008335
p250
aVhttp://dbpedia.org/class/yago/SocialGroup107950920
p251
aVhttp://dbpedia.org/class/yago/University108286569
p252
aVhttp://dbpedia.org/class/yago/YagoLegalActorGeo
p253
aVhttp://dbpedia.org/class/yago/CommunityCollege108282542
p254
aVhttp://dbpedia.org/class/yago/CommunityCollegesInAlabama
p255
aVhttp://dbpedia.org/class/yago/EducationalInstitutionsEstablishedIn1991
p256
aVhttp://dbpedia.org/class/yago/JuniorCollege108282364
p257
aVhttp://dbpedia.org/class/yago/YagoPermanentlyLocatedEntity
p258
aVhttp://dbpedia.org/class/yago/YagoLegalActor
p259
aVhttp://dbpedia.org/class/yago/UniversitiesAndCollegesAccreditedByTheSouthernAssociationOfCollegesAndSchools
p260
asVdisambiguatedURL
p261
Vhttp://dbpedia.org/resource/Alabama_Southern_Community_College
p262
sVnamedEntity
p263
Valabama southern community college
p264
sVoffset
p265
I34
saa(lp266
a(lp267
(dp268
Vstart
p269
I0
sg7
(lp270
Vhttp://www.w3.org/2002/07/owl#Thing
p271
aVhttp://xmlns.com/foaf/0.1/Organization
p272
aVhttp://www.ontologydesignpatterns.org/ont/dul/DUL.owl#Agent
p273
aVhttp://www.ontologydesignpatterns.org/ont/dul/DUL.owl#SocialPerson
p274
aVhttp://www.wikidata.org/entity/Q3918
p275
aVhttp://www.wikidata.org/entity/Q43229
p276
aVhttp://dbpedia.org/ontology/Agent
p277
aVhttp://dbpedia.org/ontology/EducationalInstitution
p278
aVhttp://dbpedia.org/ontology/Organisation
p279
aVhttp://dbpedia.org/ontology/University
p280
aVhttp://schema.org/CollegeOrUniversity
p281
aVhttp://schema.org/EducationalOrganization
p282
aVhttp://schema.org/Organization
p283
aVhttp://umbel.org/umbel/rc/EducationalOrganization
p284
aVhttp://umbel.org/umbel/rc/University
p285
aVhttp://dbpedia.org/class/yago/Abstraction100002137
p286
aVhttp://dbpedia.org/class/yago/Academy108279298
p287
aVhttp://dbpedia.org/class/yago/EducationalInstitution108276342
p288
aVhttp://dbpedia.org/class/yago/Group100031264
p289
aVhttp://dbpedia.org/class/yago/Institution108053576
p290
aVhttp://dbpedia.org/class/yago/Organization108008335
p291
aVhttp://dbpedia.org/class/yago/School108276720
p292
aVhttp://dbpedia.org/class/yago/SecondarySchool108284481
p293
aVhttp://dbpedia.org/class/yago/SocialGroup107950920
p294
aVhttp://dbpedia.org/class/yago/University108286569
p295
aVhttp://dbpedia.org/class/yago/YagoLegalActorGeo
p296
aVhttp://dbpedia.org/class/yago/EducationalInstitutionsEstablishedIn1972
p297
aVhttp://dbpedia.org/class/yago/YagoPermanentlyLocatedEntity
p298
aVhttp://dbpedia.org/class/yago/YagoLegalActor
p299
aVhttp://dbpedia.org/class/yago/SportSchools
p300
aVhttp://dbpedia.org/class/yago/SportsAcademies
p301
aVhttp://dbpedia.org/class/yago/UniversitiesAndCollegesAccreditedByTheSouthernAssociationOfCollegesAndSchools
p302
aVhttp://dbpedia.org/class/yago/UniversitiesAndCollegesInAlabama
p303
asVdisambiguatedURL
p304
Vhttp://dbpedia.org/resource/United_States_Sports_Academy
p305
sVnamedEntity
p306
Vunited states sports academy
p307
sVoffset
p308
I28
saa(lp309
(dp310
Vstart
p311
I0
sg7
(lp312
Vhttp://www.w3.org/2002/07/owl#Thing
p313
aVhttp://dbpedia.org/ontology/School
p314
aVhttp://www.ontologydesignpatterns.org/ont/dul/DUL.owl#Agent
p315
aVhttp://www.ontologydesignpatterns.org/ont/dul/DUL.owl#SocialPerson
p316
aVhttp://www.wikidata.org/entity/Q3914
p317
aVhttp://www.wikidata.org/entity/Q43229
p318
aVhttp://dbpedia.org/ontology/Agent
p319
aVhttp://dbpedia.org/ontology/EducationalInstitution
p320
aVhttp://dbpedia.org/ontology/Organisation
p321
aVhttp://schema.org/EducationalOrganization
p322
aVhttp://schema.org/Organization
p323
aVhttp://schema.org/School
p324
aVhttp://dbpedia.org/class/yago/Abstraction100002137
p325
aVhttp://dbpedia.org/class/yago/College108278324
p326
aVhttp://dbpedia.org/class/yago/EducationalInstitution108276342
p327
aVhttp://dbpedia.org/class/yago/Group100031264
p328
aVhttp://dbpedia.org/class/yago/Institution108053576
p329
aVhttp://dbpedia.org/class/yago/Organization108008335
p330
aVhttp://dbpedia.org/class/yago/School108276720
p331
aVhttp://dbpedia.org/class/yago/SocialGroup107950920
p332
aVhttp://dbpedia.org/class/yago/University108286569
p333
aVhttp://dbpedia.org/class/yago/YagoLegalActorGeo
p334
aVhttp://dbpedia.org/class/yago/CommunityCollege108282542
p335
aVhttp://dbpedia.org/class/yago/CommunityCollegesInAlabama
p336
aVhttp://dbpedia.org/class/yago/EducationalInstitutionsEstablishedIn1965
p337
aVhttp://dbpedia.org/class/yago/JuniorCollege108282364
p338
aVhttp://dbpedia.org/class/yago/YagoPermanentlyLocatedEntity
p339
aVhttp://dbpedia.org/class/yago/YagoLegalActor
p340
aVhttp://dbpedia.org/class/yago/UniversitiesAndCollegesAccreditedByTheSouthernAssociationOfCollegesAndSchools
p341
asVdisambiguatedURL
p342
Vhttp://dbpedia.org/resource/Jefferson_Davis_Community_College
p343
sVnamedEntity
p344
Vjefferson davis community college
p345
sVoffset
p346
I33
saa(lp347
(dp348
Vstart
p349
I0
sg7
(lp350
Vhttp://www.w3.org/2002/07/owl#Thing
p351
aVhttp://www.ontologydesignpatterns.org/ont/dul/DUL.owl#Agent
p352
aVhttp://www.ontologydesignpatterns.org/ont/dul/DUL.owl#SocialPerson
p353
aVhttp://www.wikidata.org/entity/Q3918
p354
aVhttp://www.wikidata.org/entity/Q43229
p355
aVhttp://dbpedia.org/ontology/Agent
p356
aVhttp://dbpedia.org/ontology/EducationalInstitution
p357
aVhttp://dbpedia.org/ontology/Organisation
p358
aVhttp://dbpedia.org/ontology/University
p359
aVhttp://schema.org/CollegeOrUniversity
p360
aVhttp://schema.org/EducationalOrganization
p361
aVhttp://schema.org/Organization
p362
aVhttp://umbel.org/umbel/rc/EducationalOrganization
p363
aVhttp://umbel.org/umbel/rc/University
p364
aVhttp://dbpedia.org/class/yago/Abstraction100002137
p365
aVhttp://dbpedia.org/class/yago/EducationalInstitution108276342
p366
aVhttp://dbpedia.org/class/yago/Group100031264
p367
aVhttp://dbpedia.org/class/yago/Institution108053576
p368
aVhttp://dbpedia.org/class/yago/Organization108008335
p369
aVhttp://dbpedia.org/class/yago/SocialGroup107950920
p370
aVhttp://dbpedia.org/class/yago/University108286569
p371
aVhttp://dbpedia.org/class/yago/YagoLegalActorGeo
p372
aVhttp://dbpedia.org/class/yago/EducationalInstitutionsEstablishedIn1830
p373
aVhttp://dbpedia.org/class/yago/YagoPermanentlyLocatedEntity
p374
aVhttp://dbpedia.org/class/yago/YagoLegalActor
p375
aVhttp://dbpedia.org/class/yago/PublicUniversities
p376
aVhttp://dbpedia.org/class/yago/UniversitiesAndCollegesAccreditedByTheSouthernAssociationOfCollegesAndSchools
p377
aVhttp://dbpedia.org/class/yago/UniversitiesAndCollegesInAlabama
p378
asVdisambiguatedURL
p379
Vhttp://dbpedia.org/resource/University_of_North_Alabama
p380
sVnamedEntity
p381
Vuniversity of south alabama
p382
sVoffset
p383
I27
saa(lp384
(dp385
Vstart
p386
I0
sg7
(lp387
Vhttp://www.w3.org/2002/07/owl#Thing
p388
aVhttp://www.ontologydesignpatterns.org/ont/dul/DUL.owl#Agent
p389
aVhttp://www.ontologydesignpatterns.org/ont/dul/DUL.owl#SocialPerson
p390
aVhttp://www.wikidata.org/entity/Q3918
p391
aVhttp://www.wikidata.org/entity/Q43229
p392
aVhttp://dbpedia.org/ontology/Agent
p393
aVhttp://dbpedia.org/ontology/EducationalInstitution
p394
aVhttp://dbpedia.org/ontology/Organisation
p395
aVhttp://dbpedia.org/ontology/University
p396
aVhttp://schema.org/CollegeOrUniversity
p397
aVhttp://schema.org/EducationalOrganization
p398
aVhttp://schema.org/Organization
p399
aVhttp://umbel.org/umbel/rc/EducationalOrganization
p400
aVhttp://umbel.org/umbel/rc/Organization
p401
aVhttp://umbel.org/umbel/rc/University
p402
aVhttp://dbpedia.org/class/yago/Abstraction100002137
p403
aVhttp://dbpedia.org/class/yago/EducationalInstitution108276342
p404
aVhttp://dbpedia.org/class/yago/Group100031264
p405
aVhttp://dbpedia.org/class/yago/Institution108053576
p406
aVhttp://dbpedia.org/class/yago/Organization108008335
p407
aVhttp://dbpedia.org/class/yago/SocialGroup107950920
p408
aVhttp://dbpedia.org/class/yago/University108286569
p409
aVhttp://dbpedia.org/class/yago/YagoLegalActorGeo
p410
aVhttp://dbpedia.org/class/yago/EducationalInstitutionsEstablishedIn1830
p411
aVhttp://dbpedia.org/class/yago/YagoPermanentlyLocatedEntity
p412
aVhttp://dbpedia.org/class/yago/JesuitUniversitiesAndCollegesInTheUnitedStates
p413
aVhttp://dbpedia.org/class/yago/YagoLegalActor
p414
aVhttp://dbpedia.org/class/yago/RomanCatholicUniversitiesAndCollegesInTheUnitedStates
p415
aVhttp://dbpedia.org/class/yago/UniversitiesAndCollegesAccreditedByTheSouthernAssociationOfCollegesAndSchools
p416
aVhttp://dbpedia.org/class/yago/UniversitiesAndCollegesInMobile,Alabama
p417
asVdisambiguatedURL
p418
Vhttp://dbpedia.org/resource/Spring_Hill_College
p419
sVnamedEntity
p420
Vspring hill college
p421
sVoffset
p422
I19
saa(lp423
(dp424
Vstart
p425
I0
sg7
(lp426
Vhttp://umbel.org/umbel/rc/EducationalOrganization
p427
aVhttp://umbel.org/umbel/rc/University
p428
aVhttp://dbpedia.org/class/yago/Abstraction100002137
p429
aVhttp://dbpedia.org/class/yago/EducationalInstitution108276342
p430
aVhttp://dbpedia.org/class/yago/Group100031264
p431
aVhttp://dbpedia.org/class/yago/Institution108053576
p432
aVhttp://dbpedia.org/class/yago/Organization108008335
p433
aVhttp://dbpedia.org/class/yago/SocialGroup107950920
p434
aVhttp://dbpedia.org/class/yago/University108286569
p435
aVhttp://dbpedia.org/class/yago/YagoLegalActorGeo
p436
aVhttp://dbpedia.org/class/yago/EducationalInstitutionsEstablishedIn1965
p437
aVhttp://dbpedia.org/class/yago/YagoPermanentlyLocatedEntity
p438
aVhttp://dbpedia.org/class/yago/YagoLegalActor
p439
aVhttp://dbpedia.org/class/yago/UniversitiesAndCollegesAccreditedByTheSouthernAssociationOfCollegesAndSchools
p440
aVhttp://dbpedia.org/class/yago/UniversitiesAndCollegesInAlabama
p441
asVdisambiguatedURL
p442
Vhttp://dbpedia.org/resource/Faulkner_State_Community_College
p443
sVnamedEntity
p444
Vfaulkner state community college
p445
sVoffset
p446
I32
saa(lp447
(dp448
Vstart
p449
I0
sg7
(lp450
Vhttp://dbpedia.org/class/yago/Abstraction100002137
p451
aVhttp://dbpedia.org/class/yago/College108278324
p452
aVhttp://dbpedia.org/class/yago/EducationalInstitution108276342
p453
aVhttp://dbpedia.org/class/yago/Group100031264
p454
aVhttp://dbpedia.org/class/yago/Institution108053576
p455
aVhttp://dbpedia.org/class/yago/Organization108008335
p456
aVhttp://dbpedia.org/class/yago/SocialGroup107950920
p457
aVhttp://dbpedia.org/class/yago/University108286569
p458
aVhttp://dbpedia.org/class/yago/YagoLegalActorGeo
p459
aVhttp://dbpedia.org/class/yago/CommunityCollege108282542
p460
aVhttp://dbpedia.org/class/yago/CommunityCollegesInAlabama
p461
aVhttp://dbpedia.org/class/yago/EducationalInstitutionsEstablishedIn1965
p462
aVhttp://dbpedia.org/class/yago/JuniorCollege108282364
p463
aVhttp://dbpedia.org/class/yago/YagoPermanentlyLocatedEntity
p464
aVhttp://dbpedia.org/class/yago/YagoLegalActor
p465
aVhttp://dbpedia.org/class/yago/UniversitiesAndCollegesAccreditedByTheSouthernAssociationOfCollegesAndSchools
p466
asVdisambiguatedURL
p467
Vhttp://dbpedia.org/resource/Enterprise_State_Community_College
p468
sVnamedEntity
p469
Venterprise-ozark community college
p470
sVoffset
p471
I34
saa(lp472
(dp473
Vstart
p474
I0
sg7
(lp475
Vhttp://umbel.org/umbel/rc/EducationalOrganization
p476
aVhttp://umbel.org/umbel/rc/University
p477
aVhttp://dbpedia.org/class/yago/Abstraction100002137
p478
aVhttp://dbpedia.org/class/yago/EducationalInstitution108276342
p479
aVhttp://dbpedia.org/class/yago/Group100031264
p480
aVhttp://dbpedia.org/class/yago/Institution108053576
p481
aVhttp://dbpedia.org/class/yago/Organization108008335
p482
aVhttp://dbpedia.org/class/yago/SocialGroup107950920
p483
aVhttp://dbpedia.org/class/yago/University108286569
p484
aVhttp://dbpedia.org/class/yago/YagoLegalActorGeo
p485
aVhttp://dbpedia.org/class/yago/EducationalInstitutionsEstablishedIn1942
p486
aVhttp://dbpedia.org/class/yago/YagoPermanentlyLocatedEntity
p487
aVhttp://dbpedia.org/class/yago/YagoLegalActor
p488
aVhttp://dbpedia.org/class/yago/UniversitiesAndCollegesAccreditedByTheSouthernAssociationOfCollegesAndSchools
p489
aVhttp://dbpedia.org/class/yago/UniversitiesAndCollegesAffiliatedWithTheChurchesOfChrist
p490
aVhttp://dbpedia.org/class/yago/UniversitiesAndCollegesInAlabama
p491
aVhttp://dbpedia.org/class/yago/UniversitiesAndCollegesInMontgomery,Alabama
p492
asVdisambiguatedURL
p493
Vhttp://dbpedia.org/resource/Faulkner_University
p494
sVnamedEntity
p495
Vfaulkner university
p496
sVoffset
p497
I19
saa(lp498
a(lp499
(dp500
Vstart
p501
I0
sg7
(lp502
Vhttp://www.w3.org/2002/07/owl#Thing
p503
aVhttp://www.ontologydesignpatterns.org/ont/dul/DUL.owl#Agent
p504
aVhttp://www.ontologydesignpatterns.org/ont/dul/DUL.owl#SocialPerson
p505
aVhttp://www.wikidata.org/entity/Q3918
p506
aVhttp://www.wikidata.org/entity/Q43229
p507
aVhttp://dbpedia.org/ontology/Agent
p508
aVhttp://dbpedia.org/ontology/EducationalInstitution
p509
aVhttp://dbpedia.org/ontology/Organisation
p510
aVhttp://dbpedia.org/ontology/University
p511
aVhttp://schema.org/CollegeOrUniversity
p512
aVhttp://schema.org/EducationalOrganization
p513
aVhttp://schema.org/Organization
p514
aVhttp://dbpedia.org/class/yago/Abstraction100002137
p515
aVhttp://dbpedia.org/class/yago/College108278324
p516
aVhttp://dbpedia.org/class/yago/EducationalInstitution108276342
p517
aVhttp://dbpedia.org/class/yago/Group100031264
p518
aVhttp://dbpedia.org/class/yago/Institution108053576
p519
aVhttp://dbpedia.org/class/yago/Organization108008335
p520
aVhttp://dbpedia.org/class/yago/SocialGroup107950920
p521
aVhttp://dbpedia.org/class/yago/University108286569
p522
aVhttp://dbpedia.org/class/yago/YagoLegalActorGeo
p523
aVhttp://dbpedia.org/class/yago/CommunityCollege108282542
p524
aVhttp://dbpedia.org/class/yago/CommunityCollegesInAlabama
p525
aVhttp://dbpedia.org/class/yago/EducationalInstitutionsEstablishedIn1969
p526
aVhttp://dbpedia.org/class/yago/JuniorCollege108282364
p527
aVhttp://dbpedia.org/class/yago/YagoPermanentlyLocatedEntity
p528
aVhttp://dbpedia.org/class/yago/YagoLegalActor
p529
asVdisambiguatedURL
p530
Vhttp://dbpedia.org/resource/Lurleen_B._Wallace_Community_College
p531
sVnamedEntity
p532
Vlurleen b. wallace community college
p533
sVoffset
p534
I36
saa.