ccollections
defaultdict
p1
(c__builtin__
dict
p2
tRp3
I4
(dp4
I1
(lp5
Vhttp://dbpedia.org/ontology/abstract
p6
aVhttp://www.w3.org/2000/01/rdf-schema#comment
p7
asI2
(lp8
Vhttp://xmlns.com/foaf/0.1/primaryTopic
p9
aVhttp://www.w3.org/1999/02/22-rdf-syntax-ns#type
p10
aVhttp://purl.org/dc/terms/subject
p11
aVhttp://www.w3.org/2000/01/rdf-schema#comment
p12
aVhttp://dbpedia.org/ontology/abstract
p13
aVhttp://dbpedia.org/ontology/wikiPageRedirects
p14
aVhttp://xmlns.com/foaf/0.1/isPrimaryTopicOf
p15
aVhttp://www.w3.org/ns/prov#wasDerivedFrom
p16
aVhttp://dbpedia.org/property/hasPhotoCollection
p17
aVhttp://www.w3.org/2000/01/rdf-schema#label
p18
aVhttp://www.w3.org/2002/07/owl#sameAs
p19
asI3
(lp20
ssI5
(dp21
I1
(lp22
Vhttp://dbpedia.org/ontology/wikiPageRedirects
p23
aVhttp://xmlns.com/foaf/0.1/primaryTopic
p24
aVhttp://www.w3.org/1999/02/22-rdf-syntax-ns#type
p25
aVhttp://purl.org/dc/terms/subject
p26
aVhttp://www.w3.org/2000/01/rdf-schema#comment
p27
aVhttp://www.w3.org/2002/07/owl#differentFrom
p28
aVhttp://dbpedia.org/ontology/abstract
p29
aVhttp://xmlns.com/foaf/0.1/depiction
p30
aVhttp://dbpedia.org/property/name
p31
aVhttp://dbpedia.org/property/location
p32
aVhttp://xmlns.com/foaf/0.1/isPrimaryTopicOf
p33
aVhttp://dbpedia.org/property/affiliations
p34
aVhttp://www.w3.org/ns/prov#wasDerivedFrom
p35
aVhttp://dbpedia.org/ontology/affiliation
p36
aVhttp://dbpedia.org/property/hasPhotoCollection
p37
aVhttp://www.w3.org/2000/01/rdf-schema#label
p38
aVhttp://www.w3.org/2002/07/owl#sameAs
p39
aVhttp://dbpedia.org/ontology/thumbnail
p40
asI2
(lp41
Vhttp://www.w3.org/2002/07/owl#differentFrom
p42
aVhttp://dbpedia.org/ontology/abstract
p43
aVhttp://www.w3.org/1999/02/22-rdf-syntax-ns#type
p44
aVhttp://purl.org/dc/terms/subject
p45
aVhttp://www.w3.org/2000/01/rdf-schema#comment
p46
asI3
(lp47
ssI8
(dp48
I1
(lp49
Vhttp://dbpedia.org/ontology/wikiPageExternalLink
p50
aVhttp://xmlns.com/foaf/0.1/primaryTopic
p51
aVhttp://www.w3.org/1999/02/22-rdf-syntax-ns#type
p52
aVhttp://purl.org/dc/terms/subject
p53
aVhttp://dbpedia.org/ontology/location
p54
aVhttp://www.w3.org/2000/01/rdf-schema#comment
p55
aVhttp://dbpedia.org/ontology/wikiPageRedirects
p56
aVhttp://dbpedia.org/ontology/abstract
p57
aVhttp://xmlns.com/foaf/0.1/depiction
p58
aVhttp://dbpedia.org/property/name
p59
aVhttp://dbpedia.org/property/location
p60
aVhttp://www.w3.org/ns/prov#wasDerivedFrom
p61
aVhttp://xmlns.com/foaf/0.1/isPrimaryTopicOf
p62
aVhttp://xmlns.com/foaf/0.1/name
p63
aVhttp://dbpedia.org/property/nativeName
p64
aVhttp://www.w3.org/2000/01/rdf-schema#label
p65
aVhttp://dbpedia.org/property/hasPhotoCollection
p66
aVhttp://www.w3.org/2002/07/owl#sameAs
p67
aVhttp://dbpedia.org/ontology/thumbnail
p68
asI2
(lp69
Vhttp://dbpedia.org/ontology/abstract
p70
aVhttp://www.w3.org/1999/02/22-rdf-syntax-ns#type
p71
aVhttp://purl.org/dc/terms/subject
p72
aVhttp://dbpedia.org/property/location
p73
aVhttp://www.w3.org/2000/01/rdf-schema#comment
p74
asI3
(lp75
ssI9
(dp76
I1
(lp77
Vhttp://dbpedia.org/ontology/abstract
p78
aVhttp://www.w3.org/2000/01/rdf-schema#comment
p79
asI2
(lp80
Vhttp://dbpedia.org/ontology/abstract
p81
aVhttp://www.w3.org/1999/02/22-rdf-syntax-ns#type
p82
aVhttp://purl.org/dc/terms/subject
p83
aVhttp://dbpedia.org/property/location
p84
aVhttp://www.w3.org/2000/01/rdf-schema#comment
p85
asI3
(lp86
ssI11
(dp87
I1
(lp88
Vhttp://xmlns.com/foaf/0.1/primaryTopic
p89
aVhttp://www.w3.org/1999/02/22-rdf-syntax-ns#type
p90
aVhttp://purl.org/dc/terms/subject
p91
aVhttp://www.w3.org/2000/01/rdf-schema#comment
p92
aVhttp://dbpedia.org/ontology/wikiPageDisambiguates
p93
aVhttp://dbpedia.org/ontology/abstract
p94
aVhttp://dbpedia.org/property/name
p95
aVhttp://dbpedia.org/ontology/wikiPageRedirects
p96
aVhttp://xmlns.com/foaf/0.1/isPrimaryTopicOf
p97
aVhttp://www.w3.org/ns/prov#wasDerivedFrom
p98
aVhttp://dbpedia.org/property/hasPhotoCollection
p99
aVhttp://www.w3.org/2000/01/rdf-schema#label
p100
aVhttp://www.w3.org/2002/07/owl#sameAs
p101
asI2
(lp102
Vhttp://dbpedia.org/ontology/abstract
p103
aVhttp://www.w3.org/1999/02/22-rdf-syntax-ns#type
p104
aVhttp://purl.org/dc/terms/subject
p105
aVhttp://www.w3.org/2000/01/rdf-schema#comment
p106
asI3
(lp107
ssI14
(dp108
I1
(lp109
Vhttp://dbpedia.org/ontology/abstract
p110
aVhttp://purl.org/dc/terms/subject
p111
aVhttp://www.w3.org/2000/01/rdf-schema#comment
p112
asI2
(lp113
Vhttp://dbpedia.org/ontology/abstract
p114
aVhttp://www.w3.org/1999/02/22-rdf-syntax-ns#type
p115
aVhttp://purl.org/dc/terms/subject
p116
aVhttp://www.w3.org/2000/01/rdf-schema#comment
p117
asI3
(lp118
ssI15
(dp119
I1
(lp120
Vhttp://dbpedia.org/ontology/abstract
p121
aVhttp://dbpedia.org/property/location
p122
aVhttp://www.w3.org/2000/01/rdf-schema#comment
p123
asI2
(lp124
Vhttp://dbpedia.org/ontology/abstract
p125
aVhttp://www.w3.org/1999/02/22-rdf-syntax-ns#type
p126
aVhttp://purl.org/dc/terms/subject
p127
aVhttp://dbpedia.org/property/location
p128
aVhttp://www.w3.org/2000/01/rdf-schema#comment
p129
asI3
(lp130
ssI18
(dp131
I1
(lp132
Vhttp://dbpedia.org/ontology/abstract
p133
aVhttp://www.w3.org/1999/02/22-rdf-syntax-ns#type
p134
aVhttp://purl.org/dc/terms/subject
p135
aVhttp://dbpedia.org/property/location
p136
aVhttp://www.w3.org/2000/01/rdf-schema#comment
p137
asI2
(lp138
Vhttp://dbpedia.org/property/mapCaption
p139
aVhttp://www.w3.org/1999/02/22-rdf-syntax-ns#type
p140
aVhttp://purl.org/dc/terms/subject
p141
aVhttp://dbpedia.org/property/mapType
p142
aVhttp://www.w3.org/2000/01/rdf-schema#comment
p143
aVhttp://dbpedia.org/ontology/abstract
p144
asI3
(lp145
ssI19
(dp146
I1
(lp147
Vhttp://www.w3.org/1999/02/22-rdf-syntax-ns#type
p148
aVhttp://purl.org/dc/terms/subject
p149
aVhttp://dbpedia.org/ontology/location
p150
aVhttp://www.w3.org/2000/01/rdf-schema#comment
p151
aVhttp://dbpedia.org/ontology/abstract
p152
aVhttp://dbpedia.org/property/location
p153
asI2
(lp154
Vhttp://www.w3.org/1999/02/22-rdf-syntax-ns#type
p155
aVhttp://purl.org/dc/terms/subject
p156
aVhttp://dbpedia.org/ontology/location
p157
aVhttp://www.w3.org/2000/01/rdf-schema#comment
p158
aVhttp://dbpedia.org/ontology/abstract
p159
aVhttp://dbpedia.org/property/location
p160
aVhttp://dbpedia.org/property/locmapin
p161
aVhttp://dbpedia.org/property/designatedOther
p162
asI3
(lp163
ss.