ccollections
defaultdict
p1
(c__builtin__
dict
p2
tRp3
I4
(dp4
I0
(lp5
Vhttp://dbpedia.org/ontology/genre
p6
aVhttp://dbpedia.org/property/genre
p7
asI1
(lp8
sI3
(lp9
sI4
(lp10
Vhttp://dbpedia.org/ontology/genre
p11
aVhttp://dbpedia.org/property/genre
p12
aVhttp://dbpedia.org/ontology/abstract
p13
aVhttp://www.w3.org/2000/01/rdf-schema#comment
p14
assI7
(dp15
I0
(lp16
Vhttp://dbpedia.org/ontology/genre
p17
aVhttp://dbpedia.org/property/genre
p18
asI1
(lp19
sI3
(lp20
sI4
(lp21
ssI8
(dp22
I0
(lp23
Vhttp://dbpedia.org/ontology/genre
p24
aVhttp://dbpedia.org/property/genre
p25
aVhttp://www.w3.org/1999/02/22-rdf-syntax-ns#type
p26
asI1
(lp27
sI3
(lp28
sI4
(lp29
Vhttp://dbpedia.org/ontology/genre
p30
aVhttp://dbpedia.org/property/genre
p31
aVhttp://dbpedia.org/ontology/abstract
p32
aVhttp://www.w3.org/2000/01/rdf-schema#comment
p33
assI12
(dp34
I0
(lp35
Vhttp://dbpedia.org/ontology/genre
p36
aVhttp://dbpedia.org/property/genre
p37
asI1
(lp38
sI3
(lp39
sI4
(lp40
Vhttp://dbpedia.org/ontology/genre
p41
aVhttp://dbpedia.org/property/genre
p42
aVhttp://dbpedia.org/ontology/abstract
p43
aVhttp://www.w3.org/2000/01/rdf-schema#comment
p44
assI14
(dp45
I0
(lp46
Vhttp://dbpedia.org/ontology/genre
p47
aVhttp://dbpedia.org/property/genre
p48
asI1
(lp49
sI3
(lp50
sI4
(lp51
Vhttp://dbpedia.org/ontology/genre
p52
aVhttp://dbpedia.org/property/genre
p53
assI16
(dp54
I0
(lp55
Vhttp://dbpedia.org/property/genre
p56
asI1
(lp57
sI3
(lp58
sI4
(lp59
ssI19
(dp60
I0
(lp61
Vhttp://dbpedia.org/ontology/genre
p62
aVhttp://dbpedia.org/property/genre
p63
asI1
(lp64
Vhttp://dbpedia.org/ontology/abstract
p65
aVhttp://www.w3.org/2000/01/rdf-schema#comment
p66
asI3
(lp67
Vhttp://dbpedia.org/ontology/abstract
p68
asI4
(lp69
Vhttp://dbpedia.org/ontology/genre
p70
aVhttp://dbpedia.org/property/genre
p71
aVhttp://dbpedia.org/ontology/abstract
p72
ass.