(lp1
(lp2
(lp3
a(lp4
a(lp5
a(lp6
aa(lp7
(lp8
a(lp9
a(lp10
a(lp11
aa(lp12
(lp13
a(lp14
Vhttp://dbpedia.org/resource/World_Affairs_Council_of_Dallas/Fort_Worth
p15
aa(lp16
a(lp17
aa(lp18
(lp19
a(lp20
a(lp21
Vhttp://dbpedia.org/resource/Pennsylvania
p22
aa(lp23
aa(lp24
(lp25
Vhttp://dbpedia.org/resource/Arkansas_Arts_Center
p26
aa(lp27
a(lp28
a(lp29
aa(lp30
(lp31
Vhttp://dbpedia.org/resource/Art_Institute_of_Chicago
p32
aa(lp33
a(lp34
Vhttp://dbpedia.org/resource/Wolf_Lake_(Indiana/Illinois)
p35
aa(lp36
aa(lp37
(lp38
a(lp39
Vhttp://dbpedia.org/resource/San_Antonio
p40
aa(lp41
a(lp42
aa(lp43
(lp44
a(lp45
a(lp46
a(lp47
aa(lp48
(lp49
Vhttp://dbpedia.org/resource/Baltimore_Museum_of_Art
p50
aa(lp51
a(lp52
a(lp53
aa(lp54
(lp55
Vhttp://dbpedia.org/resource/Barnes_Foundation
p56
aa(lp57
a(lp58
Vhttp://dbpedia.org/resource/Pennsylvania
p59
aa(lp60
aa(lp61
(lp62
a(lp63
Vhttp://dbpedia.org/resource/Miami_Beach,_Florida
p64
aa(lp65
a(lp66
aa(lp67
(lp68
Vhttp://dbpedia.org/resource/Birmingham_Museum_of_Art
p69
aa(lp70
a(lp71
a(lp72
aa(lp73
(lp74
Vhttp://dbpedia.org/resource/Blue_Star_Contemporary_Art_Museum
p75
aa(lp76
Vhttp://dbpedia.org/resource/San_Antonio
p77
aa(lp78
a(lp79
aa(lp80
(lp81
a(lp82
a(lp83
Vhttp://dbpedia.org/resource/Massachusetts
p84
aa(lp85
aa(lp86
(lp87
Vhttp://dbpedia.org/resource/Bowdoin_College_Museum_of_Art
p88
aa(lp89
a(lp90
a(lp91
aa(lp92
(lp93
Vhttp://dbpedia.org/resource/Brandywine_River_Museum
p94
aa(lp95
a(lp96
Vhttp://dbpedia.org/resource/Pennsylvania
p97
aa(lp98
aa(lp99
(lp100
a(lp101
a(lp102
a(lp103
aa(lp104
(lp105
Vhttp://dbpedia.org/resource/Legion_of_Honor_(museum)
p106
aa(lp107
a(lp108
a(lp109
aa(lp110
(lp111
Vhttp://dbpedia.org/resource/Carnegie_Museum_of_Art
p112
aa(lp113
a(lp114
Vhttp://dbpedia.org/resource/Pennsylvania
p115
aa(lp116
aa(lp117
(lp118
Vhttp://dbpedia.org/resource/Chrysler_Museum_of_Art
p119
aa(lp120
a(lp121
a(lp122
aa.