(lp1
(lp2
(lp3
a(lp4
a(lp5
a(lp6
a(lp7
aa(lp8
(lp9
a(lp10
a(lp11
a(lp12
Vhttp://dbpedia.org/resource/PlayStation_Network
p13
aa(lp14
aa(lp15
(lp16
a(lp17
a(lp18
a(lp19
a(lp20
aa(lp21
(lp22
a(lp23
a(lp24
Vhttp://dbpedia.org/resource/Shooter_(mixed_drink)
p25
aa(lp26
a(lp27
aa(lp28
(lp29
a(lp30
a(lp31
Vhttp://dbpedia.org/resource/Action-adventure_game
p32
aa(lp33
a(lp34
aa(lp35
(lp36
a(lp37
a(lp38
a(lp39
a(lp40
aa(lp41
(lp42
a(lp43
a(lp44
Vhttp://dbpedia.org/resource/Shooter_(mixed_drink)
p45
aa(lp46
a(lp47
aa(lp48
(lp49
a(lp50
a(lp51
Vhttp://dbpedia.org/resource/Action-adventure_game
p52
aa(lp53
a(lp54
Vhttp://dbpedia.org/resource/Ubisoft_Montreal
p55
aaa(lp56
(lp57
a(lp58
a(lp59
Vhttp://dbpedia.org/resource/Action-adventure_game
p60
aa(lp61
a(lp62
aa(lp63
(lp64
a(lp65
a(lp66
Vhttp://dbpedia.org/resource/Shooter_(mixed_drink)
p67
aa(lp68
a(lp69
aa(lp70
(lp71
a(lp72
a(lp73
a(lp74
a(lp75
aa(lp76
(lp77
a(lp78
a(lp79
a(lp80
a(lp81
aa(lp82
(lp83
a(lp84
a(lp85
Vhttp://dbpedia.org/resource/Action-adventure_game
p86
aa(lp87
a(lp88
aa(lp89
(lp90
a(lp91
Vhttp://dbpedia.org/resource/Goldeneye
p92
aa(lp93
Vhttp://dbpedia.org/resource/Shooter_(mixed_drink)
p94
aa(lp95
a(lp96
aa(lp97
(lp98
a(lp99
a(lp100
Vhttp://dbpedia.org/resource/Platform_game
p101
aa(lp102
a(lp103
aa(lp104
(lp105
a(lp106
Vhttp://dbpedia.org/resource/Twisted_Metal
p107
aa(lp108
a(lp109
Vhttp://dbpedia.org/resource/PlayStation
p110
aa(lp111
aa(lp112
(lp113
a(lp114
a(lp115
Vhttp://dbpedia.org/resource/Platform_game
p116
aa(lp117
a(lp118
aa(lp119
(lp120
a(lp121
a(lp122
a(lp123
a(lp124
aa(lp125
(lp126
a(lp127
a(lp128
a(lp129
a(lp130
aa(lp131
(lp132
a(lp133
Vhttp://dbpedia.org/resource/Sonic_the_Hedgehog
p134
aa(lp135
Vhttp://dbpedia.org/resource/Platform_game
p136
aa(lp137
a(lp138
aa.