(lp1
(lp2
(lp3
a(lp4
a(lp5
a(lp6
a(lp7
Vhttp://dbpedia.org/resource/Bethesda_Softworks
p8
aaa(lp9
(lp10
a(lp11
a(lp12
Vhttp://dbpedia.org/resource/Action-adventure_game
p13
aa(lp14
a(lp15
Vhttp://dbpedia.org/resource/Rockstar_Games
p16
aaa(lp17
(lp18
a(lp19
a(lp20
a(lp21
a(lp22
aa(lp23
(lp24
a(lp25
a(lp26
a(lp27
a(lp28
Vhttp://dbpedia.org/resource/Bethesda_Softworks
p29
aaa(lp30
(lp31
a(lp32
a(lp33
Vhttp://dbpedia.org/resource/First-person_shooter
p34
aa(lp35
a(lp36
aa(lp37
(lp38
a(lp39
a(lp40
Vhttp://dbpedia.org/resource/Action-adventure_game
p41
aa(lp42
a(lp43
aa(lp44
(lp45
a(lp46
a(lp47
Vhttp://dbpedia.org/resource/Turn-based_strategy
p48
aa(lp49
a(lp50
aa(lp51
(lp52
a(lp53
a(lp54
Vhttp://dbpedia.org/resource/First-person_shooter
p55
aa(lp56
a(lp57
aa(lp58
(lp59
a(lp60
Vhttp://dbpedia.org/resource/Star_Wars:_Knights_of_the_Old_Republic_(comics)
p61
aa(lp62
a(lp63
a(lp64
aa(lp65
(lp66
a(lp67
a(lp68
Vhttp://dbpedia.org/resource/Graphic_adventure_game
p69
aa(lp70
a(lp71
aa(lp72
(lp73
a(lp74
a(lp75
a(lp76
a(lp77
aa(lp78
(lp79
a(lp80
a(lp81
a(lp82
a(lp83
aa(lp84
(lp85
a(lp86
Vhttp://dbpedia.org/resource/Unreal_(series)
p87
aa(lp88
Vhttp://dbpedia.org/resource/First-person_shooter
p89
aa(lp90
a(lp91
aa.