(lp1
(lp2
(dp3
Vstart
p4
I0
sVdisambiguatedURL
p5
NsVnamedEntity
p6
Valbright-knox art gallery
p7
sVoffset
p8
I25
saa(lp9
(dp10
Vstart
p11
I0
sVdisambiguatedURL
p12
NsVnamedEntity
p13
Vallen memorial art museum
p14
sVoffset
p15
I25
saa(lp16
(dp17
Vstart
p18
I0
sVdisambiguatedURL
p19
NsVnamedEntity
p20
Vamon carter museum
p21
sVoffset
p22
I18
saa(lp23
(dp24
Vstart
p25
I0
sVdisambiguatedURL
p26
NsVnamedEntity
p27
Vandy warhol museum
p28
sVoffset
p29
I18
saa(lp30
(dp31
Vstart
p32
I0
sVdisambiguatedURL
p33
Vhttp://dbpedia.org/resource/Arkansas_Arts_Center
p34
sVnamedEntity
p35
Varkansas arts center
p36
sVoffset
p37
I20
saa(lp38
(dp39
Vstart
p40
I0
sVdisambiguatedURL
p41
Vhttp://dbpedia.org/resource/Art_Institute_of_Chicago
p42
sVnamedEntity
p43
Vart institute of chicago
p44
sVoffset
p45
I24
saa(lp46
(dp47
Vstart
p48
I0
sVdisambiguatedURL
p49
NsVnamedEntity
p50
Vartpace
p51
sVoffset
p52
I7
saa(lp53
(dp54
Vstart
p55
I0
sVdisambiguatedURL
p56
NsVnamedEntity
p57
Vasia society
p58
sVoffset
p59
I12
saa(lp60
(dp61
Vstart
p62
I0
sVdisambiguatedURL
p63
Vhttp://dbpedia.org/resource/Baltimore_Museum_of_Art
p64
sVnamedEntity
p65
Vbaltimore museum of art
p66
sVoffset
p67
I23
saa(lp68
(dp69
Vstart
p70
I0
sVdisambiguatedURL
p71
Vhttp://dbpedia.org/resource/Barnes_Foundation
p72
sVnamedEntity
p73
Vbarnes foundation
p74
sVoffset
p75
I17
saa(lp76
(dp77
Vstart
p78
I0
sVdisambiguatedURL
p79
NsVnamedEntity
p80
Vbass museum
p81
sVoffset
p82
I11
saa(lp83
(dp84
Vstart
p85
I0
sVdisambiguatedURL
p86
Vhttp://dbpedia.org/resource/Birmingham_Museum_of_Art
p87
sVnamedEntity
p88
Vbirmingham museum of art
p89
sVoffset
p90
I24
saa(lp91
(dp92
Vstart
p93
I0
sVdisambiguatedURL
p94
Vhttp://dbpedia.org/resource/Blue_Star_Contemporary_Art_Museum
p95
sVnamedEntity
p96
Vblue star contemporary art center
p97
sVoffset
p98
I33
saa(lp99
(dp100
Vstart
p101
I0
sVdisambiguatedURL
p102
NsVnamedEntity
p103
Vboston museum of fine arts
p104
sVoffset
p105
I26
saa(lp106
(dp107
Vstart
p108
I0
sVdisambiguatedURL
p109
Vhttp://dbpedia.org/resource/Bowdoin_College_Museum_of_Art
p110
sVnamedEntity
p111
Vbowdoin college museum of art
p112
sVoffset
p113
I29
saa(lp114
(dp115
Vstart
p116
I0
sVdisambiguatedURL
p117
Vhttp://dbpedia.org/resource/Brandywine_River_Museum
p118
sVnamedEntity
p119
Vbrandywine river museum
p120
sVoffset
p121
I23
saa(lp122
(dp123
Vstart
p124
I0
sVdisambiguatedURL
p125
NsVnamedEntity
p126
Vbrooklyn museum
p127
sVoffset
p128
I15
saa(lp129
(dp130
Vstart
p131
I0
sVdisambiguatedURL
p132
Vhttp://dbpedia.org/resource/Legion_of_Honor_(museum)
p133
sVnamedEntity
p134
Vcalifornia palace of the legion of honor
p135
sVoffset
p136
I40
saa(lp137
(dp138
Vstart
p139
I0
sVdisambiguatedURL
p140
Vhttp://dbpedia.org/resource/Carnegie_Museum_of_Art
p141
sVnamedEntity
p142
Vcarnegie museum of art
p143
sVoffset
p144
I22
saa(lp145
(dp146
Vstart
p147
I0
sVdisambiguatedURL
p148
Vhttp://dbpedia.org/resource/Chrysler_Museum_of_Art
p149
sVnamedEntity
p150
Vchrysler museum of art
p151
sVoffset
p152
I22
saa.