(lp1
(lp2
(lp3
a(lp4
a(lp5
a(lp6
a(lp7
Vhttp://dbpedia.org/resource/Rocksteady_Studios
p8
aaa(lp9
(lp10
a(lp11
a(lp12
a(lp13
a(lp14
aa(lp15
(lp16
a(lp17
a(lp18
a(lp19
Vhttp://dbpedia.org/resource/PlayStation_Network
p20
aa(lp21
aa(lp22
(lp23
a(lp24
a(lp25
a(lp26
a(lp27
aa(lp28
(lp29
a(lp30
a(lp31
a(lp32
a(lp33
aa(lp34
(lp35
a(lp36
a(lp37
Vhttp://dbpedia.org/resource/Action-adventure_game
p38
aa(lp39
a(lp40
aa(lp41
(lp42
a(lp43
a(lp44
a(lp45
a(lp46
aa(lp47
(lp48
a(lp49
a(lp50
a(lp51
a(lp52
Vhttp://dbpedia.org/resource/Valve_Corporation
p53
aaa(lp54
(lp55
a(lp56
a(lp57
Vhttp://dbpedia.org/resource/Action-adventure_game
p58
aa(lp59
a(lp60
aa(lp61
(lp62
a(lp63
a(lp64
a(lp65
a(lp66
aa(lp67
(lp68
a(lp69
a(lp70
a(lp71
a(lp72
aa(lp73
(lp74
a(lp75
a(lp76
a(lp77
a(lp78
aa(lp79
(lp80
a(lp81
Vhttp://dbpedia.org/resource/Soul_(series)
p82
aa(lp83
a(lp84
a(lp85
aa(lp86
(lp87
a(lp88
a(lp89
a(lp90
a(lp91
aa(lp92
(lp93
a(lp94
Vhttp://dbpedia.org/resource/Goldeneye
p95
aa(lp96
a(lp97
a(lp98
aa(lp99
(lp100
a(lp101
a(lp102
a(lp103
a(lp104
aa(lp105
(lp106
a(lp107
a(lp108
Vhttp://dbpedia.org/resource/Role-playing_game
p109
aa(lp110
a(lp111
aa(lp112
(lp113
a(lp114
a(lp115
Vhttp://dbpedia.org/resource/Role-playing_game
p116
aa(lp117
a(lp118
aa(lp119
(lp120
a(lp121
a(lp122
Vhttp://dbpedia.org/resource/Action-adventure_game
p123
aa(lp124
a(lp125
aa(lp126
(lp127
a(lp128
a(lp129
Vhttp://dbpedia.org/resource/Action-adventure_game
p130
aa(lp131
a(lp132
aa.