(lp1
(lp2
(lp3
a(lp4
a(lp5
Vhttp://dbpedia.org/resource/List_of_gasoline_additives
p6
aaa(lp7
(lp8
a(lp9
a(lp10
Vhttp://dbpedia.org/resource/Hydraulic_fluid
p11
aaa(lp12
(lp13
a(lp14
Vhttp://dbpedia.org/resource/Mineral_oil
p15
aa(lp16
aa(lp17
(lp18
Vhttp://dbpedia.org/resource/Oil_additive
p19
aa(lp20
a(lp21
aa(lp22
(lp23
a(lp24
a(lp25
Vhttp://dbpedia.org/resource/Motor_oil
p26
aaa.