(lp1
(lp2
(dp3
Vstart
p4
I0
sS'classes'
p5
(lp6
Vhttp://www.w3.org/2002/07/owl#Thing
p7
aVhttp://umbel.org/umbel/rc/Country
p8
aVhttp://umbel.org/umbel/rc/Location_Underspecified
p9
aVhttp://umbel.org/umbel/rc/PopulatedPlace
p10
aVhttp://dbpedia.org/class/yago/Abstraction100002137
p11
aVhttp://dbpedia.org/class/yago/AdministrativeDistrict108491826
p12
aVhttp://dbpedia.org/class/yago/Country108544813
p13
aVhttp://dbpedia.org/class/yago/District108552138
p14
aVhttp://dbpedia.org/class/yago/Economy108366753
p15
aVhttp://dbpedia.org/class/yago/Group100031264
p16
aVhttp://dbpedia.org/class/yago/Location100027167
p17
aVhttp://dbpedia.org/class/yago/Object100002684
p18
aVhttp://dbpedia.org/class/yago/Region108630985
p19
aVhttp://dbpedia.org/class/yago/System108435388
p20
aVhttp://dbpedia.org/class/yago/YagoGeoEntity
p21
aVhttp://dbpedia.org/class/yago/YagoLegalActorGeo
p22
aVhttp://dbpedia.org/class/yago/CountriesBorderingTheArcticOcean
p23
aVhttp://dbpedia.org/class/yago/CountriesBorderingTheAtlanticOcean
p24
aVhttp://dbpedia.org/class/yago/EuropeanCountries
p25
aVhttp://dbpedia.org/class/yago/PhysicalEntity100001930
p26
aVhttp://dbpedia.org/class/yago/YagoPermanentlyLocatedEntity
p27
aVhttp://dbpedia.org/class/yago/MemberStatesOfNATO
p28
aVhttp://dbpedia.org/class/yago/MemberStatesOfTheUnitedNations
p29
aVhttp://dbpedia.org/class/yago/NordicCountries
p30
aVhttp://dbpedia.org/class/yago/StatesAndTerritoriesEstablishedIn1905
p31
aVhttp://dbpedia.org/class/yago/StatesAndTerritoriesEstablishedIn872
p32
aVhttp://dbpedia.org/class/yago/WorldTradeOrganizationMemberEconomies
p33
asVdisambiguatedURL
p34
Vhttp://dbpedia.org/resource/Norway
p35
sVnamedEntity
p36
VNorway
p37
sVoffset
p38
I6
saa(lp39
(dp40
Vstart
p41
I0
sg5
(lp42
Vhttp://www.w3.org/2002/07/owl#Thing
p43
aVhttp://umbel.org/umbel/rc/Country
p44
aVhttp://umbel.org/umbel/rc/Location_Underspecified
p45
aVhttp://umbel.org/umbel/rc/PopulatedPlace
p46
aVhttp://dbpedia.org/class/yago/Abstraction100002137
p47
aVhttp://dbpedia.org/class/yago/AdministrativeDistrict108491826
p48
aVhttp://dbpedia.org/class/yago/Country108544813
p49
aVhttp://dbpedia.org/class/yago/District108552138
p50
aVhttp://dbpedia.org/class/yago/Economy108366753
p51
aVhttp://dbpedia.org/class/yago/Group100031264
p52
aVhttp://dbpedia.org/class/yago/Location100027167
p53
aVhttp://dbpedia.org/class/yago/Object100002684
p54
aVhttp://dbpedia.org/class/yago/Region108630985
p55
aVhttp://dbpedia.org/class/yago/System108435388
p56
aVhttp://dbpedia.org/class/yago/YagoGeoEntity
p57
aVhttp://dbpedia.org/class/yago/YagoLegalActorGeo
p58
aVhttp://dbpedia.org/class/yago/CountriesBorderingTheArcticOcean
p59
aVhttp://dbpedia.org/class/yago/CountriesBorderingTheAtlanticOcean
p60
aVhttp://dbpedia.org/class/yago/EuropeanCountries
p61
aVhttp://dbpedia.org/class/yago/PhysicalEntity100001930
p62
aVhttp://dbpedia.org/class/yago/YagoPermanentlyLocatedEntity
p63
aVhttp://dbpedia.org/class/yago/MemberStatesOfNATO
p64
aVhttp://dbpedia.org/class/yago/MemberStatesOfTheUnitedNations
p65
aVhttp://dbpedia.org/class/yago/NordicCountries
p66
aVhttp://dbpedia.org/class/yago/StatesAndTerritoriesEstablishedIn1905
p67
aVhttp://dbpedia.org/class/yago/StatesAndTerritoriesEstablishedIn872
p68
aVhttp://dbpedia.org/class/yago/WorldTradeOrganizationMemberEconomies
p69
asVdisambiguatedURL
p70
Vhttp://dbpedia.org/resource/Norway
p71
sVnamedEntity
p72
VNorway
p73
sVoffset
p74
I6
saa(lp75
(dp76
Vstart
p77
I0
sg5
(lp78
Vhttp://www.w3.org/2002/07/owl#Thing
p79
aVhttp://umbel.org/umbel/rc/Country
p80
aVhttp://umbel.org/umbel/rc/Location_Underspecified
p81
aVhttp://umbel.org/umbel/rc/PopulatedPlace
p82
aVhttp://dbpedia.org/class/yago/Abstraction100002137
p83
aVhttp://dbpedia.org/class/yago/AdministrativeDistrict108491826
p84
aVhttp://dbpedia.org/class/yago/Country108544813
p85
aVhttp://dbpedia.org/class/yago/District108552138
p86
aVhttp://dbpedia.org/class/yago/Economy108366753
p87
aVhttp://dbpedia.org/class/yago/Group100031264
p88
aVhttp://dbpedia.org/class/yago/Location100027167
p89
aVhttp://dbpedia.org/class/yago/Object100002684
p90
aVhttp://dbpedia.org/class/yago/Region108630985
p91
aVhttp://dbpedia.org/class/yago/System108435388
p92
aVhttp://dbpedia.org/class/yago/YagoGeoEntity
p93
aVhttp://dbpedia.org/class/yago/YagoLegalActorGeo
p94
aVhttp://dbpedia.org/class/yago/CountriesBorderingTheArcticOcean
p95
aVhttp://dbpedia.org/class/yago/CountriesBorderingTheAtlanticOcean
p96
aVhttp://dbpedia.org/class/yago/EuropeanCountries
p97
aVhttp://dbpedia.org/class/yago/PhysicalEntity100001930
p98
aVhttp://dbpedia.org/class/yago/YagoPermanentlyLocatedEntity
p99
aVhttp://dbpedia.org/class/yago/MemberStatesOfNATO
p100
aVhttp://dbpedia.org/class/yago/MemberStatesOfTheUnitedNations
p101
aVhttp://dbpedia.org/class/yago/NordicCountries
p102
aVhttp://dbpedia.org/class/yago/StatesAndTerritoriesEstablishedIn1905
p103
aVhttp://dbpedia.org/class/yago/StatesAndTerritoriesEstablishedIn872
p104
aVhttp://dbpedia.org/class/yago/WorldTradeOrganizationMemberEconomies
p105
asVdisambiguatedURL
p106
Vhttp://dbpedia.org/resource/Norway
p107
sVnamedEntity
p108
VNorway
p109
sVoffset
p110
I6
saa(lp111
(dp112
Vstart
p113
I0
sg5
(lp114
Vhttp://www.w3.org/2002/07/owl#Thing
p115
aVhttp://umbel.org/umbel/rc/Country
p116
aVhttp://umbel.org/umbel/rc/Location_Underspecified
p117
aVhttp://umbel.org/umbel/rc/PopulatedPlace
p118
aVhttp://dbpedia.org/class/yago/Abstraction100002137
p119
aVhttp://dbpedia.org/class/yago/AdministrativeDistrict108491826
p120
aVhttp://dbpedia.org/class/yago/Country108544813
p121
aVhttp://dbpedia.org/class/yago/District108552138
p122
aVhttp://dbpedia.org/class/yago/Economy108366753
p123
aVhttp://dbpedia.org/class/yago/Group100031264
p124
aVhttp://dbpedia.org/class/yago/Location100027167
p125
aVhttp://dbpedia.org/class/yago/Object100002684
p126
aVhttp://dbpedia.org/class/yago/Region108630985
p127
aVhttp://dbpedia.org/class/yago/System108435388
p128
aVhttp://dbpedia.org/class/yago/YagoGeoEntity
p129
aVhttp://dbpedia.org/class/yago/YagoLegalActorGeo
p130
aVhttp://dbpedia.org/class/yago/CountriesBorderingTheArcticOcean
p131
aVhttp://dbpedia.org/class/yago/CountriesBorderingTheAtlanticOcean
p132
aVhttp://dbpedia.org/class/yago/EuropeanCountries
p133
aVhttp://dbpedia.org/class/yago/PhysicalEntity100001930
p134
aVhttp://dbpedia.org/class/yago/YagoPermanentlyLocatedEntity
p135
aVhttp://dbpedia.org/class/yago/MemberStatesOfNATO
p136
aVhttp://dbpedia.org/class/yago/MemberStatesOfTheUnitedNations
p137
aVhttp://dbpedia.org/class/yago/NordicCountries
p138
aVhttp://dbpedia.org/class/yago/StatesAndTerritoriesEstablishedIn1905
p139
aVhttp://dbpedia.org/class/yago/StatesAndTerritoriesEstablishedIn872
p140
aVhttp://dbpedia.org/class/yago/WorldTradeOrganizationMemberEconomies
p141
asVdisambiguatedURL
p142
Vhttp://dbpedia.org/resource/Norway
p143
sVnamedEntity
p144
VNorway
p145
sVoffset
p146
I6
saa(lp147
(dp148
Vstart
p149
I0
sg5
(lp150
Vhttp://www.w3.org/2002/07/owl#Thing
p151
aVhttp://umbel.org/umbel/rc/Country
p152
aVhttp://umbel.org/umbel/rc/Location_Underspecified
p153
aVhttp://umbel.org/umbel/rc/PopulatedPlace
p154
aVhttp://dbpedia.org/class/yago/Abstraction100002137
p155
aVhttp://dbpedia.org/class/yago/AdministrativeDistrict108491826
p156
aVhttp://dbpedia.org/class/yago/Country108544813
p157
aVhttp://dbpedia.org/class/yago/District108552138
p158
aVhttp://dbpedia.org/class/yago/Economy108366753
p159
aVhttp://dbpedia.org/class/yago/Group100031264
p160
aVhttp://dbpedia.org/class/yago/Location100027167
p161
aVhttp://dbpedia.org/class/yago/Object100002684
p162
aVhttp://dbpedia.org/class/yago/Region108630985
p163
aVhttp://dbpedia.org/class/yago/System108435388
p164
aVhttp://dbpedia.org/class/yago/YagoGeoEntity
p165
aVhttp://dbpedia.org/class/yago/YagoLegalActorGeo
p166
aVhttp://dbpedia.org/class/yago/CountriesBorderingTheArcticOcean
p167
aVhttp://dbpedia.org/class/yago/CountriesBorderingTheAtlanticOcean
p168
aVhttp://dbpedia.org/class/yago/EuropeanCountries
p169
aVhttp://dbpedia.org/class/yago/PhysicalEntity100001930
p170
aVhttp://dbpedia.org/class/yago/YagoPermanentlyLocatedEntity
p171
aVhttp://dbpedia.org/class/yago/MemberStatesOfNATO
p172
aVhttp://dbpedia.org/class/yago/MemberStatesOfTheUnitedNations
p173
aVhttp://dbpedia.org/class/yago/NordicCountries
p174
aVhttp://dbpedia.org/class/yago/StatesAndTerritoriesEstablishedIn1905
p175
aVhttp://dbpedia.org/class/yago/StatesAndTerritoriesEstablishedIn872
p176
aVhttp://dbpedia.org/class/yago/WorldTradeOrganizationMemberEconomies
p177
asVdisambiguatedURL
p178
Vhttp://dbpedia.org/resource/Norway
p179
sVnamedEntity
p180
VNorway
p181
sVoffset
p182
I6
saa(lp183
(dp184
Vstart
p185
I0
sg5
(lp186
Vhttp://www.w3.org/2002/07/owl#Thing
p187
aVhttp://umbel.org/umbel/rc/Country
p188
aVhttp://umbel.org/umbel/rc/Location_Underspecified
p189
aVhttp://umbel.org/umbel/rc/PopulatedPlace
p190
aVhttp://dbpedia.org/class/yago/Abstraction100002137
p191
aVhttp://dbpedia.org/class/yago/AdministrativeDistrict108491826
p192
aVhttp://dbpedia.org/class/yago/Country108544813
p193
aVhttp://dbpedia.org/class/yago/District108552138
p194
aVhttp://dbpedia.org/class/yago/Economy108366753
p195
aVhttp://dbpedia.org/class/yago/Group100031264
p196
aVhttp://dbpedia.org/class/yago/Location100027167
p197
aVhttp://dbpedia.org/class/yago/Object100002684
p198
aVhttp://dbpedia.org/class/yago/Region108630985
p199
aVhttp://dbpedia.org/class/yago/System108435388
p200
aVhttp://dbpedia.org/class/yago/YagoGeoEntity
p201
aVhttp://dbpedia.org/class/yago/YagoLegalActorGeo
p202
aVhttp://dbpedia.org/class/yago/CountriesBorderingTheArcticOcean
p203
aVhttp://dbpedia.org/class/yago/CountriesBorderingTheAtlanticOcean
p204
aVhttp://dbpedia.org/class/yago/EuropeanCountries
p205
aVhttp://dbpedia.org/class/yago/PhysicalEntity100001930
p206
aVhttp://dbpedia.org/class/yago/YagoPermanentlyLocatedEntity
p207
aVhttp://dbpedia.org/class/yago/MemberStatesOfNATO
p208
aVhttp://dbpedia.org/class/yago/MemberStatesOfTheUnitedNations
p209
aVhttp://dbpedia.org/class/yago/NordicCountries
p210
aVhttp://dbpedia.org/class/yago/StatesAndTerritoriesEstablishedIn1905
p211
aVhttp://dbpedia.org/class/yago/StatesAndTerritoriesEstablishedIn872
p212
aVhttp://dbpedia.org/class/yago/WorldTradeOrganizationMemberEconomies
p213
asVdisambiguatedURL
p214
Vhttp://dbpedia.org/resource/Norway
p215
sVnamedEntity
p216
VNorway
p217
sVoffset
p218
I6
saa(lp219
(dp220
Vstart
p221
I0
sg5
(lp222
Vhttp://www.w3.org/2002/07/owl#Thing
p223
aVhttp://umbel.org/umbel/rc/Country
p224
aVhttp://umbel.org/umbel/rc/Location_Underspecified
p225
aVhttp://umbel.org/umbel/rc/PopulatedPlace
p226
aVhttp://dbpedia.org/class/yago/Abstraction100002137
p227
aVhttp://dbpedia.org/class/yago/AdministrativeDistrict108491826
p228
aVhttp://dbpedia.org/class/yago/Country108544813
p229
aVhttp://dbpedia.org/class/yago/District108552138
p230
aVhttp://dbpedia.org/class/yago/Economy108366753
p231
aVhttp://dbpedia.org/class/yago/Group100031264
p232
aVhttp://dbpedia.org/class/yago/Location100027167
p233
aVhttp://dbpedia.org/class/yago/Object100002684
p234
aVhttp://dbpedia.org/class/yago/Region108630985
p235
aVhttp://dbpedia.org/class/yago/System108435388
p236
aVhttp://dbpedia.org/class/yago/YagoGeoEntity
p237
aVhttp://dbpedia.org/class/yago/YagoLegalActorGeo
p238
aVhttp://dbpedia.org/class/yago/CountriesBorderingTheArcticOcean
p239
aVhttp://dbpedia.org/class/yago/CountriesBorderingTheAtlanticOcean
p240
aVhttp://dbpedia.org/class/yago/EuropeanCountries
p241
aVhttp://dbpedia.org/class/yago/PhysicalEntity100001930
p242
aVhttp://dbpedia.org/class/yago/YagoPermanentlyLocatedEntity
p243
aVhttp://dbpedia.org/class/yago/MemberStatesOfNATO
p244
aVhttp://dbpedia.org/class/yago/MemberStatesOfTheUnitedNations
p245
aVhttp://dbpedia.org/class/yago/NordicCountries
p246
aVhttp://dbpedia.org/class/yago/StatesAndTerritoriesEstablishedIn1905
p247
aVhttp://dbpedia.org/class/yago/StatesAndTerritoriesEstablishedIn872
p248
aVhttp://dbpedia.org/class/yago/WorldTradeOrganizationMemberEconomies
p249
asVdisambiguatedURL
p250
Vhttp://dbpedia.org/resource/Norway
p251
sVnamedEntity
p252
VNorway
p253
sVoffset
p254
I6
saa(lp255
(dp256
Vstart
p257
I0
sg5
(lp258
Vhttp://www.w3.org/2002/07/owl#Thing
p259
aVhttp://umbel.org/umbel/rc/Country
p260
aVhttp://umbel.org/umbel/rc/Location_Underspecified
p261
aVhttp://umbel.org/umbel/rc/PopulatedPlace
p262
aVhttp://dbpedia.org/class/yago/Abstraction100002137
p263
aVhttp://dbpedia.org/class/yago/AdministrativeDistrict108491826
p264
aVhttp://dbpedia.org/class/yago/Country108544813
p265
aVhttp://dbpedia.org/class/yago/District108552138
p266
aVhttp://dbpedia.org/class/yago/Economy108366753
p267
aVhttp://dbpedia.org/class/yago/Group100031264
p268
aVhttp://dbpedia.org/class/yago/Location100027167
p269
aVhttp://dbpedia.org/class/yago/Object100002684
p270
aVhttp://dbpedia.org/class/yago/Region108630985
p271
aVhttp://dbpedia.org/class/yago/System108435388
p272
aVhttp://dbpedia.org/class/yago/YagoGeoEntity
p273
aVhttp://dbpedia.org/class/yago/YagoLegalActorGeo
p274
aVhttp://dbpedia.org/class/yago/CountriesBorderingTheArcticOcean
p275
aVhttp://dbpedia.org/class/yago/CountriesBorderingTheAtlanticOcean
p276
aVhttp://dbpedia.org/class/yago/EuropeanCountries
p277
aVhttp://dbpedia.org/class/yago/PhysicalEntity100001930
p278
aVhttp://dbpedia.org/class/yago/YagoPermanentlyLocatedEntity
p279
aVhttp://dbpedia.org/class/yago/MemberStatesOfNATO
p280
aVhttp://dbpedia.org/class/yago/MemberStatesOfTheUnitedNations
p281
aVhttp://dbpedia.org/class/yago/NordicCountries
p282
aVhttp://dbpedia.org/class/yago/StatesAndTerritoriesEstablishedIn1905
p283
aVhttp://dbpedia.org/class/yago/StatesAndTerritoriesEstablishedIn872
p284
aVhttp://dbpedia.org/class/yago/WorldTradeOrganizationMemberEconomies
p285
asVdisambiguatedURL
p286
Vhttp://dbpedia.org/resource/Norway
p287
sVnamedEntity
p288
VNorway
p289
sVoffset
p290
I6
saa(lp291
(dp292
Vstart
p293
I0
sg5
(lp294
Vhttp://www.w3.org/2002/07/owl#Thing
p295
aVhttp://umbel.org/umbel/rc/Country
p296
aVhttp://umbel.org/umbel/rc/Location_Underspecified
p297
aVhttp://umbel.org/umbel/rc/PopulatedPlace
p298
aVhttp://dbpedia.org/class/yago/Abstraction100002137
p299
aVhttp://dbpedia.org/class/yago/AdministrativeDistrict108491826
p300
aVhttp://dbpedia.org/class/yago/Country108544813
p301
aVhttp://dbpedia.org/class/yago/District108552138
p302
aVhttp://dbpedia.org/class/yago/Economy108366753
p303
aVhttp://dbpedia.org/class/yago/Group100031264
p304
aVhttp://dbpedia.org/class/yago/Location100027167
p305
aVhttp://dbpedia.org/class/yago/Object100002684
p306
aVhttp://dbpedia.org/class/yago/Region108630985
p307
aVhttp://dbpedia.org/class/yago/System108435388
p308
aVhttp://dbpedia.org/class/yago/YagoGeoEntity
p309
aVhttp://dbpedia.org/class/yago/YagoLegalActorGeo
p310
aVhttp://dbpedia.org/class/yago/CountriesBorderingTheArcticOcean
p311
aVhttp://dbpedia.org/class/yago/CountriesBorderingTheAtlanticOcean
p312
aVhttp://dbpedia.org/class/yago/EuropeanCountries
p313
aVhttp://dbpedia.org/class/yago/PhysicalEntity100001930
p314
aVhttp://dbpedia.org/class/yago/YagoPermanentlyLocatedEntity
p315
aVhttp://dbpedia.org/class/yago/MemberStatesOfNATO
p316
aVhttp://dbpedia.org/class/yago/MemberStatesOfTheUnitedNations
p317
aVhttp://dbpedia.org/class/yago/NordicCountries
p318
aVhttp://dbpedia.org/class/yago/StatesAndTerritoriesEstablishedIn1905
p319
aVhttp://dbpedia.org/class/yago/StatesAndTerritoriesEstablishedIn872
p320
aVhttp://dbpedia.org/class/yago/WorldTradeOrganizationMemberEconomies
p321
asVdisambiguatedURL
p322
Vhttp://dbpedia.org/resource/Norway
p323
sVnamedEntity
p324
VNorway
p325
sVoffset
p326
I6
saa.