ccollections
defaultdict
p1
(c__builtin__
dict
p2
tRp3
I16
(dp4
I1
(lp5
sI2
(lp6
Vhttp://www.w3.org/1999/02/22-rdf-syntax-ns#type
p7
aVhttp://purl.org/dc/terms/subject
p8
aVhttp://www.w3.org/2000/01/rdf-schema#comment
p9
aVhttp://dbpedia.org/ontology/abstract
p10
aVhttp://purl.org/voc/vrank#hasRank
p11
aVhttp://www.w3.org/ns/prov#wasDerivedFrom
p12
aVhttp://dbpedia.org/property/hasPhotoCollection
p13
assI4
(dp14
I1
(lp15
sI2
(lp16
Vhttp://dbpedia.org/ontology/abstract
p17
aVhttp://www.w3.org/1999/02/22-rdf-syntax-ns#type
p18
aVhttp://www.w3.org/2002/07/owl#sameAs
p19
aVhttp://www.w3.org/2000/01/rdf-schema#comment
p20
assI7
(dp21
I1
(lp22
sI2
(lp23
Vhttp://www.w3.org/1999/02/22-rdf-syntax-ns#type
p24
aVhttp://purl.org/dc/terms/subject
p25
aVhttp://www.w3.org/2000/01/rdf-schema#comment
p26
aVhttp://dbpedia.org/ontology/abstract
p27
aVhttp://purl.org/voc/vrank#hasRank
p28
aVhttp://www.w3.org/ns/prov#wasDerivedFrom
p29
ass.