(lp1
(lp2
(lp3
a(lp4
aa(lp5
(lp6
Vhttp://dbpedia.org/resource/Baptiste_Lecaplain
p7
aa(lp8
aa(lp9
(lp10
Vhttp://dbpedia.org/resource/Barbara_Clare_Foley
p11
aa(lp12
aa(lp13
(lp14
Vhttp://dbpedia.org/resource/Barbara_Earl_Thomas
p15
aa(lp16
aa(lp17
(lp18
a(lp19
aa(lp20
(lp21
Vhttp://dbpedia.org/resource/Barbara_Magnolfi
p22
aa(lp23
aa(lp24
(lp25
Vhttp://dbpedia.org/resource/Barbara_Stauffacher_Solomon
p26
aa(lp27
aa(lp28
(lp29
a(lp30
aa(lp31
(lp32
a(lp33
aa(lp34
(lp35
a(lp36
aa(lp37
(lp38
Vhttp://dbpedia.org/resource/Bayyinah_Bello
p39
aa(lp40
aa(lp41
(lp42
a(lp43
aa(lp44
(lp45
a(lp46
aa(lp47
(lp48
a(lp49
aa(lp50
(lp51
Vhttp://dbpedia.org/resource/Bellamy_Hunt
p52
aa(lp53
aa(lp54
(lp55
a(lp56
aa(lp57
(lp58
a(lp59
aa(lp60
(lp61
a(lp62
aa(lp63
(lp64
a(lp65
aa.