ccollections
defaultdict
p1
(c__builtin__
dict
p2
tRp3
I1
(dp4
I1
(lp5
Vhttp://dbpedia.org/ontology/birthPlace
p6
aVhttp://dbpedia.org/property/birthPlace
p7
assI2
(dp8
I1
(lp9
ssI3
(dp10
I1
(lp11
Vhttp://dbpedia.org/ontology/birthPlace
p12
aVhttp://dbpedia.org/property/placeOfBirth
p13
assI5
(dp14
I1
(lp15
Vhttp://dbpedia.org/ontology/birthPlace
p16
aVhttp://dbpedia.org/property/birthPlace
p17
assI6
(dp18
I1
(lp19
ssI10
(dp20
I1
(lp21
ssI14
(dp22
I1
(lp23
ss.