(lp1
(lp2
(lp3
a(lp4
aa(lp5
(lp6
((lp7
Vhttp://www.w3.org/2002/07/owl#Thing
p8
aVhttp://xmlns.com/foaf/0.1/Person
p9
aVhttp://dbpedia.org/ontology/Person
p10
aVhttp://www.ontologydesignpatterns.org/ont/dul/DUL.owl#Agent
p11
aVhttp://www.ontologydesignpatterns.org/ont/dul/DUL.owl#NaturalPerson
p12
aVhttp://www.wikidata.org/entity/Q215627
p13
aVhttp://www.wikidata.org/entity/Q5
p14
aVhttp://dbpedia.org/ontology/Agent
p15
aVhttp://schema.org/Person
p16
aVhttp://dbpedia.org/resource/Baptiste_Lecaplain
tp17
aa(lp18
aa(lp19
(lp20
((lp21
Vhttp://www.w3.org/2002/07/owl#Thing
p22
aVhttp://xmlns.com/foaf/0.1/Person
p23
aVhttp://dbpedia.org/ontology/Person
p24
aVhttp://www.ontologydesignpatterns.org/ont/dul/DUL.owl#Agent
p25
aVhttp://www.ontologydesignpatterns.org/ont/dul/DUL.owl#NaturalPerson
p26
aVhttp://www.wikidata.org/entity/Q215627
p27
aVhttp://www.wikidata.org/entity/Q5
p28
aVhttp://dbpedia.org/ontology/Agent
p29
aVhttp://schema.org/Person
p30
aVhttp://dbpedia.org/resource/Barbara_Clare_Foley
tp31
aa(lp32
aa(lp33
(lp34
((lp35
Vhttp://www.w3.org/2002/07/owl#Thing
p36
aVhttp://xmlns.com/foaf/0.1/Person
p37
aVhttp://dbpedia.org/ontology/Person
p38
aVhttp://www.ontologydesignpatterns.org/ont/dul/DUL.owl#Agent
p39
aVhttp://www.ontologydesignpatterns.org/ont/dul/DUL.owl#NaturalPerson
p40
aVhttp://www.wikidata.org/entity/Q215627
p41
aVhttp://www.wikidata.org/entity/Q5
p42
aVhttp://dbpedia.org/ontology/Agent
p43
aVhttp://schema.org/Person
p44
aVhttp://dbpedia.org/resource/Barbara_Earl_Thomas
tp45
aa(lp46
aa(lp47
(lp48
a(lp49
aa(lp50
(lp51
((lp52
Vhttp://www.w3.org/2002/07/owl#Thing
p53
aVhttp://xmlns.com/foaf/0.1/Person
p54
aVhttp://dbpedia.org/ontology/Person
p55
aVhttp://www.ontologydesignpatterns.org/ont/dul/DUL.owl#Agent
p56
aVhttp://www.ontologydesignpatterns.org/ont/dul/DUL.owl#NaturalPerson
p57
aVhttp://www.wikidata.org/entity/Q215627
p58
aVhttp://www.wikidata.org/entity/Q5
p59
aVhttp://dbpedia.org/ontology/Agent
p60
aVhttp://schema.org/Person
p61
aVhttp://dbpedia.org/resource/Barbara_Magnolfi
tp62
aa(lp63
aa(lp64
(lp65
((lp66
Vhttp://www.w3.org/2002/07/owl#Thing
p67
aVhttp://xmlns.com/foaf/0.1/Person
p68
aVhttp://dbpedia.org/ontology/Person
p69
aVhttp://www.ontologydesignpatterns.org/ont/dul/DUL.owl#Agent
p70
aVhttp://www.ontologydesignpatterns.org/ont/dul/DUL.owl#NaturalPerson
p71
aVhttp://www.wikidata.org/entity/Q215627
p72
aVhttp://www.wikidata.org/entity/Q5
p73
aVhttp://dbpedia.org/ontology/Agent
p74
aVhttp://schema.org/Person
p75
aVhttp://dbpedia.org/resource/Barbara_Stauffacher_Solomon
tp76
aa(lp77
aa(lp78
(lp79
a(lp80
aa(lp81
(lp82
a(lp83
aa(lp84
(lp85
a(lp86
aa(lp87
(lp88
((lp89
Vhttp://www.w3.org/2002/07/owl#Thing
p90
aVhttp://xmlns.com/foaf/0.1/Person
p91
aVhttp://dbpedia.org/ontology/Person
p92
aVhttp://www.ontologydesignpatterns.org/ont/dul/DUL.owl#Agent
p93
aVhttp://www.ontologydesignpatterns.org/ont/dul/DUL.owl#NaturalPerson
p94
aVhttp://www.wikidata.org/entity/Q215627
p95
aVhttp://www.wikidata.org/entity/Q5
p96
aVhttp://dbpedia.org/ontology/Agent
p97
aVhttp://schema.org/Person
p98
aVhttp://dbpedia.org/resource/Bayyinah_Bello
tp99
aa(lp100
aa(lp101
(lp102
a(lp103
aa(lp104
(lp105
a(lp106
aa(lp107
(lp108
a(lp109
aa(lp110
(lp111
((lp112
Vhttp://www.w3.org/2002/07/owl#Thing
p113
aVhttp://xmlns.com/foaf/0.1/Person
p114
aVhttp://dbpedia.org/ontology/Person
p115
aVhttp://www.ontologydesignpatterns.org/ont/dul/DUL.owl#Agent
p116
aVhttp://www.ontologydesignpatterns.org/ont/dul/DUL.owl#NaturalPerson
p117
aVhttp://www.wikidata.org/entity/Q215627
p118
aVhttp://www.wikidata.org/entity/Q5
p119
aVhttp://dbpedia.org/ontology/Agent
p120
aVhttp://schema.org/Person
p121
aVhttp://dbpedia.org/resource/Bellamy_Hunt
p122
tp123
aa(lp124
aa(lp125
(lp126
a(lp127
aa(lp128
(lp129
a(lp130
aa(lp131
(lp132
a(lp133
aa(lp134
(lp135
a(lp136
aa.