(lp1
(lp2
(lp3
((lp4
Vhttp://dbpedia.org/class/yago/Area108497294
p5
aVhttp://dbpedia.org/class/yago/Artifact100021939
p6
aVhttp://dbpedia.org/class/yago/Facility103315023
p7
aVhttp://dbpedia.org/class/yago/Location100027167
p8
aVhttp://dbpedia.org/class/yago/Object100002684
p9
aVhttp://dbpedia.org/class/yago/Region108630985
p10
aVhttp://dbpedia.org/class/yago/Venue108677628
p11
aVhttp://dbpedia.org/class/yago/Whole100003553
p12
aVhttp://dbpedia.org/class/yago/YagoGeoEntity
p13
aVhttp://dbpedia.org/class/yago/YagoLegalActorGeo
p14
aVhttp://dbpedia.org/class/yago/SportsVenuesInMelbourne
p15
aVhttp://www.w3.org/2002/07/owl#Thing
p16
aVhttp://dbpedia.org/ontology/Place
p17
aVhttp://dbpedia.org/ontology/Location
p18
aVhttp://www.wikidata.org/entity/Q1777138
p19
aVhttp://dbpedia.org/ontology/ArchitecturalStructure
p20
aVhttp://dbpedia.org/ontology/RaceTrack
p21
aVhttp://dbpedia.org/ontology/Racecourse
p22
aVhttp://dbpedia.org/ontology/SportFacility
p23
aVhttp://schema.org/Place
p24
aVhttp://dbpedia.org/class/yago/Racetrack104037625
p25
aVhttp://dbpedia.org/class/yago/YagoPermanentlyLocatedEntity
p26
aVhttp://dbpedia.org/class/yago/Course103119790
p27
aVhttp://dbpedia.org/class/yago/PhysicalEntity100001930
p28
aVhttp://dbpedia.org/class/yago/Scene108645963
p29
aVhttp://dbpedia.org/resource/Caulfield_Racecourse
tp30
aa(lp31
((lp32
Vhttp://dbpedia.org/class/yago/Area108497294
p33
aVhttp://dbpedia.org/class/yago/Artifact100021939
p34
aVhttp://dbpedia.org/class/yago/Facility103315023
p35
aVhttp://dbpedia.org/class/yago/Location100027167
p36
aVhttp://dbpedia.org/class/yago/Object100002684
p37
aVhttp://dbpedia.org/class/yago/Region108630985
p38
aVhttp://dbpedia.org/class/yago/Venue108677628
p39
aVhttp://dbpedia.org/class/yago/Whole100003553
p40
aVhttp://dbpedia.org/class/yago/YagoGeoEntity
p41
aVhttp://dbpedia.org/class/yago/YagoLegalActorGeo
p42
aVhttp://dbpedia.org/class/yago/SportsVenuesInQueens
p43
aVhttp://www.w3.org/2002/07/owl#Thing
p44
aVhttp://dbpedia.org/ontology/Place
p45
aVhttp://dbpedia.org/ontology/Location
p46
aVhttp://www.wikidata.org/entity/Q1777138
p47
aVhttp://dbpedia.org/ontology/ArchitecturalStructure
p48
aVhttp://dbpedia.org/ontology/RaceTrack
p49
aVhttp://dbpedia.org/ontology/Racecourse
p50
aVhttp://dbpedia.org/ontology/SportFacility
p51
aVhttp://www.w3.org/2003/01/geo/wgs84_pos#SpatialThing
p52
aVhttp://schema.org/Place
p53
aVhttp://dbpedia.org/class/yago/Racetrack104037625
p54
aVhttp://dbpedia.org/class/yago/YagoPermanentlyLocatedEntity
p55
aVhttp://dbpedia.org/class/yago/Course103119790
p56
aVhttp://dbpedia.org/class/yago/PhysicalEntity100001930
p57
aVhttp://dbpedia.org/class/yago/Scene108645963
p58
aVhttp://dbpedia.org/resource/Aqueduct_Racetrack
tp59
aa(lp60
((lp61
Vhttp://dbpedia.org/class/yago/Area108497294
p62
aVhttp://dbpedia.org/class/yago/Artifact100021939
p63
aVhttp://dbpedia.org/class/yago/Facility103315023
p64
aVhttp://dbpedia.org/class/yago/Location100027167
p65
aVhttp://dbpedia.org/class/yago/Object100002684
p66
aVhttp://dbpedia.org/class/yago/Region108630985
p67
aVhttp://dbpedia.org/class/yago/Venue108677628
p68
aVhttp://dbpedia.org/class/yago/Whole100003553
p69
aVhttp://dbpedia.org/class/yago/YagoGeoEntity
p70
aVhttp://dbpedia.org/class/yago/YagoLegalActorGeo
p71
aVhttp://dbpedia.org/class/yago/SportsVenuesInPortland,Oregon
p72
aVhttp://www.w3.org/2002/07/owl#Thing
p73
aVhttp://dbpedia.org/ontology/Place
p74
aVhttp://dbpedia.org/ontology/Location
p75
aVhttp://www.wikidata.org/entity/Q1777138
p76
aVhttp://dbpedia.org/ontology/ArchitecturalStructure
p77
aVhttp://dbpedia.org/ontology/RaceTrack
p78
aVhttp://dbpedia.org/ontology/Racecourse
p79
aVhttp://dbpedia.org/ontology/SportFacility
p80
aVhttp://www.w3.org/2003/01/geo/wgs84_pos#SpatialThing
p81
aVhttp://schema.org/Place
p82
aVhttp://dbpedia.org/class/yago/Racetrack104037625
p83
aVhttp://dbpedia.org/class/yago/YagoPermanentlyLocatedEntity
p84
aVhttp://dbpedia.org/class/yago/Course103119790
p85
aVhttp://dbpedia.org/class/yago/PhysicalEntity100001930
p86
aVhttp://dbpedia.org/class/yago/Scene108645963
p87
aVhttp://dbpedia.org/resource/Portland_Meadows
tp88
aa(lp89
a(lp90
((lp91
Vhttp://dbpedia.org/class/yago/Artifact100021939
p92
aVhttp://dbpedia.org/class/yago/Building102913152
p93
aVhttp://dbpedia.org/class/yago/BuildingsAndStructuresInSimpsonCounty,Kentucky
p94
aVhttp://dbpedia.org/class/yago/Object100002684
p95
aVhttp://dbpedia.org/class/yago/Structure104341686
p96
aVhttp://dbpedia.org/class/yago/Whole100003553
p97
aVhttp://dbpedia.org/class/yago/YagoGeoEntity
p98
aVhttp://www.w3.org/2002/07/owl#Thing
p99
aVhttp://dbpedia.org/ontology/Place
p100
aVhttp://dbpedia.org/ontology/Location
p101
aVhttp://www.wikidata.org/entity/Q1777138
p102
aVhttp://dbpedia.org/ontology/ArchitecturalStructure
p103
aVhttp://dbpedia.org/ontology/RaceTrack
p104
aVhttp://dbpedia.org/ontology/Racecourse
p105
aVhttp://dbpedia.org/ontology/SportFacility
p106
aVhttp://www.w3.org/2003/01/geo/wgs84_pos#SpatialThing
p107
aVhttp://schema.org/Place
p108
aVhttp://dbpedia.org/class/yago/YagoPermanentlyLocatedEntity
p109
aVhttp://dbpedia.org/class/yago/PhysicalEntity100001930
p110
aVhttp://dbpedia.org/resource/Kentucky_Downs
tp111
aa(lp112
((lp113
Vhttp://dbpedia.org/class/yago/Artifact100021939
p114
aVhttp://dbpedia.org/class/yago/Facility103315023
p115
aVhttp://dbpedia.org/class/yago/Object100002684
p116
aVhttp://dbpedia.org/class/yago/Whole100003553
p117
aVhttp://dbpedia.org/class/yago/YagoGeoEntity
p118
aVhttp://www.w3.org/2002/07/owl#Thing
p119
aVhttp://dbpedia.org/ontology/Place
p120
aVhttp://dbpedia.org/ontology/Location
p121
aVhttp://www.wikidata.org/entity/Q1777138
p122
aVhttp://dbpedia.org/ontology/ArchitecturalStructure
p123
aVhttp://dbpedia.org/ontology/RaceTrack
p124
aVhttp://dbpedia.org/ontology/Racecourse
p125
aVhttp://dbpedia.org/ontology/SportFacility
p126
aVhttp://www.w3.org/2003/01/geo/wgs84_pos#SpatialThing
p127
aVhttp://schema.org/Place
p128
aVhttp://dbpedia.org/class/yago/Racetrack104037625
p129
aVhttp://dbpedia.org/class/yago/YagoPermanentlyLocatedEntity
p130
aVhttp://dbpedia.org/class/yago/Course103119790
p131
aVhttp://dbpedia.org/class/yago/PhysicalEntity100001930
p132
aVhttp://dbpedia.org/resource/Turfway_Park
tp133
aa(lp134
((lp135
Vhttp://dbpedia.org/class/yago/Area108497294
p136
aVhttp://dbpedia.org/class/yago/Artifact100021939
p137
aVhttp://dbpedia.org/class/yago/Facility103315023
p138
aVhttp://dbpedia.org/class/yago/Landmark108624891
p139
aVhttp://dbpedia.org/class/yago/Location100027167
p140
aVhttp://dbpedia.org/class/yago/Object100002684
p141
aVhttp://dbpedia.org/class/yago/Point108620061
p142
aVhttp://dbpedia.org/class/yago/Position108621598
p143
aVhttp://dbpedia.org/class/yago/Region108630985
p144
aVhttp://dbpedia.org/class/yago/Venue108677628
p145
aVhttp://dbpedia.org/class/yago/Whole100003553
p146
aVhttp://dbpedia.org/class/yago/YagoGeoEntity
p147
aVhttp://dbpedia.org/class/yago/YagoLegalActorGeo
p148
aVhttp://dbpedia.org/class/yago/SportsVenuesInMontreal
p149
aVhttp://www.w3.org/2002/07/owl#Thing
p150
aVhttp://dbpedia.org/ontology/Place
p151
aVhttp://dbpedia.org/ontology/Location
p152
aVhttp://www.wikidata.org/entity/Q1777138
p153
aVhttp://dbpedia.org/ontology/ArchitecturalStructure
p154
aVhttp://dbpedia.org/ontology/RaceTrack
p155
aVhttp://dbpedia.org/ontology/Racecourse
p156
aVhttp://dbpedia.org/ontology/SportFacility
p157
aVhttp://www.w3.org/2003/01/geo/wgs84_pos#SpatialThing
p158
aVhttp://schema.org/Place
p159
aVhttp://dbpedia.org/class/yago/Racetrack104037625
p160
aVhttp://dbpedia.org/class/yago/YagoPermanentlyLocatedEntity
p161
aVhttp://dbpedia.org/class/yago/Course103119790
p162
aVhttp://dbpedia.org/class/yago/LandmarksInMontreal
p163
aVhttp://dbpedia.org/class/yago/PhysicalEntity100001930
p164
aVhttp://dbpedia.org/class/yago/Scene108645963
p165
aVhttp://dbpedia.org/resource/Blue_Bonnets_(raceway)
tp166
aa(lp167
((lp168
Vhttp://www.w3.org/2002/07/owl#Thing
p169
aVhttp://www.wikidata.org/entity/Q245068
p170
aVhttp://www.wikidata.org/entity/Q386724
p171
aVhttp://dbpedia.org/ontology/Comic
p172
aVhttp://dbpedia.org/ontology/Work
p173
aVhttp://dbpedia.org/ontology/WrittenWork
p174
aVhttp://schema.org/CreativeWork
p175
aVhttp://dbpedia.org/resource/Emerald_Dawn
tp176
aa(lp177
((lp178
Vhttp://dbpedia.org/class/yago/Area108497294
p179
aVhttp://dbpedia.org/class/yago/Artifact100021939
p180
aVhttp://dbpedia.org/class/yago/Facility103315023
p181
aVhttp://dbpedia.org/class/yago/Location100027167
p182
aVhttp://dbpedia.org/class/yago/Object100002684
p183
aVhttp://dbpedia.org/class/yago/Region108630985
p184
aVhttp://dbpedia.org/class/yago/Venue108677628
p185
aVhttp://dbpedia.org/class/yago/Whole100003553
p186
aVhttp://dbpedia.org/class/yago/YagoGeoEntity
p187
aVhttp://dbpedia.org/class/yago/YagoLegalActorGeo
p188
aVhttp://dbpedia.org/class/yago/SportsVenuesInNewOrleans,Louisiana
p189
aVhttp://www.w3.org/2002/07/owl#Thing
p190
aVhttp://dbpedia.org/ontology/Place
p191
aVhttp://dbpedia.org/ontology/Location
p192
aVhttp://www.wikidata.org/entity/Q1777138
p193
aVhttp://dbpedia.org/ontology/ArchitecturalStructure
p194
aVhttp://dbpedia.org/ontology/RaceTrack
p195
aVhttp://dbpedia.org/ontology/Racecourse
p196
aVhttp://dbpedia.org/ontology/SportFacility
p197
aVhttp://www.w3.org/2003/01/geo/wgs84_pos#SpatialThing
p198
aVhttp://schema.org/Place
p199
aVhttp://dbpedia.org/class/yago/Racetrack104037625
p200
aVhttp://dbpedia.org/class/yago/YagoPermanentlyLocatedEntity
p201
aVhttp://dbpedia.org/class/yago/Course103119790
p202
aVhttp://dbpedia.org/class/yago/PhysicalEntity100001930
p203
aVhttp://dbpedia.org/class/yago/Scene108645963
p204
aVhttp://dbpedia.org/resource/Fair_Grounds_Race_Course
tp205
aa(lp206
((lp207
Vhttp://www.w3.org/2002/07/owl#Thing
p208
aVhttp://xmlns.com/foaf/0.1/Person
p209
aVhttp://dbpedia.org/ontology/Person
p210
aVhttp://www.ontologydesignpatterns.org/ont/dul/DUL.owl#Agent
p211
aVhttp://www.ontologydesignpatterns.org/ont/dul/DUL.owl#NaturalPerson
p212
aVhttp://www.wikidata.org/entity/Q215627
p213
aVhttp://www.wikidata.org/entity/Q5
p214
aVhttp://dbpedia.org/ontology/Agent
p215
aVhttp://schema.org/Person
p216
aVhttp://dbpedia.org/resource/Nadia_Marcinko
tp217
aa(lp218
((lp219
Vhttp://dbpedia.org/class/yago/Area108497294
p220
aVhttp://dbpedia.org/class/yago/Location100027167
p221
aVhttp://dbpedia.org/class/yago/Object100002684
p222
aVhttp://dbpedia.org/class/yago/Region108630985
p223
aVhttp://dbpedia.org/class/yago/Venue108677628
p224
aVhttp://dbpedia.org/class/yago/YagoGeoEntity
p225
aVhttp://dbpedia.org/class/yago/YagoLegalActorGeo
p226
aVhttp://dbpedia.org/class/yago/SportsVenuesInWinnipeg
p227
aVhttp://www.w3.org/2002/07/owl#Thing
p228
aVhttp://dbpedia.org/ontology/Place
p229
aVhttp://dbpedia.org/ontology/Location
p230
aVhttp://www.wikidata.org/entity/Q1777138
p231
aVhttp://dbpedia.org/ontology/ArchitecturalStructure
p232
aVhttp://dbpedia.org/ontology/RaceTrack
p233
aVhttp://dbpedia.org/ontology/Racecourse
p234
aVhttp://dbpedia.org/ontology/SportFacility
p235
aVhttp://www.w3.org/2003/01/geo/wgs84_pos#SpatialThing
p236
aVhttp://schema.org/Place
p237
aVhttp://dbpedia.org/class/yago/YagoPermanentlyLocatedEntity
p238
aVhttp://dbpedia.org/class/yago/PhysicalEntity100001930
p239
aVhttp://dbpedia.org/class/yago/Scene108645963
p240
aVhttp://dbpedia.org/resource/Polo_Park_Racetrack
tp241
aa(lp242
((lp243
Vhttp://dbpedia.org/class/yago/Artifact100021939
p244
aVhttp://dbpedia.org/class/yago/Building102913152
p245
aVhttp://dbpedia.org/class/yago/BuildingsAndStructuresInPolkCounty,Iowa
p246
aVhttp://dbpedia.org/class/yago/Casino102977936
p247
aVhttp://dbpedia.org/class/yago/Establishment103297735
p248
aVhttp://dbpedia.org/class/yago/Object100002684
p249
aVhttp://dbpedia.org/class/yago/Structure104341686
p250
aVhttp://dbpedia.org/class/yago/Whole100003553
p251
aVhttp://dbpedia.org/class/yago/YagoGeoEntity
p252
aVhttp://dbpedia.org/class/yago/CasinosInIowa
p253
aVhttp://dbpedia.org/class/yago/YagoPermanentlyLocatedEntity
p254
aVhttp://dbpedia.org/class/yago/GamblingHouse103413428
p255
aVhttp://dbpedia.org/class/yago/PhysicalEntity100001930
p256
aVhttp://dbpedia.org/class/yago/PlaceOfBusiness103953020
p257
aVhttp://dbpedia.org/resource/Prairie_Meadows_Racetrack
tp258
aa(lp259
a(lp260
((lp261
Vhttp://dbpedia.org/class/yago/Area108497294
p262
aVhttp://dbpedia.org/class/yago/Location100027167
p263
aVhttp://dbpedia.org/class/yago/Object100002684
p264
aVhttp://dbpedia.org/class/yago/Region108630985
p265
aVhttp://dbpedia.org/class/yago/Venue108677628
p266
aVhttp://dbpedia.org/class/yago/YagoGeoEntity
p267
aVhttp://dbpedia.org/class/yago/YagoLegalActorGeo
p268
aVhttp://dbpedia.org/class/yago/SportsVenuesInHarrisCounty,Texas
p269
aVhttp://www.w3.org/2002/07/owl#Thing
p270
aVhttp://dbpedia.org/ontology/Place
p271
aVhttp://dbpedia.org/ontology/Location
p272
aVhttp://www.wikidata.org/entity/Q1777138
p273
aVhttp://dbpedia.org/ontology/ArchitecturalStructure
p274
aVhttp://dbpedia.org/ontology/RaceTrack
p275
aVhttp://dbpedia.org/ontology/Racecourse
p276
aVhttp://dbpedia.org/ontology/SportFacility
p277
aVhttp://www.w3.org/2003/01/geo/wgs84_pos#SpatialThing
p278
aVhttp://schema.org/Place
p279
aVhttp://dbpedia.org/class/yago/YagoPermanentlyLocatedEntity
p280
aVhttp://dbpedia.org/class/yago/PhysicalEntity100001930
p281
aVhttp://dbpedia.org/class/yago/Scene108645963
p282
aVhttp://dbpedia.org/resource/Sam_Houston_Race_Park
tp283
aa(lp284
((lp285
Vhttp://www.w3.org/2002/07/owl#Thing
p286
aVhttp://dbpedia.org/ontology/Place
p287
aVhttp://dbpedia.org/ontology/Location
p288
aVhttp://www.wikidata.org/entity/Q1777138
p289
aVhttp://dbpedia.org/ontology/ArchitecturalStructure
p290
aVhttp://dbpedia.org/ontology/RaceTrack
p291
aVhttp://dbpedia.org/ontology/Racecourse
p292
aVhttp://dbpedia.org/ontology/SportFacility
p293
aVhttp://www.w3.org/2003/01/geo/wgs84_pos#SpatialThing
p294
aVhttp://schema.org/Place
p295
aVhttp://dbpedia.org/resource/Finger_Lakes_Gaming_and_Race_Track
tp296
aa(lp297
((lp298
Vhttp://dbpedia.org/class/yago/Artifact100021939
p299
aVhttp://dbpedia.org/class/yago/Facility103315023
p300
aVhttp://dbpedia.org/class/yago/Object100002684
p301
aVhttp://dbpedia.org/class/yago/Whole100003553
p302
aVhttp://dbpedia.org/class/yago/YagoGeoEntity
p303
aVhttp://www.w3.org/2002/07/owl#Thing
p304
aVhttp://dbpedia.org/ontology/Place
p305
aVhttp://dbpedia.org/ontology/Location
p306
aVhttp://www.wikidata.org/entity/Q1777138
p307
aVhttp://dbpedia.org/ontology/ArchitecturalStructure
p308
aVhttp://dbpedia.org/ontology/RaceTrack
p309
aVhttp://dbpedia.org/ontology/Racecourse
p310
aVhttp://dbpedia.org/ontology/SportFacility
p311
aVhttp://www.w3.org/2003/01/geo/wgs84_pos#SpatialThing
p312
aVhttp://schema.org/Place
p313
aVhttp://dbpedia.org/class/yago/Racetrack104037625
p314
aVhttp://dbpedia.org/class/yago/YagoPermanentlyLocatedEntity
p315
aVhttp://dbpedia.org/class/yago/Course103119790
p316
aVhttp://dbpedia.org/class/yago/PhysicalEntity100001930
p317
aVhttp://dbpedia.org/resource/Hyderabad_Race_Club
tp318
aa(lp319
a(lp320
a(lp321
((lp322
Vhttp://www.w3.org/2002/07/owl#Thing
p323
aVhttp://dbpedia.org/ontology/Place
p324
aVhttp://dbpedia.org/ontology/Location
p325
aVhttp://www.wikidata.org/entity/Q1777138
p326
aVhttp://dbpedia.org/ontology/ArchitecturalStructure
p327
aVhttp://dbpedia.org/ontology/RaceTrack
p328
aVhttp://dbpedia.org/ontology/Racecourse
p329
aVhttp://dbpedia.org/ontology/SportFacility
p330
aVhttp://www.w3.org/2003/01/geo/wgs84_pos#SpatialThing
p331
aVhttp://schema.org/Place
p332
aVhttp://dbpedia.org/resource/Crayford_Stadium
p333
tp334
aaa.