(lp1
(lp2
(lp3
a(lp4
a(lp5
a(lp6
a(lp7
a(lp8
a(lp9
a(lp10
a(lp11
a(lp12
a(lp13
a(lp14
((lp15
Vhttp://dbpedia.org/class/yago/Abstraction100002137
p16
aVhttp://dbpedia.org/class/yago/Group100031264
p17
aVhttp://dbpedia.org/class/yago/Organization108008335
p18
aVhttp://dbpedia.org/class/yago/SocialGroup107950920
p19
aVhttp://dbpedia.org/class/yago/YagoLegalActorGeo
p20
aVhttp://www.w3.org/2002/07/owl#Thing
p21
aVhttp://www.ontologydesignpatterns.org/ont/dul/DUL.owl#Agent
p22
aVhttp://www.ontologydesignpatterns.org/ont/dul/DUL.owl#SocialPerson
p23
aVhttp://www.wikidata.org/entity/Q43229
p24
aVhttp://dbpedia.org/ontology/Agent
p25
aVhttp://dbpedia.org/ontology/Organisation
p26
aVhttp://schema.org/Organization
p27
aVhttp://dbpedia.org/class/yago/YagoPermanentlyLocatedEntity
p28
aVhttp://dbpedia.org/class/yago/OrganizationsEstablishedIn1954
p29
aVhttp://dbpedia.org/class/yago/YagoLegalActor
p30
aVhttp://dbpedia.org/resource/Ivy_League
p31
tp32
aa(lp33
a(lp34
a(lp35
a(lp36
a(lp37
a(lp38
a(lp39
aa.