ccollections
defaultdict
p1
(c__builtin__
dict
p2
tRp3
I0
(dp4
I0
(lp5
sI1
(lp6
Vhttp://dbpedia.org/property/origin
p7
aVhttp://dbpedia.org/ontology/country
p8
aVhttp://purl.org/dc/terms/subject
p9
aVhttp://dbpedia.org/ontology/location
p10
aVhttp://www.w3.org/2000/01/rdf-schema#comment
p11
aVhttp://dbpedia.org/ontology/abstract
p12
aVhttp://dbpedia.org/property/winnerOrigin
p13
aVhttp://dbpedia.org/property/location
p14
aVhttp://dbpedia.org/property/states
p15
aVhttp://dbpedia.org/ontology/hometown
p16
aVhttp://dbpedia.org/property/birthPlace
p17
aVhttp://dbpedia.org/property/placeOfBirth
p18
aVhttp://dbpedia.org/ontology/spokenIn
p19
aVhttp://dbpedia.org/property/country
p20
aVhttp://dbpedia.org/ontology/birthPlace
p21
asI3
(lp22
Vhttp://dbpedia.org/ontology/country
p23
aVhttp://dbpedia.org/ontology/location
p24
aVhttp://www.w3.org/2000/01/rdf-schema#comment
p25
aVhttp://dbpedia.org/property/nationality
p26
aVhttp://dbpedia.org/ontology/abstract
p27
aVhttp://dbpedia.org/property/locationCountry
p28
aVhttp://dbpedia.org/property/birthPlace
p29
aVhttp://dbpedia.org/property/deathPlace
p30
aVhttp://dbpedia.org/property/location
p31
aVhttp://dbpedia.org/ontology/nationality
p32
aVhttp://dbpedia.org/ontology/locationCountry
p33
aVhttp://dbpedia.org/ontology/deathPlace
p34
aVhttp://dbpedia.org/property/country
p35
aVhttp://dbpedia.org/ontology/wikiPageDisambiguates
p36
aVhttp://dbpedia.org/ontology/birthPlace
p37
aVhttp://dbpedia.org/property/nationalteam
p38
aVhttp://dbpedia.org/property/placeOfBirth
p39
assI2
(dp40
I0
(lp41
Vhttp://dbpedia.org/property/origin
p42
aVhttp://dbpedia.org/ontology/hometown
p43
asI1
(lp44
Vhttp://www.w3.org/2000/01/rdf-schema#seeAlso
p45
aVhttp://dbpedia.org/property/origin
p46
aVhttp://dbpedia.org/ontology/origin
p47
aVhttp://dbpedia.org/property/place
p48
aVhttp://dbpedia.org/property/usedBy
p49
aVhttp://dbpedia.org/property/adminCenter
p50
aVhttp://dbpedia.org/property/footnoteC
p51
aVhttp://www.w3.org/2002/07/owl#differentFrom
p52
aVhttp://dbpedia.org/property/footnoteD
p53
aVhttp://dbpedia.org/ontology/country
p54
aVhttp://dbpedia.org/property/region
p55
aVhttp://www.w3.org/1999/02/22-rdf-syntax-ns#type
p56
aVhttp://dbpedia.org/ontology/demonym
p57
aVhttp://dbpedia.org/ontology/officialLanguage
p58
aVhttp://dbpedia.org/ontology/nationality
p59
aVhttp://dbpedia.org/property/birthPlace
p60
aVhttp://dbpedia.org/property/country/region
p61
aVhttp://dbpedia.org/ontology/place
p62
aVhttp://dbpedia.org/ontology/ethnicGroup
p63
aVhttp://dbpedia.org/property/locationSigned
p64
aVhttp://dbpedia.org/property/depositor
p65
aVhttp://dbpedia.org/property/country
p66
aVhttp://dbpedia.org/property/regionalLanguages
p67
aVhttp://purl.org/dc/terms/subject
p68
aVhttp://dbpedia.org/ontology/populationPlace
p69
aVhttp://dbpedia.org/property/ideology
p70
aVhttp://dbpedia.org/ontology/abstract
p71
aVhttp://dbpedia.org/ontology/recordedIn
p72
aVhttp://dbpedia.org/property/venue
p73
aVhttp://dbpedia.org/property/location
p74
aVhttp://dbpedia.org/property/states
p75
aVhttp://dbpedia.org/ontology/headquarter
p76
aVhttp://dbpedia.org/property/officialLanguages
p77
aVhttp://dbpedia.org/ontology/language
p78
aVhttp://dbpedia.org/ontology/location
p79
aVhttp://dbpedia.org/ontology/regionalLanguage
p80
aVhttp://www.w3.org/2000/01/rdf-schema#comment
p81
aVhttp://dbpedia.org/ontology/birthPlace
p82
aVhttp://dbpedia.org/ontology/wikiPageRedirects
p83
aVhttp://dbpedia.org/ontology/hometown
p84
aVhttp://dbpedia.org/property/demonym
p85
aVhttp://dbpedia.org/property/headquarters
p86
aVhttp://dbpedia.org/ontology/spokenIn
p87
aVhttp://dbpedia.org/ontology/stateOfOrigin
p88
aVhttp://dbpedia.org/property/stadium
p89
asI3
(lp90
Vhttp://dbpedia.org/property/placeOfDeath
p91
aVhttp://dbpedia.org/ontology/country
p92
aVhttp://dbpedia.org/ontology/location
p93
aVhttp://www.w3.org/2000/01/rdf-schema#comment
p94
aVhttp://dbpedia.org/ontology/wikiPageDisambiguates
p95
aVhttp://dbpedia.org/ontology/abstract
p96
aVhttp://dbpedia.org/ontology/recordedIn
p97
aVhttp://dbpedia.org/property/location
p98
aVhttp://dbpedia.org/property/placeOfBirth
p99
aVhttp://dbpedia.org/property/subdivisionName
p100
aVhttp://dbpedia.org/ontology/nationality
p101
aVhttp://dbpedia.org/property/birthPlace
p102
aVhttp://dbpedia.org/ontology/deathPlace
p103
aVhttp://dbpedia.org/property/nationality
p104
aVhttp://dbpedia.org/property/country
p105
aVhttp://www.w3.org/2002/07/owl#differentFrom
p106
aVhttp://dbpedia.org/ontology/birthPlace
p107
aVhttp://dbpedia.org/property/firstRun
p108
assI6
(dp109
I0
(lp110
sI1
(lp111
sI3
(lp112
Vhttp://dbpedia.org/property/country
p113
aVhttp://dbpedia.org/ontology/abstract
p114
aVhttp://dbpedia.org/ontology/wikiPageDisambiguates
p115
assI7
(dp116
I0
(lp117
sI1
(lp118
sI3
(lp119
Vhttp://dbpedia.org/property/origin
p120
aVhttp://dbpedia.org/property/region
p121
aVhttp://dbpedia.org/ontology/birthPlace
p122
aVhttp://dbpedia.org/property/birthPlace
p123
aVhttp://dbpedia.org/property/placeOfBirth
p124
assI8
(dp125
I0
(lp126
sI1
(lp127
Vhttp://www.w3.org/2000/01/rdf-schema#seeAlso
p128
aVhttp://dbpedia.org/property/currency
p129
aVhttp://dbpedia.org/ontology/currency
p130
aVhttp://dbpedia.org/ontology/country
p131
aVhttp://dbpedia.org/property/locationCountry
p132
aVhttp://dbpedia.org/property/country
p133
aVhttp://dbpedia.org/property/establishedEvent
p134
aVhttp://dbpedia.org/property/origin
p135
aVhttp://dbpedia.org/ontology/abstract
p136
aVhttp://dbpedia.org/property/location
p137
aVhttp://dbpedia.org/ontology/usingCountry
p138
aVhttp://dbpedia.org/property/states
p139
aVhttp://dbpedia.org/ontology/locationCountry
p140
aVhttp://dbpedia.org/ontology/headquarter
p141
aVhttp://dbpedia.org/ontology/language
p142
aVhttp://dbpedia.org/property/languages
p143
aVhttp://dbpedia.org/property/headquarters
p144
aVhttp://www.w3.org/2000/01/rdf-schema#comment
p145
aVhttp://dbpedia.org/ontology/wikiPageRedirects
p146
aVhttp://dbpedia.org/ontology/hometown
p147
aVhttp://dbpedia.org/ontology/spokenIn
p148
aVhttp://dbpedia.org/property/jurisdiction
p149
asI3
(lp150
Vhttp://dbpedia.org/ontology/country
p151
aVhttp://dbpedia.org/property/reason
p152
aVhttp://dbpedia.org/ontology/location
p153
aVhttp://dbpedia.org/property/ground
p154
aVhttp://dbpedia.org/ontology/abstract
p155
aVhttp://dbpedia.org/property/location
p156
aVhttp://dbpedia.org/ontology/ground
p157
aVhttp://dbpedia.org/property/cityServed
p158
aVhttp://dbpedia.org/property/birthPlace
p159
aVhttp://dbpedia.org/property/placeOfBirth
p160
aVhttp://dbpedia.org/property/country
p161
aVhttp://dbpedia.org/ontology/wikiPageDisambiguates
p162
aVhttp://dbpedia.org/ontology/birthPlace
p163
assI9
(dp164
I0
(lp165
sI1
(lp166
Vhttp://www.w3.org/2000/01/rdf-schema#seeAlso
p167
aVhttp://dbpedia.org/property/origin
p168
aVhttp://dbpedia.org/property/recorded
p169
aVhttp://dbpedia.org/property/broadcastArea
p170
aVhttp://dbpedia.org/ontology/origin
p171
aVhttp://dbpedia.org/property/conventionalLongName
p172
aVhttp://dbpedia.org/property/bases
p173
aVhttp://dbpedia.org/property/place
p174
aVhttp://dbpedia.org/ontology/foundationPlace
p175
aVhttp://dbpedia.org/property/city
p176
aVhttp://dbpedia.org/ontology/garrison
p177
aVhttp://dbpedia.org/ontology/longName
p178
aVhttp://dbpedia.org/property/legislature
p179
aVhttp://dbpedia.org/ontology/fastestDriverCountry
p180
aVhttp://dbpedia.org/property/footnoteB
p181
aVhttp://www.w3.org/2002/07/owl#differentFrom
p182
aVhttp://dbpedia.org/ontology/officialLanguage
p183
aVhttp://dbpedia.org/ontology/regionServed
p184
aVhttp://dbpedia.org/ontology/country
p185
aVhttp://www.w3.org/1999/02/22-rdf-syntax-ns#type
p186
aVhttp://dbpedia.org/ontology/demonym
p187
aVhttp://dbpedia.org/property/locationCountry
p188
aVhttp://dbpedia.org/ontology/secondDriverCountry
p189
aVhttp://dbpedia.org/property/allegiance
p190
aVhttp://dbpedia.org/property/combatant
p191
aVhttp://dbpedia.org/property/site
p192
aVhttp://dbpedia.org/property/birthPlace
p193
aVhttp://dbpedia.org/property/country/region
p194
aVhttp://dbpedia.org/ontology/place
p195
aVhttp://dbpedia.org/property/placeOfBirth
p196
aVhttp://dbpedia.org/property/regionServed
p197
aVhttp://dbpedia.org/property/country
p198
aVhttp://dbpedia.org/property/shipCountry
p199
aVhttp://dbpedia.org/property/establishedEvent
p200
aVhttp://dbpedia.org/ontology/targetAirport
p201
aVhttp://purl.org/dc/terms/subject
p202
aVhttp://dbpedia.org/ontology/populationPlace
p203
aVhttp://dbpedia.org/ontology/abstract
p204
aVhttp://dbpedia.org/ontology/recordedIn
p205
aVhttp://dbpedia.org/ontology/firstDriverCountry
p206
aVhttp://dbpedia.org/property/location
p207
aVhttp://dbpedia.org/ontology/usingCountry
p208
aVhttp://dbpedia.org/property/states
p209
aVhttp://dbpedia.org/ontology/locationCountry
p210
aVhttp://dbpedia.org/ontology/headquarter
p211
aVhttp://dbpedia.org/ontology/city
p212
aVhttp://dbpedia.org/property/shipNamesake
p213
aVhttp://dbpedia.org/ontology/language
p214
aVhttp://dbpedia.org/ontology/location
p215
aVhttp://dbpedia.org/property/basinCountries
p216
aVhttp://dbpedia.org/property/jurisdiction
p217
aVhttp://dbpedia.org/property/officialLanguages
p218
aVhttp://www.w3.org/2000/01/rdf-schema#comment
p219
aVhttp://dbpedia.org/ontology/birthPlace
p220
aVhttp://dbpedia.org/ontology/wikiPageRedirects
p221
aVhttp://dbpedia.org/ontology/poleDriverCountry
p222
aVhttp://dbpedia.org/property/area
p223
aVhttp://dbpedia.org/property/remit
p224
aVhttp://dbpedia.org/ontology/hometown
p225
aVhttp://dbpedia.org/ontology/jurisdiction
p226
aVhttp://dbpedia.org/property/demonym
p227
aVhttp://dbpedia.org/property/areaServed
p228
aVhttp://dbpedia.org/property/headquarters
p229
aVhttp://dbpedia.org/ontology/spokenIn
p230
aVhttp://dbpedia.org/property/garrison
p231
aVhttp://dbpedia.org/ontology/thirdDriverCountry
p232
aVhttp://dbpedia.org/property/stadium
p233
aVhttp://dbpedia.org/property/observedby
p234
asI3
(lp235
Vhttp://www.w3.org/2000/01/rdf-schema#seeAlso
p236
aVhttp://dbpedia.org/property/origin
p237
aVhttp://dbpedia.org/property/ground
p238
aVhttp://dbpedia.org/ontology/origin
p239
aVhttp://dbpedia.org/property/placeOfDeath
p240
aVhttp://dbpedia.org/ontology/locatedInArea
p241
aVhttp://dbpedia.org/ontology/country
p242
aVhttp://dbpedia.org/property/region
p243
aVhttp://dbpedia.org/property/assembly
p244
aVhttp://dbpedia.org/ontology/ground
p245
aVhttp://dbpedia.org/ontology/nationality
p246
aVhttp://dbpedia.org/property/birthPlace
p247
aVhttp://dbpedia.org/property/nationalOrigin
p248
aVhttp://dbpedia.org/property/country
p249
aVhttp://dbpedia.org/ontology/wikiPageDisambiguates
p250
aVhttp://dbpedia.org/property/placeOfBirth
p251
aVhttp://dbpedia.org/property/nationality
p252
aVhttp://dbpedia.org/ontology/abstract
p253
aVhttp://dbpedia.org/ontology/recordedIn
p254
aVhttp://dbpedia.org/property/deathPlace
p255
aVhttp://dbpedia.org/property/location
p256
aVhttp://dbpedia.org/ontology/deathPlace
p257
aVhttp://dbpedia.org/ontology/language
p258
aVhttp://dbpedia.org/property/basinCountries
p259
aVhttp://dbpedia.org/ontology/assembly
p260
aVhttp://dbpedia.org/ontology/location
p261
aVhttp://www.w3.org/2000/01/rdf-schema#comment
p262
aVhttp://dbpedia.org/ontology/birthPlace
p263
aVhttp://dbpedia.org/ontology/citizenship
p264
aVhttp://dbpedia.org/ontology/hometown
p265
aVhttp://dbpedia.org/ontology/stateOfOrigin
p266
assI10
(dp267
I0
(lp268
sI1
(lp269
Vhttp://www.w3.org/2000/01/rdf-schema#seeAlso
p270
aVhttp://dbpedia.org/property/currency
p271
aVhttp://dbpedia.org/ontology/twinCountry
p272
aVhttp://dbpedia.org/property/affiliation
p273
aVhttp://dbpedia.org/ontology/origin
p274
aVhttp://dbpedia.org/ontology/currency
p275
aVhttp://dbpedia.org/property/place
p276
aVhttp://dbpedia.org/ontology/wikiPageRedirects
p277
aVhttp://dbpedia.org/property/city
p278
aVhttp://dbpedia.org/ontology/jurisdiction
p279
aVhttp://dbpedia.org/property/sovereigntyType
p280
aVhttp://dbpedia.org/property/legislature
p281
aVhttp://www.w3.org/2002/07/owl#differentFrom
p282
aVhttp://dbpedia.org/ontology/regionServed
p283
aVhttp://dbpedia.org/ontology/country
p284
aVhttp://www.w3.org/1999/02/22-rdf-syntax-ns#type
p285
aVhttp://dbpedia.org/ontology/nationality
p286
aVhttp://dbpedia.org/ontology/demonym
p287
aVhttp://dbpedia.org/property/locationCountry
p288
aVhttp://dbpedia.org/property/allegiance
p289
aVhttp://dbpedia.org/property/combatant
p290
aVhttp://dbpedia.org/property/timeZone
p291
aVhttp://dbpedia.org/property/birthPlace
p292
aVhttp://dbpedia.org/property/country/region
p293
aVhttp://dbpedia.org/ontology/place
p294
aVhttp://dbpedia.org/property/placeOfBirth
p295
aVhttp://dbpedia.org/property/country
p296
aVhttp://dbpedia.org/property/areaServed
p297
aVhttp://dbpedia.org/ontology/populationPlace
p298
aVhttp://dbpedia.org/property/free
p299
aVhttp://dbpedia.org/ontology/abstract
p300
aVhttp://dbpedia.org/property/deathPlace
p301
aVhttp://dbpedia.org/ontology/usingCountry
p302
aVhttp://dbpedia.org/property/location
p303
aVhttp://dbpedia.org/ontology/builder
p304
aVhttp://dbpedia.org/ontology/headquarter
p305
aVhttp://dbpedia.org/property/row
p306
aVhttp://dbpedia.org/ontology/city
p307
aVhttp://dbpedia.org/property/builder
p308
aVhttp://dbpedia.org/property/headquarters
p309
aVhttp://dbpedia.org/property/garrison
p310
aVhttp://dbpedia.org/ontology/location
p311
aVhttp://www.w3.org/2000/01/rdf-schema#comment
p312
aVhttp://dbpedia.org/ontology/timeZone
p313
aVhttp://dbpedia.org/ontology/birthPlace
p314
aVhttp://dbpedia.org/property/countries
p315
aVhttp://dbpedia.org/ontology/locationCountry
p316
aVhttp://dbpedia.org/ontology/hometown
p317
aVhttp://dbpedia.org/ontology/garrison
p318
aVhttp://dbpedia.org/property/demonym
p319
aVhttp://dbpedia.org/property/regionServed
p320
aVhttp://dbpedia.org/property/jurisdiction
p321
aVhttp://dbpedia.org/ontology/stateOfOrigin
p322
aVhttp://dbpedia.org/property/data
p323
aVhttp://dbpedia.org/property/origin
p324
asI3
(lp325
Vhttp://dbpedia.org/property/origin
p326
aVhttp://dbpedia.org/property/placeOfDeath
p327
aVhttp://dbpedia.org/ontology/type
p328
aVhttp://dbpedia.org/ontology/origin
p329
aVhttp://dbpedia.org/property/city
p330
aVhttp://dbpedia.org/ontology/locatedInArea
p331
aVhttp://dbpedia.org/ontology/regionServed
p332
aVhttp://dbpedia.org/ontology/country
p333
aVhttp://dbpedia.org/property/region
p334
aVhttp://dbpedia.org/property/locationCountry
p335
aVhttp://dbpedia.org/ontology/nationality
p336
aVhttp://dbpedia.org/property/birthPlace
p337
aVhttp://dbpedia.org/property/placeOfBirth
p338
aVhttp://dbpedia.org/property/country
p339
aVhttp://dbpedia.org/ontology/wikiPageDisambiguates
p340
aVhttp://dbpedia.org/ontology/wikiPageExternalLink
p341
aVhttp://dbpedia.org/ontology/populationPlace
p342
aVhttp://dbpedia.org/ontology/residence
p343
aVhttp://dbpedia.org/ontology/abstract
p344
aVhttp://dbpedia.org/property/deathPlace
p345
aVhttp://dbpedia.org/property/location
p346
aVhttp://dbpedia.org/property/states
p347
aVhttp://dbpedia.org/ontology/locationCountry
p348
aVhttp://dbpedia.org/ontology/deathPlace
p349
aVhttp://dbpedia.org/property/subdivisionName
p350
aVhttp://dbpedia.org/ontology/broadcastArea
p351
aVhttp://dbpedia.org/ontology/location
p352
aVhttp://www.w3.org/2000/01/rdf-schema#comment
p353
aVhttp://dbpedia.org/ontology/birthPlace
p354
aVhttp://dbpedia.org/property/address
p355
aVhttp://dbpedia.org/ontology/citizenship
p356
aVhttp://dbpedia.org/property/area
p357
aVhttp://dbpedia.org/ontology/hometown
p358
aVhttp://dbpedia.org/property/citizenship
p359
aVhttp://dbpedia.org/ontology/spokenIn
p360
aVhttp://dbpedia.org/ontology/stateOfOrigin
p361
aVhttp://dbpedia.org/property/residence
p362
assI13
(dp363
I0
(lp364
sI1
(lp365
Vhttp://www.w3.org/2000/01/rdf-schema#seeAlso
p366
aVhttp://dbpedia.org/property/currency
p367
aVhttp://dbpedia.org/property/broadcastArea
p368
aVhttp://dbpedia.org/ontology/origin
p369
aVhttp://dbpedia.org/property/conventionalLongName
p370
aVhttp://dbpedia.org/property/place
p371
aVhttp://dbpedia.org/ontology/wikiPageRedirects
p372
aVhttp://dbpedia.org/property/city
p373
aVhttp://dbpedia.org/ontology/isPartOfMilitaryConflict
p374
aVhttp://dbpedia.org/property/placeOfDeath
p375
aVhttp://dbpedia.org/ontology/longName
p376
aVhttp://dbpedia.org/property/caption
p377
aVhttp://dbpedia.org/property/territory
p378
aVhttp://www.w3.org/2002/07/owl#differentFrom
p379
aVhttp://dbpedia.org/ontology/officialLanguage
p380
aVhttp://dbpedia.org/property/possessions
p381
aVhttp://dbpedia.org/ontology/regionServed
p382
aVhttp://dbpedia.org/ontology/country
p383
aVhttp://dbpedia.org/property/region
p384
aVhttp://www.w3.org/1999/02/22-rdf-syntax-ns#type
p385
aVhttp://dbpedia.org/ontology/demonym
p386
aVhttp://dbpedia.org/property/locationCountry
p387
aVhttp://dbpedia.org/property/birthPlace
p388
aVhttp://dbpedia.org/property/image
p389
aVhttp://dbpedia.org/property/headquarters
p390
aVhttp://dbpedia.org/ontology/place
p391
aVhttp://dbpedia.org/ontology/ethnicGroup
p392
aVhttp://dbpedia.org/ontology/currency
p393
aVhttp://dbpedia.org/property/country
p394
aVhttp://dbpedia.org/property/shipCountry
p395
aVhttp://dbpedia.org/property/establishedEvent
p396
aVhttp://dbpedia.org/property/placeOfBirth
p397
aVhttp://dbpedia.org/ontology/wikiPageExternalLink
p398
aVhttp://purl.org/dc/terms/subject
p399
aVhttp://dbpedia.org/property/origin
p400
aVhttp://dbpedia.org/ontology/abstract
p401
aVhttp://dbpedia.org/ontology/spokenIn
p402
aVhttp://dbpedia.org/property/deathPlace
p403
aVhttp://dbpedia.org/property/location
p404
aVhttp://dbpedia.org/ontology/builder
p405
aVhttp://dbpedia.org/ontology/ideology
p406
aVhttp://dbpedia.org/ontology/headquarter
p407
aVhttp://dbpedia.org/property/headquarter
p408
aVhttp://dbpedia.org/property/foundingLocation
p409
aVhttp://dbpedia.org/property/usedBy
p410
aVhttp://dbpedia.org/property/shipNamesake
p411
aVhttp://dbpedia.org/property/controlledby
p412
aVhttp://dbpedia.org/ontology/language
p413
aVhttp://dbpedia.org/ontology/location
p414
aVhttp://dbpedia.org/property/locale
p415
aVhttp://dbpedia.org/property/imageMap
p416
aVhttp://dbpedia.org/property/shipBuilder
p417
aVhttp://dbpedia.org/property/officialLanguages
p418
aVhttp://www.w3.org/2000/01/rdf-schema#comment
p419
aVhttp://dbpedia.org/ontology/birthPlace
p420
aVhttp://dbpedia.org/property/address
p421
aVhttp://dbpedia.org/ontology/locationCountry
p422
aVhttp://dbpedia.org/property/remit
p423
aVhttp://dbpedia.org/ontology/hometown
p424
aVhttp://dbpedia.org/property/demonym
p425
aVhttp://dbpedia.org/property/areaServed
p426
aVhttp://dbpedia.org/property/imageCoat
p427
aVhttp://dbpedia.org/property/regionServed
p428
aVhttp://dbpedia.org/property/builders
p429
aVhttp://dbpedia.org/property/stadium
p430
aVhttp://dbpedia.org/ontology/deathPlace
p431
asI3
(lp432
Vhttp://www.w3.org/2000/01/rdf-schema#seeAlso
p433
aVhttp://dbpedia.org/property/placeOfDeath
p434
aVhttp://dbpedia.org/property/residence
p435
aVhttp://dbpedia.org/property/base
p436
aVhttp://dbpedia.org/ontology/locatedInArea
p437
aVhttp://dbpedia.org/property/placeofburial
p438
aVhttp://dbpedia.org/ontology/country
p439
aVhttp://dbpedia.org/property/locationCountry
p440
aVhttp://dbpedia.org/ontology/nationality
p441
aVhttp://dbpedia.org/property/birthPlace
p442
aVhttp://dbpedia.org/property/placeOfBirth
p443
aVhttp://dbpedia.org/property/nationality
p444
aVhttp://dbpedia.org/property/owner
p445
aVhttp://dbpedia.org/property/country
p446
aVhttp://dbpedia.org/ontology/wikiPageDisambiguates
p447
aVhttp://dbpedia.org/ontology/populationPlace
p448
aVhttp://dbpedia.org/ontology/residence
p449
aVhttp://dbpedia.org/ontology/abstract
p450
aVhttp://dbpedia.org/property/deathPlace
p451
aVhttp://dbpedia.org/property/location
p452
aVhttp://dbpedia.org/property/cityServed
p453
aVhttp://dbpedia.org/ontology/locationCountry
p454
aVhttp://dbpedia.org/ontology/deathPlace
p455
aVhttp://dbpedia.org/ontology/city
p456
aVhttp://dbpedia.org/property/headquarters
p457
aVhttp://dbpedia.org/property/locale
p458
aVhttp://dbpedia.org/ontology/location
p459
aVhttp://dbpedia.org/ontology/birthPlace
p460
aVhttp://dbpedia.org/ontology/restingPlace
p461
aVhttp://dbpedia.org/property/citizenship
p462
aVhttp://dbpedia.org/ontology/stateOfOrigin
p463
assI15
(dp464
I0
(lp465
sI1
(lp466
Vhttp://www.w3.org/2000/01/rdf-schema#seeAlso
p467
aVhttp://dbpedia.org/property/currency
p468
aVhttp://dbpedia.org/ontology/currency
p469
aVhttp://dbpedia.org/property/place
p470
aVhttp://dbpedia.org/ontology/foundationPlace
p471
aVhttp://dbpedia.org/property/territorialExtent
p472
aVhttp://dbpedia.org/ontology/poleDriverCountry
p473
aVhttp://dbpedia.org/property/foundation
p474
aVhttp://dbpedia.org/ontology/thirdDriverCountry
p475
aVhttp://dbpedia.org/ontology/demonym
p476
aVhttp://dbpedia.org/ontology/officialLanguage
p477
aVhttp://dbpedia.org/ontology/regionServed
p478
aVhttp://dbpedia.org/ontology/country
p479
aVhttp://dbpedia.org/property/locationCountry
p480
aVhttp://dbpedia.org/ontology/secondDriverCountry
p481
aVhttp://dbpedia.org/property/allegiance
p482
aVhttp://dbpedia.org/property/site
p483
aVhttp://dbpedia.org/ontology/nationality
p484
aVhttp://dbpedia.org/property/birthPlace
p485
aVhttp://dbpedia.org/property/headquarters
p486
aVhttp://dbpedia.org/ontology/place
p487
aVhttp://dbpedia.org/property/nationalOrigin
p488
aVhttp://dbpedia.org/property/office
p489
aVhttp://dbpedia.org/property/country
p490
aVhttp://dbpedia.org/property/areaServed
p491
aVhttp://dbpedia.org/property/placeOfBirth
p492
aVhttp://purl.org/dc/terms/subject
p493
aVhttp://dbpedia.org/ontology/populationPlace
p494
aVhttp://dbpedia.org/property/origin
p495
aVhttp://dbpedia.org/ontology/abstract
p496
aVhttp://dbpedia.org/property/regionServed
p497
aVhttp://dbpedia.org/property/location
p498
aVhttp://dbpedia.org/property/states
p499
aVhttp://dbpedia.org/ontology/locationCountry
p500
aVhttp://dbpedia.org/ontology/headquarter
p501
aVhttp://dbpedia.org/ontology/city
p502
aVhttp://dbpedia.org/ontology/language
p503
aVhttp://dbpedia.org/ontology/location
p504
aVhttp://dbpedia.org/property/officialLanguages
p505
aVhttp://www.w3.org/2000/01/rdf-schema#comment
p506
aVhttp://dbpedia.org/ontology/birthPlace
p507
aVhttp://dbpedia.org/property/hostcity
p508
aVhttp://dbpedia.org/ontology/wikiPageRedirects
p509
aVhttp://dbpedia.org/ontology/hometown
p510
aVhttp://dbpedia.org/property/bankOf
p511
aVhttp://dbpedia.org/property/locationCity
p512
aVhttp://dbpedia.org/ontology/spokenIn
p513
aVhttp://dbpedia.org/property/jurisdiction
p514
aVhttp://dbpedia.org/ontology/locationCity
p515
aVhttp://dbpedia.org/ontology/deathPlace
p516
asI3
(lp517
Vhttp://dbpedia.org/property/origin
p518
aVhttp://dbpedia.org/property/placeOfDeath
p519
aVhttp://dbpedia.org/property/recorded
p520
aVhttp://dbpedia.org/property/city
p521
aVhttp://dbpedia.org/ontology/country
p522
aVhttp://dbpedia.org/ontology/ground
p523
aVhttp://dbpedia.org/ontology/nationality
p524
aVhttp://dbpedia.org/property/birthPlace
p525
aVhttp://dbpedia.org/property/placeOfBirth
p526
aVhttp://dbpedia.org/property/country
p527
aVhttp://dbpedia.org/ontology/wikiPageDisambiguates
p528
aVhttp://dbpedia.org/property/nationality
p529
aVhttp://dbpedia.org/ontology/abstract
p530
aVhttp://dbpedia.org/ontology/recordedIn
p531
aVhttp://dbpedia.org/property/location
p532
aVhttp://dbpedia.org/property/cityServed
p533
aVhttp://dbpedia.org/ontology/deathPlace
p534
aVhttp://dbpedia.org/property/subdivisionName
p535
aVhttp://dbpedia.org/property/headquarters
p536
aVhttp://www.w3.org/2000/01/rdf-schema#comment
p537
aVhttp://dbpedia.org/ontology/birthPlace
p538
aVhttp://dbpedia.org/ontology/hometown
p539
assI16
(dp540
I0
(lp541
sI1
(lp542
Vhttp://www.w3.org/2000/01/rdf-schema#seeAlso
p543
aVhttp://dbpedia.org/ontology/country
p544
aVhttp://www.w3.org/1999/02/22-rdf-syntax-ns#type
p545
aVhttp://purl.org/dc/terms/subject
p546
aVhttp://dbpedia.org/property/officialLanguages
p547
aVhttp://www.w3.org/2000/01/rdf-schema#comment
p548
aVhttp://dbpedia.org/ontology/abstract
p549
aVhttp://dbpedia.org/property/deathPlace
p550
aVhttp://dbpedia.org/property/location
p551
aVhttp://dbpedia.org/property/states
p552
aVhttp://dbpedia.org/ontology/deathPlace
p553
aVhttp://dbpedia.org/ontology/headquarter
p554
aVhttp://dbpedia.org/ontology/spokenIn
p555
aVhttp://dbpedia.org/property/country
p556
aVhttp://dbpedia.org/ontology/populationPlace
p557
asI3
(lp558
Vhttp://dbpedia.org/ontology/country
p559
aVhttp://dbpedia.org/ontology/location
p560
aVhttp://dbpedia.org/ontology/abstract
p561
aVhttp://dbpedia.org/property/location
p562
aVhttp://dbpedia.org/property/birthPlace
p563
aVhttp://dbpedia.org/property/placeOfBirth
p564
aVhttp://dbpedia.org/ontology/wikiPageDisambiguates
p565
aVhttp://dbpedia.org/ontology/birthPlace
p566
assI17
(dp567
I0
(lp568
sI1
(lp569
Vhttp://dbpedia.org/property/place
p570
aVhttp://dbpedia.org/ontology/abstract
p571
aVhttp://dbpedia.org/ontology/place
p572
asI3
(lp573
Vhttp://dbpedia.org/ontology/country
p574
aVhttp://dbpedia.org/ontology/location
p575
aVhttp://dbpedia.org/ontology/abstract
p576
aVhttp://dbpedia.org/property/location
p577
aVhttp://dbpedia.org/property/birthPlace
p578
aVhttp://dbpedia.org/property/placeOfBirth
p579
aVhttp://dbpedia.org/ontology/wikiPageDisambiguates
p580
aVhttp://dbpedia.org/ontology/birthPlace
p581
assI18
(dp582
I0
(lp583
Vhttp://dbpedia.org/ontology/country
p584
aVhttp://dbpedia.org/property/country
p585
asI1
(lp586
Vhttp://www.w3.org/2000/01/rdf-schema#seeAlso
p587
aVhttp://dbpedia.org/property/origin
p588
aVhttp://dbpedia.org/ontology/origin
p589
aVhttp://dbpedia.org/ontology/currency
p590
aVhttp://dbpedia.org/property/residence
p591
aVhttp://dbpedia.org/ontology/garrison
p592
aVhttp://dbpedia.org/ontology/thirdDriverCountry
p593
aVhttp://www.w3.org/2002/07/owl#differentFrom
p594
aVhttp://dbpedia.org/ontology/regionServed
p595
aVhttp://dbpedia.org/ontology/country
p596
aVhttp://dbpedia.org/property/region
p597
aVhttp://dbpedia.org/ontology/demonym
p598
aVhttp://dbpedia.org/property/locations
p599
aVhttp://dbpedia.org/property/birthPlace
p600
aVhttp://dbpedia.org/property/headquarters
p601
aVhttp://dbpedia.org/ontology/ethnicGroup
p602
aVhttp://dbpedia.org/property/country
p603
aVhttp://dbpedia.org/property/shipCountry
p604
aVhttp://dbpedia.org/property/placeOfBirth
p605
aVhttp://dbpedia.org/ontology/populationPlace
p606
aVhttp://dbpedia.org/ontology/abstract
p607
aVhttp://dbpedia.org/property/location
p608
aVhttp://dbpedia.org/ontology/usingCountry
p609
aVhttp://dbpedia.org/property/states
p610
aVhttp://dbpedia.org/ontology/builder
p611
aVhttp://dbpedia.org/ontology/headquarter
p612
aVhttp://dbpedia.org/ontology/language
p613
aVhttp://dbpedia.org/ontology/location
p614
aVhttp://dbpedia.org/property/languages
p615
aVhttp://dbpedia.org/ontology/territory
p616
aVhttp://dbpedia.org/property/shipBuilder
p617
aVhttp://dbpedia.org/ontology/regionalLanguage
p618
aVhttp://www.w3.org/2000/01/rdf-schema#comment
p619
aVhttp://dbpedia.org/ontology/birthPlace
p620
aVhttp://dbpedia.org/property/countries
p621
aVhttp://dbpedia.org/ontology/wikiPageRedirects
p622
aVhttp://dbpedia.org/property/related
p623
aVhttp://dbpedia.org/ontology/hometown
p624
aVhttp://dbpedia.org/property/demonym
p625
aVhttp://dbpedia.org/ontology/spokenIn
p626
aVhttp://dbpedia.org/property/garrison
p627
asI3
(lp628
ssI19
(dp629
I0
(lp630
sI1
(lp631
Vhttp://dbpedia.org/ontology/country
p632
aVhttp://dbpedia.org/property/headquarters
p633
aVhttp://dbpedia.org/property/placeOfBirth
p634
aVhttp://dbpedia.org/ontology/birthPlace
p635
aVhttp://dbpedia.org/property/birthPlace
p636
aVhttp://dbpedia.org/property/states
p637
aVhttp://dbpedia.org/ontology/locationCountry
p638
aVhttp://dbpedia.org/ontology/deathPlace
p639
aVhttp://dbpedia.org/ontology/spokenIn
p640
aVhttp://dbpedia.org/property/country
p641
aVhttp://dbpedia.org/ontology/broadcastArea
p642
asI3
(lp643
ss.