(lp1
(lp2
(lp3
a(lp4
a(lp5
a(lp6
a(lp7
a(lp8
a(lp9
Vhttp://dbpedia.org/resource/Null
p10
aa(lp11
aa(lp12
(lp13
a(lp14
a(lp15
a(lp16
a(lp17
a(lp18
a(lp19
Vhttp://dbpedia.org/resource/Null
p20
aa(lp21
aa(lp22
(lp23
a(lp24
a(lp25
a(lp26
a(lp27
a(lp28
a(lp29
Vhttp://dbpedia.org/resource/Null
p30
aa(lp31
aa(lp32
(lp33
a(lp34
a(lp35
a(lp36
a(lp37
a(lp38
a(lp39
Vhttp://dbpedia.org/resource/Null
p40
aa(lp41
aa(lp42
(lp43
a(lp44
a(lp45
a(lp46
a(lp47
a(lp48
a(lp49
Vhttp://dbpedia.org/resource/Null
p50
aa(lp51
aa.