(lp1
(lp2
(lp3
Vhttp://dbpedia.org/resource/Australia
p4
aa(lp5
Vhttp://dbpedia.org/resource/La_Trobe_University
p6
aa(lp7
Vhttp://dbpedia.org/resource/English,_Indiana
p8
aaa(lp9
(lp10
Vhttp://dbpedia.org/resource/Austria
p11
aa(lp12
a(lp13
aa(lp14
(lp15
Vhttp://dbpedia.org/resource/Austria
p16
aa(lp17
Vhttp://dbpedia.org/resource/Vienna_University_of_Economics_and_Business
p18
aa(lp19
aa(lp20
(lp21
Vhttp://dbpedia.org/resource/Belgium
p22
aa(lp23
a(lp24
aa(lp25
(lp26
a(lp27
a(lp28
Vhttp://dbpedia.org/resource/English,_Indiana
p29
aaa(lp30
(lp31
Vhttp://dbpedia.org/resource/Denmark
p32
aa(lp33
a(lp34
Vhttp://dbpedia.org/resource/English,_Indiana
p35
aaa(lp36
(lp37
Vhttp://dbpedia.org/resource/England
p38
aa(lp39
a(lp40
Vhttp://dbpedia.org/resource/English,_Indiana
p41
aaa(lp42
(lp43
Vhttp://dbpedia.org/resource/England
p44
aa(lp45
a(lp46
Vhttp://dbpedia.org/resource/English,_Indiana
p47
aaa(lp48
(lp49
Vhttp://dbpedia.org/resource/England
p50
aa(lp51
Vhttp://dbpedia.org/resource/University_of_East_Anglia
p52
aa(lp53
Vhttp://dbpedia.org/resource/English,_Indiana
p54
aaa(lp55
(lp56
Vhttp://dbpedia.org/resource/Finland
p57
aa(lp58
a(lp59
Vhttp://dbpedia.org/resource/English,_Indiana
p60
aaa(lp61
(lp62
Vhttp://dbpedia.org/resource/Finland
p63
aa(lp64
Vhttp://dbpedia.org/resource/University_of_Oulu
p65
aa(lp66
Vhttp://dbpedia.org/resource/English,_Indiana
p67
aaa(lp68
(lp69
Vhttp://dbpedia.org/resource/Germany
p70
aa(lp71
Vhttp://dbpedia.org/resource/Leipzig_University
p72
aa(lp73
aa(lp74
(lp75
Vhttp://dbpedia.org/resource/Ghana
p76
aa(lp77
a(lp78
Vhttp://dbpedia.org/resource/English,_Indiana
p79
aaa(lp80
(lp81
Vhttp://dbpedia.org/resource/Greece
p82
aa(lp83
Vhttp://dbpedia.org/resource/Aristotle_University_of_Thessaloniki
p84
aa(lp85
Vhttp://dbpedia.org/resource/English,_Indiana
p86
aaa(lp87
(lp88
Vhttp://dbpedia.org/resource/Iceland
p89
aa(lp90
Vhttp://dbpedia.org/resource/University_of_Iceland
p91
aa(lp92
Vhttp://dbpedia.org/resource/English,_Indiana
p93
aaa(lp94
(lp95
Vhttp://dbpedia.org/resource/Ireland
p96
aa(lp97
a(lp98
Vhttp://dbpedia.org/resource/English,_Indiana
p99
aaa(lp100
(lp101
Vhttp://dbpedia.org/resource/Ireland
p102
aa(lp103
a(lp104
Vhttp://dbpedia.org/resource/English,_Indiana
p105
aaa(lp106
(lp107
Vhttp://dbpedia.org/resource/Korea
p108
aa(lp109
a(lp110
aa(lp111
(lp112
Vhttp://dbpedia.org/resource/Lithuania
p113
aa(lp114
a(lp115
Vhttp://dbpedia.org/resource/English,_Indiana
p116
aaa(lp117
(lp118
Vhttp://dbpedia.org/resource/Netherlands
p119
aa(lp120
a(lp121
Vhttp://dbpedia.org/resource/English,_Indiana
p122
aaa.