(lp1
(lp2
(dp3
Vstart
p4
I0
sVdisambiguatedURL
p5
NsVnamedEntity
p6
VCONFERENCE
p7
sVoffset
p8
I10
saa(lp9
(dp10
Vstart
p11
I0
sVdisambiguatedURL
p12
NsVnamedEntity
p13
VACC Betting Odds
p14
sVoffset
p15
I16
saa(lp16
(dp17
Vstart
p18
I0
sVdisambiguatedURL
p19
NsVnamedEntity
p20
VBig East Betting Odds
p21
sVoffset
p22
I21
saa(lp23
(dp24
Vstart
p25
I0
sVdisambiguatedURL
p26
NsVnamedEntity
p27
VBig Ten Betting Odds
p28
sVoffset
p29
I20
saa(lp30
(dp31
Vstart
p32
I0
sVdisambiguatedURL
p33
NsVnamedEntity
p34
VBig 12 Betting Odds
p35
sVoffset
p36
I19
saa(lp37
(dp38
Vstart
p39
I0
sVdisambiguatedURL
p40
NsVnamedEntity
p41
VPac-10 Betting Odds
p42
sVoffset
p43
I19
saa(lp44
(dp45
Vstart
p46
I0
sVdisambiguatedURL
p47
NsVnamedEntity
p48
VSEC Betting Odds
p49
sVoffset
p50
I16
saa(lp51
(dp52
Vstart
p53
I0
sVdisambiguatedURL
p54
NsVnamedEntity
p55
VMVC Betting Odds
p56
sVoffset
p57
I16
saa(lp58
(dp59
Vstart
p60
I0
sVdisambiguatedURL
p61
NsVnamedEntity
p62
VMWC Betting Odds
p63
sVoffset
p64
I16
saa(lp65
(dp66
Vstart
p67
I0
sVdisambiguatedURL
p68
Vhttp://dbpedia.org/resource/Total
p69
sVnamedEntity
p70
VTOTAL
p71
sVoffset
p72
I5
saa.