ccollections
defaultdict
p1
(c__builtin__
dict
p2
tRp3
I0
(dp4
I0
(lp5
Vhttp://www.w3.org/ns/prov#wasDerivedFrom
p6
asI2
(lp7
ssI2
(dp8
I0
(lp9
sI2
(lp10
ssI4
(dp11
I0
(lp12
Vhttp://www.w3.org/ns/prov#wasDerivedFrom
p13
asI2
(lp14
ssI6
(dp15
I0
(lp16
sI2
(lp17
ssI7
(dp18
I0
(lp19
Vhttp://www.w3.org/ns/prov#wasDerivedFrom
p20
asI2
(lp21
ssI12
(dp22
I0
(lp23
sI2
(lp24
ssI15
(dp25
I0
(lp26
Vhttp://www.w3.org/ns/prov#wasDerivedFrom
p27
asI2
(lp28
ss.