(lp1
(lp2
(lp3
a(lp4
Vhttp://dbpedia.org/resource/English,_Indiana
p5
aa(lp6
a(lp7
a(lp8
aa(lp9
(lp10
a(lp11
Vhttp://dbpedia.org/resource/English,_Indiana
p12
aa(lp13
a(lp14
a(lp15
aa(lp16
(lp17
a(lp18
Vhttp://dbpedia.org/resource/English,_Indiana
p19
aa(lp20
a(lp21
a(lp22
aa(lp23
(lp24
a(lp25
Vhttp://dbpedia.org/resource/English,_Indiana
p26
aa(lp27
a(lp28
a(lp29
aa(lp30
(lp31
a(lp32
Vhttp://dbpedia.org/resource/English,_Indiana
p33
aa(lp34
a(lp35
a(lp36
aa(lp37
(lp38
a(lp39
Vhttp://dbpedia.org/resource/Spanish,_Ontario
p40
aa(lp41
a(lp42
a(lp43
aa(lp44
(lp45
a(lp46
Vhttp://dbpedia.org/resource/Spanish,_Ontario
p47
aa(lp48
a(lp49
a(lp50
aa(lp51
(lp52
a(lp53
Vhttp://dbpedia.org/resource/French_River_(Ontario)
p54
aa(lp55
a(lp56
a(lp57
aa(lp58
(lp59
a(lp60
Vhttp://dbpedia.org/resource/English,_Indiana
p61
aa(lp62
a(lp63
a(lp64
aa(lp65
(lp66
a(lp67
Vhttp://dbpedia.org/resource/Spanish,_Ontario
p68
aa(lp69
a(lp70
a(lp71
aa(lp72
(lp73
a(lp74
Vhttp://dbpedia.org/resource/Spanish,_Ontario
p75
aa(lp76
a(lp77
a(lp78
aa(lp79
(lp80
a(lp81
Vhttp://dbpedia.org/resource/Spanish,_Ontario
p82
aa(lp83
a(lp84
a(lp85
aa(lp86
(lp87
a(lp88
Vhttp://dbpedia.org/resource/French_River_(Ontario)
p89
aa(lp90
a(lp91
a(lp92
aa(lp93
(lp94
a(lp95
Vhttp://dbpedia.org/resource/French_River_(Ontario)
p96
aa(lp97
a(lp98
a(lp99
aa(lp100
(lp101
Vhttp://dbpedia.org/resource/Mustard_plant
p102
aa(lp103
Vhttp://dbpedia.org/resource/English,_Indiana
p104
aa(lp105
a(lp106
a(lp107
aa.