(lp1
(lp2
(dp3
Vstart
p4
I0
sS'classes'
p5
(lp6
Vhttp://www.w3.org/2002/07/owl#Thing
p7
aVhttp://dbpedia.org/ontology/Place
p8
aVhttp://dbpedia.org/ontology/Location
p9
aVhttp://www.wikidata.org/entity/Q3957
p10
aVhttp://www.wikidata.org/entity/Q486972
p11
aVhttp://dbpedia.org/ontology/PopulatedPlace
p12
aVhttp://dbpedia.org/ontology/Settlement
p13
aVhttp://dbpedia.org/ontology/Town
p14
aVhttp://www.w3.org/2003/01/geo/wgs84_pos#SpatialThing
p15
aVhttp://schema.org/Place
p16
aVhttp://umbel.org/umbel/rc/Town
p17
aVhttp://dbpedia.org/class/yago/AdministrativeDistrict108491826
p18
aVhttp://dbpedia.org/class/yago/Area108497294
p19
aVhttp://dbpedia.org/class/yago/Center108523483
p20
aVhttp://dbpedia.org/class/yago/District108552138
p21
aVhttp://dbpedia.org/class/yago/Location100027167
p22
aVhttp://dbpedia.org/class/yago/Object100002684
p23
aVhttp://dbpedia.org/class/yago/Region108630985
p24
aVhttp://dbpedia.org/class/yago/Seat108647945
p25
aVhttp://dbpedia.org/class/yago/Site108651247
p26
aVhttp://dbpedia.org/class/yago/Town108665504
p27
aVhttp://dbpedia.org/class/yago/Tract108673395
p28
aVhttp://dbpedia.org/class/yago/UrbanArea108675967
p29
aVhttp://dbpedia.org/class/yago/YagoGeoEntity
p30
aVhttp://dbpedia.org/class/yago/YagoLegalActorGeo
p31
aVhttp://dbpedia.org/class/yago/CountySeat108547143
p32
aVhttp://dbpedia.org/class/yago/CountySeatsInIndiana
p33
aVhttp://dbpedia.org/class/yago/GeographicalArea108574314
p34
aVhttp://dbpedia.org/class/yago/Municipality108626283
p35
aVhttp://dbpedia.org/class/yago/PhysicalEntity100001930
p36
aVhttp://dbpedia.org/class/yago/YagoPermanentlyLocatedEntity
p37
aVhttp://dbpedia.org/class/yago/PopulatedPlacesInCrawfordCounty,Indiana
p38
aVhttp://dbpedia.org/class/yago/TownsInIndiana
p39
asVdisambiguatedURL
p40
Vhttp://dbpedia.org/resource/English,_Indiana
p41
sVnamedEntity
p42
VEnglish
p43
sVoffset
p44
I7
saa(lp45
(dp46
Vstart
p47
I0
sg5
(lp48
Vhttp://www.w3.org/2002/07/owl#Thing
p49
aVhttp://dbpedia.org/ontology/Place
p50
aVhttp://dbpedia.org/ontology/Location
p51
aVhttp://www.wikidata.org/entity/Q3957
p52
aVhttp://www.wikidata.org/entity/Q486972
p53
aVhttp://dbpedia.org/ontology/PopulatedPlace
p54
aVhttp://dbpedia.org/ontology/Settlement
p55
aVhttp://dbpedia.org/ontology/Town
p56
aVhttp://www.w3.org/2003/01/geo/wgs84_pos#SpatialThing
p57
aVhttp://schema.org/Place
p58
aVhttp://umbel.org/umbel/rc/Town
p59
aVhttp://dbpedia.org/class/yago/AdministrativeDistrict108491826
p60
aVhttp://dbpedia.org/class/yago/Area108497294
p61
aVhttp://dbpedia.org/class/yago/Center108523483
p62
aVhttp://dbpedia.org/class/yago/District108552138
p63
aVhttp://dbpedia.org/class/yago/Location100027167
p64
aVhttp://dbpedia.org/class/yago/Object100002684
p65
aVhttp://dbpedia.org/class/yago/Region108630985
p66
aVhttp://dbpedia.org/class/yago/Seat108647945
p67
aVhttp://dbpedia.org/class/yago/Site108651247
p68
aVhttp://dbpedia.org/class/yago/Town108665504
p69
aVhttp://dbpedia.org/class/yago/Tract108673395
p70
aVhttp://dbpedia.org/class/yago/UrbanArea108675967
p71
aVhttp://dbpedia.org/class/yago/YagoGeoEntity
p72
aVhttp://dbpedia.org/class/yago/YagoLegalActorGeo
p73
aVhttp://dbpedia.org/class/yago/CountySeat108547143
p74
aVhttp://dbpedia.org/class/yago/CountySeatsInIndiana
p75
aVhttp://dbpedia.org/class/yago/GeographicalArea108574314
p76
aVhttp://dbpedia.org/class/yago/Municipality108626283
p77
aVhttp://dbpedia.org/class/yago/PhysicalEntity100001930
p78
aVhttp://dbpedia.org/class/yago/YagoPermanentlyLocatedEntity
p79
aVhttp://dbpedia.org/class/yago/PopulatedPlacesInCrawfordCounty,Indiana
p80
aVhttp://dbpedia.org/class/yago/TownsInIndiana
p81
asVdisambiguatedURL
p82
Vhttp://dbpedia.org/resource/English,_Indiana
p83
sVnamedEntity
p84
VEnglish
p85
sVoffset
p86
I7
saa(lp87
(dp88
Vstart
p89
I0
sg5
(lp90
Vhttp://www.w3.org/2002/07/owl#Thing
p91
aVhttp://dbpedia.org/ontology/Place
p92
aVhttp://dbpedia.org/ontology/Location
p93
aVhttp://www.wikidata.org/entity/Q3957
p94
aVhttp://www.wikidata.org/entity/Q486972
p95
aVhttp://dbpedia.org/ontology/PopulatedPlace
p96
aVhttp://dbpedia.org/ontology/Settlement
p97
aVhttp://dbpedia.org/ontology/Town
p98
aVhttp://www.w3.org/2003/01/geo/wgs84_pos#SpatialThing
p99
aVhttp://schema.org/Place
p100
aVhttp://umbel.org/umbel/rc/Town
p101
aVhttp://dbpedia.org/class/yago/AdministrativeDistrict108491826
p102
aVhttp://dbpedia.org/class/yago/Area108497294
p103
aVhttp://dbpedia.org/class/yago/Center108523483
p104
aVhttp://dbpedia.org/class/yago/District108552138
p105
aVhttp://dbpedia.org/class/yago/Location100027167
p106
aVhttp://dbpedia.org/class/yago/Object100002684
p107
aVhttp://dbpedia.org/class/yago/Region108630985
p108
aVhttp://dbpedia.org/class/yago/Seat108647945
p109
aVhttp://dbpedia.org/class/yago/Site108651247
p110
aVhttp://dbpedia.org/class/yago/Town108665504
p111
aVhttp://dbpedia.org/class/yago/Tract108673395
p112
aVhttp://dbpedia.org/class/yago/UrbanArea108675967
p113
aVhttp://dbpedia.org/class/yago/YagoGeoEntity
p114
aVhttp://dbpedia.org/class/yago/YagoLegalActorGeo
p115
aVhttp://dbpedia.org/class/yago/CountySeat108547143
p116
aVhttp://dbpedia.org/class/yago/CountySeatsInIndiana
p117
aVhttp://dbpedia.org/class/yago/GeographicalArea108574314
p118
aVhttp://dbpedia.org/class/yago/Municipality108626283
p119
aVhttp://dbpedia.org/class/yago/PhysicalEntity100001930
p120
aVhttp://dbpedia.org/class/yago/YagoPermanentlyLocatedEntity
p121
aVhttp://dbpedia.org/class/yago/PopulatedPlacesInCrawfordCounty,Indiana
p122
aVhttp://dbpedia.org/class/yago/TownsInIndiana
p123
asVdisambiguatedURL
p124
Vhttp://dbpedia.org/resource/English,_Indiana
p125
sVnamedEntity
p126
VEnglish
p127
sVoffset
p128
I7
saa(lp129
(dp130
Vstart
p131
I0
sg5
(lp132
Vhttp://www.w3.org/2002/07/owl#Thing
p133
aVhttp://dbpedia.org/ontology/Place
p134
aVhttp://dbpedia.org/ontology/Location
p135
aVhttp://www.wikidata.org/entity/Q3957
p136
aVhttp://www.wikidata.org/entity/Q486972
p137
aVhttp://dbpedia.org/ontology/PopulatedPlace
p138
aVhttp://dbpedia.org/ontology/Settlement
p139
aVhttp://dbpedia.org/ontology/Town
p140
aVhttp://www.w3.org/2003/01/geo/wgs84_pos#SpatialThing
p141
aVhttp://schema.org/Place
p142
aVhttp://umbel.org/umbel/rc/Town
p143
aVhttp://dbpedia.org/class/yago/AdministrativeDistrict108491826
p144
aVhttp://dbpedia.org/class/yago/Area108497294
p145
aVhttp://dbpedia.org/class/yago/Center108523483
p146
aVhttp://dbpedia.org/class/yago/District108552138
p147
aVhttp://dbpedia.org/class/yago/Location100027167
p148
aVhttp://dbpedia.org/class/yago/Object100002684
p149
aVhttp://dbpedia.org/class/yago/Region108630985
p150
aVhttp://dbpedia.org/class/yago/Seat108647945
p151
aVhttp://dbpedia.org/class/yago/Site108651247
p152
aVhttp://dbpedia.org/class/yago/Town108665504
p153
aVhttp://dbpedia.org/class/yago/Tract108673395
p154
aVhttp://dbpedia.org/class/yago/UrbanArea108675967
p155
aVhttp://dbpedia.org/class/yago/YagoGeoEntity
p156
aVhttp://dbpedia.org/class/yago/YagoLegalActorGeo
p157
aVhttp://dbpedia.org/class/yago/CountySeat108547143
p158
aVhttp://dbpedia.org/class/yago/CountySeatsInIndiana
p159
aVhttp://dbpedia.org/class/yago/GeographicalArea108574314
p160
aVhttp://dbpedia.org/class/yago/Municipality108626283
p161
aVhttp://dbpedia.org/class/yago/PhysicalEntity100001930
p162
aVhttp://dbpedia.org/class/yago/YagoPermanentlyLocatedEntity
p163
aVhttp://dbpedia.org/class/yago/PopulatedPlacesInCrawfordCounty,Indiana
p164
aVhttp://dbpedia.org/class/yago/TownsInIndiana
p165
asVdisambiguatedURL
p166
Vhttp://dbpedia.org/resource/English,_Indiana
p167
sVnamedEntity
p168
VEnglish
p169
sVoffset
p170
I7
saa(lp171
(dp172
Vstart
p173
I0
sg5
(lp174
Vhttp://www.w3.org/2002/07/owl#Thing
p175
aVhttp://dbpedia.org/ontology/Place
p176
aVhttp://dbpedia.org/ontology/Location
p177
aVhttp://www.wikidata.org/entity/Q3957
p178
aVhttp://www.wikidata.org/entity/Q486972
p179
aVhttp://dbpedia.org/ontology/PopulatedPlace
p180
aVhttp://dbpedia.org/ontology/Settlement
p181
aVhttp://dbpedia.org/ontology/Town
p182
aVhttp://www.w3.org/2003/01/geo/wgs84_pos#SpatialThing
p183
aVhttp://schema.org/Place
p184
aVhttp://umbel.org/umbel/rc/Town
p185
aVhttp://dbpedia.org/class/yago/AdministrativeDistrict108491826
p186
aVhttp://dbpedia.org/class/yago/Area108497294
p187
aVhttp://dbpedia.org/class/yago/Center108523483
p188
aVhttp://dbpedia.org/class/yago/District108552138
p189
aVhttp://dbpedia.org/class/yago/Location100027167
p190
aVhttp://dbpedia.org/class/yago/Object100002684
p191
aVhttp://dbpedia.org/class/yago/Region108630985
p192
aVhttp://dbpedia.org/class/yago/Seat108647945
p193
aVhttp://dbpedia.org/class/yago/Site108651247
p194
aVhttp://dbpedia.org/class/yago/Town108665504
p195
aVhttp://dbpedia.org/class/yago/Tract108673395
p196
aVhttp://dbpedia.org/class/yago/UrbanArea108675967
p197
aVhttp://dbpedia.org/class/yago/YagoGeoEntity
p198
aVhttp://dbpedia.org/class/yago/YagoLegalActorGeo
p199
aVhttp://dbpedia.org/class/yago/CountySeat108547143
p200
aVhttp://dbpedia.org/class/yago/CountySeatsInIndiana
p201
aVhttp://dbpedia.org/class/yago/GeographicalArea108574314
p202
aVhttp://dbpedia.org/class/yago/Municipality108626283
p203
aVhttp://dbpedia.org/class/yago/PhysicalEntity100001930
p204
aVhttp://dbpedia.org/class/yago/YagoPermanentlyLocatedEntity
p205
aVhttp://dbpedia.org/class/yago/PopulatedPlacesInCrawfordCounty,Indiana
p206
aVhttp://dbpedia.org/class/yago/TownsInIndiana
p207
asVdisambiguatedURL
p208
Vhttp://dbpedia.org/resource/English,_Indiana
p209
sVnamedEntity
p210
VEnglish
p211
sVoffset
p212
I7
saa(lp213
(dp214
Vstart
p215
I0
sg5
(lp216
Vhttp://www.w3.org/2002/07/owl#Thing
p217
aVhttp://dbpedia.org/ontology/Place
p218
aVhttp://dbpedia.org/ontology/Location
p219
aVhttp://www.wikidata.org/entity/Q3957
p220
aVhttp://www.wikidata.org/entity/Q486972
p221
aVhttp://dbpedia.org/ontology/PopulatedPlace
p222
aVhttp://dbpedia.org/ontology/Settlement
p223
aVhttp://dbpedia.org/ontology/Town
p224
aVhttp://www.w3.org/2003/01/geo/wgs84_pos#SpatialThing
p225
aVhttp://schema.org/Place
p226
aVhttp://umbel.org/umbel/rc/Town
p227
aVhttp://dbpedia.org/class/yago/AdministrativeDistrict108491826
p228
aVhttp://dbpedia.org/class/yago/Area108497294
p229
aVhttp://dbpedia.org/class/yago/Center108523483
p230
aVhttp://dbpedia.org/class/yago/District108552138
p231
aVhttp://dbpedia.org/class/yago/Location100027167
p232
aVhttp://dbpedia.org/class/yago/Object100002684
p233
aVhttp://dbpedia.org/class/yago/Region108630985
p234
aVhttp://dbpedia.org/class/yago/Seat108647945
p235
aVhttp://dbpedia.org/class/yago/Site108651247
p236
aVhttp://dbpedia.org/class/yago/Town108665504
p237
aVhttp://dbpedia.org/class/yago/Tract108673395
p238
aVhttp://dbpedia.org/class/yago/UrbanArea108675967
p239
aVhttp://dbpedia.org/class/yago/YagoGeoEntity
p240
aVhttp://dbpedia.org/class/yago/YagoLegalActorGeo
p241
aVhttp://dbpedia.org/class/yago/CountySeat108547143
p242
aVhttp://dbpedia.org/class/yago/CountySeatsInIndiana
p243
aVhttp://dbpedia.org/class/yago/GeographicalArea108574314
p244
aVhttp://dbpedia.org/class/yago/Municipality108626283
p245
aVhttp://dbpedia.org/class/yago/PhysicalEntity100001930
p246
aVhttp://dbpedia.org/class/yago/YagoPermanentlyLocatedEntity
p247
aVhttp://dbpedia.org/class/yago/PopulatedPlacesInCrawfordCounty,Indiana
p248
aVhttp://dbpedia.org/class/yago/TownsInIndiana
p249
asVdisambiguatedURL
p250
Vhttp://dbpedia.org/resource/English,_Indiana
p251
sVnamedEntity
p252
VEnglish
p253
sVoffset
p254
I7
saa(lp255
(dp256
Vstart
p257
I0
sg5
(lp258
Vhttp://www.w3.org/2002/07/owl#Thing
p259
aVhttp://dbpedia.org/ontology/Place
p260
aVhttp://dbpedia.org/ontology/Location
p261
aVhttp://www.wikidata.org/entity/Q3957
p262
aVhttp://www.wikidata.org/entity/Q486972
p263
aVhttp://dbpedia.org/ontology/PopulatedPlace
p264
aVhttp://dbpedia.org/ontology/Settlement
p265
aVhttp://dbpedia.org/ontology/Town
p266
aVhttp://www.w3.org/2003/01/geo/wgs84_pos#SpatialThing
p267
aVhttp://schema.org/Place
p268
aVhttp://umbel.org/umbel/rc/Town
p269
aVhttp://dbpedia.org/class/yago/AdministrativeDistrict108491826
p270
aVhttp://dbpedia.org/class/yago/Area108497294
p271
aVhttp://dbpedia.org/class/yago/Center108523483
p272
aVhttp://dbpedia.org/class/yago/District108552138
p273
aVhttp://dbpedia.org/class/yago/Location100027167
p274
aVhttp://dbpedia.org/class/yago/Object100002684
p275
aVhttp://dbpedia.org/class/yago/Region108630985
p276
aVhttp://dbpedia.org/class/yago/Seat108647945
p277
aVhttp://dbpedia.org/class/yago/Site108651247
p278
aVhttp://dbpedia.org/class/yago/Town108665504
p279
aVhttp://dbpedia.org/class/yago/Tract108673395
p280
aVhttp://dbpedia.org/class/yago/UrbanArea108675967
p281
aVhttp://dbpedia.org/class/yago/YagoGeoEntity
p282
aVhttp://dbpedia.org/class/yago/YagoLegalActorGeo
p283
aVhttp://dbpedia.org/class/yago/CountySeat108547143
p284
aVhttp://dbpedia.org/class/yago/CountySeatsInIndiana
p285
aVhttp://dbpedia.org/class/yago/GeographicalArea108574314
p286
aVhttp://dbpedia.org/class/yago/Municipality108626283
p287
aVhttp://dbpedia.org/class/yago/PhysicalEntity100001930
p288
aVhttp://dbpedia.org/class/yago/YagoPermanentlyLocatedEntity
p289
aVhttp://dbpedia.org/class/yago/PopulatedPlacesInCrawfordCounty,Indiana
p290
aVhttp://dbpedia.org/class/yago/TownsInIndiana
p291
asVdisambiguatedURL
p292
Vhttp://dbpedia.org/resource/English,_Indiana
p293
sVnamedEntity
p294
VEnglish
p295
sVoffset
p296
I7
saa(lp297
(dp298
Vstart
p299
I0
sg5
(lp300
Vhttp://www.w3.org/2002/07/owl#Thing
p301
aVhttp://dbpedia.org/ontology/Place
p302
aVhttp://dbpedia.org/ontology/Location
p303
aVhttp://www.wikidata.org/entity/Q4022
p304
aVhttp://www.wikidata.org/entity/Q47521
p305
aVhttp://dbpedia.org/ontology/BodyOfWater
p306
aVhttp://dbpedia.org/ontology/NaturalPlace
p307
aVhttp://dbpedia.org/ontology/River
p308
aVhttp://dbpedia.org/ontology/Stream
p309
aVhttp://schema.org/BodyOfWater
p310
aVhttp://schema.org/Place
p311
aVhttp://schema.org/RiverBodyOfWater
p312
aVhttp://umbel.org/umbel/rc/BodyOfWater
p313
aVhttp://umbel.org/umbel/rc/River
p314
aVhttp://umbel.org/umbel/rc/Stream
p315
aVhttp://dbpedia.org/class/yago/BodyOfWater109225146
p316
aVhttp://dbpedia.org/class/yago/Branch109228324
p317
aVhttp://dbpedia.org/class/yago/CanadianHeritageRivers
p318
aVhttp://dbpedia.org/class/yago/River109411430
p319
aVhttp://dbpedia.org/class/yago/Stream109448361
p320
aVhttp://dbpedia.org/class/yago/Thing100002452
p321
aVhttp://dbpedia.org/class/yago/YagoGeoEntity
p322
aVhttp://dbpedia.org/class/yago/Feeder109278997
p323
aVhttp://dbpedia.org/class/yago/PhysicalEntity100001930
p324
aVhttp://dbpedia.org/class/yago/YagoPermanentlyLocatedEntity
p325
aVhttp://dbpedia.org/class/yago/RiversOfOntario
p326
aVhttp://dbpedia.org/class/yago/TributariesOfLakeHuron
p327
asVdisambiguatedURL
p328
Vhttp://dbpedia.org/resource/French_River_(Ontario)
p329
sVnamedEntity
p330
VFrench
p331
sVoffset
p332
I6
saa(lp333
(dp334
Vstart
p335
I0
sg5
(lp336
Vhttp://www.w3.org/2002/07/owl#Thing
p337
aVhttp://dbpedia.org/ontology/Place
p338
aVhttp://dbpedia.org/ontology/Location
p339
aVhttp://www.wikidata.org/entity/Q4022
p340
aVhttp://www.wikidata.org/entity/Q47521
p341
aVhttp://dbpedia.org/ontology/BodyOfWater
p342
aVhttp://dbpedia.org/ontology/NaturalPlace
p343
aVhttp://dbpedia.org/ontology/River
p344
aVhttp://dbpedia.org/ontology/Stream
p345
aVhttp://schema.org/BodyOfWater
p346
aVhttp://schema.org/Place
p347
aVhttp://schema.org/RiverBodyOfWater
p348
aVhttp://umbel.org/umbel/rc/BodyOfWater
p349
aVhttp://umbel.org/umbel/rc/River
p350
aVhttp://umbel.org/umbel/rc/Stream
p351
aVhttp://dbpedia.org/class/yago/BodyOfWater109225146
p352
aVhttp://dbpedia.org/class/yago/Branch109228324
p353
aVhttp://dbpedia.org/class/yago/CanadianHeritageRivers
p354
aVhttp://dbpedia.org/class/yago/River109411430
p355
aVhttp://dbpedia.org/class/yago/Stream109448361
p356
aVhttp://dbpedia.org/class/yago/Thing100002452
p357
aVhttp://dbpedia.org/class/yago/YagoGeoEntity
p358
aVhttp://dbpedia.org/class/yago/Feeder109278997
p359
aVhttp://dbpedia.org/class/yago/PhysicalEntity100001930
p360
aVhttp://dbpedia.org/class/yago/YagoPermanentlyLocatedEntity
p361
aVhttp://dbpedia.org/class/yago/RiversOfOntario
p362
aVhttp://dbpedia.org/class/yago/TributariesOfLakeHuron
p363
asVdisambiguatedURL
p364
Vhttp://dbpedia.org/resource/French_River_(Ontario)
p365
sVnamedEntity
p366
VFrench
p367
sVoffset
p368
I6
saa(lp369
(dp370
Vstart
p371
I0
sg5
(lp372
Vhttp://www.w3.org/2002/07/owl#Thing
p373
aVhttp://dbpedia.org/ontology/Place
p374
aVhttp://dbpedia.org/ontology/Location
p375
aVhttp://www.wikidata.org/entity/Q4022
p376
aVhttp://www.wikidata.org/entity/Q47521
p377
aVhttp://dbpedia.org/ontology/BodyOfWater
p378
aVhttp://dbpedia.org/ontology/NaturalPlace
p379
aVhttp://dbpedia.org/ontology/River
p380
aVhttp://dbpedia.org/ontology/Stream
p381
aVhttp://schema.org/BodyOfWater
p382
aVhttp://schema.org/Place
p383
aVhttp://schema.org/RiverBodyOfWater
p384
aVhttp://umbel.org/umbel/rc/BodyOfWater
p385
aVhttp://umbel.org/umbel/rc/River
p386
aVhttp://umbel.org/umbel/rc/Stream
p387
aVhttp://dbpedia.org/class/yago/BodyOfWater109225146
p388
aVhttp://dbpedia.org/class/yago/Branch109228324
p389
aVhttp://dbpedia.org/class/yago/CanadianHeritageRivers
p390
aVhttp://dbpedia.org/class/yago/River109411430
p391
aVhttp://dbpedia.org/class/yago/Stream109448361
p392
aVhttp://dbpedia.org/class/yago/Thing100002452
p393
aVhttp://dbpedia.org/class/yago/YagoGeoEntity
p394
aVhttp://dbpedia.org/class/yago/Feeder109278997
p395
aVhttp://dbpedia.org/class/yago/PhysicalEntity100001930
p396
aVhttp://dbpedia.org/class/yago/YagoPermanentlyLocatedEntity
p397
aVhttp://dbpedia.org/class/yago/RiversOfOntario
p398
aVhttp://dbpedia.org/class/yago/TributariesOfLakeHuron
p399
asVdisambiguatedURL
p400
Vhttp://dbpedia.org/resource/French_River_(Ontario)
p401
sVnamedEntity
p402
VFrench
p403
sVoffset
p404
I6
saa(lp405
(dp406
Vstart
p407
I0
sg5
(lp408
Vhttp://www.w3.org/2002/07/owl#Thing
p409
aVhttp://dbpedia.org/ontology/Place
p410
aVhttp://dbpedia.org/ontology/Location
p411
aVhttp://www.wikidata.org/entity/Q3957
p412
aVhttp://www.wikidata.org/entity/Q486972
p413
aVhttp://dbpedia.org/ontology/PopulatedPlace
p414
aVhttp://dbpedia.org/ontology/Settlement
p415
aVhttp://dbpedia.org/ontology/Town
p416
aVhttp://www.w3.org/2003/01/geo/wgs84_pos#SpatialThing
p417
aVhttp://schema.org/Place
p418
aVhttp://dbpedia.org/class/yago/AdministrativeDistrict108491826
p419
aVhttp://dbpedia.org/class/yago/District108552138
p420
aVhttp://dbpedia.org/class/yago/Location100027167
p421
aVhttp://dbpedia.org/class/yago/Object100002684
p422
aVhttp://dbpedia.org/class/yago/Region108630985
p423
aVhttp://dbpedia.org/class/yago/Town108665504
p424
aVhttp://dbpedia.org/class/yago/UrbanArea108675967
p425
aVhttp://dbpedia.org/class/yago/YagoGeoEntity
p426
aVhttp://dbpedia.org/class/yago/YagoLegalActorGeo
p427
aVhttp://dbpedia.org/class/yago/GeographicalArea108574314
p428
aVhttp://dbpedia.org/class/yago/Municipality108626283
p429
aVhttp://dbpedia.org/class/yago/PhysicalEntity100001930
p430
aVhttp://dbpedia.org/class/yago/YagoPermanentlyLocatedEntity
p431
aVhttp://dbpedia.org/class/yago/MunicipalitiesInAlgomaDistrict
p432
aVhttp://dbpedia.org/class/yago/TownsInOntario
p433
asVdisambiguatedURL
p434
Vhttp://dbpedia.org/resource/Spanish,_Ontario
p435
sVnamedEntity
p436
VSpanish
p437
sVoffset
p438
I7
saa(lp439
(dp440
Vstart
p441
I0
sg5
(lp442
Vhttp://www.w3.org/2002/07/owl#Thing
p443
aVhttp://dbpedia.org/ontology/Place
p444
aVhttp://dbpedia.org/ontology/Location
p445
aVhttp://www.wikidata.org/entity/Q3957
p446
aVhttp://www.wikidata.org/entity/Q486972
p447
aVhttp://dbpedia.org/ontology/PopulatedPlace
p448
aVhttp://dbpedia.org/ontology/Settlement
p449
aVhttp://dbpedia.org/ontology/Town
p450
aVhttp://www.w3.org/2003/01/geo/wgs84_pos#SpatialThing
p451
aVhttp://schema.org/Place
p452
aVhttp://dbpedia.org/class/yago/AdministrativeDistrict108491826
p453
aVhttp://dbpedia.org/class/yago/District108552138
p454
aVhttp://dbpedia.org/class/yago/Location100027167
p455
aVhttp://dbpedia.org/class/yago/Object100002684
p456
aVhttp://dbpedia.org/class/yago/Region108630985
p457
aVhttp://dbpedia.org/class/yago/Town108665504
p458
aVhttp://dbpedia.org/class/yago/UrbanArea108675967
p459
aVhttp://dbpedia.org/class/yago/YagoGeoEntity
p460
aVhttp://dbpedia.org/class/yago/YagoLegalActorGeo
p461
aVhttp://dbpedia.org/class/yago/GeographicalArea108574314
p462
aVhttp://dbpedia.org/class/yago/Municipality108626283
p463
aVhttp://dbpedia.org/class/yago/PhysicalEntity100001930
p464
aVhttp://dbpedia.org/class/yago/YagoPermanentlyLocatedEntity
p465
aVhttp://dbpedia.org/class/yago/MunicipalitiesInAlgomaDistrict
p466
aVhttp://dbpedia.org/class/yago/TownsInOntario
p467
asVdisambiguatedURL
p468
Vhttp://dbpedia.org/resource/Spanish,_Ontario
p469
sVnamedEntity
p470
VSpanish
p471
sVoffset
p472
I7
saa(lp473
(dp474
Vstart
p475
I0
sg5
(lp476
Vhttp://www.w3.org/2002/07/owl#Thing
p477
aVhttp://dbpedia.org/ontology/Place
p478
aVhttp://dbpedia.org/ontology/Location
p479
aVhttp://www.wikidata.org/entity/Q3957
p480
aVhttp://www.wikidata.org/entity/Q486972
p481
aVhttp://dbpedia.org/ontology/PopulatedPlace
p482
aVhttp://dbpedia.org/ontology/Settlement
p483
aVhttp://dbpedia.org/ontology/Town
p484
aVhttp://www.w3.org/2003/01/geo/wgs84_pos#SpatialThing
p485
aVhttp://schema.org/Place
p486
aVhttp://dbpedia.org/class/yago/AdministrativeDistrict108491826
p487
aVhttp://dbpedia.org/class/yago/District108552138
p488
aVhttp://dbpedia.org/class/yago/Location100027167
p489
aVhttp://dbpedia.org/class/yago/Object100002684
p490
aVhttp://dbpedia.org/class/yago/Region108630985
p491
aVhttp://dbpedia.org/class/yago/Town108665504
p492
aVhttp://dbpedia.org/class/yago/UrbanArea108675967
p493
aVhttp://dbpedia.org/class/yago/YagoGeoEntity
p494
aVhttp://dbpedia.org/class/yago/YagoLegalActorGeo
p495
aVhttp://dbpedia.org/class/yago/GeographicalArea108574314
p496
aVhttp://dbpedia.org/class/yago/Municipality108626283
p497
aVhttp://dbpedia.org/class/yago/PhysicalEntity100001930
p498
aVhttp://dbpedia.org/class/yago/YagoPermanentlyLocatedEntity
p499
aVhttp://dbpedia.org/class/yago/MunicipalitiesInAlgomaDistrict
p500
aVhttp://dbpedia.org/class/yago/TownsInOntario
p501
asVdisambiguatedURL
p502
Vhttp://dbpedia.org/resource/Spanish,_Ontario
p503
sVnamedEntity
p504
VSpanish
p505
sVoffset
p506
I7
saa(lp507
(dp508
Vstart
p509
I0
sg5
(lp510
Vhttp://www.w3.org/2002/07/owl#Thing
p511
aVhttp://dbpedia.org/ontology/Place
p512
aVhttp://dbpedia.org/ontology/Location
p513
aVhttp://www.wikidata.org/entity/Q3957
p514
aVhttp://www.wikidata.org/entity/Q486972
p515
aVhttp://dbpedia.org/ontology/PopulatedPlace
p516
aVhttp://dbpedia.org/ontology/Settlement
p517
aVhttp://dbpedia.org/ontology/Town
p518
aVhttp://www.w3.org/2003/01/geo/wgs84_pos#SpatialThing
p519
aVhttp://schema.org/Place
p520
aVhttp://dbpedia.org/class/yago/AdministrativeDistrict108491826
p521
aVhttp://dbpedia.org/class/yago/District108552138
p522
aVhttp://dbpedia.org/class/yago/Location100027167
p523
aVhttp://dbpedia.org/class/yago/Object100002684
p524
aVhttp://dbpedia.org/class/yago/Region108630985
p525
aVhttp://dbpedia.org/class/yago/Town108665504
p526
aVhttp://dbpedia.org/class/yago/UrbanArea108675967
p527
aVhttp://dbpedia.org/class/yago/YagoGeoEntity
p528
aVhttp://dbpedia.org/class/yago/YagoLegalActorGeo
p529
aVhttp://dbpedia.org/class/yago/GeographicalArea108574314
p530
aVhttp://dbpedia.org/class/yago/Municipality108626283
p531
aVhttp://dbpedia.org/class/yago/PhysicalEntity100001930
p532
aVhttp://dbpedia.org/class/yago/YagoPermanentlyLocatedEntity
p533
aVhttp://dbpedia.org/class/yago/MunicipalitiesInAlgomaDistrict
p534
aVhttp://dbpedia.org/class/yago/TownsInOntario
p535
asVdisambiguatedURL
p536
Vhttp://dbpedia.org/resource/Spanish,_Ontario
p537
sVnamedEntity
p538
VSpanish
p539
sVoffset
p540
I7
saa(lp541
(dp542
Vstart
p543
I0
sg5
(lp544
Vhttp://www.w3.org/2002/07/owl#Thing
p545
aVhttp://dbpedia.org/ontology/Place
p546
aVhttp://dbpedia.org/ontology/Location
p547
aVhttp://www.wikidata.org/entity/Q3957
p548
aVhttp://www.wikidata.org/entity/Q486972
p549
aVhttp://dbpedia.org/ontology/PopulatedPlace
p550
aVhttp://dbpedia.org/ontology/Settlement
p551
aVhttp://dbpedia.org/ontology/Town
p552
aVhttp://www.w3.org/2003/01/geo/wgs84_pos#SpatialThing
p553
aVhttp://schema.org/Place
p554
aVhttp://dbpedia.org/class/yago/AdministrativeDistrict108491826
p555
aVhttp://dbpedia.org/class/yago/District108552138
p556
aVhttp://dbpedia.org/class/yago/Location100027167
p557
aVhttp://dbpedia.org/class/yago/Object100002684
p558
aVhttp://dbpedia.org/class/yago/Region108630985
p559
aVhttp://dbpedia.org/class/yago/Town108665504
p560
aVhttp://dbpedia.org/class/yago/UrbanArea108675967
p561
aVhttp://dbpedia.org/class/yago/YagoGeoEntity
p562
aVhttp://dbpedia.org/class/yago/YagoLegalActorGeo
p563
aVhttp://dbpedia.org/class/yago/GeographicalArea108574314
p564
aVhttp://dbpedia.org/class/yago/Municipality108626283
p565
aVhttp://dbpedia.org/class/yago/PhysicalEntity100001930
p566
aVhttp://dbpedia.org/class/yago/YagoPermanentlyLocatedEntity
p567
aVhttp://dbpedia.org/class/yago/MunicipalitiesInAlgomaDistrict
p568
aVhttp://dbpedia.org/class/yago/TownsInOntario
p569
asVdisambiguatedURL
p570
Vhttp://dbpedia.org/resource/Spanish,_Ontario
p571
sVnamedEntity
p572
VSpanish
p573
sVoffset
p574
I7
saa.