(lp1
(lp2
(dp3
Vstart
p4
I0
sVdisambiguatedURL
p5
NsVnamedEntity
p6
Vaddress:
p7
sVoffset
p8
I8
saa(lp9
(dp10
Vstart
p11
I0
sVdisambiguatedURL
p12
NsVnamedEntity
p13
Vcity state:
p14
sVoffset
p15
I11
saa(lp16
(dp17
Vstart
p18
I0
sVdisambiguatedURL
p19
NsVnamedEntity
p20
Vzip / p.code:
p21
sVoffset
p22
I13
saa(lp23
(dp24
Vstart
p25
I0
sVdisambiguatedURL
p26
NsVnamedEntity
p27
Vtype:
p28
sVoffset
p29
I5
saa(lp30
(dp31
Vstart
p32
I0
sVdisambiguatedURL
p33
Vhttp://dbpedia.org/resource/Null
p34
sVnamedEntity
p35
VNULL
p36
sVoffset
p37
I4
saa(lp38
(dp39
Vstart
p40
I0
sVdisambiguatedURL
p41
Vhttp://dbpedia.org/resource/Null
p42
sVnamedEntity
p43
VNULL
p44
sVoffset
p45
I4
saa.