(lp1
(lp2
(lp3
a(lp4
a(lp5
Vhttp://dbpedia.org/resource/National_Women's_Day
p6
aa(lp7
a(lp8
a(lp9
Vhttp://dbpedia.org/resource/Surin_Elephant_Round-up
p10
aa(lp11
a(lp12
a(lp13
a(lp14
a(lp15
a(lp16
a(lp17
Vhttp://dbpedia.org/resource/Govinda_sport
p18
aa(lp19
a(lp20
Vhttp://dbpedia.org/resource/Laylat_al-Qadr
p21
aa(lp22
Vhttp://dbpedia.org/resource/March_26_Movement
p23
aa(lp24
a(lp25
a(lp26
aa.