(lp1
(lp2
(dp3
Vstart
p4
I0
sVdisambiguatedURL
p5
NsVnamedEntity
p6
V2. Optional Factory Custom Calibration C620 . with desired input and output ranges for 25-point linearization.
p7
sVoffset
p8
I110
saa(lp9
(dp10
Vstart
p11
I0
sVdisambiguatedURL
p12
NsVnamedEntity
p13
VQRail and other accessories (see Accessories list).
p14
sVoffset
p15
I65
saa(lp16
(dp17
Vstart
p18
I0
sVdisambiguatedURL
p19
Vhttp://dbpedia.org/resource/Accessory
p20
sVnamedEntity
p21
VAccessories
p22
sVoffset
p23
I11
saa(lp24
(dp25
Vstart
p26
I0
sVdisambiguatedURL
p27
NsVnamedEntity
p28
V?
sVoffset
p29
I1
saa(lp30
(dp31
Vstart
p32
I0
sVdisambiguatedURL
p33
NsVnamedEntity
p34
V?
sVoffset
p35
I1
saa(lp36
(dp37
Vstart
p38
I0
sVdisambiguatedURL
p39
NsVnamedEntity
p40
V?
sVoffset
p41
I1
saa(lp42
(dp43
Vstart
p44
I0
sVdisambiguatedURL
p45
NsVnamedEntity
p46
V?
sVoffset
p47
I1
saa(lp48
(dp49
Vstart
p50
I0
sVdisambiguatedURL
p51
NsVnamedEntity
p52
V?
sVoffset
p53
I1
saa(lp54
(dp55
Vstart
p56
I0
sVdisambiguatedURL
p57
NsVnamedEntity
p58
V?
sVoffset
p59
I1
saa(lp60
(dp61
Vstart
p62
I0
sVdisambiguatedURL
p63
NsVnamedEntity
p64
V?
sVoffset
p65
I1
saa(lp66
(dp67
Vstart
p68
I0
sVdisambiguatedURL
p69
NsVnamedEntity
p70
V?
sVoffset
p71
I1
saa(lp72
(dp73
Vstart
p74
I0
sVdisambiguatedURL
p75
NsVnamedEntity
p76
V?
sVoffset
p77
I1
saa.