ccollections
defaultdict
p1
(c__builtin__
dict
p2
tRp3
I1
(dp4
I0
(lp5
Vhttp://dbpedia.org/ontology/abstract
p6
aVhttp://dbpedia.org/property/venue
p7
aVhttp://dbpedia.org/property/location
p8
aVhttp://dbpedia.org/property/city
p9
aVhttp://dbpedia.org/property/date
p10
aVhttp://dbpedia.org/ontology/city
p11
aVhttp://dbpedia.org/property/stadium
p12
asI2
(lp13
sI3
(lp14
Vhttp://dbpedia.org/ontology/birthPlace
p15
aVhttp://dbpedia.org/property/location
p16
aVhttp://dbpedia.org/property/stadium
p17
asI4
(lp18
sI5
(lp19
Vhttp://dbpedia.org/property/location
p20
aVhttp://dbpedia.org/property/stadium
p21
asI6
(lp22
ss.