(lp1
(lp2
(lp3
a(lp4
a(lp5
a(lp6
a(lp7
a(lp8
aa(lp9
(lp10
a(lp11
a(lp12
a(lp13
a(lp14
a(lp15
aa(lp16
(lp17
a(lp18
a(lp19
a(lp20
a(lp21
a(lp22
aa(lp23
(lp24
Vhttp://dbpedia.org/resource/Baptist_Hospital_(Pensacola)
p25
aa(lp26
a(lp27
a(lp28
a(lp29
a(lp30
aa(lp31
(lp32
Vhttp://dbpedia.org/resource/Baptist_Hospital_of_Miami
p33
aa(lp34
a(lp35
a(lp36
a(lp37
a(lp38
aa(lp39
(lp40
a(lp41
Vhttp://dbpedia.org/resource/Jacksonville_Beach,_Florida
p42
aa(lp43
a(lp44
a(lp45
a(lp46
aa(lp47
(lp48
a(lp49
Vhttp://dbpedia.org/resource/Jacksonville,_Florida
p50
aa(lp51
a(lp52
a(lp53
a(lp54
aa(lp55
(lp56
a(lp57
Vhttp://dbpedia.org/resource/Fernandina_Beach,_Florida
p58
aa(lp59
a(lp60
a(lp61
a(lp62
aa(lp63
(lp64
a(lp65
Vhttp://dbpedia.org/resource/Jacksonville,_Florida
p66
aa(lp67
a(lp68
a(lp69
a(lp70
aa(lp71
(lp72
Vhttp://dbpedia.org/resource/Bartow_Regional_Medical_Center
p73
aa(lp74
a(lp75
a(lp76
a(lp77
a(lp78
aa(lp79
(lp80
Vhttp://dbpedia.org/resource/Bascom_Palmer_Eye_Institute
p81
aa(lp82
a(lp83
a(lp84
a(lp85
a(lp86
aa(lp87
(lp88
a(lp89
Vhttp://dbpedia.org/resource/Panama_City
p90
aa(lp91
a(lp92
a(lp93
a(lp94
aa(lp95
(lp96
a(lp97
a(lp98
a(lp99
a(lp100
a(lp101
aa(lp102
(lp103
Vhttp://dbpedia.org/resource/Bayfront_Health_St._Petersburg
p104
aa(lp105
Vhttp://dbpedia.org/resource/Saint_Petersburg
p106
aa(lp107
a(lp108
a(lp109
a(lp110
aa(lp111
(lp112
a(lp113
a(lp114
a(lp115
a(lp116
a(lp117
aa(lp118
(lp119
a(lp120
a(lp121
a(lp122
a(lp123
a(lp124
aa(lp125
(lp126
a(lp127
a(lp128
a(lp129
a(lp130
a(lp131
aa(lp132
(lp133
Vhttp://dbpedia.org/resource/Boca_Raton_Regional_Hospital
p134
aa(lp135
a(lp136
a(lp137
a(lp138
a(lp139
aa(lp140
(lp141
a(lp142
a(lp143
a(lp144
a(lp145
a(lp146
aa(lp147
(lp148
a(lp149
Vhttp://dbpedia.org/resource/Brooksville,_Florida
p150
aa(lp151
a(lp152
a(lp153
a(lp154
aa.