(lp1
(lp2
(lp3
a(lp4
aa(lp5
(lp6
((lp7
Vhttp://www.w3.org/2002/07/owl#Thing
p8
aVhttp://xmlns.com/foaf/0.1/Person
p9
aVhttp://dbpedia.org/ontology/Person
p10
aVhttp://www.ontologydesignpatterns.org/ont/dul/DUL.owl#Agent
p11
aVhttp://www.ontologydesignpatterns.org/ont/dul/DUL.owl#NaturalPerson
p12
aVhttp://www.wikidata.org/entity/Q215627
p13
aVhttp://www.wikidata.org/entity/Q36180
p14
aVhttp://www.wikidata.org/entity/Q483501
p15
aVhttp://www.wikidata.org/entity/Q5
p16
aVhttp://dbpedia.org/ontology/Agent
p17
aVhttp://dbpedia.org/ontology/Artist
p18
aVhttp://dbpedia.org/ontology/Writer
p19
aVhttp://schema.org/Person
p20
aVhttp://dbpedia.org/class/yago/AmericanEditors
p21
aVhttp://dbpedia.org/class/yago/AmericanPoets
p22
aVhttp://dbpedia.org/class/yago/CausalAgent100007347
p23
aVhttp://dbpedia.org/class/yago/Communicator109610660
p24
aVhttp://dbpedia.org/class/yago/Editor110044879
p25
aVhttp://dbpedia.org/class/yago/LivingThing100004258
p26
aVhttp://dbpedia.org/class/yago/Object100002684
p27
aVhttp://dbpedia.org/class/yago/Organism100004475
p28
aVhttp://dbpedia.org/class/yago/Person100007846
p29
aVhttp://dbpedia.org/class/yago/Poet110444194
p30
aVhttp://dbpedia.org/class/yago/SkilledWorker110605985
p31
aVhttp://dbpedia.org/class/yago/Whole100003553
p32
aVhttp://dbpedia.org/class/yago/Worker109632518
p33
aVhttp://dbpedia.org/class/yago/Writer110794014
p34
aVhttp://dbpedia.org/class/yago/YagoLegalActorGeo
p35
aVhttp://dbpedia.org/class/yago/PhysicalEntity100001930
p36
aVhttp://dbpedia.org/class/yago/LivingPeople
p37
aVhttp://dbpedia.org/class/yago/PeopleFromGallipolis,Ohio
p38
aVhttp://dbpedia.org/class/yago/YagoLegalActor
p39
aVhttp://dbpedia.org/resource/Rod_Smith_(poet)
tp40
aa(lp41
aa(lp42
(lp43
a(lp44
aa(lp45
(lp46
((lVhttp://dbpedia.org/resource/Release
p47
tp48
aa(lp49
aa.