(lp1
(lp2
(lp3
a(lp4
a(lp5
aa(lp6
(lp7
a(lp8
a(lp9
aa(lp10
(lp11
a(lp12
a(lp13
aa(lp14
(lp15
a(lp16
a(lp17
aa(lp18
(lp19
a(lp20
a(lp21
aa(lp22
(lp23
a(lp24
Vhttp://dbpedia.org/resource/Driver's_license
p25
aa(lp26
aa(lp27
(lp28
a(lp29
a(lp30
aa(lp31
(lp32
Vhttp://dbpedia.org/resource/Vehicle_insurance
p33
aa(lp34
a(lp35
aa(lp36
(lp37
a(lp38
a(lp39
aa(lp40
(lp41
a(lp42
a(lp43
aa.