(lp1
(lp2
(dp3
Vstart
p4
I0
sVdisambiguatedURL
p5
NsVnamedEntity
p6
Vabies alba (european silver-fir)
p7
sVoffset
p8
I32
saa(lp9
(dp10
Vstart
p11
I0
sVdisambiguatedURL
p12
NsVnamedEntity
p13
Vabies grandis (giant fir)
p14
sVoffset
p15
I25
saa(lp16
(dp17
Vstart
p18
I0
sVdisambiguatedURL
p19
NsVnamedEntity
p20
Vacer campestre (field maple)
p21
sVoffset
p22
I28
saa(lp23
(dp24
Vstart
p25
I0
sVdisambiguatedURL
p26
NsVnamedEntity
p27
Vacer platanoides (norway maple)
p28
sVoffset
p29
I31
saa(lp30
(dp31
Vstart
p32
I0
sVdisambiguatedURL
p33
NsVnamedEntity
p34
Vacer pseudoplatanus (sycamore)
p35
sVoffset
p36
I30
saa(lp37
(dp38
Vstart
p39
I0
sVdisambiguatedURL
p40
NsVnamedEntity
p41
Vachillea millefolium (yarrow)
p42
sVoffset
p43
I29
saa(lp44
(dp45
Vstart
p46
I0
sVdisambiguatedURL
p47
NsVnamedEntity
p48
Vachillea ptarmica (sneezewort)
p49
sVoffset
p50
I30
saa(lp51
(dp52
Vstart
p53
I0
sVdisambiguatedURL
p54
NsVnamedEntity
p55
Vaconitum napellus sens. lat. (monk's-hood)
p56
sVoffset
p57
I42
saa(lp58
(dp59
Vstart
p60
I0
sVdisambiguatedURL
p61
NsVnamedEntity
p62
Vadonis annua (pheasant's-eye)
p63
sVoffset
p64
I29
saa(lp65
(dp66
Vstart
p67
I0
sVdisambiguatedURL
p68
NsVnamedEntity
p69
Vadoxa moschatellina (moschatel)
p70
sVoffset
p71
I31
saa(lp72
(dp73
Vstart
p74
I0
sVdisambiguatedURL
p75
NsVnamedEntity
p76
Vaegopodium podagraria (ground-elder)
p77
sVoffset
p78
I36
saa(lp79
(dp80
Vstart
p81
I0
sVdisambiguatedURL
p82
NsVnamedEntity
p83
Vaesculus carnea (red horse-chestnut)
p84
sVoffset
p85
I36
saa(lp86
(dp87
Vstart
p88
I0
sVdisambiguatedURL
p89
NsVnamedEntity
p90
Vaesculus hippocastanum (horse-chestnut)
p91
sVoffset
p92
I39
saa(lp93
(dp94
Vstart
p95
I0
sVdisambiguatedURL
p96
NsVnamedEntity
p97
Vaethusa cynapium (fool's parsley)
p98
sVoffset
p99
I33
saa(lp100
(dp101
Vstart
p102
I0
sVdisambiguatedURL
p103
NsVnamedEntity
p104
Vagrimonia eupatoria (agrimony)
p105
sVoffset
p106
I30
saa(lp107
(dp108
Vstart
p109
I0
sVdisambiguatedURL
p110
NsVnamedEntity
p111
Vagrostemma githago (corncockle)
p112
sVoffset
p113
I31
saa(lp114
(dp115
Vstart
p116
I0
sVdisambiguatedURL
p117
NsVnamedEntity
p118
Vagrostis canina (velvet bent)
p119
sVoffset
p120
I29
saa(lp121
(dp122
Vstart
p123
I0
sVdisambiguatedURL
p124
NsVnamedEntity
p125
Vagrostis capillaris (common bent)
p126
sVoffset
p127
I33
saa(lp128
(dp129
Vstart
p130
I0
sVdisambiguatedURL
p131
NsVnamedEntity
p132
Vagrostis gigantea (black bent)
p133
sVoffset
p134
I30
saa(lp135
(dp136
Vstart
p137
I0
sVdisambiguatedURL
p138
NsVnamedEntity
p139
Vagrostis stolonifera (creeping bent)
p140
sVoffset
p141
I36
saa.