(lp1
(lp2
(lp3
a(lp4
a(lp5
a(lp6
a(lp7
a(lp8
a(lp9
a(lp10
aa(lp11
(lp12
a(lp13
a(lp14
a(lp15
a(lp16
a(lp17
a(lp18
a(lp19
aa(lp20
(lp21
a(lp22
a(lp23
a(lp24
a(lp25
a(lp26
a(lp27
a(lp28
aa(lp29
(lp30
a(lp31
a(lp32
a(lp33
a(lp34
a(lp35
a(lp36
a(lp37
aa(lp38
(lp39
((lp40
Vhttp://www.w3.org/2002/07/owl#Thing
p41
aVhttp://umbel.org/umbel/rc/Animal
p42
aVhttp://umbel.org/umbel/rc/BiologicalLivingObject
p43
aVhttp://umbel.org/umbel/rc/EukaryoticCell
p44
aVhttp://umbel.org/umbel/rc/Mammal
p45
aVhttp://dbpedia.org/class/yago/Abstraction100002137
p46
aVhttp://dbpedia.org/class/yago/Communication100033020
p47
aVhttp://dbpedia.org/class/yago/Signal106791372
p48
aVhttp://dbpedia.org/class/yago/Symbol106806469
p49
aVhttp://dbpedia.org/class/yago/NationalSymbolsOfC%C3%B4teD'Ivoire
p50
aVhttp://dbpedia.org/class/yago/NationalSymbolsOfGuinea
p51
aVhttp://dbpedia.org/class/yago/NationalSymbolsOfSwaziland
p52
aVhttp://dbpedia.org/class/yago/NationalSymbolsOfTheCentralAfricanRepublic
p53
aVhttp://dbpedia.org/class/yago/NationalSymbolsOfTheRepublicOfTheCongo
p54
aVhttp://dbpedia.org/resource/African_elephant
p55
tp56
aa(lp57
a(lp58
a(lp59
a(lp60
a(lp61
a(lp62
a(lp63
aa(lp64
(lp65
a(lp66
a(lp67
a(lp68
a(lp69
a(lp70
a(lp71
a(lp72
aa(lp73
(lp74
a(lp75
a(lp76
a(lp77
a(lp78
a(lp79
a(lp80
a(lp81
aa.