(lp1
(lp2
(lp3
a(lp4
a(lp5
a(lp6
a(lp7
a(lp8
aa(lp9
(lp10
a(lp11
a(lp12
a(lp13
a(lp14
a(lp15
aa(lp16
(lp17
((lp18
Vhttp://dbpedia.org/class/yago/Abstraction100002137
p19
aVhttp://dbpedia.org/class/yago/Group100031264
p20
aVhttp://dbpedia.org/class/yago/PoliticalPartyYouthGroupsInNorthernIreland
p21
aVhttp://dbpedia.org/resource/SDLP_Youth
p22
tp23
aa(lp24
a(lp25
a(lp26
a(lp27
a(lp28
aa(lp29
(lp30
a(lp31
a(lp32
a(lp33
a(lp34
a(lp35
aa(lp36
(lp37
a(lp38
a(lp39
a(lp40
a(lp41
a(lp42
aa(lp43
(lp44
a(lp45
a(lp46
a(lp47
a(lp48
a(lp49
aa(lp50
(lp51
a(lp52
a(lp53
a(lp54
a(lp55
a(lp56
aa(lp57
(lp58
a(lp59
a(lp60
a(lp61
a(lp62
a(lp63
aa(lp64
(lp65
a(lp66
a(lp67
a(lp68
a(lp69
a(lp70
aa(lp71
(lp72
a(lp73
a(lp74
a(lp75
a(lp76
a(lp77
aa(lp78
(lp79
a(lp80
a(lp81
a(lp82
a(lp83
a(lp84
aa(lp85
(lp86
a(lp87
a(lp88
a(lp89
a(lp90
a(lp91
aa(lp92
(lp93
a(lp94
a(lp95
a(lp96
a(lp97
a(lp98
aa(lp99
(lp100
a(lp101
a(lp102
a(lp103
a(lp104
a(lp105
aa(lp106
(lp107
a(lp108
a(lp109
a(lp110
a(lp111
a(lp112
aa(lp113
(lp114
a(lp115
a(lp116
a(lp117
a(lp118
a(lp119
aa(lp120
(lp121
a(lp122
a(lp123
a(lp124
a(lp125
a(lp126
aa(lp127
(lp128
a(lp129
a(lp130
a(lp131
a(lp132
a(lp133
aa(lp134
(lp135
a(lp136
a(lp137
a(lp138
a(lp139
a(lp140
aa(lp141
(lp142
a(lp143
a(lp144
a(lp145
a(lp146
a(lp147
aa.