ccollections
defaultdict
p1
(c__builtin__
dict
p2
tRp3
I0
(dp4
I1
(lp5
Vhttp://dbpedia.org/property/origin
p6
aVhttp://dbpedia.org/property/placeOfDeath
p7
aVhttp://dbpedia.org/property/awardedBy
p8
aVhttp://dbpedia.org/property/cctld
p9
aVhttp://dbpedia.org/property/locations
p10
aVhttp://dbpedia.org/property/city
p11
aVhttp://dbpedia.org/ontology/garrison
p12
aVhttp://dbpedia.org/ontology/knownFor
p13
aVhttp://dbpedia.org/property/homeTown
p14
aVhttp://www.w3.org/ns/prov#wasDerivedFrom
p15
aVhttp://dbpedia.org/ontology/fastestDriverCountry
p16
aVhttp://dbpedia.org/property/territory
p17
aVhttp://dbpedia.org/ontology/demonym
p18
aVhttp://dbpedia.org/property/possessions
p19
aVhttp://dbpedia.org/ontology/regionServed
p20
aVhttp://dbpedia.org/property/usingCountries
p21
aVhttp://dbpedia.org/property/parentAgency
p22
aVhttp://dbpedia.org/property/broadcastArea
p23
aVhttp://dbpedia.org/property/assembly
p24
aVhttp://dbpedia.org/ontology/nationality
p25
aVhttp://xmlns.com/foaf/0.1/isPrimaryTopicOf
p26
aVhttp://dbpedia.org/property/hometown
p27
aVhttp://dbpedia.org/property/meetingPlace
p28
aVhttp://dbpedia.org/property/establishedEvent
p29
aVhttp://dbpedia.org/ontology/residence
p30
aVhttp://dbpedia.org/ontology/abstract
p31
aVhttp://dbpedia.org/ontology/recordedIn
p32
aVhttp://dbpedia.org/property/venue
p33
aVhttp://dbpedia.org/property/broadcastAreas
p34
aVhttp://dbpedia.org/property/shipLaidDown
p35
aVhttp://dbpedia.org/property/usedBy
p36
aVhttp://dbpedia.org/property/nationalOrigin
p37
aVhttp://dbpedia.org/ontology/state
p38
aVhttp://dbpedia.org/property/shipBuilder
p39
aVhttp://dbpedia.org/ontology/location
p40
aVhttp://dbpedia.org/property/area
p41
aVhttp://dbpedia.org/ontology/hometown
p42
aVhttp://dbpedia.org/property/bankOf
p43
aVhttp://dbpedia.org/ontology/spokenIn
p44
aVhttp://dbpedia.org/property/jurisdiction
p45
aVhttp://dbpedia.org/property/leaderTitle
p46
aVhttp://www.w3.org/2000/01/rdf-schema#seeAlso
p47
aVhttp://dbpedia.org/property/currency
p48
aVhttp://dbpedia.org/property/conventionalLongName
p49
aVhttp://dbpedia.org/ontology/foundationPlace
p50
aVhttp://dbpedia.org/ontology/poleDriverCountry
p51
aVhttp://dbpedia.org/property/legislature
p52
aVhttp://dbpedia.org/ontology/locatedInArea
p53
aVhttp://dbpedia.org/property/site
p54
aVhttp://dbpedia.org/ontology/country
p55
aVhttp://dbpedia.org/property/region
p56
aVhttp://dbpedia.org/property/nationalAnthem
p57
aVhttp://dbpedia.org/property/birthPlace
p58
aVhttp://dbpedia.org/property/country/region
p59
aVhttp://dbpedia.org/property/origins
p60
aVhttp://dbpedia.org/property/country
p61
aVhttp://dbpedia.org/property/winnerOrigin
p62
aVhttp://dbpedia.org/property/areaServed
p63
aVhttp://dbpedia.org/ontology/wikiPageExternalLink
p64
aVhttp://xmlns.com/foaf/0.1/primaryTopic
p65
aVhttp://dbpedia.org/ontology/firstDriverCountry
p66
aVhttp://dbpedia.org/property/location
p67
aVhttp://dbpedia.org/property/states
p68
aVhttp://dbpedia.org/ontology/division
p69
aVhttp://dbpedia.org/ontology/locationCountry
p70
aVhttp://dbpedia.org/ontology/deathPlace
p71
aVhttp://dbpedia.org/property/hasPhotoCollection
p72
aVhttp://dbpedia.org/ontology/territory
p73
aVhttp://dbpedia.org/property/headquarters
p74
aVhttp://dbpedia.org/property/countryName
p75
aVhttp://dbpedia.org/ontology/anthem
p76
aVhttp://dbpedia.org/ontology/birthPlace
p77
aVhttp://dbpedia.org/ontology/wikiPageRedirects
p78
aVhttp://dbpedia.org/property/citizenship
p79
aVhttp://dbpedia.org/ontology/stateOfOrigin
p80
aVhttp://www.w3.org/2002/07/owl#sameAs
p81
aVhttp://dbpedia.org/property/timeZoneDst
p82
aVhttp://dbpedia.org/ontology/origin
p83
aVhttp://dbpedia.org/ontology/currency
p84
aVhttp://dbpedia.org/property/imageCaption
p85
aVhttp://dbpedia.org/property/residence
p86
aVhttp://dbpedia.org/ontology/longName
p87
aVhttp://dbpedia.org/property/homecountry
p88
aVhttp://dbpedia.org/property/timeZone
p89
aVhttp://dbpedia.org/property/locationCountry
p90
aVhttp://dbpedia.org/ontology/secondDriverCountry
p91
aVhttp://dbpedia.org/property/data
p92
aVhttp://dbpedia.org/property/lowerHouse
p93
aVhttp://dbpedia.org/ontology/language
p94
aVhttp://dbpedia.org/property/locationSigned
p95
aVhttp://dbpedia.org/property/owner
p96
aVhttp://dbpedia.org/property/namedAfter
p97
aVhttp://dbpedia.org/property/title
p98
aVhttp://dbpedia.org/property/placeOfBirth
p99
aVhttp://dbpedia.org/property/foundedDate
p100
aVhttp://xmlns.com/foaf/0.1/depiction
p101
aVhttp://dbpedia.org/ontology/usingCountry
p102
aVhttp://dbpedia.org/property/fightingOutOf
p103
aVhttp://dbpedia.org/ontology/thumbnail
p104
aVhttp://dbpedia.org/ontology/city
p105
aVhttp://dbpedia.org/ontology/flag
p106
aVhttp://dbpedia.org/property/languages
p107
aVhttp://dbpedia.org/property/hqLocationCountry
p108
aVhttp://dbpedia.org/property/locationCity
p109
aVhttp://dbpedia.org/property/imageFlag
p110
aVhttp://dbpedia.org/property/fedgov
p111
aVhttp://dbpedia.org/property/place
p112
aVhttp://dbpedia.org/ontology/citizenship
p113
aVhttp://dbpedia.org/property/currentResidence
p114
aVhttp://dbpedia.org/ontology/jurisdiction
p115
aVhttp://dbpedia.org/property/caption
p116
aVhttp://dbpedia.org/ontology/thirdDriverCountry
p117
aVhttp://www.w3.org/2002/07/owl#differentFrom
p118
aVhttp://dbpedia.org/property/team
p119
aVhttp://dbpedia.org/property/upperHouse
p120
aVhttp://dbpedia.org/property/allegiance
p121
aVhttp://dbpedia.org/ontology/place
p122
aVhttp://dbpedia.org/property/office
p123
aVhttp://dbpedia.org/property/nationality
p124
aVhttp://dbpedia.org/property/foundedPlace
p125
aVhttp://dbpedia.org/property/callingCode
p126
aVhttp://dbpedia.org/ontology/wikiPageDisambiguates
p127
aVhttp://purl.org/dc/terms/subject
p128
aVhttp://dbpedia.org/ontology/populationPlace
p129
aVhttp://dbpedia.org/property/state
p130
aVhttp://dbpedia.org/property/deathPlace
p131
aVhttp://dbpedia.org/ontology/service
p132
aVhttp://dbpedia.org/property/cityServed
p133
aVhttp://dbpedia.org/ontology/headquarter
p134
aVhttp://dbpedia.org/property/foundation
p135
aVhttp://dbpedia.org/ontology/sourceCountry
p136
aVhttp://dbpedia.org/ontology/broadcastArea
p137
aVhttp://dbpedia.org/property/locale
p138
aVhttp://dbpedia.org/property/basinCountries
p139
aVhttp://dbpedia.org/property/garrison
p140
aVhttp://dbpedia.org/ontology/assembly
p141
aVhttp://www.w3.org/2000/01/rdf-schema#comment
p142
aVhttp://dbpedia.org/ontology/timeZone
p143
aVhttp://dbpedia.org/property/demonym
p144
aVhttp://dbpedia.org/property/regionServed
p145
aVhttp://dbpedia.org/ontology/builder
p146
aVhttp://dbpedia.org/ontology/locationCity
p147
aVhttp://dbpedia.org/property/observedby
p148
asI2
(lp149
Vhttp://dbpedia.org/property/origin
p150
aVhttp://dbpedia.org/ontology/country
p151
aVhttp://dbpedia.org/property/currencyCode
p152
aVhttp://dbpedia.org/property/shipBuilder
p153
aVhttp://dbpedia.org/ontology/hometown
p154
aVhttp://dbpedia.org/ontology/birthPlace
p155
aVhttp://dbpedia.org/property/birthPlace
p156
aVhttp://dbpedia.org/property/deathPlace
p157
aVhttp://dbpedia.org/ontology/nationality
p158
aVhttp://dbpedia.org/ontology/builder
p159
aVhttp://dbpedia.org/ontology/deathPlace
p160
aVhttp://dbpedia.org/property/placeOfDeath
p161
aVhttp://dbpedia.org/property/placeOfBirth
p162
asI3
(lp163
Vhttp://dbpedia.org/property/origin
p164
aVhttp://dbpedia.org/property/placeOfDeath
p165
aVhttp://dbpedia.org/property/awardedBy
p166
aVhttp://dbpedia.org/property/cctld
p167
aVhttp://dbpedia.org/property/locations
p168
aVhttp://dbpedia.org/property/city
p169
aVhttp://dbpedia.org/ontology/garrison
p170
aVhttp://dbpedia.org/ontology/knownFor
p171
aVhttp://dbpedia.org/property/homeTown
p172
aVhttp://www.w3.org/ns/prov#wasDerivedFrom
p173
aVhttp://dbpedia.org/ontology/fastestDriverCountry
p174
aVhttp://dbpedia.org/property/territory
p175
aVhttp://dbpedia.org/ontology/demonym
p176
aVhttp://dbpedia.org/property/possessions
p177
aVhttp://dbpedia.org/ontology/regionServed
p178
aVhttp://dbpedia.org/property/usingCountries
p179
aVhttp://dbpedia.org/property/parentAgency
p180
aVhttp://dbpedia.org/property/broadcastArea
p181
aVhttp://dbpedia.org/property/assembly
p182
aVhttp://dbpedia.org/ontology/nationality
p183
aVhttp://xmlns.com/foaf/0.1/isPrimaryTopicOf
p184
aVhttp://dbpedia.org/property/hometown
p185
aVhttp://dbpedia.org/property/meetingPlace
p186
aVhttp://dbpedia.org/property/establishedEvent
p187
aVhttp://dbpedia.org/ontology/residence
p188
aVhttp://dbpedia.org/ontology/abstract
p189
aVhttp://dbpedia.org/ontology/recordedIn
p190
aVhttp://dbpedia.org/property/venue
p191
aVhttp://dbpedia.org/property/broadcastAreas
p192
aVhttp://dbpedia.org/property/shipLaidDown
p193
aVhttp://dbpedia.org/property/usedBy
p194
aVhttp://dbpedia.org/property/nationalOrigin
p195
aVhttp://dbpedia.org/ontology/state
p196
aVhttp://dbpedia.org/property/imageMap
p197
aVhttp://dbpedia.org/property/shipBuilder
p198
aVhttp://dbpedia.org/ontology/location
p199
aVhttp://dbpedia.org/property/area
p200
aVhttp://dbpedia.org/ontology/hometown
p201
aVhttp://dbpedia.org/property/bankOf
p202
aVhttp://dbpedia.org/ontology/spokenIn
p203
aVhttp://dbpedia.org/property/jurisdiction
p204
aVhttp://dbpedia.org/property/leaderTitle
p205
aVhttp://www.w3.org/2000/01/rdf-schema#seeAlso
p206
aVhttp://dbpedia.org/property/currency
p207
aVhttp://dbpedia.org/property/conventionalLongName
p208
aVhttp://dbpedia.org/ontology/foundationPlace
p209
aVhttp://dbpedia.org/ontology/poleDriverCountry
p210
aVhttp://dbpedia.org/property/legislature
p211
aVhttp://dbpedia.org/ontology/locatedInArea
p212
aVhttp://dbpedia.org/property/site
p213
aVhttp://dbpedia.org/ontology/country
p214
aVhttp://dbpedia.org/property/region
p215
aVhttp://dbpedia.org/property/nationalAnthem
p216
aVhttp://dbpedia.org/property/birthPlace
p217
aVhttp://dbpedia.org/property/country/region
p218
aVhttp://dbpedia.org/property/origins
p219
aVhttp://dbpedia.org/property/country
p220
aVhttp://dbpedia.org/property/winnerOrigin
p221
aVhttp://dbpedia.org/property/areaServed
p222
aVhttp://dbpedia.org/ontology/wikiPageExternalLink
p223
aVhttp://xmlns.com/foaf/0.1/primaryTopic
p224
aVhttp://dbpedia.org/ontology/firstDriverCountry
p225
aVhttp://dbpedia.org/property/location
p226
aVhttp://dbpedia.org/property/states
p227
aVhttp://dbpedia.org/ontology/division
p228
aVhttp://dbpedia.org/ontology/locationCountry
p229
aVhttp://dbpedia.org/ontology/deathPlace
p230
aVhttp://dbpedia.org/property/hasPhotoCollection
p231
aVhttp://dbpedia.org/ontology/territory
p232
aVhttp://dbpedia.org/property/headquarters
p233
aVhttp://dbpedia.org/property/countryName
p234
aVhttp://dbpedia.org/ontology/anthem
p235
aVhttp://dbpedia.org/ontology/birthPlace
p236
aVhttp://dbpedia.org/ontology/wikiPageRedirects
p237
aVhttp://dbpedia.org/property/citizenship
p238
aVhttp://dbpedia.org/property/imageCoat
p239
aVhttp://dbpedia.org/ontology/stateOfOrigin
p240
aVhttp://www.w3.org/2002/07/owl#sameAs
p241
aVhttp://dbpedia.org/property/timeZoneDst
p242
aVhttp://dbpedia.org/ontology/origin
p243
aVhttp://dbpedia.org/ontology/currency
p244
aVhttp://dbpedia.org/property/imageCaption
p245
aVhttp://dbpedia.org/property/residence
p246
aVhttp://dbpedia.org/ontology/longName
p247
aVhttp://dbpedia.org/property/homecountry
p248
aVhttp://dbpedia.org/property/timeZone
p249
aVhttp://dbpedia.org/property/locationCountry
p250
aVhttp://dbpedia.org/ontology/secondDriverCountry
p251
aVhttp://dbpedia.org/property/data
p252
aVhttp://dbpedia.org/property/lowerHouse
p253
aVhttp://dbpedia.org/ontology/language
p254
aVhttp://dbpedia.org/property/locationSigned
p255
aVhttp://dbpedia.org/property/owner
p256
aVhttp://dbpedia.org/property/namedAfter
p257
aVhttp://dbpedia.org/property/title
p258
aVhttp://dbpedia.org/property/placeOfBirth
p259
aVhttp://dbpedia.org/property/foundedDate
p260
aVhttp://xmlns.com/foaf/0.1/depiction
p261
aVhttp://dbpedia.org/ontology/usingCountry
p262
aVhttp://dbpedia.org/property/fightingOutOf
p263
aVhttp://dbpedia.org/ontology/thumbnail
p264
aVhttp://dbpedia.org/ontology/city
p265
aVhttp://dbpedia.org/ontology/flag
p266
aVhttp://dbpedia.org/property/commonName
p267
aVhttp://dbpedia.org/property/languages
p268
aVhttp://dbpedia.org/property/hqLocationCountry
p269
aVhttp://dbpedia.org/property/locationCity
p270
aVhttp://dbpedia.org/property/imageFlag
p271
aVhttp://dbpedia.org/property/fedgov
p272
aVhttp://dbpedia.org/property/place
p273
aVhttp://dbpedia.org/ontology/citizenship
p274
aVhttp://dbpedia.org/property/currentResidence
p275
aVhttp://dbpedia.org/ontology/jurisdiction
p276
aVhttp://dbpedia.org/property/caption
p277
aVhttp://dbpedia.org/ontology/thirdDriverCountry
p278
aVhttp://www.w3.org/2002/07/owl#differentFrom
p279
aVhttp://dbpedia.org/property/team
p280
aVhttp://dbpedia.org/property/upperHouse
p281
aVhttp://dbpedia.org/property/allegiance
p282
aVhttp://dbpedia.org/ontology/place
p283
aVhttp://dbpedia.org/property/office
p284
aVhttp://dbpedia.org/property/nationality
p285
aVhttp://dbpedia.org/property/foundedPlace
p286
aVhttp://dbpedia.org/property/callingCode
p287
aVhttp://dbpedia.org/ontology/wikiPageDisambiguates
p288
aVhttp://purl.org/dc/terms/subject
p289
aVhttp://dbpedia.org/ontology/populationPlace
p290
aVhttp://dbpedia.org/property/state
p291
aVhttp://dbpedia.org/property/deathPlace
p292
aVhttp://dbpedia.org/ontology/service
p293
aVhttp://dbpedia.org/property/cityServed
p294
aVhttp://xmlns.com/foaf/0.1/name
p295
aVhttp://dbpedia.org/ontology/headquarter
p296
aVhttp://dbpedia.org/property/foundation
p297
aVhttp://www.w3.org/2000/01/rdf-schema#label
p298
aVhttp://dbpedia.org/ontology/sourceCountry
p299
aVhttp://dbpedia.org/ontology/broadcastArea
p300
aVhttp://dbpedia.org/property/locale
p301
aVhttp://dbpedia.org/property/basinCountries
p302
aVhttp://dbpedia.org/property/currencyCode
p303
aVhttp://dbpedia.org/property/garrison
p304
aVhttp://dbpedia.org/ontology/assembly
p305
aVhttp://www.w3.org/2000/01/rdf-schema#comment
p306
aVhttp://dbpedia.org/ontology/timeZone
p307
aVhttp://dbpedia.org/property/demonym
p308
aVhttp://dbpedia.org/property/regionServed
p309
aVhttp://dbpedia.org/ontology/builder
p310
aVhttp://dbpedia.org/ontology/locationCity
p311
aVhttp://dbpedia.org/property/observedby
p312
assI2
(dp313
I1
(lp314
Vhttp://dbpedia.org/property/origin
p315
aVhttp://dbpedia.org/property/placeOfDeath
p316
aVhttp://dbpedia.org/ontology/twinCountry
p317
aVhttp://dbpedia.org/property/cctld
p318
aVhttp://dbpedia.org/ontology/mouthCountry
p319
aVhttp://dbpedia.org/property/city
p320
aVhttp://dbpedia.org/ontology/garrison
p321
aVhttp://dbpedia.org/property/ethnicity
p322
aVhttp://dbpedia.org/property/homeTown
p323
aVhttp://dbpedia.org/property/territory
p324
aVhttp://dbpedia.org/ontology/regionServed
p325
aVhttp://dbpedia.org/ontology/canonizedPlace
p326
aVhttp://dbpedia.org/property/firstRun
p327
aVhttp://dbpedia.org/property/lage
p328
aVhttp://dbpedia.org/property/assembly
p329
aVhttp://dbpedia.org/ontology/nationality
p330
aVhttp://dbpedia.org/property/shortDescription
p331
aVhttp://dbpedia.org/property/placeOfBirth
p332
aVhttp://dbpedia.org/property/hometown
p333
aVhttp://dbpedia.org/property/byCountry
p334
aVhttp://dbpedia.org/property/meetingPlace
p335
aVhttp://dbpedia.org/property/establishedEvent
p336
aVhttp://dbpedia.org/ontology/targetAirport
p337
aVhttp://dbpedia.org/property/regionalScenes
p338
aVhttp://dbpedia.org/property/primaryUser
p339
aVhttp://dbpedia.org/ontology/residence
p340
aVhttp://dbpedia.org/ontology/abstract
p341
aVhttp://dbpedia.org/ontology/recordedIn
p342
aVhttp://dbpedia.org/ontology/architecturalStyle
p343
aVhttp://dbpedia.org/property/usedBy
p344
aVhttp://dbpedia.org/property/shipNamesake
p345
aVhttp://dbpedia.org/property/nationalOrigin
p346
aVhttp://dbpedia.org/property/shipBuilder
p347
aVhttp://dbpedia.org/ontology/location
p348
aVhttp://dbpedia.org/ontology/wineRegion
p349
aVhttp://dbpedia.org/property/governmentType
p350
aVhttp://dbpedia.org/ontology/hometown
p351
aVhttp://dbpedia.org/ontology/restingPlace
p352
aVhttp://dbpedia.org/ontology/spokenIn
p353
aVhttp://dbpedia.org/property/leaderTitle
p354
aVhttp://www.w3.org/2000/01/rdf-schema#seeAlso
p355
aVhttp://dbpedia.org/ontology/wikiPageExternalLink
p356
aVhttp://dbpedia.org/property/conventionalLongName
p357
aVhttp://dbpedia.org/property/bases
p358
aVhttp://dbpedia.org/ontology/foundationPlace
p359
aVhttp://dbpedia.org/property/rallybase
p360
aVhttp://dbpedia.org/property/mouthCountry
p361
aVhttp://dbpedia.org/ontology/locatedInArea
p362
aVhttp://dbpedia.org/property/placeOfBurial
p363
aVhttp://dbpedia.org/property/site
p364
aVhttp://dbpedia.org/ontology/country
p365
aVhttp://dbpedia.org/property/region
p366
aVhttp://dbpedia.org/property/nationalAnthem
p367
aVhttp://dbpedia.org/property/destinations
p368
aVhttp://dbpedia.org/property/home
p369
aVhttp://dbpedia.org/property/birthPlace
p370
aVhttp://dbpedia.org/property/stateParty
p371
aVhttp://dbpedia.org/property/country
p372
aVhttp://dbpedia.org/property/areaServed
p373
aVhttp://dbpedia.org/property/areasAffected
p374
aVhttp://dbpedia.org/ontology/county
p375
aVhttp://dbpedia.org/ontology/significantProject
p376
aVhttp://dbpedia.org/property/location
p377
aVhttp://dbpedia.org/property/states
p378
aVhttp://dbpedia.org/ontology/locationCountry
p379
aVhttp://dbpedia.org/ontology/deathPlace
p380
aVhttp://dbpedia.org/property/hasPhotoCollection
p381
aVhttp://dbpedia.org/property/eponym
p382
aVhttp://dbpedia.org/property/headquarters
p383
aVhttp://dbpedia.org/ontology/anthem
p384
aVhttp://dbpedia.org/ontology/birthPlace
p385
aVhttp://dbpedia.org/ontology/wikiPageRedirects
p386
aVhttp://purl.org/voc/vrank#hasRank
p387
aVhttp://www.w3.org/2004/02/skos/core#exactMatch
p388
aVhttp://dbpedia.org/property/citizenship
p389
aVhttp://xmlns.com/foaf/0.1/homepage
p390
aVhttp://dbpedia.org/property/garrison
p391
aVhttp://www.w3.org/2002/07/owl#sameAs
p392
aVhttp://dbpedia.org/ontology/homeStadium
p393
aVhttp://dbpedia.org/property/stadium
p394
aVhttp://dbpedia.org/property/recorded
p395
aVhttp://dbpedia.org/ontology/majorShrine
p396
aVhttp://dbpedia.org/ontology/origin
p397
aVhttp://dbpedia.org/property/residence
p398
aVhttp://dbpedia.org/property/cityOrRegion
p399
aVhttp://dbpedia.org/property/workInstitutions
p400
aVhttp://dbpedia.org/ontology/longName
p401
aVhttp://www.w3.org/1999/02/22-rdf-syntax-ns#type
p402
aVhttp://dbpedia.org/property/locationCountry
p403
aVhttp://dbpedia.org/property/majorShrine
p404
aVhttp://dbpedia.org/ontology/ground
p405
aVhttp://dbpedia.org/property/withdraws
p406
aVhttp://dbpedia.org/property/lowerHouse
p407
aVhttp://dbpedia.org/ontology/language
p408
aVhttp://dbpedia.org/property/winnerOrigin
p409
aVhttp://dbpedia.org/property/owner
p410
aVhttp://dbpedia.org/property/shipCountry
p411
aVhttp://dbpedia.org/property/fightingOutOf
p412
aVhttp://dbpedia.org/ontology/city
p413
aVhttp://dbpedia.org/property/debuts
p414
aVhttp://dbpedia.org/property/subdivisionName
p415
aVhttp://dbpedia.org/property/canonizedPlace
p416
aVhttp://www.w3.org/2000/01/rdf-schema#comment
p417
aVhttp://dbpedia.org/property/remit
p418
aVhttp://dbpedia.org/ontology/governmentType
p419
aVhttp://dbpedia.org/property/locationCity
p420
aVhttp://dbpedia.org/ontology/award
p421
aVhttp://dbpedia.org/property/almaMater
p422
aVhttp://dbpedia.org/property/membership
p423
aVhttp://dbpedia.org/property/place
p424
aVhttp://dbpedia.org/ontology/citizenship
p425
aVhttp://dbpedia.org/property/caption
p426
aVhttp://dbpedia.org/property/footnoteB
p427
aVhttp://dbpedia.org/ontology/leaderTitle
p428
aVhttp://dbpedia.org/property/upperHouse
p429
aVhttp://dbpedia.org/ontology/place
p430
aVhttp://dbpedia.org/property/office
p431
aVhttp://dbpedia.org/property/nationality
p432
aVhttp://purl.org/dc/terms/subject
p433
aVhttp://dbpedia.org/ontology/populationPlace
p434
aVhttp://dbpedia.org/property/state
p435
aVhttp://dbpedia.org/property/deathPlace
p436
aVhttp://dbpedia.org/property/cityServed
p437
aVhttp://dbpedia.org/ontology/headquarter
p438
aVhttp://dbpedia.org/property/foundation
p439
aVhttp://dbpedia.org/ontology/sourceCountry
p440
aVhttp://dbpedia.org/property/locale
p441
aVhttp://dbpedia.org/property/basinCountries
p442
aVhttp://dbpedia.org/ontology/stateOfOrigin
p443
aVhttp://dbpedia.org/ontology/assembly
p444
aVhttp://dbpedia.org/property/address
p445
aVhttp://dbpedia.org/property/data
p446
aVhttp://dbpedia.org/property/olympicPlace
p447
aVhttp://dbpedia.org/property/cityOfResidence
p448
aVhttp://dbpedia.org/property/regionServed
p449
aVhttp://dbpedia.org/ontology/builder
p450
aVhttp://dbpedia.org/ontology/premierePlace
p451
aVhttp://dbpedia.org/ontology/locationCity
p452
aVhttp://dbpedia.org/property/buried
p453
asI2
(lp454
Vhttp://www.w3.org/2000/01/rdf-schema#seeAlso
p455
aVhttp://dbpedia.org/property/currency
p456
aVhttp://dbpedia.org/property/finish
p457
aVhttp://dbpedia.org/property/broadcastArea
p458
aVhttp://dbpedia.org/ontology/origin
p459
aVhttp://dbpedia.org/ontology/currency
p460
aVhttp://dbpedia.org/property/membership
p461
aVhttp://dbpedia.org/property/place
p462
aVhttp://dbpedia.org/ontology/foundationPlace
p463
aVhttp://dbpedia.org/ontology/wineRegion
p464
aVhttp://dbpedia.org/property/foundation
p465
aVhttp://dbpedia.org/ontology/garrison
p466
aVhttp://dbpedia.org/property/caption
p467
aVhttp://dbpedia.org/property/footnoteA
p468
aVhttp://dbpedia.org/ontology/locatedInArea
p469
aVhttp://dbpedia.org/property/footnoteC
p470
aVhttp://dbpedia.org/ontology/fastestDriverCountry
p471
aVhttp://dbpedia.org/ontology/routeEnd
p472
aVhttp://dbpedia.org/ontology/populationPlace
p473
aVhttp://dbpedia.org/ontology/country
p474
aVhttp://www.w3.org/1999/02/22-rdf-syntax-ns#type
p475
aVhttp://dbpedia.org/property/city
p476
aVhttp://dbpedia.org/property/shipBuilder
p477
aVhttp://dbpedia.org/property/locationCountry
p478
aVhttp://dbpedia.org/ontology/secondDriverCountry
p479
aVhttp://dbpedia.org/property/assembly
p480
aVhttp://dbpedia.org/property/site
p481
aVhttp://dbpedia.org/property/venue
p482
aVhttp://dbpedia.org/ontology/nationality
p483
aVhttp://dbpedia.org/property/birthPlace
p484
aVhttp://dbpedia.org/ontology/place
p485
aVhttp://dbpedia.org/ontology/sourceCountry
p486
aVhttp://dbpedia.org/property/office
p487
aVhttp://dbpedia.org/property/text
p488
aVhttp://dbpedia.org/property/country
p489
aVhttp://dbpedia.org/ontology/regionServed
p490
aVhttp://dbpedia.org/property/areaServed
p491
aVhttp://dbpedia.org/property/placeOfBirth
p492
aVhttp://dbpedia.org/ontology/wikiPageExternalLink
p493
aVhttp://purl.org/dc/terms/subject
p494
aVhttp://dbpedia.org/ontology/campus
p495
aVhttp://dbpedia.org/property/origin
p496
aVhttp://dbpedia.org/property/rd2t1Loc
p497
aVhttp://dbpedia.org/property/nationality
p498
aVhttp://dbpedia.org/ontology/abstract
p499
aVhttp://dbpedia.org/ontology/recordedIn
p500
aVhttp://dbpedia.org/ontology/firstDriverCountry
p501
aVhttp://dbpedia.org/property/location
p502
aVhttp://dbpedia.org/property/shipCountry
p503
aVhttp://dbpedia.org/ontology/builder
p504
aVhttp://dbpedia.org/ontology/headquarter
p505
aVhttp://dbpedia.org/ontology/city
p506
aVhttp://dbpedia.org/ontology/routeStart
p507
aVhttp://dbpedia.org/property/hostCity
p508
aVhttp://dbpedia.org/ontology/language
p509
aVhttp://dbpedia.org/property/headquarters
p510
aVhttp://dbpedia.org/property/basinCountries
p511
aVhttp://dbpedia.org/property/currencyCode
p512
aVhttp://dbpedia.org/ontology/territory
p513
aVhttp://dbpedia.org/ontology/assembly
p514
aVhttp://dbpedia.org/ontology/location
p515
aVhttp://www.w3.org/2000/01/rdf-schema#comment
p516
aVhttp://dbpedia.org/ontology/birthPlace
p517
aVhttp://dbpedia.org/property/countries
p518
aVhttp://dbpedia.org/property/nationalOrigin
p519
aVhttp://dbpedia.org/ontology/locationCountry
p520
aVhttp://dbpedia.org/ontology/hometown
p521
aVhttp://www.w3.org/2004/02/skos/core#exactMatch
p522
aVhttp://dbpedia.org/ontology/poleDriverCountry
p523
aVhttp://dbpedia.org/property/stadium
p524
aVhttp://dbpedia.org/property/regionServed
p525
aVhttp://dbpedia.org/property/locationCity
p526
aVhttp://dbpedia.org/property/host
p527
aVhttp://dbpedia.org/property/garrison
p528
aVhttp://dbpedia.org/ontology/locationCity
p529
aVhttp://dbpedia.org/property/areasAffected
p530
aVhttp://www.w3.org/2002/07/owl#sameAs
p531
aVhttp://dbpedia.org/ontology/deathPlace
p532
asI3
(lp533
Vhttp://dbpedia.org/property/origin
p534
aVhttp://dbpedia.org/property/placeOfDeath
p535
aVhttp://dbpedia.org/ontology/twinCountry
p536
aVhttp://dbpedia.org/property/cctld
p537
aVhttp://dbpedia.org/ontology/mouthCountry
p538
aVhttp://dbpedia.org/property/city
p539
aVhttp://dbpedia.org/ontology/garrison
p540
aVhttp://dbpedia.org/property/ethnicity
p541
aVhttp://dbpedia.org/property/homeTown
p542
aVhttp://dbpedia.org/property/territory
p543
aVhttp://dbpedia.org/ontology/regionServed
p544
aVhttp://dbpedia.org/ontology/canonizedPlace
p545
aVhttp://dbpedia.org/property/firstRun
p546
aVhttp://dbpedia.org/property/lage
p547
aVhttp://dbpedia.org/property/assembly
p548
aVhttp://dbpedia.org/ontology/nationality
p549
aVhttp://dbpedia.org/property/shortDescription
p550
aVhttp://dbpedia.org/property/placeOfBirth
p551
aVhttp://dbpedia.org/property/hometown
p552
aVhttp://dbpedia.org/property/byCountry
p553
aVhttp://dbpedia.org/property/meetingPlace
p554
aVhttp://dbpedia.org/property/establishedEvent
p555
aVhttp://dbpedia.org/ontology/targetAirport
p556
aVhttp://dbpedia.org/property/regionalScenes
p557
aVhttp://dbpedia.org/property/primaryUser
p558
aVhttp://dbpedia.org/ontology/residence
p559
aVhttp://dbpedia.org/ontology/abstract
p560
aVhttp://dbpedia.org/ontology/recordedIn
p561
aVhttp://dbpedia.org/ontology/architecturalStyle
p562
aVhttp://dbpedia.org/property/usedBy
p563
aVhttp://dbpedia.org/property/shipNamesake
p564
aVhttp://dbpedia.org/property/nationalOrigin
p565
aVhttp://dbpedia.org/property/shipBuilder
p566
aVhttp://dbpedia.org/ontology/location
p567
aVhttp://dbpedia.org/ontology/wineRegion
p568
aVhttp://dbpedia.org/property/governmentType
p569
aVhttp://dbpedia.org/ontology/hometown
p570
aVhttp://dbpedia.org/ontology/restingPlace
p571
aVhttp://dbpedia.org/ontology/spokenIn
p572
aVhttp://dbpedia.org/property/leaderTitle
p573
aVhttp://www.w3.org/2000/01/rdf-schema#seeAlso
p574
aVhttp://dbpedia.org/ontology/wikiPageExternalLink
p575
aVhttp://dbpedia.org/property/conventionalLongName
p576
aVhttp://dbpedia.org/property/bases
p577
aVhttp://dbpedia.org/ontology/foundationPlace
p578
aVhttp://dbpedia.org/property/rallybase
p579
aVhttp://dbpedia.org/property/mouthCountry
p580
aVhttp://dbpedia.org/ontology/locatedInArea
p581
aVhttp://dbpedia.org/property/placeOfBurial
p582
aVhttp://dbpedia.org/property/site
p583
aVhttp://dbpedia.org/ontology/country
p584
aVhttp://dbpedia.org/property/region
p585
aVhttp://dbpedia.org/property/nationalAnthem
p586
aVhttp://dbpedia.org/property/destinations
p587
aVhttp://dbpedia.org/property/home
p588
aVhttp://dbpedia.org/property/birthPlace
p589
aVhttp://dbpedia.org/property/stateParty
p590
aVhttp://dbpedia.org/property/country
p591
aVhttp://dbpedia.org/property/areaServed
p592
aVhttp://dbpedia.org/property/areasAffected
p593
aVhttp://dbpedia.org/ontology/county
p594
aVhttp://dbpedia.org/ontology/significantProject
p595
aVhttp://dbpedia.org/property/location
p596
aVhttp://dbpedia.org/property/states
p597
aVhttp://dbpedia.org/ontology/locationCountry
p598
aVhttp://dbpedia.org/ontology/deathPlace
p599
aVhttp://dbpedia.org/property/hasPhotoCollection
p600
aVhttp://dbpedia.org/property/eponym
p601
aVhttp://dbpedia.org/property/headquarters
p602
aVhttp://dbpedia.org/ontology/anthem
p603
aVhttp://dbpedia.org/ontology/birthPlace
p604
aVhttp://dbpedia.org/ontology/wikiPageRedirects
p605
aVhttp://purl.org/voc/vrank#hasRank
p606
aVhttp://www.w3.org/2004/02/skos/core#exactMatch
p607
aVhttp://dbpedia.org/property/citizenship
p608
aVhttp://xmlns.com/foaf/0.1/homepage
p609
aVhttp://dbpedia.org/ontology/stateOfOrigin
p610
aVhttp://www.w3.org/2002/07/owl#sameAs
p611
aVhttp://dbpedia.org/ontology/homeStadium
p612
aVhttp://dbpedia.org/property/stadium
p613
aVhttp://dbpedia.org/property/recorded
p614
aVhttp://dbpedia.org/ontology/majorShrine
p615
aVhttp://dbpedia.org/ontology/origin
p616
aVhttp://dbpedia.org/property/residence
p617
aVhttp://dbpedia.org/property/cityOrRegion
p618
aVhttp://dbpedia.org/property/workInstitutions
p619
aVhttp://dbpedia.org/ontology/longName
p620
aVhttp://www.w3.org/1999/02/22-rdf-syntax-ns#type
p621
aVhttp://dbpedia.org/property/locationCountry
p622
aVhttp://dbpedia.org/property/majorShrine
p623
aVhttp://dbpedia.org/ontology/ground
p624
aVhttp://dbpedia.org/property/withdraws
p625
aVhttp://dbpedia.org/property/lowerHouse
p626
aVhttp://dbpedia.org/ontology/language
p627
aVhttp://dbpedia.org/property/winnerOrigin
p628
aVhttp://dbpedia.org/property/owner
p629
aVhttp://dbpedia.org/property/shipCountry
p630
aVhttp://dbpedia.org/property/fightingOutOf
p631
aVhttp://dbpedia.org/ontology/city
p632
aVhttp://dbpedia.org/property/debuts
p633
aVhttp://dbpedia.org/property/subdivisionName
p634
aVhttp://dbpedia.org/property/canonizedPlace
p635
aVhttp://www.w3.org/2000/01/rdf-schema#comment
p636
aVhttp://dbpedia.org/property/remit
p637
aVhttp://dbpedia.org/ontology/governmentType
p638
aVhttp://dbpedia.org/property/locationCity
p639
aVhttp://dbpedia.org/ontology/award
p640
aVhttp://dbpedia.org/property/almaMater
p641
aVhttp://dbpedia.org/property/membership
p642
aVhttp://dbpedia.org/property/place
p643
aVhttp://dbpedia.org/ontology/citizenship
p644
aVhttp://dbpedia.org/property/caption
p645
aVhttp://dbpedia.org/property/footnoteB
p646
aVhttp://dbpedia.org/ontology/leaderTitle
p647
aVhttp://dbpedia.org/property/upperHouse
p648
aVhttp://dbpedia.org/ontology/place
p649
aVhttp://dbpedia.org/property/office
p650
aVhttp://dbpedia.org/property/nationality
p651
aVhttp://purl.org/dc/terms/subject
p652
aVhttp://dbpedia.org/ontology/populationPlace
p653
aVhttp://dbpedia.org/property/state
p654
aVhttp://dbpedia.org/property/deathPlace
p655
aVhttp://dbpedia.org/property/cityServed
p656
aVhttp://dbpedia.org/ontology/headquarter
p657
aVhttp://dbpedia.org/property/foundation
p658
aVhttp://www.w3.org/2000/01/rdf-schema#label
p659
aVhttp://dbpedia.org/ontology/sourceCountry
p660
aVhttp://dbpedia.org/property/locale
p661
aVhttp://dbpedia.org/property/basinCountries
p662
aVhttp://dbpedia.org/property/garrison
p663
aVhttp://dbpedia.org/ontology/assembly
p664
aVhttp://dbpedia.org/property/address
p665
aVhttp://dbpedia.org/property/data
p666
aVhttp://dbpedia.org/property/olympicPlace
p667
aVhttp://dbpedia.org/property/cityOfResidence
p668
aVhttp://dbpedia.org/property/regionServed
p669
aVhttp://dbpedia.org/ontology/builder
p670
aVhttp://dbpedia.org/ontology/premierePlace
p671
aVhttp://dbpedia.org/ontology/locationCity
p672
aVhttp://dbpedia.org/property/buried
p673
assI4
(dp674
I1
(lp675
Vhttp://dbpedia.org/ontology/wikiPageExternalLink
p676
aVhttp://dbpedia.org/ontology/location
p677
aVhttp://dbpedia.org/property/cctld
p678
aVhttp://dbpedia.org/ontology/wikiPageRedirects
p679
aVhttp://xmlns.com/foaf/0.1/homepage
p680
aVhttp://dbpedia.org/ontology/wikiPageDisambiguates
p681
asI2
(lp682
Vhttp://dbpedia.org/property/currencyCode
p683
asI3
(lp684
Vhttp://dbpedia.org/ontology/wikiPageExternalLink
p685
aVhttp://dbpedia.org/property/currencyCode
p686
aVhttp://dbpedia.org/ontology/location
p687
aVhttp://dbpedia.org/property/cctld
p688
aVhttp://dbpedia.org/ontology/wikiPageRedirects
p689
aVhttp://xmlns.com/foaf/0.1/homepage
p690
aVhttp://dbpedia.org/ontology/wikiPageDisambiguates
p691
assI5
(dp692
I1
(lp693
Vhttp://dbpedia.org/property/origin
p694
aVhttp://dbpedia.org/property/placeOfDeath
p695
aVhttp://dbpedia.org/property/recorded
p696
aVhttp://dbpedia.org/property/restingPlace
p697
aVhttp://dbpedia.org/ontology/foundationPlace
p698
aVhttp://dbpedia.org/property/winnerOrigin
p699
aVhttp://dbpedia.org/property/placeOfBurial
p700
aVhttp://dbpedia.org/ontology/country
p701
aVhttp://dbpedia.org/property/region
p702
aVhttp://dbpedia.org/property/locationCountry
p703
aVhttp://dbpedia.org/ontology/nationality
p704
aVhttp://dbpedia.org/property/birthPlace
p705
aVhttp://dbpedia.org/property/placeOfBirth
p706
aVhttp://dbpedia.org/property/nationality
p707
aVhttp://dbpedia.org/property/country
p708
aVhttp://dbpedia.org/property/areaServed
p709
aVhttp://dbpedia.org/ontology/wikiPageExternalLink
p710
aVhttp://dbpedia.org/ontology/residence
p711
aVhttp://dbpedia.org/ontology/recordedIn
p712
aVhttp://dbpedia.org/property/deathPlace
p713
aVhttp://dbpedia.org/property/location
p714
aVhttp://dbpedia.org/property/fightingOutOf
p715
aVhttp://dbpedia.org/ontology/locationCountry
p716
aVhttp://dbpedia.org/ontology/headquarter
p717
aVhttp://dbpedia.org/ontology/language
p718
aVhttp://dbpedia.org/property/headquarters
p719
aVhttp://dbpedia.org/property/imageMap
p720
aVhttp://dbpedia.org/ontology/location
p721
aVhttp://dbpedia.org/ontology/birthPlace
p722
aVhttp://dbpedia.org/ontology/wikiPageRedirects
p723
aVhttp://dbpedia.org/ontology/hometown
p724
aVhttp://dbpedia.org/ontology/restingPlace
p725
aVhttp://dbpedia.org/ontology/stateOfOrigin
p726
aVhttp://dbpedia.org/ontology/deathPlace
p727
asI2
(lp728
Vhttp://dbpedia.org/property/currencyCode
p729
asI3
(lp730
Vhttp://dbpedia.org/property/origin
p731
aVhttp://dbpedia.org/property/placeOfDeath
p732
aVhttp://dbpedia.org/property/recorded
p733
aVhttp://dbpedia.org/property/ground
p734
aVhttp://dbpedia.org/ontology/origin
p735
aVhttp://dbpedia.org/property/years
p736
aVhttp://dbpedia.org/property/birthplace
p737
aVhttp://dbpedia.org/ontology/locatedInArea
p738
aVhttp://dbpedia.org/ontology/country
p739
aVhttp://dbpedia.org/property/region
p740
aVhttp://dbpedia.org/property/locationCountry
p741
aVhttp://dbpedia.org/ontology/isPartOf
p742
aVhttp://dbpedia.org/ontology/nationality
p743
aVhttp://dbpedia.org/property/birthPlace
p744
aVhttp://dbpedia.org/property/shortDescription
p745
aVhttp://dbpedia.org/property/placeOfBirth
p746
aVhttp://dbpedia.org/property/country
p747
aVhttp://dbpedia.org/property/placeofbirth
p748
aVhttp://dbpedia.org/property/state
p749
aVhttp://dbpedia.org/ontology/recordedIn
p750
aVhttp://dbpedia.org/ontology/state
p751
aVhttp://dbpedia.org/property/deathPlace
p752
aVhttp://dbpedia.org/ontology/locationCountry
p753
aVhttp://dbpedia.org/ontology/headquarter
p754
aVhttp://dbpedia.org/property/headquarters
p755
aVhttp://dbpedia.org/property/currencyCode
p756
aVhttp://dbpedia.org/ontology/location
p757
aVhttp://dbpedia.org/ontology/birthPlace
p758
aVhttp://dbpedia.org/ontology/hometown
p759
aVhttp://dbpedia.org/property/remit
p760
aVhttp://dbpedia.org/property/location
p761
aVhttp://dbpedia.org/property/stadium
p762
aVhttp://dbpedia.org/ontology/deathPlace
p763
assI8
(dp764
I1
(lp765
Vhttp://dbpedia.org/property/origin
p766
aVhttp://dbpedia.org/property/placeOfDeath
p767
aVhttp://dbpedia.org/ontology/type
p768
aVhttp://dbpedia.org/property/awardedBy
p769
aVhttp://dbpedia.org/property/broadcastArea
p770
aVhttp://dbpedia.org/property/nearestTown
p771
aVhttp://dbpedia.org/ontology/mouthCountry
p772
aVhttp://dbpedia.org/property/locations
p773
aVhttp://dbpedia.org/property/city
p774
aVhttp://dbpedia.org/ontology/knownFor
p775
aVhttp://dbpedia.org/property/homeTown
p776
aVhttp://dbpedia.org/property/possessions
p777
aVhttp://dbpedia.org/ontology/format
p778
aVhttp://dbpedia.org/property/assembly
p779
aVhttp://dbpedia.org/property/launchSite
p780
aVhttp://dbpedia.org/property/availability
p781
aVhttp://dbpedia.org/ontology/nationality
p782
aVhttp://dbpedia.org/property/shortDescription
p783
aVhttp://dbpedia.org/property/placeOfBirth
p784
aVhttp://dbpedia.org/property/hometown
p785
aVhttp://dbpedia.org/property/byCountry
p786
aVhttp://dbpedia.org/property/culturalOrigins
p787
aVhttp://dbpedia.org/property/nat
p788
aVhttp://dbpedia.org/property/mapCaption
p789
aVhttp://dbpedia.org/ontology/residence
p790
aVhttp://dbpedia.org/ontology/abstract
p791
aVhttp://dbpedia.org/ontology/recordedIn
p792
aVhttp://dbpedia.org/property/type
p793
aVhttp://dbpedia.org/property/sourceCountry
p794
aVhttp://dbpedia.org/property/launchDate
p795
aVhttp://dbpedia.org/property/lowerHouse
p796
aVhttp://dbpedia.org/property/usedBy
p797
aVhttp://dbpedia.org/property/shipNamesake
p798
aVhttp://dbpedia.org/property/nationalOrigin
p799
aVhttp://dbpedia.org/ontology/location
p800
aVhttp://dbpedia.org/property/countries
p801
aVhttp://dbpedia.org/property/nearestCity
p802
aVhttp://dbpedia.org/property/area
p803
aVhttp://dbpedia.org/ontology/hometown
p804
aVhttp://dbpedia.org/ontology/restingPlace
p805
aVhttp://dbpedia.org/ontology/spokenIn
p806
aVhttp://dbpedia.org/property/deathDeath
p807
aVhttp://dbpedia.org/property/jurisdiction
p808
aVhttp://dbpedia.org/property/dateOfDeath
p809
aVhttp://www.w3.org/2000/01/rdf-schema#seeAlso
p810
aVhttp://dbpedia.org/property/isolation
p811
aVhttp://dbpedia.org/ontology/citizenship
p812
aVhttp://dbpedia.org/property/ethnicity
p813
aVhttp://dbpedia.org/property/birthDate
p814
aVhttp://dbpedia.org/property/deathDate
p815
aVhttp://dbpedia.org/ontology/foundationPlace
p816
aVhttp://dbpedia.org/property/countryOfOrigin
p817
aVhttp://dbpedia.org/property/base
p818
aVhttp://dbpedia.org/property/mouthCountry
p819
aVhttp://dbpedia.org/ontology/locatedInArea
p820
aVhttp://dbpedia.org/property/site
p821
aVhttp://dbpedia.org/property/label
p822
aVhttp://dbpedia.org/ontology/country
p823
aVhttp://dbpedia.org/property/region
p824
aVhttp://dbpedia.org/property/home
p825
aVhttp://dbpedia.org/property/distributor
p826
aVhttp://dbpedia.org/property/birthPlace
p827
aVhttp://dbpedia.org/property/recLocation
p828
aVhttp://dbpedia.org/property/country
p829
aVhttp://dbpedia.org/ontology/regionServed
p830
aVhttp://dbpedia.org/property/areaServed
p831
aVhttp://dbpedia.org/ontology/wikiPageExternalLink
p832
aVhttp://dbpedia.org/ontology/campus
p833
aVhttp://dbpedia.org/ontology/significantProject
p834
aVhttp://dbpedia.org/property/location
p835
aVhttp://dbpedia.org/property/states
p836
aVhttp://dbpedia.org/ontology/division
p837
aVhttp://dbpedia.org/ontology/locationCountry
p838
aVhttp://dbpedia.org/ontology/deathPlace
p839
aVhttp://dbpedia.org/property/resides
p840
aVhttp://dbpedia.org/property/currentlyResides
p841
aVhttp://dbpedia.org/property/headquarters
p842
aVhttp://dbpedia.org/property/leaderTitle
p843
aVhttp://dbpedia.org/ontology/birthPlace
p844
aVhttp://dbpedia.org/ontology/wikiPageRedirects
p845
aVhttp://dbpedia.org/property/aux
p846
aVhttp://dbpedia.org/property/citizenship
p847
aVhttp://xmlns.com/foaf/0.1/homepage
p848
aVhttp://dbpedia.org/ontology/stateOfOrigin
p849
aVhttp://dbpedia.org/property/residence
p850
aVhttp://www.w3.org/2002/07/owl#sameAs
p851
aVhttp://dbpedia.org/property/areas
p852
aVhttp://dbpedia.org/property/imageLiquidMetalRocksJkArea
p853
aVhttp://dbpedia.org/property/recorded
p854
aVhttp://dbpedia.org/ontology/origin
p855
aVhttp://dbpedia.org/property/countryOrigin
p856
aVhttp://dbpedia.org/property/foundation
p857
aVhttp://dbpedia.org/property/source1Country
p858
aVhttp://dbpedia.org/property/locationCountry
p859
aVhttp://dbpedia.org/property/education
p860
aVhttp://dbpedia.org/ontology/ground
p861
aVhttp://dbpedia.org/ontology/education
p862
aVhttp://dbpedia.org/property/shipCountry
p863
aVhttp://dbpedia.org/property/restingPlace
p864
aVhttp://dbpedia.org/ontology/countryOrigin
p865
aVhttp://dbpedia.org/property/opponents
p866
aVhttp://dbpedia.org/property/fightingOutOf
p867
aVhttp://dbpedia.org/property/observedby
p868
aVhttp://dbpedia.org/ontology/city
p869
aVhttp://dbpedia.org/property/subdivisionName
p870
aVhttp://dbpedia.org/ontology/ethnicity
p871
aVhttp://dbpedia.org/ontology/homeport
p872
aVhttp://dbpedia.org/property/meetingPlace
p873
aVhttp://dbpedia.org/property/popplace
p874
aVhttp://dbpedia.org/property/address
p875
aVhttp://dbpedia.org/property/hqLocationCountry
p876
aVhttp://www.w3.org/2004/02/skos/core#subject
p877
aVhttp://dbpedia.org/property/winter
p878
aVhttp://dbpedia.org/property/basedIn
p879
aVhttp://dbpedia.org/property/founded
p880
aVhttp://dbpedia.org/property/ground
p881
aVhttp://dbpedia.org/property/place
p882
aVhttp://dbpedia.org/property/regionalScenes
p883
aVhttp://dbpedia.org/property/callsignMeaning
p884
aVhttp://dbpedia.org/property/currentResidence
p885
aVhttp://dbpedia.org/ontology/jurisdiction
p886
aVhttp://dbpedia.org/property/footnoteA
p887
aVhttp://dbpedia.org/property/placeofburial
p888
aVhttp://dbpedia.org/ontology/leaderTitle
p889
aVhttp://dbpedia.org/property/allegiance
p890
aVhttp://dbpedia.org/property/combatant
p891
aVhttp://dbpedia.org/property/office
p892
aVhttp://dbpedia.org/property/nationality
p893
aVhttp://dbpedia.org/property/body
p894
aVhttp://dbpedia.org/ontology/wikiPageDisambiguates
p895
aVhttp://dbpedia.org/property/divisions
p896
aVhttp://dbpedia.org/ontology/populationPlace
p897
aVhttp://dbpedia.org/property/markets
p898
aVhttp://dbpedia.org/property/deathPlace
p899
aVhttp://dbpedia.org/property/headquarter
p900
aVhttp://dbpedia.org/property/cityServed
p901
aVhttp://dbpedia.org/ontology/headquarter
p902
aVhttp://dbpedia.org/ontology/nearestCity
p903
aVhttp://dbpedia.org/property/controlledby
p904
aVhttp://dbpedia.org/ontology/sourceCountry
p905
aVhttp://dbpedia.org/ontology/broadcastArea
p906
aVhttp://dbpedia.org/property/locale
p907
aVhttp://dbpedia.org/property/basinCountries
p908
aVhttp://dbpedia.org/ontology/assembly
p909
aVhttp://www.w3.org/2000/01/rdf-schema#comment
p910
aVhttp://dbpedia.org/property/nationalMotto
p911
aVhttp://dbpedia.org/ontology/locationCity
p912
aVhttp://dbpedia.org/ontology/motto
p913
aVhttp://dbpedia.org/ontology/releaseLocation
p914
aVhttp://dbpedia.org/property/seat
p915
aVhttp://dbpedia.org/property/shipHomeport
p916
aVhttp://dbpedia.org/property/regionServed
p917
aVhttp://dbpedia.org/property/locationCity
p918
aVhttp://dbpedia.org/ontology/premierePlace
p919
aVhttp://dbpedia.org/property/data
p920
aVhttp://dbpedia.org/property/currentLocation
p921
aVhttp://dbpedia.org/ontology/occupation
p922
asI2
(lp923
Vhttp://dbpedia.org/ontology/wikiPageExternalLink
p924
aVhttp://dbpedia.org/ontology/country
p925
aVhttp://dbpedia.org/property/currencyCode
p926
aVhttp://dbpedia.org/property/subdivisionName
p927
aVhttp://dbpedia.org/ontology/location
p928
aVhttp://dbpedia.org/property/origin
p929
aVhttp://dbpedia.org/ontology/abstract
p930
aVhttp://dbpedia.org/property/location
p931
aVhttp://dbpedia.org/ontology/foundationPlace
p932
aVhttp://dbpedia.org/ontology/hometown
p933
aVhttp://dbpedia.org/ontology/locationCountry
p934
aVhttp://dbpedia.org/property/country
p935
aVhttp://dbpedia.org/property/locationCountry
p936
asI3
(lp937
Vhttp://dbpedia.org/property/origin
p938
aVhttp://dbpedia.org/property/placeOfDeath
p939
aVhttp://dbpedia.org/ontology/type
p940
aVhttp://dbpedia.org/property/awardedBy
p941
aVhttp://dbpedia.org/property/broadcastArea
p942
aVhttp://dbpedia.org/property/nearestTown
p943
aVhttp://dbpedia.org/ontology/mouthCountry
p944
aVhttp://dbpedia.org/property/locations
p945
aVhttp://dbpedia.org/property/city
p946
aVhttp://dbpedia.org/ontology/knownFor
p947
aVhttp://dbpedia.org/property/homeTown
p948
aVhttp://dbpedia.org/property/possessions
p949
aVhttp://dbpedia.org/ontology/format
p950
aVhttp://dbpedia.org/property/assembly
p951
aVhttp://dbpedia.org/property/launchSite
p952
aVhttp://dbpedia.org/property/availability
p953
aVhttp://dbpedia.org/ontology/nationality
p954
aVhttp://dbpedia.org/property/shortDescription
p955
aVhttp://dbpedia.org/property/placeOfBirth
p956
aVhttp://dbpedia.org/property/hometown
p957
aVhttp://dbpedia.org/property/byCountry
p958
aVhttp://dbpedia.org/property/culturalOrigins
p959
aVhttp://dbpedia.org/property/nat
p960
aVhttp://dbpedia.org/property/mapCaption
p961
aVhttp://dbpedia.org/ontology/residence
p962
aVhttp://dbpedia.org/ontology/abstract
p963
aVhttp://dbpedia.org/ontology/recordedIn
p964
aVhttp://dbpedia.org/property/type
p965
aVhttp://dbpedia.org/property/sourceCountry
p966
aVhttp://dbpedia.org/property/launchDate
p967
aVhttp://dbpedia.org/property/lowerHouse
p968
aVhttp://dbpedia.org/property/usedBy
p969
aVhttp://dbpedia.org/property/shipNamesake
p970
aVhttp://dbpedia.org/property/nationalOrigin
p971
aVhttp://dbpedia.org/property/imageMap
p972
aVhttp://dbpedia.org/ontology/location
p973
aVhttp://dbpedia.org/property/countries
p974
aVhttp://dbpedia.org/property/nearestCity
p975
aVhttp://dbpedia.org/property/area
p976
aVhttp://dbpedia.org/ontology/hometown
p977
aVhttp://dbpedia.org/ontology/restingPlace
p978
aVhttp://dbpedia.org/ontology/spokenIn
p979
aVhttp://dbpedia.org/property/deathDeath
p980
aVhttp://dbpedia.org/property/jurisdiction
p981
aVhttp://dbpedia.org/property/leaderTitle
p982
aVhttp://www.w3.org/2000/01/rdf-schema#seeAlso
p983
aVhttp://dbpedia.org/property/isolation
p984
aVhttp://dbpedia.org/ontology/citizenship
p985
aVhttp://dbpedia.org/property/ethnicity
p986
aVhttp://dbpedia.org/property/birthDate
p987
aVhttp://dbpedia.org/property/deathDate
p988
aVhttp://dbpedia.org/ontology/foundationPlace
p989
aVhttp://dbpedia.org/property/countryOfOrigin
p990
aVhttp://dbpedia.org/property/base
p991
aVhttp://dbpedia.org/property/mouthCountry
p992
aVhttp://dbpedia.org/ontology/locatedInArea
p993
aVhttp://dbpedia.org/property/site
p994
aVhttp://dbpedia.org/property/label
p995
aVhttp://dbpedia.org/ontology/country
p996
aVhttp://dbpedia.org/property/region
p997
aVhttp://dbpedia.org/property/home
p998
aVhttp://dbpedia.org/property/distributor
p999
aVhttp://dbpedia.org/property/birthPlace
p1000
aVhttp://dbpedia.org/property/recLocation
p1001
aVhttp://dbpedia.org/property/country
p1002
aVhttp://dbpedia.org/ontology/regionServed
p1003
aVhttp://dbpedia.org/property/areaServed
p1004
aVhttp://dbpedia.org/ontology/wikiPageExternalLink
p1005
aVhttp://dbpedia.org/ontology/campus
p1006
aVhttp://dbpedia.org/ontology/significantProject
p1007
aVhttp://dbpedia.org/property/location
p1008
aVhttp://dbpedia.org/property/states
p1009
aVhttp://dbpedia.org/ontology/division
p1010
aVhttp://dbpedia.org/ontology/locationCountry
p1011
aVhttp://dbpedia.org/ontology/deathPlace
p1012
aVhttp://dbpedia.org/property/resides
p1013
aVhttp://dbpedia.org/property/currentlyResides
p1014
aVhttp://dbpedia.org/property/headquarters
p1015
aVhttp://dbpedia.org/property/dateOfDeath
p1016
aVhttp://dbpedia.org/ontology/birthPlace
p1017
aVhttp://dbpedia.org/ontology/wikiPageRedirects
p1018
aVhttp://dbpedia.org/property/aux
p1019
aVhttp://dbpedia.org/property/citizenship
p1020
aVhttp://xmlns.com/foaf/0.1/homepage
p1021
aVhttp://dbpedia.org/ontology/stateOfOrigin
p1022
aVhttp://dbpedia.org/property/residence
p1023
aVhttp://www.w3.org/2002/07/owl#sameAs
p1024
aVhttp://dbpedia.org/property/areas
p1025
aVhttp://dbpedia.org/property/imageLiquidMetalRocksJkArea
p1026
aVhttp://dbpedia.org/property/recorded
p1027
aVhttp://dbpedia.org/ontology/origin
p1028
aVhttp://dbpedia.org/property/countryOrigin
p1029
aVhttp://dbpedia.org/property/foundation
p1030
aVhttp://dbpedia.org/property/source1Country
p1031
aVhttp://dbpedia.org/property/locationCountry
p1032
aVhttp://dbpedia.org/property/education
p1033
aVhttp://dbpedia.org/ontology/ground
p1034
aVhttp://dbpedia.org/ontology/education
p1035
aVhttp://dbpedia.org/property/countryCode
p1036
aVhttp://dbpedia.org/property/shipCountry
p1037
aVhttp://dbpedia.org/property/restingPlace
p1038
aVhttp://dbpedia.org/ontology/countryOrigin
p1039
aVhttp://dbpedia.org/property/opponents
p1040
aVhttp://dbpedia.org/property/fightingOutOf
p1041
aVhttp://dbpedia.org/property/observedby
p1042
aVhttp://dbpedia.org/ontology/city
p1043
aVhttp://dbpedia.org/property/subdivisionName
p1044
aVhttp://dbpedia.org/ontology/ethnicity
p1045
aVhttp://dbpedia.org/ontology/homeport
p1046
aVhttp://dbpedia.org/property/meetingPlace
p1047
aVhttp://dbpedia.org/property/popplace
p1048
aVhttp://dbpedia.org/property/address
p1049
aVhttp://dbpedia.org/property/hqLocationCountry
p1050
aVhttp://www.w3.org/2004/02/skos/core#subject
p1051
aVhttp://dbpedia.org/property/winter
p1052
aVhttp://dbpedia.org/property/basedIn
p1053
aVhttp://dbpedia.org/property/founded
p1054
aVhttp://dbpedia.org/property/ground
p1055
aVhttp://dbpedia.org/property/place
p1056
aVhttp://dbpedia.org/property/regionalScenes
p1057
aVhttp://dbpedia.org/property/callsignMeaning
p1058
aVhttp://dbpedia.org/property/currentResidence
p1059
aVhttp://dbpedia.org/ontology/jurisdiction
p1060
aVhttp://dbpedia.org/property/footnoteA
p1061
aVhttp://dbpedia.org/property/placeofburial
p1062
aVhttp://dbpedia.org/ontology/leaderTitle
p1063
aVhttp://dbpedia.org/property/allegiance
p1064
aVhttp://dbpedia.org/property/combatant
p1065
aVhttp://dbpedia.org/property/office
p1066
aVhttp://dbpedia.org/property/nationality
p1067
aVhttp://dbpedia.org/property/body
p1068
aVhttp://dbpedia.org/ontology/wikiPageDisambiguates
p1069
aVhttp://dbpedia.org/property/divisions
p1070
aVhttp://dbpedia.org/property/iso3166code
p1071
aVhttp://dbpedia.org/ontology/populationPlace
p1072
aVhttp://dbpedia.org/property/markets
p1073
aVhttp://dbpedia.org/property/deathPlace
p1074
aVhttp://dbpedia.org/property/headquarter
p1075
aVhttp://dbpedia.org/property/cityServed
p1076
aVhttp://dbpedia.org/ontology/headquarter
p1077
aVhttp://dbpedia.org/ontology/nearestCity
p1078
aVhttp://dbpedia.org/property/controlledby
p1079
aVhttp://dbpedia.org/ontology/sourceCountry
p1080
aVhttp://dbpedia.org/ontology/broadcastArea
p1081
aVhttp://dbpedia.org/property/locale
p1082
aVhttp://dbpedia.org/property/basinCountries
p1083
aVhttp://dbpedia.org/property/currencyCode
p1084
aVhttp://dbpedia.org/ontology/assembly
p1085
aVhttp://www.w3.org/2000/01/rdf-schema#comment
p1086
aVhttp://dbpedia.org/property/nationalMotto
p1087
aVhttp://dbpedia.org/property/data
p1088
aVhttp://dbpedia.org/ontology/motto
p1089
aVhttp://dbpedia.org/ontology/releaseLocation
p1090
aVhttp://dbpedia.org/property/seat
p1091
aVhttp://dbpedia.org/property/shipHomeport
p1092
aVhttp://dbpedia.org/property/regionServed
p1093
aVhttp://dbpedia.org/property/locationCity
p1094
aVhttp://dbpedia.org/ontology/premierePlace
p1095
aVhttp://dbpedia.org/ontology/locationCity
p1096
aVhttp://dbpedia.org/property/currentLocation
p1097
aVhttp://dbpedia.org/ontology/occupation
p1098
assI9
(dp1099
I1
(lp1100
Vhttp://dbpedia.org/property/origin
p1101
aVhttp://dbpedia.org/property/placeOfDeath
p1102
aVhttp://dbpedia.org/ontology/type
p1103
aVhttp://dbpedia.org/property/sourceCountry
p1104
aVhttp://dbpedia.org/property/awardedBy
p1105
aVhttp://dbpedia.org/property/cctld
p1106
aVhttp://dbpedia.org/property/nearestTown
p1107
aVhttp://dbpedia.org/ontology/mouthCountry
p1108
aVhttp://dbpedia.org/property/locations
p1109
aVhttp://dbpedia.org/property/city
p1110
aVhttp://dbpedia.org/ontology/garrison
p1111
aVhttp://dbpedia.org/property/sovereigntyType
p1112
aVhttp://www.w3.org/ns/prov#wasDerivedFrom
p1113
aVhttp://dbpedia.org/property/awards
p1114
aVhttp://dbpedia.org/property/territory
p1115
aVhttp://dbpedia.org/property/members
p1116
aVhttp://dbpedia.org/ontology/regionServed
p1117
aVhttp://dbpedia.org/property/serviceArea
p1118
aVhttp://dbpedia.org/property/firstRun
p1119
aVhttp://dbpedia.org/property/broadcastArea
p1120
aVhttp://dbpedia.org/property/assembly
p1121
aVhttp://dbpedia.org/ontology/nationality
p1122
aVhttp://dbpedia.org/property/country/region
p1123
aVhttp://dbpedia.org/property/shortDescription
p1124
aVhttp://xmlns.com/foaf/0.1/isPrimaryTopicOf
p1125
aVhttp://dbpedia.org/property/hometown
p1126
aVhttp://dbpedia.org/property/panPlace
p1127
aVhttp://dbpedia.org/property/meetingPlace
p1128
aVhttp://dbpedia.org/property/establishedEvent
p1129
aVhttp://dbpedia.org/property/regionalScenes
p1130
aVhttp://dbpedia.org/property/primaryUser
p1131
aVhttp://dbpedia.org/ontology/residence
p1132
aVhttp://dbpedia.org/ontology/abstract
p1133
aVhttp://dbpedia.org/ontology/recordedIn
p1134
aVhttp://dbpedia.org/property/venue
p1135
aVhttp://dbpedia.org/property/observedby
p1136
aVhttp://dbpedia.org/property/nationalOrigin
p1137
aVhttp://dbpedia.org/property/foundation
p1138
aVhttp://dbpedia.org/ontology/location
p1139
aVhttp://dbpedia.org/property/countries
p1140
aVhttp://dbpedia.org/property/countriesAffected
p1141
aVhttp://dbpedia.org/ontology/wikiPageExternalLink
p1142
aVhttp://dbpedia.org/property/factory
p1143
aVhttp://dbpedia.org/property/placeOfBirth
p1144
aVhttp://dbpedia.org/property/area
p1145
aVhttp://dbpedia.org/ontology/hometown
p1146
aVhttp://dbpedia.org/ontology/restingPlace
p1147
aVhttp://dbpedia.org/ontology/spokenIn
p1148
aVhttp://dbpedia.org/property/altFlag
p1149
aVhttp://dbpedia.org/property/jurisdiction
p1150
aVhttp://dbpedia.org/property/leaderTitle
p1151
aVhttp://www.w3.org/2000/01/rdf-schema#seeAlso
p1152
aVhttp://dbpedia.org/property/currency
p1153
aVhttp://dbpedia.org/property/birthDate
p1154
aVhttp://dbpedia.org/property/hostCity
p1155
aVhttp://dbpedia.org/ontology/foundationPlace
p1156
aVhttp://dbpedia.org/property/patronage
p1157
aVhttp://dbpedia.org/property/mouthCountry
p1158
aVhttp://dbpedia.org/property/1rpt2Loc
p1159
aVhttp://dbpedia.org/property/legislature
p1160
aVhttp://dbpedia.org/ontology/locatedInArea
p1161
aVhttp://dbpedia.org/property/site
p1162
aVhttp://dbpedia.org/property/label
p1163
aVhttp://dbpedia.org/ontology/country
p1164
aVhttp://dbpedia.org/property/region
p1165
aVhttp://dbpedia.org/property/nationalAnthem
p1166
aVhttp://dbpedia.org/property/destinations
p1167
aVhttp://dbpedia.org/property/home
p1168
aVhttp://dbpedia.org/property/birthPlace
p1169
aVhttp://dbpedia.org/property/bankOf
p1170
aVhttp://dbpedia.org/property/possessions
p1171
aVhttp://dbpedia.org/property/country
p1172
aVhttp://dbpedia.org/ontology/billed
p1173
aVhttp://dbpedia.org/property/hqLocationCountry
p1174
aVhttp://dbpedia.org/property/areaServed
p1175
aVhttp://dbpedia.org/property/areasAffected
p1176
aVhttp://dbpedia.org/ontology/county
p1177
aVhttp://xmlns.com/foaf/0.1/primaryTopic
p1178
aVhttp://dbpedia.org/property/county
p1179
aVhttp://dbpedia.org/property/diaspora
p1180
aVhttp://dbpedia.org/ontology/successor
p1181
aVhttp://dbpedia.org/ontology/firstDriverCountry
p1182
aVhttp://dbpedia.org/property/location
p1183
aVhttp://dbpedia.org/property/states
p1184
aVhttp://dbpedia.org/ontology/division
p1185
aVhttp://dbpedia.org/ontology/locationCountry
p1186
aVhttp://dbpedia.org/ontology/deathPlace
p1187
aVhttp://dbpedia.org/property/hasPhotoCollection
p1188
aVhttp://dbpedia.org/ontology/territory
p1189
aVhttp://dbpedia.org/property/headquarters
p1190
aVhttp://dbpedia.org/property/countryName
p1191
aVhttp://dbpedia.org/ontology/anthem
p1192
aVhttp://dbpedia.org/ontology/birthPlace
p1193
aVhttp://dbpedia.org/property/1rpt1Loc
p1194
aVhttp://dbpedia.org/ontology/wikiPageRedirects
p1195
aVhttp://dbpedia.org/property/citizenship
p1196
aVhttp://xmlns.com/foaf/0.1/homepage
p1197
aVhttp://dbpedia.org/property/host
p1198
aVhttp://dbpedia.org/ontology/stateOfOrigin
p1199
aVhttp://www.w3.org/2002/07/owl#sameAs
p1200
aVhttp://dbpedia.org/property/areas
p1201
aVhttp://dbpedia.org/property/stadium
p1202
aVhttp://dbpedia.org/property/recorded
p1203
aVhttp://dbpedia.org/ontology/origin
p1204
aVhttp://dbpedia.org/ontology/currency
p1205
aVhttp://dbpedia.org/property/rd1t2Loc
p1206
aVhttp://dbpedia.org/property/residence
p1207
aVhttp://dbpedia.org/property/altMap
p1208
aVhttp://dbpedia.org/property/capital
p1209
aVhttp://dbpedia.org/property/billed
p1210
aVhttp://www.w3.org/1999/02/22-rdf-syntax-ns#type
p1211
aVhttp://dbpedia.org/property/homecountry
p1212
aVhttp://dbpedia.org/ontology/capital
p1213
aVhttp://dbpedia.org/property/locationCountry
p1214
aVhttp://dbpedia.org/property/majorShrine
p1215
aVhttp://dbpedia.org/ontology/ground
p1216
aVhttp://dbpedia.org/property/lowerHouse
p1217
aVhttp://dbpedia.org/ontology/ethnicGroup
p1218
aVhttp://dbpedia.org/property/locationSigned
p1219
aVhttp://dbpedia.org/property/shipCountry
p1220
aVhttp://dbpedia.org/property/locationTown
p1221
aVhttp://dbpedia.org/property/foundedDate
p1222
aVhttp://xmlns.com/foaf/0.1/depiction
p1223
aVhttp://dbpedia.org/ontology/usingCountry
p1224
aVhttp://dbpedia.org/property/church
p1225
aVhttp://dbpedia.org/property/fightingOutOf
p1226
aVhttp://dbpedia.org/ontology/thumbnail
p1227
aVhttp://dbpedia.org/property/winnerOrigin
p1228
aVhttp://dbpedia.org/ontology/city
p1229
aVhttp://dbpedia.org/ontology/flag
p1230
aVhttp://dbpedia.org/property/province
p1231
aVhttp://dbpedia.org/property/subdivisionName
p1232
aVhttp://dbpedia.org/property/rd1t3Loc
p1233
aVhttp://dbpedia.org/property/popplace
p1234
aVhttp://dbpedia.org/property/address
p1235
aVhttp://dbpedia.org/property/destination
p1236
aVhttp://dbpedia.org/property/locationCity
p1237
aVhttp://dbpedia.org/property/founded
p1238
aVhttp://dbpedia.org/ontology/destination
p1239
aVhttp://dbpedia.org/property/designation1Free1value
p1240
aVhttp://dbpedia.org/property/ground
p1241
aVhttp://dbpedia.org/property/usingJurisdiction
p1242
aVhttp://dbpedia.org/property/place
p1243
aVhttp://dbpedia.org/ontology/citizenship
p1244
aVhttp://dbpedia.org/ontology/jurisdiction
p1245
aVhttp://dbpedia.org/property/caption
p1246
aVhttp://dbpedia.org/ontology/thirdDriverCountry
p1247
aVhttp://www.w3.org/2002/07/owl#differentFrom
p1248
aVhttp://dbpedia.org/property/2rpt1Loc
p1249
aVhttp://dbpedia.org/property/upperHouse
p1250
aVhttp://dbpedia.org/property/allegiance
p1251
aVhttp://dbpedia.org/property/countryOfProduction
p1252
aVhttp://dbpedia.org/property/available
p1253
aVhttp://dbpedia.org/ontology/place
p1254
aVhttp://dbpedia.org/property/office
p1255
aVhttp://dbpedia.org/property/nationality
p1256
aVhttp://dbpedia.org/property/foundedPlace
p1257
aVhttp://dbpedia.org/property/callingCode
p1258
aVhttp://dbpedia.org/property/rd1t4Loc
p1259
aVhttp://dbpedia.org/ontology/wikiPageDisambiguates
p1260
aVhttp://purl.org/dc/terms/subject
p1261
aVhttp://dbpedia.org/ontology/populationPlace
p1262
aVhttp://dbpedia.org/property/rd2t2Loc
p1263
aVhttp://dbpedia.org/property/state
p1264
aVhttp://dbpedia.org/property/deathPlace
p1265
aVhttp://dbpedia.org/property/otherCountries
p1266
aVhttp://dbpedia.org/ontology/headquarter
p1267
aVhttp://dbpedia.org/property/fifaTrigramme
p1268
aVhttp://dbpedia.org/ontology/sourceCountry
p1269
aVhttp://dbpedia.org/ontology/broadcastArea
p1270
aVhttp://dbpedia.org/property/locale
p1271
aVhttp://dbpedia.org/property/basinCountries
p1272
aVhttp://dbpedia.org/property/garrison
p1273
aVhttp://dbpedia.org/ontology/assembly
p1274
aVhttp://dbpedia.org/property/rd2t1Loc
p1275
aVhttp://www.w3.org/2000/01/rdf-schema#comment
p1276
aVhttp://dbpedia.org/property/data
p1277
aVhttp://dbpedia.org/property/rd1t1Loc
p1278
aVhttp://dbpedia.org/property/rd3t1Loc
p1279
aVhttp://dbpedia.org/property/officelocation
p1280
aVhttp://dbpedia.org/property/imageFlag
p1281
aVhttp://dbpedia.org/property/remit
p1282
aVhttp://dbpedia.org/property/regionServed
p1283
aVhttp://dbpedia.org/ontology/builder
p1284
aVhttp://dbpedia.org/property/thirdOther
p1285
aVhttp://dbpedia.org/ontology/locationCity
p1286
aVhttp://dbpedia.org/ontology/product
p1287
aVhttp://dbpedia.org/ontology/occupation
p1288
asI2
(lp1289
Vhttp://www.w3.org/2000/01/rdf-schema#seeAlso
p1290
aVhttp://dbpedia.org/property/placeOfDeath
p1291
aVhttp://dbpedia.org/property/ground
p1292
aVhttp://dbpedia.org/ontology/origin
p1293
aVhttp://dbpedia.org/property/residence
p1294
aVhttp://dbpedia.org/property/otherCountries
p1295
aVhttp://dbpedia.org/ontology/regionServed
p1296
aVhttp://dbpedia.org/ontology/country
p1297
aVhttp://dbpedia.org/property/locationCountry
p1298
aVhttp://dbpedia.org/property/allegiance
p1299
aVhttp://dbpedia.org/ontology/ground
p1300
aVhttp://dbpedia.org/ontology/nationality
p1301
aVhttp://dbpedia.org/property/birthPlace
p1302
aVhttp://dbpedia.org/ontology/place
p1303
aVhttp://dbpedia.org/property/nationalOrigin
p1304
aVhttp://dbpedia.org/property/nationality
p1305
aVhttp://dbpedia.org/property/country
p1306
aVhttp://dbpedia.org/property/shipCountry
p1307
aVhttp://dbpedia.org/property/areaServed
p1308
aVhttp://dbpedia.org/property/placeOfBirth
p1309
aVhttp://dbpedia.org/property/regionalScenes
p1310
aVhttp://dbpedia.org/ontology/populationPlace
p1311
aVhttp://dbpedia.org/ontology/residence
p1312
aVhttp://dbpedia.org/ontology/abstract
p1313
aVhttp://dbpedia.org/ontology/recordedIn
p1314
aVhttp://dbpedia.org/property/deathPlace
p1315
aVhttp://dbpedia.org/property/location
p1316
aVhttp://dbpedia.org/property/states
p1317
aVhttp://dbpedia.org/ontology/locationCountry
p1318
aVhttp://dbpedia.org/property/shortDescription
p1319
aVhttp://dbpedia.org/ontology/deathPlace
p1320
aVhttp://dbpedia.org/ontology/city
p1321
aVhttp://dbpedia.org/property/subdivisionName
p1322
aVhttp://dbpedia.org/ontology/sourceCountry
p1323
aVhttp://dbpedia.org/property/headquarters
p1324
aVhttp://dbpedia.org/property/basinCountries
p1325
aVhttp://dbpedia.org/property/currencyCode
p1326
aVhttp://dbpedia.org/ontology/location
p1327
aVhttp://dbpedia.org/ontology/birthPlace
p1328
aVhttp://dbpedia.org/ontology/citizenship
p1329
aVhttp://dbpedia.org/ontology/hometown
p1330
aVhttp://dbpedia.org/ontology/spokenIn
p1331
aVhttp://dbpedia.org/property/regionServed
p1332
aVhttp://dbpedia.org/ontology/stateOfOrigin
p1333
aVhttp://dbpedia.org/ontology/headquarter
p1334
asI3
(lp1335
Vhttp://dbpedia.org/property/origin
p1336
aVhttp://dbpedia.org/property/placeOfDeath
p1337
aVhttp://dbpedia.org/ontology/type
p1338
aVhttp://dbpedia.org/property/sourceCountry
p1339
aVhttp://dbpedia.org/property/awardedBy
p1340
aVhttp://dbpedia.org/property/cctld
p1341
aVhttp://dbpedia.org/property/nearestTown
p1342
aVhttp://dbpedia.org/ontology/mouthCountry
p1343
aVhttp://dbpedia.org/property/locations
p1344
aVhttp://dbpedia.org/property/city
p1345
aVhttp://dbpedia.org/ontology/garrison
p1346
aVhttp://dbpedia.org/property/sovereigntyType
p1347
aVhttp://www.w3.org/ns/prov#wasDerivedFrom
p1348
aVhttp://dbpedia.org/property/awards
p1349
aVhttp://dbpedia.org/property/territory
p1350
aVhttp://dbpedia.org/ontology/demonym
p1351
aVhttp://dbpedia.org/property/members
p1352
aVhttp://dbpedia.org/ontology/regionServed
p1353
aVhttp://dbpedia.org/property/serviceArea
p1354
aVhttp://dbpedia.org/property/firstRun
p1355
aVhttp://dbpedia.org/property/broadcastArea
p1356
aVhttp://dbpedia.org/property/assembly
p1357
aVhttp://dbpedia.org/ontology/nationality
p1358
aVhttp://dbpedia.org/property/country/region
p1359
aVhttp://dbpedia.org/property/shortDescription
p1360
aVhttp://xmlns.com/foaf/0.1/isPrimaryTopicOf
p1361
aVhttp://dbpedia.org/property/hometown
p1362
aVhttp://dbpedia.org/property/panPlace
p1363
aVhttp://dbpedia.org/property/meetingPlace
p1364
aVhttp://dbpedia.org/property/establishedEvent
p1365
aVhttp://dbpedia.org/property/regionalScenes
p1366
aVhttp://dbpedia.org/property/primaryUser
p1367
aVhttp://dbpedia.org/ontology/residence
p1368
aVhttp://dbpedia.org/ontology/abstract
p1369
aVhttp://dbpedia.org/ontology/recordedIn
p1370
aVhttp://dbpedia.org/property/venue
p1371
aVhttp://dbpedia.org/property/observedby
p1372
aVhttp://dbpedia.org/property/nationalOrigin
p1373
aVhttp://dbpedia.org/property/foundation
p1374
aVhttp://dbpedia.org/property/imageMap
p1375
aVhttp://dbpedia.org/ontology/location
p1376
aVhttp://dbpedia.org/property/countries
p1377
aVhttp://dbpedia.org/property/countriesAffected
p1378
aVhttp://dbpedia.org/ontology/wikiPageExternalLink
p1379
aVhttp://dbpedia.org/property/factory
p1380
aVhttp://dbpedia.org/property/placeOfBirth
p1381
aVhttp://dbpedia.org/property/area
p1382
aVhttp://dbpedia.org/ontology/hometown
p1383
aVhttp://dbpedia.org/ontology/restingPlace
p1384
aVhttp://dbpedia.org/ontology/spokenIn
p1385
aVhttp://dbpedia.org/property/altFlag
p1386
aVhttp://dbpedia.org/property/jurisdiction
p1387
aVhttp://dbpedia.org/property/leaderTitle
p1388
aVhttp://www.w3.org/2000/01/rdf-schema#seeAlso
p1389
aVhttp://dbpedia.org/property/currency
p1390
aVhttp://dbpedia.org/ontology/wikiPageRedirects
p1391
aVhttp://dbpedia.org/property/birthDate
p1392
aVhttp://dbpedia.org/property/hostCity
p1393
aVhttp://dbpedia.org/ontology/foundationPlace
p1394
aVhttp://dbpedia.org/property/winnerOrigin
p1395
aVhttp://dbpedia.org/property/patronage
p1396
aVhttp://dbpedia.org/property/mouthCountry
p1397
aVhttp://dbpedia.org/property/1rpt2Loc
p1398
aVhttp://dbpedia.org/property/legislature
p1399
aVhttp://dbpedia.org/ontology/locatedInArea
p1400
aVhttp://dbpedia.org/property/province
p1401
aVhttp://dbpedia.org/property/label
p1402
aVhttp://dbpedia.org/ontology/country
p1403
aVhttp://dbpedia.org/property/region
p1404
aVhttp://dbpedia.org/property/nationalAnthem
p1405
aVhttp://dbpedia.org/property/destinations
p1406
aVhttp://dbpedia.org/property/home
p1407
aVhttp://dbpedia.org/property/birthPlace
p1408
aVhttp://dbpedia.org/property/bankOf
p1409
aVhttp://dbpedia.org/property/possessions
p1410
aVhttp://dbpedia.org/property/country
p1411
aVhttp://dbpedia.org/ontology/billed
p1412
aVhttp://dbpedia.org/property/hqLocationCountry
p1413
aVhttp://dbpedia.org/property/areaServed
p1414
aVhttp://dbpedia.org/property/areasAffected
p1415
aVhttp://dbpedia.org/ontology/county
p1416
aVhttp://xmlns.com/foaf/0.1/primaryTopic
p1417
aVhttp://dbpedia.org/property/county
p1418
aVhttp://dbpedia.org/property/diaspora
p1419
aVhttp://dbpedia.org/ontology/successor
p1420
aVhttp://dbpedia.org/ontology/firstDriverCountry
p1421
aVhttp://dbpedia.org/property/location
p1422
aVhttp://dbpedia.org/property/states
p1423
aVhttp://dbpedia.org/ontology/division
p1424
aVhttp://dbpedia.org/ontology/locationCountry
p1425
aVhttp://dbpedia.org/ontology/deathPlace
p1426
aVhttp://dbpedia.org/property/hasPhotoCollection
p1427
aVhttp://dbpedia.org/ontology/territory
p1428
aVhttp://dbpedia.org/property/headquarters
p1429
aVhttp://dbpedia.org/property/countryName
p1430
aVhttp://dbpedia.org/ontology/anthem
p1431
aVhttp://dbpedia.org/ontology/birthPlace
p1432
aVhttp://dbpedia.org/property/1rpt1Loc
p1433
aVhttp://dbpedia.org/ontology/builder
p1434
aVhttp://dbpedia.org/property/citizenship
p1435
aVhttp://xmlns.com/foaf/0.1/homepage
p1436
aVhttp://dbpedia.org/property/host
p1437
aVhttp://dbpedia.org/ontology/stateOfOrigin
p1438
aVhttp://www.w3.org/2002/07/owl#sameAs
p1439
aVhttp://dbpedia.org/property/areas
p1440
aVhttp://dbpedia.org/property/stadium
p1441
aVhttp://dbpedia.org/property/recorded
p1442
aVhttp://dbpedia.org/ontology/origin
p1443
aVhttp://dbpedia.org/ontology/currency
p1444
aVhttp://dbpedia.org/property/rd1t2Loc
p1445
aVhttp://dbpedia.org/property/residence
p1446
aVhttp://dbpedia.org/property/altMap
p1447
aVhttp://dbpedia.org/property/capital
p1448
aVhttp://dbpedia.org/property/billed
p1449
aVhttp://www.w3.org/1999/02/22-rdf-syntax-ns#type
p1450
aVhttp://dbpedia.org/property/homecountry
p1451
aVhttp://dbpedia.org/ontology/capital
p1452
aVhttp://dbpedia.org/property/locationCountry
p1453
aVhttp://dbpedia.org/property/majorShrine
p1454
aVhttp://dbpedia.org/ontology/ground
p1455
aVhttp://dbpedia.org/property/lowerHouse
p1456
aVhttp://dbpedia.org/ontology/ethnicGroup
p1457
aVhttp://dbpedia.org/property/locationSigned
p1458
aVhttp://dbpedia.org/property/nativeName
p1459
aVhttp://dbpedia.org/property/shipCountry
p1460
aVhttp://dbpedia.org/property/locationTown
p1461
aVhttp://dbpedia.org/property/foundedDate
p1462
aVhttp://xmlns.com/foaf/0.1/depiction
p1463
aVhttp://dbpedia.org/ontology/usingCountry
p1464
aVhttp://dbpedia.org/property/church
p1465
aVhttp://dbpedia.org/property/fightingOutOf
p1466
aVhttp://dbpedia.org/ontology/thumbnail
p1467
aVhttp://dbpedia.org/property/countryOfProduction
p1468
aVhttp://dbpedia.org/ontology/city
p1469
aVhttp://dbpedia.org/ontology/flag
p1470
aVhttp://dbpedia.org/property/commonName
p1471
aVhttp://dbpedia.org/property/subdivisionName
p1472
aVhttp://dbpedia.org/property/rd1t3Loc
p1473
aVhttp://dbpedia.org/property/popplace
p1474
aVhttp://dbpedia.org/property/address
p1475
aVhttp://dbpedia.org/property/destination
p1476
aVhttp://dbpedia.org/property/locationCity
p1477
aVhttp://dbpedia.org/property/founded
p1478
aVhttp://dbpedia.org/ontology/destination
p1479
aVhttp://dbpedia.org/property/imageFlag
p1480
aVhttp://dbpedia.org/property/designation1Free1value
p1481
aVhttp://dbpedia.org/property/ground
p1482
aVhttp://dbpedia.org/property/usingJurisdiction
p1483
aVhttp://dbpedia.org/property/place
p1484
aVhttp://dbpedia.org/ontology/citizenship
p1485
aVhttp://dbpedia.org/ontology/jurisdiction
p1486
aVhttp://dbpedia.org/property/caption
p1487
aVhttp://dbpedia.org/ontology/thirdDriverCountry
p1488
aVhttp://www.w3.org/2002/07/owl#differentFrom
p1489
aVhttp://dbpedia.org/property/2rpt1Loc
p1490
aVhttp://dbpedia.org/property/upperHouse
p1491
aVhttp://dbpedia.org/property/allegiance
p1492
aVhttp://dbpedia.org/property/site
p1493
aVhttp://dbpedia.org/property/available
p1494
aVhttp://dbpedia.org/ontology/place
p1495
aVhttp://dbpedia.org/property/office
p1496
aVhttp://dbpedia.org/property/nationality
p1497
aVhttp://dbpedia.org/property/foundedPlace
p1498
aVhttp://dbpedia.org/property/callingCode
p1499
aVhttp://dbpedia.org/property/rd1t4Loc
p1500
aVhttp://dbpedia.org/ontology/wikiPageDisambiguates
p1501
aVhttp://purl.org/dc/terms/subject
p1502
aVhttp://dbpedia.org/ontology/populationPlace
p1503
aVhttp://dbpedia.org/property/rd2t2Loc
p1504
aVhttp://dbpedia.org/property/state
p1505
aVhttp://dbpedia.org/property/deathPlace
p1506
aVhttp://dbpedia.org/property/otherCountries
p1507
aVhttp://dbpedia.org/ontology/headquarter
p1508
aVhttp://dbpedia.org/property/fifaTrigramme
p1509
aVhttp://www.w3.org/2000/01/rdf-schema#label
p1510
aVhttp://dbpedia.org/ontology/sourceCountry
p1511
aVhttp://dbpedia.org/ontology/broadcastArea
p1512
aVhttp://dbpedia.org/property/locale
p1513
aVhttp://dbpedia.org/property/basinCountries
p1514
aVhttp://dbpedia.org/property/currencyCode
p1515
aVhttp://dbpedia.org/property/garrison
p1516
aVhttp://dbpedia.org/ontology/assembly
p1517
aVhttp://dbpedia.org/property/rd2t1Loc
p1518
aVhttp://www.w3.org/2000/01/rdf-schema#comment
p1519
aVhttp://dbpedia.org/property/data
p1520
aVhttp://dbpedia.org/property/rd1t1Loc
p1521
aVhttp://dbpedia.org/property/rd3t1Loc
p1522
aVhttp://dbpedia.org/property/officelocation
p1523
aVhttp://dbpedia.org/property/demonym
p1524
aVhttp://dbpedia.org/property/remit
p1525
aVhttp://dbpedia.org/property/regionServed
p1526
aVhttp://xmlns.com/foaf/0.1/name
p1527
aVhttp://dbpedia.org/property/thirdOther
p1528
aVhttp://dbpedia.org/ontology/locationCity
p1529
aVhttp://dbpedia.org/ontology/product
p1530
aVhttp://dbpedia.org/ontology/occupation
p1531
assI10
(dp1532
I1
(lp1533
Vhttp://dbpedia.org/property/origin
p1534
aVhttp://dbpedia.org/property/cctld
p1535
aVhttp://dbpedia.org/ontology/garrison
p1536
aVhttp://dbpedia.org/property/sovereigntyType
p1537
aVhttp://www.w3.org/ns/prov#wasDerivedFrom
p1538
aVhttp://dbpedia.org/property/territory
p1539
aVhttp://dbpedia.org/ontology/demonym
p1540
aVhttp://dbpedia.org/ontology/regionServed
p1541
aVhttp://dbpedia.org/property/religion
p1542
aVhttp://dbpedia.org/property/empire
p1543
aVhttp://dbpedia.org/property/broadcastArea
p1544
aVhttp://dbpedia.org/property/patronSaint
p1545
aVhttp://dbpedia.org/ontology/nationality
p1546
aVhttp://xmlns.com/foaf/0.1/isPrimaryTopicOf
p1547
aVhttp://dbpedia.org/property/hometown
p1548
aVhttp://dbpedia.org/property/rallybase
p1549
aVhttp://dbpedia.org/property/meetingPlace
p1550
aVhttp://dbpedia.org/property/establishedEvent
p1551
aVhttp://dbpedia.org/property/nationality
p1552
aVhttp://dbpedia.org/ontology/abstract
p1553
aVhttp://dbpedia.org/ontology/recordedIn
p1554
aVhttp://dbpedia.org/property/shipNamesake
p1555
aVhttp://dbpedia.org/property/nationalOrigin
p1556
aVhttp://dbpedia.org/property/diocese
p1557
aVhttp://dbpedia.org/property/imageMap
p1558
aVhttp://dbpedia.org/property/shipBuilder
p1559
aVhttp://dbpedia.org/ontology/location
p1560
aVhttp://dbpedia.org/property/area
p1561
aVhttp://dbpedia.org/ontology/hometown
p1562
aVhttp://dbpedia.org/property/bankOf
p1563
aVhttp://dbpedia.org/ontology/spokenIn
p1564
aVhttp://dbpedia.org/property/jurisdiction
p1565
aVhttp://dbpedia.org/property/builders
p1566
aVhttp://www.w3.org/2000/01/rdf-schema#seeAlso
p1567
aVhttp://dbpedia.org/ontology/wikiPageExternalLink
p1568
aVhttp://dbpedia.org/property/hostCity
p1569
aVhttp://dbpedia.org/property/conventionalLongName
p1570
aVhttp://dbpedia.org/ontology/foundationPlace
p1571
aVhttp://dbpedia.org/ontology/officialLanguage
p1572
aVhttp://dbpedia.org/ontology/country
p1573
aVhttp://dbpedia.org/property/region
p1574
aVhttp://dbpedia.org/ontology/locationCountry
p1575
aVhttp://dbpedia.org/property/birthPlace
p1576
aVhttp://dbpedia.org/property/country
p1577
aVhttp://dbpedia.org/property/nation
p1578
aVhttp://dbpedia.org/property/areaServed
p1579
aVhttp://dbpedia.org/ontology/county
p1580
aVhttp://xmlns.com/foaf/0.1/primaryTopic
p1581
aVhttp://dbpedia.org/property/states
p1582
aVhttp://dbpedia.org/ontology/builder
p1583
aVhttp://dbpedia.org/ontology/deathPlace
p1584
aVhttp://dbpedia.org/property/hasPhotoCollection
p1585
aVhttp://dbpedia.org/property/headquarters
p1586
aVhttp://dbpedia.org/property/countryName
p1587
aVhttp://dbpedia.org/property/leaderTitle
p1588
aVhttp://dbpedia.org/ontology/birthPlace
p1589
aVhttp://dbpedia.org/ontology/wikiPageRedirects
p1590
aVhttp://www.w3.org/2004/02/skos/core#exactMatch
p1591
aVhttp://dbpedia.org/property/imageCoat
p1592
aVhttp://xmlns.com/foaf/0.1/homepage
p1593
aVhttp://dbpedia.org/property/garrison
p1594
aVhttp://dbpedia.org/property/south
p1595
aVhttp://dbpedia.org/ontology/origin
p1596
aVhttp://dbpedia.org/ontology/longName
p1597
aVhttp://dbpedia.org/property/reason
p1598
aVhttp://www.w3.org/1999/02/22-rdf-syntax-ns#type
p1599
aVhttp://dbpedia.org/property/bronze
p1600
aVhttp://dbpedia.org/property/locationCountry
p1601
aVhttp://dbpedia.org/property/title
p1602
aVhttp://dbpedia.org/property/placeOfBirth
p1603
aVhttp://dbpedia.org/property/ideology
p1604
aVhttp://xmlns.com/foaf/0.1/depiction
p1605
aVhttp://dbpedia.org/ontology/usingCountry
p1606
aVhttp://dbpedia.org/ontology/thumbnail
p1607
aVhttp://dbpedia.org/ontology/flag
p1608
aVhttp://dbpedia.org/property/subdivisionName
p1609
aVhttp://dbpedia.org/ontology/homeport
p1610
aVhttp://dbpedia.org/property/popplace
p1611
aVhttp://dbpedia.org/property/imageFlag
p1612
aVhttp://dbpedia.org/property/stadium
p1613
aVhttp://dbpedia.org/property/place
p1614
aVhttp://dbpedia.org/ontology/jurisdiction
p1615
aVhttp://dbpedia.org/property/caption
p1616
aVhttp://dbpedia.org/property/site
p1617
aVhttp://dbpedia.org/ontology/place
p1618
aVhttp://dbpedia.org/property/counties
p1619
aVhttp://dbpedia.org/property/demonym
p1620
aVhttp://dbpedia.org/ontology/wikiPageDisambiguates
p1621
aVhttp://dbpedia.org/ontology/ideology
p1622
aVhttp://purl.org/dc/terms/subject
p1623
aVhttp://dbpedia.org/ontology/populationPlace
p1624
aVhttp://dbpedia.org/property/location
p1625
aVhttp://dbpedia.org/property/armiger
p1626
aVhttp://dbpedia.org/ontology/headquarter
p1627
aVhttp://dbpedia.org/ontology/similar
p1628
aVhttp://dbpedia.org/ontology/language
p1629
aVhttp://dbpedia.org/ontology/broadcastArea
p1630
aVhttp://dbpedia.org/property/locale
p1631
aVhttp://dbpedia.org/property/basinCountries
p1632
aVhttp://dbpedia.org/property/asianPlace
p1633
aVhttp://www.w3.org/2000/01/rdf-schema#comment
p1634
aVhttp://dbpedia.org/property/seat
p1635
aVhttp://dbpedia.org/property/callingCode
p1636
aVhttp://www.w3.org/2002/07/owl#sameAs
p1637
aVhttp://dbpedia.org/property/observedby
p1638
asI2
(lp1639
Vhttp://www.w3.org/2000/01/rdf-schema#seeAlso
p1640
aVhttp://dbpedia.org/property/currency
p1641
aVhttp://dbpedia.org/property/rd2t6Loc
p1642
aVhttp://dbpedia.org/property/ground
p1643
aVhttp://dbpedia.org/property/2rpt2Loc
p1644
aVhttp://dbpedia.org/ontology/currency
p1645
aVhttp://dbpedia.org/property/membership
p1646
aVhttp://dbpedia.org/property/place
p1647
aVhttp://dbpedia.org/property/hostcity
p1648
aVhttp://dbpedia.org/property/footnoteA
p1649
aVhttp://dbpedia.org/property/rd2t3Loc
p1650
aVhttp://dbpedia.org/ontology/regionServed
p1651
aVhttp://dbpedia.org/ontology/country
p1652
aVhttp://dbpedia.org/property/returns
p1653
aVhttp://www.w3.org/1999/02/22-rdf-syntax-ns#type
p1654
aVhttp://dbpedia.org/property/2rpt1Loc
p1655
aVhttp://dbpedia.org/property/hostCity
p1656
aVhttp://dbpedia.org/property/rd1t2Loc
p1657
aVhttp://dbpedia.org/ontology/ground
p1658
aVhttp://dbpedia.org/property/timeZone
p1659
aVhttp://dbpedia.org/property/birthPlace
p1660
aVhttp://dbpedia.org/property/placeOfBirth
p1661
aVhttp://dbpedia.org/property/text
p1662
aVhttp://dbpedia.org/property/country
p1663
aVhttp://dbpedia.org/property/areaServed
p1664
aVhttp://dbpedia.org/ontology/wikiPageExternalLink
p1665
aVhttp://dbpedia.org/property/rd0t1Loc
p1666
aVhttp://purl.org/dc/terms/subject
p1667
aVhttp://dbpedia.org/property/origin
p1668
aVhttp://dbpedia.org/property/rd2t2Loc
p1669
aVhttp://dbpedia.org/ontology/abstract
p1670
aVhttp://dbpedia.org/property/rd1t8Loc
p1671
aVhttp://dbpedia.org/property/venue
p1672
aVhttp://dbpedia.org/property/location
p1673
aVhttp://dbpedia.org/ontology/builder
p1674
aVhttp://dbpedia.org/property/rd3t2Loc
p1675
aVhttp://dbpedia.org/property/timeZoneDst
p1676
aVhttp://dbpedia.org/property/rd2t4Loc
p1677
aVhttp://dbpedia.org/ontology/city
p1678
aVhttp://dbpedia.org/property/rd2t1Loc
p1679
aVhttp://dbpedia.org/ontology/sourceCountry
p1680
aVhttp://dbpedia.org/property/headquarters
p1681
aVhttp://dbpedia.org/property/basinCountries
p1682
aVhttp://dbpedia.org/property/currencyCode
p1683
aVhttp://dbpedia.org/property/shipBuilder
p1684
aVhttp://dbpedia.org/ontology/location
p1685
aVhttp://www.w3.org/2000/01/rdf-schema#comment
p1686
aVhttp://dbpedia.org/ontology/timeZone
p1687
aVhttp://dbpedia.org/ontology/birthPlace
p1688
aVhttp://dbpedia.org/property/countries
p1689
aVhttp://dbpedia.org/property/rd1t3Loc
p1690
aVhttp://dbpedia.org/ontology/hometown
p1691
aVhttp://dbpedia.org/property/rd3t1Loc
p1692
aVhttp://www.w3.org/2004/02/skos/core#exactMatch
p1693
aVhttp://dbpedia.org/property/stadium
p1694
aVhttp://www.w3.org/2002/07/owl#sameAs
p1695
aVhttp://dbpedia.org/ontology/headquarter
p1696
asI3
(lp1697
Vhttp://dbpedia.org/property/origin
p1698
aVhttp://dbpedia.org/property/cctld
p1699
aVhttp://dbpedia.org/ontology/garrison
p1700
aVhttp://dbpedia.org/property/sovereigntyType
p1701
aVhttp://www.w3.org/ns/prov#wasDerivedFrom
p1702
aVhttp://dbpedia.org/property/territory
p1703
aVhttp://dbpedia.org/ontology/demonym
p1704
aVhttp://dbpedia.org/ontology/regionServed
p1705
aVhttp://dbpedia.org/property/religion
p1706
aVhttp://dbpedia.org/property/empire
p1707
aVhttp://dbpedia.org/property/broadcastArea
p1708
aVhttp://dbpedia.org/property/patronSaint
p1709
aVhttp://dbpedia.org/ontology/nationality
p1710
aVhttp://xmlns.com/foaf/0.1/isPrimaryTopicOf
p1711
aVhttp://dbpedia.org/property/hometown
p1712
aVhttp://dbpedia.org/property/rallybase
p1713
aVhttp://dbpedia.org/property/diocese
p1714
aVhttp://dbpedia.org/property/meetingPlace
p1715
aVhttp://dbpedia.org/property/establishedEvent
p1716
aVhttp://dbpedia.org/property/nationality
p1717
aVhttp://dbpedia.org/ontology/abstract
p1718
aVhttp://dbpedia.org/ontology/recordedIn
p1719
aVhttp://dbpedia.org/property/shipNamesake
p1720
aVhttp://dbpedia.org/property/nationalOrigin
p1721
aVhttp://dbpedia.org/property/officialLanguages
p1722
aVhttp://dbpedia.org/property/imageMap
p1723
aVhttp://dbpedia.org/property/shipBuilder
p1724
aVhttp://dbpedia.org/ontology/location
p1725
aVhttp://dbpedia.org/property/area
p1726
aVhttp://dbpedia.org/ontology/hometown
p1727
aVhttp://dbpedia.org/property/bankOf
p1728
aVhttp://dbpedia.org/ontology/spokenIn
p1729
aVhttp://dbpedia.org/property/jurisdiction
p1730
aVhttp://dbpedia.org/property/builders
p1731
aVhttp://www.w3.org/2000/01/rdf-schema#seeAlso
p1732
aVhttp://dbpedia.org/ontology/wikiPageExternalLink
p1733
aVhttp://dbpedia.org/property/hostCity
p1734
aVhttp://dbpedia.org/property/conventionalLongName
p1735
aVhttp://dbpedia.org/ontology/foundationPlace
p1736
aVhttp://dbpedia.org/ontology/officialLanguage
p1737
aVhttp://dbpedia.org/ontology/country
p1738
aVhttp://dbpedia.org/property/region
p1739
aVhttp://dbpedia.org/property/nationalAnthem
p1740
aVhttp://dbpedia.org/ontology/locationCountry
p1741
aVhttp://dbpedia.org/property/birthPlace
p1742
aVhttp://dbpedia.org/property/country
p1743
aVhttp://dbpedia.org/property/nation
p1744
aVhttp://dbpedia.org/property/areaServed
p1745
aVhttp://dbpedia.org/ontology/county
p1746
aVhttp://xmlns.com/foaf/0.1/primaryTopic
p1747
aVhttp://dbpedia.org/property/states
p1748
aVhttp://dbpedia.org/ontology/builder
p1749
aVhttp://dbpedia.org/ontology/deathPlace
p1750
aVhttp://dbpedia.org/property/hasPhotoCollection
p1751
aVhttp://dbpedia.org/property/headquarters
p1752
aVhttp://dbpedia.org/property/countryName
p1753
aVhttp://dbpedia.org/property/leaderTitle
p1754
aVhttp://dbpedia.org/ontology/birthPlace
p1755
aVhttp://dbpedia.org/ontology/wikiPageRedirects
p1756
aVhttp://www.w3.org/2004/02/skos/core#exactMatch
p1757
aVhttp://dbpedia.org/property/imageCoat
p1758
aVhttp://xmlns.com/foaf/0.1/homepage
p1759
aVhttp://dbpedia.org/property/garrison
p1760
aVhttp://dbpedia.org/property/south
p1761
aVhttp://dbpedia.org/ontology/origin
p1762
aVhttp://dbpedia.org/ontology/longName
p1763
aVhttp://dbpedia.org/property/reason
p1764
aVhttp://www.w3.org/1999/02/22-rdf-syntax-ns#type
p1765
aVhttp://dbpedia.org/property/bronze
p1766
aVhttp://www.w3.org/2000/01/rdf-schema#label
p1767
aVhttp://dbpedia.org/property/locationCountry
p1768
aVhttp://dbpedia.org/property/title
p1769
aVhttp://dbpedia.org/property/placeOfBirth
p1770
aVhttp://dbpedia.org/property/ideology
p1771
aVhttp://xmlns.com/foaf/0.1/depiction
p1772
aVhttp://dbpedia.org/ontology/usingCountry
p1773
aVhttp://dbpedia.org/ontology/thumbnail
p1774
aVhttp://dbpedia.org/ontology/flag
p1775
aVhttp://dbpedia.org/property/commonName
p1776
aVhttp://dbpedia.org/property/subdivisionName
p1777
aVhttp://dbpedia.org/ontology/homeport
p1778
aVhttp://dbpedia.org/property/popplace
p1779
aVhttp://dbpedia.org/property/imageFlag
p1780
aVhttp://dbpedia.org/property/stadium
p1781
aVhttp://dbpedia.org/property/place
p1782
aVhttp://dbpedia.org/ontology/jurisdiction
p1783
aVhttp://dbpedia.org/property/caption
p1784
aVhttp://dbpedia.org/property/site
p1785
aVhttp://dbpedia.org/ontology/place
p1786
aVhttp://dbpedia.org/property/counties
p1787
aVhttp://dbpedia.org/property/callingCode
p1788
aVhttp://dbpedia.org/ontology/wikiPageDisambiguates
p1789
aVhttp://dbpedia.org/ontology/ideology
p1790
aVhttp://purl.org/dc/terms/subject
p1791
aVhttp://dbpedia.org/ontology/populationPlace
p1792
aVhttp://dbpedia.org/property/location
p1793
aVhttp://dbpedia.org/property/armiger
p1794
aVhttp://dbpedia.org/ontology/headquarter
p1795
aVhttp://dbpedia.org/ontology/similar
p1796
aVhttp://dbpedia.org/ontology/language
p1797
aVhttp://dbpedia.org/ontology/broadcastArea
p1798
aVhttp://dbpedia.org/property/locale
p1799
aVhttp://dbpedia.org/property/basinCountries
p1800
aVhttp://dbpedia.org/property/asianPlace
p1801
aVhttp://www.w3.org/2000/01/rdf-schema#comment
p1802
aVhttp://dbpedia.org/property/seat
p1803
aVhttp://dbpedia.org/property/demonym
p1804
aVhttp://www.w3.org/2002/07/owl#sameAs
p1805
aVhttp://xmlns.com/foaf/0.1/name
p1806
aVhttp://dbpedia.org/property/observedby
p1807
assI11
(dp1808
I1
(lp1809
Vhttp://www.w3.org/2000/01/rdf-schema#seeAlso
p1810
aVhttp://dbpedia.org/property/origin
p1811
aVhttp://dbpedia.org/ontology/wikiPageRedirects
p1812
aVhttp://dbpedia.org/property/recorded
p1813
aVhttp://dbpedia.org/property/cctld
p1814
aVhttp://dbpedia.org/ontology/foundationPlace
p1815
aVhttp://dbpedia.org/property/base
p1816
aVhttp://dbpedia.org/ontology/country
p1817
aVhttp://dbpedia.org/ontology/nationality
p1818
aVhttp://dbpedia.org/property/locationCountry
p1819
aVhttp://dbpedia.org/property/broadcastArea
p1820
aVhttp://dbpedia.org/property/birthPlace
p1821
aVhttp://dbpedia.org/property/availability
p1822
aVhttp://dbpedia.org/ontology/isPartOf
p1823
aVhttp://dbpedia.org/property/source
p1824
aVhttp://dbpedia.org/ontology/deathPlace
p1825
aVhttp://dbpedia.org/ontology/place
p1826
aVhttp://dbpedia.org/property/placeOfBirth
p1827
aVhttp://dbpedia.org/property/countryCode
p1828
aVhttp://dbpedia.org/property/country
p1829
aVhttp://dbpedia.org/property/shipCountry
p1830
aVhttp://dbpedia.org/ontology/wikiPageDisambiguates
p1831
aVhttp://dbpedia.org/ontology/wikiPageExternalLink
p1832
aVhttp://dbpedia.org/property/nationality
p1833
aVhttp://dbpedia.org/ontology/abstract
p1834
aVhttp://dbpedia.org/ontology/recordedIn
p1835
aVhttp://dbpedia.org/property/deathPlace
p1836
aVhttp://dbpedia.org/property/location
p1837
aVhttp://dbpedia.org/ontology/locationCountry
p1838
aVhttp://dbpedia.org/property/id
p1839
aVhttp://dbpedia.org/property/foundation
p1840
aVhttp://dbpedia.org/property/usedBy
p1841
aVhttp://dbpedia.org/property/subdivisionName
p1842
aVhttp://dbpedia.org/property/headquarters
p1843
aVhttp://dbpedia.org/ontology/location
p1844
aVhttp://www.w3.org/2000/01/rdf-schema#comment
p1845
aVhttp://dbpedia.org/ontology/birthPlace
p1846
aVhttp://dbpedia.org/ontology/builder
p1847
aVhttp://dbpedia.org/ontology/hometown
p1848
aVhttp://www.w3.org/2004/02/skos/core#exactMatch
p1849
aVhttp://dbpedia.org/property/stadium
p1850
aVhttp://xmlns.com/foaf/0.1/homepage
p1851
aVhttp://dbpedia.org/ontology/stateOfOrigin
p1852
aVhttp://www.w3.org/2002/07/owl#sameAs
p1853
aVhttp://dbpedia.org/ontology/headquarter
p1854
asI2
(lp1855
Vhttp://www.w3.org/2000/01/rdf-schema#seeAlso
p1856
aVhttp://dbpedia.org/property/currency
p1857
aVhttp://dbpedia.org/property/rd2t4Loc
p1858
aVhttp://dbpedia.org/property/ground
p1859
aVhttp://dbpedia.org/property/2rpt2Loc
p1860
aVhttp://dbpedia.org/ontology/currency
p1861
aVhttp://dbpedia.org/property/membership
p1862
aVhttp://dbpedia.org/ontology/foundationPlace
p1863
aVhttp://dbpedia.org/property/residence
p1864
aVhttp://dbpedia.org/property/hostcity
p1865
aVhttp://dbpedia.org/property/placeOfDeath
p1866
aVhttp://dbpedia.org/property/foundation
p1867
aVhttp://dbpedia.org/property/footnoteC
p1868
aVhttp://dbpedia.org/property/rd2t3Loc
p1869
aVhttp://dbpedia.org/property/footnoteE
p1870
aVhttp://dbpedia.org/property/footnoteD
p1871
aVhttp://dbpedia.org/property/footnoteG
p1872
aVhttp://dbpedia.org/ontology/regionServed
p1873
aVhttp://dbpedia.org/ontology/country
p1874
aVhttp://dbpedia.org/property/returns
p1875
aVhttp://www.w3.org/1999/02/22-rdf-syntax-ns#type
p1876
aVhttp://dbpedia.org/property/locationCountry
p1877
aVhttp://dbpedia.org/property/hostCity
p1878
aVhttp://dbpedia.org/property/rd1t5Loc
p1879
aVhttp://dbpedia.org/property/birthPlace
p1880
aVhttp://dbpedia.org/ontology/ground
p1881
aVhttp://dbpedia.org/property/withdraws
p1882
aVhttp://dbpedia.org/ontology/nationality
p1883
aVhttp://dbpedia.org/ontology/deathPlace
p1884
aVhttp://dbpedia.org/property/text
p1885
aVhttp://dbpedia.org/ontology/ethnicGroup
p1886
aVhttp://dbpedia.org/property/allegiance
p1887
aVhttp://dbpedia.org/property/locationSigned
p1888
aVhttp://dbpedia.org/property/country
p1889
aVhttp://dbpedia.org/property/countries
p1890
aVhttp://dbpedia.org/property/areaServed
p1891
aVhttp://dbpedia.org/property/placeOfBirth
p1892
aVhttp://dbpedia.org/ontology/wikiPageExternalLink
p1893
aVhttp://purl.org/dc/terms/subject
p1894
aVhttp://dbpedia.org/ontology/populationPlace
p1895
aVhttp://dbpedia.org/property/origin
p1896
aVhttp://dbpedia.org/property/rd2t1Loc
p1897
aVhttp://dbpedia.org/property/foundedDate
p1898
aVhttp://dbpedia.org/ontology/residence
p1899
aVhttp://dbpedia.org/ontology/abstract
p1900
aVhttp://dbpedia.org/property/venue
p1901
aVhttp://dbpedia.org/property/location
p1902
aVhttp://dbpedia.org/ontology/locationCountry
p1903
aVhttp://dbpedia.org/property/windance
p1904
aVhttp://dbpedia.org/ontology/headquarter
p1905
aVhttp://dbpedia.org/property/nationality
p1906
aVhttp://dbpedia.org/ontology/city
p1907
aVhttp://dbpedia.org/ontology/routeStart
p1908
aVhttp://dbpedia.org/property/subdivisionName
p1909
aVhttp://dbpedia.org/property/headquarters
p1910
aVhttp://dbpedia.org/ontology/location
p1911
aVhttp://www.w3.org/2000/01/rdf-schema#comment
p1912
aVhttp://dbpedia.org/ontology/timeZone
p1913
aVhttp://dbpedia.org/ontology/birthPlace
p1914
aVhttp://dbpedia.org/property/address
p1915
aVhttp://dbpedia.org/ontology/wikiPageRedirects
p1916
aVhttp://dbpedia.org/ontology/hometown
p1917
aVhttp://www.w3.org/2004/02/skos/core#exactMatch
p1918
aVhttp://dbpedia.org/property/stadium
p1919
aVhttp://dbpedia.org/property/host
p1920
aVhttp://dbpedia.org/ontology/stateOfOrigin
p1921
aVhttp://www.w3.org/2002/07/owl#sameAs
p1922
aVhttp://dbpedia.org/property/timeZoneDst
p1923
asI3
(lp1924
Vhttp://www.w3.org/2000/01/rdf-schema#seeAlso
p1925
aVhttp://dbpedia.org/property/origin
p1926
aVhttp://dbpedia.org/ontology/wikiPageRedirects
p1927
aVhttp://dbpedia.org/property/recorded
p1928
aVhttp://dbpedia.org/property/cctld
p1929
aVhttp://dbpedia.org/ontology/foundationPlace
p1930
aVhttp://dbpedia.org/property/base
p1931
aVhttp://dbpedia.org/ontology/country
p1932
aVhttp://dbpedia.org/ontology/nationality
p1933
aVhttp://dbpedia.org/property/locationCountry
p1934
aVhttp://dbpedia.org/property/broadcastArea
p1935
aVhttp://dbpedia.org/property/birthPlace
p1936
aVhttp://dbpedia.org/property/availability
p1937
aVhttp://dbpedia.org/ontology/isPartOf
p1938
aVhttp://dbpedia.org/property/source
p1939
aVhttp://dbpedia.org/ontology/deathPlace
p1940
aVhttp://dbpedia.org/ontology/place
p1941
aVhttp://dbpedia.org/property/placeOfBirth
p1942
aVhttp://dbpedia.org/property/countryCode
p1943
aVhttp://dbpedia.org/property/country
p1944
aVhttp://dbpedia.org/property/shipCountry
p1945
aVhttp://dbpedia.org/ontology/wikiPageDisambiguates
p1946
aVhttp://dbpedia.org/ontology/wikiPageExternalLink
p1947
aVhttp://dbpedia.org/property/iso3166code
p1948
aVhttp://dbpedia.org/property/nationality
p1949
aVhttp://dbpedia.org/ontology/abstract
p1950
aVhttp://dbpedia.org/ontology/recordedIn
p1951
aVhttp://dbpedia.org/property/deathPlace
p1952
aVhttp://dbpedia.org/property/location
p1953
aVhttp://dbpedia.org/ontology/locationCountry
p1954
aVhttp://dbpedia.org/property/id
p1955
aVhttp://dbpedia.org/property/foundation
p1956
aVhttp://dbpedia.org/property/usedBy
p1957
aVhttp://dbpedia.org/property/subdivisionName
p1958
aVhttp://dbpedia.org/property/headquarters
p1959
aVhttp://dbpedia.org/ontology/location
p1960
aVhttp://www.w3.org/2000/01/rdf-schema#comment
p1961
aVhttp://dbpedia.org/ontology/birthPlace
p1962
aVhttp://dbpedia.org/ontology/builder
p1963
aVhttp://dbpedia.org/ontology/hometown
p1964
aVhttp://www.w3.org/2004/02/skos/core#exactMatch
p1965
aVhttp://dbpedia.org/property/stadium
p1966
aVhttp://xmlns.com/foaf/0.1/homepage
p1967
aVhttp://dbpedia.org/ontology/stateOfOrigin
p1968
aVhttp://www.w3.org/2002/07/owl#sameAs
p1969
aVhttp://dbpedia.org/ontology/headquarter
p1970
ass.