ccollections
defaultdict
p1
(c__builtin__
dict
p2
tRp3
I0
(dp4
I1
(lp5
Vhttp://dbpedia.org/property/origin
p6
aVhttp://dbpedia.org/property/placeOfDeath
p7
aVhttp://dbpedia.org/property/awardedBy
p8
aVhttp://dbpedia.org/property/cctld
p9
aVhttp://dbpedia.org/property/locations
p10
aVhttp://dbpedia.org/property/city
p11
aVhttp://dbpedia.org/ontology/garrison
p12
aVhttp://dbpedia.org/ontology/knownFor
p13
aVhttp://dbpedia.org/property/homeTown
p14
aVhttp://www.w3.org/ns/prov#wasDerivedFrom
p15
aVhttp://dbpedia.org/ontology/fastestDriverCountry
p16
aVhttp://dbpedia.org/property/territory
p17
aVhttp://dbpedia.org/ontology/demonym
p18
aVhttp://dbpedia.org/property/possessions
p19
aVhttp://dbpedia.org/ontology/regionServed
p20
aVhttp://dbpedia.org/property/usingCountries
p21
aVhttp://dbpedia.org/property/parentAgency
p22
aVhttp://dbpedia.org/property/broadcastArea
p23
aVhttp://dbpedia.org/property/assembly
p24
aVhttp://dbpedia.org/ontology/nationality
p25
aVhttp://xmlns.com/foaf/0.1/isPrimaryTopicOf
p26
aVhttp://dbpedia.org/property/hometown
p27
aVhttp://dbpedia.org/property/meetingPlace
p28
aVhttp://dbpedia.org/property/establishedEvent
p29
aVhttp://dbpedia.org/ontology/residence
p30
aVhttp://dbpedia.org/ontology/abstract
p31
aVhttp://dbpedia.org/ontology/recordedIn
p32
aVhttp://dbpedia.org/property/venue
p33
aVhttp://dbpedia.org/property/broadcastAreas
p34
aVhttp://dbpedia.org/property/shipLaidDown
p35
aVhttp://dbpedia.org/property/usedBy
p36
aVhttp://dbpedia.org/property/nationalOrigin
p37
aVhttp://dbpedia.org/ontology/state
p38
aVhttp://dbpedia.org/property/shipBuilder
p39
aVhttp://dbpedia.org/ontology/location
p40
aVhttp://dbpedia.org/property/area
p41
aVhttp://dbpedia.org/ontology/hometown
p42
aVhttp://dbpedia.org/property/bankOf
p43
aVhttp://dbpedia.org/ontology/spokenIn
p44
aVhttp://dbpedia.org/property/jurisdiction
p45
aVhttp://dbpedia.org/property/leaderTitle
p46
aVhttp://www.w3.org/2000/01/rdf-schema#seeAlso
p47
aVhttp://dbpedia.org/property/currency
p48
aVhttp://dbpedia.org/property/conventionalLongName
p49
aVhttp://dbpedia.org/ontology/foundationPlace
p50
aVhttp://dbpedia.org/ontology/poleDriverCountry
p51
aVhttp://dbpedia.org/property/legislature
p52
aVhttp://dbpedia.org/ontology/locatedInArea
p53
aVhttp://dbpedia.org/property/site
p54
aVhttp://dbpedia.org/ontology/country
p55
aVhttp://dbpedia.org/property/region
p56
aVhttp://dbpedia.org/property/nationalAnthem
p57
aVhttp://dbpedia.org/property/birthPlace
p58
aVhttp://dbpedia.org/property/country/region
p59
aVhttp://dbpedia.org/property/origins
p60
aVhttp://dbpedia.org/property/country
p61
aVhttp://dbpedia.org/property/winnerOrigin
p62
aVhttp://dbpedia.org/property/areaServed
p63
aVhttp://dbpedia.org/ontology/wikiPageExternalLink
p64
aVhttp://xmlns.com/foaf/0.1/primaryTopic
p65
aVhttp://dbpedia.org/ontology/firstDriverCountry
p66
aVhttp://dbpedia.org/property/location
p67
aVhttp://dbpedia.org/property/states
p68
aVhttp://dbpedia.org/ontology/division
p69
aVhttp://dbpedia.org/ontology/locationCountry
p70
aVhttp://dbpedia.org/ontology/deathPlace
p71
aVhttp://dbpedia.org/property/hasPhotoCollection
p72
aVhttp://dbpedia.org/ontology/territory
p73
aVhttp://dbpedia.org/property/headquarters
p74
aVhttp://dbpedia.org/property/countryName
p75
aVhttp://dbpedia.org/ontology/anthem
p76
aVhttp://dbpedia.org/ontology/birthPlace
p77
aVhttp://dbpedia.org/ontology/wikiPageRedirects
p78
aVhttp://dbpedia.org/property/citizenship
p79
aVhttp://dbpedia.org/ontology/stateOfOrigin
p80
aVhttp://www.w3.org/2002/07/owl#sameAs
p81
aVhttp://dbpedia.org/property/timeZoneDst
p82
aVhttp://dbpedia.org/ontology/origin
p83
aVhttp://dbpedia.org/ontology/currency
p84
aVhttp://dbpedia.org/property/imageCaption
p85
aVhttp://dbpedia.org/property/residence
p86
aVhttp://dbpedia.org/ontology/longName
p87
aVhttp://dbpedia.org/property/homecountry
p88
aVhttp://dbpedia.org/property/timeZone
p89
aVhttp://dbpedia.org/property/locationCountry
p90
aVhttp://dbpedia.org/ontology/secondDriverCountry
p91
aVhttp://dbpedia.org/property/data
p92
aVhttp://dbpedia.org/property/lowerHouse
p93
aVhttp://dbpedia.org/ontology/language
p94
aVhttp://dbpedia.org/property/locationSigned
p95
aVhttp://dbpedia.org/property/owner
p96
aVhttp://dbpedia.org/property/namedAfter
p97
aVhttp://dbpedia.org/property/title
p98
aVhttp://dbpedia.org/property/placeOfBirth
p99
aVhttp://dbpedia.org/property/foundedDate
p100
aVhttp://xmlns.com/foaf/0.1/depiction
p101
aVhttp://dbpedia.org/ontology/usingCountry
p102
aVhttp://dbpedia.org/property/fightingOutOf
p103
aVhttp://dbpedia.org/ontology/thumbnail
p104
aVhttp://dbpedia.org/ontology/city
p105
aVhttp://dbpedia.org/ontology/flag
p106
aVhttp://dbpedia.org/property/languages
p107
aVhttp://dbpedia.org/property/hqLocationCountry
p108
aVhttp://dbpedia.org/property/locationCity
p109
aVhttp://dbpedia.org/property/imageFlag
p110
aVhttp://dbpedia.org/property/fedgov
p111
aVhttp://dbpedia.org/property/place
p112
aVhttp://dbpedia.org/ontology/citizenship
p113
aVhttp://dbpedia.org/property/currentResidence
p114
aVhttp://dbpedia.org/ontology/jurisdiction
p115
aVhttp://dbpedia.org/property/caption
p116
aVhttp://dbpedia.org/ontology/thirdDriverCountry
p117
aVhttp://www.w3.org/2002/07/owl#differentFrom
p118
aVhttp://dbpedia.org/property/team
p119
aVhttp://dbpedia.org/property/upperHouse
p120
aVhttp://dbpedia.org/property/allegiance
p121
aVhttp://dbpedia.org/ontology/place
p122
aVhttp://dbpedia.org/property/office
p123
aVhttp://dbpedia.org/property/nationality
p124
aVhttp://dbpedia.org/property/foundedPlace
p125
aVhttp://dbpedia.org/property/callingCode
p126
aVhttp://dbpedia.org/ontology/wikiPageDisambiguates
p127
aVhttp://purl.org/dc/terms/subject
p128
aVhttp://dbpedia.org/ontology/populationPlace
p129
aVhttp://dbpedia.org/property/state
p130
aVhttp://dbpedia.org/property/deathPlace
p131
aVhttp://dbpedia.org/ontology/service
p132
aVhttp://dbpedia.org/property/cityServed
p133
aVhttp://dbpedia.org/ontology/headquarter
p134
aVhttp://dbpedia.org/property/foundation
p135
aVhttp://dbpedia.org/ontology/sourceCountry
p136
aVhttp://dbpedia.org/ontology/broadcastArea
p137
aVhttp://dbpedia.org/property/locale
p138
aVhttp://dbpedia.org/property/basinCountries
p139
aVhttp://dbpedia.org/property/garrison
p140
aVhttp://dbpedia.org/ontology/assembly
p141
aVhttp://www.w3.org/2000/01/rdf-schema#comment
p142
aVhttp://dbpedia.org/ontology/timeZone
p143
aVhttp://dbpedia.org/property/demonym
p144
aVhttp://dbpedia.org/property/regionServed
p145
aVhttp://dbpedia.org/ontology/builder
p146
aVhttp://dbpedia.org/ontology/locationCity
p147
aVhttp://dbpedia.org/property/observedby
p148
asI2
(lp149
Vhttp://dbpedia.org/property/origin
p150
aVhttp://dbpedia.org/ontology/country
p151
aVhttp://dbpedia.org/property/currencyCode
p152
aVhttp://dbpedia.org/property/shipBuilder
p153
aVhttp://dbpedia.org/ontology/hometown
p154
aVhttp://dbpedia.org/ontology/birthPlace
p155
aVhttp://dbpedia.org/property/birthPlace
p156
aVhttp://dbpedia.org/property/deathPlace
p157
aVhttp://dbpedia.org/ontology/nationality
p158
aVhttp://dbpedia.org/ontology/builder
p159
aVhttp://dbpedia.org/ontology/deathPlace
p160
aVhttp://dbpedia.org/property/placeOfDeath
p161
aVhttp://dbpedia.org/property/placeOfBirth
p162
asI3
(lp163
Vhttp://dbpedia.org/property/origin
p164
aVhttp://dbpedia.org/property/placeOfDeath
p165
aVhttp://dbpedia.org/property/awardedBy
p166
aVhttp://dbpedia.org/property/cctld
p167
aVhttp://dbpedia.org/property/locations
p168
aVhttp://dbpedia.org/property/city
p169
aVhttp://dbpedia.org/ontology/garrison
p170
aVhttp://dbpedia.org/ontology/knownFor
p171
aVhttp://dbpedia.org/property/homeTown
p172
aVhttp://www.w3.org/ns/prov#wasDerivedFrom
p173
aVhttp://dbpedia.org/ontology/fastestDriverCountry
p174
aVhttp://dbpedia.org/property/territory
p175
aVhttp://dbpedia.org/ontology/demonym
p176
aVhttp://dbpedia.org/property/possessions
p177
aVhttp://dbpedia.org/ontology/regionServed
p178
aVhttp://dbpedia.org/property/usingCountries
p179
aVhttp://dbpedia.org/property/parentAgency
p180
aVhttp://dbpedia.org/property/broadcastArea
p181
aVhttp://dbpedia.org/property/assembly
p182
aVhttp://dbpedia.org/ontology/nationality
p183
aVhttp://xmlns.com/foaf/0.1/isPrimaryTopicOf
p184
aVhttp://dbpedia.org/property/hometown
p185
aVhttp://dbpedia.org/property/meetingPlace
p186
aVhttp://dbpedia.org/property/establishedEvent
p187
aVhttp://dbpedia.org/ontology/residence
p188
aVhttp://dbpedia.org/ontology/abstract
p189
aVhttp://dbpedia.org/ontology/recordedIn
p190
aVhttp://dbpedia.org/property/venue
p191
aVhttp://dbpedia.org/property/broadcastAreas
p192
aVhttp://dbpedia.org/property/shipLaidDown
p193
aVhttp://dbpedia.org/property/usedBy
p194
aVhttp://dbpedia.org/property/nationalOrigin
p195
aVhttp://dbpedia.org/ontology/state
p196
aVhttp://dbpedia.org/property/imageMap
p197
aVhttp://dbpedia.org/property/shipBuilder
p198
aVhttp://dbpedia.org/ontology/location
p199
aVhttp://dbpedia.org/property/area
p200
aVhttp://dbpedia.org/ontology/hometown
p201
aVhttp://dbpedia.org/property/bankOf
p202
aVhttp://dbpedia.org/ontology/spokenIn
p203
aVhttp://dbpedia.org/property/jurisdiction
p204
aVhttp://dbpedia.org/property/leaderTitle
p205
aVhttp://www.w3.org/2000/01/rdf-schema#seeAlso
p206
aVhttp://dbpedia.org/property/currency
p207
aVhttp://dbpedia.org/property/conventionalLongName
p208
aVhttp://dbpedia.org/ontology/foundationPlace
p209
aVhttp://dbpedia.org/ontology/poleDriverCountry
p210
aVhttp://dbpedia.org/property/legislature
p211
aVhttp://dbpedia.org/ontology/locatedInArea
p212
aVhttp://dbpedia.org/property/site
p213
aVhttp://dbpedia.org/ontology/country
p214
aVhttp://dbpedia.org/property/region
p215
aVhttp://dbpedia.org/property/nationalAnthem
p216
aVhttp://dbpedia.org/property/birthPlace
p217
aVhttp://dbpedia.org/property/country/region
p218
aVhttp://dbpedia.org/property/origins
p219
aVhttp://dbpedia.org/property/country
p220
aVhttp://dbpedia.org/property/winnerOrigin
p221
aVhttp://dbpedia.org/property/areaServed
p222
aVhttp://dbpedia.org/ontology/wikiPageExternalLink
p223
aVhttp://xmlns.com/foaf/0.1/primaryTopic
p224
aVhttp://dbpedia.org/ontology/firstDriverCountry
p225
aVhttp://dbpedia.org/property/location
p226
aVhttp://dbpedia.org/property/states
p227
aVhttp://dbpedia.org/ontology/division
p228
aVhttp://dbpedia.org/ontology/locationCountry
p229
aVhttp://dbpedia.org/ontology/deathPlace
p230
aVhttp://dbpedia.org/property/hasPhotoCollection
p231
aVhttp://dbpedia.org/ontology/territory
p232
aVhttp://dbpedia.org/property/headquarters
p233
aVhttp://dbpedia.org/property/countryName
p234
aVhttp://dbpedia.org/ontology/anthem
p235
aVhttp://dbpedia.org/ontology/birthPlace
p236
aVhttp://dbpedia.org/ontology/wikiPageRedirects
p237
aVhttp://dbpedia.org/property/citizenship
p238
aVhttp://dbpedia.org/property/imageCoat
p239
aVhttp://dbpedia.org/ontology/stateOfOrigin
p240
aVhttp://www.w3.org/2002/07/owl#sameAs
p241
aVhttp://dbpedia.org/property/timeZoneDst
p242
aVhttp://dbpedia.org/ontology/origin
p243
aVhttp://dbpedia.org/ontology/currency
p244
aVhttp://dbpedia.org/property/imageCaption
p245
aVhttp://dbpedia.org/property/residence
p246
aVhttp://dbpedia.org/ontology/longName
p247
aVhttp://dbpedia.org/property/homecountry
p248
aVhttp://dbpedia.org/property/timeZone
p249
aVhttp://dbpedia.org/property/locationCountry
p250
aVhttp://dbpedia.org/ontology/secondDriverCountry
p251
aVhttp://dbpedia.org/property/data
p252
aVhttp://dbpedia.org/property/lowerHouse
p253
aVhttp://dbpedia.org/ontology/language
p254
aVhttp://dbpedia.org/property/locationSigned
p255
aVhttp://dbpedia.org/property/owner
p256
aVhttp://dbpedia.org/property/namedAfter
p257
aVhttp://dbpedia.org/property/title
p258
aVhttp://dbpedia.org/property/placeOfBirth
p259
aVhttp://dbpedia.org/property/foundedDate
p260
aVhttp://xmlns.com/foaf/0.1/depiction
p261
aVhttp://dbpedia.org/ontology/usingCountry
p262
aVhttp://dbpedia.org/property/fightingOutOf
p263
aVhttp://dbpedia.org/ontology/thumbnail
p264
aVhttp://dbpedia.org/ontology/city
p265
aVhttp://dbpedia.org/ontology/flag
p266
aVhttp://dbpedia.org/property/commonName
p267
aVhttp://dbpedia.org/property/languages
p268
aVhttp://dbpedia.org/property/hqLocationCountry
p269
aVhttp://dbpedia.org/property/locationCity
p270
aVhttp://dbpedia.org/property/imageFlag
p271
aVhttp://dbpedia.org/property/fedgov
p272
aVhttp://dbpedia.org/property/place
p273
aVhttp://dbpedia.org/ontology/citizenship
p274
aVhttp://dbpedia.org/property/currentResidence
p275
aVhttp://dbpedia.org/ontology/jurisdiction
p276
aVhttp://dbpedia.org/property/caption
p277
aVhttp://dbpedia.org/ontology/thirdDriverCountry
p278
aVhttp://www.w3.org/2002/07/owl#differentFrom
p279
aVhttp://dbpedia.org/property/team
p280
aVhttp://dbpedia.org/property/upperHouse
p281
aVhttp://dbpedia.org/property/allegiance
p282
aVhttp://dbpedia.org/ontology/place
p283
aVhttp://dbpedia.org/property/office
p284
aVhttp://dbpedia.org/property/nationality
p285
aVhttp://dbpedia.org/property/foundedPlace
p286
aVhttp://dbpedia.org/property/callingCode
p287
aVhttp://dbpedia.org/ontology/wikiPageDisambiguates
p288
aVhttp://purl.org/dc/terms/subject
p289
aVhttp://dbpedia.org/ontology/populationPlace
p290
aVhttp://dbpedia.org/property/state
p291
aVhttp://dbpedia.org/property/deathPlace
p292
aVhttp://dbpedia.org/ontology/service
p293
aVhttp://dbpedia.org/property/cityServed
p294
aVhttp://xmlns.com/foaf/0.1/name
p295
aVhttp://dbpedia.org/ontology/headquarter
p296
aVhttp://dbpedia.org/property/foundation
p297
aVhttp://www.w3.org/2000/01/rdf-schema#label
p298
aVhttp://dbpedia.org/ontology/sourceCountry
p299
aVhttp://dbpedia.org/ontology/broadcastArea
p300
aVhttp://dbpedia.org/property/locale
p301
aVhttp://dbpedia.org/property/basinCountries
p302
aVhttp://dbpedia.org/property/currencyCode
p303
aVhttp://dbpedia.org/property/garrison
p304
aVhttp://dbpedia.org/ontology/assembly
p305
aVhttp://www.w3.org/2000/01/rdf-schema#comment
p306
aVhttp://dbpedia.org/ontology/timeZone
p307
aVhttp://dbpedia.org/property/demonym
p308
aVhttp://dbpedia.org/property/regionServed
p309
aVhttp://dbpedia.org/ontology/builder
p310
aVhttp://dbpedia.org/ontology/locationCity
p311
aVhttp://dbpedia.org/property/observedby
p312
assI2
(dp313
I1
(lp314
Vhttp://dbpedia.org/property/origin
p315
aVhttp://dbpedia.org/property/placeOfDeath
p316
aVhttp://dbpedia.org/ontology/twinCountry
p317
aVhttp://dbpedia.org/property/cctld
p318
aVhttp://dbpedia.org/ontology/mouthCountry
p319
aVhttp://dbpedia.org/property/city
p320
aVhttp://dbpedia.org/ontology/garrison
p321
aVhttp://dbpedia.org/property/ethnicity
p322
aVhttp://dbpedia.org/property/homeTown
p323
aVhttp://dbpedia.org/property/territory
p324
aVhttp://dbpedia.org/ontology/regionServed
p325
aVhttp://dbpedia.org/ontology/canonizedPlace
p326
aVhttp://dbpedia.org/property/firstRun
p327
aVhttp://dbpedia.org/property/lage
p328
aVhttp://dbpedia.org/property/assembly
p329
aVhttp://dbpedia.org/ontology/nationality
p330
aVhttp://dbpedia.org/property/shortDescription
p331
aVhttp://dbpedia.org/property/placeOfBirth
p332
aVhttp://dbpedia.org/property/hometown
p333
aVhttp://dbpedia.org/property/byCountry
p334
aVhttp://dbpedia.org/property/meetingPlace
p335
aVhttp://dbpedia.org/property/establishedEvent
p336
aVhttp://dbpedia.org/ontology/targetAirport
p337
aVhttp://dbpedia.org/property/regionalScenes
p338
aVhttp://dbpedia.org/property/primaryUser
p339
aVhttp://dbpedia.org/ontology/residence
p340
aVhttp://dbpedia.org/ontology/abstract
p341
aVhttp://dbpedia.org/ontology/recordedIn
p342
aVhttp://dbpedia.org/ontology/architecturalStyle
p343
aVhttp://dbpedia.org/property/usedBy
p344
aVhttp://dbpedia.org/property/shipNamesake
p345
aVhttp://dbpedia.org/property/nationalOrigin
p346
aVhttp://dbpedia.org/property/shipBuilder
p347
aVhttp://dbpedia.org/ontology/location
p348
aVhttp://dbpedia.org/ontology/wineRegion
p349
aVhttp://dbpedia.org/property/governmentType
p350
aVhttp://dbpedia.org/ontology/hometown
p351
aVhttp://dbpedia.org/ontology/restingPlace
p352
aVhttp://dbpedia.org/ontology/spokenIn
p353
aVhttp://dbpedia.org/property/leaderTitle
p354
aVhttp://www.w3.org/2000/01/rdf-schema#seeAlso
p355
aVhttp://dbpedia.org/ontology/wikiPageExternalLink
p356
aVhttp://dbpedia.org/property/conventionalLongName
p357
aVhttp://dbpedia.org/property/bases
p358
aVhttp://dbpedia.org/ontology/foundationPlace
p359
aVhttp://dbpedia.org/property/rallybase
p360
aVhttp://dbpedia.org/property/mouthCountry
p361
aVhttp://dbpedia.org/ontology/locatedInArea
p362
aVhttp://dbpedia.org/property/placeOfBurial
p363
aVhttp://dbpedia.org/property/site
p364
aVhttp://dbpedia.org/ontology/country
p365
aVhttp://dbpedia.org/property/region
p366
aVhttp://dbpedia.org/property/nationalAnthem
p367
aVhttp://dbpedia.org/property/destinations
p368
aVhttp://dbpedia.org/property/home
p369
aVhttp://dbpedia.org/property/birthPlace
p370
aVhttp://dbpedia.org/property/stateParty
p371
aVhttp://dbpedia.org/property/country
p372
aVhttp://dbpedia.org/property/areaServed
p373
aVhttp://dbpedia.org/property/areasAffected
p374
aVhttp://dbpedia.org/ontology/county
p375
aVhttp://dbpedia.org/ontology/significantProject
p376
aVhttp://dbpedia.org/property/location
p377
aVhttp://dbpedia.org/property/states
p378
aVhttp://dbpedia.org/ontology/locationCountry
p379
aVhttp://dbpedia.org/ontology/deathPlace
p380
aVhttp://dbpedia.org/property/hasPhotoCollection
p381
aVhttp://dbpedia.org/property/eponym
p382
aVhttp://dbpedia.org/property/headquarters
p383
aVhttp://dbpedia.org/ontology/anthem
p384
aVhttp://dbpedia.org/ontology/birthPlace
p385
aVhttp://dbpedia.org/ontology/wikiPageRedirects
p386
aVhttp://purl.org/voc/vrank#hasRank
p387
aVhttp://www.w3.org/2004/02/skos/core#exactMatch
p388
aVhttp://dbpedia.org/property/citizenship
p389
aVhttp://xmlns.com/foaf/0.1/homepage
p390
aVhttp://dbpedia.org/property/garrison
p391
aVhttp://www.w3.org/2002/07/owl#sameAs
p392
aVhttp://dbpedia.org/ontology/homeStadium
p393
aVhttp://dbpedia.org/property/stadium
p394
aVhttp://dbpedia.org/property/recorded
p395
aVhttp://dbpedia.org/ontology/majorShrine
p396
aVhttp://dbpedia.org/ontology/origin
p397
aVhttp://dbpedia.org/property/residence
p398
aVhttp://dbpedia.org/property/cityOrRegion
p399
aVhttp://dbpedia.org/property/workInstitutions
p400
aVhttp://dbpedia.org/ontology/longName
p401
aVhttp://www.w3.org/1999/02/22-rdf-syntax-ns#type
p402
aVhttp://dbpedia.org/property/locationCountry
p403
aVhttp://dbpedia.org/property/majorShrine
p404
aVhttp://dbpedia.org/ontology/ground
p405
aVhttp://dbpedia.org/property/withdraws
p406
aVhttp://dbpedia.org/property/lowerHouse
p407
aVhttp://dbpedia.org/ontology/language
p408
aVhttp://dbpedia.org/property/winnerOrigin
p409
aVhttp://dbpedia.org/property/owner
p410
aVhttp://dbpedia.org/property/shipCountry
p411
aVhttp://dbpedia.org/property/fightingOutOf
p412
aVhttp://dbpedia.org/ontology/city
p413
aVhttp://dbpedia.org/property/debuts
p414
aVhttp://dbpedia.org/property/subdivisionName
p415
aVhttp://dbpedia.org/property/canonizedPlace
p416
aVhttp://www.w3.org/2000/01/rdf-schema#comment
p417
aVhttp://dbpedia.org/property/remit
p418
aVhttp://dbpedia.org/ontology/governmentType
p419
aVhttp://dbpedia.org/property/locationCity
p420
aVhttp://dbpedia.org/ontology/award
p421
aVhttp://dbpedia.org/property/almaMater
p422
aVhttp://dbpedia.org/property/membership
p423
aVhttp://dbpedia.org/property/place
p424
aVhttp://dbpedia.org/ontology/citizenship
p425
aVhttp://dbpedia.org/property/caption
p426
aVhttp://dbpedia.org/property/footnoteB
p427
aVhttp://dbpedia.org/ontology/leaderTitle
p428
aVhttp://dbpedia.org/property/upperHouse
p429
aVhttp://dbpedia.org/ontology/place
p430
aVhttp://dbpedia.org/property/office
p431
aVhttp://dbpedia.org/property/nationality
p432
aVhttp://purl.org/dc/terms/subject
p433
aVhttp://dbpedia.org/ontology/populationPlace
p434
aVhttp://dbpedia.org/property/state
p435
aVhttp://dbpedia.org/property/deathPlace
p436
aVhttp://dbpedia.org/property/cityServed
p437
aVhttp://dbpedia.org/ontology/headquarter
p438
aVhttp://dbpedia.org/property/foundation
p439
aVhttp://dbpedia.org/ontology/sourceCountry
p440
aVhttp://dbpedia.org/property/locale
p441
aVhttp://dbpedia.org/property/basinCountries
p442
aVhttp://dbpedia.org/ontology/stateOfOrigin
p443
aVhttp://dbpedia.org/ontology/assembly
p444
aVhttp://dbpedia.org/property/address
p445
aVhttp://dbpedia.org/property/data
p446
aVhttp://dbpedia.org/property/olympicPlace
p447
aVhttp://dbpedia.org/property/cityOfResidence
p448
aVhttp://dbpedia.org/property/regionServed
p449
aVhttp://dbpedia.org/ontology/builder
p450
aVhttp://dbpedia.org/ontology/premierePlace
p451
aVhttp://dbpedia.org/ontology/locationCity
p452
aVhttp://dbpedia.org/property/buried
p453
asI2
(lp454
Vhttp://www.w3.org/2000/01/rdf-schema#seeAlso
p455
aVhttp://dbpedia.org/property/currency
p456
aVhttp://dbpedia.org/property/finish
p457
aVhttp://dbpedia.org/property/broadcastArea
p458
aVhttp://dbpedia.org/ontology/origin
p459
aVhttp://dbpedia.org/ontology/currency
p460
aVhttp://dbpedia.org/property/membership
p461
aVhttp://dbpedia.org/property/place
p462
aVhttp://dbpedia.org/ontology/foundationPlace
p463
aVhttp://dbpedia.org/ontology/wineRegion
p464
aVhttp://dbpedia.org/property/foundation
p465
aVhttp://dbpedia.org/ontology/garrison
p466
aVhttp://dbpedia.org/property/caption
p467
aVhttp://dbpedia.org/property/footnoteA
p468
aVhttp://dbpedia.org/ontology/locatedInArea
p469
aVhttp://dbpedia.org/property/footnoteC
p470
aVhttp://dbpedia.org/ontology/fastestDriverCountry
p471
aVhttp://dbpedia.org/ontology/routeEnd
p472
aVhttp://dbpedia.org/ontology/populationPlace
p473
aVhttp://dbpedia.org/ontology/country
p474
aVhttp://www.w3.org/1999/02/22-rdf-syntax-ns#type
p475
aVhttp://dbpedia.org/property/city
p476
aVhttp://dbpedia.org/property/shipBuilder
p477
aVhttp://dbpedia.org/property/locationCountry
p478
aVhttp://dbpedia.org/ontology/secondDriverCountry
p479
aVhttp://dbpedia.org/property/assembly
p480
aVhttp://dbpedia.org/property/site
p481
aVhttp://dbpedia.org/property/venue
p482
aVhttp://dbpedia.org/ontology/nationality
p483
aVhttp://dbpedia.org/property/birthPlace
p484
aVhttp://dbpedia.org/ontology/place
p485
aVhttp://dbpedia.org/ontology/sourceCountry
p486
aVhttp://dbpedia.org/property/office
p487
aVhttp://dbpedia.org/property/text
p488
aVhttp://dbpedia.org/property/country
p489
aVhttp://dbpedia.org/ontology/regionServed
p490
aVhttp://dbpedia.org/property/areaServed
p491
aVhttp://dbpedia.org/property/placeOfBirth
p492
aVhttp://dbpedia.org/ontology/wikiPageExternalLink
p493
aVhttp://purl.org/dc/terms/subject
p494
aVhttp://dbpedia.org/ontology/campus
p495
aVhttp://dbpedia.org/property/origin
p496
aVhttp://dbpedia.org/property/rd2t1Loc
p497
aVhttp://dbpedia.org/property/nationality
p498
aVhttp://dbpedia.org/ontology/abstract
p499
aVhttp://dbpedia.org/ontology/recordedIn
p500
aVhttp://dbpedia.org/ontology/firstDriverCountry
p501
aVhttp://dbpedia.org/property/location
p502
aVhttp://dbpedia.org/property/shipCountry
p503
aVhttp://dbpedia.org/ontology/builder
p504
aVhttp://dbpedia.org/ontology/headquarter
p505
aVhttp://dbpedia.org/ontology/city
p506
aVhttp://dbpedia.org/ontology/routeStart
p507
aVhttp://dbpedia.org/property/hostCity
p508
aVhttp://dbpedia.org/ontology/language
p509
aVhttp://dbpedia.org/property/headquarters
p510
aVhttp://dbpedia.org/property/basinCountries
p511
aVhttp://dbpedia.org/property/currencyCode
p512
aVhttp://dbpedia.org/ontology/territory
p513
aVhttp://dbpedia.org/ontology/assembly
p514
aVhttp://dbpedia.org/ontology/location
p515
aVhttp://www.w3.org/2000/01/rdf-schema#comment
p516
aVhttp://dbpedia.org/ontology/birthPlace
p517
aVhttp://dbpedia.org/property/countries
p518
aVhttp://dbpedia.org/property/nationalOrigin
p519
aVhttp://dbpedia.org/ontology/locationCountry
p520
aVhttp://dbpedia.org/ontology/hometown
p521
aVhttp://www.w3.org/2004/02/skos/core#exactMatch
p522
aVhttp://dbpedia.org/ontology/poleDriverCountry
p523
aVhttp://dbpedia.org/property/stadium
p524
aVhttp://dbpedia.org/property/regionServed
p525
aVhttp://dbpedia.org/property/locationCity
p526
aVhttp://dbpedia.org/property/host
p527
aVhttp://dbpedia.org/property/garrison
p528
aVhttp://dbpedia.org/ontology/locationCity
p529
aVhttp://dbpedia.org/property/areasAffected
p530
aVhttp://www.w3.org/2002/07/owl#sameAs
p531
aVhttp://dbpedia.org/ontology/deathPlace
p532
asI3
(lp533
Vhttp://dbpedia.org/property/origin
p534
aVhttp://dbpedia.org/property/placeOfDeath
p535
aVhttp://dbpedia.org/ontology/twinCountry
p536
aVhttp://dbpedia.org/property/cctld
p537
aVhttp://dbpedia.org/ontology/mouthCountry
p538
aVhttp://dbpedia.org/property/city
p539
aVhttp://dbpedia.org/ontology/garrison
p540
aVhttp://dbpedia.org/property/ethnicity
p541
aVhttp://dbpedia.org/property/homeTown
p542
aVhttp://dbpedia.org/property/territory
p543
aVhttp://dbpedia.org/ontology/regionServed
p544
aVhttp://dbpedia.org/ontology/canonizedPlace
p545
aVhttp://dbpedia.org/property/firstRun
p546
aVhttp://dbpedia.org/property/lage
p547
aVhttp://dbpedia.org/property/assembly
p548
aVhttp://dbpedia.org/ontology/nationality
p549
aVhttp://dbpedia.org/property/shortDescription
p550
aVhttp://dbpedia.org/property/placeOfBirth
p551
aVhttp://dbpedia.org/property/hometown
p552
aVhttp://dbpedia.org/property/byCountry
p553
aVhttp://dbpedia.org/property/meetingPlace
p554
aVhttp://dbpedia.org/property/establishedEvent
p555
aVhttp://dbpedia.org/ontology/targetAirport
p556
aVhttp://dbpedia.org/property/regionalScenes
p557
aVhttp://dbpedia.org/property/primaryUser
p558
aVhttp://dbpedia.org/ontology/residence
p559
aVhttp://dbpedia.org/ontology/abstract
p560
aVhttp://dbpedia.org/ontology/recordedIn
p561
aVhttp://dbpedia.org/ontology/architecturalStyle
p562
aVhttp://dbpedia.org/property/usedBy
p563
aVhttp://dbpedia.org/property/shipNamesake
p564
aVhttp://dbpedia.org/property/nationalOrigin
p565
aVhttp://dbpedia.org/property/shipBuilder
p566
aVhttp://dbpedia.org/ontology/location
p567
aVhttp://dbpedia.org/ontology/wineRegion
p568
aVhttp://dbpedia.org/property/governmentType
p569
aVhttp://dbpedia.org/ontology/hometown
p570
aVhttp://dbpedia.org/ontology/restingPlace
p571
aVhttp://dbpedia.org/ontology/spokenIn
p572
aVhttp://dbpedia.org/property/leaderTitle
p573
aVhttp://www.w3.org/2000/01/rdf-schema#seeAlso
p574
aVhttp://dbpedia.org/ontology/wikiPageExternalLink
p575
aVhttp://dbpedia.org/property/conventionalLongName
p576
aVhttp://dbpedia.org/property/bases
p577
aVhttp://dbpedia.org/ontology/foundationPlace
p578
aVhttp://dbpedia.org/property/rallybase
p579
aVhttp://dbpedia.org/property/mouthCountry
p580
aVhttp://dbpedia.org/ontology/locatedInArea
p581
aVhttp://dbpedia.org/property/placeOfBurial
p582
aVhttp://dbpedia.org/property/site
p583
aVhttp://dbpedia.org/ontology/country
p584
aVhttp://dbpedia.org/property/region
p585
aVhttp://dbpedia.org/property/nationalAnthem
p586
aVhttp://dbpedia.org/property/destinations
p587
aVhttp://dbpedia.org/property/home
p588
aVhttp://dbpedia.org/property/birthPlace
p589
aVhttp://dbpedia.org/property/stateParty
p590
aVhttp://dbpedia.org/property/country
p591
aVhttp://dbpedia.org/property/areaServed
p592
aVhttp://dbpedia.org/property/areasAffected
p593
aVhttp://dbpedia.org/ontology/county
p594
aVhttp://dbpedia.org/ontology/significantProject
p595
aVhttp://dbpedia.org/property/location
p596
aVhttp://dbpedia.org/property/states
p597
aVhttp://dbpedia.org/ontology/locationCountry
p598
aVhttp://dbpedia.org/ontology/deathPlace
p599
aVhttp://dbpedia.org/property/hasPhotoCollection
p600
aVhttp://dbpedia.org/property/eponym
p601
aVhttp://dbpedia.org/property/headquarters
p602
aVhttp://dbpedia.org/ontology/anthem
p603
aVhttp://dbpedia.org/ontology/birthPlace
p604
aVhttp://dbpedia.org/ontology/wikiPageRedirects
p605
aVhttp://purl.org/voc/vrank#hasRank
p606
aVhttp://www.w3.org/2004/02/skos/core#exactMatch
p607
aVhttp://dbpedia.org/property/citizenship
p608
aVhttp://xmlns.com/foaf/0.1/homepage
p609
aVhttp://dbpedia.org/ontology/stateOfOrigin
p610
aVhttp://www.w3.org/2002/07/owl#sameAs
p611
aVhttp://dbpedia.org/ontology/homeStadium
p612
aVhttp://dbpedia.org/property/stadium
p613
aVhttp://dbpedia.org/property/recorded
p614
aVhttp://dbpedia.org/ontology/majorShrine
p615
aVhttp://dbpedia.org/ontology/origin
p616
aVhttp://dbpedia.org/property/residence
p617
aVhttp://dbpedia.org/property/cityOrRegion
p618
aVhttp://dbpedia.org/property/workInstitutions
p619
aVhttp://dbpedia.org/ontology/longName
p620
aVhttp://www.w3.org/1999/02/22-rdf-syntax-ns#type
p621
aVhttp://dbpedia.org/property/locationCountry
p622
aVhttp://dbpedia.org/property/majorShrine
p623
aVhttp://dbpedia.org/ontology/ground
p624
aVhttp://dbpedia.org/property/withdraws
p625
aVhttp://dbpedia.org/property/lowerHouse
p626
aVhttp://dbpedia.org/ontology/language
p627
aVhttp://dbpedia.org/property/winnerOrigin
p628
aVhttp://dbpedia.org/property/owner
p629
aVhttp://dbpedia.org/property/shipCountry
p630
aVhttp://dbpedia.org/property/fightingOutOf
p631
aVhttp://dbpedia.org/ontology/city
p632
aVhttp://dbpedia.org/property/debuts
p633
aVhttp://dbpedia.org/property/subdivisionName
p634
aVhttp://dbpedia.org/property/canonizedPlace
p635
aVhttp://www.w3.org/2000/01/rdf-schema#comment
p636
aVhttp://dbpedia.org/property/remit
p637
aVhttp://dbpedia.org/ontology/governmentType
p638
aVhttp://dbpedia.org/property/locationCity
p639
aVhttp://dbpedia.org/ontology/award
p640
aVhttp://dbpedia.org/property/almaMater
p641
aVhttp://dbpedia.org/property/membership
p642
aVhttp://dbpedia.org/property/place
p643
aVhttp://dbpedia.org/ontology/citizenship
p644
aVhttp://dbpedia.org/property/caption
p645
aVhttp://dbpedia.org/property/footnoteB
p646
aVhttp://dbpedia.org/ontology/leaderTitle
p647
aVhttp://dbpedia.org/property/upperHouse
p648
aVhttp://dbpedia.org/ontology/place
p649
aVhttp://dbpedia.org/property/office
p650
aVhttp://dbpedia.org/property/nationality
p651
aVhttp://purl.org/dc/terms/subject
p652
aVhttp://dbpedia.org/ontology/populationPlace
p653
aVhttp://dbpedia.org/property/state
p654
aVhttp://dbpedia.org/property/deathPlace
p655
aVhttp://dbpedia.org/property/cityServed
p656
aVhttp://dbpedia.org/ontology/headquarter
p657
aVhttp://dbpedia.org/property/foundation
p658
aVhttp://www.w3.org/2000/01/rdf-schema#label
p659
aVhttp://dbpedia.org/ontology/sourceCountry
p660
aVhttp://dbpedia.org/property/locale
p661
aVhttp://dbpedia.org/property/basinCountries
p662
aVhttp://dbpedia.org/property/garrison
p663
aVhttp://dbpedia.org/ontology/assembly
p664
aVhttp://dbpedia.org/property/address
p665
aVhttp://dbpedia.org/property/data
p666
aVhttp://dbpedia.org/property/olympicPlace
p667
aVhttp://dbpedia.org/property/cityOfResidence
p668
aVhttp://dbpedia.org/property/regionServed
p669
aVhttp://dbpedia.org/ontology/builder
p670
aVhttp://dbpedia.org/ontology/premierePlace
p671
aVhttp://dbpedia.org/ontology/locationCity
p672
aVhttp://dbpedia.org/property/buried
p673
assI3
(dp674
I1
(lp675
Vhttp://dbpedia.org/property/placeOfDeath
p676
aVhttp://dbpedia.org/ontology/wikiPageRedirects
p677
aVhttp://dbpedia.org/property/residence
p678
aVhttp://dbpedia.org/property/territory
p679
aVhttp://dbpedia.org/property/footnoteE
p680
aVhttp://dbpedia.org/property/footnoteF
p681
aVhttp://dbpedia.org/ontology/country
p682
aVhttp://dbpedia.org/property/locationCountry
p683
aVhttp://dbpedia.org/property/image
p684
aVhttp://dbpedia.org/ontology/nationality
p685
aVhttp://dbpedia.org/property/birthPlace
p686
aVhttp://dbpedia.org/ontology/restingPlace
p687
aVhttp://dbpedia.org/property/placeOfBirth
p688
aVhttp://dbpedia.org/property/nationality
p689
aVhttp://dbpedia.org/property/areaServed
p690
aVhttp://dbpedia.org/ontology/wikiPageExternalLink
p691
aVhttp://dbpedia.org/property/county
p692
aVhttp://dbpedia.org/ontology/residence
p693
aVhttp://dbpedia.org/ontology/abstract
p694
aVhttp://dbpedia.org/property/deathPlace
p695
aVhttp://dbpedia.org/property/location
p696
aVhttp://dbpedia.org/ontology/locationCountry
p697
aVhttp://dbpedia.org/ontology/deathPlace
p698
aVhttp://dbpedia.org/property/imageMap
p699
aVhttp://dbpedia.org/property/shipBuilder
p700
aVhttp://dbpedia.org/ontology/location
p701
aVhttp://dbpedia.org/ontology/birthPlace
p702
aVhttp://dbpedia.org/property/finish
p703
aVhttp://dbpedia.org/ontology/builder
p704
aVhttp://dbpedia.org/property/mapEntity
p705
aVhttp://dbpedia.org/ontology/hometown
p706
aVhttp://www.w3.org/2004/02/skos/core#exactMatch
p707
aVhttp://dbpedia.org/property/builders
p708
asI2
(lp709
Vhttp://dbpedia.org/property/currencyCode
p710
asI3
(lp711
Vhttp://www.w3.org/2000/01/rdf-schema#seeAlso
p712
aVhttp://dbpedia.org/ontology/country
p713
aVhttp://dbpedia.org/property/currencyCode
p714
aVhttp://dbpedia.org/ontology/location
p715
aVhttp://dbpedia.org/property/birthplace
p716
aVhttp://dbpedia.org/property/placeOfBirth
p717
aVhttp://dbpedia.org/ontology/birthPlace
p718
aVhttp://dbpedia.org/property/deathPlace
p719
aVhttp://dbpedia.org/property/location
p720
aVhttp://dbpedia.org/property/remit
p721
aVhttp://dbpedia.org/property/birthPlace
p722
aVhttp://dbpedia.org/ontology/deathPlace
p723
aVhttp://dbpedia.org/property/placeOfDeath
p724
aVhttp://dbpedia.org/property/imageCoat
p725
aVhttp://dbpedia.org/property/stadium
p726
aVhttp://dbpedia.org/property/footnoteF
p727
assI4
(dp728
I1
(lp729
Vhttp://dbpedia.org/ontology/wikiPageExternalLink
p730
aVhttp://dbpedia.org/ontology/location
p731
aVhttp://dbpedia.org/property/cctld
p732
aVhttp://dbpedia.org/ontology/wikiPageRedirects
p733
aVhttp://xmlns.com/foaf/0.1/homepage
p734
aVhttp://dbpedia.org/ontology/wikiPageDisambiguates
p735
asI2
(lp736
Vhttp://dbpedia.org/property/currencyCode
p737
asI3
(lp738
Vhttp://dbpedia.org/ontology/wikiPageExternalLink
p739
aVhttp://dbpedia.org/property/currencyCode
p740
aVhttp://dbpedia.org/ontology/location
p741
aVhttp://dbpedia.org/property/cctld
p742
aVhttp://dbpedia.org/ontology/wikiPageRedirects
p743
aVhttp://xmlns.com/foaf/0.1/homepage
p744
aVhttp://dbpedia.org/ontology/wikiPageDisambiguates
p745
assI5
(dp746
I1
(lp747
Vhttp://dbpedia.org/property/origin
p748
aVhttp://dbpedia.org/property/placeOfDeath
p749
aVhttp://dbpedia.org/property/recorded
p750
aVhttp://dbpedia.org/property/restingPlace
p751
aVhttp://dbpedia.org/ontology/foundationPlace
p752
aVhttp://dbpedia.org/property/winnerOrigin
p753
aVhttp://dbpedia.org/property/placeOfBurial
p754
aVhttp://dbpedia.org/ontology/country
p755
aVhttp://dbpedia.org/property/region
p756
aVhttp://dbpedia.org/property/locationCountry
p757
aVhttp://dbpedia.org/ontology/nationality
p758
aVhttp://dbpedia.org/property/birthPlace
p759
aVhttp://dbpedia.org/property/placeOfBirth
p760
aVhttp://dbpedia.org/property/nationality
p761
aVhttp://dbpedia.org/property/country
p762
aVhttp://dbpedia.org/property/areaServed
p763
aVhttp://dbpedia.org/ontology/wikiPageExternalLink
p764
aVhttp://dbpedia.org/ontology/residence
p765
aVhttp://dbpedia.org/ontology/recordedIn
p766
aVhttp://dbpedia.org/property/deathPlace
p767
aVhttp://dbpedia.org/property/location
p768
aVhttp://dbpedia.org/property/fightingOutOf
p769
aVhttp://dbpedia.org/ontology/locationCountry
p770
aVhttp://dbpedia.org/ontology/headquarter
p771
aVhttp://dbpedia.org/ontology/language
p772
aVhttp://dbpedia.org/property/headquarters
p773
aVhttp://dbpedia.org/property/imageMap
p774
aVhttp://dbpedia.org/ontology/location
p775
aVhttp://dbpedia.org/ontology/birthPlace
p776
aVhttp://dbpedia.org/ontology/wikiPageRedirects
p777
aVhttp://dbpedia.org/ontology/hometown
p778
aVhttp://dbpedia.org/ontology/restingPlace
p779
aVhttp://dbpedia.org/ontology/stateOfOrigin
p780
aVhttp://dbpedia.org/ontology/deathPlace
p781
asI2
(lp782
Vhttp://dbpedia.org/property/currencyCode
p783
asI3
(lp784
Vhttp://dbpedia.org/property/origin
p785
aVhttp://dbpedia.org/property/placeOfDeath
p786
aVhttp://dbpedia.org/property/recorded
p787
aVhttp://dbpedia.org/property/ground
p788
aVhttp://dbpedia.org/ontology/origin
p789
aVhttp://dbpedia.org/property/years
p790
aVhttp://dbpedia.org/property/birthplace
p791
aVhttp://dbpedia.org/ontology/locatedInArea
p792
aVhttp://dbpedia.org/ontology/country
p793
aVhttp://dbpedia.org/property/region
p794
aVhttp://dbpedia.org/property/locationCountry
p795
aVhttp://dbpedia.org/ontology/isPartOf
p796
aVhttp://dbpedia.org/ontology/nationality
p797
aVhttp://dbpedia.org/property/birthPlace
p798
aVhttp://dbpedia.org/property/shortDescription
p799
aVhttp://dbpedia.org/property/placeOfBirth
p800
aVhttp://dbpedia.org/property/country
p801
aVhttp://dbpedia.org/property/placeofbirth
p802
aVhttp://dbpedia.org/property/state
p803
aVhttp://dbpedia.org/ontology/recordedIn
p804
aVhttp://dbpedia.org/ontology/state
p805
aVhttp://dbpedia.org/property/deathPlace
p806
aVhttp://dbpedia.org/ontology/locationCountry
p807
aVhttp://dbpedia.org/ontology/headquarter
p808
aVhttp://dbpedia.org/property/headquarters
p809
aVhttp://dbpedia.org/property/currencyCode
p810
aVhttp://dbpedia.org/ontology/location
p811
aVhttp://dbpedia.org/ontology/birthPlace
p812
aVhttp://dbpedia.org/ontology/hometown
p813
aVhttp://dbpedia.org/property/remit
p814
aVhttp://dbpedia.org/property/location
p815
aVhttp://dbpedia.org/property/stadium
p816
aVhttp://dbpedia.org/ontology/deathPlace
p817
assI8
(dp818
I1
(lp819
Vhttp://dbpedia.org/property/origin
p820
aVhttp://dbpedia.org/property/placeOfDeath
p821
aVhttp://dbpedia.org/ontology/type
p822
aVhttp://dbpedia.org/property/awardedBy
p823
aVhttp://dbpedia.org/property/broadcastArea
p824
aVhttp://dbpedia.org/property/nearestTown
p825
aVhttp://dbpedia.org/ontology/mouthCountry
p826
aVhttp://dbpedia.org/property/locations
p827
aVhttp://dbpedia.org/property/city
p828
aVhttp://dbpedia.org/ontology/knownFor
p829
aVhttp://dbpedia.org/property/homeTown
p830
aVhttp://dbpedia.org/property/possessions
p831
aVhttp://dbpedia.org/ontology/format
p832
aVhttp://dbpedia.org/property/assembly
p833
aVhttp://dbpedia.org/property/launchSite
p834
aVhttp://dbpedia.org/property/availability
p835
aVhttp://dbpedia.org/ontology/nationality
p836
aVhttp://dbpedia.org/property/shortDescription
p837
aVhttp://dbpedia.org/property/placeOfBirth
p838
aVhttp://dbpedia.org/property/hometown
p839
aVhttp://dbpedia.org/property/byCountry
p840
aVhttp://dbpedia.org/property/culturalOrigins
p841
aVhttp://dbpedia.org/property/nat
p842
aVhttp://dbpedia.org/property/mapCaption
p843
aVhttp://dbpedia.org/ontology/residence
p844
aVhttp://dbpedia.org/ontology/abstract
p845
aVhttp://dbpedia.org/ontology/recordedIn
p846
aVhttp://dbpedia.org/property/type
p847
aVhttp://dbpedia.org/property/sourceCountry
p848
aVhttp://dbpedia.org/property/launchDate
p849
aVhttp://dbpedia.org/property/lowerHouse
p850
aVhttp://dbpedia.org/property/usedBy
p851
aVhttp://dbpedia.org/property/shipNamesake
p852
aVhttp://dbpedia.org/property/nationalOrigin
p853
aVhttp://dbpedia.org/ontology/location
p854
aVhttp://dbpedia.org/property/countries
p855
aVhttp://dbpedia.org/property/nearestCity
p856
aVhttp://dbpedia.org/property/area
p857
aVhttp://dbpedia.org/ontology/hometown
p858
aVhttp://dbpedia.org/ontology/restingPlace
p859
aVhttp://dbpedia.org/ontology/spokenIn
p860
aVhttp://dbpedia.org/property/deathDeath
p861
aVhttp://dbpedia.org/property/jurisdiction
p862
aVhttp://dbpedia.org/property/dateOfDeath
p863
aVhttp://www.w3.org/2000/01/rdf-schema#seeAlso
p864
aVhttp://dbpedia.org/property/isolation
p865
aVhttp://dbpedia.org/ontology/citizenship
p866
aVhttp://dbpedia.org/property/ethnicity
p867
aVhttp://dbpedia.org/property/birthDate
p868
aVhttp://dbpedia.org/property/deathDate
p869
aVhttp://dbpedia.org/ontology/foundationPlace
p870
aVhttp://dbpedia.org/property/countryOfOrigin
p871
aVhttp://dbpedia.org/property/base
p872
aVhttp://dbpedia.org/property/mouthCountry
p873
aVhttp://dbpedia.org/ontology/locatedInArea
p874
aVhttp://dbpedia.org/property/site
p875
aVhttp://dbpedia.org/property/label
p876
aVhttp://dbpedia.org/ontology/country
p877
aVhttp://dbpedia.org/property/region
p878
aVhttp://dbpedia.org/property/home
p879
aVhttp://dbpedia.org/property/distributor
p880
aVhttp://dbpedia.org/property/birthPlace
p881
aVhttp://dbpedia.org/property/recLocation
p882
aVhttp://dbpedia.org/property/country
p883
aVhttp://dbpedia.org/ontology/regionServed
p884
aVhttp://dbpedia.org/property/areaServed
p885
aVhttp://dbpedia.org/ontology/wikiPageExternalLink
p886
aVhttp://dbpedia.org/ontology/campus
p887
aVhttp://dbpedia.org/ontology/significantProject
p888
aVhttp://dbpedia.org/property/location
p889
aVhttp://dbpedia.org/property/states
p890
aVhttp://dbpedia.org/ontology/division
p891
aVhttp://dbpedia.org/ontology/locationCountry
p892
aVhttp://dbpedia.org/ontology/deathPlace
p893
aVhttp://dbpedia.org/property/resides
p894
aVhttp://dbpedia.org/property/currentlyResides
p895
aVhttp://dbpedia.org/property/headquarters
p896
aVhttp://dbpedia.org/property/leaderTitle
p897
aVhttp://dbpedia.org/ontology/birthPlace
p898
aVhttp://dbpedia.org/ontology/wikiPageRedirects
p899
aVhttp://dbpedia.org/property/aux
p900
aVhttp://dbpedia.org/property/citizenship
p901
aVhttp://xmlns.com/foaf/0.1/homepage
p902
aVhttp://dbpedia.org/ontology/stateOfOrigin
p903
aVhttp://dbpedia.org/property/residence
p904
aVhttp://www.w3.org/2002/07/owl#sameAs
p905
aVhttp://dbpedia.org/property/areas
p906
aVhttp://dbpedia.org/property/imageLiquidMetalRocksJkArea
p907
aVhttp://dbpedia.org/property/recorded
p908
aVhttp://dbpedia.org/ontology/origin
p909
aVhttp://dbpedia.org/property/countryOrigin
p910
aVhttp://dbpedia.org/property/foundation
p911
aVhttp://dbpedia.org/property/source1Country
p912
aVhttp://dbpedia.org/property/locationCountry
p913
aVhttp://dbpedia.org/property/education
p914
aVhttp://dbpedia.org/ontology/ground
p915
aVhttp://dbpedia.org/ontology/education
p916
aVhttp://dbpedia.org/property/shipCountry
p917
aVhttp://dbpedia.org/property/restingPlace
p918
aVhttp://dbpedia.org/ontology/countryOrigin
p919
aVhttp://dbpedia.org/property/opponents
p920
aVhttp://dbpedia.org/property/fightingOutOf
p921
aVhttp://dbpedia.org/property/observedby
p922
aVhttp://dbpedia.org/ontology/city
p923
aVhttp://dbpedia.org/property/subdivisionName
p924
aVhttp://dbpedia.org/ontology/ethnicity
p925
aVhttp://dbpedia.org/ontology/homeport
p926
aVhttp://dbpedia.org/property/meetingPlace
p927
aVhttp://dbpedia.org/property/popplace
p928
aVhttp://dbpedia.org/property/address
p929
aVhttp://dbpedia.org/property/hqLocationCountry
p930
aVhttp://www.w3.org/2004/02/skos/core#subject
p931
aVhttp://dbpedia.org/property/winter
p932
aVhttp://dbpedia.org/property/basedIn
p933
aVhttp://dbpedia.org/property/founded
p934
aVhttp://dbpedia.org/property/ground
p935
aVhttp://dbpedia.org/property/place
p936
aVhttp://dbpedia.org/property/regionalScenes
p937
aVhttp://dbpedia.org/property/callsignMeaning
p938
aVhttp://dbpedia.org/property/currentResidence
p939
aVhttp://dbpedia.org/ontology/jurisdiction
p940
aVhttp://dbpedia.org/property/footnoteA
p941
aVhttp://dbpedia.org/property/placeofburial
p942
aVhttp://dbpedia.org/ontology/leaderTitle
p943
aVhttp://dbpedia.org/property/allegiance
p944
aVhttp://dbpedia.org/property/combatant
p945
aVhttp://dbpedia.org/property/office
p946
aVhttp://dbpedia.org/property/nationality
p947
aVhttp://dbpedia.org/property/body
p948
aVhttp://dbpedia.org/ontology/wikiPageDisambiguates
p949
aVhttp://dbpedia.org/property/divisions
p950
aVhttp://dbpedia.org/ontology/populationPlace
p951
aVhttp://dbpedia.org/property/markets
p952
aVhttp://dbpedia.org/property/deathPlace
p953
aVhttp://dbpedia.org/property/headquarter
p954
aVhttp://dbpedia.org/property/cityServed
p955
aVhttp://dbpedia.org/ontology/headquarter
p956
aVhttp://dbpedia.org/ontology/nearestCity
p957
aVhttp://dbpedia.org/property/controlledby
p958
aVhttp://dbpedia.org/ontology/sourceCountry
p959
aVhttp://dbpedia.org/ontology/broadcastArea
p960
aVhttp://dbpedia.org/property/locale
p961
aVhttp://dbpedia.org/property/basinCountries
p962
aVhttp://dbpedia.org/ontology/assembly
p963
aVhttp://www.w3.org/2000/01/rdf-schema#comment
p964
aVhttp://dbpedia.org/property/nationalMotto
p965
aVhttp://dbpedia.org/ontology/locationCity
p966
aVhttp://dbpedia.org/ontology/motto
p967
aVhttp://dbpedia.org/ontology/releaseLocation
p968
aVhttp://dbpedia.org/property/seat
p969
aVhttp://dbpedia.org/property/shipHomeport
p970
aVhttp://dbpedia.org/property/regionServed
p971
aVhttp://dbpedia.org/property/locationCity
p972
aVhttp://dbpedia.org/ontology/premierePlace
p973
aVhttp://dbpedia.org/property/data
p974
aVhttp://dbpedia.org/property/currentLocation
p975
aVhttp://dbpedia.org/ontology/occupation
p976
asI2
(lp977
Vhttp://dbpedia.org/ontology/wikiPageExternalLink
p978
aVhttp://dbpedia.org/ontology/country
p979
aVhttp://dbpedia.org/property/currencyCode
p980
aVhttp://dbpedia.org/property/subdivisionName
p981
aVhttp://dbpedia.org/ontology/location
p982
aVhttp://dbpedia.org/property/origin
p983
aVhttp://dbpedia.org/ontology/abstract
p984
aVhttp://dbpedia.org/property/location
p985
aVhttp://dbpedia.org/ontology/foundationPlace
p986
aVhttp://dbpedia.org/ontology/hometown
p987
aVhttp://dbpedia.org/ontology/locationCountry
p988
aVhttp://dbpedia.org/property/country
p989
aVhttp://dbpedia.org/property/locationCountry
p990
asI3
(lp991
Vhttp://dbpedia.org/property/origin
p992
aVhttp://dbpedia.org/property/placeOfDeath
p993
aVhttp://dbpedia.org/ontology/type
p994
aVhttp://dbpedia.org/property/awardedBy
p995
aVhttp://dbpedia.org/property/broadcastArea
p996
aVhttp://dbpedia.org/property/nearestTown
p997
aVhttp://dbpedia.org/ontology/mouthCountry
p998
aVhttp://dbpedia.org/property/locations
p999
aVhttp://dbpedia.org/property/city
p1000
aVhttp://dbpedia.org/ontology/knownFor
p1001
aVhttp://dbpedia.org/property/homeTown
p1002
aVhttp://dbpedia.org/property/possessions
p1003
aVhttp://dbpedia.org/ontology/format
p1004
aVhttp://dbpedia.org/property/assembly
p1005
aVhttp://dbpedia.org/property/launchSite
p1006
aVhttp://dbpedia.org/property/availability
p1007
aVhttp://dbpedia.org/ontology/nationality
p1008
aVhttp://dbpedia.org/property/shortDescription
p1009
aVhttp://dbpedia.org/property/placeOfBirth
p1010
aVhttp://dbpedia.org/property/hometown
p1011
aVhttp://dbpedia.org/property/byCountry
p1012
aVhttp://dbpedia.org/property/culturalOrigins
p1013
aVhttp://dbpedia.org/property/nat
p1014
aVhttp://dbpedia.org/property/mapCaption
p1015
aVhttp://dbpedia.org/ontology/residence
p1016
aVhttp://dbpedia.org/ontology/abstract
p1017
aVhttp://dbpedia.org/ontology/recordedIn
p1018
aVhttp://dbpedia.org/property/type
p1019
aVhttp://dbpedia.org/property/sourceCountry
p1020
aVhttp://dbpedia.org/property/launchDate
p1021
aVhttp://dbpedia.org/property/lowerHouse
p1022
aVhttp://dbpedia.org/property/usedBy
p1023
aVhttp://dbpedia.org/property/shipNamesake
p1024
aVhttp://dbpedia.org/property/nationalOrigin
p1025
aVhttp://dbpedia.org/property/imageMap
p1026
aVhttp://dbpedia.org/ontology/location
p1027
aVhttp://dbpedia.org/property/countries
p1028
aVhttp://dbpedia.org/property/nearestCity
p1029
aVhttp://dbpedia.org/property/area
p1030
aVhttp://dbpedia.org/ontology/hometown
p1031
aVhttp://dbpedia.org/ontology/restingPlace
p1032
aVhttp://dbpedia.org/ontology/spokenIn
p1033
aVhttp://dbpedia.org/property/deathDeath
p1034
aVhttp://dbpedia.org/property/jurisdiction
p1035
aVhttp://dbpedia.org/property/leaderTitle
p1036
aVhttp://www.w3.org/2000/01/rdf-schema#seeAlso
p1037
aVhttp://dbpedia.org/property/isolation
p1038
aVhttp://dbpedia.org/ontology/citizenship
p1039
aVhttp://dbpedia.org/property/ethnicity
p1040
aVhttp://dbpedia.org/property/birthDate
p1041
aVhttp://dbpedia.org/property/deathDate
p1042
aVhttp://dbpedia.org/ontology/foundationPlace
p1043
aVhttp://dbpedia.org/property/countryOfOrigin
p1044
aVhttp://dbpedia.org/property/base
p1045
aVhttp://dbpedia.org/property/mouthCountry
p1046
aVhttp://dbpedia.org/ontology/locatedInArea
p1047
aVhttp://dbpedia.org/property/site
p1048
aVhttp://dbpedia.org/property/label
p1049
aVhttp://dbpedia.org/ontology/country
p1050
aVhttp://dbpedia.org/property/region
p1051
aVhttp://dbpedia.org/property/home
p1052
aVhttp://dbpedia.org/property/distributor
p1053
aVhttp://dbpedia.org/property/birthPlace
p1054
aVhttp://dbpedia.org/property/recLocation
p1055
aVhttp://dbpedia.org/property/country
p1056
aVhttp://dbpedia.org/ontology/regionServed
p1057
aVhttp://dbpedia.org/property/areaServed
p1058
aVhttp://dbpedia.org/ontology/wikiPageExternalLink
p1059
aVhttp://dbpedia.org/ontology/campus
p1060
aVhttp://dbpedia.org/ontology/significantProject
p1061
aVhttp://dbpedia.org/property/location
p1062
aVhttp://dbpedia.org/property/states
p1063
aVhttp://dbpedia.org/ontology/division
p1064
aVhttp://dbpedia.org/ontology/locationCountry
p1065
aVhttp://dbpedia.org/ontology/deathPlace
p1066
aVhttp://dbpedia.org/property/resides
p1067
aVhttp://dbpedia.org/property/currentlyResides
p1068
aVhttp://dbpedia.org/property/headquarters
p1069
aVhttp://dbpedia.org/property/dateOfDeath
p1070
aVhttp://dbpedia.org/ontology/birthPlace
p1071
aVhttp://dbpedia.org/ontology/wikiPageRedirects
p1072
aVhttp://dbpedia.org/property/aux
p1073
aVhttp://dbpedia.org/property/citizenship
p1074
aVhttp://xmlns.com/foaf/0.1/homepage
p1075
aVhttp://dbpedia.org/ontology/stateOfOrigin
p1076
aVhttp://dbpedia.org/property/residence
p1077
aVhttp://www.w3.org/2002/07/owl#sameAs
p1078
aVhttp://dbpedia.org/property/areas
p1079
aVhttp://dbpedia.org/property/imageLiquidMetalRocksJkArea
p1080
aVhttp://dbpedia.org/property/recorded
p1081
aVhttp://dbpedia.org/ontology/origin
p1082
aVhttp://dbpedia.org/property/countryOrigin
p1083
aVhttp://dbpedia.org/property/foundation
p1084
aVhttp://dbpedia.org/property/source1Country
p1085
aVhttp://dbpedia.org/property/locationCountry
p1086
aVhttp://dbpedia.org/property/education
p1087
aVhttp://dbpedia.org/ontology/ground
p1088
aVhttp://dbpedia.org/ontology/education
p1089
aVhttp://dbpedia.org/property/countryCode
p1090
aVhttp://dbpedia.org/property/shipCountry
p1091
aVhttp://dbpedia.org/property/restingPlace
p1092
aVhttp://dbpedia.org/ontology/countryOrigin
p1093
aVhttp://dbpedia.org/property/opponents
p1094
aVhttp://dbpedia.org/property/fightingOutOf
p1095
aVhttp://dbpedia.org/property/observedby
p1096
aVhttp://dbpedia.org/ontology/city
p1097
aVhttp://dbpedia.org/property/subdivisionName
p1098
aVhttp://dbpedia.org/ontology/ethnicity
p1099
aVhttp://dbpedia.org/ontology/homeport
p1100
aVhttp://dbpedia.org/property/meetingPlace
p1101
aVhttp://dbpedia.org/property/popplace
p1102
aVhttp://dbpedia.org/property/address
p1103
aVhttp://dbpedia.org/property/hqLocationCountry
p1104
aVhttp://www.w3.org/2004/02/skos/core#subject
p1105
aVhttp://dbpedia.org/property/winter
p1106
aVhttp://dbpedia.org/property/basedIn
p1107
aVhttp://dbpedia.org/property/founded
p1108
aVhttp://dbpedia.org/property/ground
p1109
aVhttp://dbpedia.org/property/place
p1110
aVhttp://dbpedia.org/property/regionalScenes
p1111
aVhttp://dbpedia.org/property/callsignMeaning
p1112
aVhttp://dbpedia.org/property/currentResidence
p1113
aVhttp://dbpedia.org/ontology/jurisdiction
p1114
aVhttp://dbpedia.org/property/footnoteA
p1115
aVhttp://dbpedia.org/property/placeofburial
p1116
aVhttp://dbpedia.org/ontology/leaderTitle
p1117
aVhttp://dbpedia.org/property/allegiance
p1118
aVhttp://dbpedia.org/property/combatant
p1119
aVhttp://dbpedia.org/property/office
p1120
aVhttp://dbpedia.org/property/nationality
p1121
aVhttp://dbpedia.org/property/body
p1122
aVhttp://dbpedia.org/ontology/wikiPageDisambiguates
p1123
aVhttp://dbpedia.org/property/divisions
p1124
aVhttp://dbpedia.org/property/iso3166code
p1125
aVhttp://dbpedia.org/ontology/populationPlace
p1126
aVhttp://dbpedia.org/property/markets
p1127
aVhttp://dbpedia.org/property/deathPlace
p1128
aVhttp://dbpedia.org/property/headquarter
p1129
aVhttp://dbpedia.org/property/cityServed
p1130
aVhttp://dbpedia.org/ontology/headquarter
p1131
aVhttp://dbpedia.org/ontology/nearestCity
p1132
aVhttp://dbpedia.org/property/controlledby
p1133
aVhttp://dbpedia.org/ontology/sourceCountry
p1134
aVhttp://dbpedia.org/ontology/broadcastArea
p1135
aVhttp://dbpedia.org/property/locale
p1136
aVhttp://dbpedia.org/property/basinCountries
p1137
aVhttp://dbpedia.org/property/currencyCode
p1138
aVhttp://dbpedia.org/ontology/assembly
p1139
aVhttp://www.w3.org/2000/01/rdf-schema#comment
p1140
aVhttp://dbpedia.org/property/nationalMotto
p1141
aVhttp://dbpedia.org/property/data
p1142
aVhttp://dbpedia.org/ontology/motto
p1143
aVhttp://dbpedia.org/ontology/releaseLocation
p1144
aVhttp://dbpedia.org/property/seat
p1145
aVhttp://dbpedia.org/property/shipHomeport
p1146
aVhttp://dbpedia.org/property/regionServed
p1147
aVhttp://dbpedia.org/property/locationCity
p1148
aVhttp://dbpedia.org/ontology/premierePlace
p1149
aVhttp://dbpedia.org/ontology/locationCity
p1150
aVhttp://dbpedia.org/property/currentLocation
p1151
aVhttp://dbpedia.org/ontology/occupation
p1152
assI9
(dp1153
I1
(lp1154
Vhttp://dbpedia.org/property/origin
p1155
aVhttp://dbpedia.org/property/placeOfDeath
p1156
aVhttp://dbpedia.org/ontology/type
p1157
aVhttp://dbpedia.org/property/sourceCountry
p1158
aVhttp://dbpedia.org/property/awardedBy
p1159
aVhttp://dbpedia.org/property/cctld
p1160
aVhttp://dbpedia.org/property/nearestTown
p1161
aVhttp://dbpedia.org/ontology/mouthCountry
p1162
aVhttp://dbpedia.org/property/locations
p1163
aVhttp://dbpedia.org/property/city
p1164
aVhttp://dbpedia.org/ontology/garrison
p1165
aVhttp://dbpedia.org/property/sovereigntyType
p1166
aVhttp://www.w3.org/ns/prov#wasDerivedFrom
p1167
aVhttp://dbpedia.org/property/awards
p1168
aVhttp://dbpedia.org/property/territory
p1169
aVhttp://dbpedia.org/property/members
p1170
aVhttp://dbpedia.org/ontology/regionServed
p1171
aVhttp://dbpedia.org/property/serviceArea
p1172
aVhttp://dbpedia.org/property/firstRun
p1173
aVhttp://dbpedia.org/property/broadcastArea
p1174
aVhttp://dbpedia.org/property/assembly
p1175
aVhttp://dbpedia.org/ontology/nationality
p1176
aVhttp://dbpedia.org/property/country/region
p1177
aVhttp://dbpedia.org/property/shortDescription
p1178
aVhttp://xmlns.com/foaf/0.1/isPrimaryTopicOf
p1179
aVhttp://dbpedia.org/property/hometown
p1180
aVhttp://dbpedia.org/property/panPlace
p1181
aVhttp://dbpedia.org/property/meetingPlace
p1182
aVhttp://dbpedia.org/property/establishedEvent
p1183
aVhttp://dbpedia.org/property/regionalScenes
p1184
aVhttp://dbpedia.org/property/primaryUser
p1185
aVhttp://dbpedia.org/ontology/residence
p1186
aVhttp://dbpedia.org/ontology/abstract
p1187
aVhttp://dbpedia.org/ontology/recordedIn
p1188
aVhttp://dbpedia.org/property/venue
p1189
aVhttp://dbpedia.org/property/observedby
p1190
aVhttp://dbpedia.org/property/nationalOrigin
p1191
aVhttp://dbpedia.org/property/foundation
p1192
aVhttp://dbpedia.org/ontology/location
p1193
aVhttp://dbpedia.org/property/countries
p1194
aVhttp://dbpedia.org/property/countriesAffected
p1195
aVhttp://dbpedia.org/ontology/wikiPageExternalLink
p1196
aVhttp://dbpedia.org/property/factory
p1197
aVhttp://dbpedia.org/property/placeOfBirth
p1198
aVhttp://dbpedia.org/property/area
p1199
aVhttp://dbpedia.org/ontology/hometown
p1200
aVhttp://dbpedia.org/ontology/restingPlace
p1201
aVhttp://dbpedia.org/ontology/spokenIn
p1202
aVhttp://dbpedia.org/property/altFlag
p1203
aVhttp://dbpedia.org/property/jurisdiction
p1204
aVhttp://dbpedia.org/property/leaderTitle
p1205
aVhttp://www.w3.org/2000/01/rdf-schema#seeAlso
p1206
aVhttp://dbpedia.org/property/currency
p1207
aVhttp://dbpedia.org/property/birthDate
p1208
aVhttp://dbpedia.org/property/hostCity
p1209
aVhttp://dbpedia.org/ontology/foundationPlace
p1210
aVhttp://dbpedia.org/property/patronage
p1211
aVhttp://dbpedia.org/property/mouthCountry
p1212
aVhttp://dbpedia.org/property/1rpt2Loc
p1213
aVhttp://dbpedia.org/property/legislature
p1214
aVhttp://dbpedia.org/ontology/locatedInArea
p1215
aVhttp://dbpedia.org/property/site
p1216
aVhttp://dbpedia.org/property/label
p1217
aVhttp://dbpedia.org/ontology/country
p1218
aVhttp://dbpedia.org/property/region
p1219
aVhttp://dbpedia.org/property/nationalAnthem
p1220
aVhttp://dbpedia.org/property/destinations
p1221
aVhttp://dbpedia.org/property/home
p1222
aVhttp://dbpedia.org/property/birthPlace
p1223
aVhttp://dbpedia.org/property/bankOf
p1224
aVhttp://dbpedia.org/property/possessions
p1225
aVhttp://dbpedia.org/property/country
p1226
aVhttp://dbpedia.org/ontology/billed
p1227
aVhttp://dbpedia.org/property/hqLocationCountry
p1228
aVhttp://dbpedia.org/property/areaServed
p1229
aVhttp://dbpedia.org/property/areasAffected
p1230
aVhttp://dbpedia.org/ontology/county
p1231
aVhttp://xmlns.com/foaf/0.1/primaryTopic
p1232
aVhttp://dbpedia.org/property/county
p1233
aVhttp://dbpedia.org/property/diaspora
p1234
aVhttp://dbpedia.org/ontology/successor
p1235
aVhttp://dbpedia.org/ontology/firstDriverCountry
p1236
aVhttp://dbpedia.org/property/location
p1237
aVhttp://dbpedia.org/property/states
p1238
aVhttp://dbpedia.org/ontology/division
p1239
aVhttp://dbpedia.org/ontology/locationCountry
p1240
aVhttp://dbpedia.org/ontology/deathPlace
p1241
aVhttp://dbpedia.org/property/hasPhotoCollection
p1242
aVhttp://dbpedia.org/ontology/territory
p1243
aVhttp://dbpedia.org/property/headquarters
p1244
aVhttp://dbpedia.org/property/countryName
p1245
aVhttp://dbpedia.org/ontology/anthem
p1246
aVhttp://dbpedia.org/ontology/birthPlace
p1247
aVhttp://dbpedia.org/property/1rpt1Loc
p1248
aVhttp://dbpedia.org/ontology/wikiPageRedirects
p1249
aVhttp://dbpedia.org/property/citizenship
p1250
aVhttp://xmlns.com/foaf/0.1/homepage
p1251
aVhttp://dbpedia.org/property/host
p1252
aVhttp://dbpedia.org/ontology/stateOfOrigin
p1253
aVhttp://www.w3.org/2002/07/owl#sameAs
p1254
aVhttp://dbpedia.org/property/areas
p1255
aVhttp://dbpedia.org/property/stadium
p1256
aVhttp://dbpedia.org/property/recorded
p1257
aVhttp://dbpedia.org/ontology/origin
p1258
aVhttp://dbpedia.org/ontology/currency
p1259
aVhttp://dbpedia.org/property/rd1t2Loc
p1260
aVhttp://dbpedia.org/property/residence
p1261
aVhttp://dbpedia.org/property/altMap
p1262
aVhttp://dbpedia.org/property/capital
p1263
aVhttp://dbpedia.org/property/billed
p1264
aVhttp://www.w3.org/1999/02/22-rdf-syntax-ns#type
p1265
aVhttp://dbpedia.org/property/homecountry
p1266
aVhttp://dbpedia.org/ontology/capital
p1267
aVhttp://dbpedia.org/property/locationCountry
p1268
aVhttp://dbpedia.org/property/majorShrine
p1269
aVhttp://dbpedia.org/ontology/ground
p1270
aVhttp://dbpedia.org/property/lowerHouse
p1271
aVhttp://dbpedia.org/ontology/ethnicGroup
p1272
aVhttp://dbpedia.org/property/locationSigned
p1273
aVhttp://dbpedia.org/property/shipCountry
p1274
aVhttp://dbpedia.org/property/locationTown
p1275
aVhttp://dbpedia.org/property/foundedDate
p1276
aVhttp://xmlns.com/foaf/0.1/depiction
p1277
aVhttp://dbpedia.org/ontology/usingCountry
p1278
aVhttp://dbpedia.org/property/church
p1279
aVhttp://dbpedia.org/property/fightingOutOf
p1280
aVhttp://dbpedia.org/ontology/thumbnail
p1281
aVhttp://dbpedia.org/property/winnerOrigin
p1282
aVhttp://dbpedia.org/ontology/city
p1283
aVhttp://dbpedia.org/ontology/flag
p1284
aVhttp://dbpedia.org/property/province
p1285
aVhttp://dbpedia.org/property/subdivisionName
p1286
aVhttp://dbpedia.org/property/rd1t3Loc
p1287
aVhttp://dbpedia.org/property/popplace
p1288
aVhttp://dbpedia.org/property/address
p1289
aVhttp://dbpedia.org/property/destination
p1290
aVhttp://dbpedia.org/property/locationCity
p1291
aVhttp://dbpedia.org/property/founded
p1292
aVhttp://dbpedia.org/ontology/destination
p1293
aVhttp://dbpedia.org/property/designation1Free1value
p1294
aVhttp://dbpedia.org/property/ground
p1295
aVhttp://dbpedia.org/property/usingJurisdiction
p1296
aVhttp://dbpedia.org/property/place
p1297
aVhttp://dbpedia.org/ontology/citizenship
p1298
aVhttp://dbpedia.org/ontology/jurisdiction
p1299
aVhttp://dbpedia.org/property/caption
p1300
aVhttp://dbpedia.org/ontology/thirdDriverCountry
p1301
aVhttp://www.w3.org/2002/07/owl#differentFrom
p1302
aVhttp://dbpedia.org/property/2rpt1Loc
p1303
aVhttp://dbpedia.org/property/upperHouse
p1304
aVhttp://dbpedia.org/property/allegiance
p1305
aVhttp://dbpedia.org/property/countryOfProduction
p1306
aVhttp://dbpedia.org/property/available
p1307
aVhttp://dbpedia.org/ontology/place
p1308
aVhttp://dbpedia.org/property/office
p1309
aVhttp://dbpedia.org/property/nationality
p1310
aVhttp://dbpedia.org/property/foundedPlace
p1311
aVhttp://dbpedia.org/property/callingCode
p1312
aVhttp://dbpedia.org/property/rd1t4Loc
p1313
aVhttp://dbpedia.org/ontology/wikiPageDisambiguates
p1314
aVhttp://purl.org/dc/terms/subject
p1315
aVhttp://dbpedia.org/ontology/populationPlace
p1316
aVhttp://dbpedia.org/property/rd2t2Loc
p1317
aVhttp://dbpedia.org/property/state
p1318
aVhttp://dbpedia.org/property/deathPlace
p1319
aVhttp://dbpedia.org/property/otherCountries
p1320
aVhttp://dbpedia.org/ontology/headquarter
p1321
aVhttp://dbpedia.org/property/fifaTrigramme
p1322
aVhttp://dbpedia.org/ontology/sourceCountry
p1323
aVhttp://dbpedia.org/ontology/broadcastArea
p1324
aVhttp://dbpedia.org/property/locale
p1325
aVhttp://dbpedia.org/property/basinCountries
p1326
aVhttp://dbpedia.org/property/garrison
p1327
aVhttp://dbpedia.org/ontology/assembly
p1328
aVhttp://dbpedia.org/property/rd2t1Loc
p1329
aVhttp://www.w3.org/2000/01/rdf-schema#comment
p1330
aVhttp://dbpedia.org/property/data
p1331
aVhttp://dbpedia.org/property/rd1t1Loc
p1332
aVhttp://dbpedia.org/property/rd3t1Loc
p1333
aVhttp://dbpedia.org/property/officelocation
p1334
aVhttp://dbpedia.org/property/imageFlag
p1335
aVhttp://dbpedia.org/property/remit
p1336
aVhttp://dbpedia.org/property/regionServed
p1337
aVhttp://dbpedia.org/ontology/builder
p1338
aVhttp://dbpedia.org/property/thirdOther
p1339
aVhttp://dbpedia.org/ontology/locationCity
p1340
aVhttp://dbpedia.org/ontology/product
p1341
aVhttp://dbpedia.org/ontology/occupation
p1342
asI2
(lp1343
Vhttp://www.w3.org/2000/01/rdf-schema#seeAlso
p1344
aVhttp://dbpedia.org/property/placeOfDeath
p1345
aVhttp://dbpedia.org/property/ground
p1346
aVhttp://dbpedia.org/ontology/origin
p1347
aVhttp://dbpedia.org/property/residence
p1348
aVhttp://dbpedia.org/property/otherCountries
p1349
aVhttp://dbpedia.org/ontology/regionServed
p1350
aVhttp://dbpedia.org/ontology/country
p1351
aVhttp://dbpedia.org/property/locationCountry
p1352
aVhttp://dbpedia.org/property/allegiance
p1353
aVhttp://dbpedia.org/ontology/ground
p1354
aVhttp://dbpedia.org/ontology/nationality
p1355
aVhttp://dbpedia.org/property/birthPlace
p1356
aVhttp://dbpedia.org/ontology/place
p1357
aVhttp://dbpedia.org/property/nationalOrigin
p1358
aVhttp://dbpedia.org/property/nationality
p1359
aVhttp://dbpedia.org/property/country
p1360
aVhttp://dbpedia.org/property/shipCountry
p1361
aVhttp://dbpedia.org/property/areaServed
p1362
aVhttp://dbpedia.org/property/placeOfBirth
p1363
aVhttp://dbpedia.org/property/regionalScenes
p1364
aVhttp://dbpedia.org/ontology/populationPlace
p1365
aVhttp://dbpedia.org/ontology/residence
p1366
aVhttp://dbpedia.org/ontology/abstract
p1367
aVhttp://dbpedia.org/ontology/recordedIn
p1368
aVhttp://dbpedia.org/property/deathPlace
p1369
aVhttp://dbpedia.org/property/location
p1370
aVhttp://dbpedia.org/property/states
p1371
aVhttp://dbpedia.org/ontology/locationCountry
p1372
aVhttp://dbpedia.org/property/shortDescription
p1373
aVhttp://dbpedia.org/ontology/deathPlace
p1374
aVhttp://dbpedia.org/ontology/city
p1375
aVhttp://dbpedia.org/property/subdivisionName
p1376
aVhttp://dbpedia.org/ontology/sourceCountry
p1377
aVhttp://dbpedia.org/property/headquarters
p1378
aVhttp://dbpedia.org/property/basinCountries
p1379
aVhttp://dbpedia.org/property/currencyCode
p1380
aVhttp://dbpedia.org/ontology/location
p1381
aVhttp://dbpedia.org/ontology/birthPlace
p1382
aVhttp://dbpedia.org/ontology/citizenship
p1383
aVhttp://dbpedia.org/ontology/hometown
p1384
aVhttp://dbpedia.org/ontology/spokenIn
p1385
aVhttp://dbpedia.org/property/regionServed
p1386
aVhttp://dbpedia.org/ontology/stateOfOrigin
p1387
aVhttp://dbpedia.org/ontology/headquarter
p1388
asI3
(lp1389
Vhttp://dbpedia.org/property/origin
p1390
aVhttp://dbpedia.org/property/placeOfDeath
p1391
aVhttp://dbpedia.org/ontology/type
p1392
aVhttp://dbpedia.org/property/sourceCountry
p1393
aVhttp://dbpedia.org/property/awardedBy
p1394
aVhttp://dbpedia.org/property/cctld
p1395
aVhttp://dbpedia.org/property/nearestTown
p1396
aVhttp://dbpedia.org/ontology/mouthCountry
p1397
aVhttp://dbpedia.org/property/locations
p1398
aVhttp://dbpedia.org/property/city
p1399
aVhttp://dbpedia.org/ontology/garrison
p1400
aVhttp://dbpedia.org/property/sovereigntyType
p1401
aVhttp://www.w3.org/ns/prov#wasDerivedFrom
p1402
aVhttp://dbpedia.org/property/awards
p1403
aVhttp://dbpedia.org/property/territory
p1404
aVhttp://dbpedia.org/ontology/demonym
p1405
aVhttp://dbpedia.org/property/members
p1406
aVhttp://dbpedia.org/ontology/regionServed
p1407
aVhttp://dbpedia.org/property/serviceArea
p1408
aVhttp://dbpedia.org/property/firstRun
p1409
aVhttp://dbpedia.org/property/broadcastArea
p1410
aVhttp://dbpedia.org/property/assembly
p1411
aVhttp://dbpedia.org/ontology/nationality
p1412
aVhttp://dbpedia.org/property/country/region
p1413
aVhttp://dbpedia.org/property/shortDescription
p1414
aVhttp://xmlns.com/foaf/0.1/isPrimaryTopicOf
p1415
aVhttp://dbpedia.org/property/hometown
p1416
aVhttp://dbpedia.org/property/panPlace
p1417
aVhttp://dbpedia.org/property/meetingPlace
p1418
aVhttp://dbpedia.org/property/establishedEvent
p1419
aVhttp://dbpedia.org/property/regionalScenes
p1420
aVhttp://dbpedia.org/property/primaryUser
p1421
aVhttp://dbpedia.org/ontology/residence
p1422
aVhttp://dbpedia.org/ontology/abstract
p1423
aVhttp://dbpedia.org/ontology/recordedIn
p1424
aVhttp://dbpedia.org/property/venue
p1425
aVhttp://dbpedia.org/property/observedby
p1426
aVhttp://dbpedia.org/property/nationalOrigin
p1427
aVhttp://dbpedia.org/property/foundation
p1428
aVhttp://dbpedia.org/property/imageMap
p1429
aVhttp://dbpedia.org/ontology/location
p1430
aVhttp://dbpedia.org/property/countries
p1431
aVhttp://dbpedia.org/property/countriesAffected
p1432
aVhttp://dbpedia.org/ontology/wikiPageExternalLink
p1433
aVhttp://dbpedia.org/property/factory
p1434
aVhttp://dbpedia.org/property/placeOfBirth
p1435
aVhttp://dbpedia.org/property/area
p1436
aVhttp://dbpedia.org/ontology/hometown
p1437
aVhttp://dbpedia.org/ontology/restingPlace
p1438
aVhttp://dbpedia.org/ontology/spokenIn
p1439
aVhttp://dbpedia.org/property/altFlag
p1440
aVhttp://dbpedia.org/property/jurisdiction
p1441
aVhttp://dbpedia.org/property/leaderTitle
p1442
aVhttp://www.w3.org/2000/01/rdf-schema#seeAlso
p1443
aVhttp://dbpedia.org/property/currency
p1444
aVhttp://dbpedia.org/ontology/wikiPageRedirects
p1445
aVhttp://dbpedia.org/property/birthDate
p1446
aVhttp://dbpedia.org/property/hostCity
p1447
aVhttp://dbpedia.org/ontology/foundationPlace
p1448
aVhttp://dbpedia.org/property/winnerOrigin
p1449
aVhttp://dbpedia.org/property/patronage
p1450
aVhttp://dbpedia.org/property/mouthCountry
p1451
aVhttp://dbpedia.org/property/1rpt2Loc
p1452
aVhttp://dbpedia.org/property/legislature
p1453
aVhttp://dbpedia.org/ontology/locatedInArea
p1454
aVhttp://dbpedia.org/property/province
p1455
aVhttp://dbpedia.org/property/label
p1456
aVhttp://dbpedia.org/ontology/country
p1457
aVhttp://dbpedia.org/property/region
p1458
aVhttp://dbpedia.org/property/nationalAnthem
p1459
aVhttp://dbpedia.org/property/destinations
p1460
aVhttp://dbpedia.org/property/home
p1461
aVhttp://dbpedia.org/property/birthPlace
p1462
aVhttp://dbpedia.org/property/bankOf
p1463
aVhttp://dbpedia.org/property/possessions
p1464
aVhttp://dbpedia.org/property/country
p1465
aVhttp://dbpedia.org/ontology/billed
p1466
aVhttp://dbpedia.org/property/hqLocationCountry
p1467
aVhttp://dbpedia.org/property/areaServed
p1468
aVhttp://dbpedia.org/property/areasAffected
p1469
aVhttp://dbpedia.org/ontology/county
p1470
aVhttp://xmlns.com/foaf/0.1/primaryTopic
p1471
aVhttp://dbpedia.org/property/county
p1472
aVhttp://dbpedia.org/property/diaspora
p1473
aVhttp://dbpedia.org/ontology/successor
p1474
aVhttp://dbpedia.org/ontology/firstDriverCountry
p1475
aVhttp://dbpedia.org/property/location
p1476
aVhttp://dbpedia.org/property/states
p1477
aVhttp://dbpedia.org/ontology/division
p1478
aVhttp://dbpedia.org/ontology/locationCountry
p1479
aVhttp://dbpedia.org/ontology/deathPlace
p1480
aVhttp://dbpedia.org/property/hasPhotoCollection
p1481
aVhttp://dbpedia.org/ontology/territory
p1482
aVhttp://dbpedia.org/property/headquarters
p1483
aVhttp://dbpedia.org/property/countryName
p1484
aVhttp://dbpedia.org/ontology/anthem
p1485
aVhttp://dbpedia.org/ontology/birthPlace
p1486
aVhttp://dbpedia.org/property/1rpt1Loc
p1487
aVhttp://dbpedia.org/ontology/builder
p1488
aVhttp://dbpedia.org/property/citizenship
p1489
aVhttp://xmlns.com/foaf/0.1/homepage
p1490
aVhttp://dbpedia.org/property/host
p1491
aVhttp://dbpedia.org/ontology/stateOfOrigin
p1492
aVhttp://www.w3.org/2002/07/owl#sameAs
p1493
aVhttp://dbpedia.org/property/areas
p1494
aVhttp://dbpedia.org/property/stadium
p1495
aVhttp://dbpedia.org/property/recorded
p1496
aVhttp://dbpedia.org/ontology/origin
p1497
aVhttp://dbpedia.org/ontology/currency
p1498
aVhttp://dbpedia.org/property/rd1t2Loc
p1499
aVhttp://dbpedia.org/property/residence
p1500
aVhttp://dbpedia.org/property/altMap
p1501
aVhttp://dbpedia.org/property/capital
p1502
aVhttp://dbpedia.org/property/billed
p1503
aVhttp://www.w3.org/1999/02/22-rdf-syntax-ns#type
p1504
aVhttp://dbpedia.org/property/homecountry
p1505
aVhttp://dbpedia.org/ontology/capital
p1506
aVhttp://dbpedia.org/property/locationCountry
p1507
aVhttp://dbpedia.org/property/majorShrine
p1508
aVhttp://dbpedia.org/ontology/ground
p1509
aVhttp://dbpedia.org/property/lowerHouse
p1510
aVhttp://dbpedia.org/ontology/ethnicGroup
p1511
aVhttp://dbpedia.org/property/locationSigned
p1512
aVhttp://dbpedia.org/property/nativeName
p1513
aVhttp://dbpedia.org/property/shipCountry
p1514
aVhttp://dbpedia.org/property/locationTown
p1515
aVhttp://dbpedia.org/property/foundedDate
p1516
aVhttp://xmlns.com/foaf/0.1/depiction
p1517
aVhttp://dbpedia.org/ontology/usingCountry
p1518
aVhttp://dbpedia.org/property/church
p1519
aVhttp://dbpedia.org/property/fightingOutOf
p1520
aVhttp://dbpedia.org/ontology/thumbnail
p1521
aVhttp://dbpedia.org/property/countryOfProduction
p1522
aVhttp://dbpedia.org/ontology/city
p1523
aVhttp://dbpedia.org/ontology/flag
p1524
aVhttp://dbpedia.org/property/commonName
p1525
aVhttp://dbpedia.org/property/subdivisionName
p1526
aVhttp://dbpedia.org/property/rd1t3Loc
p1527
aVhttp://dbpedia.org/property/popplace
p1528
aVhttp://dbpedia.org/property/address
p1529
aVhttp://dbpedia.org/property/destination
p1530
aVhttp://dbpedia.org/property/locationCity
p1531
aVhttp://dbpedia.org/property/founded
p1532
aVhttp://dbpedia.org/ontology/destination
p1533
aVhttp://dbpedia.org/property/imageFlag
p1534
aVhttp://dbpedia.org/property/designation1Free1value
p1535
aVhttp://dbpedia.org/property/ground
p1536
aVhttp://dbpedia.org/property/usingJurisdiction
p1537
aVhttp://dbpedia.org/property/place
p1538
aVhttp://dbpedia.org/ontology/citizenship
p1539
aVhttp://dbpedia.org/ontology/jurisdiction
p1540
aVhttp://dbpedia.org/property/caption
p1541
aVhttp://dbpedia.org/ontology/thirdDriverCountry
p1542
aVhttp://www.w3.org/2002/07/owl#differentFrom
p1543
aVhttp://dbpedia.org/property/2rpt1Loc
p1544
aVhttp://dbpedia.org/property/upperHouse
p1545
aVhttp://dbpedia.org/property/allegiance
p1546
aVhttp://dbpedia.org/property/site
p1547
aVhttp://dbpedia.org/property/available
p1548
aVhttp://dbpedia.org/ontology/place
p1549
aVhttp://dbpedia.org/property/office
p1550
aVhttp://dbpedia.org/property/nationality
p1551
aVhttp://dbpedia.org/property/foundedPlace
p1552
aVhttp://dbpedia.org/property/callingCode
p1553
aVhttp://dbpedia.org/property/rd1t4Loc
p1554
aVhttp://dbpedia.org/ontology/wikiPageDisambiguates
p1555
aVhttp://purl.org/dc/terms/subject
p1556
aVhttp://dbpedia.org/ontology/populationPlace
p1557
aVhttp://dbpedia.org/property/rd2t2Loc
p1558
aVhttp://dbpedia.org/property/state
p1559
aVhttp://dbpedia.org/property/deathPlace
p1560
aVhttp://dbpedia.org/property/otherCountries
p1561
aVhttp://dbpedia.org/ontology/headquarter
p1562
aVhttp://dbpedia.org/property/fifaTrigramme
p1563
aVhttp://www.w3.org/2000/01/rdf-schema#label
p1564
aVhttp://dbpedia.org/ontology/sourceCountry
p1565
aVhttp://dbpedia.org/ontology/broadcastArea
p1566
aVhttp://dbpedia.org/property/locale
p1567
aVhttp://dbpedia.org/property/basinCountries
p1568
aVhttp://dbpedia.org/property/currencyCode
p1569
aVhttp://dbpedia.org/property/garrison
p1570
aVhttp://dbpedia.org/ontology/assembly
p1571
aVhttp://dbpedia.org/property/rd2t1Loc
p1572
aVhttp://www.w3.org/2000/01/rdf-schema#comment
p1573
aVhttp://dbpedia.org/property/data
p1574
aVhttp://dbpedia.org/property/rd1t1Loc
p1575
aVhttp://dbpedia.org/property/rd3t1Loc
p1576
aVhttp://dbpedia.org/property/officelocation
p1577
aVhttp://dbpedia.org/property/demonym
p1578
aVhttp://dbpedia.org/property/remit
p1579
aVhttp://dbpedia.org/property/regionServed
p1580
aVhttp://xmlns.com/foaf/0.1/name
p1581
aVhttp://dbpedia.org/property/thirdOther
p1582
aVhttp://dbpedia.org/ontology/locationCity
p1583
aVhttp://dbpedia.org/ontology/product
p1584
aVhttp://dbpedia.org/ontology/occupation
p1585
assI10
(dp1586
I1
(lp1587
Vhttp://dbpedia.org/property/origin
p1588
aVhttp://dbpedia.org/property/cctld
p1589
aVhttp://dbpedia.org/ontology/garrison
p1590
aVhttp://dbpedia.org/property/sovereigntyType
p1591
aVhttp://www.w3.org/ns/prov#wasDerivedFrom
p1592
aVhttp://dbpedia.org/property/territory
p1593
aVhttp://dbpedia.org/ontology/demonym
p1594
aVhttp://dbpedia.org/ontology/regionServed
p1595
aVhttp://dbpedia.org/property/religion
p1596
aVhttp://dbpedia.org/property/empire
p1597
aVhttp://dbpedia.org/property/broadcastArea
p1598
aVhttp://dbpedia.org/property/patronSaint
p1599
aVhttp://dbpedia.org/ontology/nationality
p1600
aVhttp://xmlns.com/foaf/0.1/isPrimaryTopicOf
p1601
aVhttp://dbpedia.org/property/hometown
p1602
aVhttp://dbpedia.org/property/rallybase
p1603
aVhttp://dbpedia.org/property/meetingPlace
p1604
aVhttp://dbpedia.org/property/establishedEvent
p1605
aVhttp://dbpedia.org/property/nationality
p1606
aVhttp://dbpedia.org/ontology/abstract
p1607
aVhttp://dbpedia.org/ontology/recordedIn
p1608
aVhttp://dbpedia.org/property/shipNamesake
p1609
aVhttp://dbpedia.org/property/nationalOrigin
p1610
aVhttp://dbpedia.org/property/diocese
p1611
aVhttp://dbpedia.org/property/imageMap
p1612
aVhttp://dbpedia.org/property/shipBuilder
p1613
aVhttp://dbpedia.org/ontology/location
p1614
aVhttp://dbpedia.org/property/area
p1615
aVhttp://dbpedia.org/ontology/hometown
p1616
aVhttp://dbpedia.org/property/bankOf
p1617
aVhttp://dbpedia.org/ontology/spokenIn
p1618
aVhttp://dbpedia.org/property/jurisdiction
p1619
aVhttp://dbpedia.org/property/builders
p1620
aVhttp://www.w3.org/2000/01/rdf-schema#seeAlso
p1621
aVhttp://dbpedia.org/ontology/wikiPageExternalLink
p1622
aVhttp://dbpedia.org/property/hostCity
p1623
aVhttp://dbpedia.org/property/conventionalLongName
p1624
aVhttp://dbpedia.org/ontology/foundationPlace
p1625
aVhttp://dbpedia.org/ontology/officialLanguage
p1626
aVhttp://dbpedia.org/ontology/country
p1627
aVhttp://dbpedia.org/property/region
p1628
aVhttp://dbpedia.org/ontology/locationCountry
p1629
aVhttp://dbpedia.org/property/birthPlace
p1630
aVhttp://dbpedia.org/property/country
p1631
aVhttp://dbpedia.org/property/nation
p1632
aVhttp://dbpedia.org/property/areaServed
p1633
aVhttp://dbpedia.org/ontology/county
p1634
aVhttp://xmlns.com/foaf/0.1/primaryTopic
p1635
aVhttp://dbpedia.org/property/states
p1636
aVhttp://dbpedia.org/ontology/builder
p1637
aVhttp://dbpedia.org/ontology/deathPlace
p1638
aVhttp://dbpedia.org/property/hasPhotoCollection
p1639
aVhttp://dbpedia.org/property/headquarters
p1640
aVhttp://dbpedia.org/property/countryName
p1641
aVhttp://dbpedia.org/property/leaderTitle
p1642
aVhttp://dbpedia.org/ontology/birthPlace
p1643
aVhttp://dbpedia.org/ontology/wikiPageRedirects
p1644
aVhttp://www.w3.org/2004/02/skos/core#exactMatch
p1645
aVhttp://dbpedia.org/property/imageCoat
p1646
aVhttp://xmlns.com/foaf/0.1/homepage
p1647
aVhttp://dbpedia.org/property/garrison
p1648
aVhttp://dbpedia.org/property/south
p1649
aVhttp://dbpedia.org/ontology/origin
p1650
aVhttp://dbpedia.org/ontology/longName
p1651
aVhttp://dbpedia.org/property/reason
p1652
aVhttp://www.w3.org/1999/02/22-rdf-syntax-ns#type
p1653
aVhttp://dbpedia.org/property/bronze
p1654
aVhttp://dbpedia.org/property/locationCountry
p1655
aVhttp://dbpedia.org/property/title
p1656
aVhttp://dbpedia.org/property/placeOfBirth
p1657
aVhttp://dbpedia.org/property/ideology
p1658
aVhttp://xmlns.com/foaf/0.1/depiction
p1659
aVhttp://dbpedia.org/ontology/usingCountry
p1660
aVhttp://dbpedia.org/ontology/thumbnail
p1661
aVhttp://dbpedia.org/ontology/flag
p1662
aVhttp://dbpedia.org/property/subdivisionName
p1663
aVhttp://dbpedia.org/ontology/homeport
p1664
aVhttp://dbpedia.org/property/popplace
p1665
aVhttp://dbpedia.org/property/imageFlag
p1666
aVhttp://dbpedia.org/property/stadium
p1667
aVhttp://dbpedia.org/property/place
p1668
aVhttp://dbpedia.org/ontology/jurisdiction
p1669
aVhttp://dbpedia.org/property/caption
p1670
aVhttp://dbpedia.org/property/site
p1671
aVhttp://dbpedia.org/ontology/place
p1672
aVhttp://dbpedia.org/property/counties
p1673
aVhttp://dbpedia.org/property/demonym
p1674
aVhttp://dbpedia.org/ontology/wikiPageDisambiguates
p1675
aVhttp://dbpedia.org/ontology/ideology
p1676
aVhttp://purl.org/dc/terms/subject
p1677
aVhttp://dbpedia.org/ontology/populationPlace
p1678
aVhttp://dbpedia.org/property/location
p1679
aVhttp://dbpedia.org/property/armiger
p1680
aVhttp://dbpedia.org/ontology/headquarter
p1681
aVhttp://dbpedia.org/ontology/similar
p1682
aVhttp://dbpedia.org/ontology/language
p1683
aVhttp://dbpedia.org/ontology/broadcastArea
p1684
aVhttp://dbpedia.org/property/locale
p1685
aVhttp://dbpedia.org/property/basinCountries
p1686
aVhttp://dbpedia.org/property/asianPlace
p1687
aVhttp://www.w3.org/2000/01/rdf-schema#comment
p1688
aVhttp://dbpedia.org/property/seat
p1689
aVhttp://dbpedia.org/property/callingCode
p1690
aVhttp://www.w3.org/2002/07/owl#sameAs
p1691
aVhttp://dbpedia.org/property/observedby
p1692
asI2
(lp1693
Vhttp://www.w3.org/2000/01/rdf-schema#seeAlso
p1694
aVhttp://dbpedia.org/property/currency
p1695
aVhttp://dbpedia.org/property/rd2t6Loc
p1696
aVhttp://dbpedia.org/property/ground
p1697
aVhttp://dbpedia.org/property/2rpt2Loc
p1698
aVhttp://dbpedia.org/ontology/currency
p1699
aVhttp://dbpedia.org/property/membership
p1700
aVhttp://dbpedia.org/property/place
p1701
aVhttp://dbpedia.org/property/hostcity
p1702
aVhttp://dbpedia.org/property/footnoteA
p1703
aVhttp://dbpedia.org/property/rd2t3Loc
p1704
aVhttp://dbpedia.org/ontology/regionServed
p1705
aVhttp://dbpedia.org/ontology/country
p1706
aVhttp://dbpedia.org/property/returns
p1707
aVhttp://www.w3.org/1999/02/22-rdf-syntax-ns#type
p1708
aVhttp://dbpedia.org/property/2rpt1Loc
p1709
aVhttp://dbpedia.org/property/hostCity
p1710
aVhttp://dbpedia.org/property/rd1t2Loc
p1711
aVhttp://dbpedia.org/ontology/ground
p1712
aVhttp://dbpedia.org/property/timeZone
p1713
aVhttp://dbpedia.org/property/birthPlace
p1714
aVhttp://dbpedia.org/property/placeOfBirth
p1715
aVhttp://dbpedia.org/property/text
p1716
aVhttp://dbpedia.org/property/country
p1717
aVhttp://dbpedia.org/property/areaServed
p1718
aVhttp://dbpedia.org/ontology/wikiPageExternalLink
p1719
aVhttp://dbpedia.org/property/rd0t1Loc
p1720
aVhttp://purl.org/dc/terms/subject
p1721
aVhttp://dbpedia.org/property/origin
p1722
aVhttp://dbpedia.org/property/rd2t2Loc
p1723
aVhttp://dbpedia.org/ontology/abstract
p1724
aVhttp://dbpedia.org/property/rd1t8Loc
p1725
aVhttp://dbpedia.org/property/venue
p1726
aVhttp://dbpedia.org/property/location
p1727
aVhttp://dbpedia.org/ontology/builder
p1728
aVhttp://dbpedia.org/property/rd3t2Loc
p1729
aVhttp://dbpedia.org/property/timeZoneDst
p1730
aVhttp://dbpedia.org/property/rd2t4Loc
p1731
aVhttp://dbpedia.org/ontology/city
p1732
aVhttp://dbpedia.org/property/rd2t1Loc
p1733
aVhttp://dbpedia.org/ontology/sourceCountry
p1734
aVhttp://dbpedia.org/property/headquarters
p1735
aVhttp://dbpedia.org/property/basinCountries
p1736
aVhttp://dbpedia.org/property/currencyCode
p1737
aVhttp://dbpedia.org/property/shipBuilder
p1738
aVhttp://dbpedia.org/ontology/location
p1739
aVhttp://www.w3.org/2000/01/rdf-schema#comment
p1740
aVhttp://dbpedia.org/ontology/timeZone
p1741
aVhttp://dbpedia.org/ontology/birthPlace
p1742
aVhttp://dbpedia.org/property/countries
p1743
aVhttp://dbpedia.org/property/rd1t3Loc
p1744
aVhttp://dbpedia.org/ontology/hometown
p1745
aVhttp://dbpedia.org/property/rd3t1Loc
p1746
aVhttp://www.w3.org/2004/02/skos/core#exactMatch
p1747
aVhttp://dbpedia.org/property/stadium
p1748
aVhttp://www.w3.org/2002/07/owl#sameAs
p1749
aVhttp://dbpedia.org/ontology/headquarter
p1750
asI3
(lp1751
Vhttp://dbpedia.org/property/origin
p1752
aVhttp://dbpedia.org/property/cctld
p1753
aVhttp://dbpedia.org/ontology/garrison
p1754
aVhttp://dbpedia.org/property/sovereigntyType
p1755
aVhttp://www.w3.org/ns/prov#wasDerivedFrom
p1756
aVhttp://dbpedia.org/property/territory
p1757
aVhttp://dbpedia.org/ontology/demonym
p1758
aVhttp://dbpedia.org/ontology/regionServed
p1759
aVhttp://dbpedia.org/property/religion
p1760
aVhttp://dbpedia.org/property/empire
p1761
aVhttp://dbpedia.org/property/broadcastArea
p1762
aVhttp://dbpedia.org/property/patronSaint
p1763
aVhttp://dbpedia.org/ontology/nationality
p1764
aVhttp://xmlns.com/foaf/0.1/isPrimaryTopicOf
p1765
aVhttp://dbpedia.org/property/hometown
p1766
aVhttp://dbpedia.org/property/rallybase
p1767
aVhttp://dbpedia.org/property/diocese
p1768
aVhttp://dbpedia.org/property/meetingPlace
p1769
aVhttp://dbpedia.org/property/establishedEvent
p1770
aVhttp://dbpedia.org/property/nationality
p1771
aVhttp://dbpedia.org/ontology/abstract
p1772
aVhttp://dbpedia.org/ontology/recordedIn
p1773
aVhttp://dbpedia.org/property/shipNamesake
p1774
aVhttp://dbpedia.org/property/nationalOrigin
p1775
aVhttp://dbpedia.org/property/officialLanguages
p1776
aVhttp://dbpedia.org/property/imageMap
p1777
aVhttp://dbpedia.org/property/shipBuilder
p1778
aVhttp://dbpedia.org/ontology/location
p1779
aVhttp://dbpedia.org/property/area
p1780
aVhttp://dbpedia.org/ontology/hometown
p1781
aVhttp://dbpedia.org/property/bankOf
p1782
aVhttp://dbpedia.org/ontology/spokenIn
p1783
aVhttp://dbpedia.org/property/jurisdiction
p1784
aVhttp://dbpedia.org/property/builders
p1785
aVhttp://www.w3.org/2000/01/rdf-schema#seeAlso
p1786
aVhttp://dbpedia.org/ontology/wikiPageExternalLink
p1787
aVhttp://dbpedia.org/property/hostCity
p1788
aVhttp://dbpedia.org/property/conventionalLongName
p1789
aVhttp://dbpedia.org/ontology/foundationPlace
p1790
aVhttp://dbpedia.org/ontology/officialLanguage
p1791
aVhttp://dbpedia.org/ontology/country
p1792
aVhttp://dbpedia.org/property/region
p1793
aVhttp://dbpedia.org/property/nationalAnthem
p1794
aVhttp://dbpedia.org/ontology/locationCountry
p1795
aVhttp://dbpedia.org/property/birthPlace
p1796
aVhttp://dbpedia.org/property/country
p1797
aVhttp://dbpedia.org/property/nation
p1798
aVhttp://dbpedia.org/property/areaServed
p1799
aVhttp://dbpedia.org/ontology/county
p1800
aVhttp://xmlns.com/foaf/0.1/primaryTopic
p1801
aVhttp://dbpedia.org/property/states
p1802
aVhttp://dbpedia.org/ontology/builder
p1803
aVhttp://dbpedia.org/ontology/deathPlace
p1804
aVhttp://dbpedia.org/property/hasPhotoCollection
p1805
aVhttp://dbpedia.org/property/headquarters
p1806
aVhttp://dbpedia.org/property/countryName
p1807
aVhttp://dbpedia.org/property/leaderTitle
p1808
aVhttp://dbpedia.org/ontology/birthPlace
p1809
aVhttp://dbpedia.org/ontology/wikiPageRedirects
p1810
aVhttp://www.w3.org/2004/02/skos/core#exactMatch
p1811
aVhttp://dbpedia.org/property/imageCoat
p1812
aVhttp://xmlns.com/foaf/0.1/homepage
p1813
aVhttp://dbpedia.org/property/garrison
p1814
aVhttp://dbpedia.org/property/south
p1815
aVhttp://dbpedia.org/ontology/origin
p1816
aVhttp://dbpedia.org/ontology/longName
p1817
aVhttp://dbpedia.org/property/reason
p1818
aVhttp://www.w3.org/1999/02/22-rdf-syntax-ns#type
p1819
aVhttp://dbpedia.org/property/bronze
p1820
aVhttp://www.w3.org/2000/01/rdf-schema#label
p1821
aVhttp://dbpedia.org/property/locationCountry
p1822
aVhttp://dbpedia.org/property/title
p1823
aVhttp://dbpedia.org/property/placeOfBirth
p1824
aVhttp://dbpedia.org/property/ideology
p1825
aVhttp://xmlns.com/foaf/0.1/depiction
p1826
aVhttp://dbpedia.org/ontology/usingCountry
p1827
aVhttp://dbpedia.org/ontology/thumbnail
p1828
aVhttp://dbpedia.org/ontology/flag
p1829
aVhttp://dbpedia.org/property/commonName
p1830
aVhttp://dbpedia.org/property/subdivisionName
p1831
aVhttp://dbpedia.org/ontology/homeport
p1832
aVhttp://dbpedia.org/property/popplace
p1833
aVhttp://dbpedia.org/property/imageFlag
p1834
aVhttp://dbpedia.org/property/stadium
p1835
aVhttp://dbpedia.org/property/place
p1836
aVhttp://dbpedia.org/ontology/jurisdiction
p1837
aVhttp://dbpedia.org/property/caption
p1838
aVhttp://dbpedia.org/property/site
p1839
aVhttp://dbpedia.org/ontology/place
p1840
aVhttp://dbpedia.org/property/counties
p1841
aVhttp://dbpedia.org/property/callingCode
p1842
aVhttp://dbpedia.org/ontology/wikiPageDisambiguates
p1843
aVhttp://dbpedia.org/ontology/ideology
p1844
aVhttp://purl.org/dc/terms/subject
p1845
aVhttp://dbpedia.org/ontology/populationPlace
p1846
aVhttp://dbpedia.org/property/location
p1847
aVhttp://dbpedia.org/property/armiger
p1848
aVhttp://dbpedia.org/ontology/headquarter
p1849
aVhttp://dbpedia.org/ontology/similar
p1850
aVhttp://dbpedia.org/ontology/language
p1851
aVhttp://dbpedia.org/ontology/broadcastArea
p1852
aVhttp://dbpedia.org/property/locale
p1853
aVhttp://dbpedia.org/property/basinCountries
p1854
aVhttp://dbpedia.org/property/asianPlace
p1855
aVhttp://www.w3.org/2000/01/rdf-schema#comment
p1856
aVhttp://dbpedia.org/property/seat
p1857
aVhttp://dbpedia.org/property/demonym
p1858
aVhttp://www.w3.org/2002/07/owl#sameAs
p1859
aVhttp://xmlns.com/foaf/0.1/name
p1860
aVhttp://dbpedia.org/property/observedby
p1861
assI11
(dp1862
I1
(lp1863
Vhttp://www.w3.org/2000/01/rdf-schema#seeAlso
p1864
aVhttp://dbpedia.org/property/origin
p1865
aVhttp://dbpedia.org/ontology/wikiPageRedirects
p1866
aVhttp://dbpedia.org/property/recorded
p1867
aVhttp://dbpedia.org/property/cctld
p1868
aVhttp://dbpedia.org/ontology/foundationPlace
p1869
aVhttp://dbpedia.org/property/base
p1870
aVhttp://dbpedia.org/ontology/country
p1871
aVhttp://dbpedia.org/ontology/nationality
p1872
aVhttp://dbpedia.org/property/locationCountry
p1873
aVhttp://dbpedia.org/property/broadcastArea
p1874
aVhttp://dbpedia.org/property/birthPlace
p1875
aVhttp://dbpedia.org/property/availability
p1876
aVhttp://dbpedia.org/ontology/isPartOf
p1877
aVhttp://dbpedia.org/property/source
p1878
aVhttp://dbpedia.org/ontology/deathPlace
p1879
aVhttp://dbpedia.org/ontology/place
p1880
aVhttp://dbpedia.org/property/placeOfBirth
p1881
aVhttp://dbpedia.org/property/countryCode
p1882
aVhttp://dbpedia.org/property/country
p1883
aVhttp://dbpedia.org/property/shipCountry
p1884
aVhttp://dbpedia.org/ontology/wikiPageDisambiguates
p1885
aVhttp://dbpedia.org/ontology/wikiPageExternalLink
p1886
aVhttp://dbpedia.org/property/nationality
p1887
aVhttp://dbpedia.org/ontology/abstract
p1888
aVhttp://dbpedia.org/ontology/recordedIn
p1889
aVhttp://dbpedia.org/property/deathPlace
p1890
aVhttp://dbpedia.org/property/location
p1891
aVhttp://dbpedia.org/ontology/locationCountry
p1892
aVhttp://dbpedia.org/property/id
p1893
aVhttp://dbpedia.org/property/foundation
p1894
aVhttp://dbpedia.org/property/usedBy
p1895
aVhttp://dbpedia.org/property/subdivisionName
p1896
aVhttp://dbpedia.org/property/headquarters
p1897
aVhttp://dbpedia.org/ontology/location
p1898
aVhttp://www.w3.org/2000/01/rdf-schema#comment
p1899
aVhttp://dbpedia.org/ontology/birthPlace
p1900
aVhttp://dbpedia.org/ontology/builder
p1901
aVhttp://dbpedia.org/ontology/hometown
p1902
aVhttp://www.w3.org/2004/02/skos/core#exactMatch
p1903
aVhttp://dbpedia.org/property/stadium
p1904
aVhttp://xmlns.com/foaf/0.1/homepage
p1905
aVhttp://dbpedia.org/ontology/stateOfOrigin
p1906
aVhttp://www.w3.org/2002/07/owl#sameAs
p1907
aVhttp://dbpedia.org/ontology/headquarter
p1908
asI2
(lp1909
Vhttp://www.w3.org/2000/01/rdf-schema#seeAlso
p1910
aVhttp://dbpedia.org/property/currency
p1911
aVhttp://dbpedia.org/property/rd2t4Loc
p1912
aVhttp://dbpedia.org/property/ground
p1913
aVhttp://dbpedia.org/property/2rpt2Loc
p1914
aVhttp://dbpedia.org/ontology/currency
p1915
aVhttp://dbpedia.org/property/membership
p1916
aVhttp://dbpedia.org/ontology/foundationPlace
p1917
aVhttp://dbpedia.org/property/residence
p1918
aVhttp://dbpedia.org/property/hostcity
p1919
aVhttp://dbpedia.org/property/placeOfDeath
p1920
aVhttp://dbpedia.org/property/foundation
p1921
aVhttp://dbpedia.org/property/footnoteC
p1922
aVhttp://dbpedia.org/property/rd2t3Loc
p1923
aVhttp://dbpedia.org/property/footnoteE
p1924
aVhttp://dbpedia.org/property/footnoteD
p1925
aVhttp://dbpedia.org/property/footnoteG
p1926
aVhttp://dbpedia.org/ontology/regionServed
p1927
aVhttp://dbpedia.org/ontology/country
p1928
aVhttp://dbpedia.org/property/returns
p1929
aVhttp://www.w3.org/1999/02/22-rdf-syntax-ns#type
p1930
aVhttp://dbpedia.org/property/locationCountry
p1931
aVhttp://dbpedia.org/property/hostCity
p1932
aVhttp://dbpedia.org/property/rd1t5Loc
p1933
aVhttp://dbpedia.org/property/birthPlace
p1934
aVhttp://dbpedia.org/ontology/ground
p1935
aVhttp://dbpedia.org/property/withdraws
p1936
aVhttp://dbpedia.org/ontology/nationality
p1937
aVhttp://dbpedia.org/ontology/deathPlace
p1938
aVhttp://dbpedia.org/property/text
p1939
aVhttp://dbpedia.org/ontology/ethnicGroup
p1940
aVhttp://dbpedia.org/property/allegiance
p1941
aVhttp://dbpedia.org/property/locationSigned
p1942
aVhttp://dbpedia.org/property/country
p1943
aVhttp://dbpedia.org/property/countries
p1944
aVhttp://dbpedia.org/property/areaServed
p1945
aVhttp://dbpedia.org/property/placeOfBirth
p1946
aVhttp://dbpedia.org/ontology/wikiPageExternalLink
p1947
aVhttp://purl.org/dc/terms/subject
p1948
aVhttp://dbpedia.org/ontology/populationPlace
p1949
aVhttp://dbpedia.org/property/origin
p1950
aVhttp://dbpedia.org/property/rd2t1Loc
p1951
aVhttp://dbpedia.org/property/foundedDate
p1952
aVhttp://dbpedia.org/ontology/residence
p1953
aVhttp://dbpedia.org/ontology/abstract
p1954
aVhttp://dbpedia.org/property/venue
p1955
aVhttp://dbpedia.org/property/location
p1956
aVhttp://dbpedia.org/ontology/locationCountry
p1957
aVhttp://dbpedia.org/property/windance
p1958
aVhttp://dbpedia.org/ontology/headquarter
p1959
aVhttp://dbpedia.org/property/nationality
p1960
aVhttp://dbpedia.org/ontology/city
p1961
aVhttp://dbpedia.org/ontology/routeStart
p1962
aVhttp://dbpedia.org/property/subdivisionName
p1963
aVhttp://dbpedia.org/property/headquarters
p1964
aVhttp://dbpedia.org/ontology/location
p1965
aVhttp://www.w3.org/2000/01/rdf-schema#comment
p1966
aVhttp://dbpedia.org/ontology/timeZone
p1967
aVhttp://dbpedia.org/ontology/birthPlace
p1968
aVhttp://dbpedia.org/property/address
p1969
aVhttp://dbpedia.org/ontology/wikiPageRedirects
p1970
aVhttp://dbpedia.org/ontology/hometown
p1971
aVhttp://www.w3.org/2004/02/skos/core#exactMatch
p1972
aVhttp://dbpedia.org/property/stadium
p1973
aVhttp://dbpedia.org/property/host
p1974
aVhttp://dbpedia.org/ontology/stateOfOrigin
p1975
aVhttp://www.w3.org/2002/07/owl#sameAs
p1976
aVhttp://dbpedia.org/property/timeZoneDst
p1977
asI3
(lp1978
Vhttp://www.w3.org/2000/01/rdf-schema#seeAlso
p1979
aVhttp://dbpedia.org/property/origin
p1980
aVhttp://dbpedia.org/ontology/wikiPageRedirects
p1981
aVhttp://dbpedia.org/property/recorded
p1982
aVhttp://dbpedia.org/property/cctld
p1983
aVhttp://dbpedia.org/ontology/foundationPlace
p1984
aVhttp://dbpedia.org/property/base
p1985
aVhttp://dbpedia.org/ontology/country
p1986
aVhttp://dbpedia.org/ontology/nationality
p1987
aVhttp://dbpedia.org/property/locationCountry
p1988
aVhttp://dbpedia.org/property/broadcastArea
p1989
aVhttp://dbpedia.org/property/birthPlace
p1990
aVhttp://dbpedia.org/property/availability
p1991
aVhttp://dbpedia.org/ontology/isPartOf
p1992
aVhttp://dbpedia.org/property/source
p1993
aVhttp://dbpedia.org/ontology/deathPlace
p1994
aVhttp://dbpedia.org/ontology/place
p1995
aVhttp://dbpedia.org/property/placeOfBirth
p1996
aVhttp://dbpedia.org/property/countryCode
p1997
aVhttp://dbpedia.org/property/country
p1998
aVhttp://dbpedia.org/property/shipCountry
p1999
aVhttp://dbpedia.org/ontology/wikiPageDisambiguates
p2000
aVhttp://dbpedia.org/ontology/wikiPageExternalLink
p2001
aVhttp://dbpedia.org/property/iso3166code
p2002
aVhttp://dbpedia.org/property/nationality
p2003
aVhttp://dbpedia.org/ontology/abstract
p2004
aVhttp://dbpedia.org/ontology/recordedIn
p2005
aVhttp://dbpedia.org/property/deathPlace
p2006
aVhttp://dbpedia.org/property/location
p2007
aVhttp://dbpedia.org/ontology/locationCountry
p2008
aVhttp://dbpedia.org/property/id
p2009
aVhttp://dbpedia.org/property/foundation
p2010
aVhttp://dbpedia.org/property/usedBy
p2011
aVhttp://dbpedia.org/property/subdivisionName
p2012
aVhttp://dbpedia.org/property/headquarters
p2013
aVhttp://dbpedia.org/ontology/location
p2014
aVhttp://www.w3.org/2000/01/rdf-schema#comment
p2015
aVhttp://dbpedia.org/ontology/birthPlace
p2016
aVhttp://dbpedia.org/ontology/builder
p2017
aVhttp://dbpedia.org/ontology/hometown
p2018
aVhttp://www.w3.org/2004/02/skos/core#exactMatch
p2019
aVhttp://dbpedia.org/property/stadium
p2020
aVhttp://xmlns.com/foaf/0.1/homepage
p2021
aVhttp://dbpedia.org/ontology/stateOfOrigin
p2022
aVhttp://www.w3.org/2002/07/owl#sameAs
p2023
aVhttp://dbpedia.org/ontology/headquarter
p2024
assI12
(dp2025
I1
(lp2026
Vhttp://dbpedia.org/ontology/wikiPageExternalLink
p2027
aVhttp://dbpedia.org/property/origin
p2028
aVhttp://dbpedia.org/property/imageMap
p2029
aVhttp://dbpedia.org/property/recorded
p2030
aVhttp://dbpedia.org/ontology/location
p2031
aVhttp://dbpedia.org/ontology/abstract
p2032
aVhttp://dbpedia.org/property/birthPlace
p2033
aVhttp://dbpedia.org/property/mapEntity
p2034
aVhttp://dbpedia.org/ontology/wikiPageRedirects
p2035
aVhttp://dbpedia.org/ontology/hometown
p2036
aVhttp://dbpedia.org/ontology/locationCountry
p2037
aVhttp://www.w3.org/2004/02/skos/core#exactMatch
p2038
aVhttp://dbpedia.org/property/areaServed
p2039
aVhttp://dbpedia.org/property/regionServed
p2040
aVhttp://dbpedia.org/property/location
p2041
aVhttp://dbpedia.org/ontology/birthPlace
p2042
aVhttp://dbpedia.org/property/img
p2043
aVhttp://dbpedia.org/property/placeOfBirth
p2044
asI2
(lp2045
Vhttp://dbpedia.org/property/currencyCode
p2046
asI3
(lp2047
Vhttp://www.w3.org/2000/01/rdf-schema#seeAlso
p2048
aVhttp://dbpedia.org/ontology/country
p2049
aVhttp://dbpedia.org/property/currencyCode
p2050
aVhttp://dbpedia.org/ontology/location
p2051
aVhttp://dbpedia.org/ontology/abstract
p2052
aVhttp://dbpedia.org/property/deathPlace
p2053
aVhttp://dbpedia.org/property/location
p2054
aVhttp://dbpedia.org/property/ruNationalteam
p2055
aVhttp://dbpedia.org/property/city
p2056
aVhttp://dbpedia.org/property/birthPlace
p2057
aVhttp://dbpedia.org/ontology/deathPlace
p2058
aVhttp://dbpedia.org/property/placeOfDeath
p2059
aVhttp://dbpedia.org/property/country
p2060
aVhttp://dbpedia.org/ontology/city
p2061
aVhttp://dbpedia.org/property/rallybase
p2062
aVhttp://dbpedia.org/property/remit
p2063
aVhttp://dbpedia.org/ontology/birthPlace
p2064
aVhttp://dbpedia.org/property/stadium
p2065
aVhttp://dbpedia.org/property/placeOfBirth
p2066
ass.