(lp1
(lp2
(lp3
Vhttp://dbpedia.org/resource/Australia
p4
aa(lp5
Vhttp://dbpedia.org/resource/.au
p6
aa(lp7
a(lp8
aa(lp9
(lp10
a(lp11
Vhttp://dbpedia.org/resource/.cz
p12
aa(lp13
a(lp14
aa(lp15
(lp16
Vhttp://dbpedia.org/resource/Germany
p17
aa(lp18
a(lp19
a(lp20
aa(lp21
(lp22
Vhttp://dbpedia.org/resource/Scotland
p23
aa(lp24
Vhttp://dbpedia.org/resource/.uk
p25
aa(lp26
a(lp27
aa(lp28
(lp29
Vhttp://dbpedia.org/resource/Bermuda
p30
aa(lp31
Vhttp://dbpedia.org/resource/.bm
p32
aa(lp33
a(lp34
aa(lp35
(lp36
Vhttp://dbpedia.org/resource/England
p37
aa(lp38
Vhttp://dbpedia.org/resource/.uk
p39
aa(lp40
a(lp41
aa(lp42
(lp43
a(lp44
a(lp45
a(lp46
aa(lp47
(lp48
a(lp49
a(lp50
a(lp51
aa(lp52
(lp53
Vhttp://dbpedia.org/resource/United_States
p54
aa(lp55
a(lp56
a(lp57
aa(lp58
(lp59
Vhttp://dbpedia.org/resource/Canada
p60
aa(lp61
a(lp62
a(lp63
aa(lp64
(lp65
Vhttp://dbpedia.org/resource/Finland
p66
aa(lp67
Vhttp://dbpedia.org/resource/.fi
p68
aa(lp69
a(lp70
aa(lp71
(lp72
Vhttp://dbpedia.org/resource/Netherlands
p73
aa(lp74
Vhttp://dbpedia.org/resource/.nl
p75
aa(lp76
a(lp77
aa(lp78
(lp79
Vhttp://dbpedia.org/resource/Wales
p80
aa(lp81
Vhttp://dbpedia.org/resource/.uk
p82
aa(lp83
a(lp84
aa(lp85
(lp86
a(lp87
Vhttp://dbpedia.org/resource/.ps
p88
aa(lp89
a(lp90
aa(lp91
(lp92
a(lp93
a(lp94
a(lp95
aa(lp96
(lp97
a(lp98
a(lp99
a(lp100
aa.