(lp1
(lp2
(dp3
Vstart
p4
I0
sVdisambiguatedURL
p5
NsVnamedEntity
p6
V137       1242.0238 HR8525 ~Selti Monitor
p7
sVoffset
p8
I44
saa(lp9
(dp10
Vstart
p11
I0
sVdisambiguatedURL
p12
NsVnamedEntity
p13
V Olivetti Monitor
p14
sVoffset
p15
I98
saa(lp16
(dp17
Vstart
p18
I0
sVdisambiguatedURL
p19
NsVnamedEntity
p20
VKD-1911-A ~KDS Monitor
p21
sVoffset
p22
I22
saa(lp23
(dp24
Vstart
p25
I0
sVdisambiguatedURL
p26
NsVnamedEntity
p27
VKF2819T ~ Industrial Monitor
p28
sVoffset
p29
I28
saa(lp30
(dp31
Vstart
p32
I0
sVdisambiguatedURL
p33
NsVnamedEntity
p34
V       Mitsubishi Broadcast Monitor
p35
sVoffset
p36
I128
saa(lp37
(dp38
Vstart
p39
I0
sVdisambiguatedURL
p40
NsVnamedEntity
p41
VKFS21288 KFS-21288 SMF-M018 MMF-81011 ~       Monochrome industrial monitor
p42
sVoffset
p43
I75
saa(lp44
(dp45
Vstart
p46
I0
sVdisambiguatedURL
p47
NsVnamedEntity
p48
VKFS-21642       MMF-81121 E105192 LR87861 ~ Motorola RF Analyzer
p49
sVoffset
p50
I64
saa(lp51
(dp52
Vstart
p53
I0
sVdisambiguatedURL
p54
NsVnamedEntity
p55
VKFS-21643       E105192 MMF81121 LR87861      ~ Xycom monitor
p56
sVoffset
p57
I61
saa(lp58
(dp59
Vstart
p60
I0
sVdisambiguatedURL
p61
NsVnamedEntity
p62
VKFS-60266 KFS60266 KFS-60266B KFS60266B       HR7468 FA2019 FA2019P BSC2604 DCF2077Z DNF-FA2019 DNFFA2019       5CL4120190 MCK-20A036 FUHT20A001 ~Wells gardner monitor
p63
sVoffset
p64
I167
saa(lp65
(dp66
Vstart
p67
I0
sVdisambiguatedURL
p68
NsVnamedEntity
p69
VKFS-60418D-C       E105192 LR87861 CF-9675 ~       Kortec monitor            Snapshot of       Original
p70
sVoffset
p71
I103
saa(lp72
(dp73
Vstart
p74
I0
sVdisambiguatedURL
p75
NsVnamedEntity
p76
VKFS-60713       MCF-06351 MCF06351 HR46724 ~       Wells Gardner 13K1001 Monitor
p77
sVoffset
p78
I80
saa(lp79
(dp80
Vstart
p81
I0
sVdisambiguatedURL
p82
NsVnamedEntity
p83
VKFS-60717 KFS60717 HR8178 ~Wells       Gardner Monitor
p84
sVoffset
p85
I54
saa(lp86
(dp87
Vstart
p88
I0
sVdisambiguatedURL
p89
NsVnamedEntity
p90
VKFS-61107A KFS61107 KFS61107A HR46140       MCF-36633 LR87861 E105192 ~Hyundai monitor
p91
sVoffset
p92
I86
saa(lp93
(dp94
Vstart
p95
I0
sVdisambiguatedURL
p96
NsVnamedEntity
p97
V Sharp Image Monitor
p98
sVoffset
p99
I117
saa(lp100
(dp101
Vstart
p102
I0
sVdisambiguatedURL
p103
NsVnamedEntity
p104
V Sharp Image Monitor
p105
sVoffset
p106
I69
saa(lp107
(dp108
Vstart
p109
I0
sVdisambiguatedURL
p110
NsVnamedEntity
p111
VKFS-61202A       FNH26P2E 33-136120201 ~Gaming Monitor
p112
sVoffset
p113
I54
saa(lp114
(dp115
Vstart
p116
I0
sVdisambiguatedURL
p117
NsVnamedEntity
p118
VKFS-61432       6174Z-2002E MCF56671 ~Hyundai Monitor
p119
sVoffset
p120
I53
saa(lp121
(dp122
Vstart
p123
I0
sVdisambiguatedURL
p124
NsVnamedEntity
p125
VKFS-61441       KFS61441 ~ monitor
p126
sVoffset
p127
I34
saa(lp128
(dp129
Vstart
p130
I0
sVdisambiguatedURL
p131
NsVnamedEntity
p132
VKFS-61545       Y265387 ~KDS Monitor
p133
sVoffset
p134
I36
saa(lp135
(dp136
Vstart
p137
I0
sVdisambiguatedURL
p138
NsVnamedEntity
p139
VKFS-61586-1 KFS-61586 KFS615861 ~ Sanwa Monitor
p140
sVoffset
p141
I47
saa.