(lp1
(lp2
(lp3
a(lp4
a(lp5
aa(lp6
(lp7
Vhttp://dbpedia.org/resource/Regiomontanus
p8
aa(lp9
a(lp10
aa(lp11
(lp12
a(lp13
a(lp14
aa(lp15
(lp16
Vhttp://dbpedia.org/resource/Martin_Luther
p17
aa(lp18
a(lp19
aa(lp20
(lp21
a(lp22
a(lp23
aa(lp24
(lp25
a(lp26
a(lp27
aa(lp28
(lp29
a(lp30
a(lp31
aa(lp32
(lp33
Vhttp://dbpedia.org/resource/Johannes_Kepler
p34
aa(lp35
a(lp36
aa(lp37
(lp38
Vhttp://dbpedia.org/resource/Gottfried_Wilhelm_Leibniz
p39
aa(lp40
a(lp41
aa(lp42
(lp43
Vhttp://dbpedia.org/resource/Johann_Sebastian_Bach_(painter)
p44
aa(lp45
a(lp46
aa(lp47
(lp48
Vhttp://dbpedia.org/resource/George_Frideric_Handel
p49
aa(lp50
a(lp51
aa(lp52
(lp53
a(lp54
a(lp55
aa(lp56
(lp57
Vhttp://dbpedia.org/resource/Johann_Gottfried_Herder
p58
aa(lp59
a(lp60
aa(lp61
(lp62
a(lp63
a(lp64
aa(lp65
(lp66
Vhttp://dbpedia.org/resource/Friedrich_Schiller
p67
aa(lp68
a(lp69
aa(lp70
(lp71
Vhttp://dbpedia.org/resource/Wilhelm_von_Humboldt
p72
aa(lp73
a(lp74
aa(lp75
(lp76
Vhttp://dbpedia.org/resource/Alexander_von_Humboldt
p77
aa(lp78
a(lp79
aa(lp80
(lp81
Vhttp://dbpedia.org/resource/Ludwig_van_Beethoven
p82
aa(lp83
a(lp84
aa(lp85
(lp86
Vhttp://dbpedia.org/resource/Georg_Wilhelm_Friedrich_Hegel
p87
aa(lp88
a(lp89
aa(lp90
(lp91
Vhttp://dbpedia.org/resource/Caspar_David_Friedrich
p92
aa(lp93
a(lp94
aa.