(lp1
(lp2
(lp3
Vhttp://dbpedia.org/resource/Agency_114
p4
aa(lp5
a(lp6
a(lp7
aa(lp8
(lp9
a(lp10
a(lp11
a(lp12
aa(lp13
(lp14
a(lp15
a(lp16
a(lp17
aa(lp18
(lp19
a(lp20
a(lp21
a(lp22
aa(lp23
(lp24
Vhttp://dbpedia.org/resource/Havas_Worldwide
p25
aa(lp26
a(lp27
a(lp28
aa(lp29
(lp30
a(lp31
a(lp32
a(lp33
aa(lp34
(lp35
a(lp36
a(lp37
Vhttp://dbpedia.org/resource/Search_link_optimization
p38
aa(lp39
aa(lp40
(lp41
a(lp42
a(lp43
a(lp44
aa(lp45
(lp46
Vhttp://dbpedia.org/resource/Pentagram
p47
aa(lp48
a(lp49
a(lp50
aa(lp51
(lp52
Vhttp://dbpedia.org/resource/Screenvision
p53
aa(lp54
a(lp55
a(lp56
aa(lp57
(lp58
Vhttp://dbpedia.org/resource/TeQuila
p59
aa(lp60
a(lp61
a(lp62
aa(lp63
(lp64
a(lp65
a(lp66
a(lp67
aa(lp68
(lp69
a(lp70
Vhttp://dbpedia.org/resource/Fashion
p71
aa(lp72
a(lp73
aa(lp74
(lp75
a(lp76
Vhttp://dbpedia.org/resource/Fashion
p77
aa(lp78
a(lp79
aa(lp80
(lp81
a(lp82
Vhttp://dbpedia.org/resource/Fashion
p83
aa(lp84
a(lp85
aa(lp86
(lp87
a(lp88
Vhttp://dbpedia.org/resource/Fashion
p89
aa(lp90
a(lp91
aa(lp92
(lp93
Vhttp://dbpedia.org/resource/Jimmy_Jazz_Records
p94
aa(lp95
Vhttp://dbpedia.org/resource/Fashion
p96
aa(lp97
a(lp98
aa(lp99
(lp100
a(lp101
Vhttp://dbpedia.org/resource/Fashion
p102
aa(lp103
a(lp104
aa(lp105
(lp106
Vhttp://dbpedia.org/resource/Man_Alive_(band)
p107
aa(lp108
Vhttp://dbpedia.org/resource/Fashion
p109
aa(lp110
a(lp111
aa(lp112
(lp113
Vhttp://dbpedia.org/resource/Net-a-Porter
p114
aa(lp115
Vhttp://dbpedia.org/resource/Fashion
p116
aa(lp117
a(lp118
aa.