(lp1
(dp2
I0
(dp3
I0
(lp4
sI1
(lp5
sI2
(lp6
sI3
(lp7
ssI1
(dp8
I0
g5
sI1
(lp9
sI2
(lp10
sI3
(lp11
ssI2
(dp12
I0
g6
sI1
g10
sI2
(lp13
sI3
(lp14
ssI3
(dp15
I0
g7
sI1
g11
sI2
g14
sI3
(lp16
ssa(dp17
I0
(dp18
I0
(lp19
sI1
(lp20
sI2
(lp21
sI3
(lp22
ssI1
(dp23
I0
g20
sI1
(lp24
sI2
(lp25
sI3
(lp26
ssI2
(dp27
I0
g21
sI1
g25
sI2
(lp28
sI3
(lp29
ssI3
(dp30
I0
g22
sI1
g26
sI2
g29
sI3
(lp31
ssa(dp32
I0
(dp33
I0
(lp34
sI1
(lp35
sI2
(lp36
sI3
(lp37
ssI1
(dp38
I0
g35
sI1
(lp39
sI2
(lp40
sI3
(lp41
ssI2
(dp42
I0
g36
sI1
g40
sI2
(lp43
sI3
(lp44
ssI3
(dp45
I0
g37
sI1
g41
sI2
g44
sI3
(lp46
ssa(dp47
I0
(dp48
I0
(lp49
sI1
(lp50
sI2
(lp51
sI3
(lp52
ssI1
(dp53
I0
g50
sI1
(lp54
sI2
(lp55
sI3
(lp56
ssI2
(dp57
I0
g51
sI1
g55
sI2
(lp58
sI3
(lp59
Vhttp://dbpedia.org/ontology/wikiPageExternalLink
p60
assI3
(dp61
I0
g52
sI1
g56
sI2
g59
sI3
(lp62
ssa(dp63
I0
(dp64
I0
(lp65
sI1
(lp66
sI2
(lp67
sI3
(lp68
ssI1
(dp69
I0
g66
sI1
(lp70
sI2
(lp71
sI3
(lp72
ssI2
(dp73
I0
g67
sI1
g71
sI2
(lp74
sI3
(lp75
Vhttp://dbpedia.org/ontology/country
p76
aVhttp://dbpedia.org/property/country
p77
assI3
(dp78
I0
g68
sI1
g72
sI2
g75
sI3
(lp79
ssa(dp80
I0
(dp81
I0
(lp82
sI1
(lp83
sI2
(lp84
sI3
(lp85
ssI1
(dp86
I0
g83
sI1
(lp87
sI2
(lp88
sI3
(lp89
ssI2
(dp90
I0
g84
sI1
g88
sI2
(lp91
sI3
(lp92
Vhttp://dbpedia.org/property/origin
p93
aVhttp://dbpedia.org/property/recorded
p94
aVhttp://dbpedia.org/ontology/origin
p95
aVhttp://dbpedia.org/ontology/regionServed
p96
aVhttp://dbpedia.org/ontology/country
p97
aVhttp://www.w3.org/1999/02/22-rdf-syntax-ns#type
p98
aVhttp://dbpedia.org/property/locationCountry
p99
aVhttp://dbpedia.org/ontology/nationality
p100
aVhttp://dbpedia.org/property/birthPlace
p101
aVhttp://dbpedia.org/property/placeOfBirth
p102
aVhttp://dbpedia.org/property/country
p103
aVhttp://purl.org/dc/terms/subject
p104
aVhttp://dbpedia.org/property/nationality
p105
aVhttp://dbpedia.org/ontology/abstract
p106
aVhttp://dbpedia.org/ontology/recordedIn
p107
aVhttp://dbpedia.org/property/location
p108
aVhttp://dbpedia.org/ontology/locationCountry
p109
aVhttp://dbpedia.org/ontology/deathPlace
p110
aVhttp://dbpedia.org/ontology/language
p111
aVhttp://dbpedia.org/ontology/location
p112
aVhttp://dbpedia.org/property/languages
p113
aVhttp://dbpedia.org/ontology/stateOfOrigin
p114
aVhttp://dbpedia.org/property/headquarters
p115
aVhttp://dbpedia.org/ontology/birthPlace
p116
aVhttp://dbpedia.org/property/nationalOrigin
p117
aVhttp://dbpedia.org/ontology/hometown
p118
aVhttp://dbpedia.org/property/regionServed
p119
aVhttp://dbpedia.org/ontology/spokenIn
p120
aVhttp://dbpedia.org/property/data
p121
aVhttp://dbpedia.org/ontology/headquarter
p122
assI3
(dp123
I0
g85
sI1
g89
sI2
g92
sI3
(lp124
ssa(dp125
I0
(dp126
I0
(lp127
sI1
(lp128
sI2
(lp129
sI3
(lp130
ssI1
(dp131
I0
g128
sI1
(lp132
sI2
(lp133
sI3
(lp134
ssI2
(dp135
I0
g129
sI1
g133
sI2
(lp136
sI3
(lp137
Vhttp://dbpedia.org/property/origin
p138
aVhttp://dbpedia.org/property/recorded
p139
aVhttp://dbpedia.org/ontology/origin
p140
aVhttp://dbpedia.org/ontology/regionServed
p141
aVhttp://dbpedia.org/ontology/country
p142
aVhttp://www.w3.org/1999/02/22-rdf-syntax-ns#type
p143
aVhttp://dbpedia.org/property/locationCountry
p144
aVhttp://dbpedia.org/ontology/nationality
p145
aVhttp://dbpedia.org/property/birthPlace
p146
aVhttp://dbpedia.org/property/placeOfBirth
p147
aVhttp://dbpedia.org/property/country
p148
aVhttp://purl.org/dc/terms/subject
p149
aVhttp://dbpedia.org/property/nationality
p150
aVhttp://dbpedia.org/ontology/abstract
p151
aVhttp://dbpedia.org/ontology/recordedIn
p152
aVhttp://dbpedia.org/property/location
p153
aVhttp://dbpedia.org/ontology/locationCountry
p154
aVhttp://dbpedia.org/ontology/deathPlace
p155
aVhttp://dbpedia.org/ontology/language
p156
aVhttp://dbpedia.org/ontology/location
p157
aVhttp://dbpedia.org/property/languages
p158
aVhttp://dbpedia.org/ontology/stateOfOrigin
p159
aVhttp://dbpedia.org/property/headquarters
p160
aVhttp://dbpedia.org/ontology/birthPlace
p161
aVhttp://dbpedia.org/property/nationalOrigin
p162
aVhttp://dbpedia.org/ontology/hometown
p163
aVhttp://dbpedia.org/property/regionServed
p164
aVhttp://dbpedia.org/ontology/spokenIn
p165
aVhttp://dbpedia.org/property/data
p166
aVhttp://dbpedia.org/ontology/headquarter
p167
assI3
(dp168
I0
g130
sI1
g134
sI2
g137
sI3
(lp169
ssa(dp170
I0
(dp171
I0
(lp172
sI1
(lp173
sI2
(lp174
sI3
(lp175
ssI1
(dp176
I0
g173
sI1
(lp177
sI2
(lp178
sI3
(lp179
ssI2
(dp180
I0
g174
sI1
g178
sI2
(lp181
sI3
(lp182
Vhttp://dbpedia.org/property/origin
p183
aVhttp://dbpedia.org/property/recorded
p184
aVhttp://dbpedia.org/ontology/origin
p185
aVhttp://dbpedia.org/ontology/regionServed
p186
aVhttp://dbpedia.org/ontology/country
p187
aVhttp://www.w3.org/1999/02/22-rdf-syntax-ns#type
p188
aVhttp://dbpedia.org/property/locationCountry
p189
aVhttp://dbpedia.org/ontology/nationality
p190
aVhttp://dbpedia.org/property/birthPlace
p191
aVhttp://dbpedia.org/property/placeOfBirth
p192
aVhttp://dbpedia.org/property/country
p193
aVhttp://purl.org/dc/terms/subject
p194
aVhttp://dbpedia.org/property/nationality
p195
aVhttp://dbpedia.org/ontology/abstract
p196
aVhttp://dbpedia.org/ontology/recordedIn
p197
aVhttp://dbpedia.org/property/location
p198
aVhttp://dbpedia.org/ontology/locationCountry
p199
aVhttp://dbpedia.org/ontology/deathPlace
p200
aVhttp://dbpedia.org/ontology/language
p201
aVhttp://dbpedia.org/ontology/location
p202
aVhttp://dbpedia.org/property/languages
p203
aVhttp://dbpedia.org/ontology/stateOfOrigin
p204
aVhttp://dbpedia.org/property/headquarters
p205
aVhttp://dbpedia.org/ontology/birthPlace
p206
aVhttp://dbpedia.org/property/nationalOrigin
p207
aVhttp://dbpedia.org/ontology/hometown
p208
aVhttp://dbpedia.org/property/regionServed
p209
aVhttp://dbpedia.org/ontology/spokenIn
p210
aVhttp://dbpedia.org/property/data
p211
aVhttp://dbpedia.org/ontology/headquarter
p212
assI3
(dp213
I0
g175
sI1
g179
sI2
g182
sI3
(lp214
ssa(dp215
I0
(dp216
I0
(lp217
sI1
(lp218
sI2
(lp219
sI3
(lp220
ssI1
(dp221
I0
g218
sI1
(lp222
sI2
(lp223
sI3
(lp224
ssI2
(dp225
I0
g219
sI1
g223
sI2
(lp226
sI3
(lp227
ssI3
(dp228
I0
g220
sI1
g224
sI2
g227
sI3
(lp229
ssa(dp230
I0
(dp231
I0
(lp232
sI1
(lp233
sI2
(lp234
sI3
(lp235
ssI1
(dp236
I0
g233
sI1
(lp237
sI2
(lp238
sI3
(lp239
ssI2
(dp240
I0
g234
sI1
g238
sI2
(lp241
sI3
(lp242
Vhttp://dbpedia.org/property/languages
p243
aVhttp://dbpedia.org/ontology/country
p244
aVhttp://dbpedia.org/property/region
p245
aVhttp://www.w3.org/1999/02/22-rdf-syntax-ns#type
p246
aVhttp://dbpedia.org/property/officialLanguages
p247
aVhttp://www.w3.org/2000/01/rdf-schema#comment
p248
aVhttp://dbpedia.org/property/place
p249
aVhttp://dbpedia.org/ontology/abstract
p250
aVhttp://dbpedia.org/property/venue
p251
aVhttp://dbpedia.org/ontology/nationality
p252
aVhttp://dbpedia.org/property/birthPlace
p253
aVhttp://dbpedia.org/property/placeOfBirth
p254
aVhttp://dbpedia.org/ontology/spokenIn
p255
aVhttp://dbpedia.org/property/country
p256
aVhttp://dbpedia.org/ontology/stateOfOrigin
p257
aVhttp://dbpedia.org/ontology/birthPlace
p258
aVhttp://dbpedia.org/ontology/language
p259
aVhttp://dbpedia.org/ontology/populationPlace
p260
assI3
(dp261
I0
g235
sI1
g239
sI2
g242
sI3
(lp262
ssa.