(lp1
(lp2
(lp3
a(lp4
aa(lp5
(lp6
Vhttp://dbpedia.org/resource/Aneesh_Upasana
p7
aa(lp8
aa(lp9
(lp10
a(lp11
aa(lp12
(lp13
Vhttp://dbpedia.org/resource/Angella_Nazarian
p14
aa(lp15
aa(lp16
(lp17
a(lp18
aa(lp19
(lp20
Vhttp://dbpedia.org/resource/Anita_Fuentes
p21
aa(lp22
aa(lp23
(lp24
Vhttp://dbpedia.org/resource/Ankur_Warikoo
p25
aa(lp26
aa(lp27
(lp28
a(lp29
aa(lp30
(lp31
a(lp32
aa(lp33
(lp34
Vhttp://dbpedia.org/resource/Anna_Kontula
p35
aa(lp36
aa(lp37
(lp38
a(lp39
aa(lp40
(lp41
a(lp42
aa(lp43
(lp44
a(lp45
aa(lp46
(lp47
a(lp48
aa(lp49
(lp50
Vhttp://dbpedia.org/resource/Anne_Ishii
p51
aa(lp52
aa(lp53
(lp54
a(lp55
aa(lp56
(lp57
Vhttp://dbpedia.org/resource/Ansiba_Hassan
p58
aa(lp59
aa.