(lp1
(lp2
(lp3
a(lp4
aa(lp5
(lp6
((lp7
Vhttp://www.w3.org/2002/07/owl#Thing
p8
aVhttp://xmlns.com/foaf/0.1/Person
p9
aVhttp://dbpedia.org/ontology/Person
p10
aVhttp://www.ontologydesignpatterns.org/ont/dul/DUL.owl#Agent
p11
aVhttp://www.ontologydesignpatterns.org/ont/dul/DUL.owl#NaturalPerson
p12
aVhttp://www.wikidata.org/entity/Q215627
p13
aVhttp://www.wikidata.org/entity/Q5
p14
aVhttp://dbpedia.org/ontology/Agent
p15
aVhttp://schema.org/Person
p16
aVhttp://dbpedia.org/resource/Aneesh_Upasana
tp17
aa(lp18
aa(lp19
(lp20
a(lp21
aa(lp22
(lp23
((lp24
Vhttp://www.w3.org/2002/07/owl#Thing
p25
aVhttp://xmlns.com/foaf/0.1/Person
p26
aVhttp://dbpedia.org/ontology/Person
p27
aVhttp://www.ontologydesignpatterns.org/ont/dul/DUL.owl#Agent
p28
aVhttp://www.ontologydesignpatterns.org/ont/dul/DUL.owl#NaturalPerson
p29
aVhttp://www.wikidata.org/entity/Q215627
p30
aVhttp://www.wikidata.org/entity/Q5
p31
aVhttp://dbpedia.org/ontology/Agent
p32
aVhttp://schema.org/Person
p33
aVhttp://dbpedia.org/resource/Angella_Nazarian
tp34
aa(lp35
aa(lp36
(lp37
a(lp38
aa(lp39
(lp40
((lp41
Vhttp://www.w3.org/2002/07/owl#Thing
p42
aVhttp://xmlns.com/foaf/0.1/Person
p43
aVhttp://dbpedia.org/ontology/Person
p44
aVhttp://www.ontologydesignpatterns.org/ont/dul/DUL.owl#Agent
p45
aVhttp://www.ontologydesignpatterns.org/ont/dul/DUL.owl#NaturalPerson
p46
aVhttp://www.wikidata.org/entity/Q215627
p47
aVhttp://www.wikidata.org/entity/Q5
p48
aVhttp://dbpedia.org/ontology/Agent
p49
aVhttp://schema.org/Person
p50
aVhttp://dbpedia.org/resource/Anita_Fuentes
tp51
aa(lp52
aa(lp53
(lp54
((lp55
Vhttp://www.w3.org/2002/07/owl#Thing
p56
aVhttp://xmlns.com/foaf/0.1/Person
p57
aVhttp://dbpedia.org/ontology/Person
p58
aVhttp://www.ontologydesignpatterns.org/ont/dul/DUL.owl#Agent
p59
aVhttp://www.ontologydesignpatterns.org/ont/dul/DUL.owl#NaturalPerson
p60
aVhttp://www.wikidata.org/entity/Q215627
p61
aVhttp://www.wikidata.org/entity/Q5
p62
aVhttp://dbpedia.org/ontology/Agent
p63
aVhttp://schema.org/Person
p64
aVhttp://dbpedia.org/resource/Ankur_Warikoo
tp65
aa(lp66
aa(lp67
(lp68
a(lp69
aa(lp70
(lp71
a(lp72
aa(lp73
(lp74
((lp75
Vhttp://www.w3.org/2002/07/owl#Thing
p76
aVhttp://xmlns.com/foaf/0.1/Person
p77
aVhttp://dbpedia.org/ontology/Person
p78
aVhttp://www.ontologydesignpatterns.org/ont/dul/DUL.owl#Agent
p79
aVhttp://www.ontologydesignpatterns.org/ont/dul/DUL.owl#NaturalPerson
p80
aVhttp://www.wikidata.org/entity/Q215627
p81
aVhttp://www.wikidata.org/entity/Q5
p82
aVhttp://dbpedia.org/ontology/Agent
p83
aVhttp://schema.org/Person
p84
aVhttp://dbpedia.org/resource/Anna_Kontula
tp85
aa(lp86
aa(lp87
(lp88
a(lp89
aa(lp90
(lp91
a(lp92
aa(lp93
(lp94
a(lp95
aa(lp96
(lp97
a(lp98
aa(lp99
(lp100
((lp101
Vhttp://www.w3.org/2002/07/owl#Thing
p102
aVhttp://xmlns.com/foaf/0.1/Person
p103
aVhttp://dbpedia.org/ontology/Person
p104
aVhttp://www.ontologydesignpatterns.org/ont/dul/DUL.owl#Agent
p105
aVhttp://www.ontologydesignpatterns.org/ont/dul/DUL.owl#NaturalPerson
p106
aVhttp://www.wikidata.org/entity/Q215627
p107
aVhttp://www.wikidata.org/entity/Q5
p108
aVhttp://dbpedia.org/ontology/Agent
p109
aVhttp://schema.org/Person
p110
aVhttp://dbpedia.org/resource/Anne_Ishii
tp111
aa(lp112
aa(lp113
(lp114
a(lp115
aa(lp116
(lp117
((lp118
Vhttp://www.w3.org/2002/07/owl#Thing
p119
aVhttp://xmlns.com/foaf/0.1/Person
p120
aVhttp://dbpedia.org/ontology/Person
p121
aVhttp://www.ontologydesignpatterns.org/ont/dul/DUL.owl#Agent
p122
aVhttp://www.ontologydesignpatterns.org/ont/dul/DUL.owl#NaturalPerson
p123
aVhttp://www.wikidata.org/entity/Q215627
p124
aVhttp://www.wikidata.org/entity/Q5
p125
aVhttp://dbpedia.org/ontology/Agent
p126
aVhttp://schema.org/Person
p127
aVhttp://dbpedia.org/resource/Ansiba_Hassan
p128
tp129
aa(lp130
aa.