ccollections
defaultdict
p1
(c__builtin__
dict
p2
tRp3
I1
(dp4
I1
(lp5
Vhttp://dbpedia.org/ontology/birthPlace
p6
aVhttp://dbpedia.org/property/birthPlace
p7
aVhttp://dbpedia.org/property/placeOfBirth
p8
assI3
(dp9
I1
(lp10
Vhttp://dbpedia.org/ontology/birthPlace
p11
aVhttp://dbpedia.org/property/birthPlace
p12
assI5
(dp13
I1
(lp14
Vhttp://dbpedia.org/ontology/birthPlace
p15
assI6
(dp16
I1
(lp17
Vhttp://dbpedia.org/ontology/nationality
p18
aVhttp://dbpedia.org/property/nationality
p19
aVhttp://dbpedia.org/ontology/birthPlace
p20
aVhttp://dbpedia.org/ontology/almaMater
p21
aVhttp://dbpedia.org/property/residence
p22
aVhttp://dbpedia.org/property/birthPlace
p23
aVhttp://dbpedia.org/property/placeOfBirth
p24
aVhttp://dbpedia.org/ontology/residence
p25
aVhttp://dbpedia.org/ontology/stateOfOrigin
p26
assI9
(dp27
I1
(lp28
Vhttp://dbpedia.org/ontology/birthPlace
p29
assI14
(dp30
I1
(lp31
ssI16
(dp32
I1
(lp33
Vhttp://dbpedia.org/ontology/birthPlace
p34
aVhttp://dbpedia.org/property/birthPlace
p35
aVhttp://dbpedia.org/property/placeOfBirth
p36
ass.