(lp1
(dp2
I0
(dp3
I0
(lp4
sI1
(lp5
sI2
(lp6
sI3
(lp7
sI4
(lp8
sI5
(lp9
sI6
(lp10
sI7
(lp11
sI8
(lp12
sI9
(lp13
sI10
(lp14
sI11
(lp15
sI12
(lp16
ssI1
(dp17
I0
g5
sI1
(lp18
sI2
(lp19
sI3
(lp20
sI4
(lp21
sI5
(lp22
sI6
(lp23
sI7
(lp24
sI8
(lp25
sI9
(lp26
sI10
(lp27
sI11
(lp28
sI12
(lp29
ssI2
(dp30
I0
g6
sI1
g19
sI2
(lp31
sI3
(lp32
sI4
(lp33
sI5
(lp34
sI6
(lp35
sI7
(lp36
sI8
(lp37
sI9
(lp38
sI10
(lp39
sI11
(lp40
sI12
(lp41
ssI3
(dp42
I0
g7
sI1
g20
sI2
g32
sI3
(lp43
sI4
(lp44
sI5
(lp45
sI6
(lp46
sI7
(lp47
sI8
(lp48
sI9
(lp49
sI10
(lp50
sI11
(lp51
sI12
(lp52
ssI4
(dp53
I0
g8
sI1
g21
sI2
g33
sI3
g44
sI4
(lp54
sI5
(lp55
sI6
(lp56
sI7
(lp57
sI8
(lp58
sI9
(lp59
sI10
(lp60
sI11
(lp61
sI12
(lp62
ssI5
(dp63
I0
g9
sI1
g22
sI2
g34
sI3
g45
sI5
(lp64
sI6
(lp65
sI7
(lp66
sI8
(lp67
sI9
(lp68
sI10
(lp69
sI11
(lp70
sI12
(lp71
ssI6
(dp72
I0
g10
sI1
g23
sI2
g35
sI3
g46
sI6
(lp73
sI7
(lp74
sI8
(lp75
sI9
(lp76
sI10
(lp77
sI11
(lp78
sI12
(lp79
ssI7
(dp80
I0
g11
sI1
g24
sI2
g36
sI3
g47
sI7
(lp81
sI8
(lp82
sI9
(lp83
sI10
(lp84
sI11
(lp85
sI12
(lp86
ssI8
(dp87
I0
g12
sI1
g25
sI2
g37
sI3
g48
sI8
(lp88
sI9
(lp89
sI10
(lp90
sI11
(lp91
sI12
(lp92
ssI9
(dp93
I0
g13
sI1
g26
sI2
g38
sI3
g49
sI9
(lp94
sI10
(lp95
sI11
(lp96
sI12
(lp97
ssI10
(dp98
I0
g14
sI1
g27
sI2
g39
sI3
g50
sI4
g60
sI5
g69
sI6
g77
sI7
g84
sI8
g90
sI9
g95
sI10
(lp99
sI11
(lp100
sI12
(lp101
ssI11
(dp102
I0
g15
sI1
g28
sI2
g40
sI3
g51
sI10
g100
sI11
(lp103
sI12
(lp104
ssI12
(dp105
I0
g16
sI1
g29
sI2
g41
sI3
g52
sI10
g101
sI12
(lp106
ssa(dp107
I0
(dp108
I0
(lp109
sI1
(lp110
sI2
(lp111
sI3
(lp112
sI4
(lp113
sI5
(lp114
sI6
(lp115
sI7
(lp116
sI8
(lp117
sI9
(lp118
sI10
(lp119
sI11
(lp120
sI12
(lp121
ssI1
(dp122
I0
g110
sI1
(lp123
sI2
(lp124
sI3
(lp125
sI4
(lp126
sI5
(lp127
sI6
(lp128
sI7
(lp129
sI8
(lp130
sI9
(lp131
sI10
(lp132
sI11
(lp133
sI12
(lp134
ssI2
(dp135
I0
g111
sI1
g124
sI2
(lp136
sI3
(lp137
sI4
(lp138
sI5
(lp139
sI6
(lp140
sI7
(lp141
sI8
(lp142
sI9
(lp143
sI10
(lp144
sI11
(lp145
sI12
(lp146
ssI3
(dp147
I0
g112
sI1
g125
sI2
g137
sI3
(lp148
sI4
(lp149
sI5
(lp150
sI6
(lp151
sI7
(lp152
sI8
(lp153
sI9
(lp154
sI10
(lp155
sI11
(lp156
sI12
(lp157
ssI4
(dp158
I0
g113
sI1
g126
sI2
g138
sI3
g149
sI4
(lp159
sI5
(lp160
sI6
(lp161
sI7
(lp162
sI8
(lp163
sI9
(lp164
sI10
(lp165
sI11
(lp166
sI12
(lp167
ssI5
(dp168
I0
g114
sI1
g127
sI2
g139
sI3
g150
sI4
g160
sI5
(lp169
sI6
(lp170
sI7
(lp171
sI8
(lp172
sI9
(lp173
sI10
(lp174
sI11
(lp175
sI12
(lp176
ssI6
(dp177
I0
g115
sI2
g140
sI3
g151
sI4
g161
sI5
g170
sI6
(lp178
sI7
(lp179
sI8
(lp180
sI9
(lp181
sI10
(lp182
sI11
(lp183
sI12
(lp184
ssI7
(dp185
I0
g116
sI1
g129
sI2
g141
sI3
g152
sI4
g162
sI5
g171
sI6
g179
sI7
(lp186
sI8
(lp187
sI9
(lp188
sI10
(lp189
sI11
(lp190
sI12
(lp191
ssI8
(dp192
I0
g117
sI2
g142
sI3
g153
sI4
g163
sI5
g172
sI7
g187
sI8
(lp193
sI9
(lp194
sI10
(lp195
sI11
(lp196
sI12
(lp197
ssI9
(dp198
I0
g118
sI1
g131
sI2
g143
sI3
g154
sI4
g164
sI5
g173
sI6
g181
sI7
g188
sI8
g194
sI9
(lp199
sI10
(lp200
sI11
(lp201
sI12
(lp202
ssI10
(dp203
I0
g119
sI1
g132
sI2
g144
sI3
g155
sI4
g165
sI5
g174
sI6
g182
sI7
g189
sI8
g195
sI9
g200
sI10
(lp204
sI11
(lp205
sI12
(lp206
ssI11
(dp207
I0
g120
sI1
g133
sI2
g145
sI3
g156
sI4
g166
sI5
g175
sI6
g183
sI7
g190
sI8
g196
sI9
g201
sI10
g205
sI11
(lp208
sI12
(lp209
ssI12
(dp210
I0
g121
sI2
g146
sI3
g157
sI4
g167
sI5
g176
sI7
g191
sI9
g202
sI10
g206
sI11
g209
sI12
(lp211
ssa(dp212
I0
(dp213
I0
(lp214
sI1
(lp215
sI2
(lp216
sI3
(lp217
sI4
(lp218
sI5
(lp219
sI6
(lp220
sI7
(lp221
sI8
(lp222
sI9
(lp223
sI10
(lp224
sI11
(lp225
sI12
(lp226
ssI1
(dp227
I0
g215
sI1
(lp228
sI2
(lp229
sI3
(lp230
sI4
(lp231
sI5
(lp232
sI6
(lp233
sI7
(lp234
sI8
(lp235
sI9
(lp236
sI10
(lp237
sI11
(lp238
sI12
(lp239
ssI2
(dp240
I0
g216
sI2
(lp241
sI3
(lp242
sI4
(lp243
sI5
(lp244
sI6
(lp245
sI7
(lp246
sI8
(lp247
sI9
(lp248
sI10
(lp249
sI11
(lp250
sI12
(lp251
ssI3
(dp252
I0
g217
sI3
(lp253
sI4
(lp254
sI5
(lp255
sI6
(lp256
sI7
(lp257
sI8
(lp258
sI9
(lp259
sI10
(lp260
sI11
(lp261
sI12
(lp262
ssI4
(dp263
I0
g218
sI1
g231
sI2
g243
sI3
g254
sI4
(lp264
sI5
(lp265
sI6
(lp266
sI7
(lp267
sI8
(lp268
sI9
(lp269
sI10
(lp270
sI11
(lp271
sI12
(lp272
ssI5
(dp273
I0
g219
sI4
g265
sI5
(lp274
sI6
(lp275
sI7
(lp276
sI8
(lp277
sI9
(lp278
sI10
(lp279
sI11
(lp280
sI12
(lp281
ssI6
(dp282
I0
g220
sI4
g266
sI6
(lp283
sI7
(lp284
sI8
(lp285
sI9
(lp286
sI10
(lp287
sI11
(lp288
sI12
(lp289
ssI7
(dp290
I0
g221
sI4
g267
sI7
(lp291
sI8
(lp292
sI9
(lp293
sI10
(lp294
sI11
(lp295
sI12
(lp296
ssI8
(dp297
I0
g222
sI1
g235
sI2
g247
sI3
g258
sI4
g268
sI5
g277
sI6
g285
sI7
g292
sI8
(lp298
sI9
(lp299
sI10
(lp300
sI11
(lp301
sI12
(lp302
ssI9
(dp303
I0
g223
sI4
g269
sI8
g299
sI9
(lp304
sI10
(lp305
sI11
(lp306
sI12
(lp307
ssI10
(dp308
I0
g224
sI1
g237
sI2
g249
sI3
g260
sI4
g270
sI5
g279
sI6
g287
sI7
g294
sI8
g300
sI9
g305
sI10
(lp309
sI11
(lp310
sI12
(lp311
ssI11
(dp312
I0
g225
sI4
g271
sI8
g301
sI10
g310
sI11
(lp313
sI12
(lp314
ssI12
(dp315
I0
g226
sI8
g302
sI10
g311
sI4
g272
sI12
(lp316
ssa(dp317
I0
(dp318
I0
(lp319
sI1
(lp320
sI2
(lp321
sI3
(lp322
sI4
(lp323
sI5
(lp324
sI6
(lp325
sI7
(lp326
sI8
(lp327
sI9
(lp328
sI10
(lp329
sI11
(lp330
sI12
(lp331
ssI1
(dp332
I0
g320
sI1
(lp333
sI2
(lp334
sI3
(lp335
sI4
(lp336
sI5
(lp337
sI6
(lp338
sI7
(lp339
sI8
(lp340
sI9
(lp341
sI10
(lp342
sI11
(lp343
sI12
(lp344
ssI2
(dp345
I0
g321
sI2
(lp346
sI3
(lp347
sI4
(lp348
sI5
(lp349
sI6
(lp350
sI7
(lp351
sI8
(lp352
sI9
(lp353
sI10
(lp354
sI11
(lp355
sI12
(lp356
ssI3
(dp357
I0
g322
sI3
(lp358
sI4
(lp359
sI5
(lp360
sI6
(lp361
sI7
(lp362
sI8
(lp363
sI9
(lp364
sI10
(lp365
sI11
(lp366
sI12
(lp367
ssI4
(dp368
I0
g323
sI4
(lp369
sI5
(lp370
sI6
(lp371
sI7
(lp372
sI8
(lp373
sI9
(lp374
sI10
(lp375
sI11
(lp376
sI12
(lp377
ssI5
(dp378
I0
g324
sI5
(lp379
sI6
(lp380
sI7
(lp381
sI8
(lp382
sI9
(lp383
sI10
(lp384
sI11
(lp385
sI12
(lp386
ssI6
(dp387
I0
g325
sI6
(lp388
sI7
(lp389
sI8
(lp390
sI9
(lp391
sI10
(lp392
sI11
(lp393
sI12
(lp394
ssI7
(dp395
I0
g326
sI7
(lp396
sI8
(lp397
sI9
(lp398
sI10
(lp399
sI11
(lp400
sI12
(lp401
ssI8
(dp402
I0
g327
sI8
(lp403
sI9
(lp404
sI10
(lp405
sI11
(lp406
sI12
(lp407
ssI9
(dp408
I0
g328
sI9
(lp409
sI10
(lp410
sI11
(lp411
sI12
(lp412
ssI10
(dp413
I0
g329
sI1
g342
sI2
g354
sI3
g365
sI4
g375
sI5
g384
sI6
g392
sI7
g399
sI8
g405
sI9
g410
sI10
(lp414
sI11
(lp415
sI12
(lp416
ssI11
(dp417
I0
g330
sI10
g415
sI11
(lp418
sI12
(lp419
ssI12
(dp420
I0
g331
sI10
g416
sI12
(lp421
ssa(dp422
I0
(dp423
I0
(lp424
sI1
(lp425
sI2
(lp426
sI3
(lp427
sI4
(lp428
sI5
(lp429
sI6
(lp430
sI7
(lp431
sI8
(lp432
sI9
(lp433
sI10
(lp434
sI11
(lp435
sI12
(lp436
ssI1
(dp437
I0
g425
sI1
(lp438
sI2
(lp439
sI3
(lp440
sI4
(lp441
sI5
(lp442
sI6
(lp443
sI7
(lp444
sI8
(lp445
sI9
(lp446
sI10
(lp447
sI11
(lp448
sI12
(lp449
ssI2
(dp450
I0
g426
sI2
(lp451
sI3
(lp452
sI4
(lp453
sI5
(lp454
sI6
(lp455
sI7
(lp456
sI8
(lp457
sI9
(lp458
sI10
(lp459
sI11
(lp460
sI12
(lp461
ssI3
(dp462
I0
g427
sI1
g440
sI2
g452
sI3
(lp463
sI4
(lp464
sI5
(lp465
sI6
(lp466
sI7
(lp467
sI8
(lp468
sI9
(lp469
sI10
(lp470
sI11
(lp471
sI12
(lp472
ssI4
(dp473
I0
g428
sI3
g464
sI4
(lp474
sI5
(lp475
sI6
(lp476
sI7
(lp477
sI8
(lp478
sI9
(lp479
sI10
(lp480
sI11
(lp481
sI12
(lp482
ssI5
(dp483
I0
g429
sI3
g465
sI5
(lp484
sI6
(lp485
sI7
(lp486
sI8
(lp487
sI9
(lp488
sI10
(lp489
sI11
(lp490
sI12
(lp491
ssI6
(dp492
I0
g430
sI3
g466
sI6
(lp493
sI7
(lp494
sI8
(lp495
sI9
(lp496
sI10
(lp497
sI11
(lp498
sI12
(lp499
ssI7
(dp500
I0
g431
sI3
g467
sI7
(lp501
sI8
(lp502
sI9
(lp503
sI10
(lp504
sI11
(lp505
sI12
(lp506
ssI8
(dp507
I0
g432
sI3
g468
sI8
(lp508
sI9
(lp509
sI10
(lp510
sI11
(lp511
sI12
(lp512
ssI9
(dp513
I0
g433
sI3
g469
sI9
(lp514
sI10
(lp515
sI11
(lp516
sI12
(lp517
ssI10
(dp518
I0
g434
sI11
(lp519
sI10
(lp520
sI3
g470
sI12
(lp521
ssI11
(dp522
I0
g435
sI11
(lp523
sI3
g471
sI12
(lp524
ssI12
(dp525
I0
g436
sI3
g472
sI12
(lp526
ssa(dp527
I0
(dp528
I0
(lp529
sI1
(lp530
sI2
(lp531
sI3
(lp532
sI4
(lp533
sI5
(lp534
sI6
(lp535
sI7
(lp536
sI8
(lp537
sI9
(lp538
sI10
(lp539
sI11
(lp540
sI12
(lp541
ssI1
(dp542
I0
g530
sI1
(lp543
sI2
(lp544
sI3
(lp545
sI4
(lp546
sI5
(lp547
sI6
(lp548
sI7
(lp549
sI8
(lp550
sI9
(lp551
sI10
(lp552
sI11
(lp553
sI12
(lp554
ssI2
(dp555
I0
g531
sI1
g544
sI2
(lp556
sI3
(lp557
sI4
(lp558
sI5
(lp559
sI6
(lp560
sI7
(lp561
sI8
(lp562
sI9
(lp563
sI10
(lp564
sI11
(lp565
sI12
(lp566
ssI3
(dp567
I0
g532
sI1
g545
sI2
g557
sI3
(lp568
sI4
(lp569
sI5
(lp570
sI6
(lp571
sI7
(lp572
sI8
(lp573
sI9
(lp574
sI10
(lp575
sI11
(lp576
sI12
(lp577
ssI4
(dp578
I0
g533
sI1
g546
sI3
g569
sI4
(lp579
sI5
(lp580
sI6
(lp581
sI7
(lp582
sI8
(lp583
sI9
(lp584
sI10
(lp585
sI11
(lp586
sI12
(lp587
ssI5
(dp588
I0
g534
sI1
g547
sI3
g570
sI5
(lp589
sI6
(lp590
sI7
(lp591
sI8
(lp592
sI9
(lp593
sI10
(lp594
sI11
(lp595
sI12
(lp596
ssI6
(dp597
I0
g535
sI1
g548
sI3
g571
sI6
(lp598
sI7
(lp599
sI8
(lp600
sI9
(lp601
sI10
(lp602
sI11
(lp603
sI12
(lp604
ssI7
(dp605
I0
g536
sI1
g549
sI3
g572
sI7
(lp606
sI8
(lp607
sI9
(lp608
sI10
(lp609
sI11
(lp610
sI12
(lp611
ssI8
(dp612
I0
g537
sI1
g550
sI3
g573
sI8
(lp613
sI9
(lp614
sI10
(lp615
sI11
(lp616
sI12
(lp617
ssI9
(dp618
I0
g538
sI1
g551
sI3
g574
sI9
(lp619
sI10
(lp620
sI11
(lp621
sI12
(lp622
ssI10
(dp623
I0
g539
sI1
g552
sI3
g575
sI10
(lp624
sI11
(lp625
sI12
(lp626
ssI11
(dp627
I0
g540
sI1
g553
sI3
g576
sI12
(lp628
sI11
(lp629
ssI12
(dp630
I0
g541
sI1
g554
sI3
g577
sI12
(lp631
ssa(dp632
I0
(dp633
I0
(lp634
sI1
(lp635
sI2
(lp636
sI3
(lp637
sI4
(lp638
sI5
(lp639
sI6
(lp640
sI7
(lp641
sI8
(lp642
sI9
(lp643
sI10
(lp644
sI11
(lp645
sI12
(lp646
ssI1
(dp647
I0
g635
sI1
(lp648
sI2
(lp649
sI3
(lp650
sI4
(lp651
sI5
(lp652
sI6
(lp653
sI7
(lp654
sI8
(lp655
sI9
(lp656
sI10
(lp657
sI11
(lp658
sI12
(lp659
ssI2
(dp660
I0
g636
sI1
g649
sI2
(lp661
sI3
(lp662
sI4
(lp663
sI5
(lp664
sI6
(lp665
sI7
(lp666
sI8
(lp667
sI9
(lp668
sI10
(lp669
sI11
(lp670
sI12
(lp671
ssI3
(dp672
I0
g637
sI1
g650
sI2
g662
sI3
(lp673
sI4
(lp674
sI5
(lp675
sI6
(lp676
sI7
(lp677
sI8
(lp678
sI9
(lp679
sI10
(lp680
sI11
(lp681
sI12
(lp682
ssI4
(dp683
I0
g638
sI1
g651
sI2
g663
sI3
g674
sI4
(lp684
sI5
(lp685
sI6
(lp686
sI7
(lp687
sI8
(lp688
sI9
(lp689
sI10
(lp690
sI11
(lp691
sI12
(lp692
ssI5
(dp693
I0
g639
sI1
g652
sI2
g664
sI3
g675
sI4
g685
sI5
(lp694
sI6
(lp695
sI7
(lp696
sI8
(lp697
sI9
(lp698
sI10
(lp699
sI11
(lp700
sI12
(lp701
ssI6
(dp702
I0
g640
sI1
g653
sI2
g665
sI3
g676
sI4
g686
sI5
g695
sI6
(lp703
sI7
(lp704
sI8
(lp705
sI9
(lp706
sI10
(lp707
sI11
(lp708
sI12
(lp709
ssI7
(dp710
I0
g641
sI1
g654
sI2
g666
sI3
g677
sI4
g687
sI5
g696
sI6
g704
sI7
(lp711
sI8
(lp712
sI9
(lp713
sI10
(lp714
sI11
(lp715
sI12
(lp716
ssI8
(dp717
I0
g642
sI1
g655
sI2
g667
sI3
g678
sI4
g688
sI6
g705
sI7
g712
sI8
(lp718
sI9
(lp719
sI10
(lp720
sI11
(lp721
sI12
(lp722
ssI9
(dp723
I0
g643
sI1
g656
sI2
g668
sI3
g679
sI4
g689
sI5
g698
sI6
g706
sI7
g713
sI8
g719
sI9
(lp724
sI10
(lp725
sI11
(lp726
sI12
(lp727
ssI10
(dp728
I0
g644
sI1
g657
sI2
g669
sI3
g680
sI4
g690
sI5
g699
sI6
g707
sI7
g714
sI8
g720
sI9
g725
sI10
(lp729
sI11
(lp730
sI12
(lp731
ssI11
(dp732
I0
g645
sI1
g658
sI2
g670
sI3
g681
sI4
g691
sI5
g700
sI6
g708
sI7
g715
sI8
g721
sI9
g726
sI10
g730
sI11
(lp733
sI12
(lp734
ssI12
(dp735
I0
g646
sI1
g659
sI2
g671
sI3
g682
sI4
g692
sI6
g709
sI7
g716
sI9
g727
sI10
g731
sI11
g734
sI12
(lp736
ssa(dp737
I0
(dp738
I0
(lp739
sI1
(lp740
sI2
(lp741
sI3
(lp742
sI4
(lp743
sI5
(lp744
sI6
(lp745
sI7
(lp746
sI8
(lp747
sI9
(lp748
sI10
(lp749
sI11
(lp750
sI12
(lp751
ssI1
(dp752
I0
g740
sI1
(lp753
sI2
(lp754
sI3
(lp755
sI4
(lp756
sI5
(lp757
sI6
(lp758
sI7
(lp759
sI8
(lp760
sI9
(lp761
sI10
(lp762
sI11
(lp763
sI12
(lp764
ssI2
(dp765
I0
g741
sI1
g754
sI2
(lp766
sI3
(lp767
sI4
(lp768
sI5
(lp769
sI6
(lp770
sI7
(lp771
sI8
(lp772
sI9
(lp773
sI10
(lp774
sI11
(lp775
sI12
(lp776
ssI3
(dp777
I0
g742
sI1
g755
sI2
g767
sI3
(lp778
sI4
(lp779
sI5
(lp780
sI6
(lp781
sI7
(lp782
sI8
(lp783
sI9
(lp784
sI10
(lp785
sI11
(lp786
sI12
(lp787
ssI4
(dp788
I0
g743
sI1
g756
sI2
g768
sI3
g779
sI4
(lp789
sI5
(lp790
sI6
(lp791
sI7
(lp792
sI8
(lp793
sI9
(lp794
sI10
(lp795
sI11
(lp796
sI12
(lp797
ssI5
(dp798
I0
g744
sI1
g757
sI2
g769
sI3
g780
sI5
(lp799
sI6
(lp800
sI7
(lp801
sI8
(lp802
sI9
(lp803
sI10
(lp804
sI11
(lp805
sI12
(lp806
ssI6
(dp807
I0
g745
sI1
g758
sI2
g770
sI3
g781
sI4
g791
sI5
g800
sI6
(lp808
sI7
(lp809
sI8
(lp810
sI9
(lp811
sI10
(lp812
sI11
(lp813
sI12
(lp814
ssI7
(dp815
I0
g746
sI1
g759
sI2
g771
sI3
g782
sI4
g792
sI5
g801
sI6
g809
sI7
(lp816
sI8
(lp817
sI9
(lp818
sI10
(lp819
sI11
(lp820
sI12
(lp821
ssI8
(dp822
I0
g747
sI1
g760
sI2
g772
sI3
g783
sI4
g793
sI5
g802
sI6
g810
sI7
g817
sI8
(lp823
sI9
(lp824
sI10
(lp825
sI11
(lp826
sI12
(lp827
ssI9
(dp828
I0
g748
sI1
g761
sI2
g773
sI3
g784
sI4
g794
sI5
g803
sI6
g811
sI7
g818
sI8
g824
sI9
(lp829
sI10
(lp830
sI11
(lp831
sI12
(lp832
ssI10
(dp833
I0
g749
sI1
g762
sI2
g774
sI4
g795
sI5
g804
sI6
g812
sI7
g819
sI8
g825
sI9
g830
sI10
(lp834
sI11
(lp835
sI12
(lp836
ssI11
(dp837
I0
g750
sI1
g763
sI2
g775
sI3
g786
sI4
g796
sI5
g805
sI6
g813
sI7
g820
sI8
g826
sI9
g831
sI10
g835
sI11
(lp838
sI12
(lp839
ssI12
(dp840
I0
g751
sI1
g764
sI2
g776
sI3
g787
sI4
g797
sI5
g806
sI6
g814
sI7
g821
sI8
g827
sI9
g832
sI10
g836
sI11
g839
sI12
(lp841
ssa(dp842
I0
(dp843
I0
(lp844
sI1
(lp845
sI2
(lp846
sI3
(lp847
sI4
(lp848
sI5
(lp849
sI6
(lp850
sI7
(lp851
sI8
(lp852
sI9
(lp853
sI10
(lp854
sI11
(lp855
sI12
(lp856
ssI1
(dp857
I0
g845
sI1
(lp858
sI2
(lp859
sI3
(lp860
sI4
(lp861
sI5
(lp862
sI6
(lp863
sI7
(lp864
sI8
(lp865
sI9
(lp866
sI10
(lp867
sI11
(lp868
sI12
(lp869
ssI2
(dp870
I0
g846
sI1
g859
sI2
(lp871
sI3
(lp872
sI4
(lp873
sI5
(lp874
sI6
(lp875
sI7
(lp876
sI8
(lp877
sI9
(lp878
sI10
(lp879
sI11
(lp880
sI12
(lp881
ssI3
(dp882
I0
g847
sI1
g860
sI2
g872
sI3
(lp883
sI4
(lp884
sI5
(lp885
sI6
(lp886
sI7
(lp887
sI8
(lp888
sI9
(lp889
sI10
(lp890
sI11
(lp891
sI12
(lp892
ssI4
(dp893
I0
g848
sI1
g861
sI2
g873
sI4
(lp894
sI5
(lp895
sI6
(lp896
sI7
(lp897
sI8
(lp898
sI9
(lp899
sI10
(lp900
sI11
(lp901
sI12
(lp902
ssI5
(dp903
I0
g849
sI1
g862
sI2
g874
sI5
(lp904
sI6
(lp905
sI7
(lp906
sI8
(lp907
sI9
(lp908
sI10
(lp909
sI11
(lp910
sI12
(lp911
ssI6
(dp912
I0
g850
sI1
g863
sI2
g875
sI3
g886
sI4
g896
sI5
g905
sI6
(lp913
sI7
(lp914
sI8
(lp915
sI9
(lp916
sI10
(lp917
sI11
(lp918
sI12
(lp919
ssI7
(dp920
I0
g851
sI1
g864
sI2
g876
sI6
g914
sI7
(lp921
sI8
(lp922
sI9
(lp923
sI10
(lp924
sI11
(lp925
sI12
(lp926
ssI8
(dp927
I0
g852
sI1
g865
sI2
g877
sI6
g915
sI8
(lp928
sI9
(lp929
sI10
(lp930
sI11
(lp931
sI12
(lp932
ssI9
(dp933
I0
g853
sI1
g866
sI2
g878
sI6
g916
sI9
(lp934
sI10
(lp935
sI11
(lp936
sI12
(lp937
ssI10
(dp938
I0
g854
sI1
g867
sI2
g879
sI6
g917
sI10
(lp939
sI11
(lp940
sI12
(lp941
ssI11
(dp942
I0
g855
sI1
g868
sI2
g880
sI6
g918
sI11
(lp943
sI12
(lp944
ssI12
(dp945
I0
g856
sI1
g869
sI2
g881
sI12
(lp946
sI6
g919
ssa(dp947
I0
(dp948
I0
(lp949
sI1
(lp950
sI2
(lp951
sI3
(lp952
sI4
(lp953
sI5
(lp954
sI6
(lp955
sI7
(lp956
sI8
(lp957
sI9
(lp958
sI10
(lp959
sI11
(lp960
sI12
(lp961
ssI1
(dp962
I0
g950
sI1
(lp963
sI2
(lp964
sI3
(lp965
sI4
(lp966
sI5
(lp967
sI6
(lp968
sI7
(lp969
sI8
(lp970
sI9
(lp971
sI10
(lp972
sI11
(lp973
sI12
(lp974
ssI2
(dp975
I0
g951
sI1
g964
sI2
(lp976
sI3
(lp977
sI4
(lp978
sI5
(lp979
sI6
(lp980
sI7
(lp981
sI8
(lp982
sI9
(lp983
sI10
(lp984
sI11
(lp985
sI12
(lp986
ssI3
(dp987
I0
g952
sI1
g965
sI2
g977
sI3
(lp988
sI4
(lp989
sI5
(lp990
sI6
(lp991
sI7
(lp992
sI8
(lp993
sI9
(lp994
sI10
(lp995
sI11
(lp996
sI12
(lp997
ssI4
(dp998
I0
g953
sI1
g966
sI3
g989
sI4
(lp999
sI5
(lp1000
sI6
(lp1001
sI7
(lp1002
sI8
(lp1003
sI9
(lp1004
sI10
(lp1005
sI11
(lp1006
sI12
(lp1007
ssI5
(dp1008
I0
g954
sI1
g967
sI3
g990
sI5
(lp1009
sI6
(lp1010
sI7
(lp1011
sI8
(lp1012
sI9
(lp1013
sI10
(lp1014
sI11
(lp1015
sI12
(lp1016
ssI6
(dp1017
I0
g955
sI1
g968
sI3
g991
sI6
(lp1018
sI7
(lp1019
sI8
(lp1020
sI9
(lp1021
sI10
(lp1022
sI11
(lp1023
sI12
(lp1024
ssI7
(dp1025
I0
g956
sI1
g969
sI2
g981
sI3
g992
sI4
g1002
sI5
g1011
sI6
g1019
sI7
(lp1026
sI8
(lp1027
sI9
(lp1028
sI10
(lp1029
sI11
(lp1030
sI12
(lp1031
ssI8
(dp1032
I0
g957
sI1
g970
sI2
g982
sI3
g993
sI4
g1003
sI5
g1012
sI6
g1020
sI7
g1027
sI8
(lp1033
sI9
(lp1034
sI10
(lp1035
sI11
(lp1036
sI12
(lp1037
ssI9
(dp1038
I0
g958
sI1
g971
sI2
g983
sI3
g994
sI4
g1004
sI5
g1013
sI6
g1021
sI7
g1028
sI8
g1034
sI9
(lp1039
sI10
(lp1040
sI11
(lp1041
sI12
(lp1042
ssI10
(dp1043
I0
g959
sI1
g972
sI2
g984
sI4
g1005
sI5
g1014
sI6
g1022
sI7
g1029
sI8
g1035
sI9
g1040
sI10
(lp1044
sI11
(lp1045
sI12
(lp1046
ssI11
(dp1047
I0
g960
sI1
g973
sI2
g985
sI3
g996
sI4
g1006
sI5
g1015
sI6
g1023
sI7
g1030
sI8
g1036
sI9
g1041
sI10
g1045
sI11
(lp1048
sI12
(lp1049
ssI12
(dp1050
I0
g961
sI1
g974
sI2
g986
sI3
g997
sI4
g1007
sI5
g1016
sI6
g1024
sI7
g1031
sI8
g1037
sI9
g1042
sI10
g1046
sI11
g1049
sI12
(lp1051
ssa(dp1052
I0
(dp1053
I0
(lp1054
sI1
(lp1055
sI2
(lp1056
sI3
(lp1057
sI4
(lp1058
sI5
(lp1059
sI6
(lp1060
sI7
(lp1061
sI8
(lp1062
sI9
(lp1063
sI10
(lp1064
sI11
(lp1065
sI12
(lp1066
ssI1
(dp1067
I0
g1055
sI1
(lp1068
sI2
(lp1069
sI3
(lp1070
sI4
(lp1071
sI5
(lp1072
sI6
(lp1073
sI7
(lp1074
sI8
(lp1075
sI9
(lp1076
sI10
(lp1077
sI11
(lp1078
sI12
(lp1079
ssI2
(dp1080
I0
g1056
sI1
g1069
sI2
(lp1081
sI3
(lp1082
sI4
(lp1083
sI5
(lp1084
sI6
(lp1085
sI7
(lp1086
sI8
(lp1087
sI9
(lp1088
sI10
(lp1089
sI11
(lp1090
sI12
(lp1091
ssI3
(dp1092
I0
g1057
sI1
g1070
sI2
g1082
sI3
(lp1093
sI4
(lp1094
sI5
(lp1095
sI6
(lp1096
sI7
(lp1097
sI8
(lp1098
sI9
(lp1099
sI10
(lp1100
sI11
(lp1101
sI12
(lp1102
ssI4
(dp1103
I0
g1058
sI1
g1071
sI3
g1094
sI4
(lp1104
sI5
(lp1105
sI6
(lp1106
sI7
(lp1107
sI8
(lp1108
sI9
(lp1109
sI10
(lp1110
sI11
(lp1111
sI12
(lp1112
ssI5
(dp1113
I0
g1059
sI1
g1072
sI3
g1095
sI5
(lp1114
sI6
(lp1115
sI7
(lp1116
sI8
(lp1117
sI9
(lp1118
sI10
(lp1119
sI11
(lp1120
sI12
(lp1121
ssI6
(dp1122
I0
g1060
sI1
g1073
sI3
g1096
sI6
(lp1123
sI7
(lp1124
sI8
(lp1125
sI9
(lp1126
sI10
(lp1127
sI11
(lp1128
sI12
(lp1129
ssI7
(dp1130
I0
g1061
sI1
g1074
sI3
g1097
sI7
(lp1131
sI8
(lp1132
sI9
(lp1133
sI10
(lp1134
sI11
(lp1135
sI12
(lp1136
ssI8
(dp1137
I0
g1062
sI1
g1075
sI3
g1098
sI8
(lp1138
sI9
(lp1139
sI10
(lp1140
sI11
(lp1141
sI12
(lp1142
ssI9
(dp1143
I0
g1063
sI1
g1076
sI3
g1099
sI9
(lp1144
sI10
(lp1145
sI11
(lp1146
sI12
(lp1147
ssI10
(dp1148
I0
g1064
sI1
g1077
sI2
g1089
sI4
g1110
sI5
g1119
sI6
g1127
sI7
g1134
sI8
g1140
sI9
g1145
sI10
(lp1149
sI11
(lp1150
sI12
(lp1151
ssI11
(dp1152
I0
g1065
sI1
g1078
sI2
g1090
sI3
g1101
sI4
g1111
sI5
g1120
sI6
g1128
sI7
g1135
sI8
g1141
sI9
g1146
sI10
g1150
sI11
(lp1153
sI12
(lp1154
ssI12
(dp1155
I0
g1066
sI1
g1079
sI2
g1091
sI3
g1102
sI4
g1112
sI5
g1121
sI6
g1129
sI7
g1136
sI8
g1142
sI9
g1147
sI10
g1151
sI11
g1154
sI12
(lp1156
ssa(dp1157
I0
(dp1158
I0
(lp1159
sI1
(lp1160
sI2
(lp1161
sI3
(lp1162
sI4
(lp1163
sI5
(lp1164
sI6
(lp1165
sI7
(lp1166
sI8
(lp1167
sI9
(lp1168
sI10
(lp1169
sI11
(lp1170
sI12
(lp1171
ssI1
(dp1172
I0
g1160
sI1
(lp1173
sI2
(lp1174
sI3
(lp1175
sI4
(lp1176
sI5
(lp1177
sI6
(lp1178
sI7
(lp1179
sI8
(lp1180
sI9
(lp1181
sI10
(lp1182
sI11
(lp1183
sI12
(lp1184
ssI2
(dp1185
I0
g1161
sI1
g1174
sI2
(lp1186
sI3
(lp1187
sI4
(lp1188
sI5
(lp1189
sI6
(lp1190
sI7
(lp1191
sI8
(lp1192
sI9
(lp1193
sI10
(lp1194
sI11
(lp1195
sI12
(lp1196
ssI3
(dp1197
I0
g1162
sI1
g1175
sI2
g1187
sI3
(lp1198
sI4
(lp1199
sI5
(lp1200
sI6
(lp1201
sI7
(lp1202
sI8
(lp1203
sI9
(lp1204
sI10
(lp1205
sI11
(lp1206
sI12
(lp1207
ssI4
(dp1208
I0
g1163
sI1
g1176
sI3
g1199
sI4
(lp1209
sI5
(lp1210
sI6
(lp1211
sI7
(lp1212
sI8
(lp1213
sI9
(lp1214
sI10
(lp1215
sI11
(lp1216
sI12
(lp1217
ssI5
(dp1218
I0
g1164
sI1
g1177
sI3
g1200
sI5
(lp1219
sI6
(lp1220
sI7
(lp1221
sI8
(lp1222
sI9
(lp1223
sI10
(lp1224
sI11
(lp1225
sI12
(lp1226
ssI6
(dp1227
I0
g1165
sI1
g1178
sI3
g1201
sI6
(lp1228
sI7
(lp1229
sI8
(lp1230
sI9
(lp1231
sI10
(lp1232
sI11
(lp1233
sI12
(lp1234
ssI7
(dp1235
I0
g1166
sI1
g1179
sI3
g1202
sI7
(lp1236
sI8
(lp1237
sI9
(lp1238
sI10
(lp1239
sI11
(lp1240
sI12
(lp1241
ssI8
(dp1242
I0
g1167
sI1
g1180
sI3
g1203
sI8
(lp1243
sI9
(lp1244
sI10
(lp1245
sI11
(lp1246
sI12
(lp1247
ssI9
(dp1248
I0
g1168
sI1
g1181
sI3
g1204
sI9
(lp1249
sI10
(lp1250
sI11
(lp1251
sI12
(lp1252
ssI10
(dp1253
I0
g1169
sI1
g1182
sI3
g1205
sI10
(lp1254
sI11
(lp1255
sI12
(lp1256
ssI11
(dp1257
I0
g1170
sI1
g1183
sI3
g1206
sI12
(lp1258
sI11
(lp1259
ssI12
(dp1260
I0
g1171
sI1
g1184
sI3
g1207
sI12
(lp1261
ssa(dp1262
I0
(dp1263
I0
(lp1264
sI1
(lp1265
sI2
(lp1266
sI3
(lp1267
sI4
(lp1268
sI5
(lp1269
sI6
(lp1270
sI7
(lp1271
sI8
(lp1272
sI9
(lp1273
sI10
(lp1274
sI11
(lp1275
sI12
(lp1276
ssI1
(dp1277
I0
g1265
sI1
(lp1278
sI2
(lp1279
sI3
(lp1280
sI4
(lp1281
sI5
(lp1282
sI6
(lp1283
sI7
(lp1284
sI8
(lp1285
sI9
(lp1286
sI10
(lp1287
sI11
(lp1288
sI12
(lp1289
ssI2
(dp1290
I0
g1266
sI1
g1279
sI2
(lp1291
sI3
(lp1292
sI4
(lp1293
sI5
(lp1294
sI6
(lp1295
sI7
(lp1296
sI8
(lp1297
sI9
(lp1298
sI10
(lp1299
sI11
(lp1300
sI12
(lp1301
ssI3
(dp1302
I0
g1267
sI1
g1280
sI2
g1292
sI3
(lp1303
sI4
(lp1304
sI5
(lp1305
sI6
(lp1306
sI7
(lp1307
sI8
(lp1308
sI9
(lp1309
sI10
(lp1310
sI11
(lp1311
sI12
(lp1312
ssI4
(dp1313
I0
g1268
sI1
g1281
sI2
g1293
sI3
g1304
sI4
(lp1314
sI5
(lp1315
sI6
(lp1316
sI7
(lp1317
sI8
(lp1318
sI9
(lp1319
sI10
(lp1320
sI11
(lp1321
sI12
(lp1322
ssI5
(dp1323
I0
g1269
sI1
g1282
sI2
g1294
sI3
g1305
sI4
g1315
sI5
(lp1324
sI6
(lp1325
sI7
(lp1326
sI8
(lp1327
sI9
(lp1328
sI10
(lp1329
sI11
(lp1330
sI12
(lp1331
ssI6
(dp1332
I0
g1270
sI1
g1283
sI2
g1295
sI3
g1306
sI4
g1316
sI5
g1325
sI6
(lp1333
sI7
(lp1334
sI8
(lp1335
sI9
(lp1336
sI10
(lp1337
sI11
(lp1338
sI12
(lp1339
ssI7
(dp1340
I0
g1271
sI1
g1284
sI2
g1296
sI3
g1307
sI4
g1317
sI5
g1326
sI6
g1334
sI7
(lp1341
sI8
(lp1342
sI9
(lp1343
sI10
(lp1344
sI11
(lp1345
sI12
(lp1346
ssI8
(dp1347
I0
g1272
sI1
g1285
sI2
g1297
sI3
g1308
sI4
g1318
sI5
g1327
sI6
g1335
sI7
g1342
sI8
(lp1348
sI9
(lp1349
sI10
(lp1350
sI11
(lp1351
sI12
(lp1352
ssI9
(dp1353
I0
g1273
sI1
g1286
sI2
g1298
sI3
g1309
sI4
g1319
sI5
g1328
sI6
g1336
sI7
g1343
sI8
g1349
sI9
(lp1354
sI10
(lp1355
sI11
(lp1356
sI12
(lp1357
ssI10
(dp1358
I0
g1274
sI1
g1287
sI2
g1299
sI3
g1310
sI4
g1320
sI5
g1329
sI6
g1337
sI7
g1344
sI8
g1350
sI9
g1355
sI10
(lp1359
sI11
(lp1360
sI12
(lp1361
ssI11
(dp1362
I0
g1275
sI1
g1288
sI2
g1300
sI3
g1311
sI4
g1321
sI5
g1330
sI6
g1338
sI7
g1345
sI8
g1351
sI9
g1356
sI10
g1360
sI11
(lp1363
sI12
(lp1364
ssI12
(dp1365
I0
g1276
sI1
g1289
sI2
g1301
sI3
g1312
sI4
g1322
sI5
g1331
sI6
g1339
sI7
g1346
sI8
g1352
sI9
g1357
sI10
g1361
sI11
g1364
sI12
(lp1366
ssa(dp1367
I0
(dp1368
I0
(lp1369
sI1
(lp1370
sI2
(lp1371
sI3
(lp1372
sI4
(lp1373
sI5
(lp1374
sI6
(lp1375
sI7
(lp1376
sI8
(lp1377
sI9
(lp1378
sI10
(lp1379
sI11
(lp1380
sI12
(lp1381
ssI1
(dp1382
I0
g1370
sI1
(lp1383
sI2
(lp1384
sI3
(lp1385
sI4
(lp1386
sI5
(lp1387
sI6
(lp1388
sI7
(lp1389
sI8
(lp1390
sI9
(lp1391
sI10
(lp1392
sI11
(lp1393
sI12
(lp1394
ssI2
(dp1395
I0
g1371
sI1
g1384
sI2
(lp1396
sI3
(lp1397
sI4
(lp1398
sI5
(lp1399
sI6
(lp1400
sI7
(lp1401
sI8
(lp1402
sI9
(lp1403
sI10
(lp1404
sI11
(lp1405
sI12
(lp1406
ssI3
(dp1407
I0
g1372
sI1
g1385
sI2
g1397
sI3
(lp1408
sI4
(lp1409
sI5
(lp1410
sI6
(lp1411
sI7
(lp1412
sI8
(lp1413
sI9
(lp1414
sI10
(lp1415
sI11
(lp1416
sI12
(lp1417
ssI4
(dp1418
I0
g1373
sI1
g1386
sI2
g1398
sI3
g1409
sI4
(lp1419
sI5
(lp1420
sI6
(lp1421
sI7
(lp1422
sI8
(lp1423
sI9
(lp1424
sI10
(lp1425
sI11
(lp1426
sI12
(lp1427
ssI5
(dp1428
I0
g1374
sI1
g1387
sI2
g1399
sI3
g1410
sI4
g1420
sI5
(lp1429
sI6
(lp1430
sI7
(lp1431
sI8
(lp1432
sI9
(lp1433
sI10
(lp1434
sI11
(lp1435
sI12
(lp1436
ssI6
(dp1437
I0
g1375
sI1
g1388
sI2
g1400
sI3
g1411
sI4
g1421
sI6
(lp1438
sI7
(lp1439
sI8
(lp1440
sI9
(lp1441
sI10
(lp1442
sI11
(lp1443
sI12
(lp1444
ssI7
(dp1445
I0
g1376
sI1
g1389
sI2
g1401
sI3
g1412
sI4
g1422
sI5
g1431
sI6
g1439
sI7
(lp1446
sI8
(lp1447
sI9
(lp1448
sI10
(lp1449
sI11
(lp1450
sI12
(lp1451
ssI8
(dp1452
I0
g1377
sI1
g1390
sI2
g1402
sI3
g1413
sI4
g1423
sI5
g1432
sI6
g1440
sI7
g1447
sI8
(lp1453
sI9
(lp1454
sI10
(lp1455
sI11
(lp1456
sI12
(lp1457
ssI9
(dp1458
I0
g1378
sI1
g1391
sI2
g1403
sI3
g1414
sI4
g1424
sI5
g1433
sI6
g1441
sI7
g1448
sI8
g1454
sI9
(lp1459
sI10
(lp1460
sI11
(lp1461
sI12
(lp1462
ssI10
(dp1463
I0
g1379
sI1
g1392
sI2
g1404
sI3
g1415
sI4
g1425
sI5
g1434
sI6
g1442
sI7
g1449
sI8
g1455
sI9
g1460
sI10
(lp1464
sI11
(lp1465
sI12
(lp1466
ssI11
(dp1467
I0
g1380
sI1
g1393
sI2
g1405
sI3
g1416
sI4
g1426
sI5
g1435
sI6
g1443
sI7
g1450
sI8
g1456
sI9
g1461
sI10
g1465
sI11
(lp1468
sI12
(lp1469
ssI12
(dp1470
I0
g1381
sI1
g1394
sI2
g1406
sI3
g1417
sI4
g1427
sI5
g1436
sI6
g1444
sI7
g1451
sI8
g1457
sI9
g1462
sI10
g1466
sI11
g1469
sI12
(lp1471
ssa(dp1472
I0
(dp1473
I0
(lp1474
sI1
(lp1475
sI2
(lp1476
sI3
(lp1477
sI4
(lp1478
sI5
(lp1479
sI6
(lp1480
sI7
(lp1481
sI8
(lp1482
sI9
(lp1483
sI10
(lp1484
sI11
(lp1485
sI12
(lp1486
ssI1
(dp1487
I0
g1475
sI1
(lp1488
sI2
(lp1489
sI3
(lp1490
sI4
(lp1491
sI5
(lp1492
sI6
(lp1493
sI7
(lp1494
sI8
(lp1495
sI9
(lp1496
sI10
(lp1497
sI11
(lp1498
sI12
(lp1499
ssI2
(dp1500
I0
g1476
sI1
g1489
sI2
(lp1501
sI3
(lp1502
sI4
(lp1503
sI5
(lp1504
sI6
(lp1505
sI7
(lp1506
sI8
(lp1507
sI9
(lp1508
sI10
(lp1509
sI11
(lp1510
sI12
(lp1511
ssI3
(dp1512
I0
g1477
sI1
g1490
sI2
g1502
sI3
(lp1513
sI4
(lp1514
sI5
(lp1515
sI6
(lp1516
sI7
(lp1517
sI8
(lp1518
sI9
(lp1519
sI10
(lp1520
sI11
(lp1521
sI12
(lp1522
ssI4
(dp1523
I0
g1478
sI1
g1491
sI2
g1503
sI3
g1514
sI4
(lp1524
sI5
(lp1525
sI6
(lp1526
sI7
(lp1527
sI8
(lp1528
sI9
(lp1529
sI10
(lp1530
sI11
(lp1531
sI12
(lp1532
ssI5
(dp1533
I0
g1479
sI1
g1492
sI2
g1504
sI3
g1515
sI4
g1525
sI5
(lp1534
sI6
(lp1535
sI7
(lp1536
sI8
(lp1537
sI9
(lp1538
sI10
(lp1539
sI11
(lp1540
sI12
(lp1541
ssI6
(dp1542
I0
g1480
sI1
g1493
sI2
g1505
sI3
g1516
sI4
g1526
sI5
g1535
sI6
(lp1543
sI7
(lp1544
sI8
(lp1545
sI9
(lp1546
sI10
(lp1547
sI11
(lp1548
sI12
(lp1549
ssI7
(dp1550
I0
g1481
sI1
g1494
sI2
g1506
sI4
g1527
sI5
g1536
sI6
g1544
sI7
(lp1551
sI8
(lp1552
sI9
(lp1553
sI10
(lp1554
sI11
(lp1555
sI12
(lp1556
ssI8
(dp1557
I0
g1482
sI1
g1495
sI2
g1507
sI3
g1518
sI4
g1528
sI5
g1537
sI6
g1545
sI7
g1552
sI8
(lp1558
sI9
(lp1559
sI10
(lp1560
sI11
(lp1561
sI12
(lp1562
ssI9
(dp1563
I0
g1483
sI1
g1496
sI2
g1508
sI3
g1519
sI4
g1529
sI5
g1538
sI6
g1546
sI7
g1553
sI8
g1559
sI9
(lp1564
sI10
(lp1565
sI11
(lp1566
sI12
(lp1567
ssI10
(dp1568
I0
g1484
sI1
g1497
sI2
g1509
sI3
g1520
sI4
g1530
sI5
g1539
sI6
g1547
sI7
g1554
sI8
g1560
sI9
g1565
sI10
(lp1569
sI11
(lp1570
sI12
(lp1571
ssI11
(dp1572
I0
g1485
sI1
g1498
sI2
g1510
sI3
g1521
sI4
g1531
sI5
g1540
sI6
g1548
sI7
g1555
sI8
g1561
sI9
g1566
sI10
g1570
sI11
(lp1573
sI12
(lp1574
ssI12
(dp1575
I0
g1486
sI1
g1499
sI2
g1511
sI3
g1522
sI4
g1532
sI5
g1541
sI6
g1549
sI7
g1556
sI8
g1562
sI9
g1567
sI10
g1571
sI11
g1574
sI12
(lp1576
ssa(dp1577
I0
(dp1578
I0
(lp1579
sI1
(lp1580
sI2
(lp1581
sI3
(lp1582
sI4
(lp1583
sI5
(lp1584
sI6
(lp1585
sI7
(lp1586
sI8
(lp1587
sI9
(lp1588
sI10
(lp1589
sI11
(lp1590
sI12
(lp1591
ssI1
(dp1592
I0
g1580
sI1
(lp1593
sI2
(lp1594
sI3
(lp1595
sI4
(lp1596
sI5
(lp1597
sI6
(lp1598
sI7
(lp1599
sI8
(lp1600
sI9
(lp1601
sI10
(lp1602
sI11
(lp1603
sI12
(lp1604
ssI2
(dp1605
I0
g1581
sI1
g1594
sI2
(lp1606
sI3
(lp1607
sI4
(lp1608
sI5
(lp1609
sI6
(lp1610
sI7
(lp1611
sI8
(lp1612
sI9
(lp1613
sI10
(lp1614
sI11
(lp1615
sI12
(lp1616
ssI3
(dp1617
I0
g1582
sI1
g1595
sI2
g1607
sI3
(lp1618
sI4
(lp1619
sI5
(lp1620
sI6
(lp1621
sI7
(lp1622
sI8
(lp1623
sI9
(lp1624
sI10
(lp1625
sI11
(lp1626
sI12
(lp1627
ssI4
(dp1628
I0
g1583
sI1
g1596
sI3
g1619
sI4
(lp1629
sI5
(lp1630
sI6
(lp1631
sI7
(lp1632
sI8
(lp1633
sI9
(lp1634
sI10
(lp1635
sI11
(lp1636
sI12
(lp1637
ssI5
(dp1638
I0
g1584
sI1
g1597
sI3
g1620
sI5
(lp1639
sI6
(lp1640
sI7
(lp1641
sI8
(lp1642
sI9
(lp1643
sI10
(lp1644
sI11
(lp1645
sI12
(lp1646
ssI6
(dp1647
I0
g1585
sI1
g1598
sI2
g1610
sI3
g1621
sI4
g1631
sI5
g1640
sI6
(lp1648
sI7
(lp1649
sI8
(lp1650
sI9
(lp1651
sI10
(lp1652
sI11
(lp1653
sI12
(lp1654
ssI7
(dp1655
I0
g1586
sI1
g1599
sI3
g1622
sI6
g1649
sI7
(lp1656
sI8
(lp1657
sI9
(lp1658
sI10
(lp1659
sI11
(lp1660
sI12
(lp1661
ssI8
(dp1662
I0
g1587
sI1
g1600
sI3
g1623
sI6
g1650
sI8
(lp1663
sI9
(lp1664
sI10
(lp1665
sI11
(lp1666
sI12
(lp1667
ssI9
(dp1668
I0
g1588
sI1
g1601
sI2
g1613
sI3
g1624
sI4
g1634
sI5
g1643
sI6
g1651
sI7
g1658
sI8
g1664
sI9
(lp1669
sI10
(lp1670
sI11
(lp1671
sI12
(lp1672
ssI10
(dp1673
I0
g1589
sI1
g1602
sI2
g1614
sI3
g1625
sI4
g1635
sI5
g1644
sI6
g1652
sI7
g1659
sI8
g1665
sI9
g1670
sI10
(lp1674
sI11
(lp1675
sI12
(lp1676
ssI11
(dp1677
I0
g1590
sI1
g1603
sI2
g1615
sI3
g1626
sI4
g1636
sI5
g1645
sI6
g1653
sI7
g1660
sI8
g1666
sI9
g1671
sI10
g1675
sI11
(lp1678
sI12
(lp1679
ssI12
(dp1680
I0
g1591
sI1
g1604
sI2
g1616
sI3
g1627
sI4
g1637
sI5
g1646
sI6
g1654
sI7
g1661
sI8
g1667
sI9
g1672
sI10
g1676
sI11
g1679
sI12
(lp1681
ssa(dp1682
I0
(dp1683
I0
(lp1684
sI1
(lp1685
sI2
(lp1686
sI3
(lp1687
sI4
(lp1688
sI5
(lp1689
sI6
(lp1690
sI7
(lp1691
sI8
(lp1692
sI9
(lp1693
sI10
(lp1694
sI11
(lp1695
sI12
(lp1696
ssI1
(dp1697
I0
g1685
sI1
(lp1698
sI2
(lp1699
sI3
(lp1700
sI4
(lp1701
sI5
(lp1702
sI6
(lp1703
sI7
(lp1704
sI8
(lp1705
sI9
(lp1706
sI10
(lp1707
sI11
(lp1708
sI12
(lp1709
ssI2
(dp1710
I0
g1686
sI1
g1699
sI2
(lp1711
sI3
(lp1712
sI4
(lp1713
sI5
(lp1714
sI6
(lp1715
sI7
(lp1716
sI8
(lp1717
sI9
(lp1718
sI10
(lp1719
sI11
(lp1720
sI12
(lp1721
ssI3
(dp1722
I0
g1687
sI1
g1700
sI2
g1712
sI3
(lp1723
sI4
(lp1724
sI5
(lp1725
sI6
(lp1726
sI7
(lp1727
sI8
(lp1728
sI9
(lp1729
sI10
(lp1730
sI11
(lp1731
sI12
(lp1732
ssI4
(dp1733
I0
g1688
sI1
g1701
sI2
g1713
sI3
g1724
sI4
(lp1734
sI5
(lp1735
sI6
(lp1736
sI7
(lp1737
sI8
(lp1738
sI9
(lp1739
sI10
(lp1740
sI11
(lp1741
sI12
(lp1742
ssI5
(dp1743
I0
g1689
sI1
g1702
sI2
g1714
sI3
g1725
sI4
g1735
sI5
(lp1744
sI6
(lp1745
sI7
(lp1746
sI8
(lp1747
sI9
(lp1748
sI10
(lp1749
sI11
(lp1750
sI12
(lp1751
ssI6
(dp1752
I0
g1690
sI1
g1703
sI2
g1715
sI3
g1726
sI4
g1736
sI5
g1745
sI6
(lp1753
sI7
(lp1754
sI8
(lp1755
sI9
(lp1756
sI10
(lp1757
sI11
(lp1758
sI12
(lp1759
ssI7
(dp1760
I0
g1691
sI1
g1704
sI2
g1716
sI3
g1727
sI4
g1737
sI5
g1746
sI6
g1754
sI7
(lp1761
sI8
(lp1762
sI9
(lp1763
sI10
(lp1764
sI11
(lp1765
sI12
(lp1766
ssI8
(dp1767
I0
g1692
sI1
g1705
sI2
g1717
sI3
g1728
sI4
g1738
sI5
g1747
sI6
g1755
sI7
g1762
sI8
(lp1768
sI9
(lp1769
sI10
(lp1770
sI11
(lp1771
sI12
(lp1772
ssI9
(dp1773
I0
g1693
sI1
g1706
sI2
g1718
sI3
g1729
sI4
g1739
sI5
g1748
sI6
g1756
sI7
g1763
sI8
g1769
sI9
(lp1774
sI10
(lp1775
sI11
(lp1776
sI12
(lp1777
ssI10
(dp1778
I0
g1694
sI1
g1707
sI2
g1719
sI3
g1730
sI4
g1740
sI5
g1749
sI6
g1757
sI7
g1764
sI8
g1770
sI9
g1775
sI10
(lp1779
sI11
(lp1780
sI12
(lp1781
ssI11
(dp1782
I0
g1695
sI1
g1708
sI2
g1720
sI3
g1731
sI4
g1741
sI5
g1750
sI6
g1758
sI7
g1765
sI8
g1771
sI9
g1776
sI10
g1780
sI11
(lp1783
sI12
(lp1784
ssI12
(dp1785
I0
g1696
sI1
g1709
sI2
g1721
sI3
g1732
sI4
g1742
sI5
g1751
sI6
g1759
sI7
g1766
sI8
g1772
sI9
g1777
sI10
g1781
sI11
g1784
sI12
(lp1786
ssa(dp1787
I0
(dp1788
I0
(lp1789
sI1
(lp1790
sI2
(lp1791
sI3
(lp1792
sI4
(lp1793
sI5
(lp1794
sI6
(lp1795
sI7
(lp1796
sI8
(lp1797
sI9
(lp1798
sI10
(lp1799
sI11
(lp1800
sI12
(lp1801
ssI1
(dp1802
I0
g1790
sI1
(lp1803
sI2
(lp1804
sI3
(lp1805
sI4
(lp1806
sI5
(lp1807
sI6
(lp1808
sI7
(lp1809
sI8
(lp1810
sI9
(lp1811
sI10
(lp1812
sI11
(lp1813
sI12
(lp1814
ssI2
(dp1815
I0
g1791
sI1
g1804
sI2
(lp1816
sI3
(lp1817
sI4
(lp1818
sI5
(lp1819
sI6
(lp1820
sI7
(lp1821
sI8
(lp1822
sI9
(lp1823
sI10
(lp1824
sI11
(lp1825
sI12
(lp1826
ssI3
(dp1827
I0
g1792
sI1
g1805
sI3
(lp1828
sI4
(lp1829
sI5
(lp1830
sI6
(lp1831
sI7
(lp1832
sI8
(lp1833
sI9
(lp1834
sI10
(lp1835
sI11
(lp1836
sI12
(lp1837
ssI4
(dp1838
I0
g1793
sI1
g1806
sI2
g1818
sI3
g1829
sI4
(lp1839
sI5
(lp1840
sI6
(lp1841
sI7
(lp1842
sI8
(lp1843
sI9
(lp1844
sI10
(lp1845
sI11
(lp1846
sI12
(lp1847
ssI5
(dp1848
I0
g1794
sI1
g1807
sI4
g1840
sI5
(lp1849
sI6
(lp1850
sI7
(lp1851
sI8
(lp1852
sI9
(lp1853
sI10
(lp1854
sI11
(lp1855
sI12
(lp1856
ssI6
(dp1857
I0
g1795
sI1
g1808
sI2
g1820
sI3
g1831
sI4
g1841
sI5
g1850
sI6
(lp1858
sI7
(lp1859
sI8
(lp1860
sI9
(lp1861
sI10
(lp1862
sI11
(lp1863
sI12
(lp1864
ssI7
(dp1865
I0
g1796
sI1
g1809
sI4
g1842
sI6
g1859
sI7
(lp1866
sI8
(lp1867
sI9
(lp1868
sI10
(lp1869
sI11
(lp1870
sI12
(lp1871
ssI8
(dp1872
I0
g1797
sI1
g1810
sI2
g1822
sI3
g1833
sI4
g1843
sI5
g1852
sI6
g1860
sI7
g1867
sI8
(lp1873
sI9
(lp1874
sI10
(lp1875
sI11
(lp1876
sI12
(lp1877
ssI9
(dp1878
I0
g1798
sI1
g1811
sI2
g1823
sI3
g1834
sI4
g1844
sI5
g1853
sI6
g1861
sI7
g1868
sI8
g1874
sI9
(lp1879
sI10
(lp1880
sI11
(lp1881
sI12
(lp1882
ssI10
(dp1883
I0
g1799
sI1
g1812
sI4
g1845
sI6
g1862
sI8
g1875
sI9
g1880
sI10
(lp1884
sI11
(lp1885
sI12
(lp1886
ssI11
(dp1887
I0
g1800
sI1
g1813
sI4
g1846
sI6
g1863
sI8
g1876
sI9
g1881
sI11
(lp1888
sI12
(lp1889
ssI12
(dp1890
I0
g1801
sI1
g1814
sI4
g1847
sI6
g1864
sI8
g1877
sI9
g1882
sI12
(lp1891
ssa(dp1892
I0
(dp1893
I0
(lp1894
sI1
(lp1895
sI2
(lp1896
sI3
(lp1897
sI4
(lp1898
sI5
(lp1899
sI6
(lp1900
sI7
(lp1901
sI8
(lp1902
sI9
(lp1903
sI10
(lp1904
sI11
(lp1905
sI12
(lp1906
ssI1
(dp1907
I0
g1895
sI1
(lp1908
sI2
(lp1909
sI3
(lp1910
sI4
(lp1911
sI5
(lp1912
sI6
(lp1913
sI7
(lp1914
sI8
(lp1915
sI9
(lp1916
sI10
(lp1917
sI11
(lp1918
sI12
(lp1919
ssI2
(dp1920
I0
g1896
sI1
g1909
sI2
(lp1921
sI3
(lp1922
sI4
(lp1923
sI5
(lp1924
sI6
(lp1925
sI7
(lp1926
sI8
(lp1927
sI9
(lp1928
sI10
(lp1929
sI11
(lp1930
sI12
(lp1931
ssI3
(dp1932
I0
g1897
sI1
g1910
sI2
g1922
sI3
(lp1933
sI4
(lp1934
sI5
(lp1935
sI6
(lp1936
sI7
(lp1937
sI8
(lp1938
sI9
(lp1939
sI10
(lp1940
sI11
(lp1941
sI12
(lp1942
ssI4
(dp1943
I0
g1898
sI1
g1911
sI3
g1934
sI4
(lp1944
sI5
(lp1945
sI6
(lp1946
sI7
(lp1947
sI8
(lp1948
sI9
(lp1949
sI10
(lp1950
sI11
(lp1951
sI12
(lp1952
ssI5
(dp1953
I0
g1899
sI1
g1912
sI3
g1935
sI5
(lp1954
sI6
(lp1955
sI7
(lp1956
sI8
(lp1957
sI9
(lp1958
sI10
(lp1959
sI11
(lp1960
sI12
(lp1961
ssI6
(dp1962
I0
g1900
sI1
g1913
sI3
g1936
sI6
(lp1963
sI7
(lp1964
sI8
(lp1965
sI9
(lp1966
sI10
(lp1967
sI11
(lp1968
sI12
(lp1969
ssI7
(dp1970
I0
g1901
sI1
g1914
sI3
g1937
sI7
(lp1971
sI8
(lp1972
sI9
(lp1973
sI10
(lp1974
sI11
(lp1975
sI12
(lp1976
ssI8
(dp1977
I0
g1902
sI1
g1915
sI2
g1927
sI4
g1948
sI5
g1957
sI6
g1965
sI7
g1972
sI8
(lp1978
sI9
(lp1979
sI10
(lp1980
sI11
(lp1981
sI12
(lp1982
ssI9
(dp1983
I0
g1903
sI1
g1916
sI2
g1928
sI3
g1939
sI4
g1949
sI5
g1958
sI6
g1966
sI7
g1973
sI8
g1979
sI9
(lp1984
sI10
(lp1985
sI11
(lp1986
sI12
(lp1987
ssI10
(dp1988
I0
g1904
sI1
g1917
sI2
g1929
sI3
g1940
sI4
g1950
sI5
g1959
sI6
g1967
sI7
g1974
sI8
g1980
sI9
g1985
sI10
(lp1989
sI11
(lp1990
sI12
(lp1991
ssI11
(dp1992
I0
g1905
sI1
g1918
sI3
g1941
sI8
g1981
sI9
g1986
sI10
g1990
sI11
(lp1993
sI12
(lp1994
ssI12
(dp1995
I0
g1906
sI1
g1919
sI2
g1931
sI4
g1952
sI5
g1961
sI6
g1969
sI7
g1976
sI9
g1987
sI10
g1991
sI11
g1994
sI12
(lp1996
ssa(dp1997
I0
(dp1998
I0
(lp1999
sI1
(lp2000
sI2
(lp2001
sI3
(lp2002
sI4
(lp2003
sI5
(lp2004
sI6
(lp2005
sI7
(lp2006
sI8
(lp2007
sI9
(lp2008
sI10
(lp2009
sI11
(lp2010
sI12
(lp2011
ssI1
(dp2012
I0
g2000
sI1
(lp2013
sI2
(lp2014
sI3
(lp2015
sI4
(lp2016
sI5
(lp2017
sI6
(lp2018
sI7
(lp2019
sI8
(lp2020
sI9
(lp2021
sI10
(lp2022
sI11
(lp2023
sI12
(lp2024
ssI2
(dp2025
I0
g2001
sI1
g2014
sI2
(lp2026
sI3
(lp2027
sI4
(lp2028
sI5
(lp2029
sI6
(lp2030
sI7
(lp2031
sI8
(lp2032
sI9
(lp2033
sI10
(lp2034
sI11
(lp2035
sI12
(lp2036
ssI3
(dp2037
I0
g2002
sI1
g2015
sI2
g2027
sI3
(lp2038
sI4
(lp2039
sI5
(lp2040
sI6
(lp2041
sI7
(lp2042
sI8
(lp2043
sI9
(lp2044
sI10
(lp2045
sI11
(lp2046
sI12
(lp2047
ssI4
(dp2048
I0
g2003
sI1
g2016
sI2
g2028
sI3
g2039
sI4
(lp2049
sI5
(lp2050
sI6
(lp2051
sI7
(lp2052
sI8
(lp2053
sI9
(lp2054
sI10
(lp2055
sI11
(lp2056
sI12
(lp2057
ssI5
(dp2058
I0
g2004
sI1
g2017
sI2
g2029
sI3
g2040
sI4
g2050
sI5
(lp2059
sI6
(lp2060
sI7
(lp2061
sI8
(lp2062
sI9
(lp2063
sI10
(lp2064
sI11
(lp2065
sI12
(lp2066
ssI6
(dp2067
I0
g2005
sI1
g2018
sI2
g2030
sI3
g2041
sI4
g2051
sI5
g2060
sI6
(lp2068
sI7
(lp2069
sI8
(lp2070
sI9
(lp2071
sI10
(lp2072
sI11
(lp2073
sI12
(lp2074
ssI7
(dp2075
I0
g2006
sI1
g2019
sI2
g2031
sI3
g2042
sI4
g2052
sI5
g2061
sI6
g2069
sI7
(lp2076
sI8
(lp2077
sI9
(lp2078
sI10
(lp2079
sI11
(lp2080
sI12
(lp2081
ssI8
(dp2082
I0
g2007
sI1
g2020
sI2
g2032
sI3
g2043
sI4
g2053
sI5
g2062
sI6
g2070
sI7
g2077
sI8
(lp2083
sI9
(lp2084
sI10
(lp2085
sI11
(lp2086
sI12
(lp2087
ssI9
(dp2088
I0
g2008
sI1
g2021
sI2
g2033
sI3
g2044
sI4
g2054
sI5
g2063
sI6
g2071
sI7
g2078
sI8
g2084
sI9
(lp2089
sI10
(lp2090
sI11
(lp2091
sI12
(lp2092
ssI10
(dp2093
I0
g2009
sI1
g2022
sI2
g2034
sI3
g2045
sI4
g2055
sI5
g2064
sI6
g2072
sI7
g2079
sI8
g2085
sI9
g2090
sI10
(lp2094
sI11
(lp2095
sI12
(lp2096
ssI11
(dp2097
I0
g2010
sI1
g2023
sI2
g2035
sI3
g2046
sI4
g2056
sI5
g2065
sI6
g2073
sI7
g2080
sI8
g2086
sI9
g2091
sI11
(lp2098
sI12
(lp2099
ssI12
(dp2100
I0
g2011
sI1
g2024
sI2
g2036
sI3
g2047
sI4
g2057
sI5
g2066
sI6
g2074
sI7
g2081
sI8
g2087
sI9
g2092
sI12
(lp2101
ssa.