(lp1
(lp2
(lp3
a(lp4
a(lp5
a(lp6
a(lp7
((lVhttp://dbpedia.org/resource/Null
tp8
aa(lp9
((lVhttp://dbpedia.org/resource/Null
tp10
aa(lp11
((lVhttp://dbpedia.org/resource/Null
tp12
aa(lp13
((lVhttp://dbpedia.org/resource/Null
tp14
aa(lp15
((lVhttp://dbpedia.org/resource/Null
tp16
aa(lp17
((lVhttp://dbpedia.org/resource/Null
tp18
aa(lp19
a(lp20
((lVhttp://dbpedia.org/resource/Null
tp21
aa(lp22
((lVhttp://dbpedia.org/resource/Null
tp23
aaa(lp24
(lp25
a(lp26
((lVhttp://dbpedia.org/resource/Null
tp27
aa(lp28
a(lp29
a(lp30
a(lp31
a(lp32
((lVhttp://dbpedia.org/resource/Null
tp33
aa(lp34
a(lp35
((lVhttp://dbpedia.org/resource/Null
tp36
aa(lp37
a(lp38
a(lp39
a(lp40
((lVhttp://dbpedia.org/resource/Null
tp41
aaa(lp42
(lp43
a(lp44
((lVhttp://dbpedia.org/resource/Null
tp45
aa(lp46
((lVhttp://dbpedia.org/resource/Null
tp47
aa(lp48
((lVhttp://dbpedia.org/resource/Null
tp49
aa(lp50
a(lp51
((lVhttp://dbpedia.org/resource/Null
tp52
aa(lp53
((lVhttp://dbpedia.org/resource/Null
tp54
aa(lp55
((lVhttp://dbpedia.org/resource/Null
tp56
aa(lp57
a(lp58
((lVhttp://dbpedia.org/resource/Null
tp59
aa(lp60
a(lp61
((lVhttp://dbpedia.org/resource/Null
tp62
aa(lp63
((lVhttp://dbpedia.org/resource/Null
tp64
aaa(lp65
(lp66
a(lp67
((lVhttp://dbpedia.org/resource/Null
tp68
aa(lp69
((lVhttp://dbpedia.org/resource/Null
tp70
aa(lp71
((lVhttp://dbpedia.org/resource/Null
tp72
aa(lp73
((lVhttp://dbpedia.org/resource/Null
tp74
aa(lp75
((lVhttp://dbpedia.org/resource/Null
tp76
aa(lp77
((lVhttp://dbpedia.org/resource/Null
tp78
aa(lp79
((lVhttp://dbpedia.org/resource/Null
tp80
aa(lp81
((lVhttp://dbpedia.org/resource/Null
tp82
aa(lp83
((lVhttp://dbpedia.org/resource/Null
tp84
aa(lp85
a(lp86
((lVhttp://dbpedia.org/resource/Null
tp87
aa(lp88
((lVhttp://dbpedia.org/resource/Null
tp89
aaa(lp90
(lp91
a(lp92
a(lp93
a(lp94
a(lp95
a(lp96
a(lp97
a(lp98
a(lp99
a(lp100
a(lp101
a(lp102
a(lp103
aa(lp104
(lp105
a(lp106
a(lp107
a(lp108
a(lp109
a(lp110
a(lp111
a(lp112
a(lp113
a(lp114
a(lp115
a(lp116
a(lp117
aa(lp118
(lp119
a(lp120
a(lp121
a(lp122
a(lp123
a(lp124
a(lp125
a(lp126
a(lp127
a(lp128
a(lp129
a(lp130
a(lp131
aa(lp132
(lp133
a(lp134
a(lp135
a(lp136
a(lp137
a(lp138
a(lp139
a(lp140
a(lp141
a(lp142
a(lp143
a(lp144
a(lp145
aa(lp146
(lp147
a(lp148
a(lp149
a(lp150
((lVhttp://dbpedia.org/resource/Null
tp151
aa(lp152
((lVhttp://dbpedia.org/resource/Null
tp153
aa(lp154
((lVhttp://dbpedia.org/resource/Null
tp155
aa(lp156
a(lp157
((lVhttp://dbpedia.org/resource/Null
tp158
aa(lp159
((lVhttp://dbpedia.org/resource/Null
tp160
aa(lp161
((lVhttp://dbpedia.org/resource/Null
tp162
aa(lp163
((lVhttp://dbpedia.org/resource/Null
tp164
aa(lp165
((lVhttp://dbpedia.org/resource/Null
tp166
aa(lp167
((lVhttp://dbpedia.org/resource/Null
tp168
aaa(lp169
(lp170
a(lp171
a(lp172
a(lp173
a(lp174
a(lp175
a(lp176
a(lp177
a(lp178
a(lp179
a(lp180
a(lp181
a(lp182
aa(lp183
(lp184
a(lp185
a(lp186
a(lp187
a(lp188
a(lp189
a(lp190
a(lp191
a(lp192
a(lp193
a(lp194
a(lp195
a(lp196
aa(lp197
(lp198
a(lp199
a(lp200
a(lp201
a(lp202
a(lp203
a(lp204
a(lp205
a(lp206
a(lp207
a(lp208
a(lp209
a(lp210
aa(lp211
(lp212
a(lp213
a(lp214
a(lp215
a(lp216
a(lp217
a(lp218
a(lp219
a(lp220
a(lp221
a(lp222
a(lp223
a(lp224
aa(lp225
(lp226
a(lp227
a(lp228
a(lp229
a(lp230
a(lp231
a(lp232
a(lp233
a(lp234
a(lp235
a(lp236
a(lp237
a(lp238
aa(lp239
(lp240
a(lp241
a(lp242
a(lp243
a(lp244
a(lp245
a(lp246
a(lp247
a(lp248
a(lp249
a(lp250
a(lp251
a(lp252
aa(lp253
(lp254
a(lp255
a(lp256
a(lp257
a(lp258
a(lp259
a(lp260
a(lp261
a(lp262
a(lp263
a(lp264
a(lp265
a(lp266
aa(lp267
(lp268
a(lp269
a(lp270
a(lp271
a(lp272
a(lp273
a(lp274
a(lp275
a(lp276
a(lp277
a(lp278
a(lp279
a(lp280
aa(lp281
(lp282
a(lp283
a(lp284
((lVhttp://dbpedia.org/resource/Null
tp285
aa(lp286
((lVhttp://dbpedia.org/resource/Null
tp287
aa(lp288
a(lp289
((lVhttp://dbpedia.org/resource/Null
tp290
aa(lp291
a(lp292
((lVhttp://dbpedia.org/resource/Null
tp293
aa(lp294
a(lp295
a(lp296
((lVhttp://dbpedia.org/resource/Null
tp297
aa(lp298
((lVhttp://dbpedia.org/resource/Null
tp299
aa(lp300
((lVhttp://dbpedia.org/resource/Null
tp301
aaa(lp302
(lp303
a(lp304
a(lp305
a(lp306
a(lp307
a(lp308
a(lp309
a(lp310
a(lp311
a(lp312
a(lp313
a(lp314
a(lp315
aa(lp316
(lp317
a(lp318
a(lp319
a(lp320
a(lp321
a(lp322
a(lp323
a(lp324
a(lp325
a(lp326
a(lp327
((lVhttp://dbpedia.org/resource/Null
tp328
aa(lp329
((lVhttp://dbpedia.org/resource/Null
tp330
aa(lp331
((lVhttp://dbpedia.org/resource/Null
tp332
aaa(lp333
(lp334
a(lp335
a(lp336
a(lp337
a(lp338
((lVhttp://dbpedia.org/resource/Null
tp339
aa(lp340
a(lp341
a(lp342
a(lp343
a(lp344
a(lp345
a(lp346
((lVhttp://dbpedia.org/resource/Null
tp347
aa(lp348
aa(lp349
(lp350
a(lp351
((lVhttp://dbpedia.org/resource/Null
tp352
aa(lp353
((lVhttp://dbpedia.org/resource/Null
tp354
aa(lp355
((lVhttp://dbpedia.org/resource/Null
tp356
aa(lp357
((lVhttp://dbpedia.org/resource/Null
tp358
aa(lp359
((lVhttp://dbpedia.org/resource/Null
tp360
aa(lp361
a(lp362
((lVhttp://dbpedia.org/resource/Null
tp363
aa(lp364
((lVhttp://dbpedia.org/resource/Null
tp365
aa(lp366
((lVhttp://dbpedia.org/resource/Null
tp367
aa(lp368
((lVhttp://dbpedia.org/resource/Null
tp369
aa(lp370
((lVhttp://dbpedia.org/resource/Null
tp371
aa(lp372
((lVhttp://dbpedia.org/resource/Null
tp373
aaa(lp374
(lp375
a(lp376
((lVhttp://dbpedia.org/resource/Null
tp377
aa(lp378
((lVhttp://dbpedia.org/resource/Null
tp379
aa(lp380
a(lp381
((lVhttp://dbpedia.org/resource/Null
tp382
aa(lp383
((lVhttp://dbpedia.org/resource/Null
tp384
aa(lp385
((lVhttp://dbpedia.org/resource/Null
tp386
aa(lp387
a(lp388
((lVhttp://dbpedia.org/resource/Null
tp389
aa(lp390
((lVhttp://dbpedia.org/resource/Null
tp391
aa(lp392
((lVhttp://dbpedia.org/resource/Null
tp393
aa(lp394
((lVhttp://dbpedia.org/resource/Null
tp395
aa(lp396
((lVhttp://dbpedia.org/resource/Null
tp397
aaa(lp398
(lp399
a(lp400
((lVhttp://dbpedia.org/resource/Null
tp401
aa(lp402
a(lp403
((lVhttp://dbpedia.org/resource/Null
tp404
aa(lp405
((lVhttp://dbpedia.org/resource/Null
tp406
aa(lp407
((lVhttp://dbpedia.org/resource/Null
tp408
aa(lp409
((lVhttp://dbpedia.org/resource/Null
tp410
aa(lp411
a(lp412
((lVhttp://dbpedia.org/resource/Null
tp413
aa(lp414
((lVhttp://dbpedia.org/resource/Null
tp415
aa(lp416
a(lp417
a(lp418
aa(lp419
(lp420
a(lp421
a(lp422
a(lp423
a(lp424
((lVhttp://dbpedia.org/resource/Null
tp425
aa(lp426
a(lp427
a(lp428
a(lp429
((lVhttp://dbpedia.org/resource/Null
tp430
aa(lp431
((lVhttp://dbpedia.org/resource/Null
tp432
aa(lp433
((lVhttp://dbpedia.org/resource/Null
tp434
aa(lp435
a(lp436
aa(lp437
(lp438
a(lp439
a(lp440
((lVhttp://dbpedia.org/resource/Null
tp441
aa(lp442
((lVhttp://dbpedia.org/resource/Null
tp443
aa(lp444
((lVhttp://dbpedia.org/resource/Null
tp445
aa(lp446
a(lp447
((lVhttp://dbpedia.org/resource/Null
tp448
aa(lp449
((lVhttp://dbpedia.org/resource/Null
tp450
aa(lp451
((lVhttp://dbpedia.org/resource/Null
tp452
aa(lp453
a(lp454
((lVhttp://dbpedia.org/resource/Null
tp455
aa(lp456
a(lp457
aa(lp458
(lp459
a(lp460
a(lp461
a(lp462
a(lp463
a(lp464
a(lp465
a(lp466
a(lp467
a(lp468
a(lp469
a(lp470
a(lp471
aa(lp472
(lp473
a(lp474
a(lp475
a(lp476
a(lp477
a(lp478
a(lp479
a(lp480
a(lp481
a(lp482
a(lp483
a(lp484
a(lp485
aa(lp486
(lp487
a(lp488
((lVhttp://dbpedia.org/resource/Null
tp489
aa(lp490
((lVhttp://dbpedia.org/resource/Null
tp491
aa(lp492
((lVhttp://dbpedia.org/resource/Null
tp493
aa(lp494
((lVhttp://dbpedia.org/resource/Null
tp495
aa(lp496
((lVhttp://dbpedia.org/resource/Null
tp497
aa(lp498
((lVhttp://dbpedia.org/resource/Null
tp499
aa(lp500
a(lp501
((lVhttp://dbpedia.org/resource/Null
tp502
aa(lp503
((lVhttp://dbpedia.org/resource/Null
tp504
aa(lp505
((lVhttp://dbpedia.org/resource/Null
tp506
aa(lp507
((lVhttp://dbpedia.org/resource/Null
tp508
aa(lp509
((lVhttp://dbpedia.org/resource/Null
tp510
aaa(lp511
(lp512
a(lp513
a(lp514
a(lp515
a(lp516
a(lp517
a(lp518
a(lp519
a(lp520
a(lp521
a(lp522
a(lp523
a(lp524
aa(lp525
(lp526
a(lp527
a(lp528
a(lp529
a(lp530
a(lp531
a(lp532
a(lp533
a(lp534
a(lp535
a(lp536
a(lp537
a(lp538
aa(lp539
(lp540
a(lp541
a(lp542
a(lp543
a(lp544
a(lp545
a(lp546
a(lp547
a(lp548
a(lp549
a(lp550
a(lp551
a(lp552
((lVhttp://dbpedia.org/resource/Null
tp553
aaa(lp554
(lp555
a(lp556
a(lp557
a(lp558
a(lp559
a(lp560
a(lp561
a(lp562
a(lp563
a(lp564
a(lp565
a(lp566
a(lp567
aa(lp568
(lp569
a(lp570
a(lp571
((lVhttp://dbpedia.org/resource/Null
tp572
aa(lp573
((lVhttp://dbpedia.org/resource/Null
tp574
aa(lp575
a(lp576
a(lp577
((lVhttp://dbpedia.org/resource/Null
tp578
aa(lp579
((lVhttp://dbpedia.org/resource/Null
tp580
aa(lp581
((lVhttp://dbpedia.org/resource/Null
tp582
aa(lp583
((lVhttp://dbpedia.org/resource/Null
tp584
aa(lp585
((lVhttp://dbpedia.org/resource/Null
tp586
aa(lp587
((lVhttp://dbpedia.org/resource/Null
tp588
aa(lp589
((lVhttp://dbpedia.org/resource/Null
tp590
aaa(lp591
(lp592
a(lp593
a(lp594
a(lp595
a(lp596
a(lp597
a(lp598
a(lp599
a(lp600
a(lp601
a(lp602
a(lp603
a(lp604
aa(lp605
(lp606
a(lp607
a(lp608
a(lp609
((lVhttp://dbpedia.org/resource/Null
tp610
aa(lp611
a(lp612
((lVhttp://dbpedia.org/resource/Null
tp613
aa(lp614
((lVhttp://dbpedia.org/resource/Null
tp615
aa(lp616
((lVhttp://dbpedia.org/resource/Null
tp617
aa(lp618
a(lp619
((lVhttp://dbpedia.org/resource/Null
tp620
aa(lp621
((lVhttp://dbpedia.org/resource/Null
tp622
aa(lp623
((lVhttp://dbpedia.org/resource/Null
tp624
aa(lp625
((lVhttp://dbpedia.org/resource/Null
tp626
aaa(lp627
(lp628
a(lp629
a(lp630
a(lp631
a(lp632
a(lp633
a(lp634
a(lp635
a(lp636
a(lp637
a(lp638
a(lp639
a(lp640
aa(lp641
(lp642
a(lp643
a(lp644
a(lp645
((lVhttp://dbpedia.org/resource/Null
tp646
aa(lp647
a(lp648
((lVhttp://dbpedia.org/resource/Null
tp649
aa(lp650
a(lp651
a(lp652
((lVhttp://dbpedia.org/resource/Null
tp653
aa(lp654
((lVhttp://dbpedia.org/resource/Null
tp655
aa(lp656
a(lp657
a(lp658
aa(lp659
(lp660
a(lp661
a(lp662
a(lp663
a(lp664
a(lp665
((lVhttp://dbpedia.org/resource/Null
tp666
aa(lp667
a(lp668
a(lp669
a(lp670
a(lp671
a(lp672
a(lp673
aa(lp674
(lp675
a(lp676
a(lp677
a(lp678
a(lp679
a(lp680
a(lp681
a(lp682
a(lp683
a(lp684
a(lp685
a(lp686
a(lp687
aa(lp688
(lp689
a(lp690
a(lp691
a(lp692
a(lp693
((lVhttp://dbpedia.org/resource/Null
tp694
aa(lp695
a(lp696
a(lp697
((lVhttp://dbpedia.org/resource/Null
tp698
aa(lp699
a(lp700
((lVhttp://dbpedia.org/resource/Null
tp701
aa(lp702
a(lp703
a(lp704
aa(lp705
(lp706
a(lp707
((lVhttp://dbpedia.org/resource/Null
tp708
aa(lp709
a(lp710
a(lp711
a(lp712
a(lp713
a(lp714
a(lp715
a(lp716
a(lp717
((lVhttp://dbpedia.org/resource/Null
tp718
aa(lp719
a(lp720
((lVhttp://dbpedia.org/resource/Null
tp721
aaa(lp722
(lp723
a(lp724
((lVhttp://dbpedia.org/resource/Null
tp725
aa(lp726
((lVhttp://dbpedia.org/resource/Null
tp727
aa(lp728
((lVhttp://dbpedia.org/resource/Null
tp729
aa(lp730
((lVhttp://dbpedia.org/resource/Null
tp731
aa(lp732
((lVhttp://dbpedia.org/resource/Null
tp733
aa(lp734
((lVhttp://dbpedia.org/resource/Null
tp735
aa(lp736
a(lp737
((lVhttp://dbpedia.org/resource/Null
tp738
aa(lp739
((lVhttp://dbpedia.org/resource/Null
tp740
aa(lp741
((lVhttp://dbpedia.org/resource/Null
tp742
aa(lp743
((lVhttp://dbpedia.org/resource/Null
tp744
aa(lp745
((lVhttp://dbpedia.org/resource/Null
tp746
aaa(lp747
(lp748
a(lp749
a(lp750
a(lp751
a(lp752
a(lp753
a(lp754
a(lp755
a(lp756
a(lp757
a(lp758
a(lp759
a(lp760
aa(lp761
(lp762
a(lp763
a(lp764
a(lp765
a(lp766
a(lp767
a(lp768
a(lp769
a(lp770
a(lp771
a(lp772
a(lp773
a(lp774
aa(lp775
(lp776
a(lp777
a(lp778
a(lp779
((lVhttp://dbpedia.org/resource/Null
tp780
aa(lp781
((lVhttp://dbpedia.org/resource/Null
tp782
aa(lp783
a(lp784
a(lp785
((lVhttp://dbpedia.org/resource/Null
tp786
aa(lp787
((lVhttp://dbpedia.org/resource/Null
tp788
aa(lp789
a(lp790
((lVhttp://dbpedia.org/resource/Null
tp791
aa(lp792
((lVhttp://dbpedia.org/resource/Null
tp793
aa(lp794
aa(lp795
(lp796
a(lp797
a(lp798
((lVhttp://dbpedia.org/resource/Null
tp799
aa(lp800
((lVhttp://dbpedia.org/resource/Null
tp801
aa(lp802
((lVhttp://dbpedia.org/resource/Null
tp803
aa(lp804
((lVhttp://dbpedia.org/resource/Null
tp805
aa(lp806
((lVhttp://dbpedia.org/resource/Null
tp807
aa(lp808
a(lp809
((lVhttp://dbpedia.org/resource/Null
tp810
aa(lp811
((lVhttp://dbpedia.org/resource/Null
tp812
aa(lp813
((lVhttp://dbpedia.org/resource/Null
tp814
aa(lp815
((lVhttp://dbpedia.org/resource/Null
tp816
aa(lp817
((lVhttp://dbpedia.org/resource/Null
tp818
aaa(lp819
(lp820
a(lp821
a(lp822
a(lp823
a(lp824
a(lp825
a(lp826
a(lp827
a(lp828
a(lp829
a(lp830
a(lp831
a(lp832
aa(lp833
(lp834
a(lp835
a(lp836
a(lp837
a(lp838
a(lp839
a(lp840
a(lp841
a(lp842
a(lp843
a(lp844
a(lp845
a(lp846
aa(lp847
(lp848
a(lp849
((lVhttp://dbpedia.org/resource/Null
tp850
aa(lp851
a(lp852
((lVhttp://dbpedia.org/resource/Null
tp853
aa(lp854
a(lp855
((lVhttp://dbpedia.org/resource/Null
tp856
aa(lp857
((lVhttp://dbpedia.org/resource/Null
tp858
aa(lp859
a(lp860
a(lp861
a(lp862
a(lp863
((lVhttp://dbpedia.org/resource/Null
tp864
aa(lp865
aa(lp866
(lp867
a(lp868
((lVhttp://dbpedia.org/resource/Null
tp869
aa(lp870
((lVhttp://dbpedia.org/resource/Null
tp871
aa(lp872
((lVhttp://dbpedia.org/resource/Null
tp873
aa(lp874
a(lp875
a(lp876
((lVhttp://dbpedia.org/resource/Null
tp877
aa(lp878
((lVhttp://dbpedia.org/resource/Null
tp879
aa(lp880
a(lp881
((lVhttp://dbpedia.org/resource/Null
tp882
aa(lp883
((lVhttp://dbpedia.org/resource/Null
tp884
aa(lp885
((lVhttp://dbpedia.org/resource/Null
tp886
aa(lp887
aa(lp888
(lp889
a(lp890
((lVhttp://dbpedia.org/resource/Null
tp891
aa(lp892
((lVhttp://dbpedia.org/resource/Null
tp893
aa(lp894
((lVhttp://dbpedia.org/resource/Null
tp895
aa(lp896
((lVhttp://dbpedia.org/resource/Null
tp897
aa(lp898
a(lp899
((lVhttp://dbpedia.org/resource/Null
tp900
aa(lp901
((lVhttp://dbpedia.org/resource/Null
tp902
aa(lp903
((lVhttp://dbpedia.org/resource/Null
tp904
aa(lp905
((lVhttp://dbpedia.org/resource/Null
tp906
aa(lp907
((lVhttp://dbpedia.org/resource/Null
tp908
aa(lp909
((lVhttp://dbpedia.org/resource/Null
tp910
aa(lp911
((lVhttp://dbpedia.org/resource/Null
tp912
aaa(lp913
(lp914
a(lp915
a(lp916
a(lp917
a(lp918
a(lp919
a(lp920
a(lp921
a(lp922
a(lp923
a(lp924
a(lp925
a(lp926
aa(lp927
(lp928
a(lp929
a(lp930
a(lp931
a(lp932
a(lp933
a(lp934
a(lp935
a(lp936
a(lp937
a(lp938
a(lp939
a(lp940
aa(lp941
(lp942
a(lp943
((lVhttp://dbpedia.org/resource/Null
tp944
aa(lp945
a(lp946
((lVhttp://dbpedia.org/resource/Null
tp947
aa(lp948
a(lp949
a(lp950
a(lp951
a(lp952
a(lp953
a(lp954
((lVhttp://dbpedia.org/resource/Null
tp955
aa(lp956
((lVhttp://dbpedia.org/resource/Null
tp957
aa(lp958
((lVhttp://dbpedia.org/resource/Null
tp959
aaa(lp960
(lp961
a(lp962
a(lp963
a(lp964
a(lp965
a(lp966
a(lp967
a(lp968
a(lp969
a(lp970
a(lp971
a(lp972
a(lp973
aa(lp974
(lp975
a(lp976
a(lp977
a(lp978
a(lp979
a(lp980
a(lp981
a(lp982
a(lp983
a(lp984
a(lp985
a(lp986
a(lp987
aa(lp988
(lp989
a(lp990
((lVhttp://dbpedia.org/resource/Null
tp991
aa(lp992
a(lp993
((lVhttp://dbpedia.org/resource/Null
tp994
aa(lp995
a(lp996
a(lp997
a(lp998
a(lp999
a(lp1000
a(lp1001
a(lp1002
a(lp1003
aa(lp1004
(lp1005
a(lp1006
a(lp1007
a(lp1008
a(lp1009
a(lp1010
a(lp1011
a(lp1012
a(lp1013
a(lp1014
a(lp1015
a(lp1016
a(lp1017
aa(lp1018
(lp1019
a(lp1020
a(lp1021
a(lp1022
a(lp1023
a(lp1024
a(lp1025
a(lp1026
a(lp1027
a(lp1028
a(lp1029
a(lp1030
a(lp1031
aa(lp1032
(lp1033
a(lp1034
a(lp1035
a(lp1036
a(lp1037
a(lp1038
a(lp1039
a(lp1040
a(lp1041
a(lp1042
a(lp1043
a(lp1044
a(lp1045
aa(lp1046
(lp1047
a(lp1048
a(lp1049
a(lp1050
((lVhttp://dbpedia.org/resource/Null
tp1051
aa(lp1052
a(lp1053
a(lp1054
((lVhttp://dbpedia.org/resource/Null
tp1055
aa(lp1056
a(lp1057
a(lp1058
a(lp1059
((lVhttp://dbpedia.org/resource/Null
tp1060
aa(lp1061
a(lp1062
aa(lp1063
(lp1064
a(lp1065
a(lp1066
a(lp1067
a(lp1068
a(lp1069
a(lp1070
a(lp1071
a(lp1072
a(lp1073
((lVhttp://dbpedia.org/resource/Null
tp1074
aa(lp1075
a(lp1076
a(lp1077
aa(lp1078
(lp1079
a(lp1080
a(lp1081
a(lp1082
a(lp1083
a(lp1084
a(lp1085
a(lp1086
a(lp1087
a(lp1088
a(lp1089
a(lp1090
a(lp1091
aa(lp1092
(lp1093
a(lp1094
a(lp1095
a(lp1096
a(lp1097
a(lp1098
a(lp1099
a(lp1100
a(lp1101
a(lp1102
a(lp1103
a(lp1104
a(lp1105
aa(lp1106
(lp1107
a(lp1108
((lVhttp://dbpedia.org/resource/Null
tp1109
aa(lp1110
((lVhttp://dbpedia.org/resource/Null
tp1111
aa(lp1112
a(lp1113
a(lp1114
((lVhttp://dbpedia.org/resource/Null
tp1115
aa(lp1116
((lVhttp://dbpedia.org/resource/Null
tp1117
aa(lp1118
((lVhttp://dbpedia.org/resource/Null
tp1119
aa(lp1120
((lVhttp://dbpedia.org/resource/Null
tp1121
aa(lp1122
((lVhttp://dbpedia.org/resource/Null
tp1123
aa(lp1124
((lVhttp://dbpedia.org/resource/Null
tp1125
aa(lp1126
((lVhttp://dbpedia.org/resource/Null
tp1127
aa(lp1128
((lVhttp://dbpedia.org/resource/Null
tp1129
aaa(lp1130
(lp1131
a(lp1132
a(lp1133
a(lp1134
a(lp1135
a(lp1136
a(lp1137
a(lp1138
a(lp1139
a(lp1140
a(lp1141
a(lp1142
a(lp1143
aa(lp1144
(lp1145
a(lp1146
a(lp1147
a(lp1148
a(lp1149
a(lp1150
a(lp1151
a(lp1152
a(lp1153
a(lp1154
a(lp1155
a(lp1156
a(lp1157
aa(lp1158
(lp1159
a(lp1160
a(lp1161
((lVhttp://dbpedia.org/resource/Null
tp1162
aa(lp1163
((lVhttp://dbpedia.org/resource/Null
tp1164
aa(lp1165
((lVhttp://dbpedia.org/resource/Null
tp1166
aa(lp1167
((lVhttp://dbpedia.org/resource/Null
tp1168
aa(lp1169
((lVhttp://dbpedia.org/resource/Null
tp1170
aa(lp1171
((lVhttp://dbpedia.org/resource/Null
tp1172
aa(lp1173
((lVhttp://dbpedia.org/resource/Null
tp1174
aa(lp1175
((lVhttp://dbpedia.org/resource/Null
tp1176
aa(lp1177
((lVhttp://dbpedia.org/resource/Null
tp1178
aa(lp1179
((lVhttp://dbpedia.org/resource/Null
tp1180
aa(lp1181
((lVhttp://dbpedia.org/resource/Null
tp1182
aaa(lp1183
(lp1184
a(lp1185
a(lp1186
a(lp1187
a(lp1188
((lVhttp://dbpedia.org/resource/Null
tp1189
aa(lp1190
a(lp1191
a(lp1192
a(lp1193
a(lp1194
a(lp1195
a(lp1196
a(lp1197
aa(lp1198
(lp1199
a(lp1200
((lVhttp://dbpedia.org/resource/Null
tp1201
aa(lp1202
((lVhttp://dbpedia.org/resource/Null
tp1203
aa(lp1204
((lVhttp://dbpedia.org/resource/Null
tp1205
aa(lp1206
((lVhttp://dbpedia.org/resource/Null
tp1207
aa(lp1208
((lVhttp://dbpedia.org/resource/Null
tp1209
aa(lp1210
((lVhttp://dbpedia.org/resource/Null
tp1211
aa(lp1212
((lVhttp://dbpedia.org/resource/Null
tp1213
aa(lp1214
((lVhttp://dbpedia.org/resource/Null
tp1215
aa(lp1216
a(lp1217
((lVhttp://dbpedia.org/resource/Null
tp1218
aa(lp1219
((lVhttp://dbpedia.org/resource/Null
tp1220
aa(lp1221
((lVhttp://dbpedia.org/resource/Null
tp1222
aaa(lp1223
(lp1224
a(lp1225
a(lp1226
a(lp1227
((lVhttp://dbpedia.org/resource/Null
tp1228
aa(lp1229
a(lp1230
a(lp1231
a(lp1232
a(lp1233
a(lp1234
a(lp1235
a(lp1236
a(lp1237
aa(lp1238
(lp1239
a(lp1240
a(lp1241
a(lp1242
((lVhttp://dbpedia.org/resource/Null
tp1243
aa(lp1244
a(lp1245
a(lp1246
a(lp1247
((lVhttp://dbpedia.org/resource/Null
tp1248
aa(lp1249
a(lp1250
a(lp1251
a(lp1252
((lVhttp://dbpedia.org/resource/Null
tp1253
aa(lp1254
aa(lp1255
(lp1256
a(lp1257
((lVhttp://dbpedia.org/resource/Null
tp1258
aa(lp1259
((lVhttp://dbpedia.org/resource/Null
tp1260
aa(lp1261
((lVhttp://dbpedia.org/resource/Null
tp1262
aa(lp1263
((lVhttp://dbpedia.org/resource/Null
tp1264
aa(lp1265
((lVhttp://dbpedia.org/resource/Null
tp1266
aa(lp1267
((lVhttp://dbpedia.org/resource/Null
tp1268
aa(lp1269
a(lp1270
((lVhttp://dbpedia.org/resource/Null
tp1271
aa(lp1272
((lVhttp://dbpedia.org/resource/Null
tp1273
aa(lp1274
((lVhttp://dbpedia.org/resource/Null
tp1275
aa(lp1276
a(lp1277
aa(lp1278
(lp1279
a(lp1280
a(lp1281
a(lp1282
a(lp1283
a(lp1284
a(lp1285
a(lp1286
a(lp1287
a(lp1288
a(lp1289
a(lp1290
a(lp1291
aa(lp1292
(lp1293
a(lp1294
((lVhttp://dbpedia.org/resource/Null
tp1295
aa(lp1296
((lVhttp://dbpedia.org/resource/Null
tp1297
aa(lp1298
((lVhttp://dbpedia.org/resource/Null
tp1299
aa(lp1300
a(lp1301
((lVhttp://dbpedia.org/resource/Null
tp1302
aa(lp1303
((lVhttp://dbpedia.org/resource/Null
tp1304
aa(lp1305
((lVhttp://dbpedia.org/resource/Null
tp1306
aa(lp1307
((lVhttp://dbpedia.org/resource/Null
tp1308
aa(lp1309
((lVhttp://dbpedia.org/resource/Null
tp1310
aa(lp1311
((lVhttp://dbpedia.org/resource/Null
tp1312
aa(lp1313
((lVhttp://dbpedia.org/resource/Null
tp1314
aa(lp1315
((lVhttp://dbpedia.org/resource/Null
tp1316
aaa(lp1317
(lp1318
a(lp1319
a(lp1320
a(lp1321
a(lp1322
a(lp1323
((lVhttp://dbpedia.org/resource/Null
tp1324
aa(lp1325
((lVhttp://dbpedia.org/resource/Null
tp1326
aa(lp1327
((lVhttp://dbpedia.org/resource/Null
tp1328
aa(lp1329
a(lp1330
((lVhttp://dbpedia.org/resource/Null
tp1331
aa(lp1332
((lVhttp://dbpedia.org/resource/Null
tp1333
aa(lp1334
((lVhttp://dbpedia.org/resource/Null
tp1335
aa(lp1336
aa(lp1337
(lp1338
a(lp1339
a(lp1340
a(lp1341
a(lp1342
a(lp1343
a(lp1344
a(lp1345
((lVhttp://dbpedia.org/resource/Null
tp1346
aa(lp1347
a(lp1348
((lVhttp://dbpedia.org/resource/Null
tp1349
aa(lp1350
((lVhttp://dbpedia.org/resource/Null
tp1351
aa(lp1352
((lVhttp://dbpedia.org/resource/Null
tp1353
aa(lp1354
aa(lp1355
(lp1356
a(lp1357
a(lp1358
a(lp1359
a(lp1360
a(lp1361
a(lp1362
a(lp1363
a(lp1364
a(lp1365
a(lp1366
a(lp1367
a(lp1368
aa(lp1369
(lp1370
a(lp1371
a(lp1372
a(lp1373
a(lp1374
a(lp1375
a(lp1376
a(lp1377
a(lp1378
a(lp1379
a(lp1380
a(lp1381
a(lp1382
aa(lp1383
(lp1384
a(lp1385
a(lp1386
a(lp1387
a(lp1388
a(lp1389
a(lp1390
a(lp1391
a(lp1392
a(lp1393
a(lp1394
a(lp1395
a(lp1396
aa(lp1397
(lp1398
a(lp1399
a(lp1400
a(lp1401
a(lp1402
a(lp1403
a(lp1404
a(lp1405
a(lp1406
a(lp1407
a(lp1408
a(lp1409
a(lp1410
aa(lp1411
(lp1412
a(lp1413
a(lp1414
a(lp1415
a(lp1416
a(lp1417
a(lp1418
a(lp1419
a(lp1420
a(lp1421
a(lp1422
a(lp1423
a(lp1424
aa(lp1425
(lp1426
a(lp1427
a(lp1428
a(lp1429
a(lp1430
a(lp1431
a(lp1432
a(lp1433
a(lp1434
a(lp1435
a(lp1436
a(lp1437
a(lp1438
aa(lp1439
(lp1440
a(lp1441
a(lp1442
a(lp1443
a(lp1444
a(lp1445
a(lp1446
a(lp1447
a(lp1448
a(lp1449
((lVhttp://dbpedia.org/resource/Null
tp1450
aa(lp1451
((lVhttp://dbpedia.org/resource/Null
tp1452
aa(lp1453
((lVhttp://dbpedia.org/resource/Null
tp1454
aa(lp1455
((lVhttp://dbpedia.org/resource/Null
tp1456
aaa(lp1457
(lp1458
a(lp1459
((lVhttp://dbpedia.org/resource/Null
tp1460
aa(lp1461
a(lp1462
((lVhttp://dbpedia.org/resource/Null
tp1463
aa(lp1464
((lVhttp://dbpedia.org/resource/Null
tp1465
aa(lp1466
((lVhttp://dbpedia.org/resource/Null
tp1467
aa(lp1468
((lVhttp://dbpedia.org/resource/Null
tp1469
aa(lp1470
((lVhttp://dbpedia.org/resource/Null
tp1471
aa(lp1472
((lVhttp://dbpedia.org/resource/Null
tp1473
aa(lp1474
((lVhttp://dbpedia.org/resource/Null
tp1475
aa(lp1476
((lVhttp://dbpedia.org/resource/Null
tp1477
aa(lp1478
((lVhttp://dbpedia.org/resource/Null
tp1479
aa(lp1480
((lVhttp://dbpedia.org/resource/Null
tp1481
aaa(lp1482
(lp1483
a(lp1484
a(lp1485
((lVhttp://dbpedia.org/resource/Null
tp1486
aa(lp1487
((lVhttp://dbpedia.org/resource/Null
tp1488
aa(lp1489
((lVhttp://dbpedia.org/resource/Null
tp1490
aa(lp1491
((lVhttp://dbpedia.org/resource/Null
tp1492
aa(lp1493
((lVhttp://dbpedia.org/resource/Null
tp1494
aa(lp1495
((lVhttp://dbpedia.org/resource/Null
tp1496
aa(lp1497
((lVhttp://dbpedia.org/resource/Null
tp1498
aa(lp1499
((lVhttp://dbpedia.org/resource/Null
tp1500
aa(lp1501
((lVhttp://dbpedia.org/resource/Null
tp1502
aa(lp1503
((lVhttp://dbpedia.org/resource/Null
tp1504
aa(lp1505
((lVhttp://dbpedia.org/resource/Null
tp1506
aaa(lp1507
(lp1508
a(lp1509
a(lp1510
a(lp1511
a(lp1512
a(lp1513
a(lp1514
a(lp1515
a(lp1516
a(lp1517
a(lp1518
a(lp1519
a(lp1520
aa(lp1521
(lp1522
a(lp1523
((lVhttp://dbpedia.org/resource/Null
tp1524
aa(lp1525
((lVhttp://dbpedia.org/resource/Null
tp1526
aa(lp1527
((lVhttp://dbpedia.org/resource/Null
tp1528
aa(lp1529
((lVhttp://dbpedia.org/resource/Null
tp1530
aa(lp1531
((lVhttp://dbpedia.org/resource/Null
tp1532
aa(lp1533
a(lp1534
((lVhttp://dbpedia.org/resource/Null
tp1535
aa(lp1536
((lVhttp://dbpedia.org/resource/Null
tp1537
aa(lp1538
((lVhttp://dbpedia.org/resource/Null
tp1539
aa(lp1540
a(lp1541
((lVhttp://dbpedia.org/resource/Null
tp1542
aa(lp1543
((lVhttp://dbpedia.org/resource/Null
tp1544
aaa(lp1545
(lp1546
a(lp1547
a(lp1548
a(lp1549
a(lp1550
a(lp1551
a(lp1552
a(lp1553
a(lp1554
a(lp1555
a(lp1556
a(lp1557
a(lp1558
aa(lp1559
(lp1560
a(lp1561
a(lp1562
a(lp1563
a(lp1564
((lVhttp://dbpedia.org/resource/Null
tp1565
aa(lp1566
a(lp1567
a(lp1568
((lVhttp://dbpedia.org/resource/Null
tp1569
aa(lp1570
((lVhttp://dbpedia.org/resource/Null
tp1571
aa(lp1572
a(lp1573
((lVhttp://dbpedia.org/resource/Null
tp1574
aa(lp1575
((lVhttp://dbpedia.org/resource/Null
tp1576
aa(lp1577
aa(lp1578
(lp1579
a(lp1580
a(lp1581
((lVhttp://dbpedia.org/resource/Null
tp1582
aa(lp1583
((lVhttp://dbpedia.org/resource/Null
tp1584
aa(lp1585
((lVhttp://dbpedia.org/resource/Null
tp1586
aa(lp1587
a(lp1588
a(lp1589
((lVhttp://dbpedia.org/resource/Null
tp1590
aa(lp1591
((lVhttp://dbpedia.org/resource/Null
tp1592
aa(lp1593
((lVhttp://dbpedia.org/resource/Null
tp1594
aa(lp1595
((lVhttp://dbpedia.org/resource/Null
tp1596
aa(lp1597
((lVhttp://dbpedia.org/resource/Null
tp1598
aa(lp1599
aa(lp1600
(lp1601
a(lp1602
a(lp1603
a(lp1604
a(lp1605
a(lp1606
a(lp1607
a(lp1608
a(lp1609
a(lp1610
a(lp1611
a(lp1612
a(lp1613
aa(lp1614
(lp1615
a(lp1616
a(lp1617
a(lp1618
((lVhttp://dbpedia.org/resource/Null
tp1619
aa(lp1620
((lVhttp://dbpedia.org/resource/Null
tp1621
aa(lp1622
a(lp1623
((lVhttp://dbpedia.org/resource/Null
tp1624
aa(lp1625
((lVhttp://dbpedia.org/resource/Null
tp1626
aa(lp1627
((lVhttp://dbpedia.org/resource/Null
tp1628
aa(lp1629
a(lp1630
((lVhttp://dbpedia.org/resource/Null
tp1631
aa(lp1632
((lVhttp://dbpedia.org/resource/Null
tp1633
aa(lp1634
((lVhttp://dbpedia.org/resource/Null
tp1635
aaa(lp1636
(lp1637
a(lp1638
a(lp1639
a(lp1640
((lVhttp://dbpedia.org/resource/Null
tp1641
aa(lp1642
((lVhttp://dbpedia.org/resource/Null
tp1643
aa(lp1644
a(lp1645
a(lp1646
a(lp1647
a(lp1648
((lVhttp://dbpedia.org/resource/Null
tp1649
aa(lp1650
a(lp1651
((lVhttp://dbpedia.org/resource/Null
tp1652
aa(lp1653
aa(lp1654
(lp1655
a(lp1656
((lVhttp://dbpedia.org/resource/Null
tp1657
aa(lp1658
a(lp1659
a(lp1660
((lVhttp://dbpedia.org/resource/Null
tp1661
aa(lp1662
((lVhttp://dbpedia.org/resource/Null
tp1663
aa(lp1664
((lVhttp://dbpedia.org/resource/Null
tp1665
aa(lp1666
((lVhttp://dbpedia.org/resource/Null
tp1667
aa(lp1668
((lVhttp://dbpedia.org/resource/Null
tp1669
aa(lp1670
((lVhttp://dbpedia.org/resource/Null
tp1671
aa(lp1672
((lVhttp://dbpedia.org/resource/Null
tp1673
aa(lp1674
((lVhttp://dbpedia.org/resource/Null
tp1675
aa(lp1676
((lVhttp://dbpedia.org/resource/Null
tp1677
aaa(lp1678
(lp1679
a(lp1680
((lVhttp://dbpedia.org/resource/Null
tp1681
aa(lp1682
((lVhttp://dbpedia.org/resource/Null
tp1683
aa(lp1684
((lVhttp://dbpedia.org/resource/Null
tp1685
aa(lp1686
a(lp1687
a(lp1688
((lVhttp://dbpedia.org/resource/Null
tp1689
aa(lp1690
a(lp1691
a(lp1692
a(lp1693
a(lp1694
((lVhttp://dbpedia.org/resource/Null
tp1695
aa(lp1696
aa(lp1697
(lp1698
a(lp1699
((lVhttp://dbpedia.org/resource/Null
tp1700
aa(lp1701
((lVhttp://dbpedia.org/resource/Null
tp1702
aa(lp1703
a(lp1704
((lVhttp://dbpedia.org/resource/Null
tp1705
aa(lp1706
a(lp1707
a(lp1708
((lVhttp://dbpedia.org/resource/Null
tp1709
aa(lp1710
a(lp1711
((lVhttp://dbpedia.org/resource/Null
tp1712
aa(lp1713
((lVhttp://dbpedia.org/resource/Null
tp1714
aa(lp1715
((lVhttp://dbpedia.org/resource/Null
tp1716
aa(lp1717
((lVhttp://dbpedia.org/resource/Null
tp1718
aaa(lp1719
(lp1720
a(lp1721
a(lp1722
a(lp1723
a(lp1724
a(lp1725
a(lp1726
a(lp1727
a(lp1728
a(lp1729
a(lp1730
a(lp1731
a(lp1732
aa(lp1733
(lp1734
a(lp1735
a(lp1736
a(lp1737
a(lp1738
a(lp1739
a(lp1740
a(lp1741
a(lp1742
a(lp1743
a(lp1744
a(lp1745
a(lp1746
aa(lp1747
(lp1748
a(lp1749
((lVhttp://dbpedia.org/resource/Null
tp1750
aa(lp1751
((lVhttp://dbpedia.org/resource/Null
tp1752
aa(lp1753
((lVhttp://dbpedia.org/resource/Null
tp1754
aa(lp1755
((lVhttp://dbpedia.org/resource/Null
tp1756
aa(lp1757
((lVhttp://dbpedia.org/resource/Null
tp1758
aa(lp1759
((lVhttp://dbpedia.org/resource/Null
tp1760
aa(lp1761
a(lp1762
((lVhttp://dbpedia.org/resource/Null
tp1763
aa(lp1764
((lVhttp://dbpedia.org/resource/Null
tp1765
aa(lp1766
((lVhttp://dbpedia.org/resource/Null
tp1767
aa(lp1768
((lVhttp://dbpedia.org/resource/Null
tp1769
aa(lp1770
((lVhttp://dbpedia.org/resource/Null
tp1771
aaa(lp1772
(lp1773
a(lp1774
((lVhttp://dbpedia.org/resource/Null
tp1775
aa(lp1776
((lVhttp://dbpedia.org/resource/Null
tp1777
aa(lp1778
((lVhttp://dbpedia.org/resource/Null
tp1779
aa(lp1780
((lVhttp://dbpedia.org/resource/Null
tp1781
aa(lp1782
((lVhttp://dbpedia.org/resource/Null
tp1783
aa(lp1784
((lVhttp://dbpedia.org/resource/Null
tp1785
aa(lp1786
a(lp1787
a(lp1788
((lVhttp://dbpedia.org/resource/Null
tp1789
aa(lp1790
((lVhttp://dbpedia.org/resource/Null
tp1791
aa(lp1792
((lVhttp://dbpedia.org/resource/Null
tp1793
aa(lp1794
((lVhttp://dbpedia.org/resource/Null
tp1795
aaa(lp1796
(lp1797
a(lp1798
((lVhttp://dbpedia.org/resource/Null
tp1799
aa(lp1800
a(lp1801
a(lp1802
((lVhttp://dbpedia.org/resource/Null
tp1803
aa(lp1804
((lVhttp://dbpedia.org/resource/Null
tp1805
aa(lp1806
((lVhttp://dbpedia.org/resource/Null
tp1807
aa(lp1808
((lVhttp://dbpedia.org/resource/Null
tp1809
aa(lp1810
a(lp1811
a(lp1812
((lVhttp://dbpedia.org/resource/Null
tp1813
aa(lp1814
((lVhttp://dbpedia.org/resource/Null
tp1815
aa(lp1816
((lVhttp://dbpedia.org/resource/Null
tp1817
aaa(lp1818
(lp1819
a(lp1820
((lVhttp://dbpedia.org/resource/Null
tp1821
aa(lp1822
a(lp1823
((lVhttp://dbpedia.org/resource/Null
tp1824
aa(lp1825
((lVhttp://dbpedia.org/resource/Null
tp1826
aa(lp1827
((lVhttp://dbpedia.org/resource/Null
tp1828
aa(lp1829
((lVhttp://dbpedia.org/resource/Null
tp1830
aa(lp1831
((lVhttp://dbpedia.org/resource/Null
tp1832
aa(lp1833
((lVhttp://dbpedia.org/resource/Null
tp1834
aa(lp1835
((lVhttp://dbpedia.org/resource/Null
tp1836
aa(lp1837
((lVhttp://dbpedia.org/resource/Null
tp1838
aa(lp1839
((lVhttp://dbpedia.org/resource/Null
tp1840
aa(lp1841
((lVhttp://dbpedia.org/resource/Null
tp1842
aaa(lp1843
(lp1844
a(lp1845
a(lp1846
a(lp1847
((lVhttp://dbpedia.org/resource/Null
tp1848
aa(lp1849
((lVhttp://dbpedia.org/resource/Null
tp1850
aa(lp1851
a(lp1852
((lVhttp://dbpedia.org/resource/Null
tp1853
aa(lp1854
((lVhttp://dbpedia.org/resource/Null
tp1855
aa(lp1856
((lVhttp://dbpedia.org/resource/Null
tp1857
aa(lp1858
((lVhttp://dbpedia.org/resource/Null
tp1859
aa(lp1860
((lVhttp://dbpedia.org/resource/Null
tp1861
aa(lp1862
((lVhttp://dbpedia.org/resource/Null
tp1863
aa(lp1864
((lVhttp://dbpedia.org/resource/Null
tp1865
aaa(lp1866
(lp1867
a(lp1868
((lVhttp://dbpedia.org/resource/Null
tp1869
aa(lp1870
((lVhttp://dbpedia.org/resource/Null
tp1871
aa(lp1872
a(lp1873
((lVhttp://dbpedia.org/resource/Null
tp1874
aa(lp1875
((lVhttp://dbpedia.org/resource/Null
tp1876
aa(lp1877
((lVhttp://dbpedia.org/resource/Null
tp1878
aa(lp1879
((lVhttp://dbpedia.org/resource/Null
tp1880
aa(lp1881
((lVhttp://dbpedia.org/resource/Null
tp1882
aa(lp1883
((lVhttp://dbpedia.org/resource/Null
tp1884
aa(lp1885
((lVhttp://dbpedia.org/resource/Null
tp1886
aa(lp1887
((lVhttp://dbpedia.org/resource/Null
tp1888
aa(lp1889
((lVhttp://dbpedia.org/resource/Null
tp1890
aaa(lp1891
(lp1892
a(lp1893
a(lp1894
a(lp1895
a(lp1896
a(lp1897
a(lp1898
a(lp1899
a(lp1900
a(lp1901
a(lp1902
a(lp1903
a(lp1904
aa(lp1905
(lp1906
((lp1907
Vhttp://umbel.org/umbel/rc/Animal
p1908
aVhttp://umbel.org/umbel/rc/BiologicalLivingObject
p1909
aVhttp://umbel.org/umbel/rc/Bird
p1910
aVhttp://umbel.org/umbel/rc/EukaryoticCell
p1911
aVhttp://dbpedia.org/resource/Herring_Gull
tp1912
aa(lp1913
a(lp1914
a(lp1915
a(lp1916
a(lp1917
a(lp1918
a(lp1919
a(lp1920
a(lp1921
a(lp1922
a(lp1923
a(lp1924
aa(lp1925
(lp1926
a(lp1927
a(lp1928
a(lp1929
a(lp1930
((lVhttp://dbpedia.org/resource/Null
tp1931
aa(lp1932
a(lp1933
((lVhttp://dbpedia.org/resource/Null
tp1934
aa(lp1935
((lVhttp://dbpedia.org/resource/Null
tp1936
aa(lp1937
a(lp1938
a(lp1939
((lVhttp://dbpedia.org/resource/Null
tp1940
aa(lp1941
a(lp1942
((lVhttp://dbpedia.org/resource/Null
tp1943
aaa(lp1944
(lp1945
a(lp1946
a(lp1947
a(lp1948
a(lp1949
a(lp1950
a(lp1951
a(lp1952
a(lp1953
a(lp1954
a(lp1955
a(lp1956
a(lp1957
aa(lp1958
(lp1959
a(lp1960
((lVhttp://dbpedia.org/resource/Null
tp1961
aa(lp1962
((lVhttp://dbpedia.org/resource/Null
tp1963
aa(lp1964
((lVhttp://dbpedia.org/resource/Null
tp1965
aa(lp1966
((lVhttp://dbpedia.org/resource/Null
tp1967
aa(lp1968
((lVhttp://dbpedia.org/resource/Null
tp1969
aa(lp1970
a(lp1971
((lVhttp://dbpedia.org/resource/Null
tp1972
aa(lp1973
((lVhttp://dbpedia.org/resource/Null
tp1974
aa(lp1975
((lVhttp://dbpedia.org/resource/Null
tp1976
aa(lp1977
((lVhttp://dbpedia.org/resource/Null
tp1978
aa(lp1979
((lVhttp://dbpedia.org/resource/Null
tp1980
aa(lp1981
((lVhttp://dbpedia.org/resource/Null
tp1982
aaa(lp1983
(lp1984
a(lp1985
((lVhttp://dbpedia.org/resource/Null
tp1986
aa(lp1987
((lVhttp://dbpedia.org/resource/Null
tp1988
aa(lp1989
((lVhttp://dbpedia.org/resource/Null
tp1990
aa(lp1991
((lVhttp://dbpedia.org/resource/Null
tp1992
aa(lp1993
((lVhttp://dbpedia.org/resource/Null
tp1994
aa(lp1995
((lVhttp://dbpedia.org/resource/Null
tp1996
aa(lp1997
((lVhttp://dbpedia.org/resource/Null
tp1998
aa(lp1999
((lVhttp://dbpedia.org/resource/Null
tp2000
aa(lp2001
((lVhttp://dbpedia.org/resource/Null
tp2002
aa(lp2003
a(lp2004
((lVhttp://dbpedia.org/resource/Null
tp2005
aa(lp2006
((lVhttp://dbpedia.org/resource/Null
tp2007
aaa(lp2008
(lp2009
a(lp2010
((lVhttp://dbpedia.org/resource/Null
tp2011
aa(lp2012
((lVhttp://dbpedia.org/resource/Null
tp2013
aa(lp2014
((lVhttp://dbpedia.org/resource/Null
tp2015
aa(lp2016
((lVhttp://dbpedia.org/resource/Null
tp2017
aa(lp2018
((lVhttp://dbpedia.org/resource/Null
tp2019
aa(lp2020
a(lp2021
((lVhttp://dbpedia.org/resource/Null
tp2022
aa(lp2023
((lVhttp://dbpedia.org/resource/Null
tp2024
aa(lp2025
((lVhttp://dbpedia.org/resource/Null
tp2026
aa(lp2027
((lVhttp://dbpedia.org/resource/Null
tp2028
aa(lp2029
((lVhttp://dbpedia.org/resource/Null
tp2030
aa(lp2031
((lVhttp://dbpedia.org/resource/Null
tp2032
aaa(lp2033
(lp2034
a(lp2035
((lVhttp://dbpedia.org/resource/Null
tp2036
aa(lp2037
((lVhttp://dbpedia.org/resource/Null
tp2038
aa(lp2039
((lVhttp://dbpedia.org/resource/Null
tp2040
aa(lp2041
((lVhttp://dbpedia.org/resource/Null
tp2042
aa(lp2043
((lVhttp://dbpedia.org/resource/Null
tp2044
aa(lp2045
((lVhttp://dbpedia.org/resource/Null
tp2046
aa(lp2047
((lVhttp://dbpedia.org/resource/Null
tp2048
aa(lp2049
a(lp2050
((lVhttp://dbpedia.org/resource/Null
tp2051
aa(lp2052
((lVhttp://dbpedia.org/resource/Null
tp2053
aa(lp2054
((lVhttp://dbpedia.org/resource/Null
tp2055
aa(lp2056
((lVhttp://dbpedia.org/resource/Null
tp2057
aaa(lp2058
(lp2059
a(lp2060
a(lp2061
a(lp2062
a(lp2063
a(lp2064
a(lp2065
a(lp2066
a(lp2067
a(lp2068
a(lp2069
a(lp2070
a(lp2071
aa(lp2072
(lp2073
a(lp2074
a(lp2075
a(lp2076
a(lp2077
a(lp2078
a(lp2079
a(lp2080
a(lp2081
a(lp2082
a(lp2083
a(lp2084
a(lp2085
aa(lp2086
(lp2087
a(lp2088
((lVhttp://dbpedia.org/resource/Null
tp2089
aa(lp2090
((lVhttp://dbpedia.org/resource/Null
tp2091
aa(lp2092
((lVhttp://dbpedia.org/resource/Null
tp2093
aa(lp2094
a(lp2095
((lVhttp://dbpedia.org/resource/Null
tp2096
aa(lp2097
((lVhttp://dbpedia.org/resource/Null
tp2098
aa(lp2099
((lVhttp://dbpedia.org/resource/Null
tp2100
aa(lp2101
((lVhttp://dbpedia.org/resource/Null
tp2102
aa(lp2103
((lVhttp://dbpedia.org/resource/Null
tp2104
aa(lp2105
((lVhttp://dbpedia.org/resource/Null
tp2106
aa(lp2107
((lVhttp://dbpedia.org/resource/Null
tp2108
aa(lp2109
((lVhttp://dbpedia.org/resource/Null
tp2110
aaa(lp2111
(lp2112
a(lp2113
a(lp2114
a(lp2115
((lVhttp://dbpedia.org/resource/Null
tp2116
aa(lp2117
a(lp2118
a(lp2119
a(lp2120
a(lp2121
a(lp2122
a(lp2123
a(lp2124
a(lp2125
aa(lp2126
(lp2127
a(lp2128
a(lp2129
a(lp2130
((lVhttp://dbpedia.org/resource/Null
tp2131
aa(lp2132
a(lp2133
a(lp2134
a(lp2135
a(lp2136
a(lp2137
a(lp2138
a(lp2139
a(lp2140
aa(lp2141
(lp2142
a(lp2143
a(lp2144
a(lp2145
a(lp2146
a(lp2147
a(lp2148
a(lp2149
a(lp2150
a(lp2151
a(lp2152
a(lp2153
a(lp2154
aa(lp2155
(lp2156
a(lp2157
a(lp2158
a(lp2159
a(lp2160
a(lp2161
a(lp2162
a(lp2163
a(lp2164
a(lp2165
a(lp2166
a(lp2167
a(lp2168
aa(lp2169
(lp2170
a(lp2171
((lVhttp://dbpedia.org/resource/Null
tp2172
aa(lp2173
((lVhttp://dbpedia.org/resource/Null
tp2174
aa(lp2175
((lVhttp://dbpedia.org/resource/Null
tp2176
aa(lp2177
((lVhttp://dbpedia.org/resource/Null
tp2178
aa(lp2179
((lVhttp://dbpedia.org/resource/Null
tp2180
aa(lp2181
((lVhttp://dbpedia.org/resource/Null
tp2182
aa(lp2183
((lVhttp://dbpedia.org/resource/Null
tp2184
aa(lp2185
((lVhttp://dbpedia.org/resource/Null
tp2186
aa(lp2187
((lVhttp://dbpedia.org/resource/Null
tp2188
aa(lp2189
((lVhttp://dbpedia.org/resource/Null
tp2190
aa(lp2191
a(lp2192
((lVhttp://dbpedia.org/resource/Null
tp2193
aaa(lp2194
(lp2195
a(lp2196
((lVhttp://dbpedia.org/resource/Null
tp2197
aa(lp2198
a(lp2199
a(lp2200
a(lp2201
a(lp2202
a(lp2203
a(lp2204
a(lp2205
a(lp2206
a(lp2207
a(lp2208
aa(lp2209
(lp2210
a(lp2211
a(lp2212
a(lp2213
a(lp2214
((lVhttp://dbpedia.org/resource/Null
tp2215
aa(lp2216
((lVhttp://dbpedia.org/resource/Null
tp2217
aa(lp2218
a(lp2219
((lVhttp://dbpedia.org/resource/Null
tp2220
aa(lp2221
a(lp2222
a(lp2223
a(lp2224
((lVhttp://dbpedia.org/resource/Null
tp2225
aa(lp2226
((lVhttp://dbpedia.org/resource/Null
tp2227
aaa(lp2228
(lp2229
a(lp2230
((lVhttp://dbpedia.org/resource/Null
tp2231
aa(lp2232
a(lp2233
a(lp2234
((lVhttp://dbpedia.org/resource/Null
tp2235
aa(lp2236
a(lp2237
a(lp2238
a(lp2239
a(lp2240
a(lp2241
a(lp2242
a(lp2243
aa(lp2244
(lp2245
a(lp2246
a(lp2247
a(lp2248
a(lp2249
a(lp2250
((lVhttp://dbpedia.org/resource/Null
tp2251
aa(lp2252
a(lp2253
a(lp2254
a(lp2255
a(lp2256
((lVhttp://dbpedia.org/resource/Null
tp2257
aa(lp2258
a(lp2259
aa(lp2260
(lp2261
a(lp2262
((lVhttp://dbpedia.org/resource/Null
tp2263
aa(lp2264
((lVhttp://dbpedia.org/resource/Null
tp2265
aa(lp2266
((lVhttp://dbpedia.org/resource/Null
tp2267
aa(lp2268
((lVhttp://dbpedia.org/resource/Null
tp2269
aa(lp2270
((lVhttp://dbpedia.org/resource/Null
tp2271
aa(lp2272
((lVhttp://dbpedia.org/resource/Null
tp2273
aa(lp2274
((lVhttp://dbpedia.org/resource/Null
tp2275
aa(lp2276
((lVhttp://dbpedia.org/resource/Null
tp2277
aa(lp2278
a(lp2279
((lVhttp://dbpedia.org/resource/Null
tp2280
aa(lp2281
((lVhttp://dbpedia.org/resource/Null
tp2282
aa(lp2283
((lVhttp://dbpedia.org/resource/Null
tp2284
aaa(lp2285
(lp2286
a(lp2287
a(lp2288
a(lp2289
a(lp2290
a(lp2291
a(lp2292
a(lp2293
a(lp2294
a(lp2295
a(lp2296
a(lp2297
a(lp2298
aa(lp2299
(lp2300
a(lp2301
a(lp2302
a(lp2303
a(lp2304
a(lp2305
a(lp2306
a(lp2307
a(lp2308
a(lp2309
a(lp2310
a(lp2311
a(lp2312
aa(lp2313
(lp2314
a(lp2315
a(lp2316
a(lp2317
a(lp2318
a(lp2319
a(lp2320
a(lp2321
a(lp2322
a(lp2323
a(lp2324
a(lp2325
a(lp2326
aa(lp2327
(lp2328
a(lp2329
((lVhttp://dbpedia.org/resource/Null
tp2330
aa(lp2331
((lVhttp://dbpedia.org/resource/Null
tp2332
aa(lp2333
((lVhttp://dbpedia.org/resource/Null
tp2334
aa(lp2335
((lVhttp://dbpedia.org/resource/Null
tp2336
aa(lp2337
((lVhttp://dbpedia.org/resource/Null
tp2338
aa(lp2339
((lVhttp://dbpedia.org/resource/Null
tp2340
aa(lp2341
a(lp2342
((lVhttp://dbpedia.org/resource/Null
tp2343
aa(lp2344
((lVhttp://dbpedia.org/resource/Null
tp2345
aa(lp2346
((lVhttp://dbpedia.org/resource/Null
tp2347
aa(lp2348
((lVhttp://dbpedia.org/resource/Null
tp2349
aa(lp2350
((lVhttp://dbpedia.org/resource/Null
tp2351
aaa(lp2352
(lp2353
a(lp2354
a(lp2355
a(lp2356
a(lp2357
a(lp2358
a(lp2359
a(lp2360
a(lp2361
a(lp2362
a(lp2363
a(lp2364
a(lp2365
aa(lp2366
(lp2367
a(lp2368
a(lp2369
a(lp2370
a(lp2371
a(lp2372
a(lp2373
a(lp2374
a(lp2375
a(lp2376
a(lp2377
a(lp2378
a(lp2379
aa(lp2380
(lp2381
a(lp2382
a(lp2383
a(lp2384
a(lp2385
a(lp2386
a(lp2387
a(lp2388
a(lp2389
a(lp2390
a(lp2391
a(lp2392
a(lp2393
aa(lp2394
(lp2395
a(lp2396
a(lp2397
a(lp2398
a(lp2399
a(lp2400
a(lp2401
a(lp2402
a(lp2403
a(lp2404
a(lp2405
a(lp2406
a(lp2407
aa(lp2408
(lp2409
a(lp2410
a(lp2411
a(lp2412
a(lp2413
a(lp2414
a(lp2415
a(lp2416
a(lp2417
a(lp2418
a(lp2419
a(lp2420
a(lp2421
aa(lp2422
(lp2423
a(lp2424
a(lp2425
a(lp2426
a(lp2427
a(lp2428
a(lp2429
a(lp2430
a(lp2431
a(lp2432
((lVhttp://dbpedia.org/resource/Null
tp2433
aa(lp2434
a(lp2435
((lVhttp://dbpedia.org/resource/Null
tp2436
aa(lp2437
aa(lp2438
(lp2439
a(lp2440
a(lp2441
((lVhttp://dbpedia.org/resource/Null
tp2442
aa(lp2443
a(lp2444
((lVhttp://dbpedia.org/resource/Null
tp2445
aa(lp2446
a(lp2447
a(lp2448
a(lp2449
a(lp2450
a(lp2451
a(lp2452
a(lp2453
((lVhttp://dbpedia.org/resource/Null
tp2454
aaa(lp2455
(lp2456
a(lp2457
a(lp2458
a(lp2459
a(lp2460
a(lp2461
a(lp2462
a(lp2463
a(lp2464
a(lp2465
a(lp2466
a(lp2467
a(lp2468
aa(lp2469
(lp2470
a(lp2471
a(lp2472
a(lp2473
a(lp2474
a(lp2475
a(lp2476
a(lp2477
((lVhttp://dbpedia.org/resource/Null
tp2478
aa(lp2479
a(lp2480
a(lp2481
a(lp2482
a(lp2483
aa(lp2484
(lp2485
a(lp2486
((lVhttp://dbpedia.org/resource/Null
tp2487
aa(lp2488
((lVhttp://dbpedia.org/resource/Null
tp2489
aa(lp2490
a(lp2491
((lVhttp://dbpedia.org/resource/Null
tp2492
aa(lp2493
a(lp2494
((lVhttp://dbpedia.org/resource/Null
tp2495
aa(lp2496
((lVhttp://dbpedia.org/resource/Null
tp2497
aa(lp2498
((lVhttp://dbpedia.org/resource/Null
tp2499
aa(lp2500
a(lp2501
a(lp2502
((lVhttp://dbpedia.org/resource/Null
tp2503
aa(lp2504
((lVhttp://dbpedia.org/resource/Null
tp2505
aaa(lp2506
(lp2507
a(lp2508
a(lp2509
a(lp2510
a(lp2511
a(lp2512
a(lp2513
a(lp2514
a(lp2515
a(lp2516
a(lp2517
a(lp2518
a(lp2519
aa(lp2520
(lp2521
a(lp2522
a(lp2523
a(lp2524
a(lp2525
a(lp2526
a(lp2527
a(lp2528
a(lp2529
a(lp2530
a(lp2531
a(lp2532
a(lp2533
aa(lp2534
(lp2535
a(lp2536
a(lp2537
a(lp2538
a(lp2539
a(lp2540
a(lp2541
a(lp2542
a(lp2543
a(lp2544
a(lp2545
a(lp2546
a(lp2547
aa(lp2548
(lp2549
a(lp2550
((lVhttp://dbpedia.org/resource/Null
tp2551
aa(lp2552
((lVhttp://dbpedia.org/resource/Null
tp2553
aa(lp2554
((lVhttp://dbpedia.org/resource/Null
tp2555
aa(lp2556
((lVhttp://dbpedia.org/resource/Null
tp2557
aa(lp2558
((lVhttp://dbpedia.org/resource/Null
tp2559
aa(lp2560
((lVhttp://dbpedia.org/resource/Null
tp2561
aa(lp2562
((lVhttp://dbpedia.org/resource/Null
tp2563
aa(lp2564
((lVhttp://dbpedia.org/resource/Null
tp2565
aa(lp2566
a(lp2567
((lVhttp://dbpedia.org/resource/Null
tp2568
aa(lp2569
((lVhttp://dbpedia.org/resource/Null
tp2570
aa(lp2571
((lVhttp://dbpedia.org/resource/Null
tp2572
aaa(lp2573
(lp2574
a(lp2575
a(lp2576
a(lp2577
a(lp2578
a(lp2579
a(lp2580
a(lp2581
a(lp2582
a(lp2583
a(lp2584
a(lp2585
a(lp2586
aa(lp2587
(lp2588
a(lp2589
((lVhttp://dbpedia.org/resource/Null
tp2590
aa(lp2591
((lVhttp://dbpedia.org/resource/Null
tp2592
aa(lp2593
((lVhttp://dbpedia.org/resource/Null
tp2594
aa(lp2595
a(lp2596
((lVhttp://dbpedia.org/resource/Null
tp2597
aa(lp2598
((lVhttp://dbpedia.org/resource/Null
tp2599
aa(lp2600
((lVhttp://dbpedia.org/resource/Null
tp2601
aa(lp2602
((lVhttp://dbpedia.org/resource/Null
tp2603
aa(lp2604
((lVhttp://dbpedia.org/resource/Null
tp2605
aa(lp2606
((lVhttp://dbpedia.org/resource/Null
tp2607
aa(lp2608
((lVhttp://dbpedia.org/resource/Null
tp2609
aa(lp2610
((lVhttp://dbpedia.org/resource/Null
tp2611
aaa(lp2612
(lp2613
a(lp2614
a(lp2615
a(lp2616
a(lp2617
a(lp2618
a(lp2619
a(lp2620
a(lp2621
a(lp2622
a(lp2623
a(lp2624
a(lp2625
aa(lp2626
(lp2627
a(lp2628
((lVhttp://dbpedia.org/resource/Null
tp2629
aa(lp2630
((lVhttp://dbpedia.org/resource/Null
tp2631
aa(lp2632
a(lp2633
((lVhttp://dbpedia.org/resource/Null
tp2634
aa(lp2635
((lVhttp://dbpedia.org/resource/Null
tp2636
aa(lp2637
((lVhttp://dbpedia.org/resource/Null
tp2638
aa(lp2639
((lVhttp://dbpedia.org/resource/Null
tp2640
aa(lp2641
((lVhttp://dbpedia.org/resource/Null
tp2642
aa(lp2643
((lVhttp://dbpedia.org/resource/Null
tp2644
aa(lp2645
((lVhttp://dbpedia.org/resource/Null
tp2646
aa(lp2647
((lVhttp://dbpedia.org/resource/Null
tp2648
aa(lp2649
((lVhttp://dbpedia.org/resource/Null
tp2650
aaa(lp2651
(lp2652
a(lp2653
a(lp2654
a(lp2655
a(lp2656
a(lp2657
a(lp2658
a(lp2659
a(lp2660
a(lp2661
a(lp2662
a(lp2663
a(lp2664
aa(lp2665
(lp2666
a(lp2667
((lVhttp://dbpedia.org/resource/Null
tp2668
aa(lp2669
((lVhttp://dbpedia.org/resource/Null
tp2670
aa(lp2671
((lVhttp://dbpedia.org/resource/Null
tp2672
aa(lp2673
((lVhttp://dbpedia.org/resource/Null
tp2674
aa(lp2675
((lVhttp://dbpedia.org/resource/Null
tp2676
aa(lp2677
((lVhttp://dbpedia.org/resource/Null
tp2678
aa(lp2679
((lVhttp://dbpedia.org/resource/Null
tp2680
aa(lp2681
((lVhttp://dbpedia.org/resource/Null
tp2682
aa(lp2683
a(lp2684
((lVhttp://dbpedia.org/resource/Null
tp2685
aa(lp2686
((lVhttp://dbpedia.org/resource/Null
tp2687
aa(lp2688
((lVhttp://dbpedia.org/resource/Null
tp2689
aaa(lp2690
(lp2691
a(lp2692
a(lp2693
a(lp2694
a(lp2695
a(lp2696
a(lp2697
a(lp2698
((lVhttp://dbpedia.org/resource/Null
tp2699
aa(lp2700
a(lp2701
a(lp2702
a(lp2703
a(lp2704
((lVhttp://dbpedia.org/resource/Null
tp2705
aaa(lp2706
(lp2707
a(lp2708
((lVhttp://dbpedia.org/resource/Null
tp2709
aa(lp2710
((lVhttp://dbpedia.org/resource/Null
tp2711
aa(lp2712
((lVhttp://dbpedia.org/resource/Null
tp2713
aa(lp2714
a(lp2715
a(lp2716
a(lp2717
a(lp2718
a(lp2719
((lVhttp://dbpedia.org/resource/Null
tp2720
aa(lp2721
((lVhttp://dbpedia.org/resource/Null
tp2722
aa(lp2723
a(lp2724
aa(lp2725
(lp2726
a(lp2727
a(lp2728
a(lp2729
a(lp2730
a(lp2731
a(lp2732
a(lp2733
a(lp2734
a(lp2735
a(lp2736
a(lp2737
((lVhttp://dbpedia.org/resource/Null
tp2738
aa(lp2739
aa(lp2740
(lp2741
a(lp2742
a(lp2743
a(lp2744
a(lp2745
a(lp2746
a(lp2747
a(lp2748
a(lp2749
a(lp2750
a(lp2751
a(lp2752
a(lp2753
aa(lp2754
(lp2755
a(lp2756
a(lp2757
a(lp2758
a(lp2759
a(lp2760
a(lp2761
a(lp2762
a(lp2763
a(lp2764
a(lp2765
a(lp2766
a(lp2767
aa(lp2768
(lp2769
a(lp2770
a(lp2771
a(lp2772
a(lp2773
a(lp2774
a(lp2775
a(lp2776
((lVhttp://dbpedia.org/resource/Null
tp2777
aa(lp2778
a(lp2779
a(lp2780
a(lp2781
a(lp2782
((lVhttp://dbpedia.org/resource/Null
tp2783
aaa(lp2784
(lp2785
a(lp2786
a(lp2787
a(lp2788
a(lp2789
a(lp2790
a(lp2791
a(lp2792
a(lp2793
a(lp2794
a(lp2795
a(lp2796
a(lp2797
aa(lp2798
(lp2799
a(lp2800
a(lp2801
a(lp2802
a(lp2803
a(lp2804
a(lp2805
a(lp2806
a(lp2807
a(lp2808
a(lp2809
a(lp2810
a(lp2811
aa(lp2812
(lp2813
a(lp2814
a(lp2815
a(lp2816
a(lp2817
a(lp2818
a(lp2819
a(lp2820
a(lp2821
a(lp2822
a(lp2823
a(lp2824
a(lp2825
aa(lp2826
(lp2827
a(lp2828
a(lp2829
a(lp2830
a(lp2831
a(lp2832
a(lp2833
a(lp2834
a(lp2835
a(lp2836
a(lp2837
a(lp2838
a(lp2839
aa(lp2840
(lp2841
a(lp2842
((lVhttp://dbpedia.org/resource/Null
tp2843
aa(lp2844
((lVhttp://dbpedia.org/resource/Null
tp2845
aa(lp2846
((lVhttp://dbpedia.org/resource/Null
tp2847
aa(lp2848
((lVhttp://dbpedia.org/resource/Null
tp2849
aa(lp2850
((lVhttp://dbpedia.org/resource/Null
tp2851
aa(lp2852
((lVhttp://dbpedia.org/resource/Null
tp2853
aa(lp2854
((lVhttp://dbpedia.org/resource/Null
tp2855
aa(lp2856
((lVhttp://dbpedia.org/resource/Null
tp2857
aa(lp2858
((lVhttp://dbpedia.org/resource/Null
tp2859
aa(lp2860
a(lp2861
a(lp2862
aa(lp2863
(lp2864
a(lp2865
a(lp2866
a(lp2867
a(lp2868
a(lp2869
a(lp2870
a(lp2871
((lVhttp://dbpedia.org/resource/Null
tp2872
aa(lp2873
((lVhttp://dbpedia.org/resource/Null
tp2874
aa(lp2875
a(lp2876
a(lp2877
((lVhttp://dbpedia.org/resource/Null
tp2878
aa(lp2879
((lVhttp://dbpedia.org/resource/Null
tp2880
aaa(lp2881
(lp2882
a(lp2883
a(lp2884
((lVhttp://dbpedia.org/resource/Null
tp2885
aa(lp2886
((lVhttp://dbpedia.org/resource/Null
tp2887
aa(lp2888
((lVhttp://dbpedia.org/resource/Null
tp2889
aa(lp2890
((lVhttp://dbpedia.org/resource/Null
tp2891
aa(lp2892
((lVhttp://dbpedia.org/resource/Null
tp2893
aa(lp2894
((lVhttp://dbpedia.org/resource/Null
tp2895
aa(lp2896
((lVhttp://dbpedia.org/resource/Null
tp2897
aa(lp2898
((lVhttp://dbpedia.org/resource/Null
tp2899
aa(lp2900
((lVhttp://dbpedia.org/resource/Null
tp2901
aa(lp2902
((lVhttp://dbpedia.org/resource/Null
tp2903
aa(lp2904
aa(lp2905
(lp2906
a(lp2907
a(lp2908
a(lp2909
a(lp2910
a(lp2911
a(lp2912
a(lp2913
a(lp2914
a(lp2915
a(lp2916
a(lp2917
a(lp2918
aa(lp2919
(lp2920
a(lp2921
a(lp2922
a(lp2923
a(lp2924
a(lp2925
a(lp2926
a(lp2927
a(lp2928
a(lp2929
a(lp2930
a(lp2931
a(lp2932
aa(lp2933
(lp2934
a(lp2935
a(lp2936
a(lp2937
a(lp2938
a(lp2939
a(lp2940
a(lp2941
a(lp2942
a(lp2943
a(lp2944
a(lp2945
a(lp2946
aa(lp2947
(lp2948
a(lp2949
a(lp2950
((lVhttp://dbpedia.org/resource/Null
tp2951
aa(lp2952
((lVhttp://dbpedia.org/resource/Null
tp2953
aa(lp2954
((lVhttp://dbpedia.org/resource/Null
tp2955
aa(lp2956
((lVhttp://dbpedia.org/resource/Null
tp2957
aa(lp2958
a(lp2959
((lVhttp://dbpedia.org/resource/Null
tp2960
aa(lp2961
a(lp2962
a(lp2963
((lVhttp://dbpedia.org/resource/Null
tp2964
aa(lp2965
((lVhttp://dbpedia.org/resource/Null
tp2966
aa(lp2967
aa(lp2968
(lp2969
a(lp2970
a(lp2971
a(lp2972
a(lp2973
a(lp2974
a(lp2975
a(lp2976
a(lp2977
a(lp2978
a(lp2979
a(lp2980
a(lp2981
aa(lp2982
(lp2983
a(lp2984
a(lp2985
a(lp2986
a(lp2987
a(lp2988
a(lp2989
a(lp2990
a(lp2991
a(lp2992
a(lp2993
a(lp2994
a(lp2995
aa(lp2996
(lp2997
a(lp2998
a(lp2999
a(lp3000
a(lp3001
a(lp3002
a(lp3003
a(lp3004
a(lp3005
a(lp3006
a(lp3007
a(lp3008
a(lp3009
aa(lp3010
(lp3011
a(lp3012
a(lp3013
a(lp3014
a(lp3015
a(lp3016
a(lp3017
a(lp3018
a(lp3019
a(lp3020
a(lp3021
a(lp3022
a(lp3023
aa(lp3024
(lp3025
a(lp3026
a(lp3027
a(lp3028
a(lp3029
a(lp3030
a(lp3031
a(lp3032
a(lp3033
a(lp3034
a(lp3035
a(lp3036
a(lp3037
aa(lp3038
(lp3039
a(lp3040
a(lp3041
a(lp3042
a(lp3043
a(lp3044
a(lp3045
a(lp3046
a(lp3047
a(lp3048
a(lp3049
a(lp3050
a(lp3051
aa(lp3052
(lp3053
a(lp3054
a(lp3055
a(lp3056
a(lp3057
a(lp3058
a(lp3059
a(lp3060
a(lp3061
a(lp3062
a(lp3063
a(lp3064
a(lp3065
aa(lp3066
(lp3067
a(lp3068
a(lp3069
a(lp3070
a(lp3071
a(lp3072
a(lp3073
a(lp3074
a(lp3075
a(lp3076
a(lp3077
a(lp3078
a(lp3079
aa(lp3080
(lp3081
a(lp3082
a(lp3083
a(lp3084
a(lp3085
a(lp3086
a(lp3087
a(lp3088
a(lp3089
a(lp3090
a(lp3091
a(lp3092
a(lp3093
aa(lp3094
(lp3095
a(lp3096
((lVhttp://dbpedia.org/resource/Null
tp3097
aa(lp3098
((lVhttp://dbpedia.org/resource/Null
tp3099
aa(lp3100
((lVhttp://dbpedia.org/resource/Null
tp3101
aa(lp3102
((lVhttp://dbpedia.org/resource/Null
tp3103
aa(lp3104
((lVhttp://dbpedia.org/resource/Null
tp3105
aa(lp3106
a(lp3107
((lVhttp://dbpedia.org/resource/Null
tp3108
aa(lp3109
a(lp3110
((lVhttp://dbpedia.org/resource/Null
tp3111
aa(lp3112
((lVhttp://dbpedia.org/resource/Null
tp3113
aa(lp3114
((lVhttp://dbpedia.org/resource/Null
tp3115
aa(lp3116
((lVhttp://dbpedia.org/resource/Null
tp3117
aaa(lp3118
(lp3119
a(lp3120
a(lp3121
a(lp3122
a(lp3123
a(lp3124
a(lp3125
a(lp3126
a(lp3127
a(lp3128
a(lp3129
a(lp3130
a(lp3131
aa(lp3132
(lp3133
a(lp3134
a(lp3135
a(lp3136
a(lp3137
a(lp3138
a(lp3139
a(lp3140
a(lp3141
a(lp3142
a(lp3143
a(lp3144
a(lp3145
aa(lp3146
(lp3147
a(lp3148
a(lp3149
a(lp3150
a(lp3151
a(lp3152
a(lp3153
a(lp3154
a(lp3155
a(lp3156
a(lp3157
a(lp3158
a(lp3159
aa(lp3160
(lp3161
a(lp3162
a(lp3163
a(lp3164
a(lp3165
a(lp3166
a(lp3167
a(lp3168
a(lp3169
a(lp3170
a(lp3171
a(lp3172
a(lp3173
aa(lp3174
(lp3175
a(lp3176
a(lp3177
a(lp3178
a(lp3179
a(lp3180
a(lp3181
a(lp3182
a(lp3183
a(lp3184
a(lp3185
a(lp3186
a(lp3187
aa(lp3188
(lp3189
a(lp3190
((lVhttp://dbpedia.org/resource/Null
tp3191
aa(lp3192
((lVhttp://dbpedia.org/resource/Null
tp3193
aa(lp3194
a(lp3195
((lVhttp://dbpedia.org/resource/Null
tp3196
aa(lp3197
((lVhttp://dbpedia.org/resource/Null
tp3198
aa(lp3199
((lVhttp://dbpedia.org/resource/Null
tp3200
aa(lp3201
((lVhttp://dbpedia.org/resource/Null
tp3202
aa(lp3203
((lVhttp://dbpedia.org/resource/Null
tp3204
aa(lp3205
((lVhttp://dbpedia.org/resource/Null
tp3206
aa(lp3207
((lVhttp://dbpedia.org/resource/Null
tp3208
aa(lp3209
((lVhttp://dbpedia.org/resource/Null
tp3210
aa(lp3211
((lVhttp://dbpedia.org/resource/Null
tp3212
aaa(lp3213
(lp3214
a(lp3215
a(lp3216
a(lp3217
a(lp3218
a(lp3219
a(lp3220
a(lp3221
a(lp3222
a(lp3223
a(lp3224
a(lp3225
a(lp3226
aa(lp3227
(lp3228
a(lp3229
((lVhttp://dbpedia.org/resource/Null
tp3230
aa(lp3231
((lVhttp://dbpedia.org/resource/Null
tp3232
aa(lp3233
((lVhttp://dbpedia.org/resource/Null
tp3234
aa(lp3235
((lVhttp://dbpedia.org/resource/Null
tp3236
aa(lp3237
((lVhttp://dbpedia.org/resource/Null
tp3238
aa(lp3239
((lVhttp://dbpedia.org/resource/Null
tp3240
aa(lp3241
((lVhttp://dbpedia.org/resource/Null
tp3242
aa(lp3243
((lVhttp://dbpedia.org/resource/Null
tp3244
aa(lp3245
((lVhttp://dbpedia.org/resource/Null
tp3246
aa(lp3247
a(lp3248
a(lp3249
((lVhttp://dbpedia.org/resource/Null
tp3250
aaa(lp3251
(lp3252
a(lp3253
a(lp3254
a(lp3255
a(lp3256
a(lp3257
a(lp3258
a(lp3259
a(lp3260
a(lp3261
a(lp3262
a(lp3263
a(lp3264
aa(lp3265
(lp3266
a(lp3267
a(lp3268
a(lp3269
a(lp3270
a(lp3271
a(lp3272
a(lp3273
a(lp3274
a(lp3275
a(lp3276
a(lp3277
a(lp3278
aa(lp3279
(lp3280
a(lp3281
a(lp3282
a(lp3283
a(lp3284
a(lp3285
a(lp3286
a(lp3287
a(lp3288
a(lp3289
a(lp3290
a(lp3291
a(lp3292
aa(lp3293
(lp3294
a(lp3295
a(lp3296
a(lp3297
a(lp3298
a(lp3299
a(lp3300
a(lp3301
a(lp3302
a(lp3303
a(lp3304
a(lp3305
a(lp3306
aa(lp3307
(lp3308
a(lp3309
a(lp3310
a(lp3311
a(lp3312
a(lp3313
a(lp3314
a(lp3315
a(lp3316
a(lp3317
a(lp3318
a(lp3319
a(lp3320
aa(lp3321
(lp3322
a(lp3323
a(lp3324
a(lp3325
a(lp3326
a(lp3327
a(lp3328
a(lp3329
a(lp3330
a(lp3331
a(lp3332
a(lp3333
a(lp3334
aa(lp3335
(lp3336
a(lp3337
a(lp3338
a(lp3339
a(lp3340
a(lp3341
a(lp3342
a(lp3343
a(lp3344
a(lp3345
a(lp3346
a(lp3347
a(lp3348
aa(lp3349
(lp3350
a(lp3351
a(lp3352
a(lp3353
a(lp3354
a(lp3355
a(lp3356
a(lp3357
a(lp3358
a(lp3359
a(lp3360
a(lp3361
a(lp3362
aa(lp3363
(lp3364
a(lp3365
a(lp3366
a(lp3367
a(lp3368
a(lp3369
a(lp3370
a(lp3371
((lVhttp://dbpedia.org/resource/Null
tp3372
aa(lp3373
a(lp3374
a(lp3375
a(lp3376
a(lp3377
aa(lp3378
(lp3379
a(lp3380
a(lp3381
a(lp3382
a(lp3383
a(lp3384
a(lp3385
a(lp3386
a(lp3387
a(lp3388
a(lp3389
a(lp3390
a(lp3391
aa(lp3392
(lp3393
a(lp3394
a(lp3395
a(lp3396
a(lp3397
a(lp3398
a(lp3399
a(lp3400
a(lp3401
a(lp3402
a(lp3403
a(lp3404
a(lp3405
aa(lp3406
(lp3407
a(lp3408
a(lp3409
((lVhttp://dbpedia.org/resource/Null
tp3410
aa(lp3411
a(lp3412
((lVhttp://dbpedia.org/resource/Null
tp3413
aa(lp3414
((lVhttp://dbpedia.org/resource/Null
tp3415
aa(lp3416
((lVhttp://dbpedia.org/resource/Null
tp3417
aa(lp3418
a(lp3419
a(lp3420
((lVhttp://dbpedia.org/resource/Null
tp3421
aa(lp3422
((lVhttp://dbpedia.org/resource/Null
tp3423
aa(lp3424
((lVhttp://dbpedia.org/resource/Null
tp3425
aa(lp3426
((lVhttp://dbpedia.org/resource/Null
tp3427
aaa(lp3428
(lp3429
a(lp3430
((lVhttp://dbpedia.org/resource/Null
tp3431
aa(lp3432
((lVhttp://dbpedia.org/resource/Null
tp3433
aa(lp3434
((lVhttp://dbpedia.org/resource/Null
tp3435
aa(lp3436
a(lp3437
((lVhttp://dbpedia.org/resource/Null
tp3438
aa(lp3439
((lVhttp://dbpedia.org/resource/Null
tp3440
aa(lp3441
((lVhttp://dbpedia.org/resource/Null
tp3442
aa(lp3443
((lVhttp://dbpedia.org/resource/Null
tp3444
aa(lp3445
((lVhttp://dbpedia.org/resource/Null
tp3446
aa(lp3447
((lVhttp://dbpedia.org/resource/Null
tp3448
aa(lp3449
((lVhttp://dbpedia.org/resource/Null
tp3450
aa(lp3451
((lVhttp://dbpedia.org/resource/Null
tp3452
aaa(lp3453
(lp3454
a(lp3455
a(lp3456
a(lp3457
a(lp3458
a(lp3459
a(lp3460
a(lp3461
a(lp3462
a(lp3463
a(lp3464
a(lp3465
a(lp3466
aa(lp3467
(lp3468
a(lp3469
a(lp3470
a(lp3471
a(lp3472
a(lp3473
a(lp3474
a(lp3475
a(lp3476
a(lp3477
a(lp3478
a(lp3479
a(lp3480
aa(lp3481
(lp3482
a(lp3483
a(lp3484
a(lp3485
a(lp3486
a(lp3487
a(lp3488
a(lp3489
a(lp3490
a(lp3491
a(lp3492
a(lp3493
a(lp3494
aa(lp3495
(lp3496
a(lp3497
a(lp3498
a(lp3499
a(lp3500
a(lp3501
a(lp3502
a(lp3503
a(lp3504
a(lp3505
a(lp3506
a(lp3507
a(lp3508
aa(lp3509
(lp3510
a(lp3511
a(lp3512
a(lp3513
a(lp3514
a(lp3515
a(lp3516
a(lp3517
a(lp3518
a(lp3519
a(lp3520
a(lp3521
a(lp3522
aa(lp3523
(lp3524
a(lp3525
a(lp3526
a(lp3527
a(lp3528
a(lp3529
a(lp3530
a(lp3531
a(lp3532
a(lp3533
a(lp3534
a(lp3535
a(lp3536
aa(lp3537
(lp3538
a(lp3539
a(lp3540
a(lp3541
a(lp3542
a(lp3543
a(lp3544
a(lp3545
a(lp3546
a(lp3547
a(lp3548
a(lp3549
a(lp3550
aa(lp3551
(lp3552
a(lp3553
((lVhttp://dbpedia.org/resource/Null
tp3554
aa(lp3555
a(lp3556
((lVhttp://dbpedia.org/resource/Null
tp3557
aa(lp3558
((lVhttp://dbpedia.org/resource/Null
tp3559
aa(lp3560
((lVhttp://dbpedia.org/resource/Null
tp3561
aa(lp3562
((lVhttp://dbpedia.org/resource/Null
tp3563
aa(lp3564
a(lp3565
a(lp3566
a(lp3567
a(lp3568
a(lp3569
aa(lp3570
(lp3571
a(lp3572
a(lp3573
a(lp3574
a(lp3575
a(lp3576
a(lp3577
a(lp3578
a(lp3579
a(lp3580
a(lp3581
a(lp3582
a(lp3583
aa(lp3584
(lp3585
a(lp3586
a(lp3587
a(lp3588
a(lp3589
a(lp3590
a(lp3591
a(lp3592
a(lp3593
a(lp3594
a(lp3595
a(lp3596
a(lp3597
aa(lp3598
(lp3599
a(lp3600
a(lp3601
a(lp3602
a(lp3603
a(lp3604
a(lp3605
a(lp3606
a(lp3607
a(lp3608
a(lp3609
a(lp3610
a(lp3611
aa(lp3612
(lp3613
a(lp3614
a(lp3615
a(lp3616
a(lp3617
a(lp3618
a(lp3619
a(lp3620
a(lp3621
a(lp3622
a(lp3623
a(lp3624
a(lp3625
aa(lp3626
(lp3627
a(lp3628
((lVhttp://dbpedia.org/resource/Null
tp3629
aa(lp3630
((lVhttp://dbpedia.org/resource/Null
tp3631
aa(lp3632
((lVhttp://dbpedia.org/resource/Null
tp3633
aa(lp3634
((lVhttp://dbpedia.org/resource/Null
tp3635
aa(lp3636
((lVhttp://dbpedia.org/resource/Null
tp3637
aa(lp3638
((lVhttp://dbpedia.org/resource/Null
tp3639
aa(lp3640
a(lp3641
((lVhttp://dbpedia.org/resource/Null
tp3642
aa(lp3643
((lVhttp://dbpedia.org/resource/Null
tp3644
aa(lp3645
((lVhttp://dbpedia.org/resource/Null
tp3646
aa(lp3647
((lVhttp://dbpedia.org/resource/Null
tp3648
aa(lp3649
aa(lp3650
(lp3651
a(lp3652
a(lp3653
a(lp3654
a(lp3655
a(lp3656
a(lp3657
a(lp3658
a(lp3659
a(lp3660
a(lp3661
a(lp3662
a(lp3663
aa(lp3664
(lp3665
a(lp3666
a(lp3667
a(lp3668
a(lp3669
a(lp3670
a(lp3671
a(lp3672
a(lp3673
a(lp3674
a(lp3675
a(lp3676
a(lp3677
aa(lp3678
(lp3679
a(lp3680
a(lp3681
a(lp3682
a(lp3683
a(lp3684
a(lp3685
a(lp3686
a(lp3687
a(lp3688
a(lp3689
a(lp3690
a(lp3691
aa(lp3692
(lp3693
a(lp3694
a(lp3695
a(lp3696
a(lp3697
a(lp3698
a(lp3699
a(lp3700
a(lp3701
a(lp3702
a(lp3703
a(lp3704
a(lp3705
aa(lp3706
(lp3707
a(lp3708
a(lp3709
a(lp3710
a(lp3711
a(lp3712
a(lp3713
a(lp3714
a(lp3715
a(lp3716
a(lp3717
a(lp3718
a(lp3719
aa(lp3720
(lp3721
a(lp3722
((lVhttp://dbpedia.org/resource/Null
tp3723
aa(lp3724
((lVhttp://dbpedia.org/resource/Null
tp3725
aa(lp3726
((lVhttp://dbpedia.org/resource/Null
tp3727
aa(lp3728
((lVhttp://dbpedia.org/resource/Null
tp3729
aa(lp3730
((lVhttp://dbpedia.org/resource/Null
tp3731
aa(lp3732
((lVhttp://dbpedia.org/resource/Null
tp3733
aa(lp3734
((lVhttp://dbpedia.org/resource/Null
tp3735
aa(lp3736
((lVhttp://dbpedia.org/resource/Null
tp3737
aa(lp3738
((lVhttp://dbpedia.org/resource/Null
tp3739
aa(lp3740
((lVhttp://dbpedia.org/resource/Null
tp3741
aa(lp3742
a(lp3743
aa(lp3744
(lp3745
a(lp3746
a(lp3747
a(lp3748
a(lp3749
a(lp3750
a(lp3751
a(lp3752
a(lp3753
a(lp3754
a(lp3755
a(lp3756
a(lp3757
aa(lp3758
(lp3759
a(lp3760
a(lp3761
a(lp3762
a(lp3763
a(lp3764
a(lp3765
a(lp3766
a(lp3767
a(lp3768
a(lp3769
a(lp3770
a(lp3771
aa(lp3772
(lp3773
a(lp3774
((lVhttp://dbpedia.org/resource/Null
tp3775
aa(lp3776
((lVhttp://dbpedia.org/resource/Null
tp3777
aa(lp3778
((lVhttp://dbpedia.org/resource/Null
tp3779
aa(lp3780
a(lp3781
((lVhttp://dbpedia.org/resource/Null
tp3782
aa(lp3783
((lVhttp://dbpedia.org/resource/Null
tp3784
aa(lp3785
a(lp3786
((lVhttp://dbpedia.org/resource/Null
tp3787
aa(lp3788
a(lp3789
((lVhttp://dbpedia.org/resource/Null
tp3790
aa(lp3791
a(lp3792
((lVhttp://dbpedia.org/resource/Null
tp3793
aaa(lp3794
(lp3795
a(lp3796
a(lp3797
((lVhttp://dbpedia.org/resource/Null
tp3798
aa(lp3799
((lVhttp://dbpedia.org/resource/Null
tp3800
aa(lp3801
a(lp3802
a(lp3803
a(lp3804
a(lp3805
a(lp3806
((lVhttp://dbpedia.org/resource/Null
tp3807
aa(lp3808
((lVhttp://dbpedia.org/resource/Null
tp3809
aa(lp3810
((lVhttp://dbpedia.org/resource/Null
tp3811
aa(lp3812
aa(lp3813
(lp3814
a(lp3815
a(lp3816
a(lp3817
a(lp3818
a(lp3819
a(lp3820
a(lp3821
a(lp3822
a(lp3823
a(lp3824
a(lp3825
a(lp3826
aa(lp3827
(lp3828
a(lp3829
a(lp3830
a(lp3831
a(lp3832
a(lp3833
a(lp3834
a(lp3835
a(lp3836
a(lp3837
a(lp3838
a(lp3839
a(lp3840
aa(lp3841
(lp3842
a(lp3843
a(lp3844
((lVhttp://dbpedia.org/resource/Null
tp3845
aa(lp3846
((lVhttp://dbpedia.org/resource/Null
tp3847
aa(lp3848
((lVhttp://dbpedia.org/resource/Null
tp3849
aa(lp3850
((lVhttp://dbpedia.org/resource/Null
tp3851
aa(lp3852
((lVhttp://dbpedia.org/resource/Null
tp3853
aa(lp3854
a(lp3855
((lVhttp://dbpedia.org/resource/Null
tp3856
aa(lp3857
((lVhttp://dbpedia.org/resource/Null
tp3858
aa(lp3859
((lVhttp://dbpedia.org/resource/Null
tp3860
aa(lp3861
((lVhttp://dbpedia.org/resource/Null
tp3862
aa(lp3863
aa(lp3864
(lp3865
a(lp3866
((lVhttp://dbpedia.org/resource/Null
tp3867
aa(lp3868
((lVhttp://dbpedia.org/resource/Null
tp3869
aa(lp3870
((lVhttp://dbpedia.org/resource/Null
tp3871
aa(lp3872
a(lp3873
a(lp3874
((lVhttp://dbpedia.org/resource/Null
tp3875
aa(lp3876
((lVhttp://dbpedia.org/resource/Null
tp3877
aa(lp3878
((lVhttp://dbpedia.org/resource/Null
tp3879
aa(lp3880
a(lp3881
a(lp3882
((lVhttp://dbpedia.org/resource/Null
tp3883
aa(lp3884
aa(lp3885
(lp3886
a(lp3887
a(lp3888
a(lp3889
a(lp3890
a(lp3891
a(lp3892
((lVhttp://dbpedia.org/resource/Null
tp3893
aa(lp3894
((lVhttp://dbpedia.org/resource/Null
tp3895
aa(lp3896
a(lp3897
a(lp3898
((lVhttp://dbpedia.org/resource/Null
tp3899
aa(lp3900
a(lp3901
((lVhttp://dbpedia.org/resource/Null
tp3902
aaa(lp3903
(lp3904
a(lp3905
a(lp3906
a(lp3907
a(lp3908
a(lp3909
a(lp3910
a(lp3911
a(lp3912
a(lp3913
a(lp3914
a(lp3915
a(lp3916
aa(lp3917
(lp3918
a(lp3919
((lVhttp://dbpedia.org/resource/Null
tp3920
aa(lp3921
((lVhttp://dbpedia.org/resource/Null
tp3922
aa(lp3923
((lVhttp://dbpedia.org/resource/Null
tp3924
aa(lp3925
((lVhttp://dbpedia.org/resource/Null
tp3926
aa(lp3927
((lVhttp://dbpedia.org/resource/Null
tp3928
aa(lp3929
((lVhttp://dbpedia.org/resource/Null
tp3930
aa(lp3931
((lVhttp://dbpedia.org/resource/Null
tp3932
aa(lp3933
((lVhttp://dbpedia.org/resource/Null
tp3934
aa(lp3935
((lVhttp://dbpedia.org/resource/Null
tp3936
aa(lp3937
((lVhttp://dbpedia.org/resource/Null
tp3938
aa(lp3939
a(lp3940
((lVhttp://dbpedia.org/resource/Null
tp3941
aaa(lp3942
(lp3943
a(lp3944
a(lp3945
a(lp3946
a(lp3947
a(lp3948
a(lp3949
a(lp3950
a(lp3951
a(lp3952
a(lp3953
a(lp3954
a(lp3955
aa(lp3956
(lp3957
a(lp3958
((lVhttp://dbpedia.org/resource/Null
tp3959
aa(lp3960
((lVhttp://dbpedia.org/resource/Null
tp3961
aa(lp3962
a(lp3963
a(lp3964
a(lp3965
((lVhttp://dbpedia.org/resource/Null
tp3966
aa(lp3967
((lVhttp://dbpedia.org/resource/Null
tp3968
aa(lp3969
a(lp3970
((lVhttp://dbpedia.org/resource/Null
tp3971
aa(lp3972
a(lp3973
a(lp3974
aa(lp3975
(lp3976
a(lp3977
a(lp3978
a(lp3979
a(lp3980
a(lp3981
a(lp3982
a(lp3983
a(lp3984
a(lp3985
a(lp3986
a(lp3987
a(lp3988
aa(lp3989
(lp3990
a(lp3991
a(lp3992
a(lp3993
a(lp3994
a(lp3995
a(lp3996
a(lp3997
a(lp3998
a(lp3999
a(lp4000
a(lp4001
a(lp4002
aa(lp4003
(lp4004
a(lp4005
a(lp4006
((lVhttp://dbpedia.org/resource/Null
tp4007
aa(lp4008
a(lp4009
a(lp4010
a(lp4011
((lVhttp://dbpedia.org/resource/Null
tp4012
aa(lp4013
((lVhttp://dbpedia.org/resource/Null
tp4014
aa(lp4015
a(lp4016
((lVhttp://dbpedia.org/resource/Null
tp4017
aa(lp4018
a(lp4019
a(lp4020
((lVhttp://dbpedia.org/resource/Null
tp4021
aaa(lp4022
(lp4023
a(lp4024
a(lp4025
a(lp4026
a(lp4027
a(lp4028
a(lp4029
a(lp4030
a(lp4031
a(lp4032
a(lp4033
a(lp4034
a(lp4035
aa(lp4036
(lp4037
a(lp4038
a(lp4039
a(lp4040
a(lp4041
a(lp4042
a(lp4043
a(lp4044
a(lp4045
a(lp4046
a(lp4047
a(lp4048
a(lp4049
aa(lp4050
(lp4051
a(lp4052
a(lp4053
a(lp4054
a(lp4055
a(lp4056
a(lp4057
a(lp4058
a(lp4059
a(lp4060
a(lp4061
a(lp4062
a(lp4063
aa(lp4064
(lp4065
a(lp4066
a(lp4067
a(lp4068
a(lp4069
a(lp4070
a(lp4071
a(lp4072
a(lp4073
((lVhttp://dbpedia.org/resource/Null
tp4074
aa(lp4075
a(lp4076
a(lp4077
((lVhttp://dbpedia.org/resource/Null
tp4078
aa(lp4079
aa(lp4080
(lp4081
a(lp4082
a(lp4083
a(lp4084
a(lp4085
a(lp4086
a(lp4087
a(lp4088
a(lp4089
a(lp4090
a(lp4091
a(lp4092
a(lp4093
aa(lp4094
(lp4095
a(lp4096
a(lp4097
((lVhttp://dbpedia.org/resource/Null
tp4098
aa(lp4099
a(lp4100
a(lp4101
a(lp4102
((lVhttp://dbpedia.org/resource/Null
tp4103
aa(lp4104
a(lp4105
a(lp4106
((lVhttp://dbpedia.org/resource/Null
tp4107
aa(lp4108
((lVhttp://dbpedia.org/resource/Null
tp4109
aa(lp4110
((lVhttp://dbpedia.org/resource/Null
tp4111
aa(lp4112
aa(lp4113
(lp4114
a(lp4115
((lVhttp://dbpedia.org/resource/Null
tp4116
aa(lp4117
a(lp4118
((lVhttp://dbpedia.org/resource/Null
tp4119
aa(lp4120
((lVhttp://dbpedia.org/resource/Null
tp4121
aa(lp4122
((lVhttp://dbpedia.org/resource/Null
tp4123
aa(lp4124
((lVhttp://dbpedia.org/resource/Null
tp4125
aa(lp4126
a(lp4127
((lVhttp://dbpedia.org/resource/Null
tp4128
aa(lp4129
((lVhttp://dbpedia.org/resource/Null
tp4130
aa(lp4131
((lVhttp://dbpedia.org/resource/Null
tp4132
aa(lp4133
a(lp4134
aa(lp4135
(lp4136
a(lp4137
a(lp4138
a(lp4139
a(lp4140
a(lp4141
a(lp4142
a(lp4143
a(lp4144
a(lp4145
a(lp4146
a(lp4147
a(lp4148
aa(lp4149
(lp4150
a(lp4151
a(lp4152
a(lp4153
a(lp4154
((lVhttp://dbpedia.org/resource/Null
tp4155
aa(lp4156
a(lp4157
a(lp4158
a(lp4159
a(lp4160
((lVhttp://dbpedia.org/resource/Null
tp4161
aa(lp4162
((lVhttp://dbpedia.org/resource/Null
tp4163
aa(lp4164
((lVhttp://dbpedia.org/resource/Null
tp4165
aa(lp4166
((lVhttp://dbpedia.org/resource/Null
tp4167
aaa(lp4168
(lp4169
a(lp4170
((lVhttp://dbpedia.org/resource/Null
tp4171
aa(lp4172
((lVhttp://dbpedia.org/resource/Null
tp4173
aa(lp4174
((lVhttp://dbpedia.org/resource/Null
tp4175
aa(lp4176
a(lp4177
((lVhttp://dbpedia.org/resource/Null
tp4178
aa(lp4179
((lVhttp://dbpedia.org/resource/Null
tp4180
aa(lp4181
((lVhttp://dbpedia.org/resource/Null
tp4182
aa(lp4183
((lVhttp://dbpedia.org/resource/Null
tp4184
aa(lp4185
((lVhttp://dbpedia.org/resource/Null
tp4186
aa(lp4187
((lVhttp://dbpedia.org/resource/Null
tp4188
aa(lp4189
((lVhttp://dbpedia.org/resource/Null
tp4190
aa(lp4191
((lVhttp://dbpedia.org/resource/Null
tp4192
aaa(lp4193
(lp4194
a(lp4195
a(lp4196
a(lp4197
a(lp4198
a(lp4199
a(lp4200
a(lp4201
a(lp4202
a(lp4203
a(lp4204
a(lp4205
a(lp4206
aa(lp4207
(lp4208
a(lp4209
a(lp4210
a(lp4211
a(lp4212
a(lp4213
a(lp4214
a(lp4215
a(lp4216
a(lp4217
a(lp4218
a(lp4219
a(lp4220
aa(lp4221
(lp4222
a(lp4223
a(lp4224
a(lp4225
a(lp4226
a(lp4227
a(lp4228
a(lp4229
a(lp4230
a(lp4231
a(lp4232
a(lp4233
a(lp4234
aa(lp4235
(lp4236
a(lp4237
a(lp4238
a(lp4239
a(lp4240
a(lp4241
a(lp4242
a(lp4243
a(lp4244
a(lp4245
a(lp4246
a(lp4247
a(lp4248
aa(lp4249
(lp4250
a(lp4251
a(lp4252
a(lp4253
a(lp4254
a(lp4255
a(lp4256
a(lp4257
a(lp4258
a(lp4259
a(lp4260
a(lp4261
a(lp4262
aa(lp4263
(lp4264
a(lp4265
a(lp4266
a(lp4267
a(lp4268
a(lp4269
a(lp4270
a(lp4271
a(lp4272
a(lp4273
a(lp4274
a(lp4275
a(lp4276
aa(lp4277
(lp4278
a(lp4279
a(lp4280
((lVhttp://dbpedia.org/resource/Null
tp4281
aa(lp4282
((lVhttp://dbpedia.org/resource/Null
tp4283
aa(lp4284
((lVhttp://dbpedia.org/resource/Null
tp4285
aa(lp4286
((lVhttp://dbpedia.org/resource/Null
tp4287
aa(lp4288
((lVhttp://dbpedia.org/resource/Null
tp4289
aa(lp4290
((lVhttp://dbpedia.org/resource/Null
tp4291
aa(lp4292
((lVhttp://dbpedia.org/resource/Null
tp4293
aa(lp4294
((lVhttp://dbpedia.org/resource/Null
tp4295
aa(lp4296
((lVhttp://dbpedia.org/resource/Null
tp4297
aa(lp4298
((lVhttp://dbpedia.org/resource/Null
tp4299
aa(lp4300
((lVhttp://dbpedia.org/resource/Null
tp4301
aaa(lp4302
(lp4303
a(lp4304
a(lp4305
a(lp4306
a(lp4307
a(lp4308
a(lp4309
a(lp4310
a(lp4311
a(lp4312
a(lp4313
a(lp4314
a(lp4315
aa(lp4316
(lp4317
a(lp4318
a(lp4319
((lVhttp://dbpedia.org/resource/Null
tp4320
aa(lp4321
a(lp4322
((lVhttp://dbpedia.org/resource/Null
tp4323
aa(lp4324
((lVhttp://dbpedia.org/resource/Null
tp4325
aa(lp4326
((lVhttp://dbpedia.org/resource/Null
tp4327
aa(lp4328
((lVhttp://dbpedia.org/resource/Null
tp4329
aa(lp4330
((lVhttp://dbpedia.org/resource/Null
tp4331
aa(lp4332
((lVhttp://dbpedia.org/resource/Null
tp4333
aa(lp4334
((lVhttp://dbpedia.org/resource/Null
tp4335
aa(lp4336
((lVhttp://dbpedia.org/resource/Null
tp4337
aa(lp4338
((lVhttp://dbpedia.org/resource/Null
tp4339
aaa(lp4340
(lp4341
a(lp4342
a(lp4343
((lVhttp://dbpedia.org/resource/Null
tp4344
aa(lp4345
a(lp4346
a(lp4347
((lVhttp://dbpedia.org/resource/Null
tp4348
aa(lp4349
a(lp4350
((lVhttp://dbpedia.org/resource/Null
tp4351
aa(lp4352
((lVhttp://dbpedia.org/resource/Null
tp4353
aa(lp4354
((lVhttp://dbpedia.org/resource/Null
tp4355
aa(lp4356
((lVhttp://dbpedia.org/resource/Null
tp4357
aa(lp4358
a(lp4359
aa(lp4360
(lp4361
a(lp4362
((lVhttp://dbpedia.org/resource/Null
tp4363
aa(lp4364
((lVhttp://dbpedia.org/resource/Null
tp4365
aa(lp4366
((lVhttp://dbpedia.org/resource/Null
tp4367
aa(lp4368
a(lp4369
((lVhttp://dbpedia.org/resource/Null
tp4370
aa(lp4371
((lVhttp://dbpedia.org/resource/Null
tp4372
aa(lp4373
((lVhttp://dbpedia.org/resource/Null
tp4374
aa(lp4375
((lVhttp://dbpedia.org/resource/Null
tp4376
aa(lp4377
((lVhttp://dbpedia.org/resource/Null
tp4378
aa(lp4379
((lVhttp://dbpedia.org/resource/Null
tp4380
aa(lp4381
((lVhttp://dbpedia.org/resource/Null
tp4382
aa(lp4383
aa(lp4384
(lp4385
a(lp4386
a(lp4387
a(lp4388
a(lp4389
a(lp4390
a(lp4391
a(lp4392
a(lp4393
a(lp4394
a(lp4395
a(lp4396
a(lp4397
aa(lp4398
(lp4399
a(lp4400
((lVhttp://dbpedia.org/resource/Null
tp4401
aa(lp4402
((lVhttp://dbpedia.org/resource/Null
tp4403
aa(lp4404
((lVhttp://dbpedia.org/resource/Null
tp4405
aa(lp4406
((lVhttp://dbpedia.org/resource/Null
tp4407
aa(lp4408
((lVhttp://dbpedia.org/resource/Null
tp4409
aa(lp4410
((lVhttp://dbpedia.org/resource/Null
tp4411
aa(lp4412
((lVhttp://dbpedia.org/resource/Null
tp4413
aa(lp4414
((lVhttp://dbpedia.org/resource/Null
tp4415
aa(lp4416
((lVhttp://dbpedia.org/resource/Null
tp4417
aa(lp4418
((lVhttp://dbpedia.org/resource/Null
tp4419
aa(lp4420
a(lp4421
((lVhttp://dbpedia.org/resource/Null
tp4422
aaa(lp4423
(lp4424
a(lp4425
a(lp4426
a(lp4427
a(lp4428
a(lp4429
a(lp4430
a(lp4431
a(lp4432
a(lp4433
a(lp4434
a(lp4435
a(lp4436
aa(lp4437
(lp4438
a(lp4439
a(lp4440
a(lp4441
a(lp4442
a(lp4443
a(lp4444
a(lp4445
a(lp4446
a(lp4447
a(lp4448
a(lp4449
a(lp4450
aa(lp4451
(lp4452
a(lp4453
((lVhttp://dbpedia.org/resource/Null
tp4454
aa(lp4455
((lVhttp://dbpedia.org/resource/Null
tp4456
aa(lp4457
a(lp4458
((lVhttp://dbpedia.org/resource/Null
tp4459
aa(lp4460
((lVhttp://dbpedia.org/resource/Null
tp4461
aa(lp4462
a(lp4463
a(lp4464
((lVhttp://dbpedia.org/resource/Null
tp4465
aa(lp4466
a(lp4467
a(lp4468
a(lp4469
((lVhttp://dbpedia.org/resource/Null
tp4470
aaa(lp4471
(lp4472
a(lp4473
a(lp4474
a(lp4475
a(lp4476
a(lp4477
a(lp4478
a(lp4479
a(lp4480
a(lp4481
a(lp4482
a(lp4483
a(lp4484
aa(lp4485
(lp4486
a(lp4487
a(lp4488
a(lp4489
a(lp4490
a(lp4491
a(lp4492
a(lp4493
a(lp4494
a(lp4495
a(lp4496
a(lp4497
a(lp4498
aa(lp4499
(lp4500
a(lp4501
a(lp4502
a(lp4503
a(lp4504
a(lp4505
a(lp4506
a(lp4507
a(lp4508
a(lp4509
a(lp4510
a(lp4511
a(lp4512
aa(lp4513
(lp4514
a(lp4515
a(lp4516
a(lp4517
a(lp4518
a(lp4519
a(lp4520
a(lp4521
a(lp4522
a(lp4523
a(lp4524
a(lp4525
a(lp4526
aa(lp4527
(lp4528
a(lp4529
a(lp4530
a(lp4531
a(lp4532
a(lp4533
a(lp4534
a(lp4535
a(lp4536
a(lp4537
a(lp4538
a(lp4539
a(lp4540
aa(lp4541
(lp4542
a(lp4543
((lVhttp://dbpedia.org/resource/Null
tp4544
aa(lp4545
((lVhttp://dbpedia.org/resource/Null
tp4546
aa(lp4547
((lVhttp://dbpedia.org/resource/Null
tp4548
aa(lp4549
a(lp4550
((lVhttp://dbpedia.org/resource/Null
tp4551
aa(lp4552
((lVhttp://dbpedia.org/resource/Null
tp4553
aa(lp4554
((lVhttp://dbpedia.org/resource/Null
tp4555
aa(lp4556
((lVhttp://dbpedia.org/resource/Null
tp4557
aa(lp4558
((lVhttp://dbpedia.org/resource/Null
tp4559
aa(lp4560
((lVhttp://dbpedia.org/resource/Null
tp4561
aa(lp4562
((lVhttp://dbpedia.org/resource/Null
tp4563
aa(lp4564
aa(lp4565
(lp4566
a(lp4567
a(lp4568
a(lp4569
a(lp4570
a(lp4571
a(lp4572
a(lp4573
a(lp4574
a(lp4575
a(lp4576
a(lp4577
a(lp4578
aa(lp4579
(lp4580
a(lp4581
a(lp4582
a(lp4583
a(lp4584
a(lp4585
a(lp4586
a(lp4587
a(lp4588
a(lp4589
a(lp4590
a(lp4591
a(lp4592
aa(lp4593
(lp4594
a(lp4595
a(lp4596
a(lp4597
a(lp4598
a(lp4599
a(lp4600
a(lp4601
a(lp4602
a(lp4603
a(lp4604
a(lp4605
a(lp4606
aa(lp4607
(lp4608
a(lp4609
a(lp4610
a(lp4611
a(lp4612
a(lp4613
a(lp4614
a(lp4615
a(lp4616
a(lp4617
a(lp4618
a(lp4619
a(lp4620
aa(lp4621
(lp4622
((lp4623
Vhttp://www.w3.org/2002/07/owl#Thing
p4624
aVhttp://www.ontologydesignpatterns.org/ont/dul/DUL.owl#Agent
p4625
aVhttp://www.ontologydesignpatterns.org/ont/dul/DUL.owl#SocialPerson
p4626
aVhttp://www.wikidata.org/entity/Q43229
p4627
aVhttp://dbpedia.org/ontology/Agent
p4628
aVhttp://dbpedia.org/ontology/BaseballTeam
p4629
aVhttp://dbpedia.org/ontology/Organisation
p4630
aVhttp://dbpedia.org/ontology/SportsTeam
p4631
aVhttp://schema.org/Organization
p4632
aVhttp://schema.org/SportsTeam
p4633
aVhttp://dbpedia.org/class/yago/Abstraction100002137
p4634
aVhttp://dbpedia.org/class/yago/Association108049401
p4635
aVhttp://dbpedia.org/class/yago/BaseballTeam108079319
p4636
aVhttp://dbpedia.org/class/yago/Club108227214
p4637
aVhttp://dbpedia.org/class/yago/Group100031264
p4638
aVhttp://dbpedia.org/class/yago/Organization108008335
p4639
aVhttp://dbpedia.org/class/yago/SocialGroup107950920
p4640
aVhttp://dbpedia.org/class/yago/Team108208560
p4641
aVhttp://dbpedia.org/class/yago/Unit108189659
p4642
aVhttp://dbpedia.org/class/yago/YagoLegalActorGeo
p4643
aVhttp://dbpedia.org/class/yago/YagoPermanentlyLocatedEntity
p4644
aVhttp://dbpedia.org/class/yago/MajorLeagueBaseballTeams
p4645
aVhttp://dbpedia.org/class/yago/YagoLegalActor
p4646
aVhttp://dbpedia.org/class/yago/ProfessionalBaseballTeamsInMaryland
p4647
aVhttp://dbpedia.org/class/yago/SportsClubsEstablishedIn1894
p4648
aVhttp://dbpedia.org/resource/Baltimore_Orioles
tp4649
aa(lp4650
a(lp4651
a(lp4652
a(lp4653
a(lp4654
a(lp4655
a(lp4656
a(lp4657
a(lp4658
a(lp4659
a(lp4660
a(lp4661
aa(lp4662
(lp4663
a(lp4664
((lVhttp://dbpedia.org/resource/Null
tp4665
aa(lp4666
((lVhttp://dbpedia.org/resource/Null
tp4667
aa(lp4668
((lVhttp://dbpedia.org/resource/Null
tp4669
aa(lp4670
((lVhttp://dbpedia.org/resource/Null
tp4671
aa(lp4672
((lVhttp://dbpedia.org/resource/Null
tp4673
aa(lp4674
((lVhttp://dbpedia.org/resource/Null
tp4675
aa(lp4676
((lVhttp://dbpedia.org/resource/Null
tp4677
aa(lp4678
((lVhttp://dbpedia.org/resource/Null
tp4679
aa(lp4680
((lVhttp://dbpedia.org/resource/Null
tp4681
aa(lp4682
((lVhttp://dbpedia.org/resource/Null
tp4683
aa(lp4684
((lVhttp://dbpedia.org/resource/Null
tp4685
aa(lp4686
aa(lp4687
(lp4688
a(lp4689
((lVhttp://dbpedia.org/resource/Null
tp4690
aa(lp4691
((lVhttp://dbpedia.org/resource/Null
tp4692
aa(lp4693
((lVhttp://dbpedia.org/resource/Null
tp4694
aa(lp4695
((lVhttp://dbpedia.org/resource/Null
tp4696
aa(lp4697
((lVhttp://dbpedia.org/resource/Null
tp4698
aa(lp4699
((lVhttp://dbpedia.org/resource/Null
tp4700
aa(lp4701
((lVhttp://dbpedia.org/resource/Null
tp4702
aa(lp4703
((lVhttp://dbpedia.org/resource/Null
tp4704
aa(lp4705
((lVhttp://dbpedia.org/resource/Null
tp4706
aa(lp4707
((lVhttp://dbpedia.org/resource/Null
tp4708
aa(lp4709
a(lp4710
((lVhttp://dbpedia.org/resource/Null
tp4711
aaa(lp4712
(lp4713
a(lp4714
a(lp4715
a(lp4716
a(lp4717
a(lp4718
a(lp4719
a(lp4720
a(lp4721
a(lp4722
a(lp4723
a(lp4724
a(lp4725
aa(lp4726
(lp4727
a(lp4728
a(lp4729
a(lp4730
a(lp4731
a(lp4732
a(lp4733
a(lp4734
a(lp4735
a(lp4736
a(lp4737
a(lp4738
a(lp4739
aa(lp4740
(lp4741
a(lp4742
((lVhttp://dbpedia.org/resource/Null
tp4743
aa(lp4744
((lVhttp://dbpedia.org/resource/Null
tp4745
aa(lp4746
((lVhttp://dbpedia.org/resource/Null
tp4747
aa(lp4748
((lVhttp://dbpedia.org/resource/Null
tp4749
aa(lp4750
((lVhttp://dbpedia.org/resource/Null
tp4751
aa(lp4752
((lVhttp://dbpedia.org/resource/Null
tp4753
aa(lp4754
((lVhttp://dbpedia.org/resource/Null
tp4755
aa(lp4756
((lVhttp://dbpedia.org/resource/Null
tp4757
aa(lp4758
((lVhttp://dbpedia.org/resource/Null
tp4759
aa(lp4760
((lVhttp://dbpedia.org/resource/Null
tp4761
aa(lp4762
a(lp4763
aa(lp4764
(lp4765
a(lp4766
a(lp4767
a(lp4768
a(lp4769
a(lp4770
a(lp4771
a(lp4772
a(lp4773
a(lp4774
a(lp4775
a(lp4776
a(lp4777
aa(lp4778
(lp4779
a(lp4780
a(lp4781
a(lp4782
a(lp4783
a(lp4784
((lVhttp://dbpedia.org/resource/Null
tp4785
aa(lp4786
((lVhttp://dbpedia.org/resource/Null
tp4787
aa(lp4788
a(lp4789
((lVhttp://dbpedia.org/resource/Null
tp4790
aa(lp4791
((lVhttp://dbpedia.org/resource/Null
tp4792
aa(lp4793
a(lp4794
a(lp4795
aa(lp4796
(lp4797
a(lp4798
a(lp4799
a(lp4800
a(lp4801
a(lp4802
a(lp4803
a(lp4804
a(lp4805
a(lp4806
a(lp4807
a(lp4808
a(lp4809
aa(lp4810
(lp4811
a(lp4812
((lVhttp://dbpedia.org/resource/Null
tp4813
aa(lp4814
a(lp4815
((lVhttp://dbpedia.org/resource/Null
tp4816
aa(lp4817
a(lp4818
((lVhttp://dbpedia.org/resource/Null
tp4819
aa(lp4820
((lVhttp://dbpedia.org/resource/Null
tp4821
aa(lp4822
((lVhttp://dbpedia.org/resource/Null
tp4823
aa(lp4824
((lVhttp://dbpedia.org/resource/Null
tp4825
aa(lp4826
((lVhttp://dbpedia.org/resource/Null
tp4827
aa(lp4828
((lVhttp://dbpedia.org/resource/Null
tp4829
aa(lp4830
((lVhttp://dbpedia.org/resource/Null
tp4831
aa(lp4832
((lVhttp://dbpedia.org/resource/Null
tp4833
aaa(lp4834
(lp4835
((lp4836
Vhttp://umbel.org/umbel/rc/Animal
p4837
aVhttp://umbel.org/umbel/rc/BiologicalLivingObject
p4838
aVhttp://umbel.org/umbel/rc/Bird
p4839
aVhttp://umbel.org/umbel/rc/EukaryoticCell
p4840
aVhttp://dbpedia.org/resource/House_Sparrow
p4841
tp4842
aa(lp4843
a(lp4844
a(lp4845
a(lp4846
a(lp4847
a(lp4848
a(lp4849
a(lp4850
a(lp4851
a(lp4852
a(lp4853
a(lp4854
aa.