(lp1
(lp2
(dp3
Vstart
p4
I0
sVdisambiguatedURL
p5
Vhttp://dbpedia.org/resource/Goal_(disambiguation)
p6
sVnamedEntity
p7
VGoals:
p8
sVoffset
p9
I6
saa(lp10
(dp11
Vstart
p12
I0
sVdisambiguatedURL
p13
Vhttp://dbpedia.org/resource/Assist
p14
sVnamedEntity
p15
VAssists:
p16
sVoffset
p17
I8
saa(lp18
(dp19
Vstart
p20
I0
sVdisambiguatedURL
p21
Vhttp://dbpedia.org/resource/Point
p22
sVnamedEntity
p23
VPoints:
p24
sVoffset
p25
I7
saa(lp26
(dp27
Vstart
p28
I0
sVdisambiguatedURL
p29
NsVnamedEntity
p30
VPluys/Minus:
p31
sVoffset
p32
I12
saa(lp33
(dp34
Vstart
p35
I0
sVdisambiguatedURL
p36
NsVnamedEntity
p37
VTime on Ice:
p38
sVoffset
p39
I12
saa(lp40
(dp41
Vstart
p42
I0
sVdisambiguatedURL
p43
NsVnamedEntity
p44
VPIMs:
p45
sVoffset
p46
I5
saa(lp47
(dp48
Vstart
p49
I0
sVdisambiguatedURL
p50
Vhttp://dbpedia.org/resource/Aldershot_Shots
p51
sVnamedEntity
p52
VShots:
p53
sVoffset
p54
I6
saa(lp55
(dp56
Vstart
p57
I0
sVdisambiguatedURL
p58
NsVnamedEntity
p59
VSVP:
p60
sVoffset
p61
I4
saa(lp62
(dp63
Vstart
p64
I0
sVdisambiguatedURL
p65
NsVnamedEntity
p66
VGAA:
p67
sVoffset
p68
I4
saa(lp69
(dp70
Vstart
p71
I0
sVdisambiguatedURL
p72
NsVnamedEntity
p73
VWins:
p74
sVoffset
p75
I5
saa(lp76
(dp77
Vstart
p78
I0
sVdisambiguatedURL
p79
Vhttp://dbpedia.org/resource/Injury
p80
sVnamedEntity
p81
VInjuries:
p82
sVoffset
p83
I9
saa(lp84
(dp85
Vstart
p86
I0
sVdisambiguatedURL
p87
Vhttp://dbpedia.org/resource/Single-elimination_tournament
p88
sVnamedEntity
p89
VLast 10:
p90
sVoffset
p91
I8
saa(lp92
(dp93
Vstart
p94
I0
sVdisambiguatedURL
p95
Vhttp://dbpedia.org/resource/League_table
p96
sVnamedEntity
p97
VStandings:
p98
sVoffset
p99
I10
saa(lp100
(dp101
Vstart
p102
I0
sVdisambiguatedURL
p103
NsVnamedEntity
p104
VGF/GA:
p105
sVoffset
p106
I6
saa(lp107
(dp108
Vstart
p109
I0
sVdisambiguatedURL
p110
NsVnamedEntity
p111
VPP/PK %:
p112
sVoffset
p113
I8
saa.