ccollections
defaultdict
p1
(c__builtin__
dict
p2
tRp3
I16
(dp4
I1
(lp5
Vhttp://www.w3.org/1999/02/22-rdf-syntax-ns#type
p6
aVhttp://purl.org/dc/terms/subject
p7
aVhttp://dbpedia.org/ontology/location
p8
aVhttp://www.w3.org/2000/01/rdf-schema#comment
p9
aVhttp://dbpedia.org/ontology/abstract
p10
aVhttp://dbpedia.org/property/location
p11
asI2
(lp12
sI3
(lp13
Vhttp://dbpedia.org/ontology/abstract
p14
aVhttp://www.w3.org/1999/02/22-rdf-syntax-ns#type
p15
asI4
(lp16
sI5
(lp17
Vhttp://dbpedia.org/ontology/abstract
p18
aVhttp://www.w3.org/2000/01/rdf-schema#comment
p19
assI18
(dp20
I1
(lp21
sI2
(lp22
sI3
(lp23
sI4
(lp24
sI5
(lp25
ssI5
(dp26
I1
(lp27
sI2
(lp28
sI3
(lp29
sI4
(lp30
sI5
(lp31
ssI14
(dp32
I1
(lp33
Vhttp://dbpedia.org/property/currency
p34
aVhttp://xmlns.com/foaf/0.1/primaryTopic
p35
aVhttp://www.w3.org/1999/02/22-rdf-syntax-ns#type
p36
aVhttp://purl.org/dc/terms/subject
p37
aVhttp://www.w3.org/2000/01/rdf-schema#comment
p38
aVhttp://dbpedia.org/ontology/abstract
p39
aVhttp://xmlns.com/foaf/0.1/depiction
p40
aVhttp://dbpedia.org/property/name
p41
aVhttp://dbpedia.org/ontology/wikiPageRedirects
p42
aVhttp://dbpedia.org/property/logo
p43
aVhttp://xmlns.com/foaf/0.1/isPrimaryTopicOf
p44
aVhttp://www.w3.org/ns/prov#wasDerivedFrom
p45
aVhttp://dbpedia.org/property/country
p46
aVhttp://dbpedia.org/property/hasPhotoCollection
p47
aVhttp://www.w3.org/2000/01/rdf-schema#label
p48
aVhttp://www.w3.org/2002/07/owl#sameAs
p49
aVhttp://dbpedia.org/ontology/thumbnail
p50
asI2
(lp51
sI3
(lp52
sI4
(lp53
sI5
(lp54
Vhttp://dbpedia.org/ontology/abstract
p55
aVhttp://www.w3.org/2000/01/rdf-schema#comment
p56
ass.