(lp1
(dp2
I0
(dp3
I0
(lp4
sI1
(lp5
sI2
(lp6
Vhttp://www.w3.org/2000/01/rdf-schema#seeAlso
p7
aVhttp://dbpedia.org/ontology/country
p8
aVhttp://dbpedia.org/property/stadium
p9
aVhttp://dbpedia.org/ontology/location
p10
aVhttp://dbpedia.org/ontology/origin
p11
aVhttp://dbpedia.org/property/locationCountry
p12
aVhttp://dbpedia.org/property/place
p13
aVhttp://dbpedia.org/property/location
p14
aVhttp://dbpedia.org/ontology/ground
p15
aVhttp://dbpedia.org/property/cityServed
p16
aVhttp://dbpedia.org/property/city
p17
aVhttp://dbpedia.org/ontology/builder
p18
aVhttp://dbpedia.org/ontology/place
p19
aVhttp://dbpedia.org/ontology/homeStadium
p20
aVhttp://dbpedia.org/property/country
p21
aVhttp://dbpedia.org/property/locale
p22
aVhttp://dbpedia.org/ontology/city
p23
asI3
(lp24
sI4
(lp25
sI5
(lp26
ssI1
(dp27
I0
g5
sI1
(lp28
sI2
(lp29
Vhttp://www.w3.org/1999/02/22-rdf-syntax-ns#type
p30
aVhttp://purl.org/dc/terms/subject
p31
aVhttp://dbpedia.org/ontology/location
p32
aVhttp://www.w3.org/2000/01/rdf-schema#comment
p33
aVhttp://dbpedia.org/ontology/abstract
p34
aVhttp://dbpedia.org/property/location
p35
asI3
(lp36
sI4
(lp37
sI5
(lp38
ssI2
(dp39
I0
g6
sI1
g29
sI2
(lp40
sI3
(lp41
sI4
(lp42
sI5
(lp43
ssI3
(dp44
I0
g24
sI1
g36
sI2
g41
sI3
(lp45
sI4
(lp46
sI5
(lp47
ssI4
(dp48
I0
g25
sI1
g37
sI2
g42
sI3
g46
sI4
(lp49
sI5
(lp50
ssI5
(dp51
I0
g26
sI1
g38
sI2
g43
sI3
g47
sI4
g50
sI5
(lp52
ssa(dp53
I0
(dp54
I0
(lp55
sI1
(lp56
sI2
(lp57
Vhttp://www.w3.org/2000/01/rdf-schema#seeAlso
p58
aVhttp://dbpedia.org/ontology/country
p59
aVhttp://dbpedia.org/property/stadium
p60
aVhttp://dbpedia.org/ontology/location
p61
aVhttp://dbpedia.org/ontology/origin
p62
aVhttp://dbpedia.org/property/locationCountry
p63
aVhttp://dbpedia.org/property/place
p64
aVhttp://dbpedia.org/property/location
p65
aVhttp://dbpedia.org/ontology/ground
p66
aVhttp://dbpedia.org/property/cityServed
p67
aVhttp://dbpedia.org/property/city
p68
aVhttp://dbpedia.org/ontology/builder
p69
aVhttp://dbpedia.org/ontology/place
p70
aVhttp://dbpedia.org/ontology/homeStadium
p71
aVhttp://dbpedia.org/property/country
p72
aVhttp://dbpedia.org/property/locale
p73
aVhttp://dbpedia.org/ontology/city
p74
asI3
(lp75
Vhttp://www.w3.org/2000/01/rdf-schema#seeAlso
p76
aVhttp://dbpedia.org/property/currency
p77
aVhttp://dbpedia.org/property/broadcastArea
p78
aVhttp://dbpedia.org/ontology/origin
p79
aVhttp://dbpedia.org/ontology/currency
p80
aVhttp://dbpedia.org/property/membership
p81
aVhttp://dbpedia.org/property/place
p82
aVhttp://dbpedia.org/ontology/routeStart
p83
aVhttp://dbpedia.org/ontology/campus
p84
aVhttp://dbpedia.org/ontology/garrison
p85
aVhttp://dbpedia.org/property/footnoteA
p86
aVhttp://dbpedia.org/property/caption
p87
aVhttp://dbpedia.org/property/footnoteC
p88
aVhttp://dbpedia.org/ontology/fastestDriverCountry
p89
aVhttp://dbpedia.org/ontology/routeEnd
p90
aVhttp://dbpedia.org/ontology/regionServed
p91
aVhttp://dbpedia.org/ontology/country
p92
aVhttp://www.w3.org/1999/02/22-rdf-syntax-ns#type
p93
aVhttp://dbpedia.org/property/locationCountry
p94
aVhttp://dbpedia.org/ontology/secondDriverCountry
p95
aVhttp://dbpedia.org/property/assembly
p96
aVhttp://dbpedia.org/property/site
p97
aVhttp://dbpedia.org/ontology/nationality
p98
aVhttp://dbpedia.org/ontology/language
p99
aVhttp://dbpedia.org/property/office
p100
aVhttp://dbpedia.org/property/text
p101
aVhttp://dbpedia.org/property/country
p102
aVhttp://dbpedia.org/property/countries
p103
aVhttp://dbpedia.org/ontology/assembly
p104
aVhttp://dbpedia.org/property/areaServed
p105
aVhttp://dbpedia.org/property/areasAffected
p106
aVhttp://dbpedia.org/ontology/wikiPageExternalLink
p107
aVhttp://dbpedia.org/ontology/firstDriverCountry
p108
aVhttp://purl.org/dc/terms/subject
p109
aVhttp://dbpedia.org/ontology/populationPlace
p110
aVhttp://dbpedia.org/property/origin
p111
aVhttp://dbpedia.org/property/nationality
p112
aVhttp://dbpedia.org/ontology/abstract
p113
aVhttp://dbpedia.org/ontology/recordedIn
p114
aVhttp://dbpedia.org/property/venue
p115
aVhttp://dbpedia.org/property/location
p116
aVhttp://dbpedia.org/ontology/builder
p117
aVhttp://dbpedia.org/ontology/headquarter
p118
aVhttp://dbpedia.org/ontology/city
p119
aVhttp://dbpedia.org/property/hostCity
p120
aVhttp://dbpedia.org/property/nationalOrigin
p121
aVhttp://dbpedia.org/property/headquarters
p122
aVhttp://dbpedia.org/ontology/territory
p123
aVhttp://dbpedia.org/property/shipBuilder
p124
aVhttp://dbpedia.org/property/rd2t1Loc
p125
aVhttp://www.w3.org/2000/01/rdf-schema#comment
p126
aVhttp://dbpedia.org/property/finish
p127
aVhttp://dbpedia.org/property/shipCountry
p128
aVhttp://dbpedia.org/ontology/locationCountry
p129
aVhttp://dbpedia.org/ontology/hometown
p130
aVhttp://www.w3.org/2004/02/skos/core#exactMatch
p131
aVhttp://dbpedia.org/ontology/poleDriverCountry
p132
aVhttp://www.w3.org/2002/07/owl#sameAs
p133
aVhttp://dbpedia.org/property/host
p134
aVhttp://dbpedia.org/property/garrison
p135
aVhttp://dbpedia.org/property/stadium
p136
aVhttp://dbpedia.org/ontology/location
p137
asI4
(lp138
sI5
(lp139
ssI1
(dp140
I0
g56
sI1
(lp141
sI2
(lp142
Vhttp://www.w3.org/1999/02/22-rdf-syntax-ns#type
p143
aVhttp://purl.org/dc/terms/subject
p144
aVhttp://dbpedia.org/ontology/location
p145
aVhttp://www.w3.org/2000/01/rdf-schema#comment
p146
aVhttp://dbpedia.org/ontology/abstract
p147
aVhttp://dbpedia.org/property/imageCaption
p148
aVhttp://dbpedia.org/property/location
p149
asI3
(lp150
Vhttp://dbpedia.org/ontology/abstract
p151
aVhttp://www.w3.org/2000/01/rdf-schema#comment
p152
asI4
(lp153
sI5
(lp154
ssI2
(dp155
I0
g57
sI1
g142
sI2
(lp156
sI3
(lp157
sI4
(lp158
sI5
(lp159
ssI3
(dp160
I0
g75
sI1
g150
sI2
g157
sI3
(lp161
sI4
(lp162
sI5
(lp163
ssI4
(dp164
I0
g138
sI1
g153
sI2
g158
sI3
g162
sI4
(lp165
sI5
(lp166
ssI5
(dp167
I0
g139
sI1
g154
sI2
g159
sI3
g163
sI4
g166
sI5
(lp168
ssa(dp169
I0
(dp170
I0
(lp171
sI1
(lp172
sI2
(lp173
Vhttp://www.w3.org/2000/01/rdf-schema#seeAlso
p174
aVhttp://dbpedia.org/ontology/country
p175
aVhttp://dbpedia.org/property/stadium
p176
aVhttp://dbpedia.org/ontology/location
p177
aVhttp://dbpedia.org/ontology/origin
p178
aVhttp://dbpedia.org/property/locationCountry
p179
aVhttp://dbpedia.org/property/place
p180
aVhttp://dbpedia.org/property/location
p181
aVhttp://dbpedia.org/ontology/ground
p182
aVhttp://dbpedia.org/property/cityServed
p183
aVhttp://dbpedia.org/property/city
p184
aVhttp://dbpedia.org/ontology/builder
p185
aVhttp://dbpedia.org/ontology/place
p186
aVhttp://dbpedia.org/ontology/homeStadium
p187
aVhttp://dbpedia.org/property/country
p188
aVhttp://dbpedia.org/property/locale
p189
aVhttp://dbpedia.org/ontology/city
p190
asI3
(lp191
Vhttp://www.w3.org/2000/01/rdf-schema#seeAlso
p192
aVhttp://dbpedia.org/property/currency
p193
aVhttp://dbpedia.org/property/broadcastArea
p194
aVhttp://dbpedia.org/ontology/origin
p195
aVhttp://dbpedia.org/ontology/currency
p196
aVhttp://dbpedia.org/property/membership
p197
aVhttp://dbpedia.org/property/place
p198
aVhttp://dbpedia.org/ontology/routeStart
p199
aVhttp://dbpedia.org/ontology/campus
p200
aVhttp://dbpedia.org/ontology/garrison
p201
aVhttp://dbpedia.org/property/footnoteA
p202
aVhttp://dbpedia.org/property/caption
p203
aVhttp://dbpedia.org/property/footnoteC
p204
aVhttp://dbpedia.org/ontology/fastestDriverCountry
p205
aVhttp://dbpedia.org/ontology/routeEnd
p206
aVhttp://dbpedia.org/ontology/regionServed
p207
aVhttp://dbpedia.org/ontology/country
p208
aVhttp://www.w3.org/1999/02/22-rdf-syntax-ns#type
p209
aVhttp://dbpedia.org/property/locationCountry
p210
aVhttp://dbpedia.org/ontology/secondDriverCountry
p211
aVhttp://dbpedia.org/property/assembly
p212
aVhttp://dbpedia.org/property/site
p213
aVhttp://dbpedia.org/ontology/nationality
p214
aVhttp://dbpedia.org/ontology/language
p215
aVhttp://dbpedia.org/property/office
p216
aVhttp://dbpedia.org/property/text
p217
aVhttp://dbpedia.org/property/country
p218
aVhttp://dbpedia.org/property/countries
p219
aVhttp://dbpedia.org/ontology/assembly
p220
aVhttp://dbpedia.org/property/areaServed
p221
aVhttp://dbpedia.org/property/areasAffected
p222
aVhttp://dbpedia.org/ontology/wikiPageExternalLink
p223
aVhttp://dbpedia.org/ontology/firstDriverCountry
p224
aVhttp://purl.org/dc/terms/subject
p225
aVhttp://dbpedia.org/ontology/populationPlace
p226
aVhttp://dbpedia.org/property/origin
p227
aVhttp://dbpedia.org/property/nationality
p228
aVhttp://dbpedia.org/ontology/abstract
p229
aVhttp://dbpedia.org/ontology/recordedIn
p230
aVhttp://dbpedia.org/property/venue
p231
aVhttp://dbpedia.org/property/location
p232
aVhttp://dbpedia.org/ontology/builder
p233
aVhttp://dbpedia.org/ontology/headquarter
p234
aVhttp://dbpedia.org/ontology/city
p235
aVhttp://dbpedia.org/property/hostCity
p236
aVhttp://dbpedia.org/property/nationalOrigin
p237
aVhttp://dbpedia.org/property/headquarters
p238
aVhttp://dbpedia.org/ontology/territory
p239
aVhttp://dbpedia.org/property/shipBuilder
p240
aVhttp://dbpedia.org/property/rd2t1Loc
p241
aVhttp://www.w3.org/2000/01/rdf-schema#comment
p242
aVhttp://dbpedia.org/property/finish
p243
aVhttp://dbpedia.org/property/shipCountry
p244
aVhttp://dbpedia.org/ontology/locationCountry
p245
aVhttp://dbpedia.org/ontology/hometown
p246
aVhttp://www.w3.org/2004/02/skos/core#exactMatch
p247
aVhttp://dbpedia.org/ontology/poleDriverCountry
p248
aVhttp://www.w3.org/2002/07/owl#sameAs
p249
aVhttp://dbpedia.org/property/host
p250
aVhttp://dbpedia.org/property/garrison
p251
aVhttp://dbpedia.org/property/stadium
p252
aVhttp://dbpedia.org/ontology/location
p253
asI4
(lp254
sI5
(lp255
ssI1
(dp256
I0
g172
sI1
(lp257
sI2
(lp258
sI3
(lp259
sI4
(lp260
sI5
(lp261
ssI2
(dp262
I0
g173
sI1
g258
sI2
(lp263
sI3
(lp264
sI4
(lp265
sI5
(lp266
ssI3
(dp267
I0
g191
sI1
g259
sI2
g264
sI3
(lp268
sI4
(lp269
sI5
(lp270
ssI4
(dp271
I0
g254
sI1
g260
sI2
g265
sI3
g269
sI4
(lp272
sI5
(lp273
ssI5
(dp274
I0
g255
sI1
g261
sI2
g266
sI3
g270
sI4
g273
sI5
(lp275
ssa(dp276
I0
(dp277
I0
(lp278
sI1
(lp279
sI2
(lp280
Vhttp://www.w3.org/2000/01/rdf-schema#seeAlso
p281
aVhttp://dbpedia.org/property/origin
p282
aVhttp://dbpedia.org/property/city
p283
aVhttp://dbpedia.org/property/nation
p284
aVhttp://dbpedia.org/ontology/country
p285
aVhttp://dbpedia.org/property/locationCountry
p286
aVhttp://dbpedia.org/property/largestCity
p287
aVhttp://dbpedia.org/ontology/isPartOf
p288
aVhttp://dbpedia.org/property/country
p289
aVhttp://dbpedia.org/property/hqCity
p290
aVhttp://dbpedia.org/ontology/regionServed
p291
aVhttp://dbpedia.org/ontology/abstract
p292
aVhttp://dbpedia.org/ontology/recordedIn
p293
aVhttp://dbpedia.org/property/location
p294
aVhttp://dbpedia.org/ontology/locationCountry
p295
aVhttp://dbpedia.org/ontology/headquarter
p296
aVhttp://dbpedia.org/ontology/city
p297
aVhttp://dbpedia.org/property/headquarters
p298
aVhttp://dbpedia.org/property/locale
p299
aVhttp://dbpedia.org/ontology/location
p300
aVhttp://www.w3.org/2000/01/rdf-schema#comment
p301
aVhttp://dbpedia.org/property/factory
p302
aVhttp://dbpedia.org/ontology/hometown
p303
aVhttp://dbpedia.org/property/officelocation
p304
aVhttp://dbpedia.org/ontology/largestCity
p305
aVhttp://dbpedia.org/property/regionServed
p306
aVhttp://dbpedia.org/property/stadium
p307
asI3
(lp308
sI4
(lp309
sI5
(lp310
ssI1
(dp311
I0
g279
sI1
(lp312
sI2
(lp313
Vhttp://www.w3.org/1999/02/22-rdf-syntax-ns#type
p314
aVhttp://purl.org/dc/terms/subject
p315
aVhttp://dbpedia.org/ontology/location
p316
aVhttp://www.w3.org/2000/01/rdf-schema#comment
p317
aVhttp://dbpedia.org/ontology/abstract
p318
aVhttp://dbpedia.org/property/location
p319
asI3
(lp320
Vhttp://dbpedia.org/ontology/abstract
p321
asI4
(lp322
sI5
(lp323
ssI2
(dp324
I0
g280
sI1
g313
sI2
(lp325
sI3
(lp326
sI4
(lp327
sI5
(lp328
ssI3
(dp329
I0
g308
sI1
g320
sI2
g326
sI3
(lp330
sI4
(lp331
sI5
(lp332
ssI4
(dp333
I0
g309
sI1
g322
sI2
g327
sI3
g331
sI4
(lp334
sI5
(lp335
ssI5
(dp336
I0
g310
sI1
g323
sI2
g328
sI3
g332
sI4
g335
sI5
(lp337
ssa(dp338
I0
(dp339
I0
(lp340
sI1
(lp341
sI2
(lp342
Vhttp://www.w3.org/2000/01/rdf-schema#seeAlso
p343
aVhttp://dbpedia.org/ontology/country
p344
aVhttp://dbpedia.org/ontology/state
p345
aVhttp://dbpedia.org/property/locale
p346
aVhttp://www.w3.org/2000/01/rdf-schema#comment
p347
aVhttp://dbpedia.org/ontology/abstract
p348
aVhttp://dbpedia.org/ontology/recordedIn
p349
aVhttp://dbpedia.org/property/location
p350
aVhttp://dbpedia.org/property/discoverySite
p351
aVhttp://dbpedia.org/ontology/ground
p352
aVhttp://dbpedia.org/property/state
p353
aVhttp://dbpedia.org/property/city
p354
aVhttp://dbpedia.org/ontology/garrison
p355
aVhttp://dbpedia.org/property/ground
p356
aVhttp://dbpedia.org/property/headquarters
p357
aVhttp://dbpedia.org/ontology/city
p358
aVhttp://dbpedia.org/property/country
p359
aVhttp://dbpedia.org/property/fullname
p360
aVhttp://dbpedia.org/property/garrison
p361
aVhttp://dbpedia.org/property/subdivisionName
p362
aVhttp://dbpedia.org/ontology/location
p363
asI3
(lp364
sI4
(lp365
sI5
(lp366
ssI1
(dp367
I0
g341
sI1
(lp368
sI2
(lp369
Vhttp://dbpedia.org/ontology/abstract
p370
aVhttp://purl.org/dc/terms/subject
p371
aVhttp://www.w3.org/2000/01/rdf-schema#comment
p372
asI3
(lp373
sI4
(lp374
sI5
(lp375
ssI2
(dp376
I0
g342
sI1
g369
sI2
(lp377
sI3
(lp378
sI4
(lp379
sI5
(lp380
ssI3
(dp381
I0
g364
sI1
g373
sI2
g378
sI3
(lp382
sI4
(lp383
sI5
(lp384
ssI4
(dp385
I0
g365
sI1
g374
sI2
g379
sI3
g383
sI4
(lp386
sI5
(lp387
ssI5
(dp388
I0
g366
sI1
g375
sI2
g380
sI3
g384
sI4
g387
sI5
(lp389
ssa(dp390
I0
(dp391
I0
(lp392
sI1
(lp393
sI2
(lp394
Vhttp://www.w3.org/2000/01/rdf-schema#seeAlso
p395
aVhttp://dbpedia.org/ontology/country
p396
aVhttp://dbpedia.org/ontology/state
p397
aVhttp://dbpedia.org/property/locale
p398
aVhttp://www.w3.org/2000/01/rdf-schema#comment
p399
aVhttp://dbpedia.org/ontology/abstract
p400
aVhttp://dbpedia.org/ontology/recordedIn
p401
aVhttp://dbpedia.org/property/location
p402
aVhttp://dbpedia.org/property/discoverySite
p403
aVhttp://dbpedia.org/ontology/ground
p404
aVhttp://dbpedia.org/property/state
p405
aVhttp://dbpedia.org/property/city
p406
aVhttp://dbpedia.org/ontology/garrison
p407
aVhttp://dbpedia.org/property/ground
p408
aVhttp://dbpedia.org/property/headquarters
p409
aVhttp://dbpedia.org/ontology/city
p410
aVhttp://dbpedia.org/property/country
p411
aVhttp://dbpedia.org/property/fullname
p412
aVhttp://dbpedia.org/property/garrison
p413
aVhttp://dbpedia.org/property/subdivisionName
p414
aVhttp://dbpedia.org/ontology/location
p415
asI3
(lp416
sI4
(lp417
sI5
(lp418
ssI1
(dp419
I0
g393
sI1
(lp420
sI2
(lp421
sI3
(lp422
sI4
(lp423
sI5
(lp424
ssI2
(dp425
I0
g394
sI1
g421
sI2
(lp426
sI3
(lp427
sI4
(lp428
sI5
(lp429
ssI3
(dp430
I0
g416
sI1
g422
sI2
g427
sI3
(lp431
sI4
(lp432
sI5
(lp433
ssI4
(dp434
I0
g417
sI1
g423
sI2
g428
sI3
g432
sI4
(lp435
sI5
(lp436
ssI5
(dp437
I0
g418
sI1
g424
sI2
g429
sI3
g433
sI4
g436
sI5
(lp438
ssa(dp439
I0
(dp440
I0
(lp441
sI1
(lp442
sI2
(lp443
Vhttp://www.w3.org/2000/01/rdf-schema#seeAlso
p444
aVhttp://dbpedia.org/property/placeOfDeath
p445
aVhttp://dbpedia.org/property/ground
p446
aVhttp://dbpedia.org/property/place
p447
aVhttp://dbpedia.org/property/city
p448
aVhttp://dbpedia.org/ontology/regionServed
p449
aVhttp://dbpedia.org/ontology/country
p450
aVhttp://dbpedia.org/ontology/ground
p451
aVhttp://dbpedia.org/property/birthPlace
p452
aVhttp://dbpedia.org/ontology/place
p453
aVhttp://dbpedia.org/property/placeOfBirth
p454
aVhttp://dbpedia.org/property/country
p455
aVhttp://dbpedia.org/ontology/abstract
p456
aVhttp://dbpedia.org/property/state
p457
aVhttp://dbpedia.org/property/deathPlace
p458
aVhttp://dbpedia.org/property/location
p459
aVhttp://dbpedia.org/property/cityServed
p460
aVhttp://dbpedia.org/ontology/locationCountry
p461
aVhttp://dbpedia.org/ontology/deathPlace
p462
aVhttp://dbpedia.org/ontology/city
p463
aVhttp://dbpedia.org/property/subdivisionName
p464
aVhttp://dbpedia.org/property/locale
p465
aVhttp://dbpedia.org/ontology/state
p466
aVhttp://dbpedia.org/ontology/location
p467
aVhttp://dbpedia.org/ontology/birthPlace
p468
asI3
(lp469
Vhttp://dbpedia.org/ontology/birthPlace
p470
aVhttp://dbpedia.org/property/birthPlace
p471
aVhttp://dbpedia.org/property/placeOfBirth
p472
asI4
(lp473
sI5
(lp474
ssI1
(dp475
I0
g442
sI1
(lp476
sI2
(lp477
sI3
(lp478
sI4
(lp479
sI5
(lp480
ssI2
(dp481
I0
g443
sI1
g477
sI2
(lp482
sI3
(lp483
sI4
(lp484
sI5
(lp485
ssI3
(dp486
I0
g469
sI1
g478
sI2
g483
sI3
(lp487
sI4
(lp488
sI5
(lp489
ssI4
(dp490
I0
g473
sI1
g479
sI2
g484
sI3
g488
sI4
(lp491
sI5
(lp492
ssI5
(dp493
I0
g474
sI1
g480
sI2
g485
sI3
g489
sI4
g492
sI5
(lp494
ssa(dp495
I0
(dp496
I0
(lp497
sI1
(lp498
sI2
(lp499
Vhttp://www.w3.org/2000/01/rdf-schema#seeAlso
p500
aVhttp://dbpedia.org/property/origin
p501
aVhttp://dbpedia.org/property/recorded
p502
aVhttp://dbpedia.org/property/place
p503
aVhttp://dbpedia.org/property/city
p504
aVhttp://dbpedia.org/ontology/locatedInArea
p505
aVhttp://dbpedia.org/ontology/regionServed
p506
aVhttp://dbpedia.org/ontology/country
p507
aVhttp://dbpedia.org/property/billed
p508
aVhttp://dbpedia.org/ontology/capital
p509
aVhttp://dbpedia.org/property/locationCountry
p510
aVhttp://dbpedia.org/property/capital
p511
aVhttp://dbpedia.org/ontology/place
p512
aVhttp://dbpedia.org/property/country
p513
aVhttp://dbpedia.org/ontology/billed
p514
aVhttp://dbpedia.org/ontology/abstract
p515
aVhttp://dbpedia.org/ontology/recordedIn
p516
aVhttp://dbpedia.org/property/location
p517
aVhttp://dbpedia.org/ontology/locationCountry
p518
aVhttp://dbpedia.org/property/fullname
p519
aVhttp://dbpedia.org/property/subdivisionName
p520
aVhttp://dbpedia.org/property/nationalOrigin
p521
aVhttp://dbpedia.org/ontology/location
p522
aVhttp://dbpedia.org/property/locale
p523
aVhttp://dbpedia.org/property/shipBuilder
p524
aVhttp://dbpedia.org/property/headquarters
p525
aVhttp://dbpedia.org/property/countries
p526
aVhttp://dbpedia.org/property/countriesAffected
p527
aVhttp://dbpedia.org/ontology/builder
p528
aVhttp://dbpedia.org/ontology/hometown
p529
aVhttp://dbpedia.org/ontology/spokenIn
p530
asI3
(lp531
sI4
(lp532
sI5
(lp533
ssI1
(dp534
I0
g498
sI1
(lp535
sI2
(lp536
Vhttp://xmlns.com/foaf/0.1/primaryTopic
p537
aVhttp://purl.org/dc/terms/subject
p538
aVhttp://xmlns.com/foaf/0.1/name
p539
aVhttp://www.w3.org/2000/01/rdf-schema#comment
p540
aVhttp://www.w3.org/2000/01/rdf-schema#label
p541
aVhttp://dbpedia.org/ontology/abstract
p542
aVhttp://xmlns.com/foaf/0.1/depiction
p543
aVhttp://dbpedia.org/property/name
p544
aVhttp://dbpedia.org/ontology/wikiPageRedirects
p545
aVhttp://dbpedia.org/property/logo
p546
aVhttp://dbpedia.org/property/locationCity
p547
aVhttp://xmlns.com/foaf/0.1/isPrimaryTopicOf
p548
aVhttp://dbpedia.org/ontology/thumbnail
p549
aVhttp://www.w3.org/ns/prov#wasDerivedFrom
p550
aVhttp://dbpedia.org/property/hasPhotoCollection
p551
aVhttp://dbpedia.org/property/predecessor
p552
aVhttp://dbpedia.org/ontology/locationCity
p553
aVhttp://www.w3.org/2002/07/owl#sameAs
p554
aVhttp://dbpedia.org/property/title
p555
asI3
(lp556
sI4
(lp557
sI5
(lp558
ssI2
(dp559
I0
g499
sI1
g536
sI2
(lp560
sI3
(lp561
sI4
(lp562
sI5
(lp563
ssI3
(dp564
I0
g531
sI1
g556
sI2
g561
sI3
(lp565
sI4
(lp566
sI5
(lp567
ssI4
(dp568
I0
g532
sI1
g557
sI2
g562
sI3
g566
sI4
(lp569
sI5
(lp570
ssI5
(dp571
I0
g533
sI1
g558
sI2
g563
sI3
g567
sI4
g570
sI5
(lp572
ssa(dp573
I0
(dp574
I0
(lp575
sI1
(lp576
sI2
(lp577
sI3
(lp578
sI4
(lp579
sI5
(lp580
ssI1
(dp581
I0
g576
sI1
(lp582
sI2
(lp583
sI3
(lp584
sI4
(lp585
sI5
(lp586
ssI2
(dp587
I1
g583
sI2
(lp588
sI3
(lp589
sI4
(lp590
sI5
(lp591
ssI3
(dp592
I0
g578
sI1
g584
sI2
g589
sI3
(lp593
sI4
(lp594
sI5
(lp595
ssI4
(dp596
I0
g579
sI1
g585
sI2
g590
sI3
g594
sI4
(lp597
sI5
(lp598
ssI5
(dp599
I0
g580
sI1
g586
sI2
g591
sI3
g595
sI4
g598
sI5
(lp600
ssa(dp601
I0
(dp602
I0
(lp603
sI1
(lp604
sI2
(lp605
Vhttp://dbpedia.org/property/locale
p606
aVhttp://dbpedia.org/ontology/country
p607
aVhttp://dbpedia.org/ontology/location
p608
aVhttp://dbpedia.org/ontology/recordedIn
p609
aVhttp://dbpedia.org/property/place
p610
aVhttp://dbpedia.org/property/location
p611
aVhttp://dbpedia.org/property/countryOfProduction
p612
aVhttp://dbpedia.org/property/city
p613
aVhttp://dbpedia.org/ontology/place
p614
aVhttp://dbpedia.org/ontology/city
p615
aVhttp://dbpedia.org/property/country
p616
aVhttp://dbpedia.org/property/subdivisionName
p617
asI3
(lp618
sI4
(lp619
sI5
(lp620
ssI1
(dp621
I0
g604
sI1
(lp622
sI2
(lp623
Vhttp://dbpedia.org/ontology/abstract
p624
aVhttp://www.w3.org/2000/01/rdf-schema#comment
p625
asI3
(lp626
sI4
(lp627
sI5
(lp628
ssI2
(dp629
I0
g605
sI1
g623
sI2
(lp630
sI3
(lp631
sI4
(lp632
sI5
(lp633
ssI3
(dp634
I0
g618
sI1
g626
sI2
g631
sI3
(lp635
sI4
(lp636
sI5
(lp637
ssI4
(dp638
I0
g619
sI1
g627
sI2
g632
sI3
g636
sI4
(lp639
sI5
(lp640
ssI5
(dp641
I0
g620
sI1
g628
sI2
g633
sI3
g637
sI4
g640
sI5
(lp642
ssa(dp643
I0
(dp644
I0
(lp645
sI1
(lp646
sI2
(lp647
Vhttp://dbpedia.org/property/origin
p648
aVhttp://dbpedia.org/ontology/country
p649
aVhttp://dbpedia.org/ontology/location
p650
aVhttp://dbpedia.org/property/city
p651
aVhttp://dbpedia.org/property/locationCountry
p652
aVhttp://dbpedia.org/property/location
p653
aVhttp://dbpedia.org/property/site
p654
aVhttp://dbpedia.org/ontology/hometown
p655
aVhttp://dbpedia.org/ontology/locationCountry
p656
aVhttp://dbpedia.org/property/basinCountries
p657
aVhttp://dbpedia.org/property/country
p658
aVhttp://dbpedia.org/ontology/populationPlace
p659
aVhttp://dbpedia.org/ontology/nationality
p660
aVhttp://dbpedia.org/property/subdivisionName
p661
aVhttp://dbpedia.org/ontology/sourceCountry
p662
aVhttp://dbpedia.org/property/headquarters
p663
asI3
(lp664
Vhttp://dbpedia.org/ontology/wikiPageExternalLink
p665
aVhttp://dbpedia.org/ontology/country
p666
aVhttp://dbpedia.org/property/currencyCode
p667
aVhttp://dbpedia.org/ontology/location
p668
aVhttp://dbpedia.org/property/origin
p669
aVhttp://dbpedia.org/ontology/abstract
p670
aVhttp://dbpedia.org/property/locationCountry
p671
aVhttp://dbpedia.org/property/location
p672
aVhttp://dbpedia.org/ontology/foundationPlace
p673
aVhttp://dbpedia.org/ontology/hometown
p674
aVhttp://dbpedia.org/ontology/locationCountry
p675
aVhttp://dbpedia.org/property/country
p676
aVhttp://dbpedia.org/property/subdivisionName
p677
asI4
(lp678
sI5
(lp679
ssI1
(dp680
I0
g646
sI1
(lp681
sI2
(lp682
sI3
(lp683
sI4
(lp684
sI5
(lp685
ssI2
(dp686
I0
g647
sI1
g682
sI2
(lp687
sI3
(lp688
sI4
(lp689
sI5
(lp690
ssI3
(dp691
I0
g664
sI1
g683
sI2
g688
sI3
(lp692
sI4
(lp693
sI5
(lp694
ssI4
(dp695
I0
g678
sI1
g684
sI2
g689
sI3
g693
sI4
(lp696
sI5
(lp697
ssI5
(dp698
I0
g679
sI1
g685
sI2
g690
sI3
g694
sI4
g697
sI5
(lp699
ssa(dp700
I0
(dp701
I0
(lp702
sI1
(lp703
sI2
(lp704
Vhttp://dbpedia.org/property/origin
p705
aVhttp://dbpedia.org/ontology/country
p706
aVhttp://dbpedia.org/ontology/location
p707
aVhttp://dbpedia.org/property/city
p708
aVhttp://dbpedia.org/property/locationCountry
p709
aVhttp://dbpedia.org/property/location
p710
aVhttp://dbpedia.org/property/site
p711
aVhttp://dbpedia.org/ontology/hometown
p712
aVhttp://dbpedia.org/ontology/locationCountry
p713
aVhttp://dbpedia.org/property/basinCountries
p714
aVhttp://dbpedia.org/property/country
p715
aVhttp://dbpedia.org/ontology/populationPlace
p716
aVhttp://dbpedia.org/ontology/nationality
p717
aVhttp://dbpedia.org/property/subdivisionName
p718
aVhttp://dbpedia.org/ontology/sourceCountry
p719
aVhttp://dbpedia.org/property/headquarters
p720
asI3
(lp721
Vhttp://dbpedia.org/ontology/wikiPageExternalLink
p722
aVhttp://dbpedia.org/ontology/country
p723
aVhttp://dbpedia.org/property/currencyCode
p724
aVhttp://dbpedia.org/ontology/location
p725
aVhttp://dbpedia.org/property/origin
p726
aVhttp://dbpedia.org/ontology/abstract
p727
aVhttp://dbpedia.org/property/locationCountry
p728
aVhttp://dbpedia.org/property/location
p729
aVhttp://dbpedia.org/ontology/foundationPlace
p730
aVhttp://dbpedia.org/ontology/hometown
p731
aVhttp://dbpedia.org/ontology/locationCountry
p732
aVhttp://dbpedia.org/property/country
p733
aVhttp://dbpedia.org/property/subdivisionName
p734
asI4
(lp735
sI5
(lp736
ssI1
(dp737
I0
g703
sI1
(lp738
sI2
(lp739
sI3
(lp740
Vhttp://dbpedia.org/ontology/abstract
p741
asI4
(lp742
sI5
(lp743
ssI2
(dp744
I0
g704
sI1
g739
sI2
(lp745
sI3
(lp746
sI4
(lp747
sI5
(lp748
ssI3
(dp749
I0
g721
sI1
g740
sI2
g746
sI3
(lp750
sI4
(lp751
sI5
(lp752
ssI4
(dp753
I0
g735
sI1
g742
sI2
g747
sI3
g751
sI4
(lp754
sI5
(lp755
ssI5
(dp756
I0
g736
sI1
g743
sI2
g748
sI3
g752
sI4
g755
sI5
(lp757
ssa(dp758
I0
(dp759
I0
(lp760
sI1
(lp761
sI2
(lp762
Vhttp://dbpedia.org/ontology/abstract
p763
asI3
(lp764
Vhttp://dbpedia.org/ontology/wikiPageExternalLink
p765
aVhttp://dbpedia.org/ontology/country
p766
aVhttp://dbpedia.org/property/currencyCode
p767
aVhttp://dbpedia.org/ontology/location
p768
aVhttp://dbpedia.org/property/origin
p769
aVhttp://dbpedia.org/ontology/abstract
p770
aVhttp://dbpedia.org/property/locationCountry
p771
aVhttp://dbpedia.org/property/location
p772
aVhttp://dbpedia.org/ontology/foundationPlace
p773
aVhttp://dbpedia.org/ontology/hometown
p774
aVhttp://dbpedia.org/ontology/locationCountry
p775
aVhttp://dbpedia.org/property/country
p776
aVhttp://dbpedia.org/property/subdivisionName
p777
asI4
(lp778
sI5
(lp779
ssI1
(dp780
I0
g761
sI1
(lp781
sI2
(lp782
sI3
(lp783
sI4
(lp784
sI5
(lp785
ssI2
(dp786
I0
g762
sI1
g782
sI2
(lp787
sI3
(lp788
Vhttp://dbpedia.org/ontology/wikiPageExternalLink
p789
aVhttp://dbpedia.org/ontology/deathPlace
p790
asI4
(lp791
sI5
(lp792
ssI3
(dp793
I0
g764
sI1
g783
sI2
g788
sI3
(lp794
sI4
(lp795
sI5
(lp796
ssI4
(dp797
I0
g778
sI1
g784
sI2
g791
sI3
g795
sI4
(lp798
sI5
(lp799
ssI5
(dp800
I0
g779
sI1
g785
sI2
g792
sI3
g796
sI4
g799
sI5
(lp801
ssa(dp802
I0
(dp803
I0
(lp804
sI1
(lp805
sI2
(lp806
Vhttp://dbpedia.org/ontology/abstract
p807
asI3
(lp808
Vhttp://dbpedia.org/ontology/wikiPageExternalLink
p809
aVhttp://dbpedia.org/ontology/country
p810
aVhttp://dbpedia.org/property/currencyCode
p811
aVhttp://dbpedia.org/ontology/location
p812
aVhttp://dbpedia.org/property/origin
p813
aVhttp://dbpedia.org/ontology/abstract
p814
aVhttp://dbpedia.org/property/locationCountry
p815
aVhttp://dbpedia.org/property/location
p816
aVhttp://dbpedia.org/ontology/foundationPlace
p817
aVhttp://dbpedia.org/ontology/hometown
p818
aVhttp://dbpedia.org/ontology/locationCountry
p819
aVhttp://dbpedia.org/property/country
p820
aVhttp://dbpedia.org/property/subdivisionName
p821
asI4
(lp822
sI5
(lp823
ssI1
(dp824
I0
g805
sI1
(lp825
sI2
(lp826
Vhttp://dbpedia.org/ontology/abstract
p827
aVhttp://www.w3.org/2000/01/rdf-schema#comment
p828
asI3
(lp829
sI4
(lp830
Vhttp://dbpedia.org/ontology/abstract
p831
aVhttp://www.w3.org/2000/01/rdf-schema#comment
p832
asI5
(lp833
ssI2
(dp834
I0
g806
sI1
g826
sI2
(lp835
sI3
(lp836
Vhttp://dbpedia.org/ontology/wikiPageExternalLink
p837
aVhttp://dbpedia.org/ontology/deathPlace
p838
asI4
(lp839
sI5
(lp840
ssI3
(dp841
I0
g808
sI1
g829
sI2
g836
sI3
(lp842
sI4
(lp843
sI5
(lp844
ssI4
(dp845
I0
g822
sI1
g830
sI2
g839
sI3
g843
sI4
(lp846
sI5
(lp847
ssI5
(dp848
I0
g823
sI1
g833
sI2
g840
sI3
g844
sI4
g847
sI5
(lp849
ssa(dp850
I0
(dp851
I0
(lp852
sI1
(lp853
sI2
(lp854
Vhttp://dbpedia.org/ontology/abstract
p855
asI3
(lp856
Vhttp://dbpedia.org/ontology/wikiPageExternalLink
p857
aVhttp://dbpedia.org/ontology/country
p858
aVhttp://dbpedia.org/property/currencyCode
p859
aVhttp://dbpedia.org/ontology/location
p860
aVhttp://dbpedia.org/property/origin
p861
aVhttp://dbpedia.org/ontology/abstract
p862
aVhttp://dbpedia.org/property/locationCountry
p863
aVhttp://dbpedia.org/property/location
p864
aVhttp://dbpedia.org/ontology/foundationPlace
p865
aVhttp://dbpedia.org/ontology/hometown
p866
aVhttp://dbpedia.org/ontology/locationCountry
p867
aVhttp://dbpedia.org/property/country
p868
aVhttp://dbpedia.org/property/subdivisionName
p869
asI4
(lp870
sI5
(lp871
ssI1
(dp872
I0
g853
sI1
(lp873
sI2
(lp874
sI3
(lp875
sI4
(lp876
sI5
(lp877
ssI2
(dp878
I0
g854
sI1
g874
sI2
(lp879
sI3
(lp880
Vhttp://dbpedia.org/ontology/wikiPageExternalLink
p881
aVhttp://dbpedia.org/ontology/deathPlace
p882
asI4
(lp883
sI5
(lp884
ssI3
(dp885
I0
g856
sI1
g875
sI2
g880
sI3
(lp886
sI4
(lp887
sI5
(lp888
ssI4
(dp889
I0
g870
sI1
g876
sI2
g883
sI3
g887
sI4
(lp890
sI5
(lp891
ssI5
(dp892
I0
g871
sI1
g877
sI2
g884
sI3
g888
sI4
g891
sI5
(lp893
ssa(dp894
I0
(dp895
I0
(lp896
sI1
(lp897
sI2
(lp898
Vhttp://dbpedia.org/ontology/abstract
p899
asI3
(lp900
Vhttp://dbpedia.org/ontology/wikiPageExternalLink
p901
aVhttp://dbpedia.org/ontology/country
p902
aVhttp://dbpedia.org/property/currencyCode
p903
aVhttp://dbpedia.org/ontology/location
p904
aVhttp://dbpedia.org/property/origin
p905
aVhttp://dbpedia.org/ontology/abstract
p906
aVhttp://dbpedia.org/property/locationCountry
p907
aVhttp://dbpedia.org/property/location
p908
aVhttp://dbpedia.org/ontology/foundationPlace
p909
aVhttp://dbpedia.org/ontology/hometown
p910
aVhttp://dbpedia.org/ontology/locationCountry
p911
aVhttp://dbpedia.org/property/country
p912
aVhttp://dbpedia.org/property/subdivisionName
p913
asI4
(lp914
sI5
(lp915
ssI1
(dp916
I0
g897
sI1
(lp917
sI2
(lp918
sI3
(lp919
sI4
(lp920
sI5
(lp921
ssI2
(dp922
I0
g898
sI1
g918
sI2
(lp923
sI3
(lp924
Vhttp://dbpedia.org/ontology/wikiPageExternalLink
p925
aVhttp://dbpedia.org/ontology/deathPlace
p926
asI4
(lp927
sI5
(lp928
ssI3
(dp929
I0
g900
sI1
g919
sI2
g924
sI3
(lp930
sI4
(lp931
sI5
(lp932
ssI4
(dp933
I0
g914
sI1
g920
sI2
g927
sI3
g931
sI4
(lp934
sI5
(lp935
ssI5
(dp936
I0
g915
sI1
g921
sI2
g928
sI3
g932
sI4
g935
sI5
(lp937
ssa(dp938
I0
(dp939
I0
(lp940
sI1
(lp941
sI2
(lp942
Vhttp://dbpedia.org/ontology/abstract
p943
asI3
(lp944
Vhttp://dbpedia.org/ontology/wikiPageExternalLink
p945
aVhttp://dbpedia.org/ontology/country
p946
aVhttp://dbpedia.org/property/currencyCode
p947
aVhttp://dbpedia.org/ontology/location
p948
aVhttp://dbpedia.org/property/origin
p949
aVhttp://dbpedia.org/ontology/abstract
p950
aVhttp://dbpedia.org/property/locationCountry
p951
aVhttp://dbpedia.org/property/location
p952
aVhttp://dbpedia.org/ontology/foundationPlace
p953
aVhttp://dbpedia.org/ontology/hometown
p954
aVhttp://dbpedia.org/ontology/locationCountry
p955
aVhttp://dbpedia.org/property/country
p956
aVhttp://dbpedia.org/property/subdivisionName
p957
asI4
(lp958
sI5
(lp959
ssI1
(dp960
I0
g941
sI1
(lp961
sI2
(lp962
sI3
(lp963
sI4
(lp964
sI5
(lp965
ssI2
(dp966
I0
g942
sI1
g962
sI2
(lp967
sI3
(lp968
Vhttp://dbpedia.org/ontology/wikiPageExternalLink
p969
aVhttp://dbpedia.org/ontology/deathPlace
p970
asI4
(lp971
sI5
(lp972
ssI3
(dp973
I0
g944
sI1
g963
sI2
g968
sI3
(lp974
sI4
(lp975
sI5
(lp976
ssI4
(dp977
I0
g958
sI1
g964
sI2
g971
sI3
g975
sI4
(lp978
sI5
(lp979
ssI5
(dp980
I0
g959
sI1
g965
sI2
g972
sI3
g976
sI4
g979
sI5
(lp981
ssa(dp982
I0
(dp983
I0
(lp984
sI1
(lp985
sI2
(lp986
Vhttp://dbpedia.org/ontology/abstract
p987
asI3
(lp988
Vhttp://dbpedia.org/ontology/wikiPageExternalLink
p989
aVhttp://dbpedia.org/ontology/country
p990
aVhttp://dbpedia.org/property/currencyCode
p991
aVhttp://dbpedia.org/ontology/location
p992
aVhttp://dbpedia.org/property/origin
p993
aVhttp://dbpedia.org/ontology/abstract
p994
aVhttp://dbpedia.org/property/locationCountry
p995
aVhttp://dbpedia.org/property/location
p996
aVhttp://dbpedia.org/ontology/foundationPlace
p997
aVhttp://dbpedia.org/ontology/hometown
p998
aVhttp://dbpedia.org/ontology/locationCountry
p999
aVhttp://dbpedia.org/property/country
p1000
aVhttp://dbpedia.org/property/subdivisionName
p1001
asI4
(lp1002
sI5
(lp1003
ssI1
(dp1004
I0
g985
sI1
(lp1005
sI2
(lp1006
sI3
(lp1007
sI4
(lp1008
sI5
(lp1009
ssI2
(dp1010
I0
g986
sI1
g1006
sI2
(lp1011
sI3
(lp1012
Vhttp://dbpedia.org/ontology/wikiPageExternalLink
p1013
aVhttp://dbpedia.org/ontology/deathPlace
p1014
asI4
(lp1015
sI5
(lp1016
ssI3
(dp1017
I0
g988
sI1
g1007
sI2
g1012
sI3
(lp1018
sI4
(lp1019
sI5
(lp1020
ssI4
(dp1021
I0
g1002
sI1
g1008
sI2
g1015
sI3
g1019
sI4
(lp1022
sI5
(lp1023
ssI5
(dp1024
I0
g1003
sI1
g1009
sI2
g1016
sI3
g1020
sI4
g1023
sI5
(lp1025
ssa(dp1026
I0
(dp1027
I0
(lp1028
sI1
(lp1029
sI2
(lp1030
Vhttp://dbpedia.org/ontology/abstract
p1031
asI3
(lp1032
Vhttp://dbpedia.org/ontology/wikiPageExternalLink
p1033
aVhttp://dbpedia.org/ontology/country
p1034
aVhttp://dbpedia.org/property/currencyCode
p1035
aVhttp://dbpedia.org/ontology/location
p1036
aVhttp://dbpedia.org/property/origin
p1037
aVhttp://dbpedia.org/ontology/abstract
p1038
aVhttp://dbpedia.org/property/locationCountry
p1039
aVhttp://dbpedia.org/property/location
p1040
aVhttp://dbpedia.org/ontology/foundationPlace
p1041
aVhttp://dbpedia.org/ontology/hometown
p1042
aVhttp://dbpedia.org/ontology/locationCountry
p1043
aVhttp://dbpedia.org/property/country
p1044
aVhttp://dbpedia.org/property/subdivisionName
p1045
asI4
(lp1046
sI5
(lp1047
ssI1
(dp1048
I0
g1029
sI1
(lp1049
sI2
(lp1050
Vhttp://www.w3.org/2000/01/rdf-schema#comment
p1051
aVhttp://dbpedia.org/ontology/abstract
p1052
aVhttp://dbpedia.org/property/name
p1053
aVhttp://dbpedia.org/property/locationCity
p1054
aVhttp://xmlns.com/foaf/0.1/name
p1055
aVhttp://www.w3.org/2000/01/rdf-schema#label
p1056
asI3
(lp1057
sI4
(lp1058
sI5
(lp1059
ssI2
(dp1060
I0
g1030
sI1
g1050
sI2
(lp1061
sI3
(lp1062
Vhttp://dbpedia.org/ontology/wikiPageExternalLink
p1063
aVhttp://dbpedia.org/ontology/deathPlace
p1064
asI4
(lp1065
sI5
(lp1066
ssI3
(dp1067
I0
g1032
sI1
g1057
sI2
g1062
sI3
(lp1068
sI4
(lp1069
sI5
(lp1070
ssI4
(dp1071
I0
g1046
sI1
g1058
sI2
g1065
sI3
g1069
sI4
(lp1072
sI5
(lp1073
ssI5
(dp1074
I0
g1047
sI1
g1059
sI2
g1066
sI3
g1070
sI4
g1073
sI5
(lp1075
ssa(dp1076
I0
(dp1077
I0
(lp1078
sI1
(lp1079
sI2
(lp1080
Vhttp://dbpedia.org/ontology/abstract
p1081
asI3
(lp1082
Vhttp://dbpedia.org/ontology/wikiPageExternalLink
p1083
aVhttp://dbpedia.org/ontology/country
p1084
aVhttp://dbpedia.org/property/currencyCode
p1085
aVhttp://dbpedia.org/ontology/location
p1086
aVhttp://dbpedia.org/property/origin
p1087
aVhttp://dbpedia.org/ontology/abstract
p1088
aVhttp://dbpedia.org/property/locationCountry
p1089
aVhttp://dbpedia.org/property/location
p1090
aVhttp://dbpedia.org/ontology/foundationPlace
p1091
aVhttp://dbpedia.org/ontology/hometown
p1092
aVhttp://dbpedia.org/ontology/locationCountry
p1093
aVhttp://dbpedia.org/property/country
p1094
aVhttp://dbpedia.org/property/subdivisionName
p1095
asI4
(lp1096
sI5
(lp1097
ssI1
(dp1098
I0
g1079
sI1
(lp1099
sI2
(lp1100
Vhttp://dbpedia.org/property/foundation
p1101
asI3
(lp1102
Vhttp://dbpedia.org/ontology/abstract
p1103
asI4
(lp1104
sI5
(lp1105
ssI2
(dp1106
I0
g1080
sI1
g1100
sI2
(lp1107
sI3
(lp1108
Vhttp://dbpedia.org/ontology/wikiPageExternalLink
p1109
aVhttp://dbpedia.org/ontology/deathPlace
p1110
asI4
(lp1111
sI5
(lp1112
ssI3
(dp1113
I0
g1082
sI1
g1102
sI2
g1108
sI3
(lp1114
sI4
(lp1115
sI5
(lp1116
ssI4
(dp1117
I0
g1096
sI1
g1104
sI2
g1111
sI3
g1115
sI4
(lp1118
sI5
(lp1119
ssI5
(dp1120
I0
g1097
sI1
g1105
sI2
g1112
sI3
g1116
sI4
g1119
sI5
(lp1121
ssa.