(lp1
(lp2
(lp3
((lp4
Vhttp://www.w3.org/2002/07/owl#Thing
p5
aVhttp://dbpedia.org/ontology/Place
p6
aVhttp://dbpedia.org/ontology/Location
p7
aVhttp://www.wikidata.org/entity/Q486972
p8
aVhttp://www.wikidata.org/entity/Q6256
p9
aVhttp://dbpedia.org/ontology/Country
p10
aVhttp://dbpedia.org/ontology/PopulatedPlace
p11
aVhttp://www.w3.org/2003/01/geo/wgs84_pos#SpatialThing
p12
aVhttp://schema.org/Country
p13
aVhttp://schema.org/Place
p14
aVhttp://umbel.org/umbel/rc/Country
p15
aVhttp://umbel.org/umbel/rc/Location_Underspecified
p16
aVhttp://umbel.org/umbel/rc/PopulatedPlace
p17
aVhttp://dbpedia.org/class/yago/Abstraction100002137
p18
aVhttp://dbpedia.org/class/yago/AdministrativeDistrict108491826
p19
aVhttp://dbpedia.org/class/yago/AlpineCountries
p20
aVhttp://dbpedia.org/class/yago/Country108544813
p21
aVhttp://dbpedia.org/class/yago/District108552138
p22
aVhttp://dbpedia.org/class/yago/Economy108366753
p23
aVhttp://dbpedia.org/class/yago/Group100031264
p24
aVhttp://dbpedia.org/class/yago/Location100027167
p25
aVhttp://dbpedia.org/class/yago/Object100002684
p26
aVhttp://dbpedia.org/class/yago/Region108630985
p27
aVhttp://dbpedia.org/class/yago/System108435388
p28
aVhttp://dbpedia.org/class/yago/YagoGeoEntity
p29
aVhttp://dbpedia.org/class/yago/YagoLegalActorGeo
p30
aVhttp://dbpedia.org/class/yago/CountriesBorderingTheAtlanticOcean
p31
aVhttp://dbpedia.org/class/yago/CountriesBorderingTheBalticSea
p32
aVhttp://dbpedia.org/class/yago/EuropeanCountries
p33
aVhttp://dbpedia.org/class/yago/EuropeanUnionMemberEconomies
p34
aVhttp://dbpedia.org/class/yago/FederalCountries
p35
aVhttp://dbpedia.org/class/yago/PhysicalEntity100001930
p36
aVhttp://dbpedia.org/class/yago/YagoPermanentlyLocatedEntity
p37
aVhttp://dbpedia.org/class/yago/German-speakingCountries
p38
aVhttp://dbpedia.org/class/yago/MemberStatesOfNATO
p39
aVhttp://dbpedia.org/class/yago/MemberStatesOfTheEuropeanUnion
p40
aVhttp://dbpedia.org/class/yago/MemberStatesOfTheUnionForTheMediterranean
p41
aVhttp://dbpedia.org/class/yago/MemberStatesOfTheUnitedNations
p42
aVhttp://dbpedia.org/class/yago/StatesAndTerritoriesEstablishedIn1871
p43
aVhttp://dbpedia.org/resource/Germany
tp44
aa(lp45
((lp46
Vhttp://www.w3.org/2002/07/owl#Thing
p47
aVhttp://dbpedia.org/ontology/Company
p48
aVhttp://www.ontologydesignpatterns.org/ont/dul/DUL.owl#Agent
p49
aVhttp://www.ontologydesignpatterns.org/ont/dul/DUL.owl#SocialPerson
p50
aVhttp://www.wikidata.org/entity/Q43229
p51
aVhttp://dbpedia.org/ontology/Agent
p52
aVhttp://dbpedia.org/ontology/Organisation
p53
aVhttp://schema.org/Organization
p54
aVhttp://umbel.org/umbel/rc/Business
p55
aVhttp://umbel.org/umbel/rc/Organization
p56
aVhttp://dbpedia.org/class/yago/Abstraction100002137
p57
aVhttp://dbpedia.org/class/yago/BanksEstablishedIn1870
p58
aVhttp://dbpedia.org/class/yago/BanksOfGermany
p59
aVhttp://dbpedia.org/class/yago/Company108058098
p60
aVhttp://dbpedia.org/class/yago/DepositoryFinancialInstitution108420278
p61
aVhttp://dbpedia.org/class/yago/FinancialInstitution108054721
p62
aVhttp://dbpedia.org/class/yago/Group100031264
p63
aVhttp://dbpedia.org/class/yago/Institution108053576
p64
aVhttp://dbpedia.org/class/yago/Organization108008335
p65
aVhttp://dbpedia.org/class/yago/SocialGroup107950920
p66
aVhttp://dbpedia.org/class/yago/YagoLegalActorGeo
p67
aVhttp://dbpedia.org/class/yago/CompaniesBasedInFrankfurt
p68
aVhttp://dbpedia.org/class/yago/YagoPermanentlyLocatedEntity
p69
aVhttp://dbpedia.org/class/yago/YagoLegalActor
p70
aVhttp://dbpedia.org/resource/Commerzbank
tp71
aa(lp72
a(lp73
a(lp74
a(lp75
aa(lp76
(lp77
((lp78
Vhttp://www.w3.org/2002/07/owl#Thing
p79
aVhttp://dbpedia.org/ontology/Place
p80
aVhttp://dbpedia.org/ontology/Location
p81
aVhttp://www.wikidata.org/entity/Q486972
p82
aVhttp://www.wikidata.org/entity/Q6256
p83
aVhttp://dbpedia.org/ontology/Country
p84
aVhttp://dbpedia.org/ontology/PopulatedPlace
p85
aVhttp://www.w3.org/2003/01/geo/wgs84_pos#SpatialThing
p86
aVhttp://schema.org/Country
p87
aVhttp://schema.org/Place
p88
aVhttp://umbel.org/umbel/rc/Country
p89
aVhttp://umbel.org/umbel/rc/Location_Underspecified
p90
aVhttp://umbel.org/umbel/rc/PopulatedPlace
p91
aVhttp://dbpedia.org/class/yago/Abstraction100002137
p92
aVhttp://dbpedia.org/class/yago/AdministrativeDistrict108491826
p93
aVhttp://dbpedia.org/class/yago/AlpineCountries
p94
aVhttp://dbpedia.org/class/yago/Country108544813
p95
aVhttp://dbpedia.org/class/yago/District108552138
p96
aVhttp://dbpedia.org/class/yago/Economy108366753
p97
aVhttp://dbpedia.org/class/yago/Group100031264
p98
aVhttp://dbpedia.org/class/yago/Location100027167
p99
aVhttp://dbpedia.org/class/yago/Object100002684
p100
aVhttp://dbpedia.org/class/yago/Region108630985
p101
aVhttp://dbpedia.org/class/yago/System108435388
p102
aVhttp://dbpedia.org/class/yago/YagoGeoEntity
p103
aVhttp://dbpedia.org/class/yago/YagoLegalActorGeo
p104
aVhttp://dbpedia.org/class/yago/CountriesBorderingTheAtlanticOcean
p105
aVhttp://dbpedia.org/class/yago/CountriesBorderingTheBalticSea
p106
aVhttp://dbpedia.org/class/yago/EuropeanCountries
p107
aVhttp://dbpedia.org/class/yago/EuropeanUnionMemberEconomies
p108
aVhttp://dbpedia.org/class/yago/FederalCountries
p109
aVhttp://dbpedia.org/class/yago/PhysicalEntity100001930
p110
aVhttp://dbpedia.org/class/yago/YagoPermanentlyLocatedEntity
p111
aVhttp://dbpedia.org/class/yago/German-speakingCountries
p112
aVhttp://dbpedia.org/class/yago/MemberStatesOfNATO
p113
aVhttp://dbpedia.org/class/yago/MemberStatesOfTheEuropeanUnion
p114
aVhttp://dbpedia.org/class/yago/MemberStatesOfTheUnionForTheMediterranean
p115
aVhttp://dbpedia.org/class/yago/MemberStatesOfTheUnitedNations
p116
aVhttp://dbpedia.org/class/yago/StatesAndTerritoriesEstablishedIn1871
p117
aVhttp://dbpedia.org/resource/Germany
tp118
aa(lp119
((lp120
Vhttp://www.w3.org/2002/07/owl#Thing
p121
aVhttp://dbpedia.org/ontology/Company
p122
aVhttp://www.ontologydesignpatterns.org/ont/dul/DUL.owl#Agent
p123
aVhttp://www.ontologydesignpatterns.org/ont/dul/DUL.owl#SocialPerson
p124
aVhttp://www.wikidata.org/entity/Q43229
p125
aVhttp://dbpedia.org/ontology/Agent
p126
aVhttp://dbpedia.org/ontology/Bank
p127
aVhttp://dbpedia.org/ontology/Organisation
p128
aVhttp://schema.org/BankOrCreditUnion
p129
aVhttp://schema.org/Organization
p130
aVhttp://umbel.org/umbel/rc/Business
p131
aVhttp://umbel.org/umbel/rc/Organization
p132
aVhttp://dbpedia.org/class/yago/Abstraction100002137
p133
aVhttp://dbpedia.org/class/yago/BanksEstablishedIn1870
p134
aVhttp://dbpedia.org/class/yago/BanksOfGermany
p135
aVhttp://dbpedia.org/class/yago/Company108058098
p136
aVhttp://dbpedia.org/class/yago/DepositoryFinancialInstitution108420278
p137
aVhttp://dbpedia.org/class/yago/FinancialInstitution108054721
p138
aVhttp://dbpedia.org/class/yago/Group100031264
p139
aVhttp://dbpedia.org/class/yago/Institution108053576
p140
aVhttp://dbpedia.org/class/yago/Organization108008335
p141
aVhttp://dbpedia.org/class/yago/SocialGroup107950920
p142
aVhttp://dbpedia.org/class/yago/YagoLegalActorGeo
p143
aVhttp://dbpedia.org/class/yago/CompaniesBasedInFrankfurt
p144
aVhttp://dbpedia.org/class/yago/CompaniesListedOnTheFrankfurtStockExchange
p145
aVhttp://dbpedia.org/class/yago/YagoPermanentlyLocatedEntity
p146
aVhttp://dbpedia.org/class/yago/InvestmentBanks
p147
aVhttp://dbpedia.org/class/yago/YagoLegalActor
p148
aVhttp://dbpedia.org/class/yago/RegisteredBanksOfNewZealand
p149
aVhttp://dbpedia.org/resource/Deutsche_Bank
tp150
aa(lp151
a(lp152
((lp153
Vhttp://www.w3.org/2002/07/owl#Thing
p154
aVhttp://dbpedia.org/ontology/Place
p155
aVhttp://dbpedia.org/ontology/Location
p156
aVhttp://www.wikidata.org/entity/Q3455524
p157
aVhttp://www.wikidata.org/entity/Q486972
p158
aVhttp://dbpedia.org/ontology/AdministrativeRegion
p159
aVhttp://dbpedia.org/ontology/PopulatedPlace
p160
aVhttp://dbpedia.org/ontology/Region
p161
aVhttp://www.w3.org/2003/01/geo/wgs84_pos#SpatialThing
p162
aVhttp://schema.org/AdministrativeArea
p163
aVhttp://schema.org/Place
p164
aVhttp://dbpedia.org/class/yago/AdministrativeDistrict108491826
p165
aVhttp://dbpedia.org/class/yago/District108552138
p166
aVhttp://dbpedia.org/class/yago/Location100027167
p167
aVhttp://dbpedia.org/class/yago/Object100002684
p168
aVhttp://dbpedia.org/class/yago/Region108630985
p169
aVhttp://dbpedia.org/class/yago/Town108665504
p170
aVhttp://dbpedia.org/class/yago/UrbanArea108675967
p171
aVhttp://dbpedia.org/class/yago/YagoGeoEntity
p172
aVhttp://dbpedia.org/class/yago/YagoLegalActorGeo
p173
aVhttp://dbpedia.org/class/yago/GeographicalArea108574314
p174
aVhttp://dbpedia.org/class/yago/GhostTown108671509
p175
aVhttp://dbpedia.org/class/yago/Municipality108626283
p176
aVhttp://dbpedia.org/class/yago/PhysicalEntity100001930
p177
aVhttp://dbpedia.org/class/yago/YagoPermanentlyLocatedEntity
p178
aVhttp://dbpedia.org/class/yago/GhostTownsInWesternAustralia
p179
aVhttp://dbpedia.org/resource/Euro,_Western_Australia
tp180
aa(lp181
a(lp182
aa(lp183
(lp184
((lp185
Vhttp://www.w3.org/2002/07/owl#Thing
p186
aVhttp://dbpedia.org/ontology/Place
p187
aVhttp://dbpedia.org/ontology/Location
p188
aVhttp://www.wikidata.org/entity/Q486972
p189
aVhttp://www.wikidata.org/entity/Q6256
p190
aVhttp://dbpedia.org/ontology/Country
p191
aVhttp://dbpedia.org/ontology/PopulatedPlace
p192
aVhttp://www.w3.org/2003/01/geo/wgs84_pos#SpatialThing
p193
aVhttp://schema.org/Country
p194
aVhttp://schema.org/Place
p195
aVhttp://umbel.org/umbel/rc/Country
p196
aVhttp://umbel.org/umbel/rc/Location_Underspecified
p197
aVhttp://umbel.org/umbel/rc/PopulatedPlace
p198
aVhttp://dbpedia.org/class/yago/Abstraction100002137
p199
aVhttp://dbpedia.org/class/yago/AdministrativeDistrict108491826
p200
aVhttp://dbpedia.org/class/yago/AlpineCountries
p201
aVhttp://dbpedia.org/class/yago/Country108544813
p202
aVhttp://dbpedia.org/class/yago/District108552138
p203
aVhttp://dbpedia.org/class/yago/Economy108366753
p204
aVhttp://dbpedia.org/class/yago/Group100031264
p205
aVhttp://dbpedia.org/class/yago/Location100027167
p206
aVhttp://dbpedia.org/class/yago/Object100002684
p207
aVhttp://dbpedia.org/class/yago/Region108630985
p208
aVhttp://dbpedia.org/class/yago/System108435388
p209
aVhttp://dbpedia.org/class/yago/YagoGeoEntity
p210
aVhttp://dbpedia.org/class/yago/YagoLegalActorGeo
p211
aVhttp://dbpedia.org/class/yago/CountriesBorderingTheAtlanticOcean
p212
aVhttp://dbpedia.org/class/yago/CountriesBorderingTheBalticSea
p213
aVhttp://dbpedia.org/class/yago/EuropeanCountries
p214
aVhttp://dbpedia.org/class/yago/EuropeanUnionMemberEconomies
p215
aVhttp://dbpedia.org/class/yago/FederalCountries
p216
aVhttp://dbpedia.org/class/yago/PhysicalEntity100001930
p217
aVhttp://dbpedia.org/class/yago/YagoPermanentlyLocatedEntity
p218
aVhttp://dbpedia.org/class/yago/German-speakingCountries
p219
aVhttp://dbpedia.org/class/yago/MemberStatesOfNATO
p220
aVhttp://dbpedia.org/class/yago/MemberStatesOfTheEuropeanUnion
p221
aVhttp://dbpedia.org/class/yago/MemberStatesOfTheUnionForTheMediterranean
p222
aVhttp://dbpedia.org/class/yago/MemberStatesOfTheUnitedNations
p223
aVhttp://dbpedia.org/class/yago/StatesAndTerritoriesEstablishedIn1871
p224
aVhttp://dbpedia.org/resource/Germany
tp225
aa(lp226
a(lp227
a(lp228
((lp229
Vhttp://www.w3.org/2002/07/owl#Thing
p230
aVhttp://dbpedia.org/ontology/Place
p231
aVhttp://dbpedia.org/ontology/Location
p232
aVhttp://www.wikidata.org/entity/Q3455524
p233
aVhttp://www.wikidata.org/entity/Q486972
p234
aVhttp://dbpedia.org/ontology/AdministrativeRegion
p235
aVhttp://dbpedia.org/ontology/PopulatedPlace
p236
aVhttp://dbpedia.org/ontology/Region
p237
aVhttp://www.w3.org/2003/01/geo/wgs84_pos#SpatialThing
p238
aVhttp://schema.org/AdministrativeArea
p239
aVhttp://schema.org/Place
p240
aVhttp://dbpedia.org/class/yago/AdministrativeDistrict108491826
p241
aVhttp://dbpedia.org/class/yago/District108552138
p242
aVhttp://dbpedia.org/class/yago/Location100027167
p243
aVhttp://dbpedia.org/class/yago/Object100002684
p244
aVhttp://dbpedia.org/class/yago/Region108630985
p245
aVhttp://dbpedia.org/class/yago/Town108665504
p246
aVhttp://dbpedia.org/class/yago/UrbanArea108675967
p247
aVhttp://dbpedia.org/class/yago/YagoGeoEntity
p248
aVhttp://dbpedia.org/class/yago/YagoLegalActorGeo
p249
aVhttp://dbpedia.org/class/yago/GeographicalArea108574314
p250
aVhttp://dbpedia.org/class/yago/GhostTown108671509
p251
aVhttp://dbpedia.org/class/yago/Municipality108626283
p252
aVhttp://dbpedia.org/class/yago/PhysicalEntity100001930
p253
aVhttp://dbpedia.org/class/yago/YagoPermanentlyLocatedEntity
p254
aVhttp://dbpedia.org/class/yago/GhostTownsInWesternAustralia
p255
aVhttp://dbpedia.org/resource/Euro,_Western_Australia
tp256
aa(lp257
a(lp258
aa(lp259
(lp260
((lp261
Vhttp://www.w3.org/2002/07/owl#Thing
p262
aVhttp://dbpedia.org/ontology/Place
p263
aVhttp://dbpedia.org/ontology/Location
p264
aVhttp://www.wikidata.org/entity/Q486972
p265
aVhttp://www.wikidata.org/entity/Q6256
p266
aVhttp://dbpedia.org/ontology/Country
p267
aVhttp://dbpedia.org/ontology/PopulatedPlace
p268
aVhttp://www.w3.org/2003/01/geo/wgs84_pos#SpatialThing
p269
aVhttp://schema.org/Country
p270
aVhttp://schema.org/Place
p271
aVhttp://umbel.org/umbel/rc/Country
p272
aVhttp://umbel.org/umbel/rc/Location_Underspecified
p273
aVhttp://umbel.org/umbel/rc/PopulatedPlace
p274
aVhttp://dbpedia.org/class/yago/Abstraction100002137
p275
aVhttp://dbpedia.org/class/yago/AdministrativeDistrict108491826
p276
aVhttp://dbpedia.org/class/yago/Country108544813
p277
aVhttp://dbpedia.org/class/yago/District108552138
p278
aVhttp://dbpedia.org/class/yago/Economy108366753
p279
aVhttp://dbpedia.org/class/yago/Group100031264
p280
aVhttp://dbpedia.org/class/yago/Location100027167
p281
aVhttp://dbpedia.org/class/yago/Object100002684
p282
aVhttp://dbpedia.org/class/yago/Region108630985
p283
aVhttp://dbpedia.org/class/yago/System108435388
p284
aVhttp://dbpedia.org/class/yago/YagoGeoEntity
p285
aVhttp://dbpedia.org/class/yago/YagoLegalActorGeo
p286
aVhttp://dbpedia.org/class/yago/CountriesBorderingTheArcticOcean
p287
aVhttp://dbpedia.org/class/yago/CountriesBorderingTheAtlanticOcean
p288
aVhttp://dbpedia.org/class/yago/CountriesBorderingThePacificOcean
p289
aVhttp://dbpedia.org/class/yago/English-speakingCountriesAndTerritories
p290
aVhttp://dbpedia.org/class/yago/FederalCountries
p291
aVhttp://dbpedia.org/class/yago/French-speakingCountries
p292
aVhttp://dbpedia.org/class/yago/PhysicalEntity100001930
p293
aVhttp://dbpedia.org/class/yago/YagoPermanentlyLocatedEntity
p294
aVhttp://dbpedia.org/class/yago/MemberStatesOfLaFrancophonie
p295
aVhttp://dbpedia.org/class/yago/MemberStatesOfNATO
p296
aVhttp://dbpedia.org/class/yago/MemberStatesOfTheCommonwealthOfNations
p297
aVhttp://dbpedia.org/class/yago/MemberStatesOfTheUnitedNations
p298
aVhttp://dbpedia.org/class/yago/NorthernAmericanCountries
p299
aVhttp://dbpedia.org/class/yago/StatesAndTerritoriesEstablishedIn1867
p300
aVhttp://dbpedia.org/resource/Canada
tp301
aa(lp302
((lp303
Vhttp://www.w3.org/2002/07/owl#Thing
p304
aVhttp://dbpedia.org/ontology/Company
p305
aVhttp://www.ontologydesignpatterns.org/ont/dul/DUL.owl#Agent
p306
aVhttp://www.ontologydesignpatterns.org/ont/dul/DUL.owl#SocialPerson
p307
aVhttp://www.wikidata.org/entity/Q43229
p308
aVhttp://dbpedia.org/ontology/Agent
p309
aVhttp://dbpedia.org/ontology/Bank
p310
aVhttp://dbpedia.org/ontology/Organisation
p311
aVhttp://schema.org/BankOrCreditUnion
p312
aVhttp://schema.org/Organization
p313
aVhttp://umbel.org/umbel/rc/Business
p314
aVhttp://umbel.org/umbel/rc/Organization
p315
aVhttp://dbpedia.org/class/yago/Abstraction100002137
p316
aVhttp://dbpedia.org/class/yago/BanksOfCanada
p317
aVhttp://dbpedia.org/class/yago/BanksOfTheCaribbean
p318
aVhttp://dbpedia.org/class/yago/Company108058098
p319
aVhttp://dbpedia.org/class/yago/DepositoryFinancialInstitution108420278
p320
aVhttp://dbpedia.org/class/yago/FinancialInstitution108054721
p321
aVhttp://dbpedia.org/class/yago/Group100031264
p322
aVhttp://dbpedia.org/class/yago/Institution108053576
p323
aVhttp://dbpedia.org/class/yago/Organization108008335
p324
aVhttp://dbpedia.org/class/yago/SocialGroup107950920
p325
aVhttp://dbpedia.org/class/yago/YagoLegalActorGeo
p326
aVhttp://dbpedia.org/class/yago/CompaniesBasedInToronto
p327
aVhttp://dbpedia.org/class/yago/CompaniesEstablishedIn1864
p328
aVhttp://dbpedia.org/class/yago/YagoPermanentlyLocatedEntity
p329
aVhttp://dbpedia.org/class/yago/YagoLegalActor
p330
aVhttp://dbpedia.org/resource/Royal_Bank_of_Canada
tp331
aa(lp332
a(lp333
((lp334
Vhttp://www.w3.org/2002/07/owl#Thing
p335
aVhttp://dbpedia.org/class/yago/Abstraction100002137
p336
aVhttp://dbpedia.org/class/yago/AdministrativeUnit108077292
p337
aVhttp://dbpedia.org/class/yago/Agency108337324
p338
aVhttp://dbpedia.org/class/yago/Group100031264
p339
aVhttp://dbpedia.org/class/yago/Organization108008335
p340
aVhttp://dbpedia.org/class/yago/SocialGroup107950920
p341
aVhttp://dbpedia.org/class/yago/Unit108189659
p342
aVhttp://dbpedia.org/class/yago/YagoLegalActorGeo
p343
aVhttp://dbpedia.org/class/yago/YagoPermanentlyLocatedEntity
p344
aVhttp://dbpedia.org/class/yago/YagoLegalActor
p345
aVhttp://dbpedia.org/resource/United_States_Department_of_Defense
tp346
aa(lp347
a(lp348
aa(lp349
(lp350
((lp351
Vhttp://www.w3.org/2002/07/owl#Thing
p352
aVhttp://dbpedia.org/ontology/Place
p353
aVhttp://dbpedia.org/ontology/Location
p354
aVhttp://www.wikidata.org/entity/Q486972
p355
aVhttp://www.wikidata.org/entity/Q6256
p356
aVhttp://dbpedia.org/ontology/Country
p357
aVhttp://dbpedia.org/ontology/PopulatedPlace
p358
aVhttp://www.w3.org/2003/01/geo/wgs84_pos#SpatialThing
p359
aVhttp://schema.org/Country
p360
aVhttp://schema.org/Place
p361
aVhttp://umbel.org/umbel/rc/Country
p362
aVhttp://umbel.org/umbel/rc/Location_Underspecified
p363
aVhttp://umbel.org/umbel/rc/PopulatedPlace
p364
aVhttp://dbpedia.org/class/yago/Abstraction100002137
p365
aVhttp://dbpedia.org/class/yago/AdministrativeDistrict108491826
p366
aVhttp://dbpedia.org/class/yago/BicontinentalCountries
p367
aVhttp://dbpedia.org/class/yago/Country108544813
p368
aVhttp://dbpedia.org/class/yago/District108552138
p369
aVhttp://dbpedia.org/class/yago/Economy108366753
p370
aVhttp://dbpedia.org/class/yago/Group100031264
p371
aVhttp://dbpedia.org/class/yago/Location100027167
p372
aVhttp://dbpedia.org/class/yago/Object100002684
p373
aVhttp://dbpedia.org/class/yago/Region108630985
p374
aVhttp://dbpedia.org/class/yago/System108435388
p375
aVhttp://dbpedia.org/class/yago/YagoGeoEntity
p376
aVhttp://dbpedia.org/class/yago/YagoLegalActorGeo
p377
aVhttp://dbpedia.org/class/yago/CountriesBorderingTheAtlanticOcean
p378
aVhttp://dbpedia.org/class/yago/CountriesOfTheMediterraneanSea
p379
aVhttp://dbpedia.org/class/yago/EuropeanCountries
p380
aVhttp://dbpedia.org/class/yago/EuropeanUnionMemberEconomies
p381
aVhttp://dbpedia.org/class/yago/PhysicalEntity100001930
p382
aVhttp://dbpedia.org/class/yago/YagoPermanentlyLocatedEntity
p383
aVhttp://dbpedia.org/class/yago/MemberStatesOfNATO
p384
aVhttp://dbpedia.org/class/yago/MemberStatesOfTheEuropeanUnion
p385
aVhttp://dbpedia.org/class/yago/MemberStatesOfTheUnionForTheMediterranean
p386
aVhttp://dbpedia.org/class/yago/MemberStatesOfTheUnitedNations
p387
aVhttp://dbpedia.org/class/yago/Spanish-speakingCountries
p388
aVhttp://dbpedia.org/class/yago/WorldTradeOrganizationMemberEconomies
p389
aVhttp://dbpedia.org/resource/Spain
tp390
aa(lp391
((lp392
Vhttp://www.w3.org/2002/07/owl#Thing
p393
aVhttp://dbpedia.org/ontology/Company
p394
aVhttp://www.ontologydesignpatterns.org/ont/dul/DUL.owl#Agent
p395
aVhttp://www.ontologydesignpatterns.org/ont/dul/DUL.owl#SocialPerson
p396
aVhttp://www.wikidata.org/entity/Q43229
p397
aVhttp://dbpedia.org/ontology/Agent
p398
aVhttp://dbpedia.org/ontology/Bank
p399
aVhttp://dbpedia.org/ontology/Organisation
p400
aVhttp://schema.org/BankOrCreditUnion
p401
aVhttp://schema.org/Organization
p402
aVhttp://dbpedia.org/class/yago/Abstraction100002137
p403
aVhttp://dbpedia.org/class/yago/BanksOfSpain
p404
aVhttp://dbpedia.org/class/yago/Company108058098
p405
aVhttp://dbpedia.org/class/yago/DepositoryFinancialInstitution108420278
p406
aVhttp://dbpedia.org/class/yago/FinancialInstitution108054721
p407
aVhttp://dbpedia.org/class/yago/Group100031264
p408
aVhttp://dbpedia.org/class/yago/Institution108053576
p409
aVhttp://dbpedia.org/class/yago/Organization108008335
p410
aVhttp://dbpedia.org/class/yago/SocialGroup107950920
p411
aVhttp://dbpedia.org/class/yago/YagoLegalActorGeo
p412
aVhttp://dbpedia.org/class/yago/CompaniesEstablishedIn1857
p413
aVhttp://dbpedia.org/class/yago/YagoPermanentlyLocatedEntity
p414
aVhttp://dbpedia.org/class/yago/YagoLegalActor
p415
aVhttp://dbpedia.org/resource/Santander_Group
tp416
aa(lp417
a(lp418
a(lp419
a(lp420
aa(lp421
(lp422
((lp423
Vhttp://www.w3.org/2002/07/owl#Thing
p424
aVhttp://dbpedia.org/ontology/Place
p425
aVhttp://dbpedia.org/ontology/Location
p426
aVhttp://www.wikidata.org/entity/Q486972
p427
aVhttp://www.wikidata.org/entity/Q6256
p428
aVhttp://dbpedia.org/ontology/Country
p429
aVhttp://dbpedia.org/ontology/PopulatedPlace
p430
aVhttp://www.w3.org/2003/01/geo/wgs84_pos#SpatialThing
p431
aVhttp://schema.org/Country
p432
aVhttp://schema.org/Place
p433
aVhttp://umbel.org/umbel/rc/Country
p434
aVhttp://umbel.org/umbel/rc/Location_Underspecified
p435
aVhttp://umbel.org/umbel/rc/PopulatedPlace
p436
aVhttp://dbpedia.org/class/yago/Abstraction100002137
p437
aVhttp://dbpedia.org/class/yago/AdministrativeDistrict108491826
p438
aVhttp://dbpedia.org/class/yago/BicontinentalCountries
p439
aVhttp://dbpedia.org/class/yago/Country108544813
p440
aVhttp://dbpedia.org/class/yago/District108552138
p441
aVhttp://dbpedia.org/class/yago/Economy108366753
p442
aVhttp://dbpedia.org/class/yago/Group100031264
p443
aVhttp://dbpedia.org/class/yago/Location100027167
p444
aVhttp://dbpedia.org/class/yago/Object100002684
p445
aVhttp://dbpedia.org/class/yago/Region108630985
p446
aVhttp://dbpedia.org/class/yago/System108435388
p447
aVhttp://dbpedia.org/class/yago/YagoGeoEntity
p448
aVhttp://dbpedia.org/class/yago/YagoLegalActorGeo
p449
aVhttp://dbpedia.org/class/yago/CountriesBorderingTheAtlanticOcean
p450
aVhttp://dbpedia.org/class/yago/CountriesOfTheMediterraneanSea
p451
aVhttp://dbpedia.org/class/yago/EuropeanCountries
p452
aVhttp://dbpedia.org/class/yago/EuropeanUnionMemberEconomies
p453
aVhttp://dbpedia.org/class/yago/PhysicalEntity100001930
p454
aVhttp://dbpedia.org/class/yago/YagoPermanentlyLocatedEntity
p455
aVhttp://dbpedia.org/class/yago/MemberStatesOfNATO
p456
aVhttp://dbpedia.org/class/yago/MemberStatesOfTheEuropeanUnion
p457
aVhttp://dbpedia.org/class/yago/MemberStatesOfTheUnionForTheMediterranean
p458
aVhttp://dbpedia.org/class/yago/MemberStatesOfTheUnitedNations
p459
aVhttp://dbpedia.org/class/yago/Spanish-speakingCountries
p460
aVhttp://dbpedia.org/class/yago/WorldTradeOrganizationMemberEconomies
p461
aVhttp://dbpedia.org/resource/Spain
tp462
aa(lp463
a(lp464
a(lp465
a(lp466
a(lp467
aa(lp468
(lp469
((lp470
Vhttp://www.w3.org/2002/07/owl#Thing
p471
aVhttp://dbpedia.org/ontology/Place
p472
aVhttp://dbpedia.org/ontology/Location
p473
aVhttp://www.wikidata.org/entity/Q486972
p474
aVhttp://www.wikidata.org/entity/Q6256
p475
aVhttp://dbpedia.org/ontology/Country
p476
aVhttp://dbpedia.org/ontology/PopulatedPlace
p477
aVhttp://www.w3.org/2003/01/geo/wgs84_pos#SpatialThing
p478
aVhttp://schema.org/Country
p479
aVhttp://schema.org/Place
p480
aVhttp://umbel.org/umbel/rc/Country
p481
aVhttp://umbel.org/umbel/rc/Location_Underspecified
p482
aVhttp://umbel.org/umbel/rc/PopulatedPlace
p483
aVhttp://dbpedia.org/class/yago/Abstraction100002137
p484
aVhttp://dbpedia.org/class/yago/AdministrativeDistrict108491826
p485
aVhttp://dbpedia.org/class/yago/BicontinentalCountries
p486
aVhttp://dbpedia.org/class/yago/Country108544813
p487
aVhttp://dbpedia.org/class/yago/District108552138
p488
aVhttp://dbpedia.org/class/yago/Economy108366753
p489
aVhttp://dbpedia.org/class/yago/Group100031264
p490
aVhttp://dbpedia.org/class/yago/Location100027167
p491
aVhttp://dbpedia.org/class/yago/Object100002684
p492
aVhttp://dbpedia.org/class/yago/Region108630985
p493
aVhttp://dbpedia.org/class/yago/System108435388
p494
aVhttp://dbpedia.org/class/yago/YagoGeoEntity
p495
aVhttp://dbpedia.org/class/yago/YagoLegalActorGeo
p496
aVhttp://dbpedia.org/class/yago/CountriesBorderingTheAtlanticOcean
p497
aVhttp://dbpedia.org/class/yago/CountriesOfTheMediterraneanSea
p498
aVhttp://dbpedia.org/class/yago/EuropeanCountries
p499
aVhttp://dbpedia.org/class/yago/EuropeanUnionMemberEconomies
p500
aVhttp://dbpedia.org/class/yago/PhysicalEntity100001930
p501
aVhttp://dbpedia.org/class/yago/YagoPermanentlyLocatedEntity
p502
aVhttp://dbpedia.org/class/yago/MemberStatesOfNATO
p503
aVhttp://dbpedia.org/class/yago/MemberStatesOfTheEuropeanUnion
p504
aVhttp://dbpedia.org/class/yago/MemberStatesOfTheUnionForTheMediterranean
p505
aVhttp://dbpedia.org/class/yago/MemberStatesOfTheUnitedNations
p506
aVhttp://dbpedia.org/class/yago/Spanish-speakingCountries
p507
aVhttp://dbpedia.org/class/yago/WorldTradeOrganizationMemberEconomies
p508
aVhttp://dbpedia.org/resource/Spain
tp509
aa(lp510
a(lp511
a(lp512
((lp513
Vhttp://www.w3.org/2002/07/owl#Thing
p514
aVhttp://dbpedia.org/class/yago/Abstraction100002137
p515
aVhttp://dbpedia.org/class/yago/AdministrativeUnit108077292
p516
aVhttp://dbpedia.org/class/yago/Agency108337324
p517
aVhttp://dbpedia.org/class/yago/Group100031264
p518
aVhttp://dbpedia.org/class/yago/Organization108008335
p519
aVhttp://dbpedia.org/class/yago/SocialGroup107950920
p520
aVhttp://dbpedia.org/class/yago/Unit108189659
p521
aVhttp://dbpedia.org/class/yago/YagoLegalActorGeo
p522
aVhttp://dbpedia.org/class/yago/YagoPermanentlyLocatedEntity
p523
aVhttp://dbpedia.org/class/yago/YagoLegalActor
p524
aVhttp://dbpedia.org/resource/United_States_Department_of_Defense
tp525
aa(lp526
a(lp527
aa(lp528
(lp529
((lp530
Vhttp://www.w3.org/2002/07/owl#Thing
p531
aVhttp://dbpedia.org/ontology/Place
p532
aVhttp://dbpedia.org/ontology/Location
p533
aVhttp://www.wikidata.org/entity/Q486972
p534
aVhttp://www.wikidata.org/entity/Q6256
p535
aVhttp://dbpedia.org/ontology/Country
p536
aVhttp://dbpedia.org/ontology/PopulatedPlace
p537
aVhttp://www.w3.org/2003/01/geo/wgs84_pos#SpatialThing
p538
aVhttp://schema.org/Country
p539
aVhttp://schema.org/Place
p540
aVhttp://umbel.org/umbel/rc/Country
p541
aVhttp://umbel.org/umbel/rc/Location_Underspecified
p542
aVhttp://umbel.org/umbel/rc/PopulatedPlace
p543
aVhttp://dbpedia.org/class/yago/Abstraction100002137
p544
aVhttp://dbpedia.org/class/yago/AdministrativeDistrict108491826
p545
aVhttp://dbpedia.org/class/yago/Country108544813
p546
aVhttp://dbpedia.org/class/yago/District108552138
p547
aVhttp://dbpedia.org/class/yago/Domain108556491
p548
aVhttp://dbpedia.org/class/yago/Economy108366753
p549
aVhttp://dbpedia.org/class/yago/Group100031264
p550
aVhttp://dbpedia.org/class/yago/Location100027167
p551
aVhttp://dbpedia.org/class/yago/Object100002684
p552
aVhttp://dbpedia.org/class/yago/Region108630985
p553
aVhttp://dbpedia.org/class/yago/System108435388
p554
aVhttp://dbpedia.org/class/yago/YagoGeoEntity
p555
aVhttp://dbpedia.org/class/yago/YagoLegalActorGeo
p556
aVhttp://dbpedia.org/class/yago/CountriesBorderingThePacificOcean
p557
aVhttp://dbpedia.org/class/yago/CountriesBorderingThePhilippineSea
p558
aVhttp://dbpedia.org/class/yago/EastAsianCountries
p559
aVhttp://dbpedia.org/class/yago/Empire108557482
p560
aVhttp://dbpedia.org/class/yago/Empires
p561
aVhttp://dbpedia.org/class/yago/PhysicalEntity100001930
p562
aVhttp://dbpedia.org/class/yago/YagoPermanentlyLocatedEntity
p563
aVhttp://dbpedia.org/class/yago/IslandCountries
p564
aVhttp://dbpedia.org/class/yago/MemberStatesOfTheUnitedNations
p565
aVhttp://dbpedia.org/class/yago/StatesAndTerritoriesEstablishedIn660BC
p566
aVhttp://dbpedia.org/resource/Japan
tp567
aa(lp568
((lp569
Vhttp://www.w3.org/2002/07/owl#Thing
p570
aVhttp://dbpedia.org/ontology/Company
p571
aVhttp://www.ontologydesignpatterns.org/ont/dul/DUL.owl#Agent
p572
aVhttp://www.ontologydesignpatterns.org/ont/dul/DUL.owl#SocialPerson
p573
aVhttp://www.wikidata.org/entity/Q43229
p574
aVhttp://dbpedia.org/ontology/Agent
p575
aVhttp://dbpedia.org/ontology/Bank
p576
aVhttp://dbpedia.org/ontology/Organisation
p577
aVhttp://schema.org/BankOrCreditUnion
p578
aVhttp://schema.org/Organization
p579
aVhttp://umbel.org/umbel/rc/Business
p580
aVhttp://umbel.org/umbel/rc/Organization
p581
aVhttp://dbpedia.org/class/yago/Abstraction100002137
p582
aVhttp://dbpedia.org/class/yago/BanksEstablishedIn2006
p583
aVhttp://dbpedia.org/class/yago/BanksOfJapan
p584
aVhttp://dbpedia.org/class/yago/Company108058098
p585
aVhttp://dbpedia.org/class/yago/DepositoryFinancialInstitution108420278
p586
aVhttp://dbpedia.org/class/yago/FinancialInstitution108054721
p587
aVhttp://dbpedia.org/class/yago/Group100031264
p588
aVhttp://dbpedia.org/class/yago/Institution108053576
p589
aVhttp://dbpedia.org/class/yago/Organization108008335
p590
aVhttp://dbpedia.org/class/yago/SocialGroup107950920
p591
aVhttp://dbpedia.org/class/yago/YagoLegalActorGeo
p592
aVhttp://dbpedia.org/class/yago/YagoPermanentlyLocatedEntity
p593
aVhttp://dbpedia.org/class/yago/MitsubishiCompanies
p594
aVhttp://dbpedia.org/class/yago/YagoLegalActor
p595
aVhttp://dbpedia.org/class/yago/RegisteredBanksOfNewZealand
p596
aVhttp://dbpedia.org/resource/The_Bank_of_Tokyo-Mitsubishi_UFJ
tp597
aa(lp598
((lp599
Vhttp://www.w3.org/2002/07/owl#Thing
p600
aVhttp://dbpedia.org/ontology/Place
p601
aVhttp://dbpedia.org/ontology/Location
p602
aVhttp://www.wikidata.org/entity/Q486972
p603
aVhttp://www.wikidata.org/entity/Q515
p604
aVhttp://dbpedia.org/ontology/City
p605
aVhttp://dbpedia.org/ontology/PopulatedPlace
p606
aVhttp://dbpedia.org/ontology/Settlement
p607
aVhttp://www.w3.org/2003/01/geo/wgs84_pos#SpatialThing
p608
aVhttp://schema.org/City
p609
aVhttp://schema.org/Place
p610
aVhttp://umbel.org/umbel/rc/Location_Underspecified
p611
aVhttp://umbel.org/umbel/rc/PopulatedPlace
p612
aVhttp://umbel.org/umbel/rc/Village
p613
aVhttp://dbpedia.org/class/yago/AdministrativeDistrict108491826
p614
aVhttp://dbpedia.org/class/yago/Area108497294
p615
aVhttp://dbpedia.org/class/yago/Capital108518505
p616
aVhttp://dbpedia.org/class/yago/CapitalsInAsia
p617
aVhttp://dbpedia.org/class/yago/Center108523483
p618
aVhttp://dbpedia.org/class/yago/City108524735
p619
aVhttp://dbpedia.org/class/yago/District108552138
p620
aVhttp://dbpedia.org/class/yago/Location100027167
p621
aVhttp://dbpedia.org/class/yago/Object100002684
p622
aVhttp://dbpedia.org/class/yago/Prefecture108626947
p623
aVhttp://dbpedia.org/class/yago/Region108630985
p624
aVhttp://dbpedia.org/class/yago/Seat108647945
p625
aVhttp://dbpedia.org/class/yago/Site108651247
p626
aVhttp://dbpedia.org/class/yago/Tract108673395
p627
aVhttp://dbpedia.org/class/yago/UrbanArea108675967
p628
aVhttp://dbpedia.org/class/yago/YagoGeoEntity
p629
aVhttp://dbpedia.org/class/yago/YagoLegalActorGeo
p630
aVhttp://dbpedia.org/class/yago/GeographicalArea108574314
p631
aVhttp://dbpedia.org/class/yago/Municipality108626283
p632
aVhttp://dbpedia.org/class/yago/PhysicalEntity100001930
p633
aVhttp://dbpedia.org/class/yago/YagoPermanentlyLocatedEntity
p634
aVhttp://dbpedia.org/class/yago/HostCitiesOfTheSummerOlympicGames
p635
aVhttp://dbpedia.org/class/yago/PopulatedCoastalPlacesInJapan
p636
aVhttp://dbpedia.org/class/yago/PopulatedPlacesEstablishedIn1457
p637
aVhttp://dbpedia.org/class/yago/PortSettlementsInJapan
p638
aVhttp://dbpedia.org/class/yago/PrefecturesOfJapan
p639
aVhttp://dbpedia.org/resource/Tokyo
tp640
aa(lp641
((lp642
Vhttp://www.w3.org/2002/07/owl#Thing
p643
aVhttp://dbpedia.org/class/yago/Abstraction100002137
p644
aVhttp://dbpedia.org/class/yago/AdministrativeUnit108077292
p645
aVhttp://dbpedia.org/class/yago/Agency108337324
p646
aVhttp://dbpedia.org/class/yago/Group100031264
p647
aVhttp://dbpedia.org/class/yago/Organization108008335
p648
aVhttp://dbpedia.org/class/yago/SocialGroup107950920
p649
aVhttp://dbpedia.org/class/yago/Unit108189659
p650
aVhttp://dbpedia.org/class/yago/YagoLegalActorGeo
p651
aVhttp://dbpedia.org/class/yago/YagoPermanentlyLocatedEntity
p652
aVhttp://dbpedia.org/class/yago/YagoLegalActor
p653
aVhttp://dbpedia.org/resource/United_States_Department_of_Defense
tp654
aa(lp655
a(lp656
aa(lp657
(lp658
((lp659
Vhttp://dbpedia.org/class/yago/Abstraction100002137
p660
aVhttp://dbpedia.org/class/yago/BrokenHashFunctions
p661
aVhttp://dbpedia.org/class/yago/Cipher106254239
p662
aVhttp://dbpedia.org/class/yago/Communication100033020
p663
aVhttp://dbpedia.org/class/yago/Function113783816
p664
aVhttp://dbpedia.org/class/yago/Message106253690
p665
aVhttp://dbpedia.org/class/yago/Relation100031921
p666
aVhttp://dbpedia.org/class/yago/MathematicalRelation113783581
p667
aVhttp://dbpedia.org/class/yago/StreamCiphers
p668
aVhttp://dbpedia.org/resource/Panama_(cryptography)
tp669
aa(lp670
a(lp671
((lp672
Vhttp://dbpedia.org/class/yago/Abstraction100002137
p673
aVhttp://dbpedia.org/class/yago/BrokenHashFunctions
p674
aVhttp://dbpedia.org/class/yago/Cipher106254239
p675
aVhttp://dbpedia.org/class/yago/Communication100033020
p676
aVhttp://dbpedia.org/class/yago/Function113783816
p677
aVhttp://dbpedia.org/class/yago/Message106253690
p678
aVhttp://dbpedia.org/class/yago/Relation100031921
p679
aVhttp://dbpedia.org/class/yago/MathematicalRelation113783581
p680
aVhttp://dbpedia.org/class/yago/StreamCiphers
p681
aVhttp://dbpedia.org/resource/Panama_(cryptography)
tp682
aa(lp683
((lp684
Vhttp://www.w3.org/2002/07/owl#Thing
p685
aVhttp://dbpedia.org/class/yago/Abstraction100002137
p686
aVhttp://dbpedia.org/class/yago/AdministrativeUnit108077292
p687
aVhttp://dbpedia.org/class/yago/Agency108337324
p688
aVhttp://dbpedia.org/class/yago/Group100031264
p689
aVhttp://dbpedia.org/class/yago/Organization108008335
p690
aVhttp://dbpedia.org/class/yago/SocialGroup107950920
p691
aVhttp://dbpedia.org/class/yago/Unit108189659
p692
aVhttp://dbpedia.org/class/yago/YagoLegalActorGeo
p693
aVhttp://dbpedia.org/class/yago/YagoPermanentlyLocatedEntity
p694
aVhttp://dbpedia.org/class/yago/YagoLegalActor
p695
aVhttp://dbpedia.org/resource/United_States_Department_of_Defense
tp696
aa(lp697
a(lp698
aa(lp699
(lp700
((lp701
Vhttp://www.w3.org/2002/07/owl#Thing
p702
aVhttp://dbpedia.org/ontology/Place
p703
aVhttp://dbpedia.org/ontology/Location
p704
aVhttp://www.wikidata.org/entity/Q486972
p705
aVhttp://www.wikidata.org/entity/Q6256
p706
aVhttp://dbpedia.org/ontology/Country
p707
aVhttp://dbpedia.org/ontology/PopulatedPlace
p708
aVhttp://www.w3.org/2003/01/geo/wgs84_pos#SpatialThing
p709
aVhttp://schema.org/Country
p710
aVhttp://schema.org/Place
p711
aVhttp://umbel.org/umbel/rc/Country
p712
aVhttp://umbel.org/umbel/rc/Location_Underspecified
p713
aVhttp://umbel.org/umbel/rc/PopulatedPlace
p714
aVhttp://dbpedia.org/class/yago/Abstraction100002137
p715
aVhttp://dbpedia.org/class/yago/AdministrativeDistrict108491826
p716
aVhttp://dbpedia.org/class/yago/AlpineCountries
p717
aVhttp://dbpedia.org/class/yago/Country108544813
p718
aVhttp://dbpedia.org/class/yago/District108552138
p719
aVhttp://dbpedia.org/class/yago/Economy108366753
p720
aVhttp://dbpedia.org/class/yago/Group100031264
p721
aVhttp://dbpedia.org/class/yago/Location100027167
p722
aVhttp://dbpedia.org/class/yago/Object100002684
p723
aVhttp://dbpedia.org/class/yago/Region108630985
p724
aVhttp://dbpedia.org/class/yago/System108435388
p725
aVhttp://dbpedia.org/class/yago/YagoGeoEntity
p726
aVhttp://dbpedia.org/class/yago/YagoLegalActorGeo
p727
aVhttp://dbpedia.org/class/yago/EuropeanCountries
p728
aVhttp://dbpedia.org/class/yago/FederalCountries
p729
aVhttp://dbpedia.org/class/yago/French-speakingCountries
p730
aVhttp://dbpedia.org/class/yago/PhysicalEntity100001930
p731
aVhttp://dbpedia.org/class/yago/YagoPermanentlyLocatedEntity
p732
aVhttp://dbpedia.org/class/yago/German-speakingCountries
p733
aVhttp://dbpedia.org/class/yago/Italian-speakingCountries
p734
aVhttp://dbpedia.org/class/yago/LandlockedCountries
p735
aVhttp://dbpedia.org/class/yago/MemberStatesOfLaFrancophonie
p736
aVhttp://dbpedia.org/class/yago/MemberStatesOfTheUnitedNations
p737
aVhttp://dbpedia.org/class/yago/StatesAndTerritoriesEstablishedIn1291
p738
aVhttp://dbpedia.org/class/yago/WorldTradeOrganizationMemberEconomies
p739
aVhttp://dbpedia.org/resource/Switzerland
tp740
aa(lp741
((lp742
Vhttp://www.w3.org/2002/07/owl#Thing
p743
aVhttp://dbpedia.org/ontology/Company
p744
aVhttp://www.ontologydesignpatterns.org/ont/dul/DUL.owl#Agent
p745
aVhttp://www.ontologydesignpatterns.org/ont/dul/DUL.owl#SocialPerson
p746
aVhttp://www.wikidata.org/entity/Q43229
p747
aVhttp://dbpedia.org/ontology/Agent
p748
aVhttp://dbpedia.org/ontology/Bank
p749
aVhttp://dbpedia.org/ontology/Organisation
p750
aVhttp://schema.org/BankOrCreditUnion
p751
aVhttp://schema.org/Organization
p752
aVhttp://dbpedia.org/class/yago/Abstraction100002137
p753
aVhttp://dbpedia.org/class/yago/BanksOfSwitzerland
p754
aVhttp://dbpedia.org/class/yago/Brokerage108069878
p755
aVhttp://dbpedia.org/class/yago/Company108058098
p756
aVhttp://dbpedia.org/class/yago/DepositoryFinancialInstitution108420278
p757
aVhttp://dbpedia.org/class/yago/Family108078020
p758
aVhttp://dbpedia.org/class/yago/FinancialInstitution108054721
p759
aVhttp://dbpedia.org/class/yago/Group100031264
p760
aVhttp://dbpedia.org/class/yago/Institution108053576
p761
aVhttp://dbpedia.org/class/yago/NondepositoryFinancialInstitution108419984
p762
aVhttp://dbpedia.org/class/yago/Organization108008335
p763
aVhttp://dbpedia.org/class/yago/SocialGroup107950920
p764
aVhttp://dbpedia.org/class/yago/Unit108189659
p765
aVhttp://dbpedia.org/class/yago/YagoLegalActorGeo
p766
aVhttp://dbpedia.org/class/yago/CompaniesEstablishedIn1854
p767
aVhttp://dbpedia.org/class/yago/YagoPermanentlyLocatedEntity
p768
aVhttp://dbpedia.org/class/yago/InvestmentBanks
p769
aVhttp://dbpedia.org/class/yago/MultinationalCompaniesHeadquarteredInSwitzerland
p770
aVhttp://dbpedia.org/class/yago/MutualFundFamilies
p771
aVhttp://dbpedia.org/class/yago/OnlineBrokerages
p772
aVhttp://dbpedia.org/class/yago/YagoLegalActor
p773
aVhttp://dbpedia.org/resource/UBS
tp774
aa(lp775
a(lp776
((lp777
Vhttp://www.w3.org/2002/07/owl#Thing
p778
aVhttp://dbpedia.org/class/yago/Abstraction100002137
p779
aVhttp://dbpedia.org/class/yago/AdministrativeUnit108077292
p780
aVhttp://dbpedia.org/class/yago/Agency108337324
p781
aVhttp://dbpedia.org/class/yago/Group100031264
p782
aVhttp://dbpedia.org/class/yago/Organization108008335
p783
aVhttp://dbpedia.org/class/yago/SocialGroup107950920
p784
aVhttp://dbpedia.org/class/yago/Unit108189659
p785
aVhttp://dbpedia.org/class/yago/YagoLegalActorGeo
p786
aVhttp://dbpedia.org/class/yago/YagoPermanentlyLocatedEntity
p787
aVhttp://dbpedia.org/class/yago/YagoLegalActor
p788
aVhttp://dbpedia.org/resource/United_States_Department_of_Defense
tp789
aa(lp790
a(lp791
aa(lp792
(lp793
((lp794
Vhttp://www.w3.org/2002/07/owl#Thing
p795
aVhttp://dbpedia.org/ontology/Place
p796
aVhttp://dbpedia.org/ontology/Location
p797
aVhttp://www.wikidata.org/entity/Q486972
p798
aVhttp://www.wikidata.org/entity/Q6256
p799
aVhttp://dbpedia.org/ontology/Country
p800
aVhttp://dbpedia.org/ontology/PopulatedPlace
p801
aVhttp://www.w3.org/2003/01/geo/wgs84_pos#SpatialThing
p802
aVhttp://schema.org/Country
p803
aVhttp://schema.org/Place
p804
aVhttp://umbel.org/umbel/rc/Country
p805
aVhttp://umbel.org/umbel/rc/Location_Underspecified
p806
aVhttp://umbel.org/umbel/rc/PopulatedPlace
p807
aVhttp://dbpedia.org/class/yago/Abstraction100002137
p808
aVhttp://dbpedia.org/class/yago/AdministrativeDistrict108491826
p809
aVhttp://dbpedia.org/class/yago/BicontinentalCountries
p810
aVhttp://dbpedia.org/class/yago/Country108544813
p811
aVhttp://dbpedia.org/class/yago/District108552138
p812
aVhttp://dbpedia.org/class/yago/Economy108366753
p813
aVhttp://dbpedia.org/class/yago/Group100031264
p814
aVhttp://dbpedia.org/class/yago/Location100027167
p815
aVhttp://dbpedia.org/class/yago/Object100002684
p816
aVhttp://dbpedia.org/class/yago/Region108630985
p817
aVhttp://dbpedia.org/class/yago/System108435388
p818
aVhttp://dbpedia.org/class/yago/YagoGeoEntity
p819
aVhttp://dbpedia.org/class/yago/YagoLegalActorGeo
p820
aVhttp://dbpedia.org/class/yago/CountriesBorderingTheArcticOcean
p821
aVhttp://dbpedia.org/class/yago/CountriesBorderingTheAtlanticOcean
p822
aVhttp://dbpedia.org/class/yago/CountriesBorderingThePacificOcean
p823
aVhttp://dbpedia.org/class/yago/English-speakingCountriesAndTerritories
p824
aVhttp://dbpedia.org/class/yago/FederalCountries
p825
aVhttp://dbpedia.org/class/yago/PhysicalEntity100001930
p826
aVhttp://dbpedia.org/class/yago/YagoPermanentlyLocatedEntity
p827
aVhttp://dbpedia.org/class/yago/MemberStatesOfNATO
p828
aVhttp://dbpedia.org/class/yago/MemberStatesOfTheUnitedNations
p829
aVhttp://dbpedia.org/class/yago/NorthernAmericanCountries
p830
aVhttp://dbpedia.org/class/yago/StatesAndTerritoriesEstablishedIn1776
p831
aVhttp://dbpedia.org/class/yago/UnitedStates
p832
aVhttp://dbpedia.org/resource/United_States
tp833
aa(lp834
a(lp835
a(lp836
((lp837
Vhttp://www.w3.org/2002/07/owl#Thing
p838
aVhttp://dbpedia.org/class/yago/Abstraction100002137
p839
aVhttp://dbpedia.org/class/yago/AdministrativeUnit108077292
p840
aVhttp://dbpedia.org/class/yago/Agency108337324
p841
aVhttp://dbpedia.org/class/yago/Group100031264
p842
aVhttp://dbpedia.org/class/yago/Organization108008335
p843
aVhttp://dbpedia.org/class/yago/SocialGroup107950920
p844
aVhttp://dbpedia.org/class/yago/Unit108189659
p845
aVhttp://dbpedia.org/class/yago/YagoLegalActorGeo
p846
aVhttp://dbpedia.org/class/yago/YagoPermanentlyLocatedEntity
p847
aVhttp://dbpedia.org/class/yago/YagoLegalActor
p848
aVhttp://dbpedia.org/resource/United_States_Department_of_Defense
tp849
aa(lp850
a(lp851
aa(lp852
(lp853
((lp854
Vhttp://www.w3.org/2002/07/owl#Thing
p855
aVhttp://dbpedia.org/ontology/Place
p856
aVhttp://dbpedia.org/ontology/Location
p857
aVhttp://www.wikidata.org/entity/Q486972
p858
aVhttp://www.wikidata.org/entity/Q6256
p859
aVhttp://dbpedia.org/ontology/Country
p860
aVhttp://dbpedia.org/ontology/PopulatedPlace
p861
aVhttp://www.w3.org/2003/01/geo/wgs84_pos#SpatialThing
p862
aVhttp://schema.org/Country
p863
aVhttp://schema.org/Place
p864
aVhttp://umbel.org/umbel/rc/Country
p865
aVhttp://umbel.org/umbel/rc/Location_Underspecified
p866
aVhttp://umbel.org/umbel/rc/PopulatedPlace
p867
aVhttp://dbpedia.org/class/yago/Abstraction100002137
p868
aVhttp://dbpedia.org/class/yago/AdministrativeDistrict108491826
p869
aVhttp://dbpedia.org/class/yago/BicontinentalCountries
p870
aVhttp://dbpedia.org/class/yago/Country108544813
p871
aVhttp://dbpedia.org/class/yago/District108552138
p872
aVhttp://dbpedia.org/class/yago/Economy108366753
p873
aVhttp://dbpedia.org/class/yago/Group100031264
p874
aVhttp://dbpedia.org/class/yago/Location100027167
p875
aVhttp://dbpedia.org/class/yago/Object100002684
p876
aVhttp://dbpedia.org/class/yago/Region108630985
p877
aVhttp://dbpedia.org/class/yago/System108435388
p878
aVhttp://dbpedia.org/class/yago/YagoGeoEntity
p879
aVhttp://dbpedia.org/class/yago/YagoLegalActorGeo
p880
aVhttp://dbpedia.org/class/yago/CountriesBorderingTheArcticOcean
p881
aVhttp://dbpedia.org/class/yago/CountriesBorderingTheAtlanticOcean
p882
aVhttp://dbpedia.org/class/yago/CountriesBorderingThePacificOcean
p883
aVhttp://dbpedia.org/class/yago/English-speakingCountriesAndTerritories
p884
aVhttp://dbpedia.org/class/yago/FederalCountries
p885
aVhttp://dbpedia.org/class/yago/PhysicalEntity100001930
p886
aVhttp://dbpedia.org/class/yago/YagoPermanentlyLocatedEntity
p887
aVhttp://dbpedia.org/class/yago/MemberStatesOfNATO
p888
aVhttp://dbpedia.org/class/yago/MemberStatesOfTheUnitedNations
p889
aVhttp://dbpedia.org/class/yago/NorthernAmericanCountries
p890
aVhttp://dbpedia.org/class/yago/StatesAndTerritoriesEstablishedIn1776
p891
aVhttp://dbpedia.org/class/yago/UnitedStates
p892
aVhttp://dbpedia.org/resource/United_States
tp893
aa(lp894
((lp895
Vhttp://www.w3.org/2002/07/owl#Thing
p896
aVhttp://dbpedia.org/ontology/Company
p897
aVhttp://www.ontologydesignpatterns.org/ont/dul/DUL.owl#Agent
p898
aVhttp://www.ontologydesignpatterns.org/ont/dul/DUL.owl#SocialPerson
p899
aVhttp://www.wikidata.org/entity/Q43229
p900
aVhttp://dbpedia.org/ontology/Agent
p901
aVhttp://dbpedia.org/ontology/Bank
p902
aVhttp://dbpedia.org/ontology/Organisation
p903
aVhttp://schema.org/BankOrCreditUnion
p904
aVhttp://schema.org/Organization
p905
aVhttp://umbel.org/umbel/rc/Business
p906
aVhttp://umbel.org/umbel/rc/Organization
p907
aVhttp://dbpedia.org/class/yago/Abstraction100002137
p908
aVhttp://dbpedia.org/class/yago/BanksBasedInNorthCarolina
p909
aVhttp://dbpedia.org/class/yago/BanksEstablishedIn1998
p910
aVhttp://dbpedia.org/class/yago/Brokerage108069878
p911
aVhttp://dbpedia.org/class/yago/Company108058098
p912
aVhttp://dbpedia.org/class/yago/DepositoryFinancialInstitution108420278
p913
aVhttp://dbpedia.org/class/yago/FinancialInstitution108054721
p914
aVhttp://dbpedia.org/class/yago/Group100031264
p915
aVhttp://dbpedia.org/class/yago/Institution108053576
p916
aVhttp://dbpedia.org/class/yago/NondepositoryFinancialInstitution108419984
p917
aVhttp://dbpedia.org/class/yago/Organization108008335
p918
aVhttp://dbpedia.org/class/yago/SocialGroup107950920
p919
aVhttp://dbpedia.org/class/yago/YagoLegalActorGeo
p920
aVhttp://dbpedia.org/class/yago/CompaniesBasedInCharlotte,NorthCarolina
p921
aVhttp://dbpedia.org/class/yago/FinancialServicesCompaniesOfTheUnitedStates
p922
aVhttp://dbpedia.org/class/yago/YagoPermanentlyLocatedEntity
p923
aVhttp://dbpedia.org/class/yago/MultinationalCompaniesHeadquarteredInTheUnitedStates
p924
aVhttp://dbpedia.org/class/yago/OnlineBrokerages
p925
aVhttp://dbpedia.org/class/yago/YagoLegalActor
p926
aVhttp://dbpedia.org/class/yago/PubliclyTradedCompaniesOfTheUnitedStates
p927
aVhttp://dbpedia.org/resource/Bank_of_America
tp928
aa(lp929
a(lp930
((lp931
Vhttp://www.w3.org/2002/07/owl#Thing
p932
aVhttp://dbpedia.org/class/yago/Abstraction100002137
p933
aVhttp://dbpedia.org/class/yago/AdministrativeUnit108077292
p934
aVhttp://dbpedia.org/class/yago/Agency108337324
p935
aVhttp://dbpedia.org/class/yago/Group100031264
p936
aVhttp://dbpedia.org/class/yago/Organization108008335
p937
aVhttp://dbpedia.org/class/yago/SocialGroup107950920
p938
aVhttp://dbpedia.org/class/yago/Unit108189659
p939
aVhttp://dbpedia.org/class/yago/YagoLegalActorGeo
p940
aVhttp://dbpedia.org/class/yago/YagoPermanentlyLocatedEntity
p941
aVhttp://dbpedia.org/class/yago/YagoLegalActor
p942
aVhttp://dbpedia.org/resource/United_States_Department_of_Defense
tp943
aa(lp944
a(lp945
aa(lp946
(lp947
((lp948
Vhttp://www.w3.org/2002/07/owl#Thing
p949
aVhttp://dbpedia.org/ontology/Place
p950
aVhttp://dbpedia.org/ontology/Location
p951
aVhttp://www.wikidata.org/entity/Q486972
p952
aVhttp://www.wikidata.org/entity/Q6256
p953
aVhttp://dbpedia.org/ontology/Country
p954
aVhttp://dbpedia.org/ontology/PopulatedPlace
p955
aVhttp://www.w3.org/2003/01/geo/wgs84_pos#SpatialThing
p956
aVhttp://schema.org/Country
p957
aVhttp://schema.org/Place
p958
aVhttp://umbel.org/umbel/rc/Country
p959
aVhttp://umbel.org/umbel/rc/Location_Underspecified
p960
aVhttp://umbel.org/umbel/rc/PopulatedPlace
p961
aVhttp://dbpedia.org/class/yago/Abstraction100002137
p962
aVhttp://dbpedia.org/class/yago/AdministrativeDistrict108491826
p963
aVhttp://dbpedia.org/class/yago/BicontinentalCountries
p964
aVhttp://dbpedia.org/class/yago/Country108544813
p965
aVhttp://dbpedia.org/class/yago/District108552138
p966
aVhttp://dbpedia.org/class/yago/Economy108366753
p967
aVhttp://dbpedia.org/class/yago/Group100031264
p968
aVhttp://dbpedia.org/class/yago/Location100027167
p969
aVhttp://dbpedia.org/class/yago/Object100002684
p970
aVhttp://dbpedia.org/class/yago/Region108630985
p971
aVhttp://dbpedia.org/class/yago/System108435388
p972
aVhttp://dbpedia.org/class/yago/YagoGeoEntity
p973
aVhttp://dbpedia.org/class/yago/YagoLegalActorGeo
p974
aVhttp://dbpedia.org/class/yago/CountriesBorderingTheArcticOcean
p975
aVhttp://dbpedia.org/class/yago/CountriesBorderingTheAtlanticOcean
p976
aVhttp://dbpedia.org/class/yago/CountriesBorderingThePacificOcean
p977
aVhttp://dbpedia.org/class/yago/English-speakingCountriesAndTerritories
p978
aVhttp://dbpedia.org/class/yago/FederalCountries
p979
aVhttp://dbpedia.org/class/yago/PhysicalEntity100001930
p980
aVhttp://dbpedia.org/class/yago/YagoPermanentlyLocatedEntity
p981
aVhttp://dbpedia.org/class/yago/MemberStatesOfNATO
p982
aVhttp://dbpedia.org/class/yago/MemberStatesOfTheUnitedNations
p983
aVhttp://dbpedia.org/class/yago/NorthernAmericanCountries
p984
aVhttp://dbpedia.org/class/yago/StatesAndTerritoriesEstablishedIn1776
p985
aVhttp://dbpedia.org/class/yago/UnitedStates
p986
aVhttp://dbpedia.org/resource/United_States
tp987
aa(lp988
a(lp989
((lp990
Vhttp://www.w3.org/2002/07/owl#Thing
p991
aVhttp://dbpedia.org/ontology/Place
p992
aVhttp://dbpedia.org/ontology/Location
p993
aVhttp://www.wikidata.org/entity/Q3455524
p994
aVhttp://www.wikidata.org/entity/Q486972
p995
aVhttp://dbpedia.org/ontology/AdministrativeRegion
p996
aVhttp://dbpedia.org/ontology/PopulatedPlace
p997
aVhttp://dbpedia.org/ontology/Region
p998
aVhttp://schema.org/AdministrativeArea
p999
aVhttp://schema.org/Place
p1000
aVhttp://umbel.org/umbel/rc/Location_Underspecified
p1001
aVhttp://umbel.org/umbel/rc/PopulatedPlace
p1002
aVhttp://dbpedia.org/class/yago/AdministrativeDistrict108491826
p1003
aVhttp://dbpedia.org/class/yago/Country108544813
p1004
aVhttp://dbpedia.org/class/yago/District108552138
p1005
aVhttp://dbpedia.org/class/yago/Location100027167
p1006
aVhttp://dbpedia.org/class/yago/Object100002684
p1007
aVhttp://dbpedia.org/class/yago/Region108630985
p1008
aVhttp://dbpedia.org/class/yago/YagoGeoEntity
p1009
aVhttp://dbpedia.org/class/yago/YagoLegalActorGeo
p1010
aVhttp://dbpedia.org/class/yago/PhysicalEntity100001930
p1011
aVhttp://dbpedia.org/class/yago/YagoPermanentlyLocatedEntity
p1012
aVhttp://dbpedia.org/class/yago/StatesOfTheUnitedStates
p1013
aVhttp://dbpedia.org/resource/New_York
tp1014
aa(lp1015
((lp1016
Vhttp://www.w3.org/2002/07/owl#Thing
p1017
aVhttp://dbpedia.org/class/yago/Abstraction100002137
p1018
aVhttp://dbpedia.org/class/yago/AdministrativeUnit108077292
p1019
aVhttp://dbpedia.org/class/yago/Agency108337324
p1020
aVhttp://dbpedia.org/class/yago/Group100031264
p1021
aVhttp://dbpedia.org/class/yago/Organization108008335
p1022
aVhttp://dbpedia.org/class/yago/SocialGroup107950920
p1023
aVhttp://dbpedia.org/class/yago/Unit108189659
p1024
aVhttp://dbpedia.org/class/yago/YagoLegalActorGeo
p1025
aVhttp://dbpedia.org/class/yago/YagoPermanentlyLocatedEntity
p1026
aVhttp://dbpedia.org/class/yago/YagoLegalActor
p1027
aVhttp://dbpedia.org/resource/United_States_Department_of_Defense
tp1028
aa(lp1029
a(lp1030
aa(lp1031
(lp1032
((lp1033
Vhttp://www.w3.org/2002/07/owl#Thing
p1034
aVhttp://dbpedia.org/ontology/Place
p1035
aVhttp://dbpedia.org/ontology/Location
p1036
aVhttp://www.wikidata.org/entity/Q486972
p1037
aVhttp://www.wikidata.org/entity/Q6256
p1038
aVhttp://dbpedia.org/ontology/Country
p1039
aVhttp://dbpedia.org/ontology/PopulatedPlace
p1040
aVhttp://www.w3.org/2003/01/geo/wgs84_pos#SpatialThing
p1041
aVhttp://schema.org/Country
p1042
aVhttp://schema.org/Place
p1043
aVhttp://umbel.org/umbel/rc/Country
p1044
aVhttp://umbel.org/umbel/rc/Location_Underspecified
p1045
aVhttp://umbel.org/umbel/rc/PopulatedPlace
p1046
aVhttp://dbpedia.org/class/yago/Abstraction100002137
p1047
aVhttp://dbpedia.org/class/yago/AdministrativeDistrict108491826
p1048
aVhttp://dbpedia.org/class/yago/BicontinentalCountries
p1049
aVhttp://dbpedia.org/class/yago/Country108544813
p1050
aVhttp://dbpedia.org/class/yago/District108552138
p1051
aVhttp://dbpedia.org/class/yago/Economy108366753
p1052
aVhttp://dbpedia.org/class/yago/Group100031264
p1053
aVhttp://dbpedia.org/class/yago/Location100027167
p1054
aVhttp://dbpedia.org/class/yago/Object100002684
p1055
aVhttp://dbpedia.org/class/yago/Region108630985
p1056
aVhttp://dbpedia.org/class/yago/System108435388
p1057
aVhttp://dbpedia.org/class/yago/YagoGeoEntity
p1058
aVhttp://dbpedia.org/class/yago/YagoLegalActorGeo
p1059
aVhttp://dbpedia.org/class/yago/CountriesBorderingTheArcticOcean
p1060
aVhttp://dbpedia.org/class/yago/CountriesBorderingTheAtlanticOcean
p1061
aVhttp://dbpedia.org/class/yago/CountriesBorderingThePacificOcean
p1062
aVhttp://dbpedia.org/class/yago/English-speakingCountriesAndTerritories
p1063
aVhttp://dbpedia.org/class/yago/FederalCountries
p1064
aVhttp://dbpedia.org/class/yago/PhysicalEntity100001930
p1065
aVhttp://dbpedia.org/class/yago/YagoPermanentlyLocatedEntity
p1066
aVhttp://dbpedia.org/class/yago/MemberStatesOfNATO
p1067
aVhttp://dbpedia.org/class/yago/MemberStatesOfTheUnitedNations
p1068
aVhttp://dbpedia.org/class/yago/NorthernAmericanCountries
p1069
aVhttp://dbpedia.org/class/yago/StatesAndTerritoriesEstablishedIn1776
p1070
aVhttp://dbpedia.org/class/yago/UnitedStates
p1071
aVhttp://dbpedia.org/resource/United_States
tp1072
aa(lp1073
((lp1074
Vhttp://www.w3.org/2002/07/owl#Thing
p1075
aVhttp://dbpedia.org/ontology/Company
p1076
aVhttp://www.ontologydesignpatterns.org/ont/dul/DUL.owl#Agent
p1077
aVhttp://www.ontologydesignpatterns.org/ont/dul/DUL.owl#SocialPerson
p1078
aVhttp://www.wikidata.org/entity/Q43229
p1079
aVhttp://dbpedia.org/ontology/Agent
p1080
aVhttp://dbpedia.org/ontology/Organisation
p1081
aVhttp://schema.org/Organization
p1082
aVhttp://umbel.org/umbel/rc/Business
p1083
aVhttp://umbel.org/umbel/rc/Organization
p1084
aVhttp://dbpedia.org/class/yago/Abstraction100002137
p1085
aVhttp://dbpedia.org/class/yago/BanksBasedInNewYorkCity
p1086
aVhttp://dbpedia.org/class/yago/BanksEstablishedIn1812
p1087
aVhttp://dbpedia.org/class/yago/Company108058098
p1088
aVhttp://dbpedia.org/class/yago/DepositoryFinancialInstitution108420278
p1089
aVhttp://dbpedia.org/class/yago/FinancialInstitution108054721
p1090
aVhttp://dbpedia.org/class/yago/Group100031264
p1091
aVhttp://dbpedia.org/class/yago/Institution108053576
p1092
aVhttp://dbpedia.org/class/yago/Organization108008335
p1093
aVhttp://dbpedia.org/class/yago/SocialGroup107950920
p1094
aVhttp://dbpedia.org/class/yago/YagoLegalActorGeo
p1095
aVhttp://dbpedia.org/class/yago/YagoPermanentlyLocatedEntity
p1096
aVhttp://dbpedia.org/class/yago/YagoLegalActor
p1097
aVhttp://dbpedia.org/class/yago/RegisteredBanksOfNewZealand
p1098
aVhttp://dbpedia.org/resource/Citibank
tp1099
aa(lp1100
((lp1101
Vhttp://www.w3.org/2002/07/owl#Thing
p1102
aVhttp://dbpedia.org/ontology/Place
p1103
aVhttp://dbpedia.org/ontology/Location
p1104
aVhttp://www.wikidata.org/entity/Q3455524
p1105
aVhttp://www.wikidata.org/entity/Q486972
p1106
aVhttp://dbpedia.org/ontology/AdministrativeRegion
p1107
aVhttp://dbpedia.org/ontology/PopulatedPlace
p1108
aVhttp://dbpedia.org/ontology/Region
p1109
aVhttp://schema.org/AdministrativeArea
p1110
aVhttp://schema.org/Place
p1111
aVhttp://umbel.org/umbel/rc/Location_Underspecified
p1112
aVhttp://umbel.org/umbel/rc/PopulatedPlace
p1113
aVhttp://dbpedia.org/class/yago/AdministrativeDistrict108491826
p1114
aVhttp://dbpedia.org/class/yago/Country108544813
p1115
aVhttp://dbpedia.org/class/yago/District108552138
p1116
aVhttp://dbpedia.org/class/yago/Location100027167
p1117
aVhttp://dbpedia.org/class/yago/Object100002684
p1118
aVhttp://dbpedia.org/class/yago/Region108630985
p1119
aVhttp://dbpedia.org/class/yago/YagoGeoEntity
p1120
aVhttp://dbpedia.org/class/yago/YagoLegalActorGeo
p1121
aVhttp://dbpedia.org/class/yago/PhysicalEntity100001930
p1122
aVhttp://dbpedia.org/class/yago/YagoPermanentlyLocatedEntity
p1123
aVhttp://dbpedia.org/class/yago/StatesOfTheUnitedStates
p1124
aVhttp://dbpedia.org/resource/New_York
tp1125
aa(lp1126
((lp1127
Vhttp://www.w3.org/2002/07/owl#Thing
p1128
aVhttp://dbpedia.org/class/yago/Abstraction100002137
p1129
aVhttp://dbpedia.org/class/yago/AdministrativeUnit108077292
p1130
aVhttp://dbpedia.org/class/yago/Agency108337324
p1131
aVhttp://dbpedia.org/class/yago/Group100031264
p1132
aVhttp://dbpedia.org/class/yago/Organization108008335
p1133
aVhttp://dbpedia.org/class/yago/SocialGroup107950920
p1134
aVhttp://dbpedia.org/class/yago/Unit108189659
p1135
aVhttp://dbpedia.org/class/yago/YagoLegalActorGeo
p1136
aVhttp://dbpedia.org/class/yago/YagoPermanentlyLocatedEntity
p1137
aVhttp://dbpedia.org/class/yago/YagoLegalActor
p1138
aVhttp://dbpedia.org/resource/United_States_Department_of_Defense
tp1139
aa(lp1140
a(lp1141
aa(lp1142
(lp1143
((lp1144
Vhttp://www.w3.org/2002/07/owl#Thing
p1145
aVhttp://dbpedia.org/ontology/Place
p1146
aVhttp://dbpedia.org/ontology/Location
p1147
aVhttp://www.wikidata.org/entity/Q486972
p1148
aVhttp://www.wikidata.org/entity/Q6256
p1149
aVhttp://dbpedia.org/ontology/Country
p1150
aVhttp://dbpedia.org/ontology/PopulatedPlace
p1151
aVhttp://www.w3.org/2003/01/geo/wgs84_pos#SpatialThing
p1152
aVhttp://schema.org/Country
p1153
aVhttp://schema.org/Place
p1154
aVhttp://umbel.org/umbel/rc/Country
p1155
aVhttp://umbel.org/umbel/rc/Location_Underspecified
p1156
aVhttp://umbel.org/umbel/rc/PopulatedPlace
p1157
aVhttp://dbpedia.org/class/yago/Abstraction100002137
p1158
aVhttp://dbpedia.org/class/yago/AdministrativeDistrict108491826
p1159
aVhttp://dbpedia.org/class/yago/BicontinentalCountries
p1160
aVhttp://dbpedia.org/class/yago/Country108544813
p1161
aVhttp://dbpedia.org/class/yago/District108552138
p1162
aVhttp://dbpedia.org/class/yago/Economy108366753
p1163
aVhttp://dbpedia.org/class/yago/Group100031264
p1164
aVhttp://dbpedia.org/class/yago/Location100027167
p1165
aVhttp://dbpedia.org/class/yago/Object100002684
p1166
aVhttp://dbpedia.org/class/yago/Region108630985
p1167
aVhttp://dbpedia.org/class/yago/System108435388
p1168
aVhttp://dbpedia.org/class/yago/YagoGeoEntity
p1169
aVhttp://dbpedia.org/class/yago/YagoLegalActorGeo
p1170
aVhttp://dbpedia.org/class/yago/CountriesBorderingTheArcticOcean
p1171
aVhttp://dbpedia.org/class/yago/CountriesBorderingTheAtlanticOcean
p1172
aVhttp://dbpedia.org/class/yago/CountriesBorderingThePacificOcean
p1173
aVhttp://dbpedia.org/class/yago/English-speakingCountriesAndTerritories
p1174
aVhttp://dbpedia.org/class/yago/FederalCountries
p1175
aVhttp://dbpedia.org/class/yago/PhysicalEntity100001930
p1176
aVhttp://dbpedia.org/class/yago/YagoPermanentlyLocatedEntity
p1177
aVhttp://dbpedia.org/class/yago/MemberStatesOfNATO
p1178
aVhttp://dbpedia.org/class/yago/MemberStatesOfTheUnitedNations
p1179
aVhttp://dbpedia.org/class/yago/NorthernAmericanCountries
p1180
aVhttp://dbpedia.org/class/yago/StatesAndTerritoriesEstablishedIn1776
p1181
aVhttp://dbpedia.org/class/yago/UnitedStates
p1182
aVhttp://dbpedia.org/resource/United_States
tp1183
aa(lp1184
a(lp1185
((lp1186
Vhttp://www.w3.org/2002/07/owl#Thing
p1187
aVhttp://dbpedia.org/ontology/Place
p1188
aVhttp://dbpedia.org/ontology/Location
p1189
aVhttp://www.wikidata.org/entity/Q3455524
p1190
aVhttp://www.wikidata.org/entity/Q486972
p1191
aVhttp://dbpedia.org/ontology/AdministrativeRegion
p1192
aVhttp://dbpedia.org/ontology/PopulatedPlace
p1193
aVhttp://dbpedia.org/ontology/Region
p1194
aVhttp://schema.org/AdministrativeArea
p1195
aVhttp://schema.org/Place
p1196
aVhttp://umbel.org/umbel/rc/Location_Underspecified
p1197
aVhttp://umbel.org/umbel/rc/PopulatedPlace
p1198
aVhttp://dbpedia.org/class/yago/AdministrativeDistrict108491826
p1199
aVhttp://dbpedia.org/class/yago/Country108544813
p1200
aVhttp://dbpedia.org/class/yago/District108552138
p1201
aVhttp://dbpedia.org/class/yago/Location100027167
p1202
aVhttp://dbpedia.org/class/yago/Object100002684
p1203
aVhttp://dbpedia.org/class/yago/Region108630985
p1204
aVhttp://dbpedia.org/class/yago/YagoGeoEntity
p1205
aVhttp://dbpedia.org/class/yago/YagoLegalActorGeo
p1206
aVhttp://dbpedia.org/class/yago/PhysicalEntity100001930
p1207
aVhttp://dbpedia.org/class/yago/YagoPermanentlyLocatedEntity
p1208
aVhttp://dbpedia.org/class/yago/StatesOfTheUnitedStates
p1209
aVhttp://dbpedia.org/resource/New_York
tp1210
aa(lp1211
((lp1212
Vhttp://www.w3.org/2002/07/owl#Thing
p1213
aVhttp://dbpedia.org/class/yago/Abstraction100002137
p1214
aVhttp://dbpedia.org/class/yago/AdministrativeUnit108077292
p1215
aVhttp://dbpedia.org/class/yago/Agency108337324
p1216
aVhttp://dbpedia.org/class/yago/Group100031264
p1217
aVhttp://dbpedia.org/class/yago/Organization108008335
p1218
aVhttp://dbpedia.org/class/yago/SocialGroup107950920
p1219
aVhttp://dbpedia.org/class/yago/Unit108189659
p1220
aVhttp://dbpedia.org/class/yago/YagoLegalActorGeo
p1221
aVhttp://dbpedia.org/class/yago/YagoPermanentlyLocatedEntity
p1222
aVhttp://dbpedia.org/class/yago/YagoLegalActor
p1223
aVhttp://dbpedia.org/resource/United_States_Department_of_Defense
tp1224
aa(lp1225
a(lp1226
aa(lp1227
(lp1228
((lp1229
Vhttp://www.w3.org/2002/07/owl#Thing
p1230
aVhttp://dbpedia.org/ontology/Place
p1231
aVhttp://dbpedia.org/ontology/Location
p1232
aVhttp://www.wikidata.org/entity/Q486972
p1233
aVhttp://www.wikidata.org/entity/Q6256
p1234
aVhttp://dbpedia.org/ontology/Country
p1235
aVhttp://dbpedia.org/ontology/PopulatedPlace
p1236
aVhttp://www.w3.org/2003/01/geo/wgs84_pos#SpatialThing
p1237
aVhttp://schema.org/Country
p1238
aVhttp://schema.org/Place
p1239
aVhttp://umbel.org/umbel/rc/Country
p1240
aVhttp://umbel.org/umbel/rc/Location_Underspecified
p1241
aVhttp://umbel.org/umbel/rc/PopulatedPlace
p1242
aVhttp://dbpedia.org/class/yago/Abstraction100002137
p1243
aVhttp://dbpedia.org/class/yago/AdministrativeDistrict108491826
p1244
aVhttp://dbpedia.org/class/yago/BicontinentalCountries
p1245
aVhttp://dbpedia.org/class/yago/Country108544813
p1246
aVhttp://dbpedia.org/class/yago/District108552138
p1247
aVhttp://dbpedia.org/class/yago/Economy108366753
p1248
aVhttp://dbpedia.org/class/yago/Group100031264
p1249
aVhttp://dbpedia.org/class/yago/Location100027167
p1250
aVhttp://dbpedia.org/class/yago/Object100002684
p1251
aVhttp://dbpedia.org/class/yago/Region108630985
p1252
aVhttp://dbpedia.org/class/yago/System108435388
p1253
aVhttp://dbpedia.org/class/yago/YagoGeoEntity
p1254
aVhttp://dbpedia.org/class/yago/YagoLegalActorGeo
p1255
aVhttp://dbpedia.org/class/yago/CountriesBorderingTheArcticOcean
p1256
aVhttp://dbpedia.org/class/yago/CountriesBorderingTheAtlanticOcean
p1257
aVhttp://dbpedia.org/class/yago/CountriesBorderingThePacificOcean
p1258
aVhttp://dbpedia.org/class/yago/English-speakingCountriesAndTerritories
p1259
aVhttp://dbpedia.org/class/yago/FederalCountries
p1260
aVhttp://dbpedia.org/class/yago/PhysicalEntity100001930
p1261
aVhttp://dbpedia.org/class/yago/YagoPermanentlyLocatedEntity
p1262
aVhttp://dbpedia.org/class/yago/MemberStatesOfNATO
p1263
aVhttp://dbpedia.org/class/yago/MemberStatesOfTheUnitedNations
p1264
aVhttp://dbpedia.org/class/yago/NorthernAmericanCountries
p1265
aVhttp://dbpedia.org/class/yago/StatesAndTerritoriesEstablishedIn1776
p1266
aVhttp://dbpedia.org/class/yago/UnitedStates
p1267
aVhttp://dbpedia.org/resource/United_States
tp1268
aa(lp1269
a(lp1270
((lp1271
Vhttp://www.w3.org/2002/07/owl#Thing
p1272
aVhttp://dbpedia.org/ontology/Place
p1273
aVhttp://dbpedia.org/ontology/Location
p1274
aVhttp://www.wikidata.org/entity/Q3455524
p1275
aVhttp://www.wikidata.org/entity/Q486972
p1276
aVhttp://dbpedia.org/ontology/AdministrativeRegion
p1277
aVhttp://dbpedia.org/ontology/PopulatedPlace
p1278
aVhttp://dbpedia.org/ontology/Region
p1279
aVhttp://schema.org/AdministrativeArea
p1280
aVhttp://schema.org/Place
p1281
aVhttp://umbel.org/umbel/rc/Location_Underspecified
p1282
aVhttp://umbel.org/umbel/rc/PopulatedPlace
p1283
aVhttp://dbpedia.org/class/yago/AdministrativeDistrict108491826
p1284
aVhttp://dbpedia.org/class/yago/Country108544813
p1285
aVhttp://dbpedia.org/class/yago/District108552138
p1286
aVhttp://dbpedia.org/class/yago/Location100027167
p1287
aVhttp://dbpedia.org/class/yago/Object100002684
p1288
aVhttp://dbpedia.org/class/yago/Region108630985
p1289
aVhttp://dbpedia.org/class/yago/YagoGeoEntity
p1290
aVhttp://dbpedia.org/class/yago/YagoLegalActorGeo
p1291
aVhttp://dbpedia.org/class/yago/PhysicalEntity100001930
p1292
aVhttp://dbpedia.org/class/yago/YagoPermanentlyLocatedEntity
p1293
aVhttp://dbpedia.org/class/yago/StatesOfTheUnitedStates
p1294
aVhttp://dbpedia.org/resource/New_York
tp1295
aa(lp1296
((lp1297
Vhttp://www.w3.org/2002/07/owl#Thing
p1298
aVhttp://dbpedia.org/class/yago/Abstraction100002137
p1299
aVhttp://dbpedia.org/class/yago/AdministrativeUnit108077292
p1300
aVhttp://dbpedia.org/class/yago/Agency108337324
p1301
aVhttp://dbpedia.org/class/yago/Group100031264
p1302
aVhttp://dbpedia.org/class/yago/Organization108008335
p1303
aVhttp://dbpedia.org/class/yago/SocialGroup107950920
p1304
aVhttp://dbpedia.org/class/yago/Unit108189659
p1305
aVhttp://dbpedia.org/class/yago/YagoLegalActorGeo
p1306
aVhttp://dbpedia.org/class/yago/YagoPermanentlyLocatedEntity
p1307
aVhttp://dbpedia.org/class/yago/YagoLegalActor
p1308
aVhttp://dbpedia.org/resource/United_States_Department_of_Defense
tp1309
aa(lp1310
a(lp1311
aa(lp1312
(lp1313
((lp1314
Vhttp://www.w3.org/2002/07/owl#Thing
p1315
aVhttp://dbpedia.org/ontology/Place
p1316
aVhttp://dbpedia.org/ontology/Location
p1317
aVhttp://www.wikidata.org/entity/Q486972
p1318
aVhttp://www.wikidata.org/entity/Q6256
p1319
aVhttp://dbpedia.org/ontology/Country
p1320
aVhttp://dbpedia.org/ontology/PopulatedPlace
p1321
aVhttp://www.w3.org/2003/01/geo/wgs84_pos#SpatialThing
p1322
aVhttp://schema.org/Country
p1323
aVhttp://schema.org/Place
p1324
aVhttp://umbel.org/umbel/rc/Country
p1325
aVhttp://umbel.org/umbel/rc/Location_Underspecified
p1326
aVhttp://umbel.org/umbel/rc/PopulatedPlace
p1327
aVhttp://dbpedia.org/class/yago/Abstraction100002137
p1328
aVhttp://dbpedia.org/class/yago/AdministrativeDistrict108491826
p1329
aVhttp://dbpedia.org/class/yago/BicontinentalCountries
p1330
aVhttp://dbpedia.org/class/yago/Country108544813
p1331
aVhttp://dbpedia.org/class/yago/District108552138
p1332
aVhttp://dbpedia.org/class/yago/Economy108366753
p1333
aVhttp://dbpedia.org/class/yago/Group100031264
p1334
aVhttp://dbpedia.org/class/yago/Location100027167
p1335
aVhttp://dbpedia.org/class/yago/Object100002684
p1336
aVhttp://dbpedia.org/class/yago/Region108630985
p1337
aVhttp://dbpedia.org/class/yago/System108435388
p1338
aVhttp://dbpedia.org/class/yago/YagoGeoEntity
p1339
aVhttp://dbpedia.org/class/yago/YagoLegalActorGeo
p1340
aVhttp://dbpedia.org/class/yago/CountriesBorderingTheArcticOcean
p1341
aVhttp://dbpedia.org/class/yago/CountriesBorderingTheAtlanticOcean
p1342
aVhttp://dbpedia.org/class/yago/CountriesBorderingThePacificOcean
p1343
aVhttp://dbpedia.org/class/yago/English-speakingCountriesAndTerritories
p1344
aVhttp://dbpedia.org/class/yago/FederalCountries
p1345
aVhttp://dbpedia.org/class/yago/PhysicalEntity100001930
p1346
aVhttp://dbpedia.org/class/yago/YagoPermanentlyLocatedEntity
p1347
aVhttp://dbpedia.org/class/yago/MemberStatesOfNATO
p1348
aVhttp://dbpedia.org/class/yago/MemberStatesOfTheUnitedNations
p1349
aVhttp://dbpedia.org/class/yago/NorthernAmericanCountries
p1350
aVhttp://dbpedia.org/class/yago/StatesAndTerritoriesEstablishedIn1776
p1351
aVhttp://dbpedia.org/class/yago/UnitedStates
p1352
aVhttp://dbpedia.org/resource/United_States
tp1353
aa(lp1354
a(lp1355
((lp1356
Vhttp://www.w3.org/2002/07/owl#Thing
p1357
aVhttp://dbpedia.org/ontology/Place
p1358
aVhttp://dbpedia.org/ontology/Location
p1359
aVhttp://www.wikidata.org/entity/Q3455524
p1360
aVhttp://www.wikidata.org/entity/Q486972
p1361
aVhttp://dbpedia.org/ontology/AdministrativeRegion
p1362
aVhttp://dbpedia.org/ontology/PopulatedPlace
p1363
aVhttp://dbpedia.org/ontology/Region
p1364
aVhttp://schema.org/AdministrativeArea
p1365
aVhttp://schema.org/Place
p1366
aVhttp://umbel.org/umbel/rc/Location_Underspecified
p1367
aVhttp://umbel.org/umbel/rc/PopulatedPlace
p1368
aVhttp://dbpedia.org/class/yago/AdministrativeDistrict108491826
p1369
aVhttp://dbpedia.org/class/yago/Country108544813
p1370
aVhttp://dbpedia.org/class/yago/District108552138
p1371
aVhttp://dbpedia.org/class/yago/Location100027167
p1372
aVhttp://dbpedia.org/class/yago/Object100002684
p1373
aVhttp://dbpedia.org/class/yago/Region108630985
p1374
aVhttp://dbpedia.org/class/yago/YagoGeoEntity
p1375
aVhttp://dbpedia.org/class/yago/YagoLegalActorGeo
p1376
aVhttp://dbpedia.org/class/yago/PhysicalEntity100001930
p1377
aVhttp://dbpedia.org/class/yago/YagoPermanentlyLocatedEntity
p1378
aVhttp://dbpedia.org/class/yago/StatesOfTheUnitedStates
p1379
aVhttp://dbpedia.org/resource/New_York
tp1380
aa(lp1381
((lp1382
Vhttp://www.w3.org/2002/07/owl#Thing
p1383
aVhttp://dbpedia.org/class/yago/Abstraction100002137
p1384
aVhttp://dbpedia.org/class/yago/AdministrativeUnit108077292
p1385
aVhttp://dbpedia.org/class/yago/Agency108337324
p1386
aVhttp://dbpedia.org/class/yago/Group100031264
p1387
aVhttp://dbpedia.org/class/yago/Organization108008335
p1388
aVhttp://dbpedia.org/class/yago/SocialGroup107950920
p1389
aVhttp://dbpedia.org/class/yago/Unit108189659
p1390
aVhttp://dbpedia.org/class/yago/YagoLegalActorGeo
p1391
aVhttp://dbpedia.org/class/yago/YagoPermanentlyLocatedEntity
p1392
aVhttp://dbpedia.org/class/yago/YagoLegalActor
p1393
aVhttp://dbpedia.org/resource/United_States_Department_of_Defense
tp1394
aa(lp1395
a(lp1396
aa(lp1397
(lp1398
((lp1399
Vhttp://www.w3.org/2002/07/owl#Thing
p1400
aVhttp://dbpedia.org/ontology/Place
p1401
aVhttp://dbpedia.org/ontology/Location
p1402
aVhttp://www.wikidata.org/entity/Q486972
p1403
aVhttp://www.wikidata.org/entity/Q6256
p1404
aVhttp://dbpedia.org/ontology/Country
p1405
aVhttp://dbpedia.org/ontology/PopulatedPlace
p1406
aVhttp://www.w3.org/2003/01/geo/wgs84_pos#SpatialThing
p1407
aVhttp://schema.org/Country
p1408
aVhttp://schema.org/Place
p1409
aVhttp://umbel.org/umbel/rc/Country
p1410
aVhttp://umbel.org/umbel/rc/Location_Underspecified
p1411
aVhttp://umbel.org/umbel/rc/PopulatedPlace
p1412
aVhttp://dbpedia.org/class/yago/Abstraction100002137
p1413
aVhttp://dbpedia.org/class/yago/AdministrativeDistrict108491826
p1414
aVhttp://dbpedia.org/class/yago/BicontinentalCountries
p1415
aVhttp://dbpedia.org/class/yago/Country108544813
p1416
aVhttp://dbpedia.org/class/yago/District108552138
p1417
aVhttp://dbpedia.org/class/yago/Economy108366753
p1418
aVhttp://dbpedia.org/class/yago/Group100031264
p1419
aVhttp://dbpedia.org/class/yago/Location100027167
p1420
aVhttp://dbpedia.org/class/yago/Object100002684
p1421
aVhttp://dbpedia.org/class/yago/Region108630985
p1422
aVhttp://dbpedia.org/class/yago/System108435388
p1423
aVhttp://dbpedia.org/class/yago/YagoGeoEntity
p1424
aVhttp://dbpedia.org/class/yago/YagoLegalActorGeo
p1425
aVhttp://dbpedia.org/class/yago/CountriesBorderingTheArcticOcean
p1426
aVhttp://dbpedia.org/class/yago/CountriesBorderingTheAtlanticOcean
p1427
aVhttp://dbpedia.org/class/yago/CountriesBorderingThePacificOcean
p1428
aVhttp://dbpedia.org/class/yago/English-speakingCountriesAndTerritories
p1429
aVhttp://dbpedia.org/class/yago/FederalCountries
p1430
aVhttp://dbpedia.org/class/yago/PhysicalEntity100001930
p1431
aVhttp://dbpedia.org/class/yago/YagoPermanentlyLocatedEntity
p1432
aVhttp://dbpedia.org/class/yago/MemberStatesOfNATO
p1433
aVhttp://dbpedia.org/class/yago/MemberStatesOfTheUnitedNations
p1434
aVhttp://dbpedia.org/class/yago/NorthernAmericanCountries
p1435
aVhttp://dbpedia.org/class/yago/StatesAndTerritoriesEstablishedIn1776
p1436
aVhttp://dbpedia.org/class/yago/UnitedStates
p1437
aVhttp://dbpedia.org/resource/United_States
tp1438
aa(lp1439
((lp1440
Vhttp://www.w3.org/2002/07/owl#Thing
p1441
aVhttp://dbpedia.org/ontology/Company
p1442
aVhttp://www.ontologydesignpatterns.org/ont/dul/DUL.owl#Agent
p1443
aVhttp://www.ontologydesignpatterns.org/ont/dul/DUL.owl#SocialPerson
p1444
aVhttp://www.wikidata.org/entity/Q43229
p1445
aVhttp://dbpedia.org/ontology/Agent
p1446
aVhttp://dbpedia.org/ontology/Bank
p1447
aVhttp://dbpedia.org/ontology/Organisation
p1448
aVhttp://schema.org/BankOrCreditUnion
p1449
aVhttp://schema.org/Organization
p1450
aVhttp://dbpedia.org/class/yago/Abstraction100002137
p1451
aVhttp://dbpedia.org/class/yago/BanksOfTheUnitedKingdom
p1452
aVhttp://dbpedia.org/class/yago/Company108058098
p1453
aVhttp://dbpedia.org/class/yago/DepositoryFinancialInstitution108420278
p1454
aVhttp://dbpedia.org/class/yago/FinancialInstitution108054721
p1455
aVhttp://dbpedia.org/class/yago/Group100031264
p1456
aVhttp://dbpedia.org/class/yago/Institution108053576
p1457
aVhttp://dbpedia.org/class/yago/Organization108008335
p1458
aVhttp://dbpedia.org/class/yago/SocialGroup107950920
p1459
aVhttp://dbpedia.org/class/yago/YagoLegalActorGeo
p1460
aVhttp://dbpedia.org/class/yago/CompaniesBasedInLondon
p1461
aVhttp://dbpedia.org/class/yago/CompaniesEstablishedIn1853
p1462
aVhttp://dbpedia.org/class/yago/CompaniesListedOnTheKarachiStockExchange
p1463
aVhttp://dbpedia.org/class/yago/CompaniesListedOnTheLondonStockExchange
p1464
aVhttp://dbpedia.org/class/yago/CompaniesListedOnTheNationalStockExchangeOfIndia
p1465
aVhttp://dbpedia.org/class/yago/YagoPermanentlyLocatedEntity
p1466
aVhttp://dbpedia.org/class/yago/YagoLegalActor
p1467
aVhttp://dbpedia.org/resource/Standard_Chartered
tp1468
aa(lp1469
((lp1470
Vhttp://www.w3.org/2002/07/owl#Thing
p1471
aVhttp://dbpedia.org/ontology/Place
p1472
aVhttp://dbpedia.org/ontology/Location
p1473
aVhttp://www.wikidata.org/entity/Q3455524
p1474
aVhttp://www.wikidata.org/entity/Q486972
p1475
aVhttp://dbpedia.org/ontology/AdministrativeRegion
p1476
aVhttp://dbpedia.org/ontology/PopulatedPlace
p1477
aVhttp://dbpedia.org/ontology/Region
p1478
aVhttp://schema.org/AdministrativeArea
p1479
aVhttp://schema.org/Place
p1480
aVhttp://umbel.org/umbel/rc/Location_Underspecified
p1481
aVhttp://umbel.org/umbel/rc/PopulatedPlace
p1482
aVhttp://dbpedia.org/class/yago/AdministrativeDistrict108491826
p1483
aVhttp://dbpedia.org/class/yago/Country108544813
p1484
aVhttp://dbpedia.org/class/yago/District108552138
p1485
aVhttp://dbpedia.org/class/yago/Location100027167
p1486
aVhttp://dbpedia.org/class/yago/Object100002684
p1487
aVhttp://dbpedia.org/class/yago/Region108630985
p1488
aVhttp://dbpedia.org/class/yago/YagoGeoEntity
p1489
aVhttp://dbpedia.org/class/yago/YagoLegalActorGeo
p1490
aVhttp://dbpedia.org/class/yago/PhysicalEntity100001930
p1491
aVhttp://dbpedia.org/class/yago/YagoPermanentlyLocatedEntity
p1492
aVhttp://dbpedia.org/class/yago/StatesOfTheUnitedStates
p1493
aVhttp://dbpedia.org/resource/New_York
tp1494
aa(lp1495
((lp1496
Vhttp://www.w3.org/2002/07/owl#Thing
p1497
aVhttp://dbpedia.org/class/yago/Abstraction100002137
p1498
aVhttp://dbpedia.org/class/yago/AdministrativeUnit108077292
p1499
aVhttp://dbpedia.org/class/yago/Agency108337324
p1500
aVhttp://dbpedia.org/class/yago/Group100031264
p1501
aVhttp://dbpedia.org/class/yago/Organization108008335
p1502
aVhttp://dbpedia.org/class/yago/SocialGroup107950920
p1503
aVhttp://dbpedia.org/class/yago/Unit108189659
p1504
aVhttp://dbpedia.org/class/yago/YagoLegalActorGeo
p1505
aVhttp://dbpedia.org/class/yago/YagoPermanentlyLocatedEntity
p1506
aVhttp://dbpedia.org/class/yago/YagoLegalActor
p1507
aVhttp://dbpedia.org/resource/United_States_Department_of_Defense
tp1508
aa(lp1509
a(lp1510
aa(lp1511
(lp1512
((lp1513
Vhttp://www.w3.org/2002/07/owl#Thing
p1514
aVhttp://dbpedia.org/ontology/Place
p1515
aVhttp://dbpedia.org/ontology/Location
p1516
aVhttp://www.wikidata.org/entity/Q486972
p1517
aVhttp://www.wikidata.org/entity/Q6256
p1518
aVhttp://dbpedia.org/ontology/Country
p1519
aVhttp://dbpedia.org/ontology/PopulatedPlace
p1520
aVhttp://www.w3.org/2003/01/geo/wgs84_pos#SpatialThing
p1521
aVhttp://schema.org/Country
p1522
aVhttp://schema.org/Place
p1523
aVhttp://umbel.org/umbel/rc/Country
p1524
aVhttp://umbel.org/umbel/rc/Location_Underspecified
p1525
aVhttp://umbel.org/umbel/rc/PopulatedPlace
p1526
aVhttp://dbpedia.org/class/yago/Abstraction100002137
p1527
aVhttp://dbpedia.org/class/yago/AdministrativeDistrict108491826
p1528
aVhttp://dbpedia.org/class/yago/BicontinentalCountries
p1529
aVhttp://dbpedia.org/class/yago/Country108544813
p1530
aVhttp://dbpedia.org/class/yago/District108552138
p1531
aVhttp://dbpedia.org/class/yago/Economy108366753
p1532
aVhttp://dbpedia.org/class/yago/Group100031264
p1533
aVhttp://dbpedia.org/class/yago/Location100027167
p1534
aVhttp://dbpedia.org/class/yago/Object100002684
p1535
aVhttp://dbpedia.org/class/yago/Region108630985
p1536
aVhttp://dbpedia.org/class/yago/System108435388
p1537
aVhttp://dbpedia.org/class/yago/YagoGeoEntity
p1538
aVhttp://dbpedia.org/class/yago/YagoLegalActorGeo
p1539
aVhttp://dbpedia.org/class/yago/CountriesBorderingTheArcticOcean
p1540
aVhttp://dbpedia.org/class/yago/CountriesBorderingTheAtlanticOcean
p1541
aVhttp://dbpedia.org/class/yago/CountriesBorderingThePacificOcean
p1542
aVhttp://dbpedia.org/class/yago/English-speakingCountriesAndTerritories
p1543
aVhttp://dbpedia.org/class/yago/FederalCountries
p1544
aVhttp://dbpedia.org/class/yago/PhysicalEntity100001930
p1545
aVhttp://dbpedia.org/class/yago/YagoPermanentlyLocatedEntity
p1546
aVhttp://dbpedia.org/class/yago/MemberStatesOfNATO
p1547
aVhttp://dbpedia.org/class/yago/MemberStatesOfTheUnitedNations
p1548
aVhttp://dbpedia.org/class/yago/NorthernAmericanCountries
p1549
aVhttp://dbpedia.org/class/yago/StatesAndTerritoriesEstablishedIn1776
p1550
aVhttp://dbpedia.org/class/yago/UnitedStates
p1551
aVhttp://dbpedia.org/resource/United_States
tp1552
aa(lp1553
((lp1554
Vhttp://www.w3.org/2002/07/owl#Thing
p1555
aVhttp://dbpedia.org/ontology/Company
p1556
aVhttp://www.ontologydesignpatterns.org/ont/dul/DUL.owl#Agent
p1557
aVhttp://www.ontologydesignpatterns.org/ont/dul/DUL.owl#SocialPerson
p1558
aVhttp://www.wikidata.org/entity/Q43229
p1559
aVhttp://dbpedia.org/ontology/Agent
p1560
aVhttp://dbpedia.org/ontology/Bank
p1561
aVhttp://dbpedia.org/ontology/Organisation
p1562
aVhttp://schema.org/BankOrCreditUnion
p1563
aVhttp://schema.org/Organization
p1564
aVhttp://dbpedia.org/class/yago/Abstraction100002137
p1565
aVhttp://dbpedia.org/class/yago/BanksBasedInNewYorkCity
p1566
aVhttp://dbpedia.org/class/yago/Company108058098
p1567
aVhttp://dbpedia.org/class/yago/DepositoryFinancialInstitution108420278
p1568
aVhttp://dbpedia.org/class/yago/FinancialInstitution108054721
p1569
aVhttp://dbpedia.org/class/yago/Group100031264
p1570
aVhttp://dbpedia.org/class/yago/Institution108053576
p1571
aVhttp://dbpedia.org/class/yago/Organization108008335
p1572
aVhttp://dbpedia.org/class/yago/SocialGroup107950920
p1573
aVhttp://dbpedia.org/class/yago/YagoLegalActorGeo
p1574
aVhttp://dbpedia.org/class/yago/CompaniesBasedInManhattan
p1575
aVhttp://dbpedia.org/class/yago/CompaniesEstablishedIn2007
p1576
aVhttp://dbpedia.org/class/yago/FinancialServicesCompaniesBasedInNewYorkCity
p1577
aVhttp://dbpedia.org/class/yago/YagoPermanentlyLocatedEntity
p1578
aVhttp://dbpedia.org/class/yago/MultinationalCompaniesBasedInNewYorkCity
p1579
aVhttp://dbpedia.org/class/yago/YagoLegalActor
p1580
aVhttp://dbpedia.org/class/yago/PubliclyTradedCompaniesBasedInNewYorkCity
p1581
aVhttp://dbpedia.org/resource/The_Bank_of_New_York_Mellon
tp1582
aa(lp1583
((lp1584
Vhttp://www.w3.org/2002/07/owl#Thing
p1585
aVhttp://dbpedia.org/ontology/Place
p1586
aVhttp://dbpedia.org/ontology/Location
p1587
aVhttp://www.wikidata.org/entity/Q3455524
p1588
aVhttp://www.wikidata.org/entity/Q486972
p1589
aVhttp://dbpedia.org/ontology/AdministrativeRegion
p1590
aVhttp://dbpedia.org/ontology/PopulatedPlace
p1591
aVhttp://dbpedia.org/ontology/Region
p1592
aVhttp://schema.org/AdministrativeArea
p1593
aVhttp://schema.org/Place
p1594
aVhttp://umbel.org/umbel/rc/Location_Underspecified
p1595
aVhttp://umbel.org/umbel/rc/PopulatedPlace
p1596
aVhttp://dbpedia.org/class/yago/AdministrativeDistrict108491826
p1597
aVhttp://dbpedia.org/class/yago/Country108544813
p1598
aVhttp://dbpedia.org/class/yago/District108552138
p1599
aVhttp://dbpedia.org/class/yago/Location100027167
p1600
aVhttp://dbpedia.org/class/yago/Object100002684
p1601
aVhttp://dbpedia.org/class/yago/Region108630985
p1602
aVhttp://dbpedia.org/class/yago/YagoGeoEntity
p1603
aVhttp://dbpedia.org/class/yago/YagoLegalActorGeo
p1604
aVhttp://dbpedia.org/class/yago/PhysicalEntity100001930
p1605
aVhttp://dbpedia.org/class/yago/YagoPermanentlyLocatedEntity
p1606
aVhttp://dbpedia.org/class/yago/StatesOfTheUnitedStates
p1607
aVhttp://dbpedia.org/resource/New_York
tp1608
aa(lp1609
((lp1610
Vhttp://www.w3.org/2002/07/owl#Thing
p1611
aVhttp://dbpedia.org/class/yago/Abstraction100002137
p1612
aVhttp://dbpedia.org/class/yago/AdministrativeUnit108077292
p1613
aVhttp://dbpedia.org/class/yago/Agency108337324
p1614
aVhttp://dbpedia.org/class/yago/Group100031264
p1615
aVhttp://dbpedia.org/class/yago/Organization108008335
p1616
aVhttp://dbpedia.org/class/yago/SocialGroup107950920
p1617
aVhttp://dbpedia.org/class/yago/Unit108189659
p1618
aVhttp://dbpedia.org/class/yago/YagoLegalActorGeo
p1619
aVhttp://dbpedia.org/class/yago/YagoPermanentlyLocatedEntity
p1620
aVhttp://dbpedia.org/class/yago/YagoLegalActor
p1621
aVhttp://dbpedia.org/resource/United_States_Department_of_Defense
tp1622
aa(lp1623
a(lp1624
aa(lp1625
(lp1626
((lp1627
Vhttp://www.w3.org/2002/07/owl#Thing
p1628
aVhttp://dbpedia.org/ontology/Place
p1629
aVhttp://dbpedia.org/ontology/Location
p1630
aVhttp://www.wikidata.org/entity/Q486972
p1631
aVhttp://www.wikidata.org/entity/Q6256
p1632
aVhttp://dbpedia.org/ontology/Country
p1633
aVhttp://dbpedia.org/ontology/PopulatedPlace
p1634
aVhttp://www.w3.org/2003/01/geo/wgs84_pos#SpatialThing
p1635
aVhttp://schema.org/Country
p1636
aVhttp://schema.org/Place
p1637
aVhttp://umbel.org/umbel/rc/Country
p1638
aVhttp://umbel.org/umbel/rc/Location_Underspecified
p1639
aVhttp://umbel.org/umbel/rc/PopulatedPlace
p1640
aVhttp://dbpedia.org/class/yago/Abstraction100002137
p1641
aVhttp://dbpedia.org/class/yago/AdministrativeDistrict108491826
p1642
aVhttp://dbpedia.org/class/yago/BicontinentalCountries
p1643
aVhttp://dbpedia.org/class/yago/Country108544813
p1644
aVhttp://dbpedia.org/class/yago/District108552138
p1645
aVhttp://dbpedia.org/class/yago/Economy108366753
p1646
aVhttp://dbpedia.org/class/yago/Group100031264
p1647
aVhttp://dbpedia.org/class/yago/Location100027167
p1648
aVhttp://dbpedia.org/class/yago/Object100002684
p1649
aVhttp://dbpedia.org/class/yago/Region108630985
p1650
aVhttp://dbpedia.org/class/yago/System108435388
p1651
aVhttp://dbpedia.org/class/yago/YagoGeoEntity
p1652
aVhttp://dbpedia.org/class/yago/YagoLegalActorGeo
p1653
aVhttp://dbpedia.org/class/yago/CountriesBorderingTheArcticOcean
p1654
aVhttp://dbpedia.org/class/yago/CountriesBorderingTheAtlanticOcean
p1655
aVhttp://dbpedia.org/class/yago/CountriesBorderingThePacificOcean
p1656
aVhttp://dbpedia.org/class/yago/English-speakingCountriesAndTerritories
p1657
aVhttp://dbpedia.org/class/yago/FederalCountries
p1658
aVhttp://dbpedia.org/class/yago/PhysicalEntity100001930
p1659
aVhttp://dbpedia.org/class/yago/YagoPermanentlyLocatedEntity
p1660
aVhttp://dbpedia.org/class/yago/MemberStatesOfNATO
p1661
aVhttp://dbpedia.org/class/yago/MemberStatesOfTheUnitedNations
p1662
aVhttp://dbpedia.org/class/yago/NorthernAmericanCountries
p1663
aVhttp://dbpedia.org/class/yago/StatesAndTerritoriesEstablishedIn1776
p1664
aVhttp://dbpedia.org/class/yago/UnitedStates
p1665
aVhttp://dbpedia.org/resource/United_States
tp1666
aa(lp1667
((lp1668
Vhttp://www.w3.org/2002/07/owl#Thing
p1669
aVhttp://dbpedia.org/ontology/Company
p1670
aVhttp://www.ontologydesignpatterns.org/ont/dul/DUL.owl#Agent
p1671
aVhttp://www.ontologydesignpatterns.org/ont/dul/DUL.owl#SocialPerson
p1672
aVhttp://www.wikidata.org/entity/Q43229
p1673
aVhttp://dbpedia.org/ontology/Agent
p1674
aVhttp://dbpedia.org/ontology/Bank
p1675
aVhttp://dbpedia.org/ontology/Organisation
p1676
aVhttp://schema.org/BankOrCreditUnion
p1677
aVhttp://schema.org/Organization
p1678
aVhttp://umbel.org/umbel/rc/Business
p1679
aVhttp://umbel.org/umbel/rc/Organization
p1680
aVhttp://dbpedia.org/class/yago/Abstraction100002137
p1681
aVhttp://dbpedia.org/class/yago/BanksBasedInCalifornia
p1682
aVhttp://dbpedia.org/class/yago/BanksEstablishedIn1852
p1683
aVhttp://dbpedia.org/class/yago/Brokerage108069878
p1684
aVhttp://dbpedia.org/class/yago/Company108058098
p1685
aVhttp://dbpedia.org/class/yago/DepositoryFinancialInstitution108420278
p1686
aVhttp://dbpedia.org/class/yago/FinancialInstitution108054721
p1687
aVhttp://dbpedia.org/class/yago/Group100031264
p1688
aVhttp://dbpedia.org/class/yago/Institution108053576
p1689
aVhttp://dbpedia.org/class/yago/NondepositoryFinancialInstitution108419984
p1690
aVhttp://dbpedia.org/class/yago/Organization108008335
p1691
aVhttp://dbpedia.org/class/yago/SocialGroup107950920
p1692
aVhttp://dbpedia.org/class/yago/YagoLegalActorGeo
p1693
aVhttp://dbpedia.org/class/yago/CompaniesBasedInSanFrancisco,California
p1694
aVhttp://dbpedia.org/class/yago/YagoPermanentlyLocatedEntity
p1695
aVhttp://dbpedia.org/class/yago/OnlineBrokerages
p1696
aVhttp://dbpedia.org/class/yago/YagoLegalActor
p1697
aVhttp://dbpedia.org/resource/Wells_Fargo
tp1698
aa(lp1699
((lp1700
Vhttp://www.w3.org/2002/07/owl#Thing
p1701
aVhttp://dbpedia.org/ontology/Place
p1702
aVhttp://dbpedia.org/ontology/Location
p1703
aVhttp://www.wikidata.org/entity/Q3455524
p1704
aVhttp://www.wikidata.org/entity/Q486972
p1705
aVhttp://dbpedia.org/ontology/AdministrativeRegion
p1706
aVhttp://dbpedia.org/ontology/PopulatedPlace
p1707
aVhttp://dbpedia.org/ontology/Region
p1708
aVhttp://schema.org/AdministrativeArea
p1709
aVhttp://schema.org/Place
p1710
aVhttp://umbel.org/umbel/rc/Location_Underspecified
p1711
aVhttp://umbel.org/umbel/rc/PopulatedPlace
p1712
aVhttp://dbpedia.org/class/yago/AdministrativeDistrict108491826
p1713
aVhttp://dbpedia.org/class/yago/Country108544813
p1714
aVhttp://dbpedia.org/class/yago/District108552138
p1715
aVhttp://dbpedia.org/class/yago/Location100027167
p1716
aVhttp://dbpedia.org/class/yago/Object100002684
p1717
aVhttp://dbpedia.org/class/yago/Region108630985
p1718
aVhttp://dbpedia.org/class/yago/YagoGeoEntity
p1719
aVhttp://dbpedia.org/class/yago/YagoLegalActorGeo
p1720
aVhttp://dbpedia.org/class/yago/PhysicalEntity100001930
p1721
aVhttp://dbpedia.org/class/yago/YagoPermanentlyLocatedEntity
p1722
aVhttp://dbpedia.org/class/yago/StatesOfTheUnitedStates
p1723
aVhttp://dbpedia.org/resource/New_York
tp1724
aa(lp1725
((lp1726
Vhttp://www.w3.org/2002/07/owl#Thing
p1727
aVhttp://dbpedia.org/class/yago/Abstraction100002137
p1728
aVhttp://dbpedia.org/class/yago/AdministrativeUnit108077292
p1729
aVhttp://dbpedia.org/class/yago/Agency108337324
p1730
aVhttp://dbpedia.org/class/yago/Group100031264
p1731
aVhttp://dbpedia.org/class/yago/Organization108008335
p1732
aVhttp://dbpedia.org/class/yago/SocialGroup107950920
p1733
aVhttp://dbpedia.org/class/yago/Unit108189659
p1734
aVhttp://dbpedia.org/class/yago/YagoLegalActorGeo
p1735
aVhttp://dbpedia.org/class/yago/YagoPermanentlyLocatedEntity
p1736
aVhttp://dbpedia.org/class/yago/YagoLegalActor
p1737
aVhttp://dbpedia.org/resource/United_States_Department_of_Defense
p1738
tp1739
aa(lp1740
a(lp1741
aa.