(lp1
(lp2
(lp3
((lp4
Vhttp://www.w3.org/2002/07/owl#Thing
p5
aVhttp://dbpedia.org/ontology/Company
p6
aVhttp://www.ontologydesignpatterns.org/ont/dul/DUL.owl#Agent
p7
aVhttp://www.ontologydesignpatterns.org/ont/dul/DUL.owl#SocialPerson
p8
aVhttp://www.wikidata.org/entity/Q43229
p9
aVhttp://dbpedia.org/ontology/Agent
p10
aVhttp://dbpedia.org/ontology/Organisation
p11
aVhttp://schema.org/Organization
p12
aVhttp://dbpedia.org/class/yago/Abstraction100002137
p13
aVhttp://dbpedia.org/class/yago/Company108058098
p14
aVhttp://dbpedia.org/class/yago/Group100031264
p15
aVhttp://dbpedia.org/class/yago/Institution108053576
p16
aVhttp://dbpedia.org/class/yago/Organization108008335
p17
aVhttp://dbpedia.org/class/yago/SocialGroup107950920
p18
aVhttp://dbpedia.org/class/yago/YagoLegalActorGeo
p19
aVhttp://dbpedia.org/class/yago/CompaniesEstablishedIn1998
p20
aVhttp://dbpedia.org/class/yago/CompaniesOfCura%C3%A7ao
p21
aVhttp://dbpedia.org/class/yago/YagoPermanentlyLocatedEntity
p22
aVhttp://dbpedia.org/class/yago/PokerCompanies
p23
aVhttp://dbpedia.org/class/yago/YagoLegalActor
p24
aVhttp://dbpedia.org/resource/Pinnacle_Sports
tp25
aa(lp26
a(lp27
aa(lp28
(lp29
a(lp30
a(lp31
aa(lp32
(lp33
((lVhttp://dbpedia.org/resource/Bookmaker
tp34
aa(lp35
a(lp36
aa(lp37
(lp38
((lp39
Vhttp://www.w3.org/2002/07/owl#Thing
p40
aVhttp://purl.org/ontology/bibo/Book
p41
aVhttp://www.wikidata.org/entity/Q386724
p42
aVhttp://www.wikidata.org/entity/Q571
p43
aVhttp://dbpedia.org/ontology/Book
p44
aVhttp://dbpedia.org/ontology/Work
p45
aVhttp://dbpedia.org/ontology/WrittenWork
p46
aVhttp://schema.org/Book
p47
aVhttp://schema.org/CreativeWork
p48
aVhttp://umbel.org/umbel/rc/Book_CW
p49
aVhttp://dbpedia.org/class/yago/1998Books
p50
aVhttp://dbpedia.org/class/yago/Anthology106591609
p51
aVhttp://dbpedia.org/class/yago/Artifact100021939
p52
aVhttp://dbpedia.org/class/yago/Book106410904
p53
aVhttp://dbpedia.org/class/yago/Collection106591442
p54
aVhttp://dbpedia.org/class/yago/Creation103129123
p55
aVhttp://dbpedia.org/class/yago/Object100002684
p56
aVhttp://dbpedia.org/class/yago/Product104007894
p57
aVhttp://dbpedia.org/class/yago/Publication106589574
p58
aVhttp://dbpedia.org/class/yago/Whole100003553
p59
aVhttp://dbpedia.org/class/yago/FantasyAnthologies
p60
aVhttp://dbpedia.org/class/yago/PhysicalEntity100001930
p61
aVhttp://dbpedia.org/class/yago/Work104599396
p62
aVhttp://dbpedia.org/resource/Legends_(book)
tp63
aa(lp64
a(lp65
aa(lp66
(lp67
((lp68
Vhttp://www.w3.org/2002/07/owl#Thing
p69
aVhttp://dbpedia.org/ontology/Company
p70
aVhttp://www.ontologydesignpatterns.org/ont/dul/DUL.owl#Agent
p71
aVhttp://www.ontologydesignpatterns.org/ont/dul/DUL.owl#SocialPerson
p72
aVhttp://www.wikidata.org/entity/Q43229
p73
aVhttp://dbpedia.org/ontology/Agent
p74
aVhttp://dbpedia.org/ontology/Organisation
p75
aVhttp://schema.org/Organization
p76
aVhttp://dbpedia.org/class/yago/Abstraction100002137
p77
aVhttp://dbpedia.org/class/yago/Company108058098
p78
aVhttp://dbpedia.org/class/yago/Group100031264
p79
aVhttp://dbpedia.org/class/yago/Institution108053576
p80
aVhttp://dbpedia.org/class/yago/Organization108008335
p81
aVhttp://dbpedia.org/class/yago/SocialGroup107950920
p82
aVhttp://dbpedia.org/class/yago/YagoLegalActorGeo
p83
aVhttp://dbpedia.org/class/yago/YagoPermanentlyLocatedEntity
p84
aVhttp://dbpedia.org/class/yago/GamblingCompaniesOfAntigua
p85
aVhttp://dbpedia.org/class/yago/PokerCompanies
p86
aVhttp://dbpedia.org/class/yago/YagoLegalActor
p87
aVhttp://dbpedia.org/resource/Bodog
p88
tp89
aa(lp90
a(lp91
aa.