(lp1
(lp2
(lp3
a(lp4
a(lp5
a(lp6
a(lp7
((lp8
Vhttp://www.w3.org/2002/07/owl#Thing
p9
aVhttp://www.ontologydesignpatterns.org/ont/dul/DUL.owl#Agent
p10
aVhttp://www.ontologydesignpatterns.org/ont/dul/DUL.owl#SocialPerson
p11
aVhttp://www.wikidata.org/entity/Q43229
p12
aVhttp://dbpedia.org/ontology/Agent
p13
aVhttp://dbpedia.org/ontology/Organisation
p14
aVhttp://schema.org/Organization
p15
aVhttp://umbel.org/umbel/rc/Country
p16
aVhttp://dbpedia.org/class/yago/AdministrativeDistrict108491826
p17
aVhttp://dbpedia.org/class/yago/Country108544813
p18
aVhttp://dbpedia.org/class/yago/District108552138
p19
aVhttp://dbpedia.org/class/yago/Location100027167
p20
aVhttp://dbpedia.org/class/yago/Object100002684
p21
aVhttp://dbpedia.org/class/yago/Region108630039
p22
aVhttp://dbpedia.org/class/yago/Region108630985
p23
aVhttp://dbpedia.org/class/yago/YagoGeoEntity
p24
aVhttp://dbpedia.org/class/yago/YagoLegalActorGeo
p25
aVhttp://dbpedia.org/class/yago/DisputedTerritoriesInAsia
p26
aVhttp://dbpedia.org/class/yago/DividedRegions
p27
aVhttp://dbpedia.org/class/yago/PhysicalEntity100001930
p28
aVhttp://dbpedia.org/class/yago/YagoPermanentlyLocatedEntity
p29
aVhttp://dbpedia.org/resource/Korea
tp30
aaa(lp31
(lp32
((lp33
Vhttp://www.w3.org/2002/07/owl#Thing
p34
aVhttp://www.ontologydesignpatterns.org/ont/dul/DUL.owl#Agent
p35
aVhttp://www.ontologydesignpatterns.org/ont/dul/DUL.owl#SocialPerson
p36
aVhttp://www.wikidata.org/entity/Q141683
p37
aVhttp://www.wikidata.org/entity/Q15265344
p38
aVhttp://www.wikidata.org/entity/Q43229
p39
aVhttp://dbpedia.org/ontology/Agent
p40
aVhttp://dbpedia.org/ontology/BroadcastNetwork
p41
aVhttp://dbpedia.org/ontology/Broadcaster
p42
aVhttp://dbpedia.org/ontology/Organisation
p43
aVhttp://schema.org/Organization
p44
aVhttp://umbel.org/umbel/rc/Business
p45
aVhttp://umbel.org/umbel/rc/Organization
p46
aVhttp://dbpedia.org/class/yago/Abstraction100002137
p47
aVhttp://dbpedia.org/class/yago/CBSCorporationSubsidiaries
p48
aVhttp://dbpedia.org/class/yago/Company108058098
p49
aVhttp://dbpedia.org/class/yago/Group100031264
p50
aVhttp://dbpedia.org/class/yago/Institution108053576
p51
aVhttp://dbpedia.org/class/yago/Organization108008335
p52
aVhttp://dbpedia.org/class/yago/SocialGroup107950920
p53
aVhttp://dbpedia.org/class/yago/SubsidiaryCompany108003935
p54
aVhttp://dbpedia.org/class/yago/YagoLegalActorGeo
p55
aVhttp://dbpedia.org/class/yago/CompaniesEstablishedIn1927
p56
aVhttp://dbpedia.org/class/yago/YagoPermanentlyLocatedEntity
p57
aVhttp://dbpedia.org/class/yago/YagoLegalActor
p58
aVhttp://dbpedia.org/resource/CBS
tp59
aa(lp60
a(lp61
a(lp62
a(lp63
((lp64
Vhttp://www.w3.org/2002/07/owl#Thing
p65
aVhttp://www.ontologydesignpatterns.org/ont/dul/DUL.owl#Agent
p66
aVhttp://www.ontologydesignpatterns.org/ont/dul/DUL.owl#SocialPerson
p67
aVhttp://www.wikidata.org/entity/Q43229
p68
aVhttp://dbpedia.org/ontology/Agent
p69
aVhttp://dbpedia.org/ontology/Organisation
p70
aVhttp://schema.org/Organization
p71
aVhttp://umbel.org/umbel/rc/Country
p72
aVhttp://dbpedia.org/class/yago/AdministrativeDistrict108491826
p73
aVhttp://dbpedia.org/class/yago/Country108544813
p74
aVhttp://dbpedia.org/class/yago/District108552138
p75
aVhttp://dbpedia.org/class/yago/Location100027167
p76
aVhttp://dbpedia.org/class/yago/Object100002684
p77
aVhttp://dbpedia.org/class/yago/Region108630039
p78
aVhttp://dbpedia.org/class/yago/Region108630985
p79
aVhttp://dbpedia.org/class/yago/YagoGeoEntity
p80
aVhttp://dbpedia.org/class/yago/YagoLegalActorGeo
p81
aVhttp://dbpedia.org/class/yago/DisputedTerritoriesInAsia
p82
aVhttp://dbpedia.org/class/yago/DividedRegions
p83
aVhttp://dbpedia.org/class/yago/PhysicalEntity100001930
p84
aVhttp://dbpedia.org/class/yago/YagoPermanentlyLocatedEntity
p85
aVhttp://dbpedia.org/resource/Korea
tp86
aaa(lp87
(lp88
a(lp89
a(lp90
a(lp91
a(lp92
((lp93
Vhttp://www.w3.org/2002/07/owl#Thing
p94
aVhttp://www.ontologydesignpatterns.org/ont/dul/DUL.owl#Agent
p95
aVhttp://www.ontologydesignpatterns.org/ont/dul/DUL.owl#SocialPerson
p96
aVhttp://www.wikidata.org/entity/Q43229
p97
aVhttp://dbpedia.org/ontology/Agent
p98
aVhttp://dbpedia.org/ontology/Organisation
p99
aVhttp://schema.org/Organization
p100
aVhttp://umbel.org/umbel/rc/Country
p101
aVhttp://dbpedia.org/class/yago/AdministrativeDistrict108491826
p102
aVhttp://dbpedia.org/class/yago/Country108544813
p103
aVhttp://dbpedia.org/class/yago/District108552138
p104
aVhttp://dbpedia.org/class/yago/Location100027167
p105
aVhttp://dbpedia.org/class/yago/Object100002684
p106
aVhttp://dbpedia.org/class/yago/Region108630039
p107
aVhttp://dbpedia.org/class/yago/Region108630985
p108
aVhttp://dbpedia.org/class/yago/YagoGeoEntity
p109
aVhttp://dbpedia.org/class/yago/YagoLegalActorGeo
p110
aVhttp://dbpedia.org/class/yago/DisputedTerritoriesInAsia
p111
aVhttp://dbpedia.org/class/yago/DividedRegions
p112
aVhttp://dbpedia.org/class/yago/PhysicalEntity100001930
p113
aVhttp://dbpedia.org/class/yago/YagoPermanentlyLocatedEntity
p114
aVhttp://dbpedia.org/resource/Korea
tp115
aaa(lp116
(lp117
a(lp118
a(lp119
a(lp120
((lp121
Vhttp://www.w3.org/2002/07/owl#Thing
p122
aVhttp://dbpedia.org/ontology/Place
p123
aVhttp://dbpedia.org/ontology/Location
p124
aVhttp://www.wikidata.org/entity/Q486972
p125
aVhttp://www.wikidata.org/entity/Q6256
p126
aVhttp://dbpedia.org/ontology/Country
p127
aVhttp://dbpedia.org/ontology/PopulatedPlace
p128
aVhttp://schema.org/Country
p129
aVhttp://schema.org/Place
p130
aVhttp://umbel.org/umbel/rc/Country
p131
aVhttp://dbpedia.org/class/yago/AdministrativeDistrict108491826
p132
aVhttp://dbpedia.org/class/yago/Country108544813
p133
aVhttp://dbpedia.org/class/yago/District108552138
p134
aVhttp://dbpedia.org/class/yago/Location100027167
p135
aVhttp://dbpedia.org/class/yago/Object100002684
p136
aVhttp://dbpedia.org/class/yago/Region108630985
p137
aVhttp://dbpedia.org/class/yago/YagoGeoEntity
p138
aVhttp://dbpedia.org/class/yago/YagoLegalActorGeo
p139
aVhttp://dbpedia.org/class/yago/FormerCountriesInAsia
p140
aVhttp://dbpedia.org/class/yago/PhysicalEntity100001930
p141
aVhttp://dbpedia.org/class/yago/YagoPermanentlyLocatedEntity
p142
aVhttp://dbpedia.org/class/yago/StatesAndTerritoriesEstablishedIn1970
p143
aVhttp://dbpedia.org/resource/Khmer_Republic
tp144
aa(lp145
((lp146
Vhttp://www.w3.org/2002/07/owl#Thing
p147
aVhttp://dbpedia.org/ontology/Place
p148
aVhttp://dbpedia.org/ontology/Location
p149
aVhttp://www.wikidata.org/entity/Q486972
p150
aVhttp://www.wikidata.org/entity/Q6256
p151
aVhttp://dbpedia.org/ontology/Country
p152
aVhttp://dbpedia.org/ontology/PopulatedPlace
p153
aVhttp://www.w3.org/2003/01/geo/wgs84_pos#SpatialThing
p154
aVhttp://schema.org/Country
p155
aVhttp://schema.org/Place
p156
aVhttp://umbel.org/umbel/rc/Country
p157
aVhttp://umbel.org/umbel/rc/Location_Underspecified
p158
aVhttp://umbel.org/umbel/rc/PopulatedPlace
p159
aVhttp://dbpedia.org/class/yago/Abstraction100002137
p160
aVhttp://dbpedia.org/class/yago/AdministrativeDistrict108491826
p161
aVhttp://dbpedia.org/class/yago/Country108544813
p162
aVhttp://dbpedia.org/class/yago/District108552138
p163
aVhttp://dbpedia.org/class/yago/Economy108366753
p164
aVhttp://dbpedia.org/class/yago/Group100031264
p165
aVhttp://dbpedia.org/class/yago/Location100027167
p166
aVhttp://dbpedia.org/class/yago/Object100002684
p167
aVhttp://dbpedia.org/class/yago/Region108630985
p168
aVhttp://dbpedia.org/class/yago/System108435388
p169
aVhttp://dbpedia.org/class/yago/YagoGeoEntity
p170
aVhttp://dbpedia.org/class/yago/YagoLegalActorGeo
p171
aVhttp://dbpedia.org/class/yago/CountriesBorderingTheSouthChinaSea
p172
aVhttp://dbpedia.org/class/yago/French-speakingCountries
p173
aVhttp://dbpedia.org/class/yago/PhysicalEntity100001930
p174
aVhttp://dbpedia.org/class/yago/YagoPermanentlyLocatedEntity
p175
aVhttp://dbpedia.org/class/yago/LeastDevelopedCountries
p176
aVhttp://dbpedia.org/class/yago/MemberStatesOfLaFrancophonie
p177
aVhttp://dbpedia.org/class/yago/MemberStatesOfTheAssociationOfSoutheastAsianNations
p178
aVhttp://dbpedia.org/class/yago/MemberStatesOfTheUnitedNations
p179
aVhttp://dbpedia.org/class/yago/SoutheastAsianCountries
p180
aVhttp://dbpedia.org/class/yago/StatesAndTerritoriesEstablishedIn1953
p181
aVhttp://dbpedia.org/class/yago/StatesAndTerritoriesEstablishedIn802
p182
aVhttp://dbpedia.org/class/yago/WorldTradeOrganizationMemberEconomies
p183
aVhttp://dbpedia.org/resource/Cambodia
tp184
aaa(lp185
(lp186
a(lp187
a(lp188
a(lp189
((lVhttp://dbpedia.org/resource/Sri_Lankan_cuisine
tp190
aa(lp191
((lp192
Vhttp://www.w3.org/2002/07/owl#Thing
p193
aVhttp://dbpedia.org/ontology/Place
p194
aVhttp://dbpedia.org/ontology/Location
p195
aVhttp://www.wikidata.org/entity/Q486972
p196
aVhttp://www.wikidata.org/entity/Q6256
p197
aVhttp://dbpedia.org/ontology/Country
p198
aVhttp://dbpedia.org/ontology/PopulatedPlace
p199
aVhttp://www.w3.org/2003/01/geo/wgs84_pos#SpatialThing
p200
aVhttp://schema.org/Country
p201
aVhttp://schema.org/Place
p202
aVhttp://umbel.org/umbel/rc/Country
p203
aVhttp://umbel.org/umbel/rc/Location_Underspecified
p204
aVhttp://umbel.org/umbel/rc/PopulatedPlace
p205
aVhttp://dbpedia.org/class/yago/Abstraction100002137
p206
aVhttp://dbpedia.org/class/yago/AdministrativeDistrict108491826
p207
aVhttp://dbpedia.org/class/yago/Country108544813
p208
aVhttp://dbpedia.org/class/yago/District108552138
p209
aVhttp://dbpedia.org/class/yago/Economy108366753
p210
aVhttp://dbpedia.org/class/yago/Group100031264
p211
aVhttp://dbpedia.org/class/yago/Island109316454
p212
aVhttp://dbpedia.org/class/yago/Land109334396
p213
aVhttp://dbpedia.org/class/yago/Location100027167
p214
aVhttp://dbpedia.org/class/yago/Object100002684
p215
aVhttp://dbpedia.org/class/yago/Region108630985
p216
aVhttp://dbpedia.org/class/yago/System108435388
p217
aVhttp://dbpedia.org/class/yago/YagoGeoEntity
p218
aVhttp://dbpedia.org/class/yago/YagoLegalActorGeo
p219
aVhttp://dbpedia.org/class/yago/CountriesOfTheIndianOcean
p220
aVhttp://dbpedia.org/class/yago/PhysicalEntity100001930
p221
aVhttp://dbpedia.org/class/yago/YagoPermanentlyLocatedEntity
p222
aVhttp://dbpedia.org/class/yago/IslandCountries
p223
aVhttp://dbpedia.org/class/yago/IslandsOfTheIndianOcean
p224
aVhttp://dbpedia.org/class/yago/MemberStatesOfTheCommonwealthOfNations
p225
aVhttp://dbpedia.org/class/yago/MemberStatesOfTheSouthAsianAssociationForRegionalCooperation
p226
aVhttp://dbpedia.org/class/yago/MemberStatesOfTheUnitedNations
p227
aVhttp://dbpedia.org/class/yago/SocialistStates
p228
aVhttp://dbpedia.org/class/yago/SouthAsianCountries
p229
aVhttp://dbpedia.org/class/yago/StatesAndTerritoriesEstablishedIn1948
p230
aVhttp://dbpedia.org/class/yago/Tamil-speakingCountriesAndTerritories
p231
aVhttp://dbpedia.org/resource/Sri_Lanka
tp232
aaa(lp233
(lp234
a(lp235
a(lp236
a(lp237
((lp238
Vhttp://www.w3.org/2002/07/owl#Thing
p239
aVhttp://www.ontologydesignpatterns.org/ont/dul/DUL.owl#Agent
p240
aVhttp://www.ontologydesignpatterns.org/ont/dul/DUL.owl#SocialPerson
p241
aVhttp://www.wikidata.org/entity/Q43229
p242
aVhttp://www.wikidata.org/entity/Q7278
p243
aVhttp://dbpedia.org/ontology/Agent
p244
aVhttp://dbpedia.org/ontology/Organisation
p245
aVhttp://dbpedia.org/ontology/PoliticalParty
p246
aVhttp://schema.org/Organization
p247
aVhttp://dbpedia.org/class/yago/Abstraction100002137
p248
aVhttp://dbpedia.org/class/yago/Group100031264
p249
aVhttp://dbpedia.org/class/yago/Organization108008335
p250
aVhttp://dbpedia.org/class/yago/Party108256968
p251
aVhttp://dbpedia.org/class/yago/SocialGroup107950920
p252
aVhttp://dbpedia.org/class/yago/YagoLegalActorGeo
p253
aVhttp://dbpedia.org/class/yago/YagoPermanentlyLocatedEntity
p254
aVhttp://dbpedia.org/class/yago/PoliticalPartiesInNepal
p255
aVhttp://dbpedia.org/class/yago/YagoLegalActor
p256
aVhttp://dbpedia.org/class/yago/SocialDemocraticParties
p257
aVhttp://dbpedia.org/resource/Nepali_Congress
tp258
aa(lp259
((lp260
Vhttp://www.w3.org/2002/07/owl#Thing
p261
aVhttp://dbpedia.org/ontology/Place
p262
aVhttp://dbpedia.org/ontology/Location
p263
aVhttp://www.wikidata.org/entity/Q486972
p264
aVhttp://www.wikidata.org/entity/Q6256
p265
aVhttp://dbpedia.org/ontology/Country
p266
aVhttp://dbpedia.org/ontology/PopulatedPlace
p267
aVhttp://www.w3.org/2003/01/geo/wgs84_pos#SpatialThing
p268
aVhttp://schema.org/Country
p269
aVhttp://schema.org/Place
p270
aVhttp://umbel.org/umbel/rc/Country
p271
aVhttp://umbel.org/umbel/rc/Location_Underspecified
p272
aVhttp://umbel.org/umbel/rc/PopulatedPlace
p273
aVhttp://dbpedia.org/class/yago/Abstraction100002137
p274
aVhttp://dbpedia.org/class/yago/AdministrativeDistrict108491826
p275
aVhttp://dbpedia.org/class/yago/Country108544813
p276
aVhttp://dbpedia.org/class/yago/District108552138
p277
aVhttp://dbpedia.org/class/yago/Economy108366753
p278
aVhttp://dbpedia.org/class/yago/Group100031264
p279
aVhttp://dbpedia.org/class/yago/Location100027167
p280
aVhttp://dbpedia.org/class/yago/Object100002684
p281
aVhttp://dbpedia.org/class/yago/Region108630985
p282
aVhttp://dbpedia.org/class/yago/System108435388
p283
aVhttp://dbpedia.org/class/yago/YagoGeoEntity
p284
aVhttp://dbpedia.org/class/yago/YagoLegalActorGeo
p285
aVhttp://dbpedia.org/class/yago/FederalCountries
p286
aVhttp://dbpedia.org/class/yago/PhysicalEntity100001930
p287
aVhttp://dbpedia.org/class/yago/YagoPermanentlyLocatedEntity
p288
aVhttp://dbpedia.org/class/yago/LandlockedCountries
p289
aVhttp://dbpedia.org/class/yago/LeastDevelopedCountries
p290
aVhttp://dbpedia.org/class/yago/MemberStatesOfTheSouthAsianAssociationForRegionalCooperation
p291
aVhttp://dbpedia.org/class/yago/MemberStatesOfTheUnitedNations
p292
aVhttp://dbpedia.org/class/yago/SouthAsianCountries
p293
aVhttp://dbpedia.org/class/yago/StatesAndTerritoriesEstablishedIn1768
p294
aVhttp://dbpedia.org/class/yago/WorldTradeOrganizationMemberEconomies
p295
aVhttp://dbpedia.org/resource/Nepal
tp296
aaa(lp297
(lp298
((lp299
Vhttp://www.w3.org/2002/07/owl#Thing
p300
aVhttp://umbel.org/umbel/rc/Business
p301
aVhttp://umbel.org/umbel/rc/Organization
p302
aVhttp://dbpedia.org/resource/Channel_4
tp303
aa(lp304
a(lp305
((lp306
Vhttp://dbpedia.org/class/yago/Abstraction100002137
p307
aVhttp://dbpedia.org/class/yago/Are113613862
p308
aVhttp://dbpedia.org/class/yago/AreaUnit113600404
p309
aVhttp://dbpedia.org/class/yago/Ares
p310
aVhttp://dbpedia.org/class/yago/Day115155220
p311
aVhttp://dbpedia.org/class/yago/DefiniteQuantity113576101
p312
aVhttp://dbpedia.org/class/yago/TimeUnit115154774
p313
aVhttp://dbpedia.org/class/yago/UnitOfMeasurement113583724
p314
aVhttp://dbpedia.org/class/yago/DaysOfTheWeek
p315
aVhttp://dbpedia.org/class/yago/Measure100033615
p316
aVhttp://dbpedia.org/resource/Tuesday
tp317
aa(lp318
((lp319
Vhttp://www.w3.org/2002/07/owl#Thing
p320
aVhttp://dbpedia.org/resource/Cai_(surname)
tp321
aa(lp322
((lp323
Vhttp://www.w3.org/2002/07/owl#Thing
p324
aVhttp://dbpedia.org/ontology/Place
p325
aVhttp://dbpedia.org/ontology/Location
p326
aVhttp://www.wikidata.org/entity/Q486972
p327
aVhttp://www.wikidata.org/entity/Q6256
p328
aVhttp://dbpedia.org/ontology/Country
p329
aVhttp://dbpedia.org/ontology/PopulatedPlace
p330
aVhttp://www.w3.org/2003/01/geo/wgs84_pos#SpatialThing
p331
aVhttp://schema.org/Country
p332
aVhttp://schema.org/Place
p333
aVhttp://umbel.org/umbel/rc/Country
p334
aVhttp://umbel.org/umbel/rc/Location_Underspecified
p335
aVhttp://umbel.org/umbel/rc/PopulatedPlace
p336
aVhttp://dbpedia.org/class/yago/Abstraction100002137
p337
aVhttp://dbpedia.org/class/yago/AdministrativeDistrict108491826
p338
aVhttp://dbpedia.org/class/yago/Country108544813
p339
aVhttp://dbpedia.org/class/yago/District108552138
p340
aVhttp://dbpedia.org/class/yago/Economy108366753
p341
aVhttp://dbpedia.org/class/yago/Group100031264
p342
aVhttp://dbpedia.org/class/yago/Location100027167
p343
aVhttp://dbpedia.org/class/yago/Object100002684
p344
aVhttp://dbpedia.org/class/yago/Region108630985
p345
aVhttp://dbpedia.org/class/yago/System108435388
p346
aVhttp://dbpedia.org/class/yago/YagoGeoEntity
p347
aVhttp://dbpedia.org/class/yago/YagoLegalActorGeo
p348
aVhttp://dbpedia.org/class/yago/CountriesBorderingTheSouthChinaSea
p349
aVhttp://dbpedia.org/class/yago/CountriesOfTheIndianOcean
p350
aVhttp://dbpedia.org/class/yago/PhysicalEntity100001930
p351
aVhttp://dbpedia.org/class/yago/YagoPermanentlyLocatedEntity
p352
aVhttp://dbpedia.org/class/yago/MemberStatesOfTheAssociationOfSoutheastAsianNations
p353
aVhttp://dbpedia.org/class/yago/MemberStatesOfTheUnitedNations
p354
aVhttp://dbpedia.org/class/yago/SoutheastAsianCountries
p355
aVhttp://dbpedia.org/class/yago/WorldTradeOrganizationMemberEconomies
p356
aVhttp://dbpedia.org/resource/Thailand
tp357
aaa(lp358
(lp359
a(lp360
a(lp361
a(lp362
((lp363
Vhttp://www.w3.org/2002/07/owl#Thing
p364
aVhttp://dbpedia.org/resource/Cai_(surname)
tp365
aa(lp366
((lp367
Vhttp://www.w3.org/2002/07/owl#Thing
p368
aVhttp://dbpedia.org/ontology/Place
p369
aVhttp://dbpedia.org/ontology/Location
p370
aVhttp://www.wikidata.org/entity/Q486972
p371
aVhttp://www.wikidata.org/entity/Q6256
p372
aVhttp://dbpedia.org/ontology/Country
p373
aVhttp://dbpedia.org/ontology/PopulatedPlace
p374
aVhttp://www.w3.org/2003/01/geo/wgs84_pos#SpatialThing
p375
aVhttp://schema.org/Country
p376
aVhttp://schema.org/Place
p377
aVhttp://umbel.org/umbel/rc/Country
p378
aVhttp://umbel.org/umbel/rc/Location_Underspecified
p379
aVhttp://umbel.org/umbel/rc/PopulatedPlace
p380
aVhttp://dbpedia.org/class/yago/Abstraction100002137
p381
aVhttp://dbpedia.org/class/yago/AdministrativeDistrict108491826
p382
aVhttp://dbpedia.org/class/yago/Country108544813
p383
aVhttp://dbpedia.org/class/yago/District108552138
p384
aVhttp://dbpedia.org/class/yago/Economy108366753
p385
aVhttp://dbpedia.org/class/yago/Group100031264
p386
aVhttp://dbpedia.org/class/yago/Location100027167
p387
aVhttp://dbpedia.org/class/yago/Object100002684
p388
aVhttp://dbpedia.org/class/yago/Region108630985
p389
aVhttp://dbpedia.org/class/yago/System108435388
p390
aVhttp://dbpedia.org/class/yago/YagoGeoEntity
p391
aVhttp://dbpedia.org/class/yago/YagoLegalActorGeo
p392
aVhttp://dbpedia.org/class/yago/CountriesBorderingTheSouthChinaSea
p393
aVhttp://dbpedia.org/class/yago/CountriesOfTheIndianOcean
p394
aVhttp://dbpedia.org/class/yago/PhysicalEntity100001930
p395
aVhttp://dbpedia.org/class/yago/YagoPermanentlyLocatedEntity
p396
aVhttp://dbpedia.org/class/yago/MemberStatesOfTheAssociationOfSoutheastAsianNations
p397
aVhttp://dbpedia.org/class/yago/MemberStatesOfTheUnitedNations
p398
aVhttp://dbpedia.org/class/yago/SoutheastAsianCountries
p399
aVhttp://dbpedia.org/class/yago/WorldTradeOrganizationMemberEconomies
p400
aVhttp://dbpedia.org/resource/Thailand
tp401
aaa(lp402
(lp403
a(lp404
a(lp405
a(lp406
((lp407
Vhttp://www.w3.org/2002/07/owl#Thing
p408
aVhttp://dbpedia.org/resource/Cai_(surname)
tp409
aa(lp410
((lp411
Vhttp://www.w3.org/2002/07/owl#Thing
p412
aVhttp://dbpedia.org/ontology/Place
p413
aVhttp://dbpedia.org/ontology/Location
p414
aVhttp://www.wikidata.org/entity/Q486972
p415
aVhttp://www.wikidata.org/entity/Q6256
p416
aVhttp://dbpedia.org/ontology/Country
p417
aVhttp://dbpedia.org/ontology/PopulatedPlace
p418
aVhttp://www.w3.org/2003/01/geo/wgs84_pos#SpatialThing
p419
aVhttp://schema.org/Country
p420
aVhttp://schema.org/Place
p421
aVhttp://umbel.org/umbel/rc/Country
p422
aVhttp://umbel.org/umbel/rc/Location_Underspecified
p423
aVhttp://umbel.org/umbel/rc/PopulatedPlace
p424
aVhttp://dbpedia.org/class/yago/Abstraction100002137
p425
aVhttp://dbpedia.org/class/yago/AdministrativeDistrict108491826
p426
aVhttp://dbpedia.org/class/yago/Country108544813
p427
aVhttp://dbpedia.org/class/yago/District108552138
p428
aVhttp://dbpedia.org/class/yago/Economy108366753
p429
aVhttp://dbpedia.org/class/yago/Group100031264
p430
aVhttp://dbpedia.org/class/yago/Location100027167
p431
aVhttp://dbpedia.org/class/yago/Object100002684
p432
aVhttp://dbpedia.org/class/yago/Region108630985
p433
aVhttp://dbpedia.org/class/yago/System108435388
p434
aVhttp://dbpedia.org/class/yago/YagoGeoEntity
p435
aVhttp://dbpedia.org/class/yago/YagoLegalActorGeo
p436
aVhttp://dbpedia.org/class/yago/CountriesBorderingTheSouthChinaSea
p437
aVhttp://dbpedia.org/class/yago/CountriesOfTheIndianOcean
p438
aVhttp://dbpedia.org/class/yago/PhysicalEntity100001930
p439
aVhttp://dbpedia.org/class/yago/YagoPermanentlyLocatedEntity
p440
aVhttp://dbpedia.org/class/yago/MemberStatesOfTheAssociationOfSoutheastAsianNations
p441
aVhttp://dbpedia.org/class/yago/MemberStatesOfTheUnitedNations
p442
aVhttp://dbpedia.org/class/yago/SoutheastAsianCountries
p443
aVhttp://dbpedia.org/class/yago/WorldTradeOrganizationMemberEconomies
p444
aVhttp://dbpedia.org/resource/Thailand
tp445
aaa(lp446
(lp447
a(lp448
a(lp449
a(lp450
((lp451
Vhttp://dbpedia.org/class/yago/Abstraction100002137
p452
aVhttp://dbpedia.org/class/yago/AnimalBreedsOriginatingInBurma
p453
aVhttp://dbpedia.org/class/yago/AnimalGroup107993929
p454
aVhttp://dbpedia.org/class/yago/BiologicalGroup107941170
p455
aVhttp://dbpedia.org/class/yago/Breed108101410
p456
aVhttp://dbpedia.org/class/yago/Group100031264
p457
aVhttp://dbpedia.org/class/yago/Variety108101085
p458
aVhttp://dbpedia.org/class/yago/CatBreeds
p459
aVhttp://dbpedia.org/class/yago/CatBreedsOriginatingInThailand
p460
aVhttp://dbpedia.org/class/yago/TaxonomicGroup107992450
p461
aVhttp://dbpedia.org/resource/Burmese_(cat)
tp462
aa(lp463
((lp464
Vhttp://www.w3.org/2002/07/owl#Thing
p465
aVhttp://dbpedia.org/ontology/Place
p466
aVhttp://dbpedia.org/ontology/Location
p467
aVhttp://www.wikidata.org/entity/Q486972
p468
aVhttp://www.wikidata.org/entity/Q6256
p469
aVhttp://dbpedia.org/ontology/Country
p470
aVhttp://dbpedia.org/ontology/PopulatedPlace
p471
aVhttp://www.w3.org/2003/01/geo/wgs84_pos#SpatialThing
p472
aVhttp://schema.org/Country
p473
aVhttp://schema.org/Place
p474
aVhttp://umbel.org/umbel/rc/Country
p475
aVhttp://umbel.org/umbel/rc/Location_Underspecified
p476
aVhttp://umbel.org/umbel/rc/PopulatedPlace
p477
aVhttp://dbpedia.org/class/yago/Abstraction100002137
p478
aVhttp://dbpedia.org/class/yago/AdministrativeDistrict108491826
p479
aVhttp://dbpedia.org/class/yago/Country108544813
p480
aVhttp://dbpedia.org/class/yago/District108552138
p481
aVhttp://dbpedia.org/class/yago/Economy108366753
p482
aVhttp://dbpedia.org/class/yago/Group100031264
p483
aVhttp://dbpedia.org/class/yago/Location100027167
p484
aVhttp://dbpedia.org/class/yago/Object100002684
p485
aVhttp://dbpedia.org/class/yago/Region108630985
p486
aVhttp://dbpedia.org/class/yago/System108435388
p487
aVhttp://dbpedia.org/class/yago/YagoGeoEntity
p488
aVhttp://dbpedia.org/class/yago/YagoLegalActorGeo
p489
aVhttp://dbpedia.org/class/yago/CountriesOfTheIndianOcean
p490
aVhttp://dbpedia.org/class/yago/PhysicalEntity100001930
p491
aVhttp://dbpedia.org/class/yago/YagoPermanentlyLocatedEntity
p492
aVhttp://dbpedia.org/class/yago/LeastDevelopedCountries
p493
aVhttp://dbpedia.org/class/yago/MemberStatesOfTheAssociationOfSoutheastAsianNations
p494
aVhttp://dbpedia.org/class/yago/MemberStatesOfTheUnitedNations
p495
aVhttp://dbpedia.org/class/yago/SoutheastAsianCountries
p496
aVhttp://dbpedia.org/class/yago/StatesAndTerritoriesEstablishedIn1948
p497
aVhttp://dbpedia.org/class/yago/WorldTradeOrganizationMemberEconomies
p498
aVhttp://dbpedia.org/resource/Burma
p499
tp500
aaa.