(lp1
(dp2
I0
(dp3
I0
(lp4
sI1
(lp5
sI2
(lp6
sI3
(lp7
sI4
(lp8
ssI1
(dp9
I0
g5
sI1
(lp10
sI2
(lp11
sI3
(lp12
sI4
(lp13
ssI2
(dp14
I0
g6
sI1
g11
sI2
(lp15
sI3
(lp16
sI4
(lp17
ssI3
(dp18
I0
g7
sI1
g12
sI2
g16
sI3
(lp19
sI4
(lp20
ssI4
(dp21
I0
g8
sI1
g13
sI2
g17
sI3
g20
sI4
(lp22
ssa(dp23
I0
(dp24
I0
(lp25
sI1
(lp26
sI2
(lp27
sI3
(lp28
sI4
(lp29
ssI1
(dp30
I0
g26
sI1
(lp31
sI2
(lp32
sI3
(lp33
sI4
(lp34
ssI2
(dp35
I0
g27
sI1
g32
sI2
(lp36
sI3
(lp37
sI4
(lp38
ssI3
(dp39
I0
g28
sI1
g33
sI2
g37
sI3
(lp40
sI4
(lp41
ssI4
(dp42
I0
g29
sI1
g34
sI2
g38
sI3
g41
sI4
(lp43
ssa(dp44
I0
(dp45
I0
(lp46
sI1
(lp47
sI2
(lp48
sI3
(lp49
sI4
(lp50
ssI1
(dp51
I0
g47
sI1
(lp52
sI2
(lp53
sI3
(lp54
sI4
(lp55
ssI2
(dp56
I0
g48
sI1
g53
sI2
(lp57
sI3
(lp58
sI4
(lp59
ssI3
(dp60
I0
g49
sI1
g54
sI2
g58
sI3
(lp61
sI4
(lp62
ssI4
(dp63
I0
g50
sI1
g55
sI2
g59
sI3
g62
sI4
(lp64
ssa(dp65
I0
(dp66
I0
(lp67
sI1
(lp68
sI2
(lp69
sI3
(lp70
sI4
(lp71
ssI1
(dp72
I0
g68
sI1
(lp73
sI2
(lp74
sI3
(lp75
sI4
(lp76
ssI2
(dp77
I0
g69
sI1
g74
sI2
(lp78
sI3
(lp79
sI4
(lp80
ssI3
(dp81
I0
g70
sI1
g75
sI2
g79
sI3
(lp82
sI4
(lp83
Vhttp://dbpedia.org/property/currency
p84
aVhttp://dbpedia.org/property/place
p85
aVhttp://dbpedia.org/property/flagS
p86
aVhttp://dbpedia.org/property/flagP
p87
aVhttp://dbpedia.org/ontology/country
p88
aVhttp://dbpedia.org/property/s
p89
aVhttp://dbpedia.org/property/eventEnd
p90
aVhttp://dbpedia.org/property/allegiance
p91
aVhttp://dbpedia.org/property/eventPost
p92
aVhttp://dbpedia.org/ontology/place
p93
aVhttp://purl.org/dc/terms/subject
p94
aVhttp://dbpedia.org/property/p
p95
aVhttp://dbpedia.org/ontology/abstract
p96
aVhttp://xmlns.com/foaf/0.1/depiction
p97
aVhttp://dbpedia.org/property/location
p98
aVhttp://dbpedia.org/ontology/thumbnail
p99
aVhttp://dbpedia.org/property/eventStart
p100
aVhttp://dbpedia.org/property/imageMap
p101
aVhttp://www.w3.org/2000/01/rdf-schema#comment
p102
aVhttp://dbpedia.org/ontology/wikiPageRedirects
p103
aVhttp://dbpedia.org/property/titleLeader
p104
aVhttp://dbpedia.org/property/titleDeputy
p105
assI4
(dp106
I0
g71
sI1
g76
sI2
g80
sI3
g83
sI4
(lp107
ssa(dp108
I0
(dp109
I0
(lp110
sI1
(lp111
sI2
(lp112
sI3
(lp113
sI4
(lp114
ssI1
(dp115
I0
g111
sI1
(lp116
sI2
(lp117
sI3
(lp118
sI4
(lp119
ssI2
(dp120
I0
g112
sI1
g117
sI2
(lp121
sI3
(lp122
sI4
(lp123
ssI3
(dp124
I0
g113
sI1
g118
sI2
g122
sI3
(lp125
sI4
(lp126
Vhttp://dbpedia.org/ontology/abstract
p127
aVhttp://www.w3.org/2000/01/rdf-schema#label
p128
aVhttp://www.w3.org/2000/01/rdf-schema#comment
p129
assI4
(dp130
I0
g114
sI1
g119
sI2
g123
sI3
g126
sI4
(lp131
ssa(dp132
I0
(dp133
I0
(lp134
sI1
(lp135
sI2
(lp136
sI3
(lp137
sI4
(lp138
ssI1
(dp139
I0
g135
sI1
(lp140
sI2
(lp141
sI3
(lp142
sI4
(lp143
ssI2
(dp144
I0
g136
sI1
g141
sI2
(lp145
sI3
(lp146
sI4
(lp147
ssI3
(dp148
I0
g137
sI1
g142
sI2
g146
sI3
(lp149
sI4
(lp150
Vhttp://www.w3.org/ns/prov#wasDerivedFrom
p151
aVhttp://dbpedia.org/ontology/country
p152
aVhttp://www.w3.org/1999/02/22-rdf-syntax-ns#type
p153
aVhttp://dbpedia.org/property/partyName
p154
aVhttp://dbpedia.org/property/seats1Title
p155
aVhttp://dbpedia.org/ontology/youthWing
p156
aVhttp://dbpedia.org/property/wing
p157
aVhttp://dbpedia.org/property/country
p158
aVhttp://dbpedia.org/ontology/wikiPageDisambiguates
p159
aVhttp://xmlns.com/foaf/0.1/isPrimaryTopicOf
p160
aVhttp://dbpedia.org/ontology/wikiPageExternalLink
p161
aVhttp://xmlns.com/foaf/0.1/primaryTopic
p162
aVhttp://purl.org/dc/terms/subject
p163
aVhttp://dbpedia.org/ontology/party
p164
aVhttp://dbpedia.org/ontology/abstract
p165
aVhttp://xmlns.com/foaf/0.1/depiction
p166
aVhttp://dbpedia.org/ontology/thumbnail
p167
aVhttp://dbpedia.org/property/merged
p168
aVhttp://dbpedia.org/ontology/affiliation
p169
aVhttp://dbpedia.org/property/hasPhotoCollection
p170
aVhttp://www.w3.org/2000/01/rdf-schema#label
p171
aVhttp://dbpedia.org/property/party
p172
aVhttp://www.w3.org/2000/01/rdf-schema#comment
p173
aVhttp://dbpedia.org/property/youthWing
p174
aVhttp://dbpedia.org/ontology/wikiPageRedirects
p175
aVhttp://xmlns.com/foaf/0.1/homepage
p176
aVhttp://dbpedia.org/property/studentWing
p177
aVhttp://www.w3.org/2002/07/owl#sameAs
p178
assI4
(dp179
I0
g138
sI1
g143
sI2
g147
sI3
g150
sI4
(lp180
ssa(dp181
I0
(dp182
I0
(lp183
sI1
(lp184
sI2
(lp185
sI3
(lp186
sI4
(lp187
ssI1
(dp188
I0
g184
sI1
(lp189
sI2
(lp190
sI3
(lp191
sI4
(lp192
ssI2
(dp193
I0
g185
sI1
g190
sI2
(lp194
sI3
(lp195
sI4
(lp196
ssI3
(dp197
I0
g186
sI1
g191
sI2
g195
sI3
(lp198
sI4
(lp199
ssI4
(dp200
I0
g187
sI1
g192
sI2
g196
sI3
g199
sI4
(lp201
ssa(dp202
I0
(dp203
I0
(lp204
sI1
(lp205
sI2
(lp206
sI3
(lp207
sI4
(lp208
ssI1
(dp209
I0
g205
sI1
(lp210
sI2
(lp211
sI3
(lp212
sI4
(lp213
ssI2
(dp214
I0
g206
sI1
g211
sI2
(lp215
sI3
(lp216
sI4
(lp217
ssI3
(dp218
I0
g207
sI1
g212
sI2
g216
sI3
(lp219
sI4
(lp220
ssI4
(dp221
I0
g208
sI1
g213
sI2
g217
sI3
g220
sI4
(lp222
ssa(dp223
I0
(dp224
I0
(lp225
sI1
(lp226
sI2
(lp227
sI3
(lp228
sI4
(lp229
ssI1
(dp230
I0
g226
sI1
(lp231
sI2
(lp232
sI3
(lp233
sI4
(lp234
ssI2
(dp235
I0
g227
sI1
g232
sI2
(lp236
sI3
(lp237
sI4
(lp238
ssI3
(dp239
I0
g228
sI1
g233
sI2
g237
sI3
(lp240
sI4
(lp241
ssI4
(dp242
I0
g229
sI1
g234
sI2
g238
sI3
g241
sI4
(lp243
ssa(dp244
I0
(dp245
I0
(lp246
sI1
(lp247
sI2
(lp248
sI3
(lp249
sI4
(lp250
ssI1
(dp251
I0
g247
sI1
(lp252
sI2
(lp253
sI3
(lp254
sI4
(lp255
ssI2
(dp256
I0
g248
sI1
g253
sI2
(lp257
sI3
(lp258
sI4
(lp259
ssI3
(dp260
I0
g249
sI1
g254
sI2
g258
sI3
(lp261
sI4
(lp262
ssI4
(dp263
I0
g250
sI1
g255
sI2
g259
sI3
g262
sI4
(lp264
ssa.