(lp1
(lp2
(lp3
a(lp4
a(lp5
a(lp6
aa(lp7
(lp8
a(lp9
a(lp10
a(lp11
aa(lp12
(lp13
a(lp14
a(lp15
a(lp16
aa(lp17
(lp18
a(lp19
Vhttp://dbpedia.org/resource/Committee_on_Alleged_German_Outrages
p20
aa(lp21
a(lp22
aa(lp23
(lp24
a(lp25
a(lp26
a(lp27
aa(lp28
(lp29
a(lp30
a(lp31
a(lp32
aa(lp33
(lp34
a(lp35
a(lp36
a(lp37
aa(lp38
(lp39
a(lp40
a(lp41
a(lp42
aa(lp43
(lp44
a(lp45
Vhttp://dbpedia.org/resource/Rabb_Lake_National_Wildlife_Refuge
p46
aa(lp47
a(lp48
aa(lp49
(lp50
a(lp51
a(lp52
a(lp53
aa(lp54
(lp55
a(lp56
a(lp57
a(lp58
aa(lp59
(lp60
a(lp61
Vhttp://dbpedia.org/resource/XLR_connector
p62
aa(lp63
a(lp64
aa(lp65
(lp66
a(lp67
a(lp68
a(lp69
aa(lp70
(lp71
a(lp72
a(lp73
a(lp74
aa(lp75
(lp76
a(lp77
a(lp78
a(lp79
aa(lp80
(lp81
a(lp82
a(lp83
a(lp84
aa(lp85
(lp86
a(lp87
a(lp88
a(lp89
aa(lp90
(lp91
a(lp92
Vhttp://dbpedia.org/resource/Catamount_Recording_Studio
p93
aa(lp94
a(lp95
aa(lp96
(lp97
a(lp98
a(lp99
a(lp100
aa.