(lp1
(lp2
(lp3
a(lp4
a(lp5
a(lp6
a(lp7
a(lp8
Vhttp://dbpedia.org/resource/Null
p9
aa(lp10
a(lp11
Vhttp://dbpedia.org/resource/Null
p12
aa(lp13
a(lp14
a(lp15
Vhttp://dbpedia.org/resource/Data_rate_units
p16
aa(lp17
aa(lp18
(lp19
a(lp20
a(lp21
a(lp22
Vhttp://dbpedia.org/resource/Null
p23
aa(lp24
Vhttp://dbpedia.org/resource/Null
p25
aa(lp26
Vhttp://dbpedia.org/resource/Null
p27
aa(lp28
Vhttp://dbpedia.org/resource/Null
p29
aa(lp30
Vhttp://dbpedia.org/resource/Null
p31
aa(lp32
a(lp33
a(lp34
Vhttp://dbpedia.org/resource/Data_rate_units
p35
aa(lp36
aa(lp37
(lp38
a(lp39
Vhttp://dbpedia.org/resource/Null
p40
aa(lp41
Vhttp://dbpedia.org/resource/Null
p42
aa(lp43
Vhttp://dbpedia.org/resource/Null
p44
aa(lp45
Vhttp://dbpedia.org/resource/Null
p46
aa(lp47
Vhttp://dbpedia.org/resource/Null
p48
aa(lp49
Vhttp://dbpedia.org/resource/Null
p50
aa(lp51
Vhttp://dbpedia.org/resource/Null
p52
aa(lp53
Vhttp://dbpedia.org/resource/Null
p54
aa(lp55
Vhttp://dbpedia.org/resource/Null
p56
aa(lp57
Vhttp://dbpedia.org/resource/Null
p58
aa(lp59
Vhttp://dbpedia.org/resource/Null
p60
aaa(lp61
(lp62
a(lp63
a(lp64
a(lp65
a(lp66
a(lp67
Vhttp://dbpedia.org/resource/Null
p68
aa(lp69
a(lp70
Vhttp://dbpedia.org/resource/Null
p71
aa(lp72
Vhttp://dbpedia.org/resource/Null
p73
aa(lp74
Vhttp://dbpedia.org/resource/Null
p75
aa(lp76
Vhttp://dbpedia.org/resource/Null
p77
aa(lp78
Vhttp://dbpedia.org/resource/Null
p79
aaa(lp80
(lp81
a(lp82
a(lp83
a(lp84
a(lp85
a(lp86
Vhttp://dbpedia.org/resource/Null
p87
aa(lp88
a(lp89
Vhttp://dbpedia.org/resource/Null
p90
aa(lp91
Vhttp://dbpedia.org/resource/Null
p92
aa(lp93
Vhttp://dbpedia.org/resource/Null
p94
aa(lp95
Vhttp://dbpedia.org/resource/Null
p96
aa(lp97
Vhttp://dbpedia.org/resource/Null
p98
aaa(lp99
(lp100
a(lp101
a(lp102
a(lp103
a(lp104
a(lp105
Vhttp://dbpedia.org/resource/Null
p106
aa(lp107
a(lp108
Vhttp://dbpedia.org/resource/Null
p109
aa(lp110
Vhttp://dbpedia.org/resource/Null
p111
aa(lp112
Vhttp://dbpedia.org/resource/Null
p113
aa(lp114
Vhttp://dbpedia.org/resource/Null
p115
aa(lp116
Vhttp://dbpedia.org/resource/Null
p117
aaa(lp118
(lp119
a(lp120
a(lp121
a(lp122
a(lp123
a(lp124
Vhttp://dbpedia.org/resource/Null
p125
aa(lp126
a(lp127
Vhttp://dbpedia.org/resource/Null
p128
aa(lp129
a(lp130
a(lp131
Vhttp://dbpedia.org/resource/Data_rate_units
p132
aa(lp133
aa(lp134
(lp135
a(lp136
a(lp137
Vhttp://dbpedia.org/resource/Null
p138
aa(lp139
a(lp140
a(lp141
Vhttp://dbpedia.org/resource/Null
p142
aa(lp143
Vhttp://dbpedia.org/resource/Null
p144
aa(lp145
Vhttp://dbpedia.org/resource/Null
p146
aa(lp147
a(lp148
a(lp149
Vhttp://dbpedia.org/resource/Data_rate_units
p150
aa(lp151
aa(lp152
(lp153
a(lp154
a(lp155
a(lp156
a(lp157
a(lp158
a(lp159
Vhttp://dbpedia.org/resource/Null
p160
aa(lp161
a(lp162
a(lp163
a(lp164
Vhttp://dbpedia.org/resource/Data_rate_units
p165
aa(lp166
aa(lp167
(lp168
a(lp169
a(lp170
a(lp171
a(lp172
a(lp173
Vhttp://dbpedia.org/resource/Null
p174
aa(lp175
a(lp176
Vhttp://dbpedia.org/resource/Null
p177
aa(lp178
a(lp179
a(lp180
Vhttp://dbpedia.org/resource/Data_rate_units
p181
aa(lp182
aa(lp183
(lp184
a(lp185
a(lp186
Vhttp://dbpedia.org/resource/Null
p187
aa(lp188
a(lp189
a(lp190
Vhttp://dbpedia.org/resource/Null
p191
aa(lp192
Vhttp://dbpedia.org/resource/Null
p193
aa(lp194
Vhttp://dbpedia.org/resource/Null
p195
aa(lp196
a(lp197
a(lp198
Vhttp://dbpedia.org/resource/Data_rate_units
p199
aa(lp200
aa(lp201
(lp202
a(lp203
a(lp204
a(lp205
a(lp206
a(lp207
a(lp208
a(lp209
a(lp210
a(lp211
a(lp212
Vhttp://dbpedia.org/resource/Data_rate_units
p213
aa(lp214
aa(lp215
(lp216
a(lp217
a(lp218
a(lp219
a(lp220
a(lp221
a(lp222
a(lp223
Vhttp://dbpedia.org/resource/Null
p224
aa(lp225
Vhttp://dbpedia.org/resource/Null
p226
aa(lp227
Vhttp://dbpedia.org/resource/Null
p228
aa(lp229
Vhttp://dbpedia.org/resource/Null
p230
aa(lp231
Vhttp://dbpedia.org/resource/Null
p232
aaa(lp233
(lp234
a(lp235
a(lp236
a(lp237
Vhttp://dbpedia.org/resource/Null
p238
aa(lp239
Vhttp://dbpedia.org/resource/Null
p240
aa(lp241
Vhttp://dbpedia.org/resource/Null
p242
aa(lp243
Vhttp://dbpedia.org/resource/Null
p244
aa(lp245
Vhttp://dbpedia.org/resource/Null
p246
aa(lp247
a(lp248
a(lp249
Vhttp://dbpedia.org/resource/Data_rate_units
p250
aa(lp251
aa(lp252
(lp253
a(lp254
a(lp255
a(lp256
a(lp257
a(lp258
Vhttp://dbpedia.org/resource/Null
p259
aa(lp260
a(lp261
a(lp262
a(lp263
a(lp264
Vhttp://dbpedia.org/resource/Data_rate_units
p265
aa(lp266
aa(lp267
(lp268
a(lp269
a(lp270
a(lp271
a(lp272
a(lp273
Vhttp://dbpedia.org/resource/Null
p274
aa(lp275
a(lp276
Vhttp://dbpedia.org/resource/Null
p277
aa(lp278
Vhttp://dbpedia.org/resource/Null
p279
aa(lp280
Vhttp://dbpedia.org/resource/Null
p281
aa(lp282
Vhttp://dbpedia.org/resource/Null
p283
aa(lp284
Vhttp://dbpedia.org/resource/Null
p285
aaa(lp286
(lp287
a(lp288
a(lp289
a(lp290
a(lp291
a(lp292
a(lp293
a(lp294
Vhttp://dbpedia.org/resource/Null
p295
aa(lp296
a(lp297
a(lp298
Vhttp://dbpedia.org/resource/Data_rate_units
p299
aa(lp300
aa(lp301
(lp302
a(lp303
a(lp304
a(lp305
a(lp306
a(lp307
Vhttp://dbpedia.org/resource/Null
p308
aa(lp309
a(lp310
a(lp311
a(lp312
a(lp313
Vhttp://dbpedia.org/resource/Data_rate_units
p314
aa(lp315
aa(lp316
(lp317
a(lp318
a(lp319
a(lp320
a(lp321
a(lp322
Vhttp://dbpedia.org/resource/Null
p323
aa(lp324
a(lp325
Vhttp://dbpedia.org/resource/Null
p326
aa(lp327
a(lp328
a(lp329
Vhttp://dbpedia.org/resource/Data_rate_units
p330
aa(lp331
aa(lp332
(lp333
a(lp334
a(lp335
a(lp336
a(lp337
a(lp338
Vhttp://dbpedia.org/resource/Null
p339
aa(lp340
Vhttp://dbpedia.org/resource/Null
p341
aa(lp342
Vhttp://dbpedia.org/resource/Null
p343
aa(lp344
a(lp345
a(lp346
Vhttp://dbpedia.org/resource/Data_rate_units
p347
aa(lp348
aa.