(lp1
(lp2
(lp3
a(lp4
a(lp5
a(lp6
a(lp7
a(lp8
((lVhttp://dbpedia.org/resource/Null
tp9
aa(lp10
a(lp11
((lVhttp://dbpedia.org/resource/Null
tp12
aa(lp13
a(lp14
a(lp15
((lp16
Vhttp://www.w3.org/2002/07/owl#Thing
p17
aVhttp://dbpedia.org/class/yago/Abstraction100002137
p18
aVhttp://dbpedia.org/class/yago/DefiniteQuantity113576101
p19
aVhttp://dbpedia.org/class/yago/UnitOfMeasurement113583724
p20
aVhttp://dbpedia.org/class/yago/Measure100033615
p21
aVhttp://dbpedia.org/class/yago/UnitsOfFlow
p22
aVhttp://dbpedia.org/class/yago/UnitsOfInformation
p23
aVhttp://dbpedia.org/resource/Data_rate_units
tp24
aa(lp25
aa(lp26
(lp27
a(lp28
a(lp29
a(lp30
((lVhttp://dbpedia.org/resource/Null
tp31
aa(lp32
((lVhttp://dbpedia.org/resource/Null
tp33
aa(lp34
((lVhttp://dbpedia.org/resource/Null
tp35
aa(lp36
((lVhttp://dbpedia.org/resource/Null
tp37
aa(lp38
((lVhttp://dbpedia.org/resource/Null
tp39
aa(lp40
a(lp41
a(lp42
((lp43
Vhttp://www.w3.org/2002/07/owl#Thing
p44
aVhttp://dbpedia.org/class/yago/Abstraction100002137
p45
aVhttp://dbpedia.org/class/yago/DefiniteQuantity113576101
p46
aVhttp://dbpedia.org/class/yago/UnitOfMeasurement113583724
p47
aVhttp://dbpedia.org/class/yago/Measure100033615
p48
aVhttp://dbpedia.org/class/yago/UnitsOfFlow
p49
aVhttp://dbpedia.org/class/yago/UnitsOfInformation
p50
aVhttp://dbpedia.org/resource/Data_rate_units
tp51
aa(lp52
aa(lp53
(lp54
a(lp55
((lVhttp://dbpedia.org/resource/Null
tp56
aa(lp57
((lVhttp://dbpedia.org/resource/Null
tp58
aa(lp59
((lVhttp://dbpedia.org/resource/Null
tp60
aa(lp61
((lVhttp://dbpedia.org/resource/Null
tp62
aa(lp63
((lVhttp://dbpedia.org/resource/Null
tp64
aa(lp65
((lVhttp://dbpedia.org/resource/Null
tp66
aa(lp67
((lVhttp://dbpedia.org/resource/Null
tp68
aa(lp69
((lVhttp://dbpedia.org/resource/Null
tp70
aa(lp71
((lVhttp://dbpedia.org/resource/Null
tp72
aa(lp73
((lVhttp://dbpedia.org/resource/Null
tp74
aa(lp75
((lVhttp://dbpedia.org/resource/Null
tp76
aaa(lp77
(lp78
a(lp79
a(lp80
a(lp81
a(lp82
a(lp83
((lVhttp://dbpedia.org/resource/Null
tp84
aa(lp85
a(lp86
((lVhttp://dbpedia.org/resource/Null
tp87
aa(lp88
((lVhttp://dbpedia.org/resource/Null
tp89
aa(lp90
((lVhttp://dbpedia.org/resource/Null
tp91
aa(lp92
((lVhttp://dbpedia.org/resource/Null
tp93
aa(lp94
((lVhttp://dbpedia.org/resource/Null
tp95
aaa(lp96
(lp97
a(lp98
a(lp99
a(lp100
a(lp101
a(lp102
((lVhttp://dbpedia.org/resource/Null
tp103
aa(lp104
a(lp105
((lVhttp://dbpedia.org/resource/Null
tp106
aa(lp107
((lVhttp://dbpedia.org/resource/Null
tp108
aa(lp109
((lVhttp://dbpedia.org/resource/Null
tp110
aa(lp111
((lVhttp://dbpedia.org/resource/Null
tp112
aa(lp113
((lVhttp://dbpedia.org/resource/Null
tp114
aaa(lp115
(lp116
a(lp117
a(lp118
a(lp119
a(lp120
a(lp121
((lVhttp://dbpedia.org/resource/Null
tp122
aa(lp123
a(lp124
((lVhttp://dbpedia.org/resource/Null
tp125
aa(lp126
((lVhttp://dbpedia.org/resource/Null
tp127
aa(lp128
((lVhttp://dbpedia.org/resource/Null
tp129
aa(lp130
((lVhttp://dbpedia.org/resource/Null
tp131
aa(lp132
((lVhttp://dbpedia.org/resource/Null
tp133
aaa(lp134
(lp135
a(lp136
a(lp137
a(lp138
a(lp139
a(lp140
((lVhttp://dbpedia.org/resource/Null
tp141
aa(lp142
a(lp143
((lVhttp://dbpedia.org/resource/Null
tp144
aa(lp145
a(lp146
a(lp147
((lp148
Vhttp://www.w3.org/2002/07/owl#Thing
p149
aVhttp://dbpedia.org/class/yago/Abstraction100002137
p150
aVhttp://dbpedia.org/class/yago/DefiniteQuantity113576101
p151
aVhttp://dbpedia.org/class/yago/UnitOfMeasurement113583724
p152
aVhttp://dbpedia.org/class/yago/Measure100033615
p153
aVhttp://dbpedia.org/class/yago/UnitsOfFlow
p154
aVhttp://dbpedia.org/class/yago/UnitsOfInformation
p155
aVhttp://dbpedia.org/resource/Data_rate_units
tp156
aa(lp157
aa(lp158
(lp159
a(lp160
a(lp161
((lVhttp://dbpedia.org/resource/Null
tp162
aa(lp163
a(lp164
a(lp165
((lVhttp://dbpedia.org/resource/Null
tp166
aa(lp167
((lVhttp://dbpedia.org/resource/Null
tp168
aa(lp169
((lVhttp://dbpedia.org/resource/Null
tp170
aa(lp171
a(lp172
a(lp173
((lp174
Vhttp://www.w3.org/2002/07/owl#Thing
p175
aVhttp://dbpedia.org/class/yago/Abstraction100002137
p176
aVhttp://dbpedia.org/class/yago/DefiniteQuantity113576101
p177
aVhttp://dbpedia.org/class/yago/UnitOfMeasurement113583724
p178
aVhttp://dbpedia.org/class/yago/Measure100033615
p179
aVhttp://dbpedia.org/class/yago/UnitsOfFlow
p180
aVhttp://dbpedia.org/class/yago/UnitsOfInformation
p181
aVhttp://dbpedia.org/resource/Data_rate_units
tp182
aa(lp183
aa(lp184
(lp185
a(lp186
a(lp187
a(lp188
a(lp189
a(lp190
a(lp191
((lVhttp://dbpedia.org/resource/Null
tp192
aa(lp193
a(lp194
a(lp195
a(lp196
((lp197
Vhttp://www.w3.org/2002/07/owl#Thing
p198
aVhttp://dbpedia.org/class/yago/Abstraction100002137
p199
aVhttp://dbpedia.org/class/yago/DefiniteQuantity113576101
p200
aVhttp://dbpedia.org/class/yago/UnitOfMeasurement113583724
p201
aVhttp://dbpedia.org/class/yago/Measure100033615
p202
aVhttp://dbpedia.org/class/yago/UnitsOfFlow
p203
aVhttp://dbpedia.org/class/yago/UnitsOfInformation
p204
aVhttp://dbpedia.org/resource/Data_rate_units
tp205
aa(lp206
aa(lp207
(lp208
a(lp209
a(lp210
a(lp211
a(lp212
a(lp213
((lVhttp://dbpedia.org/resource/Null
tp214
aa(lp215
a(lp216
((lVhttp://dbpedia.org/resource/Null
tp217
aa(lp218
a(lp219
a(lp220
((lp221
Vhttp://www.w3.org/2002/07/owl#Thing
p222
aVhttp://dbpedia.org/class/yago/Abstraction100002137
p223
aVhttp://dbpedia.org/class/yago/DefiniteQuantity113576101
p224
aVhttp://dbpedia.org/class/yago/UnitOfMeasurement113583724
p225
aVhttp://dbpedia.org/class/yago/Measure100033615
p226
aVhttp://dbpedia.org/class/yago/UnitsOfFlow
p227
aVhttp://dbpedia.org/class/yago/UnitsOfInformation
p228
aVhttp://dbpedia.org/resource/Data_rate_units
tp229
aa(lp230
aa(lp231
(lp232
a(lp233
a(lp234
((lVhttp://dbpedia.org/resource/Null
tp235
aa(lp236
a(lp237
a(lp238
((lVhttp://dbpedia.org/resource/Null
tp239
aa(lp240
((lVhttp://dbpedia.org/resource/Null
tp241
aa(lp242
((lVhttp://dbpedia.org/resource/Null
tp243
aa(lp244
a(lp245
a(lp246
((lp247
Vhttp://www.w3.org/2002/07/owl#Thing
p248
aVhttp://dbpedia.org/class/yago/Abstraction100002137
p249
aVhttp://dbpedia.org/class/yago/DefiniteQuantity113576101
p250
aVhttp://dbpedia.org/class/yago/UnitOfMeasurement113583724
p251
aVhttp://dbpedia.org/class/yago/Measure100033615
p252
aVhttp://dbpedia.org/class/yago/UnitsOfFlow
p253
aVhttp://dbpedia.org/class/yago/UnitsOfInformation
p254
aVhttp://dbpedia.org/resource/Data_rate_units
tp255
aa(lp256
aa(lp257
(lp258
a(lp259
a(lp260
a(lp261
a(lp262
a(lp263
a(lp264
a(lp265
a(lp266
a(lp267
a(lp268
((lp269
Vhttp://www.w3.org/2002/07/owl#Thing
p270
aVhttp://dbpedia.org/class/yago/Abstraction100002137
p271
aVhttp://dbpedia.org/class/yago/DefiniteQuantity113576101
p272
aVhttp://dbpedia.org/class/yago/UnitOfMeasurement113583724
p273
aVhttp://dbpedia.org/class/yago/Measure100033615
p274
aVhttp://dbpedia.org/class/yago/UnitsOfFlow
p275
aVhttp://dbpedia.org/class/yago/UnitsOfInformation
p276
aVhttp://dbpedia.org/resource/Data_rate_units
tp277
aa(lp278
aa(lp279
(lp280
a(lp281
a(lp282
a(lp283
a(lp284
a(lp285
a(lp286
a(lp287
((lVhttp://dbpedia.org/resource/Null
tp288
aa(lp289
((lVhttp://dbpedia.org/resource/Null
tp290
aa(lp291
((lVhttp://dbpedia.org/resource/Null
tp292
aa(lp293
((lVhttp://dbpedia.org/resource/Null
tp294
aa(lp295
((lVhttp://dbpedia.org/resource/Null
tp296
aaa(lp297
(lp298
a(lp299
a(lp300
a(lp301
((lVhttp://dbpedia.org/resource/Null
tp302
aa(lp303
((lVhttp://dbpedia.org/resource/Null
tp304
aa(lp305
((lVhttp://dbpedia.org/resource/Null
tp306
aa(lp307
((lVhttp://dbpedia.org/resource/Null
tp308
aa(lp309
((lVhttp://dbpedia.org/resource/Null
tp310
aa(lp311
a(lp312
a(lp313
((lp314
Vhttp://www.w3.org/2002/07/owl#Thing
p315
aVhttp://dbpedia.org/class/yago/Abstraction100002137
p316
aVhttp://dbpedia.org/class/yago/DefiniteQuantity113576101
p317
aVhttp://dbpedia.org/class/yago/UnitOfMeasurement113583724
p318
aVhttp://dbpedia.org/class/yago/Measure100033615
p319
aVhttp://dbpedia.org/class/yago/UnitsOfFlow
p320
aVhttp://dbpedia.org/class/yago/UnitsOfInformation
p321
aVhttp://dbpedia.org/resource/Data_rate_units
tp322
aa(lp323
aa(lp324
(lp325
a(lp326
a(lp327
a(lp328
a(lp329
a(lp330
((lVhttp://dbpedia.org/resource/Null
tp331
aa(lp332
a(lp333
a(lp334
a(lp335
a(lp336
((lp337
Vhttp://www.w3.org/2002/07/owl#Thing
p338
aVhttp://dbpedia.org/class/yago/Abstraction100002137
p339
aVhttp://dbpedia.org/class/yago/DefiniteQuantity113576101
p340
aVhttp://dbpedia.org/class/yago/UnitOfMeasurement113583724
p341
aVhttp://dbpedia.org/class/yago/Measure100033615
p342
aVhttp://dbpedia.org/class/yago/UnitsOfFlow
p343
aVhttp://dbpedia.org/class/yago/UnitsOfInformation
p344
aVhttp://dbpedia.org/resource/Data_rate_units
tp345
aa(lp346
aa(lp347
(lp348
a(lp349
a(lp350
a(lp351
a(lp352
a(lp353
((lVhttp://dbpedia.org/resource/Null
tp354
aa(lp355
a(lp356
((lVhttp://dbpedia.org/resource/Null
tp357
aa(lp358
((lVhttp://dbpedia.org/resource/Null
tp359
aa(lp360
((lVhttp://dbpedia.org/resource/Null
tp361
aa(lp362
((lVhttp://dbpedia.org/resource/Null
tp363
aa(lp364
((lVhttp://dbpedia.org/resource/Null
tp365
aaa(lp366
(lp367
a(lp368
a(lp369
a(lp370
a(lp371
a(lp372
a(lp373
a(lp374
((lVhttp://dbpedia.org/resource/Null
tp375
aa(lp376
a(lp377
a(lp378
((lp379
Vhttp://www.w3.org/2002/07/owl#Thing
p380
aVhttp://dbpedia.org/class/yago/Abstraction100002137
p381
aVhttp://dbpedia.org/class/yago/DefiniteQuantity113576101
p382
aVhttp://dbpedia.org/class/yago/UnitOfMeasurement113583724
p383
aVhttp://dbpedia.org/class/yago/Measure100033615
p384
aVhttp://dbpedia.org/class/yago/UnitsOfFlow
p385
aVhttp://dbpedia.org/class/yago/UnitsOfInformation
p386
aVhttp://dbpedia.org/resource/Data_rate_units
tp387
aa(lp388
aa(lp389
(lp390
a(lp391
a(lp392
a(lp393
a(lp394
a(lp395
((lVhttp://dbpedia.org/resource/Null
tp396
aa(lp397
a(lp398
a(lp399
a(lp400
a(lp401
((lp402
Vhttp://www.w3.org/2002/07/owl#Thing
p403
aVhttp://dbpedia.org/class/yago/Abstraction100002137
p404
aVhttp://dbpedia.org/class/yago/DefiniteQuantity113576101
p405
aVhttp://dbpedia.org/class/yago/UnitOfMeasurement113583724
p406
aVhttp://dbpedia.org/class/yago/Measure100033615
p407
aVhttp://dbpedia.org/class/yago/UnitsOfFlow
p408
aVhttp://dbpedia.org/class/yago/UnitsOfInformation
p409
aVhttp://dbpedia.org/resource/Data_rate_units
tp410
aa(lp411
aa(lp412
(lp413
a(lp414
a(lp415
a(lp416
a(lp417
a(lp418
((lVhttp://dbpedia.org/resource/Null
tp419
aa(lp420
a(lp421
((lVhttp://dbpedia.org/resource/Null
tp422
aa(lp423
a(lp424
a(lp425
((lp426
Vhttp://www.w3.org/2002/07/owl#Thing
p427
aVhttp://dbpedia.org/class/yago/Abstraction100002137
p428
aVhttp://dbpedia.org/class/yago/DefiniteQuantity113576101
p429
aVhttp://dbpedia.org/class/yago/UnitOfMeasurement113583724
p430
aVhttp://dbpedia.org/class/yago/Measure100033615
p431
aVhttp://dbpedia.org/class/yago/UnitsOfFlow
p432
aVhttp://dbpedia.org/class/yago/UnitsOfInformation
p433
aVhttp://dbpedia.org/resource/Data_rate_units
tp434
aa(lp435
aa(lp436
(lp437
a(lp438
a(lp439
a(lp440
a(lp441
a(lp442
((lVhttp://dbpedia.org/resource/Null
tp443
aa(lp444
((lVhttp://dbpedia.org/resource/Null
tp445
aa(lp446
((lVhttp://dbpedia.org/resource/Null
tp447
aa(lp448
a(lp449
a(lp450
((lp451
Vhttp://www.w3.org/2002/07/owl#Thing
p452
aVhttp://dbpedia.org/class/yago/Abstraction100002137
p453
aVhttp://dbpedia.org/class/yago/DefiniteQuantity113576101
p454
aVhttp://dbpedia.org/class/yago/UnitOfMeasurement113583724
p455
aVhttp://dbpedia.org/class/yago/Measure100033615
p456
aVhttp://dbpedia.org/class/yago/UnitsOfFlow
p457
aVhttp://dbpedia.org/class/yago/UnitsOfInformation
p458
aVhttp://dbpedia.org/resource/Data_rate_units
p459
tp460
aa(lp461
aa.