(lp1
(lp2
(dp3
Vstart
p4
I0
sS'classes'
p5
(lp6
Vhttp://www.w3.org/2002/07/owl#Thing
p7
aVhttp://dbpedia.org/class/yago/Abstraction100002137
p8
aVhttp://dbpedia.org/class/yago/DefiniteQuantity113576101
p9
aVhttp://dbpedia.org/class/yago/UnitOfMeasurement113583724
p10
aVhttp://dbpedia.org/class/yago/Measure100033615
p11
aVhttp://dbpedia.org/class/yago/UnitsOfFlow
p12
aVhttp://dbpedia.org/class/yago/UnitsOfInformation
p13
asVdisambiguatedURL
p14
Vhttp://dbpedia.org/resource/Data_rate_units
p15
sVnamedEntity
p16
Vs
sVoffset
p17
I1
saa(lp18
(dp19
Vstart
p20
I0
sg5
(lp21
Vhttp://www.w3.org/2002/07/owl#Thing
p22
aVhttp://dbpedia.org/class/yago/Abstraction100002137
p23
aVhttp://dbpedia.org/class/yago/DefiniteQuantity113576101
p24
aVhttp://dbpedia.org/class/yago/UnitOfMeasurement113583724
p25
aVhttp://dbpedia.org/class/yago/Measure100033615
p26
aVhttp://dbpedia.org/class/yago/UnitsOfFlow
p27
aVhttp://dbpedia.org/class/yago/UnitsOfInformation
p28
asVdisambiguatedURL
p29
Vhttp://dbpedia.org/resource/Data_rate_units
p30
sVnamedEntity
p31
Vs
sVoffset
p32
I1
saa(lp33
a(lp34
a(lp35
a(lp36
a(lp37
(dp38
Vstart
p39
I0
sg5
(lp40
Vhttp://www.w3.org/2002/07/owl#Thing
p41
aVhttp://dbpedia.org/class/yago/Abstraction100002137
p42
aVhttp://dbpedia.org/class/yago/DefiniteQuantity113576101
p43
aVhttp://dbpedia.org/class/yago/UnitOfMeasurement113583724
p44
aVhttp://dbpedia.org/class/yago/Measure100033615
p45
aVhttp://dbpedia.org/class/yago/UnitsOfFlow
p46
aVhttp://dbpedia.org/class/yago/UnitsOfInformation
p47
asVdisambiguatedURL
p48
Vhttp://dbpedia.org/resource/Data_rate_units
p49
sVnamedEntity
p50
Vs
sVoffset
p51
I1
saa(lp52
(dp53
Vstart
p54
I0
sg5
(lp55
Vhttp://www.w3.org/2002/07/owl#Thing
p56
aVhttp://dbpedia.org/class/yago/Abstraction100002137
p57
aVhttp://dbpedia.org/class/yago/DefiniteQuantity113576101
p58
aVhttp://dbpedia.org/class/yago/UnitOfMeasurement113583724
p59
aVhttp://dbpedia.org/class/yago/Measure100033615
p60
aVhttp://dbpedia.org/class/yago/UnitsOfFlow
p61
aVhttp://dbpedia.org/class/yago/UnitsOfInformation
p62
asVdisambiguatedURL
p63
Vhttp://dbpedia.org/resource/Data_rate_units
p64
sVnamedEntity
p65
Vs
sVoffset
p66
I1
saa(lp67
(dp68
Vstart
p69
I0
sg5
(lp70
Vhttp://www.w3.org/2002/07/owl#Thing
p71
aVhttp://dbpedia.org/class/yago/Abstraction100002137
p72
aVhttp://dbpedia.org/class/yago/DefiniteQuantity113576101
p73
aVhttp://dbpedia.org/class/yago/UnitOfMeasurement113583724
p74
aVhttp://dbpedia.org/class/yago/Measure100033615
p75
aVhttp://dbpedia.org/class/yago/UnitsOfFlow
p76
aVhttp://dbpedia.org/class/yago/UnitsOfInformation
p77
asVdisambiguatedURL
p78
Vhttp://dbpedia.org/resource/Data_rate_units
p79
sVnamedEntity
p80
Vs
sVoffset
p81
I1
saa(lp82
(dp83
Vstart
p84
I0
sg5
(lp85
Vhttp://www.w3.org/2002/07/owl#Thing
p86
aVhttp://dbpedia.org/class/yago/Abstraction100002137
p87
aVhttp://dbpedia.org/class/yago/DefiniteQuantity113576101
p88
aVhttp://dbpedia.org/class/yago/UnitOfMeasurement113583724
p89
aVhttp://dbpedia.org/class/yago/Measure100033615
p90
aVhttp://dbpedia.org/class/yago/UnitsOfFlow
p91
aVhttp://dbpedia.org/class/yago/UnitsOfInformation
p92
asVdisambiguatedURL
p93
Vhttp://dbpedia.org/resource/Data_rate_units
p94
sVnamedEntity
p95
Vs
sVoffset
p96
I1
saa(lp97
(dp98
Vstart
p99
I0
sg5
(lp100
Vhttp://www.w3.org/2002/07/owl#Thing
p101
aVhttp://dbpedia.org/class/yago/Abstraction100002137
p102
aVhttp://dbpedia.org/class/yago/DefiniteQuantity113576101
p103
aVhttp://dbpedia.org/class/yago/UnitOfMeasurement113583724
p104
aVhttp://dbpedia.org/class/yago/Measure100033615
p105
aVhttp://dbpedia.org/class/yago/UnitsOfFlow
p106
aVhttp://dbpedia.org/class/yago/UnitsOfInformation
p107
asVdisambiguatedURL
p108
Vhttp://dbpedia.org/resource/Data_rate_units
p109
sVnamedEntity
p110
Vs
sVoffset
p111
I1
saa(lp112
(dp113
Vstart
p114
I0
sg5
(lp115
Vhttp://www.w3.org/2002/07/owl#Thing
p116
aVhttp://dbpedia.org/class/yago/Abstraction100002137
p117
aVhttp://dbpedia.org/class/yago/DefiniteQuantity113576101
p118
aVhttp://dbpedia.org/class/yago/UnitOfMeasurement113583724
p119
aVhttp://dbpedia.org/class/yago/Measure100033615
p120
aVhttp://dbpedia.org/class/yago/UnitsOfFlow
p121
aVhttp://dbpedia.org/class/yago/UnitsOfInformation
p122
asVdisambiguatedURL
p123
Vhttp://dbpedia.org/resource/Data_rate_units
p124
sVnamedEntity
p125
Vs
sVoffset
p126
I1
saa(lp127
a(lp128
(dp129
Vstart
p130
I0
sg5
(lp131
Vhttp://www.w3.org/2002/07/owl#Thing
p132
aVhttp://dbpedia.org/class/yago/Abstraction100002137
p133
aVhttp://dbpedia.org/class/yago/DefiniteQuantity113576101
p134
aVhttp://dbpedia.org/class/yago/UnitOfMeasurement113583724
p135
aVhttp://dbpedia.org/class/yago/Measure100033615
p136
aVhttp://dbpedia.org/class/yago/UnitsOfFlow
p137
aVhttp://dbpedia.org/class/yago/UnitsOfInformation
p138
asVdisambiguatedURL
p139
Vhttp://dbpedia.org/resource/Data_rate_units
p140
sVnamedEntity
p141
Vs
sVoffset
p142
I1
saa(lp143
(dp144
Vstart
p145
I0
sg5
(lp146
Vhttp://www.w3.org/2002/07/owl#Thing
p147
aVhttp://dbpedia.org/class/yago/Abstraction100002137
p148
aVhttp://dbpedia.org/class/yago/DefiniteQuantity113576101
p149
aVhttp://dbpedia.org/class/yago/UnitOfMeasurement113583724
p150
aVhttp://dbpedia.org/class/yago/Measure100033615
p151
aVhttp://dbpedia.org/class/yago/UnitsOfFlow
p152
aVhttp://dbpedia.org/class/yago/UnitsOfInformation
p153
asVdisambiguatedURL
p154
Vhttp://dbpedia.org/resource/Data_rate_units
p155
sVnamedEntity
p156
Vs
sVoffset
p157
I1
saa(lp158
a(lp159
(dp160
Vstart
p161
I0
sg5
(lp162
Vhttp://www.w3.org/2002/07/owl#Thing
p163
aVhttp://dbpedia.org/class/yago/Abstraction100002137
p164
aVhttp://dbpedia.org/class/yago/DefiniteQuantity113576101
p165
aVhttp://dbpedia.org/class/yago/UnitOfMeasurement113583724
p166
aVhttp://dbpedia.org/class/yago/Measure100033615
p167
aVhttp://dbpedia.org/class/yago/UnitsOfFlow
p168
aVhttp://dbpedia.org/class/yago/UnitsOfInformation
p169
asVdisambiguatedURL
p170
Vhttp://dbpedia.org/resource/Data_rate_units
p171
sVnamedEntity
p172
Vs
sVoffset
p173
I1
saa(lp174
(dp175
Vstart
p176
I0
sg5
(lp177
Vhttp://www.w3.org/2002/07/owl#Thing
p178
aVhttp://dbpedia.org/class/yago/Abstraction100002137
p179
aVhttp://dbpedia.org/class/yago/DefiniteQuantity113576101
p180
aVhttp://dbpedia.org/class/yago/UnitOfMeasurement113583724
p181
aVhttp://dbpedia.org/class/yago/Measure100033615
p182
aVhttp://dbpedia.org/class/yago/UnitsOfFlow
p183
aVhttp://dbpedia.org/class/yago/UnitsOfInformation
p184
asVdisambiguatedURL
p185
Vhttp://dbpedia.org/resource/Data_rate_units
p186
sVnamedEntity
p187
Vs
sVoffset
p188
I1
saa(lp189
(dp190
Vstart
p191
I0
sg5
(lp192
Vhttp://www.w3.org/2002/07/owl#Thing
p193
aVhttp://dbpedia.org/class/yago/Abstraction100002137
p194
aVhttp://dbpedia.org/class/yago/DefiniteQuantity113576101
p195
aVhttp://dbpedia.org/class/yago/UnitOfMeasurement113583724
p196
aVhttp://dbpedia.org/class/yago/Measure100033615
p197
aVhttp://dbpedia.org/class/yago/UnitsOfFlow
p198
aVhttp://dbpedia.org/class/yago/UnitsOfInformation
p199
asVdisambiguatedURL
p200
Vhttp://dbpedia.org/resource/Data_rate_units
p201
sVnamedEntity
p202
Vs
sVoffset
p203
I1
saa(lp204
(dp205
Vstart
p206
I0
sg5
(lp207
Vhttp://www.w3.org/2002/07/owl#Thing
p208
aVhttp://dbpedia.org/class/yago/Abstraction100002137
p209
aVhttp://dbpedia.org/class/yago/DefiniteQuantity113576101
p210
aVhttp://dbpedia.org/class/yago/UnitOfMeasurement113583724
p211
aVhttp://dbpedia.org/class/yago/Measure100033615
p212
aVhttp://dbpedia.org/class/yago/UnitsOfFlow
p213
aVhttp://dbpedia.org/class/yago/UnitsOfInformation
p214
asVdisambiguatedURL
p215
Vhttp://dbpedia.org/resource/Data_rate_units
p216
sVnamedEntity
p217
Vs
sVoffset
p218
I1
saa.