(lp1
(lp2
(lp3
a(lp4
a(lp5
aa(lp6
(lp7
a(lp8
a(lp9
aa(lp10
(lp11
a(lp12
a(lp13
aa(lp14
(lp15
a(lp16
a(lp17
aa(lp18
(lp19
a(lp20
a(lp21
aa(lp22
(lp23
a(lp24
a(lp25
aa(lp26
(lp27
((lp28
Vhttp://www.w3.org/2002/07/owl#Thing
p29
aVhttp://dbpedia.org/resource/List_of_auto_parts
tp30
aa(lp31
a(lp32
aa(lp33
(lp34
a(lp35
a(lp36
aa(lp37
(lp38
a(lp39
a(lp40
aa(lp41
(lp42
a(lp43
a(lp44
aa(lp45
(lp46
a(lp47
a(lp48
aa(lp49
(lp50
a(lp51
a(lp52
aa(lp53
(lp54
a(lp55
a(lp56
aa(lp57
(lp58
a(lp59
a(lp60
aa(lp61
(lp62
a(lp63
a(lp64
aa(lp65
(lp66
a(lp67
a(lp68
aa(lp69
(lp70
((lp71
Vhttp://dbpedia.org/class/yago/Abstraction100002137
p72
aVhttp://dbpedia.org/class/yago/Name106333653
p73
aVhttp://dbpedia.org/class/yago/Part113809207
p74
aVhttp://dbpedia.org/class/yago/Relation100031921
p75
aVhttp://dbpedia.org/class/yago/TradeName106845599
p76
aVhttp://dbpedia.org/class/yago/LanguageUnit106284225
p77
aVhttp://dbpedia.org/class/yago/HomeApplianceBrands
p78
aVhttp://dbpedia.org/resource/John_Oster_Manufacturing_Company
tp79
aa(lp80
((lp81
Vhttp://dbpedia.org/class/yago/Abstraction100002137
p82
aVhttp://dbpedia.org/class/yago/Name106333653
p83
aVhttp://dbpedia.org/class/yago/Part113809207
p84
aVhttp://dbpedia.org/class/yago/Relation100031921
p85
aVhttp://dbpedia.org/class/yago/TradeName106845599
p86
aVhttp://dbpedia.org/class/yago/LanguageUnit106284225
p87
aVhttp://dbpedia.org/class/yago/HomeApplianceBrands
p88
aVhttp://dbpedia.org/resource/John_Oster_Manufacturing_Company
tp89
aa(lp90
((lp91
Vhttp://dbpedia.org/class/yago/Abstraction100002137
p92
aVhttp://dbpedia.org/class/yago/Name106333653
p93
aVhttp://dbpedia.org/class/yago/Part113809207
p94
aVhttp://dbpedia.org/class/yago/Relation100031921
p95
aVhttp://dbpedia.org/class/yago/TradeName106845599
p96
aVhttp://dbpedia.org/class/yago/LanguageUnit106284225
p97
aVhttp://dbpedia.org/class/yago/HomeApplianceBrands
p98
aVhttp://dbpedia.org/resource/John_Oster_Manufacturing_Company
tp99
aaa(lp100
(lp101
a(lp102
a(lp103
aa(lp104
(lp105
((lp106
Vhttp://www.w3.org/2002/07/owl#Thing
p107
aVhttp://dbpedia.org/resource/Printed_circuit_board
p108
tp109
aa(lp110
a(lp111
aa(lp112
(lp113
a(lp114
a(lp115
aa.