(lp1
(lp2
(dp3
Vstart
p4
I0
sS'classes'
p5
(lp6
Vhttp://www.w3.org/2002/07/owl#Thing
p7
aVhttp://dbpedia.org/ontology/Place
p8
aVhttp://dbpedia.org/ontology/Location
p9
aVhttp://www.wikidata.org/entity/Q486972
p10
aVhttp://www.wikidata.org/entity/Q515
p11
aVhttp://dbpedia.org/ontology/City
p12
aVhttp://dbpedia.org/ontology/PopulatedPlace
p13
aVhttp://dbpedia.org/ontology/Settlement
p14
aVhttp://www.w3.org/2003/01/geo/wgs84_pos#SpatialThing
p15
aVhttp://schema.org/City
p16
aVhttp://schema.org/Place
p17
aVhttp://umbel.org/umbel/rc/City
p18
aVhttp://umbel.org/umbel/rc/Location_Underspecified
p19
aVhttp://umbel.org/umbel/rc/PopulatedPlace
p20
aVhttp://umbel.org/umbel/rc/Village
p21
aVhttp://dbpedia.org/class/yago/AdministrativeDistrict108491826
p22
aVhttp://dbpedia.org/class/yago/Area108497294
p23
aVhttp://dbpedia.org/class/yago/CaliforniaCounties
p24
aVhttp://dbpedia.org/class/yago/Center108523483
p25
aVhttp://dbpedia.org/class/yago/City108524735
p26
aVhttp://dbpedia.org/class/yago/County108546183
p27
aVhttp://dbpedia.org/class/yago/District108552138
p28
aVhttp://dbpedia.org/class/yago/Location100027167
p29
aVhttp://dbpedia.org/class/yago/Object100002684
p30
aVhttp://dbpedia.org/class/yago/Region108630039
p31
aVhttp://dbpedia.org/class/yago/Region108630985
p32
aVhttp://dbpedia.org/class/yago/Seat108647945
p33
aVhttp://dbpedia.org/class/yago/Site108651247
p34
aVhttp://dbpedia.org/class/yago/Tract108673395
p35
aVhttp://dbpedia.org/class/yago/UrbanArea108675967
p36
aVhttp://dbpedia.org/class/yago/YagoGeoEntity
p37
aVhttp://dbpedia.org/class/yago/YagoLegalActorGeo
p38
aVhttp://dbpedia.org/class/yago/CitiesInTheSanFranciscoBayArea
p39
aVhttp://dbpedia.org/class/yago/CountiesInTheSanFranciscoBayArea
p40
aVhttp://dbpedia.org/class/yago/CountySeat108547143
p41
aVhttp://dbpedia.org/class/yago/CountySeatsInCalifornia
p42
aVhttp://dbpedia.org/class/yago/GeographicalArea108574314
p43
aVhttp://dbpedia.org/class/yago/Municipality108626283
p44
aVhttp://dbpedia.org/class/yago/PhysicalEntity100001930
p45
aVhttp://dbpedia.org/class/yago/YagoPermanentlyLocatedEntity
p46
aVhttp://dbpedia.org/class/yago/IncorporatedCitiesAndTownsInCalifornia
p47
aVhttp://dbpedia.org/class/yago/PopulatedCoastalPlacesInCalifornia
p48
aVhttp://dbpedia.org/class/yago/PopulatedPlacesEstablishedIn1776
p49
aVhttp://dbpedia.org/class/yago/PortSettlementsInTheUnitedStates
p50
asVdisambiguatedURL
p51
Vhttp://dbpedia.org/resource/San_Francisco
p52
sVnamedEntity
p53
VSAN
p54
sVoffset
p55
I3
saa(lp56
a(lp57
a(lp58
a(lp59
(dp60
Vstart
p61
I0
sg5
(lp62
Vhttp://www.w3.org/2002/07/owl#Thing
p63
aVhttp://dbpedia.org/ontology/Place
p64
aVhttp://dbpedia.org/ontology/Location
p65
aVhttp://www.wikidata.org/entity/Q486972
p66
aVhttp://www.wikidata.org/entity/Q515
p67
aVhttp://dbpedia.org/ontology/City
p68
aVhttp://dbpedia.org/ontology/PopulatedPlace
p69
aVhttp://dbpedia.org/ontology/Settlement
p70
aVhttp://www.w3.org/2003/01/geo/wgs84_pos#SpatialThing
p71
aVhttp://schema.org/City
p72
aVhttp://schema.org/Place
p73
aVhttp://umbel.org/umbel/rc/City
p74
aVhttp://umbel.org/umbel/rc/Location_Underspecified
p75
aVhttp://umbel.org/umbel/rc/PopulatedPlace
p76
aVhttp://umbel.org/umbel/rc/Village
p77
aVhttp://dbpedia.org/class/yago/AdministrativeDistrict108491826
p78
aVhttp://dbpedia.org/class/yago/Area108497294
p79
aVhttp://dbpedia.org/class/yago/Center108523483
p80
aVhttp://dbpedia.org/class/yago/City108524735
p81
aVhttp://dbpedia.org/class/yago/District108552138
p82
aVhttp://dbpedia.org/class/yago/Location100027167
p83
aVhttp://dbpedia.org/class/yago/Object100002684
p84
aVhttp://dbpedia.org/class/yago/Region108630985
p85
aVhttp://dbpedia.org/class/yago/Seat108647945
p86
aVhttp://dbpedia.org/class/yago/Site108651247
p87
aVhttp://dbpedia.org/class/yago/Tract108673395
p88
aVhttp://dbpedia.org/class/yago/UrbanArea108675967
p89
aVhttp://dbpedia.org/class/yago/YagoGeoEntity
p90
aVhttp://dbpedia.org/class/yago/YagoLegalActorGeo
p91
aVhttp://dbpedia.org/class/yago/CitiesInLosAngelesCounty,California
p92
aVhttp://dbpedia.org/class/yago/CountySeat108547143
p93
aVhttp://dbpedia.org/class/yago/CountySeatsInCalifornia
p94
aVhttp://dbpedia.org/class/yago/GeographicalArea108574314
p95
aVhttp://dbpedia.org/class/yago/Municipality108626283
p96
aVhttp://dbpedia.org/class/yago/PhysicalEntity100001930
p97
aVhttp://dbpedia.org/class/yago/YagoPermanentlyLocatedEntity
p98
aVhttp://dbpedia.org/class/yago/HostCitiesOfTheSummerOlympicGames
p99
aVhttp://dbpedia.org/class/yago/IncorporatedCitiesAndTownsInCalifornia
p100
aVhttp://dbpedia.org/class/yago/PopulatedCoastalPlacesInCalifornia
p101
aVhttp://dbpedia.org/class/yago/PopulatedPlacesEstablishedIn1781
p102
aVhttp://dbpedia.org/class/yago/PopulatedPlacesInTheUnitedStatesWithHispanicPluralityPopulations
p103
aVhttp://dbpedia.org/class/yago/PortSettlementsInTheUnitedStates
p104
asVdisambiguatedURL
p105
Vhttp://dbpedia.org/resource/Los_Angeles
p106
sVnamedEntity
p107
VLA
p108
sVoffset
p109
I2
saa(lp110
(dp111
Vstart
p112
I0
sg5
(lp113
Vhttp://www.w3.org/2002/07/owl#Thing
p114
aVhttp://dbpedia.org/ontology/Place
p115
aVhttp://dbpedia.org/ontology/Location
p116
aVhttp://www.wikidata.org/entity/Q486972
p117
aVhttp://www.wikidata.org/entity/Q515
p118
aVhttp://dbpedia.org/ontology/City
p119
aVhttp://dbpedia.org/ontology/PopulatedPlace
p120
aVhttp://dbpedia.org/ontology/Settlement
p121
aVhttp://www.w3.org/2003/01/geo/wgs84_pos#SpatialThing
p122
aVhttp://schema.org/City
p123
aVhttp://schema.org/Place
p124
aVhttp://umbel.org/umbel/rc/Location_Underspecified
p125
aVhttp://umbel.org/umbel/rc/PopulatedPlace
p126
aVhttp://umbel.org/umbel/rc/Village
p127
aVhttp://dbpedia.org/class/yago/AdministrativeDistrict108491826
p128
aVhttp://dbpedia.org/class/yago/BusinessDistrict108539072
p129
aVhttp://dbpedia.org/class/yago/City108524735
p130
aVhttp://dbpedia.org/class/yago/CityDistrict108537837
p131
aVhttp://dbpedia.org/class/yago/District108552138
p132
aVhttp://dbpedia.org/class/yago/Location100027167
p133
aVhttp://dbpedia.org/class/yago/Object100002684
p134
aVhttp://dbpedia.org/class/yago/Region108630985
p135
aVhttp://dbpedia.org/class/yago/UrbanArea108675967
p136
aVhttp://dbpedia.org/class/yago/YagoGeoEntity
p137
aVhttp://dbpedia.org/class/yago/YagoLegalActorGeo
p138
aVhttp://dbpedia.org/class/yago/CentralBusinessDistricts
p139
aVhttp://dbpedia.org/class/yago/CentralBusinessDistrictsInTheUnitedKingdom
p140
aVhttp://dbpedia.org/class/yago/CitiesInLondon
p141
aVhttp://dbpedia.org/class/yago/DistrictsOfLondon
p142
aVhttp://dbpedia.org/class/yago/FinancialDistricts
p143
aVhttp://dbpedia.org/class/yago/GeographicalArea108574314
p144
aVhttp://dbpedia.org/class/yago/Municipality108626283
p145
aVhttp://dbpedia.org/class/yago/PhysicalEntity100001930
p146
aVhttp://dbpedia.org/class/yago/YagoPermanentlyLocatedEntity
p147
asVdisambiguatedURL
p148
Vhttp://dbpedia.org/resource/City_of_London
p149
sVnamedEntity
p150
VCOL
p151
sVoffset
p152
I3
saa(lp153
a(lp154
(dp155
Vstart
p156
I0
sg5
(lp157
Vhttp://www.w3.org/2002/07/owl#Thing
p158
asVdisambiguatedURL
p159
Vhttp://dbpedia.org/resource/Detective
p160
sVnamedEntity
p161
VDET
p162
sVoffset
p163
I3
saa(lp164
a(lp165
a(lp166
a(lp167
a(lp168
a(lp169
(dp170
Vstart
p171
I0
sg5
(lp172
Vhttp://www.w3.org/2002/07/owl#Thing
p173
aVhttp://dbpedia.org/ontology/Place
p174
aVhttp://dbpedia.org/ontology/Location
p175
aVhttp://www.wikidata.org/entity/Q486972
p176
aVhttp://www.wikidata.org/entity/Q515
p177
aVhttp://dbpedia.org/ontology/City
p178
aVhttp://dbpedia.org/ontology/PopulatedPlace
p179
aVhttp://dbpedia.org/ontology/Settlement
p180
aVhttp://www.w3.org/2003/01/geo/wgs84_pos#SpatialThing
p181
aVhttp://schema.org/City
p182
aVhttp://schema.org/Place
p183
aVhttp://umbel.org/umbel/rc/Location_Underspecified
p184
aVhttp://umbel.org/umbel/rc/PopulatedPlace
p185
aVhttp://umbel.org/umbel/rc/Village
p186
aVhttp://dbpedia.org/class/yago/AdministrativeDistrict108491826
p187
aVhttp://dbpedia.org/class/yago/BusinessDistrict108539072
p188
aVhttp://dbpedia.org/class/yago/City108524735
p189
aVhttp://dbpedia.org/class/yago/CityDistrict108537837
p190
aVhttp://dbpedia.org/class/yago/District108552138
p191
aVhttp://dbpedia.org/class/yago/Location100027167
p192
aVhttp://dbpedia.org/class/yago/Object100002684
p193
aVhttp://dbpedia.org/class/yago/Region108630985
p194
aVhttp://dbpedia.org/class/yago/UrbanArea108675967
p195
aVhttp://dbpedia.org/class/yago/YagoGeoEntity
p196
aVhttp://dbpedia.org/class/yago/YagoLegalActorGeo
p197
aVhttp://dbpedia.org/class/yago/CentralBusinessDistricts
p198
aVhttp://dbpedia.org/class/yago/CentralBusinessDistrictsInTheUnitedKingdom
p199
aVhttp://dbpedia.org/class/yago/CitiesInLondon
p200
aVhttp://dbpedia.org/class/yago/DistrictsOfLondon
p201
aVhttp://dbpedia.org/class/yago/FinancialDistricts
p202
aVhttp://dbpedia.org/class/yago/GeographicalArea108574314
p203
aVhttp://dbpedia.org/class/yago/Municipality108626283
p204
aVhttp://dbpedia.org/class/yago/PhysicalEntity100001930
p205
aVhttp://dbpedia.org/class/yago/YagoPermanentlyLocatedEntity
p206
asVdisambiguatedURL
p207
Vhttp://dbpedia.org/resource/City_of_London
p208
sVnamedEntity
p209
VCOL
p210
sVoffset
p211
I3
saa(lp212
(dp213
Vstart
p214
I0
sg5
(lp215
Vhttp://www.w3.org/2002/07/owl#Thing
p216
aVhttp://www.ontologydesignpatterns.org/ont/dul/DUL.owl#Agent
p217
aVhttp://www.ontologydesignpatterns.org/ont/dul/DUL.owl#SocialPerson
p218
aVhttp://www.wikidata.org/entity/Q215380
p219
aVhttp://www.wikidata.org/entity/Q43229
p220
aVhttp://dbpedia.org/ontology/Agent
p221
aVhttp://dbpedia.org/ontology/Band
p222
aVhttp://dbpedia.org/ontology/Group
p223
aVhttp://dbpedia.org/ontology/Organisation
p224
aVhttp://schema.org/MusicGroup
p225
aVhttp://schema.org/Organization
p226
aVhttp://umbel.org/umbel/rc/Band_MusicGroup
p227
aVhttp://umbel.org/umbel/rc/Organization
p228
aVhttp://dbpedia.org/class/yago/Abstraction100002137
p229
aVhttp://dbpedia.org/class/yago/AmericanMusicalDuos
p230
aVhttp://dbpedia.org/class/yago/Couple113743605
p231
aVhttp://dbpedia.org/class/yago/DefiniteQuantity113576101
p232
aVhttp://dbpedia.org/class/yago/Digit113741022
p233
aVhttp://dbpedia.org/class/yago/Group100031264
p234
aVhttp://dbpedia.org/class/yago/Number113582013
p235
aVhttp://dbpedia.org/class/yago/Integer113728499
p236
aVhttp://dbpedia.org/class/yago/Measure100033615
p237
aVhttp://dbpedia.org/class/yago/Two113743269
p238
aVhttp://dbpedia.org/class/yago/RockMusicGroupsFromCalifornia
p239
asVdisambiguatedURL
p240
Vhttp://dbpedia.org/resource/Eagles_of_Death_Metal
p241
sVnamedEntity
p242
VEDM
p243
sVoffset
p244
I3
saa.