(lp1
(lp2
(lp3
a(lp4
a(lp5
a(lp6
aa(lp7
(lp8
((lp9
Vhttp://www.w3.org/2002/07/owl#Thing
p10
aVhttp://www.ontologydesignpatterns.org/ont/dul/DUL.owl#Agent
p11
aVhttp://www.ontologydesignpatterns.org/ont/dul/DUL.owl#SocialPerson
p12
aVhttp://www.wikidata.org/entity/Q215380
p13
aVhttp://www.wikidata.org/entity/Q43229
p14
aVhttp://dbpedia.org/ontology/Agent
p15
aVhttp://dbpedia.org/ontology/Band
p16
aVhttp://dbpedia.org/ontology/Group
p17
aVhttp://dbpedia.org/ontology/Organisation
p18
aVhttp://schema.org/MusicGroup
p19
aVhttp://schema.org/Organization
p20
aVhttp://umbel.org/umbel/rc/Band_MusicGroup
p21
aVhttp://dbpedia.org/class/yago/Abstraction100002137
p22
aVhttp://dbpedia.org/class/yago/Group100031264
p23
aVhttp://dbpedia.org/class/yago/Hello!ProjectGroups
p24
aVhttp://dbpedia.org/class/yago/JapaneseGirlGroups
p25
aVhttp://dbpedia.org/class/yago/JapaneseIdolGroups
p26
aVhttp://dbpedia.org/class/yago/JapanesePopMusicGroups
p27
aVhttp://dbpedia.org/resource/Aa!
tp28
aa(lp29
((lp30
Vhttp://www.w3.org/2002/07/owl#Thing
p31
aVhttp://dbpedia.org/ontology/Company
p32
aVhttp://www.ontologydesignpatterns.org/ont/dul/DUL.owl#Agent
p33
aVhttp://www.ontologydesignpatterns.org/ont/dul/DUL.owl#SocialPerson
p34
aVhttp://www.wikidata.org/entity/Q43229
p35
aVhttp://dbpedia.org/ontology/Agent
p36
aVhttp://dbpedia.org/ontology/Organisation
p37
aVhttp://schema.org/Organization
p38
aVhttp://umbel.org/umbel/rc/Business
p39
aVhttp://umbel.org/umbel/rc/Organization
p40
aVhttp://dbpedia.org/class/yago/Abstraction100002137
p41
aVhttp://dbpedia.org/class/yago/AluminiumCompaniesOfTheUnitedStates
p42
aVhttp://dbpedia.org/class/yago/Company108058098
p43
aVhttp://dbpedia.org/class/yago/Group100031264
p44
aVhttp://dbpedia.org/class/yago/Institution108053576
p45
aVhttp://dbpedia.org/class/yago/Organization108008335
p46
aVhttp://dbpedia.org/class/yago/SocialGroup107950920
p47
aVhttp://dbpedia.org/class/yago/YagoLegalActorGeo
p48
aVhttp://dbpedia.org/class/yago/CompaniesBasedInNewYorkCity
p49
aVhttp://dbpedia.org/class/yago/CompaniesBasedInPittsburgh,Pennsylvania
p50
aVhttp://dbpedia.org/class/yago/CompaniesEstablishedIn1886
p51
aVhttp://dbpedia.org/class/yago/YagoPermanentlyLocatedEntity
p52
aVhttp://dbpedia.org/class/yago/YagoLegalActor
p53
aVhttp://dbpedia.org/resource/Alcoa
tp54
aa(lp55
((lVhttp://dbpedia.org/resource/Raw_material
tp56
aa(lp57
((lp58
Vhttp://www.w3.org/2002/07/owl#Thing
p59
aVhttp://dbpedia.org/resource/Mining
tp60
aaa(lp61
(lp62
((lp63
Vhttp://www.w3.org/2002/07/owl#Thing
p64
aVhttp://dbpedia.org/ontology/Company
p65
aVhttp://www.ontologydesignpatterns.org/ont/dul/DUL.owl#Agent
p66
aVhttp://www.ontologydesignpatterns.org/ont/dul/DUL.owl#SocialPerson
p67
aVhttp://www.wikidata.org/entity/Q43229
p68
aVhttp://dbpedia.org/ontology/Agent
p69
aVhttp://dbpedia.org/ontology/Organisation
p70
aVhttp://schema.org/Organization
p71
aVhttp://umbel.org/umbel/rc/Business
p72
aVhttp://umbel.org/umbel/rc/Organization
p73
aVhttp://dbpedia.org/class/yago/Abstraction100002137
p74
aVhttp://dbpedia.org/class/yago/Business108061042
p75
aVhttp://dbpedia.org/class/yago/CarlyleGroupCompanies
p76
aVhttp://dbpedia.org/class/yago/Chain108057816
p77
aVhttp://dbpedia.org/class/yago/Company108058098
p78
aVhttp://dbpedia.org/class/yago/Enterprise108056231
p79
aVhttp://dbpedia.org/class/yago/Group100031264
p80
aVhttp://dbpedia.org/class/yago/Institution108053576
p81
aVhttp://dbpedia.org/class/yago/Organization108008335
p82
aVhttp://dbpedia.org/class/yago/SocialGroup107950920
p83
aVhttp://dbpedia.org/class/yago/YagoLegalActorGeo
p84
aVhttp://dbpedia.org/class/yago/CompaniesBasedInNorfolkCounty,Massachusetts
p85
aVhttp://dbpedia.org/class/yago/Fast-foodChainsOfTheUnitedStates
p86
aVhttp://dbpedia.org/class/yago/RestaurantChain108061801
p87
aVhttp://dbpedia.org/class/yago/YagoPermanentlyLocatedEntity
p88
aVhttp://dbpedia.org/class/yago/YagoLegalActor
p89
aVhttp://dbpedia.org/class/yago/PrivateEquityPortfolioCompanies
p90
aVhttp://dbpedia.org/class/yago/RestaurantChainsInTheUnitedStates
p91
aVhttp://dbpedia.org/resource/Dunkin'_Donuts
tp92
aa(lp93
((lp94
Vhttp://www.w3.org/2002/07/owl#Thing
p95
aVhttp://dbpedia.org/ontology/Company
p96
aVhttp://www.ontologydesignpatterns.org/ont/dul/DUL.owl#Agent
p97
aVhttp://www.ontologydesignpatterns.org/ont/dul/DUL.owl#SocialPerson
p98
aVhttp://www.wikidata.org/entity/Q43229
p99
aVhttp://dbpedia.org/ontology/Agent
p100
aVhttp://dbpedia.org/ontology/Organisation
p101
aVhttp://schema.org/Organization
p102
aVhttp://umbel.org/umbel/rc/Business
p103
aVhttp://umbel.org/umbel/rc/Organization
p104
aVhttp://dbpedia.org/class/yago/Abstraction100002137
p105
aVhttp://dbpedia.org/class/yago/Company108058098
p106
aVhttp://dbpedia.org/class/yago/Group100031264
p107
aVhttp://dbpedia.org/class/yago/Institution108053576
p108
aVhttp://dbpedia.org/class/yago/Organization108008335
p109
aVhttp://dbpedia.org/class/yago/SocialGroup107950920
p110
aVhttp://dbpedia.org/class/yago/YagoLegalActorGeo
p111
aVhttp://dbpedia.org/class/yago/ChemicalCompanies
p112
aVhttp://dbpedia.org/class/yago/ChemicalCompaniesOfTheUnitedStates
p113
aVhttp://dbpedia.org/class/yago/CompaniesBasedInNewCastleCounty,Delaware
p114
aVhttp://dbpedia.org/class/yago/CompaniesEstablishedIn1802
p115
aVhttp://dbpedia.org/class/yago/EngineeringCompaniesOfTheUnitedStates
p116
aVhttp://dbpedia.org/class/yago/YagoPermanentlyLocatedEntity
p117
aVhttp://dbpedia.org/class/yago/MultinationalCompaniesHeadquarteredInTheUnitedStates
p118
aVhttp://dbpedia.org/class/yago/NanotechnologyCompanies
p119
aVhttp://dbpedia.org/class/yago/YagoLegalActor
p120
aVhttp://dbpedia.org/class/yago/PubliclyTradedCompaniesOfTheUnitedStates
p121
aVhttp://dbpedia.org/resource/DuPont
tp122
aa(lp123
((lVhttp://dbpedia.org/resource/Raw_material
tp124
aa(lp125
((lp126
Vhttp://www.w3.org/2002/07/owl#Thing
p127
aVhttp://dbpedia.org/resource/Chemical_substance
tp128
aaa(lp129
(lp130
((lp131
Vhttp://www.w3.org/2002/07/owl#Thing
p132
aVhttp://www.ontologydesignpatterns.org/ont/dul/DUL.owl#Agent
p133
aVhttp://www.ontologydesignpatterns.org/ont/dul/DUL.owl#SocialPerson
p134
aVhttp://www.wikidata.org/entity/Q215380
p135
aVhttp://www.wikidata.org/entity/Q43229
p136
aVhttp://dbpedia.org/ontology/Agent
p137
aVhttp://dbpedia.org/ontology/Band
p138
aVhttp://dbpedia.org/ontology/Group
p139
aVhttp://dbpedia.org/ontology/Organisation
p140
aVhttp://schema.org/MusicGroup
p141
aVhttp://schema.org/Organization
p142
aVhttp://umbel.org/umbel/rc/Band_MusicGroup
p143
aVhttp://dbpedia.org/class/yago/Abstraction100002137
p144
aVhttp://dbpedia.org/class/yago/Couple113743605
p145
aVhttp://dbpedia.org/class/yago/DefiniteQuantity113576101
p146
aVhttp://dbpedia.org/class/yago/Digit113741022
p147
aVhttp://dbpedia.org/class/yago/Group100031264
p148
aVhttp://dbpedia.org/class/yago/Number113582013
p149
aVhttp://dbpedia.org/class/yago/ElectronicMusicDuos
p150
aVhttp://dbpedia.org/class/yago/ElectronicMusicGroupsFromCalifornia
p151
aVhttp://dbpedia.org/class/yago/Integer113728499
p152
aVhttp://dbpedia.org/class/yago/Measure100033615
p153
aVhttp://dbpedia.org/class/yago/Two113743269
p154
aVhttp://dbpedia.org/class/yago/StraightEdgeGroups
p155
aVhttp://dbpedia.org/class/yago/SynthpopGroups
p156
aVhttp://dbpedia.org/resource/Blaqk_Audio
tp157
aa(lp158
a(lp159
((lVhttp://dbpedia.org/resource/Capital_good
tp160
aa(lp161
aa(lp162
(lp163
((lVhttp://dbpedia.org/resource/Cat_(disambiguation)
tp164
aa(lp165
((lVhttp://dbpedia.org/resource/Caterpillar
tp166
aa(lp167
((lVhttp://dbpedia.org/resource/Capital_good
tp168
aa(lp169
aa(lp170
(lp171
((lp172
Vhttp://www.w3.org/2002/07/owl#Thing
p173
aVhttp://dbpedia.org/ontology/Company
p174
aVhttp://www.ontologydesignpatterns.org/ont/dul/DUL.owl#Agent
p175
aVhttp://www.ontologydesignpatterns.org/ont/dul/DUL.owl#SocialPerson
p176
aVhttp://www.wikidata.org/entity/Q43229
p177
aVhttp://dbpedia.org/ontology/Agent
p178
aVhttp://dbpedia.org/ontology/Organisation
p179
aVhttp://schema.org/Organization
p180
aVhttp://umbel.org/umbel/rc/Business
p181
aVhttp://umbel.org/umbel/rc/Organization
p182
aVhttp://dbpedia.org/class/yago/Abstraction100002137
p183
aVhttp://dbpedia.org/class/yago/Business108061042
p184
aVhttp://dbpedia.org/class/yago/Company108058098
p185
aVhttp://dbpedia.org/class/yago/Enterprise108056231
p186
aVhttp://dbpedia.org/class/yago/Group100031264
p187
aVhttp://dbpedia.org/class/yago/Institution108053576
p188
aVhttp://dbpedia.org/class/yago/Manufacturer108060446
p189
aVhttp://dbpedia.org/class/yago/Organization108008335
p190
aVhttp://dbpedia.org/class/yago/SocialGroup107950920
p191
aVhttp://dbpedia.org/class/yago/YagoLegalActorGeo
p192
aVhttp://dbpedia.org/class/yago/CompaniesBasedInFairfieldCounty,Connecticut
p193
aVhttp://dbpedia.org/class/yago/CompaniesEstablishedIn1892
p194
aVhttp://dbpedia.org/class/yago/CompaniesListedOnTheNewYorkStockExchange
p195
aVhttp://dbpedia.org/class/yago/ConglomerateCompanies
p196
aVhttp://dbpedia.org/class/yago/YagoPermanentlyLocatedEntity
p197
aVhttp://dbpedia.org/class/yago/GISCompanies
p198
aVhttp://dbpedia.org/class/yago/MarineEngineManufacturers
p199
aVhttp://dbpedia.org/class/yago/MedicalEquipmentManufacturers
p200
aVhttp://dbpedia.org/class/yago/PhotographyCompaniesOfTheUnitedStates
p201
aVhttp://dbpedia.org/class/yago/YagoLegalActor
p202
aVhttp://dbpedia.org/resource/General_Electric
tp203
aa(lp204
((lp205
Vhttp://www.w3.org/2002/07/owl#Thing
p206
aVhttp://dbpedia.org/ontology/Company
p207
aVhttp://www.ontologydesignpatterns.org/ont/dul/DUL.owl#Agent
p208
aVhttp://www.ontologydesignpatterns.org/ont/dul/DUL.owl#SocialPerson
p209
aVhttp://www.wikidata.org/entity/Q43229
p210
aVhttp://dbpedia.org/ontology/Agent
p211
aVhttp://dbpedia.org/ontology/Organisation
p212
aVhttp://schema.org/Organization
p213
aVhttp://umbel.org/umbel/rc/Business
p214
aVhttp://umbel.org/umbel/rc/Organization
p215
aVhttp://dbpedia.org/class/yago/Abstraction100002137
p216
aVhttp://dbpedia.org/class/yago/Business108061042
p217
aVhttp://dbpedia.org/class/yago/Company108058098
p218
aVhttp://dbpedia.org/class/yago/Enterprise108056231
p219
aVhttp://dbpedia.org/class/yago/Group100031264
p220
aVhttp://dbpedia.org/class/yago/Institution108053576
p221
aVhttp://dbpedia.org/class/yago/Manufacturer108060446
p222
aVhttp://dbpedia.org/class/yago/Organization108008335
p223
aVhttp://dbpedia.org/class/yago/SocialGroup107950920
p224
aVhttp://dbpedia.org/class/yago/YagoLegalActorGeo
p225
aVhttp://dbpedia.org/class/yago/CompaniesBasedInFairfieldCounty,Connecticut
p226
aVhttp://dbpedia.org/class/yago/CompaniesEstablishedIn1892
p227
aVhttp://dbpedia.org/class/yago/CompaniesListedOnTheNewYorkStockExchange
p228
aVhttp://dbpedia.org/class/yago/ConglomerateCompanies
p229
aVhttp://dbpedia.org/class/yago/YagoPermanentlyLocatedEntity
p230
aVhttp://dbpedia.org/class/yago/GISCompanies
p231
aVhttp://dbpedia.org/class/yago/MarineEngineManufacturers
p232
aVhttp://dbpedia.org/class/yago/MedicalEquipmentManufacturers
p233
aVhttp://dbpedia.org/class/yago/PhotographyCompaniesOfTheUnitedStates
p234
aVhttp://dbpedia.org/class/yago/YagoLegalActor
p235
aVhttp://dbpedia.org/resource/General_Electric
tp236
aa(lp237
((lVhttp://dbpedia.org/resource/Conglomerate
tp238
aa(lp239
((lVhttp://dbpedia.org/resource/Conglomerate
tp240
aaa(lp241
(lp242
((lp243
Vhttp://www.w3.org/2002/07/owl#Thing
p244
aVhttp://www.ontologydesignpatterns.org/ont/dul/DUL.owl#Agent
p245
aVhttp://www.ontologydesignpatterns.org/ont/dul/DUL.owl#SocialPerson
p246
aVhttp://www.wikidata.org/entity/Q15265344
p247
aVhttp://www.wikidata.org/entity/Q43229
p248
aVhttp://dbpedia.org/ontology/Agent
p249
aVhttp://dbpedia.org/ontology/Broadcaster
p250
aVhttp://dbpedia.org/ontology/Organisation
p251
aVhttp://dbpedia.org/ontology/TelevisionStation
p252
aVhttp://schema.org/Organization
p253
aVhttp://schema.org/TelevisionStation
p254
aVhttp://dbpedia.org/resource/M3_(Canadian_TV_channel)
tp255
aa(lp256
((lp257
Vhttp://www.w3.org/2002/07/owl#Thing
p258
aVhttp://dbpedia.org/ontology/Company
p259
aVhttp://www.ontologydesignpatterns.org/ont/dul/DUL.owl#Agent
p260
aVhttp://www.ontologydesignpatterns.org/ont/dul/DUL.owl#SocialPerson
p261
aVhttp://www.wikidata.org/entity/Q43229
p262
aVhttp://dbpedia.org/ontology/Agent
p263
aVhttp://dbpedia.org/ontology/Organisation
p264
aVhttp://schema.org/Organization
p265
aVhttp://umbel.org/umbel/rc/Business
p266
aVhttp://umbel.org/umbel/rc/Organization
p267
aVhttp://dbpedia.org/resource/3M
tp268
aa(lp269
((lVhttp://dbpedia.org/resource/Conglomerate
tp270
aa(lp271
((lVhttp://dbpedia.org/resource/Conglomerate
tp272
aaa(lp273
(lp274
a(lp275
((lp276
Vhttp://www.w3.org/2002/07/owl#Thing
p277
aVhttp://dbpedia.org/ontology/Company
p278
aVhttp://www.ontologydesignpatterns.org/ont/dul/DUL.owl#Agent
p279
aVhttp://www.ontologydesignpatterns.org/ont/dul/DUL.owl#SocialPerson
p280
aVhttp://www.wikidata.org/entity/Q43229
p281
aVhttp://dbpedia.org/ontology/Agent
p282
aVhttp://dbpedia.org/ontology/Organisation
p283
aVhttp://schema.org/Organization
p284
aVhttp://umbel.org/umbel/rc/Business
p285
aVhttp://umbel.org/umbel/rc/Organization
p286
aVhttp://dbpedia.org/class/yago/Abstraction100002137
p287
aVhttp://dbpedia.org/class/yago/Company108058098
p288
aVhttp://dbpedia.org/class/yago/Group100031264
p289
aVhttp://dbpedia.org/class/yago/Institution108053576
p290
aVhttp://dbpedia.org/class/yago/Organization108008335
p291
aVhttp://dbpedia.org/class/yago/SocialGroup107950920
p292
aVhttp://dbpedia.org/class/yago/YagoLegalActorGeo
p293
aVhttp://dbpedia.org/class/yago/CompaniesBasedInHartford,Connecticut
p294
aVhttp://dbpedia.org/class/yago/CompaniesEstablishedIn1929
p295
aVhttp://dbpedia.org/class/yago/ConglomerateCompanies
p296
aVhttp://dbpedia.org/class/yago/EngineeringCompaniesOfTheUnitedStates
p297
aVhttp://dbpedia.org/class/yago/YagoPermanentlyLocatedEntity
p298
aVhttp://dbpedia.org/class/yago/ManufacturingCompaniesBasedInConnecticut
p299
aVhttp://dbpedia.org/class/yago/YagoLegalActor
p300
aVhttp://dbpedia.org/resource/United_Technologies_Corporation
tp301
aa(lp302
((lVhttp://dbpedia.org/resource/Conglomerate
tp303
aa(lp304
((lVhttp://dbpedia.org/resource/Conglomerate
tp305
aaa(lp306
(lp307
((lVhttp://dbpedia.org/resource/Knockout
tp308
aa(lp309
((lp310
Vhttp://www.w3.org/2002/07/owl#Thing
p311
aVhttp://dbpedia.org/ontology/Company
p312
aVhttp://www.ontologydesignpatterns.org/ont/dul/DUL.owl#Agent
p313
aVhttp://www.ontologydesignpatterns.org/ont/dul/DUL.owl#SocialPerson
p314
aVhttp://www.wikidata.org/entity/Q43229
p315
aVhttp://dbpedia.org/ontology/Agent
p316
aVhttp://dbpedia.org/ontology/Organisation
p317
aVhttp://schema.org/Organization
p318
aVhttp://umbel.org/umbel/rc/Business
p319
aVhttp://umbel.org/umbel/rc/Organization
p320
aVhttp://dbpedia.org/class/yago/Abstraction100002137
p321
aVhttp://dbpedia.org/class/yago/BeverageCompaniesOfTheUnitedStates
p322
aVhttp://dbpedia.org/class/yago/Company108058098
p323
aVhttp://dbpedia.org/class/yago/Group100031264
p324
aVhttp://dbpedia.org/class/yago/Institution108053576
p325
aVhttp://dbpedia.org/class/yago/Organization108008335
p326
aVhttp://dbpedia.org/class/yago/SocialGroup107950920
p327
aVhttp://dbpedia.org/class/yago/YagoLegalActorGeo
p328
aVhttp://dbpedia.org/class/yago/CompaniesBasedInAtlanta,Georgia
p329
aVhttp://dbpedia.org/class/yago/CompaniesEstablishedIn1892
p330
aVhttp://dbpedia.org/class/yago/FoodCompany108003427
p331
aVhttp://dbpedia.org/class/yago/YagoPermanentlyLocatedEntity
p332
aVhttp://dbpedia.org/class/yago/MultinationalCompaniesHeadquarteredInTheUnitedStates
p333
aVhttp://dbpedia.org/class/yago/MultinationalFoodCompanies
p334
aVhttp://dbpedia.org/class/yago/YagoLegalActor
p335
aVhttp://dbpedia.org/class/yago/PubliclyTradedCompaniesOfTheUnitedStates
p336
aVhttp://dbpedia.org/resource/The_Coca-Cola_Company
tp337
aa(lp338
a(lp339
aa(lp340
(lp341
((lp342
Vhttp://www.w3.org/2002/07/owl#Thing
p343
aVhttp://dbpedia.org/ontology/Company
p344
aVhttp://www.ontologydesignpatterns.org/ont/dul/DUL.owl#Agent
p345
aVhttp://www.ontologydesignpatterns.org/ont/dul/DUL.owl#SocialPerson
p346
aVhttp://www.wikidata.org/entity/Q43229
p347
aVhttp://dbpedia.org/ontology/Agent
p348
aVhttp://dbpedia.org/ontology/Organisation
p349
aVhttp://schema.org/Organization
p350
aVhttp://umbel.org/umbel/rc/Business
p351
aVhttp://umbel.org/umbel/rc/Organization
p352
aVhttp://dbpedia.org/class/yago/Abstraction100002137
p353
aVhttp://dbpedia.org/class/yago/Company108058098
p354
aVhttp://dbpedia.org/class/yago/Group100031264
p355
aVhttp://dbpedia.org/class/yago/Institution108053576
p356
aVhttp://dbpedia.org/class/yago/Organization108008335
p357
aVhttp://dbpedia.org/class/yago/SocialGroup107950920
p358
aVhttp://dbpedia.org/class/yago/YagoLegalActorGeo
p359
aVhttp://dbpedia.org/class/yago/CompaniesBasedInCookCounty,Illinois
p360
aVhttp://dbpedia.org/class/yago/CompaniesEstablishedIn1903
p361
aVhttp://dbpedia.org/class/yago/FoodCompany108003427
p362
aVhttp://dbpedia.org/class/yago/FoodProductionCompaniesOfTheUnitedStates
p363
aVhttp://dbpedia.org/class/yago/YagoPermanentlyLocatedEntity
p364
aVhttp://dbpedia.org/class/yago/MultinationalDairyCompanies
p365
aVhttp://dbpedia.org/class/yago/MultinationalFoodCompanies
p366
aVhttp://dbpedia.org/class/yago/YagoLegalActor
p367
aVhttp://dbpedia.org/resource/Kraft_Foods
tp368
aa(lp369
((lp370
Vhttp://www.w3.org/2002/07/owl#Thing
p371
aVhttp://xmlns.com/foaf/0.1/Person
p372
aVhttp://dbpedia.org/ontology/Person
p373
aVhttp://www.ontologydesignpatterns.org/ont/dul/DUL.owl#Agent
p374
aVhttp://www.ontologydesignpatterns.org/ont/dul/DUL.owl#NaturalPerson
p375
aVhttp://www.wikidata.org/entity/Q215627
p376
aVhttp://www.wikidata.org/entity/Q5
p377
aVhttp://dbpedia.org/ontology/Agent
p378
aVhttp://schema.org/Person
p379
aVhttp://dbpedia.org/class/yago/Administrator109770949
p380
aVhttp://dbpedia.org/class/yago/Alumnus109786338
p381
aVhttp://dbpedia.org/class/yago/AmericanBillionaires
p382
aVhttp://dbpedia.org/class/yago/AmericanPhilanthropists
p383
aVhttp://dbpedia.org/class/yago/Benefactor109608709
p384
aVhttp://dbpedia.org/class/yago/Billionaire110529684
p385
aVhttp://dbpedia.org/class/yago/BostonCollegePeople
p386
aVhttp://dbpedia.org/class/yago/Businessman109882007
p387
aVhttp://dbpedia.org/class/yago/Businessperson109882716
p388
aVhttp://dbpedia.org/class/yago/Capitalist109609232
p389
aVhttp://dbpedia.org/class/yago/CausalAgent100007347
p390
aVhttp://dbpedia.org/class/yago/Donor110025730
p391
aVhttp://dbpedia.org/class/yago/Executive110069645
p392
aVhttp://dbpedia.org/class/yago/GoodPerson110138767
p393
aVhttp://dbpedia.org/class/yago/Head110162991
p394
aVhttp://dbpedia.org/class/yago/Intellectual109621545
p395
aVhttp://dbpedia.org/class/yago/Leader109623038
p396
aVhttp://dbpedia.org/class/yago/LivingThing100004258
p397
aVhttp://dbpedia.org/class/yago/Object100002684
p398
aVhttp://dbpedia.org/class/yago/Organism100004475
p399
aVhttp://dbpedia.org/class/yago/Owner110388924
p400
aVhttp://dbpedia.org/class/yago/Person100007846
p401
aVhttp://dbpedia.org/class/yago/Philanthropist110421956
p402
aVhttp://dbpedia.org/class/yago/RichPerson110529231
p403
aVhttp://dbpedia.org/class/yago/Scholar110557854
p404
aVhttp://dbpedia.org/class/yago/Whole100003553
p405
aVhttp://dbpedia.org/class/yago/YagoLegalActorGeo
p406
aVhttp://dbpedia.org/class/yago/ColumbiaUniversityAlumni
p407
aVhttp://dbpedia.org/class/yago/ColumbiaUniversityPeople
p408
aVhttp://dbpedia.org/class/yago/PhysicalEntity100001930
p409
aVhttp://dbpedia.org/class/yago/HarvardBusinessSchoolAlumni
p410
aVhttp://dbpedia.org/class/yago/LivingPeople
p411
aVhttp://dbpedia.org/class/yago/MajorLeagueSoccerExecutives
p412
aVhttp://dbpedia.org/class/yago/NationalFootballLeagueOwners
p413
aVhttp://dbpedia.org/class/yago/NewEnglandPatriotsExecutives
p414
aVhttp://dbpedia.org/class/yago/PeopleFromBrookline,Massachusetts
p415
aVhttp://dbpedia.org/class/yago/YagoLegalActor
p416
aVhttp://dbpedia.org/resource/Robert_Kraft
tp417
aa(lp418
a(lp419
aa(lp420
(lp421
((lp422
Vhttp://www.w3.org/2002/07/owl#Thing
p423
aVhttp://dbpedia.org/ontology/Company
p424
aVhttp://www.ontologydesignpatterns.org/ont/dul/DUL.owl#Agent
p425
aVhttp://www.ontologydesignpatterns.org/ont/dul/DUL.owl#SocialPerson
p426
aVhttp://www.wikidata.org/entity/Q43229
p427
aVhttp://dbpedia.org/ontology/Agent
p428
aVhttp://dbpedia.org/ontology/Organisation
p429
aVhttp://schema.org/Organization
p430
aVhttp://umbel.org/umbel/rc/Business
p431
aVhttp://umbel.org/umbel/rc/Organization
p432
aVhttp://dbpedia.org/class/yago/Abstraction100002137
p433
aVhttp://dbpedia.org/class/yago/Company108058098
p434
aVhttp://dbpedia.org/class/yago/Group100031264
p435
aVhttp://dbpedia.org/class/yago/Institution108053576
p436
aVhttp://dbpedia.org/class/yago/Organization108008335
p437
aVhttp://dbpedia.org/class/yago/SocialGroup107950920
p438
aVhttp://dbpedia.org/class/yago/YagoLegalActorGeo
p439
aVhttp://dbpedia.org/class/yago/CompaniesBasedInCincinnati,Ohio
p440
aVhttp://dbpedia.org/class/yago/CompaniesBasedInGeneva
p441
aVhttp://dbpedia.org/class/yago/CompaniesEstablishedIn1837
p442
aVhttp://dbpedia.org/class/yago/DentalCompanies
p443
aVhttp://dbpedia.org/class/yago/DrugCompany108002578
p444
aVhttp://dbpedia.org/class/yago/YagoPermanentlyLocatedEntity
p445
aVhttp://dbpedia.org/class/yago/ManufacturingCompaniesBasedInOhio
p446
aVhttp://dbpedia.org/class/yago/PharmaceuticalCompaniesOfTheUnitedStates
p447
aVhttp://dbpedia.org/class/yago/YagoLegalActor
p448
aVhttp://dbpedia.org/resource/Procter_&_Gamble
tp449
aa(lp450
a(lp451
a(lp452
aa(lp453
(lp454
((lVhttp://dbpedia.org/resource/CVX
tp455
aa(lp456
((lp457
Vhttp://www.w3.org/2002/07/owl#Thing
p458
aVhttp://dbpedia.org/ontology/Company
p459
aVhttp://www.ontologydesignpatterns.org/ont/dul/DUL.owl#Agent
p460
aVhttp://www.ontologydesignpatterns.org/ont/dul/DUL.owl#SocialPerson
p461
aVhttp://www.wikidata.org/entity/Q43229
p462
aVhttp://dbpedia.org/ontology/Agent
p463
aVhttp://dbpedia.org/ontology/Organisation
p464
aVhttp://schema.org/Organization
p465
aVhttp://umbel.org/umbel/rc/Business
p466
aVhttp://umbel.org/umbel/rc/Organization
p467
aVhttp://dbpedia.org/class/yago/Abstraction100002137
p468
aVhttp://dbpedia.org/class/yago/AutomotiveCompaniesOfTheUnitedStates
p469
aVhttp://dbpedia.org/class/yago/Company108058098
p470
aVhttp://dbpedia.org/class/yago/Group100031264
p471
aVhttp://dbpedia.org/class/yago/Institution108053576
p472
aVhttp://dbpedia.org/class/yago/OilCompany108069241
p473
aVhttp://dbpedia.org/class/yago/Organization108008335
p474
aVhttp://dbpedia.org/class/yago/SocialGroup107950920
p475
aVhttp://dbpedia.org/class/yago/YagoLegalActorGeo
p476
aVhttp://dbpedia.org/class/yago/ChemicalCompaniesOfTheUnitedStates
p477
aVhttp://dbpedia.org/class/yago/CompaniesBasedInContraCostaCounty,California
p478
aVhttp://dbpedia.org/class/yago/CompaniesEstablishedIn1984
p479
aVhttp://dbpedia.org/class/yago/YagoPermanentlyLocatedEntity
p480
aVhttp://dbpedia.org/class/yago/MultinationalCompaniesHeadquarteredInTheUnitedStates
p481
aVhttp://dbpedia.org/class/yago/OilCompaniesOfTheUnitedStates
p482
aVhttp://dbpedia.org/class/yago/YagoLegalActor
p483
aVhttp://dbpedia.org/class/yago/PubliclyTradedCompaniesOfTheUnitedStates
p484
aVhttp://dbpedia.org/resource/Chevron_Corporation
tp485
aa(lp486
((lVhttp://dbpedia.org/resource/Energy
tp487
aa(lp488
aa(lp489
(lp490
((lp491
Vhttp://www.w3.org/2002/07/owl#Thing
p492
aVhttp://dbpedia.org/ontology/Company
p493
aVhttp://www.ontologydesignpatterns.org/ont/dul/DUL.owl#Agent
p494
aVhttp://www.ontologydesignpatterns.org/ont/dul/DUL.owl#SocialPerson
p495
aVhttp://www.wikidata.org/entity/Q43229
p496
aVhttp://dbpedia.org/ontology/Agent
p497
aVhttp://dbpedia.org/ontology/Organisation
p498
aVhttp://schema.org/Organization
p499
aVhttp://umbel.org/umbel/rc/Business
p500
aVhttp://umbel.org/umbel/rc/Organization
p501
aVhttp://dbpedia.org/class/yago/Abstraction100002137
p502
aVhttp://dbpedia.org/class/yago/AutomotiveCompaniesOfTheUnitedStates
p503
aVhttp://dbpedia.org/class/yago/Company108058098
p504
aVhttp://dbpedia.org/class/yago/Group100031264
p505
aVhttp://dbpedia.org/class/yago/Institution108053576
p506
aVhttp://dbpedia.org/class/yago/OilCompany108069241
p507
aVhttp://dbpedia.org/class/yago/Organization108008335
p508
aVhttp://dbpedia.org/class/yago/SocialGroup107950920
p509
aVhttp://dbpedia.org/class/yago/Utility108185758
p510
aVhttp://dbpedia.org/class/yago/YagoLegalActorGeo
p511
aVhttp://dbpedia.org/class/yago/ChemicalCompaniesOfTheUnitedStates
p512
aVhttp://dbpedia.org/class/yago/CompaniesBasedInFairfax,Virginia
p513
aVhttp://dbpedia.org/class/yago/CompaniesBasedInHouston,Texas
p514
aVhttp://dbpedia.org/class/yago/CompaniesBasedInIrving,Texas
p515
aVhttp://dbpedia.org/class/yago/CompaniesEstablishedIn1999
p516
aVhttp://dbpedia.org/class/yago/YagoPermanentlyLocatedEntity
p517
aVhttp://dbpedia.org/class/yago/GasCompany108186655
p518
aVhttp://dbpedia.org/class/yago/MultinationalCompanies
p519
aVhttp://dbpedia.org/class/yago/MultinationalCompaniesHeadquarteredInTheUnitedStates
p520
aVhttp://dbpedia.org/class/yago/NaturalGasCompaniesOfTheUnitedStates
p521
aVhttp://dbpedia.org/class/yago/OilCompaniesOfTheUnitedStates
p522
aVhttp://dbpedia.org/class/yago/YagoLegalActor
p523
aVhttp://dbpedia.org/class/yago/PubliclyTradedCompaniesOfTheUnitedStates
p524
aVhttp://dbpedia.org/class/yago/Service108186047
p525
aVhttp://dbpedia.org/resource/ExxonMobil
tp526
aa(lp527
((lp528
Vhttp://www.w3.org/2002/07/owl#Thing
p529
aVhttp://dbpedia.org/ontology/Company
p530
aVhttp://www.ontologydesignpatterns.org/ont/dul/DUL.owl#Agent
p531
aVhttp://www.ontologydesignpatterns.org/ont/dul/DUL.owl#SocialPerson
p532
aVhttp://www.wikidata.org/entity/Q43229
p533
aVhttp://dbpedia.org/ontology/Agent
p534
aVhttp://dbpedia.org/ontology/Organisation
p535
aVhttp://schema.org/Organization
p536
aVhttp://umbel.org/umbel/rc/Business
p537
aVhttp://umbel.org/umbel/rc/Organization
p538
aVhttp://dbpedia.org/class/yago/Abstraction100002137
p539
aVhttp://dbpedia.org/class/yago/AutomotiveCompaniesOfTheUnitedStates
p540
aVhttp://dbpedia.org/class/yago/Company108058098
p541
aVhttp://dbpedia.org/class/yago/Group100031264
p542
aVhttp://dbpedia.org/class/yago/Institution108053576
p543
aVhttp://dbpedia.org/class/yago/OilCompany108069241
p544
aVhttp://dbpedia.org/class/yago/Organization108008335
p545
aVhttp://dbpedia.org/class/yago/SocialGroup107950920
p546
aVhttp://dbpedia.org/class/yago/Utility108185758
p547
aVhttp://dbpedia.org/class/yago/YagoLegalActorGeo
p548
aVhttp://dbpedia.org/class/yago/ChemicalCompaniesOfTheUnitedStates
p549
aVhttp://dbpedia.org/class/yago/CompaniesBasedInFairfax,Virginia
p550
aVhttp://dbpedia.org/class/yago/CompaniesBasedInHouston,Texas
p551
aVhttp://dbpedia.org/class/yago/CompaniesBasedInIrving,Texas
p552
aVhttp://dbpedia.org/class/yago/CompaniesEstablishedIn1999
p553
aVhttp://dbpedia.org/class/yago/YagoPermanentlyLocatedEntity
p554
aVhttp://dbpedia.org/class/yago/GasCompany108186655
p555
aVhttp://dbpedia.org/class/yago/MultinationalCompanies
p556
aVhttp://dbpedia.org/class/yago/MultinationalCompaniesHeadquarteredInTheUnitedStates
p557
aVhttp://dbpedia.org/class/yago/NaturalGasCompaniesOfTheUnitedStates
p558
aVhttp://dbpedia.org/class/yago/OilCompaniesOfTheUnitedStates
p559
aVhttp://dbpedia.org/class/yago/YagoLegalActor
p560
aVhttp://dbpedia.org/class/yago/PubliclyTradedCompaniesOfTheUnitedStates
p561
aVhttp://dbpedia.org/class/yago/Service108186047
p562
aVhttp://dbpedia.org/resource/ExxonMobil
tp563
aa(lp564
((lVhttp://dbpedia.org/resource/Energy
tp565
aa(lp566
aa(lp567
(lp568
((lp569
Vhttp://dbpedia.org/class/yago/AnomalousX-rayPulsars
p570
aVhttp://dbpedia.org/class/yago/NaturalObject100019128
p571
aVhttp://dbpedia.org/class/yago/Object100002684
p572
aVhttp://dbpedia.org/class/yago/Pulsar109400987
p573
aVhttp://dbpedia.org/class/yago/Star109444100
p574
aVhttp://dbpedia.org/class/yago/Whole100003553
p575
aVhttp://dbpedia.org/class/yago/CelestialBody109239740
p576
aVhttp://dbpedia.org/class/yago/PhysicalEntity100001930
p577
aVhttp://dbpedia.org/class/yago/NeutronStar109369692
p578
aVhttp://dbpedia.org/class/yago/Pulsars
p579
aVhttp://dbpedia.org/class/yago/X-rayPulsars
p580
aVhttp://dbpedia.org/resource/Anomalous_X-ray_pulsar
tp581
aa(lp582
((lp583
Vhttp://www.w3.org/2002/07/owl#Thing
p584
aVhttp://dbpedia.org/ontology/Company
p585
aVhttp://www.ontologydesignpatterns.org/ont/dul/DUL.owl#Agent
p586
aVhttp://www.ontologydesignpatterns.org/ont/dul/DUL.owl#SocialPerson
p587
aVhttp://www.wikidata.org/entity/Q43229
p588
aVhttp://dbpedia.org/ontology/Agent
p589
aVhttp://dbpedia.org/ontology/Bank
p590
aVhttp://dbpedia.org/ontology/Organisation
p591
aVhttp://schema.org/BankOrCreditUnion
p592
aVhttp://schema.org/Organization
p593
aVhttp://umbel.org/umbel/rc/Business
p594
aVhttp://umbel.org/umbel/rc/Organization
p595
aVhttp://dbpedia.org/class/yago/Abstraction100002137
p596
aVhttp://dbpedia.org/class/yago/Association108049401
p597
aVhttp://dbpedia.org/class/yago/BanksBasedInNewYorkCity
p598
aVhttp://dbpedia.org/class/yago/BanksEstablishedIn1850
p599
aVhttp://dbpedia.org/class/yago/Company108058098
p600
aVhttp://dbpedia.org/class/yago/DepositoryFinancialInstitution108420278
p601
aVhttp://dbpedia.org/class/yago/FinancialInstitution108054721
p602
aVhttp://dbpedia.org/class/yago/Group100031264
p603
aVhttp://dbpedia.org/class/yago/Institution108053576
p604
aVhttp://dbpedia.org/class/yago/Organization108008335
p605
aVhttp://dbpedia.org/class/yago/SocialGroup107950920
p606
aVhttp://dbpedia.org/class/yago/YagoLegalActorGeo
p607
aVhttp://dbpedia.org/class/yago/CompaniesBasedInManhattan
p608
aVhttp://dbpedia.org/class/yago/CompaniesEstablishedIn1850
p609
aVhttp://dbpedia.org/class/yago/CreditCardIssuerAssociations
p610
aVhttp://dbpedia.org/class/yago/FinancialServicesCompaniesBasedInNewYorkCity
p611
aVhttp://dbpedia.org/class/yago/ForeignExchangeCompanies
p612
aVhttp://dbpedia.org/class/yago/YagoPermanentlyLocatedEntity
p613
aVhttp://dbpedia.org/class/yago/MultinationalCompaniesBasedInNewYorkCity
p614
aVhttp://dbpedia.org/class/yago/YagoLegalActor
p615
aVhttp://dbpedia.org/class/yago/PubliclyTradedCompaniesBasedInNewYorkCity
p616
aVhttp://dbpedia.org/resource/American_Express
tp617
aa(lp618
((lVhttp://dbpedia.org/resource/Finance
tp619
aa(lp620
aa(lp621
(lp622
((lp623
Vhttp://www.w3.org/2002/07/owl#Thing
p624
aVhttp://dbpedia.org/ontology/Place
p625
aVhttp://dbpedia.org/ontology/Location
p626
aVhttp://www.wikidata.org/entity/Q486972
p627
aVhttp://www.wikidata.org/entity/Q515
p628
aVhttp://dbpedia.org/ontology/City
p629
aVhttp://dbpedia.org/ontology/PopulatedPlace
p630
aVhttp://dbpedia.org/ontology/Settlement
p631
aVhttp://www.w3.org/2003/01/geo/wgs84_pos#SpatialThing
p632
aVhttp://schema.org/City
p633
aVhttp://schema.org/Place
p634
aVhttp://umbel.org/umbel/rc/Location_Underspecified
p635
aVhttp://umbel.org/umbel/rc/PopulatedPlace
p636
aVhttp://umbel.org/umbel/rc/Village
p637
aVhttp://dbpedia.org/class/yago/AdministrativeDistrict108491826
p638
aVhttp://dbpedia.org/class/yago/Area108497294
p639
aVhttp://dbpedia.org/class/yago/Capital108518505
p640
aVhttp://dbpedia.org/class/yago/CapitalsInEurope
p641
aVhttp://dbpedia.org/class/yago/Center108523483
p642
aVhttp://dbpedia.org/class/yago/City108524735
p643
aVhttp://dbpedia.org/class/yago/District108552138
p644
aVhttp://dbpedia.org/class/yago/GeographicPoint108578706
p645
aVhttp://dbpedia.org/class/yago/Location100027167
p646
aVhttp://dbpedia.org/class/yago/Object100002684
p647
aVhttp://dbpedia.org/class/yago/Point108620061
p648
aVhttp://dbpedia.org/class/yago/Port108633957
p649
aVhttp://dbpedia.org/class/yago/Region108630985
p650
aVhttp://dbpedia.org/class/yago/Seat108647945
p651
aVhttp://dbpedia.org/class/yago/Site108651247
p652
aVhttp://dbpedia.org/class/yago/Town108665504
p653
aVhttp://dbpedia.org/class/yago/Tract108673395
p654
aVhttp://dbpedia.org/class/yago/UrbanArea108675967
p655
aVhttp://dbpedia.org/class/yago/YagoGeoEntity
p656
aVhttp://dbpedia.org/class/yago/YagoLegalActorGeo
p657
aVhttp://dbpedia.org/class/yago/CitiesInTheRepublicOfIreland
p658
aVhttp://dbpedia.org/class/yago/CountyTown108547300
p659
aVhttp://dbpedia.org/class/yago/CountyTownsInTheRepublicOfIreland
p660
aVhttp://dbpedia.org/class/yago/EuropeanCapitalsOfCulture
p661
aVhttp://dbpedia.org/class/yago/GeographicalArea108574314
p662
aVhttp://dbpedia.org/class/yago/Municipality108626283
p663
aVhttp://dbpedia.org/class/yago/PhysicalEntity100001930
p664
aVhttp://dbpedia.org/class/yago/YagoPermanentlyLocatedEntity
p665
aVhttp://dbpedia.org/class/yago/PopulatedCoastalPlacesInTheRepublicOfIreland
p666
aVhttp://dbpedia.org/class/yago/StaplePorts
p667
aVhttp://dbpedia.org/class/yago/UniversityTowns
p668
aVhttp://dbpedia.org/class/yago/VikingAgePopulatedPlaces
p669
aVhttp://dbpedia.org/resource/Dublin
tp670
aa(lp671
((lp672
Vhttp://www.w3.org/2002/07/owl#Thing
p673
aVhttp://dbpedia.org/ontology/Company
p674
aVhttp://www.ontologydesignpatterns.org/ont/dul/DUL.owl#Agent
p675
aVhttp://www.ontologydesignpatterns.org/ont/dul/DUL.owl#SocialPerson
p676
aVhttp://www.wikidata.org/entity/Q43229
p677
aVhttp://dbpedia.org/ontology/Agent
p678
aVhttp://dbpedia.org/ontology/Bank
p679
aVhttp://dbpedia.org/ontology/Organisation
p680
aVhttp://schema.org/BankOrCreditUnion
p681
aVhttp://schema.org/Organization
p682
aVhttp://umbel.org/umbel/rc/Business
p683
aVhttp://umbel.org/umbel/rc/Organization
p684
aVhttp://dbpedia.org/class/yago/Abstraction100002137
p685
aVhttp://dbpedia.org/class/yago/BanksBasedInNorthCarolina
p686
aVhttp://dbpedia.org/class/yago/BanksEstablishedIn1998
p687
aVhttp://dbpedia.org/class/yago/Brokerage108069878
p688
aVhttp://dbpedia.org/class/yago/Company108058098
p689
aVhttp://dbpedia.org/class/yago/DepositoryFinancialInstitution108420278
p690
aVhttp://dbpedia.org/class/yago/FinancialInstitution108054721
p691
aVhttp://dbpedia.org/class/yago/Group100031264
p692
aVhttp://dbpedia.org/class/yago/Institution108053576
p693
aVhttp://dbpedia.org/class/yago/NondepositoryFinancialInstitution108419984
p694
aVhttp://dbpedia.org/class/yago/Organization108008335
p695
aVhttp://dbpedia.org/class/yago/SocialGroup107950920
p696
aVhttp://dbpedia.org/class/yago/YagoLegalActorGeo
p697
aVhttp://dbpedia.org/class/yago/CompaniesBasedInCharlotte,NorthCarolina
p698
aVhttp://dbpedia.org/class/yago/FinancialServicesCompaniesOfTheUnitedStates
p699
aVhttp://dbpedia.org/class/yago/YagoPermanentlyLocatedEntity
p700
aVhttp://dbpedia.org/class/yago/MultinationalCompaniesHeadquarteredInTheUnitedStates
p701
aVhttp://dbpedia.org/class/yago/OnlineBrokerages
p702
aVhttp://dbpedia.org/class/yago/YagoLegalActor
p703
aVhttp://dbpedia.org/class/yago/PubliclyTradedCompaniesOfTheUnitedStates
p704
aVhttp://dbpedia.org/resource/Bank_of_America
tp705
aa(lp706
((lVhttp://dbpedia.org/resource/Finance
tp707
aa(lp708
((lp709
Vhttp://www.w3.org/2002/07/owl#Thing
p710
aVhttp://dbpedia.org/resource/Bank
tp711
aaa(lp712
(lp713
((lp714
Vhttp://www.w3.org/2002/07/owl#Thing
p715
aVhttp://www.ontologydesignpatterns.org/ont/dul/DUL.owl#Agent
p716
aVhttp://www.ontologydesignpatterns.org/ont/dul/DUL.owl#SocialPerson
p717
aVhttp://www.wikidata.org/entity/Q215380
p718
aVhttp://www.wikidata.org/entity/Q43229
p719
aVhttp://dbpedia.org/ontology/Agent
p720
aVhttp://dbpedia.org/ontology/Band
p721
aVhttp://dbpedia.org/ontology/Group
p722
aVhttp://dbpedia.org/ontology/Organisation
p723
aVhttp://schema.org/MusicGroup
p724
aVhttp://schema.org/Organization
p725
aVhttp://dbpedia.org/resource/JPM_(band)
tp726
aa(lp727
((lp728
Vhttp://www.w3.org/2002/07/owl#Thing
p729
aVhttp://dbpedia.org/ontology/Company
p730
aVhttp://www.ontologydesignpatterns.org/ont/dul/DUL.owl#Agent
p731
aVhttp://www.ontologydesignpatterns.org/ont/dul/DUL.owl#SocialPerson
p732
aVhttp://www.wikidata.org/entity/Q43229
p733
aVhttp://dbpedia.org/ontology/Agent
p734
aVhttp://dbpedia.org/ontology/Bank
p735
aVhttp://dbpedia.org/ontology/Organisation
p736
aVhttp://schema.org/BankOrCreditUnion
p737
aVhttp://schema.org/Organization
p738
aVhttp://umbel.org/umbel/rc/Business
p739
aVhttp://umbel.org/umbel/rc/Organization
p740
aVhttp://dbpedia.org/class/yago/Abstraction100002137
p741
aVhttp://dbpedia.org/class/yago/BanksBasedInNewYorkCity
p742
aVhttp://dbpedia.org/class/yago/BanksEstablishedIn2000
p743
aVhttp://dbpedia.org/class/yago/Company108058098
p744
aVhttp://dbpedia.org/class/yago/DepositoryFinancialInstitution108420278
p745
aVhttp://dbpedia.org/class/yago/Family108078020
p746
aVhttp://dbpedia.org/class/yago/FinancialInstitution108054721
p747
aVhttp://dbpedia.org/class/yago/Group100031264
p748
aVhttp://dbpedia.org/class/yago/Institution108053576
p749
aVhttp://dbpedia.org/class/yago/Organization108008335
p750
aVhttp://dbpedia.org/class/yago/SocialGroup107950920
p751
aVhttp://dbpedia.org/class/yago/Unit108189659
p752
aVhttp://dbpedia.org/class/yago/YagoLegalActorGeo
p753
aVhttp://dbpedia.org/class/yago/CompaniesBasedInManhattan
p754
aVhttp://dbpedia.org/class/yago/FinancialServicesCompaniesBasedInNewYorkCity
p755
aVhttp://dbpedia.org/class/yago/YagoPermanentlyLocatedEntity
p756
aVhttp://dbpedia.org/class/yago/InvestmentBanks
p757
aVhttp://dbpedia.org/class/yago/MultinationalCompaniesBasedInNewYorkCity
p758
aVhttp://dbpedia.org/class/yago/MutualFundFamilies
p759
aVhttp://dbpedia.org/class/yago/YagoLegalActor
p760
aVhttp://dbpedia.org/class/yago/PubliclyTradedCompaniesBasedInNewYorkCity
p761
aVhttp://dbpedia.org/class/yago/RegisteredBanksOfNewZealand
p762
aVhttp://dbpedia.org/resource/JPMorgan_Chase
tp763
aa(lp764
((lVhttp://dbpedia.org/resource/Finance
tp765
aa(lp766
((lp767
Vhttp://www.w3.org/2002/07/owl#Thing
p768
aVhttp://dbpedia.org/resource/Bank
tp769
aaa(lp770
(lp771
((lp772
Vhttp://dbpedia.org/class/yago/Artifact100021939
p773
aVhttp://dbpedia.org/class/yago/Facility103315023
p774
aVhttp://dbpedia.org/class/yago/Object100002684
p775
aVhttp://dbpedia.org/class/yago/Whole100003553
p776
aVhttp://dbpedia.org/class/yago/YagoGeoEntity
p777
aVhttp://dbpedia.org/class/yago/ElectricalSystem103270579
p778
aVhttp://dbpedia.org/class/yago/ElectricalSystems
p779
aVhttp://dbpedia.org/class/yago/PhysicalEntity100001930
p780
aVhttp://dbpedia.org/class/yago/Utility104516874
p781
aVhttp://dbpedia.org/class/yago/YagoPermanentlyLocatedEntity
p782
aVhttp://dbpedia.org/resource/Transient_recovery_voltage
tp783
aa(lp784
((lp785
Vhttp://www.w3.org/2002/07/owl#Thing
p786
aVhttp://dbpedia.org/ontology/Company
p787
aVhttp://www.ontologydesignpatterns.org/ont/dul/DUL.owl#Agent
p788
aVhttp://www.ontologydesignpatterns.org/ont/dul/DUL.owl#SocialPerson
p789
aVhttp://www.wikidata.org/entity/Q43229
p790
aVhttp://dbpedia.org/ontology/Agent
p791
aVhttp://dbpedia.org/ontology/Organisation
p792
aVhttp://schema.org/Organization
p793
aVhttp://umbel.org/umbel/rc/Business
p794
aVhttp://umbel.org/umbel/rc/Organization
p795
aVhttp://dbpedia.org/class/yago/Abstraction100002137
p796
aVhttp://dbpedia.org/class/yago/Company108058098
p797
aVhttp://dbpedia.org/class/yago/FinancialInstitution108054721
p798
aVhttp://dbpedia.org/class/yago/Group100031264
p799
aVhttp://dbpedia.org/class/yago/Institution108053576
p800
aVhttp://dbpedia.org/class/yago/NondepositoryFinancialInstitution108419984
p801
aVhttp://dbpedia.org/class/yago/Organization108008335
p802
aVhttp://dbpedia.org/class/yago/SocialGroup107950920
p803
aVhttp://dbpedia.org/class/yago/YagoLegalActorGeo
p804
aVhttp://dbpedia.org/class/yago/CompaniesBasedInHartford,Connecticut
p805
aVhttp://dbpedia.org/class/yago/CompaniesBasedInNewYorkCity
p806
aVhttp://dbpedia.org/class/yago/CompaniesBasedInSaintPaul,Minnesota
p807
aVhttp://dbpedia.org/class/yago/CompaniesEstablishedIn1853
p808
aVhttp://dbpedia.org/class/yago/InsuranceCompany108070465
p809
aVhttp://dbpedia.org/class/yago/YagoPermanentlyLocatedEntity
p810
aVhttp://dbpedia.org/class/yago/InsuranceCompaniesOfTheUnitedStates
p811
aVhttp://dbpedia.org/class/yago/YagoLegalActor
p812
aVhttp://dbpedia.org/class/yago/TheTravelersCompanies
p813
aVhttp://dbpedia.org/resource/The_Travelers_Companies
tp814
aa(lp815
((lVhttp://dbpedia.org/resource/Finance
tp816
aa(lp817
aa(lp818
(lp819
((lp820
Vhttp://www.w3.org/2002/07/owl#Thing
p821
aVhttp://dbpedia.org/ontology/Company
p822
aVhttp://www.ontologydesignpatterns.org/ont/dul/DUL.owl#Agent
p823
aVhttp://www.ontologydesignpatterns.org/ont/dul/DUL.owl#SocialPerson
p824
aVhttp://www.wikidata.org/entity/Q43229
p825
aVhttp://dbpedia.org/ontology/Agent
p826
aVhttp://dbpedia.org/ontology/Organisation
p827
aVhttp://schema.org/Organization
p828
aVhttp://umbel.org/umbel/rc/Business
p829
aVhttp://dbpedia.org/class/yago/Abstraction100002137
p830
aVhttp://dbpedia.org/class/yago/Company108058098
p831
aVhttp://dbpedia.org/class/yago/Group100031264
p832
aVhttp://dbpedia.org/class/yago/Institution108053576
p833
aVhttp://dbpedia.org/class/yago/Organization108008335
p834
aVhttp://dbpedia.org/class/yago/SocialGroup107950920
p835
aVhttp://dbpedia.org/class/yago/YagoLegalActorGeo
p836
aVhttp://dbpedia.org/class/yago/CompaniesDisestablishedIn1999
p837
aVhttp://dbpedia.org/class/yago/CompaniesEstablishedIn1979
p838
aVhttp://dbpedia.org/class/yago/FilmProductionCompaniesOfTheUnitedKingdom
p839
aVhttp://dbpedia.org/class/yago/FilmProductionCompaniesOfTheUnitedStates
p840
aVhttp://dbpedia.org/class/yago/YagoPermanentlyLocatedEntity
p841
aVhttp://dbpedia.org/class/yago/YagoLegalActor
p842
aVhttp://dbpedia.org/resource/PolyGram_Filmed_Entertainment
tp843
aa(lp844
((lp845
Vhttp://www.w3.org/2002/07/owl#Thing
p846
aVhttp://dbpedia.org/ontology/Company
p847
aVhttp://www.ontologydesignpatterns.org/ont/dul/DUL.owl#Agent
p848
aVhttp://www.ontologydesignpatterns.org/ont/dul/DUL.owl#SocialPerson
p849
aVhttp://www.wikidata.org/entity/Q43229
p850
aVhttp://dbpedia.org/ontology/Agent
p851
aVhttp://dbpedia.org/ontology/Organisation
p852
aVhttp://schema.org/Organization
p853
aVhttp://umbel.org/umbel/rc/Business
p854
aVhttp://umbel.org/umbel/rc/Organization
p855
aVhttp://dbpedia.org/class/yago/Abstraction100002137
p856
aVhttp://dbpedia.org/class/yago/Company108058098
p857
aVhttp://dbpedia.org/class/yago/Group100031264
p858
aVhttp://dbpedia.org/class/yago/Institution108053576
p859
aVhttp://dbpedia.org/class/yago/Organization108008335
p860
aVhttp://dbpedia.org/class/yago/SocialGroup107950920
p861
aVhttp://dbpedia.org/class/yago/YagoLegalActorGeo
p862
aVhttp://dbpedia.org/class/yago/ClinicalTrialOrganizations
p863
aVhttp://dbpedia.org/class/yago/CompaniesBasedInManhattan
p864
aVhttp://dbpedia.org/class/yago/CompaniesEstablishedIn1849
p865
aVhttp://dbpedia.org/class/yago/DrugCompany108002578
p866
aVhttp://dbpedia.org/class/yago/YagoPermanentlyLocatedEntity
p867
aVhttp://dbpedia.org/class/yago/MultinationalCompaniesBasedInNewYorkCity
p868
aVhttp://dbpedia.org/class/yago/PharmaceuticalCompaniesOfTheUnitedStates
p869
aVhttp://dbpedia.org/class/yago/YagoLegalActor
p870
aVhttp://dbpedia.org/class/yago/PubliclyTradedCompaniesBasedInNewYorkCity
p871
aVhttp://dbpedia.org/resource/Pfizer
tp872
aa(lp873
((lp874
Vhttp://www.w3.org/2002/07/owl#Thing
p875
aVhttp://dbpedia.org/resource/Health_care
tp876
aa(lp877
((lp878
Vhttp://www.w3.org/2002/07/owl#Thing
p879
aVhttp://dbpedia.org/resource/Pharmaceutical_industry
tp880
aaa(lp881
(lp882
((lp883
Vhttp://www.w3.org/2002/07/owl#Thing
p884
aVhttp://dbpedia.org/ontology/Company
p885
aVhttp://www.ontologydesignpatterns.org/ont/dul/DUL.owl#Agent
p886
aVhttp://www.ontologydesignpatterns.org/ont/dul/DUL.owl#SocialPerson
p887
aVhttp://www.wikidata.org/entity/Q43229
p888
aVhttp://dbpedia.org/ontology/Agent
p889
aVhttp://dbpedia.org/ontology/Organisation
p890
aVhttp://schema.org/Organization
p891
aVhttp://umbel.org/umbel/rc/Business
p892
aVhttp://umbel.org/umbel/rc/Organization
p893
aVhttp://dbpedia.org/class/yago/Abstraction100002137
p894
aVhttp://dbpedia.org/class/yago/Company108058098
p895
aVhttp://dbpedia.org/class/yago/Group100031264
p896
aVhttp://dbpedia.org/class/yago/Institution108053576
p897
aVhttp://dbpedia.org/class/yago/Organization108008335
p898
aVhttp://dbpedia.org/class/yago/SocialGroup107950920
p899
aVhttp://dbpedia.org/class/yago/YagoLegalActorGeo
p900
aVhttp://dbpedia.org/class/yago/CompaniesBasedInNewBrunswick,NewJersey
p901
aVhttp://dbpedia.org/class/yago/CompaniesEstablishedIn1887
p902
aVhttp://dbpedia.org/class/yago/DentalCompanies
p903
aVhttp://dbpedia.org/class/yago/DrugCompany108002578
p904
aVhttp://dbpedia.org/class/yago/YagoPermanentlyLocatedEntity
p905
aVhttp://dbpedia.org/class/yago/MultinationalCompaniesHeadquarteredInTheUnitedStates
p906
aVhttp://dbpedia.org/class/yago/PersonalCareCompanies
p907
aVhttp://dbpedia.org/class/yago/PharmaceuticalCompaniesOfTheUnitedStates
p908
aVhttp://dbpedia.org/class/yago/YagoLegalActor
p909
aVhttp://dbpedia.org/class/yago/PubliclyTradedCompaniesOfTheUnitedStates
p910
aVhttp://dbpedia.org/resource/Johnson_&_Johnson
tp911
aa(lp912
a(lp913
((lp914
Vhttp://www.w3.org/2002/07/owl#Thing
p915
aVhttp://dbpedia.org/resource/Health_care
tp916
aa(lp917
((lp918
Vhttp://www.w3.org/2002/07/owl#Thing
p919
aVhttp://dbpedia.org/resource/Pharmaceutical_industry
tp920
aaa(lp921
(lp922
((lp923
Vhttp://www.w3.org/2002/07/owl#Thing
p924
aVhttp://xmlns.com/foaf/0.1/Person
p925
aVhttp://dbpedia.org/ontology/Person
p926
aVhttp://www.ontologydesignpatterns.org/ont/dul/DUL.owl#Agent
p927
aVhttp://www.ontologydesignpatterns.org/ont/dul/DUL.owl#NaturalPerson
p928
aVhttp://www.wikidata.org/entity/Q215627
p929
aVhttp://www.wikidata.org/entity/Q5
p930
aVhttp://dbpedia.org/ontology/Agent
p931
aVhttp://schema.org/Person
p932
aVhttp://dbpedia.org/resource/MRK
tp933
aa(lp934
((lp935
Vhttp://www.w3.org/2002/07/owl#Thing
p936
aVhttp://dbpedia.org/ontology/Company
p937
aVhttp://www.ontologydesignpatterns.org/ont/dul/DUL.owl#Agent
p938
aVhttp://www.ontologydesignpatterns.org/ont/dul/DUL.owl#SocialPerson
p939
aVhttp://www.wikidata.org/entity/Q43229
p940
aVhttp://dbpedia.org/ontology/Agent
p941
aVhttp://dbpedia.org/ontology/Organisation
p942
aVhttp://schema.org/Organization
p943
aVhttp://umbel.org/umbel/rc/Business
p944
aVhttp://dbpedia.org/class/yago/Abstraction100002137
p945
aVhttp://dbpedia.org/class/yago/Company108058098
p946
aVhttp://dbpedia.org/class/yago/Group100031264
p947
aVhttp://dbpedia.org/class/yago/Institution108053576
p948
aVhttp://dbpedia.org/class/yago/Organization108008335
p949
aVhttp://dbpedia.org/class/yago/SocialGroup107950920
p950
aVhttp://dbpedia.org/class/yago/YagoLegalActorGeo
p951
aVhttp://dbpedia.org/class/yago/CompaniesBasedInHesse
p952
aVhttp://dbpedia.org/class/yago/CompaniesEstablishedInThe17thCentury
p953
aVhttp://dbpedia.org/class/yago/DrugCompany108002578
p954
aVhttp://dbpedia.org/class/yago/YagoPermanentlyLocatedEntity
p955
aVhttp://dbpedia.org/class/yago/PharmaceuticalCompaniesOfGermany
p956
aVhttp://dbpedia.org/class/yago/YagoLegalActor
p957
aVhttp://dbpedia.org/resource/Merck_KGaA
tp958
aa(lp959
((lp960
Vhttp://www.w3.org/2002/07/owl#Thing
p961
aVhttp://dbpedia.org/resource/Health_care
tp962
aa(lp963
((lp964
Vhttp://www.w3.org/2002/07/owl#Thing
p965
aVhttp://dbpedia.org/resource/Pharmaceutical_industry
p966
tp967
aaa.