(lp1
(lp2
a(lp3
(dp4
Vstart
p5
I0
sS'classes'
p6
(lp7
Vhttp://www.w3.org/2002/07/owl#Thing
p8
aVhttp://www.ontologydesignpatterns.org/ont/dul/DUL.owl#Agent
p9
aVhttp://www.ontologydesignpatterns.org/ont/dul/DUL.owl#SocialPerson
p10
aVhttp://www.wikidata.org/entity/Q215380
p11
aVhttp://www.wikidata.org/entity/Q43229
p12
aVhttp://dbpedia.org/ontology/Agent
p13
aVhttp://dbpedia.org/ontology/Band
p14
aVhttp://dbpedia.org/ontology/Group
p15
aVhttp://dbpedia.org/ontology/Organisation
p16
aVhttp://schema.org/MusicGroup
p17
aVhttp://schema.org/Organization
p18
aVhttp://umbel.org/umbel/rc/Band_MusicGroup
p19
aVhttp://dbpedia.org/class/yago/Abstraction100002137
p20
aVhttp://dbpedia.org/class/yago/Group100031264
p21
aVhttp://dbpedia.org/class/yago/Hello!ProjectGroups
p22
aVhttp://dbpedia.org/class/yago/JapaneseGirlGroups
p23
aVhttp://dbpedia.org/class/yago/JapaneseIdolGroups
p24
aVhttp://dbpedia.org/class/yago/JapanesePopMusicGroups
p25
asVdisambiguatedURL
p26
Vhttp://dbpedia.org/resource/Aa!
p27
sVnamedEntity
p28
VAA
p29
sVoffset
p30
I2
saa(lp31
(dp32
Vstart
p33
I0
sg6
(lp34
Vhttp://www.w3.org/2002/07/owl#Thing
p35
aVhttp://dbpedia.org/ontology/Company
p36
aVhttp://www.ontologydesignpatterns.org/ont/dul/DUL.owl#Agent
p37
aVhttp://www.ontologydesignpatterns.org/ont/dul/DUL.owl#SocialPerson
p38
aVhttp://www.wikidata.org/entity/Q43229
p39
aVhttp://dbpedia.org/ontology/Agent
p40
aVhttp://dbpedia.org/ontology/Organisation
p41
aVhttp://schema.org/Organization
p42
aVhttp://umbel.org/umbel/rc/Business
p43
aVhttp://umbel.org/umbel/rc/Organization
p44
aVhttp://dbpedia.org/class/yago/Abstraction100002137
p45
aVhttp://dbpedia.org/class/yago/Business108061042
p46
aVhttp://dbpedia.org/class/yago/CarlyleGroupCompanies
p47
aVhttp://dbpedia.org/class/yago/Chain108057816
p48
aVhttp://dbpedia.org/class/yago/Company108058098
p49
aVhttp://dbpedia.org/class/yago/Enterprise108056231
p50
aVhttp://dbpedia.org/class/yago/Group100031264
p51
aVhttp://dbpedia.org/class/yago/Institution108053576
p52
aVhttp://dbpedia.org/class/yago/Organization108008335
p53
aVhttp://dbpedia.org/class/yago/SocialGroup107950920
p54
aVhttp://dbpedia.org/class/yago/YagoLegalActorGeo
p55
aVhttp://dbpedia.org/class/yago/CompaniesBasedInNorfolkCounty,Massachusetts
p56
aVhttp://dbpedia.org/class/yago/Fast-foodChainsOfTheUnitedStates
p57
aVhttp://dbpedia.org/class/yago/RestaurantChain108061801
p58
aVhttp://dbpedia.org/class/yago/YagoPermanentlyLocatedEntity
p59
aVhttp://dbpedia.org/class/yago/YagoLegalActor
p60
aVhttp://dbpedia.org/class/yago/PrivateEquityPortfolioCompanies
p61
aVhttp://dbpedia.org/class/yago/RestaurantChainsInTheUnitedStates
p62
asVdisambiguatedURL
p63
Vhttp://dbpedia.org/resource/Dunkin'_Donuts
p64
sVnamedEntity
p65
VDD
p66
sVoffset
p67
I2
saa(lp68
(dp69
Vstart
p70
I0
sg6
(lp71
Vhttp://www.w3.org/2002/07/owl#Thing
p72
aVhttp://www.ontologydesignpatterns.org/ont/dul/DUL.owl#Agent
p73
aVhttp://www.ontologydesignpatterns.org/ont/dul/DUL.owl#SocialPerson
p74
aVhttp://www.wikidata.org/entity/Q215380
p75
aVhttp://www.wikidata.org/entity/Q43229
p76
aVhttp://dbpedia.org/ontology/Agent
p77
aVhttp://dbpedia.org/ontology/Band
p78
aVhttp://dbpedia.org/ontology/Group
p79
aVhttp://dbpedia.org/ontology/Organisation
p80
aVhttp://schema.org/MusicGroup
p81
aVhttp://schema.org/Organization
p82
aVhttp://umbel.org/umbel/rc/Band_MusicGroup
p83
aVhttp://dbpedia.org/class/yago/Abstraction100002137
p84
aVhttp://dbpedia.org/class/yago/Couple113743605
p85
aVhttp://dbpedia.org/class/yago/DefiniteQuantity113576101
p86
aVhttp://dbpedia.org/class/yago/Digit113741022
p87
aVhttp://dbpedia.org/class/yago/Group100031264
p88
aVhttp://dbpedia.org/class/yago/Number113582013
p89
aVhttp://dbpedia.org/class/yago/ElectronicMusicDuos
p90
aVhttp://dbpedia.org/class/yago/ElectronicMusicGroupsFromCalifornia
p91
aVhttp://dbpedia.org/class/yago/Integer113728499
p92
aVhttp://dbpedia.org/class/yago/Measure100033615
p93
aVhttp://dbpedia.org/class/yago/Two113743269
p94
aVhttp://dbpedia.org/class/yago/StraightEdgeGroups
p95
aVhttp://dbpedia.org/class/yago/SynthpopGroups
p96
asVdisambiguatedURL
p97
Vhttp://dbpedia.org/resource/Blaqk_Audio
p98
sVnamedEntity
p99
VBA
p100
sVoffset
p101
I2
saa(lp102
a(lp103
(dp104
Vstart
p105
I0
sg6
(lp106
Vhttp://www.w3.org/2002/07/owl#Thing
p107
aVhttp://dbpedia.org/ontology/Company
p108
aVhttp://www.ontologydesignpatterns.org/ont/dul/DUL.owl#Agent
p109
aVhttp://www.ontologydesignpatterns.org/ont/dul/DUL.owl#SocialPerson
p110
aVhttp://www.wikidata.org/entity/Q43229
p111
aVhttp://dbpedia.org/ontology/Agent
p112
aVhttp://dbpedia.org/ontology/Organisation
p113
aVhttp://schema.org/Organization
p114
aVhttp://umbel.org/umbel/rc/Business
p115
aVhttp://umbel.org/umbel/rc/Organization
p116
aVhttp://dbpedia.org/class/yago/Abstraction100002137
p117
aVhttp://dbpedia.org/class/yago/Business108061042
p118
aVhttp://dbpedia.org/class/yago/Company108058098
p119
aVhttp://dbpedia.org/class/yago/Enterprise108056231
p120
aVhttp://dbpedia.org/class/yago/Group100031264
p121
aVhttp://dbpedia.org/class/yago/Institution108053576
p122
aVhttp://dbpedia.org/class/yago/Manufacturer108060446
p123
aVhttp://dbpedia.org/class/yago/Organization108008335
p124
aVhttp://dbpedia.org/class/yago/SocialGroup107950920
p125
aVhttp://dbpedia.org/class/yago/YagoLegalActorGeo
p126
aVhttp://dbpedia.org/class/yago/CompaniesBasedInFairfieldCounty,Connecticut
p127
aVhttp://dbpedia.org/class/yago/CompaniesEstablishedIn1892
p128
aVhttp://dbpedia.org/class/yago/CompaniesListedOnTheNewYorkStockExchange
p129
aVhttp://dbpedia.org/class/yago/ConglomerateCompanies
p130
aVhttp://dbpedia.org/class/yago/YagoPermanentlyLocatedEntity
p131
aVhttp://dbpedia.org/class/yago/GISCompanies
p132
aVhttp://dbpedia.org/class/yago/MarineEngineManufacturers
p133
aVhttp://dbpedia.org/class/yago/MedicalEquipmentManufacturers
p134
aVhttp://dbpedia.org/class/yago/PhotographyCompaniesOfTheUnitedStates
p135
aVhttp://dbpedia.org/class/yago/YagoLegalActor
p136
asVdisambiguatedURL
p137
Vhttp://dbpedia.org/resource/General_Electric
p138
sVnamedEntity
p139
VGE
p140
sVoffset
p141
I2
saa(lp142
(dp143
Vstart
p144
I0
sg6
(lp145
Vhttp://www.w3.org/2002/07/owl#Thing
p146
aVhttp://www.ontologydesignpatterns.org/ont/dul/DUL.owl#Agent
p147
aVhttp://www.ontologydesignpatterns.org/ont/dul/DUL.owl#SocialPerson
p148
aVhttp://www.wikidata.org/entity/Q15265344
p149
aVhttp://www.wikidata.org/entity/Q43229
p150
aVhttp://dbpedia.org/ontology/Agent
p151
aVhttp://dbpedia.org/ontology/Broadcaster
p152
aVhttp://dbpedia.org/ontology/Organisation
p153
aVhttp://dbpedia.org/ontology/TelevisionStation
p154
aVhttp://schema.org/Organization
p155
aVhttp://schema.org/TelevisionStation
p156
asVdisambiguatedURL
p157
Vhttp://dbpedia.org/resource/M3_(Canadian_TV_channel)
p158
sVnamedEntity
p159
VMMM
p160
sVoffset
p161
I3
saa(lp162
a(lp163
a(lp164
(dp165
Vstart
p166
I0
sg6
(lp167
Vhttp://www.w3.org/2002/07/owl#Thing
p168
aVhttp://dbpedia.org/ontology/Company
p169
aVhttp://www.ontologydesignpatterns.org/ont/dul/DUL.owl#Agent
p170
aVhttp://www.ontologydesignpatterns.org/ont/dul/DUL.owl#SocialPerson
p171
aVhttp://www.wikidata.org/entity/Q43229
p172
aVhttp://dbpedia.org/ontology/Agent
p173
aVhttp://dbpedia.org/ontology/Organisation
p174
aVhttp://schema.org/Organization
p175
aVhttp://umbel.org/umbel/rc/Business
p176
aVhttp://umbel.org/umbel/rc/Organization
p177
aVhttp://dbpedia.org/class/yago/Abstraction100002137
p178
aVhttp://dbpedia.org/class/yago/Company108058098
p179
aVhttp://dbpedia.org/class/yago/Group100031264
p180
aVhttp://dbpedia.org/class/yago/Institution108053576
p181
aVhttp://dbpedia.org/class/yago/Organization108008335
p182
aVhttp://dbpedia.org/class/yago/SocialGroup107950920
p183
aVhttp://dbpedia.org/class/yago/YagoLegalActorGeo
p184
aVhttp://dbpedia.org/class/yago/CompaniesBasedInCookCounty,Illinois
p185
aVhttp://dbpedia.org/class/yago/CompaniesEstablishedIn1903
p186
aVhttp://dbpedia.org/class/yago/FoodCompany108003427
p187
aVhttp://dbpedia.org/class/yago/FoodProductionCompaniesOfTheUnitedStates
p188
aVhttp://dbpedia.org/class/yago/YagoPermanentlyLocatedEntity
p189
aVhttp://dbpedia.org/class/yago/MultinationalDairyCompanies
p190
aVhttp://dbpedia.org/class/yago/MultinationalFoodCompanies
p191
aVhttp://dbpedia.org/class/yago/YagoLegalActor
p192
asVdisambiguatedURL
p193
Vhttp://dbpedia.org/resource/Kraft_Foods
p194
sVnamedEntity
p195
VKFT
p196
sVoffset
p197
I3
saa(lp198
(dp199
Vstart
p200
I0
sg6
(lp201
Vhttp://www.w3.org/2002/07/owl#Thing
p202
aVhttp://dbpedia.org/ontology/Company
p203
aVhttp://www.ontologydesignpatterns.org/ont/dul/DUL.owl#Agent
p204
aVhttp://www.ontologydesignpatterns.org/ont/dul/DUL.owl#SocialPerson
p205
aVhttp://www.wikidata.org/entity/Q43229
p206
aVhttp://dbpedia.org/ontology/Agent
p207
aVhttp://dbpedia.org/ontology/Organisation
p208
aVhttp://schema.org/Organization
p209
aVhttp://umbel.org/umbel/rc/Business
p210
aVhttp://umbel.org/umbel/rc/Organization
p211
aVhttp://dbpedia.org/class/yago/Abstraction100002137
p212
aVhttp://dbpedia.org/class/yago/Company108058098
p213
aVhttp://dbpedia.org/class/yago/Group100031264
p214
aVhttp://dbpedia.org/class/yago/Institution108053576
p215
aVhttp://dbpedia.org/class/yago/Organization108008335
p216
aVhttp://dbpedia.org/class/yago/SocialGroup107950920
p217
aVhttp://dbpedia.org/class/yago/YagoLegalActorGeo
p218
aVhttp://dbpedia.org/class/yago/CompaniesBasedInCincinnati,Ohio
p219
aVhttp://dbpedia.org/class/yago/CompaniesBasedInGeneva
p220
aVhttp://dbpedia.org/class/yago/CompaniesEstablishedIn1837
p221
aVhttp://dbpedia.org/class/yago/DentalCompanies
p222
aVhttp://dbpedia.org/class/yago/DrugCompany108002578
p223
aVhttp://dbpedia.org/class/yago/YagoPermanentlyLocatedEntity
p224
aVhttp://dbpedia.org/class/yago/ManufacturingCompaniesBasedInOhio
p225
aVhttp://dbpedia.org/class/yago/PharmaceuticalCompaniesOfTheUnitedStates
p226
aVhttp://dbpedia.org/class/yago/YagoLegalActor
p227
asVdisambiguatedURL
p228
Vhttp://dbpedia.org/resource/Procter_&_Gamble
p229
sVnamedEntity
p230
VPG
p231
sVoffset
p232
I2
saa(lp233
a(lp234
(dp235
Vstart
p236
I0
sg6
(lp237
Vhttp://www.w3.org/2002/07/owl#Thing
p238
aVhttp://dbpedia.org/ontology/Company
p239
aVhttp://www.ontologydesignpatterns.org/ont/dul/DUL.owl#Agent
p240
aVhttp://www.ontologydesignpatterns.org/ont/dul/DUL.owl#SocialPerson
p241
aVhttp://www.wikidata.org/entity/Q43229
p242
aVhttp://dbpedia.org/ontology/Agent
p243
aVhttp://dbpedia.org/ontology/Organisation
p244
aVhttp://schema.org/Organization
p245
aVhttp://umbel.org/umbel/rc/Business
p246
aVhttp://umbel.org/umbel/rc/Organization
p247
aVhttp://dbpedia.org/class/yago/Abstraction100002137
p248
aVhttp://dbpedia.org/class/yago/AutomotiveCompaniesOfTheUnitedStates
p249
aVhttp://dbpedia.org/class/yago/Company108058098
p250
aVhttp://dbpedia.org/class/yago/Group100031264
p251
aVhttp://dbpedia.org/class/yago/Institution108053576
p252
aVhttp://dbpedia.org/class/yago/OilCompany108069241
p253
aVhttp://dbpedia.org/class/yago/Organization108008335
p254
aVhttp://dbpedia.org/class/yago/SocialGroup107950920
p255
aVhttp://dbpedia.org/class/yago/Utility108185758
p256
aVhttp://dbpedia.org/class/yago/YagoLegalActorGeo
p257
aVhttp://dbpedia.org/class/yago/ChemicalCompaniesOfTheUnitedStates
p258
aVhttp://dbpedia.org/class/yago/CompaniesBasedInFairfax,Virginia
p259
aVhttp://dbpedia.org/class/yago/CompaniesBasedInHouston,Texas
p260
aVhttp://dbpedia.org/class/yago/CompaniesBasedInIrving,Texas
p261
aVhttp://dbpedia.org/class/yago/CompaniesEstablishedIn1999
p262
aVhttp://dbpedia.org/class/yago/YagoPermanentlyLocatedEntity
p263
aVhttp://dbpedia.org/class/yago/GasCompany108186655
p264
aVhttp://dbpedia.org/class/yago/MultinationalCompanies
p265
aVhttp://dbpedia.org/class/yago/MultinationalCompaniesHeadquarteredInTheUnitedStates
p266
aVhttp://dbpedia.org/class/yago/NaturalGasCompaniesOfTheUnitedStates
p267
aVhttp://dbpedia.org/class/yago/OilCompaniesOfTheUnitedStates
p268
aVhttp://dbpedia.org/class/yago/YagoLegalActor
p269
aVhttp://dbpedia.org/class/yago/PubliclyTradedCompaniesOfTheUnitedStates
p270
aVhttp://dbpedia.org/class/yago/Service108186047
p271
asVdisambiguatedURL
p272
Vhttp://dbpedia.org/resource/ExxonMobil
p273
sVnamedEntity
p274
VXOM
p275
sVoffset
p276
I3
saa(lp277
a(lp278
(dp279
Vstart
p280
I0
sg6
(lp281
Vhttp://www.w3.org/2002/07/owl#Thing
p282
aVhttp://dbpedia.org/ontology/Place
p283
aVhttp://dbpedia.org/ontology/Location
p284
aVhttp://www.wikidata.org/entity/Q486972
p285
aVhttp://www.wikidata.org/entity/Q515
p286
aVhttp://dbpedia.org/ontology/City
p287
aVhttp://dbpedia.org/ontology/PopulatedPlace
p288
aVhttp://dbpedia.org/ontology/Settlement
p289
aVhttp://www.w3.org/2003/01/geo/wgs84_pos#SpatialThing
p290
aVhttp://schema.org/City
p291
aVhttp://schema.org/Place
p292
aVhttp://umbel.org/umbel/rc/Location_Underspecified
p293
aVhttp://umbel.org/umbel/rc/PopulatedPlace
p294
aVhttp://umbel.org/umbel/rc/Village
p295
aVhttp://dbpedia.org/class/yago/AdministrativeDistrict108491826
p296
aVhttp://dbpedia.org/class/yago/Area108497294
p297
aVhttp://dbpedia.org/class/yago/Capital108518505
p298
aVhttp://dbpedia.org/class/yago/CapitalsInEurope
p299
aVhttp://dbpedia.org/class/yago/Center108523483
p300
aVhttp://dbpedia.org/class/yago/City108524735
p301
aVhttp://dbpedia.org/class/yago/District108552138
p302
aVhttp://dbpedia.org/class/yago/GeographicPoint108578706
p303
aVhttp://dbpedia.org/class/yago/Location100027167
p304
aVhttp://dbpedia.org/class/yago/Object100002684
p305
aVhttp://dbpedia.org/class/yago/Point108620061
p306
aVhttp://dbpedia.org/class/yago/Port108633957
p307
aVhttp://dbpedia.org/class/yago/Region108630985
p308
aVhttp://dbpedia.org/class/yago/Seat108647945
p309
aVhttp://dbpedia.org/class/yago/Site108651247
p310
aVhttp://dbpedia.org/class/yago/Town108665504
p311
aVhttp://dbpedia.org/class/yago/Tract108673395
p312
aVhttp://dbpedia.org/class/yago/UrbanArea108675967
p313
aVhttp://dbpedia.org/class/yago/YagoGeoEntity
p314
aVhttp://dbpedia.org/class/yago/YagoLegalActorGeo
p315
aVhttp://dbpedia.org/class/yago/CitiesInTheRepublicOfIreland
p316
aVhttp://dbpedia.org/class/yago/CountyTown108547300
p317
aVhttp://dbpedia.org/class/yago/CountyTownsInTheRepublicOfIreland
p318
aVhttp://dbpedia.org/class/yago/EuropeanCapitalsOfCulture
p319
aVhttp://dbpedia.org/class/yago/GeographicalArea108574314
p320
aVhttp://dbpedia.org/class/yago/Municipality108626283
p321
aVhttp://dbpedia.org/class/yago/PhysicalEntity100001930
p322
aVhttp://dbpedia.org/class/yago/YagoPermanentlyLocatedEntity
p323
aVhttp://dbpedia.org/class/yago/PopulatedCoastalPlacesInTheRepublicOfIreland
p324
aVhttp://dbpedia.org/class/yago/StaplePorts
p325
aVhttp://dbpedia.org/class/yago/UniversityTowns
p326
aVhttp://dbpedia.org/class/yago/VikingAgePopulatedPlaces
p327
asVdisambiguatedURL
p328
Vhttp://dbpedia.org/resource/Dublin
p329
sVnamedEntity
p330
VBAC
p331
sVoffset
p332
I3
saa(lp333
(dp334
Vstart
p335
I0
sg6
(lp336
Vhttp://www.w3.org/2002/07/owl#Thing
p337
aVhttp://www.ontologydesignpatterns.org/ont/dul/DUL.owl#Agent
p338
aVhttp://www.ontologydesignpatterns.org/ont/dul/DUL.owl#SocialPerson
p339
aVhttp://www.wikidata.org/entity/Q215380
p340
aVhttp://www.wikidata.org/entity/Q43229
p341
aVhttp://dbpedia.org/ontology/Agent
p342
aVhttp://dbpedia.org/ontology/Band
p343
aVhttp://dbpedia.org/ontology/Group
p344
aVhttp://dbpedia.org/ontology/Organisation
p345
aVhttp://schema.org/MusicGroup
p346
aVhttp://schema.org/Organization
p347
asVdisambiguatedURL
p348
Vhttp://dbpedia.org/resource/JPM_(band)
p349
sVnamedEntity
p350
VJPM
p351
sVoffset
p352
I3
saa(lp353
a(lp354
(dp355
Vstart
p356
I0
sg6
(lp357
Vhttp://www.w3.org/2002/07/owl#Thing
p358
aVhttp://dbpedia.org/ontology/Company
p359
aVhttp://www.ontologydesignpatterns.org/ont/dul/DUL.owl#Agent
p360
aVhttp://www.ontologydesignpatterns.org/ont/dul/DUL.owl#SocialPerson
p361
aVhttp://www.wikidata.org/entity/Q43229
p362
aVhttp://dbpedia.org/ontology/Agent
p363
aVhttp://dbpedia.org/ontology/Organisation
p364
aVhttp://schema.org/Organization
p365
aVhttp://umbel.org/umbel/rc/Business
p366
aVhttp://dbpedia.org/class/yago/Abstraction100002137
p367
aVhttp://dbpedia.org/class/yago/Company108058098
p368
aVhttp://dbpedia.org/class/yago/Group100031264
p369
aVhttp://dbpedia.org/class/yago/Institution108053576
p370
aVhttp://dbpedia.org/class/yago/Organization108008335
p371
aVhttp://dbpedia.org/class/yago/SocialGroup107950920
p372
aVhttp://dbpedia.org/class/yago/YagoLegalActorGeo
p373
aVhttp://dbpedia.org/class/yago/CompaniesDisestablishedIn1999
p374
aVhttp://dbpedia.org/class/yago/CompaniesEstablishedIn1979
p375
aVhttp://dbpedia.org/class/yago/FilmProductionCompaniesOfTheUnitedKingdom
p376
aVhttp://dbpedia.org/class/yago/FilmProductionCompaniesOfTheUnitedStates
p377
aVhttp://dbpedia.org/class/yago/YagoPermanentlyLocatedEntity
p378
aVhttp://dbpedia.org/class/yago/YagoLegalActor
p379
asVdisambiguatedURL
p380
Vhttp://dbpedia.org/resource/PolyGram_Filmed_Entertainment
p381
sVnamedEntity
p382
VPFE
p383
sVoffset
p384
I3
saa(lp385
(dp386
Vstart
p387
I0
sg6
(lp388
Vhttp://www.w3.org/2002/07/owl#Thing
p389
aVhttp://dbpedia.org/ontology/Company
p390
aVhttp://www.ontologydesignpatterns.org/ont/dul/DUL.owl#Agent
p391
aVhttp://www.ontologydesignpatterns.org/ont/dul/DUL.owl#SocialPerson
p392
aVhttp://www.wikidata.org/entity/Q43229
p393
aVhttp://dbpedia.org/ontology/Agent
p394
aVhttp://dbpedia.org/ontology/Organisation
p395
aVhttp://schema.org/Organization
p396
aVhttp://umbel.org/umbel/rc/Business
p397
aVhttp://umbel.org/umbel/rc/Organization
p398
aVhttp://dbpedia.org/class/yago/Abstraction100002137
p399
aVhttp://dbpedia.org/class/yago/Company108058098
p400
aVhttp://dbpedia.org/class/yago/Group100031264
p401
aVhttp://dbpedia.org/class/yago/Institution108053576
p402
aVhttp://dbpedia.org/class/yago/Organization108008335
p403
aVhttp://dbpedia.org/class/yago/SocialGroup107950920
p404
aVhttp://dbpedia.org/class/yago/YagoLegalActorGeo
p405
aVhttp://dbpedia.org/class/yago/CompaniesBasedInNewBrunswick,NewJersey
p406
aVhttp://dbpedia.org/class/yago/CompaniesEstablishedIn1887
p407
aVhttp://dbpedia.org/class/yago/DentalCompanies
p408
aVhttp://dbpedia.org/class/yago/DrugCompany108002578
p409
aVhttp://dbpedia.org/class/yago/YagoPermanentlyLocatedEntity
p410
aVhttp://dbpedia.org/class/yago/MultinationalCompaniesHeadquarteredInTheUnitedStates
p411
aVhttp://dbpedia.org/class/yago/PersonalCareCompanies
p412
aVhttp://dbpedia.org/class/yago/PharmaceuticalCompaniesOfTheUnitedStates
p413
aVhttp://dbpedia.org/class/yago/YagoLegalActor
p414
aVhttp://dbpedia.org/class/yago/PubliclyTradedCompaniesOfTheUnitedStates
p415
asVdisambiguatedURL
p416
Vhttp://dbpedia.org/resource/Johnson_&_Johnson
p417
sVnamedEntity
p418
VJNJ
p419
sVoffset
p420
I3
saa(lp421
(dp422
Vstart
p423
I0
sg6
(lp424
Vhttp://www.w3.org/2002/07/owl#Thing
p425
aVhttp://xmlns.com/foaf/0.1/Person
p426
aVhttp://dbpedia.org/ontology/Person
p427
aVhttp://www.ontologydesignpatterns.org/ont/dul/DUL.owl#Agent
p428
aVhttp://www.ontologydesignpatterns.org/ont/dul/DUL.owl#NaturalPerson
p429
aVhttp://www.wikidata.org/entity/Q215627
p430
aVhttp://www.wikidata.org/entity/Q5
p431
aVhttp://dbpedia.org/ontology/Agent
p432
aVhttp://schema.org/Person
p433
asVdisambiguatedURL
p434
Vhttp://dbpedia.org/resource/MRK
p435
sVnamedEntity
p436
VMRK
p437
sVoffset
p438
I3
saa.