(lp1
(lp2
(lp3
Vhttp://dbpedia.org/resource/Steve_Moore_(musician)
p4
aa(lp5
aa(lp6
(lp7
Vhttp://dbpedia.org/resource/Executive_producer
p8
aa(lp9
aa(lp10
(lp11
Vhttp://dbpedia.org/resource/Cinematographer
p12
aa(lp13
aa(lp14
(lp15
a(lp16
aa(lp17
(lp18
Vhttp://dbpedia.org/resource/R._T._Smith
p19
aa(lp20
aa(lp21
(lp22
Vhttp://dbpedia.org/resource/Sound_design
p23
aa(lp24
aa(lp25
(lp26
a(lp27
Vhttp://dbpedia.org/resource/Amy_Goodman
p28
aaa(lp29
(lp30
a(lp31
aa.