(lp1
(lp2
(dp3
Vstart
p4
I0
sS'classes'
p5
(lp6
Vhttp://www.w3.org/2002/07/owl#Thing
p7
aVhttp://xmlns.com/foaf/0.1/Person
p8
aVhttp://dbpedia.org/ontology/Person
p9
aVhttp://www.ontologydesignpatterns.org/ont/dul/DUL.owl#Agent
p10
aVhttp://www.ontologydesignpatterns.org/ont/dul/DUL.owl#NaturalPerson
p11
aVhttp://www.wikidata.org/entity/Q215627
p12
aVhttp://www.wikidata.org/entity/Q483501
p13
aVhttp://www.wikidata.org/entity/Q5
p14
aVhttp://dbpedia.org/ontology/Agent
p15
aVhttp://dbpedia.org/ontology/Artist
p16
aVhttp://dbpedia.org/ontology/MusicalArtist
p17
aVhttp://schema.org/MusicGroup
p18
aVhttp://schema.org/Person
p19
asVdisambiguatedURL
p20
Vhttp://dbpedia.org/resource/Steve_Moore_(musician)
p21
sVnamedEntity
p22
Vproducer
p23
sVoffset
p24
I8
saa(lp25
(dp26
Vstart
p27
I0
sg5
(lp28
Vhttp://www.w3.org/2002/07/owl#Thing
p29
aVhttp://dbpedia.org/class/yago/Abstraction100002137
p30
aVhttp://dbpedia.org/class/yago/Act100030358
p31
aVhttp://dbpedia.org/class/yago/Activity100407535
p32
aVhttp://dbpedia.org/class/yago/BroadcastingOccupations
p33
aVhttp://dbpedia.org/class/yago/Event100029378
p34
aVhttp://dbpedia.org/class/yago/Occupation100582388
p35
aVhttp://dbpedia.org/class/yago/EntertainmentOccupations
p36
aVhttp://dbpedia.org/class/yago/PsychologicalFeature100023100
p37
aVhttp://dbpedia.org/class/yago/YagoPermanentlyLocatedEntity
p38
aVhttp://dbpedia.org/class/yago/MediaOccupations
p39
asVdisambiguatedURL
p40
Vhttp://dbpedia.org/resource/Executive_producer
p41
sVnamedEntity
p42
Vexecutive producer
p43
sVoffset
p44
I18
saa(lp45
a(lp46
a(lp47
(dp48
Vstart
p49
I0
sg5
(lp50
Vhttp://www.w3.org/2002/07/owl#Thing
p51
aVhttp://xmlns.com/foaf/0.1/Person
p52
aVhttp://dbpedia.org/ontology/Person
p53
aVhttp://www.ontologydesignpatterns.org/ont/dul/DUL.owl#Agent
p54
aVhttp://www.ontologydesignpatterns.org/ont/dul/DUL.owl#NaturalPerson
p55
aVhttp://www.wikidata.org/entity/Q215627
p56
aVhttp://www.wikidata.org/entity/Q5
p57
aVhttp://dbpedia.org/ontology/Agent
p58
aVhttp://schema.org/Person
p59
aVhttp://dbpedia.org/class/yago/Alumnus109786338
p60
aVhttp://dbpedia.org/class/yago/AmericanPoets
p61
aVhttp://dbpedia.org/class/yago/AppalachianStateUniversityAlumni
p62
aVhttp://dbpedia.org/class/yago/CausalAgent100007347
p63
aVhttp://dbpedia.org/class/yago/Communicator109610660
p64
aVhttp://dbpedia.org/class/yago/Intellectual109621545
p65
aVhttp://dbpedia.org/class/yago/LivingThing100004258
p66
aVhttp://dbpedia.org/class/yago/Object100002684
p67
aVhttp://dbpedia.org/class/yago/Organism100004475
p68
aVhttp://dbpedia.org/class/yago/Person100007846
p69
aVhttp://dbpedia.org/class/yago/Poet110444194
p70
aVhttp://dbpedia.org/class/yago/Scholar110557854
p71
aVhttp://dbpedia.org/class/yago/Whole100003553
p72
aVhttp://dbpedia.org/class/yago/Writer110794014
p73
aVhttp://dbpedia.org/class/yago/YagoLegalActorGeo
p74
aVhttp://dbpedia.org/class/yago/PhysicalEntity100001930
p75
aVhttp://dbpedia.org/class/yago/LivingPeople
p76
aVhttp://dbpedia.org/class/yago/YagoLegalActor
p77
asVdisambiguatedURL
p78
Vhttp://dbpedia.org/resource/R._T._Smith
p79
sVnamedEntity
p80
Veditor
p81
sVoffset
p82
I6
saa(lp83
(dp84
Vstart
p85
I0
sg5
(lp86
Vhttp://www.w3.org/2002/07/owl#Thing
p87
aVhttp://dbpedia.org/class/yago/Abstraction100002137
p88
aVhttp://dbpedia.org/class/yago/Body107965085
p89
aVhttp://dbpedia.org/class/yago/Group100031264
p90
aVhttp://dbpedia.org/class/yago/Profession108112096
p91
aVhttp://dbpedia.org/class/yago/SocialGroup107950920
p92
aVhttp://dbpedia.org/class/yago/OccupationalGroup108403631
p93
aVhttp://dbpedia.org/class/yago/TheatricalProfessions
p94
asVdisambiguatedURL
p95
Vhttp://dbpedia.org/resource/Sound_design
p96
sVnamedEntity
p97
Vsound design
p98
sVoffset
p99
I12
saa(lp100
a(lp101
a.