(lp1
(lp2
(lp3
((lp4
Vhttp://www.w3.org/2002/07/owl#Thing
p5
aVhttp://dbpedia.org/ontology/Place
p6
aVhttp://dbpedia.org/ontology/Location
p7
aVhttp://www.wikidata.org/entity/Q486972
p8
aVhttp://www.wikidata.org/entity/Q6256
p9
aVhttp://dbpedia.org/ontology/Country
p10
aVhttp://dbpedia.org/ontology/PopulatedPlace
p11
aVhttp://www.w3.org/2003/01/geo/wgs84_pos#SpatialThing
p12
aVhttp://schema.org/Country
p13
aVhttp://schema.org/Place
p14
aVhttp://umbel.org/umbel/rc/Country
p15
aVhttp://umbel.org/umbel/rc/Location_Underspecified
p16
aVhttp://umbel.org/umbel/rc/PopulatedPlace
p17
aVhttp://dbpedia.org/class/yago/Abstraction100002137
p18
aVhttp://dbpedia.org/class/yago/AdministrativeDistrict108491826
p19
aVhttp://dbpedia.org/class/yago/BicontinentalCountries
p20
aVhttp://dbpedia.org/class/yago/Country108544813
p21
aVhttp://dbpedia.org/class/yago/District108552138
p22
aVhttp://dbpedia.org/class/yago/Economy108366753
p23
aVhttp://dbpedia.org/class/yago/Group100031264
p24
aVhttp://dbpedia.org/class/yago/Location100027167
p25
aVhttp://dbpedia.org/class/yago/Object100002684
p26
aVhttp://dbpedia.org/class/yago/Region108630985
p27
aVhttp://dbpedia.org/class/yago/System108435388
p28
aVhttp://dbpedia.org/class/yago/YagoGeoEntity
p29
aVhttp://dbpedia.org/class/yago/YagoLegalActorGeo
p30
aVhttp://dbpedia.org/class/yago/CountriesBorderingTheArcticOcean
p31
aVhttp://dbpedia.org/class/yago/CountriesBorderingTheAtlanticOcean
p32
aVhttp://dbpedia.org/class/yago/CountriesBorderingThePacificOcean
p33
aVhttp://dbpedia.org/class/yago/English-speakingCountriesAndTerritories
p34
aVhttp://dbpedia.org/class/yago/FederalCountries
p35
aVhttp://dbpedia.org/class/yago/PhysicalEntity100001930
p36
aVhttp://dbpedia.org/class/yago/YagoPermanentlyLocatedEntity
p37
aVhttp://dbpedia.org/class/yago/MemberStatesOfNATO
p38
aVhttp://dbpedia.org/class/yago/MemberStatesOfTheUnitedNations
p39
aVhttp://dbpedia.org/class/yago/NorthernAmericanCountries
p40
aVhttp://dbpedia.org/class/yago/StatesAndTerritoriesEstablishedIn1776
p41
aVhttp://dbpedia.org/class/yago/UnitedStates
p42
aVhttp://dbpedia.org/resource/United_States
tp43
aa(lp44
a(lp45
a(lp46
aa(lp47
(lp48
a(lp49
a(lp50
a(lp51
aa(lp52
(lp53
((lp54
Vhttp://www.w3.org/2002/07/owl#Thing
p55
aVhttp://dbpedia.org/ontology/Place
p56
aVhttp://dbpedia.org/ontology/Location
p57
aVhttp://www.wikidata.org/entity/Q23442
p58
aVhttp://www.wikidata.org/entity/Q486972
p59
aVhttp://dbpedia.org/ontology/Island
p60
aVhttp://dbpedia.org/ontology/PopulatedPlace
p61
aVhttp://schema.org/Place
p62
aVhttp://umbel.org/umbel/rc/Island
p63
aVhttp://umbel.org/umbel/rc/Location_Underspecified
p64
aVhttp://umbel.org/umbel/rc/PopulatedPlace
p65
aVhttp://dbpedia.org/class/yago/Island109316454
p66
aVhttp://dbpedia.org/class/yago/Land109334396
p67
aVhttp://dbpedia.org/class/yago/Object100002684
p68
aVhttp://dbpedia.org/class/yago/YagoGeoEntity
p69
aVhttp://dbpedia.org/class/yago/PhysicalEntity100001930
p70
aVhttp://dbpedia.org/class/yago/YagoPermanentlyLocatedEntity
p71
aVhttp://dbpedia.org/class/yago/IslandsOfTheBritishIsles
p72
aVhttp://dbpedia.org/resource/Great_Britain
tp73
aa(lp74
a(lp75
a(lp76
aa(lp77
(lp78
((lp79
Vhttp://www.w3.org/2002/07/owl#Thing
p80
aVhttp://dbpedia.org/ontology/Place
p81
aVhttp://dbpedia.org/ontology/Location
p82
aVhttp://www.wikidata.org/entity/Q486972
p83
aVhttp://www.wikidata.org/entity/Q6256
p84
aVhttp://dbpedia.org/ontology/Country
p85
aVhttp://dbpedia.org/ontology/PopulatedPlace
p86
aVhttp://www.w3.org/2003/01/geo/wgs84_pos#SpatialThing
p87
aVhttp://schema.org/Country
p88
aVhttp://schema.org/Place
p89
aVhttp://umbel.org/umbel/rc/Country
p90
aVhttp://umbel.org/umbel/rc/Location_Underspecified
p91
aVhttp://umbel.org/umbel/rc/PopulatedPlace
p92
aVhttp://dbpedia.org/class/yago/Abstraction100002137
p93
aVhttp://dbpedia.org/class/yago/AdministrativeDistrict108491826
p94
aVhttp://dbpedia.org/class/yago/AlpineCountries
p95
aVhttp://dbpedia.org/class/yago/Country108544813
p96
aVhttp://dbpedia.org/class/yago/District108552138
p97
aVhttp://dbpedia.org/class/yago/Economy108366753
p98
aVhttp://dbpedia.org/class/yago/Group100031264
p99
aVhttp://dbpedia.org/class/yago/Location100027167
p100
aVhttp://dbpedia.org/class/yago/Object100002684
p101
aVhttp://dbpedia.org/class/yago/Region108630985
p102
aVhttp://dbpedia.org/class/yago/System108435388
p103
aVhttp://dbpedia.org/class/yago/YagoGeoEntity
p104
aVhttp://dbpedia.org/class/yago/YagoLegalActorGeo
p105
aVhttp://dbpedia.org/class/yago/EuropeanCountries
p106
aVhttp://dbpedia.org/class/yago/FederalCountries
p107
aVhttp://dbpedia.org/class/yago/French-speakingCountries
p108
aVhttp://dbpedia.org/class/yago/PhysicalEntity100001930
p109
aVhttp://dbpedia.org/class/yago/YagoPermanentlyLocatedEntity
p110
aVhttp://dbpedia.org/class/yago/German-speakingCountries
p111
aVhttp://dbpedia.org/class/yago/Italian-speakingCountries
p112
aVhttp://dbpedia.org/class/yago/LandlockedCountries
p113
aVhttp://dbpedia.org/class/yago/MemberStatesOfLaFrancophonie
p114
aVhttp://dbpedia.org/class/yago/MemberStatesOfTheUnitedNations
p115
aVhttp://dbpedia.org/class/yago/StatesAndTerritoriesEstablishedIn1291
p116
aVhttp://dbpedia.org/class/yago/WorldTradeOrganizationMemberEconomies
p117
aVhttp://dbpedia.org/resource/Switzerland
tp118
aa(lp119
a(lp120
a(lp121
aa(lp122
(lp123
a(lp124
a(lp125
a(lp126
aa(lp127
(lp128
((lp129
Vhttp://www.w3.org/2002/07/owl#Thing
p130
aVhttp://dbpedia.org/ontology/Place
p131
aVhttp://dbpedia.org/ontology/Location
p132
aVhttp://www.wikidata.org/entity/Q486972
p133
aVhttp://dbpedia.org/ontology/Continent
p134
aVhttp://dbpedia.org/ontology/PopulatedPlace
p135
aVhttp://schema.org/Continent
p136
aVhttp://schema.org/Place
p137
aVhttp://dbpedia.org/class/yago/Abstraction100002137
p138
aVhttp://dbpedia.org/class/yago/Economy108366753
p139
aVhttp://dbpedia.org/class/yago/Group100031264
p140
aVhttp://dbpedia.org/class/yago/Land109334396
p141
aVhttp://dbpedia.org/class/yago/Object100002684
p142
aVhttp://dbpedia.org/class/yago/System108435388
p143
aVhttp://dbpedia.org/class/yago/YagoGeoEntity
p144
aVhttp://dbpedia.org/class/yago/Continent109254614
p145
aVhttp://dbpedia.org/class/yago/Continents
p146
aVhttp://dbpedia.org/class/yago/EconomiesByRegion
p147
aVhttp://dbpedia.org/class/yago/Landmass109335916
p148
aVhttp://dbpedia.org/class/yago/PhysicalEntity100001930
p149
aVhttp://dbpedia.org/class/yago/YagoPermanentlyLocatedEntity
p150
aVhttp://dbpedia.org/resource/Oceania
tp151
aa(lp152
a(lp153
a(lp154
aa(lp155
(lp156
((lp157
Vhttp://www.w3.org/2002/07/owl#Thing
p158
aVhttp://dbpedia.org/ontology/Place
p159
aVhttp://dbpedia.org/ontology/Location
p160
aVhttp://www.wikidata.org/entity/Q486972
p161
aVhttp://www.wikidata.org/entity/Q6256
p162
aVhttp://dbpedia.org/ontology/Country
p163
aVhttp://dbpedia.org/ontology/PopulatedPlace
p164
aVhttp://www.w3.org/2003/01/geo/wgs84_pos#SpatialThing
p165
aVhttp://schema.org/Country
p166
aVhttp://schema.org/Place
p167
aVhttp://umbel.org/umbel/rc/Country
p168
aVhttp://umbel.org/umbel/rc/Location_Underspecified
p169
aVhttp://umbel.org/umbel/rc/PopulatedPlace
p170
aVhttp://dbpedia.org/class/yago/Abstraction100002137
p171
aVhttp://dbpedia.org/class/yago/AdministrativeDistrict108491826
p172
aVhttp://dbpedia.org/class/yago/Archipelago109203827
p173
aVhttp://dbpedia.org/class/yago/ArchipelagoesOfThePacificOcean
p174
aVhttp://dbpedia.org/class/yago/Country108544813
p175
aVhttp://dbpedia.org/class/yago/District108552138
p176
aVhttp://dbpedia.org/class/yago/Economy108366753
p177
aVhttp://dbpedia.org/class/yago/Group100031264
p178
aVhttp://dbpedia.org/class/yago/Land109334396
p179
aVhttp://dbpedia.org/class/yago/Location100027167
p180
aVhttp://dbpedia.org/class/yago/Object100002684
p181
aVhttp://dbpedia.org/class/yago/Region108630985
p182
aVhttp://dbpedia.org/class/yago/System108435388
p183
aVhttp://dbpedia.org/class/yago/YagoGeoEntity
p184
aVhttp://dbpedia.org/class/yago/YagoLegalActorGeo
p185
aVhttp://dbpedia.org/class/yago/English-speakingCountriesAndTerritories
p186
aVhttp://dbpedia.org/class/yago/PhysicalEntity100001930
p187
aVhttp://dbpedia.org/class/yago/YagoPermanentlyLocatedEntity
p188
aVhttp://dbpedia.org/class/yago/IslandCountries
p189
aVhttp://dbpedia.org/class/yago/MemberStatesOfTheCommonwealthOfNations
p190
aVhttp://dbpedia.org/class/yago/MemberStatesOfTheUnitedNations
p191
aVhttp://dbpedia.org/class/yago/OceanianCountries
p192
aVhttp://dbpedia.org/class/yago/StatesAndTerritoriesEstablishedIn1840
p193
aVhttp://dbpedia.org/class/yago/WorldTradeOrganizationMemberEconomies
p194
aVhttp://dbpedia.org/resource/New_Zealand
tp195
aa(lp196
a(lp197
a(lp198
aa(lp199
(lp200
a(lp201
a(lp202
a(lp203
aa(lp204
(lp205
a(lp206
a(lp207
a(lp208
aa(lp209
(lp210
a(lp211
a(lp212
a(lp213
aa(lp214
(lp215
a(lp216
a(lp217
((lVhttp://dbpedia.org/resource/Null
tp218
aa(lp219
((lVhttp://dbpedia.org/resource/Null
p220
tp221
aaa(lp222
(lp223
a(lp224
a(lp225
a(lp226
aa(lp227
(lp228
a(lp229
a(lp230
a(lp231
aa(lp232
(lp233
a(lp234
a(lp235
a(lp236
aa(lp237
(lp238
a(lp239
a(lp240
a(lp241
aa(lp242
(lp243
a(lp244
a(lp245
a(lp246
aa(lp247
(lp248
a(lp249
a(lp250
a(lp251
aa(lp252
(lp253
a(lp254
a(lp255
a(lp256
aa(lp257
(lp258
a(lp259
a(lp260
a(lp261
aa(lp262
(lp263
a(lp264
a(lp265
a(lp266
aa.