(lp1
(lp2
(lp3
a(lp4
a(lp5
a(lp6
aa(lp7
(lp8
a(lp9
a(lp10
((lVhttp://dbpedia.org/resource/Sailing_ship
tp11
aa(lp12
aa(lp13
(lp14
a(lp15
a(lp16
a(lp17
aa(lp18
(lp19
a(lp20
a(lp21
a(lp22
aa(lp23
(lp24
a(lp25
a(lp26
a(lp27
aa(lp28
(lp29
a(lp30
a(lp31
((lVhttp://dbpedia.org/resource/Sailing_ship
tp32
aa(lp33
aa(lp34
(lp35
a(lp36
a(lp37
((lVhttp://dbpedia.org/resource/Sailing_ship
tp38
aa(lp39
((lVhttp://dbpedia.org/resource/Sailing_ship
tp40
aaa(lp41
(lp42
a(lp43
a(lp44
a(lp45
aa(lp46
(lp47
a(lp48
a(lp49
a(lp50
aa(lp51
(lp52
a(lp53
a(lp54
a(lp55
aa(lp56
(lp57
((lVhttp://dbpedia.org/resource/Allium_carinatum
tp58
aa(lp59
a(lp60
a(lp61
aa(lp62
(lp63
((lVhttp://dbpedia.org/resource/Allium_rotundum
tp64
aa(lp65
a(lp66
a(lp67
aa(lp68
(lp69
((lp70
Vhttp://umbel.org/umbel/rc/BiologicalLivingObject
p71
aVhttp://umbel.org/umbel/rc/EukaryoticCell
p72
aVhttp://umbel.org/umbel/rc/Plant
p73
aVhttp://dbpedia.org/resource/Allium_scorodoprasum
tp74
aa(lp75
a(lp76
((lVhttp://dbpedia.org/resource/Sailing_ship
tp77
aa(lp78
aa(lp79
(lp80
((lp81
Vhttp://umbel.org/umbel/rc/BiologicalLivingObject
p82
aVhttp://umbel.org/umbel/rc/EukaryoticCell
p83
aVhttp://umbel.org/umbel/rc/Plant
p84
aVhttp://dbpedia.org/class/yago/Bulb113134059
p85
aVhttp://dbpedia.org/class/yago/NaturalObject100019128
p86
aVhttp://dbpedia.org/class/yago/Object100002684
p87
aVhttp://dbpedia.org/class/yago/PlantOrgan113087625
p88
aVhttp://dbpedia.org/class/yago/PlantPart113086908
p89
aVhttp://dbpedia.org/class/yago/Stalk113129165
p90
aVhttp://dbpedia.org/class/yago/Whole100003553
p91
aVhttp://dbpedia.org/class/yago/PhysicalEntity100001930
p92
aVhttp://dbpedia.org/class/yago/Onion112433081
p93
aVhttp://dbpedia.org/class/yago/Onions
p94
aVhttp://dbpedia.org/resource/Allium_sphaerocephalon
tp95
aa(lp96
a(lp97
a(lp98
aa(lp99
(lp100
a(lp101
a(lp102
a(lp103
aa(lp104
(lp105
a(lp106
a(lp107
a(lp108
aa(lp109
(lp110
a(lp111
a(lp112
((lVhttp://dbpedia.org/resource/Sailing_ship
tp113
aa(lp114
((lVhttp://dbpedia.org/resource/Sailing_ship
p115
tp116
aaa(lp117
(lp118
a(lp119
a(lp120
a(lp121
aa(lp122
(lp123
a(lp124
a(lp125
a(lp126
aa(lp127
(lp128
a(lp129
a(lp130
a(lp131
aa.