(lp1
(dp2
I0
(dp3
I0
(lp4
sI1
(lp5
sI2
(lp6
sI3
(lp7
ssI1
(dp8
I0
g5
sI1
(lp9
sI2
(lp10
sI3
(lp11
ssI2
(dp12
I0
g6
sI1
g10
sI2
(lp13
sI3
(lp14
ssI3
(dp15
I0
g7
sI1
g11
sI2
g14
sI3
(lp16
ssa(dp17
I0
(dp18
I0
(lp19
sI1
(lp20
sI2
(lp21
sI3
(lp22
ssI1
(dp23
I0
g20
sI1
(lp24
sI2
(lp25
sI3
(lp26
ssI2
(dp27
I0
g21
sI1
g25
sI2
(lp28
sI3
(lp29
Vhttp://dbpedia.org/ontology/abstract
p30
aVhttp://purl.org/voc/vrank#hasRank
p31
aVhttp://dbpedia.org/ontology/thumbnail
p32
aVhttp://www.w3.org/ns/prov#wasDerivedFrom
p33
aVhttp://dbpedia.org/property/hasPhotoCollection
p34
aVhttp://www.w3.org/2002/07/owl#sameAs
p35
assI3
(dp36
I0
g22
sI1
g26
sI2
g29
sI3
(lp37
ssa(dp38
I0
(dp39
I0
(lp40
sI1
(lp41
sI2
(lp42
sI3
(lp43
ssI1
(dp44
I0
g41
sI1
(lp45
sI2
(lp46
sI3
(lp47
ssI2
(dp48
I0
g42
sI1
g46
sI2
(lp49
sI3
(lp50
ssI3
(dp51
I0
g43
sI1
g47
sI2
g50
sI3
(lp52
ssa(dp53
I0
(dp54
I0
(lp55
sI1
(lp56
sI2
(lp57
sI3
(lp58
ssI1
(dp59
I0
g56
sI1
(lp60
sI2
(lp61
sI3
(lp62
ssI2
(dp63
I0
g57
sI1
g61
sI2
(lp64
sI3
(lp65
ssI3
(dp66
I0
g58
sI1
g62
sI3
(lp67
ssa(dp68
I0
(dp69
I0
(lp70
sI1
(lp71
sI2
(lp72
sI3
(lp73
ssI1
(dp74
I0
g71
sI1
(lp75
sI2
(lp76
sI3
(lp77
ssI2
(dp78
I0
g72
sI1
g76
sI2
(lp79
sI3
(lp80
ssI3
(dp81
I0
g73
sI1
g77
sI3
(lp82
ssa(dp83
I0
(dp84
I0
(lp85
sI1
(lp86
sI2
(lp87
sI3
(lp88
ssI1
(dp89
I0
g86
sI1
(lp90
sI2
(lp91
sI3
(lp92
ssI2
(dp93
I0
g87
sI1
g91
sI2
(lp94
sI3
(lp95
Vhttp://xmlns.com/foaf/0.1/primaryTopic
p96
aVhttp://xmlns.com/foaf/0.1/depiction
p97
aVhttp://purl.org/dc/terms/subject
p98
aVhttp://dbpedia.org/property/shipType
p99
aVhttp://www.w3.org/2000/01/rdf-schema#comment
p100
aVhttp://dbpedia.org/ontology/abstract
p101
aVhttp://dbpedia.org/property/shipPropulsion
p102
aVhttp://dbpedia.org/ontology/wikiPageRedirects
p103
aVhttp://dbpedia.org/ontology/class
p104
aVhttp://dbpedia.org/ontology/thumbnail
p105
aVhttp://www.w3.org/ns/prov#wasDerivedFrom
p106
aVhttp://dbpedia.org/ontology/type
p107
aVhttp://dbpedia.org/property/hasPhotoCollection
p108
aVhttp://dbpedia.org/property/shipClass
p109
aVhttp://www.w3.org/2000/01/rdf-schema#label
p110
aVhttp://www.w3.org/2002/07/owl#sameAs
p111
aVhttp://xmlns.com/foaf/0.1/isPrimaryTopicOf
p112
assI3
(dp113
I0
g88
sI1
g92
sI2
g95
sI3
(lp114
ssa(dp115
I0
(dp116
I0
(lp117
sI1
(lp118
sI2
(lp119
sI3
(lp120
ssI1
(dp121
I0
g118
sI1
(lp122
sI2
(lp123
sI3
(lp124
ssI2
(dp125
I0
g119
sI1
g123
sI2
(lp126
sI3
(lp127
ssI3
(dp128
I0
g120
sI1
g124
sI3
(lp129
ssa(dp130
I0
(dp131
I0
(lp132
sI1
(lp133
sI2
(lp134
sI3
(lp135
ssI1
(dp136
I0
g133
sI1
(lp137
sI2
(lp138
sI3
(lp139
ssI2
(dp140
I0
g134
sI1
g138
sI2
(lp141
sI3
(lp142
ssI3
(dp143
I0
g135
sI1
g139
sI3
(lp144
ssa(dp145
I0
(dp146
I0
(lp147
sI1
(lp148
sI2
(lp149
sI3
(lp150
ssI1
(dp151
I0
g148
sI1
(lp152
sI2
(lp153
sI3
(lp154
ssI2
(dp155
I0
g149
sI1
g153
sI2
(lp156
sI3
(lp157
ssI3
(dp158
I0
g150
sI1
g154
sI2
g157
sI3
(lp159
ssa(dp160
I0
(dp161
I0
(lp162
sI1
(lp163
sI2
(lp164
sI3
(lp165
ssI1
(dp166
I0
g163
sI1
(lp167
sI2
(lp168
sI3
(lp169
ssI2
(dp170
I0
g164
sI1
g168
sI2
(lp171
sI3
(lp172
ssI3
(dp173
I0
g165
sI1
g169
sI2
g172
sI3
(lp174
ssa(dp175
I0
(dp176
I0
(lp177
sI1
(lp178
Vhttp://dbpedia.org/ontology/abstract
p179
aVhttp://www.w3.org/2000/01/rdf-schema#comment
p180
asI2
(lp181
Vhttp://www.w3.org/2000/01/rdf-schema#comment
p182
aVhttp://dbpedia.org/ontology/abstract
p183
aVhttp://purl.org/voc/vrank#hasRank
p184
aVhttp://dbpedia.org/ontology/thumbnail
p185
aVhttp://www.w3.org/ns/prov#wasDerivedFrom
p186
aVhttp://www.w3.org/2002/07/owl#sameAs
p187
asI3
(lp188
Vhttp://www.w3.org/2000/01/rdf-schema#comment
p189
aVhttp://dbpedia.org/ontology/abstract
p190
aVhttp://purl.org/voc/vrank#hasRank
p191
aVhttp://dbpedia.org/ontology/thumbnail
p192
aVhttp://www.w3.org/ns/prov#wasDerivedFrom
p193
aVhttp://www.w3.org/2002/07/owl#sameAs
p194
assI1
(dp195
I0
g178
sI1
(lp196
sI2
(lp197
sI3
(lp198
ssI2
(dp199
I0
g181
sI1
g197
sI2
(lp200
sI3
(lp201
ssI3
(dp202
I0
g188
sI1
g198
sI3
(lp203
ssa(dp204
I0
(dp205
I0
(lp206
sI1
(lp207
Vhttp://www.w3.org/2000/01/rdf-schema#label
p208
asI2
(lp209
Vhttp://www.w3.org/ns/prov#wasDerivedFrom
p210
aVhttp://dbpedia.org/ontology/thumbnail
p211
asI3
(lp212
Vhttp://www.w3.org/ns/prov#wasDerivedFrom
p213
aVhttp://purl.org/voc/vrank#hasRank
p214
aVhttp://xmlns.com/foaf/0.1/depiction
p215
aVhttp://dbpedia.org/ontology/thumbnail
p216
aVhttp://www.w3.org/2002/07/owl#sameAs
p217
assI1
(dp218
I0
g207
sI1
(lp219
sI2
(lp220
sI3
(lp221
ssI2
(dp222
I0
g209
sI1
g220
sI2
(lp223
sI3
(lp224
ssI3
(dp225
I0
g212
sI1
g221
sI2
g224
sI3
(lp226
ssa(dp227
I0
(dp228
I0
(lp229
sI1
(lp230
sI2
(lp231
Vhttp://dbpedia.org/ontology/abstract
p232
aVhttp://www.w3.org/1999/02/22-rdf-syntax-ns#type
p233
aVhttp://www.w3.org/2000/01/rdf-schema#comment
p234
asI3
(lp235
Vhttp://www.w3.org/2000/01/rdf-schema#comment
p236
aVhttp://dbpedia.org/ontology/abstract
p237
aVhttp://xmlns.com/foaf/0.1/depiction
p238
aVhttp://dbpedia.org/ontology/thumbnail
p239
aVhttp://www.w3.org/ns/prov#wasDerivedFrom
p240
aVhttp://dbpedia.org/property/hasPhotoCollection
p241
aVhttp://www.w3.org/2002/07/owl#sameAs
p242
assI1
(dp243
I0
g230
sI1
(lp244
sI2
(lp245
sI3
(lp246
ssI2
(dp247
I0
g231
sI1
g245
sI2
(lp248
sI3
(lp249
Vhttp://dbpedia.org/ontology/abstract
p250
aVhttp://purl.org/voc/vrank#hasRank
p251
aVhttp://dbpedia.org/ontology/thumbnail
p252
aVhttp://www.w3.org/ns/prov#wasDerivedFrom
p253
aVhttp://dbpedia.org/property/hasPhotoCollection
p254
aVhttp://www.w3.org/2002/07/owl#sameAs
p255
assI3
(dp256
I0
g235
sI1
g246
sI2
g249
sI3
(lp257
ssa(dp258
I0
(dp259
I0
(lp260
sI1
(lp261
sI2
(lp262
Vhttp://www.w3.org/1999/02/22-rdf-syntax-ns#type
p263
aVhttp://purl.org/dc/terms/subject
p264
aVhttp://purl.org/voc/vrank#hasRank
p265
aVhttp://dbpedia.org/ontology/thumbnail
p266
aVhttp://www.w3.org/ns/prov#wasDerivedFrom
p267
aVhttp://dbpedia.org/property/hasPhotoCollection
p268
aVhttp://www.w3.org/2002/07/owl#sameAs
p269
asI3
(lp270
Vhttp://purl.org/voc/vrank#hasRank
p271
aVhttp://dbpedia.org/property/hasPhotoCollection
p272
aVhttp://www.w3.org/1999/02/22-rdf-syntax-ns#type
p273
aVhttp://dbpedia.org/ontology/thumbnail
p274
aVhttp://www.w3.org/2002/07/owl#sameAs
p275
assI1
(dp276
I0
g261
sI1
(lp277
sI2
(lp278
sI3
(lp279
ssI2
(dp280
I0
g262
sI1
g278
sI2
(lp281
sI3
(lp282
ssI3
(dp283
I0
g270
sI1
g279
sI2
g282
sI3
(lp284
ssa(dp285
I0
(dp286
I0
(lp287
sI1
(lp288
sI2
(lp289
sI3
(lp290
ssI1
(dp291
I0
g288
sI1
(lp292
sI2
(lp293
sI3
(lp294
ssI2
(dp295
I0
g289
sI1
g293
sI2
(lp296
sI3
(lp297
ssI3
(dp298
I0
g290
sI1
g294
sI2
g297
sI3
(lp299
ssa(dp300
I0
(dp301
I0
(lp302
sI1
(lp303
sI2
(lp304
sI3
(lp305
ssI1
(dp306
I0
g303
sI1
(lp307
sI2
(lp308
sI3
(lp309
ssI2
(dp310
I0
g304
sI1
g308
sI2
(lp311
sI3
(lp312
ssI3
(dp313
I0
g305
sI1
g309
sI3
(lp314
ssa(dp315
I0
(dp316
I0
(lp317
sI1
(lp318
sI2
(lp319
sI3
(lp320
ssI1
(dp321
I0
g318
sI1
(lp322
sI2
(lp323
sI3
(lp324
ssI2
(dp325
I0
g319
sI1
g323
sI2
(lp326
sI3
(lp327
ssI3
(dp328
I0
g320
sI1
g324
sI3
(lp329
ssa(dp330
I0
(dp331
I0
(lp332
sI1
(lp333
sI2
(lp334
sI3
(lp335
ssI1
(dp336
I0
g333
sI1
(lp337
sI2
(lp338
sI3
(lp339
ssI2
(dp340
I0
g334
sI1
g338
sI2
(lp341
sI3
(lp342
ssI3
(dp343
I0
g335
sI1
g339
sI2
g342
sI3
(lp344
ssa(dp345
I0
(dp346
I0
(lp347
sI1
(lp348
sI2
(lp349
sI3
(lp350
ssI1
(dp351
I0
g348
sI1
(lp352
sI2
(lp353
sI3
(lp354
ssI2
(dp355
I0
g349
sI1
g353
sI2
(lp356
sI3
(lp357
ssI3
(dp358
I0
g350
sI1
g354
sI2
g357
sI3
(lp359
ssa(dp360
I0
(dp361
I0
(lp362
sI1
(lp363
sI2
(lp364
sI3
(lp365
ssI1
(dp366
I0
g363
sI1
(lp367
sI2
(lp368
sI3
(lp369
ssI2
(dp370
I0
g364
sI1
g368
sI2
(lp371
sI3
(lp372
ssI3
(dp373
I0
g365
sI1
g369
sI2
g372
sI3
(lp374
ssa.