(lp1
(lp2
(dp3
Vstart
p4
I0
sVdisambiguatedURL
p5
NsVnamedEntity
p6
Vmission chief
p7
sVoffset
p8
I13
saa(lp9
(dp10
Vstart
p11
I0
sVdisambiguatedURL
p12
NsVnamedEntity
p13
Vocean dancer
p14
sVoffset
p15
I12
saa(lp16
(dp17
Vstart
p18
I0
sVdisambiguatedURL
p19
NsVnamedEntity
p20
Vperserverance
p21
sVoffset
p22
I13
saa(lp23
(dp24
Vstart
p25
I0
sVdisambiguatedURL
p26
NsVnamedEntity
p27
Vpetaloid
p28
sVoffset
p29
I8
saa(lp30
(dp31
Vstart
p32
I0
sVdisambiguatedURL
p33
NsVnamedEntity
p34
Vpine valley
p35
sVoffset
p36
I11
saa(lp37
(dp38
Vstart
p39
I0
sVdisambiguatedURL
p40
NsVnamedEntity
p41
Vpromised glory
p42
sVoffset
p43
I14
saa(lp44
(dp45
Vstart
p46
I0
sVdisambiguatedURL
p47
NsVnamedEntity
p48
Vregal bearing
p49
sVoffset
p50
I13
saa(lp51
(dp52
Vstart
p53
I0
sVdisambiguatedURL
p54
NsVnamedEntity
p55
Vroman centurion
p56
sVoffset
p57
I15
saa(lp58
(dp59
Vstart
p60
I0
sVdisambiguatedURL
p61
NsVnamedEntity
p62
Vromantic impact
p63
sVoffset
p64
I15
saa(lp65
(dp66
Vstart
p67
I0
sVdisambiguatedURL
p68
NsVnamedEntity
p69
Vsamarkhand
p70
sVoffset
p71
I10
saa(lp72
(dp73
Vstart
p74
I0
sVdisambiguatedURL
p75
NsVnamedEntity
p76
Vsamba dancer
p77
sVoffset
p78
I12
saa(lp79
(dp80
Vstart
p81
I0
sVdisambiguatedURL
p82
NsVnamedEntity
p83
Vsartaj
p84
sVoffset
p85
I6
saa(lp86
(dp87
Vstart
p88
I0
sVdisambiguatedURL
p89
NsVnamedEntity
p90
Vsecret attack
p91
sVoffset
p92
I13
saa(lp93
(dp94
Vstart
p95
I0
sVdisambiguatedURL
p96
Vhttp://dbpedia.org/resource/Secret_Fire
p97
sVnamedEntity
p98
Vsecret fire
p99
sVoffset
p100
I11
saa(lp101
(dp102
Vstart
p103
I0
sVdisambiguatedURL
p104
NsVnamedEntity
p105
Vsongstress
p106
sVoffset
p107
I10
saa(lp108
(dp109
Vstart
p110
I0
sVdisambiguatedURL
p111
NsVnamedEntity
p112
Vstar impact
p113
sVoffset
p114
I11
saa(lp115
(dp116
Vstart
p117
I0
sVdisambiguatedURL
p118
NsVnamedEntity
p119
Vstormette
p120
sVoffset
p121
I9
saa(lp122
(dp123
Vstart
p124
I0
sVdisambiguatedURL
p125
NsVnamedEntity
p126
Vsuccessful
p127
sVoffset
p128
I10
saa(lp129
(dp130
Vstart
p131
I0
sVdisambiguatedURL
p132
NsVnamedEntity
p133
Vsugar 'n' salt
p134
sVoffset
p135
I14
saa(lp136
(dp137
Vstart
p138
I0
sVdisambiguatedURL
p139
NsVnamedEntity
p140
Vsun dancer
p141
sVoffset
p142
I10
saa.