(lp1
(lp2
(dp3
Vstart
p4
I0
sVdisambiguatedURL
p5
NsVnamedEntity
p6
Vmr. y. tristan kuo
p7
sVoffset
p8
I18
saa(lp9
(dp10
Vstart
p11
I0
sVdisambiguatedURL
p12
Vhttp://dbpedia.org/resource/Chief_financial_officer
p13
sVnamedEntity
p14
Vchief financial officer
p15
sVoffset
p16
I23
saa(lp17
(dp18
Vstart
p19
I0
sVdisambiguatedURL
p20
NsVnamedEntity
p21
Vchina biologic products inc.
p22
sVoffset
p23
I28
saa(lp24
(dp25
Vstart
p26
I0
sVdisambiguatedURL
p27
NsVnamedEntity
p28
Vtelephone: +86-538-6202206 in china
p29
sVoffset
p30
I35
saa(lp31
(dp32
Vstart
p33
I0
sVdisambiguatedURL
p34
NsVnamedEntity
p35
Vemail: ir@chinabiologic.com
p36
sVoffset
p37
I27
saa(lp38
(dp39
Vstart
p40
I0
sVdisambiguatedURL
p41
NsVnamedEntity
p42
Vwww.chinabiologic.com
p43
sVoffset
p44
I21
saa.