(lp1
(lp2
(lp3
a(lp4
a(lp5
aa(lp6
(lp7
a(lp8
a(lp9
aa(lp10
(lp11
a(lp12
a(lp13
aa(lp14
(lp15
((lVhttp://dbpedia.org/resource/Post-processing
tp16
aa(lp17
a(lp18
aa(lp19
(lp20
((lVhttp://dbpedia.org/resource/Age/sex/location
p21
tp22
aa(lp23
a(lp24
aa.