(lp1
(lp2
a(lp3
(dp4
Vstart
p5
I0
sS'classes'
p6
(lp7
Vhttp://www.w3.org/2002/07/owl#Thing
p8
aVhttp://dbpedia.org/ontology/Place
p9
aVhttp://dbpedia.org/ontology/Location
p10
aVhttp://www.wikidata.org/entity/Q486972
p11
aVhttp://dbpedia.org/ontology/PopulatedPlace
p12
aVhttp://schema.org/Place
p13
aVhttp://dbpedia.org/class/yago/AmusementPark108494231
p14
aVhttp://dbpedia.org/class/yago/AmusementParksInThePhilippines
p15
aVhttp://dbpedia.org/class/yago/Landmark108624891
p16
aVhttp://dbpedia.org/class/yago/Location100027167
p17
aVhttp://dbpedia.org/class/yago/Object100002684
p18
aVhttp://dbpedia.org/class/yago/Park108615374
p19
aVhttp://dbpedia.org/class/yago/Point108620061
p20
aVhttp://dbpedia.org/class/yago/Position108621598
p21
aVhttp://dbpedia.org/class/yago/Region108630985
p22
aVhttp://dbpedia.org/class/yago/Tract108673395
p23
aVhttp://dbpedia.org/class/yago/YagoGeoEntity
p24
aVhttp://dbpedia.org/class/yago/YagoLegalActorGeo
p25
aVhttp://dbpedia.org/class/yago/GeographicalArea108574314
p26
aVhttp://dbpedia.org/class/yago/PhysicalEntity100001930
p27
aVhttp://dbpedia.org/class/yago/YagoPermanentlyLocatedEntity
p28
aVhttp://dbpedia.org/class/yago/LandmarksInThePhilippines
p29
asVdisambiguatedURL
p30
Vhttp://dbpedia.org/resource/Enchanted_Kingdom
p31
sVnamedEntity
p32
VEK
p33
sVoffset
p34
I2
saa(lp35
(dp36
Vstart
p37
I0
sg6
(lp38
Vhttp://www.w3.org/2002/07/owl#Thing
p39
aVhttp://dbpedia.org/ontology/Company
p40
aVhttp://www.ontologydesignpatterns.org/ont/dul/DUL.owl#Agent
p41
aVhttp://www.ontologydesignpatterns.org/ont/dul/DUL.owl#SocialPerson
p42
aVhttp://www.wikidata.org/entity/Q43229
p43
aVhttp://dbpedia.org/ontology/Agent
p44
aVhttp://dbpedia.org/ontology/Organisation
p45
aVhttp://schema.org/Organization
p46
aVhttp://umbel.org/umbel/rc/Business
p47
aVhttp://umbel.org/umbel/rc/Organization
p48
aVhttp://dbpedia.org/class/yago/Abstraction100002137
p49
aVhttp://dbpedia.org/class/yago/Company108058098
p50
aVhttp://dbpedia.org/class/yago/Group100031264
p51
aVhttp://dbpedia.org/class/yago/Institution108053576
p52
aVhttp://dbpedia.org/class/yago/Organization108008335
p53
aVhttp://dbpedia.org/class/yago/SocialGroup107950920
p54
aVhttp://dbpedia.org/class/yago/YagoLegalActorGeo
p55
aVhttp://dbpedia.org/class/yago/CompaniesBasedInPlano,Texas
p56
aVhttp://dbpedia.org/class/yago/CompaniesEstablishedIn1902
p57
aVhttp://dbpedia.org/class/yago/YagoPermanentlyLocatedEntity
p58
aVhttp://dbpedia.org/class/yago/OnlineRetailCompaniesOfTheUnitedStates
p59
aVhttp://dbpedia.org/class/yago/YagoLegalActor
p60
asVdisambiguatedURL
p61
Vhttp://dbpedia.org/resource/J._C._Penney
p62
sVnamedEntity
p63
VJCP
p64
sVoffset
p65
I3
saa(lp66
(dp67
Vstart
p68
I0
sg6
(lp69
Vhttp://www.w3.org/2002/07/owl#Thing
p70
aVhttp://dbpedia.org/ontology/Company
p71
aVhttp://www.ontologydesignpatterns.org/ont/dul/DUL.owl#Agent
p72
aVhttp://www.ontologydesignpatterns.org/ont/dul/DUL.owl#SocialPerson
p73
aVhttp://www.wikidata.org/entity/Q43229
p74
aVhttp://dbpedia.org/ontology/Agent
p75
aVhttp://dbpedia.org/ontology/Organisation
p76
aVhttp://schema.org/Organization
p77
aVhttp://umbel.org/umbel/rc/Business
p78
aVhttp://dbpedia.org/class/yago/Abstraction100002137
p79
aVhttp://dbpedia.org/class/yago/Business108061042
p80
aVhttp://dbpedia.org/class/yago/BusinessesLocatedInCumberland,MD-WV-PA
p81
aVhttp://dbpedia.org/class/yago/Company108058098
p82
aVhttp://dbpedia.org/class/yago/Enterprise108056231
p83
aVhttp://dbpedia.org/class/yago/Group100031264
p84
aVhttp://dbpedia.org/class/yago/Institution108053576
p85
aVhttp://dbpedia.org/class/yago/Organization108008335
p86
aVhttp://dbpedia.org/class/yago/SocialGroup107950920
p87
aVhttp://dbpedia.org/class/yago/YagoLegalActorGeo
p88
aVhttp://dbpedia.org/class/yago/CompaniesBasedInRichmond,Virginia
p89
aVhttp://dbpedia.org/class/yago/CompaniesEstablishedIn2002
p90
aVhttp://dbpedia.org/class/yago/YagoPermanentlyLocatedEntity
p91
aVhttp://dbpedia.org/class/yago/YagoLegalActor
p92
asVdisambiguatedURL
p93
Vhttp://dbpedia.org/resource/MeadWestvaco
p94
sVnamedEntity
p95
VMWV
p96
sVoffset
p97
I3
saa(lp98
(dp99
Vstart
p100
I0
sg6
(lp101
Vhttp://dbpedia.org/class/yago/Abstraction100002137
p102
aVhttp://dbpedia.org/class/yago/Act100030358
p103
aVhttp://dbpedia.org/class/yago/Action100037396
p104
aVhttp://dbpedia.org/class/yago/Activity100407535
p105
aVhttp://dbpedia.org/class/yago/Decision100162632
p106
aVhttp://dbpedia.org/class/yago/Event100029378
p107
aVhttp://dbpedia.org/class/yago/Procedure101023820
p108
aVhttp://dbpedia.org/class/yago/Choice100161243
p109
aVhttp://dbpedia.org/class/yago/PsychologicalFeature100023100
p110
aVhttp://dbpedia.org/class/yago/YagoPermanentlyLocatedEntity
p111
aVhttp://dbpedia.org/class/yago/MarkovProcesses
p112
aVhttp://dbpedia.org/class/yago/OptimalDecisions
p113
asVdisambiguatedURL
p114
Vhttp://dbpedia.org/resource/Markov_decision_process
p115
sVnamedEntity
p116
VMDP
p117
sVoffset
p118
I3
saa(lp119
a.