(lp1
(lp2
(dp3
Vstart
p4
I0
sVdisambiguatedURL
p5
NsVnamedEntity
p6
Vsize
p7
sVoffset
p8
I4
saa(lp9
(dp10
Vstart
p11
I0
sVdisambiguatedURL
p12
NsVnamedEntity
p13
Vstone
p14
sVoffset
p15
I5
saa(lp16
(dp17
Vstart
p18
I0
sVdisambiguatedURL
p19
Vhttp://dbpedia.org/resource/Power-to-weight_ratio
p20
sVnamedEntity
p21
Vweight
p22
sVoffset
p23
I6
saa.