(lp1
(lp2
(dp3
Vstart
p4
I0
sS'classes'
p5
(lp6
Vhttp://dbpedia.org/class/yago/19th-centuryAnglicanChurchBuildings
p7
aVhttp://dbpedia.org/class/yago/AnglicanCathedralsInAfrica
p8
aVhttp://dbpedia.org/class/yago/Artifact100021939
p9
aVhttp://dbpedia.org/class/yago/Building102913152
p10
aVhttp://dbpedia.org/class/yago/BuildingsAndStructuresInAccra
p11
aVhttp://dbpedia.org/class/yago/Cathedral102984061
p12
aVhttp://dbpedia.org/class/yago/Church103028079
p13
aVhttp://dbpedia.org/class/yago/Object100002684
p14
aVhttp://dbpedia.org/class/yago/PlaceOfWorship103953416
p15
aVhttp://dbpedia.org/class/yago/Structure104341686
p16
aVhttp://dbpedia.org/class/yago/Whole100003553
p17
aVhttp://dbpedia.org/class/yago/YagoGeoEntity
p18
aVhttp://dbpedia.org/class/yago/ChurchesInGhana
p19
aVhttp://dbpedia.org/class/yago/PhysicalEntity100001930
p20
aVhttp://dbpedia.org/class/yago/YagoPermanentlyLocatedEntity
p21
aVhttp://dbpedia.org/class/yago/ReligiousBuildingsCompletedIn1894
p22
asVdisambiguatedURL
p23
Vhttp://dbpedia.org/resource/Holy_Trinity_Cathedral_(Accra)
p24
sVnamedEntity
p25
VHoly Trinity Cathedral
p26
sVoffset
p27
I22
saa(lp28
a(lp29
a(lp30
a(lp31
a(lp32
a(lp33
a(lp34
a(lp35
a(lp36
(dp37
Vstart
p38
I0
sg5
(lp39
Vhttp://www.w3.org/2002/07/owl#Thing
p40
aVhttp://dbpedia.org/ontology/Place
p41
aVhttp://dbpedia.org/ontology/Location
p42
aVhttp://www.wikidata.org/entity/Q486972
p43
aVhttp://www.wikidata.org/entity/Q532
p44
aVhttp://dbpedia.org/ontology/PopulatedPlace
p45
aVhttp://dbpedia.org/ontology/Settlement
p46
aVhttp://dbpedia.org/ontology/Village
p47
aVhttp://www.w3.org/2003/01/geo/wgs84_pos#SpatialThing
p48
aVhttp://schema.org/Place
p49
aVhttp://umbel.org/umbel/rc/Village
p50
aVhttp://dbpedia.org/class/yago/AdministrativeDistrict108491826
p51
aVhttp://dbpedia.org/class/yago/District108552138
p52
aVhttp://dbpedia.org/class/yago/Location100027167
p53
aVhttp://dbpedia.org/class/yago/Object100002684
p54
aVhttp://dbpedia.org/class/yago/Point108620061
p55
aVhttp://dbpedia.org/class/yago/Region108630985
p56
aVhttp://dbpedia.org/class/yago/TopographicPoint108664443
p57
aVhttp://dbpedia.org/class/yago/Village108672738
p58
aVhttp://dbpedia.org/class/yago/YagoGeoEntity
p59
aVhttp://dbpedia.org/class/yago/YagoLegalActorGeo
p60
aVhttp://dbpedia.org/class/yago/GeographicalArea108574314
p61
aVhttp://dbpedia.org/class/yago/PhysicalEntity100001930
p62
aVhttp://dbpedia.org/class/yago/YagoPermanentlyLocatedEntity
p63
aVhttp://dbpedia.org/class/yago/GeneralServiceAreasInNovaScotia
p64
aVhttp://dbpedia.org/class/yago/ServiceArea108648781
p65
aVhttp://dbpedia.org/class/yago/Settlement108672562
p66
aVhttp://dbpedia.org/class/yago/VillagesInNovaScotia
p67
asVdisambiguatedURL
p68
Vhttp://dbpedia.org/resource/St._Peter's,_Nova_Scotia
p69
sVnamedEntity
p70
VSt. Peter's
p71
sVoffset
p72
I11
saa(lp73
(dp74
Vstart
p75
I0
sg5
(lp76
Vhttp://dbpedia.org/class/yago/Artifact100021939
p77
aVhttp://dbpedia.org/class/yago/Building102913152
p78
aVhttp://dbpedia.org/class/yago/Church103028079
p79
aVhttp://dbpedia.org/class/yago/Object100002684
p80
aVhttp://dbpedia.org/class/yago/PlaceOfWorship103953416
p81
aVhttp://dbpedia.org/class/yago/Structure104341686
p82
aVhttp://dbpedia.org/class/yago/Whole100003553
p83
aVhttp://dbpedia.org/class/yago/YagoGeoEntity
p84
aVhttp://dbpedia.org/class/yago/ChurchesInDutchessCounty,NewYork
p85
aVhttp://dbpedia.org/class/yago/PhysicalEntity100001930
p86
aVhttp://dbpedia.org/class/yago/YagoPermanentlyLocatedEntity
p87
aVhttp://dbpedia.org/class/yago/RomanCatholicChurchesInNewYork
p88
asVdisambiguatedURL
p89
Vhttp://dbpedia.org/resource/St._Christopher's_Church_(Red_Hook,_New_York)
p90
sVnamedEntity
p91
VSt. Christopher's Church
p92
sVoffset
p93
I24
saa(lp94
(dp95
Vstart
p96
I0
sg5
(lp97
Vhttp://www.w3.org/2002/07/owl#Thing
p98
aVhttp://dbpedia.org/ontology/Place
p99
aVhttp://dbpedia.org/ontology/Location
p100
aVhttp://www.wikidata.org/entity/Q41176
p101
aVhttp://dbpedia.org/ontology/ArchitecturalStructure
p102
aVhttp://dbpedia.org/ontology/Building
p103
aVhttp://www.w3.org/2003/01/geo/wgs84_pos#SpatialThing
p104
aVhttp://schema.org/Place
p105
aVhttp://dbpedia.org/class/yago/19th-centuryEpiscopalChurchBuildings
p106
aVhttp://dbpedia.org/class/yago/Artifact100021939
p107
aVhttp://dbpedia.org/class/yago/Building102913152
p108
aVhttp://dbpedia.org/class/yago/BuildingsAndStructuresInLakeCharles,Louisiana
p109
aVhttp://dbpedia.org/class/yago/Church103028079
p110
aVhttp://dbpedia.org/class/yago/Object100002684
p111
aVhttp://dbpedia.org/class/yago/PlaceOfWorship103953416
p112
aVhttp://dbpedia.org/class/yago/Structure104341686
p113
aVhttp://dbpedia.org/class/yago/Whole100003553
p114
aVhttp://dbpedia.org/class/yago/YagoGeoEntity
p115
aVhttp://dbpedia.org/class/yago/CharlesWilliamBulgerBuildings
p116
aVhttp://dbpedia.org/class/yago/EpiscopalChurchesInLouisiana
p117
aVhttp://dbpedia.org/class/yago/PhysicalEntity100001930
p118
aVhttp://dbpedia.org/class/yago/YagoPermanentlyLocatedEntity
p119
aVhttp://dbpedia.org/class/yago/ReligiousBuildingsCompletedIn1896
p120
asVdisambiguatedURL
p121
Vhttp://dbpedia.org/resource/Church_of_the_Good_Shepherd_(Lake_Charles,_Louisiana)
p122
sVnamedEntity
p123
VChurch of the Good Shepard
p124
sVoffset
p125
I26
saa(lp126
a.