(lp1
(lp2
(lp3
a(lp4
a(lp5
Vhttp://dbpedia.org/resource/Null
p6
aa(lp7
a(lp8
Vhttp://dbpedia.org/resource/Null
p9
aaa(lp10
(lp11
a(lp12
a(lp13
Vhttp://dbpedia.org/resource/Null
p14
aa(lp15
a(lp16
Vhttp://dbpedia.org/resource/Null
p17
aaa(lp18
(lp19
a(lp20
a(lp21
Vhttp://dbpedia.org/resource/Null
p22
aa(lp23
a(lp24
Vhttp://dbpedia.org/resource/Null
p25
aaa(lp26
(lp27
a(lp28
Vhttp://dbpedia.org/resource/The_Amazing_Spider-Man
p29
aa(lp30
Vhttp://dbpedia.org/resource/Null
p31
aa(lp32
a(lp33
Vhttp://dbpedia.org/resource/Null
p34
aaa(lp35
(lp36
a(lp37
a(lp38
a(lp39
a(lp40
Vhttp://dbpedia.org/resource/Null
p41
aaa(lp42
(lp43
a(lp44
a(lp45
Vhttp://dbpedia.org/resource/Null
p46
aa(lp47
a(lp48
Vhttp://dbpedia.org/resource/Null
p49
aaa(lp50
(lp51
a(lp52
a(lp53
Vhttp://dbpedia.org/resource/Null
p54
aa(lp55
a(lp56
Vhttp://dbpedia.org/resource/Null
p57
aaa(lp58
(lp59
a(lp60
a(lp61
Vhttp://dbpedia.org/resource/Null
p62
aa(lp63
a(lp64
Vhttp://dbpedia.org/resource/Null
p65
aaa(lp66
(lp67
a(lp68
a(lp69
Vhttp://dbpedia.org/resource/Null
p70
aa(lp71
a(lp72
Vhttp://dbpedia.org/resource/Null
p73
aaa(lp74
(lp75
a(lp76
Vhttp://dbpedia.org/resource/Woody_Woodpecker
p77
aa(lp78
Vhttp://dbpedia.org/resource/Null
p79
aa(lp80
a(lp81
Vhttp://dbpedia.org/resource/Null
p82
aaa(lp83
(lp84
a(lp85
a(lp86
Vhttp://dbpedia.org/resource/Null
p87
aa(lp88
a(lp89
Vhttp://dbpedia.org/resource/Null
p90
aaa(lp91
(lp92
a(lp93
Vhttp://dbpedia.org/resource/Casper_the_Friendly_Ghost
p94
aa(lp95
Vhttp://dbpedia.org/resource/Null
p96
aa(lp97
a(lp98
Vhttp://dbpedia.org/resource/Null
p99
aaa(lp100
(lp101
a(lp102
a(lp103
Vhttp://dbpedia.org/resource/Null
p104
aa(lp105
a(lp106
Vhttp://dbpedia.org/resource/Null
p107
aaa(lp108
(lp109
a(lp110
a(lp111
Vhttp://dbpedia.org/resource/Null
p112
aa(lp113
a(lp114
Vhttp://dbpedia.org/resource/Null
p115
aaa(lp116
(lp117
a(lp118
Vhttp://dbpedia.org/resource/Little_Orphan_Annie
p119
aa(lp120
Vhttp://dbpedia.org/resource/Null
p121
aa(lp122
a(lp123
Vhttp://dbpedia.org/resource/Null
p124
aaa(lp125
(lp126
a(lp127
a(lp128
Vhttp://dbpedia.org/resource/Null
p129
aa(lp130
a(lp131
Vhttp://dbpedia.org/resource/Null
p132
aaa(lp133
(lp134
a(lp135
Vhttp://dbpedia.org/resource/Hulk_(comics)
p136
aa(lp137
Vhttp://dbpedia.org/resource/Null
p138
aa(lp139
a(lp140
Vhttp://dbpedia.org/resource/Null
p141
aaa(lp142
(lp143
a(lp144
a(lp145
Vhttp://dbpedia.org/resource/Null
p146
aa(lp147
a(lp148
Vhttp://dbpedia.org/resource/Null
p149
aaa(lp150
(lp151
a(lp152
a(lp153
Vhttp://dbpedia.org/resource/Null
p154
aa(lp155
a(lp156
Vhttp://dbpedia.org/resource/Null
p157
aaa.