(lp1
(dp2
I0
(dp3
I0
(lp4
sI1
(lp5
Vhttp://www.w3.org/2000/01/rdf-schema#seeAlso
p6
aVhttp://dbpedia.org/property/origin
p7
aVhttp://dbpedia.org/property/restingplace
p8
aVhttp://dbpedia.org/property/architecturalStyle
p9
aVhttp://dbpedia.org/property/almaMater
p10
aVhttp://dbpedia.org/property/cctld
p11
aVhttp://www.w3.org/2004/02/skos/core#exactMatch
p12
aVhttp://dbpedia.org/property/restingPlace
p13
aVhttp://dbpedia.org/ontology/foundationPlace
p14
aVhttp://dbpedia.org/property/residence
p15
aVhttp://dbpedia.org/ontology/jurisdiction
p16
aVhttp://dbpedia.org/property/placeOfDeath
p17
aVhttp://dbpedia.org/ontology/regionServed
p18
aVhttp://dbpedia.org/ontology/country
p19
aVhttp://dbpedia.org/property/billed
p20
aVhttp://dbpedia.org/property/locationCountry
p21
aVhttp://dbpedia.org/property/broadcastArea
p22
aVhttp://dbpedia.org/property/assembly
p23
aVhttp://dbpedia.org/property/locations
p24
aVhttp://dbpedia.org/property/legaljuris
p25
aVhttp://dbpedia.org/ontology/nationality
p26
aVhttp://dbpedia.org/property/birthPlace
p27
aVhttp://dbpedia.org/ontology/education
p28
aVhttp://dbpedia.org/ontology/restingPlace
p29
aVhttp://dbpedia.org/property/placeOfBirth
p30
aVhttp://dbpedia.org/property/nationality
p31
aVhttp://dbpedia.org/property/country
p32
aVhttp://dbpedia.org/property/shipCountry
p33
aVhttp://dbpedia.org/ontology/wikiPageDisambiguates
p34
aVhttp://dbpedia.org/ontology/assembly
p35
aVhttp://dbpedia.org/property/areaServed
p36
aVhttp://dbpedia.org/ontology/wikiPageExternalLink
p37
aVhttp://dbpedia.org/property/base
p38
aVhttp://dbpedia.org/property/serviceArea
p39
aVhttp://dbpedia.org/property/allegiance
p40
aVhttp://dbpedia.org/ontology/abstract
p41
aVhttp://dbpedia.org/ontology/recordedIn
p42
aVhttp://dbpedia.org/ontology/architecturalStyle
p43
aVhttp://dbpedia.org/property/deathPlace
p44
aVhttp://dbpedia.org/property/location
p45
aVhttp://dbpedia.org/ontology/locationCountry
p46
aVhttp://dbpedia.org/ontology/headquarter
p47
aVhttp://dbpedia.org/property/foundation
p48
aVhttp://dbpedia.org/ontology/broadcastArea
p49
aVhttp://dbpedia.org/ontology/stateOfOrigin
p50
aVhttp://dbpedia.org/property/shipBuilder
p51
aVhttp://dbpedia.org/ontology/location
p52
aVhttp://dbpedia.org/ontology/residence
p53
aVhttp://www.w3.org/2000/01/rdf-schema#comment
p54
aVhttp://dbpedia.org/property/education
p55
aVhttp://dbpedia.org/ontology/birthPlace
p56
aVhttp://dbpedia.org/ontology/wikiPageRedirects
p57
aVhttp://dbpedia.org/property/area
p58
aVhttp://dbpedia.org/ontology/hometown
p59
aVhttp://dbpedia.org/property/hqLocationCountry
p60
aVhttp://www.w3.org/2002/07/owl#sameAs
p61
aVhttp://dbpedia.org/property/headquarters
p62
aVhttp://dbpedia.org/property/regionServed
p63
aVhttp://dbpedia.org/ontology/builder
p64
aVhttp://xmlns.com/foaf/0.1/homepage
p65
aVhttp://dbpedia.org/property/jurisdiction
p66
aVhttp://dbpedia.org/property/stadium
p67
aVhttp://dbpedia.org/ontology/deathPlace
p68
asI2
(lp69
Vhttp://dbpedia.org/property/origin
p70
aVhttp://dbpedia.org/property/recorded
p71
aVhttp://dbpedia.org/ontology/origin
p72
aVhttp://dbpedia.org/ontology/regionServed
p73
aVhttp://dbpedia.org/ontology/country
p74
aVhttp://www.w3.org/1999/02/22-rdf-syntax-ns#type
p75
aVhttp://dbpedia.org/property/locationCountry
p76
aVhttp://dbpedia.org/ontology/nationality
p77
aVhttp://dbpedia.org/property/birthPlace
p78
aVhttp://dbpedia.org/property/placeOfBirth
p79
aVhttp://dbpedia.org/property/country
p80
aVhttp://purl.org/dc/terms/subject
p81
aVhttp://dbpedia.org/property/nationality
p82
aVhttp://dbpedia.org/ontology/abstract
p83
aVhttp://dbpedia.org/ontology/recordedIn
p84
aVhttp://dbpedia.org/property/location
p85
aVhttp://dbpedia.org/ontology/locationCountry
p86
aVhttp://dbpedia.org/ontology/deathPlace
p87
aVhttp://dbpedia.org/ontology/language
p88
aVhttp://dbpedia.org/ontology/location
p89
aVhttp://dbpedia.org/property/languages
p90
aVhttp://dbpedia.org/ontology/stateOfOrigin
p91
aVhttp://dbpedia.org/property/headquarters
p92
aVhttp://dbpedia.org/ontology/birthPlace
p93
aVhttp://dbpedia.org/property/nationalOrigin
p94
aVhttp://dbpedia.org/ontology/hometown
p95
aVhttp://dbpedia.org/property/regionServed
p96
aVhttp://dbpedia.org/ontology/spokenIn
p97
aVhttp://dbpedia.org/property/data
p98
aVhttp://dbpedia.org/ontology/headquarter
p99
asI3
(lp100
sI4
(lp101
sI5
(lp102
ssI1
(dp103
I0
g5
sI1
(lp104
sI2
(lp105
Vhttp://dbpedia.org/property/origin
p106
aVhttp://dbpedia.org/property/recorded
p107
aVhttp://dbpedia.org/ontology/origin
p108
aVhttp://dbpedia.org/ontology/regionServed
p109
aVhttp://dbpedia.org/ontology/country
p110
aVhttp://www.w3.org/1999/02/22-rdf-syntax-ns#type
p111
aVhttp://dbpedia.org/property/locationCountry
p112
aVhttp://dbpedia.org/ontology/nationality
p113
aVhttp://dbpedia.org/property/birthPlace
p114
aVhttp://dbpedia.org/property/placeOfBirth
p115
aVhttp://dbpedia.org/property/country
p116
aVhttp://purl.org/dc/terms/subject
p117
aVhttp://dbpedia.org/property/nationality
p118
aVhttp://dbpedia.org/ontology/abstract
p119
aVhttp://dbpedia.org/ontology/recordedIn
p120
aVhttp://dbpedia.org/property/location
p121
aVhttp://dbpedia.org/ontology/locationCountry
p122
aVhttp://dbpedia.org/ontology/deathPlace
p123
aVhttp://dbpedia.org/ontology/language
p124
aVhttp://dbpedia.org/ontology/location
p125
aVhttp://dbpedia.org/property/languages
p126
aVhttp://dbpedia.org/ontology/stateOfOrigin
p127
aVhttp://dbpedia.org/property/headquarters
p128
aVhttp://dbpedia.org/ontology/birthPlace
p129
aVhttp://dbpedia.org/property/nationalOrigin
p130
aVhttp://dbpedia.org/ontology/hometown
p131
aVhttp://dbpedia.org/property/regionServed
p132
aVhttp://dbpedia.org/ontology/spokenIn
p133
aVhttp://dbpedia.org/property/data
p134
aVhttp://dbpedia.org/ontology/headquarter
p135
asI3
(lp136
sI4
(lp137
sI5
(lp138
ssI2
(dp139
I0
g69
sI1
g105
sI2
(lp140
sI3
(lp141
sI4
(lp142
sI5
(lp143
ssI3
(dp144
I0
g100
sI1
g136
sI2
g141
sI3
(lp145
sI4
(lp146
sI5
(lp147
ssI4
(dp148
I0
g101
sI1
g137
sI2
g142
sI3
g146
sI4
(lp149
sI5
(lp150
ssI5
(dp151
I0
g102
sI1
g138
sI2
g143
sI3
g147
sI4
g150
sI5
(lp152
ssa(dp153
I0
(dp154
I0
(lp155
sI1
(lp156
sI2
(lp157
sI3
(lp158
sI4
(lp159
sI5
(lp160
ssI1
(dp161
I0
g156
sI1
(lp162
sI2
(lp163
Vhttp://dbpedia.org/ontology/wikiPageDisambiguates
p164
asI3
(lp165
sI4
(lp166
sI5
(lp167
ssI2
(dp168
I0
g157
sI1
g163
sI2
(lp169
sI3
(lp170
sI4
(lp171
sI5
(lp172
ssI3
(dp173
I0
g158
sI1
g165
sI2
g170
sI3
(lp174
sI4
(lp175
sI5
(lp176
ssI4
(dp177
I0
g159
sI1
g166
sI2
g171
sI3
g175
sI4
(lp178
sI5
(lp179
ssI5
(dp180
I0
g160
sI1
g167
sI2
g172
sI3
g176
sI4
g179
sI5
(lp181
ssa(dp182
I0
(dp183
I0
(lp184
sI1
(lp185
Vhttp://dbpedia.org/property/origin
p186
aVhttp://dbpedia.org/property/placeOfDeath
p187
aVhttp://dbpedia.org/ontology/twinCountry
p188
aVhttp://dbpedia.org/property/cctld
p189
aVhttp://dbpedia.org/ontology/mouthCountry
p190
aVhttp://dbpedia.org/property/city
p191
aVhttp://dbpedia.org/ontology/garrison
p192
aVhttp://dbpedia.org/property/ethnicity
p193
aVhttp://dbpedia.org/ontology/city
p194
aVhttp://dbpedia.org/property/territory
p195
aVhttp://dbpedia.org/ontology/regionServed
p196
aVhttp://dbpedia.org/ontology/canonizedPlace
p197
aVhttp://dbpedia.org/property/firstRun
p198
aVhttp://dbpedia.org/property/lage
p199
aVhttp://dbpedia.org/property/assembly
p200
aVhttp://dbpedia.org/property/subdivisionName
p201
aVhttp://dbpedia.org/ontology/nationality
p202
aVhttp://dbpedia.org/property/shortDescription
p203
aVhttp://dbpedia.org/property/placeOfBirth
p204
aVhttp://dbpedia.org/property/hometown
p205
aVhttp://dbpedia.org/property/byCountry
p206
aVhttp://dbpedia.org/property/meetingPlace
p207
aVhttp://dbpedia.org/property/establishedEvent
p208
aVhttp://dbpedia.org/ontology/targetAirport
p209
aVhttp://dbpedia.org/property/regionalScenes
p210
aVhttp://dbpedia.org/property/primaryUser
p211
aVhttp://dbpedia.org/ontology/residence
p212
aVhttp://dbpedia.org/ontology/abstract
p213
aVhttp://dbpedia.org/ontology/recordedIn
p214
aVhttp://dbpedia.org/ontology/architecturalStyle
p215
aVhttp://dbpedia.org/property/usedBy
p216
aVhttp://dbpedia.org/property/shipNamesake
p217
aVhttp://dbpedia.org/property/nationalOrigin
p218
aVhttp://dbpedia.org/property/shipBuilder
p219
aVhttp://dbpedia.org/ontology/location
p220
aVhttp://dbpedia.org/ontology/wineRegion
p221
aVhttp://dbpedia.org/property/governmentType
p222
aVhttp://dbpedia.org/ontology/hometown
p223
aVhttp://dbpedia.org/ontology/restingPlace
p224
aVhttp://dbpedia.org/ontology/spokenIn
p225
aVhttp://dbpedia.org/property/leaderTitle
p226
aVhttp://www.w3.org/2000/01/rdf-schema#seeAlso
p227
aVhttp://dbpedia.org/ontology/wikiPageExternalLink
p228
aVhttp://dbpedia.org/ontology/citizenship
p229
aVhttp://dbpedia.org/property/conventionalLongName
p230
aVhttp://dbpedia.org/property/bases
p231
aVhttp://dbpedia.org/ontology/foundationPlace
p232
aVhttp://dbpedia.org/property/mouthCountry
p233
aVhttp://dbpedia.org/ontology/locatedInArea
p234
aVhttp://dbpedia.org/property/placeOfBurial
p235
aVhttp://dbpedia.org/property/site
p236
aVhttp://dbpedia.org/ontology/country
p237
aVhttp://dbpedia.org/property/region
p238
aVhttp://dbpedia.org/property/nationalAnthem
p239
aVhttp://dbpedia.org/property/destinations
p240
aVhttp://dbpedia.org/property/home
p241
aVhttp://dbpedia.org/property/birthPlace
p242
aVhttp://dbpedia.org/property/stateParty
p243
aVhttp://dbpedia.org/property/country
p244
aVhttp://dbpedia.org/property/areaServed
p245
aVhttp://dbpedia.org/property/areasAffected
p246
aVhttp://dbpedia.org/ontology/county
p247
aVhttp://dbpedia.org/ontology/significantProject
p248
aVhttp://dbpedia.org/property/deathPlace
p249
aVhttp://dbpedia.org/property/states
p250
aVhttp://dbpedia.org/ontology/locationCountry
p251
aVhttp://dbpedia.org/ontology/deathPlace
p252
aVhttp://dbpedia.org/property/hasPhotoCollection
p253
aVhttp://dbpedia.org/property/cityServed
p254
aVhttp://dbpedia.org/property/headquarters
p255
aVhttp://dbpedia.org/ontology/anthem
p256
aVhttp://dbpedia.org/ontology/birthPlace
p257
aVhttp://dbpedia.org/ontology/wikiPageRedirects
p258
aVhttp://purl.org/voc/vrank#hasRank
p259
aVhttp://www.w3.org/2004/02/skos/core#exactMatch
p260
aVhttp://dbpedia.org/property/citizenship
p261
aVhttp://xmlns.com/foaf/0.1/homepage
p262
aVhttp://dbpedia.org/ontology/stateOfOrigin
p263
aVhttp://www.w3.org/2002/07/owl#sameAs
p264
aVhttp://dbpedia.org/ontology/homeStadium
p265
aVhttp://dbpedia.org/property/recorded
p266
aVhttp://dbpedia.org/ontology/majorShrine
p267
aVhttp://dbpedia.org/ontology/origin
p268
aVhttp://dbpedia.org/property/residence
p269
aVhttp://dbpedia.org/property/cityOrRegion
p270
aVhttp://dbpedia.org/property/workInstitutions
p271
aVhttp://dbpedia.org/ontology/longName
p272
aVhttp://www.w3.org/1999/02/22-rdf-syntax-ns#type
p273
aVhttp://dbpedia.org/ontology/award
p274
aVhttp://dbpedia.org/property/locationCountry
p275
aVhttp://dbpedia.org/property/majorShrine
p276
aVhttp://dbpedia.org/ontology/ground
p277
aVhttp://dbpedia.org/property/withdraws
p278
aVhttp://dbpedia.org/property/lowerHouse
p279
aVhttp://dbpedia.org/ontology/sourceCountry
p280
aVhttp://dbpedia.org/property/winnerOrigin
p281
aVhttp://dbpedia.org/property/owner
p282
aVhttp://dbpedia.org/property/shipCountry
p283
aVhttp://dbpedia.org/property/fightingOutOf
p284
aVhttp://dbpedia.org/property/homeTown
p285
aVhttp://dbpedia.org/property/rallybase
p286
aVhttp://dbpedia.org/property/canonizedPlace
p287
aVhttp://dbpedia.org/property/address
p288
aVhttp://dbpedia.org/ontology/governmentType
p289
aVhttp://dbpedia.org/property/locationCity
p290
aVhttp://dbpedia.org/property/stadium
p291
aVhttp://dbpedia.org/property/almaMater
p292
aVhttp://dbpedia.org/property/membership
p293
aVhttp://dbpedia.org/property/place
p294
aVhttp://dbpedia.org/property/debuts
p295
aVhttp://dbpedia.org/property/caption
p296
aVhttp://dbpedia.org/property/footnoteB
p297
aVhttp://dbpedia.org/ontology/leaderTitle
p298
aVhttp://dbpedia.org/property/upperHouse
p299
aVhttp://dbpedia.org/ontology/place
p300
aVhttp://dbpedia.org/property/office
p301
aVhttp://dbpedia.org/property/nationality
p302
aVhttp://dbpedia.org/property/cityOfResidence
p303
aVhttp://purl.org/dc/terms/subject
p304
aVhttp://dbpedia.org/ontology/populationPlace
p305
aVhttp://dbpedia.org/property/state
p306
aVhttp://dbpedia.org/property/location
p307
aVhttp://dbpedia.org/property/eponym
p308
aVhttp://dbpedia.org/ontology/headquarter
p309
aVhttp://dbpedia.org/property/foundation
p310
aVhttp://www.w3.org/2000/01/rdf-schema#label
p311
aVhttp://dbpedia.org/ontology/language
p312
aVhttp://dbpedia.org/property/locale
p313
aVhttp://dbpedia.org/property/basinCountries
p314
aVhttp://dbpedia.org/property/garrison
p315
aVhttp://dbpedia.org/ontology/assembly
p316
aVhttp://www.w3.org/2000/01/rdf-schema#comment
p317
aVhttp://dbpedia.org/ontology/locationCity
p318
aVhttp://dbpedia.org/property/olympicPlace
p319
aVhttp://dbpedia.org/property/remit
p320
aVhttp://dbpedia.org/property/regionServed
p321
aVhttp://dbpedia.org/ontology/builder
p322
aVhttp://dbpedia.org/ontology/premierePlace
p323
aVhttp://dbpedia.org/property/data
p324
aVhttp://dbpedia.org/property/buried
p325
asI2
(lp326
Vhttp://dbpedia.org/property/origin
p327
aVhttp://dbpedia.org/property/placeOfDeath
p328
aVhttp://dbpedia.org/property/broadcastArea
p329
aVhttp://dbpedia.org/property/sovereigntyType
p330
aVhttp://www.w3.org/ns/prov#wasDerivedFrom
p331
aVhttp://dbpedia.org/ontology/fastestDriverCountry
p332
aVhttp://dbpedia.org/ontology/demonym
p333
aVhttp://dbpedia.org/ontology/regionServed
p334
aVhttp://dbpedia.org/ontology/nationality
p335
aVhttp://xmlns.com/foaf/0.1/isPrimaryTopicOf
p336
aVhttp://dbpedia.org/property/byCountry
p337
aVhttp://dbpedia.org/property/establishedEvent
p338
aVhttp://dbpedia.org/property/nationality
p339
aVhttp://dbpedia.org/ontology/abstract
p340
aVhttp://dbpedia.org/ontology/recordedIn
p341
aVhttp://dbpedia.org/ontology/architecturalStyle
p342
aVhttp://dbpedia.org/ontology/location
p343
aVhttp://dbpedia.org/property/imageMap
p344
aVhttp://dbpedia.org/property/officialLanguages
p345
aVhttp://dbpedia.org/property/area
p346
aVhttp://dbpedia.org/ontology/hometown
p347
aVhttp://dbpedia.org/ontology/spokenIn
p348
aVhttp://dbpedia.org/property/leaderTitle
p349
aVhttp://www.w3.org/2000/01/rdf-schema#seeAlso
p350
aVhttp://dbpedia.org/ontology/wikiPageExternalLink
p351
aVhttp://dbpedia.org/property/hostCity
p352
aVhttp://dbpedia.org/property/conventionalLongName
p353
aVhttp://dbpedia.org/ontology/foundationPlace
p354
aVhttp://dbpedia.org/ontology/poleDriverCountry
p355
aVhttp://dbpedia.org/ontology/locatedInArea
p356
aVhttp://dbpedia.org/ontology/officialLanguage
p357
aVhttp://dbpedia.org/ontology/country
p358
aVhttp://dbpedia.org/property/birthPlace
p359
aVhttp://dbpedia.org/property/country/region
p360
aVhttp://dbpedia.org/property/country
p361
aVhttp://dbpedia.org/ontology/county
p362
aVhttp://xmlns.com/foaf/0.1/primaryTopic
p363
aVhttp://dbpedia.org/ontology/campus
p364
aVhttp://dbpedia.org/ontology/firstDriverCountry
p365
aVhttp://dbpedia.org/property/states
p366
aVhttp://dbpedia.org/ontology/locationCountry
p367
aVhttp://dbpedia.org/ontology/deathPlace
p368
aVhttp://dbpedia.org/property/hasPhotoCollection
p369
aVhttp://dbpedia.org/property/locationSigned
p370
aVhttp://dbpedia.org/property/headquarters
p371
aVhttp://dbpedia.org/ontology/birthPlace
p372
aVhttp://dbpedia.org/ontology/wikiPageRedirects
p373
aVhttp://dbpedia.org/property/citizenship
p374
aVhttp://dbpedia.org/property/imageCoat
p375
aVhttp://dbpedia.org/ontology/stateOfOrigin
p376
aVhttp://www.w3.org/2002/07/owl#sameAs
p377
aVhttp://dbpedia.org/property/recorded
p378
aVhttp://dbpedia.org/ontology/longName
p379
aVhttp://www.w3.org/1999/02/22-rdf-syntax-ns#type
p380
aVhttp://dbpedia.org/property/locationCountry
p381
aVhttp://dbpedia.org/ontology/secondDriverCountry
p382
aVhttp://dbpedia.org/property/winnerOrigin
p383
aVhttp://dbpedia.org/property/namedAfter
p384
aVhttp://dbpedia.org/property/shipCountry
p385
aVhttp://dbpedia.org/property/placeOfBirth
p386
aVhttp://xmlns.com/foaf/0.1/depiction
p387
aVhttp://dbpedia.org/property/observedby
p388
aVhttp://dbpedia.org/ontology/flag
p389
aVhttp://dbpedia.org/property/commonName
p390
aVhttp://dbpedia.org/property/subdivisionName
p391
aVhttp://dbpedia.org/property/locationCity
p392
aVhttp://dbpedia.org/property/nat
p393
aVhttp://dbpedia.org/ontology/broadcastArea
p394
aVhttp://dbpedia.org/property/stadium
p395
aVhttp://dbpedia.org/property/place
p396
aVhttp://dbpedia.org/property/footnoteA
p397
aVhttp://dbpedia.org/property/caption
p398
aVhttp://dbpedia.org/ontology/thirdDriverCountry
p399
aVhttp://www.w3.org/2002/07/owl#differentFrom
p400
aVhttp://dbpedia.org/property/upperHouse
p401
aVhttp://dbpedia.org/property/locations
p402
aVhttp://dbpedia.org/ontology/place
p403
aVhttp://dbpedia.org/property/language
p404
aVhttp://dbpedia.org/property/imageFlag
p405
aVhttp://dbpedia.org/ontology/wikiPageDisambiguates
p406
aVhttp://purl.org/dc/terms/subject
p407
aVhttp://dbpedia.org/ontology/populationPlace
p408
aVhttp://dbpedia.org/property/location
p409
aVhttp://dbpedia.org/property/armiger
p410
aVhttp://dbpedia.org/ontology/headquarter
p411
aVhttp://dbpedia.org/property/foundation
p412
aVhttp://www.w3.org/2000/01/rdf-schema#label
p413
aVhttp://dbpedia.org/ontology/language
p414
aVhttp://dbpedia.org/property/title
p415
aVhttp://dbpedia.org/property/basinCountries
p416
aVhttp://www.w3.org/2000/01/rdf-schema#comment
p417
aVhttp://dbpedia.org/property/seat
p418
aVhttp://dbpedia.org/property/demonym
p419
aVhttp://dbpedia.org/property/regionServed
p420
aVhttp://xmlns.com/foaf/0.1/name
p421
aVhttp://dbpedia.org/ontology/locationCity
p422
aVhttp://dbpedia.org/property/buried
p423
aVhttp://dbpedia.org/ontology/thumbnail
p424
asI3
(lp425
sI4
(lp426
sI5
(lp427
ssI1
(dp428
I0
g185
sI1
(lp429
sI2
(lp430
sI3
(lp431
sI4
(lp432
sI5
(lp433
ssI2
(dp434
I0
g326
sI1
g430
sI2
(lp435
sI3
(lp436
sI4
(lp437
sI5
(lp438
ssI3
(dp439
I0
g425
sI1
g431
sI2
g436
sI3
(lp440
sI4
(lp441
sI5
(lp442
ssI4
(dp443
I0
g426
sI1
g432
sI2
g437
sI3
g441
sI4
(lp444
sI5
(lp445
ssI5
(dp446
I0
g427
sI1
g433
sI2
g438
sI3
g442
sI4
g445
sI5
(lp447
ssa(dp448
I0
(dp449
I0
(lp450
sI1
(lp451
Vhttp://dbpedia.org/property/origin
p452
aVhttp://dbpedia.org/property/placeOfDeath
p453
aVhttp://dbpedia.org/property/awardedBy
p454
aVhttp://dbpedia.org/property/cctld
p455
aVhttp://dbpedia.org/property/city
p456
aVhttp://dbpedia.org/ontology/garrison
p457
aVhttp://dbpedia.org/property/sovereigntyType
p458
aVhttp://www.w3.org/ns/prov#wasDerivedFrom
p459
aVhttp://dbpedia.org/ontology/demonym
p460
aVhttp://dbpedia.org/ontology/regionServed
p461
aVhttp://dbpedia.org/property/usingCountries
p462
aVhttp://dbpedia.org/property/broadcastArea
p463
aVhttp://dbpedia.org/ontology/nationality
p464
aVhttp://xmlns.com/foaf/0.1/isPrimaryTopicOf
p465
aVhttp://dbpedia.org/property/start
p466
aVhttp://dbpedia.org/property/siteCityst
p467
aVhttp://dbpedia.org/ontology/residence
p468
aVhttp://dbpedia.org/ontology/abstract
p469
aVhttp://dbpedia.org/property/venue
p470
aVhttp://dbpedia.org/property/shipNamesake
p471
aVhttp://dbpedia.org/property/officialLanguages
p472
aVhttp://dbpedia.org/property/imageMap
p473
aVhttp://dbpedia.org/ontology/location
p474
aVhttp://dbpedia.org/property/countriesAffected
p475
aVhttp://dbpedia.org/property/finish
p476
aVhttp://dbpedia.org/property/area
p477
aVhttp://dbpedia.org/ontology/hometown
p478
aVhttp://dbpedia.org/ontology/restingPlace
p479
aVhttp://dbpedia.org/ontology/spokenIn
p480
aVhttp://dbpedia.org/property/foundingLocation
p481
aVhttp://dbpedia.org/property/jurisdiction
p482
aVhttp://dbpedia.org/property/leaderTitle
p483
aVhttp://www.w3.org/2000/01/rdf-schema#seeAlso
p484
aVhttp://dbpedia.org/ontology/foundationPlace
p485
aVhttp://dbpedia.org/property/legislature
p486
aVhttp://dbpedia.org/ontology/locatedInArea
p487
aVhttp://dbpedia.org/ontology/officialLanguage
p488
aVhttp://dbpedia.org/ontology/country
p489
aVhttp://dbpedia.org/property/region
p490
aVhttp://dbpedia.org/property/nationalAnthem
p491
aVhttp://dbpedia.org/property/birthPlace
p492
aVhttp://dbpedia.org/property/bankOf
p493
aVhttp://dbpedia.org/property/stateParty
p494
aVhttp://dbpedia.org/property/country
p495
aVhttp://dbpedia.org/property/areaServed
p496
aVhttp://dbpedia.org/ontology/wikiPageExternalLink
p497
aVhttp://xmlns.com/foaf/0.1/primaryTopic
p498
aVhttp://dbpedia.org/property/demonym
p499
aVhttp://dbpedia.org/property/deathPlace
p500
aVhttp://dbpedia.org/property/states
p501
aVhttp://dbpedia.org/ontology/locationCountry
p502
aVhttp://dbpedia.org/ontology/deathPlace
p503
aVhttp://dbpedia.org/property/hasPhotoCollection
p504
aVhttp://dbpedia.org/property/regions
p505
aVhttp://dbpedia.org/property/headquarters
p506
aVhttp://dbpedia.org/ontology/birthPlace
p507
aVhttp://dbpedia.org/ontology/wikiPageRedirects
p508
aVhttp://dbpedia.org/property/imageCoat
p509
aVhttp://dbpedia.org/property/garrison
p510
aVhttp://www.w3.org/2002/07/owl#sameAs
p511
aVhttp://dbpedia.org/ontology/origin
p512
aVhttp://dbpedia.org/property/residence
p513
aVhttp://www.w3.org/1999/02/22-rdf-syntax-ns#type
p514
aVhttp://dbpedia.org/property/locationCountry
p515
aVhttp://dbpedia.org/property/rd1t2Loc
p516
aVhttp://dbpedia.org/ontology/ground
p517
aVhttp://dbpedia.org/property/winnerOrigin
p518
aVhttp://dbpedia.org/property/owner
p519
aVhttp://dbpedia.org/property/placeOfBirth
p520
aVhttp://xmlns.com/foaf/0.1/depiction
p521
aVhttp://dbpedia.org/ontology/usingCountry
p522
aVhttp://dbpedia.org/ontology/thumbnail
p523
aVhttp://dbpedia.org/ontology/city
p524
aVhttp://dbpedia.org/ontology/flag
p525
aVhttp://dbpedia.org/property/settlementType
p526
aVhttp://dbpedia.org/property/commonName
p527
aVhttp://dbpedia.org/property/subdivisionName
p528
aVhttp://dbpedia.org/property/popplace
p529
aVhttp://dbpedia.org/ontology/wineRegion
p530
aVhttp://dbpedia.org/property/founded
p531
aVhttp://dbpedia.org/property/otherName
p532
aVhttp://dbpedia.org/property/place
p533
aVhttp://dbpedia.org/property/territorialExtent
p534
aVhttp://dbpedia.org/property/rd0t1Loc
p535
aVhttp://dbpedia.org/property/footnoteA
p536
aVhttp://dbpedia.org/property/rd0t2Loc
p537
aVhttp://dbpedia.org/property/allegiance
p538
aVhttp://dbpedia.org/ontology/place
p539
aVhttp://dbpedia.org/property/nationality
p540
aVhttp://dbpedia.org/property/foundedPlace
p541
aVhttp://dbpedia.org/property/callingCode
p542
aVhttp://dbpedia.org/ontology/wikiPageDisambiguates
p543
aVhttp://dbpedia.org/property/rd1t8Loc
p544
aVhttp://purl.org/dc/terms/subject
p545
aVhttp://dbpedia.org/ontology/populationPlace
p546
aVhttp://dbpedia.org/property/state
p547
aVhttp://dbpedia.org/property/location
p548
aVhttp://dbpedia.org/property/armiger
p549
aVhttp://dbpedia.org/ontology/headquarter
p550
aVhttp://www.w3.org/2000/01/rdf-schema#label
p551
aVhttp://dbpedia.org/ontology/language
p552
aVhttp://dbpedia.org/property/title
p553
aVhttp://dbpedia.org/property/basinCountries
p554
aVhttp://www.w3.org/2000/01/rdf-schema#comment
p555
aVhttp://dbpedia.org/property/rd0t4Loc
p556
aVhttp://dbpedia.org/property/imageFlag
p557
aVhttp://dbpedia.org/property/regionServed
p558
aVhttp://xmlns.com/foaf/0.1/name
p559
asI2
(lp560
Vhttp://www.w3.org/2000/01/rdf-schema#seeAlso
p561
aVhttp://dbpedia.org/property/origin
p562
aVhttp://dbpedia.org/ontology/origin
p563
aVhttp://dbpedia.org/property/place
p564
aVhttp://dbpedia.org/property/footnoteA
p565
aVhttp://dbpedia.org/ontology/demonym
p566
aVhttp://dbpedia.org/ontology/officialLanguage
p567
aVhttp://dbpedia.org/ontology/country
p568
aVhttp://dbpedia.org/property/usingCountries
p569
aVhttp://dbpedia.org/property/officialLanguages
p570
aVhttp://dbpedia.org/property/winnerOrigin
p571
aVhttp://dbpedia.org/property/foundedPlace
p572
aVhttp://dbpedia.org/property/country
p573
aVhttp://dbpedia.org/ontology/wikiPageExternalLink
p574
aVhttp://dbpedia.org/ontology/populationPlace
p575
aVhttp://dbpedia.org/ontology/abstract
p576
aVhttp://dbpedia.org/property/location
p577
aVhttp://dbpedia.org/ontology/usingCountry
p578
aVhttp://dbpedia.org/property/regions
p579
aVhttp://dbpedia.org/ontology/headquarter
p580
aVhttp://dbpedia.org/property/shipNamesake
p581
aVhttp://dbpedia.org/ontology/language
p582
aVhttp://dbpedia.org/ontology/location
p583
aVhttp://dbpedia.org/property/states
p584
aVhttp://dbpedia.org/property/headquarters
p585
aVhttp://www.w3.org/2000/01/rdf-schema#comment
p586
aVhttp://dbpedia.org/ontology/birthPlace
p587
aVhttp://dbpedia.org/ontology/wikiPageRedirects
p588
aVhttp://dbpedia.org/property/area
p589
aVhttp://dbpedia.org/ontology/hometown
p590
aVhttp://dbpedia.org/property/demonym
p591
aVhttp://dbpedia.org/ontology/spokenIn
p592
aVhttp://dbpedia.org/property/foundingLocation
p593
aVhttp://dbpedia.org/property/jurisdiction
p594
aVhttp://dbpedia.org/property/popplace
p595
asI3
(lp596
sI4
(lp597
sI5
(lp598
ssI1
(dp599
I0
g451
sI1
(lp600
sI2
(lp601
Vhttp://www.w3.org/2000/01/rdf-schema#seeAlso
p602
aVhttp://dbpedia.org/property/origin
p603
aVhttp://dbpedia.org/ontology/origin
p604
aVhttp://dbpedia.org/property/place
p605
aVhttp://dbpedia.org/property/footnoteA
p606
aVhttp://dbpedia.org/ontology/demonym
p607
aVhttp://dbpedia.org/ontology/officialLanguage
p608
aVhttp://dbpedia.org/ontology/country
p609
aVhttp://dbpedia.org/property/usingCountries
p610
aVhttp://dbpedia.org/property/officialLanguages
p611
aVhttp://dbpedia.org/property/winnerOrigin
p612
aVhttp://dbpedia.org/property/foundedPlace
p613
aVhttp://dbpedia.org/property/country
p614
aVhttp://dbpedia.org/ontology/wikiPageExternalLink
p615
aVhttp://dbpedia.org/ontology/populationPlace
p616
aVhttp://dbpedia.org/ontology/abstract
p617
aVhttp://dbpedia.org/property/location
p618
aVhttp://dbpedia.org/ontology/usingCountry
p619
aVhttp://dbpedia.org/property/regions
p620
aVhttp://dbpedia.org/ontology/headquarter
p621
aVhttp://dbpedia.org/property/shipNamesake
p622
aVhttp://dbpedia.org/ontology/language
p623
aVhttp://dbpedia.org/ontology/location
p624
aVhttp://dbpedia.org/property/states
p625
aVhttp://dbpedia.org/property/headquarters
p626
aVhttp://www.w3.org/2000/01/rdf-schema#comment
p627
aVhttp://dbpedia.org/ontology/birthPlace
p628
aVhttp://dbpedia.org/ontology/wikiPageRedirects
p629
aVhttp://dbpedia.org/property/area
p630
aVhttp://dbpedia.org/ontology/hometown
p631
aVhttp://dbpedia.org/property/demonym
p632
aVhttp://dbpedia.org/ontology/spokenIn
p633
aVhttp://dbpedia.org/property/foundingLocation
p634
aVhttp://dbpedia.org/property/jurisdiction
p635
aVhttp://dbpedia.org/property/popplace
p636
asI3
(lp637
sI4
(lp638
sI5
(lp639
ssI2
(dp640
I0
g560
sI1
g601
sI2
(lp641
sI3
(lp642
sI4
(lp643
sI5
(lp644
ssI3
(dp645
I0
g596
sI1
g637
sI2
g642
sI3
(lp646
sI4
(lp647
sI5
(lp648
ssI4
(dp649
I0
g597
sI1
g638
sI2
g643
sI3
g647
sI4
(lp650
sI5
(lp651
ssI5
(dp652
I0
g598
sI1
g639
sI2
g644
sI3
g648
sI4
g651
sI5
(lp653
ssa(dp654
I0
(dp655
I0
(lp656
sI1
(lp657
Vhttp://dbpedia.org/property/origin
p658
aVhttp://dbpedia.org/property/placeOfDeath
p659
aVhttp://dbpedia.org/property/cctld
p660
aVhttp://dbpedia.org/property/city
p661
aVhttp://dbpedia.org/ontology/garrison
p662
aVhttp://dbpedia.org/property/ethnicity
p663
aVhttp://www.w3.org/ns/prov#wasDerivedFrom
p664
aVhttp://dbpedia.org/ontology/fastestDriverCountry
p665
aVhttp://dbpedia.org/ontology/demonym
p666
aVhttp://dbpedia.org/ontology/routeEnd
p667
aVhttp://dbpedia.org/ontology/regionServed
p668
aVhttp://dbpedia.org/property/broadcastArea
p669
aVhttp://dbpedia.org/property/assembly
p670
aVhttp://dbpedia.org/property/subdivisionName
p671
aVhttp://dbpedia.org/ontology/nationality
p672
aVhttp://dbpedia.org/property/shortDescription
p673
aVhttp://xmlns.com/foaf/0.1/isPrimaryTopicOf
p674
aVhttp://dbpedia.org/property/hometown
p675
aVhttp://dbpedia.org/property/rallybase
p676
aVhttp://dbpedia.org/property/establishedEvent
p677
aVhttp://dbpedia.org/ontology/targetAirport
p678
aVhttp://dbpedia.org/property/base
p679
aVhttp://dbpedia.org/property/office
p680
aVhttp://dbpedia.org/ontology/residence
p681
aVhttp://dbpedia.org/ontology/abstract
p682
aVhttp://dbpedia.org/ontology/recordedIn
p683
aVhttp://dbpedia.org/property/venue
p684
aVhttp://dbpedia.org/property/provenance
p685
aVhttp://dbpedia.org/property/usedBy
p686
aVhttp://dbpedia.org/property/shipNamesake
p687
aVhttp://dbpedia.org/property/nationalOrigin
p688
aVhttp://dbpedia.org/ontology/location
p689
aVhttp://dbpedia.org/property/imageMap
p690
aVhttp://dbpedia.org/property/shipBuilder
p691
aVhttp://dbpedia.org/property/officialLanguages
p692
aVhttp://dbpedia.org/property/countriesAffected
p693
aVhttp://dbpedia.org/property/finish
p694
aVhttp://dbpedia.org/property/area
p695
aVhttp://dbpedia.org/ontology/hometown
p696
aVhttp://dbpedia.org/property/alternateName
p697
aVhttp://dbpedia.org/property/bankOf
p698
aVhttp://dbpedia.org/ontology/spokenIn
p699
aVhttp://dbpedia.org/property/foundingLocation
p700
aVhttp://dbpedia.org/property/jurisdiction
p701
aVhttp://dbpedia.org/property/leaderTitle
p702
aVhttp://www.w3.org/2000/01/rdf-schema#seeAlso
p703
aVhttp://dbpedia.org/property/color
p704
aVhttp://dbpedia.org/property/sovereigntyType
p705
aVhttp://dbpedia.org/property/hostCity
p706
aVhttp://dbpedia.org/property/conventionalLongName
p707
aVhttp://dbpedia.org/property/bases
p708
aVhttp://dbpedia.org/property/homeStadium
p709
aVhttp://dbpedia.org/ontology/foundationPlace
p710
aVhttp://dbpedia.org/property/birthplace
p711
aVhttp://dbpedia.org/ontology/poleDriverCountry
p712
aVhttp://dbpedia.org/property/legislature
p713
aVhttp://dbpedia.org/ontology/locatedInArea
p714
aVhttp://dbpedia.org/property/placeOfBurial
p715
aVhttp://dbpedia.org/ontology/officialLanguage
p716
aVhttp://dbpedia.org/ontology/country
p717
aVhttp://dbpedia.org/property/region
p718
aVhttp://dbpedia.org/property/hubs
p719
aVhttp://dbpedia.org/property/home
p720
aVhttp://dbpedia.org/property/birthPlace
p721
aVhttp://dbpedia.org/property/country/region
p722
aVhttp://dbpedia.org/property/stateParty
p723
aVhttp://dbpedia.org/property/country
p724
aVhttp://dbpedia.org/ontology/billed
p725
aVhttp://dbpedia.org/property/areaServed
p726
aVhttp://dbpedia.org/ontology/wikiPageExternalLink
p727
aVhttp://xmlns.com/foaf/0.1/primaryTopic
p728
aVhttp://dbpedia.org/ontology/campus
p729
aVhttp://dbpedia.org/ontology/firstDriverCountry
p730
aVhttp://dbpedia.org/property/deathPlace
p731
aVhttp://dbpedia.org/property/states
p732
aVhttp://dbpedia.org/ontology/division
p733
aVhttp://dbpedia.org/ontology/locationCountry
p734
aVhttp://dbpedia.org/ontology/deathPlace
p735
aVhttp://dbpedia.org/property/hasPhotoCollection
p736
aVhttp://dbpedia.org/ontology/hubAirport
p737
aVhttp://dbpedia.org/ontology/placeOfBurial
p738
aVhttp://dbpedia.org/property/headquarters
p739
aVhttp://dbpedia.org/ontology/birthPlace
p740
aVhttp://dbpedia.org/ontology/wikiPageRedirects
p741
aVhttp://dbpedia.org/property/aux
p742
aVhttp://www.w3.org/2004/02/skos/core#exactMatch
p743
aVhttp://dbpedia.org/property/citizenship
p744
aVhttp://dbpedia.org/property/imageCoat
p745
aVhttp://xmlns.com/foaf/0.1/homepage
p746
aVhttp://dbpedia.org/ontology/stateOfOrigin
p747
aVhttp://www.w3.org/2002/07/owl#sameAs
p748
aVhttp://dbpedia.org/property/recorded
p749
aVhttp://dbpedia.org/ontology/majorShrine
p750
aVhttp://dbpedia.org/ontology/origin
p751
aVhttp://dbpedia.org/property/residence
p752
aVhttp://dbpedia.org/property/cityOrRegion
p753
aVhttp://dbpedia.org/ontology/longName
p754
aVhttp://dbpedia.org/property/billed
p755
aVhttp://www.w3.org/1999/02/22-rdf-syntax-ns#type
p756
aVhttp://dbpedia.org/ontology/capital
p757
aVhttp://dbpedia.org/property/locationCountry
p758
aVhttp://dbpedia.org/ontology/secondDriverCountry
p759
aVhttp://dbpedia.org/property/majorShrine
p760
aVhttp://dbpedia.org/property/largestCity
p761
aVhttp://dbpedia.org/ontology/ground
p762
aVhttp://dbpedia.org/property/lowerHouse
p763
aVhttp://dbpedia.org/ontology/language
p764
aVhttp://dbpedia.org/property/locationSigned
p765
aVhttp://dbpedia.org/property/namedAfter
p766
aVhttp://dbpedia.org/property/shipCountry
p767
aVhttp://dbpedia.org/property/placeOfBirth
p768
aVhttp://xmlns.com/foaf/0.1/depiction
p769
aVhttp://dbpedia.org/ontology/usingCountry
p770
aVhttp://dbpedia.org/property/observedby
p771
aVhttp://dbpedia.org/ontology/city
p772
aVhttp://dbpedia.org/ontology/flag
p773
aVhttp://dbpedia.org/property/commonName
p774
aVhttp://dbpedia.org/property/availability
p775
aVhttp://dbpedia.org/property/campus
p776
aVhttp://dbpedia.org/property/destination
p777
aVhttp://dbpedia.org/property/locationCity
p778
aVhttp://dbpedia.org/ontology/broadcastArea
p779
aVhttp://dbpedia.org/property/stadium
p780
aVhttp://dbpedia.org/property/ground
p781
aVhttp://dbpedia.org/property/place
p782
aVhttp://dbpedia.org/ontology/citizenship
p783
aVhttp://dbpedia.org/ontology/jurisdiction
p784
aVhttp://dbpedia.org/property/caption
p785
aVhttp://dbpedia.org/property/footnoteC
p786
aVhttp://dbpedia.org/ontology/thirdDriverCountry
p787
aVhttp://www.w3.org/2002/07/owl#differentFrom
p788
aVhttp://dbpedia.org/property/footnoteD
p789
aVhttp://dbpedia.org/property/asianPlaceQ
p790
aVhttp://dbpedia.org/property/footnoteB
p791
aVhttp://dbpedia.org/property/upperHouse
p792
aVhttp://dbpedia.org/property/allegiance
p793
aVhttp://dbpedia.org/property/site
p794
aVhttp://dbpedia.org/property/available
p795
aVhttp://dbpedia.org/property/combatant
p796
aVhttp://dbpedia.org/ontology/place
p797
aVhttp://dbpedia.org/property/asianPlaceF
p798
aVhttp://dbpedia.org/property/nationality
p799
aVhttp://dbpedia.org/property/imageFlag
p800
aVhttp://dbpedia.org/ontology/wikiPageDisambiguates
p801
aVhttp://dbpedia.org/property/divisions
p802
aVhttp://purl.org/dc/terms/subject
p803
aVhttp://dbpedia.org/ontology/populationPlace
p804
aVhttp://dbpedia.org/property/location
p805
aVhttp://dbpedia.org/property/armiger
p806
aVhttp://xmlns.com/foaf/0.1/name
p807
aVhttp://dbpedia.org/ontology/headquarter
p808
aVhttp://dbpedia.org/property/foundation
p809
aVhttp://www.w3.org/2000/01/rdf-schema#label
p810
aVhttp://dbpedia.org/property/controlledby
p811
aVhttp://dbpedia.org/ontology/sourceCountry
p812
aVhttp://dbpedia.org/property/title
p813
aVhttp://dbpedia.org/property/locale
p814
aVhttp://dbpedia.org/property/basinCountries
p815
aVhttp://dbpedia.org/property/garrison
p816
aVhttp://dbpedia.org/ontology/assembly
p817
aVhttp://www.w3.org/2000/01/rdf-schema#comment
p818
aVhttp://dbpedia.org/property/deathplace
p819
aVhttp://dbpedia.org/property/olympicPlace
p820
aVhttp://dbpedia.org/property/demonym
p821
aVhttp://dbpedia.org/property/remit
p822
aVhttp://dbpedia.org/property/regionServed
p823
aVhttp://dbpedia.org/ontology/builder
p824
aVhttp://dbpedia.org/ontology/occupation
p825
aVhttp://dbpedia.org/ontology/locationCity
p826
aVhttp://dbpedia.org/ontology/thumbnail
p827
asI2
(lp828
Vhttp://www.w3.org/2000/01/rdf-schema#seeAlso
p829
aVhttp://dbpedia.org/property/origin
p830
aVhttp://dbpedia.org/property/stadium
p831
aVhttp://dbpedia.org/property/recorded
p832
aVhttp://dbpedia.org/property/broadcastArea
p833
aVhttp://dbpedia.org/ontology/origin
p834
aVhttp://dbpedia.org/property/conventionalLongName
p835
aVhttp://dbpedia.org/property/bases
p836
aVhttp://dbpedia.org/property/place
p837
aVhttp://dbpedia.org/ontology/jurisdiction
p838
aVhttp://dbpedia.org/ontology/foundationPlace
p839
aVhttp://dbpedia.org/property/city
p840
aVhttp://dbpedia.org/ontology/garrison
p841
aVhttp://dbpedia.org/ontology/longName
p842
aVhttp://dbpedia.org/property/legislature
p843
aVhttp://dbpedia.org/ontology/fastestDriverCountry
p844
aVhttp://dbpedia.org/property/footnoteB
p845
aVhttp://dbpedia.org/ontology/demonym
p846
aVhttp://dbpedia.org/ontology/officialLanguage
p847
aVhttp://dbpedia.org/ontology/regionServed
p848
aVhttp://dbpedia.org/ontology/country
p849
aVhttp://www.w3.org/1999/02/22-rdf-syntax-ns#type
p850
aVhttp://www.w3.org/2002/07/owl#differentFrom
p851
aVhttp://dbpedia.org/property/locationCountry
p852
aVhttp://dbpedia.org/ontology/secondDriverCountry
p853
aVhttp://dbpedia.org/property/allegiance
p854
aVhttp://dbpedia.org/property/site
p855
aVhttp://dbpedia.org/property/combatant
p856
aVhttp://dbpedia.org/property/country/region
p857
aVhttp://dbpedia.org/ontology/place
p858
aVhttp://dbpedia.org/property/placeOfBirth
p859
aVhttp://dbpedia.org/property/country
p860
aVhttp://dbpedia.org/property/shipCountry
p861
aVhttp://dbpedia.org/property/establishedEvent
p862
aVhttp://dbpedia.org/ontology/targetAirport
p863
aVhttp://purl.org/dc/terms/subject
p864
aVhttp://dbpedia.org/ontology/populationPlace
p865
aVhttp://dbpedia.org/ontology/abstract
p866
aVhttp://dbpedia.org/ontology/recordedIn
p867
aVhttp://dbpedia.org/ontology/firstDriverCountry
p868
aVhttp://dbpedia.org/property/location
p869
aVhttp://dbpedia.org/ontology/usingCountry
p870
aVhttp://dbpedia.org/property/states
p871
aVhttp://dbpedia.org/ontology/locationCountry
p872
aVhttp://dbpedia.org/ontology/headquarter
p873
aVhttp://dbpedia.org/ontology/city
p874
aVhttp://dbpedia.org/property/shipNamesake
p875
aVhttp://dbpedia.org/ontology/language
p876
aVhttp://dbpedia.org/property/officialLanguages
p877
aVhttp://dbpedia.org/property/basinCountries
p878
aVhttp://dbpedia.org/property/garrison
p879
aVhttp://dbpedia.org/ontology/location
p880
aVhttp://dbpedia.org/property/birthPlace
p881
aVhttp://dbpedia.org/ontology/birthPlace
p882
aVhttp://www.w3.org/2000/01/rdf-schema#comment
p883
aVhttp://dbpedia.org/ontology/wikiPageRedirects
p884
aVhttp://dbpedia.org/property/area
p885
aVhttp://dbpedia.org/ontology/hometown
p886
aVhttp://dbpedia.org/ontology/poleDriverCountry
p887
aVhttp://dbpedia.org/property/demonym
p888
aVhttp://dbpedia.org/property/areaServed
p889
aVhttp://dbpedia.org/property/headquarters
p890
aVhttp://dbpedia.org/property/regionServed
p891
aVhttp://dbpedia.org/ontology/spokenIn
p892
aVhttp://dbpedia.org/property/jurisdiction
p893
aVhttp://dbpedia.org/ontology/thirdDriverCountry
p894
aVhttp://dbpedia.org/property/remit
p895
aVhttp://dbpedia.org/property/observedby
p896
asI3
(lp897
sI4
(lp898
sI5
(lp899
ssI1
(dp900
I0
g657
sI1
(lp901
sI2
(lp902
sI3
(lp903
sI4
(lp904
sI5
(lp905
ssI2
(dp906
I0
g828
sI1
g902
sI2
(lp907
sI3
(lp908
sI4
(lp909
sI5
(lp910
ssI3
(dp911
I0
g897
sI1
g903
sI2
g908
sI3
(lp912
sI4
(lp913
sI5
(lp914
ssI4
(dp915
I0
g898
sI1
g904
sI2
g909
sI3
g913
sI4
(lp916
sI5
(lp917
ssI5
(dp918
I0
g899
sI1
g905
sI2
g910
sI3
g914
sI4
g917
sI5
(lp919
ssa(dp920
I0
(dp921
I0
(lp922
sI1
(lp923
Vhttp://www.w3.org/2000/01/rdf-schema#seeAlso
p924
aVhttp://dbpedia.org/property/origin
p925
aVhttp://dbpedia.org/property/recorded
p926
aVhttp://dbpedia.org/property/cctld
p927
aVhttp://dbpedia.org/ontology/foundationPlace
p928
aVhttp://dbpedia.org/property/base
p929
aVhttp://dbpedia.org/ontology/country
p930
aVhttp://dbpedia.org/ontology/nationality
p931
aVhttp://dbpedia.org/property/locationCountry
p932
aVhttp://dbpedia.org/property/broadcastArea
p933
aVhttp://dbpedia.org/property/subdivisionName
p934
aVhttp://dbpedia.org/ontology/isPartOf
p935
aVhttp://dbpedia.org/property/source
p936
aVhttp://dbpedia.org/property/birthPlace
p937
aVhttp://dbpedia.org/ontology/place
p938
aVhttp://dbpedia.org/property/placeOfBirth
p939
aVhttp://dbpedia.org/property/countryCode
p940
aVhttp://dbpedia.org/property/country
p941
aVhttp://dbpedia.org/property/shipCountry
p942
aVhttp://dbpedia.org/ontology/wikiPageDisambiguates
p943
aVhttp://dbpedia.org/ontology/wikiPageExternalLink
p944
aVhttp://dbpedia.org/property/iso3166code
p945
aVhttp://dbpedia.org/property/nationality
p946
aVhttp://dbpedia.org/ontology/abstract
p947
aVhttp://dbpedia.org/ontology/recordedIn
p948
aVhttp://dbpedia.org/property/deathPlace
p949
aVhttp://dbpedia.org/property/location
p950
aVhttp://dbpedia.org/ontology/locationCountry
p951
aVhttp://dbpedia.org/ontology/deathPlace
p952
aVhttp://dbpedia.org/property/foundation
p953
aVhttp://dbpedia.org/property/usedBy
p954
aVhttp://dbpedia.org/property/availability
p955
aVhttp://dbpedia.org/ontology/location
p956
aVhttp://dbpedia.org/property/headquarters
p957
aVhttp://www.w3.org/2000/01/rdf-schema#comment
p958
aVhttp://dbpedia.org/ontology/birthPlace
p959
aVhttp://dbpedia.org/ontology/wikiPageRedirects
p960
aVhttp://dbpedia.org/ontology/hometown
p961
aVhttp://www.w3.org/2004/02/skos/core#exactMatch
p962
aVhttp://www.w3.org/2002/07/owl#sameAs
p963
aVhttp://dbpedia.org/ontology/builder
p964
aVhttp://xmlns.com/foaf/0.1/homepage
p965
aVhttp://dbpedia.org/ontology/headquarter
p966
aVhttp://dbpedia.org/ontology/stateOfOrigin
p967
aVhttp://dbpedia.org/property/stadium
p968
aVhttp://dbpedia.org/property/id
p969
asI2
(lp970
Vhttp://www.w3.org/2000/01/rdf-schema#seeAlso
p971
aVhttp://dbpedia.org/property/origin
p972
aVhttp://dbpedia.org/ontology/origin
p973
aVhttp://dbpedia.org/property/place
p974
aVhttp://dbpedia.org/property/adminCenter
p975
aVhttp://dbpedia.org/property/footnoteC
p976
aVhttp://dbpedia.org/ontology/demonym
p977
aVhttp://dbpedia.org/ontology/officialLanguage
p978
aVhttp://dbpedia.org/ontology/country
p979
aVhttp://dbpedia.org/property/region
p980
aVhttp://www.w3.org/1999/02/22-rdf-syntax-ns#type
p981
aVhttp://www.w3.org/2002/07/owl#differentFrom
p982
aVhttp://dbpedia.org/property/footnoteD
p983
aVhttp://dbpedia.org/ontology/nationality
p984
aVhttp://dbpedia.org/property/birthPlace
p985
aVhttp://dbpedia.org/property/country/region
p986
aVhttp://dbpedia.org/ontology/place
p987
aVhttp://dbpedia.org/ontology/ethnicGroup
p988
aVhttp://dbpedia.org/property/locationSigned
p989
aVhttp://dbpedia.org/property/depositor
p990
aVhttp://dbpedia.org/property/country
p991
aVhttp://dbpedia.org/property/regionalLanguages
p992
aVhttp://dbpedia.org/ontology/regionalLanguage
p993
aVhttp://purl.org/dc/terms/subject
p994
aVhttp://dbpedia.org/ontology/populationPlace
p995
aVhttp://dbpedia.org/property/ideology
p996
aVhttp://dbpedia.org/ontology/abstract
p997
aVhttp://dbpedia.org/ontology/recordedIn
p998
aVhttp://dbpedia.org/property/venue
p999
aVhttp://dbpedia.org/property/location
p1000
aVhttp://dbpedia.org/property/states
p1001
aVhttp://dbpedia.org/ontology/headquarter
p1002
aVhttp://dbpedia.org/property/usedBy
p1003
aVhttp://dbpedia.org/ontology/language
p1004
aVhttp://dbpedia.org/ontology/location
p1005
aVhttp://dbpedia.org/property/officialLanguages
p1006
aVhttp://www.w3.org/2000/01/rdf-schema#comment
p1007
aVhttp://dbpedia.org/ontology/birthPlace
p1008
aVhttp://dbpedia.org/ontology/wikiPageRedirects
p1009
aVhttp://dbpedia.org/ontology/hometown
p1010
aVhttp://dbpedia.org/property/demonym
p1011
aVhttp://dbpedia.org/property/headquarters
p1012
aVhttp://dbpedia.org/ontology/spokenIn
p1013
aVhttp://dbpedia.org/ontology/stateOfOrigin
p1014
aVhttp://dbpedia.org/property/stadium
p1015
asI3
(lp1016
sI4
(lp1017
sI5
(lp1018
ssI1
(dp1019
I0
g923
sI1
(lp1020
sI2
(lp1021
Vhttp://www.w3.org/2000/01/rdf-schema#seeAlso
p1022
aVhttp://dbpedia.org/property/origin
p1023
aVhttp://dbpedia.org/ontology/origin
p1024
aVhttp://dbpedia.org/property/place
p1025
aVhttp://dbpedia.org/property/adminCenter
p1026
aVhttp://dbpedia.org/property/footnoteC
p1027
aVhttp://dbpedia.org/ontology/demonym
p1028
aVhttp://dbpedia.org/ontology/officialLanguage
p1029
aVhttp://dbpedia.org/ontology/country
p1030
aVhttp://dbpedia.org/property/region
p1031
aVhttp://www.w3.org/1999/02/22-rdf-syntax-ns#type
p1032
aVhttp://www.w3.org/2002/07/owl#differentFrom
p1033
aVhttp://dbpedia.org/property/footnoteD
p1034
aVhttp://dbpedia.org/ontology/nationality
p1035
aVhttp://dbpedia.org/property/birthPlace
p1036
aVhttp://dbpedia.org/property/country/region
p1037
aVhttp://dbpedia.org/ontology/place
p1038
aVhttp://dbpedia.org/ontology/ethnicGroup
p1039
aVhttp://dbpedia.org/property/locationSigned
p1040
aVhttp://dbpedia.org/property/depositor
p1041
aVhttp://dbpedia.org/property/country
p1042
aVhttp://dbpedia.org/property/regionalLanguages
p1043
aVhttp://dbpedia.org/ontology/regionalLanguage
p1044
aVhttp://purl.org/dc/terms/subject
p1045
aVhttp://dbpedia.org/ontology/populationPlace
p1046
aVhttp://dbpedia.org/property/ideology
p1047
aVhttp://dbpedia.org/ontology/abstract
p1048
aVhttp://dbpedia.org/ontology/recordedIn
p1049
aVhttp://dbpedia.org/property/venue
p1050
aVhttp://dbpedia.org/property/location
p1051
aVhttp://dbpedia.org/property/states
p1052
aVhttp://dbpedia.org/ontology/headquarter
p1053
aVhttp://dbpedia.org/property/usedBy
p1054
aVhttp://dbpedia.org/ontology/language
p1055
aVhttp://dbpedia.org/ontology/location
p1056
aVhttp://dbpedia.org/property/officialLanguages
p1057
aVhttp://www.w3.org/2000/01/rdf-schema#comment
p1058
aVhttp://dbpedia.org/ontology/birthPlace
p1059
aVhttp://dbpedia.org/ontology/wikiPageRedirects
p1060
aVhttp://dbpedia.org/ontology/hometown
p1061
aVhttp://dbpedia.org/property/demonym
p1062
aVhttp://dbpedia.org/property/headquarters
p1063
aVhttp://dbpedia.org/ontology/spokenIn
p1064
aVhttp://dbpedia.org/ontology/stateOfOrigin
p1065
aVhttp://dbpedia.org/property/stadium
p1066
asI3
(lp1067
sI4
(lp1068
sI5
(lp1069
ssI2
(dp1070
I0
g970
sI1
g1021
sI2
(lp1071
sI3
(lp1072
sI4
(lp1073
sI5
(lp1074
ssI3
(dp1075
I0
g1016
sI1
g1067
sI2
g1072
sI3
(lp1076
sI4
(lp1077
sI5
(lp1078
ssI4
(dp1079
I0
g1017
sI1
g1068
sI2
g1073
sI3
g1077
sI4
(lp1080
sI5
(lp1081
ssI5
(dp1082
I0
g1018
sI1
g1069
sI2
g1074
sI3
g1078
sI4
g1081
sI5
(lp1083
ssa(dp1084
I0
(dp1085
I0
(lp1086
sI1
(lp1087
Vhttp://dbpedia.org/property/placeOfDeath
p1088
aVhttp://dbpedia.org/property/cctld
p1089
aVhttp://dbpedia.org/property/place
p1090
aVhttp://dbpedia.org/property/patronage
p1091
aVhttp://dbpedia.org/ontology/country
p1092
aVhttp://dbpedia.org/property/locationCountry
p1093
aVhttp://dbpedia.org/property/patronSaint
p1094
aVhttp://dbpedia.org/property/birthPlace
p1095
aVhttp://dbpedia.org/ontology/place
p1096
aVhttp://dbpedia.org/property/placeOfBirth
p1097
aVhttp://dbpedia.org/property/owner
p1098
aVhttp://dbpedia.org/property/country
p1099
aVhttp://dbpedia.org/ontology/wikiPageDisambiguates
p1100
aVhttp://dbpedia.org/ontology/wikiPageExternalLink
p1101
aVhttp://dbpedia.org/ontology/residence
p1102
aVhttp://dbpedia.org/ontology/abstract
p1103
aVhttp://dbpedia.org/property/deathPlace
p1104
aVhttp://dbpedia.org/property/location
p1105
aVhttp://dbpedia.org/ontology/locationCountry
p1106
aVhttp://dbpedia.org/ontology/deathPlace
p1107
aVhttp://dbpedia.org/ontology/region
p1108
aVhttp://www.w3.org/2000/01/rdf-schema#comment
p1109
aVhttp://dbpedia.org/ontology/birthPlace
p1110
aVhttp://dbpedia.org/ontology/wikiPageRedirects
p1111
aVhttp://www.w3.org/2004/02/skos/core#exactMatch
p1112
aVhttp://xmlns.com/foaf/0.1/homepage
p1113
aVhttp://www.w3.org/2002/07/owl#sameAs
p1114
asI2
(lp1115
Vhttp://www.w3.org/2000/01/rdf-schema#seeAlso
p1116
aVhttp://dbpedia.org/property/origin
p1117
aVhttp://dbpedia.org/ontology/origin
p1118
aVhttp://dbpedia.org/property/conventionalLongName
p1119
aVhttp://dbpedia.org/ontology/garrison
p1120
aVhttp://dbpedia.org/ontology/longName
p1121
aVhttp://dbpedia.org/property/footnoteA
p1122
aVhttp://dbpedia.org/ontology/demonym
p1123
aVhttp://dbpedia.org/ontology/officialLanguage
p1124
aVhttp://dbpedia.org/ontology/country
p1125
aVhttp://dbpedia.org/property/region
p1126
aVhttp://www.w3.org/1999/02/22-rdf-syntax-ns#type
p1127
aVhttp://dbpedia.org/property/officialLanguages
p1128
aVhttp://dbpedia.org/property/birthPlace
p1129
aVhttp://dbpedia.org/ontology/place
p1130
aVhttp://dbpedia.org/ontology/ethnicGroup
p1131
aVhttp://dbpedia.org/property/country
p1132
aVhttp://dbpedia.org/property/shipCountry
p1133
aVhttp://dbpedia.org/property/establishedEvent
p1134
aVhttp://dbpedia.org/property/placeOfBirth
p1135
aVhttp://dbpedia.org/ontology/wikiPageExternalLink
p1136
aVhttp://purl.org/dc/terms/subject
p1137
aVhttp://dbpedia.org/ontology/abstract
p1138
aVhttp://dbpedia.org/ontology/spokenIn
p1139
aVhttp://dbpedia.org/property/location
p1140
aVhttp://dbpedia.org/ontology/usingCountry
p1141
aVhttp://dbpedia.org/property/states
p1142
aVhttp://dbpedia.org/ontology/headquarter
p1143
aVhttp://dbpedia.org/property/builder
p1144
aVhttp://dbpedia.org/ontology/language
p1145
aVhttp://dbpedia.org/ontology/location
p1146
aVhttp://dbpedia.org/property/garrison
p1147
aVhttp://dbpedia.org/property/headquarters
p1148
aVhttp://www.w3.org/2000/01/rdf-schema#comment
p1149
aVhttp://dbpedia.org/ontology/birthPlace
p1150
aVhttp://dbpedia.org/ontology/wikiPageRedirects
p1151
aVhttp://dbpedia.org/ontology/hometown
p1152
aVhttp://dbpedia.org/property/demonym
p1153
aVhttp://dbpedia.org/property/regionServed
p1154
aVhttp://dbpedia.org/property/jurisdiction
p1155
asI3
(lp1156
sI4
(lp1157
sI5
(lp1158
ssI1
(dp1159
I0
g1087
sI1
(lp1160
sI2
(lp1161
sI3
(lp1162
sI4
(lp1163
sI5
(lp1164
ssI2
(dp1165
I0
g1115
sI1
g1161
sI2
(lp1166
sI3
(lp1167
sI4
(lp1168
sI5
(lp1169
ssI3
(dp1170
I0
g1156
sI1
g1162
sI2
g1167
sI3
(lp1171
sI4
(lp1172
sI5
(lp1173
ssI4
(dp1174
I0
g1157
sI1
g1163
sI2
g1168
sI3
g1172
sI4
(lp1175
sI5
(lp1176
ssI5
(dp1177
I0
g1158
sI1
g1164
sI2
g1169
sI3
g1173
sI4
g1176
sI5
(lp1178
ssa(dp1179
I0
(dp1180
I0
(lp1181
sI1
(lp1182
Vhttp://dbpedia.org/property/origin
p1183
aVhttp://dbpedia.org/property/placeOfDeath
p1184
aVhttp://dbpedia.org/property/popularity
p1185
aVhttp://dbpedia.org/ontology/twinCountry
p1186
aVhttp://dbpedia.org/ontology/type
p1187
aVhttp://dbpedia.org/property/awardedBy
p1188
aVhttp://dbpedia.org/property/cctld
p1189
aVhttp://dbpedia.org/property/based
p1190
aVhttp://dbpedia.org/property/text
p1191
aVhttp://dbpedia.org/ontology/mouthCountry
p1192
aVhttp://dbpedia.org/property/areasServed
p1193
aVhttp://dbpedia.org/property/allegiance
p1194
aVhttp://dbpedia.org/ontology/wineRegion
p1195
aVhttp://dbpedia.org/ontology/garrison
p1196
aVhttp://dbpedia.org/ontology/knownFor
p1197
aVhttp://dbpedia.org/ontology/city
p1198
aVhttp://dbpedia.org/property/patronage
p1199
aVhttp://dbpedia.org/property/other
p1200
aVhttp://dbpedia.org/ontology/governmentType
p1201
aVhttp://dbpedia.org/property/focusCities
p1202
aVhttp://dbpedia.org/ontology/regionServed
p1203
aVhttp://dbpedia.org/property/dateOfBirth
p1204
aVhttp://dbpedia.org/ontology/canonizedPlace
p1205
aVhttp://dbpedia.org/property/city
p1206
aVhttp://dbpedia.org/property/arrestPlace
p1207
aVhttp://dbpedia.org/property/languagesSub
p1208
aVhttp://dbpedia.org/property/broadcastArea
p1209
aVhttp://dbpedia.org/property/assembly
p1210
aVhttp://dbpedia.org/ontology/subsequentWork
p1211
aVhttp://dbpedia.org/property/subdivisionName
p1212
aVhttp://dbpedia.org/ontology/isPartOf
p1213
aVhttp://dbpedia.org/ontology/nationality
p1214
aVhttp://dbpedia.org/property/shortDescription
p1215
aVhttp://dbpedia.org/property/placeOfBirth
p1216
aVhttp://dbpedia.org/ontology/currency
p1217
aVhttp://dbpedia.org/property/hometown
p1218
aVhttp://dbpedia.org/property/culturalOrigins
p1219
aVhttp://dbpedia.org/property/establishedEvent
p1220
aVhttp://dbpedia.org/property/languages2Sub
p1221
aVhttp://dbpedia.org/property/regionalScenes
p1222
aVhttp://dbpedia.org/property/siteCityst
p1223
aVhttp://dbpedia.org/property/office
p1224
aVhttp://dbpedia.org/property/primaryUser
p1225
aVhttp://dbpedia.org/ontology/residence
p1226
aVhttp://dbpedia.org/ontology/abstract
p1227
aVhttp://dbpedia.org/ontology/recordedIn
p1228
aVhttp://dbpedia.org/property/leaderName
p1229
aVhttp://dbpedia.org/property/languages2Type
p1230
aVhttp://dbpedia.org/property/sourceCountry
p1231
aVhttp://dbpedia.org/property/launchDate
p1232
aVhttp://dbpedia.org/ontology/philosophicalSchool
p1233
aVhttp://dbpedia.org/property/usedBy
p1234
aVhttp://dbpedia.org/property/shipNamesake
p1235
aVhttp://dbpedia.org/property/beatifiedPlace
p1236
aVhttp://dbpedia.org/ontology/billed
p1237
aVhttp://dbpedia.org/property/nationalOrigin
p1238
aVhttp://dbpedia.org/ontology/state
p1239
aVhttp://dbpedia.org/property/constituencyMp
p1240
aVhttp://dbpedia.org/property/shipBuilder
p1241
aVhttp://dbpedia.org/ontology/location
p1242
aVhttp://dbpedia.org/property/countries
p1243
aVhttp://dbpedia.org/property/subsid
p1244
aVhttp://dbpedia.org/property/iso3166code
p1245
aVhttp://dbpedia.org/property/finish
p1246
aVhttp://dbpedia.org/property/factory
p1247
aVhttp://dbpedia.org/property/area
p1248
aVhttp://dbpedia.org/ontology/hometown
p1249
aVhttp://dbpedia.org/property/alternateName
p1250
aVhttp://dbpedia.org/ontology/restingPlace
p1251
aVhttp://dbpedia.org/property/homecountry
p1252
aVhttp://dbpedia.org/ontology/successor
p1253
aVhttp://dbpedia.org/property/largestDistillery
p1254
aVhttp://dbpedia.org/property/foundingLocation
p1255
aVhttp://dbpedia.org/property/jurisdiction
p1256
aVhttp://dbpedia.org/property/leaderTitle
p1257
aVhttp://dbpedia.org/property/canonizedPlace
p1258
aVhttp://dbpedia.org/property/rd4t1Loc
p1259
aVhttp://www.w3.org/2000/01/rdf-schema#seeAlso
p1260
aVhttp://dbpedia.org/property/affiliation
p1261
aVhttp://dbpedia.org/property/school
p1262
aVhttp://dbpedia.org/ontology/citizenship
p1263
aVhttp://dbpedia.org/property/rd2t6Loc
p1264
aVhttp://dbpedia.org/property/sovereigntyType
p1265
aVhttp://dbpedia.org/property/birthDate
p1266
aVhttp://dbpedia.org/property/hostCity
p1267
aVhttp://dbpedia.org/property/deathDate
p1268
aVhttp://dbpedia.org/ontology/foundationPlace
p1269
aVhttp://dbpedia.org/property/countryOfOrigin
p1270
aVhttp://dbpedia.org/ontology/museum
p1271
aVhttp://dbpedia.org/property/base
p1272
aVhttp://dbpedia.org/property/mouthCountry
p1273
aVhttp://dbpedia.org/property/deathPlace
p1274
aVhttp://dbpedia.org/property/legislature
p1275
aVhttp://dbpedia.org/ontology/locatedInArea
p1276
aVhttp://dbpedia.org/property/rd2t3Loc
p1277
aVhttp://dbpedia.org/property/placeOfBurial
p1278
aVhttp://dbpedia.org/property/site
p1279
aVhttp://dbpedia.org/property/label
p1280
aVhttp://dbpedia.org/ontology/country
p1281
aVhttp://dbpedia.org/property/returns
p1282
aVhttp://dbpedia.org/property/territory
p1283
aVhttp://dbpedia.org/ontology/beatifiedPlace
p1284
aVhttp://dbpedia.org/property/rd2t5Loc
p1285
aVhttp://dbpedia.org/property/home
p1286
aVhttp://dbpedia.org/ontology/region
p1287
aVhttp://dbpedia.org/property/rd1t5Loc
p1288
aVhttp://dbpedia.org/property/garrison
p1289
aVhttp://dbpedia.org/property/discoverySite
p1290
aVhttp://dbpedia.org/property/countryOrigin
p1291
aVhttp://dbpedia.org/property/nationalteam
p1292
aVhttp://dbpedia.org/property/birthPlace
p1293
aVhttp://dbpedia.org/property/country/region
p1294
aVhttp://dbpedia.org/property/recLocation
p1295
aVhttp://dbpedia.org/property/rd1t7Loc
p1296
aVhttp://dbpedia.org/property/stateParty
p1297
aVhttp://dbpedia.org/property/country
p1298
aVhttp://dbpedia.org/property/nacionality
p1299
aVhttp://dbpedia.org/property/placeDiscovered
p1300
aVhttp://dbpedia.org/ontology/assembly
p1301
aVhttp://dbpedia.org/property/areaServed
p1302
aVhttp://dbpedia.org/property/areasAffected
p1303
aVhttp://dbpedia.org/ontology/wikiPageExternalLink
p1304
aVhttp://dbpedia.org/property/burialPlace
p1305
aVhttp://dbpedia.org/ontology/spokenIn
p1306
aVhttp://dbpedia.org/ontology/firstDriverCountry
p1307
aVhttp://dbpedia.org/property/worldPlaceQ
p1308
aVhttp://dbpedia.org/property/states
p1309
aVhttp://dbpedia.org/property/setIn
p1310
aVhttp://dbpedia.org/ontology/locationCountry
p1311
aVhttp://dbpedia.org/ontology/deathPlace
p1312
aVhttp://dbpedia.org/property/rd2t4Loc
p1313
aVhttp://dbpedia.org/property/language
p1314
aVhttp://dbpedia.org/ontology/releaseLocation
p1315
aVhttp://dbpedia.org/property/cityServed
p1316
aVhttp://dbpedia.org/property/participants
p1317
aVhttp://dbpedia.org/ontology/territory
p1318
aVhttp://dbpedia.org/property/north
p1319
aVhttp://dbpedia.org/property/headquarters
p1320
aVhttp://dbpedia.org/property/southeast
p1321
aVhttp://dbpedia.org/ontology/birthPlace
p1322
aVhttp://dbpedia.org/ontology/wikiPageRedirects
p1323
aVhttp://dbpedia.org/property/successor
p1324
aVhttp://dbpedia.org/property/aux
p1325
aVhttp://www.w3.org/2004/02/skos/core#exactMatch
p1326
aVhttp://dbpedia.org/property/citizenship
p1327
aVhttp://dbpedia.org/property/rd3t4Loc
p1328
aVhttp://dbpedia.org/property/host
p1329
aVhttp://dbpedia.org/ontology/stateOfOrigin
p1330
aVhttp://dbpedia.org/property/fifaTrigramme
p1331
aVhttp://dbpedia.org/property/south
p1332
aVhttp://dbpedia.org/property/timeZoneDst
p1333
aVhttp://dbpedia.org/property/stadium
p1334
aVhttp://dbpedia.org/property/education
p1335
aVhttp://dbpedia.org/property/recorded
p1336
aVhttp://dbpedia.org/ontology/majorShrine
p1337
aVhttp://dbpedia.org/property/locationCity
p1338
aVhttp://dbpedia.org/ontology/origin
p1339
aVhttp://dbpedia.org/property/blankInfoSec
p1340
aVhttp://dbpedia.org/property/today
p1341
aVhttp://dbpedia.org/property/worldPlace
p1342
aVhttp://dbpedia.org/property/residence
p1343
aVhttp://dbpedia.org/property/cityOrRegion
p1344
aVhttp://dbpedia.org/property/rd1t2Loc
p1345
aVhttp://dbpedia.org/property/foundation
p1346
aVhttp://dbpedia.org/ontology/significantBuilding
p1347
aVhttp://dbpedia.org/property/builder
p1348
aVhttp://dbpedia.org/property/billed
p1349
aVhttp://www.w3.org/1999/02/22-rdf-syntax-ns#type
p1350
aVhttp://dbpedia.org/ontology/award
p1351
aVhttp://dbpedia.org/property/rd3t3Loc
p1352
aVhttp://dbpedia.org/ontology/education
p1353
aVhttp://dbpedia.org/property/locationCountry
p1354
aVhttp://dbpedia.org/property/referee
p1355
aVhttp://dbpedia.org/property/majorShrine
p1356
aVhttp://dbpedia.org/ontology/ground
p1357
aVhttp://dbpedia.org/property/withdraws
p1358
aVhttp://dbpedia.org/property/source
p1359
aVhttp://dbpedia.org/property/lowerHouse
p1360
aVhttp://dbpedia.org/ontology/ethnicGroup
p1361
aVhttp://dbpedia.org/property/locationSigned
p1362
aVhttp://dbpedia.org/property/twin1Country
p1363
aVhttp://dbpedia.org/property/namedAfter
p1364
aVhttp://dbpedia.org/property/prevSeries
p1365
aVhttp://dbpedia.org/property/shipCountry
p1366
aVhttp://dbpedia.org/property/l
p1367
aVhttp://dbpedia.org/property/borders
p1368
aVhttp://dbpedia.org/property/restingPlace
p1369
aVhttp://dbpedia.org/property/ideology
p1370
aVhttp://dbpedia.org/ontology/countryOrigin
p1371
aVhttp://dbpedia.org/property/rd1t8Loc
p1372
aVhttp://dbpedia.org/property/headquarter
p1373
aVhttp://dbpedia.org/property/fightingOutOf
p1374
aVhttp://dbpedia.org/property/localScenes
p1375
aVhttp://dbpedia.org/property/observedby
p1376
aVhttp://dbpedia.org/property/rd2t7Loc
p1377
aVhttp://dbpedia.org/property/homeTown
p1378
aVhttp://dbpedia.org/property/fullname
p1379
aVhttp://dbpedia.org/property/availability
p1380
aVhttp://dbpedia.org/ontology/ethnicity
p1381
aVhttp://dbpedia.org/property/languages
p1382
aVhttp://dbpedia.org/property/rd1t3Loc
p1383
aVhttp://dbpedia.org/property/sourceConfluenceCountry
p1384
aVhttp://dbpedia.org/property/hostcity
p1385
aVhttp://dbpedia.org/property/meetingPlace
p1386
aVhttp://dbpedia.org/property/training
p1387
aVhttp://dbpedia.org/ontology/wikiPageDisambiguates
p1388
aVhttp://dbpedia.org/ontology/anthem
p1389
aVhttp://dbpedia.org/property/terrServ
p1390
aVhttp://dbpedia.org/ontology/poleDriverCountry
p1391
aVhttp://www.w3.org/2004/02/skos/core#subject
p1392
aVhttp://dbpedia.org/property/nat
p1393
aVhttp://dbpedia.org/ontology/broadcastArea
p1394
aVhttp://dbpedia.org/ontology/railwayRollingStock
p1395
aVhttp://dbpedia.org/property/founded
p1396
aVhttp://dbpedia.org/property/rd5t1Loc
p1397
aVhttp://dbpedia.org/property/disappearedPlace
p1398
aVhttp://dbpedia.org/property/rd4t2Loc
p1399
aVhttp://dbpedia.org/ontology/countryWithFirstAstronaut
p1400
aVhttp://dbpedia.org/property/almaMater
p1401
aVhttp://dbpedia.org/property/ground
p1402
aVhttp://dbpedia.org/property/ethnicity
p1403
aVhttp://dbpedia.org/property/place
p1404
aVhttp://dbpedia.org/property/debuts
p1405
aVhttp://dbpedia.org/ontology/jurisdiction
p1406
aVhttp://dbpedia.org/property/col
p1407
aVhttp://dbpedia.org/property/caption
p1408
aVhttp://dbpedia.org/ontology/battle
p1409
aVhttp://dbpedia.org/ontology/secondDriverCountry
p1410
aVhttp://www.w3.org/2002/07/owl#differentFrom
p1411
aVhttp://dbpedia.org/ontology/locationCity
p1412
aVhttp://dbpedia.org/property/team
p1413
aVhttp://dbpedia.org/property/asianPlaceQ
p1414
aVhttp://dbpedia.org/property/alternativeNames
p1415
aVhttp://dbpedia.org/ontology/nearestCity
p1416
aVhttp://dbpedia.org/ontology/sourceCountry
p1417
aVhttp://dbpedia.org/property/mouth
p1418
aVhttp://dbpedia.org/property/upperHouse
p1419
aVhttp://dbpedia.org/property/locations
p1420
aVhttp://dbpedia.org/property/membership
p1421
aVhttp://dbpedia.org/property/locationOfDocument
p1422
aVhttp://dbpedia.org/property/available
p1423
aVhttp://dbpedia.org/property/combatant
p1424
aVhttp://dbpedia.org/property/after
p1425
aVhttp://dbpedia.org/ontology/place
p1426
aVhttp://dbpedia.org/property/asianPlaceF
p1427
aVhttp://dbpedia.org/property/nationality
p1428
aVhttp://dbpedia.org/property/demonym
p1429
aVhttp://dbpedia.org/property/rd1t4Loc
p1430
aVhttp://dbpedia.org/property/nearestCity
p1431
aVhttp://dbpedia.org/property/museum
p1432
aVhttp://dbpedia.org/property/minority
p1433
aVhttp://dbpedia.org/ontology/ideology
p1434
aVhttp://dbpedia.org/property/southwest
p1435
aVhttp://purl.org/dc/terms/subject
p1436
aVhttp://dbpedia.org/ontology/populationPlace
p1437
aVhttp://dbpedia.org/property/manufacturer
p1438
aVhttp://dbpedia.org/property/rd2t2Loc
p1439
aVhttp://dbpedia.org/property/venue
p1440
aVhttp://dbpedia.org/property/state
p1441
aVhttp://dbpedia.org/property/imageCoat
p1442
aVhttp://dbpedia.org/property/region
p1443
aVhttp://dbpedia.org/property/designation1Free1value
p1444
aVhttp://dbpedia.org/property/regions
p1445
aVhttp://dbpedia.org/property/rd3t2Loc
p1446
aVhttp://dbpedia.org/ontology/headquarter
p1447
aVhttp://dbpedia.org/property/stopover
p1448
aVhttp://dbpedia.org/ontology/leader
p1449
aVhttp://dbpedia.org/property/rd1t6Loc
p1450
aVhttp://dbpedia.org/property/worldPlaceF
p1451
aVhttp://www.w3.org/2000/01/rdf-schema#label
p1452
aVhttp://dbpedia.org/property/controlledby
p1453
aVhttp://dbpedia.org/ontology/language
p1454
aVhttp://dbpedia.org/property/title
p1455
aVhttp://dbpedia.org/property/locale
p1456
aVhttp://dbpedia.org/property/basinCountries
p1457
aVhttp://dbpedia.org/property/asianPlace
p1458
aVhttp://dbpedia.org/property/moreUsers
p1459
aVhttp://dbpedia.org/property/rd2t1Loc
p1460
aVhttp://www.w3.org/2000/01/rdf-schema#comment
p1461
aVhttp://dbpedia.org/ontology/timeZone
p1462
aVhttp://dbpedia.org/property/location
p1463
aVhttp://dbpedia.org/property/northwest
p1464
aVhttp://dbpedia.org/property/olympicPlace
p1465
aVhttp://dbpedia.org/property/seat
p1466
aVhttp://dbpedia.org/property/rd1t1Loc
p1467
aVhttp://dbpedia.org/property/rd3t1Loc
p1468
aVhttp://dbpedia.org/property/callingCode
p1469
aVhttp://www.w3.org/2002/07/owl#sameAs
p1470
aVhttp://dbpedia.org/property/regionServed
p1471
aVhttp://dbpedia.org/ontology/builder
p1472
aVhttp://dbpedia.org/property/west
p1473
aVhttp://dbpedia.org/property/data
p1474
aVhttp://dbpedia.org/property/buried
p1475
aVhttp://dbpedia.org/ontology/occupation
p1476
asI2
(lp1477
Vhttp://www.w3.org/2000/01/rdf-schema#seeAlso
p1478
aVhttp://dbpedia.org/property/origin
p1479
aVhttp://dbpedia.org/ontology/poleDriverCountry
p1480
aVhttp://dbpedia.org/ontology/demonym
p1481
aVhttp://dbpedia.org/property/demonym
p1482
aVhttp://dbpedia.org/ontology/country
p1483
aVhttp://www.w3.org/1999/02/22-rdf-syntax-ns#type
p1484
aVhttp://dbpedia.org/property/locationCountry
p1485
aVhttp://dbpedia.org/ontology/secondDriverCountry
p1486
aVhttp://dbpedia.org/property/allegiance
p1487
aVhttp://dbpedia.org/property/birthPlace
p1488
aVhttp://dbpedia.org/ontology/place
p1489
aVhttp://dbpedia.org/ontology/ethnicGroup
p1490
aVhttp://dbpedia.org/property/office
p1491
aVhttp://dbpedia.org/property/garrison
p1492
aVhttp://dbpedia.org/property/country
p1493
aVhttp://dbpedia.org/property/shipCountry
p1494
aVhttp://dbpedia.org/property/areaServed
p1495
aVhttp://dbpedia.org/property/placeOfBirth
p1496
aVhttp://dbpedia.org/ontology/ideology
p1497
aVhttp://purl.org/dc/terms/subject
p1498
aVhttp://dbpedia.org/property/ideology
p1499
aVhttp://dbpedia.org/ontology/abstract
p1500
aVhttp://dbpedia.org/ontology/firstDriverCountry
p1501
aVhttp://dbpedia.org/property/location
p1502
aVhttp://dbpedia.org/property/states
p1503
aVhttp://dbpedia.org/ontology/locationCountry
p1504
aVhttp://dbpedia.org/ontology/headquarter
p1505
aVhttp://dbpedia.org/ontology/language
p1506
aVhttp://dbpedia.org/ontology/location
p1507
aVhttp://dbpedia.org/property/languages
p1508
aVhttp://dbpedia.org/ontology/territory
p1509
aVhttp://dbpedia.org/property/shipBuilder
p1510
aVhttp://dbpedia.org/property/headquarters
p1511
aVhttp://www.w3.org/2000/01/rdf-schema#comment
p1512
aVhttp://dbpedia.org/ontology/birthPlace
p1513
aVhttp://dbpedia.org/ontology/wikiPageRedirects
p1514
aVhttp://dbpedia.org/ontology/hometown
p1515
aVhttp://dbpedia.org/ontology/garrison
p1516
aVhttp://dbpedia.org/property/locationCity
p1517
aVhttp://dbpedia.org/ontology/spokenIn
p1518
aVhttp://dbpedia.org/ontology/builder
p1519
aVhttp://dbpedia.org/property/jurisdiction
p1520
aVhttp://dbpedia.org/ontology/locationCity
p1521
aVhttp://dbpedia.org/ontology/deathPlace
p1522
asI3
(lp1523
Vhttp://dbpedia.org/ontology/country
p1524
aVhttp://dbpedia.org/property/basinCountries
p1525
aVhttp://dbpedia.org/property/country
p1526
asI4
(lp1527
sI5
(lp1528
ssI1
(dp1529
I0
g1182
sI1
(lp1530
sI2
(lp1531
sI3
(lp1532
sI4
(lp1533
sI5
(lp1534
ssI2
(dp1535
I0
g1477
sI1
g1531
sI2
(lp1536
sI3
(lp1537
sI4
(lp1538
sI5
(lp1539
ssI3
(dp1540
I0
g1523
sI1
g1532
sI2
g1537
sI3
(lp1541
sI4
(lp1542
sI5
(lp1543
ssI4
(dp1544
I0
g1527
sI1
g1533
sI2
g1538
sI3
g1542
sI4
(lp1545
sI5
(lp1546
ssI5
(dp1547
I0
g1528
sI1
g1534
sI2
g1539
sI3
g1543
sI4
g1546
sI5
(lp1548
ssa.