(lp1
(lp2
(lp3
a(lp4
a(lp5
a(lp6
a(lp7
aa(lp8
(lp9
a(lp10
a(lp11
a(lp12
a(lp13
aa(lp14
(lp15
a(lp16
a(lp17
a(lp18
a(lp19
aa(lp20
(lp21
a(lp22
a(lp23
a(lp24
a(lp25
aa(lp26
(lp27
a(lp28
a(lp29
a(lp30
a(lp31
aa(lp32
(lp33
a(lp34
a(lp35
a(lp36
a(lp37
aa(lp38
(lp39
a(lp40
a(lp41
a(lp42
a(lp43
aa(lp44
(lp45
a(lp46
a(lp47
a(lp48
a(lp49
aa(lp50
(lp51
a(lp52
a(lp53
a(lp54
a(lp55
aa(lp56
(lp57
a(lp58
a(lp59
a(lp60
a(lp61
aa(lp62
(lp63
a(lp64
a(lp65
a(lp66
a(lp67
aa(lp68
(lp69
a(lp70
a(lp71
a(lp72
a(lp73
aa(lp74
(lp75
a(lp76
a(lp77
a(lp78
a(lp79
aa(lp80
(lp81
a(lp82
a(lp83
a(lp84
a(lp85
aa(lp86
(lp87
a(lp88
a(lp89
a(lp90
a(lp91
aa(lp92
(lp93
a(lp94
((lp95
Vhttp://www.w3.org/2002/07/owl#Thing
p96
aVhttp://dbpedia.org/ontology/Place
p97
aVhttp://dbpedia.org/ontology/Location
p98
aVhttp://www.wikidata.org/entity/Q8502
p99
aVhttp://dbpedia.org/ontology/Mountain
p100
aVhttp://dbpedia.org/ontology/NaturalPlace
p101
aVhttp://www.w3.org/2003/01/geo/wgs84_pos#SpatialThing
p102
aVhttp://schema.org/Mountain
p103
aVhttp://schema.org/Place
p104
aVhttp://dbpedia.org/class/yago/GeologicalFormation109287968
p105
aVhttp://dbpedia.org/class/yago/Mountain109359803
p106
aVhttp://dbpedia.org/class/yago/Object100002684
p107
aVhttp://dbpedia.org/class/yago/YagoGeoEntity
p108
aVhttp://dbpedia.org/class/yago/PhysicalEntity100001930
p109
aVhttp://dbpedia.org/class/yago/YagoPermanentlyLocatedEntity
p110
aVhttp://dbpedia.org/class/yago/NaturalElevation109366317
p111
aVhttp://dbpedia.org/class/yago/MountainsOfSwitzerland
p112
aVhttp://dbpedia.org/class/yago/MountainsOfTheAlps
p113
aVhttp://dbpedia.org/resource/Pizzo_del_Ramulazz
p114
tp115
aa(lp116
a(lp117
a(lp118
aa(lp119
(lp120
a(lp121
a(lp122
a(lp123
a(lp124
aa(lp125
(lp126
a(lp127
a(lp128
a(lp129
a(lp130
aa(lp131
(lp132
a(lp133
a(lp134
a(lp135
a(lp136
aa(lp137
(lp138
a(lp139
a(lp140
a(lp141
a(lp142
aa.