(lp1
(lp2
(lp3
a(lp4
((lp5
Vhttp://www.w3.org/2002/07/owl#Thing
p6
aVhttp://www.ontologydesignpatterns.org/ont/dul/DUL.owl#Agent
p7
aVhttp://www.ontologydesignpatterns.org/ont/dul/DUL.owl#SocialPerson
p8
aVhttp://www.wikidata.org/entity/Q141683
p9
aVhttp://www.wikidata.org/entity/Q15265344
p10
aVhttp://www.wikidata.org/entity/Q43229
p11
aVhttp://dbpedia.org/ontology/Agent
p12
aVhttp://dbpedia.org/ontology/BroadcastNetwork
p13
aVhttp://dbpedia.org/ontology/Broadcaster
p14
aVhttp://dbpedia.org/ontology/Organisation
p15
aVhttp://schema.org/Organization
p16
aVhttp://dbpedia.org/resource/PBS
tp17
aa(lp18
((lp19
Vhttp://www.w3.org/2002/07/owl#Thing
p20
aVhttp://dbpedia.org/ontology/Company
p21
aVhttp://www.ontologydesignpatterns.org/ont/dul/DUL.owl#Agent
p22
aVhttp://www.ontologydesignpatterns.org/ont/dul/DUL.owl#SocialPerson
p23
aVhttp://www.wikidata.org/entity/Q43229
p24
aVhttp://dbpedia.org/ontology/Agent
p25
aVhttp://dbpedia.org/ontology/Organisation
p26
aVhttp://schema.org/Organization
p27
aVhttp://dbpedia.org/class/yago/Abstraction100002137
p28
aVhttp://dbpedia.org/class/yago/Company108058098
p29
aVhttp://dbpedia.org/class/yago/Group100031264
p30
aVhttp://dbpedia.org/class/yago/Institution108053576
p31
aVhttp://dbpedia.org/class/yago/Organization108008335
p32
aVhttp://dbpedia.org/class/yago/SocialGroup107950920
p33
aVhttp://dbpedia.org/class/yago/YagoLegalActorGeo
p34
aVhttp://dbpedia.org/class/yago/ComputerCompaniesOfTheUnitedKingdom
p35
aVhttp://dbpedia.org/class/yago/EngineeringCompaniesOfTheUnitedKingdom
p36
aVhttp://dbpedia.org/class/yago/YagoPermanentlyLocatedEntity
p37
aVhttp://dbpedia.org/class/yago/YagoLegalActor
p38
aVhttp://dbpedia.org/resource/Marconi_Communications
tp39
aa(lp40
a(lp41
a(lp42
((lp43
Vhttp://dbpedia.org/class/yago/Abstraction100002137
p44
aVhttp://dbpedia.org/class/yago/Company108058098
p45
aVhttp://dbpedia.org/class/yago/Group100031264
p46
aVhttp://dbpedia.org/class/yago/Institution108053576
p47
aVhttp://dbpedia.org/class/yago/Organization108008335
p48
aVhttp://dbpedia.org/class/yago/SocialGroup107950920
p49
aVhttp://dbpedia.org/class/yago/YagoLegalActorGeo
p50
aVhttp://dbpedia.org/class/yago/YagoPermanentlyLocatedEntity
p51
aVhttp://dbpedia.org/class/yago/YagoLegalActor
p52
aVhttp://dbpedia.org/class/yago/TheatreCompaniesInEngland
p53
aVhttp://dbpedia.org/resource/Analogue_(theatre_company)
tp54
aaa(lp55
(lp56
a(lp57
((lp58
Vhttp://www.w3.org/2002/07/owl#Thing
p59
aVhttp://dbpedia.org/ontology/Place
p60
aVhttp://dbpedia.org/ontology/Location
p61
aVhttp://www.wikidata.org/entity/Q486972
p62
aVhttp://www.wikidata.org/entity/Q6256
p63
aVhttp://dbpedia.org/ontology/Country
p64
aVhttp://dbpedia.org/ontology/PopulatedPlace
p65
aVhttp://www.w3.org/2003/01/geo/wgs84_pos#SpatialThing
p66
aVhttp://schema.org/Country
p67
aVhttp://schema.org/Place
p68
aVhttp://umbel.org/umbel/rc/Country
p69
aVhttp://umbel.org/umbel/rc/Location_Underspecified
p70
aVhttp://umbel.org/umbel/rc/PopulatedPlace
p71
aVhttp://dbpedia.org/class/yago/Abstraction100002137
p72
aVhttp://dbpedia.org/class/yago/AdministrativeDistrict108491826
p73
aVhttp://dbpedia.org/class/yago/Country108544813
p74
aVhttp://dbpedia.org/class/yago/District108552138
p75
aVhttp://dbpedia.org/class/yago/Economy108366753
p76
aVhttp://dbpedia.org/class/yago/Group100031264
p77
aVhttp://dbpedia.org/class/yago/Location100027167
p78
aVhttp://dbpedia.org/class/yago/Object100002684
p79
aVhttp://dbpedia.org/class/yago/Region108630985
p80
aVhttp://dbpedia.org/class/yago/System108435388
p81
aVhttp://dbpedia.org/class/yago/YagoGeoEntity
p82
aVhttp://dbpedia.org/class/yago/YagoLegalActorGeo
p83
aVhttp://dbpedia.org/class/yago/CountriesOfTheIndianOcean
p84
aVhttp://dbpedia.org/class/yago/FederalCountries
p85
aVhttp://dbpedia.org/class/yago/PhysicalEntity100001930
p86
aVhttp://dbpedia.org/class/yago/YagoPermanentlyLocatedEntity
p87
aVhttp://dbpedia.org/class/yago/MemberStatesOfTheCommonwealthOfNations
p88
aVhttp://dbpedia.org/class/yago/MemberStatesOfTheSouthAsianAssociationForRegionalCooperation
p89
aVhttp://dbpedia.org/class/yago/MemberStatesOfTheUnitedNations
p90
aVhttp://dbpedia.org/class/yago/SouthAsianCountries
p91
aVhttp://dbpedia.org/class/yago/StatesAndTerritoriesEstablishedIn1947
p92
aVhttp://dbpedia.org/class/yago/WorldTradeOrganizationMemberEconomies
p93
aVhttp://dbpedia.org/resource/India
tp94
aa(lp95
((lp96
Vhttp://www.w3.org/2002/07/owl#Thing
p97
aVhttp://www.ontologydesignpatterns.org/ont/dul/DUL.owl#Agent
p98
aVhttp://www.ontologydesignpatterns.org/ont/dul/DUL.owl#SocialPerson
p99
aVhttp://www.wikidata.org/entity/Q15265344
p100
aVhttp://www.wikidata.org/entity/Q43229
p101
aVhttp://dbpedia.org/ontology/Agent
p102
aVhttp://dbpedia.org/ontology/Broadcaster
p103
aVhttp://dbpedia.org/ontology/Organisation
p104
aVhttp://dbpedia.org/ontology/TelevisionStation
p105
aVhttp://schema.org/Organization
p106
aVhttp://schema.org/TelevisionStation
p107
aVhttp://umbel.org/umbel/rc/Business
p108
aVhttp://dbpedia.org/class/yago/Artifact100021939
p109
aVhttp://dbpedia.org/class/yago/BroadcastingStation102903405
p110
aVhttp://dbpedia.org/class/yago/Channel103006398
p111
aVhttp://dbpedia.org/class/yago/Facility103315023
p112
aVhttp://dbpedia.org/class/yago/Object100002684
p113
aVhttp://dbpedia.org/class/yago/Station104306080
p114
aVhttp://dbpedia.org/class/yago/TelevisionStation104406350
p115
aVhttp://dbpedia.org/class/yago/Whole100003553
p116
aVhttp://dbpedia.org/class/yago/YagoGeoEntity
p117
aVhttp://dbpedia.org/class/yago/Channel45DigitalTVStationsInTheUnitedStates
p118
aVhttp://dbpedia.org/class/yago/PhysicalEntity100001930
p119
aVhttp://dbpedia.org/class/yago/YagoPermanentlyLocatedEntity
p120
aVhttp://dbpedia.org/class/yago/TelevisionChannelsAndStationsEstablishedIn1990
p121
aVhttp://dbpedia.org/class/yago/TelevisionStationsInGeorgia(U.S.State)
p122
aVhttp://dbpedia.org/resource/WGNM
tp123
aa(lp124
a(lp125
a(lp126
((lp127
Vhttp://dbpedia.org/class/yago/Abstraction100002137
p128
aVhttp://dbpedia.org/class/yago/Company108058098
p129
aVhttp://dbpedia.org/class/yago/Group100031264
p130
aVhttp://dbpedia.org/class/yago/Institution108053576
p131
aVhttp://dbpedia.org/class/yago/Organization108008335
p132
aVhttp://dbpedia.org/class/yago/SocialGroup107950920
p133
aVhttp://dbpedia.org/class/yago/YagoLegalActorGeo
p134
aVhttp://dbpedia.org/class/yago/YagoPermanentlyLocatedEntity
p135
aVhttp://dbpedia.org/class/yago/YagoLegalActor
p136
aVhttp://dbpedia.org/class/yago/TheatreCompaniesInEngland
p137
aVhttp://dbpedia.org/resource/Analogue_(theatre_company)
tp138
aaa(lp139
(lp140
a(lp141
((lp142
Vhttp://www.w3.org/2002/07/owl#Thing
p143
aVhttp://www.ontologydesignpatterns.org/ont/dul/DUL.owl#Agent
p144
aVhttp://www.ontologydesignpatterns.org/ont/dul/DUL.owl#SocialPerson
p145
aVhttp://www.wikidata.org/entity/Q141683
p146
aVhttp://www.wikidata.org/entity/Q15265344
p147
aVhttp://www.wikidata.org/entity/Q43229
p148
aVhttp://dbpedia.org/ontology/Agent
p149
aVhttp://dbpedia.org/ontology/BroadcastNetwork
p150
aVhttp://dbpedia.org/ontology/Broadcaster
p151
aVhttp://dbpedia.org/ontology/Organisation
p152
aVhttp://schema.org/Organization
p153
aVhttp://umbel.org/umbel/rc/Business
p154
aVhttp://umbel.org/umbel/rc/Organization
p155
aVhttp://dbpedia.org/class/yago/Abstraction100002137
p156
aVhttp://dbpedia.org/class/yago/Company108058098
p157
aVhttp://dbpedia.org/class/yago/Group100031264
p158
aVhttp://dbpedia.org/class/yago/Institution108053576
p159
aVhttp://dbpedia.org/class/yago/Organization108008335
p160
aVhttp://dbpedia.org/class/yago/SocialGroup107950920
p161
aVhttp://dbpedia.org/class/yago/SubsidiaryCompany108003935
p162
aVhttp://dbpedia.org/class/yago/YagoLegalActorGeo
p163
aVhttp://dbpedia.org/class/yago/YagoPermanentlyLocatedEntity
p164
aVhttp://dbpedia.org/class/yago/NewsCorporationSubsidiaries
p165
aVhttp://dbpedia.org/class/yago/YagoLegalActor
p166
aVhttp://dbpedia.org/resource/Fox_Broadcasting_Company
tp167
aa(lp168
((lp169
Vhttp://www.w3.org/2002/07/owl#Thing
p170
aVhttp://www.ontologydesignpatterns.org/ont/dul/DUL.owl#Agent
p171
aVhttp://www.ontologydesignpatterns.org/ont/dul/DUL.owl#SocialPerson
p172
aVhttp://www.wikidata.org/entity/Q15265344
p173
aVhttp://www.wikidata.org/entity/Q43229
p174
aVhttp://dbpedia.org/ontology/Agent
p175
aVhttp://dbpedia.org/ontology/Broadcaster
p176
aVhttp://dbpedia.org/ontology/Organisation
p177
aVhttp://dbpedia.org/ontology/TelevisionStation
p178
aVhttp://schema.org/Organization
p179
aVhttp://schema.org/TelevisionStation
p180
aVhttp://umbel.org/umbel/rc/Business
p181
aVhttp://dbpedia.org/class/yago/Artifact100021939
p182
aVhttp://dbpedia.org/class/yago/BroadcastingStation102903405
p183
aVhttp://dbpedia.org/class/yago/Channel103006398
p184
aVhttp://dbpedia.org/class/yago/Facility103315023
p185
aVhttp://dbpedia.org/class/yago/Object100002684
p186
aVhttp://dbpedia.org/class/yago/Station104306080
p187
aVhttp://dbpedia.org/class/yago/TelevisionStation104406350
p188
aVhttp://dbpedia.org/class/yago/Whole100003553
p189
aVhttp://dbpedia.org/class/yago/YagoGeoEntity
p190
aVhttp://dbpedia.org/class/yago/Channel16DigitalTVStationsInTheUnitedStates
p191
aVhttp://dbpedia.org/class/yago/Channel24VirtualTVStationsInTheUnitedStates
p192
aVhttp://dbpedia.org/class/yago/PhysicalEntity100001930
p193
aVhttp://dbpedia.org/class/yago/YagoPermanentlyLocatedEntity
p194
aVhttp://dbpedia.org/class/yago/TelevisionChannelsAndStationsEstablishedIn1982
p195
aVhttp://dbpedia.org/class/yago/TelevisionStationsInGeorgia(U.S.State)
p196
aVhttp://dbpedia.org/resource/WGXA
tp197
aa(lp198
a(lp199
a(lp200
((lp201
Vhttp://dbpedia.org/class/yago/Abstraction100002137
p202
aVhttp://dbpedia.org/class/yago/Company108058098
p203
aVhttp://dbpedia.org/class/yago/Group100031264
p204
aVhttp://dbpedia.org/class/yago/Institution108053576
p205
aVhttp://dbpedia.org/class/yago/Organization108008335
p206
aVhttp://dbpedia.org/class/yago/SocialGroup107950920
p207
aVhttp://dbpedia.org/class/yago/YagoLegalActorGeo
p208
aVhttp://dbpedia.org/class/yago/YagoPermanentlyLocatedEntity
p209
aVhttp://dbpedia.org/class/yago/YagoLegalActor
p210
aVhttp://dbpedia.org/class/yago/TheatreCompaniesInEngland
p211
aVhttp://dbpedia.org/resource/Analogue_(theatre_company)
tp212
aaa(lp213
(lp214
a(lp215
((lp216
Vhttp://www.w3.org/2002/07/owl#Thing
p217
aVhttp://www.ontologydesignpatterns.org/ont/dul/DUL.owl#Agent
p218
aVhttp://www.ontologydesignpatterns.org/ont/dul/DUL.owl#SocialPerson
p219
aVhttp://www.wikidata.org/entity/Q141683
p220
aVhttp://www.wikidata.org/entity/Q15265344
p221
aVhttp://www.wikidata.org/entity/Q43229
p222
aVhttp://dbpedia.org/ontology/Agent
p223
aVhttp://dbpedia.org/ontology/BroadcastNetwork
p224
aVhttp://dbpedia.org/ontology/Broadcaster
p225
aVhttp://dbpedia.org/ontology/Organisation
p226
aVhttp://schema.org/Organization
p227
aVhttp://umbel.org/umbel/rc/Business
p228
aVhttp://umbel.org/umbel/rc/Organization
p229
aVhttp://dbpedia.org/class/yago/Abstraction100002137
p230
aVhttp://dbpedia.org/class/yago/CBSCorporationSubsidiaries
p231
aVhttp://dbpedia.org/class/yago/Company108058098
p232
aVhttp://dbpedia.org/class/yago/Group100031264
p233
aVhttp://dbpedia.org/class/yago/Institution108053576
p234
aVhttp://dbpedia.org/class/yago/Organization108008335
p235
aVhttp://dbpedia.org/class/yago/SocialGroup107950920
p236
aVhttp://dbpedia.org/class/yago/SubsidiaryCompany108003935
p237
aVhttp://dbpedia.org/class/yago/YagoLegalActorGeo
p238
aVhttp://dbpedia.org/class/yago/CompaniesEstablishedIn1927
p239
aVhttp://dbpedia.org/class/yago/YagoPermanentlyLocatedEntity
p240
aVhttp://dbpedia.org/class/yago/YagoLegalActor
p241
aVhttp://dbpedia.org/resource/CBS
tp242
aa(lp243
((lp244
Vhttp://www.w3.org/2002/07/owl#Thing
p245
aVhttp://www.ontologydesignpatterns.org/ont/dul/DUL.owl#Agent
p246
aVhttp://www.ontologydesignpatterns.org/ont/dul/DUL.owl#SocialPerson
p247
aVhttp://www.wikidata.org/entity/Q15265344
p248
aVhttp://www.wikidata.org/entity/Q43229
p249
aVhttp://dbpedia.org/ontology/Agent
p250
aVhttp://dbpedia.org/ontology/Broadcaster
p251
aVhttp://dbpedia.org/ontology/Organisation
p252
aVhttp://dbpedia.org/ontology/TelevisionStation
p253
aVhttp://schema.org/Organization
p254
aVhttp://schema.org/TelevisionStation
p255
aVhttp://umbel.org/umbel/rc/Business
p256
aVhttp://dbpedia.org/class/yago/Artifact100021939
p257
aVhttp://dbpedia.org/class/yago/BroadcastingStation102903405
p258
aVhttp://dbpedia.org/class/yago/Channel103006398
p259
aVhttp://dbpedia.org/class/yago/Facility103315023
p260
aVhttp://dbpedia.org/class/yago/Object100002684
p261
aVhttp://dbpedia.org/class/yago/Station104306080
p262
aVhttp://dbpedia.org/class/yago/TelevisionStation104406350
p263
aVhttp://dbpedia.org/class/yago/Whole100003553
p264
aVhttp://dbpedia.org/class/yago/YagoGeoEntity
p265
aVhttp://dbpedia.org/class/yago/Channel13DigitalTVStationsInTheUnitedStates
p266
aVhttp://dbpedia.org/class/yago/PhysicalEntity100001930
p267
aVhttp://dbpedia.org/class/yago/YagoPermanentlyLocatedEntity
p268
aVhttp://dbpedia.org/class/yago/TelevisionChannelsAndStationsEstablishedIn1953
p269
aVhttp://dbpedia.org/class/yago/TelevisionStationsInGeorgia(U.S.State)
p270
aVhttp://dbpedia.org/resource/WMAZ-TV
tp271
aa(lp272
a(lp273
a(lp274
((lp275
Vhttp://dbpedia.org/class/yago/Abstraction100002137
p276
aVhttp://dbpedia.org/class/yago/Company108058098
p277
aVhttp://dbpedia.org/class/yago/Group100031264
p278
aVhttp://dbpedia.org/class/yago/Institution108053576
p279
aVhttp://dbpedia.org/class/yago/Organization108008335
p280
aVhttp://dbpedia.org/class/yago/SocialGroup107950920
p281
aVhttp://dbpedia.org/class/yago/YagoLegalActorGeo
p282
aVhttp://dbpedia.org/class/yago/YagoPermanentlyLocatedEntity
p283
aVhttp://dbpedia.org/class/yago/YagoLegalActor
p284
aVhttp://dbpedia.org/class/yago/TheatreCompaniesInEngland
p285
aVhttp://dbpedia.org/resource/Analogue_(theatre_company)
tp286
aaa(lp287
(lp288
a(lp289
((lp290
Vhttp://www.w3.org/2002/07/owl#Thing
p291
aVhttp://www.ontologydesignpatterns.org/ont/dul/DUL.owl#Agent
p292
aVhttp://www.ontologydesignpatterns.org/ont/dul/DUL.owl#SocialPerson
p293
aVhttp://www.wikidata.org/entity/Q141683
p294
aVhttp://www.wikidata.org/entity/Q15265344
p295
aVhttp://www.wikidata.org/entity/Q43229
p296
aVhttp://dbpedia.org/ontology/Agent
p297
aVhttp://dbpedia.org/ontology/BroadcastNetwork
p298
aVhttp://dbpedia.org/ontology/Broadcaster
p299
aVhttp://dbpedia.org/ontology/Organisation
p300
aVhttp://schema.org/Organization
p301
aVhttp://umbel.org/umbel/rc/Business
p302
aVhttp://umbel.org/umbel/rc/Organization
p303
aVhttp://dbpedia.org/class/yago/Abstraction100002137
p304
aVhttp://dbpedia.org/class/yago/Company108058098
p305
aVhttp://dbpedia.org/class/yago/Group100031264
p306
aVhttp://dbpedia.org/class/yago/Institution108053576
p307
aVhttp://dbpedia.org/class/yago/Organization108008335
p308
aVhttp://dbpedia.org/class/yago/SocialGroup107950920
p309
aVhttp://dbpedia.org/class/yago/YagoLegalActorGeo
p310
aVhttp://dbpedia.org/class/yago/CompaniesBasedInNewYorkCity
p311
aVhttp://dbpedia.org/class/yago/CompaniesEstablishedIn1926
p312
aVhttp://dbpedia.org/class/yago/YagoPermanentlyLocatedEntity
p313
aVhttp://dbpedia.org/class/yago/YagoLegalActor
p314
aVhttp://dbpedia.org/resource/NBC
tp315
aa(lp316
a(lp317
a(lp318
a(lp319
((lp320
Vhttp://dbpedia.org/class/yago/Abstraction100002137
p321
aVhttp://dbpedia.org/class/yago/Company108058098
p322
aVhttp://dbpedia.org/class/yago/Group100031264
p323
aVhttp://dbpedia.org/class/yago/Institution108053576
p324
aVhttp://dbpedia.org/class/yago/Organization108008335
p325
aVhttp://dbpedia.org/class/yago/SocialGroup107950920
p326
aVhttp://dbpedia.org/class/yago/YagoLegalActorGeo
p327
aVhttp://dbpedia.org/class/yago/YagoPermanentlyLocatedEntity
p328
aVhttp://dbpedia.org/class/yago/YagoLegalActor
p329
aVhttp://dbpedia.org/class/yago/TheatreCompaniesInEngland
p330
aVhttp://dbpedia.org/resource/Analogue_(theatre_company)
tp331
aaa(lp332
(lp333
a(lp334
((lVhttp://dbpedia.org/resource/ABC_Development_Corporation
tp335
aa(lp336
((lp337
Vhttp://www.w3.org/2002/07/owl#Thing
p338
aVhttp://www.ontologydesignpatterns.org/ont/dul/DUL.owl#Agent
p339
aVhttp://www.ontologydesignpatterns.org/ont/dul/DUL.owl#SocialPerson
p340
aVhttp://www.wikidata.org/entity/Q15265344
p341
aVhttp://www.wikidata.org/entity/Q43229
p342
aVhttp://dbpedia.org/ontology/Agent
p343
aVhttp://dbpedia.org/ontology/Broadcaster
p344
aVhttp://dbpedia.org/ontology/Organisation
p345
aVhttp://dbpedia.org/ontology/RadioStation
p346
aVhttp://schema.org/Organization
p347
aVhttp://schema.org/RadioStation
p348
aVhttp://umbel.org/umbel/rc/RadioStation_Organization
p349
aVhttp://dbpedia.org/class/yago/Artifact100021939
p350
aVhttp://dbpedia.org/class/yago/BroadcastingStation102903405
p351
aVhttp://dbpedia.org/class/yago/Facility103315023
p352
aVhttp://dbpedia.org/class/yago/Object100002684
p353
aVhttp://dbpedia.org/class/yago/RadioStation104044119
p354
aVhttp://dbpedia.org/class/yago/Station104306080
p355
aVhttp://dbpedia.org/class/yago/Whole100003553
p356
aVhttp://dbpedia.org/class/yago/YagoGeoEntity
p357
aVhttp://dbpedia.org/class/yago/PhysicalEntity100001930
p358
aVhttp://dbpedia.org/class/yago/YagoPermanentlyLocatedEntity
p359
aVhttp://dbpedia.org/class/yago/RadioStationsInGeorgia(U.S.State)
p360
aVhttp://dbpedia.org/resource/WPGA_(AM)
tp361
aa(lp362
a(lp363
a(lp364
((lp365
Vhttp://dbpedia.org/class/yago/Abstraction100002137
p366
aVhttp://dbpedia.org/class/yago/Company108058098
p367
aVhttp://dbpedia.org/class/yago/Group100031264
p368
aVhttp://dbpedia.org/class/yago/Institution108053576
p369
aVhttp://dbpedia.org/class/yago/Organization108008335
p370
aVhttp://dbpedia.org/class/yago/SocialGroup107950920
p371
aVhttp://dbpedia.org/class/yago/YagoLegalActorGeo
p372
aVhttp://dbpedia.org/class/yago/YagoPermanentlyLocatedEntity
p373
aVhttp://dbpedia.org/class/yago/YagoLegalActor
p374
aVhttp://dbpedia.org/class/yago/TheatreCompaniesInEngland
p375
aVhttp://dbpedia.org/resource/Analogue_(theatre_company)
p376
tp377
aaa.