(lp1
(lp2
(dp3
Vstart
p4
I0
sVdisambiguatedURL
p5
Vhttp://dbpedia.org/resource/Goal_(sport)
p6
sVnamedEntity
p7
VField Goal %
p8
sVoffset
p9
I12
saa(lp10
(dp11
Vstart
p12
I0
sVdisambiguatedURL
p13
Vhttp://dbpedia.org/resource/Rebound_(sports)
p14
sVnamedEntity
p15
VRebounds
p16
sVoffset
p17
I8
saa(lp18
(dp19
Vstart
p20
I0
sVdisambiguatedURL
p21
Vhttp://dbpedia.org/resource/Assist
p22
sVnamedEntity
p23
VAssists
p24
sVoffset
p25
I7
saa(lp26
(dp27
Vstart
p28
I0
sVdisambiguatedURL
p29
NsVnamedEntity
p30
VTurnovers
p31
sVoffset
p32
I9
saa(lp33
(dp34
Vstart
p35
I0
sVdisambiguatedURL
p36
NsVnamedEntity
p37
VPts off Turnovers
p38
sVoffset
p39
I17
saa(lp40
(dp41
Vstart
p42
I0
sVdisambiguatedURL
p43
NsVnamedEntity
p44
V2nd Chance Pts
p45
sVoffset
p46
I14
saa(lp47
(dp48
Vstart
p49
I0
sVdisambiguatedURL
p50
NsVnamedEntity
p51
VPts in the Paint
p52
sVoffset
p53
I16
saa(lp54
(dp55
Vstart
p56
I0
sVdisambiguatedURL
p57
NsVnamedEntity
p58
VFastbreak Pts
p59
sVoffset
p60
I13
saa(lp61
(dp62
Vstart
p63
I0
sVdisambiguatedURL
p64
NsVnamedEntity
p65
VBench Pts
p66
sVoffset
p67
I9
saa.