(lp1
(lp2
(lp3
Vhttp://dbpedia.org/resource/Goal_(sport)
p4
aa(lp5
a(lp6
aa(lp7
(lp8
Vhttp://dbpedia.org/resource/Rebound_(sports)
p9
aa(lp10
a(lp11
aa(lp12
(lp13
Vhttp://dbpedia.org/resource/Assist
p14
aa(lp15
a(lp16
aa(lp17
(lp18
a(lp19
a(lp20
aa(lp21
(lp22
a(lp23
a(lp24
aa(lp25
(lp26
a(lp27
a(lp28
aa(lp29
(lp30
a(lp31
a(lp32
aa(lp33
(lp34
a(lp35
a(lp36
aa(lp37
(lp38
a(lp39
a(lp40
aa.