(lp1
(dp2
I0
(dp3
I0
(lp4
sI1
(lp5
sI2
(lp6
sI3
(lp7
sI4
(lp8
sI5
(lp9
Vhttp://xmlns.com/foaf/0.1/name
p10
aVhttp://dbpedia.org/property/officialName
p11
assI1
(dp12
I0
g5
sI1
(lp13
sI2
(lp14
sI3
(lp15
sI4
(lp16
sI5
(lp17
ssI2
(dp18
I0
g6
sI1
g14
sI2
(lp19
sI3
(lp20
sI4
(lp21
sI5
(lp22
Vhttp://dbpedia.org/ontology/abstract
p23
aVhttp://www.w3.org/1999/02/22-rdf-syntax-ns#type
p24
aVhttp://www.w3.org/2002/07/owl#sameAs
p25
aVhttp://www.w3.org/2000/01/rdf-schema#comment
p26
assI3
(dp27
I0
g7
sI1
g15
sI2
g20
sI3
(lp28
sI4
(lp29
sI5
(lp30
ssI4
(dp31
I0
g8
sI1
g16
sI2
g21
sI3
g29
sI4
(lp32
sI5
(lp33
ssI5
(dp34
I0
g9
sI1
g17
sI2
g22
sI3
g30
sI4
g33
sI5
(lp35
ssa(dp36
I0
(dp37
I0
(lp38
sI1
(lp39
sI2
(lp40
sI3
(lp41
sI4
(lp42
sI5
(lp43
ssI1
(dp44
I0
g39
sI1
(lp45
sI2
(lp46
sI3
(lp47
sI4
(lp48
sI5
(lp49
ssI2
(dp50
I0
g40
sI1
g46
sI2
(lp51
sI3
(lp52
sI4
(lp53
sI5
(lp54
Vhttp://dbpedia.org/property/home
p55
aVhttp://dbpedia.org/property/birthplace
p56
aVhttp://dbpedia.org/property/siteCityst
p57
assI3
(dp58
I0
g41
sI1
g47
sI2
g52
sI3
(lp59
sI4
(lp60
sI5
(lp61
ssI4
(dp62
I0
g42
sI1
g48
sI2
g53
sI3
g60
sI4
(lp63
sI5
(lp64
ssI5
(dp65
I0
g43
sI1
g49
sI2
g54
sI3
g61
sI4
g64
sI5
(lp66
ssa(dp67
I0
(dp68
I0
(lp69
sI1
(lp70
Vhttp://dbpedia.org/ontology/wikiPageExternalLink
p71
aVhttp://www.w3.org/1999/02/22-rdf-syntax-ns#type
p72
aVhttp://purl.org/dc/terms/subject
p73
aVhttp://www.w3.org/2000/01/rdf-schema#comment
p74
aVhttp://dbpedia.org/ontology/abstract
p75
aVhttp://dbpedia.org/ontology/wikiPageRedirects
p76
asI2
(lp77
Vhttp://dbpedia.org/ontology/thumbnail
p78
asI3
(lp79
sI4
(lp80
sI5
(lp81
Vhttp://www.w3.org/1999/02/22-rdf-syntax-ns#type
p82
aVhttp://purl.org/dc/terms/subject
p83
aVhttp://dbpedia.org/ontology/location
p84
aVhttp://www.w3.org/2000/01/rdf-schema#comment
p85
aVhttp://dbpedia.org/ontology/abstract
p86
aVhttp://dbpedia.org/property/location
p87
assI1
(dp88
I0
g70
sI1
(lp89
sI2
(lp90
Vhttp://dbpedia.org/ontology/thumbnail
p91
asI3
(lp92
sI4
(lp93
sI5
(lp94
ssI2
(dp95
I0
g77
sI1
g90
sI2
(lp96
sI3
(lp97
sI4
(lp98
sI5
(lp99
Vhttp://dbpedia.org/ontology/thumbnail
p100
assI3
(dp101
I0
g79
sI1
g92
sI2
g97
sI3
(lp102
sI4
(lp103
sI5
(lp104
ssI4
(dp105
I0
g80
sI1
g93
sI2
g98
sI3
g103
sI4
(lp106
sI5
(lp107
ssI5
(dp108
I0
g81
sI1
g94
sI2
g99
sI3
g104
sI4
g107
sI5
(lp109
ssa(dp110
I0
(dp111
I0
(lp112
sI1
(lp113
sI2
(lp114
sI3
(lp115
sI4
(lp116
sI5
(lp117
ssI1
(dp118
I0
g113
sI1
(lp119
sI2
(lp120
sI3
(lp121
sI4
(lp122
sI5
(lp123
ssI2
(dp124
I0
g114
sI1
g120
sI2
(lp125
sI3
(lp126
sI4
(lp127
sI5
(lp128
ssI3
(dp129
I0
g115
sI1
g121
sI2
g126
sI3
(lp130
sI4
(lp131
sI5
(lp132
ssI4
(dp133
I0
g116
sI1
g122
sI2
g127
sI3
g131
sI4
(lp134
sI5
(lp135
ssI5
(dp136
I0
g117
sI1
g123
sI2
g128
sI3
g132
sI4
g135
sI5
(lp137
ssa(dp138
I0
(dp139
I0
(lp140
sI1
(lp141
sI2
(lp142
sI3
(lp143
sI4
(lp144
sI5
(lp145
ssI1
(dp146
I0
g141
sI1
(lp147
sI2
(lp148
sI3
(lp149
sI4
(lp150
sI5
(lp151
ssI2
(dp152
I0
g142
sI1
g148
sI2
(lp153
sI3
(lp154
sI4
(lp155
sI5
(lp156
Vhttp://www.w3.org/1999/02/22-rdf-syntax-ns#type
p157
assI3
(dp158
I0
g143
sI1
g149
sI2
g154
sI3
(lp159
sI4
(lp160
sI5
(lp161
ssI4
(dp162
I0
g144
sI1
g150
sI2
g155
sI3
g160
sI4
(lp163
sI5
(lp164
ssI5
(dp165
I0
g145
sI1
g151
sI2
g156
sI3
g161
sI4
g164
sI5
(lp166
ssa(dp167
I0
(dp168
I0
(lp169
sI1
(lp170
sI2
(lp171
sI3
(lp172
sI4
(lp173
sI5
(lp174
ssI1
(dp175
I0
g170
sI1
(lp176
sI2
(lp177
sI3
(lp178
sI4
(lp179
sI5
(lp180
ssI2
(dp181
I0
g171
sI1
g177
sI2
(lp182
sI3
(lp183
sI4
(lp184
sI5
(lp185
Vhttp://dbpedia.org/ontology/wikiPageExternalLink
p186
aVhttp://www.w3.org/1999/02/22-rdf-syntax-ns#type
p187
aVhttp://www.w3.org/2000/01/rdf-schema#comment
p188
aVhttp://dbpedia.org/property/home
p189
aVhttp://dbpedia.org/ontology/abstract
p190
aVhttp://dbpedia.org/property/siteCityst
p191
aVhttp://dbpedia.org/property/finalcity
p192
assI3
(dp193
I0
g172
sI1
g178
sI2
g183
sI3
(lp194
sI4
(lp195
sI5
(lp196
ssI4
(dp197
I0
g173
sI1
g179
sI2
g184
sI3
g195
sI4
(lp198
sI5
(lp199
ssI5
(dp200
I0
g174
sI1
g180
sI2
g185
sI3
g196
sI4
g199
sI5
(lp201
ssa(dp202
I0
(dp203
I0
(lp204
sI1
(lp205
sI2
(lp206
sI3
(lp207
sI4
(lp208
sI5
(lp209
ssI1
(dp210
I0
g205
sI1
(lp211
sI2
(lp212
sI3
(lp213
sI4
(lp214
sI5
(lp215
ssI2
(dp216
I0
g206
sI1
g212
sI2
(lp217
sI3
(lp218
sI4
(lp219
sI5
(lp220
ssI3
(dp221
I0
g207
sI1
g213
sI2
g218
sI3
(lp222
sI4
(lp223
sI5
(lp224
ssI4
(dp225
I0
g208
sI1
g214
sI2
g219
sI3
g223
sI4
(lp226
sI5
(lp227
ssI5
(dp228
I0
g209
sI1
g215
sI2
g220
sI3
g224
sI4
g227
sI5
(lp229
ssa(dp230
I0
(dp231
I0
(lp232
sI1
(lp233
sI2
(lp234
sI3
(lp235
sI4
(lp236
sI5
(lp237
Vhttp://dbpedia.org/ontology/wikiPageExternalLink
p238
aVhttp://xmlns.com/foaf/0.1/primaryTopic
p239
aVhttp://purl.org/dc/terms/subject
p240
aVhttp://www.w3.org/2000/01/rdf-schema#comment
p241
aVhttp://www.w3.org/2000/01/rdf-schema#label
p242
aVhttp://dbpedia.org/ontology/abstract
p243
aVhttp://xmlns.com/foaf/0.1/depiction
p244
aVhttp://dbpedia.org/ontology/wikiPageRedirects
p245
aVhttp://xmlns.com/foaf/0.1/isPrimaryTopicOf
p246
aVhttp://www.w3.org/ns/prov#wasDerivedFrom
p247
aVhttp://dbpedia.org/property/hasPhotoCollection
p248
aVhttp://dbpedia.org/ontology/wikiPageDisambiguates
p249
aVhttp://www.w3.org/2002/07/owl#sameAs
p250
aVhttp://dbpedia.org/ontology/thumbnail
p251
assI1
(dp252
I0
g233
sI1
(lp253
sI2
(lp254
sI3
(lp255
sI4
(lp256
sI5
(lp257
ssI2
(dp258
I0
g234
sI1
g254
sI2
(lp259
sI3
(lp260
sI4
(lp261
sI5
(lp262
ssI3
(dp263
I0
g235
sI1
g255
sI2
g260
sI3
(lp264
sI4
(lp265
sI5
(lp266
ssI4
(dp267
I0
g236
sI1
g256
sI2
g261
sI3
g265
sI4
(lp268
sI5
(lp269
ssI5
(dp270
I0
g237
sI1
g257
sI2
g262
sI3
g266
sI4
g269
sI5
(lp271
ssa(dp272
I0
(dp273
I0
(lp274
sI1
(lp275
sI2
(lp276
sI3
(lp277
sI4
(lp278
sI5
(lp279
ssI1
(dp280
I0
g275
sI1
(lp281
sI2
(lp282
sI3
(lp283
sI4
(lp284
sI5
(lp285
ssI2
(dp286
I0
g276
sI1
g282
sI2
(lp287
sI3
(lp288
sI4
(lp289
sI5
(lp290
Vhttp://www.w3.org/ns/prov#wasDerivedFrom
p291
aVhttp://dbpedia.org/ontology/abstract
p292
aVhttp://www.w3.org/1999/02/22-rdf-syntax-ns#type
p293
aVhttp://dbpedia.org/ontology/thumbnail
p294
aVhttp://www.w3.org/2000/01/rdf-schema#comment
p295
assI3
(dp296
I0
g277
sI1
g283
sI2
g288
sI3
(lp297
sI4
(lp298
sI5
(lp299
ssI4
(dp300
I0
g278
sI1
g284
sI2
g289
sI3
g298
sI4
(lp301
sI5
(lp302
ssI5
(dp303
I0
g279
sI1
g285
sI2
g290
sI3
g299
sI4
g302
sI5
(lp304
ssa(dp305
I0
(dp306
I0
(lp307
sI1
(lp308
sI2
(lp309
sI3
(lp310
sI4
(lp311
sI5
(lp312
ssI1
(dp313
I0
g308
sI1
(lp314
sI2
(lp315
sI3
(lp316
sI4
(lp317
sI5
(lp318
ssI2
(dp319
I0
g309
sI1
g315
sI2
(lp320
sI3
(lp321
Vhttp://www.w3.org/ns/prov#wasDerivedFrom
p322
asI4
(lp323
sI5
(lp324
Vhttp://www.w3.org/1999/02/22-rdf-syntax-ns#type
p325
assI3
(dp326
I0
g310
sI1
g316
sI2
g321
sI3
(lp327
sI4
(lp328
sI5
(lp329
ssI4
(dp330
I0
g311
sI1
g317
sI2
g323
sI3
g328
sI4
(lp331
sI5
(lp332
ssI5
(dp333
I0
g312
sI1
g318
sI2
g324
sI3
g329
sI4
g332
sI5
(lp334
ssa(dp335
I0
(dp336
I0
(lp337
sI1
(lp338
sI2
(lp339
sI3
(lp340
sI4
(lp341
sI5
(lp342
ssI1
(dp343
I0
g338
sI1
(lp344
sI2
(lp345
sI3
(lp346
sI4
(lp347
sI5
(lp348
ssI2
(dp349
I0
g339
sI1
g345
sI2
(lp350
sI3
(lp351
sI4
(lp352
sI5
(lp353
Vhttp://www.w3.org/1999/02/22-rdf-syntax-ns#type
p354
aVhttp://dbpedia.org/ontology/thumbnail
p355
assI3
(dp356
I0
g340
sI1
g346
sI2
g351
sI3
(lp357
sI4
(lp358
sI5
(lp359
ssI4
(dp360
I0
g341
sI1
g347
sI2
g352
sI3
g358
sI4
(lp361
sI5
(lp362
ssI5
(dp363
I0
g342
sI1
g348
sI2
g353
sI3
g359
sI4
g362
sI5
(lp364
ssa(dp365
I0
(dp366
I0
(lp367
sI1
(lp368
Vhttp://dbpedia.org/ontology/wikiPageExternalLink
p369
aVhttp://www.w3.org/1999/02/22-rdf-syntax-ns#type
p370
aVhttp://purl.org/dc/terms/subject
p371
aVhttp://www.w3.org/2000/01/rdf-schema#comment
p372
aVhttp://dbpedia.org/ontology/abstract
p373
aVhttp://dbpedia.org/ontology/wikiPageRedirects
p374
aVhttp://dbpedia.org/property/products
p375
aVhttp://dbpedia.org/ontology/product
p376
asI2
(lp377
sI3
(lp378
sI4
(lp379
sI5
(lp380
ssI1
(dp381
I0
g368
sI1
(lp382
sI2
(lp383
sI3
(lp384
sI4
(lp385
sI5
(lp386
ssI2
(dp387
I0
g377
sI1
g383
sI2
(lp388
sI3
(lp389
sI4
(lp390
sI5
(lp391
Vhttp://dbpedia.org/property/rd3t3Loc
p392
aVhttp://dbpedia.org/ontology/abstract
p393
aVhttp://www.w3.org/2000/01/rdf-schema#comment
p394
assI3
(dp395
I0
g378
sI1
g384
sI2
g389
sI3
(lp396
sI4
(lp397
sI5
(lp398
ssI4
(dp399
I0
g379
sI1
g385
sI2
g390
sI3
g397
sI4
(lp400
sI5
(lp401
ssI5
(dp402
I0
g380
sI1
g386
sI2
g391
sI3
g398
sI4
g401
sI5
(lp403
ssa(dp404
I0
(dp405
I0
(lp406
sI1
(lp407
Vhttp://dbpedia.org/ontology/subsidiary
p408
aVhttp://dbpedia.org/ontology/abstract
p409
aVhttp://dbpedia.org/property/subsid
p410
aVhttp://dbpedia.org/ontology/wikiPageRedirects
p411
aVhttp://www.w3.org/2000/01/rdf-schema#comment
p412
asI2
(lp413
sI3
(lp414
sI4
(lp415
sI5
(lp416
ssI1
(dp417
I0
g407
sI1
(lp418
sI2
(lp419
sI3
(lp420
sI4
(lp421
sI5
(lp422
ssI2
(dp423
I0
g413
sI1
g419
sI2
(lp424
sI3
(lp425
sI4
(lp426
sI5
(lp427
ssI3
(dp428
I0
g414
sI1
g420
sI2
g425
sI3
(lp429
sI4
(lp430
sI5
(lp431
ssI4
(dp432
I0
g415
sI1
g421
sI2
g426
sI3
g430
sI4
(lp433
sI5
(lp434
ssI5
(dp435
I0
g416
sI1
g422
sI2
g427
sI3
g431
sI4
g434
sI5
(lp436
ssa(dp437
I0
(dp438
I0
(lp439
sI1
(lp440
sI2
(lp441
sI3
(lp442
sI4
(lp443
sI5
(lp444
ssI1
(dp445
I0
g440
sI1
(lp446
sI2
(lp447
sI3
(lp448
sI4
(lp449
sI5
(lp450
ssI2
(dp451
I0
g441
sI1
g447
sI2
(lp452
sI3
(lp453
sI4
(lp454
sI5
(lp455
Vhttp://www.w3.org/1999/02/22-rdf-syntax-ns#type
p456
assI3
(dp457
I0
g442
sI1
g448
sI2
g453
sI3
(lp458
sI4
(lp459
sI5
(lp460
ssI4
(dp461
I0
g443
sI1
g449
sI2
g454
sI3
g459
sI4
(lp462
sI5
(lp463
ssI5
(dp464
I0
g444
sI1
g450
sI2
g455
sI3
g460
sI4
g463
sI5
(lp465
ssa(dp466
I0
(dp467
I0
(lp468
sI1
(lp469
Vhttp://dbpedia.org/ontology/abstract
p470
aVhttp://www.w3.org/1999/02/22-rdf-syntax-ns#type
p471
aVhttp://purl.org/dc/terms/subject
p472
aVhttp://www.w3.org/2000/01/rdf-schema#comment
p473
asI2
(lp474
sI3
(lp475
sI4
(lp476
sI5
(lp477
ssI1
(dp478
I0
g469
sI1
(lp479
sI2
(lp480
sI3
(lp481
sI4
(lp482
sI5
(lp483
ssI2
(dp484
I0
g474
sI1
g480
sI2
(lp485
sI3
(lp486
sI4
(lp487
sI5
(lp488
ssI3
(dp489
I0
g475
sI1
g481
sI2
g486
sI3
(lp490
sI4
(lp491
sI5
(lp492
ssI4
(dp493
I0
g476
sI1
g482
sI2
g487
sI3
g491
sI4
(lp494
sI5
(lp495
ssI5
(dp496
I0
g477
sI1
g483
sI2
g488
sI3
g492
sI4
g495
sI5
(lp497
ssa(dp498
I0
(dp499
I0
(lp500
sI1
(lp501
sI2
(lp502
sI3
(lp503
sI4
(lp504
sI5
(lp505
ssI1
(dp506
I0
g501
sI1
(lp507
sI2
(lp508
sI3
(lp509
sI4
(lp510
sI5
(lp511
ssI2
(dp512
I0
g502
sI1
g508
sI2
(lp513
sI3
(lp514
sI4
(lp515
sI5
(lp516
ssI3
(dp517
I0
g503
sI1
g509
sI2
g514
sI3
(lp518
sI4
(lp519
sI5
(lp520
ssI4
(dp521
I0
g504
sI1
g510
sI2
g515
sI3
g519
sI4
(lp522
sI5
(lp523
ssI5
(dp524
I0
g505
sI1
g511
sI2
g516
sI3
g520
sI4
g523
sI5
(lp525
ssa(dp526
I0
(dp527
I0
(lp528
sI1
(lp529
sI2
(lp530
sI3
(lp531
sI4
(lp532
sI5
(lp533
ssI1
(dp534
I0
g529
sI1
(lp535
sI2
(lp536
sI3
(lp537
sI4
(lp538
sI5
(lp539
ssI2
(dp540
I0
g530
sI1
g536
sI2
(lp541
sI3
(lp542
sI4
(lp543
sI5
(lp544
Vhttp://dbpedia.org/ontology/county
p545
aVhttp://dbpedia.org/property/counties
p546
assI3
(dp547
I0
g531
sI1
g537
sI2
g542
sI3
(lp548
sI4
(lp549
sI5
(lp550
ssI4
(dp551
I0
g532
sI1
g538
sI2
g543
sI3
g549
sI4
(lp552
sI5
(lp553
ssI5
(dp554
I0
g533
sI1
g539
sI2
g544
sI3
g550
sI4
g553
sI5
(lp555
ssa(dp556
I0
(dp557
I0
(lp558
sI1
(lp559
sI2
(lp560
sI3
(lp561
sI4
(lp562
sI5
(lp563
ssI1
(dp564
I0
g559
sI1
(lp565
sI2
(lp566
sI3
(lp567
sI4
(lp568
sI5
(lp569
ssI2
(dp570
I0
g560
sI1
g566
sI2
(lp571
sI3
(lp572
sI4
(lp573
sI5
(lp574
ssI3
(dp575
I0
g561
sI1
g567
sI2
g572
sI3
(lp576
sI4
(lp577
sI5
(lp578
ssI4
(dp579
I0
g562
sI1
g568
sI2
g573
sI3
g577
sI4
(lp580
sI5
(lp581
ssI5
(dp582
I0
g563
sI1
g569
sI2
g574
sI3
g578
sI4
g581
sI5
(lp583
ssa(dp584
I0
(dp585
I0
(lp586
sI1
(lp587
sI2
(lp588
sI3
(lp589
sI4
(lp590
sI5
(lp591
ssI1
(dp592
I0
g587
sI1
(lp593
sI2
(lp594
sI3
(lp595
sI4
(lp596
sI5
(lp597
ssI2
(dp598
I0
g588
sI1
g594
sI2
(lp599
sI3
(lp600
sI4
(lp601
sI5
(lp602
ssI3
(dp603
I0
g589
sI1
g595
sI2
g600
sI3
(lp604
sI4
(lp605
sI5
(lp606
ssI4
(dp607
I0
g590
sI1
g596
sI2
g601
sI3
g605
sI4
(lp608
sI5
(lp609
ssI5
(dp610
I0
g591
sI1
g597
sI2
g602
sI3
g606
sI4
g609
sI5
(lp611
ssa(dp612
I0
(dp613
I0
(lp614
sI1
(lp615
sI2
(lp616
sI3
(lp617
sI4
(lp618
sI5
(lp619
ssI1
(dp620
I1
(lp621
sI2
(lp622
sI3
(lp623
sI4
(lp624
sI5
(lp625
ssI2
(dp626
I2
(lp627
sI3
(lp628
sI4
(lp629
sI5
(lp630
ssI3
(dp631
I3
(lp632
sI4
(lp633
sI5
(lp634
ssI4
(dp635
I4
(lp636
sI5
(lp637
ssI5
(dp638
I5
(lp639
ssa(dp640
I0
(dp641
I0
(lp642
sI1
(lp643
sI2
(lp644
sI3
(lp645
sI4
(lp646
sI5
(lp647
ssI1
(dp648
I0
g643
sI1
(lp649
sI2
(lp650
sI3
(lp651
sI4
(lp652
sI5
(lp653
ssI2
(dp654
I0
g644
sI1
g650
sI2
(lp655
sI3
(lp656
sI4
(lp657
sI5
(lp658
ssI3
(dp659
I0
g645
sI1
g651
sI2
g656
sI3
(lp660
sI4
(lp661
sI5
(lp662
ssI4
(dp663
I0
g646
sI1
g652
sI2
g657
sI4
(lp664
sI5
(lp665
ssI5
(dp666
I0
g647
sI1
g653
sI2
g658
sI5
(lp667
ssa.