(lp1
(lp2
a(lp3
a(lp4
a(lp5
a(lp6
a(lp7
a(lp8
a(lp9
(dp10
Vstart
p11
I0
sS'classes'
p12
(lp13
Vhttp://www.w3.org/2002/07/owl#Thing
p14
asVdisambiguatedURL
p15
Vhttp://dbpedia.org/resource/Internal_combustion_engine
p16
sVnamedEntity
p17
Vengine type
p18
sVoffset
p19
I11
saa(lp20
a(lp21
a(lp22
a(lp23
a(lp24
a(lp25
a(lp26
a(lp27
a(lp28
(dp29
Vstart
p30
I0
sg12
(lp31
Vhttp://www.w3.org/2002/07/owl#Thing
p32
aVhttp://dbpedia.org/class/yago/Artifact100021939
p33
aVhttp://dbpedia.org/class/yago/Object100002684
p34
aVhttp://dbpedia.org/class/yago/Structure104341686
p35
aVhttp://dbpedia.org/class/yago/Tower104460130
p36
aVhttp://dbpedia.org/class/yago/Whole100003553
p37
aVhttp://dbpedia.org/class/yago/YagoGeoEntity
p38
aVhttp://dbpedia.org/class/yago/PhysicalEntity100001930
p39
aVhttp://dbpedia.org/class/yago/YagoPermanentlyLocatedEntity
p40
aVhttp://dbpedia.org/class/yago/Pylon104028764
p41
aVhttp://dbpedia.org/class/yago/Pylons
p42
asVdisambiguatedURL
p43
Vhttp://dbpedia.org/resource/Transmission_tower
p44
sVnamedEntity
p45
Vtransmission
p46
sVoffset
p47
I12
saa(lp48
a(lp49
a(lp50
a.