(lp1
(lp2
(dp3
Vstart
p4
I0
sVdisambiguatedURL
p5
NsVnamedEntity
p6
Vwheease (mm)
p7
sVoffset
p8
I12
saa(lp9
(dp10
Vstart
p11
I0
sVdisambiguatedURL
p12
NsVnamedEntity
p13
Vnet weight (kg)
p14
sVoffset
p15
I15
saa(lp16
(dp17
Vstart
p18
I0
sVdisambiguatedURL
p19
NsVnamedEntity
p20
Vmax load (kg)
p21
sVoffset
p22
I13
saa(lp23
(dp24
Vstart
p25
I0
sVdisambiguatedURL
p26
NsVnamedEntity
p27
Vh)
p28
sVoffset
p29
I16
saa(lp30
(dp31
Vstart
p32
I0
sVdisambiguatedURL
p33
NsVnamedEntity
p34
Vrr.)
p35
sVoffset
p36
I15
saa(lp37
(dp38
Vstart
p39
I0
sVdisambiguatedURL
p40
NsVnamedEntity
p41
Vrr.)
p42
sVoffset
p43
I19
saa(lp44
(dp45
Vstart
p46
I0
sVdisambiguatedURL
p47
NsVnamedEntity
p48
Vstarting type
p49
sVoffset
p50
I13
saa(lp51
(dp52
Vstart
p53
I0
sVdisambiguatedURL
p54
Vhttp://dbpedia.org/resource/Internal_combustion_engine
p55
sVnamedEntity
p56
Vengine type
p57
sVoffset
p58
I11
saa(lp59
(dp60
Vstart
p61
I0
sVdisambiguatedURL
p62
NsVnamedEntity
p63
Vengine mode
p64
sVoffset
p65
I11
saa(lp66
(dp67
Vstart
p68
I0
sVdisambiguatedURL
p69
NsVnamedEntity
p70
Vbore&times;stroke
p71
sVoffset
p72
I17
saa(lp73
(dp74
Vstart
p75
I0
sVdisambiguatedURL
p76
NsVnamedEntity
p77
Vdisplacement (ccm)
p78
sVoffset
p79
I18
saa(lp80
(dp81
Vstart
p82
I0
sVdisambiguatedURL
p83
NsVnamedEntity
p84
Vcompress ratio
p85
sVoffset
p86
I14
saa(lp87
(dp88
Vstart
p89
I0
sVdisambiguatedURL
p90
NsVnamedEntity
p91
Vmin))
p92
sVoffset
p93
I22
saa(lp94
(dp95
Vstart
p96
I0
sVdisambiguatedURL
p97
NsVnamedEntity
p98
Vmin))
p99
sVoffset
p100
I31
saa(lp101
(dp102
Vstart
p103
I0
sVdisambiguatedURL
p104
NsVnamedEntity
p105
Vfront absorber
p106
sVoffset
p107
I14
saa(lp108
(dp109
Vstart
p110
I0
sVdisambiguatedURL
p111
NsVnamedEntity
p112
Vignition
p113
sVoffset
p114
I8
saa(lp115
(dp116
Vstart
p117
I0
sVdisambiguatedURL
p118
Vhttp://dbpedia.org/resource/Transmission_tower
p119
sVnamedEntity
p120
Vtransmission
p121
sVoffset
p122
I12
saa(lp123
(dp124
Vstart
p125
I0
sVdisambiguatedURL
p126
NsVnamedEntity
p127
Vfuel gasoline
p128
sVoffset
p129
I13
saa(lp130
(dp131
Vstart
p132
I0
sVdisambiguatedURL
p133
NsVnamedEntity
p134
Vmin)
p135
sVoffset
p136
I18
saa(lp137
(dp138
Vstart
p139
I0
sVdisambiguatedURL
p140
NsVnamedEntity
p141
Vclutch type
p142
sVoffset
p143
I11
saa.