ccollections
defaultdict
p1
(c__builtin__
dict
p2
tRp3
I0
(dp4
I1
(lp5
sI2
(lp6
Vhttp://purl.org/voc/vrank#hasRank
p7
asI3
(lp8
sI4
(lp9
Vhttp://purl.org/dc/terms/subject
p10
aVhttp://www.w3.org/2000/01/rdf-schema#comment
p11
aVhttp://dbpedia.org/ontology/abstract
p12
aVhttp://dbpedia.org/property/satChan
p13
aVhttp://dbpedia.org/property/adslChan
p14
aVhttp://dbpedia.org/property/shareAsOf
p15
aVhttp://www.w3.org/ns/prov#wasDerivedFrom
p16
aVhttp://dbpedia.org/property/studio
p17
aVhttp://dbpedia.org/property/share
p18
aVhttp://dbpedia.org/ontology/network
p19
aVhttp://dbpedia.org/property/sisterNames
p20
asI5
(lp21
Vhttp://dbpedia.org/property/logofile
p22
aVhttp://dbpedia.org/property/terrChan
p23
aVhttp://dbpedia.org/ontology/wikiPageRedirects
p24
aVhttp://www.w3.org/ns/prov#wasDerivedFrom
p25
aVhttp://www.w3.org/1999/02/22-rdf-syntax-ns#type
p26
aVhttp://dbpedia.org/property/formerNames
p27
aVhttp://dbpedia.org/property/wordnet_type
p28
aVhttp://xmlns.com/foaf/0.1/isPrimaryTopicOf
p29
aVhttp://dbpedia.org/ontology/wikiPageExternalLink
p30
aVhttp://dbpedia.org/property/web
p31
aVhttp://xmlns.com/foaf/0.1/primaryTopic
p32
aVhttp://dbpedia.org/ontology/abstract
p33
aVhttp://xmlns.com/foaf/0.1/depiction
p34
aVhttp://dbpedia.org/ontology/thumbnail
p35
aVhttp://dbpedia.org/property/adslChan
p36
aVhttp://dbpedia.org/property/shareAsOf
p37
aVhttp://dbpedia.org/property/studio
p38
aVhttp://dbpedia.org/property/hasPhotoCollection
p39
aVhttp://www.w3.org/2000/01/rdf-schema#label
p40
aVhttp://dbpedia.org/property/slogan
p41
aVhttp://www.w3.org/2000/01/rdf-schema#comment
p42
aVhttp://dbpedia.org/property/satChan
p43
aVhttp://dbpedia.org/property/name
p44
aVhttp://purl.org/voc/vrank#hasRank
p45
aVhttp://xmlns.com/foaf/0.1/homepage
p46
aVhttp://www.w3.org/2002/07/owl#sameAs
p47
assI1
(dp48
I1
(lp49
Vhttp://dbpedia.org/ontology/country
p50
aVhttp://dbpedia.org/ontology/nationality
p51
aVhttp://dbpedia.org/property/builder
p52
aVhttp://dbpedia.org/property/shipCountry
p53
aVhttp://dbpedia.org/ontology/PopulatedPlace/populationDensity
p54
aVhttp://www.w3.org/2002/07/owl#sameAs
p55
asI2
(lp56
Vhttp://dbpedia.org/property/placeOfDeath
p57
aVhttp://dbpedia.org/ontology/country
p58
aVhttp://www.w3.org/1999/02/22-rdf-syntax-ns#type
p59
aVhttp://dbpedia.org/property/nationality
p60
aVhttp://dbpedia.org/property/shipCountry
p61
aVhttp://dbpedia.org/ontology/nationality
p62
aVhttp://dbpedia.org/ontology/deathPlace
p63
aVhttp://dbpedia.org/ontology/stateOfOrigin
p64
asI3
(lp65
Vhttp://dbpedia.org/property/placeOfDeath
p66
aVhttp://dbpedia.org/ontology/country
p67
aVhttp://www.w3.org/1999/02/22-rdf-syntax-ns#type
p68
aVhttp://dbpedia.org/property/nationality
p69
aVhttp://dbpedia.org/property/shipCountry
p70
aVhttp://dbpedia.org/ontology/nationality
p71
aVhttp://dbpedia.org/ontology/deathPlace
p72
aVhttp://dbpedia.org/ontology/stateOfOrigin
p73
asI4
(lp74
Vhttp://dbpedia.org/property/origin
p75
aVhttp://dbpedia.org/property/placeOfDeath
p76
aVhttp://dbpedia.org/property/awardedBy
p77
aVhttp://dbpedia.org/property/broadcastArea
p78
aVhttp://dbpedia.org/property/allegiance
p79
aVhttp://dbpedia.org/ontology/PopulatedPlace/areaTotal
p80
aVhttp://www.w3.org/ns/prov#wasDerivedFrom
p81
aVhttp://dbpedia.org/property/utcOffset
p82
aVhttp://dbpedia.org/ontology/regionServed
p83
aVhttp://dbpedia.org/property/assembly
p84
aVhttp://dbpedia.org/ontology/nationality
p85
aVhttp://dbpedia.org/property/placeOfBirth
p86
aVhttp://dbpedia.org/property/byCountry
p87
aVhttp://dbpedia.org/property/establishedEvent
p88
aVhttp://dbpedia.org/property/nationality
p89
aVhttp://dbpedia.org/ontology/abstract
p90
aVhttp://dbpedia.org/ontology/recordedIn
p91
aVhttp://dbpedia.org/property/venue
p92
aVhttp://dbpedia.org/property/gdpPpp
p93
aVhttp://dbpedia.org/property/usedBy
p94
aVhttp://dbpedia.org/property/nationalOrigin
p95
aVhttp://dbpedia.org/property/shipRoute
p96
aVhttp://dbpedia.org/property/shipBuilder
p97
aVhttp://dbpedia.org/ontology/location
p98
aVhttp://dbpedia.org/property/city
p99
aVhttp://dbpedia.org/property/countries
p100
aVhttp://dbpedia.org/property/area
p101
aVhttp://dbpedia.org/ontology/hometown
p102
aVhttp://dbpedia.org/property/builders
p103
aVhttp://www.w3.org/2000/01/rdf-schema#seeAlso
p104
aVhttp://dbpedia.org/property/hostCity
p105
aVhttp://dbpedia.org/ontology/fastestDriverCountry
p106
aVhttp://dbpedia.org/ontology/country
p107
aVhttp://dbpedia.org/property/destinations
p108
aVhttp://dbpedia.org/ontology/locationCountry
p109
aVhttp://dbpedia.org/property/birthPlace
p110
aVhttp://dbpedia.org/property/country
p111
aVhttp://dbpedia.org/property/giniRank
p112
aVhttp://dbpedia.org/property/areaServed
p113
aVhttp://dbpedia.org/property/areasAffected
p114
aVhttp://dbpedia.org/ontology/wikiPageExternalLink
p115
aVhttp://dbpedia.org/ontology/firstDriverCountry
p116
aVhttp://dbpedia.org/property/location
p117
aVhttp://dbpedia.org/ontology/builder
p118
aVhttp://dbpedia.org/ontology/deathPlace
p119
aVhttp://dbpedia.org/property/hasPhotoCollection
p120
aVhttp://dbpedia.org/property/headquarters
p121
aVhttp://dbpedia.org/ontology/birthPlace
p122
aVhttp://dbpedia.org/ontology/wikiPageRedirects
p123
aVhttp://purl.org/voc/vrank#hasRank
p124
aVhttp://dbpedia.org/property/distribution
p125
aVhttp://dbpedia.org/property/citizenship
p126
aVhttp://dbpedia.org/ontology/stateOfOrigin
p127
aVhttp://www.w3.org/2002/07/owl#sameAs
p128
aVhttp://dbpedia.org/property/recorded
p129
aVhttp://dbpedia.org/ontology/origin
p130
aVhttp://dbpedia.org/property/worldPlace
p131
aVhttp://dbpedia.org/property/residence
p132
aVhttp://www.w3.org/1999/02/22-rdf-syntax-ns#type
p133
aVhttp://dbpedia.org/property/locationCountry
p134
aVhttp://dbpedia.org/ontology/secondDriverCountry
p135
aVhttp://dbpedia.org/property/withdraws
p136
aVhttp://dbpedia.org/property/locationSigned
p137
aVhttp://dbpedia.org/property/shipCountry
p138
aVhttp://dbpedia.org/property/gdpPppPerCapita
p139
aVhttp://dbpedia.org/ontology/thumbnail
p140
aVhttp://dbpedia.org/ontology/city
p141
aVhttp://dbpedia.org/property/languages
p142
aVhttp://www.w3.org/2000/01/rdf-schema#comment
p143
aVhttp://dbpedia.org/ontology/assembly
p144
aVhttp://dbpedia.org/property/parliament
p145
aVhttp://dbpedia.org/property/locationCity
p146
aVhttp://dbpedia.org/ontology/broadcastArea
p147
aVhttp://dbpedia.org/property/operators
p148
aVhttp://dbpedia.org/property/stadium
p149
aVhttp://dbpedia.org/property/significantBuildings
p150
aVhttp://dbpedia.org/property/place
p151
aVhttp://dbpedia.org/property/territorialExtent
p152
aVhttp://dbpedia.org/ontology/thirdDriverCountry
p153
aVhttp://dbpedia.org/ontology/PopulatedPlace/populationDensity
p154
aVhttp://dbpedia.org/property/locations
p155
aVhttp://dbpedia.org/property/countryOfProduction
p156
aVhttp://dbpedia.org/property/after
p157
aVhttp://dbpedia.org/property/gamesPlace
p158
aVhttp://dbpedia.org/property/deathPlace
p159
aVhttp://dbpedia.org/property/foundation
p160
aVhttp://dbpedia.org/property/shipRegistry
p161
aVhttp://dbpedia.org/property/locale
p162
aVhttp://dbpedia.org/property/asianPlace
p163
aVhttp://dbpedia.org/property/moreUsers
p164
aVhttp://dbpedia.org/property/opponents
p165
aVhttp://dbpedia.org/ontology/releaseLocation
p166
aVhttp://dbpedia.org/property/olympicPlace
p167
aVhttp://dbpedia.org/ontology/premierePlace
p168
asI5
(lp169
Vhttp://dbpedia.org/property/origin
p170
aVhttp://dbpedia.org/property/placeOfDeath
p171
aVhttp://dbpedia.org/property/awardedBy
p172
aVhttp://dbpedia.org/property/broadcastArea
p173
aVhttp://dbpedia.org/property/allegiance
p174
aVhttp://dbpedia.org/ontology/PopulatedPlace/areaTotal
p175
aVhttp://www.w3.org/ns/prov#wasDerivedFrom
p176
aVhttp://dbpedia.org/property/utcOffset
p177
aVhttp://dbpedia.org/ontology/regionServed
p178
aVhttp://dbpedia.org/property/assembly
p179
aVhttp://dbpedia.org/ontology/nationality
p180
aVhttp://dbpedia.org/property/placeOfBirth
p181
aVhttp://dbpedia.org/property/byCountry
p182
aVhttp://dbpedia.org/property/establishedEvent
p183
aVhttp://dbpedia.org/property/nationality
p184
aVhttp://dbpedia.org/ontology/abstract
p185
aVhttp://dbpedia.org/ontology/recordedIn
p186
aVhttp://dbpedia.org/property/venue
p187
aVhttp://dbpedia.org/property/gdpPpp
p188
aVhttp://dbpedia.org/property/usedBy
p189
aVhttp://dbpedia.org/property/nationalOrigin
p190
aVhttp://dbpedia.org/property/shipRoute
p191
aVhttp://dbpedia.org/property/shipBuilder
p192
aVhttp://dbpedia.org/ontology/location
p193
aVhttp://dbpedia.org/property/city
p194
aVhttp://dbpedia.org/property/countries
p195
aVhttp://dbpedia.org/property/area
p196
aVhttp://dbpedia.org/ontology/hometown
p197
aVhttp://dbpedia.org/property/builders
p198
aVhttp://www.w3.org/2000/01/rdf-schema#seeAlso
p199
aVhttp://dbpedia.org/property/hostCity
p200
aVhttp://dbpedia.org/ontology/fastestDriverCountry
p201
aVhttp://dbpedia.org/ontology/country
p202
aVhttp://dbpedia.org/property/destinations
p203
aVhttp://dbpedia.org/ontology/locationCountry
p204
aVhttp://dbpedia.org/property/birthPlace
p205
aVhttp://dbpedia.org/property/country
p206
aVhttp://dbpedia.org/property/giniRank
p207
aVhttp://dbpedia.org/property/areaServed
p208
aVhttp://dbpedia.org/property/areasAffected
p209
aVhttp://dbpedia.org/ontology/wikiPageExternalLink
p210
aVhttp://dbpedia.org/ontology/firstDriverCountry
p211
aVhttp://dbpedia.org/property/location
p212
aVhttp://dbpedia.org/ontology/builder
p213
aVhttp://dbpedia.org/ontology/deathPlace
p214
aVhttp://dbpedia.org/property/hasPhotoCollection
p215
aVhttp://dbpedia.org/property/headquarters
p216
aVhttp://dbpedia.org/ontology/birthPlace
p217
aVhttp://dbpedia.org/ontology/wikiPageRedirects
p218
aVhttp://purl.org/voc/vrank#hasRank
p219
aVhttp://dbpedia.org/property/distribution
p220
aVhttp://dbpedia.org/property/citizenship
p221
aVhttp://dbpedia.org/ontology/stateOfOrigin
p222
aVhttp://www.w3.org/2002/07/owl#sameAs
p223
aVhttp://dbpedia.org/property/recorded
p224
aVhttp://dbpedia.org/ontology/origin
p225
aVhttp://dbpedia.org/property/worldPlace
p226
aVhttp://dbpedia.org/property/residence
p227
aVhttp://www.w3.org/1999/02/22-rdf-syntax-ns#type
p228
aVhttp://dbpedia.org/property/locationCountry
p229
aVhttp://dbpedia.org/ontology/secondDriverCountry
p230
aVhttp://dbpedia.org/property/withdraws
p231
aVhttp://dbpedia.org/property/locationSigned
p232
aVhttp://dbpedia.org/property/shipCountry
p233
aVhttp://dbpedia.org/property/gdpPppPerCapita
p234
aVhttp://dbpedia.org/ontology/thumbnail
p235
aVhttp://dbpedia.org/ontology/city
p236
aVhttp://dbpedia.org/property/languages
p237
aVhttp://www.w3.org/2000/01/rdf-schema#comment
p238
aVhttp://dbpedia.org/ontology/assembly
p239
aVhttp://dbpedia.org/property/parliament
p240
aVhttp://dbpedia.org/property/locationCity
p241
aVhttp://dbpedia.org/ontology/broadcastArea
p242
aVhttp://dbpedia.org/property/operators
p243
aVhttp://dbpedia.org/property/stadium
p244
aVhttp://dbpedia.org/property/significantBuildings
p245
aVhttp://dbpedia.org/property/place
p246
aVhttp://dbpedia.org/property/territorialExtent
p247
aVhttp://dbpedia.org/ontology/thirdDriverCountry
p248
aVhttp://dbpedia.org/ontology/PopulatedPlace/populationDensity
p249
aVhttp://dbpedia.org/property/locations
p250
aVhttp://dbpedia.org/property/countryOfProduction
p251
aVhttp://dbpedia.org/property/after
p252
aVhttp://dbpedia.org/property/gamesPlace
p253
aVhttp://dbpedia.org/property/deathPlace
p254
aVhttp://dbpedia.org/property/foundation
p255
aVhttp://dbpedia.org/property/shipRegistry
p256
aVhttp://dbpedia.org/property/locale
p257
aVhttp://dbpedia.org/property/asianPlace
p258
aVhttp://dbpedia.org/property/moreUsers
p259
aVhttp://dbpedia.org/property/opponents
p260
aVhttp://dbpedia.org/ontology/releaseLocation
p261
aVhttp://dbpedia.org/property/olympicPlace
p262
aVhttp://dbpedia.org/ontology/premierePlace
p263
assI3
(dp264
I1
(lp265
sI2
(lp266
sI3
(lp267
sI4
(lp268
Vhttp://dbpedia.org/ontology/wikiPageRedirects
p269
asI5
(lp270
ssI4
(dp271
I1
(lp272
sI2
(lp273
Vhttp://dbpedia.org/ontology/abstract
p274
aVhttp://www.w3.org/2000/01/rdf-schema#comment
p275
asI3
(lp276
Vhttp://dbpedia.org/property/site
p277
asI4
(lp278
Vhttp://dbpedia.org/property/origin
p279
aVhttp://dbpedia.org/property/placeOfDeath
p280
aVhttp://dbpedia.org/property/awardedBy
p281
aVhttp://dbpedia.org/property/broadcastArea
p282
aVhttp://dbpedia.org/property/rd2t7Loc
p283
aVhttp://dbpedia.org/ontology/PopulatedPlace/areaTotal
p284
aVhttp://www.w3.org/ns/prov#wasDerivedFrom
p285
aVhttp://dbpedia.org/property/nation
p286
aVhttp://dbpedia.org/property/assembly
p287
aVhttp://dbpedia.org/ontology/nationality
p288
aVhttp://dbpedia.org/property/shortDescription
p289
aVhttp://dbpedia.org/property/placeOfBirth
p290
aVhttp://dbpedia.org/property/hometown
p291
aVhttp://dbpedia.org/ontology/residence
p292
aVhttp://dbpedia.org/ontology/abstract
p293
aVhttp://dbpedia.org/ontology/recordedIn
p294
aVhttp://dbpedia.org/property/venue
p295
aVhttp://dbpedia.org/property/usedBy
p296
aVhttp://dbpedia.org/property/nationalOrigin
p297
aVhttp://dbpedia.org/ontology/location
p298
aVhttp://dbpedia.org/property/city
p299
aVhttp://dbpedia.org/property/countries
p300
aVhttp://dbpedia.org/property/factory
p301
aVhttp://dbpedia.org/ontology/hometown
p302
aVhttp://dbpedia.org/property/curlingClub
p303
aVhttp://dbpedia.org/property/setIn
p304
aVhttp://dbpedia.org/property/jurisdiction
p305
aVhttp://dbpedia.org/property/rd4t1Loc
p306
aVhttp://www.w3.org/2000/01/rdf-schema#seeAlso
p307
aVhttp://dbpedia.org/property/hostCity
p308
aVhttp://dbpedia.org/property/2rpt2Loc
p309
aVhttp://dbpedia.org/property/deathDate
p310
aVhttp://dbpedia.org/property/birthplace
p311
aVhttp://dbpedia.org/property/rd2t3Loc
p312
aVhttp://dbpedia.org/ontology/country
p313
aVhttp://dbpedia.org/property/returns
p314
aVhttp://dbpedia.org/property/home
p315
aVhttp://dbpedia.org/property/rd1t5Loc
p316
aVhttp://dbpedia.org/property/birthPlace
p317
aVhttp://dbpedia.org/property/stateParty
p318
aVhttp://dbpedia.org/property/country
p319
aVhttp://dbpedia.org/property/areaServed
p320
aVhttp://dbpedia.org/ontology/wikiPageExternalLink
p321
aVhttp://dbpedia.org/property/location
p322
aVhttp://dbpedia.org/property/states
p323
aVhttp://dbpedia.org/ontology/locationCountry
p324
aVhttp://dbpedia.org/ontology/deathPlace
p325
aVhttp://dbpedia.org/property/rd2t4Loc
p326
aVhttp://dbpedia.org/property/headquarters
p327
aVhttp://dbpedia.org/ontology/birthPlace
p328
aVhttp://purl.org/voc/vrank#hasRank
p329
aVhttp://dbpedia.org/property/rd4t2Loc
p330
aVhttp://dbpedia.org/property/asianPlace
p331
aVhttp://www.w3.org/2002/07/owl#sameAs
p332
aVhttp://dbpedia.org/property/recorded
p333
aVhttp://dbpedia.org/ontology/origin
p334
aVhttp://dbpedia.org/property/worldPlace
p335
aVhttp://dbpedia.org/property/residence
p336
aVhttp://www.w3.org/1999/02/22-rdf-syntax-ns#type
p337
aVhttp://dbpedia.org/property/rd3t3Loc
p338
aVhttp://dbpedia.org/property/locationCountry
p339
aVhttp://dbpedia.org/property/rd1t2Loc
p340
aVhttp://dbpedia.org/property/shipCountry
p341
aVhttp://dbpedia.org/property/gdpNominalPerCapita
p342
aVhttp://dbpedia.org/property/rd1t8Loc
p343
aVhttp://dbpedia.org/property/gdpPppPerCapita
p344
aVhttp://dbpedia.org/property/division
p345
aVhttp://dbpedia.org/ontology/assembly
p346
aVhttp://dbpedia.org/property/subdivisionName
p347
aVhttp://dbpedia.org/property/rd1t3Loc
p348
aVhttp://dbpedia.org/property/rd5t1Loc
p349
aVhttp://dbpedia.org/property/stadium
p350
aVhttp://dbpedia.org/property/ground
p351
aVhttp://dbpedia.org/property/place
p352
aVhttp://dbpedia.org/property/debuts
p353
aVhttp://dbpedia.org/ontology/PopulatedPlace/populationDensity
p354
aVhttp://dbpedia.org/property/allegiance
p355
aVhttp://dbpedia.org/ontology/place
p356
aVhttp://dbpedia.org/property/nationality
p357
aVhttp://dbpedia.org/property/rd2t2Loc
p358
aVhttp://dbpedia.org/property/deathPlace
p359
aVhttp://dbpedia.org/property/cityServed
p360
aVhttp://dbpedia.org/property/rd3t2Loc
p361
aVhttp://dbpedia.org/ontology/language
p362
aVhttp://dbpedia.org/property/title
p363
aVhttp://dbpedia.org/property/locale
p364
aVhttp://dbpedia.org/property/basinCountries
p365
aVhttp://dbpedia.org/property/moreUsers
p366
aVhttp://dbpedia.org/property/rd2t1Loc
p367
aVhttp://www.w3.org/2000/01/rdf-schema#comment
p368
aVhttp://dbpedia.org/property/olympicPlace
p369
aVhttp://dbpedia.org/property/rd3t1Loc
p370
aVhttp://dbpedia.org/property/regionServed
p371
asI5
(lp372
Vhttp://dbpedia.org/property/origin
p373
aVhttp://dbpedia.org/property/placeOfDeath
p374
aVhttp://dbpedia.org/property/awardedBy
p375
aVhttp://dbpedia.org/property/broadcastArea
p376
aVhttp://dbpedia.org/property/city
p377
aVhttp://dbpedia.org/property/patronage
p378
aVhttp://dbpedia.org/property/nation
p379
aVhttp://dbpedia.org/property/dateOfBirth
p380
aVhttp://dbpedia.org/property/assembly
p381
aVhttp://dbpedia.org/ontology/nationality
p382
aVhttp://dbpedia.org/property/shortDescription
p383
aVhttp://dbpedia.org/property/placeOfBirth
p384
aVhttp://dbpedia.org/property/division
p385
aVhttp://dbpedia.org/ontology/residence
p386
aVhttp://dbpedia.org/ontology/abstract
p387
aVhttp://dbpedia.org/ontology/recordedIn
p388
aVhttp://dbpedia.org/property/leaderName
p389
aVhttp://dbpedia.org/property/usedBy
p390
aVhttp://dbpedia.org/property/nationalOrigin
p391
aVhttp://www.georss.org/georss/point
p392
aVhttp://dbpedia.org/property/shipBuilder
p393
aVhttp://dbpedia.org/ontology/location
p394
aVhttp://dbpedia.org/property/countriesAffected
p395
aVhttp://dbpedia.org/property/setIn
p396
aVhttp://dbpedia.org/property/jurisdiction
p397
aVhttp://dbpedia.org/property/arena
p398
aVhttp://dbpedia.org/property/rd2t6Loc
p399
aVhttp://dbpedia.org/property/birthDate
p400
aVhttp://dbpedia.org/property/hostCity
p401
aVhttp://dbpedia.org/property/2rpt2Loc
p402
aVhttp://dbpedia.org/property/deathDate
p403
aVhttp://dbpedia.org/property/birthplace
p404
aVhttp://dbpedia.org/ontology/poleDriverCountry
p405
aVhttp://dbpedia.org/property/mouthCountry
p406
aVhttp://dbpedia.org/property/rd2t3Loc
p407
aVhttp://dbpedia.org/property/site
p408
aVhttp://dbpedia.org/property/label
p409
aVhttp://dbpedia.org/ontology/country
p410
aVhttp://dbpedia.org/property/home
p411
aVhttp://dbpedia.org/property/rd1t5Loc
p412
aVhttp://dbpedia.org/property/birthPlace
p413
aVhttp://dbpedia.org/property/stateParty
p414
aVhttp://dbpedia.org/property/country
p415
aVhttp://dbpedia.org/property/areaServed
p416
aVhttp://dbpedia.org/property/areasAffected
p417
aVhttp://dbpedia.org/ontology/wikiPageExternalLink
p418
aVhttp://dbpedia.org/property/location
p419
aVhttp://dbpedia.org/property/states
p420
aVhttp://dbpedia.org/ontology/locationCountry
p421
aVhttp://dbpedia.org/ontology/deathPlace
p422
aVhttp://dbpedia.org/property/rd2t4Loc
p423
aVhttp://dbpedia.org/property/hasPhotoCollection
p424
aVhttp://dbpedia.org/property/headquarters
p425
aVhttp://dbpedia.org/ontology/birthPlace
p426
aVhttp://dbpedia.org/ontology/wikiPageRedirects
p427
aVhttp://purl.org/voc/vrank#hasRank
p428
aVhttp://dbpedia.org/property/citizenship
p429
aVhttp://dbpedia.org/property/gold
p430
aVhttp://dbpedia.org/property/asianPlace
p431
aVhttp://www.w3.org/2002/07/owl#sameAs
p432
aVhttp://dbpedia.org/property/recorded
p433
aVhttp://dbpedia.org/ontology/origin
p434
aVhttp://dbpedia.org/property/rd1t4Loc
p435
aVhttp://dbpedia.org/property/worldPlace
p436
aVhttp://dbpedia.org/property/residence
p437
aVhttp://dbpedia.org/property/cityOrRegion
p438
aVhttp://dbpedia.org/property/rd1t6Loc
p439
aVhttp://dbpedia.org/property/billed
p440
aVhttp://www.w3.org/1999/02/22-rdf-syntax-ns#type
p441
aVhttp://dbpedia.org/property/affiliations
p442
aVhttp://dbpedia.org/property/locationCountry
p443
aVhttp://dbpedia.org/ontology/secondDriverCountry
p444
aVhttp://dbpedia.org/property/withdraws
p445
aVhttp://dbpedia.org/property/locationSigned
p446
aVhttp://dbpedia.org/property/namedAfter
p447
aVhttp://dbpedia.org/property/shipCountry
p448
aVhttp://dbpedia.org/property/fightingOutOf
p449
aVhttp://dbpedia.org/property/gdpPppPerCapita
p450
aVhttp://dbpedia.org/ontology/thumbnail
p451
aVhttp://dbpedia.org/property/hometown
p452
aVhttp://dbpedia.org/ontology/city
p453
aVhttp://dbpedia.org/property/subdivisionName
p454
aVhttp://dbpedia.org/property/hqLocationCountry
p455
aVhttp://dbpedia.org/property/stadium
p456
aVhttp://dbpedia.org/property/ground
p457
aVhttp://dbpedia.org/property/place
p458
aVhttp://dbpedia.org/property/debuts
p459
aVhttp://dbpedia.org/ontology/PopulatedPlace/populationDensity
p460
aVhttp://dbpedia.org/property/footnoteG
p461
aVhttp://dbpedia.org/property/footnoteF
p462
aVhttp://dbpedia.org/property/allegiance
p463
aVhttp://dbpedia.org/property/combatant
p464
aVhttp://dbpedia.org/ontology/place
p465
aVhttp://dbpedia.org/property/language
p466
aVhttp://dbpedia.org/property/nationality
p467
aVhttp://dbpedia.org/property/constituencyMp
p468
aVhttp://dbpedia.org/property/rd2t2Loc
p469
aVhttp://dbpedia.org/property/venue
p470
aVhttp://dbpedia.org/property/deathPlace
p471
aVhttp://dbpedia.org/property/cityServed
p472
aVhttp://dbpedia.org/property/rd3t2Loc
p473
aVhttp://dbpedia.org/property/foundation
p474
aVhttp://dbpedia.org/property/controlledby
p475
aVhttp://dbpedia.org/ontology/language
p476
aVhttp://dbpedia.org/property/locale
p477
aVhttp://dbpedia.org/property/basinCountries
p478
aVhttp://dbpedia.org/ontology/assembly
p479
aVhttp://www.w3.org/2000/01/rdf-schema#comment
p480
aVhttp://dbpedia.org/property/populationEstimateYear
p481
aVhttp://dbpedia.org/property/olympicPlace
p482
aVhttp://dbpedia.org/property/regionServed
p483
aVhttp://dbpedia.org/ontology/builder
p484
ass.