(lp1
(lp2
(lp3
Vhttp://dbpedia.org/resource/English,_Indiana
p4
aa(lp5
a(lp6
a(lp7
a(lp8
aa(lp9
(lp10
Vhttp://dbpedia.org/resource/English,_Indiana
p11
aa(lp12
a(lp13
a(lp14
a(lp15
aa(lp16
(lp17
a(lp18
a(lp19
Vhttp://dbpedia.org/resource/Solomon_Islands
p20
aa(lp21
a(lp22
aa(lp23
(lp24
a(lp25
a(lp26
Vhttp://dbpedia.org/resource/Malakal_Island
p27
aa(lp28
a(lp29
aa(lp30
(lp31
a(lp32
a(lp33
Vhttp://dbpedia.org/resource/Peleliu
p34
aa(lp35
a(lp36
aa(lp37
(lp38
a(lp39
a(lp40
a(lp41
a(lp42
aa.