ccollections
defaultdict
p1
(c__builtin__
dict
p2
tRp3
I1
(dp4
I1
(lp5
sI2
(lp6
sI3
(lp7
ssI5
(dp8
I1
(lp9
Vhttp://dbpedia.org/property/placeOfDeath
p10
aVhttp://dbpedia.org/ontology/birthPlace
p11
aVhttp://dbpedia.org/property/deathPlace
p12
aVhttp://dbpedia.org/property/states
p13
aVhttp://dbpedia.org/property/birthPlace
p14
aVhttp://dbpedia.org/ontology/deathPlace
p15
aVhttp://dbpedia.org/ontology/spokenIn
p16
aVhttp://dbpedia.org/property/placeOfBirth
p17
asI2
(lp18
Vhttp://dbpedia.org/ontology/populationPlace
p19
asI3
(lp20
ssI7
(dp21
I1
(lp22
sI2
(lp23
sI3
(lp24
ssI11
(dp25
I1
(lp26
Vhttp://dbpedia.org/ontology/country
p27
aVhttp://dbpedia.org/property/headquarters
p28
aVhttp://dbpedia.org/property/states
p29
aVhttp://dbpedia.org/ontology/headquarter
p30
aVhttp://dbpedia.org/property/country
p31
aVhttp://dbpedia.org/property/territory
p32
asI2
(lp33
sI3
(lp34
ssI13
(dp35
I1
(lp36
sI2
(lp37
sI3
(lp38
ssI14
(dp39
I1
(lp40
Vhttp://www.w3.org/2000/01/rdf-schema#seeAlso
p41
aVhttp://dbpedia.org/property/origin
p42
aVhttp://dbpedia.org/ontology/origin
p43
aVhttp://dbpedia.org/property/place
p44
aVhttp://dbpedia.org/property/usedBy
p45
aVhttp://dbpedia.org/property/adminCenter
p46
aVhttp://dbpedia.org/property/footnoteC
p47
aVhttp://www.w3.org/2002/07/owl#differentFrom
p48
aVhttp://dbpedia.org/property/footnoteD
p49
aVhttp://dbpedia.org/ontology/country
p50
aVhttp://dbpedia.org/property/region
p51
aVhttp://www.w3.org/1999/02/22-rdf-syntax-ns#type
p52
aVhttp://dbpedia.org/ontology/demonym
p53
aVhttp://dbpedia.org/ontology/officialLanguage
p54
aVhttp://dbpedia.org/ontology/nationality
p55
aVhttp://dbpedia.org/property/birthPlace
p56
aVhttp://dbpedia.org/property/country/region
p57
aVhttp://dbpedia.org/ontology/place
p58
aVhttp://dbpedia.org/ontology/ethnicGroup
p59
aVhttp://dbpedia.org/property/locationSigned
p60
aVhttp://dbpedia.org/property/depositor
p61
aVhttp://dbpedia.org/property/country
p62
aVhttp://dbpedia.org/property/regionalLanguages
p63
aVhttp://purl.org/dc/terms/subject
p64
aVhttp://dbpedia.org/ontology/populationPlace
p65
aVhttp://dbpedia.org/property/ideology
p66
aVhttp://dbpedia.org/ontology/abstract
p67
aVhttp://dbpedia.org/ontology/recordedIn
p68
aVhttp://dbpedia.org/property/venue
p69
aVhttp://dbpedia.org/property/location
p70
aVhttp://dbpedia.org/property/states
p71
aVhttp://dbpedia.org/ontology/headquarter
p72
aVhttp://dbpedia.org/property/officialLanguages
p73
aVhttp://dbpedia.org/ontology/language
p74
aVhttp://dbpedia.org/ontology/location
p75
aVhttp://dbpedia.org/ontology/regionalLanguage
p76
aVhttp://www.w3.org/2000/01/rdf-schema#comment
p77
aVhttp://dbpedia.org/ontology/birthPlace
p78
aVhttp://dbpedia.org/ontology/wikiPageRedirects
p79
aVhttp://dbpedia.org/ontology/hometown
p80
aVhttp://dbpedia.org/property/demonym
p81
aVhttp://dbpedia.org/property/headquarters
p82
aVhttp://dbpedia.org/ontology/spokenIn
p83
aVhttp://dbpedia.org/ontology/stateOfOrigin
p84
aVhttp://dbpedia.org/property/stadium
p85
asI2
(lp86
sI3
(lp87
ssI16
(dp88
I1
(lp89
sI2
(lp90
Vhttp://dbpedia.org/ontology/abstract
p91
asI3
(lp92
ssI17
(dp93
I1
(lp94
sI2
(lp95
sI3
(lp96
ss.