(lp1
(lp2
(lp3
a(lp4
a(lp5
a(lp6
((lVhttp://dbpedia.org/resource/Detail
tp7
aaa(lp8
(lp9
a(lp10
a(lp11
a(lp12
((lVhttp://dbpedia.org/resource/Detail
tp13
aaa(lp14
(lp15
a(lp16
a(lp17
a(lp18
((lVhttp://dbpedia.org/resource/Detail
tp19
aaa(lp20
(lp21
a(lp22
a(lp23
a(lp24
((lVhttp://dbpedia.org/resource/Detail
tp25
aaa(lp26
(lp27
a(lp28
a(lp29
a(lp30
((lVhttp://dbpedia.org/resource/Detail
tp31
aaa(lp32
(lp33
a(lp34
a(lp35
a(lp36
((lVhttp://dbpedia.org/resource/Detail
tp37
aaa(lp38
(lp39
a(lp40
a(lp41
a(lp42
((lVhttp://dbpedia.org/resource/Detail
tp43
aaa(lp44
(lp45
a(lp46
a(lp47
a(lp48
((lVhttp://dbpedia.org/resource/Detail
tp49
aaa(lp50
(lp51
a(lp52
a(lp53
a(lp54
((lVhttp://dbpedia.org/resource/Detail
tp55
aaa(lp56
(lp57
a(lp58
a(lp59
a(lp60
((lVhttp://dbpedia.org/resource/Detail
tp61
aaa(lp62
(lp63
a(lp64
a(lp65
a(lp66
((lVhttp://dbpedia.org/resource/Detail
tp67
aaa(lp68
(lp69
a(lp70
a(lp71
a(lp72
((lVhttp://dbpedia.org/resource/Detail
tp73
aaa(lp74
(lp75
a(lp76
a(lp77
a(lp78
((lVhttp://dbpedia.org/resource/Detail
tp79
aaa(lp80
(lp81
a(lp82
a(lp83
a(lp84
((lVhttp://dbpedia.org/resource/Detail
tp85
aaa(lp86
(lp87
a(lp88
a(lp89
a(lp90
((lVhttp://dbpedia.org/resource/Detail
tp91
aaa(lp92
(lp93
a(lp94
a(lp95
a(lp96
((lVhttp://dbpedia.org/resource/Detail
tp97
aaa(lp98
(lp99
a(lp100
a(lp101
a(lp102
((lVhttp://dbpedia.org/resource/Detail
p103
tp104
aaa.