(lp1
(lp2
(dp3
Vstart
p4
I0
sVdisambiguatedURL
p5
NsVnamedEntity
p6
V
sVoffset
p7
I0
saa(lp8
(dp9
Vstart
p10
I0
sVdisambiguatedURL
p11
NsVnamedEntity
p12
V
sVoffset
p13
I0
saa(lp14
(dp15
Vstart
p16
I0
sVdisambiguatedURL
p17
NsVnamedEntity
p18
VCITY OF CAMAS
p19
sVoffset
p20
I13
saa(lp21
(dp22
Vstart
p23
I0
sVdisambiguatedURL
p24
NsVnamedEntity
p25
VLIBRARY BONDS - $7960000
p26
sVoffset
p27
I24
saa(lp28
(dp29
Vstart
p30
I0
sVdisambiguatedURL
p31
NsVnamedEntity
p32
VBONDS YES
p33
sVoffset
p34
I9
saa(lp35
(dp36
Vstart
p37
I0
sVdisambiguatedURL
p38
NsVnamedEntity
p39
VBONDS NO
p40
sVoffset
p41
I8
saa(lp42
(dp43
Vstart
p44
I0
sVdisambiguatedURL
p45
NsVnamedEntity
p46
V
sVoffset
p47
I0
saa(lp48
(dp49
Vstart
p50
I0
sVdisambiguatedURL
p51
NsVnamedEntity
p52
V
sVoffset
p53
I0
saa(lp54
(dp55
Vstart
p56
I0
sVdisambiguatedURL
p57
NsVnamedEntity
p58
V
sVoffset
p59
I0
saa(lp60
(dp61
Vstart
p62
I0
sVdisambiguatedURL
p63
NsVnamedEntity
p64
VCOUNTY WIDE BALLOTS CAST
p65
sVoffset
p66
I24
saa(lp67
(dp68
Vstart
p69
I0
sVdisambiguatedURL
p70
NsVnamedEntity
p71
V
sVoffset
p72
I0
saa(lp73
(dp74
Vstart
p75
I0
sVdisambiguatedURL
p76
NsVnamedEntity
p77
VTOTAL NUMBER OF PRECINCTS
p78
sVoffset
p79
I25
saa(lp80
(dp81
Vstart
p82
I0
sVdisambiguatedURL
p83
NsVnamedEntity
p84
VNUMBER OF PRECINCTS REPORTED
p85
sVoffset
p86
I28
saa(lp87
(dp88
Vstart
p89
I0
sVdisambiguatedURL
p90
NsVnamedEntity
p91
V
sVoffset
p92
I0
saa(lp93
(dp94
Vstart
p95
I0
sVdisambiguatedURL
p96
NsVnamedEntity
p97
V % T.O.
p98
sVoffset
p99
I26
saa(lp100
(dp101
Vstart
p102
I0
sVdisambiguatedURL
p103
NsVnamedEntity
p104
V
sVoffset
p105
I0
saa(lp106
(dp107
Vstart
p108
I0
sVdisambiguatedURL
p109
NsVnamedEntity
p110
VAccum. At Polls Votes
p111
sVoffset
p112
I21
saa(lp113
(dp114
Vstart
p115
I0
sVdisambiguatedURL
p116
NsVnamedEntity
p117
VAccum. Absentee Votes
p118
sVoffset
p119
I21
saa(lp120
(dp121
Vstart
p122
I0
sVdisambiguatedURL
p123
NsVnamedEntity
p124
V
sVoffset
p125
I0
saa(lp126
(dp127
Vstart
p128
I0
sVdisambiguatedURL
p129
NsVnamedEntity
p130
V
sVoffset
p131
I0
saa.