(lp1
(lp2
(lp3
a(lp4
a(lp5
a(lp6
a(lp7
a(lp8
a(lp9
a(lp10
a(lp11
a(lp12
a(lp13
((lp14
Vhttp://dbpedia.org/class/yago/Abstraction100002137
p15
aVhttp://dbpedia.org/class/yago/AssemblyConstituenciesOfTamilNadu
p16
aVhttp://dbpedia.org/class/yago/Body107965085
p17
aVhttp://dbpedia.org/class/yago/Constituency108238156
p18
aVhttp://dbpedia.org/class/yago/Group100031264
p19
aVhttp://dbpedia.org/class/yago/SocialGroup107950920
p20
aVhttp://dbpedia.org/resource/Alandur_(State_Assembly_Constituency)
p21
tp22
aa(lp23
a(lp24
a(lp25
a(lp26
a(lp27
a(lp28
a(lp29
aa.