(lp1
(lp2
(lp3
a(lp4
a(lp5
((lVhttp://dbpedia.org/resource/Color_space
tp6
aa(lp7
aa(lp8
(lp9
a(lp10
a(lp11
a(lp12
((lVhttp://dbpedia.org/resource/Aperture_priority
tp13
aaa(lp14
(lp15
a(lp16
a(lp17
((lp18
Vhttp://www.w3.org/2002/07/owl#Thing
p19
aVhttp://dbpedia.org/resource/Focal_length
tp20
aa(lp21
aa(lp22
(lp23
a(lp24
a(lp25
((lVhttp://dbpedia.org/resource/Metering_mode
p26
tp27
aa(lp28
aa(lp29
(lp30
a(lp31
a(lp32
a(lp33
aa.