(lp1
(dp2
I0
(dp3
I0
(lp4
sI1
(lp5
sI2
(lp6
sI3
(lp7
ssI1
(dp8
I0
g5
sI1
(lp9
sI2
(lp10
sI3
(lp11
ssI2
(dp12
I0
g6
sI1
g10
sI2
(lp13
sI3
(lp14
Vhttp://dbpedia.org/ontology/abstract
p15
aVhttp://www.w3.org/2000/01/rdf-schema#comment
p16
assI3
(dp17
I0
g7
sI1
g11
sI2
g14
sI3
(lp18
ssa(dp19
I0
(dp20
I0
(lp21
sI1
(lp22
sI2
(lp23
sI3
(lp24
ssI1
(dp25
I0
g22
sI1
(lp26
sI2
(lp27
sI3
(lp28
ssI2
(dp29
I0
g23
sI1
g27
sI2
(lp30
sI3
(lp31
ssI3
(dp32
I0
g24
sI1
g28
sI2
g31
sI3
(lp33
ssa(dp34
I0
(dp35
I0
(lp36
sI1
(lp37
sI2
(lp38
sI3
(lp39
ssI1
(dp40
I0
g37
sI1
(lp41
sI2
(lp42
sI3
(lp43
ssI2
(dp44
I0
g38
sI1
g42
sI2
(lp45
sI3
(lp46
ssI3
(dp47
I0
g39
sI1
g43
sI2
g46
sI3
(lp48
ssa(dp49
I0
(dp50
I0
(lp51
sI1
(lp52
sI2
(lp53
sI3
(lp54
ssI1
(dp55
I0
g52
sI1
(lp56
sI2
(lp57
sI3
(lp58
ssI2
(dp59
I0
g53
sI1
g57
sI2
(lp60
sI3
(lp61
ssI3
(dp62
I0
g54
sI1
g58
sI2
g61
sI3
(lp63
ssa(dp64
I0
(dp65
I0
(lp66
sI1
(lp67
sI2
(lp68
sI3
(lp69
ssI1
(dp70
I0
g67
sI1
(lp71
sI2
(lp72
sI3
(lp73
ssI2
(dp74
I0
g68
sI1
g72
sI2
(lp75
sI3
(lp76
ssI3
(dp77
I0
g69
sI1
g73
sI2
g76
sI3
(lp78
ssa.