(lp1
(lp2
a(lp3
a(lp4
a(lp5
(dp6
Vstart
p7
I0
sS'classes'
p8
(lp9
Vhttp://www.w3.org/2002/07/owl#Thing
p10
aVhttp://dbpedia.org/ontology/Place
p11
aVhttp://dbpedia.org/ontology/Location
p12
aVhttp://www.wikidata.org/entity/Q1248784
p13
aVhttp://dbpedia.org/ontology/Airport
p14
aVhttp://dbpedia.org/ontology/ArchitecturalStructure
p15
aVhttp://dbpedia.org/ontology/Infrastructure
p16
aVhttp://schema.org/Airport
p17
aVhttp://schema.org/Place
p18
aVhttp://umbel.org/umbel/rc/Airport_Physical
p19
aVhttp://umbel.org/umbel/rc/Building
p20
aVhttp://dbpedia.org/class/yago/Airfield102687992
p21
aVhttp://dbpedia.org/class/yago/Airport102692232
p22
aVhttp://dbpedia.org/class/yago/AirportsInNigeria
p23
aVhttp://dbpedia.org/class/yago/Artifact100021939
p24
aVhttp://dbpedia.org/class/yago/Facility103315023
p25
aVhttp://dbpedia.org/class/yago/Object100002684
p26
aVhttp://dbpedia.org/class/yago/Whole100003553
p27
aVhttp://dbpedia.org/class/yago/YagoGeoEntity
p28
aVhttp://dbpedia.org/class/yago/PhysicalEntity100001930
p29
aVhttp://dbpedia.org/class/yago/YagoPermanentlyLocatedEntity
p30
asVdisambiguatedURL
p31
Vhttp://dbpedia.org/resource/Nnamdi_Azikiwe_International_Airport
p32
sVnamedEntity
p33
Vnnamdi azikiwe airport
p34
sVoffset
p35
I22
saa(lp36
a(lp37
a(lp38
(dp39
Vstart
p40
I0
sg8
(lp41
Vhttp://www.w3.org/2002/07/owl#Thing
p42
aVhttp://dbpedia.org/ontology/Place
p43
aVhttp://dbpedia.org/ontology/Location
p44
aVhttp://www.wikidata.org/entity/Q1248784
p45
aVhttp://dbpedia.org/ontology/Airport
p46
aVhttp://dbpedia.org/ontology/ArchitecturalStructure
p47
aVhttp://dbpedia.org/ontology/Infrastructure
p48
aVhttp://www.w3.org/2003/01/geo/wgs84_pos#SpatialThing
p49
aVhttp://schema.org/Airport
p50
aVhttp://schema.org/Place
p51
aVhttp://umbel.org/umbel/rc/Airport_Physical
p52
aVhttp://umbel.org/umbel/rc/Building
p53
aVhttp://dbpedia.org/class/yago/Airfield102687992
p54
aVhttp://dbpedia.org/class/yago/Airport102692232
p55
aVhttp://dbpedia.org/class/yago/AirportsInGhana
p56
aVhttp://dbpedia.org/class/yago/Artifact100021939
p57
aVhttp://dbpedia.org/class/yago/Facility103315023
p58
aVhttp://dbpedia.org/class/yago/Object100002684
p59
aVhttp://dbpedia.org/class/yago/Whole100003553
p60
aVhttp://dbpedia.org/class/yago/YagoGeoEntity
p61
aVhttp://dbpedia.org/class/yago/PhysicalEntity100001930
p62
aVhttp://dbpedia.org/class/yago/YagoPermanentlyLocatedEntity
p63
asVdisambiguatedURL
p64
Vhttp://dbpedia.org/resource/Kotoka_International_Airport
p65
sVnamedEntity
p66
Vkotoka international airport
p67
sVoffset
p68
I28
saa(lp69
(dp70
Vstart
p71
I0
sg8
(lp72
Vhttp://www.w3.org/2002/07/owl#Thing
p73
aVhttp://dbpedia.org/ontology/Place
p74
aVhttp://dbpedia.org/ontology/Location
p75
aVhttp://www.wikidata.org/entity/Q1248784
p76
aVhttp://dbpedia.org/ontology/Airport
p77
aVhttp://dbpedia.org/ontology/ArchitecturalStructure
p78
aVhttp://dbpedia.org/ontology/Infrastructure
p79
aVhttp://www.w3.org/2003/01/geo/wgs84_pos#SpatialThing
p80
aVhttp://schema.org/Airport
p81
aVhttp://schema.org/Place
p82
asVdisambiguatedURL
p83
Vhttp://dbpedia.org/resource/Addis_Ababa_Bole_International_Airport
p84
sVnamedEntity
p85
Vbole international airport
p86
sVoffset
p87
I26
saa(lp88
(dp89
Vstart
p90
I0
sg8
(lp91
Vhttp://www.w3.org/2002/07/owl#Thing
p92
aVhttp://dbpedia.org/ontology/Place
p93
aVhttp://dbpedia.org/ontology/Location
p94
aVhttp://www.wikidata.org/entity/Q1248784
p95
aVhttp://dbpedia.org/ontology/Airport
p96
aVhttp://dbpedia.org/ontology/ArchitecturalStructure
p97
aVhttp://dbpedia.org/ontology/Infrastructure
p98
aVhttp://schema.org/Airport
p99
aVhttp://schema.org/Place
p100
aVhttp://umbel.org/umbel/rc/Airport_Physical
p101
aVhttp://umbel.org/umbel/rc/Building
p102
aVhttp://dbpedia.org/class/yago/Airfield102687992
p103
aVhttp://dbpedia.org/class/yago/Airport102692232
p104
aVhttp://dbpedia.org/class/yago/AirportsInWashington(state)
p105
aVhttp://dbpedia.org/class/yago/Artifact100021939
p106
aVhttp://dbpedia.org/class/yago/Facility103315023
p107
aVhttp://dbpedia.org/class/yago/Object100002684
p108
aVhttp://dbpedia.org/class/yago/Whole100003553
p109
aVhttp://dbpedia.org/class/yago/YagoGeoEntity
p110
aVhttp://dbpedia.org/class/yago/PhysicalEntity100001930
p111
aVhttp://dbpedia.org/class/yago/YagoPermanentlyLocatedEntity
p112
asVdisambiguatedURL
p113
Vhttp://dbpedia.org/resource/Tri-Cities_Airport_(Washington)
p114
sVnamedEntity
p115
Vmarka international airport
p116
sVoffset
p117
I27
saa(lp118
(dp119
Vstart
p120
I0
sg8
(lp121
Vhttp://www.w3.org/2002/07/owl#Thing
p122
aVhttp://dbpedia.org/ontology/Place
p123
aVhttp://dbpedia.org/ontology/Location
p124
aVhttp://www.wikidata.org/entity/Q1248784
p125
aVhttp://dbpedia.org/ontology/Airport
p126
aVhttp://dbpedia.org/ontology/ArchitecturalStructure
p127
aVhttp://dbpedia.org/ontology/Infrastructure
p128
aVhttp://www.w3.org/2003/01/geo/wgs84_pos#SpatialThing
p129
aVhttp://schema.org/Airport
p130
aVhttp://schema.org/Place
p131
aVhttp://umbel.org/umbel/rc/Airport_Physical
p132
aVhttp://umbel.org/umbel/rc/Building
p133
aVhttp://dbpedia.org/class/yago/Airfield102687992
p134
aVhttp://dbpedia.org/class/yago/Airport102692232
p135
aVhttp://dbpedia.org/class/yago/AirportsInSouthAustralia
p136
aVhttp://dbpedia.org/class/yago/Artifact100021939
p137
aVhttp://dbpedia.org/class/yago/Facility103315023
p138
aVhttp://dbpedia.org/class/yago/Object100002684
p139
aVhttp://dbpedia.org/class/yago/Whole100003553
p140
aVhttp://dbpedia.org/class/yago/YagoGeoEntity
p141
aVhttp://dbpedia.org/class/yago/PhysicalEntity100001930
p142
aVhttp://dbpedia.org/class/yago/YagoPermanentlyLocatedEntity
p143
asVdisambiguatedURL
p144
Vhttp://dbpedia.org/resource/Adelaide_Airport
p145
sVnamedEntity
p146
Vadelaide international airport
p147
sVoffset
p148
I30
saa(lp149
a(lp150
a(lp151
a(lp152
(dp153
Vstart
p154
I0
sg8
(lp155
Vhttp://www.w3.org/2002/07/owl#Thing
p156
aVhttp://dbpedia.org/ontology/Place
p157
aVhttp://dbpedia.org/ontology/Location
p158
aVhttp://www.wikidata.org/entity/Q1248784
p159
aVhttp://dbpedia.org/ontology/Airport
p160
aVhttp://dbpedia.org/ontology/ArchitecturalStructure
p161
aVhttp://dbpedia.org/ontology/Infrastructure
p162
aVhttp://www.w3.org/2003/01/geo/wgs84_pos#SpatialThing
p163
aVhttp://schema.org/Airport
p164
aVhttp://schema.org/Place
p165
aVhttp://umbel.org/umbel/rc/Airport_Physical
p166
aVhttp://dbpedia.org/class/yago/Airfield102687992
p167
aVhttp://dbpedia.org/class/yago/Airport102692232
p168
aVhttp://dbpedia.org/class/yago/AirportsInHokkaid%C5%8D
p169
aVhttp://dbpedia.org/class/yago/Artifact100021939
p170
aVhttp://dbpedia.org/class/yago/Facility103315023
p171
aVhttp://dbpedia.org/class/yago/Object100002684
p172
aVhttp://dbpedia.org/class/yago/Whole100003553
p173
aVhttp://dbpedia.org/class/yago/YagoGeoEntity
p174
aVhttp://dbpedia.org/class/yago/PhysicalEntity100001930
p175
aVhttp://dbpedia.org/class/yago/YagoPermanentlyLocatedEntity
p176
asVdisambiguatedURL
p177
Vhttp://dbpedia.org/resource/Asahikawa_Airport
p178
sVnamedEntity
p179
Vasahikawa airport
p180
sVoffset
p181
I17
saa(lp182
(dp183
Vstart
p184
I0
sg8
(lp185
Vhttp://www.w3.org/2002/07/owl#Thing
p186
aVhttp://dbpedia.org/ontology/Place
p187
aVhttp://dbpedia.org/ontology/Location
p188
aVhttp://www.wikidata.org/entity/Q1248784
p189
aVhttp://dbpedia.org/ontology/Airport
p190
aVhttp://dbpedia.org/ontology/ArchitecturalStructure
p191
aVhttp://dbpedia.org/ontology/Infrastructure
p192
aVhttp://www.w3.org/2003/01/geo/wgs84_pos#SpatialThing
p193
aVhttp://schema.org/Airport
p194
aVhttp://schema.org/Place
p195
aVhttp://umbel.org/umbel/rc/Airport_Physical
p196
aVhttp://dbpedia.org/class/yago/Airfield102687992
p197
aVhttp://dbpedia.org/class/yago/Airport102692232
p198
aVhttp://dbpedia.org/class/yago/AirportsEstablishedIn1928
p199
aVhttp://dbpedia.org/class/yago/AirportsInNewZealand
p200
aVhttp://dbpedia.org/class/yago/Artifact100021939
p201
aVhttp://dbpedia.org/class/yago/Facility103315023
p202
aVhttp://dbpedia.org/class/yago/Object100002684
p203
aVhttp://dbpedia.org/class/yago/Whole100003553
p204
aVhttp://dbpedia.org/class/yago/YagoGeoEntity
p205
aVhttp://dbpedia.org/class/yago/PhysicalEntity100001930
p206
aVhttp://dbpedia.org/class/yago/YagoPermanentlyLocatedEntity
p207
aVhttp://dbpedia.org/class/yago/USAAFAirTransportCommandAirfields-Pacific
p208
asVdisambiguatedURL
p209
Vhttp://dbpedia.org/resource/Auckland_Airport
p210
sVnamedEntity
p211
Vauckland international airport
p212
sVoffset
p213
I30
saa(lp214
(dp215
Vstart
p216
I0
sg8
(lp217
Vhttp://www.w3.org/2002/07/owl#Thing
p218
aVhttp://dbpedia.org/ontology/Place
p219
aVhttp://dbpedia.org/ontology/Location
p220
aVhttp://www.wikidata.org/entity/Q1248784
p221
aVhttp://dbpedia.org/ontology/Airport
p222
aVhttp://dbpedia.org/ontology/ArchitecturalStructure
p223
aVhttp://dbpedia.org/ontology/Infrastructure
p224
aVhttp://www.w3.org/2003/01/geo/wgs84_pos#SpatialThing
p225
aVhttp://schema.org/Airport
p226
aVhttp://schema.org/Place
p227
aVhttp://umbel.org/umbel/rc/Airport_Physical
p228
aVhttp://umbel.org/umbel/rc/Building
p229
aVhttp://dbpedia.org/class/yago/Airfield102687992
p230
aVhttp://dbpedia.org/class/yago/Airport102692232
p231
aVhttp://dbpedia.org/class/yago/AirportsInKazakhstan
p232
aVhttp://dbpedia.org/class/yago/Artifact100021939
p233
aVhttp://dbpedia.org/class/yago/Facility103315023
p234
aVhttp://dbpedia.org/class/yago/Object100002684
p235
aVhttp://dbpedia.org/class/yago/Whole100003553
p236
aVhttp://dbpedia.org/class/yago/YagoGeoEntity
p237
aVhttp://dbpedia.org/class/yago/PhysicalEntity100001930
p238
aVhttp://dbpedia.org/class/yago/YagoPermanentlyLocatedEntity
p239
asVdisambiguatedURL
p240
Vhttp://dbpedia.org/resource/Almaty_International_Airport
p241
sVnamedEntity
p242
Valmaty airport
p243
sVoffset
p244
I14
saa(lp245
a(lp246
(dp247
Vstart
p248
I0
sg8
(lp249
Vhttp://www.w3.org/2002/07/owl#Thing
p250
aVhttp://dbpedia.org/ontology/Place
p251
aVhttp://dbpedia.org/ontology/Location
p252
aVhttp://www.wikidata.org/entity/Q1248784
p253
aVhttp://dbpedia.org/ontology/Airport
p254
aVhttp://dbpedia.org/ontology/ArchitecturalStructure
p255
aVhttp://dbpedia.org/ontology/Infrastructure
p256
aVhttp://schema.org/Airport
p257
aVhttp://schema.org/Place
p258
aVhttp://umbel.org/umbel/rc/Airport_Physical
p259
aVhttp://umbel.org/umbel/rc/Building
p260
aVhttp://dbpedia.org/class/yago/Airfield102687992
p261
aVhttp://dbpedia.org/class/yago/Airport102692232
p262
aVhttp://dbpedia.org/class/yago/AirportsInSyria
p263
aVhttp://dbpedia.org/class/yago/Artifact100021939
p264
aVhttp://dbpedia.org/class/yago/Facility103315023
p265
aVhttp://dbpedia.org/class/yago/Object100002684
p266
aVhttp://dbpedia.org/class/yago/Whole100003553
p267
aVhttp://dbpedia.org/class/yago/YagoGeoEntity
p268
aVhttp://dbpedia.org/class/yago/PhysicalEntity100001930
p269
aVhttp://dbpedia.org/class/yago/YagoPermanentlyLocatedEntity
p270
asVdisambiguatedURL
p271
Vhttp://dbpedia.org/resource/Aleppo_International_Airport
p272
sVnamedEntity
p273
Valeppo international airport
p274
sVoffset
p275
I28
saa(lp276
a(lp277
(dp278
Vstart
p279
I0
sg8
(lp280
Vhttp://www.w3.org/2002/07/owl#Thing
p281
aVhttp://dbpedia.org/ontology/Place
p282
aVhttp://dbpedia.org/ontology/Location
p283
aVhttp://www.wikidata.org/entity/Q1248784
p284
aVhttp://dbpedia.org/ontology/Airport
p285
aVhttp://dbpedia.org/ontology/ArchitecturalStructure
p286
aVhttp://dbpedia.org/ontology/Infrastructure
p287
aVhttp://schema.org/Airport
p288
aVhttp://schema.org/Place
p289
aVhttp://umbel.org/umbel/rc/Airport_Physical
p290
aVhttp://umbel.org/umbel/rc/Building
p291
aVhttp://dbpedia.org/class/yago/Airfield102687992
p292
aVhttp://dbpedia.org/class/yago/Airport102692232
p293
aVhttp://dbpedia.org/class/yago/AirportsEstablishedIn1983
p294
aVhttp://dbpedia.org/class/yago/AirportsInJordan
p295
aVhttp://dbpedia.org/class/yago/Artifact100021939
p296
aVhttp://dbpedia.org/class/yago/Facility103315023
p297
aVhttp://dbpedia.org/class/yago/Object100002684
p298
aVhttp://dbpedia.org/class/yago/Whole100003553
p299
aVhttp://dbpedia.org/class/yago/YagoGeoEntity
p300
aVhttp://dbpedia.org/class/yago/PhysicalEntity100001930
p301
aVhttp://dbpedia.org/class/yago/YagoPermanentlyLocatedEntity
p302
asVdisambiguatedURL
p303
Vhttp://dbpedia.org/resource/Queen_Alia_International_Airport
p304
sVnamedEntity
p305
Vqueen alia international airport
p306
sVoffset
p307
I32
saa.