ccollections
defaultdict
p1
(c__builtin__
dict
p2
tRp3
I6
(dp4
I1
(lp5
sI2
(lp6
Vhttp://www.w3.org/2000/01/rdf-schema#seeAlso
p7
aVhttp://dbpedia.org/property/col
p8
aVhttp://www.w3.org/2002/07/owl#differentFrom
p9
aVhttp://dbpedia.org/ontology/officialLanguage
p10
aVhttp://dbpedia.org/ontology/country
p11
aVhttp://www.w3.org/1999/02/22-rdf-syntax-ns#type
p12
aVhttp://dbpedia.org/property/usingCountries
p13
aVhttp://dbpedia.org/ontology/demonym
p14
aVhttp://dbpedia.org/property/state
p15
aVhttp://dbpedia.org/property/available
p16
aVhttp://dbpedia.org/ontology/ethnicGroup
p17
aVhttp://dbpedia.org/property/origins
p18
aVhttp://dbpedia.org/property/country
p19
aVhttp://dbpedia.org/property/regionalLanguages
p20
aVhttp://dbpedia.org/property/establishedEvent
p21
aVhttp://dbpedia.org/ontology/wikiPageExternalLink
p22
aVhttp://purl.org/dc/terms/subject
p23
aVhttp://dbpedia.org/ontology/populationPlace
p24
aVhttp://dbpedia.org/ontology/abstract
p25
aVhttp://dbpedia.org/property/regionServed
p26
aVhttp://dbpedia.org/property/location
p27
aVhttp://dbpedia.org/ontology/usingCountry
p28
aVhttp://dbpedia.org/property/states
p29
aVhttp://dbpedia.org/ontology/language
p30
aVhttp://dbpedia.org/property/officialLanguages
p31
aVhttp://dbpedia.org/property/languages
p32
aVhttp://dbpedia.org/ontology/state
p33
aVhttp://dbpedia.org/ontology/regionalLanguage
p34
aVhttp://www.w3.org/2000/01/rdf-schema#comment
p35
aVhttp://dbpedia.org/property/demonym
p36
aVhttp://dbpedia.org/ontology/spokenIn
p37
aVhttp://dbpedia.org/property/stadium
p38
aVhttp://dbpedia.org/ontology/location
p39
ass.