(lp1
(lp2
(lp3
a(lp4
Vhttp://dbpedia.org/resource/Janetta_Rebold_Benton
p5
aa(lp6
aa(lp7
(lp8
a(lp9
Vhttp://dbpedia.org/resource/Janee_Ayers
p10
aa(lp11
aa(lp12
(lp13
a(lp14
a(lp15
aa(lp16
(lp17
a(lp18
a(lp19
aa(lp20
(lp21
a(lp22
a(lp23
aa(lp24
(lp25
a(lp26
a(lp27
aa(lp28
(lp29
a(lp30
Vhttp://dbpedia.org/resource/Janos_Delacruz
p31
aa(lp32
aa(lp33
(lp34
a(lp35
a(lp36
aa(lp37
(lp38
a(lp39
Vhttp://dbpedia.org/resource/Jared_Cohn
p40
aa(lp41
aa(lp42
(lp43
a(lp44
Vhttp://dbpedia.org/resource/Jared_Morgenstern
p45
aa(lp46
aa(lp47
(lp48
a(lp49
a(lp50
aa(lp51
(lp52
a(lp53
a(lp54
aa(lp55
(lp56
a(lp57
a(lp58
aa(lp59
(lp60
a(lp61
a(lp62
aa(lp63
(lp64
a(lp65
Vhttp://dbpedia.org/resource/Jass_Bhatia
p66
aa(lp67
aa(lp68
(lp69
a(lp70
Vhttp://dbpedia.org/resource/Jassem_Ghazbanpour
p71
aa(lp72
aa(lp73
(lp74
a(lp75
Vhttp://dbpedia.org/resource/Jay_Deshmukh
p76
aa(lp77
aa.