(lp1
(dp2
I0
(dp3
I0
(lp4
sI1
(lp5
sI2
(lp6
sI3
(lp7
sI4
(lp8
ssI1
(dp9
I0
g5
sI1
(lp10
sI2
(lp11
Vhttp://dbpedia.org/property/website
p12
aVhttp://dbpedia.org/property/affiliation
p13
aVhttp://dbpedia.org/property/leaderParty
p14
aVhttp://dbpedia.org/ontology/politicalPartyInLegislature
p15
aVhttp://dbpedia.org/property/colours
p16
aVhttp://www.w3.org/ns/prov#wasDerivedFrom
p17
aVhttp://dbpedia.org/ontology/leaderParty
p18
aVhttp://dbpedia.org/ontology/headquarter
p19
aVhttp://dbpedia.org/property/leader
p20
aVhttp://dbpedia.org/ontology/country
p21
aVhttp://www.w3.org/1999/02/22-rdf-syntax-ns#type
p22
aVhttp://dbpedia.org/property/seats1Title
p23
aVhttp://dbpedia.org/property/wordnet_type
p24
aVhttp://xmlns.com/foaf/0.1/isPrimaryTopicOf
p25
aVhttp://dbpedia.org/property/office
p26
aVhttp://dbpedia.org/property/nameEnglish
p27
aVhttp://dbpedia.org/ontology/affiliation
p28
aVhttp://dbpedia.org/property/nativeName
p29
aVhttp://dbpedia.org/ontology/wikiPageDisambiguates
p30
aVhttp://dbpedia.org/ontology/ideology
p31
aVhttp://xmlns.com/foaf/0.1/primaryTopic
p32
aVhttp://purl.org/dc/terms/subject
p33
aVhttp://dbpedia.org/property/ideology
p34
aVhttp://dbpedia.org/ontology/party
p35
aVhttp://dbpedia.org/ontology/abstract
p36
aVhttp://xmlns.com/foaf/0.1/depiction
p37
aVhttp://dbpedia.org/property/position
p38
aVhttp://dbpedia.org/property/affiliation1Title
p39
aVhttp://dbpedia.org/ontology/leader
p40
aVhttp://dbpedia.org/property/hasPhotoCollection
p41
aVhttp://www.w3.org/2000/01/rdf-schema#label
p42
aVhttp://dbpedia.org/property/seats2Title
p43
aVhttp://dbpedia.org/ontology/colourName
p44
aVhttp://dbpedia.org/property/party
p45
aVhttp://dbpedia.org/property/headquarters
p46
aVhttp://www.w3.org/2000/01/rdf-schema#comment
p47
aVhttp://dbpedia.org/property/youthWing
p48
aVhttp://dbpedia.org/ontology/wikiPageExternalLink
p49
aVhttp://dbpedia.org/ontology/wikiPageRedirects
p50
aVhttp://purl.org/voc/vrank#hasRank
p51
aVhttp://xmlns.com/foaf/0.1/name
p52
aVhttp://xmlns.com/foaf/0.1/homepage
p53
aVhttp://dbpedia.org/ontology/colour
p54
aVhttp://www.w3.org/2002/07/owl#sameAs
p55
aVhttp://dbpedia.org/ontology/thumbnail
p56
asI3
(lp57
sI4
(lp58
ssI2
(dp59
I0
g6
sI1
g11
sI2
(lp60
sI3
(lp61
sI4
(lp62
ssI3
(dp63
I0
g7
sI1
g57
sI2
g61
sI3
(lp64
sI4
(lp65
ssI4
(dp66
I0
g8
sI1
g58
sI2
g62
sI3
g65
sI4
(lp67
ssa(dp68
I0
(dp69
I0
(lp70
sI1
(lp71
sI2
(lp72
sI3
(lp73
sI4
(lp74
ssI1
(dp75
I0
g71
sI1
(lp76
sI2
(lp77
sI3
(lp78
sI4
(lp79
ssI2
(dp80
I0
g72
sI1
g77
sI2
(lp81
sI3
(lp82
sI4
(lp83
ssI3
(dp84
I0
g73
sI1
g78
sI2
g82
sI3
(lp85
sI4
(lp86
ssI4
(dp87
I0
g74
sI1
g79
sI2
g83
sI3
g86
sI4
(lp88
ssa(dp89
I0
(dp90
I0
(lp91
sI1
(lp92
sI2
(lp93
sI3
(lp94
sI4
(lp95
ssI1
(dp96
I0
g92
sI1
(lp97
sI2
(lp98
sI3
(lp99
sI4
(lp100
ssI2
(dp101
I0
g93
sI1
g98
sI2
(lp102
sI3
(lp103
sI4
(lp104
ssI3
(dp105
I0
g94
sI1
g99
sI2
g103
sI3
(lp106
sI4
(lp107
ssI4
(dp108
I0
g95
sI1
g100
sI2
g104
sI3
g107
sI4
(lp109
ssa(dp110
I0
(dp111
I0
(lp112
sI1
(lp113
Vhttp://dbpedia.org/ontology/instrument
p114
aVhttp://dbpedia.org/ontology/abstract
p115
aVhttp://dbpedia.org/property/notableInstruments
p116
aVhttp://www.w3.org/2002/07/owl#sameAs
p117
aVhttp://www.w3.org/2000/01/rdf-schema#comment
p118
asI2
(lp119
sI3
(lp120
sI4
(lp121
Vhttp://dbpedia.org/ontology/genre
p122
aVhttp://www.w3.org/2002/07/owl#sameAs
p123
aVhttp://xmlns.com/foaf/0.1/primaryTopic
p124
aVhttp://www.w3.org/1999/02/22-rdf-syntax-ns#type
p125
aVhttp://purl.org/dc/terms/subject
p126
aVhttp://dbpedia.org/property/producer
p127
aVhttp://www.w3.org/2000/01/rdf-schema#comment
p128
aVhttp://dbpedia.org/ontology/abstract
p129
aVhttp://xmlns.com/foaf/0.1/depiction
p130
aVhttp://www.w3.org/ns/prov#wasDerivedFrom
p131
aVhttp://dbpedia.org/ontology/writer
p132
aVhttp://xmlns.com/foaf/0.1/isPrimaryTopicOf
p133
aVhttp://dbpedia.org/property/genre
p134
aVhttp://dbpedia.org/property/hasPhotoCollection
p135
aVhttp://dbpedia.org/property/associatedActs
p136
aVhttp://dbpedia.org/property/writer
p137
aVhttp://dbpedia.org/ontology/producer
p138
aVhttp://dbpedia.org/ontology/thumbnail
p139
assI1
(dp140
I0
g113
sI1
(lp141
sI2
(lp142
sI3
(lp143
sI4
(lp144
Vhttp://dbpedia.org/ontology/associatedMusicalArtist
p145
aVhttp://dbpedia.org/property/note
p146
aVhttp://dbpedia.org/property/currentMembers
p147
aVhttp://www.w3.org/ns/prov#wasDerivedFrom
p148
aVhttp://dbpedia.org/property/genre
p149
aVhttp://dbpedia.org/ontology/bandMember
p150
aVhttp://dbpedia.org/ontology/producer
p151
aVhttp://www.w3.org/1999/02/22-rdf-syntax-ns#type
p152
aVhttp://xmlns.com/foaf/0.1/isPrimaryTopicOf
p153
aVhttp://dbpedia.org/property/artist
p154
aVhttp://dbpedia.org/property/associatedActs
p155
aVhttp://xmlns.com/foaf/0.1/primaryTopic
p156
aVhttp://purl.org/dc/terms/subject
p157
aVhttp://dbpedia.org/property/pastMembers
p158
aVhttp://dbpedia.org/ontology/abstract
p159
aVhttp://xmlns.com/foaf/0.1/depiction
p160
aVhttp://dbpedia.org/ontology/thumbnail
p161
aVhttp://dbpedia.org/property/hasPhotoCollection
p162
aVhttp://dbpedia.org/ontology/genre
p163
aVhttp://www.w3.org/2000/01/rdf-schema#comment
p164
aVhttp://dbpedia.org/ontology/formerBandMember
p165
aVhttp://dbpedia.org/ontology/wikiPageRedirects
p166
aVhttp://dbpedia.org/ontology/artist
p167
aVhttp://dbpedia.org/ontology/associatedBand
p168
aVhttp://www.w3.org/2002/07/owl#sameAs
p169
assI2
(dp170
I0
g119
sI1
g142
sI2
(lp171
sI3
(lp172
sI4
(lp173
Vhttp://dbpedia.org/ontology/associatedMusicalArtist
p174
aVhttp://dbpedia.org/ontology/recordLabel
p175
aVhttp://dbpedia.org/property/producer
p176
aVhttp://dbpedia.org/property/note
p177
aVhttp://dbpedia.org/ontology/musicComposer
p178
aVhttp://dbpedia.org/ontology/musicalArtist
p179
aVhttp://dbpedia.org/ontology/executiveProducer
p180
aVhttp://dbpedia.org/ontology/musicalBand
p181
aVhttp://dbpedia.org/property/creator
p182
aVhttp://dbpedia.org/property/genre
p183
aVhttp://dbpedia.org/property/writer
p184
aVhttp://dbpedia.org/ontology/producer
p185
aVhttp://dbpedia.org/property/label
p186
aVhttp://www.w3.org/1999/02/22-rdf-syntax-ns#type
p187
aVhttp://dbpedia.org/property/instrument
p188
aVhttp://dbpedia.org/property/music
p189
aVhttp://dbpedia.org/ontology/writer
p190
aVhttp://xmlns.com/foaf/0.1/isPrimaryTopicOf
p191
aVhttp://dbpedia.org/property/artist
p192
aVhttp://dbpedia.org/property/associatedActs
p193
aVhttp://dbpedia.org/ontology/creator
p194
aVhttp://dbpedia.org/ontology/wikiPageExternalLink
p195
aVhttp://xmlns.com/foaf/0.1/primaryTopic
p196
aVhttp://purl.org/dc/terms/subject
p197
aVhttp://dbpedia.org/ontology/abstract
p198
aVhttp://xmlns.com/foaf/0.1/depiction
p199
aVhttp://dbpedia.org/property/extra
p200
aVhttp://dbpedia.org/ontology/thumbnail
p201
aVhttp://dbpedia.org/property/hasPhotoCollection
p202
aVhttp://dbpedia.org/ontology/composer
p203
aVhttp://dbpedia.org/ontology/genre
p204
aVhttp://dbpedia.org/ontology/presenter
p205
aVhttp://www.w3.org/2000/01/rdf-schema#comment
p206
aVhttp://dbpedia.org/ontology/wikiPageRedirects
p207
aVhttp://dbpedia.org/ontology/artist
p208
aVhttp://dbpedia.org/property/aux
p209
aVhttp://www.w3.org/ns/prov#wasDerivedFrom
p210
aVhttp://dbpedia.org/ontology/associatedBand
p211
aVhttp://www.w3.org/2002/07/owl#sameAs
p212
assI3
(dp213
I0
g120
sI1
g143
sI2
g172
sI3
(lp214
sI4
(lp215
Vhttp://dbpedia.org/ontology/associatedMusicalArtist
p216
aVhttp://www.w3.org/1999/02/22-rdf-syntax-ns#type
p217
aVhttp://xmlns.com/foaf/0.1/name
p218
aVhttp://www.w3.org/2000/01/rdf-schema#comment
p219
aVhttp://dbpedia.org/ontology/abstract
p220
aVhttp://xmlns.com/foaf/0.1/primaryTopic
p221
aVhttp://dbpedia.org/property/currentMembers
p222
aVhttp://dbpedia.org/property/name
p223
aVhttp://dbpedia.org/ontology/alias
p224
aVhttp://xmlns.com/foaf/0.1/isPrimaryTopicOf
p225
aVhttp://dbpedia.org/property/associatedActs
p226
aVhttp://www.w3.org/ns/prov#wasDerivedFrom
p227
aVhttp://dbpedia.org/property/alias
p228
aVhttp://dbpedia.org/property/hasPhotoCollection
p229
aVhttp://dbpedia.org/property/extra
p230
aVhttp://www.w3.org/2000/01/rdf-schema#label
p231
aVhttp://dbpedia.org/ontology/associatedBand
p232
aVhttp://www.w3.org/2002/07/owl#sameAs
p233
assI4
(dp234
I0
g121
sI1
g144
sI2
g173
sI3
g215
sI4
(lp235
ssa(dp236
I0
(dp237
I0
(lp238
sI1
(lp239
sI2
(lp240
sI3
(lp241
sI4
(lp242
Vhttp://purl.org/dc/terms/subject
p243
assI1
(dp244
I0
g239
sI1
(lp245
sI2
(lp246
sI3
(lp247
sI4
(lp248
ssI2
(dp249
I0
g240
sI1
g246
sI2
(lp250
sI3
(lp251
sI4
(lp252
ssI3
(dp253
I0
g241
sI1
g247
sI2
g251
sI3
(lp254
sI4
(lp255
ssI4
(dp256
I0
g242
sI1
g248
sI2
g252
sI3
g255
sI4
(lp257
ssa(dp258
I0
(dp259
I0
(lp260
sI1
(lp261
sI2
(lp262
sI3
(lp263
Vhttp://dbpedia.org/ontology/wikiPageExternalLink
p264
aVhttp://xmlns.com/foaf/0.1/primaryTopic
p265
aVhttp://purl.org/dc/terms/subject
p266
aVhttp://www.w3.org/2000/01/rdf-schema#comment
p267
aVhttp://dbpedia.org/ontology/abstract
p268
aVhttp://purl.org/voc/vrank#hasRank
p269
aVhttp://xmlns.com/foaf/0.1/isPrimaryTopicOf
p270
aVhttp://www.w3.org/ns/prov#wasDerivedFrom
p271
aVhttp://dbpedia.org/property/hasPhotoCollection
p272
aVhttp://www.w3.org/2002/07/owl#sameAs
p273
asI4
(lp274
ssI1
(dp275
I0
g261
sI1
(lp276
sI2
(lp277
sI3
(lp278
sI4
(lp279
ssI2
(dp280
I0
g262
sI1
g277
sI2
(lp281
sI3
(lp282
sI4
(lp283
ssI3
(dp284
I0
g263
sI1
g278
sI2
g282
sI3
(lp285
sI4
(lp286
Vhttp://dbpedia.org/ontology/wikiPageDisambiguates
p287
assI4
(dp288
I0
g274
sI1
g279
sI2
g283
sI3
g286
sI4
(lp289
ssa(dp290
I0
(dp291
I0
(lp292
sI1
(lp293
sI2
(lp294
Vhttp://www.w3.org/1999/02/22-rdf-syntax-ns#type
p295
asI3
(lp296
sI4
(lp297
ssI1
(dp298
I0
g293
sI1
(lp299
sI2
(lp300
sI3
(lp301
sI4
(lp302
ssI2
(dp303
I0
g294
sI1
g300
sI2
(lp304
sI3
(lp305
sI4
(lp306
ssI3
(dp307
I0
g296
sI1
g301
sI2
g305
sI3
(lp308
sI4
(lp309
ssI4
(dp310
I0
g297
sI1
g302
sI2
g306
sI3
g309
sI4
(lp311
ssa(dp312
I0
(dp313
I0
(lp314
sI1
(lp315
sI2
(lp316
sI3
(lp317
sI4
(lp318
ssI1
(dp319
I0
g315
sI1
(lp320
sI2
(lp321
sI3
(lp322
sI4
(lp323
ssI2
(dp324
I0
g316
sI1
g321
sI2
(lp325
sI3
(lp326
sI4
(lp327
ssI3
(dp328
I0
g317
sI1
g322
sI2
g326
sI3
(lp329
sI4
(lp330
ssI4
(dp331
I0
g318
sI1
g323
sI2
g327
sI4
(lp332
ssa.