ccollections
defaultdict
p1
(c__builtin__
dict
p2
tRp3
I3
(dp4
I1
(lp5
Vhttp://dbpedia.org/ontology/instrument
p6
aVhttp://dbpedia.org/ontology/abstract
p7
aVhttp://dbpedia.org/property/notableInstruments
p8
aVhttp://www.w3.org/2002/07/owl#sameAs
p9
aVhttp://www.w3.org/2000/01/rdf-schema#comment
p10
asI2
(lp11
sI3
(lp12
sI4
(lp13
Vhttp://dbpedia.org/ontology/genre
p14
aVhttp://xmlns.com/foaf/0.1/primaryTopic
p15
aVhttp://www.w3.org/1999/02/22-rdf-syntax-ns#type
p16
aVhttp://purl.org/dc/terms/subject
p17
aVhttp://dbpedia.org/property/producer
p18
aVhttp://www.w3.org/2000/01/rdf-schema#comment
p19
aVhttp://dbpedia.org/ontology/abstract
p20
aVhttp://xmlns.com/foaf/0.1/depiction
p21
aVhttp://dbpedia.org/ontology/producer
p22
aVhttp://dbpedia.org/property/genre
p23
aVhttp://dbpedia.org/ontology/writer
p24
aVhttp://xmlns.com/foaf/0.1/isPrimaryTopicOf
p25
aVhttp://www.w3.org/ns/prov#wasDerivedFrom
p26
aVhttp://dbpedia.org/property/hasPhotoCollection
p27
aVhttp://dbpedia.org/property/associatedActs
p28
aVhttp://dbpedia.org/property/writer
p29
aVhttp://www.w3.org/2002/07/owl#sameAs
p30
aVhttp://dbpedia.org/ontology/thumbnail
p31
assI4
(dp32
I1
(lp33
sI2
(lp34
sI3
(lp35
sI4
(lp36
Vhttp://purl.org/dc/terms/subject
p37
assI6
(dp38
I1
(lp39
sI2
(lp40
Vhttp://www.w3.org/1999/02/22-rdf-syntax-ns#type
p41
asI3
(lp42
sI4
(lp43
ssI7
(dp44
I1
(lp45
sI2
(lp46
sI3
(lp47
sI4
(lp48
ss.