(lp1
(lp2
(dp3
Vstart
p4
I0
sVdisambiguatedURL
p5
NsVnamedEntity
p6
V1
sVoffset
p7
I1
saa(lp8
(dp9
Vstart
p10
I0
sVdisambiguatedURL
p11
NsVnamedEntity
p12
V2
sVoffset
p13
I1
saa(lp14
(dp15
Vstart
p16
I0
sVdisambiguatedURL
p17
NsVnamedEntity
p18
V3
sVoffset
p19
I1
saa(lp20
(dp21
Vstart
p22
I0
sVdisambiguatedURL
p23
NsVnamedEntity
p24
V4
sVoffset
p25
I1
saa(lp26
(dp27
Vstart
p28
I0
sVdisambiguatedURL
p29
NsVnamedEntity
p30
V5
sVoffset
p31
I1
saa(lp32
(dp33
Vstart
p34
I0
sVdisambiguatedURL
p35
NsVnamedEntity
p36
V5
sVoffset
p37
I1
saa(lp38
(dp39
Vstart
p40
I0
sVdisambiguatedURL
p41
NsVnamedEntity
p42
V5
sVoffset
p43
I1
saa(lp44
(dp45
Vstart
p46
I0
sVdisambiguatedURL
p47
NsVnamedEntity
p48
V6
sVoffset
p49
I1
saa(lp50
(dp51
Vstart
p52
I0
sVdisambiguatedURL
p53
NsVnamedEntity
p54
V7
sVoffset
p55
I1
saa(lp56
(dp57
Vstart
p58
I0
sVdisambiguatedURL
p59
NsVnamedEntity
p60
V8
sVoffset
p61
I1
saa(lp62
(dp63
Vstart
p64
I0
sVdisambiguatedURL
p65
NsVnamedEntity
p66
V9
sVoffset
p67
I1
saa(lp68
(dp69
Vstart
p70
I0
sVdisambiguatedURL
p71
NsVnamedEntity
p72
V10
p73
sVoffset
p74
I2
saa(lp75
(dp76
Vstart
p77
I0
sVdisambiguatedURL
p78
NsVnamedEntity
p79
V11
p80
sVoffset
p81
I2
saa(lp82
(dp83
Vstart
p84
I0
sVdisambiguatedURL
p85
NsVnamedEntity
p86
V12
p87
sVoffset
p88
I2
saa(lp89
(dp90
Vstart
p91
I0
sVdisambiguatedURL
p92
NsVnamedEntity
p93
V13
p94
sVoffset
p95
I2
saa(lp96
(dp97
Vstart
p98
I0
sVdisambiguatedURL
p99
NsVnamedEntity
p100
V14
p101
sVoffset
p102
I2
saa(lp103
(dp104
Vstart
p105
I0
sVdisambiguatedURL
p106
NsVnamedEntity
p107
V15
p108
sVoffset
p109
I2
saa(lp110
(dp111
Vstart
p112
I0
sVdisambiguatedURL
p113
NsVnamedEntity
p114
V16
p115
sVoffset
p116
I2
saa(lp117
(dp118
Vstart
p119
I0
sVdisambiguatedURL
p120
NsVnamedEntity
p121
V17
p122
sVoffset
p123
I2
saa(lp124
(dp125
Vstart
p126
I0
sVdisambiguatedURL
p127
NsVnamedEntity
p128
V18
p129
sVoffset
p130
I2
saa.