(lp1
(lp2
(lp3
((lp4
Vhttp://www.w3.org/2002/07/owl#Thing
p5
aVhttp://dbpedia.org/ontology/Place
p6
aVhttp://dbpedia.org/ontology/Location
p7
aVhttp://www.wikidata.org/entity/Q486972
p8
aVhttp://www.wikidata.org/entity/Q6256
p9
aVhttp://dbpedia.org/ontology/Country
p10
aVhttp://dbpedia.org/ontology/PopulatedPlace
p11
aVhttp://www.w3.org/2003/01/geo/wgs84_pos#SpatialThing
p12
aVhttp://schema.org/Country
p13
aVhttp://schema.org/Place
p14
aVhttp://umbel.org/umbel/rc/Country
p15
aVhttp://umbel.org/umbel/rc/Location_Underspecified
p16
aVhttp://umbel.org/umbel/rc/PopulatedPlace
p17
aVhttp://dbpedia.org/class/yago/Abstraction100002137
p18
aVhttp://dbpedia.org/class/yago/AdministrativeDistrict108491826
p19
aVhttp://dbpedia.org/class/yago/Area108497294
p20
aVhttp://dbpedia.org/class/yago/Capital108518505
p21
aVhttp://dbpedia.org/class/yago/CapitalsInEurope
p22
aVhttp://dbpedia.org/class/yago/Center108523483
p23
aVhttp://dbpedia.org/class/yago/City108524735
p24
aVhttp://dbpedia.org/class/yago/Country108544813
p25
aVhttp://dbpedia.org/class/yago/District108552138
p26
aVhttp://dbpedia.org/class/yago/Economy108366753
p27
aVhttp://dbpedia.org/class/yago/Enclave108553132
p28
aVhttp://dbpedia.org/class/yago/Group100031264
p29
aVhttp://dbpedia.org/class/yago/Location100027167
p30
aVhttp://dbpedia.org/class/yago/Object100002684
p31
aVhttp://dbpedia.org/class/yago/Region108630985
p32
aVhttp://dbpedia.org/class/yago/Seat108647945
p33
aVhttp://dbpedia.org/class/yago/Site108651247
p34
aVhttp://dbpedia.org/class/yago/System108435388
p35
aVhttp://dbpedia.org/class/yago/Tract108673395
p36
aVhttp://dbpedia.org/class/yago/UrbanArea108675967
p37
aVhttp://dbpedia.org/class/yago/YagoGeoEntity
p38
aVhttp://dbpedia.org/class/yago/YagoLegalActorGeo
p39
aVhttp://dbpedia.org/class/yago/CatholicPilgrimageSites
p40
aVhttp://dbpedia.org/class/yago/CountriesThatAreEnclavesOfItaly
p41
aVhttp://dbpedia.org/class/yago/Enclaves
p42
aVhttp://dbpedia.org/class/yago/EuropeanCountries
p43
aVhttp://dbpedia.org/class/yago/GeographicalArea108574314
p44
aVhttp://dbpedia.org/class/yago/Municipality108626283
p45
aVhttp://dbpedia.org/class/yago/PhysicalEntity100001930
p46
aVhttp://dbpedia.org/class/yago/YagoPermanentlyLocatedEntity
p47
aVhttp://dbpedia.org/class/yago/HolyCities
p48
aVhttp://dbpedia.org/class/yago/Italian-speakingCountries
p49
aVhttp://dbpedia.org/class/yago/LandlockedCountries
p50
aVhttp://dbpedia.org/class/yago/StatesAndTerritoriesEstablishedIn1929
p51
aVhttp://dbpedia.org/class/yago/WorldHeritageSitesInVaticanCity
p52
aVhttp://dbpedia.org/resource/Vatican_City
tp53
aa(lp54
a(lp55
aa(lp56
(lp57
a(lp58
a(lp59
aa(lp60
(lp61
a(lp62
a(lp63
aa(lp64
(lp65
a(lp66
a(lp67
aa(lp68
(lp69
a(lp70
a(lp71
aa(lp72
(lp73
((lp74
Vhttp://www.w3.org/2002/07/owl#Thing
p75
aVhttp://dbpedia.org/ontology/Place
p76
aVhttp://dbpedia.org/ontology/Location
p77
aVhttp://www.wikidata.org/entity/Q486972
p78
aVhttp://www.wikidata.org/entity/Q6256
p79
aVhttp://dbpedia.org/ontology/Country
p80
aVhttp://dbpedia.org/ontology/PopulatedPlace
p81
aVhttp://www.w3.org/2003/01/geo/wgs84_pos#SpatialThing
p82
aVhttp://schema.org/Country
p83
aVhttp://schema.org/Place
p84
aVhttp://umbel.org/umbel/rc/Country
p85
aVhttp://umbel.org/umbel/rc/Location_Underspecified
p86
aVhttp://umbel.org/umbel/rc/PopulatedPlace
p87
aVhttp://dbpedia.org/class/yago/Abstraction100002137
p88
aVhttp://dbpedia.org/class/yago/AdministrativeDistrict108491826
p89
aVhttp://dbpedia.org/class/yago/AlpineCountries
p90
aVhttp://dbpedia.org/class/yago/Country108544813
p91
aVhttp://dbpedia.org/class/yago/District108552138
p92
aVhttp://dbpedia.org/class/yago/Domain108556491
p93
aVhttp://dbpedia.org/class/yago/Economy108366753
p94
aVhttp://dbpedia.org/class/yago/Group100031264
p95
aVhttp://dbpedia.org/class/yago/Location100027167
p96
aVhttp://dbpedia.org/class/yago/Object100002684
p97
aVhttp://dbpedia.org/class/yago/Region108630039
p98
aVhttp://dbpedia.org/class/yago/Region108630985
p99
aVhttp://dbpedia.org/class/yago/System108435388
p100
aVhttp://dbpedia.org/class/yago/YagoGeoEntity
p101
aVhttp://dbpedia.org/class/yago/YagoLegalActorGeo
p102
aVhttp://dbpedia.org/class/yago/EuropeanCountries
p103
aVhttp://dbpedia.org/class/yago/PhysicalEntity100001930
p104
aVhttp://dbpedia.org/class/yago/Principality108558488
p105
aVhttp://dbpedia.org/class/yago/YagoPermanentlyLocatedEntity
p106
aVhttp://dbpedia.org/class/yago/German-speakingCountries
p107
aVhttp://dbpedia.org/class/yago/LandlockedCountries
p108
aVhttp://dbpedia.org/class/yago/MemberStatesOfTheUnitedNations
p109
aVhttp://dbpedia.org/class/yago/NUTS1StatisticalRegionsOfTheEuropeanUnion
p110
aVhttp://dbpedia.org/class/yago/NUTS2StatisticalRegionsOfTheEuropeanUnion
p111
aVhttp://dbpedia.org/class/yago/NUTS3StatisticalRegionsOfTheEuropeanUnion
p112
aVhttp://dbpedia.org/class/yago/Principalities
p113
aVhttp://dbpedia.org/class/yago/StatesAndTerritoriesEstablishedIn1866
p114
aVhttp://dbpedia.org/class/yago/StatesOfTheConfederationOfTheRhine
p115
aVhttp://dbpedia.org/class/yago/StatesOfTheGermanConfederation
p116
aVhttp://dbpedia.org/class/yago/StatesOfTheHolyRomanEmpire
p117
aVhttp://dbpedia.org/resource/Liechtenstein
tp118
aa(lp119
a(lp120
aa(lp121
(lp122
((lp123
Vhttp://www.w3.org/2002/07/owl#Thing
p124
aVhttp://dbpedia.org/ontology/Place
p125
aVhttp://dbpedia.org/ontology/Location
p126
aVhttp://www.wikidata.org/entity/Q486972
p127
aVhttp://dbpedia.org/ontology/PopulatedPlace
p128
aVhttp://dbpedia.org/ontology/Settlement
p129
aVhttp://www.w3.org/2003/01/geo/wgs84_pos#SpatialThing
p130
aVhttp://schema.org/Place
p131
aVhttp://umbel.org/umbel/rc/Location_Underspecified
p132
aVhttp://umbel.org/umbel/rc/PopulatedPlace
p133
aVhttp://umbel.org/umbel/rc/Village
p134
aVhttp://dbpedia.org/class/yago/AdministrativeDistrict108491826
p135
aVhttp://dbpedia.org/class/yago/Area108497294
p136
aVhttp://dbpedia.org/class/yago/Capital108518505
p137
aVhttp://dbpedia.org/class/yago/CapitalDistrictsAndTerritories
p138
aVhttp://dbpedia.org/class/yago/CapitalsInNorthAmerica
p139
aVhttp://dbpedia.org/class/yago/Center108523483
p140
aVhttp://dbpedia.org/class/yago/City108524735
p141
aVhttp://dbpedia.org/class/yago/Country108544813
p142
aVhttp://dbpedia.org/class/yago/District108552138
p143
aVhttp://dbpedia.org/class/yago/Location100027167
p144
aVhttp://dbpedia.org/class/yago/Object100002684
p145
aVhttp://dbpedia.org/class/yago/Region108630985
p146
aVhttp://dbpedia.org/class/yago/Seat108647945
p147
aVhttp://dbpedia.org/class/yago/Site108651247
p148
aVhttp://dbpedia.org/class/yago/Tract108673395
p149
aVhttp://dbpedia.org/class/yago/UrbanArea108675967
p150
aVhttp://dbpedia.org/class/yago/YagoGeoEntity
p151
aVhttp://dbpedia.org/class/yago/YagoLegalActorGeo
p152
aVhttp://dbpedia.org/class/yago/GeographicalArea108574314
p153
aVhttp://dbpedia.org/class/yago/Municipality108626283
p154
aVhttp://dbpedia.org/class/yago/PhysicalEntity100001930
p155
aVhttp://dbpedia.org/class/yago/YagoPermanentlyLocatedEntity
p156
aVhttp://dbpedia.org/class/yago/PlannedCapitals
p157
aVhttp://dbpedia.org/class/yago/PlannedCitiesInTheUnitedStates
p158
aVhttp://dbpedia.org/class/yago/PopulatedPlacesEstablishedIn1790
p159
aVhttp://dbpedia.org/class/yago/PopulatedPlacesInWashington,D.C.WithAfricanAmericanMajorityPopulations
p160
aVhttp://dbpedia.org/class/yago/PopulatedPlacesOnThePotomacRiver
p161
aVhttp://dbpedia.org/class/yago/StatesAndTerritoriesEstablishedIn1790
p162
aVhttp://dbpedia.org/resource/Washington,_D.C.
tp163
aa(lp164
a(lp165
aa(lp166
(lp167
((lp168
Vhttp://www.w3.org/2002/07/owl#Thing
p169
aVhttp://dbpedia.org/ontology/Place
p170
aVhttp://dbpedia.org/ontology/Location
p171
aVhttp://www.wikidata.org/entity/Q486972
p172
aVhttp://www.wikidata.org/entity/Q6256
p173
aVhttp://dbpedia.org/ontology/Country
p174
aVhttp://dbpedia.org/ontology/PopulatedPlace
p175
aVhttp://www.w3.org/2003/01/geo/wgs84_pos#SpatialThing
p176
aVhttp://schema.org/Country
p177
aVhttp://schema.org/Place
p178
aVhttp://umbel.org/umbel/rc/Country
p179
aVhttp://umbel.org/umbel/rc/Location_Underspecified
p180
aVhttp://umbel.org/umbel/rc/PopulatedPlace
p181
aVhttp://dbpedia.org/class/yago/AdministrativeDistrict108491826
p182
aVhttp://dbpedia.org/class/yago/Archipelago109203827
p183
aVhttp://dbpedia.org/class/yago/ArchipelagoesOfThePacificOcean
p184
aVhttp://dbpedia.org/class/yago/Country108544813
p185
aVhttp://dbpedia.org/class/yago/District108552138
p186
aVhttp://dbpedia.org/class/yago/Island109316454
p187
aVhttp://dbpedia.org/class/yago/Land109334396
p188
aVhttp://dbpedia.org/class/yago/Location100027167
p189
aVhttp://dbpedia.org/class/yago/Object100002684
p190
aVhttp://dbpedia.org/class/yago/Region108630985
p191
aVhttp://dbpedia.org/class/yago/Site108651247
p192
aVhttp://dbpedia.org/class/yago/Tract108673395
p193
aVhttp://dbpedia.org/class/yago/YagoGeoEntity
p194
aVhttp://dbpedia.org/class/yago/YagoLegalActorGeo
p195
aVhttp://dbpedia.org/class/yago/English-speakingCountriesAndTerritories
p196
aVhttp://dbpedia.org/class/yago/FreelyAssociatedStatesOfTheUnitedStates
p197
aVhttp://dbpedia.org/class/yago/GeographicalArea108574314
p198
aVhttp://dbpedia.org/class/yago/PhysicalEntity100001930
p199
aVhttp://dbpedia.org/class/yago/Protectorate108627316
p200
aVhttp://dbpedia.org/class/yago/YagoPermanentlyLocatedEntity
p201
aVhttp://dbpedia.org/class/yago/IslandCountries
p202
aVhttp://dbpedia.org/class/yago/MarshallIslands
p203
aVhttp://dbpedia.org/class/yago/MemberStatesOfTheUnitedNations
p204
aVhttp://dbpedia.org/class/yago/OceanianCountries
p205
aVhttp://dbpedia.org/class/yago/StatesAndTerritoriesEstablishedIn1986
p206
aVhttp://dbpedia.org/class/yago/WorldWarIISites
p207
aVhttp://dbpedia.org/resource/Marshall_Islands
tp208
aa(lp209
a(lp210
aa(lp211
(lp212
((lp213
Vhttp://www.w3.org/2002/07/owl#Thing
p214
aVhttp://dbpedia.org/ontology/Place
p215
aVhttp://dbpedia.org/ontology/Location
p216
aVhttp://www.wikidata.org/entity/Q486972
p217
aVhttp://www.wikidata.org/entity/Q6256
p218
aVhttp://dbpedia.org/ontology/Country
p219
aVhttp://dbpedia.org/ontology/PopulatedPlace
p220
aVhttp://schema.org/Country
p221
aVhttp://schema.org/Place
p222
aVhttp://umbel.org/umbel/rc/Country
p223
aVhttp://umbel.org/umbel/rc/Location_Underspecified
p224
aVhttp://umbel.org/umbel/rc/PopulatedPlace
p225
aVhttp://dbpedia.org/class/yago/Abstraction100002137
p226
aVhttp://dbpedia.org/class/yago/AdministrativeDistrict108491826
p227
aVhttp://dbpedia.org/class/yago/Area108497294
p228
aVhttp://dbpedia.org/class/yago/Country108544813
p229
aVhttp://dbpedia.org/class/yago/District108552138
p230
aVhttp://dbpedia.org/class/yago/Economy108366753
p231
aVhttp://dbpedia.org/class/yago/Group100031264
p232
aVhttp://dbpedia.org/class/yago/Location100027167
p233
aVhttp://dbpedia.org/class/yago/Object100002684
p234
aVhttp://dbpedia.org/class/yago/Region108630039
p235
aVhttp://dbpedia.org/class/yago/Region108630985
p236
aVhttp://dbpedia.org/class/yago/System108435388
p237
aVhttp://dbpedia.org/class/yago/YagoGeoEntity
p238
aVhttp://dbpedia.org/class/yago/YagoLegalActorGeo
p239
aVhttp://dbpedia.org/class/yago/DividedRegions
p240
aVhttp://dbpedia.org/class/yago/English-speakingCountriesAndTerritories
p241
aVhttp://dbpedia.org/class/yago/PhysicalEntity100001930
p242
aVhttp://dbpedia.org/class/yago/YagoPermanentlyLocatedEntity
p243
aVhttp://dbpedia.org/class/yago/InsularAreasOfTheUnitedStates
p244
aVhttp://dbpedia.org/class/yago/StatesAndTerritoriesEstablishedIn1899
p245
aVhttp://dbpedia.org/resource/American_Samoa
tp246
aa(lp247
a(lp248
aa(lp249
(lp250
a(lp251
a(lp252
aa(lp253
(lp254
a(lp255
a(lp256
aa(lp257
(lp258
a(lp259
a(lp260
aa(lp261
(lp262
a(lp263
a(lp264
aa(lp265
(lp266
((lp267
Vhttp://www.w3.org/2002/07/owl#Thing
p268
aVhttp://dbpedia.org/ontology/Place
p269
aVhttp://dbpedia.org/ontology/Location
p270
aVhttp://www.wikidata.org/entity/Q486972
p271
aVhttp://www.wikidata.org/entity/Q6256
p272
aVhttp://dbpedia.org/ontology/Country
p273
aVhttp://dbpedia.org/ontology/PopulatedPlace
p274
aVhttp://www.w3.org/2003/01/geo/wgs84_pos#SpatialThing
p275
aVhttp://schema.org/Country
p276
aVhttp://schema.org/Place
p277
aVhttp://umbel.org/umbel/rc/Country
p278
aVhttp://umbel.org/umbel/rc/Location_Underspecified
p279
aVhttp://umbel.org/umbel/rc/PopulatedPlace
p280
aVhttp://dbpedia.org/class/yago/AdministrativeDistrict108491826
p281
aVhttp://dbpedia.org/class/yago/Area108497294
p282
aVhttp://dbpedia.org/class/yago/CaribbeanCountries
p283
aVhttp://dbpedia.org/class/yago/CaribbeanIslandsOfTheUnitedStates
p284
aVhttp://dbpedia.org/class/yago/Country108544813
p285
aVhttp://dbpedia.org/class/yago/District108552138
p286
aVhttp://dbpedia.org/class/yago/Island109316454
p287
aVhttp://dbpedia.org/class/yago/Land109334396
p288
aVhttp://dbpedia.org/class/yago/Location100027167
p289
aVhttp://dbpedia.org/class/yago/Object100002684
p290
aVhttp://dbpedia.org/class/yago/Region108630039
p291
aVhttp://dbpedia.org/class/yago/Region108630985
p292
aVhttp://dbpedia.org/class/yago/YagoGeoEntity
p293
aVhttp://dbpedia.org/class/yago/YagoLegalActorGeo
p294
aVhttp://dbpedia.org/class/yago/DependentTerritoriesInNorthAmerica
p295
aVhttp://dbpedia.org/class/yago/DividedRegions
p296
aVhttp://dbpedia.org/class/yago/English-speakingCountriesAndTerritories
p297
aVhttp://dbpedia.org/class/yago/PhysicalEntity100001930
p298
aVhttp://dbpedia.org/class/yago/YagoPermanentlyLocatedEntity
p299
aVhttp://dbpedia.org/class/yago/InsularAreasOfTheUnitedStates
p300
aVhttp://dbpedia.org/class/yago/IslandCountries
p301
aVhttp://dbpedia.org/class/yago/StatesAndTerritoriesEstablishedIn1917
p302
aVhttp://dbpedia.org/class/yago/UnitedStatesVirginIslands
p303
aVhttp://dbpedia.org/class/yago/VirginIslands
p304
aVhttp://dbpedia.org/resource/United_States_Virgin_Islands
tp305
aa(lp306
a(lp307
aa(lp308
(lp309
((lp310
Vhttp://www.w3.org/2002/07/owl#Thing
p311
aVhttp://dbpedia.org/ontology/Place
p312
aVhttp://dbpedia.org/ontology/Location
p313
aVhttp://www.wikidata.org/entity/Q486972
p314
aVhttp://www.wikidata.org/entity/Q6256
p315
aVhttp://dbpedia.org/ontology/Country
p316
aVhttp://dbpedia.org/ontology/PopulatedPlace
p317
aVhttp://www.w3.org/2003/01/geo/wgs84_pos#SpatialThing
p318
aVhttp://schema.org/Country
p319
aVhttp://schema.org/Place
p320
aVhttp://umbel.org/umbel/rc/Country
p321
aVhttp://umbel.org/umbel/rc/Location_Underspecified
p322
aVhttp://umbel.org/umbel/rc/PopulatedPlace
p323
aVhttp://dbpedia.org/resource/Saint_Vincent_and_the_Grenadines
tp324
aa(lp325
a(lp326
aa(lp327
(lp328
a(lp329
a(lp330
aa(lp331
(lp332
((lp333
Vhttp://www.w3.org/2002/07/owl#Thing
p334
aVhttp://dbpedia.org/ontology/Place
p335
aVhttp://dbpedia.org/ontology/Location
p336
aVhttp://www.wikidata.org/entity/Q486972
p337
aVhttp://www.wikidata.org/entity/Q6256
p338
aVhttp://dbpedia.org/ontology/Country
p339
aVhttp://dbpedia.org/ontology/PopulatedPlace
p340
aVhttp://www.w3.org/2003/01/geo/wgs84_pos#SpatialThing
p341
aVhttp://schema.org/Country
p342
aVhttp://schema.org/Place
p343
aVhttp://umbel.org/umbel/rc/Country
p344
aVhttp://umbel.org/umbel/rc/Location_Underspecified
p345
aVhttp://umbel.org/umbel/rc/PopulatedPlace
p346
aVhttp://dbpedia.org/resource/Antigua_and_Barbuda
tp347
aa(lp348
a(lp349
aa(lp350
(lp351
a(lp352
a(lp353
aa(lp354
(lp355
a(lp356
a(lp357
aa(lp358
(lp359
((lp360
Vhttp://www.w3.org/2002/07/owl#Thing
p361
aVhttp://dbpedia.org/ontology/Place
p362
aVhttp://dbpedia.org/ontology/Location
p363
aVhttp://www.wikidata.org/entity/Q486972
p364
aVhttp://www.wikidata.org/entity/Q6256
p365
aVhttp://dbpedia.org/ontology/Country
p366
aVhttp://dbpedia.org/ontology/PopulatedPlace
p367
aVhttp://www.w3.org/2003/01/geo/wgs84_pos#SpatialThing
p368
aVhttp://schema.org/Country
p369
aVhttp://schema.org/Place
p370
aVhttp://umbel.org/umbel/rc/Country
p371
aVhttp://umbel.org/umbel/rc/Location_Underspecified
p372
aVhttp://umbel.org/umbel/rc/PopulatedPlace
p373
aVhttp://dbpedia.org/class/yago/AdministrativeDistrict108491826
p374
aVhttp://dbpedia.org/class/yago/Archipelago109203827
p375
aVhttp://dbpedia.org/class/yago/ArchipelagoesOfThePacificOcean
p376
aVhttp://dbpedia.org/class/yago/Area108497294
p377
aVhttp://dbpedia.org/class/yago/Country108544813
p378
aVhttp://dbpedia.org/class/yago/District108552138
p379
aVhttp://dbpedia.org/class/yago/Island109316454
p380
aVhttp://dbpedia.org/class/yago/Land109334396
p381
aVhttp://dbpedia.org/class/yago/Location100027167
p382
aVhttp://dbpedia.org/class/yago/Object100002684
p383
aVhttp://dbpedia.org/class/yago/Region108630985
p384
aVhttp://dbpedia.org/class/yago/Site108651247
p385
aVhttp://dbpedia.org/class/yago/Tract108673395
p386
aVhttp://dbpedia.org/class/yago/YagoGeoEntity
p387
aVhttp://dbpedia.org/class/yago/YagoLegalActorGeo
p388
aVhttp://dbpedia.org/class/yago/English-speakingCountriesAndTerritories
p389
aVhttp://dbpedia.org/class/yago/GeographicalArea108574314
p390
aVhttp://dbpedia.org/class/yago/PhysicalEntity100001930
p391
aVhttp://dbpedia.org/class/yago/YagoPermanentlyLocatedEntity
p392
aVhttp://dbpedia.org/class/yago/InsularAreasOfTheUnitedStates
p393
aVhttp://dbpedia.org/class/yago/IslandCountries
p394
aVhttp://dbpedia.org/class/yago/NorthernMarianaIslands
p395
aVhttp://dbpedia.org/class/yago/StatesAndTerritoriesEstablishedIn1898
p396
aVhttp://dbpedia.org/class/yago/WorldWarIISites
p397
aVhttp://dbpedia.org/resource/Northern_Mariana_Islands
p398
tp399
aa(lp400
a(lp401
aa.