ccollections
defaultdict
p1
(c__builtin__
dict
p2
tRp3
I0
(dp4
I1
(lp5
sI2
(lp6
ssI5
(dp7
I1
(lp8
Vhttp://dbpedia.org/ontology/abstract
p9
aVhttp://www.w3.org/1999/02/22-rdf-syntax-ns#type
p10
asI2
(lp11
ssI6
(dp12
I1
(lp13
Vhttp://www.w3.org/1999/02/22-rdf-syntax-ns#type
p14
aVhttp://dbpedia.org/property/place
p15
aVhttp://dbpedia.org/property/location
p16
aVhttp://dbpedia.org/property/city
p17
aVhttp://dbpedia.org/property/siteCityst
p18
aVhttp://www.w3.org/ns/prov#wasDerivedFrom
p19
aVhttp://www.w3.org/2002/07/owl#sameAs
p20
asI2
(lp21
ssI7
(dp22
I1
(lp23
Vhttp://dbpedia.org/ontology/abstract
p24
aVhttp://dbpedia.org/ontology/PopulatedPlace/populationDensity
p25
aVhttp://www.w3.org/2002/07/owl#sameAs
p26
aVhttp://www.w3.org/2000/01/rdf-schema#comment
p27
asI2
(lp28
ssI8
(dp29
I1
(lp30
Vhttp://dbpedia.org/ontology/PopulatedPlace/populationDensity
p31
asI2
(lp32
ssI13
(dp33
I1
(lp34
sI2
(lp35
ssI14
(dp36
I1
(lp37
Vhttp://dbpedia.org/ontology/abstract
p38
aVhttp://www.w3.org/2002/07/owl#sameAs
p39
asI2
(lp40
ssI16
(dp41
I1
(lp42
sI2
(lp43
ssI19
(dp44
I1
(lp45
Vhttp://www.w3.org/ns/prov#wasDerivedFrom
p46
asI2
(lp47
ss.