(lp1
(dp2
I0
(dp3
I0
(lp4
sI1
(lp5
sI2
(lp6
sI3
(lp7
ssI1
(dp8
I0
g5
sI1
(lp9
sI2
(lp10
sI3
(lp11
ssI2
(dp12
I0
g6
sI1
g10
sI2
(lp13
sI3
(lp14
ssI3
(dp15
I0
g7
sI1
g11
sI2
g14
sI3
(lp16
ssa(dp17
I0
(dp18
I0
(lp19
sI1
(lp20
sI2
(lp21
sI3
(lp22
ssI1
(dp23
I0
g20
sI1
(lp24
sI2
(lp25
sI3
(lp26
ssI2
(dp27
I0
g21
sI1
g25
sI2
(lp28
sI3
(lp29
ssI3
(dp30
I0
g22
sI1
g26
sI2
g29
sI3
(lp31
ssa(dp32
I0
(dp33
I0
(lp34
sI1
(lp35
sI2
(lp36
Vhttp://www.w3.org/2000/01/rdf-schema#seeAlso
p37
aVhttp://dbpedia.org/property/currency
p38
aVhttp://dbpedia.org/property/rd2t6Loc
p39
aVhttp://dbpedia.org/property/hostCity
p40
aVhttp://dbpedia.org/property/2rpt2Loc
p41
aVhttp://dbpedia.org/ontology/currency
p42
aVhttp://dbpedia.org/property/membership
p43
aVhttp://dbpedia.org/property/place
p44
aVhttp://dbpedia.org/property/footnoteA
p45
aVhttp://dbpedia.org/property/rd2t3Loc
p46
aVhttp://dbpedia.org/ontology/regionServed
p47
aVhttp://dbpedia.org/ontology/country
p48
aVhttp://dbpedia.org/property/returns
p49
aVhttp://www.w3.org/1999/02/22-rdf-syntax-ns#type
p50
aVhttp://dbpedia.org/property/2rpt1Loc
p51
aVhttp://dbpedia.org/property/rd1t2Loc
p52
aVhttp://dbpedia.org/property/timeZone
p53
aVhttp://dbpedia.org/property/birthPlace
p54
aVhttp://dbpedia.org/property/placeOfBirth
p55
aVhttp://dbpedia.org/property/text
p56
aVhttp://dbpedia.org/property/country
p57
aVhttp://dbpedia.org/property/countries
p58
aVhttp://dbpedia.org/property/areaServed
p59
aVhttp://dbpedia.org/ontology/wikiPageExternalLink
p60
aVhttp://dbpedia.org/property/rd0t1Loc
p61
aVhttp://purl.org/dc/terms/subject
p62
aVhttp://dbpedia.org/property/origin
p63
aVhttp://dbpedia.org/property/rd2t2Loc
p64
aVhttp://dbpedia.org/ontology/abstract
p65
aVhttp://dbpedia.org/property/rd1t8Loc
p66
aVhttp://dbpedia.org/property/venue
p67
aVhttp://dbpedia.org/property/location
p68
aVhttp://dbpedia.org/property/rd3t2Loc
p69
aVhttp://dbpedia.org/property/timeZoneDst
p70
aVhttp://dbpedia.org/property/rd2t4Loc
p71
aVhttp://dbpedia.org/ontology/city
p72
aVhttp://dbpedia.org/property/headquarters
p73
aVhttp://dbpedia.org/property/rd1t3Loc
p74
aVhttp://dbpedia.org/property/rd2t1Loc
p75
aVhttp://dbpedia.org/property/hostcity
p76
aVhttp://dbpedia.org/ontology/timeZone
p77
aVhttp://dbpedia.org/ontology/birthPlace
p78
aVhttp://www.w3.org/2000/01/rdf-schema#comment
p79
aVhttp://dbpedia.org/ontology/hometown
p80
aVhttp://dbpedia.org/property/rd3t1Loc
p81
aVhttp://www.w3.org/2004/02/skos/core#exactMatch
p82
aVhttp://www.w3.org/2002/07/owl#sameAs
p83
aVhttp://dbpedia.org/ontology/headquarter
p84
aVhttp://dbpedia.org/property/stadium
p85
aVhttp://dbpedia.org/ontology/location
p86
asI3
(lp87
ssI1
(dp88
I0
g35
sI1
(lp89
sI2
(lp90
sI3
(lp91
ssI2
(dp92
I0
g36
sI1
g90
sI2
(lp93
sI3
(lp94
ssI3
(dp95
I0
g87
sI1
g91
sI2
g94
sI3
(lp96
ssa(dp97
I0
(dp98
I0
(lp99
sI1
(lp100
sI2
(lp101
Vhttp://www.w3.org/2000/01/rdf-schema#seeAlso
p102
aVhttp://dbpedia.org/property/currency
p103
aVhttp://dbpedia.org/property/hostCity
p104
aVhttp://dbpedia.org/property/2rpt2Loc
p105
aVhttp://dbpedia.org/ontology/currency
p106
aVhttp://dbpedia.org/property/membership
p107
aVhttp://dbpedia.org/ontology/foundationPlace
p108
aVhttp://dbpedia.org/ontology/city
p109
aVhttp://dbpedia.org/property/footnoteC
p110
aVhttp://dbpedia.org/property/rd2t3Loc
p111
aVhttp://dbpedia.org/property/footnoteE
p112
aVhttp://dbpedia.org/property/footnoteD
p113
aVhttp://dbpedia.org/property/footnoteG
p114
aVhttp://dbpedia.org/ontology/regionServed
p115
aVhttp://dbpedia.org/ontology/country
p116
aVhttp://dbpedia.org/property/returns
p117
aVhttp://www.w3.org/1999/02/22-rdf-syntax-ns#type
p118
aVhttp://dbpedia.org/property/locationCountry
p119
aVhttp://dbpedia.org/property/rd1t5Loc
p120
aVhttp://dbpedia.org/property/allegiance
p121
aVhttp://dbpedia.org/property/withdraws
p122
aVhttp://dbpedia.org/ontology/ethnicGroup
p123
aVhttp://dbpedia.org/property/text
p124
aVhttp://dbpedia.org/property/country
p125
aVhttp://dbpedia.org/property/countries
p126
aVhttp://dbpedia.org/property/areaServed
p127
aVhttp://dbpedia.org/ontology/wikiPageExternalLink
p128
aVhttp://dbpedia.org/property/timeZoneDst
p129
aVhttp://purl.org/dc/terms/subject
p130
aVhttp://dbpedia.org/ontology/populationPlace
p131
aVhttp://dbpedia.org/property/origin
p132
aVhttp://dbpedia.org/property/foundedDate
p133
aVhttp://dbpedia.org/ontology/abstract
p134
aVhttp://dbpedia.org/property/locationSigned
p135
aVhttp://dbpedia.org/property/venue
p136
aVhttp://dbpedia.org/property/location
p137
aVhttp://dbpedia.org/ontology/locationCountry
p138
aVhttp://dbpedia.org/property/windance
p139
aVhttp://dbpedia.org/ontology/headquarter
p140
aVhttp://dbpedia.org/property/rd2t4Loc
p141
aVhttp://dbpedia.org/property/foundation
p142
aVhttp://dbpedia.org/ontology/routeStart
p143
aVhttp://dbpedia.org/property/headquarters
p144
aVhttp://dbpedia.org/property/rd2t1Loc
p145
aVhttp://dbpedia.org/property/hostcity
p146
aVhttp://dbpedia.org/ontology/timeZone
p147
aVhttp://www.w3.org/2000/01/rdf-schema#comment
p148
aVhttp://dbpedia.org/ontology/wikiPageRedirects
p149
aVhttp://dbpedia.org/ontology/hometown
p150
aVhttp://www.w3.org/2004/02/skos/core#exactMatch
p151
aVhttp://www.w3.org/2002/07/owl#sameAs
p152
aVhttp://dbpedia.org/property/host
p153
aVhttp://dbpedia.org/property/stadium
p154
aVhttp://dbpedia.org/ontology/location
p155
asI3
(lp156
ssI1
(dp157
I0
g100
sI1
(lp158
sI2
(lp159
sI3
(lp160
ssI2
(dp161
I0
g101
sI1
g159
sI2
(lp162
sI3
(lp163
ssI3
(dp164
I0
g156
sI1
g160
sI2
g163
sI3
(lp165
ssa(dp166
I0
(dp167
I0
(lp168
sI1
(lp169
sI2
(lp170
sI3
(lp171
ssI1
(dp172
I0
g169
sI1
(lp173
sI2
(lp174
sI3
(lp175
ssI2
(dp176
I0
g170
sI1
g174
sI2
(lp177
sI3
(lp178
ssI3
(dp179
I0
g171
sI1
g175
sI2
g178
sI3
(lp180
ssa(dp181
I0
(dp182
I0
(lp183
sI1
(lp184
sI2
(lp185
Vhttp://www.w3.org/2000/01/rdf-schema#seeAlso
p186
aVhttp://dbpedia.org/property/currency
p187
aVhttp://dbpedia.org/property/broadcastArea
p188
aVhttp://dbpedia.org/ontology/origin
p189
aVhttp://dbpedia.org/ontology/currency
p190
aVhttp://dbpedia.org/property/membership
p191
aVhttp://dbpedia.org/property/place
p192
aVhttp://dbpedia.org/property/city
p193
aVhttp://dbpedia.org/property/base
p194
aVhttp://dbpedia.org/property/placeOfDeath
p195
aVhttp://dbpedia.org/property/1rpt2Loc
p196
aVhttp://dbpedia.org/property/rd2t3Loc
p197
aVhttp://dbpedia.org/property/footnoteD
p198
aVhttp://dbpedia.org/ontology/routeEnd
p199
aVhttp://dbpedia.org/property/label
p200
aVhttp://dbpedia.org/ontology/country
p201
aVhttp://www.w3.org/1999/02/22-rdf-syntax-ns#type
p202
aVhttp://dbpedia.org/ontology/beatifiedPlace
p203
aVhttp://dbpedia.org/property/2rpt1Loc
p204
aVhttp://dbpedia.org/property/rd3t3Loc
p205
aVhttp://dbpedia.org/ontology/hometown
p206
aVhttp://www.w3.org/2002/07/owl#sameAs
p207
aVhttp://dbpedia.org/property/locationCountry
p208
aVhttp://dbpedia.org/property/hostCity
p209
aVhttp://dbpedia.org/ontology/ground
p210
aVhttp://dbpedia.org/property/site
p211
aVhttp://dbpedia.org/property/timeZone
p212
aVhttp://dbpedia.org/ontology/language
p213
aVhttp://dbpedia.org/property/text
p214
aVhttp://dbpedia.org/property/country
p215
aVhttp://dbpedia.org/ontology/headquarter
p216
aVhttp://dbpedia.org/ontology/regionServed
p217
aVhttp://dbpedia.org/property/areaServed
p218
aVhttp://purl.org/dc/terms/subject
p219
aVhttp://dbpedia.org/property/origin
p220
aVhttp://dbpedia.org/property/rd2t2Loc
p221
aVhttp://dbpedia.org/ontology/abstract
p222
aVhttp://dbpedia.org/property/footnoteB
p223
aVhttp://dbpedia.org/property/venue
p224
aVhttp://dbpedia.org/property/deathPlace
p225
aVhttp://dbpedia.org/property/location
p226
aVhttp://dbpedia.org/ontology/builder
p227
aVhttp://dbpedia.org/property/rd3t2Loc
p228
aVhttp://dbpedia.org/ontology/deathPlace
p229
aVhttp://dbpedia.org/ontology/city
p230
aVhttp://dbpedia.org/property/beatifiedPlace
p231
aVhttp://dbpedia.org/property/nationalOrigin
p232
aVhttp://dbpedia.org/property/headquarters
p233
aVhttp://dbpedia.org/property/locationSigned
p234
aVhttp://dbpedia.org/ontology/territory
p235
aVhttp://dbpedia.org/property/rd2t1Loc
p236
aVhttp://www.w3.org/2000/01/rdf-schema#comment
p237
aVhttp://dbpedia.org/ontology/timeZone
p238
aVhttp://dbpedia.org/ontology/birthPlace
p239
aVhttp://dbpedia.org/property/countries
p240
aVhttp://dbpedia.org/ontology/locationCountry
p241
aVhttp://dbpedia.org/property/rd1t1Loc
p242
aVhttp://dbpedia.org/property/rd2t5Loc
p243
aVhttp://dbpedia.org/property/rd3t1Loc
p244
aVhttp://www.w3.org/2004/02/skos/core#exactMatch
p245
aVhttp://dbpedia.org/property/ground
p246
aVhttp://dbpedia.org/property/rd4t2Loc
p247
aVhttp://dbpedia.org/property/host
p248
aVhttp://dbpedia.org/property/rd4t1Loc
p249
aVhttp://dbpedia.org/property/rd5t1Loc
p250
aVhttp://dbpedia.org/ontology/location
p251
aVhttp://dbpedia.org/property/stadium
p252
aVhttp://dbpedia.org/property/timeZoneDst
p253
asI3
(lp254
ssI1
(dp255
I0
g184
sI1
(lp256
sI2
(lp257
sI3
(lp258
ssI2
(dp259
I0
g185
sI1
g257
sI2
(lp260
sI3
(lp261
ssI3
(dp262
I0
g254
sI1
g258
sI2
g261
sI3
(lp263
ssa(dp264
I0
(dp265
I0
(lp266
sI1
(lp267
sI2
(lp268
Vhttp://www.w3.org/2000/01/rdf-schema#seeAlso
p269
aVhttp://dbpedia.org/property/currency
p270
aVhttp://dbpedia.org/property/ground
p271
aVhttp://dbpedia.org/ontology/origin
p272
aVhttp://dbpedia.org/ontology/currency
p273
aVhttp://dbpedia.org/property/membership
p274
aVhttp://dbpedia.org/property/place
p275
aVhttp://dbpedia.org/ontology/ground
p276
aVhttp://www.w3.org/2002/07/owl#differentFrom
p277
aVhttp://dbpedia.org/ontology/regionServed
p278
aVhttp://dbpedia.org/ontology/country
p279
aVhttp://www.w3.org/1999/02/22-rdf-syntax-ns#type
p280
aVhttp://dbpedia.org/ontology/hometown
p281
aVhttp://dbpedia.org/property/locationCountry
p282
aVhttp://dbpedia.org/property/hostCity
p283
aVhttp://dbpedia.org/property/assembly
p284
aVhttp://dbpedia.org/property/locationOfDocument
p285
aVhttp://dbpedia.org/property/text
p286
aVhttp://dbpedia.org/property/country
p287
aVhttp://dbpedia.org/property/countries
p288
aVhttp://dbpedia.org/property/areaServed
p289
aVhttp://dbpedia.org/ontology/wikiPageExternalLink
p290
aVhttp://purl.org/dc/terms/subject
p291
aVhttp://dbpedia.org/property/origin
p292
aVhttp://dbpedia.org/property/rd2t2Loc
p293
aVhttp://dbpedia.org/ontology/abstract
p294
aVhttp://dbpedia.org/property/locationSigned
p295
aVhttp://dbpedia.org/property/venue
p296
aVhttp://dbpedia.org/property/location
p297
aVhttp://dbpedia.org/ontology/locationCountry
p298
aVhttp://dbpedia.org/property/rd3t2Loc
p299
aVhttp://dbpedia.org/ontology/headquarter
p300
aVhttp://dbpedia.org/property/rd2t4Loc
p301
aVhttp://dbpedia.org/property/nationalOrigin
p302
aVhttp://dbpedia.org/ontology/location
p303
aVhttp://dbpedia.org/property/rd1t3Loc
p304
aVhttp://dbpedia.org/ontology/assembly
p305
aVhttp://dbpedia.org/property/headquarters
p306
aVhttp://www.w3.org/2000/01/rdf-schema#comment
p307
aVhttp://dbpedia.org/ontology/timeZone
p308
aVhttp://dbpedia.org/property/finish
p309
aVhttp://dbpedia.org/property/successor
p310
aVhttp://dbpedia.org/property/rd2t5Loc
p311
aVhttp://dbpedia.org/property/rd3t1Loc
p312
aVhttp://www.w3.org/2004/02/skos/core#exactMatch
p313
aVhttp://www.w3.org/2002/07/owl#sameAs
p314
aVhttp://dbpedia.org/ontology/successor
p315
aVhttp://dbpedia.org/property/host
p316
aVhttp://dbpedia.org/property/rd5t1Loc
p317
aVhttp://dbpedia.org/property/stadium
p318
aVhttp://dbpedia.org/property/rd4t1Loc
p319
asI3
(lp320
ssI1
(dp321
I0
g267
sI1
(lp322
sI2
(lp323
sI3
(lp324
ssI2
(dp325
I0
g268
sI1
g323
sI2
(lp326
sI3
(lp327
ssI3
(dp328
I0
g320
sI1
g324
sI2
g327
sI3
(lp329
ssa(dp330
I0
(dp331
I0
(lp332
sI1
(lp333
sI2
(lp334
Vhttp://dbpedia.org/ontology/abstract
p335
asI3
(lp336
ssI1
(dp337
I0
g333
sI1
(lp338
sI2
(lp339
sI3
(lp340
ssI2
(dp341
I0
g334
sI1
g339
sI2
(lp342
sI3
(lp343
ssI3
(dp344
I0
g336
sI1
g340
sI2
g343
sI3
(lp345
ssa(dp346
I0
(dp347
I0
(lp348
sI1
(lp349
sI2
(lp350
Vhttp://www.w3.org/2000/01/rdf-schema#seeAlso
p351
aVhttp://dbpedia.org/property/currency
p352
aVhttp://dbpedia.org/property/rd2t6Loc
p353
aVhttp://dbpedia.org/property/hostCity
p354
aVhttp://dbpedia.org/ontology/currency
p355
aVhttp://dbpedia.org/property/membership
p356
aVhttp://dbpedia.org/property/place
p357
aVhttp://dbpedia.org/property/debuts
p358
aVhttp://dbpedia.org/property/city
p359
aVhttp://dbpedia.org/ontology/garrison
p360
aVhttp://dbpedia.org/property/adminCenter
p361
aVhttp://dbpedia.org/property/rd2t3Loc
p362
aVhttp://dbpedia.org/property/footnoteD
p363
aVhttp://dbpedia.org/ontology/routeEnd
p364
aVhttp://dbpedia.org/ontology/regionServed
p365
aVhttp://dbpedia.org/ontology/country
p366
aVhttp://dbpedia.org/property/region
p367
aVhttp://www.w3.org/1999/02/22-rdf-syntax-ns#type
p368
aVhttp://dbpedia.org/property/locationCountry
p369
aVhttp://dbpedia.org/property/timeZone
p370
aVhttp://dbpedia.org/property/office
p371
aVhttp://dbpedia.org/property/text
p372
aVhttp://dbpedia.org/property/country
p373
aVhttp://dbpedia.org/ontology/headquarter
p374
aVhttp://dbpedia.org/property/areaServed
p375
aVhttp://dbpedia.org/ontology/wikiPageExternalLink
p376
aVhttp://dbpedia.org/property/rd1t8Loc
p377
aVhttp://purl.org/dc/terms/subject
p378
aVhttp://dbpedia.org/ontology/abstract
p379
aVhttp://dbpedia.org/property/locationSigned
p380
aVhttp://dbpedia.org/property/venue
p381
aVhttp://dbpedia.org/property/location
p382
aVhttp://dbpedia.org/property/headquarter
p383
aVhttp://dbpedia.org/ontology/locationCountry
p384
aVhttp://dbpedia.org/property/timeZoneDst
p385
aVhttp://dbpedia.org/property/rd2t4Loc
p386
aVhttp://dbpedia.org/ontology/city
p387
aVhttp://dbpedia.org/property/headquarters
p388
aVhttp://dbpedia.org/property/rd2t1Loc
p389
aVhttp://www.w3.org/2000/01/rdf-schema#comment
p390
aVhttp://dbpedia.org/ontology/timeZone
p391
aVhttp://dbpedia.org/property/countries
p392
aVhttp://dbpedia.org/ontology/wikiPageRedirects
p393
aVhttp://dbpedia.org/property/seat
p394
aVhttp://dbpedia.org/property/rd2t5Loc
p395
aVhttp://www.w3.org/2004/02/skos/core#exactMatch
p396
aVhttp://www.w3.org/2002/07/owl#sameAs
p397
aVhttp://dbpedia.org/property/host
p398
aVhttp://dbpedia.org/property/garrison
p399
aVhttp://dbpedia.org/property/stadium
p400
aVhttp://dbpedia.org/ontology/location
p401
asI3
(lp402
ssI1
(dp403
I0
g349
sI1
(lp404
sI2
(lp405
sI3
(lp406
ssI2
(dp407
I0
g350
sI1
g405
sI2
(lp408
sI3
(lp409
ssI3
(dp410
I0
g402
sI1
g406
sI2
g409
sI3
(lp411
ssa(dp412
I0
(dp413
I0
(lp414
sI1
(lp415
sI2
(lp416
sI3
(lp417
ssI1
(dp418
I0
g415
sI1
(lp419
sI2
(lp420
sI3
(lp421
ssI2
(dp422
I0
g416
sI1
g420
sI2
(lp423
sI3
(lp424
ssI3
(dp425
I0
g417
sI1
g421
sI2
g424
sI3
(lp426
ssa(dp427
I0
(dp428
I0
(lp429
sI1
(lp430
sI2
(lp431
Vhttp://www.w3.org/2000/01/rdf-schema#seeAlso
p432
aVhttp://dbpedia.org/property/currency
p433
aVhttp://dbpedia.org/property/broadcastArea
p434
aVhttp://dbpedia.org/ontology/origin
p435
aVhttp://dbpedia.org/ontology/currency
p436
aVhttp://dbpedia.org/property/membership
p437
aVhttp://dbpedia.org/property/place
p438
aVhttp://dbpedia.org/ontology/routeStart
p439
aVhttp://dbpedia.org/ontology/campus
p440
aVhttp://dbpedia.org/ontology/garrison
p441
aVhttp://dbpedia.org/property/footnoteA
p442
aVhttp://dbpedia.org/property/caption
p443
aVhttp://dbpedia.org/property/footnoteC
p444
aVhttp://dbpedia.org/ontology/fastestDriverCountry
p445
aVhttp://dbpedia.org/ontology/routeEnd
p446
aVhttp://dbpedia.org/ontology/regionServed
p447
aVhttp://dbpedia.org/ontology/country
p448
aVhttp://www.w3.org/1999/02/22-rdf-syntax-ns#type
p449
aVhttp://dbpedia.org/property/locationCountry
p450
aVhttp://dbpedia.org/ontology/secondDriverCountry
p451
aVhttp://dbpedia.org/property/assembly
p452
aVhttp://dbpedia.org/property/site
p453
aVhttp://dbpedia.org/ontology/nationality
p454
aVhttp://dbpedia.org/ontology/language
p455
aVhttp://dbpedia.org/property/office
p456
aVhttp://dbpedia.org/property/text
p457
aVhttp://dbpedia.org/property/country
p458
aVhttp://dbpedia.org/property/countries
p459
aVhttp://dbpedia.org/ontology/assembly
p460
aVhttp://dbpedia.org/property/areaServed
p461
aVhttp://dbpedia.org/property/areasAffected
p462
aVhttp://dbpedia.org/ontology/wikiPageExternalLink
p463
aVhttp://dbpedia.org/ontology/firstDriverCountry
p464
aVhttp://purl.org/dc/terms/subject
p465
aVhttp://dbpedia.org/ontology/populationPlace
p466
aVhttp://dbpedia.org/property/origin
p467
aVhttp://dbpedia.org/property/nationality
p468
aVhttp://dbpedia.org/ontology/abstract
p469
aVhttp://dbpedia.org/ontology/recordedIn
p470
aVhttp://dbpedia.org/property/venue
p471
aVhttp://dbpedia.org/property/location
p472
aVhttp://dbpedia.org/ontology/builder
p473
aVhttp://dbpedia.org/ontology/headquarter
p474
aVhttp://dbpedia.org/ontology/city
p475
aVhttp://dbpedia.org/property/hostCity
p476
aVhttp://dbpedia.org/property/nationalOrigin
p477
aVhttp://dbpedia.org/property/headquarters
p478
aVhttp://dbpedia.org/ontology/territory
p479
aVhttp://dbpedia.org/property/shipBuilder
p480
aVhttp://dbpedia.org/property/rd2t1Loc
p481
aVhttp://www.w3.org/2000/01/rdf-schema#comment
p482
aVhttp://dbpedia.org/property/finish
p483
aVhttp://dbpedia.org/property/shipCountry
p484
aVhttp://dbpedia.org/ontology/locationCountry
p485
aVhttp://dbpedia.org/ontology/hometown
p486
aVhttp://www.w3.org/2004/02/skos/core#exactMatch
p487
aVhttp://dbpedia.org/ontology/poleDriverCountry
p488
aVhttp://www.w3.org/2002/07/owl#sameAs
p489
aVhttp://dbpedia.org/property/host
p490
aVhttp://dbpedia.org/property/garrison
p491
aVhttp://dbpedia.org/property/stadium
p492
aVhttp://dbpedia.org/ontology/location
p493
asI3
(lp494
ssI1
(dp495
I0
g430
sI1
(lp496
sI2
(lp497
sI3
(lp498
ssI2
(dp499
I0
g431
sI1
g497
sI2
(lp500
sI3
(lp501
ssI3
(dp502
I0
g494
sI1
g498
sI2
g501
sI3
(lp503
ssa(dp504
I0
(dp505
I0
(lp506
sI1
(lp507
sI2
(lp508
sI3
(lp509
ssI1
(dp510
I0
g507
sI1
(lp511
sI2
(lp512
sI3
(lp513
ssI2
(dp514
I0
g508
sI1
g512
sI2
(lp515
sI3
(lp516
ssI3
(dp517
I0
g509
sI1
g513
sI2
g516
sI3
(lp518
ssa(dp519
I0
(dp520
I0
(lp521
sI1
(lp522
sI2
(lp523
Vhttp://dbpedia.org/ontology/wikiPageExternalLink
p524
aVhttp://dbpedia.org/ontology/country
p525
aVhttp://dbpedia.org/property/currencyCode
p526
aVhttp://dbpedia.org/ontology/location
p527
aVhttp://dbpedia.org/property/origin
p528
aVhttp://dbpedia.org/ontology/abstract
p529
aVhttp://dbpedia.org/property/locationCountry
p530
aVhttp://dbpedia.org/property/location
p531
aVhttp://dbpedia.org/ontology/foundationPlace
p532
aVhttp://dbpedia.org/ontology/hometown
p533
aVhttp://dbpedia.org/ontology/locationCountry
p534
aVhttp://dbpedia.org/property/country
p535
aVhttp://dbpedia.org/property/subdivisionName
p536
asI3
(lp537
ssI1
(dp538
I0
g522
sI1
(lp539
sI2
(lp540
sI3
(lp541
ssI2
(dp542
I0
g523
sI1
g540
sI2
(lp543
sI3
(lp544
ssI3
(dp545
I0
g537
sI2
g544
sI3
(lp546
ssa.