(lp1
(lp2
(dp3
Vstart
p4
I0
sVdisambiguatedURL
p5
Vhttp://dbpedia.org/resource/Norway
p6
sVnamedEntity
p7
VNorway
p8
sVoffset
p9
I6
saa(lp10
(dp11
Vstart
p12
I0
sVdisambiguatedURL
p13
Vhttp://dbpedia.org/resource/Denmark
p14
sVnamedEntity
p15
VDenmark
p16
sVoffset
p17
I7
saa(lp18
(dp19
Vstart
p20
I0
sVdisambiguatedURL
p21
Vhttp://dbpedia.org/resource/Finland
p22
sVnamedEntity
p23
VFinland
p24
sVoffset
p25
I7
saa(lp26
(dp27
Vstart
p28
I0
sVdisambiguatedURL
p29
Vhttp://dbpedia.org/resource/Netherlands
p30
sVnamedEntity
p31
VNetherlands
p32
sVoffset
p33
I11
saa(lp34
(dp35
Vstart
p36
I0
sVdisambiguatedURL
p37
Vhttp://dbpedia.org/resource/Singapore
p38
sVnamedEntity
p39
VSingapore
p40
sVoffset
p41
I9
saa(lp42
(dp43
Vstart
p44
I0
sVdisambiguatedURL
p45
Vhttp://dbpedia.org/resource/Italy
p46
sVnamedEntity
p47
VItaly
p48
sVoffset
p49
I5
saa(lp50
(dp51
Vstart
p52
I0
sVdisambiguatedURL
p53
Vhttp://dbpedia.org/resource/Spain
p54
sVnamedEntity
p55
VSpain
p56
sVoffset
p57
I5
saa(lp58
(dp59
Vstart
p60
I0
sVdisambiguatedURL
p61
Vhttp://dbpedia.org/resource/France_2
p62
sVnamedEntity
p63
VFrance
p64
sVoffset
p65
I6
saa(lp66
(dp67
Vstart
p68
I0
sVdisambiguatedURL
p69
Vhttp://dbpedia.org/resource/Belgium
p70
sVnamedEntity
p71
VBelgium
p72
sVoffset
p73
I7
saa(lp74
(dp75
Vstart
p76
I0
sVdisambiguatedURL
p77
Vhttp://dbpedia.org/resource/Sweden
p78
sVnamedEntity
p79
VSweden
p80
sVoffset
p81
I6
saa(lp82
(dp83
Vstart
p84
I0
sVdisambiguatedURL
p85
Vhttp://dbpedia.org/resource/Germany
p86
sVnamedEntity
p87
VGermany
p88
sVoffset
p89
I7
saa(lp90
(dp91
Vstart
p92
I0
sVdisambiguatedURL
p93
Vhttp://dbpedia.org/resource/Great_Britain
p94
sVnamedEntity
p95
VGreat Britain
p96
sVoffset
p97
I13
saa(lp98
(dp99
Vstart
p100
I0
sVdisambiguatedURL
p101
Vhttp://dbpedia.org/resource/United_States
p102
sVnamedEntity
p103
VUnited States
p104
sVoffset
p105
I13
saa.