(lp1
(lp2
(dp3
Vstart
p4
I0
sVdisambiguatedURL
p5
NsVnamedEntity
p6
V12
p7
sVoffset
p8
I2
saa(lp9
(dp10
Vstart
p11
I0
sVdisambiguatedURL
p12
NsVnamedEntity
p13
V58
p14
sVoffset
p15
I2
saa(lp16
(dp17
Vstart
p18
I0
sVdisambiguatedURL
p19
NsVnamedEntity
p20
V6
sVoffset
p21
I1
saa(lp22
(dp23
Vstart
p24
I0
sVdisambiguatedURL
p25
NsVnamedEntity
p26
V30
p27
sVoffset
p28
I2
saa(lp29
(dp30
Vstart
p31
I0
sVdisambiguatedURL
p32
NsVnamedEntity
p33
V4
sVoffset
p34
I1
saa(lp35
(dp36
Vstart
p37
I0
sVdisambiguatedURL
p38
NsVnamedEntity
p39
V10
p40
sVoffset
p41
I2
saa(lp42
(dp43
Vstart
p44
I0
sVdisambiguatedURL
p45
NsVnamedEntity
p46
V24
p47
sVoffset
p48
I2
saa(lp49
(dp50
Vstart
p51
I0
sVdisambiguatedURL
p52
NsVnamedEntity
p53
V18
p54
sVoffset
p55
I2
saa.