ccollections
defaultdict
p1
(c__builtin__
dict
p2
tRp3
I0
(dp4
I1
(lp5
Vhttp://dbpedia.org/property/origin
p6
aVhttp://dbpedia.org/property/hostCity
p7
aVhttp://dbpedia.org/property/countriesAffected
p8
aVhttp://dbpedia.org/ontology/foundationPlace
p9
aVhttp://dbpedia.org/property/city
p10
aVhttp://dbpedia.org/ontology/city
p11
aVhttp://dbpedia.org/ontology/locatedInArea
p12
aVhttp://dbpedia.org/ontology/regionServed
p13
aVhttp://dbpedia.org/ontology/ground
p14
aVhttp://dbpedia.org/ontology/isPartOf
p15
aVhttp://dbpedia.org/property/locationTown
p16
aVhttp://dbpedia.org/property/hometown
p17
aVhttp://dbpedia.org/property/largestmetro
p18
aVhttp://dbpedia.org/property/state
p19
aVhttp://dbpedia.org/ontology/wikiPageExternalLink
p20
aVhttp://dbpedia.org/ontology/abstract
p21
aVhttp://dbpedia.org/property/countryAdminDivisions
p22
aVhttp://dbpedia.org/property/location
p23
aVhttp://dbpedia.org/property/largestcity
p24
aVhttp://dbpedia.org/ontology/province
p25
aVhttp://dbpedia.org/ontology/headquarter
p26
aVhttp://dbpedia.org/property/foundation
p27
aVhttp://dbpedia.org/property/subdivisionName
p28
aVhttp://dbpedia.org/property/headquarters
p29
aVhttp://dbpedia.org/property/locale
p30
aVhttp://dbpedia.org/property/cityServed
p31
aVhttp://dbpedia.org/ontology/state
p32
aVhttp://dbpedia.org/ontology/location
p33
aVhttp://www.w3.org/2000/01/rdf-schema#comment
p34
aVhttp://dbpedia.org/property/address
p35
aVhttp://dbpedia.org/ontology/hometown
p36
aVhttp://dbpedia.org/property/locationCity
p37
aVhttp://dbpedia.org/property/province
p38
aVhttp://dbpedia.org/ontology/locationCity
p39
aVhttp://dbpedia.org/property/stadium
p40
asI2
(lp41
sI3
(lp42
Vhttp://dbpedia.org/ontology/birthPlace
p43
aVhttp://dbpedia.org/property/birthPlace
p44
aVhttp://dbpedia.org/ontology/province
p45
aVhttp://dbpedia.org/ontology/builder
p46
aVhttp://dbpedia.org/ontology/deathPlace
p47
aVhttp://dbpedia.org/property/province
p48
aVhttp://dbpedia.org/ontology/locatedInArea
p49
aVhttp://dbpedia.org/property/placeOfBirth
p50
asI4
(lp51
Vhttp://dbpedia.org/property/origin
p52
aVhttp://dbpedia.org/property/club
p53
aVhttp://dbpedia.org/property/recorded
p54
aVhttp://dbpedia.org/property/hostCity
p55
aVhttp://dbpedia.org/ontology/foundationPlace
p56
aVhttp://dbpedia.org/property/city
p57
aVhttp://dbpedia.org/property/birthplace
p58
aVhttp://dbpedia.org/ontology/garrison
p59
aVhttp://dbpedia.org/ontology/locatedInArea
p60
aVhttp://dbpedia.org/property/populationrank
p61
aVhttp://www.w3.org/1999/02/22-rdf-syntax-ns#type
p62
aVhttp://dbpedia.org/ontology/hometown
p63
aVhttp://dbpedia.org/property/home
p64
aVhttp://dbpedia.org/property/birthPlace
p65
aVhttp://dbpedia.org/property/placeOfBirth
p66
aVhttp://dbpedia.org/property/hometown
p67
aVhttp://dbpedia.org/property/state
p68
aVhttp://dbpedia.org/property/teamb
p69
aVhttp://dbpedia.org/property/areasAffected
p70
aVhttp://dbpedia.org/ontology/wikiPageExternalLink
p71
aVhttp://dbpedia.org/ontology/country
p72
aVhttp://dbpedia.org/ontology/abstract
p73
aVhttp://dbpedia.org/ontology/recordedIn
p74
aVhttp://dbpedia.org/property/venue
p75
aVhttp://dbpedia.org/property/deathPlace
p76
aVhttp://dbpedia.org/property/location
p77
aVhttp://dbpedia.org/ontology/province
p78
aVhttp://dbpedia.org/ontology/builder
p79
aVhttp://dbpedia.org/ontology/thumbnail
p80
aVhttp://dbpedia.org/ontology/city
p81
aVhttp://dbpedia.org/property/hasPhotoCollection
p82
aVhttp://dbpedia.org/ontology/routeStart
p83
aVhttp://dbpedia.org/property/shipBuilder
p84
aVhttp://dbpedia.org/ontology/location
p85
aVhttp://www.w3.org/2000/01/rdf-schema#comment
p86
aVhttp://dbpedia.org/ontology/birthPlace
p87
aVhttp://dbpedia.org/property/boardOffice
p88
aVhttp://dbpedia.org/ontology/wikiPageRedirects
p89
aVhttp://dbpedia.org/property/away
p90
aVhttp://purl.org/voc/vrank#hasRank
p91
aVhttp://dbpedia.org/property/shipNamesake
p92
aVhttp://dbpedia.org/property/province
p93
aVhttp://dbpedia.org/property/west
p94
aVhttp://dbpedia.org/property/residence
p95
aVhttp://dbpedia.org/property/stadium
p96
aVhttp://dbpedia.org/ontology/deathPlace
p97
assI16
(dp98
I1
(lp99
Vhttp://www.w3.org/2000/01/rdf-schema#seeAlso
p100
aVhttp://dbpedia.org/ontology/province
p101
aVhttp://dbpedia.org/ontology/state
p102
aVhttp://dbpedia.org/property/cityServed
p103
aVhttp://dbpedia.org/ontology/location
p104
aVhttp://www.w3.org/2000/01/rdf-schema#comment
p105
aVhttp://dbpedia.org/ontology/abstract
p106
aVhttp://dbpedia.org/property/locale
p107
aVhttp://dbpedia.org/property/location
p108
aVhttp://dbpedia.org/property/largestcity
p109
aVhttp://dbpedia.org/property/subdivisionName
p110
aVhttp://dbpedia.org/ontology/isPartOf
p111
aVhttp://dbpedia.org/property/city
p112
aVhttp://dbpedia.org/property/locationTown
p113
aVhttp://dbpedia.org/property/metropolitan
p114
aVhttp://dbpedia.org/property/province
p115
aVhttp://dbpedia.org/ontology/city
p116
aVhttp://dbpedia.org/property/territory
p117
aVhttp://dbpedia.org/property/state
p118
aVhttp://dbpedia.org/property/largestmetro
p119
asI2
(lp120
sI3
(lp121
Vhttp://dbpedia.org/property/locale
p122
aVhttp://dbpedia.org/ontology/birthPlace
p123
aVhttp://dbpedia.org/ontology/isPartOf
p124
aVhttp://dbpedia.org/property/birthPlace
p125
aVhttp://dbpedia.org/property/placeOfBirth
p126
aVhttp://dbpedia.org/property/subdivisionName
p127
asI4
(lp128
Vhttp://dbpedia.org/property/gdpTotal
p129
aVhttp://dbpedia.org/property/hostCity
p130
aVhttp://dbpedia.org/ontology/routeStart
p131
aVhttp://dbpedia.org/property/city
p132
aVhttp://dbpedia.org/property/birthplace
p133
aVhttp://dbpedia.org/ontology/region
p134
aVhttp://dbpedia.org/ontology/routeEnd
p135
aVhttp://dbpedia.org/ontology/country
p136
aVhttp://dbpedia.org/property/region
p137
aVhttp://www.w3.org/1999/02/22-rdf-syntax-ns#type
p138
aVhttp://dbpedia.org/property/home
p139
aVhttp://dbpedia.org/ontology/isPartOf
p140
aVhttp://dbpedia.org/property/birthPlace
p141
aVhttp://dbpedia.org/property/locationTown
p142
aVhttp://dbpedia.org/property/state
p143
aVhttp://dbpedia.org/property/placeOfBirth
p144
aVhttp://dbpedia.org/ontology/wikiPageExternalLink
p145
aVhttp://dbpedia.org/ontology/abstract
p146
aVhttp://dbpedia.org/property/location
p147
aVhttp://dbpedia.org/ontology/thumbnail
p148
aVhttp://dbpedia.org/property/hasPhotoCollection
p149
aVhttp://dbpedia.org/property/subdivisionName
p150
aVhttp://dbpedia.org/ontology/location
p151
aVhttp://www.w3.org/2000/01/rdf-schema#comment
p152
aVhttp://dbpedia.org/ontology/birthPlace
p153
aVhttp://dbpedia.org/property/away
p154
aVhttp://dbpedia.org/property/url
p155
aVhttp://dbpedia.org/property/garrison
p156
aVhttp://dbpedia.org/ontology/deathPlace
p157
ass.