(lp1
(lp2
(dp3
Vstart
p4
I0
sS'classes'
p5
(lp6
Vhttp://www.w3.org/2002/07/owl#Thing
p7
aVhttp://dbpedia.org/class/yago/AdministrativeDistrict108491826
p8
aVhttp://dbpedia.org/class/yago/Country108544813
p9
aVhttp://dbpedia.org/class/yago/District108552138
p10
aVhttp://dbpedia.org/class/yago/Location100027167
p11
aVhttp://dbpedia.org/class/yago/Object100002684
p12
aVhttp://dbpedia.org/class/yago/Region108630985
p13
aVhttp://dbpedia.org/class/yago/State108654360
p14
aVhttp://dbpedia.org/class/yago/YagoGeoEntity
p15
aVhttp://dbpedia.org/class/yago/YagoLegalActorGeo
p16
aVhttp://dbpedia.org/class/yago/PhysicalEntity100001930
p17
aVhttp://dbpedia.org/class/yago/YagoPermanentlyLocatedEntity
p18
aVhttp://dbpedia.org/class/yago/ProvincesAndTerritoriesOfCanada
p19
aVhttp://dbpedia.org/class/yago/StatesAndTerritoriesEstablishedIn1871
p20
asVdisambiguatedURL
p21
Vhttp://dbpedia.org/resource/British_Columbia
p22
sVnamedEntity
p23
Vcolombie-britannique
p24
sVoffset
p25
I20
saa(lp26
a(lp27
a(lp28
a(lp29
a(lp30
a(lp31
a(lp32
a(lp33
a(lp34
a(lp35
a(lp36
a(lp37
a(lp38
a(lp39
a(lp40
a(lp41
(dp42
Vstart
p43
I0
sg5
(lp44
Vhttp://www.w3.org/2002/07/owl#Thing
p45
aVhttp://dbpedia.org/class/yago/Abstraction100002137
p46
aVhttp://dbpedia.org/class/yago/AdministrativeDistrict108491826
p47
aVhttp://dbpedia.org/class/yago/Country108544813
p48
aVhttp://dbpedia.org/class/yago/District108552138
p49
aVhttp://dbpedia.org/class/yago/Economy108366753
p50
aVhttp://dbpedia.org/class/yago/Group100031264
p51
aVhttp://dbpedia.org/class/yago/Location100027167
p52
aVhttp://dbpedia.org/class/yago/Object100002684
p53
aVhttp://dbpedia.org/class/yago/Region108630985
p54
aVhttp://dbpedia.org/class/yago/State108654360
p55
aVhttp://dbpedia.org/class/yago/System108435388
p56
aVhttp://dbpedia.org/class/yago/YagoGeoEntity
p57
aVhttp://dbpedia.org/class/yago/YagoLegalActorGeo
p58
aVhttp://dbpedia.org/class/yago/PhysicalEntity100001930
p59
aVhttp://dbpedia.org/class/yago/YagoPermanentlyLocatedEntity
p60
aVhttp://dbpedia.org/class/yago/ProvincesAndTerritoriesOfCanada
p61
aVhttp://dbpedia.org/class/yago/StatesAndTerritoriesEstablishedIn1905
p62
asVdisambiguatedURL
p63
Vhttp://dbpedia.org/resource/Saskatchewan
p64
sVnamedEntity
p65
Vsaskatchewan
p66
sVoffset
p67
I12
saa(lp68
a(lp69
a(lp70
a.