(lp1
(lp2
(lp3
((lp4
Vhttp://www.w3.org/2002/07/owl#Thing
p5
aVhttp://dbpedia.org/ontology/Company
p6
aVhttp://www.ontologydesignpatterns.org/ont/dul/DUL.owl#Agent
p7
aVhttp://www.ontologydesignpatterns.org/ont/dul/DUL.owl#SocialPerson
p8
aVhttp://www.wikidata.org/entity/Q43229
p9
aVhttp://dbpedia.org/ontology/Agent
p10
aVhttp://dbpedia.org/ontology/Organisation
p11
aVhttp://schema.org/Organization
p12
aVhttp://umbel.org/umbel/rc/Business
p13
aVhttp://umbel.org/umbel/rc/Organization
p14
aVhttp://dbpedia.org/class/yago/Abstraction100002137
p15
aVhttp://dbpedia.org/class/yago/Business108061042
p16
aVhttp://dbpedia.org/class/yago/Company108058098
p17
aVhttp://dbpedia.org/class/yago/Enterprise108056231
p18
aVhttp://dbpedia.org/class/yago/FinancialInstitution108054721
p19
aVhttp://dbpedia.org/class/yago/Firm108059870
p20
aVhttp://dbpedia.org/class/yago/Group100031264
p21
aVhttp://dbpedia.org/class/yago/Institution108053576
p22
aVhttp://dbpedia.org/class/yago/NondepositoryFinancialInstitution108419984
p23
aVhttp://dbpedia.org/class/yago/Organization108008335
p24
aVhttp://dbpedia.org/class/yago/SocialGroup107950920
p25
aVhttp://dbpedia.org/class/yago/YagoLegalActorGeo
p26
aVhttp://dbpedia.org/class/yago/CompaniesBasedInChicago,Illinois
p27
aVhttp://dbpedia.org/class/yago/CompaniesEstablishedIn1954
p28
aVhttp://dbpedia.org/class/yago/InvestmentCompany108070850
p29
aVhttp://dbpedia.org/class/yago/YagoPermanentlyLocatedEntity
p30
aVhttp://dbpedia.org/class/yago/YagoLegalActor
p31
aVhttp://dbpedia.org/class/yago/RealEstateCompaniesOfTheUnitedStates
p32
aVhttp://dbpedia.org/class/yago/RealEstateInvestmentTrusts
p33
aVhttp://dbpedia.org/class/yago/ShoppingPropertyManagementFirms
p34
aVhttp://dbpedia.org/resource/General_Growth_Properties
tp35
aa(lp36
a(lp37
a(lp38
((lp39
Vhttp://umbel.org/umbel/rc/Location_Underspecified
p40
aVhttp://umbel.org/umbel/rc/PopulatedPlace
p41
aVhttp://dbpedia.org/class/yago/County108546183
p42
aVhttp://dbpedia.org/class/yago/Location100027167
p43
aVhttp://dbpedia.org/class/yago/Object100002684
p44
aVhttp://dbpedia.org/class/yago/Region108630039
p45
aVhttp://dbpedia.org/class/yago/Region108630985
p46
aVhttp://dbpedia.org/class/yago/Site108651247
p47
aVhttp://dbpedia.org/class/yago/Tract108673395
p48
aVhttp://dbpedia.org/class/yago/YagoGeoEntity
p49
aVhttp://dbpedia.org/class/yago/YagoLegalActorGeo
p50
aVhttp://dbpedia.org/class/yago/GeographicalArea108574314
p51
aVhttp://dbpedia.org/class/yago/PhysicalEntity100001930
p52
aVhttp://dbpedia.org/class/yago/YagoPermanentlyLocatedEntity
p53
aVhttp://dbpedia.org/class/yago/OhioCounties
p54
aVhttp://dbpedia.org/class/yago/PopulatedPlacesEstablishedIn1810
p55
aVhttp://dbpedia.org/resource/Guernsey_County,_Ohio
tp56
aa(lp57
((lp58
Vhttp://www.w3.org/2002/07/owl#Thing
p59
aVhttp://dbpedia.org/ontology/Place
p60
aVhttp://dbpedia.org/ontology/Location
p61
aVhttp://www.wikidata.org/entity/Q486972
p62
aVhttp://www.wikidata.org/entity/Q6256
p63
aVhttp://dbpedia.org/ontology/Country
p64
aVhttp://dbpedia.org/ontology/PopulatedPlace
p65
aVhttp://www.w3.org/2003/01/geo/wgs84_pos#SpatialThing
p66
aVhttp://schema.org/Country
p67
aVhttp://schema.org/Place
p68
aVhttp://umbel.org/umbel/rc/Country
p69
aVhttp://umbel.org/umbel/rc/Location_Underspecified
p70
aVhttp://umbel.org/umbel/rc/PopulatedPlace
p71
aVhttp://dbpedia.org/class/yago/AdministrativeDistrict108491826
p72
aVhttp://dbpedia.org/class/yago/Country108544813
p73
aVhttp://dbpedia.org/class/yago/District108552138
p74
aVhttp://dbpedia.org/class/yago/Location100027167
p75
aVhttp://dbpedia.org/class/yago/Object100002684
p76
aVhttp://dbpedia.org/class/yago/Region108630985
p77
aVhttp://dbpedia.org/class/yago/YagoGeoEntity
p78
aVhttp://dbpedia.org/class/yago/YagoLegalActorGeo
p79
aVhttp://dbpedia.org/class/yago/PhysicalEntity100001930
p80
aVhttp://dbpedia.org/class/yago/YagoPermanentlyLocatedEntity
p81
aVhttp://dbpedia.org/class/yago/StatesAndTerritoriesEstablishedIn1204
p82
aVhttp://dbpedia.org/resource/Guernsey
tp83
aaa(lp84
(lp85
((lVhttp://dbpedia.org/resource/Jeopardy!_broadcast_information
tp86
aa(lp87
a(lp88
a(lp89
a(lp90
((lp91
Vhttp://www.w3.org/2002/07/owl#Thing
p92
aVhttp://dbpedia.org/ontology/Place
p93
aVhttp://dbpedia.org/ontology/Location
p94
aVhttp://www.wikidata.org/entity/Q486972
p95
aVhttp://www.wikidata.org/entity/Q6256
p96
aVhttp://dbpedia.org/ontology/Country
p97
aVhttp://dbpedia.org/ontology/PopulatedPlace
p98
aVhttp://www.w3.org/2003/01/geo/wgs84_pos#SpatialThing
p99
aVhttp://schema.org/Country
p100
aVhttp://schema.org/Place
p101
aVhttp://umbel.org/umbel/rc/Country
p102
aVhttp://umbel.org/umbel/rc/Location_Underspecified
p103
aVhttp://umbel.org/umbel/rc/PopulatedPlace
p104
aVhttp://dbpedia.org/class/yago/Abstraction100002137
p105
aVhttp://dbpedia.org/class/yago/AdministrativeDistrict108491826
p106
aVhttp://dbpedia.org/class/yago/Country108544813
p107
aVhttp://dbpedia.org/class/yago/District108552138
p108
aVhttp://dbpedia.org/class/yago/Economy108366753
p109
aVhttp://dbpedia.org/class/yago/Group100031264
p110
aVhttp://dbpedia.org/class/yago/Location100027167
p111
aVhttp://dbpedia.org/class/yago/Object100002684
p112
aVhttp://dbpedia.org/class/yago/Region108630985
p113
aVhttp://dbpedia.org/class/yago/System108435388
p114
aVhttp://dbpedia.org/class/yago/YagoGeoEntity
p115
aVhttp://dbpedia.org/class/yago/YagoLegalActorGeo
p116
aVhttp://dbpedia.org/class/yago/PhysicalEntity100001930
p117
aVhttp://dbpedia.org/class/yago/YagoPermanentlyLocatedEntity
p118
aVhttp://dbpedia.org/class/yago/IslandCountries
p119
aVhttp://dbpedia.org/resource/Jersey
tp120
aaa(lp121
(lp122
((lVhttp://dbpedia.org/resource/Individual_Meal_Pack
tp123
aa(lp124
a(lp125
a(lp126
a(lp127
((lp128
Vhttp://www.w3.org/2002/07/owl#Thing
p129
aVhttp://dbpedia.org/ontology/Place
p130
aVhttp://dbpedia.org/ontology/Location
p131
aVhttp://www.wikidata.org/entity/Q486972
p132
aVhttp://www.wikidata.org/entity/Q6256
p133
aVhttp://dbpedia.org/ontology/Country
p134
aVhttp://dbpedia.org/ontology/PopulatedPlace
p135
aVhttp://www.w3.org/2003/01/geo/wgs84_pos#SpatialThing
p136
aVhttp://schema.org/Country
p137
aVhttp://schema.org/Place
p138
aVhttp://umbel.org/umbel/rc/Country
p139
aVhttp://umbel.org/umbel/rc/Location_Underspecified
p140
aVhttp://umbel.org/umbel/rc/PopulatedPlace
p141
aVhttp://dbpedia.org/class/yago/AdministrativeDistrict108491826
p142
aVhttp://dbpedia.org/class/yago/Country108544813
p143
aVhttp://dbpedia.org/class/yago/District108552138
p144
aVhttp://dbpedia.org/class/yago/Island109316454
p145
aVhttp://dbpedia.org/class/yago/Land109334396
p146
aVhttp://dbpedia.org/class/yago/Location100027167
p147
aVhttp://dbpedia.org/class/yago/Object100002684
p148
aVhttp://dbpedia.org/class/yago/Region108630985
p149
aVhttp://dbpedia.org/class/yago/YagoGeoEntity
p150
aVhttp://dbpedia.org/class/yago/YagoLegalActorGeo
p151
aVhttp://dbpedia.org/class/yago/English-speakingCountriesAndTerritories
p152
aVhttp://dbpedia.org/class/yago/PhysicalEntity100001930
p153
aVhttp://dbpedia.org/class/yago/YagoPermanentlyLocatedEntity
p154
aVhttp://dbpedia.org/class/yago/IslandsOfTheIsleOfMan
p155
aVhttp://dbpedia.org/resource/Isle_of_Man
tp156
aaa(lp157
(lp158
((lVhttp://dbpedia.org/resource/Key_Risk_Indicator
tp159
aa(lp160
a(lp161
a(lp162
a(lp163
((lp164
Vhttp://www.w3.org/2002/07/owl#Thing
p165
aVhttp://dbpedia.org/ontology/Place
p166
aVhttp://dbpedia.org/ontology/Location
p167
aVhttp://www.wikidata.org/entity/Q486972
p168
aVhttp://www.wikidata.org/entity/Q6256
p169
aVhttp://dbpedia.org/ontology/Country
p170
aVhttp://dbpedia.org/ontology/PopulatedPlace
p171
aVhttp://www.w3.org/2003/01/geo/wgs84_pos#SpatialThing
p172
aVhttp://schema.org/Country
p173
aVhttp://schema.org/Place
p174
aVhttp://umbel.org/umbel/rc/Country
p175
aVhttp://umbel.org/umbel/rc/Location_Underspecified
p176
aVhttp://umbel.org/umbel/rc/PopulatedPlace
p177
aVhttp://dbpedia.org/class/yago/Abstraction100002137
p178
aVhttp://dbpedia.org/class/yago/AdministrativeDistrict108491826
p179
aVhttp://dbpedia.org/class/yago/Country108544813
p180
aVhttp://dbpedia.org/class/yago/District108552138
p181
aVhttp://dbpedia.org/class/yago/Economy108366753
p182
aVhttp://dbpedia.org/class/yago/Group100031264
p183
aVhttp://dbpedia.org/class/yago/Location100027167
p184
aVhttp://dbpedia.org/class/yago/Object100002684
p185
aVhttp://dbpedia.org/class/yago/Region108630985
p186
aVhttp://dbpedia.org/class/yago/System108435388
p187
aVhttp://dbpedia.org/class/yago/YagoGeoEntity
p188
aVhttp://dbpedia.org/class/yago/YagoLegalActorGeo
p189
aVhttp://dbpedia.org/class/yago/English-speakingCountriesAndTerritories
p190
aVhttp://dbpedia.org/class/yago/PhysicalEntity100001930
p191
aVhttp://dbpedia.org/class/yago/YagoPermanentlyLocatedEntity
p192
aVhttp://dbpedia.org/class/yago/IslandCountries
p193
aVhttp://dbpedia.org/class/yago/LeastDevelopedCountries
p194
aVhttp://dbpedia.org/class/yago/MemberStatesOfTheCommonwealthOfNations
p195
aVhttp://dbpedia.org/class/yago/MemberStatesOfTheUnitedNations
p196
aVhttp://dbpedia.org/class/yago/OceanianCountries
p197
aVhttp://dbpedia.org/class/yago/StatesAndTerritoriesEstablishedIn1979
p198
aVhttp://dbpedia.org/resource/Kiribati
tp199
aaa(lp200
(lp201
a(lp202
a(lp203
a(lp204
a(lp205
((lp206
Vhttp://www.w3.org/2002/07/owl#Thing
p207
aVhttp://dbpedia.org/ontology/Place
p208
aVhttp://dbpedia.org/ontology/Location
p209
aVhttp://www.wikidata.org/entity/Q486972
p210
aVhttp://www.wikidata.org/entity/Q6256
p211
aVhttp://dbpedia.org/ontology/Country
p212
aVhttp://dbpedia.org/ontology/PopulatedPlace
p213
aVhttp://www.w3.org/2003/01/geo/wgs84_pos#SpatialThing
p214
aVhttp://schema.org/Country
p215
aVhttp://schema.org/Place
p216
aVhttp://umbel.org/umbel/rc/Country
p217
aVhttp://dbpedia.org/class/yago/AdministrativeDistrict108491826
p218
aVhttp://dbpedia.org/class/yago/Arabic-speakingCountriesAndTerritories
p219
aVhttp://dbpedia.org/class/yago/Country108544813
p220
aVhttp://dbpedia.org/class/yago/District108552138
p221
aVhttp://dbpedia.org/class/yago/Location100027167
p222
aVhttp://dbpedia.org/class/yago/Object100002684
p223
aVhttp://dbpedia.org/class/yago/Region108630039
p224
aVhttp://dbpedia.org/class/yago/Region108630985
p225
aVhttp://dbpedia.org/class/yago/YagoGeoEntity
p226
aVhttp://dbpedia.org/class/yago/YagoLegalActorGeo
p227
aVhttp://dbpedia.org/class/yago/DividedRegions
p228
aVhttp://dbpedia.org/class/yago/English-speakingCountriesAndTerritories
p229
aVhttp://dbpedia.org/class/yago/PhysicalEntity100001930
p230
aVhttp://dbpedia.org/class/yago/YagoPermanentlyLocatedEntity
p231
aVhttp://dbpedia.org/class/yago/StatesAndTerritoriesEstablishedIn1991
p232
aVhttp://dbpedia.org/class/yago/StatesOfSomalia
p233
aVhttp://dbpedia.org/class/yago/UnrecognizedOrLargelyUnrecognizedStates
p234
aVhttp://dbpedia.org/resource/Somaliland
tp235
aaa(lp236
(lp237
((lVhttp://dbpedia.org/resource/PRB_(vessel)
tp238
aa(lp239
a(lp240
a(lp241
a(lp242
((lp243
Vhttp://www.w3.org/2002/07/owl#Thing
p244
aVhttp://dbpedia.org/ontology/Place
p245
aVhttp://dbpedia.org/ontology/Location
p246
aVhttp://www.wikidata.org/entity/Q486972
p247
aVhttp://www.wikidata.org/entity/Q6256
p248
aVhttp://dbpedia.org/ontology/Country
p249
aVhttp://dbpedia.org/ontology/PopulatedPlace
p250
aVhttp://www.w3.org/2003/01/geo/wgs84_pos#SpatialThing
p251
aVhttp://schema.org/Country
p252
aVhttp://schema.org/Place
p253
aVhttp://umbel.org/umbel/rc/Country
p254
aVhttp://umbel.org/umbel/rc/Location_Underspecified
p255
aVhttp://umbel.org/umbel/rc/PopulatedPlace
p256
aVhttp://dbpedia.org/class/yago/AdministrativeDistrict108491826
p257
aVhttp://dbpedia.org/class/yago/Area108497294
p258
aVhttp://dbpedia.org/class/yago/AreasOfTraditionalSpreadOfUkrainiansAndUkrainianLanguage
p259
aVhttp://dbpedia.org/class/yago/AutonomousRegions
p260
aVhttp://dbpedia.org/class/yago/Country108544813
p261
aVhttp://dbpedia.org/class/yago/District108552138
p262
aVhttp://dbpedia.org/class/yago/Location100027167
p263
aVhttp://dbpedia.org/class/yago/Object100002684
p264
aVhttp://dbpedia.org/class/yago/Region108630039
p265
aVhttp://dbpedia.org/class/yago/Region108630985
p266
aVhttp://dbpedia.org/class/yago/YagoGeoEntity
p267
aVhttp://dbpedia.org/class/yago/YagoLegalActorGeo
p268
aVhttp://dbpedia.org/class/yago/DisputedTerritoriesInEurope
p269
aVhttp://dbpedia.org/class/yago/PhysicalEntity100001930
p270
aVhttp://dbpedia.org/class/yago/YagoPermanentlyLocatedEntity
p271
aVhttp://dbpedia.org/class/yago/LandlockedCountries
p272
aVhttp://dbpedia.org/class/yago/Romanian-speakingCountriesAndTerritories
p273
aVhttp://dbpedia.org/class/yago/Russian-speakingCountriesAndTerritories
p274
aVhttp://dbpedia.org/class/yago/StatesAndTerritoriesEstablishedIn1990
p275
aVhttp://dbpedia.org/class/yago/Ukrainian-speakingCountriesAndTerritories
p276
aVhttp://dbpedia.org/class/yago/UnrecognizedOrLargelyUnrecognizedStates
p277
aVhttp://dbpedia.org/resource/Transnistria
tp278
aaa(lp279
(lp280
((lp281
Vhttp://dbpedia.org/class/yago/Abstraction100002137
p282
aVhttp://dbpedia.org/class/yago/Communication100033020
p283
aVhttp://dbpedia.org/class/yago/Equation106669864
p284
aVhttp://dbpedia.org/class/yago/Message106598915
p285
aVhttp://dbpedia.org/class/yago/Statement106722453
p286
aVhttp://dbpedia.org/class/yago/DifferentialEquation106670521
p287
aVhttp://dbpedia.org/class/yago/MathematicalStatement106732169
p288
aVhttp://dbpedia.org/class/yago/NumericalDifferentialEquations
p289
aVhttp://dbpedia.org/resource/Total_variation_diminishing
tp290
aa(lp291
a(lp292
a(lp293
a(lp294
((lp295
Vhttp://www.w3.org/2002/07/owl#Thing
p296
aVhttp://dbpedia.org/ontology/Place
p297
aVhttp://dbpedia.org/ontology/Location
p298
aVhttp://www.wikidata.org/entity/Q486972
p299
aVhttp://www.wikidata.org/entity/Q6256
p300
aVhttp://dbpedia.org/ontology/Country
p301
aVhttp://dbpedia.org/ontology/PopulatedPlace
p302
aVhttp://www.w3.org/2003/01/geo/wgs84_pos#SpatialThing
p303
aVhttp://schema.org/Country
p304
aVhttp://schema.org/Place
p305
aVhttp://umbel.org/umbel/rc/Country
p306
aVhttp://umbel.org/umbel/rc/Location_Underspecified
p307
aVhttp://umbel.org/umbel/rc/PopulatedPlace
p308
aVhttp://dbpedia.org/class/yago/AdministrativeDistrict108491826
p309
aVhttp://dbpedia.org/class/yago/Archipelago109203827
p310
aVhttp://dbpedia.org/class/yago/ArchipelagoesOfThePacificOcean
p311
aVhttp://dbpedia.org/class/yago/Country108544813
p312
aVhttp://dbpedia.org/class/yago/District108552138
p313
aVhttp://dbpedia.org/class/yago/Land109334396
p314
aVhttp://dbpedia.org/class/yago/Location100027167
p315
aVhttp://dbpedia.org/class/yago/Object100002684
p316
aVhttp://dbpedia.org/class/yago/Region108630985
p317
aVhttp://dbpedia.org/class/yago/Site108651247
p318
aVhttp://dbpedia.org/class/yago/Tract108673395
p319
aVhttp://dbpedia.org/class/yago/YagoGeoEntity
p320
aVhttp://dbpedia.org/class/yago/YagoLegalActorGeo
p321
aVhttp://dbpedia.org/class/yago/English-speakingCountriesAndTerritories
p322
aVhttp://dbpedia.org/class/yago/GeographicalArea108574314
p323
aVhttp://dbpedia.org/class/yago/PhysicalEntity100001930
p324
aVhttp://dbpedia.org/class/yago/YagoPermanentlyLocatedEntity
p325
aVhttp://dbpedia.org/class/yago/IslandCountries
p326
aVhttp://dbpedia.org/class/yago/LeastDevelopedCountries
p327
aVhttp://dbpedia.org/class/yago/MemberStatesOfTheCommonwealthOfNations
p328
aVhttp://dbpedia.org/class/yago/MemberStatesOfTheUnitedNations
p329
aVhttp://dbpedia.org/class/yago/OceanianCountries
p330
aVhttp://dbpedia.org/class/yago/StatesAndTerritoriesEstablishedIn1978
p331
aVhttp://dbpedia.org/class/yago/WorldWarIISites
p332
aVhttp://dbpedia.org/resource/Tuvalu
p333
tp334
aaa.