(lp1
(dp2
I0
(dp3
I0
(lp4
sI1
(lp5
Vhttp://dbpedia.org/ontology/wikiPageExternalLink
p6
aVhttp://dbpedia.org/ontology/abstract
p7
aVhttp://dbpedia.org/property/hasPhotoCollection
p8
aVhttp://www.w3.org/2002/07/owl#sameAs
p9
aVhttp://www.w3.org/2000/01/rdf-schema#comment
p10
asI2
(lp11
Vhttp://dbpedia.org/ontology/wikiPageExternalLink
p12
aVhttp://www.w3.org/1999/02/22-rdf-syntax-ns#type
p13
aVhttp://www.w3.org/2000/01/rdf-schema#comment
p14
aVhttp://dbpedia.org/ontology/abstract
p15
aVhttp://dbpedia.org/ontology/revenue
p16
aVhttp://purl.org/voc/vrank#hasRank
p17
aVhttp://www.w3.org/ns/prov#wasDerivedFrom
p18
aVhttp://www.w3.org/2002/07/owl#sameAs
p19
aVhttp://dbpedia.org/property/revenue
p20
asI3
(lp21
sI4
(lp22
ssI1
(dp23
I0
g5
sI1
(lp24
sI2
(lp25
sI3
(lp26
Vhttp://purl.org/dc/terms/subject
p27
aVhttp://www.w3.org/2000/01/rdf-schema#comment
p28
aVhttp://dbpedia.org/ontology/abstract
p29
aVhttp://dbpedia.org/property/wordnet_type
p30
aVhttp://dbpedia.org/property/hasPhotoCollection
p31
aVhttp://www.w3.org/2002/07/owl#sameAs
p32
asI4
(lp33
Vhttp://www.georss.org/georss/point
p34
aVhttp://dbpedia.org/property/drivesOn
p35
aVhttp://www.w3.org/2000/01/rdf-schema#comment
p36
aVhttp://dbpedia.org/ontology/abstract
p37
aVhttp://dbpedia.org/ontology/wikiPageRedirects
p38
aVhttp://dbpedia.org/property/deathPlace
p39
aVhttp://dbpedia.org/property/birthPlace
p40
aVhttp://dbpedia.org/ontology/deathPlace
p41
aVhttp://dbpedia.org/property/hasPhotoCollection
p42
aVhttp://dbpedia.org/ontology/birthPlace
p43
aVhttp://www.w3.org/2002/07/owl#sameAs
p44
assI2
(dp45
I0
g11
sI1
g25
sI2
(lp46
sI3
(lp47
Vhttp://dbpedia.org/ontology/county
p48
aVhttp://www.w3.org/1999/02/22-rdf-syntax-ns#type
p49
aVhttp://www.w3.org/2000/01/rdf-schema#comment
p50
aVhttp://dbpedia.org/ontology/abstract
p51
aVhttp://dbpedia.org/ontology/wikiPageRedirects
p52
aVhttp://dbpedia.org/property/wordnet_type
p53
aVhttp://purl.org/voc/vrank#hasRank
p54
aVhttp://dbpedia.org/property/counties
p55
aVhttp://www.w3.org/2002/07/owl#sameAs
p56
asI4
(lp57
Vhttp://dbpedia.org/property/areaRank
p58
aVhttp://dbpedia.org/property/unitPrecipitationDays
p59
aVhttp://www.georss.org/georss/point
p60
aVhttp://purl.org/dc/terms/subject
p61
aVhttp://www.w3.org/2000/01/rdf-schema#comment
p62
aVhttp://dbpedia.org/ontology/abstract
p63
aVhttp://dbpedia.org/property/withdraws
p64
aVhttp://dbpedia.org/property/gdpPppPerCapita
p65
aVhttp://www.w3.org/1999/02/22-rdf-syntax-ns#type
p66
aVhttp://dbpedia.org/ontology/PopulatedPlace/areaTotal
p67
aVhttp://dbpedia.org/property/gdpPpp
p68
aVhttp://dbpedia.org/property/date
p69
aVhttp://dbpedia.org/property/country
p70
aVhttp://dbpedia.org/property/igPlace
p71
aVhttp://dbpedia.org/ontology/place
p72
aVhttp://www.w3.org/2002/07/owl#sameAs
p73
aVhttp://purl.org/voc/vrank#hasRank
p74
assI3
(dp75
I0
g21
sI1
g26
sI2
g47
sI3
(lp76
sI4
(lp77
Vhttp://dbpedia.org/property/namedFor
p78
aVhttp://www.w3.org/ns/prov#wasDerivedFrom
p79
aVhttp://purl.org/dc/terms/subject
p80
aVhttp://dbpedia.org/ontology/isPartOf
p81
aVhttp://xmlns.com/foaf/0.1/isPrimaryTopicOf
p82
aVhttp://dbpedia.org/property/centre
p83
aVhttp://dbpedia.org/property/exImage
p84
aVhttp://dbpedia.org/ontology/wikiPageDisambiguates
p85
aVhttp://dbpedia.org/ontology/wikiPageExternalLink
p86
aVhttp://dbpedia.org/property/web
p87
aVhttp://xmlns.com/foaf/0.1/primaryTopic
p88
aVhttp://dbpedia.org/property/exImageCap
p89
aVhttp://dbpedia.org/property/county
p90
aVhttp://dbpedia.org/ontology/abstract
p91
aVhttp://xmlns.com/foaf/0.1/depiction
p92
aVhttp://dbpedia.org/ontology/thumbnail
p93
aVhttp://dbpedia.org/property/hasPhotoCollection
p94
aVhttp://www.w3.org/2000/01/rdf-schema#label
p95
aVhttp://dbpedia.org/property/subdivisionName
p96
aVhttp://www.w3.org/2000/01/rdf-schema#comment
p97
aVhttp://dbpedia.org/ontology/wikiPageRedirects
p98
aVhttp://dbpedia.org/property/seal
p99
aVhttp://xmlns.com/foaf/0.1/homepage
p100
aVhttp://www.w3.org/2002/07/owl#sameAs
p101
assI4
(dp102
I0
g22
sI1
g33
sI2
g57
sI3
g77
sI4
(lp103
ssa(dp104
I0
(dp105
I0
(lp106
sI1
(lp107
Vhttp://dbpedia.org/ontology/abstract
p108
aVhttp://dbpedia.org/ontology/wikiPageRedirects
p109
aVhttp://www.w3.org/2000/01/rdf-schema#comment
p110
asI2
(lp111
Vhttp://dbpedia.org/ontology/wikiPageExternalLink
p112
aVhttp://www.w3.org/2000/01/rdf-schema#comment
p113
aVhttp://dbpedia.org/ontology/abstract
p114
aVhttp://purl.org/voc/vrank#hasRank
p115
aVhttp://www.w3.org/ns/prov#wasDerivedFrom
p116
aVhttp://xmlns.com/foaf/0.1/homepage
p117
aVhttp://www.w3.org/2002/07/owl#sameAs
p118
asI3
(lp119
sI4
(lp120
ssI1
(dp121
I0
g107
sI1
(lp122
sI2
(lp123
sI3
(lp124
sI4
(lp125
Vhttp://dbpedia.org/ontology/wikiPageExternalLink
p126
aVhttp://www.georss.org/georss/point
p127
aVhttp://dbpedia.org/property/drivesOn
p128
aVhttp://www.w3.org/2000/01/rdf-schema#comment
p129
aVhttp://dbpedia.org/ontology/birthPlace
p130
aVhttp://dbpedia.org/property/place
p131
aVhttp://dbpedia.org/ontology/wikiPageRedirects
p132
aVhttp://dbpedia.org/property/birthPlace
p133
aVhttp://dbpedia.org/property/imageMap
p134
aVhttp://dbpedia.org/ontology/place
p135
aVhttp://dbpedia.org/ontology/deathPlace
p136
aVhttp://dbpedia.org/ontology/individualisedGnd
p137
aVhttp://xmlns.com/foaf/0.1/name
p138
aVhttp://dbpedia.org/property/hasPhotoCollection
p139
aVhttp://dbpedia.org/property/footnoteE
p140
aVhttp://dbpedia.org/ontology/abstract
p141
aVhttp://www.w3.org/2002/07/owl#sameAs
p142
assI2
(dp143
I0
g111
sI1
g123
sI2
(lp144
sI3
(lp145
sI4
(lp146
Vhttp://dbpedia.org/property/origin
p147
aVhttp://www.georss.org/georss/point
p148
aVhttp://dbpedia.org/ontology/lccnId
p149
aVhttp://dbpedia.org/ontology/countryWithFirstSatellite
p150
aVhttp://www.w3.org/2000/01/rdf-schema#comment
p151
aVhttp://dbpedia.org/ontology/abstract
p152
aVhttp://dbpedia.org/property/location
p153
aVhttp://dbpedia.org/ontology/PopulatedPlace/populationDensity
p154
aVhttp://dbpedia.org/property/lccn
p155
aVhttp://dbpedia.org/ontology/PopulatedPlace/areaTotal
p156
aVhttp://www.w3.org/1999/02/22-rdf-syntax-ns#type
p157
aVhttp://dbpedia.org/property/country
p158
aVhttp://dbpedia.org/property/igPlace
p159
aVhttp://purl.org/voc/vrank#hasRank
p160
aVhttp://dbpedia.org/ontology/individualisedGnd
p161
aVhttp://www.w3.org/2002/07/owl#sameAs
p162
assI3
(dp163
I0
g119
sI1
g124
sI2
g145
sI3
(lp164
sI4
(lp165
ssI4
(dp166
I0
g120
sI1
g125
sI2
g146
sI3
g165
sI4
(lp167
ssa(dp168
I0
(dp169
I0
(lp170
sI1
(lp171
Vhttp://dbpedia.org/ontology/wikiPageExternalLink
p172
aVhttp://dbpedia.org/property/hasPhotoCollection
p173
aVhttp://xmlns.com/foaf/0.1/depiction
p174
aVhttp://dbpedia.org/ontology/thumbnail
p175
asI2
(lp176
Vhttp://www.w3.org/ns/prov#wasDerivedFrom
p177
aVhttp://www.w3.org/2002/07/owl#sameAs
p178
asI3
(lp179
sI4
(lp180
ssI1
(dp181
I0
g171
sI1
(lp182
sI2
(lp183
sI3
(lp184
sI4
(lp185
Vhttp://dbpedia.org/ontology/wikiPageExternalLink
p186
aVhttp://dbpedia.org/ontology/country
p187
aVhttp://www.georss.org/georss/point
p188
aVhttp://purl.org/dc/terms/subject
p189
aVhttp://www.w3.org/2000/01/rdf-schema#comment
p190
aVhttp://dbpedia.org/ontology/abstract
p191
aVhttp://dbpedia.org/property/governmentType
p192
aVhttp://dbpedia.org/property/deathPlace
p193
aVhttp://dbpedia.org/ontology/wikiPageRedirects
p194
aVhttp://dbpedia.org/property/location
p195
aVhttp://www.w3.org/1999/02/22-rdf-syntax-ns#type
p196
aVhttp://dbpedia.org/ontology/deathPlace
p197
aVhttp://dbpedia.org/property/placeOfDeath
p198
aVhttp://dbpedia.org/property/country
p199
aVhttp://dbpedia.org/ontology/locatedInArea
p200
aVhttp://dbpedia.org/property/shipRoute
p201
aVhttp://dbpedia.org/property/hasPhotoCollection
p202
aVhttp://dbpedia.org/property/shipCountry
p203
aVhttp://www.w3.org/2002/07/owl#sameAs
p204
aVhttp://dbpedia.org/property/shipRegistry
p205
assI2
(dp206
I0
g176
sI1
g183
sI2
(lp207
sI3
(lp208
sI4
(lp209
Vhttp://dbpedia.org/ontology/wikiPageExternalLink
p210
aVhttp://dbpedia.org/ontology/country
p211
aVhttp://www.w3.org/1999/02/22-rdf-syntax-ns#type
p212
aVhttp://dbpedia.org/property/hostCity
p213
aVhttp://dbpedia.org/ontology/abstract
p214
aVhttp://www.w3.org/2000/01/rdf-schema#comment
p215
aVhttp://dbpedia.org/ontology/wikiPageRedirects
p216
aVhttp://dbpedia.org/property/area
p217
aVhttp://dbpedia.org/ontology/PopulatedPlace/areaTotal
p218
aVhttp://dbpedia.org/ontology/locationCountry
p219
aVhttp://dbpedia.org/property/hostcity
p220
aVhttp://dbpedia.org/property/gdpPpp
p221
aVhttp://dbpedia.org/property/date
p222
aVhttp://dbpedia.org/property/country
p223
aVhttp://purl.org/voc/vrank#hasRank
p224
aVhttp://dbpedia.org/ontology/PopulatedPlace/populationDensity
p225
aVhttp://www.w3.org/2002/07/owl#sameAs
p226
assI3
(dp227
I0
g179
sI1
g184
sI2
g208
sI3
(lp228
sI4
(lp229
ssI4
(dp230
I0
g180
sI1
g185
sI2
g209
sI3
g229
sI4
(lp231
ssa(dp232
I0
(dp233
I0
(lp234
sI1
(lp235
Vhttp://dbpedia.org/property/hasPhotoCollection
p236
asI2
(lp237
Vhttp://purl.org/voc/vrank#hasRank
p238
asI3
(lp239
sI4
(lp240
ssI1
(dp241
I0
g235
sI1
(lp242
sI2
(lp243
sI3
(lp244
sI4
(lp245
Vhttp://dbpedia.org/ontology/wikiPageExternalLink
p246
aVhttp://www.w3.org/1999/02/22-rdf-syntax-ns#type
p247
aVhttp://dbpedia.org/ontology/leaderTitle
p248
aVhttp://www.w3.org/2000/01/rdf-schema#comment
p249
aVhttp://dbpedia.org/ontology/demonym
p250
aVhttp://dbpedia.org/ontology/abstract
p251
aVhttp://dbpedia.org/ontology/wikiPageRedirects
p252
aVhttp://dbpedia.org/property/demonym
p253
aVhttp://dbpedia.org/property/drivesOn
p254
aVhttp://dbpedia.org/property/hasPhotoCollection
p255
aVhttp://purl.org/dc/terms/subject
p256
aVhttp://www.w3.org/2002/07/owl#sameAs
p257
assI2
(dp258
I0
g237
sI1
g243
sI2
(lp259
sI3
(lp260
sI4
(lp261
Vhttp://dbpedia.org/ontology/wikiPageExternalLink
p262
aVhttp://dbpedia.org/ontology/country
p263
aVhttp://www.w3.org/1999/02/22-rdf-syntax-ns#type
p264
aVhttp://www.w3.org/2000/01/rdf-schema#comment
p265
aVhttp://dbpedia.org/property/gdpNominalPerCapita
p266
aVhttp://dbpedia.org/ontology/abstract
p267
aVhttp://dbpedia.org/property/gdpPppPerCapita
p268
aVhttp://dbpedia.org/ontology/PopulatedPlace/areaTotal
p269
aVhttp://www.w3.org/ns/prov#wasDerivedFrom
p270
aVhttp://dbpedia.org/property/utcOffset
p271
aVhttp://purl.org/voc/vrank#hasRank
p272
aVhttp://www.w3.org/2002/07/owl#sameAs
p273
assI3
(dp274
I0
g239
sI1
g244
sI2
g260
sI3
(lp275
sI4
(lp276
ssI4
(dp277
I0
g240
sI1
g245
sI2
g261
sI3
g276
sI4
(lp278
ssa(dp279
I0
(dp280
I0
(lp281
sI1
(lp282
sI2
(lp283
sI3
(lp284
sI4
(lp285
ssI1
(dp286
I0
g282
sI1
(lp287
sI2
(lp288
sI3
(lp289
sI4
(lp290
Vhttp://www.w3.org/1999/02/22-rdf-syntax-ns#type
p291
aVhttp://purl.org/dc/terms/subject
p292
aVhttp://www.w3.org/2000/01/rdf-schema#comment
p293
aVhttp://dbpedia.org/property/nationalMotto
p294
aVhttp://dbpedia.org/ontology/abstract
p295
aVhttp://dbpedia.org/ontology/leaderTitle
p296
aVhttp://dbpedia.org/property/hasPhotoCollection
p297
aVhttp://dbpedia.org/property/leaderTitle
p298
aVhttp://dbpedia.org/ontology/motto
p299
aVhttp://www.w3.org/2002/07/owl#sameAs
p300
assI2
(dp301
I0
g283
sI1
g288
sI2
(lp302
sI3
(lp303
sI4
(lp304
Vhttp://dbpedia.org/ontology/wikiPageExternalLink
p305
aVhttp://dbpedia.org/ontology/country
p306
aVhttp://www.w3.org/1999/02/22-rdf-syntax-ns#type
p307
aVhttp://www.w3.org/2000/01/rdf-schema#comment
p308
aVhttp://dbpedia.org/ontology/abstract
p309
aVhttp://dbpedia.org/ontology/PopulatedPlace/populationDensity
p310
aVhttp://dbpedia.org/ontology/PopulatedPlace/areaTotal
p311
aVhttp://dbpedia.org/property/callingCode
p312
aVhttp://www.w3.org/ns/prov#wasDerivedFrom
p313
aVhttp://dbpedia.org/ontology/battle
p314
aVhttp://purl.org/voc/vrank#hasRank
p315
aVhttp://dbpedia.org/property/state
p316
aVhttp://www.w3.org/2002/07/owl#sameAs
p317
assI3
(dp318
I0
g284
sI1
g289
sI2
g303
sI3
(lp319
sI4
(lp320
Vhttp://dbpedia.org/property/currency
p321
assI4
(dp322
I0
g285
sI1
g290
sI2
g304
sI3
g320
sI4
(lp323
ssa(dp324
I0
(dp325
I0
(lp326
sI1
(lp327
Vhttp://dbpedia.org/property/hasPhotoCollection
p328
asI2
(lp329
Vhttp://www.w3.org/2000/01/rdf-schema#comment
p330
aVhttp://dbpedia.org/ontology/abstract
p331
aVhttp://xmlns.com/foaf/0.1/depiction
p332
aVhttp://purl.org/voc/vrank#hasRank
p333
aVhttp://dbpedia.org/ontology/thumbnail
p334
aVhttp://www.w3.org/2002/07/owl#sameAs
p335
asI3
(lp336
sI4
(lp337
ssI1
(dp338
I0
g327
sI1
(lp339
sI2
(lp340
sI3
(lp341
sI4
(lp342
Vhttp://dbpedia.org/ontology/wikiPageExternalLink
p343
aVhttp://dbpedia.org/property/establishedDate
p344
aVhttp://www.w3.org/1999/02/22-rdf-syntax-ns#type
p345
aVhttp://purl.org/dc/terms/subject
p346
aVhttp://www.w3.org/2000/01/rdf-schema#comment
p347
aVhttp://dbpedia.org/ontology/abstract
p348
aVhttp://dbpedia.org/property/governmentType
p349
aVhttp://dbpedia.org/ontology/wikiPageRedirects
p350
aVhttp://dbpedia.org/ontology/governmentType
p351
aVhttp://www.w3.org/2002/07/owl#sameAs
p352
aVhttp://xmlns.com/foaf/0.1/name
p353
aVhttp://dbpedia.org/property/footnoteC
p354
aVhttp://dbpedia.org/property/hasPhotoCollection
p355
aVhttp://dbpedia.org/property/img
p356
assI2
(dp357
I0
g329
sI1
g340
sI2
(lp358
sI3
(lp359
sI4
(lp360
Vhttp://dbpedia.org/ontology/wikiPageExternalLink
p361
aVhttp://dbpedia.org/property/establishedDate
p362
aVhttp://www.georss.org/georss/point
p363
aVhttp://www.w3.org/2000/01/rdf-schema#comment
p364
aVhttp://dbpedia.org/ontology/abstract
p365
aVhttp://dbpedia.org/ontology/wikiPageRedirects
p366
aVhttp://dbpedia.org/ontology/PopulatedPlace/areaTotal
p367
aVhttp://www.w3.org/1999/02/22-rdf-syntax-ns#type
p368
aVhttp://www.w3.org/ns/prov#wasDerivedFrom
p369
aVhttp://dbpedia.org/property/utcOffset
p370
aVhttp://purl.org/voc/vrank#hasRank
p371
aVhttp://dbpedia.org/property/footnoteE
p372
aVhttp://dbpedia.org/ontology/PopulatedPlace/populationDensity
p373
aVhttp://www.w3.org/2002/07/owl#sameAs
p374
assI3
(dp375
I0
g336
sI1
g341
sI2
g359
sI3
(lp376
sI4
(lp377
Vhttp://dbpedia.org/property/currency
p378
assI4
(dp379
I0
g337
sI1
g342
sI2
g360
sI3
g377
sI4
(lp380
ssa(dp381
I0
(dp382
I0
(lp383
sI1
(lp384
Vhttp://dbpedia.org/property/hasPhotoCollection
p385
aVhttp://www.w3.org/2002/07/owl#sameAs
p386
aVhttp://dbpedia.org/ontology/knownFor
p387
asI2
(lp388
Vhttp://purl.org/voc/vrank#hasRank
p389
aVhttp://www.w3.org/1999/02/22-rdf-syntax-ns#type
p390
aVhttp://www.w3.org/2002/07/owl#sameAs
p391
asI3
(lp392
sI4
(lp393
ssI1
(dp394
I0
g384
sI1
(lp395
sI2
(lp396
sI3
(lp397
sI4
(lp398
Vhttp://dbpedia.org/ontology/wikiPageExternalLink
p399
aVhttp://dbpedia.org/ontology/country
p400
aVhttp://www.georss.org/georss/point
p401
aVhttp://purl.org/dc/terms/subject
p402
aVhttp://www.w3.org/2000/01/rdf-schema#comment
p403
aVhttp://dbpedia.org/ontology/abstract
p404
aVhttp://dbpedia.org/property/governmentType
p405
aVhttp://dbpedia.org/ontology/wikiPageRedirects
p406
aVhttp://www.w3.org/1999/02/22-rdf-syntax-ns#type
p407
aVhttp://dbpedia.org/property/drivesOn
p408
aVhttp://dbpedia.org/property/country
p409
aVhttp://dbpedia.org/property/hasPhotoCollection
p410
aVhttp://dbpedia.org/property/leaderTitle
p411
aVhttp://www.w3.org/2002/07/owl#sameAs
p412
assI2
(dp413
I0
g388
sI1
g396
sI2
(lp414
sI3
(lp415
sI4
(lp416
Vhttp://www.w3.org/2000/01/rdf-schema#seeAlso
p417
aVhttp://dbpedia.org/ontology/wikiPageExternalLink
p418
aVhttp://www.georss.org/georss/point
p419
aVhttp://www.w3.org/2000/01/rdf-schema#comment
p420
aVhttp://dbpedia.org/ontology/abstract
p421
aVhttp://dbpedia.org/ontology/PopulatedPlace/areaTotal
p422
aVhttp://www.w3.org/1999/02/22-rdf-syntax-ns#type
p423
aVhttp://dbpedia.org/property/gdpPppRank
p424
aVhttp://dbpedia.org/property/country
p425
aVhttp://dbpedia.org/property/utcOffset
p426
aVhttp://purl.org/voc/vrank#hasRank
p427
aVhttp://dbpedia.org/ontology/PopulatedPlace/populationDensity
p428
aVhttp://www.w3.org/2002/07/owl#sameAs
p429
assI3
(dp430
I0
g392
sI1
g397
sI2
g415
sI3
(lp431
sI4
(lp432
ssI4
(dp433
I0
g393
sI1
g398
sI2
g416
sI3
g432
sI4
(lp434
ssa.