ccollections
defaultdict
p1
(c__builtin__
dict
p2
tRp3
I0
(dp4
I0
(lp5
sI1
(lp6
Vhttp://www.georss.org/georss/point
p7
aVhttp://dbpedia.org/property/drivesOn
p8
aVhttp://www.w3.org/2000/01/rdf-schema#comment
p9
aVhttp://dbpedia.org/ontology/abstract
p10
aVhttp://dbpedia.org/property/deathPlace
p11
aVhttp://dbpedia.org/ontology/wikiPageRedirects
p12
aVhttp://dbpedia.org/property/birthPlace
p13
aVhttp://dbpedia.org/ontology/deathPlace
p14
aVhttp://dbpedia.org/property/hasPhotoCollection
p15
aVhttp://dbpedia.org/ontology/birthPlace
p16
aVhttp://www.w3.org/2002/07/owl#sameAs
p17
asI2
(lp18
Vhttp://dbpedia.org/property/areaRank
p19
aVhttp://www.georss.org/georss/point
p20
aVhttp://purl.org/dc/terms/subject
p21
aVhttp://www.w3.org/2000/01/rdf-schema#comment
p22
aVhttp://dbpedia.org/property/country
p23
aVhttp://dbpedia.org/ontology/abstract
p24
aVhttp://dbpedia.org/property/gdpPppPerCapita
p25
aVhttp://dbpedia.org/property/withdraws
p26
aVhttp://dbpedia.org/ontology/PopulatedPlace/areaTotal
p27
aVhttp://www.w3.org/1999/02/22-rdf-syntax-ns#type
p28
aVhttp://dbpedia.org/property/unitPrecipitationDays
p29
aVhttp://dbpedia.org/property/gdpPpp
p30
aVhttp://dbpedia.org/property/date
p31
aVhttp://dbpedia.org/ontology/place
p32
aVhttp://dbpedia.org/property/igPlace
p33
aVhttp://purl.org/voc/vrank#hasRank
p34
aVhttp://www.w3.org/2002/07/owl#sameAs
p35
asI3
(lp36
Vhttp://dbpedia.org/property/currency
p37
assI1
(dp38
I0
(lp39
sI1
(lp40
Vhttp://dbpedia.org/ontology/wikiPageExternalLink
p41
aVhttp://www.georss.org/georss/point
p42
aVhttp://dbpedia.org/property/drivesOn
p43
aVhttp://www.w3.org/2000/01/rdf-schema#comment
p44
aVhttp://dbpedia.org/ontology/birthPlace
p45
aVhttp://dbpedia.org/ontology/abstract
p46
aVhttp://dbpedia.org/property/place
p47
aVhttp://dbpedia.org/ontology/wikiPageRedirects
p48
aVhttp://dbpedia.org/property/birthPlace
p49
aVhttp://dbpedia.org/property/imageMap
p50
aVhttp://dbpedia.org/ontology/place
p51
aVhttp://dbpedia.org/ontology/deathPlace
p52
aVhttp://xmlns.com/foaf/0.1/name
p53
aVhttp://dbpedia.org/property/hasPhotoCollection
p54
aVhttp://dbpedia.org/property/footnoteE
p55
aVhttp://dbpedia.org/ontology/individualisedGnd
p56
aVhttp://www.w3.org/2002/07/owl#sameAs
p57
asI2
(lp58
Vhttp://dbpedia.org/property/origin
p59
aVhttp://www.georss.org/georss/point
p60
aVhttp://dbpedia.org/ontology/lccnId
p61
aVhttp://dbpedia.org/ontology/countryWithFirstSatellite
p62
aVhttp://www.w3.org/2000/01/rdf-schema#comment
p63
aVhttp://dbpedia.org/ontology/abstract
p64
aVhttp://dbpedia.org/property/location
p65
aVhttp://dbpedia.org/property/lccn
p66
aVhttp://dbpedia.org/ontology/PopulatedPlace/areaTotal
p67
aVhttp://www.w3.org/1999/02/22-rdf-syntax-ns#type
p68
aVhttp://dbpedia.org/ontology/individualisedGnd
p69
aVhttp://dbpedia.org/property/country
p70
aVhttp://dbpedia.org/property/igPlace
p71
aVhttp://purl.org/voc/vrank#hasRank
p72
aVhttp://dbpedia.org/ontology/PopulatedPlace/populationDensity
p73
aVhttp://www.w3.org/2002/07/owl#sameAs
p74
asI3
(lp75
ssI2
(dp76
I0
(lp77
Vhttp://dbpedia.org/ontology/abstract
p78
aVhttp://www.w3.org/2000/01/rdf-schema#comment
p79
asI1
(lp80
Vhttp://dbpedia.org/ontology/wikiPageExternalLink
p81
aVhttp://dbpedia.org/ontology/country
p82
aVhttp://www.georss.org/georss/point
p83
aVhttp://purl.org/dc/terms/subject
p84
aVhttp://www.w3.org/2000/01/rdf-schema#comment
p85
aVhttp://dbpedia.org/ontology/abstract
p86
aVhttp://dbpedia.org/property/governmentType
p87
aVhttp://dbpedia.org/property/deathPlace
p88
aVhttp://dbpedia.org/property/shipRoute
p89
aVhttp://dbpedia.org/ontology/wikiPageRedirects
p90
aVhttp://dbpedia.org/property/location
p91
aVhttp://www.w3.org/1999/02/22-rdf-syntax-ns#type
p92
aVhttp://dbpedia.org/ontology/deathPlace
p93
aVhttp://dbpedia.org/property/placeOfDeath
p94
aVhttp://dbpedia.org/property/country
p95
aVhttp://dbpedia.org/ontology/locatedInArea
p96
aVhttp://dbpedia.org/property/hasPhotoCollection
p97
aVhttp://dbpedia.org/property/shipCountry
p98
aVhttp://www.w3.org/2002/07/owl#sameAs
p99
aVhttp://dbpedia.org/property/shipRegistry
p100
asI2
(lp101
Vhttp://dbpedia.org/ontology/wikiPageExternalLink
p102
aVhttp://dbpedia.org/ontology/country
p103
aVhttp://www.w3.org/1999/02/22-rdf-syntax-ns#type
p104
aVhttp://www.w3.org/2000/01/rdf-schema#comment
p105
aVhttp://dbpedia.org/ontology/abstract
p106
aVhttp://dbpedia.org/property/hostCity
p107
aVhttp://dbpedia.org/ontology/wikiPageRedirects
p108
aVhttp://dbpedia.org/property/area
p109
aVhttp://dbpedia.org/ontology/PopulatedPlace/areaTotal
p110
aVhttp://dbpedia.org/ontology/locationCountry
p111
aVhttp://dbpedia.org/property/hostcity
p112
aVhttp://dbpedia.org/property/gdpPpp
p113
aVhttp://dbpedia.org/property/date
p114
aVhttp://dbpedia.org/property/country
p115
aVhttp://purl.org/voc/vrank#hasRank
p116
aVhttp://dbpedia.org/ontology/PopulatedPlace/populationDensity
p117
aVhttp://www.w3.org/2002/07/owl#sameAs
p118
asI3
(lp119
ssI3
(dp120
I0
(lp121
sI1
(lp122
Vhttp://dbpedia.org/ontology/wikiPageExternalLink
p123
aVhttp://www.w3.org/1999/02/22-rdf-syntax-ns#type
p124
aVhttp://dbpedia.org/ontology/leaderTitle
p125
aVhttp://www.w3.org/2000/01/rdf-schema#comment
p126
aVhttp://dbpedia.org/ontology/abstract
p127
aVhttp://dbpedia.org/ontology/wikiPageRedirects
p128
aVhttp://dbpedia.org/property/demonym
p129
aVhttp://dbpedia.org/property/drivesOn
p130
aVhttp://purl.org/dc/terms/subject
p131
aVhttp://dbpedia.org/property/hasPhotoCollection
p132
aVhttp://dbpedia.org/ontology/demonym
p133
aVhttp://www.w3.org/2002/07/owl#sameAs
p134
asI2
(lp135
Vhttp://dbpedia.org/ontology/wikiPageExternalLink
p136
aVhttp://dbpedia.org/ontology/country
p137
aVhttp://www.w3.org/1999/02/22-rdf-syntax-ns#type
p138
aVhttp://www.w3.org/2000/01/rdf-schema#comment
p139
aVhttp://dbpedia.org/property/gdpNominalPerCapita
p140
aVhttp://dbpedia.org/ontology/abstract
p141
aVhttp://dbpedia.org/property/gdpPppPerCapita
p142
aVhttp://dbpedia.org/ontology/PopulatedPlace/areaTotal
p143
aVhttp://www.w3.org/ns/prov#wasDerivedFrom
p144
aVhttp://dbpedia.org/property/utcOffset
p145
aVhttp://purl.org/voc/vrank#hasRank
p146
aVhttp://www.w3.org/2002/07/owl#sameAs
p147
asI3
(lp148
ssI4
(dp149
I0
(lp150
sI1
(lp151
Vhttp://www.w3.org/1999/02/22-rdf-syntax-ns#type
p152
aVhttp://dbpedia.org/ontology/leaderTitle
p153
aVhttp://www.w3.org/2000/01/rdf-schema#comment
p154
aVhttp://dbpedia.org/property/nationalMotto
p155
aVhttp://dbpedia.org/ontology/abstract
p156
aVhttp://purl.org/dc/terms/subject
p157
aVhttp://dbpedia.org/property/hasPhotoCollection
p158
aVhttp://dbpedia.org/property/leaderTitle
p159
aVhttp://dbpedia.org/ontology/motto
p160
aVhttp://www.w3.org/2002/07/owl#sameAs
p161
asI2
(lp162
Vhttp://dbpedia.org/ontology/wikiPageExternalLink
p163
aVhttp://dbpedia.org/ontology/country
p164
aVhttp://dbpedia.org/ontology/battle
p165
aVhttp://www.w3.org/1999/02/22-rdf-syntax-ns#type
p166
aVhttp://www.w3.org/2000/01/rdf-schema#comment
p167
aVhttp://dbpedia.org/ontology/abstract
p168
aVhttp://dbpedia.org/property/state
p169
aVhttp://dbpedia.org/ontology/PopulatedPlace/areaTotal
p170
aVhttp://dbpedia.org/property/callingCode
p171
aVhttp://www.w3.org/ns/prov#wasDerivedFrom
p172
aVhttp://purl.org/voc/vrank#hasRank
p173
aVhttp://dbpedia.org/ontology/PopulatedPlace/populationDensity
p174
aVhttp://www.w3.org/2002/07/owl#sameAs
p175
asI3
(lp176
Vhttp://dbpedia.org/property/currency
p177
assI5
(dp178
I0
(lp179
Vhttp://dbpedia.org/property/currencyCode
p180
asI1
(lp181
Vhttp://dbpedia.org/ontology/wikiPageExternalLink
p182
aVhttp://dbpedia.org/property/establishedDate
p183
aVhttp://www.w3.org/1999/02/22-rdf-syntax-ns#type
p184
aVhttp://purl.org/dc/terms/subject
p185
aVhttp://www.w3.org/2000/01/rdf-schema#comment
p186
aVhttp://dbpedia.org/ontology/abstract
p187
aVhttp://dbpedia.org/property/governmentType
p188
aVhttp://dbpedia.org/ontology/wikiPageRedirects
p189
aVhttp://dbpedia.org/ontology/governmentType
p190
aVhttp://dbpedia.org/property/img
p191
aVhttp://xmlns.com/foaf/0.1/name
p192
aVhttp://dbpedia.org/property/footnoteC
p193
aVhttp://dbpedia.org/property/hasPhotoCollection
p194
aVhttp://www.w3.org/2002/07/owl#sameAs
p195
asI2
(lp196
Vhttp://dbpedia.org/ontology/wikiPageExternalLink
p197
aVhttp://dbpedia.org/property/establishedDate
p198
aVhttp://www.georss.org/georss/point
p199
aVhttp://www.w3.org/2000/01/rdf-schema#comment
p200
aVhttp://dbpedia.org/ontology/abstract
p201
aVhttp://dbpedia.org/ontology/wikiPageRedirects
p202
aVhttp://dbpedia.org/ontology/PopulatedPlace/areaTotal
p203
aVhttp://www.w3.org/1999/02/22-rdf-syntax-ns#type
p204
aVhttp://www.w3.org/ns/prov#wasDerivedFrom
p205
aVhttp://dbpedia.org/property/utcOffset
p206
aVhttp://purl.org/voc/vrank#hasRank
p207
aVhttp://dbpedia.org/property/footnoteE
p208
aVhttp://dbpedia.org/ontology/PopulatedPlace/populationDensity
p209
aVhttp://www.w3.org/2002/07/owl#sameAs
p210
asI3
(lp211
Vhttp://dbpedia.org/property/currency
p212
assI6
(dp213
I0
(lp214
sI1
(lp215
Vhttp://dbpedia.org/ontology/wikiPageExternalLink
p216
aVhttp://dbpedia.org/ontology/country
p217
aVhttp://www.georss.org/georss/point
p218
aVhttp://purl.org/dc/terms/subject
p219
aVhttp://www.w3.org/2000/01/rdf-schema#comment
p220
aVhttp://dbpedia.org/ontology/abstract
p221
aVhttp://dbpedia.org/property/governmentType
p222
aVhttp://dbpedia.org/ontology/wikiPageRedirects
p223
aVhttp://www.w3.org/1999/02/22-rdf-syntax-ns#type
p224
aVhttp://dbpedia.org/property/country
p225
aVhttp://dbpedia.org/property/drivesOn
p226
aVhttp://dbpedia.org/property/hasPhotoCollection
p227
aVhttp://dbpedia.org/property/leaderTitle
p228
aVhttp://www.w3.org/2002/07/owl#sameAs
p229
asI2
(lp230
Vhttp://www.w3.org/2000/01/rdf-schema#seeAlso
p231
aVhttp://dbpedia.org/ontology/wikiPageExternalLink
p232
aVhttp://www.georss.org/georss/point
p233
aVhttp://www.w3.org/2000/01/rdf-schema#comment
p234
aVhttp://dbpedia.org/ontology/abstract
p235
aVhttp://dbpedia.org/ontology/PopulatedPlace/areaTotal
p236
aVhttp://www.w3.org/1999/02/22-rdf-syntax-ns#type
p237
aVhttp://dbpedia.org/property/country
p238
aVhttp://dbpedia.org/property/gdpPppRank
p239
aVhttp://dbpedia.org/property/utcOffset
p240
aVhttp://purl.org/voc/vrank#hasRank
p241
aVhttp://dbpedia.org/ontology/PopulatedPlace/populationDensity
p242
aVhttp://www.w3.org/2002/07/owl#sameAs
p243
asI3
(lp244
ss.