(lp1
(lp2
(lp3
a(lp4
((lp5
Vhttp://www.w3.org/2002/07/owl#Thing
p6
aVhttp://dbpedia.org/resource/Culture_of_Assam
tp7
aa(lp8
((lp9
Vhttp://www.w3.org/2002/07/owl#Thing
p10
aVhttp://dbpedia.org/ontology/Place
p11
aVhttp://dbpedia.org/ontology/Location
p12
aVhttp://www.wikidata.org/entity/Q486972
p13
aVhttp://www.wikidata.org/entity/Q6256
p14
aVhttp://dbpedia.org/ontology/Country
p15
aVhttp://dbpedia.org/ontology/PopulatedPlace
p16
aVhttp://www.w3.org/2003/01/geo/wgs84_pos#SpatialThing
p17
aVhttp://schema.org/Country
p18
aVhttp://schema.org/Place
p19
aVhttp://umbel.org/umbel/rc/Country
p20
aVhttp://umbel.org/umbel/rc/Location_Underspecified
p21
aVhttp://umbel.org/umbel/rc/PopulatedPlace
p22
aVhttp://dbpedia.org/class/yago/Abstraction100002137
p23
aVhttp://dbpedia.org/class/yago/AdministrativeDistrict108491826
p24
aVhttp://dbpedia.org/class/yago/Country108544813
p25
aVhttp://dbpedia.org/class/yago/District108552138
p26
aVhttp://dbpedia.org/class/yago/Economy108366753
p27
aVhttp://dbpedia.org/class/yago/Group100031264
p28
aVhttp://dbpedia.org/class/yago/Location100027167
p29
aVhttp://dbpedia.org/class/yago/Object100002684
p30
aVhttp://dbpedia.org/class/yago/Region108630985
p31
aVhttp://dbpedia.org/class/yago/System108435388
p32
aVhttp://dbpedia.org/class/yago/YagoGeoEntity
p33
aVhttp://dbpedia.org/class/yago/YagoLegalActorGeo
p34
aVhttp://dbpedia.org/class/yago/CountriesOfTheIndianOcean
p35
aVhttp://dbpedia.org/class/yago/FederalCountries
p36
aVhttp://dbpedia.org/class/yago/PhysicalEntity100001930
p37
aVhttp://dbpedia.org/class/yago/YagoPermanentlyLocatedEntity
p38
aVhttp://dbpedia.org/class/yago/MemberStatesOfTheCommonwealthOfNations
p39
aVhttp://dbpedia.org/class/yago/MemberStatesOfTheSouthAsianAssociationForRegionalCooperation
p40
aVhttp://dbpedia.org/class/yago/MemberStatesOfTheUnitedNations
p41
aVhttp://dbpedia.org/class/yago/SouthAsianCountries
p42
aVhttp://dbpedia.org/class/yago/StatesAndTerritoriesEstablishedIn1947
p43
aVhttp://dbpedia.org/class/yago/WorldTradeOrganizationMemberEconomies
p44
aVhttp://dbpedia.org/resource/India
tp45
aa(lp46
((lp47
Vhttp://www.w3.org/2002/07/owl#Thing
p48
aVhttp://dbpedia.org/ontology/Company
p49
aVhttp://www.ontologydesignpatterns.org/ont/dul/DUL.owl#Agent
p50
aVhttp://www.ontologydesignpatterns.org/ont/dul/DUL.owl#SocialPerson
p51
aVhttp://www.wikidata.org/entity/Q18127
p52
aVhttp://www.wikidata.org/entity/Q43229
p53
aVhttp://dbpedia.org/ontology/Agent
p54
aVhttp://dbpedia.org/ontology/Organisation
p55
aVhttp://dbpedia.org/ontology/RecordLabel
p56
aVhttp://schema.org/Organization
p57
aVhttp://umbel.org/umbel/rc/Business
p58
aVhttp://umbel.org/umbel/rc/RecordCompany
p59
aVhttp://dbpedia.org/class/yago/Abstraction100002137
p60
aVhttp://dbpedia.org/class/yago/AlternativeRockRecordLabels
p61
aVhttp://dbpedia.org/class/yago/AmericanIndependentRecordLabels
p62
aVhttp://dbpedia.org/class/yago/Company108058098
p63
aVhttp://dbpedia.org/class/yago/Group100031264
p64
aVhttp://dbpedia.org/class/yago/Institution108053576
p65
aVhttp://dbpedia.org/class/yago/Organization108008335
p66
aVhttp://dbpedia.org/class/yago/SocialGroup107950920
p67
aVhttp://dbpedia.org/class/yago/YagoLegalActorGeo
p68
aVhttp://dbpedia.org/class/yago/YagoPermanentlyLocatedEntity
p69
aVhttp://dbpedia.org/class/yago/IndieMusicRecordLabels
p70
aVhttp://dbpedia.org/class/yago/YagoLegalActor
p71
aVhttp://dbpedia.org/class/yago/RecordLabelsEstablishedIn1986
p72
aVhttp://dbpedia.org/resource/Bar/None_Records
tp73
aaa(lp74
(lp75
a(lp76
((lp77
Vhttp://www.w3.org/2002/07/owl#Thing
p78
aVhttp://dbpedia.org/ontology/Place
p79
aVhttp://dbpedia.org/ontology/Location
p80
aVhttp://www.wikidata.org/entity/Q486972
p81
aVhttp://www.wikidata.org/entity/Q6256
p82
aVhttp://dbpedia.org/ontology/Country
p83
aVhttp://dbpedia.org/ontology/PopulatedPlace
p84
aVhttp://www.w3.org/2003/01/geo/wgs84_pos#SpatialThing
p85
aVhttp://schema.org/Country
p86
aVhttp://schema.org/Place
p87
aVhttp://umbel.org/umbel/rc/Country
p88
aVhttp://umbel.org/umbel/rc/Location_Underspecified
p89
aVhttp://umbel.org/umbel/rc/PopulatedPlace
p90
aVhttp://dbpedia.org/class/yago/Abstraction100002137
p91
aVhttp://dbpedia.org/class/yago/AdministrativeDistrict108491826
p92
aVhttp://dbpedia.org/class/yago/Country108544813
p93
aVhttp://dbpedia.org/class/yago/District108552138
p94
aVhttp://dbpedia.org/class/yago/Economy108366753
p95
aVhttp://dbpedia.org/class/yago/Group100031264
p96
aVhttp://dbpedia.org/class/yago/Location100027167
p97
aVhttp://dbpedia.org/class/yago/Object100002684
p98
aVhttp://dbpedia.org/class/yago/Region108630985
p99
aVhttp://dbpedia.org/class/yago/System108435388
p100
aVhttp://dbpedia.org/class/yago/YagoGeoEntity
p101
aVhttp://dbpedia.org/class/yago/YagoLegalActorGeo
p102
aVhttp://dbpedia.org/class/yago/CountriesOfTheIndianOcean
p103
aVhttp://dbpedia.org/class/yago/FederalCountries
p104
aVhttp://dbpedia.org/class/yago/PhysicalEntity100001930
p105
aVhttp://dbpedia.org/class/yago/YagoPermanentlyLocatedEntity
p106
aVhttp://dbpedia.org/class/yago/MemberStatesOfTheCommonwealthOfNations
p107
aVhttp://dbpedia.org/class/yago/MemberStatesOfTheSouthAsianAssociationForRegionalCooperation
p108
aVhttp://dbpedia.org/class/yago/MemberStatesOfTheUnitedNations
p109
aVhttp://dbpedia.org/class/yago/SouthAsianCountries
p110
aVhttp://dbpedia.org/class/yago/StatesAndTerritoriesEstablishedIn1947
p111
aVhttp://dbpedia.org/class/yago/WorldTradeOrganizationMemberEconomies
p112
aVhttp://dbpedia.org/resource/India
tp113
aa(lp114
((lp115
Vhttp://dbpedia.org/class/yago/Abstraction100002137
p116
aVhttp://dbpedia.org/class/yago/Communication100033020
p117
aVhttp://dbpedia.org/class/yago/Orthography106351202
p118
aVhttp://dbpedia.org/class/yago/Writing106359877
p119
aVhttp://dbpedia.org/class/yago/WrittenCommunication106349220
p120
aVhttp://dbpedia.org/resource/Bengali_alphabet
tp121
aa(lp122
((lp123
Vhttp://www.w3.org/2002/07/owl#Thing
p124
aVhttp://dbpedia.org/ontology/Company
p125
aVhttp://www.ontologydesignpatterns.org/ont/dul/DUL.owl#Agent
p126
aVhttp://www.ontologydesignpatterns.org/ont/dul/DUL.owl#SocialPerson
p127
aVhttp://www.wikidata.org/entity/Q18127
p128
aVhttp://www.wikidata.org/entity/Q43229
p129
aVhttp://dbpedia.org/ontology/Agent
p130
aVhttp://dbpedia.org/ontology/Organisation
p131
aVhttp://dbpedia.org/ontology/RecordLabel
p132
aVhttp://schema.org/Organization
p133
aVhttp://umbel.org/umbel/rc/Business
p134
aVhttp://umbel.org/umbel/rc/RecordCompany
p135
aVhttp://dbpedia.org/class/yago/Abstraction100002137
p136
aVhttp://dbpedia.org/class/yago/AlternativeRockRecordLabels
p137
aVhttp://dbpedia.org/class/yago/AmericanIndependentRecordLabels
p138
aVhttp://dbpedia.org/class/yago/Company108058098
p139
aVhttp://dbpedia.org/class/yago/Group100031264
p140
aVhttp://dbpedia.org/class/yago/Institution108053576
p141
aVhttp://dbpedia.org/class/yago/Organization108008335
p142
aVhttp://dbpedia.org/class/yago/SocialGroup107950920
p143
aVhttp://dbpedia.org/class/yago/YagoLegalActorGeo
p144
aVhttp://dbpedia.org/class/yago/YagoPermanentlyLocatedEntity
p145
aVhttp://dbpedia.org/class/yago/IndieMusicRecordLabels
p146
aVhttp://dbpedia.org/class/yago/YagoLegalActor
p147
aVhttp://dbpedia.org/class/yago/RecordLabelsEstablishedIn1986
p148
aVhttp://dbpedia.org/resource/Bar/None_Records
tp149
aaa(lp150
(lp151
a(lp152
((lp153
Vhttp://www.w3.org/2002/07/owl#Thing
p154
aVhttp://dbpedia.org/ontology/Place
p155
aVhttp://dbpedia.org/ontology/Location
p156
aVhttp://www.wikidata.org/entity/Q486972
p157
aVhttp://www.wikidata.org/entity/Q6256
p158
aVhttp://dbpedia.org/ontology/Country
p159
aVhttp://dbpedia.org/ontology/PopulatedPlace
p160
aVhttp://www.w3.org/2003/01/geo/wgs84_pos#SpatialThing
p161
aVhttp://schema.org/Country
p162
aVhttp://schema.org/Place
p163
aVhttp://umbel.org/umbel/rc/Country
p164
aVhttp://umbel.org/umbel/rc/Location_Underspecified
p165
aVhttp://umbel.org/umbel/rc/PopulatedPlace
p166
aVhttp://dbpedia.org/class/yago/Abstraction100002137
p167
aVhttp://dbpedia.org/class/yago/AdministrativeDistrict108491826
p168
aVhttp://dbpedia.org/class/yago/AlpineCountries
p169
aVhttp://dbpedia.org/class/yago/Country108544813
p170
aVhttp://dbpedia.org/class/yago/District108552138
p171
aVhttp://dbpedia.org/class/yago/Economy108366753
p172
aVhttp://dbpedia.org/class/yago/Group100031264
p173
aVhttp://dbpedia.org/class/yago/Location100027167
p174
aVhttp://dbpedia.org/class/yago/Object100002684
p175
aVhttp://dbpedia.org/class/yago/Region108630985
p176
aVhttp://dbpedia.org/class/yago/System108435388
p177
aVhttp://dbpedia.org/class/yago/YagoGeoEntity
p178
aVhttp://dbpedia.org/class/yago/YagoLegalActorGeo
p179
aVhttp://dbpedia.org/class/yago/CountriesBorderingTheAtlanticOcean
p180
aVhttp://dbpedia.org/class/yago/CountriesBorderingTheBalticSea
p181
aVhttp://dbpedia.org/class/yago/EuropeanCountries
p182
aVhttp://dbpedia.org/class/yago/EuropeanUnionMemberEconomies
p183
aVhttp://dbpedia.org/class/yago/FederalCountries
p184
aVhttp://dbpedia.org/class/yago/PhysicalEntity100001930
p185
aVhttp://dbpedia.org/class/yago/YagoPermanentlyLocatedEntity
p186
aVhttp://dbpedia.org/class/yago/German-speakingCountries
p187
aVhttp://dbpedia.org/class/yago/MemberStatesOfNATO
p188
aVhttp://dbpedia.org/class/yago/MemberStatesOfTheEuropeanUnion
p189
aVhttp://dbpedia.org/class/yago/MemberStatesOfTheUnionForTheMediterranean
p190
aVhttp://dbpedia.org/class/yago/MemberStatesOfTheUnitedNations
p191
aVhttp://dbpedia.org/class/yago/StatesAndTerritoriesEstablishedIn1871
p192
aVhttp://dbpedia.org/resource/Germany
tp193
aa(lp194
((lp195
Vhttp://www.w3.org/2002/07/owl#Thing
p196
aVhttp://dbpedia.org/ontology/Place
p197
aVhttp://dbpedia.org/ontology/Location
p198
aVhttp://www.wikidata.org/entity/Q486972
p199
aVhttp://www.wikidata.org/entity/Q6256
p200
aVhttp://dbpedia.org/ontology/Country
p201
aVhttp://dbpedia.org/ontology/PopulatedPlace
p202
aVhttp://www.w3.org/2003/01/geo/wgs84_pos#SpatialThing
p203
aVhttp://schema.org/Country
p204
aVhttp://schema.org/Place
p205
aVhttp://umbel.org/umbel/rc/Country
p206
aVhttp://umbel.org/umbel/rc/Location_Underspecified
p207
aVhttp://umbel.org/umbel/rc/PopulatedPlace
p208
aVhttp://dbpedia.org/class/yago/Abstraction100002137
p209
aVhttp://dbpedia.org/class/yago/AdministrativeDistrict108491826
p210
aVhttp://dbpedia.org/class/yago/AlpineCountries
p211
aVhttp://dbpedia.org/class/yago/Country108544813
p212
aVhttp://dbpedia.org/class/yago/District108552138
p213
aVhttp://dbpedia.org/class/yago/Economy108366753
p214
aVhttp://dbpedia.org/class/yago/Group100031264
p215
aVhttp://dbpedia.org/class/yago/Location100027167
p216
aVhttp://dbpedia.org/class/yago/Object100002684
p217
aVhttp://dbpedia.org/class/yago/Region108630985
p218
aVhttp://dbpedia.org/class/yago/System108435388
p219
aVhttp://dbpedia.org/class/yago/YagoGeoEntity
p220
aVhttp://dbpedia.org/class/yago/YagoLegalActorGeo
p221
aVhttp://dbpedia.org/class/yago/CountriesBorderingTheAtlanticOcean
p222
aVhttp://dbpedia.org/class/yago/CountriesBorderingTheBalticSea
p223
aVhttp://dbpedia.org/class/yago/EuropeanCountries
p224
aVhttp://dbpedia.org/class/yago/EuropeanUnionMemberEconomies
p225
aVhttp://dbpedia.org/class/yago/FederalCountries
p226
aVhttp://dbpedia.org/class/yago/PhysicalEntity100001930
p227
aVhttp://dbpedia.org/class/yago/YagoPermanentlyLocatedEntity
p228
aVhttp://dbpedia.org/class/yago/German-speakingCountries
p229
aVhttp://dbpedia.org/class/yago/MemberStatesOfNATO
p230
aVhttp://dbpedia.org/class/yago/MemberStatesOfTheEuropeanUnion
p231
aVhttp://dbpedia.org/class/yago/MemberStatesOfTheUnionForTheMediterranean
p232
aVhttp://dbpedia.org/class/yago/MemberStatesOfTheUnitedNations
p233
aVhttp://dbpedia.org/class/yago/StatesAndTerritoriesEstablishedIn1871
p234
aVhttp://dbpedia.org/resource/Germany
tp235
aa(lp236
((lp237
Vhttp://www.w3.org/2002/07/owl#Thing
p238
aVhttp://dbpedia.org/ontology/Company
p239
aVhttp://www.ontologydesignpatterns.org/ont/dul/DUL.owl#Agent
p240
aVhttp://www.ontologydesignpatterns.org/ont/dul/DUL.owl#SocialPerson
p241
aVhttp://www.wikidata.org/entity/Q18127
p242
aVhttp://www.wikidata.org/entity/Q43229
p243
aVhttp://dbpedia.org/ontology/Agent
p244
aVhttp://dbpedia.org/ontology/Organisation
p245
aVhttp://dbpedia.org/ontology/RecordLabel
p246
aVhttp://schema.org/Organization
p247
aVhttp://umbel.org/umbel/rc/Business
p248
aVhttp://umbel.org/umbel/rc/RecordCompany
p249
aVhttp://dbpedia.org/class/yago/Abstraction100002137
p250
aVhttp://dbpedia.org/class/yago/AlternativeRockRecordLabels
p251
aVhttp://dbpedia.org/class/yago/AmericanIndependentRecordLabels
p252
aVhttp://dbpedia.org/class/yago/Company108058098
p253
aVhttp://dbpedia.org/class/yago/Group100031264
p254
aVhttp://dbpedia.org/class/yago/Institution108053576
p255
aVhttp://dbpedia.org/class/yago/Organization108008335
p256
aVhttp://dbpedia.org/class/yago/SocialGroup107950920
p257
aVhttp://dbpedia.org/class/yago/YagoLegalActorGeo
p258
aVhttp://dbpedia.org/class/yago/YagoPermanentlyLocatedEntity
p259
aVhttp://dbpedia.org/class/yago/IndieMusicRecordLabels
p260
aVhttp://dbpedia.org/class/yago/YagoLegalActor
p261
aVhttp://dbpedia.org/class/yago/RecordLabelsEstablishedIn1986
p262
aVhttp://dbpedia.org/resource/Bar/None_Records
tp263
aaa(lp264
(lp265
a(lp266
((lp267
Vhttp://www.w3.org/2002/07/owl#Thing
p268
aVhttp://dbpedia.org/ontology/Place
p269
aVhttp://dbpedia.org/ontology/Location
p270
aVhttp://www.wikidata.org/entity/Q3957
p271
aVhttp://www.wikidata.org/entity/Q486972
p272
aVhttp://dbpedia.org/ontology/PopulatedPlace
p273
aVhttp://dbpedia.org/ontology/Settlement
p274
aVhttp://dbpedia.org/ontology/Town
p275
aVhttp://www.w3.org/2003/01/geo/wgs84_pos#SpatialThing
p276
aVhttp://schema.org/Place
p277
aVhttp://dbpedia.org/class/yago/AdministrativeDistrict108491826
p278
aVhttp://dbpedia.org/class/yago/District108552138
p279
aVhttp://dbpedia.org/class/yago/Location100027167
p280
aVhttp://dbpedia.org/class/yago/Object100002684
p281
aVhttp://dbpedia.org/class/yago/Region108630985
p282
aVhttp://dbpedia.org/class/yago/Town108665504
p283
aVhttp://dbpedia.org/class/yago/UrbanArea108675967
p284
aVhttp://dbpedia.org/class/yago/YagoGeoEntity
p285
aVhttp://dbpedia.org/class/yago/YagoLegalActorGeo
p286
aVhttp://dbpedia.org/class/yago/GeographicalArea108574314
p287
aVhttp://dbpedia.org/class/yago/Municipality108626283
p288
aVhttp://dbpedia.org/class/yago/PhysicalEntity100001930
p289
aVhttp://dbpedia.org/class/yago/YagoPermanentlyLocatedEntity
p290
aVhttp://dbpedia.org/class/yago/MunicipalitiesInAlgomaDistrict
p291
aVhttp://dbpedia.org/class/yago/TownsInOntario
p292
aVhttp://dbpedia.org/resource/Spanish,_Ontario
tp293
aa(lp294
((lp295
Vhttp://www.w3.org/2002/07/owl#Thing
p296
aVhttp://dbpedia.org/ontology/Place
p297
aVhttp://dbpedia.org/ontology/Location
p298
aVhttp://www.wikidata.org/entity/Q486972
p299
aVhttp://www.wikidata.org/entity/Q6256
p300
aVhttp://dbpedia.org/ontology/Country
p301
aVhttp://dbpedia.org/ontology/PopulatedPlace
p302
aVhttp://www.w3.org/2003/01/geo/wgs84_pos#SpatialThing
p303
aVhttp://schema.org/Country
p304
aVhttp://schema.org/Place
p305
aVhttp://umbel.org/umbel/rc/Country
p306
aVhttp://umbel.org/umbel/rc/Location_Underspecified
p307
aVhttp://umbel.org/umbel/rc/PopulatedPlace
p308
aVhttp://dbpedia.org/class/yago/Abstraction100002137
p309
aVhttp://dbpedia.org/class/yago/AdministrativeDistrict108491826
p310
aVhttp://dbpedia.org/class/yago/BicontinentalCountries
p311
aVhttp://dbpedia.org/class/yago/Country108544813
p312
aVhttp://dbpedia.org/class/yago/District108552138
p313
aVhttp://dbpedia.org/class/yago/Economy108366753
p314
aVhttp://dbpedia.org/class/yago/Group100031264
p315
aVhttp://dbpedia.org/class/yago/Location100027167
p316
aVhttp://dbpedia.org/class/yago/Object100002684
p317
aVhttp://dbpedia.org/class/yago/Region108630985
p318
aVhttp://dbpedia.org/class/yago/System108435388
p319
aVhttp://dbpedia.org/class/yago/YagoGeoEntity
p320
aVhttp://dbpedia.org/class/yago/YagoLegalActorGeo
p321
aVhttp://dbpedia.org/class/yago/CountriesBorderingTheAtlanticOcean
p322
aVhttp://dbpedia.org/class/yago/CountriesOfTheMediterraneanSea
p323
aVhttp://dbpedia.org/class/yago/EuropeanCountries
p324
aVhttp://dbpedia.org/class/yago/EuropeanUnionMemberEconomies
p325
aVhttp://dbpedia.org/class/yago/PhysicalEntity100001930
p326
aVhttp://dbpedia.org/class/yago/YagoPermanentlyLocatedEntity
p327
aVhttp://dbpedia.org/class/yago/MemberStatesOfNATO
p328
aVhttp://dbpedia.org/class/yago/MemberStatesOfTheEuropeanUnion
p329
aVhttp://dbpedia.org/class/yago/MemberStatesOfTheUnionForTheMediterranean
p330
aVhttp://dbpedia.org/class/yago/MemberStatesOfTheUnitedNations
p331
aVhttp://dbpedia.org/class/yago/Spanish-speakingCountries
p332
aVhttp://dbpedia.org/class/yago/WorldTradeOrganizationMemberEconomies
p333
aVhttp://dbpedia.org/resource/Spain
tp334
aa(lp335
aa(lp336
(lp337
a(lp338
((lp339
Vhttp://www.w3.org/2002/07/owl#Thing
p340
aVhttp://dbpedia.org/ontology/Place
p341
aVhttp://dbpedia.org/ontology/Location
p342
aVhttp://www.wikidata.org/entity/Q3957
p343
aVhttp://www.wikidata.org/entity/Q486972
p344
aVhttp://dbpedia.org/ontology/PopulatedPlace
p345
aVhttp://dbpedia.org/ontology/Settlement
p346
aVhttp://dbpedia.org/ontology/Town
p347
aVhttp://www.w3.org/2003/01/geo/wgs84_pos#SpatialThing
p348
aVhttp://schema.org/Place
p349
aVhttp://dbpedia.org/class/yago/AdministrativeDistrict108491826
p350
aVhttp://dbpedia.org/class/yago/District108552138
p351
aVhttp://dbpedia.org/class/yago/Location100027167
p352
aVhttp://dbpedia.org/class/yago/Object100002684
p353
aVhttp://dbpedia.org/class/yago/Region108630985
p354
aVhttp://dbpedia.org/class/yago/Town108665504
p355
aVhttp://dbpedia.org/class/yago/UrbanArea108675967
p356
aVhttp://dbpedia.org/class/yago/YagoGeoEntity
p357
aVhttp://dbpedia.org/class/yago/YagoLegalActorGeo
p358
aVhttp://dbpedia.org/class/yago/GeographicalArea108574314
p359
aVhttp://dbpedia.org/class/yago/Municipality108626283
p360
aVhttp://dbpedia.org/class/yago/PhysicalEntity100001930
p361
aVhttp://dbpedia.org/class/yago/YagoPermanentlyLocatedEntity
p362
aVhttp://dbpedia.org/class/yago/MunicipalitiesInAlgomaDistrict
p363
aVhttp://dbpedia.org/class/yago/TownsInOntario
p364
aVhttp://dbpedia.org/resource/Spanish,_Ontario
tp365
aa(lp366
a(lp367
aa(lp368
(lp369
a(lp370
((lp371
Vhttp://www.w3.org/2002/07/owl#Thing
p372
aVhttp://dbpedia.org/ontology/Place
p373
aVhttp://dbpedia.org/ontology/Location
p374
aVhttp://www.wikidata.org/entity/Q4022
p375
aVhttp://www.wikidata.org/entity/Q47521
p376
aVhttp://dbpedia.org/ontology/BodyOfWater
p377
aVhttp://dbpedia.org/ontology/NaturalPlace
p378
aVhttp://dbpedia.org/ontology/River
p379
aVhttp://dbpedia.org/ontology/Stream
p380
aVhttp://schema.org/BodyOfWater
p381
aVhttp://schema.org/Place
p382
aVhttp://schema.org/RiverBodyOfWater
p383
aVhttp://umbel.org/umbel/rc/BodyOfWater
p384
aVhttp://umbel.org/umbel/rc/River
p385
aVhttp://umbel.org/umbel/rc/Stream
p386
aVhttp://dbpedia.org/class/yago/BodyOfWater109225146
p387
aVhttp://dbpedia.org/class/yago/Branch109228324
p388
aVhttp://dbpedia.org/class/yago/CanadianHeritageRivers
p389
aVhttp://dbpedia.org/class/yago/River109411430
p390
aVhttp://dbpedia.org/class/yago/Stream109448361
p391
aVhttp://dbpedia.org/class/yago/Thing100002452
p392
aVhttp://dbpedia.org/class/yago/YagoGeoEntity
p393
aVhttp://dbpedia.org/class/yago/Feeder109278997
p394
aVhttp://dbpedia.org/class/yago/PhysicalEntity100001930
p395
aVhttp://dbpedia.org/class/yago/YagoPermanentlyLocatedEntity
p396
aVhttp://dbpedia.org/class/yago/RiversOfOntario
p397
aVhttp://dbpedia.org/class/yago/TributariesOfLakeHuron
p398
aVhttp://dbpedia.org/resource/French_River_(Ontario)
tp399
aa(lp400
((lp401
Vhttp://www.w3.org/2002/07/owl#Thing
p402
aVhttp://umbel.org/umbel/rc/Business
p403
aVhttp://umbel.org/umbel/rc/Organization
p404
aVhttp://dbpedia.org/resource/France_2
tp405
aa(lp406
aa(lp407
(lp408
a(lp409
((lVhttp://dbpedia.org/resource/Gujarati
tp410
aa(lp411
((lp412
Vhttp://www.w3.org/2002/07/owl#Thing
p413
aVhttp://dbpedia.org/ontology/Place
p414
aVhttp://dbpedia.org/ontology/Location
p415
aVhttp://www.wikidata.org/entity/Q486972
p416
aVhttp://www.wikidata.org/entity/Q6256
p417
aVhttp://dbpedia.org/ontology/Country
p418
aVhttp://dbpedia.org/ontology/PopulatedPlace
p419
aVhttp://www.w3.org/2003/01/geo/wgs84_pos#SpatialThing
p420
aVhttp://schema.org/Country
p421
aVhttp://schema.org/Place
p422
aVhttp://umbel.org/umbel/rc/Country
p423
aVhttp://umbel.org/umbel/rc/Location_Underspecified
p424
aVhttp://umbel.org/umbel/rc/PopulatedPlace
p425
aVhttp://dbpedia.org/class/yago/Abstraction100002137
p426
aVhttp://dbpedia.org/class/yago/AdministrativeDistrict108491826
p427
aVhttp://dbpedia.org/class/yago/Country108544813
p428
aVhttp://dbpedia.org/class/yago/District108552138
p429
aVhttp://dbpedia.org/class/yago/Economy108366753
p430
aVhttp://dbpedia.org/class/yago/Group100031264
p431
aVhttp://dbpedia.org/class/yago/Location100027167
p432
aVhttp://dbpedia.org/class/yago/Object100002684
p433
aVhttp://dbpedia.org/class/yago/Region108630985
p434
aVhttp://dbpedia.org/class/yago/System108435388
p435
aVhttp://dbpedia.org/class/yago/YagoGeoEntity
p436
aVhttp://dbpedia.org/class/yago/YagoLegalActorGeo
p437
aVhttp://dbpedia.org/class/yago/CountriesOfTheIndianOcean
p438
aVhttp://dbpedia.org/class/yago/FederalCountries
p439
aVhttp://dbpedia.org/class/yago/PhysicalEntity100001930
p440
aVhttp://dbpedia.org/class/yago/YagoPermanentlyLocatedEntity
p441
aVhttp://dbpedia.org/class/yago/MemberStatesOfTheCommonwealthOfNations
p442
aVhttp://dbpedia.org/class/yago/MemberStatesOfTheSouthAsianAssociationForRegionalCooperation
p443
aVhttp://dbpedia.org/class/yago/MemberStatesOfTheUnitedNations
p444
aVhttp://dbpedia.org/class/yago/SouthAsianCountries
p445
aVhttp://dbpedia.org/class/yago/StatesAndTerritoriesEstablishedIn1947
p446
aVhttp://dbpedia.org/class/yago/WorldTradeOrganizationMemberEconomies
p447
aVhttp://dbpedia.org/resource/India
tp448
aa(lp449
((lp450
Vhttp://www.w3.org/2002/07/owl#Thing
p451
aVhttp://dbpedia.org/ontology/Company
p452
aVhttp://www.ontologydesignpatterns.org/ont/dul/DUL.owl#Agent
p453
aVhttp://www.ontologydesignpatterns.org/ont/dul/DUL.owl#SocialPerson
p454
aVhttp://www.wikidata.org/entity/Q18127
p455
aVhttp://www.wikidata.org/entity/Q43229
p456
aVhttp://dbpedia.org/ontology/Agent
p457
aVhttp://dbpedia.org/ontology/Organisation
p458
aVhttp://dbpedia.org/ontology/RecordLabel
p459
aVhttp://schema.org/Organization
p460
aVhttp://umbel.org/umbel/rc/Business
p461
aVhttp://umbel.org/umbel/rc/RecordCompany
p462
aVhttp://dbpedia.org/class/yago/Abstraction100002137
p463
aVhttp://dbpedia.org/class/yago/AlternativeRockRecordLabels
p464
aVhttp://dbpedia.org/class/yago/AmericanIndependentRecordLabels
p465
aVhttp://dbpedia.org/class/yago/Company108058098
p466
aVhttp://dbpedia.org/class/yago/Group100031264
p467
aVhttp://dbpedia.org/class/yago/Institution108053576
p468
aVhttp://dbpedia.org/class/yago/Organization108008335
p469
aVhttp://dbpedia.org/class/yago/SocialGroup107950920
p470
aVhttp://dbpedia.org/class/yago/YagoLegalActorGeo
p471
aVhttp://dbpedia.org/class/yago/YagoPermanentlyLocatedEntity
p472
aVhttp://dbpedia.org/class/yago/IndieMusicRecordLabels
p473
aVhttp://dbpedia.org/class/yago/YagoLegalActor
p474
aVhttp://dbpedia.org/class/yago/RecordLabelsEstablishedIn1986
p475
aVhttp://dbpedia.org/resource/Bar/None_Records
tp476
aaa(lp477
(lp478
a(lp479
((lp480
Vhttp://dbpedia.org/class/yago/BeltRegions
p481
aVhttp://dbpedia.org/class/yago/Location100027167
p482
aVhttp://dbpedia.org/class/yago/Object100002684
p483
aVhttp://dbpedia.org/class/yago/Region108630039
p484
aVhttp://dbpedia.org/class/yago/YagoGeoEntity
p485
aVhttp://dbpedia.org/class/yago/YagoLegalActorGeo
p486
aVhttp://dbpedia.org/class/yago/PhysicalEntity100001930
p487
aVhttp://dbpedia.org/class/yago/YagoPermanentlyLocatedEntity
p488
aVhttp://dbpedia.org/class/yago/RegionsOfIndia
p489
aVhttp://dbpedia.org/resource/Hindi_Belt
tp490
aa(lp491
((lp492
Vhttp://www.w3.org/2002/07/owl#Thing
p493
aVhttp://dbpedia.org/ontology/Place
p494
aVhttp://dbpedia.org/ontology/Location
p495
aVhttp://www.wikidata.org/entity/Q486972
p496
aVhttp://www.wikidata.org/entity/Q6256
p497
aVhttp://dbpedia.org/ontology/Country
p498
aVhttp://dbpedia.org/ontology/PopulatedPlace
p499
aVhttp://www.w3.org/2003/01/geo/wgs84_pos#SpatialThing
p500
aVhttp://schema.org/Country
p501
aVhttp://schema.org/Place
p502
aVhttp://umbel.org/umbel/rc/Country
p503
aVhttp://umbel.org/umbel/rc/Location_Underspecified
p504
aVhttp://umbel.org/umbel/rc/PopulatedPlace
p505
aVhttp://dbpedia.org/class/yago/Abstraction100002137
p506
aVhttp://dbpedia.org/class/yago/AdministrativeDistrict108491826
p507
aVhttp://dbpedia.org/class/yago/Country108544813
p508
aVhttp://dbpedia.org/class/yago/District108552138
p509
aVhttp://dbpedia.org/class/yago/Economy108366753
p510
aVhttp://dbpedia.org/class/yago/Group100031264
p511
aVhttp://dbpedia.org/class/yago/Location100027167
p512
aVhttp://dbpedia.org/class/yago/Object100002684
p513
aVhttp://dbpedia.org/class/yago/Region108630985
p514
aVhttp://dbpedia.org/class/yago/System108435388
p515
aVhttp://dbpedia.org/class/yago/YagoGeoEntity
p516
aVhttp://dbpedia.org/class/yago/YagoLegalActorGeo
p517
aVhttp://dbpedia.org/class/yago/CountriesOfTheIndianOcean
p518
aVhttp://dbpedia.org/class/yago/FederalCountries
p519
aVhttp://dbpedia.org/class/yago/PhysicalEntity100001930
p520
aVhttp://dbpedia.org/class/yago/YagoPermanentlyLocatedEntity
p521
aVhttp://dbpedia.org/class/yago/MemberStatesOfTheCommonwealthOfNations
p522
aVhttp://dbpedia.org/class/yago/MemberStatesOfTheSouthAsianAssociationForRegionalCooperation
p523
aVhttp://dbpedia.org/class/yago/MemberStatesOfTheUnitedNations
p524
aVhttp://dbpedia.org/class/yago/SouthAsianCountries
p525
aVhttp://dbpedia.org/class/yago/StatesAndTerritoriesEstablishedIn1947
p526
aVhttp://dbpedia.org/class/yago/WorldTradeOrganizationMemberEconomies
p527
aVhttp://dbpedia.org/resource/India
tp528
aa(lp529
((lp530
Vhttp://www.w3.org/2002/07/owl#Thing
p531
aVhttp://dbpedia.org/ontology/Company
p532
aVhttp://www.ontologydesignpatterns.org/ont/dul/DUL.owl#Agent
p533
aVhttp://www.ontologydesignpatterns.org/ont/dul/DUL.owl#SocialPerson
p534
aVhttp://www.wikidata.org/entity/Q18127
p535
aVhttp://www.wikidata.org/entity/Q43229
p536
aVhttp://dbpedia.org/ontology/Agent
p537
aVhttp://dbpedia.org/ontology/Organisation
p538
aVhttp://dbpedia.org/ontology/RecordLabel
p539
aVhttp://schema.org/Organization
p540
aVhttp://umbel.org/umbel/rc/Business
p541
aVhttp://umbel.org/umbel/rc/RecordCompany
p542
aVhttp://dbpedia.org/class/yago/Abstraction100002137
p543
aVhttp://dbpedia.org/class/yago/AlternativeRockRecordLabels
p544
aVhttp://dbpedia.org/class/yago/AmericanIndependentRecordLabels
p545
aVhttp://dbpedia.org/class/yago/Company108058098
p546
aVhttp://dbpedia.org/class/yago/Group100031264
p547
aVhttp://dbpedia.org/class/yago/Institution108053576
p548
aVhttp://dbpedia.org/class/yago/Organization108008335
p549
aVhttp://dbpedia.org/class/yago/SocialGroup107950920
p550
aVhttp://dbpedia.org/class/yago/YagoLegalActorGeo
p551
aVhttp://dbpedia.org/class/yago/YagoPermanentlyLocatedEntity
p552
aVhttp://dbpedia.org/class/yago/IndieMusicRecordLabels
p553
aVhttp://dbpedia.org/class/yago/YagoLegalActor
p554
aVhttp://dbpedia.org/class/yago/RecordLabelsEstablishedIn1986
p555
aVhttp://dbpedia.org/resource/Bar/None_Records
tp556
aaa(lp557
(lp558
a(lp559
((lp560
Vhttp://dbpedia.org/class/yago/Abstraction100002137
p561
aVhttp://dbpedia.org/class/yago/Act100030358
p562
aVhttp://dbpedia.org/class/yago/Activity100407535
p563
aVhttp://dbpedia.org/class/yago/Event100029378
p564
aVhttp://dbpedia.org/class/yago/Order101009871
p565
aVhttp://dbpedia.org/class/yago/Succession101010458
p566
aVhttp://dbpedia.org/class/yago/ChessOpenings
p567
aVhttp://dbpedia.org/class/yago/Opening100457890
p568
aVhttp://dbpedia.org/class/yago/PsychologicalFeature100023100
p569
aVhttp://dbpedia.org/class/yago/YagoPermanentlyLocatedEntity
p570
aVhttp://dbpedia.org/class/yago/Organization101008378
p571
aVhttp://dbpedia.org/resource/Italian_Gambit
tp572
aa(lp573
((lp574
Vhttp://www.w3.org/2002/07/owl#Thing
p575
aVhttp://dbpedia.org/ontology/Place
p576
aVhttp://dbpedia.org/ontology/Location
p577
aVhttp://www.wikidata.org/entity/Q486972
p578
aVhttp://www.wikidata.org/entity/Q6256
p579
aVhttp://dbpedia.org/ontology/Country
p580
aVhttp://dbpedia.org/ontology/PopulatedPlace
p581
aVhttp://www.w3.org/2003/01/geo/wgs84_pos#SpatialThing
p582
aVhttp://schema.org/Country
p583
aVhttp://schema.org/Place
p584
aVhttp://umbel.org/umbel/rc/Country
p585
aVhttp://umbel.org/umbel/rc/Location_Underspecified
p586
aVhttp://umbel.org/umbel/rc/PopulatedPlace
p587
aVhttp://dbpedia.org/class/yago/Abstraction100002137
p588
aVhttp://dbpedia.org/class/yago/AdministrativeDistrict108491826
p589
aVhttp://dbpedia.org/class/yago/AlpineCountries
p590
aVhttp://dbpedia.org/class/yago/BicontinentalCountries
p591
aVhttp://dbpedia.org/class/yago/Country108544813
p592
aVhttp://dbpedia.org/class/yago/District108552138
p593
aVhttp://dbpedia.org/class/yago/Economy108366753
p594
aVhttp://dbpedia.org/class/yago/Group100031264
p595
aVhttp://dbpedia.org/class/yago/Location100027167
p596
aVhttp://dbpedia.org/class/yago/Object100002684
p597
aVhttp://dbpedia.org/class/yago/Region108630985
p598
aVhttp://dbpedia.org/class/yago/System108435388
p599
aVhttp://dbpedia.org/class/yago/YagoGeoEntity
p600
aVhttp://dbpedia.org/class/yago/YagoLegalActorGeo
p601
aVhttp://dbpedia.org/class/yago/CountriesOfTheMediterraneanSea
p602
aVhttp://dbpedia.org/class/yago/EuropeanCountries
p603
aVhttp://dbpedia.org/class/yago/EuropeanUnionMemberEconomies
p604
aVhttp://dbpedia.org/class/yago/PhysicalEntity100001930
p605
aVhttp://dbpedia.org/class/yago/YagoPermanentlyLocatedEntity
p606
aVhttp://dbpedia.org/class/yago/Italian-speakingCountries
p607
aVhttp://dbpedia.org/class/yago/MemberStatesOfNATO
p608
aVhttp://dbpedia.org/class/yago/MemberStatesOfTheCouncilOfEurope
p609
aVhttp://dbpedia.org/class/yago/MemberStatesOfTheEuropeanUnion
p610
aVhttp://dbpedia.org/class/yago/MemberStatesOfTheUnionForTheMediterranean
p611
aVhttp://dbpedia.org/class/yago/MemberStatesOfTheUnitedNations
p612
aVhttp://dbpedia.org/class/yago/StatesAndTerritoriesEstablishedIn1861
p613
aVhttp://dbpedia.org/resource/Italy
tp614
aa(lp615
aa(lp616
(lp617
a(lp618
((lp619
Vhttp://dbpedia.org/class/yago/Abstraction100002137
p620
aVhttp://dbpedia.org/class/yago/BuyeoLanguages
p621
aVhttp://dbpedia.org/class/yago/Class107997703
p622
aVhttp://dbpedia.org/class/yago/Collection107951464
p623
aVhttp://dbpedia.org/class/yago/Communication100033020
p624
aVhttp://dbpedia.org/class/yago/Group100031264
p625
aVhttp://dbpedia.org/class/yago/Language106282651
p626
aVhttp://dbpedia.org/class/yago/JaponicLanguages
p627
aVhttp://dbpedia.org/resource/Japonic_languages
tp628
aa(lp629
((lp630
Vhttp://www.w3.org/2002/07/owl#Thing
p631
aVhttp://dbpedia.org/ontology/Place
p632
aVhttp://dbpedia.org/ontology/Location
p633
aVhttp://www.wikidata.org/entity/Q486972
p634
aVhttp://www.wikidata.org/entity/Q6256
p635
aVhttp://dbpedia.org/ontology/Country
p636
aVhttp://dbpedia.org/ontology/PopulatedPlace
p637
aVhttp://www.w3.org/2003/01/geo/wgs84_pos#SpatialThing
p638
aVhttp://schema.org/Country
p639
aVhttp://schema.org/Place
p640
aVhttp://umbel.org/umbel/rc/Country
p641
aVhttp://umbel.org/umbel/rc/Location_Underspecified
p642
aVhttp://umbel.org/umbel/rc/PopulatedPlace
p643
aVhttp://dbpedia.org/class/yago/Abstraction100002137
p644
aVhttp://dbpedia.org/class/yago/AdministrativeDistrict108491826
p645
aVhttp://dbpedia.org/class/yago/Country108544813
p646
aVhttp://dbpedia.org/class/yago/District108552138
p647
aVhttp://dbpedia.org/class/yago/Domain108556491
p648
aVhttp://dbpedia.org/class/yago/Economy108366753
p649
aVhttp://dbpedia.org/class/yago/Group100031264
p650
aVhttp://dbpedia.org/class/yago/Location100027167
p651
aVhttp://dbpedia.org/class/yago/Object100002684
p652
aVhttp://dbpedia.org/class/yago/Region108630985
p653
aVhttp://dbpedia.org/class/yago/System108435388
p654
aVhttp://dbpedia.org/class/yago/YagoGeoEntity
p655
aVhttp://dbpedia.org/class/yago/YagoLegalActorGeo
p656
aVhttp://dbpedia.org/class/yago/CountriesBorderingThePacificOcean
p657
aVhttp://dbpedia.org/class/yago/CountriesBorderingThePhilippineSea
p658
aVhttp://dbpedia.org/class/yago/EastAsianCountries
p659
aVhttp://dbpedia.org/class/yago/Empire108557482
p660
aVhttp://dbpedia.org/class/yago/Empires
p661
aVhttp://dbpedia.org/class/yago/PhysicalEntity100001930
p662
aVhttp://dbpedia.org/class/yago/YagoPermanentlyLocatedEntity
p663
aVhttp://dbpedia.org/class/yago/IslandCountries
p664
aVhttp://dbpedia.org/class/yago/MemberStatesOfTheUnitedNations
p665
aVhttp://dbpedia.org/class/yago/StatesAndTerritoriesEstablishedIn660BC
p666
aVhttp://dbpedia.org/resource/Japan
tp667
aa(lp668
((lp669
Vhttp://www.w3.org/2002/07/owl#Thing
p670
aVhttp://dbpedia.org/ontology/Company
p671
aVhttp://www.ontologydesignpatterns.org/ont/dul/DUL.owl#Agent
p672
aVhttp://www.ontologydesignpatterns.org/ont/dul/DUL.owl#SocialPerson
p673
aVhttp://www.wikidata.org/entity/Q18127
p674
aVhttp://www.wikidata.org/entity/Q43229
p675
aVhttp://dbpedia.org/ontology/Agent
p676
aVhttp://dbpedia.org/ontology/Organisation
p677
aVhttp://dbpedia.org/ontology/RecordLabel
p678
aVhttp://schema.org/Organization
p679
aVhttp://umbel.org/umbel/rc/Business
p680
aVhttp://umbel.org/umbel/rc/RecordCompany
p681
aVhttp://dbpedia.org/class/yago/Abstraction100002137
p682
aVhttp://dbpedia.org/class/yago/AlternativeRockRecordLabels
p683
aVhttp://dbpedia.org/class/yago/AmericanIndependentRecordLabels
p684
aVhttp://dbpedia.org/class/yago/Company108058098
p685
aVhttp://dbpedia.org/class/yago/Group100031264
p686
aVhttp://dbpedia.org/class/yago/Institution108053576
p687
aVhttp://dbpedia.org/class/yago/Organization108008335
p688
aVhttp://dbpedia.org/class/yago/SocialGroup107950920
p689
aVhttp://dbpedia.org/class/yago/YagoLegalActorGeo
p690
aVhttp://dbpedia.org/class/yago/YagoPermanentlyLocatedEntity
p691
aVhttp://dbpedia.org/class/yago/IndieMusicRecordLabels
p692
aVhttp://dbpedia.org/class/yago/YagoLegalActor
p693
aVhttp://dbpedia.org/class/yago/RecordLabelsEstablishedIn1986
p694
aVhttp://dbpedia.org/resource/Bar/None_Records
tp695
aaa(lp696
(lp697
a(lp698
((lp699
Vhttp://dbpedia.org/class/yago/Abstraction100002137
p700
aVhttp://dbpedia.org/class/yago/BrahmicScripts
p701
aVhttp://dbpedia.org/class/yago/Communication100033020
p702
aVhttp://dbpedia.org/class/yago/DramaticComposition107007684
p703
aVhttp://dbpedia.org/class/yago/Orthography106351202
p704
aVhttp://dbpedia.org/class/yago/Script107009946
p705
aVhttp://dbpedia.org/class/yago/Writing106359877
p706
aVhttp://dbpedia.org/class/yago/Writing106362953
p707
aVhttp://dbpedia.org/class/yago/WrittenCommunication106349220
p708
aVhttp://dbpedia.org/resource/Kannada_alphabet
tp709
aa(lp710
((lp711
Vhttp://www.w3.org/2002/07/owl#Thing
p712
aVhttp://dbpedia.org/ontology/Place
p713
aVhttp://dbpedia.org/ontology/Location
p714
aVhttp://www.wikidata.org/entity/Q486972
p715
aVhttp://www.wikidata.org/entity/Q6256
p716
aVhttp://dbpedia.org/ontology/Country
p717
aVhttp://dbpedia.org/ontology/PopulatedPlace
p718
aVhttp://www.w3.org/2003/01/geo/wgs84_pos#SpatialThing
p719
aVhttp://schema.org/Country
p720
aVhttp://schema.org/Place
p721
aVhttp://umbel.org/umbel/rc/Country
p722
aVhttp://umbel.org/umbel/rc/Location_Underspecified
p723
aVhttp://umbel.org/umbel/rc/PopulatedPlace
p724
aVhttp://dbpedia.org/class/yago/Abstraction100002137
p725
aVhttp://dbpedia.org/class/yago/AdministrativeDistrict108491826
p726
aVhttp://dbpedia.org/class/yago/Country108544813
p727
aVhttp://dbpedia.org/class/yago/District108552138
p728
aVhttp://dbpedia.org/class/yago/Economy108366753
p729
aVhttp://dbpedia.org/class/yago/Group100031264
p730
aVhttp://dbpedia.org/class/yago/Location100027167
p731
aVhttp://dbpedia.org/class/yago/Object100002684
p732
aVhttp://dbpedia.org/class/yago/Region108630985
p733
aVhttp://dbpedia.org/class/yago/System108435388
p734
aVhttp://dbpedia.org/class/yago/YagoGeoEntity
p735
aVhttp://dbpedia.org/class/yago/YagoLegalActorGeo
p736
aVhttp://dbpedia.org/class/yago/CountriesOfTheIndianOcean
p737
aVhttp://dbpedia.org/class/yago/FederalCountries
p738
aVhttp://dbpedia.org/class/yago/PhysicalEntity100001930
p739
aVhttp://dbpedia.org/class/yago/YagoPermanentlyLocatedEntity
p740
aVhttp://dbpedia.org/class/yago/MemberStatesOfTheCommonwealthOfNations
p741
aVhttp://dbpedia.org/class/yago/MemberStatesOfTheSouthAsianAssociationForRegionalCooperation
p742
aVhttp://dbpedia.org/class/yago/MemberStatesOfTheUnitedNations
p743
aVhttp://dbpedia.org/class/yago/SouthAsianCountries
p744
aVhttp://dbpedia.org/class/yago/StatesAndTerritoriesEstablishedIn1947
p745
aVhttp://dbpedia.org/class/yago/WorldTradeOrganizationMemberEconomies
p746
aVhttp://dbpedia.org/resource/India
tp747
aa(lp748
((lp749
Vhttp://www.w3.org/2002/07/owl#Thing
p750
aVhttp://dbpedia.org/ontology/Company
p751
aVhttp://www.ontologydesignpatterns.org/ont/dul/DUL.owl#Agent
p752
aVhttp://www.ontologydesignpatterns.org/ont/dul/DUL.owl#SocialPerson
p753
aVhttp://www.wikidata.org/entity/Q18127
p754
aVhttp://www.wikidata.org/entity/Q43229
p755
aVhttp://dbpedia.org/ontology/Agent
p756
aVhttp://dbpedia.org/ontology/Organisation
p757
aVhttp://dbpedia.org/ontology/RecordLabel
p758
aVhttp://schema.org/Organization
p759
aVhttp://umbel.org/umbel/rc/Business
p760
aVhttp://umbel.org/umbel/rc/RecordCompany
p761
aVhttp://dbpedia.org/class/yago/Abstraction100002137
p762
aVhttp://dbpedia.org/class/yago/AlternativeRockRecordLabels
p763
aVhttp://dbpedia.org/class/yago/AmericanIndependentRecordLabels
p764
aVhttp://dbpedia.org/class/yago/Company108058098
p765
aVhttp://dbpedia.org/class/yago/Group100031264
p766
aVhttp://dbpedia.org/class/yago/Institution108053576
p767
aVhttp://dbpedia.org/class/yago/Organization108008335
p768
aVhttp://dbpedia.org/class/yago/SocialGroup107950920
p769
aVhttp://dbpedia.org/class/yago/YagoLegalActorGeo
p770
aVhttp://dbpedia.org/class/yago/YagoPermanentlyLocatedEntity
p771
aVhttp://dbpedia.org/class/yago/IndieMusicRecordLabels
p772
aVhttp://dbpedia.org/class/yago/YagoLegalActor
p773
aVhttp://dbpedia.org/class/yago/RecordLabelsEstablishedIn1986
p774
aVhttp://dbpedia.org/resource/Bar/None_Records
tp775
aaa(lp776
(lp777
a(lp778
((lp779
Vhttp://www.w3.org/2002/07/owl#Thing
p780
aVhttp://dbpedia.org/class/yago/Abstraction100002137
p781
aVhttp://dbpedia.org/class/yago/BrahmicScripts
p782
aVhttp://dbpedia.org/class/yago/Communication100033020
p783
aVhttp://dbpedia.org/class/yago/DramaticComposition107007684
p784
aVhttp://dbpedia.org/class/yago/Orthography106351202
p785
aVhttp://dbpedia.org/class/yago/Script107009946
p786
aVhttp://dbpedia.org/class/yago/Signal106791372
p787
aVhttp://dbpedia.org/class/yago/Symbol106806469
p788
aVhttp://dbpedia.org/class/yago/Writing106359877
p789
aVhttp://dbpedia.org/class/yago/Writing106362953
p790
aVhttp://dbpedia.org/class/yago/WrittenCommunication106349220
p791
aVhttp://dbpedia.org/class/yago/NationalSymbolsOfKorea
p792
aVhttp://dbpedia.org/resource/Hangul
tp793
aa(lp794
((lp795
Vhttp://www.w3.org/2002/07/owl#Thing
p796
aVhttp://www.ontologydesignpatterns.org/ont/dul/DUL.owl#Agent
p797
aVhttp://www.ontologydesignpatterns.org/ont/dul/DUL.owl#SocialPerson
p798
aVhttp://www.wikidata.org/entity/Q43229
p799
aVhttp://dbpedia.org/ontology/Agent
p800
aVhttp://dbpedia.org/ontology/Organisation
p801
aVhttp://www.w3.org/2003/01/geo/wgs84_pos#SpatialThing
p802
aVhttp://schema.org/Organization
p803
aVhttp://umbel.org/umbel/rc/Country
p804
aVhttp://dbpedia.org/class/yago/AdministrativeDistrict108491826
p805
aVhttp://dbpedia.org/class/yago/Country108544813
p806
aVhttp://dbpedia.org/class/yago/District108552138
p807
aVhttp://dbpedia.org/class/yago/Location100027167
p808
aVhttp://dbpedia.org/class/yago/Object100002684
p809
aVhttp://dbpedia.org/class/yago/Region108630039
p810
aVhttp://dbpedia.org/class/yago/Region108630985
p811
aVhttp://dbpedia.org/class/yago/YagoGeoEntity
p812
aVhttp://dbpedia.org/class/yago/YagoLegalActorGeo
p813
aVhttp://dbpedia.org/class/yago/DisputedTerritoriesInAsia
p814
aVhttp://dbpedia.org/class/yago/DividedRegions
p815
aVhttp://dbpedia.org/class/yago/PhysicalEntity100001930
p816
aVhttp://dbpedia.org/class/yago/YagoPermanentlyLocatedEntity
p817
aVhttp://dbpedia.org/resource/Korea
tp818
aa(lp819
((lp820
Vhttp://www.w3.org/2002/07/owl#Thing
p821
aVhttp://dbpedia.org/ontology/Company
p822
aVhttp://www.ontologydesignpatterns.org/ont/dul/DUL.owl#Agent
p823
aVhttp://www.ontologydesignpatterns.org/ont/dul/DUL.owl#SocialPerson
p824
aVhttp://www.wikidata.org/entity/Q18127
p825
aVhttp://www.wikidata.org/entity/Q43229
p826
aVhttp://dbpedia.org/ontology/Agent
p827
aVhttp://dbpedia.org/ontology/Organisation
p828
aVhttp://dbpedia.org/ontology/RecordLabel
p829
aVhttp://schema.org/Organization
p830
aVhttp://umbel.org/umbel/rc/Business
p831
aVhttp://umbel.org/umbel/rc/RecordCompany
p832
aVhttp://dbpedia.org/class/yago/Abstraction100002137
p833
aVhttp://dbpedia.org/class/yago/AlternativeRockRecordLabels
p834
aVhttp://dbpedia.org/class/yago/AmericanIndependentRecordLabels
p835
aVhttp://dbpedia.org/class/yago/Company108058098
p836
aVhttp://dbpedia.org/class/yago/Group100031264
p837
aVhttp://dbpedia.org/class/yago/Institution108053576
p838
aVhttp://dbpedia.org/class/yago/Organization108008335
p839
aVhttp://dbpedia.org/class/yago/SocialGroup107950920
p840
aVhttp://dbpedia.org/class/yago/YagoLegalActorGeo
p841
aVhttp://dbpedia.org/class/yago/YagoPermanentlyLocatedEntity
p842
aVhttp://dbpedia.org/class/yago/IndieMusicRecordLabels
p843
aVhttp://dbpedia.org/class/yago/YagoLegalActor
p844
aVhttp://dbpedia.org/class/yago/RecordLabelsEstablishedIn1986
p845
aVhttp://dbpedia.org/resource/Bar/None_Records
tp846
aaa(lp847
(lp848
a(lp849
a(lp850
((lp851
Vhttp://www.w3.org/2002/07/owl#Thing
p852
aVhttp://dbpedia.org/ontology/Place
p853
aVhttp://dbpedia.org/ontology/Location
p854
aVhttp://www.wikidata.org/entity/Q486972
p855
aVhttp://www.wikidata.org/entity/Q6256
p856
aVhttp://dbpedia.org/ontology/Country
p857
aVhttp://dbpedia.org/ontology/PopulatedPlace
p858
aVhttp://www.w3.org/2003/01/geo/wgs84_pos#SpatialThing
p859
aVhttp://schema.org/Country
p860
aVhttp://schema.org/Place
p861
aVhttp://umbel.org/umbel/rc/Country
p862
aVhttp://umbel.org/umbel/rc/Location_Underspecified
p863
aVhttp://umbel.org/umbel/rc/PopulatedPlace
p864
aVhttp://dbpedia.org/class/yago/Abstraction100002137
p865
aVhttp://dbpedia.org/class/yago/AdministrativeDistrict108491826
p866
aVhttp://dbpedia.org/class/yago/Country108544813
p867
aVhttp://dbpedia.org/class/yago/District108552138
p868
aVhttp://dbpedia.org/class/yago/Economy108366753
p869
aVhttp://dbpedia.org/class/yago/Group100031264
p870
aVhttp://dbpedia.org/class/yago/Location100027167
p871
aVhttp://dbpedia.org/class/yago/Object100002684
p872
aVhttp://dbpedia.org/class/yago/Region108630985
p873
aVhttp://dbpedia.org/class/yago/System108435388
p874
aVhttp://dbpedia.org/class/yago/YagoGeoEntity
p875
aVhttp://dbpedia.org/class/yago/YagoLegalActorGeo
p876
aVhttp://dbpedia.org/class/yago/CountriesOfTheIndianOcean
p877
aVhttp://dbpedia.org/class/yago/FederalCountries
p878
aVhttp://dbpedia.org/class/yago/PhysicalEntity100001930
p879
aVhttp://dbpedia.org/class/yago/YagoPermanentlyLocatedEntity
p880
aVhttp://dbpedia.org/class/yago/MemberStatesOfTheCommonwealthOfNations
p881
aVhttp://dbpedia.org/class/yago/MemberStatesOfTheSouthAsianAssociationForRegionalCooperation
p882
aVhttp://dbpedia.org/class/yago/MemberStatesOfTheUnitedNations
p883
aVhttp://dbpedia.org/class/yago/SouthAsianCountries
p884
aVhttp://dbpedia.org/class/yago/StatesAndTerritoriesEstablishedIn1947
p885
aVhttp://dbpedia.org/class/yago/WorldTradeOrganizationMemberEconomies
p886
aVhttp://dbpedia.org/resource/India
tp887
aa(lp888
((lp889
Vhttp://www.w3.org/2002/07/owl#Thing
p890
aVhttp://dbpedia.org/ontology/Company
p891
aVhttp://www.ontologydesignpatterns.org/ont/dul/DUL.owl#Agent
p892
aVhttp://www.ontologydesignpatterns.org/ont/dul/DUL.owl#SocialPerson
p893
aVhttp://www.wikidata.org/entity/Q18127
p894
aVhttp://www.wikidata.org/entity/Q43229
p895
aVhttp://dbpedia.org/ontology/Agent
p896
aVhttp://dbpedia.org/ontology/Organisation
p897
aVhttp://dbpedia.org/ontology/RecordLabel
p898
aVhttp://schema.org/Organization
p899
aVhttp://umbel.org/umbel/rc/Business
p900
aVhttp://umbel.org/umbel/rc/RecordCompany
p901
aVhttp://dbpedia.org/class/yago/Abstraction100002137
p902
aVhttp://dbpedia.org/class/yago/AlternativeRockRecordLabels
p903
aVhttp://dbpedia.org/class/yago/AmericanIndependentRecordLabels
p904
aVhttp://dbpedia.org/class/yago/Company108058098
p905
aVhttp://dbpedia.org/class/yago/Group100031264
p906
aVhttp://dbpedia.org/class/yago/Institution108053576
p907
aVhttp://dbpedia.org/class/yago/Organization108008335
p908
aVhttp://dbpedia.org/class/yago/SocialGroup107950920
p909
aVhttp://dbpedia.org/class/yago/YagoLegalActorGeo
p910
aVhttp://dbpedia.org/class/yago/YagoPermanentlyLocatedEntity
p911
aVhttp://dbpedia.org/class/yago/IndieMusicRecordLabels
p912
aVhttp://dbpedia.org/class/yago/YagoLegalActor
p913
aVhttp://dbpedia.org/class/yago/RecordLabelsEstablishedIn1986
p914
aVhttp://dbpedia.org/resource/Bar/None_Records
tp915
aaa(lp916
(lp917
a(lp918
((lp919
Vhttp://www.w3.org/2002/07/owl#Thing
p920
aVhttp://dbpedia.org/resource/Marathi_literature
tp921
aa(lp922
((lp923
Vhttp://www.w3.org/2002/07/owl#Thing
p924
aVhttp://dbpedia.org/ontology/Place
p925
aVhttp://dbpedia.org/ontology/Location
p926
aVhttp://www.wikidata.org/entity/Q486972
p927
aVhttp://www.wikidata.org/entity/Q6256
p928
aVhttp://dbpedia.org/ontology/Country
p929
aVhttp://dbpedia.org/ontology/PopulatedPlace
p930
aVhttp://www.w3.org/2003/01/geo/wgs84_pos#SpatialThing
p931
aVhttp://schema.org/Country
p932
aVhttp://schema.org/Place
p933
aVhttp://umbel.org/umbel/rc/Country
p934
aVhttp://umbel.org/umbel/rc/Location_Underspecified
p935
aVhttp://umbel.org/umbel/rc/PopulatedPlace
p936
aVhttp://dbpedia.org/class/yago/Abstraction100002137
p937
aVhttp://dbpedia.org/class/yago/AdministrativeDistrict108491826
p938
aVhttp://dbpedia.org/class/yago/Country108544813
p939
aVhttp://dbpedia.org/class/yago/District108552138
p940
aVhttp://dbpedia.org/class/yago/Economy108366753
p941
aVhttp://dbpedia.org/class/yago/Group100031264
p942
aVhttp://dbpedia.org/class/yago/Location100027167
p943
aVhttp://dbpedia.org/class/yago/Object100002684
p944
aVhttp://dbpedia.org/class/yago/Region108630985
p945
aVhttp://dbpedia.org/class/yago/System108435388
p946
aVhttp://dbpedia.org/class/yago/YagoGeoEntity
p947
aVhttp://dbpedia.org/class/yago/YagoLegalActorGeo
p948
aVhttp://dbpedia.org/class/yago/CountriesOfTheIndianOcean
p949
aVhttp://dbpedia.org/class/yago/FederalCountries
p950
aVhttp://dbpedia.org/class/yago/PhysicalEntity100001930
p951
aVhttp://dbpedia.org/class/yago/YagoPermanentlyLocatedEntity
p952
aVhttp://dbpedia.org/class/yago/MemberStatesOfTheCommonwealthOfNations
p953
aVhttp://dbpedia.org/class/yago/MemberStatesOfTheSouthAsianAssociationForRegionalCooperation
p954
aVhttp://dbpedia.org/class/yago/MemberStatesOfTheUnitedNations
p955
aVhttp://dbpedia.org/class/yago/SouthAsianCountries
p956
aVhttp://dbpedia.org/class/yago/StatesAndTerritoriesEstablishedIn1947
p957
aVhttp://dbpedia.org/class/yago/WorldTradeOrganizationMemberEconomies
p958
aVhttp://dbpedia.org/resource/India
tp959
aa(lp960
((lp961
Vhttp://www.w3.org/2002/07/owl#Thing
p962
aVhttp://dbpedia.org/ontology/Company
p963
aVhttp://www.ontologydesignpatterns.org/ont/dul/DUL.owl#Agent
p964
aVhttp://www.ontologydesignpatterns.org/ont/dul/DUL.owl#SocialPerson
p965
aVhttp://www.wikidata.org/entity/Q18127
p966
aVhttp://www.wikidata.org/entity/Q43229
p967
aVhttp://dbpedia.org/ontology/Agent
p968
aVhttp://dbpedia.org/ontology/Organisation
p969
aVhttp://dbpedia.org/ontology/RecordLabel
p970
aVhttp://schema.org/Organization
p971
aVhttp://umbel.org/umbel/rc/Business
p972
aVhttp://umbel.org/umbel/rc/RecordCompany
p973
aVhttp://dbpedia.org/class/yago/Abstraction100002137
p974
aVhttp://dbpedia.org/class/yago/AlternativeRockRecordLabels
p975
aVhttp://dbpedia.org/class/yago/AmericanIndependentRecordLabels
p976
aVhttp://dbpedia.org/class/yago/Company108058098
p977
aVhttp://dbpedia.org/class/yago/Group100031264
p978
aVhttp://dbpedia.org/class/yago/Institution108053576
p979
aVhttp://dbpedia.org/class/yago/Organization108008335
p980
aVhttp://dbpedia.org/class/yago/SocialGroup107950920
p981
aVhttp://dbpedia.org/class/yago/YagoLegalActorGeo
p982
aVhttp://dbpedia.org/class/yago/YagoPermanentlyLocatedEntity
p983
aVhttp://dbpedia.org/class/yago/IndieMusicRecordLabels
p984
aVhttp://dbpedia.org/class/yago/YagoLegalActor
p985
aVhttp://dbpedia.org/class/yago/RecordLabelsEstablishedIn1986
p986
aVhttp://dbpedia.org/resource/Bar/None_Records
tp987
aaa(lp988
(lp989
a(lp990
((lp991
Vhttp://www.w3.org/2002/07/owl#Thing
p992
aVhttp://dbpedia.org/class/yago/Abstraction100002137
p993
aVhttp://dbpedia.org/class/yago/BrahmicScripts
p994
aVhttp://dbpedia.org/class/yago/Communication100033020
p995
aVhttp://dbpedia.org/class/yago/DramaticComposition107007684
p996
aVhttp://dbpedia.org/class/yago/Orthography106351202
p997
aVhttp://dbpedia.org/class/yago/Script107009946
p998
aVhttp://dbpedia.org/class/yago/Writing106359877
p999
aVhttp://dbpedia.org/class/yago/Writing106362953
p1000
aVhttp://dbpedia.org/class/yago/WrittenCommunication106349220
p1001
aVhttp://dbpedia.org/resource/Oriya_alphabet
tp1002
aa(lp1003
((lp1004
Vhttp://www.w3.org/2002/07/owl#Thing
p1005
aVhttp://dbpedia.org/ontology/Place
p1006
aVhttp://dbpedia.org/ontology/Location
p1007
aVhttp://www.wikidata.org/entity/Q486972
p1008
aVhttp://www.wikidata.org/entity/Q6256
p1009
aVhttp://dbpedia.org/ontology/Country
p1010
aVhttp://dbpedia.org/ontology/PopulatedPlace
p1011
aVhttp://www.w3.org/2003/01/geo/wgs84_pos#SpatialThing
p1012
aVhttp://schema.org/Country
p1013
aVhttp://schema.org/Place
p1014
aVhttp://umbel.org/umbel/rc/Country
p1015
aVhttp://umbel.org/umbel/rc/Location_Underspecified
p1016
aVhttp://umbel.org/umbel/rc/PopulatedPlace
p1017
aVhttp://dbpedia.org/class/yago/Abstraction100002137
p1018
aVhttp://dbpedia.org/class/yago/AdministrativeDistrict108491826
p1019
aVhttp://dbpedia.org/class/yago/Country108544813
p1020
aVhttp://dbpedia.org/class/yago/District108552138
p1021
aVhttp://dbpedia.org/class/yago/Economy108366753
p1022
aVhttp://dbpedia.org/class/yago/Group100031264
p1023
aVhttp://dbpedia.org/class/yago/Location100027167
p1024
aVhttp://dbpedia.org/class/yago/Object100002684
p1025
aVhttp://dbpedia.org/class/yago/Region108630985
p1026
aVhttp://dbpedia.org/class/yago/System108435388
p1027
aVhttp://dbpedia.org/class/yago/YagoGeoEntity
p1028
aVhttp://dbpedia.org/class/yago/YagoLegalActorGeo
p1029
aVhttp://dbpedia.org/class/yago/CountriesOfTheIndianOcean
p1030
aVhttp://dbpedia.org/class/yago/FederalCountries
p1031
aVhttp://dbpedia.org/class/yago/PhysicalEntity100001930
p1032
aVhttp://dbpedia.org/class/yago/YagoPermanentlyLocatedEntity
p1033
aVhttp://dbpedia.org/class/yago/MemberStatesOfTheCommonwealthOfNations
p1034
aVhttp://dbpedia.org/class/yago/MemberStatesOfTheSouthAsianAssociationForRegionalCooperation
p1035
aVhttp://dbpedia.org/class/yago/MemberStatesOfTheUnitedNations
p1036
aVhttp://dbpedia.org/class/yago/SouthAsianCountries
p1037
aVhttp://dbpedia.org/class/yago/StatesAndTerritoriesEstablishedIn1947
p1038
aVhttp://dbpedia.org/class/yago/WorldTradeOrganizationMemberEconomies
p1039
aVhttp://dbpedia.org/resource/India
tp1040
aa(lp1041
((lp1042
Vhttp://www.w3.org/2002/07/owl#Thing
p1043
aVhttp://dbpedia.org/ontology/Company
p1044
aVhttp://www.ontologydesignpatterns.org/ont/dul/DUL.owl#Agent
p1045
aVhttp://www.ontologydesignpatterns.org/ont/dul/DUL.owl#SocialPerson
p1046
aVhttp://www.wikidata.org/entity/Q18127
p1047
aVhttp://www.wikidata.org/entity/Q43229
p1048
aVhttp://dbpedia.org/ontology/Agent
p1049
aVhttp://dbpedia.org/ontology/Organisation
p1050
aVhttp://dbpedia.org/ontology/RecordLabel
p1051
aVhttp://schema.org/Organization
p1052
aVhttp://umbel.org/umbel/rc/Business
p1053
aVhttp://umbel.org/umbel/rc/RecordCompany
p1054
aVhttp://dbpedia.org/class/yago/Abstraction100002137
p1055
aVhttp://dbpedia.org/class/yago/AlternativeRockRecordLabels
p1056
aVhttp://dbpedia.org/class/yago/AmericanIndependentRecordLabels
p1057
aVhttp://dbpedia.org/class/yago/Company108058098
p1058
aVhttp://dbpedia.org/class/yago/Group100031264
p1059
aVhttp://dbpedia.org/class/yago/Institution108053576
p1060
aVhttp://dbpedia.org/class/yago/Organization108008335
p1061
aVhttp://dbpedia.org/class/yago/SocialGroup107950920
p1062
aVhttp://dbpedia.org/class/yago/YagoLegalActorGeo
p1063
aVhttp://dbpedia.org/class/yago/YagoPermanentlyLocatedEntity
p1064
aVhttp://dbpedia.org/class/yago/IndieMusicRecordLabels
p1065
aVhttp://dbpedia.org/class/yago/YagoLegalActor
p1066
aVhttp://dbpedia.org/class/yago/RecordLabelsEstablishedIn1986
p1067
aVhttp://dbpedia.org/resource/Bar/None_Records
tp1068
aaa(lp1069
(lp1070
a(lp1071
((lp1072
Vhttp://www.w3.org/2002/07/owl#Thing
p1073
aVhttp://www.ontologydesignpatterns.org/ont/dul/DUL.owl#Agent
p1074
aVhttp://www.ontologydesignpatterns.org/ont/dul/DUL.owl#SocialPerson
p1075
aVhttp://www.wikidata.org/entity/Q3918
p1076
aVhttp://www.wikidata.org/entity/Q43229
p1077
aVhttp://dbpedia.org/ontology/Agent
p1078
aVhttp://dbpedia.org/ontology/EducationalInstitution
p1079
aVhttp://dbpedia.org/ontology/Organisation
p1080
aVhttp://dbpedia.org/ontology/University
p1081
aVhttp://www.w3.org/2003/01/geo/wgs84_pos#SpatialThing
p1082
aVhttp://schema.org/CollegeOrUniversity
p1083
aVhttp://schema.org/EducationalOrganization
p1084
aVhttp://schema.org/Organization
p1085
aVhttp://umbel.org/umbel/rc/University
p1086
aVhttp://dbpedia.org/class/yago/Abstraction100002137
p1087
aVhttp://dbpedia.org/class/yago/EducationalInstitution108276342
p1088
aVhttp://dbpedia.org/class/yago/Group100031264
p1089
aVhttp://dbpedia.org/class/yago/Institution108053576
p1090
aVhttp://dbpedia.org/class/yago/Organization108008335
p1091
aVhttp://dbpedia.org/class/yago/SocialGroup107950920
p1092
aVhttp://dbpedia.org/class/yago/University108286569
p1093
aVhttp://dbpedia.org/class/yago/YagoLegalActorGeo
p1094
aVhttp://dbpedia.org/class/yago/YagoPermanentlyLocatedEntity
p1095
aVhttp://dbpedia.org/class/yago/YagoLegalActor
p1096
aVhttp://dbpedia.org/class/yago/UniversitiesAndCollegesInPunjab,India
p1097
aVhttp://dbpedia.org/resource/Punjabi_University
tp1098
aa(lp1099
((lp1100
Vhttp://www.w3.org/2002/07/owl#Thing
p1101
aVhttp://dbpedia.org/ontology/Place
p1102
aVhttp://dbpedia.org/ontology/Location
p1103
aVhttp://www.wikidata.org/entity/Q486972
p1104
aVhttp://www.wikidata.org/entity/Q6256
p1105
aVhttp://dbpedia.org/ontology/Country
p1106
aVhttp://dbpedia.org/ontology/PopulatedPlace
p1107
aVhttp://www.w3.org/2003/01/geo/wgs84_pos#SpatialThing
p1108
aVhttp://schema.org/Country
p1109
aVhttp://schema.org/Place
p1110
aVhttp://umbel.org/umbel/rc/Country
p1111
aVhttp://umbel.org/umbel/rc/Location_Underspecified
p1112
aVhttp://umbel.org/umbel/rc/PopulatedPlace
p1113
aVhttp://dbpedia.org/class/yago/Abstraction100002137
p1114
aVhttp://dbpedia.org/class/yago/AdministrativeDistrict108491826
p1115
aVhttp://dbpedia.org/class/yago/Country108544813
p1116
aVhttp://dbpedia.org/class/yago/District108552138
p1117
aVhttp://dbpedia.org/class/yago/Economy108366753
p1118
aVhttp://dbpedia.org/class/yago/Group100031264
p1119
aVhttp://dbpedia.org/class/yago/Location100027167
p1120
aVhttp://dbpedia.org/class/yago/Object100002684
p1121
aVhttp://dbpedia.org/class/yago/Region108630985
p1122
aVhttp://dbpedia.org/class/yago/System108435388
p1123
aVhttp://dbpedia.org/class/yago/YagoGeoEntity
p1124
aVhttp://dbpedia.org/class/yago/YagoLegalActorGeo
p1125
aVhttp://dbpedia.org/class/yago/CountriesOfTheIndianOcean
p1126
aVhttp://dbpedia.org/class/yago/FederalCountries
p1127
aVhttp://dbpedia.org/class/yago/PhysicalEntity100001930
p1128
aVhttp://dbpedia.org/class/yago/YagoPermanentlyLocatedEntity
p1129
aVhttp://dbpedia.org/class/yago/MemberStatesOfTheCommonwealthOfNations
p1130
aVhttp://dbpedia.org/class/yago/MemberStatesOfTheSouthAsianAssociationForRegionalCooperation
p1131
aVhttp://dbpedia.org/class/yago/MemberStatesOfTheUnitedNations
p1132
aVhttp://dbpedia.org/class/yago/SouthAsianCountries
p1133
aVhttp://dbpedia.org/class/yago/StatesAndTerritoriesEstablishedIn1947
p1134
aVhttp://dbpedia.org/class/yago/WorldTradeOrganizationMemberEconomies
p1135
aVhttp://dbpedia.org/resource/India
tp1136
aa(lp1137
((lp1138
Vhttp://www.w3.org/2002/07/owl#Thing
p1139
aVhttp://dbpedia.org/ontology/Company
p1140
aVhttp://www.ontologydesignpatterns.org/ont/dul/DUL.owl#Agent
p1141
aVhttp://www.ontologydesignpatterns.org/ont/dul/DUL.owl#SocialPerson
p1142
aVhttp://www.wikidata.org/entity/Q18127
p1143
aVhttp://www.wikidata.org/entity/Q43229
p1144
aVhttp://dbpedia.org/ontology/Agent
p1145
aVhttp://dbpedia.org/ontology/Organisation
p1146
aVhttp://dbpedia.org/ontology/RecordLabel
p1147
aVhttp://schema.org/Organization
p1148
aVhttp://umbel.org/umbel/rc/Business
p1149
aVhttp://umbel.org/umbel/rc/RecordCompany
p1150
aVhttp://dbpedia.org/class/yago/Abstraction100002137
p1151
aVhttp://dbpedia.org/class/yago/AlternativeRockRecordLabels
p1152
aVhttp://dbpedia.org/class/yago/AmericanIndependentRecordLabels
p1153
aVhttp://dbpedia.org/class/yago/Company108058098
p1154
aVhttp://dbpedia.org/class/yago/Group100031264
p1155
aVhttp://dbpedia.org/class/yago/Institution108053576
p1156
aVhttp://dbpedia.org/class/yago/Organization108008335
p1157
aVhttp://dbpedia.org/class/yago/SocialGroup107950920
p1158
aVhttp://dbpedia.org/class/yago/YagoLegalActorGeo
p1159
aVhttp://dbpedia.org/class/yago/YagoPermanentlyLocatedEntity
p1160
aVhttp://dbpedia.org/class/yago/IndieMusicRecordLabels
p1161
aVhttp://dbpedia.org/class/yago/YagoLegalActor
p1162
aVhttp://dbpedia.org/class/yago/RecordLabelsEstablishedIn1986
p1163
aVhttp://dbpedia.org/resource/Bar/None_Records
tp1164
aaa(lp1165
(lp1166
a(lp1167
((lVhttp://dbpedia.org/resource/Portuguese
tp1168
aa(lp1169
((lp1170
Vhttp://www.w3.org/2002/07/owl#Thing
p1171
aVhttp://dbpedia.org/ontology/Place
p1172
aVhttp://dbpedia.org/ontology/Location
p1173
aVhttp://www.wikidata.org/entity/Q486972
p1174
aVhttp://www.wikidata.org/entity/Q6256
p1175
aVhttp://dbpedia.org/ontology/Country
p1176
aVhttp://dbpedia.org/ontology/PopulatedPlace
p1177
aVhttp://www.w3.org/2003/01/geo/wgs84_pos#SpatialThing
p1178
aVhttp://schema.org/Country
p1179
aVhttp://schema.org/Place
p1180
aVhttp://umbel.org/umbel/rc/Country
p1181
aVhttp://umbel.org/umbel/rc/Location_Underspecified
p1182
aVhttp://umbel.org/umbel/rc/PopulatedPlace
p1183
aVhttp://dbpedia.org/class/yago/Abstraction100002137
p1184
aVhttp://dbpedia.org/class/yago/AdministrativeDistrict108491826
p1185
aVhttp://dbpedia.org/class/yago/Country108544813
p1186
aVhttp://dbpedia.org/class/yago/District108552138
p1187
aVhttp://dbpedia.org/class/yago/Economy108366753
p1188
aVhttp://dbpedia.org/class/yago/Group100031264
p1189
aVhttp://dbpedia.org/class/yago/Location100027167
p1190
aVhttp://dbpedia.org/class/yago/Object100002684
p1191
aVhttp://dbpedia.org/class/yago/Region108630985
p1192
aVhttp://dbpedia.org/class/yago/System108435388
p1193
aVhttp://dbpedia.org/class/yago/YagoGeoEntity
p1194
aVhttp://dbpedia.org/class/yago/YagoLegalActorGeo
p1195
aVhttp://dbpedia.org/class/yago/CountriesBorderingTheAtlanticOcean
p1196
aVhttp://dbpedia.org/class/yago/FederalCountries
p1197
aVhttp://dbpedia.org/class/yago/PhysicalEntity100001930
p1198
aVhttp://dbpedia.org/class/yago/YagoPermanentlyLocatedEntity
p1199
aVhttp://dbpedia.org/class/yago/LatinAmericanCountries
p1200
aVhttp://dbpedia.org/class/yago/MemberStatesOfMercosur
p1201
aVhttp://dbpedia.org/class/yago/MemberStatesOfTheCommunityOfPortugueseLanguageCountries
p1202
aVhttp://dbpedia.org/class/yago/MemberStatesOfTheUnionOfSouthAmericanNations
p1203
aVhttp://dbpedia.org/class/yago/MemberStatesOfTheUnitedNations
p1204
aVhttp://dbpedia.org/class/yago/Portuguese-speakingCountries
p1205
aVhttp://dbpedia.org/class/yago/SouthAmericanCountries
p1206
aVhttp://dbpedia.org/class/yago/StatesAndTerritoriesEstablishedIn1822
p1207
aVhttp://dbpedia.org/class/yago/WorldTradeOrganizationMemberEconomies
p1208
aVhttp://dbpedia.org/resource/Brazil
tp1209
aa(lp1210
aa(lp1211
(lp1212
a(lp1213
((lp1214
Vhttp://www.w3.org/2002/07/owl#Thing
p1215
aVhttp://dbpedia.org/ontology/Place
p1216
aVhttp://dbpedia.org/ontology/Location
p1217
aVhttp://www.wikidata.org/entity/Q486972
p1218
aVhttp://www.wikidata.org/entity/Q6256
p1219
aVhttp://dbpedia.org/ontology/Country
p1220
aVhttp://dbpedia.org/ontology/PopulatedPlace
p1221
aVhttp://www.w3.org/2003/01/geo/wgs84_pos#SpatialThing
p1222
aVhttp://schema.org/Country
p1223
aVhttp://schema.org/Place
p1224
aVhttp://umbel.org/umbel/rc/Country
p1225
aVhttp://umbel.org/umbel/rc/Location_Underspecified
p1226
aVhttp://umbel.org/umbel/rc/PopulatedPlace
p1227
aVhttp://dbpedia.org/class/yago/Abstraction100002137
p1228
aVhttp://dbpedia.org/class/yago/AdministrativeDistrict108491826
p1229
aVhttp://dbpedia.org/class/yago/BicontinentalCountries
p1230
aVhttp://dbpedia.org/class/yago/BlackSeaCountries
p1231
aVhttp://dbpedia.org/class/yago/Country108544813
p1232
aVhttp://dbpedia.org/class/yago/District108552138
p1233
aVhttp://dbpedia.org/class/yago/Economy108366753
p1234
aVhttp://dbpedia.org/class/yago/Group100031264
p1235
aVhttp://dbpedia.org/class/yago/Location100027167
p1236
aVhttp://dbpedia.org/class/yago/Object100002684
p1237
aVhttp://dbpedia.org/class/yago/Region108630985
p1238
aVhttp://dbpedia.org/class/yago/System108435388
p1239
aVhttp://dbpedia.org/class/yago/YagoGeoEntity
p1240
aVhttp://dbpedia.org/class/yago/YagoLegalActorGeo
p1241
aVhttp://dbpedia.org/class/yago/CentralAsianCountries
p1242
aVhttp://dbpedia.org/class/yago/CountriesBorderingTheArcticOcean
p1243
aVhttp://dbpedia.org/class/yago/CountriesBorderingTheBalticSea
p1244
aVhttp://dbpedia.org/class/yago/CountriesBorderingThePacificOcean
p1245
aVhttp://dbpedia.org/class/yago/EastAsianCountries
p1246
aVhttp://dbpedia.org/class/yago/EuropeanCountries
p1247
aVhttp://dbpedia.org/class/yago/FederalCountries
p1248
aVhttp://dbpedia.org/class/yago/PhysicalEntity100001930
p1249
aVhttp://dbpedia.org/class/yago/YagoPermanentlyLocatedEntity
p1250
aVhttp://dbpedia.org/class/yago/MemberStatesOfTheCommonwealthOfIndependentStates
p1251
aVhttp://dbpedia.org/class/yago/MemberStatesOfTheUnitedNations
p1252
aVhttp://dbpedia.org/class/yago/NorthAsianCountries
p1253
aVhttp://dbpedia.org/class/yago/Russian-speakingCountriesAndTerritories
p1254
aVhttp://dbpedia.org/class/yago/SlavicCountries
p1255
aVhttp://dbpedia.org/class/yago/StatesAndTerritoriesEstablishedIn862
p1256
aVhttp://dbpedia.org/resource/Russia
tp1257
aa(lp1258
((lp1259
Vhttp://www.w3.org/2002/07/owl#Thing
p1260
aVhttp://dbpedia.org/ontology/Place
p1261
aVhttp://dbpedia.org/ontology/Location
p1262
aVhttp://www.wikidata.org/entity/Q486972
p1263
aVhttp://www.wikidata.org/entity/Q6256
p1264
aVhttp://dbpedia.org/ontology/Country
p1265
aVhttp://dbpedia.org/ontology/PopulatedPlace
p1266
aVhttp://www.w3.org/2003/01/geo/wgs84_pos#SpatialThing
p1267
aVhttp://schema.org/Country
p1268
aVhttp://schema.org/Place
p1269
aVhttp://umbel.org/umbel/rc/Country
p1270
aVhttp://umbel.org/umbel/rc/Location_Underspecified
p1271
aVhttp://umbel.org/umbel/rc/PopulatedPlace
p1272
aVhttp://dbpedia.org/class/yago/Abstraction100002137
p1273
aVhttp://dbpedia.org/class/yago/AdministrativeDistrict108491826
p1274
aVhttp://dbpedia.org/class/yago/BicontinentalCountries
p1275
aVhttp://dbpedia.org/class/yago/BlackSeaCountries
p1276
aVhttp://dbpedia.org/class/yago/Country108544813
p1277
aVhttp://dbpedia.org/class/yago/District108552138
p1278
aVhttp://dbpedia.org/class/yago/Economy108366753
p1279
aVhttp://dbpedia.org/class/yago/Group100031264
p1280
aVhttp://dbpedia.org/class/yago/Location100027167
p1281
aVhttp://dbpedia.org/class/yago/Object100002684
p1282
aVhttp://dbpedia.org/class/yago/Region108630985
p1283
aVhttp://dbpedia.org/class/yago/System108435388
p1284
aVhttp://dbpedia.org/class/yago/YagoGeoEntity
p1285
aVhttp://dbpedia.org/class/yago/YagoLegalActorGeo
p1286
aVhttp://dbpedia.org/class/yago/CentralAsianCountries
p1287
aVhttp://dbpedia.org/class/yago/CountriesBorderingTheArcticOcean
p1288
aVhttp://dbpedia.org/class/yago/CountriesBorderingTheBalticSea
p1289
aVhttp://dbpedia.org/class/yago/CountriesBorderingThePacificOcean
p1290
aVhttp://dbpedia.org/class/yago/EastAsianCountries
p1291
aVhttp://dbpedia.org/class/yago/EuropeanCountries
p1292
aVhttp://dbpedia.org/class/yago/FederalCountries
p1293
aVhttp://dbpedia.org/class/yago/PhysicalEntity100001930
p1294
aVhttp://dbpedia.org/class/yago/YagoPermanentlyLocatedEntity
p1295
aVhttp://dbpedia.org/class/yago/MemberStatesOfTheCommonwealthOfIndependentStates
p1296
aVhttp://dbpedia.org/class/yago/MemberStatesOfTheUnitedNations
p1297
aVhttp://dbpedia.org/class/yago/NorthAsianCountries
p1298
aVhttp://dbpedia.org/class/yago/Russian-speakingCountriesAndTerritories
p1299
aVhttp://dbpedia.org/class/yago/SlavicCountries
p1300
aVhttp://dbpedia.org/class/yago/StatesAndTerritoriesEstablishedIn862
p1301
aVhttp://dbpedia.org/resource/Russia
tp1302
aa(lp1303
aa(lp1304
(lp1305
a(lp1306
((lVhttp://dbpedia.org/resource/Sri_Lankan_cuisine
tp1307
aa(lp1308
((lp1309
Vhttp://www.w3.org/2002/07/owl#Thing
p1310
aVhttp://dbpedia.org/ontology/Place
p1311
aVhttp://dbpedia.org/ontology/Location
p1312
aVhttp://www.wikidata.org/entity/Q486972
p1313
aVhttp://www.wikidata.org/entity/Q6256
p1314
aVhttp://dbpedia.org/ontology/Country
p1315
aVhttp://dbpedia.org/ontology/PopulatedPlace
p1316
aVhttp://www.w3.org/2003/01/geo/wgs84_pos#SpatialThing
p1317
aVhttp://schema.org/Country
p1318
aVhttp://schema.org/Place
p1319
aVhttp://umbel.org/umbel/rc/Country
p1320
aVhttp://umbel.org/umbel/rc/Location_Underspecified
p1321
aVhttp://umbel.org/umbel/rc/PopulatedPlace
p1322
aVhttp://dbpedia.org/class/yago/Abstraction100002137
p1323
aVhttp://dbpedia.org/class/yago/AdministrativeDistrict108491826
p1324
aVhttp://dbpedia.org/class/yago/Country108544813
p1325
aVhttp://dbpedia.org/class/yago/District108552138
p1326
aVhttp://dbpedia.org/class/yago/Economy108366753
p1327
aVhttp://dbpedia.org/class/yago/Group100031264
p1328
aVhttp://dbpedia.org/class/yago/Island109316454
p1329
aVhttp://dbpedia.org/class/yago/Land109334396
p1330
aVhttp://dbpedia.org/class/yago/Location100027167
p1331
aVhttp://dbpedia.org/class/yago/Object100002684
p1332
aVhttp://dbpedia.org/class/yago/Region108630985
p1333
aVhttp://dbpedia.org/class/yago/System108435388
p1334
aVhttp://dbpedia.org/class/yago/YagoGeoEntity
p1335
aVhttp://dbpedia.org/class/yago/YagoLegalActorGeo
p1336
aVhttp://dbpedia.org/class/yago/CountriesOfTheIndianOcean
p1337
aVhttp://dbpedia.org/class/yago/PhysicalEntity100001930
p1338
aVhttp://dbpedia.org/class/yago/YagoPermanentlyLocatedEntity
p1339
aVhttp://dbpedia.org/class/yago/IslandCountries
p1340
aVhttp://dbpedia.org/class/yago/IslandsOfTheIndianOcean
p1341
aVhttp://dbpedia.org/class/yago/MemberStatesOfTheCommonwealthOfNations
p1342
aVhttp://dbpedia.org/class/yago/MemberStatesOfTheSouthAsianAssociationForRegionalCooperation
p1343
aVhttp://dbpedia.org/class/yago/MemberStatesOfTheUnitedNations
p1344
aVhttp://dbpedia.org/class/yago/SocialistStates
p1345
aVhttp://dbpedia.org/class/yago/SouthAsianCountries
p1346
aVhttp://dbpedia.org/class/yago/StatesAndTerritoriesEstablishedIn1948
p1347
aVhttp://dbpedia.org/class/yago/Tamil-speakingCountriesAndTerritories
p1348
aVhttp://dbpedia.org/resource/Sri_Lanka
tp1349
aa(lp1350
((lp1351
Vhttp://www.w3.org/2002/07/owl#Thing
p1352
aVhttp://dbpedia.org/ontology/Company
p1353
aVhttp://www.ontologydesignpatterns.org/ont/dul/DUL.owl#Agent
p1354
aVhttp://www.ontologydesignpatterns.org/ont/dul/DUL.owl#SocialPerson
p1355
aVhttp://www.wikidata.org/entity/Q18127
p1356
aVhttp://www.wikidata.org/entity/Q43229
p1357
aVhttp://dbpedia.org/ontology/Agent
p1358
aVhttp://dbpedia.org/ontology/Organisation
p1359
aVhttp://dbpedia.org/ontology/RecordLabel
p1360
aVhttp://schema.org/Organization
p1361
aVhttp://umbel.org/umbel/rc/Business
p1362
aVhttp://umbel.org/umbel/rc/RecordCompany
p1363
aVhttp://dbpedia.org/class/yago/Abstraction100002137
p1364
aVhttp://dbpedia.org/class/yago/AlternativeRockRecordLabels
p1365
aVhttp://dbpedia.org/class/yago/AmericanIndependentRecordLabels
p1366
aVhttp://dbpedia.org/class/yago/Company108058098
p1367
aVhttp://dbpedia.org/class/yago/Group100031264
p1368
aVhttp://dbpedia.org/class/yago/Institution108053576
p1369
aVhttp://dbpedia.org/class/yago/Organization108008335
p1370
aVhttp://dbpedia.org/class/yago/SocialGroup107950920
p1371
aVhttp://dbpedia.org/class/yago/YagoLegalActorGeo
p1372
aVhttp://dbpedia.org/class/yago/YagoPermanentlyLocatedEntity
p1373
aVhttp://dbpedia.org/class/yago/IndieMusicRecordLabels
p1374
aVhttp://dbpedia.org/class/yago/YagoLegalActor
p1375
aVhttp://dbpedia.org/class/yago/RecordLabelsEstablishedIn1986
p1376
aVhttp://dbpedia.org/resource/Bar/None_Records
tp1377
aaa(lp1378
(lp1379
a(lp1380
((lp1381
Vhttp://www.w3.org/2002/07/owl#Thing
p1382
aVhttp://dbpedia.org/ontology/Place
p1383
aVhttp://dbpedia.org/ontology/Location
p1384
aVhttp://www.wikidata.org/entity/Q486972
p1385
aVhttp://www.wikidata.org/entity/Q6256
p1386
aVhttp://dbpedia.org/ontology/Country
p1387
aVhttp://dbpedia.org/ontology/PopulatedPlace
p1388
aVhttp://www.w3.org/2003/01/geo/wgs84_pos#SpatialThing
p1389
aVhttp://schema.org/Country
p1390
aVhttp://schema.org/Place
p1391
aVhttp://umbel.org/umbel/rc/Country
p1392
aVhttp://umbel.org/umbel/rc/Location_Underspecified
p1393
aVhttp://umbel.org/umbel/rc/PopulatedPlace
p1394
aVhttp://dbpedia.org/class/yago/Abstraction100002137
p1395
aVhttp://dbpedia.org/class/yago/AdministrativeDistrict108491826
p1396
aVhttp://dbpedia.org/class/yago/AlpineCountries
p1397
aVhttp://dbpedia.org/class/yago/Country108544813
p1398
aVhttp://dbpedia.org/class/yago/District108552138
p1399
aVhttp://dbpedia.org/class/yago/Economy108366753
p1400
aVhttp://dbpedia.org/class/yago/Group100031264
p1401
aVhttp://dbpedia.org/class/yago/Location100027167
p1402
aVhttp://dbpedia.org/class/yago/Object100002684
p1403
aVhttp://dbpedia.org/class/yago/Region108630985
p1404
aVhttp://dbpedia.org/class/yago/System108435388
p1405
aVhttp://dbpedia.org/class/yago/YagoGeoEntity
p1406
aVhttp://dbpedia.org/class/yago/YagoLegalActorGeo
p1407
aVhttp://dbpedia.org/class/yago/CountriesOfTheMediterraneanSea
p1408
aVhttp://dbpedia.org/class/yago/EuropeanCountries
p1409
aVhttp://dbpedia.org/class/yago/EuropeanUnionMemberEconomies
p1410
aVhttp://dbpedia.org/class/yago/PhysicalEntity100001930
p1411
aVhttp://dbpedia.org/class/yago/YagoPermanentlyLocatedEntity
p1412
aVhttp://dbpedia.org/class/yago/MemberStatesOfNATO
p1413
aVhttp://dbpedia.org/class/yago/MemberStatesOfTheEuropeanUnion
p1414
aVhttp://dbpedia.org/class/yago/MemberStatesOfTheUnionForTheMediterranean
p1415
aVhttp://dbpedia.org/class/yago/MemberStatesOfTheUnitedNations
p1416
aVhttp://dbpedia.org/class/yago/SlavicCountries
p1417
aVhttp://dbpedia.org/class/yago/StatesAndTerritoriesEstablishedIn1991
p1418
aVhttp://dbpedia.org/resource/Slovenia
tp1419
aa(lp1420
((lp1421
Vhttp://www.w3.org/2002/07/owl#Thing
p1422
aVhttp://dbpedia.org/ontology/Place
p1423
aVhttp://dbpedia.org/ontology/Location
p1424
aVhttp://www.wikidata.org/entity/Q486972
p1425
aVhttp://www.wikidata.org/entity/Q6256
p1426
aVhttp://dbpedia.org/ontology/Country
p1427
aVhttp://dbpedia.org/ontology/PopulatedPlace
p1428
aVhttp://www.w3.org/2003/01/geo/wgs84_pos#SpatialThing
p1429
aVhttp://schema.org/Country
p1430
aVhttp://schema.org/Place
p1431
aVhttp://umbel.org/umbel/rc/Country
p1432
aVhttp://umbel.org/umbel/rc/Location_Underspecified
p1433
aVhttp://umbel.org/umbel/rc/PopulatedPlace
p1434
aVhttp://dbpedia.org/class/yago/Abstraction100002137
p1435
aVhttp://dbpedia.org/class/yago/AdministrativeDistrict108491826
p1436
aVhttp://dbpedia.org/class/yago/AlpineCountries
p1437
aVhttp://dbpedia.org/class/yago/Country108544813
p1438
aVhttp://dbpedia.org/class/yago/District108552138
p1439
aVhttp://dbpedia.org/class/yago/Economy108366753
p1440
aVhttp://dbpedia.org/class/yago/Group100031264
p1441
aVhttp://dbpedia.org/class/yago/Location100027167
p1442
aVhttp://dbpedia.org/class/yago/Object100002684
p1443
aVhttp://dbpedia.org/class/yago/Region108630985
p1444
aVhttp://dbpedia.org/class/yago/System108435388
p1445
aVhttp://dbpedia.org/class/yago/YagoGeoEntity
p1446
aVhttp://dbpedia.org/class/yago/YagoLegalActorGeo
p1447
aVhttp://dbpedia.org/class/yago/CountriesOfTheMediterraneanSea
p1448
aVhttp://dbpedia.org/class/yago/EuropeanCountries
p1449
aVhttp://dbpedia.org/class/yago/EuropeanUnionMemberEconomies
p1450
aVhttp://dbpedia.org/class/yago/PhysicalEntity100001930
p1451
aVhttp://dbpedia.org/class/yago/YagoPermanentlyLocatedEntity
p1452
aVhttp://dbpedia.org/class/yago/MemberStatesOfNATO
p1453
aVhttp://dbpedia.org/class/yago/MemberStatesOfTheEuropeanUnion
p1454
aVhttp://dbpedia.org/class/yago/MemberStatesOfTheUnionForTheMediterranean
p1455
aVhttp://dbpedia.org/class/yago/MemberStatesOfTheUnitedNations
p1456
aVhttp://dbpedia.org/class/yago/SlavicCountries
p1457
aVhttp://dbpedia.org/class/yago/StatesAndTerritoriesEstablishedIn1991
p1458
aVhttp://dbpedia.org/resource/Slovenia
tp1459
aa(lp1460
aa(lp1461
(lp1462
a(lp1463
((lp1464
Vhttp://dbpedia.org/class/yago/Abstraction100002137
p1465
aVhttp://dbpedia.org/class/yago/Act100030358
p1466
aVhttp://dbpedia.org/class/yago/Event100029378
p1467
aVhttp://dbpedia.org/class/yago/Informing107212190
p1468
aVhttp://dbpedia.org/class/yago/Report107217924
p1469
aVhttp://dbpedia.org/class/yago/Scandal107223811
p1470
aVhttp://dbpedia.org/class/yago/SpeechAct107160883
p1471
aVhttp://dbpedia.org/class/yago/Gossip107223170
p1472
aVhttp://dbpedia.org/class/yago/PsychologicalFeature100023100
p1473
aVhttp://dbpedia.org/class/yago/YagoPermanentlyLocatedEntity
p1474
aVhttp://dbpedia.org/class/yago/PoliticalScandalsInDenmark
p1475
aVhttp://dbpedia.org/resource/Tamil_Case_(Denmark)
tp1476
aa(lp1477
((lp1478
Vhttp://www.w3.org/2002/07/owl#Thing
p1479
aVhttp://dbpedia.org/ontology/Place
p1480
aVhttp://dbpedia.org/ontology/Location
p1481
aVhttp://www.wikidata.org/entity/Q486972
p1482
aVhttp://www.wikidata.org/entity/Q6256
p1483
aVhttp://dbpedia.org/ontology/Country
p1484
aVhttp://dbpedia.org/ontology/PopulatedPlace
p1485
aVhttp://www.w3.org/2003/01/geo/wgs84_pos#SpatialThing
p1486
aVhttp://schema.org/Country
p1487
aVhttp://schema.org/Place
p1488
aVhttp://umbel.org/umbel/rc/Country
p1489
aVhttp://umbel.org/umbel/rc/Location_Underspecified
p1490
aVhttp://umbel.org/umbel/rc/PopulatedPlace
p1491
aVhttp://dbpedia.org/class/yago/Abstraction100002137
p1492
aVhttp://dbpedia.org/class/yago/AdministrativeDistrict108491826
p1493
aVhttp://dbpedia.org/class/yago/Country108544813
p1494
aVhttp://dbpedia.org/class/yago/District108552138
p1495
aVhttp://dbpedia.org/class/yago/Economy108366753
p1496
aVhttp://dbpedia.org/class/yago/Group100031264
p1497
aVhttp://dbpedia.org/class/yago/Location100027167
p1498
aVhttp://dbpedia.org/class/yago/Object100002684
p1499
aVhttp://dbpedia.org/class/yago/Region108630985
p1500
aVhttp://dbpedia.org/class/yago/System108435388
p1501
aVhttp://dbpedia.org/class/yago/YagoGeoEntity
p1502
aVhttp://dbpedia.org/class/yago/YagoLegalActorGeo
p1503
aVhttp://dbpedia.org/class/yago/CountriesOfTheIndianOcean
p1504
aVhttp://dbpedia.org/class/yago/FederalCountries
p1505
aVhttp://dbpedia.org/class/yago/PhysicalEntity100001930
p1506
aVhttp://dbpedia.org/class/yago/YagoPermanentlyLocatedEntity
p1507
aVhttp://dbpedia.org/class/yago/MemberStatesOfTheCommonwealthOfNations
p1508
aVhttp://dbpedia.org/class/yago/MemberStatesOfTheSouthAsianAssociationForRegionalCooperation
p1509
aVhttp://dbpedia.org/class/yago/MemberStatesOfTheUnitedNations
p1510
aVhttp://dbpedia.org/class/yago/SouthAsianCountries
p1511
aVhttp://dbpedia.org/class/yago/StatesAndTerritoriesEstablishedIn1947
p1512
aVhttp://dbpedia.org/class/yago/WorldTradeOrganizationMemberEconomies
p1513
aVhttp://dbpedia.org/resource/India
tp1514
aa(lp1515
((lp1516
Vhttp://www.w3.org/2002/07/owl#Thing
p1517
aVhttp://dbpedia.org/ontology/Company
p1518
aVhttp://www.ontologydesignpatterns.org/ont/dul/DUL.owl#Agent
p1519
aVhttp://www.ontologydesignpatterns.org/ont/dul/DUL.owl#SocialPerson
p1520
aVhttp://www.wikidata.org/entity/Q18127
p1521
aVhttp://www.wikidata.org/entity/Q43229
p1522
aVhttp://dbpedia.org/ontology/Agent
p1523
aVhttp://dbpedia.org/ontology/Organisation
p1524
aVhttp://dbpedia.org/ontology/RecordLabel
p1525
aVhttp://schema.org/Organization
p1526
aVhttp://umbel.org/umbel/rc/Business
p1527
aVhttp://umbel.org/umbel/rc/RecordCompany
p1528
aVhttp://dbpedia.org/class/yago/Abstraction100002137
p1529
aVhttp://dbpedia.org/class/yago/AlternativeRockRecordLabels
p1530
aVhttp://dbpedia.org/class/yago/AmericanIndependentRecordLabels
p1531
aVhttp://dbpedia.org/class/yago/Company108058098
p1532
aVhttp://dbpedia.org/class/yago/Group100031264
p1533
aVhttp://dbpedia.org/class/yago/Institution108053576
p1534
aVhttp://dbpedia.org/class/yago/Organization108008335
p1535
aVhttp://dbpedia.org/class/yago/SocialGroup107950920
p1536
aVhttp://dbpedia.org/class/yago/YagoLegalActorGeo
p1537
aVhttp://dbpedia.org/class/yago/YagoPermanentlyLocatedEntity
p1538
aVhttp://dbpedia.org/class/yago/IndieMusicRecordLabels
p1539
aVhttp://dbpedia.org/class/yago/YagoLegalActor
p1540
aVhttp://dbpedia.org/class/yago/RecordLabelsEstablishedIn1986
p1541
aVhttp://dbpedia.org/resource/Bar/None_Records
tp1542
aaa(lp1543
(lp1544
a(lp1545
((lp1546
Vhttp://www.w3.org/2002/07/owl#Thing
p1547
aVhttp://dbpedia.org/resource/Telugu_literature
tp1548
aa(lp1549
((lp1550
Vhttp://www.w3.org/2002/07/owl#Thing
p1551
aVhttp://dbpedia.org/ontology/Place
p1552
aVhttp://dbpedia.org/ontology/Location
p1553
aVhttp://www.wikidata.org/entity/Q486972
p1554
aVhttp://www.wikidata.org/entity/Q6256
p1555
aVhttp://dbpedia.org/ontology/Country
p1556
aVhttp://dbpedia.org/ontology/PopulatedPlace
p1557
aVhttp://www.w3.org/2003/01/geo/wgs84_pos#SpatialThing
p1558
aVhttp://schema.org/Country
p1559
aVhttp://schema.org/Place
p1560
aVhttp://umbel.org/umbel/rc/Country
p1561
aVhttp://umbel.org/umbel/rc/Location_Underspecified
p1562
aVhttp://umbel.org/umbel/rc/PopulatedPlace
p1563
aVhttp://dbpedia.org/class/yago/Abstraction100002137
p1564
aVhttp://dbpedia.org/class/yago/AdministrativeDistrict108491826
p1565
aVhttp://dbpedia.org/class/yago/Country108544813
p1566
aVhttp://dbpedia.org/class/yago/District108552138
p1567
aVhttp://dbpedia.org/class/yago/Economy108366753
p1568
aVhttp://dbpedia.org/class/yago/Group100031264
p1569
aVhttp://dbpedia.org/class/yago/Location100027167
p1570
aVhttp://dbpedia.org/class/yago/Object100002684
p1571
aVhttp://dbpedia.org/class/yago/Region108630985
p1572
aVhttp://dbpedia.org/class/yago/System108435388
p1573
aVhttp://dbpedia.org/class/yago/YagoGeoEntity
p1574
aVhttp://dbpedia.org/class/yago/YagoLegalActorGeo
p1575
aVhttp://dbpedia.org/class/yago/CountriesOfTheIndianOcean
p1576
aVhttp://dbpedia.org/class/yago/FederalCountries
p1577
aVhttp://dbpedia.org/class/yago/PhysicalEntity100001930
p1578
aVhttp://dbpedia.org/class/yago/YagoPermanentlyLocatedEntity
p1579
aVhttp://dbpedia.org/class/yago/MemberStatesOfTheCommonwealthOfNations
p1580
aVhttp://dbpedia.org/class/yago/MemberStatesOfTheSouthAsianAssociationForRegionalCooperation
p1581
aVhttp://dbpedia.org/class/yago/MemberStatesOfTheUnitedNations
p1582
aVhttp://dbpedia.org/class/yago/SouthAsianCountries
p1583
aVhttp://dbpedia.org/class/yago/StatesAndTerritoriesEstablishedIn1947
p1584
aVhttp://dbpedia.org/class/yago/WorldTradeOrganizationMemberEconomies
p1585
aVhttp://dbpedia.org/resource/India
tp1586
aa(lp1587
((lp1588
Vhttp://www.w3.org/2002/07/owl#Thing
p1589
aVhttp://dbpedia.org/ontology/Company
p1590
aVhttp://www.ontologydesignpatterns.org/ont/dul/DUL.owl#Agent
p1591
aVhttp://www.ontologydesignpatterns.org/ont/dul/DUL.owl#SocialPerson
p1592
aVhttp://www.wikidata.org/entity/Q18127
p1593
aVhttp://www.wikidata.org/entity/Q43229
p1594
aVhttp://dbpedia.org/ontology/Agent
p1595
aVhttp://dbpedia.org/ontology/Organisation
p1596
aVhttp://dbpedia.org/ontology/RecordLabel
p1597
aVhttp://schema.org/Organization
p1598
aVhttp://umbel.org/umbel/rc/Business
p1599
aVhttp://umbel.org/umbel/rc/RecordCompany
p1600
aVhttp://dbpedia.org/class/yago/Abstraction100002137
p1601
aVhttp://dbpedia.org/class/yago/AlternativeRockRecordLabels
p1602
aVhttp://dbpedia.org/class/yago/AmericanIndependentRecordLabels
p1603
aVhttp://dbpedia.org/class/yago/Company108058098
p1604
aVhttp://dbpedia.org/class/yago/Group100031264
p1605
aVhttp://dbpedia.org/class/yago/Institution108053576
p1606
aVhttp://dbpedia.org/class/yago/Organization108008335
p1607
aVhttp://dbpedia.org/class/yago/SocialGroup107950920
p1608
aVhttp://dbpedia.org/class/yago/YagoLegalActorGeo
p1609
aVhttp://dbpedia.org/class/yago/YagoPermanentlyLocatedEntity
p1610
aVhttp://dbpedia.org/class/yago/IndieMusicRecordLabels
p1611
aVhttp://dbpedia.org/class/yago/YagoLegalActor
p1612
aVhttp://dbpedia.org/class/yago/RecordLabelsEstablishedIn1986
p1613
aVhttp://dbpedia.org/resource/Bar/None_Records
tp1614
aaa(lp1615
(lp1616
a(lp1617
((lp1618
Vhttp://www.w3.org/2002/07/owl#Thing
p1619
aVhttp://dbpedia.org/resource/Cai_(surname)
tp1620
aa(lp1621
((lp1622
Vhttp://www.w3.org/2002/07/owl#Thing
p1623
aVhttp://dbpedia.org/ontology/Place
p1624
aVhttp://dbpedia.org/ontology/Location
p1625
aVhttp://www.wikidata.org/entity/Q486972
p1626
aVhttp://www.wikidata.org/entity/Q6256
p1627
aVhttp://dbpedia.org/ontology/Country
p1628
aVhttp://dbpedia.org/ontology/PopulatedPlace
p1629
aVhttp://www.w3.org/2003/01/geo/wgs84_pos#SpatialThing
p1630
aVhttp://schema.org/Country
p1631
aVhttp://schema.org/Place
p1632
aVhttp://umbel.org/umbel/rc/Country
p1633
aVhttp://umbel.org/umbel/rc/Location_Underspecified
p1634
aVhttp://umbel.org/umbel/rc/PopulatedPlace
p1635
aVhttp://dbpedia.org/class/yago/Abstraction100002137
p1636
aVhttp://dbpedia.org/class/yago/AdministrativeDistrict108491826
p1637
aVhttp://dbpedia.org/class/yago/Country108544813
p1638
aVhttp://dbpedia.org/class/yago/District108552138
p1639
aVhttp://dbpedia.org/class/yago/Economy108366753
p1640
aVhttp://dbpedia.org/class/yago/Group100031264
p1641
aVhttp://dbpedia.org/class/yago/Location100027167
p1642
aVhttp://dbpedia.org/class/yago/Object100002684
p1643
aVhttp://dbpedia.org/class/yago/Region108630985
p1644
aVhttp://dbpedia.org/class/yago/System108435388
p1645
aVhttp://dbpedia.org/class/yago/YagoGeoEntity
p1646
aVhttp://dbpedia.org/class/yago/YagoLegalActorGeo
p1647
aVhttp://dbpedia.org/class/yago/CountriesBorderingTheSouthChinaSea
p1648
aVhttp://dbpedia.org/class/yago/CountriesOfTheIndianOcean
p1649
aVhttp://dbpedia.org/class/yago/PhysicalEntity100001930
p1650
aVhttp://dbpedia.org/class/yago/YagoPermanentlyLocatedEntity
p1651
aVhttp://dbpedia.org/class/yago/MemberStatesOfTheAssociationOfSoutheastAsianNations
p1652
aVhttp://dbpedia.org/class/yago/MemberStatesOfTheUnitedNations
p1653
aVhttp://dbpedia.org/class/yago/SoutheastAsianCountries
p1654
aVhttp://dbpedia.org/class/yago/WorldTradeOrganizationMemberEconomies
p1655
aVhttp://dbpedia.org/resource/Thailand
tp1656
aa(lp1657
aa(lp1658
(lp1659
a(lp1660
((lp1661
Vhttp://www.w3.org/2002/07/owl#Thing
p1662
aVhttp://dbpedia.org/ontology/Language
p1663
aVhttp://www.wikidata.org/entity/Q315
p1664
aVhttp://www.wikidata.org/entity/Q34770
p1665
aVhttp://schema.org/Language
p1666
aVhttp://dbpedia.org/class/yago/Ability105616246
p1667
aVhttp://dbpedia.org/class/yago/Abstraction100002137
p1668
aVhttp://dbpedia.org/class/yago/Cognition100023271
p1669
aVhttp://dbpedia.org/class/yago/Communication100033020
p1670
aVhttp://dbpedia.org/class/yago/DramaticComposition107007684
p1671
aVhttp://dbpedia.org/class/yago/FictionalCharacter109587565
p1672
aVhttp://dbpedia.org/class/yago/Orthography106351202
p1673
aVhttp://dbpedia.org/class/yago/Script107009946
p1674
aVhttp://dbpedia.org/class/yago/Writing106359877
p1675
aVhttp://dbpedia.org/class/yago/Writing106362953
p1676
aVhttp://dbpedia.org/class/yago/ChineseCharacters
p1677
aVhttp://dbpedia.org/class/yago/ChineseScripts
p1678
aVhttp://dbpedia.org/class/yago/Creativity105624700
p1679
aVhttp://dbpedia.org/class/yago/ImaginaryBeing109483738
p1680
aVhttp://dbpedia.org/class/yago/Imagination105625465
p1681
aVhttp://dbpedia.org/class/yago/PsychologicalFeature100023100
p1682
aVhttp://dbpedia.org/class/yago/WrittenCommunication106349220
p1683
aVhttp://dbpedia.org/resource/Simplified_Chinese_characters
tp1684
aa(lp1685
((lp1686
Vhttp://www.w3.org/2002/07/owl#Thing
p1687
aVhttp://dbpedia.org/ontology/Place
p1688
aVhttp://dbpedia.org/ontology/Location
p1689
aVhttp://www.wikidata.org/entity/Q486972
p1690
aVhttp://www.wikidata.org/entity/Q6256
p1691
aVhttp://dbpedia.org/ontology/Country
p1692
aVhttp://dbpedia.org/ontology/PopulatedPlace
p1693
aVhttp://www.w3.org/2003/01/geo/wgs84_pos#SpatialThing
p1694
aVhttp://schema.org/Country
p1695
aVhttp://schema.org/Place
p1696
aVhttp://dbpedia.org/class/yago/Abstraction100002137
p1697
aVhttp://dbpedia.org/class/yago/AdministrativeDistrict108491826
p1698
aVhttp://dbpedia.org/class/yago/Country108544813
p1699
aVhttp://dbpedia.org/class/yago/District108552138
p1700
aVhttp://dbpedia.org/class/yago/Economy108366753
p1701
aVhttp://dbpedia.org/class/yago/Group100031264
p1702
aVhttp://dbpedia.org/class/yago/Location100027167
p1703
aVhttp://dbpedia.org/class/yago/Object100002684
p1704
aVhttp://dbpedia.org/class/yago/Region108630985
p1705
aVhttp://dbpedia.org/class/yago/System108435388
p1706
aVhttp://dbpedia.org/class/yago/YagoGeoEntity
p1707
aVhttp://dbpedia.org/class/yago/YagoLegalActorGeo
p1708
aVhttp://dbpedia.org/class/yago/CentralAsianCountries
p1709
aVhttp://dbpedia.org/class/yago/Chinese-speakingCountriesAndTerritories
p1710
aVhttp://dbpedia.org/class/yago/CommunistStates
p1711
aVhttp://dbpedia.org/class/yago/CountriesBorderingThePacificOcean
p1712
aVhttp://dbpedia.org/class/yago/CountriesBorderingTheSouthChinaSea
p1713
aVhttp://dbpedia.org/class/yago/EastAsianCountries
p1714
aVhttp://dbpedia.org/class/yago/EconomiesByRegion
p1715
aVhttp://dbpedia.org/class/yago/PhysicalEntity100001930
p1716
aVhttp://dbpedia.org/class/yago/YagoPermanentlyLocatedEntity
p1717
aVhttp://dbpedia.org/class/yago/MemberStatesOfTheUnitedNations
p1718
aVhttp://dbpedia.org/class/yago/Single-partyStates
p1719
aVhttp://dbpedia.org/class/yago/SocialistStates
p1720
aVhttp://dbpedia.org/class/yago/StatesAndTerritoriesEstablishedIn1949
p1721
aVhttp://dbpedia.org/resource/China
tp1722
aa(lp1723
aa(lp1724
(lp1725
a(lp1726
((lp1727
Vhttp://dbpedia.org/class/yago/Abstraction100002137
p1728
aVhttp://dbpedia.org/class/yago/Code106667317
p1729
aVhttp://dbpedia.org/class/yago/Communication100033020
p1730
aVhttp://dbpedia.org/class/yago/LegalCode106667792
p1731
aVhttp://dbpedia.org/class/yago/WrittenCommunication106349220
p1732
aVhttp://dbpedia.org/class/yago/LegalCodes
p1733
aVhttp://dbpedia.org/resource/Traditional_Chinese_law
tp1734
aa(lp1735
((lp1736
Vhttp://www.w3.org/2002/07/owl#Thing
p1737
aVhttp://dbpedia.org/ontology/Place
p1738
aVhttp://dbpedia.org/ontology/Location
p1739
aVhttp://www.wikidata.org/entity/Q486972
p1740
aVhttp://www.wikidata.org/entity/Q6256
p1741
aVhttp://dbpedia.org/ontology/Country
p1742
aVhttp://dbpedia.org/ontology/PopulatedPlace
p1743
aVhttp://www.w3.org/2003/01/geo/wgs84_pos#SpatialThing
p1744
aVhttp://schema.org/Country
p1745
aVhttp://schema.org/Place
p1746
aVhttp://umbel.org/umbel/rc/Island
p1747
aVhttp://umbel.org/umbel/rc/Location_Underspecified
p1748
aVhttp://umbel.org/umbel/rc/PopulatedPlace
p1749
aVhttp://dbpedia.org/class/yago/Abstraction100002137
p1750
aVhttp://dbpedia.org/class/yago/AdministrativeDistrict108491826
p1751
aVhttp://dbpedia.org/class/yago/Country108544813
p1752
aVhttp://dbpedia.org/class/yago/District108552138
p1753
aVhttp://dbpedia.org/class/yago/Economy108366753
p1754
aVhttp://dbpedia.org/class/yago/Group100031264
p1755
aVhttp://dbpedia.org/class/yago/Location100027167
p1756
aVhttp://dbpedia.org/class/yago/Object100002684
p1757
aVhttp://dbpedia.org/class/yago/Region108630985
p1758
aVhttp://dbpedia.org/class/yago/System108435388
p1759
aVhttp://dbpedia.org/class/yago/YagoGeoEntity
p1760
aVhttp://dbpedia.org/class/yago/YagoLegalActorGeo
p1761
aVhttp://dbpedia.org/class/yago/Chinese-speakingCountriesAndTerritories
p1762
aVhttp://dbpedia.org/class/yago/CountriesBorderingThePacificOcean
p1763
aVhttp://dbpedia.org/class/yago/CountriesBorderingThePhilippineSea
p1764
aVhttp://dbpedia.org/class/yago/CountriesBorderingTheSouthChinaSea
p1765
aVhttp://dbpedia.org/class/yago/EastAsianCountries
p1766
aVhttp://dbpedia.org/class/yago/FormerMemberStatesOfTheUnitedNations
p1767
aVhttp://dbpedia.org/class/yago/PhysicalEntity100001930
p1768
aVhttp://dbpedia.org/class/yago/YagoPermanentlyLocatedEntity
p1769
aVhttp://dbpedia.org/class/yago/IslandCountries
p1770
aVhttp://dbpedia.org/class/yago/StatesAndTerritoriesEstablishedIn1912
p1771
aVhttp://dbpedia.org/class/yago/UnrecognizedOrLargelyUnrecognizedStates
p1772
aVhttp://dbpedia.org/class/yago/WorldTradeOrganizationMemberEconomies
p1773
aVhttp://dbpedia.org/resource/Taiwan
tp1774
aa(lp1775
((lp1776
Vhttp://www.w3.org/2002/07/owl#Thing
p1777
aVhttp://dbpedia.org/ontology/Company
p1778
aVhttp://www.ontologydesignpatterns.org/ont/dul/DUL.owl#Agent
p1779
aVhttp://www.ontologydesignpatterns.org/ont/dul/DUL.owl#SocialPerson
p1780
aVhttp://www.wikidata.org/entity/Q18127
p1781
aVhttp://www.wikidata.org/entity/Q43229
p1782
aVhttp://dbpedia.org/ontology/Agent
p1783
aVhttp://dbpedia.org/ontology/Organisation
p1784
aVhttp://dbpedia.org/ontology/RecordLabel
p1785
aVhttp://schema.org/Organization
p1786
aVhttp://umbel.org/umbel/rc/Business
p1787
aVhttp://umbel.org/umbel/rc/RecordCompany
p1788
aVhttp://dbpedia.org/class/yago/Abstraction100002137
p1789
aVhttp://dbpedia.org/class/yago/AlternativeRockRecordLabels
p1790
aVhttp://dbpedia.org/class/yago/AmericanIndependentRecordLabels
p1791
aVhttp://dbpedia.org/class/yago/Company108058098
p1792
aVhttp://dbpedia.org/class/yago/Group100031264
p1793
aVhttp://dbpedia.org/class/yago/Institution108053576
p1794
aVhttp://dbpedia.org/class/yago/Organization108008335
p1795
aVhttp://dbpedia.org/class/yago/SocialGroup107950920
p1796
aVhttp://dbpedia.org/class/yago/YagoLegalActorGeo
p1797
aVhttp://dbpedia.org/class/yago/YagoPermanentlyLocatedEntity
p1798
aVhttp://dbpedia.org/class/yago/IndieMusicRecordLabels
p1799
aVhttp://dbpedia.org/class/yago/YagoLegalActor
p1800
aVhttp://dbpedia.org/class/yago/RecordLabelsEstablishedIn1986
p1801
aVhttp://dbpedia.org/resource/Bar/None_Records
p1802
tp1803
aaa.