(lp1
(lp2
(lp3
a(lp4
a(lp5
((lp6
Vhttp://www.w3.org/2002/07/owl#Thing
p7
aVhttp://dbpedia.org/resource/K2_(TV_channel)
tp8
aa(lp9
a(lp10
a(lp11
((lp12
Vhttp://www.w3.org/2002/07/owl#Thing
p13
aVhttp://dbpedia.org/ontology/Place
p14
aVhttp://dbpedia.org/ontology/Location
p15
aVhttp://www.wikidata.org/entity/Q34442
p16
aVhttp://dbpedia.org/ontology/ArchitecturalStructure
p17
aVhttp://dbpedia.org/ontology/Infrastructure
p18
aVhttp://dbpedia.org/ontology/Road
p19
aVhttp://dbpedia.org/ontology/RouteOfTransportation
p20
aVhttp://schema.org/Place
p21
aVhttp://dbpedia.org/resource/A157_road
tp22
aaa(lp23
(lp24
a(lp25
a(lp26
a(lp27
a(lp28
a(lp29
aa(lp30
(lp31
a(lp32
a(lp33
a(lp34
a(lp35
a(lp36
((lVhttp://dbpedia.org/resource/T213
p37
tp38
aaa(lp39
(lp40
a(lp41
a(lp42
a(lp43
a(lp44
a(lp45
aa(lp46
(lp47
a(lp48
a(lp49
a(lp50
a(lp51
a(lp52
aa(lp53
(lp54
a(lp55
a(lp56
a(lp57
a(lp58
a(lp59
aa(lp60
(lp61
a(lp62
a(lp63
a(lp64
a(lp65
a(lp66
aa(lp67
(lp68
a(lp69
a(lp70
a(lp71
a(lp72
a(lp73
aa(lp74
(lp75
a(lp76
a(lp77
a(lp78
a(lp79
a(lp80
aa(lp81
(lp82
a(lp83
a(lp84
a(lp85
a(lp86
a(lp87
aa.