(lp1
(dp2
I0
(dp3
I0
(lp4
sI1
(lp5
sI2
(lp6
sI3
(lp7
sI4
(lp8
ssI1
(dp9
I0
g5
sI1
(lp10
sI2
(lp11
sI3
(lp12
sI4
(lp13
ssI2
(dp14
I0
g6
sI1
g11
sI2
(lp15
sI3
(lp16
sI4
(lp17
ssI3
(dp18
I0
g7
sI1
g12
sI2
g16
sI3
(lp19
sI4
(lp20
ssI4
(dp21
I0
g8
sI1
g13
sI2
g17
sI3
g20
sI4
(lp22
ssa(dp23
I0
(dp24
I0
(lp25
sI1
(lp26
sI2
(lp27
sI3
(lp28
sI4
(lp29
ssI1
(dp30
I0
g26
sI1
(lp31
sI2
(lp32
sI3
(lp33
sI4
(lp34
ssI2
(dp35
I0
g27
sI1
g32
sI2
(lp36
sI3
(lp37
sI4
(lp38
ssI3
(dp39
I0
g28
sI1
g33
sI2
g37
sI3
(lp40
sI4
(lp41
ssI4
(dp42
I0
g29
sI1
g34
sI2
g38
sI3
g41
sI4
(lp43
ssa(dp44
I0
(dp45
I0
(lp46
sI1
(lp47
sI2
(lp48
sI3
(lp49
sI4
(lp50
ssI1
(dp51
I0
g47
sI1
(lp52
sI2
(lp53
sI3
(lp54
sI4
(lp55
ssI2
(dp56
I0
g48
sI1
g53
sI2
(lp57
sI3
(lp58
sI4
(lp59
ssI3
(dp60
I0
g49
sI1
g54
sI2
g58
sI3
(lp61
sI4
(lp62
ssI4
(dp63
I0
g50
sI1
g55
sI2
g59
sI3
g62
sI4
(lp64
ssa(dp65
I0
(dp66
I0
(lp67
sI1
(lp68
sI2
(lp69
sI3
(lp70
sI4
(lp71
ssI1
(dp72
I0
g68
sI1
(lp73
sI2
(lp74
sI3
(lp75
sI4
(lp76
ssI2
(dp77
I0
g69
sI1
g74
sI2
(lp78
sI3
(lp79
sI4
(lp80
ssI3
(dp81
I0
g70
sI1
g75
sI2
g79
sI3
(lp82
sI4
(lp83
ssI4
(dp84
I0
g71
sI1
g76
sI2
g80
sI3
g83
sI4
(lp85
ssa(dp86
I0
(dp87
I0
(lp88
sI1
(lp89
sI2
(lp90
sI3
(lp91
sI4
(lp92
ssI1
(dp93
I0
g89
sI1
(lp94
sI2
(lp95
sI3
(lp96
sI4
(lp97
ssI2
(dp98
I0
g90
sI1
g95
sI2
(lp99
sI3
(lp100
sI4
(lp101
ssI3
(dp102
I0
g91
sI1
g96
sI2
g100
sI3
(lp103
sI4
(lp104
ssI4
(dp105
I0
g92
sI1
g97
sI2
g101
sI3
g104
sI4
(lp106
ssa(dp107
I0
(dp108
I0
(lp109
sI1
(lp110
sI2
(lp111
sI3
(lp112
sI4
(lp113
ssI1
(dp114
I0
g110
sI1
(lp115
sI2
(lp116
sI3
(lp117
sI4
(lp118
ssI2
(dp119
I0
g111
sI1
g116
sI2
(lp120
sI3
(lp121
sI4
(lp122
ssI3
(dp123
I0
g112
sI1
g117
sI2
g121
sI3
(lp124
sI4
(lp125
ssI4
(dp126
I0
g113
sI1
g118
sI2
g122
sI3
g125
sI4
(lp127
ssa(dp128
I0
(dp129
I0
(lp130
sI1
(lp131
sI2
(lp132
sI3
(lp133
sI4
(lp134
ssI1
(dp135
I0
g131
sI1
(lp136
sI2
(lp137
sI3
(lp138
sI4
(lp139
ssI2
(dp140
I0
g132
sI1
g137
sI2
(lp141
sI3
(lp142
sI4
(lp143
ssI3
(dp144
I0
g133
sI1
g138
sI2
g142
sI3
(lp145
sI4
(lp146
ssI4
(dp147
I0
g134
sI1
g139
sI2
g143
sI3
g146
sI4
(lp148
ssa(dp149
I0
(dp150
I0
(lp151
sI1
(lp152
sI2
(lp153
sI3
(lp154
sI4
(lp155
ssI1
(dp156
I0
g152
sI1
(lp157
sI2
(lp158
sI3
(lp159
sI4
(lp160
ssI2
(dp161
I0
g153
sI1
g158
sI2
(lp162
sI3
(lp163
sI4
(lp164
ssI3
(dp165
I0
g154
sI1
g159
sI2
g163
sI3
(lp166
sI4
(lp167
ssI4
(dp168
I0
g155
sI1
g160
sI2
g164
sI3
g167
sI4
(lp169
ssa(dp170
I0
(dp171
I0
(lp172
sI1
(lp173
sI2
(lp174
sI3
(lp175
sI4
(lp176
ssI1
(dp177
I0
g173
sI1
(lp178
sI2
(lp179
sI3
(lp180
sI4
(lp181
ssI2
(dp182
I0
g174
sI1
g179
sI2
(lp183
sI3
(lp184
sI4
(lp185
ssI3
(dp186
I0
g175
sI1
g180
sI2
g184
sI3
(lp187
sI4
(lp188
ssI4
(dp189
I0
g176
sI1
g181
sI2
g185
sI3
g188
sI4
(lp190
ssa(dp191
I0
(dp192
I0
(lp193
sI1
(lp194
sI2
(lp195
sI3
(lp196
sI4
(lp197
ssI1
(dp198
I0
g194
sI1
(lp199
sI2
(lp200
sI3
(lp201
Vhttp://www.w3.org/1999/02/22-rdf-syntax-ns#type
p202
aVhttp://www.w3.org/2000/01/rdf-schema#comment
p203
aVhttp://dbpedia.org/ontology/abstract
p204
aVhttp://xmlns.com/foaf/0.1/depiction
p205
aVhttp://dbpedia.org/property/wordnet_type
p206
aVhttp://purl.org/voc/vrank#hasRank
p207
aVhttp://dbpedia.org/ontology/thumbnail
p208
aVhttp://dbpedia.org/property/hasPhotoCollection
p209
aVhttp://www.w3.org/2002/07/owl#sameAs
p210
asI4
(lp211
ssI2
(dp212
I0
g195
sI1
g200
sI2
(lp213
sI3
(lp214
sI4
(lp215
ssI3
(dp216
I0
g196
sI1
g201
sI2
g214
sI3
(lp217
sI4
(lp218
ssI4
(dp219
I0
g197
sI1
g211
sI2
g215
sI3
g218
sI4
(lp220
ssa(dp221
I0
(dp222
I0
(lp223
sI1
(lp224
sI2
(lp225
sI3
(lp226
sI4
(lp227
ssI1
(dp228
I0
g224
sI1
(lp229
sI2
(lp230
sI3
(lp231
sI4
(lp232
ssI2
(dp233
I0
g225
sI1
g230
sI2
(lp234
sI3
(lp235
sI4
(lp236
ssI3
(dp237
I0
g226
sI1
g231
sI2
g235
sI3
(lp238
sI4
(lp239
ssI4
(dp240
I0
g227
sI1
g232
sI2
g236
sI3
g239
sI4
(lp241
ssa(dp242
I0
(dp243
I0
(lp244
sI1
(lp245
sI2
(lp246
sI3
(lp247
sI4
(lp248
ssI1
(dp249
I0
g245
sI1
(lp250
sI2
(lp251
sI3
(lp252
sI4
(lp253
ssI2
(dp254
I0
g246
sI1
g251
sI2
(lp255
sI3
(lp256
sI4
(lp257
ssI3
(dp258
I0
g247
sI1
g252
sI2
g256
sI3
(lp259
sI4
(lp260
ssI4
(dp261
I0
g248
sI1
g253
sI2
g257
sI3
g260
sI4
(lp262
ssa(dp263
I0
(dp264
I0
(lp265
sI1
(lp266
sI2
(lp267
sI3
(lp268
sI4
(lp269
ssI1
(dp270
I0
g266
sI1
(lp271
sI2
(lp272
sI3
(lp273
sI4
(lp274
ssI2
(dp275
I0
g267
sI1
g272
sI2
(lp276
sI3
(lp277
sI4
(lp278
ssI3
(dp279
I0
g268
sI1
g273
sI2
g277
sI3
(lp280
sI4
(lp281
ssI4
(dp282
I0
g269
sI1
g274
sI2
g278
sI3
g281
sI4
(lp283
ssa(dp284
I0
(dp285
I0
(lp286
sI1
(lp287
sI2
(lp288
sI3
(lp289
sI4
(lp290
ssI1
(dp291
I0
g287
sI1
(lp292
sI2
(lp293
sI3
(lp294
sI4
(lp295
ssI2
(dp296
I0
g288
sI1
g293
sI2
(lp297
sI3
(lp298
sI4
(lp299
ssI3
(dp300
I0
g289
sI1
g294
sI2
g298
sI3
(lp301
sI4
(lp302
ssI4
(dp303
I0
g290
sI1
g295
sI2
g299
sI3
g302
sI4
(lp304
ssa(dp305
I0
(dp306
I0
(lp307
sI1
(lp308
sI2
(lp309
sI3
(lp310
sI4
(lp311
ssI1
(dp312
I0
g308
sI1
(lp313
sI2
(lp314
Vhttp://dbpedia.org/property/region
p315
aVhttp://dbpedia.org/ontology/spokenIn
p316
asI3
(lp317
sI4
(lp318
ssI2
(dp319
I0
g309
sI1
g314
sI2
(lp320
sI3
(lp321
Vhttp://dbpedia.org/ontology/wikiPageExternalLink
p322
aVhttp://www.w3.org/1999/02/22-rdf-syntax-ns#type
p323
aVhttp://www.w3.org/2000/01/rdf-schema#comment
p324
aVhttp://dbpedia.org/ontology/abstract
p325
aVhttp://purl.org/voc/vrank#hasRank
p326
aVhttp://dbpedia.org/ontology/thumbnail
p327
aVhttp://dbpedia.org/property/mark
p328
aVhttp://www.w3.org/ns/prov#wasDerivedFrom
p329
aVhttp://dbpedia.org/property/hasPhotoCollection
p330
aVhttp://www.w3.org/2002/07/owl#sameAs
p331
asI4
(lp332
ssI3
(dp333
I0
g310
sI1
g317
sI2
g321
sI3
(lp334
sI4
(lp335
ssI4
(dp336
I0
g311
sI1
g318
sI2
g332
sI3
g335
sI4
(lp337
ssa(dp338
I0
(dp339
I0
(lp340
sI1
(lp341
sI2
(lp342
sI3
(lp343
sI4
(lp344
ssI1
(dp345
I0
g341
sI1
(lp346
sI2
(lp347
sI3
(lp348
sI4
(lp349
ssI2
(dp350
I0
g342
sI1
g347
sI2
(lp351
sI3
(lp352
sI4
(lp353
ssI3
(dp354
I0
g343
sI1
g348
sI2
g352
sI3
(lp355
sI4
(lp356
ssI4
(dp357
I0
g344
sI1
g349
sI2
g353
sI3
g356
sI4
(lp358
ssa(dp359
I0
(dp360
I0
(lp361
sI1
(lp362
sI2
(lp363
sI3
(lp364
sI4
(lp365
ssI1
(dp366
I0
g362
sI1
(lp367
sI2
(lp368
sI3
(lp369
sI4
(lp370
ssI2
(dp371
I0
g363
sI1
g368
sI2
(lp372
sI3
(lp373
sI4
(lp374
ssI3
(dp375
I0
g364
sI1
g369
sI2
g373
sI3
(lp376
sI4
(lp377
ssI4
(dp378
I0
g365
sI1
g370
sI2
g374
sI3
g377
sI4
(lp379
ssa(dp380
I0
(dp381
I0
(lp382
sI1
(lp383
sI2
(lp384
sI3
(lp385
sI4
(lp386
ssI1
(dp387
I0
g383
sI1
(lp388
sI2
(lp389
Vhttp://dbpedia.org/ontology/abstract
p390
aVhttp://www.w3.org/2000/01/rdf-schema#comment
p391
aVhttp://dbpedia.org/property/region
p392
aVhttp://dbpedia.org/ontology/spokenIn
p393
asI3
(lp394
sI4
(lp395
ssI2
(dp396
I0
g384
sI1
g389
sI2
(lp397
sI3
(lp398
sI4
(lp399
ssI3
(dp400
I0
g385
sI1
g394
sI2
g398
sI3
(lp401
sI4
(lp402
ssI4
(dp403
I0
g386
sI1
g395
sI2
g399
sI3
g402
sI4
(lp404
ssa(dp405
I0
(dp406
I0
(lp407
sI1
(lp408
sI2
(lp409
sI3
(lp410
sI4
(lp411
ssI1
(dp412
I0
g408
sI1
(lp413
sI2
(lp414
Vhttp://dbpedia.org/ontology/abstract
p415
aVhttp://www.w3.org/2000/01/rdf-schema#comment
p416
aVhttp://dbpedia.org/property/region
p417
aVhttp://dbpedia.org/ontology/spokenIn
p418
asI3
(lp419
sI4
(lp420
ssI2
(dp421
I0
g409
sI1
g414
sI2
(lp422
sI3
(lp423
sI4
(lp424
ssI3
(dp425
I0
g410
sI1
g419
sI2
g423
sI3
(lp426
sI4
(lp427
ssI4
(dp428
I0
g411
sI1
g420
sI2
g424
sI3
g427
sI4
(lp429
ssa(dp430
I0
(dp431
I0
(lp432
sI1
(lp433
sI2
(lp434
sI3
(lp435
sI4
(lp436
ssI1
(dp437
I0
g433
sI1
(lp438
sI2
(lp439
sI3
(lp440
sI4
(lp441
ssI2
(dp442
I0
g434
sI1
g439
sI2
(lp443
sI3
(lp444
sI4
(lp445
ssI3
(dp446
I0
g435
sI1
g440
sI2
g444
sI3
(lp447
sI4
(lp448
ssI4
(dp449
I0
g436
sI1
g441
sI2
g445
sI3
g448
sI4
(lp450
ssa.