(lp1
(lp2
(lp3
a(lp4
((lp5
Vhttp://dbpedia.org/class/yago/Abstraction100002137
p6
aVhttp://dbpedia.org/class/yago/Name106333653
p7
aVhttp://dbpedia.org/class/yago/Part113809207
p8
aVhttp://dbpedia.org/class/yago/Relation100031921
p9
aVhttp://dbpedia.org/class/yago/TradeName106845599
p10
aVhttp://dbpedia.org/class/yago/LanguageUnit106284225
p11
aVhttp://dbpedia.org/class/yago/KraftFoodsBrands
p12
aVhttp://dbpedia.org/class/yago/UnitedBiscuitsBrands
p13
aVhttp://dbpedia.org/resource/Filipinos_(snack_food)
tp14
aa(lp15
((lp16
Vhttp://www.w3.org/2002/07/owl#Thing
p17
aVhttp://dbpedia.org/ontology/Place
p18
aVhttp://dbpedia.org/ontology/Location
p19
aVhttp://www.wikidata.org/entity/Q486972
p20
aVhttp://www.wikidata.org/entity/Q6256
p21
aVhttp://dbpedia.org/ontology/Country
p22
aVhttp://dbpedia.org/ontology/PopulatedPlace
p23
aVhttp://www.w3.org/2003/01/geo/wgs84_pos#SpatialThing
p24
aVhttp://schema.org/Country
p25
aVhttp://schema.org/Place
p26
aVhttp://umbel.org/umbel/rc/Country
p27
aVhttp://umbel.org/umbel/rc/Location_Underspecified
p28
aVhttp://umbel.org/umbel/rc/PopulatedPlace
p29
aVhttp://dbpedia.org/class/yago/Abstraction100002137
p30
aVhttp://dbpedia.org/class/yago/AdministrativeDistrict108491826
p31
aVhttp://dbpedia.org/class/yago/Country108544813
p32
aVhttp://dbpedia.org/class/yago/District108552138
p33
aVhttp://dbpedia.org/class/yago/Economy108366753
p34
aVhttp://dbpedia.org/class/yago/Group100031264
p35
aVhttp://dbpedia.org/class/yago/Island109316454
p36
aVhttp://dbpedia.org/class/yago/Land109334396
p37
aVhttp://dbpedia.org/class/yago/Location100027167
p38
aVhttp://dbpedia.org/class/yago/Object100002684
p39
aVhttp://dbpedia.org/class/yago/Region108630985
p40
aVhttp://dbpedia.org/class/yago/System108435388
p41
aVhttp://dbpedia.org/class/yago/YagoGeoEntity
p42
aVhttp://dbpedia.org/class/yago/YagoLegalActorGeo
p43
aVhttp://dbpedia.org/class/yago/CountriesBorderingThePacificOcean
p44
aVhttp://dbpedia.org/class/yago/CountriesBorderingThePhilippineSea
p45
aVhttp://dbpedia.org/class/yago/CountriesBorderingTheSouthChinaSea
p46
aVhttp://dbpedia.org/class/yago/English-speakingCountriesAndTerritories
p47
aVhttp://dbpedia.org/class/yago/PhysicalEntity100001930
p48
aVhttp://dbpedia.org/class/yago/YagoPermanentlyLocatedEntity
p49
aVhttp://dbpedia.org/class/yago/IslandCountries
p50
aVhttp://dbpedia.org/class/yago/MemberStatesOfTheAssociationOfSoutheastAsianNations
p51
aVhttp://dbpedia.org/class/yago/MemberStatesOfTheUnitedNations
p52
aVhttp://dbpedia.org/class/yago/SoutheastAsianCountries
p53
aVhttp://dbpedia.org/class/yago/StatesAndTerritoriesEstablishedIn1565
p54
aVhttp://dbpedia.org/class/yago/StatesAndTerritoriesEstablishedIn1898
p55
aVhttp://dbpedia.org/class/yago/StatesAndTerritoriesEstablishedIn1946
p56
aVhttp://dbpedia.org/class/yago/VolcanicArcIslands
p57
aVhttp://dbpedia.org/class/yago/WorldTradeOrganizationMemberEconomies
p58
aVhttp://dbpedia.org/resource/Philippines
tp59
aa(lp60
a(lp61
aa(lp62
(lp63
a(lp64
((lp65
Vhttp://www.w3.org/2002/07/owl#Thing
p66
aVhttp://dbpedia.org/ontology/Place
p67
aVhttp://dbpedia.org/ontology/Location
p68
aVhttp://www.wikidata.org/entity/Q3957
p69
aVhttp://www.wikidata.org/entity/Q486972
p70
aVhttp://dbpedia.org/ontology/PopulatedPlace
p71
aVhttp://dbpedia.org/ontology/Settlement
p72
aVhttp://dbpedia.org/ontology/Town
p73
aVhttp://www.w3.org/2003/01/geo/wgs84_pos#SpatialThing
p74
aVhttp://schema.org/Place
p75
aVhttp://umbel.org/umbel/rc/Town
p76
aVhttp://dbpedia.org/class/yago/AdministrativeDistrict108491826
p77
aVhttp://dbpedia.org/class/yago/Area108497294
p78
aVhttp://dbpedia.org/class/yago/Center108523483
p79
aVhttp://dbpedia.org/class/yago/District108552138
p80
aVhttp://dbpedia.org/class/yago/Location100027167
p81
aVhttp://dbpedia.org/class/yago/Object100002684
p82
aVhttp://dbpedia.org/class/yago/Region108630985
p83
aVhttp://dbpedia.org/class/yago/Seat108647945
p84
aVhttp://dbpedia.org/class/yago/Site108651247
p85
aVhttp://dbpedia.org/class/yago/Town108665504
p86
aVhttp://dbpedia.org/class/yago/Tract108673395
p87
aVhttp://dbpedia.org/class/yago/UrbanArea108675967
p88
aVhttp://dbpedia.org/class/yago/YagoGeoEntity
p89
aVhttp://dbpedia.org/class/yago/YagoLegalActorGeo
p90
aVhttp://dbpedia.org/class/yago/CountySeat108547143
p91
aVhttp://dbpedia.org/class/yago/CountySeatsInIndiana
p92
aVhttp://dbpedia.org/class/yago/GeographicalArea108574314
p93
aVhttp://dbpedia.org/class/yago/Municipality108626283
p94
aVhttp://dbpedia.org/class/yago/PhysicalEntity100001930
p95
aVhttp://dbpedia.org/class/yago/YagoPermanentlyLocatedEntity
p96
aVhttp://dbpedia.org/class/yago/PopulatedPlacesInCrawfordCounty,Indiana
p97
aVhttp://dbpedia.org/class/yago/TownsInIndiana
p98
aVhttp://dbpedia.org/resource/English,_Indiana
tp99
aa(lp100
a(lp101
a(lp102
aa(lp103
(lp104
a(lp105
((lp106
Vhttp://www.w3.org/2002/07/owl#Thing
p107
aVhttp://dbpedia.org/ontology/Place
p108
aVhttp://dbpedia.org/ontology/Location
p109
aVhttp://www.wikidata.org/entity/Q3957
p110
aVhttp://www.wikidata.org/entity/Q486972
p111
aVhttp://dbpedia.org/ontology/PopulatedPlace
p112
aVhttp://dbpedia.org/ontology/Settlement
p113
aVhttp://dbpedia.org/ontology/Town
p114
aVhttp://www.w3.org/2003/01/geo/wgs84_pos#SpatialThing
p115
aVhttp://schema.org/Place
p116
aVhttp://dbpedia.org/class/yago/AdministrativeDistrict108491826
p117
aVhttp://dbpedia.org/class/yago/District108552138
p118
aVhttp://dbpedia.org/class/yago/Location100027167
p119
aVhttp://dbpedia.org/class/yago/Object100002684
p120
aVhttp://dbpedia.org/class/yago/Region108630985
p121
aVhttp://dbpedia.org/class/yago/Town108665504
p122
aVhttp://dbpedia.org/class/yago/UrbanArea108675967
p123
aVhttp://dbpedia.org/class/yago/YagoGeoEntity
p124
aVhttp://dbpedia.org/class/yago/YagoLegalActorGeo
p125
aVhttp://dbpedia.org/class/yago/GeographicalArea108574314
p126
aVhttp://dbpedia.org/class/yago/Municipality108626283
p127
aVhttp://dbpedia.org/class/yago/PhysicalEntity100001930
p128
aVhttp://dbpedia.org/class/yago/YagoPermanentlyLocatedEntity
p129
aVhttp://dbpedia.org/class/yago/MunicipalitiesInAlgomaDistrict
p130
aVhttp://dbpedia.org/class/yago/TownsInOntario
p131
aVhttp://dbpedia.org/resource/Spanish,_Ontario
tp132
aa(lp133
a(lp134
a(lp135
aa(lp136
(lp137
a(lp138
((lp139
Vhttp://www.w3.org/2002/07/owl#Thing
p140
aVhttp://dbpedia.org/ontology/Place
p141
aVhttp://dbpedia.org/ontology/Location
p142
aVhttp://www.wikidata.org/entity/Q3957
p143
aVhttp://www.wikidata.org/entity/Q486972
p144
aVhttp://dbpedia.org/ontology/PopulatedPlace
p145
aVhttp://dbpedia.org/ontology/Settlement
p146
aVhttp://dbpedia.org/ontology/Town
p147
aVhttp://www.w3.org/2003/01/geo/wgs84_pos#SpatialThing
p148
aVhttp://schema.org/Place
p149
aVhttp://umbel.org/umbel/rc/Town
p150
aVhttp://dbpedia.org/class/yago/AdministrativeDistrict108491826
p151
aVhttp://dbpedia.org/class/yago/Area108497294
p152
aVhttp://dbpedia.org/class/yago/Center108523483
p153
aVhttp://dbpedia.org/class/yago/District108552138
p154
aVhttp://dbpedia.org/class/yago/Location100027167
p155
aVhttp://dbpedia.org/class/yago/Object100002684
p156
aVhttp://dbpedia.org/class/yago/Region108630985
p157
aVhttp://dbpedia.org/class/yago/Seat108647945
p158
aVhttp://dbpedia.org/class/yago/Site108651247
p159
aVhttp://dbpedia.org/class/yago/Town108665504
p160
aVhttp://dbpedia.org/class/yago/Tract108673395
p161
aVhttp://dbpedia.org/class/yago/UrbanArea108675967
p162
aVhttp://dbpedia.org/class/yago/YagoGeoEntity
p163
aVhttp://dbpedia.org/class/yago/YagoLegalActorGeo
p164
aVhttp://dbpedia.org/class/yago/CountySeat108547143
p165
aVhttp://dbpedia.org/class/yago/CountySeatsInIndiana
p166
aVhttp://dbpedia.org/class/yago/GeographicalArea108574314
p167
aVhttp://dbpedia.org/class/yago/Municipality108626283
p168
aVhttp://dbpedia.org/class/yago/PhysicalEntity100001930
p169
aVhttp://dbpedia.org/class/yago/YagoPermanentlyLocatedEntity
p170
aVhttp://dbpedia.org/class/yago/PopulatedPlacesInCrawfordCounty,Indiana
p171
aVhttp://dbpedia.org/class/yago/TownsInIndiana
p172
aVhttp://dbpedia.org/resource/English,_Indiana
tp173
aa(lp174
a(lp175
a(lp176
aa(lp177
(lp178
a(lp179
((lp180
Vhttp://www.w3.org/2002/07/owl#Thing
p181
aVhttp://dbpedia.org/ontology/Place
p182
aVhttp://dbpedia.org/ontology/Location
p183
aVhttp://www.wikidata.org/entity/Q3957
p184
aVhttp://www.wikidata.org/entity/Q486972
p185
aVhttp://dbpedia.org/ontology/PopulatedPlace
p186
aVhttp://dbpedia.org/ontology/Settlement
p187
aVhttp://dbpedia.org/ontology/Town
p188
aVhttp://www.w3.org/2003/01/geo/wgs84_pos#SpatialThing
p189
aVhttp://schema.org/Place
p190
aVhttp://umbel.org/umbel/rc/Town
p191
aVhttp://dbpedia.org/class/yago/AdministrativeDistrict108491826
p192
aVhttp://dbpedia.org/class/yago/Area108497294
p193
aVhttp://dbpedia.org/class/yago/Center108523483
p194
aVhttp://dbpedia.org/class/yago/District108552138
p195
aVhttp://dbpedia.org/class/yago/Location100027167
p196
aVhttp://dbpedia.org/class/yago/Object100002684
p197
aVhttp://dbpedia.org/class/yago/Region108630985
p198
aVhttp://dbpedia.org/class/yago/Seat108647945
p199
aVhttp://dbpedia.org/class/yago/Site108651247
p200
aVhttp://dbpedia.org/class/yago/Town108665504
p201
aVhttp://dbpedia.org/class/yago/Tract108673395
p202
aVhttp://dbpedia.org/class/yago/UrbanArea108675967
p203
aVhttp://dbpedia.org/class/yago/YagoGeoEntity
p204
aVhttp://dbpedia.org/class/yago/YagoLegalActorGeo
p205
aVhttp://dbpedia.org/class/yago/CountySeat108547143
p206
aVhttp://dbpedia.org/class/yago/CountySeatsInIndiana
p207
aVhttp://dbpedia.org/class/yago/GeographicalArea108574314
p208
aVhttp://dbpedia.org/class/yago/Municipality108626283
p209
aVhttp://dbpedia.org/class/yago/PhysicalEntity100001930
p210
aVhttp://dbpedia.org/class/yago/YagoPermanentlyLocatedEntity
p211
aVhttp://dbpedia.org/class/yago/PopulatedPlacesInCrawfordCounty,Indiana
p212
aVhttp://dbpedia.org/class/yago/TownsInIndiana
p213
aVhttp://dbpedia.org/resource/English,_Indiana
tp214
aa(lp215
a(lp216
a(lp217
aa(lp218
(lp219
a(lp220
((lp221
Vhttp://www.w3.org/2002/07/owl#Thing
p222
aVhttp://dbpedia.org/ontology/Place
p223
aVhttp://dbpedia.org/ontology/Location
p224
aVhttp://www.wikidata.org/entity/Q3957
p225
aVhttp://www.wikidata.org/entity/Q486972
p226
aVhttp://dbpedia.org/ontology/PopulatedPlace
p227
aVhttp://dbpedia.org/ontology/Settlement
p228
aVhttp://dbpedia.org/ontology/Town
p229
aVhttp://www.w3.org/2003/01/geo/wgs84_pos#SpatialThing
p230
aVhttp://schema.org/Place
p231
aVhttp://dbpedia.org/class/yago/AdministrativeDistrict108491826
p232
aVhttp://dbpedia.org/class/yago/District108552138
p233
aVhttp://dbpedia.org/class/yago/Location100027167
p234
aVhttp://dbpedia.org/class/yago/Object100002684
p235
aVhttp://dbpedia.org/class/yago/Region108630985
p236
aVhttp://dbpedia.org/class/yago/Town108665504
p237
aVhttp://dbpedia.org/class/yago/UrbanArea108675967
p238
aVhttp://dbpedia.org/class/yago/YagoGeoEntity
p239
aVhttp://dbpedia.org/class/yago/YagoLegalActorGeo
p240
aVhttp://dbpedia.org/class/yago/GeographicalArea108574314
p241
aVhttp://dbpedia.org/class/yago/Municipality108626283
p242
aVhttp://dbpedia.org/class/yago/PhysicalEntity100001930
p243
aVhttp://dbpedia.org/class/yago/YagoPermanentlyLocatedEntity
p244
aVhttp://dbpedia.org/class/yago/MunicipalitiesInAlgomaDistrict
p245
aVhttp://dbpedia.org/class/yago/TownsInOntario
p246
aVhttp://dbpedia.org/resource/Spanish,_Ontario
tp247
aa(lp248
a(lp249
a(lp250
aa(lp251
(lp252
a(lp253
((lp254
Vhttp://www.w3.org/2002/07/owl#Thing
p255
aVhttp://dbpedia.org/ontology/Place
p256
aVhttp://dbpedia.org/ontology/Location
p257
aVhttp://www.wikidata.org/entity/Q3957
p258
aVhttp://www.wikidata.org/entity/Q486972
p259
aVhttp://dbpedia.org/ontology/PopulatedPlace
p260
aVhttp://dbpedia.org/ontology/Settlement
p261
aVhttp://dbpedia.org/ontology/Town
p262
aVhttp://www.w3.org/2003/01/geo/wgs84_pos#SpatialThing
p263
aVhttp://schema.org/Place
p264
aVhttp://umbel.org/umbel/rc/Town
p265
aVhttp://dbpedia.org/class/yago/AdministrativeDistrict108491826
p266
aVhttp://dbpedia.org/class/yago/Area108497294
p267
aVhttp://dbpedia.org/class/yago/Center108523483
p268
aVhttp://dbpedia.org/class/yago/District108552138
p269
aVhttp://dbpedia.org/class/yago/Location100027167
p270
aVhttp://dbpedia.org/class/yago/Object100002684
p271
aVhttp://dbpedia.org/class/yago/Region108630985
p272
aVhttp://dbpedia.org/class/yago/Seat108647945
p273
aVhttp://dbpedia.org/class/yago/Site108651247
p274
aVhttp://dbpedia.org/class/yago/Town108665504
p275
aVhttp://dbpedia.org/class/yago/Tract108673395
p276
aVhttp://dbpedia.org/class/yago/UrbanArea108675967
p277
aVhttp://dbpedia.org/class/yago/YagoGeoEntity
p278
aVhttp://dbpedia.org/class/yago/YagoLegalActorGeo
p279
aVhttp://dbpedia.org/class/yago/CountySeat108547143
p280
aVhttp://dbpedia.org/class/yago/CountySeatsInIndiana
p281
aVhttp://dbpedia.org/class/yago/GeographicalArea108574314
p282
aVhttp://dbpedia.org/class/yago/Municipality108626283
p283
aVhttp://dbpedia.org/class/yago/PhysicalEntity100001930
p284
aVhttp://dbpedia.org/class/yago/YagoPermanentlyLocatedEntity
p285
aVhttp://dbpedia.org/class/yago/PopulatedPlacesInCrawfordCounty,Indiana
p286
aVhttp://dbpedia.org/class/yago/TownsInIndiana
p287
aVhttp://dbpedia.org/resource/English,_Indiana
tp288
aa(lp289
a(lp290
a(lp291
aa(lp292
(lp293
a(lp294
((lp295
Vhttp://www.w3.org/2002/07/owl#Thing
p296
aVhttp://dbpedia.org/ontology/Place
p297
aVhttp://dbpedia.org/ontology/Location
p298
aVhttp://www.wikidata.org/entity/Q4022
p299
aVhttp://www.wikidata.org/entity/Q47521
p300
aVhttp://dbpedia.org/ontology/BodyOfWater
p301
aVhttp://dbpedia.org/ontology/NaturalPlace
p302
aVhttp://dbpedia.org/ontology/River
p303
aVhttp://dbpedia.org/ontology/Stream
p304
aVhttp://schema.org/BodyOfWater
p305
aVhttp://schema.org/Place
p306
aVhttp://schema.org/RiverBodyOfWater
p307
aVhttp://umbel.org/umbel/rc/BodyOfWater
p308
aVhttp://umbel.org/umbel/rc/River
p309
aVhttp://umbel.org/umbel/rc/Stream
p310
aVhttp://dbpedia.org/class/yago/BodyOfWater109225146
p311
aVhttp://dbpedia.org/class/yago/Branch109228324
p312
aVhttp://dbpedia.org/class/yago/CanadianHeritageRivers
p313
aVhttp://dbpedia.org/class/yago/River109411430
p314
aVhttp://dbpedia.org/class/yago/Stream109448361
p315
aVhttp://dbpedia.org/class/yago/Thing100002452
p316
aVhttp://dbpedia.org/class/yago/YagoGeoEntity
p317
aVhttp://dbpedia.org/class/yago/Feeder109278997
p318
aVhttp://dbpedia.org/class/yago/PhysicalEntity100001930
p319
aVhttp://dbpedia.org/class/yago/YagoPermanentlyLocatedEntity
p320
aVhttp://dbpedia.org/class/yago/RiversOfOntario
p321
aVhttp://dbpedia.org/class/yago/TributariesOfLakeHuron
p322
aVhttp://dbpedia.org/resource/French_River_(Ontario)
tp323
aa(lp324
a(lp325
a(lp326
aa(lp327
(lp328
a(lp329
((lp330
Vhttp://www.w3.org/2002/07/owl#Thing
p331
aVhttp://dbpedia.org/ontology/Place
p332
aVhttp://dbpedia.org/ontology/Location
p333
aVhttp://www.wikidata.org/entity/Q3957
p334
aVhttp://www.wikidata.org/entity/Q486972
p335
aVhttp://dbpedia.org/ontology/PopulatedPlace
p336
aVhttp://dbpedia.org/ontology/Settlement
p337
aVhttp://dbpedia.org/ontology/Town
p338
aVhttp://www.w3.org/2003/01/geo/wgs84_pos#SpatialThing
p339
aVhttp://schema.org/Place
p340
aVhttp://umbel.org/umbel/rc/Town
p341
aVhttp://dbpedia.org/class/yago/AdministrativeDistrict108491826
p342
aVhttp://dbpedia.org/class/yago/Area108497294
p343
aVhttp://dbpedia.org/class/yago/Center108523483
p344
aVhttp://dbpedia.org/class/yago/District108552138
p345
aVhttp://dbpedia.org/class/yago/Location100027167
p346
aVhttp://dbpedia.org/class/yago/Object100002684
p347
aVhttp://dbpedia.org/class/yago/Region108630985
p348
aVhttp://dbpedia.org/class/yago/Seat108647945
p349
aVhttp://dbpedia.org/class/yago/Site108651247
p350
aVhttp://dbpedia.org/class/yago/Town108665504
p351
aVhttp://dbpedia.org/class/yago/Tract108673395
p352
aVhttp://dbpedia.org/class/yago/UrbanArea108675967
p353
aVhttp://dbpedia.org/class/yago/YagoGeoEntity
p354
aVhttp://dbpedia.org/class/yago/YagoLegalActorGeo
p355
aVhttp://dbpedia.org/class/yago/CountySeat108547143
p356
aVhttp://dbpedia.org/class/yago/CountySeatsInIndiana
p357
aVhttp://dbpedia.org/class/yago/GeographicalArea108574314
p358
aVhttp://dbpedia.org/class/yago/Municipality108626283
p359
aVhttp://dbpedia.org/class/yago/PhysicalEntity100001930
p360
aVhttp://dbpedia.org/class/yago/YagoPermanentlyLocatedEntity
p361
aVhttp://dbpedia.org/class/yago/PopulatedPlacesInCrawfordCounty,Indiana
p362
aVhttp://dbpedia.org/class/yago/TownsInIndiana
p363
aVhttp://dbpedia.org/resource/English,_Indiana
tp364
aa(lp365
a(lp366
a(lp367
aa(lp368
(lp369
a(lp370
((lp371
Vhttp://www.w3.org/2002/07/owl#Thing
p372
aVhttp://dbpedia.org/ontology/Place
p373
aVhttp://dbpedia.org/ontology/Location
p374
aVhttp://www.wikidata.org/entity/Q4022
p375
aVhttp://www.wikidata.org/entity/Q47521
p376
aVhttp://dbpedia.org/ontology/BodyOfWater
p377
aVhttp://dbpedia.org/ontology/NaturalPlace
p378
aVhttp://dbpedia.org/ontology/River
p379
aVhttp://dbpedia.org/ontology/Stream
p380
aVhttp://schema.org/BodyOfWater
p381
aVhttp://schema.org/Place
p382
aVhttp://schema.org/RiverBodyOfWater
p383
aVhttp://umbel.org/umbel/rc/BodyOfWater
p384
aVhttp://umbel.org/umbel/rc/River
p385
aVhttp://umbel.org/umbel/rc/Stream
p386
aVhttp://dbpedia.org/class/yago/BodyOfWater109225146
p387
aVhttp://dbpedia.org/class/yago/Branch109228324
p388
aVhttp://dbpedia.org/class/yago/CanadianHeritageRivers
p389
aVhttp://dbpedia.org/class/yago/River109411430
p390
aVhttp://dbpedia.org/class/yago/Stream109448361
p391
aVhttp://dbpedia.org/class/yago/Thing100002452
p392
aVhttp://dbpedia.org/class/yago/YagoGeoEntity
p393
aVhttp://dbpedia.org/class/yago/Feeder109278997
p394
aVhttp://dbpedia.org/class/yago/PhysicalEntity100001930
p395
aVhttp://dbpedia.org/class/yago/YagoPermanentlyLocatedEntity
p396
aVhttp://dbpedia.org/class/yago/RiversOfOntario
p397
aVhttp://dbpedia.org/class/yago/TributariesOfLakeHuron
p398
aVhttp://dbpedia.org/resource/French_River_(Ontario)
tp399
aa(lp400
a(lp401
a(lp402
aa(lp403
(lp404
a(lp405
((lp406
Vhttp://www.w3.org/2002/07/owl#Thing
p407
aVhttp://dbpedia.org/ontology/Place
p408
aVhttp://dbpedia.org/ontology/Location
p409
aVhttp://www.wikidata.org/entity/Q3957
p410
aVhttp://www.wikidata.org/entity/Q486972
p411
aVhttp://dbpedia.org/ontology/PopulatedPlace
p412
aVhttp://dbpedia.org/ontology/Settlement
p413
aVhttp://dbpedia.org/ontology/Town
p414
aVhttp://www.w3.org/2003/01/geo/wgs84_pos#SpatialThing
p415
aVhttp://schema.org/Place
p416
aVhttp://dbpedia.org/class/yago/AdministrativeDistrict108491826
p417
aVhttp://dbpedia.org/class/yago/District108552138
p418
aVhttp://dbpedia.org/class/yago/Location100027167
p419
aVhttp://dbpedia.org/class/yago/Object100002684
p420
aVhttp://dbpedia.org/class/yago/Region108630985
p421
aVhttp://dbpedia.org/class/yago/Town108665504
p422
aVhttp://dbpedia.org/class/yago/UrbanArea108675967
p423
aVhttp://dbpedia.org/class/yago/YagoGeoEntity
p424
aVhttp://dbpedia.org/class/yago/YagoLegalActorGeo
p425
aVhttp://dbpedia.org/class/yago/GeographicalArea108574314
p426
aVhttp://dbpedia.org/class/yago/Municipality108626283
p427
aVhttp://dbpedia.org/class/yago/PhysicalEntity100001930
p428
aVhttp://dbpedia.org/class/yago/YagoPermanentlyLocatedEntity
p429
aVhttp://dbpedia.org/class/yago/MunicipalitiesInAlgomaDistrict
p430
aVhttp://dbpedia.org/class/yago/TownsInOntario
p431
aVhttp://dbpedia.org/resource/Spanish,_Ontario
tp432
aa(lp433
a(lp434
a(lp435
aa(lp436
(lp437
a(lp438
((lp439
Vhttp://dbpedia.org/class/yago/Abstraction100002137
p440
aVhttp://dbpedia.org/class/yago/Name106333653
p441
aVhttp://dbpedia.org/class/yago/Part113809207
p442
aVhttp://dbpedia.org/class/yago/Relation100031921
p443
aVhttp://dbpedia.org/class/yago/TradeName106845599
p444
aVhttp://dbpedia.org/class/yago/LanguageUnit106284225
p445
aVhttp://dbpedia.org/class/yago/KraftFoodsBrands
p446
aVhttp://dbpedia.org/class/yago/UnitedBiscuitsBrands
p447
aVhttp://dbpedia.org/resource/Filipinos_(snack_food)
tp448
aa(lp449
((lp450
Vhttp://www.w3.org/2002/07/owl#Thing
p451
aVhttp://dbpedia.org/ontology/Place
p452
aVhttp://dbpedia.org/ontology/Location
p453
aVhttp://www.wikidata.org/entity/Q486972
p454
aVhttp://www.wikidata.org/entity/Q6256
p455
aVhttp://dbpedia.org/ontology/Country
p456
aVhttp://dbpedia.org/ontology/PopulatedPlace
p457
aVhttp://www.w3.org/2003/01/geo/wgs84_pos#SpatialThing
p458
aVhttp://schema.org/Country
p459
aVhttp://schema.org/Place
p460
aVhttp://umbel.org/umbel/rc/Country
p461
aVhttp://umbel.org/umbel/rc/Location_Underspecified
p462
aVhttp://umbel.org/umbel/rc/PopulatedPlace
p463
aVhttp://dbpedia.org/class/yago/Abstraction100002137
p464
aVhttp://dbpedia.org/class/yago/AdministrativeDistrict108491826
p465
aVhttp://dbpedia.org/class/yago/Country108544813
p466
aVhttp://dbpedia.org/class/yago/District108552138
p467
aVhttp://dbpedia.org/class/yago/Economy108366753
p468
aVhttp://dbpedia.org/class/yago/Group100031264
p469
aVhttp://dbpedia.org/class/yago/Island109316454
p470
aVhttp://dbpedia.org/class/yago/Land109334396
p471
aVhttp://dbpedia.org/class/yago/Location100027167
p472
aVhttp://dbpedia.org/class/yago/Object100002684
p473
aVhttp://dbpedia.org/class/yago/Region108630985
p474
aVhttp://dbpedia.org/class/yago/System108435388
p475
aVhttp://dbpedia.org/class/yago/YagoGeoEntity
p476
aVhttp://dbpedia.org/class/yago/YagoLegalActorGeo
p477
aVhttp://dbpedia.org/class/yago/CountriesBorderingThePacificOcean
p478
aVhttp://dbpedia.org/class/yago/CountriesBorderingThePhilippineSea
p479
aVhttp://dbpedia.org/class/yago/CountriesBorderingTheSouthChinaSea
p480
aVhttp://dbpedia.org/class/yago/English-speakingCountriesAndTerritories
p481
aVhttp://dbpedia.org/class/yago/PhysicalEntity100001930
p482
aVhttp://dbpedia.org/class/yago/YagoPermanentlyLocatedEntity
p483
aVhttp://dbpedia.org/class/yago/IslandCountries
p484
aVhttp://dbpedia.org/class/yago/MemberStatesOfTheAssociationOfSoutheastAsianNations
p485
aVhttp://dbpedia.org/class/yago/MemberStatesOfTheUnitedNations
p486
aVhttp://dbpedia.org/class/yago/SoutheastAsianCountries
p487
aVhttp://dbpedia.org/class/yago/StatesAndTerritoriesEstablishedIn1565
p488
aVhttp://dbpedia.org/class/yago/StatesAndTerritoriesEstablishedIn1898
p489
aVhttp://dbpedia.org/class/yago/StatesAndTerritoriesEstablishedIn1946
p490
aVhttp://dbpedia.org/class/yago/VolcanicArcIslands
p491
aVhttp://dbpedia.org/class/yago/WorldTradeOrganizationMemberEconomies
p492
aVhttp://dbpedia.org/resource/Philippines
tp493
aa(lp494
a(lp495
aa(lp496
(lp497
((lVhttp://dbpedia.org/resource/Jack-in-the-box
tp498
aa(lp499
((lp500
Vhttp://www.w3.org/2002/07/owl#Thing
p501
aVhttp://dbpedia.org/ontology/Place
p502
aVhttp://dbpedia.org/ontology/Location
p503
aVhttp://www.wikidata.org/entity/Q3957
p504
aVhttp://www.wikidata.org/entity/Q486972
p505
aVhttp://dbpedia.org/ontology/PopulatedPlace
p506
aVhttp://dbpedia.org/ontology/Settlement
p507
aVhttp://dbpedia.org/ontology/Town
p508
aVhttp://www.w3.org/2003/01/geo/wgs84_pos#SpatialThing
p509
aVhttp://schema.org/Place
p510
aVhttp://umbel.org/umbel/rc/Town
p511
aVhttp://dbpedia.org/class/yago/AdministrativeDistrict108491826
p512
aVhttp://dbpedia.org/class/yago/Area108497294
p513
aVhttp://dbpedia.org/class/yago/Center108523483
p514
aVhttp://dbpedia.org/class/yago/District108552138
p515
aVhttp://dbpedia.org/class/yago/Location100027167
p516
aVhttp://dbpedia.org/class/yago/Object100002684
p517
aVhttp://dbpedia.org/class/yago/Region108630985
p518
aVhttp://dbpedia.org/class/yago/Seat108647945
p519
aVhttp://dbpedia.org/class/yago/Site108651247
p520
aVhttp://dbpedia.org/class/yago/Town108665504
p521
aVhttp://dbpedia.org/class/yago/Tract108673395
p522
aVhttp://dbpedia.org/class/yago/UrbanArea108675967
p523
aVhttp://dbpedia.org/class/yago/YagoGeoEntity
p524
aVhttp://dbpedia.org/class/yago/YagoLegalActorGeo
p525
aVhttp://dbpedia.org/class/yago/CountySeat108547143
p526
aVhttp://dbpedia.org/class/yago/CountySeatsInIndiana
p527
aVhttp://dbpedia.org/class/yago/GeographicalArea108574314
p528
aVhttp://dbpedia.org/class/yago/Municipality108626283
p529
aVhttp://dbpedia.org/class/yago/PhysicalEntity100001930
p530
aVhttp://dbpedia.org/class/yago/YagoPermanentlyLocatedEntity
p531
aVhttp://dbpedia.org/class/yago/PopulatedPlacesInCrawfordCounty,Indiana
p532
aVhttp://dbpedia.org/class/yago/TownsInIndiana
p533
aVhttp://dbpedia.org/resource/English,_Indiana
tp534
aa(lp535
a(lp536
a(lp537
aa(lp538
(lp539
a(lp540
a(lp541
a(lp542
a(lp543
aa(lp544
(lp545
a(lp546
a(lp547
((lp548
Vhttp://www.w3.org/2002/07/owl#Thing
p549
aVhttp://dbpedia.org/ontology/Place
p550
aVhttp://dbpedia.org/ontology/Location
p551
aVhttp://www.wikidata.org/entity/Q486972
p552
aVhttp://dbpedia.org/ontology/PopulatedPlace
p553
aVhttp://dbpedia.org/ontology/Settlement
p554
aVhttp://www.w3.org/2003/01/geo/wgs84_pos#SpatialThing
p555
aVhttp://schema.org/Place
p556
aVhttp://dbpedia.org/class/yago/AdministrativeDistrict108491826
p557
aVhttp://dbpedia.org/class/yago/Country108544813
p558
aVhttp://dbpedia.org/class/yago/District108552138
p559
aVhttp://dbpedia.org/class/yago/Island109316454
p560
aVhttp://dbpedia.org/class/yago/Land109334396
p561
aVhttp://dbpedia.org/class/yago/Location100027167
p562
aVhttp://dbpedia.org/class/yago/Object100002684
p563
aVhttp://dbpedia.org/class/yago/Region108630985
p564
aVhttp://dbpedia.org/class/yago/YagoGeoEntity
p565
aVhttp://dbpedia.org/class/yago/YagoLegalActorGeo
p566
aVhttp://dbpedia.org/class/yago/PhysicalEntity100001930
p567
aVhttp://dbpedia.org/class/yago/YagoPermanentlyLocatedEntity
p568
aVhttp://dbpedia.org/class/yago/IslandsOfKosrae
p569
aVhttp://dbpedia.org/class/yago/StatesOfTheFederatedStatesOfMicronesia
p570
aVhttp://dbpedia.org/resource/Kosrae
tp571
aa(lp572
a(lp573
aa(lp574
(lp575
a(lp576
((lp577
Vhttp://www.w3.org/2002/07/owl#Thing
p578
aVhttp://xmlns.com/foaf/0.1/Person
p579
aVhttp://dbpedia.org/ontology/Person
p580
aVhttp://www.ontologydesignpatterns.org/ont/dul/DUL.owl#Agent
p581
aVhttp://www.ontologydesignpatterns.org/ont/dul/DUL.owl#NaturalPerson
p582
aVhttp://www.wikidata.org/entity/Q215627
p583
aVhttp://www.wikidata.org/entity/Q5
p584
aVhttp://www.wikidata.org/entity/Q937857
p585
aVhttp://dbpedia.org/ontology/Agent
p586
aVhttp://dbpedia.org/ontology/Athlete
p587
aVhttp://dbpedia.org/ontology/SoccerPlayer
p588
aVhttp://schema.org/Person
p589
aVhttp://dbpedia.org/class/yago/Absentee109757653
p590
aVhttp://dbpedia.org/class/yago/ArgentineExpatriateFootballers
p591
aVhttp://dbpedia.org/class/yago/ArgentineExpatriatesInColombia
p592
aVhttp://dbpedia.org/class/yago/ArgentineFootballers
p593
aVhttp://dbpedia.org/class/yago/Athlete109820263
p594
aVhttp://dbpedia.org/class/yago/BocaJuniorsFootballers
p595
aVhttp://dbpedia.org/class/yago/CausalAgent100007347
p596
aVhttp://dbpedia.org/class/yago/Contestant109613191
p597
aVhttp://dbpedia.org/class/yago/Exile110071332
p598
aVhttp://dbpedia.org/class/yago/FootballPlayer110101634
p599
aVhttp://dbpedia.org/class/yago/LivingThing100004258
p600
aVhttp://dbpedia.org/class/yago/Object100002684
p601
aVhttp://dbpedia.org/class/yago/Organism100004475
p602
aVhttp://dbpedia.org/class/yago/Person100007846
p603
aVhttp://dbpedia.org/class/yago/Player110439851
p604
aVhttp://dbpedia.org/class/yago/Traveler109629752
p605
aVhttp://dbpedia.org/class/yago/Whole100003553
p606
aVhttp://dbpedia.org/class/yago/YagoLegalActorGeo
p607
aVhttp://dbpedia.org/class/yago/ClubeDeRegatasDoFlamengoPlayers
p608
aVhttp://dbpedia.org/class/yago/ExpatriateFootballersInBrazil
p609
aVhttp://dbpedia.org/class/yago/ExpatriateFootballersInColombia
p610
aVhttp://dbpedia.org/class/yago/PhysicalEntity100001930
p611
aVhttp://dbpedia.org/class/yago/IndependienteSantaFeFootballers
p612
aVhttp://dbpedia.org/class/yago/LivingPeople
p613
aVhttp://dbpedia.org/class/yago/Newell'sOldBoysFootballers
p614
aVhttp://dbpedia.org/class/yago/YagoLegalActor
p615
aVhttp://dbpedia.org/resource/Eusebio_Chamorro
tp616
aa(lp617
a(lp618
a(lp619
aa(lp620
(lp621
a(lp622
((lp623
Vhttp://www.w3.org/2002/07/owl#Thing
p624
aVhttp://xmlns.com/foaf/0.1/Person
p625
aVhttp://dbpedia.org/ontology/Person
p626
aVhttp://www.ontologydesignpatterns.org/ont/dul/DUL.owl#Agent
p627
aVhttp://www.ontologydesignpatterns.org/ont/dul/DUL.owl#NaturalPerson
p628
aVhttp://www.wikidata.org/entity/Q215627
p629
aVhttp://www.wikidata.org/entity/Q5
p630
aVhttp://www.wikidata.org/entity/Q937857
p631
aVhttp://dbpedia.org/ontology/Agent
p632
aVhttp://dbpedia.org/ontology/Athlete
p633
aVhttp://dbpedia.org/ontology/SoccerPlayer
p634
aVhttp://schema.org/Person
p635
aVhttp://dbpedia.org/class/yago/Absentee109757653
p636
aVhttp://dbpedia.org/class/yago/ArgentineExpatriateFootballers
p637
aVhttp://dbpedia.org/class/yago/ArgentineExpatriatesInColombia
p638
aVhttp://dbpedia.org/class/yago/ArgentineFootballers
p639
aVhttp://dbpedia.org/class/yago/Athlete109820263
p640
aVhttp://dbpedia.org/class/yago/BocaJuniorsFootballers
p641
aVhttp://dbpedia.org/class/yago/CausalAgent100007347
p642
aVhttp://dbpedia.org/class/yago/Contestant109613191
p643
aVhttp://dbpedia.org/class/yago/Exile110071332
p644
aVhttp://dbpedia.org/class/yago/FootballPlayer110101634
p645
aVhttp://dbpedia.org/class/yago/LivingThing100004258
p646
aVhttp://dbpedia.org/class/yago/Object100002684
p647
aVhttp://dbpedia.org/class/yago/Organism100004475
p648
aVhttp://dbpedia.org/class/yago/Person100007846
p649
aVhttp://dbpedia.org/class/yago/Player110439851
p650
aVhttp://dbpedia.org/class/yago/Traveler109629752
p651
aVhttp://dbpedia.org/class/yago/Whole100003553
p652
aVhttp://dbpedia.org/class/yago/YagoLegalActorGeo
p653
aVhttp://dbpedia.org/class/yago/ClubeDeRegatasDoFlamengoPlayers
p654
aVhttp://dbpedia.org/class/yago/ExpatriateFootballersInBrazil
p655
aVhttp://dbpedia.org/class/yago/ExpatriateFootballersInColombia
p656
aVhttp://dbpedia.org/class/yago/PhysicalEntity100001930
p657
aVhttp://dbpedia.org/class/yago/IndependienteSantaFeFootballers
p658
aVhttp://dbpedia.org/class/yago/LivingPeople
p659
aVhttp://dbpedia.org/class/yago/Newell'sOldBoysFootballers
p660
aVhttp://dbpedia.org/class/yago/YagoLegalActor
p661
aVhttp://dbpedia.org/resource/Eusebio_Chamorro
tp662
aa(lp663
((lp664
Vhttp://www.w3.org/2002/07/owl#Thing
p665
aVhttp://dbpedia.org/ontology/Place
p666
aVhttp://dbpedia.org/ontology/Location
p667
aVhttp://www.wikidata.org/entity/Q486972
p668
aVhttp://www.wikidata.org/entity/Q6256
p669
aVhttp://dbpedia.org/ontology/Country
p670
aVhttp://dbpedia.org/ontology/PopulatedPlace
p671
aVhttp://www.w3.org/2003/01/geo/wgs84_pos#SpatialThing
p672
aVhttp://schema.org/Country
p673
aVhttp://schema.org/Place
p674
aVhttp://umbel.org/umbel/rc/Country
p675
aVhttp://umbel.org/umbel/rc/Location_Underspecified
p676
aVhttp://umbel.org/umbel/rc/PopulatedPlace
p677
aVhttp://dbpedia.org/class/yago/AdministrativeDistrict108491826
p678
aVhttp://dbpedia.org/class/yago/Archipelago109203827
p679
aVhttp://dbpedia.org/class/yago/ArchipelagoesOfThePacificOcean
p680
aVhttp://dbpedia.org/class/yago/Area108497294
p681
aVhttp://dbpedia.org/class/yago/Country108544813
p682
aVhttp://dbpedia.org/class/yago/District108552138
p683
aVhttp://dbpedia.org/class/yago/Island109316454
p684
aVhttp://dbpedia.org/class/yago/Land109334396
p685
aVhttp://dbpedia.org/class/yago/Location100027167
p686
aVhttp://dbpedia.org/class/yago/Object100002684
p687
aVhttp://dbpedia.org/class/yago/Region108630985
p688
aVhttp://dbpedia.org/class/yago/Site108651247
p689
aVhttp://dbpedia.org/class/yago/Tract108673395
p690
aVhttp://dbpedia.org/class/yago/YagoGeoEntity
p691
aVhttp://dbpedia.org/class/yago/YagoLegalActorGeo
p692
aVhttp://dbpedia.org/class/yago/English-speakingCountriesAndTerritories
p693
aVhttp://dbpedia.org/class/yago/GeographicalArea108574314
p694
aVhttp://dbpedia.org/class/yago/PhysicalEntity100001930
p695
aVhttp://dbpedia.org/class/yago/YagoPermanentlyLocatedEntity
p696
aVhttp://dbpedia.org/class/yago/InsularAreasOfTheUnitedStates
p697
aVhttp://dbpedia.org/class/yago/IslandCountries
p698
aVhttp://dbpedia.org/class/yago/NorthernMarianaIslands
p699
aVhttp://dbpedia.org/class/yago/StatesAndTerritoriesEstablishedIn1898
p700
aVhttp://dbpedia.org/class/yago/WorldWarIISites
p701
aVhttp://dbpedia.org/resource/Northern_Mariana_Islands
tp702
aa(lp703
a(lp704
aa(lp705
(lp706
a(lp707
a(lp708
((lp709
Vhttp://www.w3.org/2002/07/owl#Thing
p710
aVhttp://dbpedia.org/ontology/Place
p711
aVhttp://dbpedia.org/ontology/Location
p712
aVhttp://www.wikidata.org/entity/Q23442
p713
aVhttp://www.wikidata.org/entity/Q486972
p714
aVhttp://dbpedia.org/ontology/Island
p715
aVhttp://dbpedia.org/ontology/PopulatedPlace
p716
aVhttp://schema.org/Place
p717
aVhttp://dbpedia.org/class/yago/AdministrativeDistrict108491826
p718
aVhttp://dbpedia.org/class/yago/Country108544813
p719
aVhttp://dbpedia.org/class/yago/District108552138
p720
aVhttp://dbpedia.org/class/yago/Island109316454
p721
aVhttp://dbpedia.org/class/yago/Land109334396
p722
aVhttp://dbpedia.org/class/yago/Location100027167
p723
aVhttp://dbpedia.org/class/yago/Object100002684
p724
aVhttp://dbpedia.org/class/yago/Region108630985
p725
aVhttp://dbpedia.org/class/yago/YagoGeoEntity
p726
aVhttp://dbpedia.org/class/yago/YagoLegalActorGeo
p727
aVhttp://dbpedia.org/class/yago/PhysicalEntity100001930
p728
aVhttp://dbpedia.org/class/yago/YagoPermanentlyLocatedEntity
p729
aVhttp://dbpedia.org/class/yago/IslandsOfPohnpei
p730
aVhttp://dbpedia.org/class/yago/StatesOfTheFederatedStatesOfMicronesia
p731
aVhttp://dbpedia.org/resource/Pohnpei
tp732
aa(lp733
a(lp734
aa(lp735
(lp736
a(lp737
a(lp738
((lp739
Vhttp://www.w3.org/2002/07/owl#Thing
p740
aVhttp://dbpedia.org/ontology/Place
p741
aVhttp://dbpedia.org/ontology/Location
p742
aVhttp://www.wikidata.org/entity/Q23442
p743
aVhttp://www.wikidata.org/entity/Q486972
p744
aVhttp://dbpedia.org/ontology/Island
p745
aVhttp://dbpedia.org/ontology/PopulatedPlace
p746
aVhttp://schema.org/Place
p747
aVhttp://dbpedia.org/class/yago/AdministrativeDistrict108491826
p748
aVhttp://dbpedia.org/class/yago/Country108544813
p749
aVhttp://dbpedia.org/class/yago/District108552138
p750
aVhttp://dbpedia.org/class/yago/Island109316454
p751
aVhttp://dbpedia.org/class/yago/Land109334396
p752
aVhttp://dbpedia.org/class/yago/Location100027167
p753
aVhttp://dbpedia.org/class/yago/Object100002684
p754
aVhttp://dbpedia.org/class/yago/Region108630985
p755
aVhttp://dbpedia.org/class/yago/YagoGeoEntity
p756
aVhttp://dbpedia.org/class/yago/YagoLegalActorGeo
p757
aVhttp://dbpedia.org/class/yago/PhysicalEntity100001930
p758
aVhttp://dbpedia.org/class/yago/YagoPermanentlyLocatedEntity
p759
aVhttp://dbpedia.org/class/yago/IslandsOfPohnpei
p760
aVhttp://dbpedia.org/class/yago/StatesOfTheFederatedStatesOfMicronesia
p761
aVhttp://dbpedia.org/resource/Pohnpei
p762
tp763
aa(lp764
a(lp765
aa(lp766
(lp767
a(lp768
a(lp769
a(lp770
a(lp771
aa.