(lp1
(lp2
(lp3
a(lp4
((lp5
Vhttp://www.w3.org/2003/01/geo/wgs84_pos#SpatialThing
p6
aVhttp://dbpedia.org/resource/Hartsfield\u2013Jackson_Atlanta_International_Airport
tp7
aa(lp8
a(lp9
a(lp10
a(lp11
((lVhttp://dbpedia.org/resource/Null
tp12
aa(lp13
aa(lp14
(lp15
a(lp16
((lp17
Vhttp://www.w3.org/2002/07/owl#Thing
p18
aVhttp://dbpedia.org/ontology/Place
p19
aVhttp://dbpedia.org/ontology/Location
p20
aVhttp://www.wikidata.org/entity/Q1248784
p21
aVhttp://dbpedia.org/ontology/Airport
p22
aVhttp://dbpedia.org/ontology/ArchitecturalStructure
p23
aVhttp://dbpedia.org/ontology/Infrastructure
p24
aVhttp://www.w3.org/2003/01/geo/wgs84_pos#SpatialThing
p25
aVhttp://schema.org/Airport
p26
aVhttp://schema.org/Place
p27
aVhttp://umbel.org/umbel/rc/Airport_Physical
p28
aVhttp://umbel.org/umbel/rc/Building
p29
aVhttp://umbel.org/umbel/rc/Location_Underspecified
p30
aVhttp://dbpedia.org/class/yago/Airfield102687992
p31
aVhttp://dbpedia.org/class/yago/Airport102692232
p32
aVhttp://dbpedia.org/class/yago/AirportsEstablishedIn1929
p33
aVhttp://dbpedia.org/class/yago/AirportsInTheLondonRegion
p34
aVhttp://dbpedia.org/class/yago/Artifact100021939
p35
aVhttp://dbpedia.org/class/yago/Facility103315023
p36
aVhttp://dbpedia.org/class/yago/Object100002684
p37
aVhttp://dbpedia.org/class/yago/Whole100003553
p38
aVhttp://dbpedia.org/class/yago/YagoGeoEntity
p39
aVhttp://dbpedia.org/class/yago/PhysicalEntity100001930
p40
aVhttp://dbpedia.org/class/yago/YagoPermanentlyLocatedEntity
p41
aVhttp://dbpedia.org/resource/London_Heathrow_Airport
tp42
aa(lp43
a(lp44
a(lp45
a(lp46
a(lp47
aa(lp48
(lp49
a(lp50
((lp51
Vhttp://www.w3.org/2002/07/owl#Thing
p52
aVhttp://dbpedia.org/ontology/Place
p53
aVhttp://dbpedia.org/ontology/Location
p54
aVhttp://www.wikidata.org/entity/Q1248784
p55
aVhttp://dbpedia.org/ontology/Airport
p56
aVhttp://dbpedia.org/ontology/ArchitecturalStructure
p57
aVhttp://dbpedia.org/ontology/Infrastructure
p58
aVhttp://www.w3.org/2003/01/geo/wgs84_pos#SpatialThing
p59
aVhttp://schema.org/Airport
p60
aVhttp://schema.org/Place
p61
aVhttp://umbel.org/umbel/rc/Airport_Physical
p62
aVhttp://umbel.org/umbel/rc/Building
p63
aVhttp://umbel.org/umbel/rc/Location_Underspecified
p64
aVhttp://dbpedia.org/class/yago/Artifact100021939
p65
aVhttp://dbpedia.org/class/yago/Building102913152
p66
aVhttp://dbpedia.org/class/yago/BuildingsAndStructuresCompletedIn1958
p67
aVhttp://dbpedia.org/class/yago/BuildingsAndStructuresInBeijing
p68
aVhttp://dbpedia.org/class/yago/Object100002684
p69
aVhttp://dbpedia.org/class/yago/Structure104341686
p70
aVhttp://dbpedia.org/class/yago/Whole100003553
p71
aVhttp://dbpedia.org/class/yago/YagoGeoEntity
p72
aVhttp://dbpedia.org/class/yago/PhysicalEntity100001930
p73
aVhttp://dbpedia.org/class/yago/YagoPermanentlyLocatedEntity
p74
aVhttp://dbpedia.org/class/yago/NormanFosterBuildings
p75
aVhttp://dbpedia.org/resource/Beijing_Capital_International_Airport
tp76
aa(lp77
a(lp78
a(lp79
a(lp80
a(lp81
aa(lp82
(lp83
a(lp84
((lp85
Vhttp://www.w3.org/2002/07/owl#Thing
p86
aVhttp://dbpedia.org/ontology/Place
p87
aVhttp://dbpedia.org/ontology/Location
p88
aVhttp://www.wikidata.org/entity/Q1248784
p89
aVhttp://dbpedia.org/ontology/Airport
p90
aVhttp://dbpedia.org/ontology/ArchitecturalStructure
p91
aVhttp://dbpedia.org/ontology/Infrastructure
p92
aVhttp://www.w3.org/2003/01/geo/wgs84_pos#SpatialThing
p93
aVhttp://schema.org/Airport
p94
aVhttp://schema.org/Place
p95
aVhttp://umbel.org/umbel/rc/Airport_Physical
p96
aVhttp://umbel.org/umbel/rc/Building
p97
aVhttp://umbel.org/umbel/rc/Location_Underspecified
p98
aVhttp://dbpedia.org/class/yago/Airfield102687992
p99
aVhttp://dbpedia.org/class/yago/AirfieldsOfTheUnitedStatesArmyAirForcesInIllinois
p100
aVhttp://dbpedia.org/class/yago/AirfieldsOfTheUnitedStatesArmyAirForcesTechnicalServiceCommand
p101
aVhttp://dbpedia.org/class/yago/Airport102692232
p102
aVhttp://dbpedia.org/class/yago/AirportsEstablishedIn1943
p103
aVhttp://dbpedia.org/class/yago/AirportsInIllinois
p104
aVhttp://dbpedia.org/class/yago/AirportsInTheChicagoMetropolitanArea
p105
aVhttp://dbpedia.org/class/yago/Artifact100021939
p106
aVhttp://dbpedia.org/class/yago/Facility103315023
p107
aVhttp://dbpedia.org/class/yago/Object100002684
p108
aVhttp://dbpedia.org/class/yago/Whole100003553
p109
aVhttp://dbpedia.org/class/yago/YagoGeoEntity
p110
aVhttp://dbpedia.org/class/yago/PhysicalEntity100001930
p111
aVhttp://dbpedia.org/class/yago/YagoPermanentlyLocatedEntity
p112
aVhttp://dbpedia.org/resource/O'Hare_International_Airport
tp113
aa(lp114
a(lp115
a(lp116
a(lp117
a(lp118
aa(lp119
(lp120
a(lp121
((lp122
Vhttp://www.w3.org/2002/07/owl#Thing
p123
aVhttp://dbpedia.org/ontology/Place
p124
aVhttp://dbpedia.org/ontology/Location
p125
aVhttp://www.wikidata.org/entity/Q1248784
p126
aVhttp://dbpedia.org/ontology/Airport
p127
aVhttp://dbpedia.org/ontology/ArchitecturalStructure
p128
aVhttp://dbpedia.org/ontology/Infrastructure
p129
aVhttp://www.w3.org/2003/01/geo/wgs84_pos#SpatialThing
p130
aVhttp://schema.org/Airport
p131
aVhttp://schema.org/Place
p132
aVhttp://dbpedia.org/class/yago/Airfield102687992
p133
aVhttp://dbpedia.org/class/yago/Airport102692232
p134
aVhttp://dbpedia.org/class/yago/AirportsEstablishedIn1931
p135
aVhttp://dbpedia.org/class/yago/AirportsInJapan
p136
aVhttp://dbpedia.org/class/yago/Artifact100021939
p137
aVhttp://dbpedia.org/class/yago/Facility103315023
p138
aVhttp://dbpedia.org/class/yago/Object100002684
p139
aVhttp://dbpedia.org/class/yago/Whole100003553
p140
aVhttp://dbpedia.org/class/yago/YagoGeoEntity
p141
aVhttp://dbpedia.org/class/yago/PhysicalEntity100001930
p142
aVhttp://dbpedia.org/class/yago/YagoPermanentlyLocatedEntity
p143
aVhttp://dbpedia.org/resource/Haneda_Airport
tp144
aa(lp145
a(lp146
a(lp147
a(lp148
a(lp149
aa(lp150
(lp151
a(lp152
((lp153
Vhttp://www.w3.org/2002/07/owl#Thing
p154
aVhttp://dbpedia.org/ontology/Place
p155
aVhttp://dbpedia.org/ontology/Location
p156
aVhttp://www.wikidata.org/entity/Q1248784
p157
aVhttp://dbpedia.org/ontology/Airport
p158
aVhttp://dbpedia.org/ontology/ArchitecturalStructure
p159
aVhttp://dbpedia.org/ontology/Infrastructure
p160
aVhttp://www.w3.org/2003/01/geo/wgs84_pos#SpatialThing
p161
aVhttp://schema.org/Airport
p162
aVhttp://schema.org/Place
p163
aVhttp://dbpedia.org/resource/Charles_de_Gaulle_Airport
tp164
aa(lp165
a(lp166
a(lp167
a(lp168
a(lp169
aa(lp170
(lp171
a(lp172
((lp173
Vhttp://www.w3.org/2002/07/owl#Thing
p174
aVhttp://dbpedia.org/ontology/Place
p175
aVhttp://dbpedia.org/ontology/Location
p176
aVhttp://www.wikidata.org/entity/Q1248784
p177
aVhttp://dbpedia.org/ontology/Airport
p178
aVhttp://dbpedia.org/ontology/ArchitecturalStructure
p179
aVhttp://dbpedia.org/ontology/Infrastructure
p180
aVhttp://www.w3.org/2003/01/geo/wgs84_pos#SpatialThing
p181
aVhttp://schema.org/Airport
p182
aVhttp://schema.org/Place
p183
aVhttp://umbel.org/umbel/rc/Airport_Physical
p184
aVhttp://umbel.org/umbel/rc/Building
p185
aVhttp://umbel.org/umbel/rc/Location_Underspecified
p186
aVhttp://dbpedia.org/class/yago/Airfield102687992
p187
aVhttp://dbpedia.org/class/yago/AirfieldsOfTheUnitedStatesArmyAirForcesInCalifornia
p188
aVhttp://dbpedia.org/class/yago/Airport102692232
p189
aVhttp://dbpedia.org/class/yago/AirportsEstablishedIn1930
p190
aVhttp://dbpedia.org/class/yago/AirportsInLosAngelesCounty,California
p191
aVhttp://dbpedia.org/class/yago/AirportsInTheGreaterLosAngelesArea
p192
aVhttp://dbpedia.org/class/yago/Artifact100021939
p193
aVhttp://dbpedia.org/class/yago/Facility103315023
p194
aVhttp://dbpedia.org/class/yago/Object100002684
p195
aVhttp://dbpedia.org/class/yago/Whole100003553
p196
aVhttp://dbpedia.org/class/yago/YagoGeoEntity
p197
aVhttp://dbpedia.org/class/yago/PhysicalEntity100001930
p198
aVhttp://dbpedia.org/class/yago/YagoPermanentlyLocatedEntity
p199
aVhttp://dbpedia.org/class/yago/USAAFAirTransportCommandAirfields-NorthAmerica
p200
aVhttp://dbpedia.org/resource/Los_Angeles_International_Airport
tp201
aa(lp202
a(lp203
a(lp204
a(lp205
a(lp206
aa(lp207
(lp208
a(lp209
((lp210
Vhttp://www.w3.org/2002/07/owl#Thing
p211
aVhttp://dbpedia.org/ontology/Place
p212
aVhttp://dbpedia.org/ontology/Location
p213
aVhttp://www.wikidata.org/entity/Q1248784
p214
aVhttp://dbpedia.org/ontology/Airport
p215
aVhttp://dbpedia.org/ontology/ArchitecturalStructure
p216
aVhttp://dbpedia.org/ontology/Infrastructure
p217
aVhttp://www.w3.org/2003/01/geo/wgs84_pos#SpatialThing
p218
aVhttp://schema.org/Airport
p219
aVhttp://schema.org/Place
p220
aVhttp://umbel.org/umbel/rc/Airport_Physical
p221
aVhttp://umbel.org/umbel/rc/Building
p222
aVhttp://umbel.org/umbel/rc/Location_Underspecified
p223
aVhttp://dbpedia.org/class/yago/Airfield102687992
p224
aVhttp://dbpedia.org/class/yago/Airport102692232
p225
aVhttp://dbpedia.org/class/yago/AirportsEstablishedIn1953
p226
aVhttp://dbpedia.org/class/yago/AirportsInTexas
p227
aVhttp://dbpedia.org/class/yago/AirportsInTheDallas-FortWorthMetroplex
p228
aVhttp://dbpedia.org/class/yago/Artifact100021939
p229
aVhttp://dbpedia.org/class/yago/Facility103315023
p230
aVhttp://dbpedia.org/class/yago/Location100027167
p231
aVhttp://dbpedia.org/class/yago/Object100002684
p232
aVhttp://dbpedia.org/class/yago/Park108615149
p233
aVhttp://dbpedia.org/class/yago/Region108630985
p234
aVhttp://dbpedia.org/class/yago/Tract108673395
p235
aVhttp://dbpedia.org/class/yago/Whole100003553
p236
aVhttp://dbpedia.org/class/yago/YagoGeoEntity
p237
aVhttp://dbpedia.org/class/yago/YagoLegalActorGeo
p238
aVhttp://dbpedia.org/class/yago/GeographicalArea108574314
p239
aVhttp://dbpedia.org/class/yago/PhysicalEntity100001930
p240
aVhttp://dbpedia.org/class/yago/YagoPermanentlyLocatedEntity
p241
aVhttp://dbpedia.org/resource/Dallas/Fort_Worth_International_Airport
tp242
aa(lp243
a(lp244
a(lp245
a(lp246
a(lp247
aa(lp248
(lp249
a(lp250
((lp251
Vhttp://www.w3.org/2002/07/owl#Thing
p252
aVhttp://dbpedia.org/ontology/Place
p253
aVhttp://dbpedia.org/ontology/Location
p254
aVhttp://www.wikidata.org/entity/Q1248784
p255
aVhttp://dbpedia.org/ontology/Airport
p256
aVhttp://dbpedia.org/ontology/ArchitecturalStructure
p257
aVhttp://dbpedia.org/ontology/Infrastructure
p258
aVhttp://www.w3.org/2003/01/geo/wgs84_pos#SpatialThing
p259
aVhttp://schema.org/Airport
p260
aVhttp://schema.org/Place
p261
aVhttp://umbel.org/umbel/rc/Airport_Physical
p262
aVhttp://umbel.org/umbel/rc/Building
p263
aVhttp://umbel.org/umbel/rc/Location_Underspecified
p264
aVhttp://dbpedia.org/class/yago/Airfield102687992
p265
aVhttp://dbpedia.org/class/yago/Airport102692232
p266
aVhttp://dbpedia.org/class/yago/AirportsInGermany
p267
aVhttp://dbpedia.org/class/yago/Artifact100021939
p268
aVhttp://dbpedia.org/class/yago/Facility103315023
p269
aVhttp://dbpedia.org/class/yago/Object100002684
p270
aVhttp://dbpedia.org/class/yago/Whole100003553
p271
aVhttp://dbpedia.org/class/yago/YagoGeoEntity
p272
aVhttp://dbpedia.org/class/yago/PhysicalEntity100001930
p273
aVhttp://dbpedia.org/class/yago/YagoPermanentlyLocatedEntity
p274
aVhttp://dbpedia.org/resource/Frankfurt_Airport
tp275
aa(lp276
a(lp277
a(lp278
a(lp279
((lVhttp://dbpedia.org/resource/Null
tp280
aa(lp281
aa(lp282
(lp283
a(lp284
((lp285
Vhttp://www.w3.org/2002/07/owl#Thing
p286
aVhttp://dbpedia.org/ontology/Place
p287
aVhttp://dbpedia.org/ontology/Location
p288
aVhttp://www.wikidata.org/entity/Q1248784
p289
aVhttp://dbpedia.org/ontology/Airport
p290
aVhttp://dbpedia.org/ontology/ArchitecturalStructure
p291
aVhttp://dbpedia.org/ontology/Infrastructure
p292
aVhttp://www.w3.org/2003/01/geo/wgs84_pos#SpatialThing
p293
aVhttp://schema.org/Airport
p294
aVhttp://schema.org/Place
p295
aVhttp://umbel.org/umbel/rc/Airport_Physical
p296
aVhttp://umbel.org/umbel/rc/Building
p297
aVhttp://dbpedia.org/class/yago/Airfield102687992
p298
aVhttp://dbpedia.org/class/yago/Airport102692232
p299
aVhttp://dbpedia.org/class/yago/AirportsEstablishedIn1995
p300
aVhttp://dbpedia.org/class/yago/AirportsInColorado
p301
aVhttp://dbpedia.org/class/yago/Artifact100021939
p302
aVhttp://dbpedia.org/class/yago/Facility103315023
p303
aVhttp://dbpedia.org/class/yago/Object100002684
p304
aVhttp://dbpedia.org/class/yago/Structure104341686
p305
aVhttp://dbpedia.org/class/yago/Whole100003553
p306
aVhttp://dbpedia.org/class/yago/YagoGeoEntity
p307
aVhttp://dbpedia.org/class/yago/PhysicalEntity100001930
p308
aVhttp://dbpedia.org/class/yago/YagoPermanentlyLocatedEntity
p309
aVhttp://dbpedia.org/class/yago/TensileMembraneStructures
p310
aVhttp://dbpedia.org/resource/Denver_International_Airport
tp311
aa(lp312
a(lp313
a(lp314
a(lp315
((lVhttp://dbpedia.org/resource/Null
tp316
aa(lp317
aa(lp318
(lp319
a(lp320
((lVhttp://dbpedia.org/resource/Madrid\u2013Barajas_Airport
tp321
aa(lp322
a(lp323
a(lp324
a(lp325
((lVhttp://dbpedia.org/resource/Null
tp326
aa(lp327
aa(lp328
(lp329
a(lp330
((lp331
Vhttp://www.w3.org/2002/07/owl#Thing
p332
aVhttp://dbpedia.org/ontology/Place
p333
aVhttp://dbpedia.org/ontology/Location
p334
aVhttp://www.wikidata.org/entity/Q1248784
p335
aVhttp://dbpedia.org/ontology/Airport
p336
aVhttp://dbpedia.org/ontology/ArchitecturalStructure
p337
aVhttp://dbpedia.org/ontology/Infrastructure
p338
aVhttp://www.w3.org/2003/01/geo/wgs84_pos#SpatialThing
p339
aVhttp://schema.org/Airport
p340
aVhttp://schema.org/Place
p341
aVhttp://umbel.org/umbel/rc/Airport_Physical
p342
aVhttp://umbel.org/umbel/rc/Building
p343
aVhttp://umbel.org/umbel/rc/Location_Underspecified
p344
aVhttp://dbpedia.org/class/yago/Airfield102687992
p345
aVhttp://dbpedia.org/class/yago/Airport102692232
p346
aVhttp://dbpedia.org/class/yago/AirportsEstablishedIn1948
p347
aVhttp://dbpedia.org/class/yago/AirportsOnLongIsland
p348
aVhttp://dbpedia.org/class/yago/Artifact100021939
p349
aVhttp://dbpedia.org/class/yago/Facility103315023
p350
aVhttp://dbpedia.org/class/yago/Object100002684
p351
aVhttp://dbpedia.org/class/yago/Whole100003553
p352
aVhttp://dbpedia.org/class/yago/YagoGeoEntity
p353
aVhttp://dbpedia.org/class/yago/PhysicalEntity100001930
p354
aVhttp://dbpedia.org/class/yago/YagoPermanentlyLocatedEntity
p355
aVhttp://dbpedia.org/resource/John_F._Kennedy_International_Airport
tp356
aa(lp357
a(lp358
a(lp359
a(lp360
a(lp361
aa(lp362
(lp363
a(lp364
((lp365
Vhttp://www.w3.org/2002/07/owl#Thing
p366
aVhttp://dbpedia.org/ontology/Place
p367
aVhttp://dbpedia.org/ontology/Location
p368
aVhttp://www.wikidata.org/entity/Q1248784
p369
aVhttp://dbpedia.org/ontology/Airport
p370
aVhttp://dbpedia.org/ontology/ArchitecturalStructure
p371
aVhttp://dbpedia.org/ontology/Infrastructure
p372
aVhttp://www.w3.org/2003/01/geo/wgs84_pos#SpatialThing
p373
aVhttp://schema.org/Airport
p374
aVhttp://schema.org/Place
p375
aVhttp://umbel.org/umbel/rc/Airport_Physical
p376
aVhttp://umbel.org/umbel/rc/Building
p377
aVhttp://umbel.org/umbel/rc/Location_Underspecified
p378
aVhttp://dbpedia.org/class/yago/Airfield102687992
p379
aVhttp://dbpedia.org/class/yago/Airport102692232
p380
aVhttp://dbpedia.org/class/yago/AirportsEstablishedIn1998
p381
aVhttp://dbpedia.org/class/yago/AirportsInHongKong
p382
aVhttp://dbpedia.org/class/yago/Artifact100021939
p383
aVhttp://dbpedia.org/class/yago/ArtificialIslandAirports
p384
aVhttp://dbpedia.org/class/yago/Facility103315023
p385
aVhttp://dbpedia.org/class/yago/Object100002684
p386
aVhttp://dbpedia.org/class/yago/Structure104341686
p387
aVhttp://dbpedia.org/class/yago/Whole100003553
p388
aVhttp://dbpedia.org/class/yago/YagoGeoEntity
p389
aVhttp://dbpedia.org/class/yago/PhysicalEntity100001930
p390
aVhttp://dbpedia.org/class/yago/YagoPermanentlyLocatedEntity
p391
aVhttp://dbpedia.org/class/yago/LatticeShellStructures
p392
aVhttp://dbpedia.org/resource/Hong_Kong_International_Airport
tp393
aa(lp394
a(lp395
a(lp396
a(lp397
a(lp398
aa(lp399
(lp400
a(lp401
((lp402
Vhttp://www.w3.org/2002/07/owl#Thing
p403
aVhttp://dbpedia.org/ontology/Place
p404
aVhttp://dbpedia.org/ontology/Location
p405
aVhttp://www.wikidata.org/entity/Q1248784
p406
aVhttp://dbpedia.org/ontology/Airport
p407
aVhttp://dbpedia.org/ontology/ArchitecturalStructure
p408
aVhttp://dbpedia.org/ontology/Infrastructure
p409
aVhttp://www.w3.org/2003/01/geo/wgs84_pos#SpatialThing
p410
aVhttp://schema.org/Airport
p411
aVhttp://schema.org/Place
p412
aVhttp://umbel.org/umbel/rc/Airport_Physical
p413
aVhttp://umbel.org/umbel/rc/Building
p414
aVhttp://umbel.org/umbel/rc/Location_Underspecified
p415
aVhttp://dbpedia.org/class/yago/Airfield102687992
p416
aVhttp://dbpedia.org/class/yago/Airport102692232
p417
aVhttp://dbpedia.org/class/yago/AirportsEstablishedIn1916
p418
aVhttp://dbpedia.org/class/yago/AirportsInTheNetherlands
p419
aVhttp://dbpedia.org/class/yago/Artifact100021939
p420
aVhttp://dbpedia.org/class/yago/Facility103315023
p421
aVhttp://dbpedia.org/class/yago/Object100002684
p422
aVhttp://dbpedia.org/class/yago/Whole100003553
p423
aVhttp://dbpedia.org/class/yago/YagoGeoEntity
p424
aVhttp://dbpedia.org/class/yago/PhysicalEntity100001930
p425
aVhttp://dbpedia.org/class/yago/YagoPermanentlyLocatedEntity
p426
aVhttp://dbpedia.org/resource/Amsterdam_Airport_Schiphol
tp427
aa(lp428
a(lp429
a(lp430
a(lp431
((lVhttp://dbpedia.org/resource/Null
tp432
aa(lp433
aa(lp434
(lp435
a(lp436
((lp437
Vhttp://www.w3.org/2002/07/owl#Thing
p438
aVhttp://dbpedia.org/ontology/Place
p439
aVhttp://dbpedia.org/ontology/Location
p440
aVhttp://www.wikidata.org/entity/Q1248784
p441
aVhttp://dbpedia.org/ontology/Airport
p442
aVhttp://dbpedia.org/ontology/ArchitecturalStructure
p443
aVhttp://dbpedia.org/ontology/Infrastructure
p444
aVhttp://www.w3.org/2003/01/geo/wgs84_pos#SpatialThing
p445
aVhttp://schema.org/Airport
p446
aVhttp://schema.org/Place
p447
aVhttp://umbel.org/umbel/rc/Airport_Physical
p448
aVhttp://umbel.org/umbel/rc/Building
p449
aVhttp://umbel.org/umbel/rc/Location_Underspecified
p450
aVhttp://dbpedia.org/class/yago/Airfield102687992
p451
aVhttp://dbpedia.org/class/yago/Airport102692232
p452
aVhttp://dbpedia.org/class/yago/AirportsEstablishedIn1960
p453
aVhttp://dbpedia.org/class/yago/AirportsInTheUnitedArabEmirates
p454
aVhttp://dbpedia.org/class/yago/Artifact100021939
p455
aVhttp://dbpedia.org/class/yago/Facility103315023
p456
aVhttp://dbpedia.org/class/yago/Object100002684
p457
aVhttp://dbpedia.org/class/yago/Whole100003553
p458
aVhttp://dbpedia.org/class/yago/YagoGeoEntity
p459
aVhttp://dbpedia.org/class/yago/PhysicalEntity100001930
p460
aVhttp://dbpedia.org/class/yago/YagoPermanentlyLocatedEntity
p461
aVhttp://dbpedia.org/resource/Dubai_International_Airport
tp462
aa(lp463
a(lp464
a(lp465
a(lp466
a(lp467
aa(lp468
(lp469
a(lp470
((lp471
Vhttp://www.w3.org/2002/07/owl#Thing
p472
aVhttp://dbpedia.org/ontology/Place
p473
aVhttp://dbpedia.org/ontology/Location
p474
aVhttp://www.wikidata.org/entity/Q1248784
p475
aVhttp://dbpedia.org/ontology/Airport
p476
aVhttp://dbpedia.org/ontology/ArchitecturalStructure
p477
aVhttp://dbpedia.org/ontology/Infrastructure
p478
aVhttp://www.w3.org/2003/01/geo/wgs84_pos#SpatialThing
p479
aVhttp://schema.org/Airport
p480
aVhttp://schema.org/Place
p481
aVhttp://umbel.org/umbel/rc/Airport_Physical
p482
aVhttp://umbel.org/umbel/rc/Building
p483
aVhttp://umbel.org/umbel/rc/Location_Underspecified
p484
aVhttp://dbpedia.org/class/yago/Airfield102687992
p485
aVhttp://dbpedia.org/class/yago/Airport102692232
p486
aVhttp://dbpedia.org/class/yago/AirportsEstablishedIn2006
p487
aVhttp://dbpedia.org/class/yago/AirportsInThailand
p488
aVhttp://dbpedia.org/class/yago/Artifact100021939
p489
aVhttp://dbpedia.org/class/yago/Facility103315023
p490
aVhttp://dbpedia.org/class/yago/Object100002684
p491
aVhttp://dbpedia.org/class/yago/Whole100003553
p492
aVhttp://dbpedia.org/class/yago/YagoGeoEntity
p493
aVhttp://dbpedia.org/class/yago/PhysicalEntity100001930
p494
aVhttp://dbpedia.org/class/yago/YagoPermanentlyLocatedEntity
p495
aVhttp://dbpedia.org/resource/Suvarnabhumi_Airport
tp496
aa(lp497
a(lp498
a(lp499
a(lp500
a(lp501
aa(lp502
(lp503
a(lp504
((lp505
Vhttp://www.w3.org/2002/07/owl#Thing
p506
aVhttp://dbpedia.org/ontology/Place
p507
aVhttp://dbpedia.org/ontology/Location
p508
aVhttp://www.wikidata.org/entity/Q1248784
p509
aVhttp://dbpedia.org/ontology/Airport
p510
aVhttp://dbpedia.org/ontology/ArchitecturalStructure
p511
aVhttp://dbpedia.org/ontology/Infrastructure
p512
aVhttp://www.w3.org/2003/01/geo/wgs84_pos#SpatialThing
p513
aVhttp://schema.org/Airport
p514
aVhttp://schema.org/Place
p515
aVhttp://umbel.org/umbel/rc/Airport_Physical
p516
aVhttp://umbel.org/umbel/rc/Building
p517
aVhttp://umbel.org/umbel/rc/Location_Underspecified
p518
aVhttp://dbpedia.org/class/yago/Airfield102687992
p519
aVhttp://dbpedia.org/class/yago/Airport102692232
p520
aVhttp://dbpedia.org/class/yago/AirportsEstablishedIn1942
p521
aVhttp://dbpedia.org/class/yago/AirportsInClarkCounty,Nevada
p522
aVhttp://dbpedia.org/class/yago/Artifact100021939
p523
aVhttp://dbpedia.org/class/yago/Facility103315023
p524
aVhttp://dbpedia.org/class/yago/Object100002684
p525
aVhttp://dbpedia.org/class/yago/Whole100003553
p526
aVhttp://dbpedia.org/class/yago/YagoGeoEntity
p527
aVhttp://dbpedia.org/class/yago/PhysicalEntity100001930
p528
aVhttp://dbpedia.org/class/yago/YagoPermanentlyLocatedEntity
p529
aVhttp://dbpedia.org/resource/McCarran_International_Airport
tp530
aa(lp531
a(lp532
a(lp533
a(lp534
a(lp535
aa(lp536
(lp537
a(lp538
((lp539
Vhttp://www.w3.org/2002/07/owl#Thing
p540
aVhttp://dbpedia.org/ontology/Place
p541
aVhttp://dbpedia.org/ontology/Location
p542
aVhttp://www.wikidata.org/entity/Q1248784
p543
aVhttp://dbpedia.org/ontology/Airport
p544
aVhttp://dbpedia.org/ontology/ArchitecturalStructure
p545
aVhttp://dbpedia.org/ontology/Infrastructure
p546
aVhttp://www.w3.org/2003/01/geo/wgs84_pos#SpatialThing
p547
aVhttp://schema.org/Airport
p548
aVhttp://schema.org/Place
p549
aVhttp://umbel.org/umbel/rc/Airport_Physical
p550
aVhttp://umbel.org/umbel/rc/Building
p551
aVhttp://umbel.org/umbel/rc/Location_Underspecified
p552
aVhttp://dbpedia.org/class/yago/Airfield102687992
p553
aVhttp://dbpedia.org/class/yago/Airport102692232
p554
aVhttp://dbpedia.org/class/yago/AirportsEstablishedIn1969
p555
aVhttp://dbpedia.org/class/yago/AirportsInHouston,Texas
p556
aVhttp://dbpedia.org/class/yago/AirportsInTexas
p557
aVhttp://dbpedia.org/class/yago/Artifact100021939
p558
aVhttp://dbpedia.org/class/yago/Facility103315023
p559
aVhttp://dbpedia.org/class/yago/Object100002684
p560
aVhttp://dbpedia.org/class/yago/Whole100003553
p561
aVhttp://dbpedia.org/class/yago/YagoGeoEntity
p562
aVhttp://dbpedia.org/class/yago/PhysicalEntity100001930
p563
aVhttp://dbpedia.org/class/yago/YagoPermanentlyLocatedEntity
p564
aVhttp://dbpedia.org/resource/George_Bush_Intercontinental_Airport
tp565
aa(lp566
a(lp567
a(lp568
a(lp569
a(lp570
aa(lp571
(lp572
a(lp573
((lp574
Vhttp://www.w3.org/2002/07/owl#Thing
p575
aVhttp://dbpedia.org/ontology/Place
p576
aVhttp://dbpedia.org/ontology/Location
p577
aVhttp://www.wikidata.org/entity/Q1248784
p578
aVhttp://dbpedia.org/ontology/Airport
p579
aVhttp://dbpedia.org/ontology/ArchitecturalStructure
p580
aVhttp://dbpedia.org/ontology/Infrastructure
p581
aVhttp://www.w3.org/2003/01/geo/wgs84_pos#SpatialThing
p582
aVhttp://schema.org/Airport
p583
aVhttp://schema.org/Place
p584
aVhttp://umbel.org/umbel/rc/Airport_Physical
p585
aVhttp://umbel.org/umbel/rc/Building
p586
aVhttp://dbpedia.org/class/yago/Airfield102687992
p587
aVhttp://dbpedia.org/class/yago/Airport102692232
p588
aVhttp://dbpedia.org/class/yago/AirportsEstablishedIn1928
p589
aVhttp://dbpedia.org/class/yago/AirportsInMaricopaCounty,Arizona
p590
aVhttp://dbpedia.org/class/yago/Artifact100021939
p591
aVhttp://dbpedia.org/class/yago/Facility103315023
p592
aVhttp://dbpedia.org/class/yago/Object100002684
p593
aVhttp://dbpedia.org/class/yago/Whole100003553
p594
aVhttp://dbpedia.org/class/yago/YagoGeoEntity
p595
aVhttp://dbpedia.org/class/yago/FacilitiesOfTheUnitedStatesAirNationalGuard
p596
aVhttp://dbpedia.org/class/yago/PhysicalEntity100001930
p597
aVhttp://dbpedia.org/class/yago/YagoPermanentlyLocatedEntity
p598
aVhttp://dbpedia.org/resource/Phoenix_Sky_Harbor_International_Airport
tp599
aa(lp600
a(lp601
a(lp602
a(lp603
a(lp604
aa(lp605
(lp606
a(lp607
((lp608
Vhttp://www.w3.org/2002/07/owl#Thing
p609
aVhttp://dbpedia.org/ontology/Place
p610
aVhttp://dbpedia.org/ontology/Location
p611
aVhttp://www.wikidata.org/entity/Q1248784
p612
aVhttp://dbpedia.org/ontology/Airport
p613
aVhttp://dbpedia.org/ontology/ArchitecturalStructure
p614
aVhttp://dbpedia.org/ontology/Infrastructure
p615
aVhttp://www.w3.org/2003/01/geo/wgs84_pos#SpatialThing
p616
aVhttp://schema.org/Airport
p617
aVhttp://schema.org/Place
p618
aVhttp://umbel.org/umbel/rc/Airport_Physical
p619
aVhttp://umbel.org/umbel/rc/Building
p620
aVhttp://dbpedia.org/class/yago/Airfield102687992
p621
aVhttp://dbpedia.org/class/yago/AirfieldsOfTheUnitedStatesArmyAirForcesInCalifornia
p622
aVhttp://dbpedia.org/class/yago/Airport102692232
p623
aVhttp://dbpedia.org/class/yago/AirportsEstablishedIn1927
p624
aVhttp://dbpedia.org/class/yago/AirportsInSanMateoCounty,California
p625
aVhttp://dbpedia.org/class/yago/Artifact100021939
p626
aVhttp://dbpedia.org/class/yago/Facility103315023
p627
aVhttp://dbpedia.org/class/yago/Object100002684
p628
aVhttp://dbpedia.org/class/yago/Whole100003553
p629
aVhttp://dbpedia.org/class/yago/YagoGeoEntity
p630
aVhttp://dbpedia.org/class/yago/PhysicalEntity100001930
p631
aVhttp://dbpedia.org/class/yago/YagoPermanentlyLocatedEntity
p632
aVhttp://dbpedia.org/class/yago/USAAFAirTransportCommandAirfields-NorthAmerica
p633
aVhttp://dbpedia.org/resource/San_Francisco_International_Airport
p634
tp635
aa(lp636
a(lp637
a(lp638
a(lp639
a(lp640
aa.