(lp1
(lp2
(lp3
((lp4
Vhttp://www.w3.org/2002/07/owl#Thing
p5
aVhttp://dbpedia.org/ontology/Place
p6
aVhttp://dbpedia.org/ontology/Location
p7
aVhttp://www.wikidata.org/entity/Q486972
p8
aVhttp://www.wikidata.org/entity/Q6256
p9
aVhttp://dbpedia.org/ontology/Country
p10
aVhttp://dbpedia.org/ontology/PopulatedPlace
p11
aVhttp://www.w3.org/2003/01/geo/wgs84_pos#SpatialThing
p12
aVhttp://schema.org/Country
p13
aVhttp://schema.org/Place
p14
aVhttp://umbel.org/umbel/rc/Country
p15
aVhttp://umbel.org/umbel/rc/Location_Underspecified
p16
aVhttp://umbel.org/umbel/rc/PopulatedPlace
p17
aVhttp://dbpedia.org/class/yago/Abstraction100002137
p18
aVhttp://dbpedia.org/class/yago/AdministrativeDistrict108491826
p19
aVhttp://dbpedia.org/class/yago/Country108544813
p20
aVhttp://dbpedia.org/class/yago/District108552138
p21
aVhttp://dbpedia.org/class/yago/Economy108366753
p22
aVhttp://dbpedia.org/class/yago/Group100031264
p23
aVhttp://dbpedia.org/class/yago/Location100027167
p24
aVhttp://dbpedia.org/class/yago/Object100002684
p25
aVhttp://dbpedia.org/class/yago/Region108630985
p26
aVhttp://dbpedia.org/class/yago/System108435388
p27
aVhttp://dbpedia.org/class/yago/YagoGeoEntity
p28
aVhttp://dbpedia.org/class/yago/YagoLegalActorGeo
p29
aVhttp://dbpedia.org/class/yago/CentralAsianCountries
p30
aVhttp://dbpedia.org/class/yago/PhysicalEntity100001930
p31
aVhttp://dbpedia.org/class/yago/YagoPermanentlyLocatedEntity
p32
aVhttp://dbpedia.org/class/yago/IslamicStates
p33
aVhttp://dbpedia.org/class/yago/LandlockedCountries
p34
aVhttp://dbpedia.org/class/yago/LeastDevelopedCountries
p35
aVhttp://dbpedia.org/class/yago/MemberStatesOfTheOrganisationOfIslamicCooperation
p36
aVhttp://dbpedia.org/class/yago/MemberStatesOfTheSouthAsianAssociationForRegionalCooperation
p37
aVhttp://dbpedia.org/class/yago/MemberStatesOfTheUnitedNations
p38
aVhttp://dbpedia.org/class/yago/MiddleEasternCountries
p39
aVhttp://dbpedia.org/class/yago/Pashto-speakingCountriesAndTerritories
p40
aVhttp://dbpedia.org/class/yago/Persian-speakingCountriesAndTerritories
p41
aVhttp://dbpedia.org/class/yago/SouthAsianCountries
p42
aVhttp://dbpedia.org/class/yago/StatesAndTerritoriesEstablishedIn1709
p43
aVhttp://dbpedia.org/class/yago/StatesAndTerritoriesEstablishedIn1747
p44
aVhttp://dbpedia.org/class/yago/TerritoriesUnderMilitaryOccupation
p45
aVhttp://dbpedia.org/resource/Afghanistan
tp46
aa(lp47
a(lp48
a(lp49
aa(lp50
(lp51
a(lp52
((lp53
Vhttp://umbel.org/umbel/rc/EducationalOrganization
p54
aVhttp://umbel.org/umbel/rc/University
p55
aVhttp://dbpedia.org/class/yago/Abstraction100002137
p56
aVhttp://dbpedia.org/class/yago/EducationalInstitution108276342
p57
aVhttp://dbpedia.org/class/yago/Group100031264
p58
aVhttp://dbpedia.org/class/yago/Institution108053576
p59
aVhttp://dbpedia.org/class/yago/Organization108008335
p60
aVhttp://dbpedia.org/class/yago/SocialGroup107950920
p61
aVhttp://dbpedia.org/class/yago/University108286569
p62
aVhttp://dbpedia.org/class/yago/YagoLegalActorGeo
p63
aVhttp://dbpedia.org/class/yago/EducationalInstitutionsEstablishedIn2002
p64
aVhttp://dbpedia.org/class/yago/YagoPermanentlyLocatedEntity
p65
aVhttp://dbpedia.org/class/yago/YagoLegalActor
p66
aVhttp://dbpedia.org/class/yago/UniversitiesInAlbania
p67
aVhttp://dbpedia.org/resource/University_of_New_York_Tirana
tp68
aa(lp69
a(lp70
aa(lp71
(lp72
a(lp73
a(lp74
a(lp75
aa(lp76
(lp77
a(lp78
a(lp79
a(lp80
aa(lp81
(lp82
a(lp83
a(lp84
a(lp85
aa(lp86
(lp87
a(lp88
a(lp89
a(lp90
aa(lp91
(lp92
a(lp93
a(lp94
a(lp95
aa(lp96
(lp97
a(lp98
a(lp99
a(lp100
aa(lp101
(lp102
a(lp103
a(lp104
a(lp105
aa(lp106
(lp107
a(lp108
a(lp109
a(lp110
aa(lp111
(lp112
a(lp113
a(lp114
a(lp115
aa(lp116
(lp117
((lp118
Vhttp://www.w3.org/2002/07/owl#Thing
p119
aVhttp://dbpedia.org/ontology/Place
p120
aVhttp://dbpedia.org/ontology/Location
p121
aVhttp://www.wikidata.org/entity/Q486972
p122
aVhttp://dbpedia.org/ontology/Continent
p123
aVhttp://dbpedia.org/ontology/PopulatedPlace
p124
aVhttp://schema.org/Continent
p125
aVhttp://schema.org/Place
p126
aVhttp://dbpedia.org/class/yago/Abstraction100002137
p127
aVhttp://dbpedia.org/class/yago/Economy108366753
p128
aVhttp://dbpedia.org/class/yago/Group100031264
p129
aVhttp://dbpedia.org/class/yago/Land109334396
p130
aVhttp://dbpedia.org/class/yago/Object100002684
p131
aVhttp://dbpedia.org/class/yago/System108435388
p132
aVhttp://dbpedia.org/class/yago/YagoGeoEntity
p133
aVhttp://dbpedia.org/class/yago/Continent109254614
p134
aVhttp://dbpedia.org/class/yago/Continents
p135
aVhttp://dbpedia.org/class/yago/EconomiesByRegion
p136
aVhttp://dbpedia.org/class/yago/Landmass109335916
p137
aVhttp://dbpedia.org/class/yago/PhysicalEntity100001930
p138
aVhttp://dbpedia.org/class/yago/YagoPermanentlyLocatedEntity
p139
aVhttp://dbpedia.org/resource/Oceania
p140
tp141
aa(lp142
a(lp143
a(lp144
aa(lp145
(lp146
a(lp147
a(lp148
a(lp149
aa(lp150
(lp151
a(lp152
a(lp153
a(lp154
aa(lp155
(lp156
a(lp157
a(lp158
a(lp159
aa(lp160
(lp161
a(lp162
a(lp163
a(lp164
aa(lp165
(lp166
a(lp167
a(lp168
a(lp169
aa(lp170
(lp171
a(lp172
a(lp173
a(lp174
aa(lp175
(lp176
a(lp177
a(lp178
a(lp179
aa(lp180
(lp181
a(lp182
a(lp183
a(lp184
aa.