(lp1
(lp2
(lp3
a(lp4
a(lp5
a(lp6
a(lp7
aa(lp8
(lp9
a(lp10
a(lp11
a(lp12
a(lp13
aa(lp14
(lp15
a(lp16
a(lp17
a(lp18
Vhttp://dbpedia.org/resource/Stanley_Kubrick
p19
aa(lp20
aa(lp21
(lp22
a(lp23
a(lp24
a(lp25
Vhttp://dbpedia.org/resource/Woody_Allen
p26
aa(lp27
aa(lp28
(lp29
a(lp30
a(lp31
a(lp32
a(lp33
aa(lp34
(lp35
a(lp36
Vhttp://dbpedia.org/resource/The_General
p37
aa(lp38
a(lp39
a(lp40
aa(lp41
(lp42
a(lp43
a(lp44
a(lp45
a(lp46
aa(lp47
(lp48
a(lp49
a(lp50
a(lp51
a(lp52
aa(lp53
(lp54
a(lp55
a(lp56
a(lp57
Vhttp://dbpedia.org/resource/John_Lasseter
p58
aa(lp59
aa(lp60
(lp61
a(lp62
a(lp63
a(lp64
a(lp65
aa(lp66
(lp67
a(lp68
a(lp69
a(lp70
a(lp71
aa(lp72
(lp73
a(lp74
a(lp75
a(lp76
a(lp77
aa(lp78
(lp79
a(lp80
a(lp81
a(lp82
a(lp83
aa(lp84
(lp85
a(lp86
a(lp87
a(lp88
a(lp89
aa(lp90
(lp91
a(lp92
a(lp93
a(lp94
a(lp95
aa(lp96
(lp97
a(lp98
a(lp99
a(lp100
a(lp101
aa(lp102
(lp103
a(lp104
Vhttp://dbpedia.org/resource/Modern_Times
p105
aa(lp106
a(lp107
a(lp108
aa(lp109
(lp110
a(lp111
Vhttp://dbpedia.org/resource/The_Philadelphia_study
p112
aa(lp113
a(lp114
a(lp115
aa(lp116
(lp117
a(lp118
a(lp119
a(lp120
a(lp121
aa(lp122
(lp123
a(lp124
a(lp125
a(lp126
a(lp127
aa.