(lp1
(lp2
(dp3
Vstart
p4
I0
sVdisambiguatedURL
p5
NsVnamedEntity
p6
V10
p7
sVoffset
p8
I2
saa(lp9
(dp10
Vstart
p11
I0
sVdisambiguatedURL
p12
NsVnamedEntity
p13
V89
p14
sVoffset
p15
I2
saa(lp16
(dp17
Vstart
p18
I0
sVdisambiguatedURL
p19
NsVnamedEntity
p20
V34
p21
sVoffset
p22
I2
saa(lp23
(dp24
Vstart
p25
I0
sVdisambiguatedURL
p26
NsVnamedEntity
p27
V2
sVoffset
p28
I1
saa(lp29
(dp30
Vstart
p31
I0
sVdisambiguatedURL
p32
NsVnamedEntity
p33
V23
p34
sVoffset
p35
I2
saa(lp36
(dp37
Vstart
p38
I0
sVdisambiguatedURL
p39
NsVnamedEntity
p40
V26
p41
sVoffset
p42
I2
saa(lp43
(dp44
Vstart
p45
I0
sVdisambiguatedURL
p46
NsVnamedEntity
p47
V19
p48
sVoffset
p49
I2
saa(lp50
(dp51
Vstart
p52
I0
sVdisambiguatedURL
p53
NsVnamedEntity
p54
V95
p55
sVoffset
p56
I2
saa(lp57
(dp58
Vstart
p59
I0
sVdisambiguatedURL
p60
NsVnamedEntity
p61
V74
p62
sVoffset
p63
I2
saa(lp64
(dp65
Vstart
p66
I0
sVdisambiguatedURL
p67
NsVnamedEntity
p68
V84
p69
sVoffset
p70
I2
saa(lp71
(dp72
Vstart
p73
I0
sVdisambiguatedURL
p74
NsVnamedEntity
p75
V47
p76
sVoffset
p77
I2
saa(lp78
(dp79
Vstart
p80
I0
sVdisambiguatedURL
p81
NsVnamedEntity
p82
V62
p83
sVoffset
p84
I2
saa(lp85
(dp86
Vstart
p87
I0
sVdisambiguatedURL
p88
NsVnamedEntity
p89
V54
p90
sVoffset
p91
I2
saa(lp92
(dp93
Vstart
p94
I0
sVdisambiguatedURL
p95
NsVnamedEntity
p96
V53
p97
sVoffset
p98
I2
saa(lp99
(dp100
Vstart
p101
I0
sVdisambiguatedURL
p102
NsVnamedEntity
p103
V61
p104
sVoffset
p105
I2
saa(lp106
(dp107
Vstart
p108
I0
sVdisambiguatedURL
p109
NsVnamedEntity
p110
V31
p111
sVoffset
p112
I2
saa(lp113
(dp114
Vstart
p115
I0
sVdisambiguatedURL
p116
NsVnamedEntity
p117
V80
p118
sVoffset
p119
I2
saa(lp120
(dp121
Vstart
p122
I0
sVdisambiguatedURL
p123
NsVnamedEntity
p124
V16
p125
sVoffset
p126
I2
saa(lp127
(dp128
Vstart
p129
I0
sVdisambiguatedURL
p130
NsVnamedEntity
p131
V82
p132
sVoffset
p133
I2
saa(lp134
(dp135
Vstart
p136
I0
sVdisambiguatedURL
p137
NsVnamedEntity
p138
V73
p139
sVoffset
p140
I2
saa.