(lp1
(lp2
(lp3
((lp4
Vhttp://dbpedia.org/class/yago/BodyOfWater109225146
p5
aVhttp://dbpedia.org/class/yago/River109411430
p6
aVhttp://dbpedia.org/class/yago/Stream109448361
p7
aVhttp://dbpedia.org/class/yago/Thing100002452
p8
aVhttp://dbpedia.org/class/yago/YagoGeoEntity
p9
aVhttp://dbpedia.org/class/yago/RiversOfSouthAfrica
p10
aVhttp://www.w3.org/2002/07/owl#Thing
p11
aVhttp://dbpedia.org/ontology/Place
p12
aVhttp://dbpedia.org/ontology/Location
p13
aVhttp://www.wikidata.org/entity/Q4022
p14
aVhttp://www.wikidata.org/entity/Q47521
p15
aVhttp://dbpedia.org/ontology/BodyOfWater
p16
aVhttp://dbpedia.org/ontology/NaturalPlace
p17
aVhttp://dbpedia.org/ontology/River
p18
aVhttp://dbpedia.org/ontology/Stream
p19
aVhttp://www.w3.org/2003/01/geo/wgs84_pos#SpatialThing
p20
aVhttp://schema.org/BodyOfWater
p21
aVhttp://schema.org/Place
p22
aVhttp://schema.org/RiverBodyOfWater
p23
aVhttp://dbpedia.org/class/yago/YagoPermanentlyLocatedEntity
p24
aVhttp://dbpedia.org/class/yago/PhysicalEntity100001930
p25
aVhttp://dbpedia.org/resource/Amanzimtoti_River
tp26
aa(lp27
((lp28
Vhttp://dbpedia.org/class/yago/Abstraction100002137
p29
aVhttp://dbpedia.org/class/yago/EthnicGroup107967382
p30
aVhttp://dbpedia.org/class/yago/Group100031264
p31
aVhttp://www.w3.org/2002/07/owl#Thing
p32
aVhttp://umbel.org/umbel/rc/Language
p33
aVhttp://dbpedia.org/class/yago/EthnicGroupsInTheDemocraticRepublicOfTheCongo
p34
aVhttp://dbpedia.org/class/yago/EthnicGroupsInUganda
p35
aVhttp://dbpedia.org/resource/Amba_people
tp36
aa(lp37
a(lp38
a(lp39
((lp40
Vhttp://dbpedia.org/class/yago/ArtificialLakes
p41
aVhttp://dbpedia.org/class/yago/BodyOfWater109225146
p42
aVhttp://dbpedia.org/class/yago/Lake109328904
p43
aVhttp://dbpedia.org/class/yago/Land109335240
p44
aVhttp://dbpedia.org/class/yago/Object100002684
p45
aVhttp://dbpedia.org/class/yago/Reservoir104078747
p46
aVhttp://dbpedia.org/class/yago/Thing100002452
p47
aVhttp://dbpedia.org/class/yago/Wetland109477890
p48
aVhttp://dbpedia.org/class/yago/YagoGeoEntity
p49
aVhttp://www.w3.org/2002/07/owl#Thing
p50
aVhttp://dbpedia.org/ontology/Place
p51
aVhttp://dbpedia.org/ontology/Location
p52
aVhttp://www.wikidata.org/entity/Q23397
p53
aVhttp://dbpedia.org/ontology/BodyOfWater
p54
aVhttp://dbpedia.org/ontology/Lake
p55
aVhttp://dbpedia.org/ontology/NaturalPlace
p56
aVhttp://www.w3.org/2003/01/geo/wgs84_pos#SpatialThing
p57
aVhttp://schema.org/BodyOfWater
p58
aVhttp://schema.org/LakeBodyOfWater
p59
aVhttp://schema.org/Place
p60
aVhttp://dbpedia.org/class/yago/YagoPermanentlyLocatedEntity
p61
aVhttp://dbpedia.org/class/yago/LakesOfRajasthan
p62
aVhttp://dbpedia.org/class/yago/PhysicalEntity100001930
p63
aVhttp://dbpedia.org/class/yago/WetlandsOfIndia
p64
aVhttp://dbpedia.org/resource/Ana_Sagar_Lake
tp65
aa(lp66
a(lp67
a(lp68
a(lp69
((lp70
Vhttp://www.w3.org/2002/07/owl#Thing
p71
aVhttp://dbpedia.org/ontology/Place
p72
aVhttp://dbpedia.org/ontology/Location
p73
aVhttp://www.wikidata.org/entity/Q4022
p74
aVhttp://www.wikidata.org/entity/Q47521
p75
aVhttp://dbpedia.org/ontology/BodyOfWater
p76
aVhttp://dbpedia.org/ontology/NaturalPlace
p77
aVhttp://dbpedia.org/ontology/Stream
p78
aVhttp://www.w3.org/2003/01/geo/wgs84_pos#SpatialThing
p79
aVhttp://schema.org/BodyOfWater
p80
aVhttp://schema.org/Place
p81
aVhttp://schema.org/RiverBodyOfWater
p82
aVhttp://dbpedia.org/resource/Anchar_Lake
tp83
aa(lp84
((lp85
Vhttp://dbpedia.org/class/yago/BodyOfWater109225146
p86
aVhttp://dbpedia.org/class/yago/Thing100002452
p87
aVhttp://dbpedia.org/class/yago/YagoGeoEntity
p88
aVhttp://www.w3.org/2002/07/owl#Thing
p89
aVhttp://dbpedia.org/ontology/Place
p90
aVhttp://dbpedia.org/ontology/Location
p91
aVhttp://dbpedia.org/ontology/BodyOfWater
p92
aVhttp://dbpedia.org/ontology/NaturalPlace
p93
aVhttp://dbpedia.org/ontology/Sea
p94
aVhttp://www.w3.org/2003/01/geo/wgs84_pos#SpatialThing
p95
aVhttp://schema.org/BodyOfWater
p96
aVhttp://schema.org/Place
p97
aVhttp://schema.org/SeaBodyOfWater
p98
aVhttp://dbpedia.org/class/yago/YagoPermanentlyLocatedEntity
p99
aVhttp://dbpedia.org/class/yago/Ocean109376198
p100
aVhttp://dbpedia.org/class/yago/PhysicalEntity100001930
p101
aVhttp://dbpedia.org/resource/Andaman_Sea
tp102
aa(lp103
((lp104
Vhttp://dbpedia.org/class/yago/Area108497294
p105
aVhttp://dbpedia.org/class/yago/Bay109215664
p106
aVhttp://dbpedia.org/class/yago/BaysOfVictoria(Australia)
p107
aVhttp://dbpedia.org/class/yago/BodyOfWater109225146
p108
aVhttp://dbpedia.org/class/yago/Location100027167
p109
aVhttp://dbpedia.org/class/yago/Object100002684
p110
aVhttp://dbpedia.org/class/yago/Region108630985
p111
aVhttp://dbpedia.org/class/yago/Thing100002452
p112
aVhttp://dbpedia.org/class/yago/YagoGeoEntity
p113
aVhttp://dbpedia.org/class/yago/YagoLegalActorGeo
p114
aVhttp://www.w3.org/2002/07/owl#Thing
p115
aVhttp://dbpedia.org/ontology/Place
p116
aVhttp://dbpedia.org/ontology/Location
p117
aVhttp://dbpedia.org/ontology/BodyOfWater
p118
aVhttp://dbpedia.org/ontology/NaturalPlace
p119
aVhttp://www.w3.org/2003/01/geo/wgs84_pos#SpatialThing
p120
aVhttp://schema.org/BodyOfWater
p121
aVhttp://schema.org/Place
p122
aVhttp://dbpedia.org/class/yago/YagoPermanentlyLocatedEntity
p123
aVhttp://dbpedia.org/class/yago/ImportantBirdAreasOfAustralia
p124
aVhttp://dbpedia.org/class/yago/ImportantBirdAreasOfVictoria(Australia)
p125
aVhttp://dbpedia.org/class/yago/Inlet109313716
p126
aVhttp://dbpedia.org/class/yago/InletsOfAustralia
p127
aVhttp://dbpedia.org/class/yago/PhysicalEntity100001930
p128
aVhttp://dbpedia.org/resource/Anderson_Inlet
tp129
aa(lp130
((lp131
Vhttp://dbpedia.org/class/yago/AdministrativeDistrict108491826
p132
aVhttp://dbpedia.org/class/yago/District108552138
p133
aVhttp://dbpedia.org/class/yago/Location100027167
p134
aVhttp://dbpedia.org/class/yago/Object100002684
p135
aVhttp://dbpedia.org/class/yago/Region108630985
p136
aVhttp://dbpedia.org/class/yago/Town108665504
p137
aVhttp://dbpedia.org/class/yago/UrbanArea108675967
p138
aVhttp://dbpedia.org/class/yago/YagoGeoEntity
p139
aVhttp://dbpedia.org/class/yago/YagoLegalActorGeo
p140
aVhttp://www.w3.org/2002/07/owl#Thing
p141
aVhttp://dbpedia.org/ontology/Place
p142
aVhttp://dbpedia.org/ontology/Location
p143
aVhttp://www.w3.org/2003/01/geo/wgs84_pos#SpatialThing
p144
aVhttp://schema.org/Place
p145
aVhttp://dbpedia.org/class/yago/YagoPermanentlyLocatedEntity
p146
aVhttp://dbpedia.org/class/yago/GeographicalArea108574314
p147
aVhttp://dbpedia.org/class/yago/GhostTown108671509
p148
aVhttp://dbpedia.org/class/yago/GhostTownsInNewfoundlandAndLabrador
p149
aVhttp://dbpedia.org/class/yago/Municipality108626283
p150
aVhttp://dbpedia.org/class/yago/PhysicalEntity100001930
p151
aVhttp://dbpedia.org/resource/Anderson's_Cove
tp152
aa(lp153
((lp154
Vhttp://dbpedia.org/class/yago/BodyOfWater109225146
p155
aVhttp://dbpedia.org/class/yago/River109411430
p156
aVhttp://dbpedia.org/class/yago/Stream109448361
p157
aVhttp://dbpedia.org/class/yago/Thing100002452
p158
aVhttp://dbpedia.org/class/yago/YagoGeoEntity
p159
aVhttp://dbpedia.org/class/yago/RiversOfIrkutskOblast
p160
aVhttp://dbpedia.org/class/yago/RiversOfKrasnoyarskKrai
p161
aVhttp://www.w3.org/2002/07/owl#Thing
p162
aVhttp://dbpedia.org/ontology/Place
p163
aVhttp://dbpedia.org/ontology/Location
p164
aVhttp://www.wikidata.org/entity/Q4022
p165
aVhttp://www.wikidata.org/entity/Q47521
p166
aVhttp://dbpedia.org/ontology/BodyOfWater
p167
aVhttp://dbpedia.org/ontology/NaturalPlace
p168
aVhttp://dbpedia.org/ontology/River
p169
aVhttp://dbpedia.org/ontology/Stream
p170
aVhttp://www.w3.org/2003/01/geo/wgs84_pos#SpatialThing
p171
aVhttp://schema.org/BodyOfWater
p172
aVhttp://schema.org/Place
p173
aVhttp://schema.org/RiverBodyOfWater
p174
aVhttp://umbel.org/umbel/rc/BodyOfWater
p175
aVhttp://umbel.org/umbel/rc/River
p176
aVhttp://umbel.org/umbel/rc/Stream
p177
aVhttp://dbpedia.org/class/yago/YagoPermanentlyLocatedEntity
p178
aVhttp://dbpedia.org/class/yago/PhysicalEntity100001930
p179
aVhttp://dbpedia.org/resource/Angara_River
tp180
aa(lp181
((lp182
Vhttp://dbpedia.org/class/yago/Bishop109857200
p183
aVhttp://dbpedia.org/class/yago/BishopsOfRagusa
p184
aVhttp://dbpedia.org/class/yago/CausalAgent100007347
p185
aVhttp://dbpedia.org/class/yago/Clergyman109927451
p186
aVhttp://dbpedia.org/class/yago/Leader109623038
p187
aVhttp://dbpedia.org/class/yago/LivingThing100004258
p188
aVhttp://dbpedia.org/class/yago/Object100002684
p189
aVhttp://dbpedia.org/class/yago/Organism100004475
p190
aVhttp://dbpedia.org/class/yago/Person100007846
p191
aVhttp://dbpedia.org/class/yago/Priest110470779
p192
aVhttp://dbpedia.org/class/yago/SpiritualLeader109505153
p193
aVhttp://dbpedia.org/class/yago/Whole100003553
p194
aVhttp://dbpedia.org/class/yago/YagoLegalActorGeo
p195
aVhttp://www.w3.org/2002/07/owl#Thing
p196
aVhttp://xmlns.com/foaf/0.1/Person
p197
aVhttp://dbpedia.org/ontology/Person
p198
aVhttp://www.ontologydesignpatterns.org/ont/dul/DUL.owl#Agent
p199
aVhttp://www.ontologydesignpatterns.org/ont/dul/DUL.owl#NaturalPerson
p200
aVhttp://www.wikidata.org/entity/Q215627
p201
aVhttp://www.wikidata.org/entity/Q5
p202
aVhttp://dbpedia.org/ontology/Agent
p203
aVhttp://schema.org/Person
p204
aVhttp://dbpedia.org/class/yago/PeopleFromTheProvinceOfCaltanissetta
p205
aVhttp://dbpedia.org/class/yago/YagoLegalActor
p206
aVhttp://dbpedia.org/class/yago/ItalianBishops
p207
aVhttp://dbpedia.org/class/yago/PhysicalEntity100001930
p208
aVhttp://dbpedia.org/resource/Angelo_Rizzo
tp209
aa(lp210
((lp211
Vhttp://dbpedia.org/class/yago/BodyOfWater109225146
p212
aVhttp://dbpedia.org/class/yago/River109411430
p213
aVhttp://dbpedia.org/class/yago/Stream109448361
p214
aVhttp://dbpedia.org/class/yago/Thing100002452
p215
aVhttp://dbpedia.org/class/yago/YagoGeoEntity
p216
aVhttp://dbpedia.org/class/yago/RiversOfVictoria(Australia)
p217
aVhttp://www.w3.org/2002/07/owl#Thing
p218
aVhttp://dbpedia.org/ontology/Place
p219
aVhttp://dbpedia.org/ontology/Location
p220
aVhttp://www.wikidata.org/entity/Q4022
p221
aVhttp://www.wikidata.org/entity/Q47521
p222
aVhttp://dbpedia.org/ontology/BodyOfWater
p223
aVhttp://dbpedia.org/ontology/NaturalPlace
p224
aVhttp://dbpedia.org/ontology/River
p225
aVhttp://dbpedia.org/ontology/Stream
p226
aVhttp://schema.org/BodyOfWater
p227
aVhttp://schema.org/Place
p228
aVhttp://schema.org/RiverBodyOfWater
p229
aVhttp://dbpedia.org/class/yago/YagoPermanentlyLocatedEntity
p230
aVhttp://dbpedia.org/class/yago/PhysicalEntity100001930
p231
aVhttp://dbpedia.org/resource/Anglesea_River
tp232
aa(lp233
((lp234
Vhttp://dbpedia.org/class/yago/Area108497294
p235
aVhttp://dbpedia.org/class/yago/BodyOfWater109225146
p236
aVhttp://dbpedia.org/class/yago/Lake109328904
p237
aVhttp://dbpedia.org/class/yago/Location100027167
p238
aVhttp://dbpedia.org/class/yago/Object100002684
p239
aVhttp://dbpedia.org/class/yago/Region108630985
p240
aVhttp://dbpedia.org/class/yago/Thing100002452
p241
aVhttp://dbpedia.org/class/yago/YagoGeoEntity
p242
aVhttp://dbpedia.org/class/yago/YagoLegalActorGeo
p243
aVhttp://www.w3.org/2002/07/owl#Thing
p244
aVhttp://dbpedia.org/ontology/Place
p245
aVhttp://dbpedia.org/ontology/Location
p246
aVhttp://www.wikidata.org/entity/Q23397
p247
aVhttp://dbpedia.org/ontology/BodyOfWater
p248
aVhttp://dbpedia.org/ontology/Lake
p249
aVhttp://dbpedia.org/ontology/NaturalPlace
p250
aVhttp://www.w3.org/2003/01/geo/wgs84_pos#SpatialThing
p251
aVhttp://schema.org/BodyOfWater
p252
aVhttp://schema.org/LakeBodyOfWater
p253
aVhttp://schema.org/Place
p254
aVhttp://umbel.org/umbel/rc/Lake
p255
aVhttp://dbpedia.org/class/yago/YagoPermanentlyLocatedEntity
p256
aVhttp://dbpedia.org/class/yago/ImportantBirdAreasOfAustralia
p257
aVhttp://dbpedia.org/class/yago/ImportantBirdAreasOfWesternAustralia
p258
aVhttp://dbpedia.org/class/yago/LakesOfWesternAustralia
p259
aVhttp://dbpedia.org/class/yago/PhysicalEntity100001930
p260
aVhttp://dbpedia.org/resource/Angove_Lake
tp261
aa(lp262
((lp263
Vhttp://dbpedia.org/class/yago/BodyOfWater109225146
p264
aVhttp://dbpedia.org/class/yago/River109411430
p265
aVhttp://dbpedia.org/class/yago/Stream109448361
p266
aVhttp://dbpedia.org/class/yago/Thing100002452
p267
aVhttp://dbpedia.org/class/yago/YagoGeoEntity
p268
aVhttp://dbpedia.org/class/yago/RiversOfWesternAustralia
p269
aVhttp://www.w3.org/2002/07/owl#Thing
p270
aVhttp://dbpedia.org/ontology/Place
p271
aVhttp://dbpedia.org/ontology/Location
p272
aVhttp://www.wikidata.org/entity/Q4022
p273
aVhttp://www.wikidata.org/entity/Q47521
p274
aVhttp://dbpedia.org/ontology/BodyOfWater
p275
aVhttp://dbpedia.org/ontology/NaturalPlace
p276
aVhttp://dbpedia.org/ontology/River
p277
aVhttp://dbpedia.org/ontology/Stream
p278
aVhttp://www.w3.org/2003/01/geo/wgs84_pos#SpatialThing
p279
aVhttp://schema.org/BodyOfWater
p280
aVhttp://schema.org/Place
p281
aVhttp://schema.org/RiverBodyOfWater
p282
aVhttp://umbel.org/umbel/rc/River
p283
aVhttp://umbel.org/umbel/rc/Stream
p284
aVhttp://dbpedia.org/class/yago/YagoPermanentlyLocatedEntity
p285
aVhttp://dbpedia.org/class/yago/PhysicalEntity100001930
p286
aVhttp://dbpedia.org/resource/Angove_River
tp287
aa(lp288
a(lp289
((lp290
Vhttp://dbpedia.org/class/yago/Bay109215664
p291
aVhttp://dbpedia.org/class/yago/BaysOfMadagascar
p292
aVhttp://dbpedia.org/class/yago/BodyOfWater109225146
p293
aVhttp://dbpedia.org/class/yago/Thing100002452
p294
aVhttp://dbpedia.org/class/yago/YagoGeoEntity
p295
aVhttp://www.w3.org/2002/07/owl#Thing
p296
aVhttp://dbpedia.org/ontology/Place
p297
aVhttp://dbpedia.org/ontology/Location
p298
aVhttp://dbpedia.org/ontology/BodyOfWater
p299
aVhttp://dbpedia.org/ontology/NaturalPlace
p300
aVhttp://www.w3.org/2003/01/geo/wgs84_pos#SpatialThing
p301
aVhttp://schema.org/BodyOfWater
p302
aVhttp://schema.org/Place
p303
aVhttp://dbpedia.org/class/yago/YagoPermanentlyLocatedEntity
p304
aVhttp://dbpedia.org/class/yago/PhysicalEntity100001930
p305
aVhttp://dbpedia.org/resource/Antongil_Bay
p306
tp307
aaa.