(lp1
(lp2
(lp3
a(lp4
a(lp5
a(lp6
aa(lp7
(lp8
a(lp9
a(lp10
a(lp11
((lp12
Vhttp://dbpedia.org/class/yago/Artifact100021939
p13
aVhttp://dbpedia.org/class/yago/BiotechnologyJournals
p14
aVhttp://dbpedia.org/class/yago/Creation103129123
p15
aVhttp://dbpedia.org/class/yago/Object100002684
p16
aVhttp://dbpedia.org/class/yago/Periodical106593296
p17
aVhttp://dbpedia.org/class/yago/Product104007894
p18
aVhttp://dbpedia.org/class/yago/Publication106589574
p19
aVhttp://dbpedia.org/class/yago/Whole100003553
p20
aVhttp://dbpedia.org/class/yago/PhysicalEntity100001930
p21
aVhttp://dbpedia.org/class/yago/Work104599396
p22
aVhttp://dbpedia.org/resource/Nature_Biotechnology
tp23
aaa(lp24
(lp25
a(lp26
a(lp27
a(lp28
aa(lp29
(lp30
a(lp31
a(lp32
a(lp33
aa(lp34
(lp35
a(lp36
a(lp37
a(lp38
aa(lp39
(lp40
a(lp41
a(lp42
a(lp43
aa(lp44
(lp45
a(lp46
a(lp47
a(lp48
aa(lp49
(lp50
a(lp51
a(lp52
a(lp53
aa(lp54
(lp55
a(lp56
a(lp57
a(lp58
aa(lp59
(lp60
a(lp61
a(lp62
a(lp63
aa(lp64
(lp65
a(lp66
a(lp67
a(lp68
aa(lp69
(lp70
a(lp71
a(lp72
a(lp73
aa(lp74
(lp75
a(lp76
a(lp77
a(lp78
aa(lp79
(lp80
a(lp81
a(lp82
a(lp83
((lp84
Vhttp://dbpedia.org/class/yago/Artifact100021939
p85
aVhttp://dbpedia.org/class/yago/BiotechnologyJournals
p86
aVhttp://dbpedia.org/class/yago/Creation103129123
p87
aVhttp://dbpedia.org/class/yago/Object100002684
p88
aVhttp://dbpedia.org/class/yago/Periodical106593296
p89
aVhttp://dbpedia.org/class/yago/Product104007894
p90
aVhttp://dbpedia.org/class/yago/Publication106589574
p91
aVhttp://dbpedia.org/class/yago/Whole100003553
p92
aVhttp://dbpedia.org/class/yago/PhysicalEntity100001930
p93
aVhttp://dbpedia.org/class/yago/Work104599396
p94
aVhttp://dbpedia.org/resource/Nature_Biotechnology
tp95
aaa(lp96
(lp97
a(lp98
a(lp99
a(lp100
((lp101
Vhttp://dbpedia.org/class/yago/Artifact100021939
p102
aVhttp://dbpedia.org/class/yago/BiotechnologyJournals
p103
aVhttp://dbpedia.org/class/yago/Creation103129123
p104
aVhttp://dbpedia.org/class/yago/Object100002684
p105
aVhttp://dbpedia.org/class/yago/Periodical106593296
p106
aVhttp://dbpedia.org/class/yago/Product104007894
p107
aVhttp://dbpedia.org/class/yago/Publication106589574
p108
aVhttp://dbpedia.org/class/yago/Whole100003553
p109
aVhttp://dbpedia.org/class/yago/PhysicalEntity100001930
p110
aVhttp://dbpedia.org/class/yago/Work104599396
p111
aVhttp://dbpedia.org/resource/Nature_Biotechnology
tp112
aaa(lp113
(lp114
a(lp115
a(lp116
a(lp117
aa(lp118
(lp119
a(lp120
a(lp121
a(lp122
aa(lp123
(lp124
a(lp125
a(lp126
a(lp127
aa(lp128
(lp129
a(lp130
a(lp131
a(lp132
aa(lp133
(lp134
a(lp135
a(lp136
a(lp137
((lp138
Vhttp://dbpedia.org/class/yago/Artifact100021939
p139
aVhttp://dbpedia.org/class/yago/BiotechnologyJournals
p140
aVhttp://dbpedia.org/class/yago/Creation103129123
p141
aVhttp://dbpedia.org/class/yago/Object100002684
p142
aVhttp://dbpedia.org/class/yago/Periodical106593296
p143
aVhttp://dbpedia.org/class/yago/Product104007894
p144
aVhttp://dbpedia.org/class/yago/Publication106589574
p145
aVhttp://dbpedia.org/class/yago/Whole100003553
p146
aVhttp://dbpedia.org/class/yago/PhysicalEntity100001930
p147
aVhttp://dbpedia.org/class/yago/Work104599396
p148
aVhttp://dbpedia.org/resource/Nature_Biotechnology
tp149
aaa(lp150
(lp151
a(lp152
a(lp153
a(lp154
((lp155
Vhttp://dbpedia.org/class/yago/Artifact100021939
p156
aVhttp://dbpedia.org/class/yago/BiotechnologyJournals
p157
aVhttp://dbpedia.org/class/yago/Creation103129123
p158
aVhttp://dbpedia.org/class/yago/Object100002684
p159
aVhttp://dbpedia.org/class/yago/Periodical106593296
p160
aVhttp://dbpedia.org/class/yago/Product104007894
p161
aVhttp://dbpedia.org/class/yago/Publication106589574
p162
aVhttp://dbpedia.org/class/yago/Whole100003553
p163
aVhttp://dbpedia.org/class/yago/PhysicalEntity100001930
p164
aVhttp://dbpedia.org/class/yago/Work104599396
p165
aVhttp://dbpedia.org/resource/Nature_Biotechnology
tp166
aaa(lp167
(lp168
a(lp169
a(lp170
a(lp171
aa(lp172
(lp173
a(lp174
a(lp175
a(lp176
aa(lp177
(lp178
a(lp179
((lp180
Vhttp://www.w3.org/2002/07/owl#Thing
p181
aVhttp://dbpedia.org/ontology/Company
p182
aVhttp://www.ontologydesignpatterns.org/ont/dul/DUL.owl#Agent
p183
aVhttp://www.ontologydesignpatterns.org/ont/dul/DUL.owl#SocialPerson
p184
aVhttp://www.wikidata.org/entity/Q43229
p185
aVhttp://dbpedia.org/ontology/Agent
p186
aVhttp://dbpedia.org/ontology/Organisation
p187
aVhttp://schema.org/Organization
p188
aVhttp://umbel.org/umbel/rc/Business
p189
aVhttp://dbpedia.org/class/yago/Abstraction100002137
p190
aVhttp://dbpedia.org/class/yago/Company108058098
p191
aVhttp://dbpedia.org/class/yago/Group100031264
p192
aVhttp://dbpedia.org/class/yago/Institution108053576
p193
aVhttp://dbpedia.org/class/yago/Organization108008335
p194
aVhttp://dbpedia.org/class/yago/SocialGroup107950920
p195
aVhttp://dbpedia.org/class/yago/YagoLegalActorGeo
p196
aVhttp://dbpedia.org/class/yago/ClothingCompaniesOfFrance
p197
aVhttp://dbpedia.org/class/yago/CompaniesEstablishedIn1854
p198
aVhttp://dbpedia.org/class/yago/CompaniesOfFrance
p199
aVhttp://dbpedia.org/class/yago/YagoPermanentlyLocatedEntity
p200
aVhttp://dbpedia.org/class/yago/YagoLegalActor
p201
aVhttp://dbpedia.org/resource/Louis_Vuitton
tp202
aa(lp203
a(lp204
aa(lp205
(lp206
a(lp207
((lp208
Vhttp://www.w3.org/2002/07/owl#Thing
p209
aVhttp://dbpedia.org/ontology/Company
p210
aVhttp://www.ontologydesignpatterns.org/ont/dul/DUL.owl#Agent
p211
aVhttp://www.ontologydesignpatterns.org/ont/dul/DUL.owl#SocialPerson
p212
aVhttp://www.wikidata.org/entity/Q43229
p213
aVhttp://dbpedia.org/ontology/Agent
p214
aVhttp://dbpedia.org/ontology/Bank
p215
aVhttp://dbpedia.org/ontology/Organisation
p216
aVhttp://schema.org/BankOrCreditUnion
p217
aVhttp://schema.org/Organization
p218
aVhttp://umbel.org/umbel/rc/Business
p219
aVhttp://umbel.org/umbel/rc/Organization
p220
aVhttp://dbpedia.org/class/yago/Abstraction100002137
p221
aVhttp://dbpedia.org/class/yago/Association108049401
p222
aVhttp://dbpedia.org/class/yago/BanksBasedInNewYorkCity
p223
aVhttp://dbpedia.org/class/yago/BanksEstablishedIn1850
p224
aVhttp://dbpedia.org/class/yago/Company108058098
p225
aVhttp://dbpedia.org/class/yago/DepositoryFinancialInstitution108420278
p226
aVhttp://dbpedia.org/class/yago/FinancialInstitution108054721
p227
aVhttp://dbpedia.org/class/yago/Group100031264
p228
aVhttp://dbpedia.org/class/yago/Institution108053576
p229
aVhttp://dbpedia.org/class/yago/Organization108008335
p230
aVhttp://dbpedia.org/class/yago/SocialGroup107950920
p231
aVhttp://dbpedia.org/class/yago/YagoLegalActorGeo
p232
aVhttp://dbpedia.org/class/yago/CompaniesBasedInManhattan
p233
aVhttp://dbpedia.org/class/yago/CompaniesEstablishedIn1850
p234
aVhttp://dbpedia.org/class/yago/CreditCardIssuerAssociations
p235
aVhttp://dbpedia.org/class/yago/FinancialServicesCompaniesBasedInNewYorkCity
p236
aVhttp://dbpedia.org/class/yago/ForeignExchangeCompanies
p237
aVhttp://dbpedia.org/class/yago/YagoPermanentlyLocatedEntity
p238
aVhttp://dbpedia.org/class/yago/MultinationalCompaniesBasedInNewYorkCity
p239
aVhttp://dbpedia.org/class/yago/YagoLegalActor
p240
aVhttp://dbpedia.org/class/yago/PubliclyTradedCompaniesBasedInNewYorkCity
p241
aVhttp://dbpedia.org/resource/American_Express
tp242
aa(lp243
a(lp244
aa(lp245
(lp246
a(lp247
a(lp248
a(lp249
((lp250
Vhttp://dbpedia.org/class/yago/Artifact100021939
p251
aVhttp://dbpedia.org/class/yago/BiotechnologyJournals
p252
aVhttp://dbpedia.org/class/yago/Creation103129123
p253
aVhttp://dbpedia.org/class/yago/Object100002684
p254
aVhttp://dbpedia.org/class/yago/Periodical106593296
p255
aVhttp://dbpedia.org/class/yago/Product104007894
p256
aVhttp://dbpedia.org/class/yago/Publication106589574
p257
aVhttp://dbpedia.org/class/yago/Whole100003553
p258
aVhttp://dbpedia.org/class/yago/PhysicalEntity100001930
p259
aVhttp://dbpedia.org/class/yago/Work104599396
p260
aVhttp://dbpedia.org/resource/Nature_Biotechnology
tp261
aaa(lp262
(lp263
a(lp264
a(lp265
a(lp266
((lVhttp://dbpedia.org/resource/Personal_care
tp267
aaa(lp268
(lp269
a(lp270
a(lp271
a(lp272
aa(lp273
(lp274
a(lp275
a(lp276
a(lp277
((lp278
Vhttp://dbpedia.org/class/yago/Artifact100021939
p279
aVhttp://dbpedia.org/class/yago/BiotechnologyJournals
p280
aVhttp://dbpedia.org/class/yago/Creation103129123
p281
aVhttp://dbpedia.org/class/yago/Object100002684
p282
aVhttp://dbpedia.org/class/yago/Periodical106593296
p283
aVhttp://dbpedia.org/class/yago/Product104007894
p284
aVhttp://dbpedia.org/class/yago/Publication106589574
p285
aVhttp://dbpedia.org/class/yago/Whole100003553
p286
aVhttp://dbpedia.org/class/yago/PhysicalEntity100001930
p287
aVhttp://dbpedia.org/class/yago/Work104599396
p288
aVhttp://dbpedia.org/resource/Nature_Biotechnology
tp289
aaa(lp290
(lp291
a(lp292
a(lp293
a(lp294
aa(lp295
(lp296
a(lp297
a(lp298
a(lp299
aa(lp300
(lp301
a(lp302
a(lp303
a(lp304
aa(lp305
(lp306
a(lp307
a(lp308
a(lp309
aa(lp310
(lp311
a(lp312
a(lp313
a(lp314
aa(lp315
(lp316
a(lp317
a(lp318
a(lp319
aa(lp320
(lp321
a(lp322
a(lp323
a(lp324
aa(lp325
(lp326
a(lp327
a(lp328
a(lp329
aa(lp330
(lp331
a(lp332
a(lp333
a(lp334
aa(lp335
(lp336
a(lp337
a(lp338
a(lp339
aa(lp340
(lp341
a(lp342
a(lp343
a(lp344
aa(lp345
(lp346
a(lp347
a(lp348
a(lp349
aa(lp350
(lp351
a(lp352
a(lp353
a(lp354
((lVhttp://dbpedia.org/resource/Personal_care
tp355
aaa(lp356
(lp357
a(lp358
a(lp359
a(lp360
((lp361
Vhttp://dbpedia.org/class/yago/Artifact100021939
p362
aVhttp://dbpedia.org/class/yago/BiotechnologyJournals
p363
aVhttp://dbpedia.org/class/yago/Creation103129123
p364
aVhttp://dbpedia.org/class/yago/Object100002684
p365
aVhttp://dbpedia.org/class/yago/Periodical106593296
p366
aVhttp://dbpedia.org/class/yago/Product104007894
p367
aVhttp://dbpedia.org/class/yago/Publication106589574
p368
aVhttp://dbpedia.org/class/yago/Whole100003553
p369
aVhttp://dbpedia.org/class/yago/PhysicalEntity100001930
p370
aVhttp://dbpedia.org/class/yago/Work104599396
p371
aVhttp://dbpedia.org/resource/Nature_Biotechnology
tp372
aaa(lp373
(lp374
a(lp375
a(lp376
a(lp377
aa(lp378
(lp379
a(lp380
a(lp381
a(lp382
aa(lp383
(lp384
a(lp385
a(lp386
a(lp387
aa(lp388
(lp389
a(lp390
a(lp391
a(lp392
aa(lp393
(lp394
a(lp395
a(lp396
a(lp397
aa(lp398
(lp399
a(lp400
a(lp401
a(lp402
aa(lp403
(lp404
a(lp405
a(lp406
a(lp407
aa(lp408
(lp409
a(lp410
a(lp411
a(lp412
aa(lp413
(lp414
a(lp415
a(lp416
a(lp417
((lVhttp://dbpedia.org/resource/Personal_care
tp418
aaa(lp419
(lp420
a(lp421
a(lp422
a(lp423
aa(lp424
(lp425
a(lp426
a(lp427
a(lp428
aa(lp429
(lp430
a(lp431
a(lp432
a(lp433
aa(lp434
(lp435
a(lp436
((lp437
Vhttp://www.w3.org/2002/07/owl#Thing
p438
aVhttp://dbpedia.org/ontology/Company
p439
aVhttp://www.ontologydesignpatterns.org/ont/dul/DUL.owl#Agent
p440
aVhttp://www.ontologydesignpatterns.org/ont/dul/DUL.owl#SocialPerson
p441
aVhttp://www.wikidata.org/entity/Q43229
p442
aVhttp://dbpedia.org/ontology/Agent
p443
aVhttp://dbpedia.org/ontology/Organisation
p444
aVhttp://schema.org/Organization
p445
aVhttp://umbel.org/umbel/rc/Business
p446
aVhttp://umbel.org/umbel/rc/Organization
p447
aVhttp://dbpedia.org/class/yago/Abstraction100002137
p448
aVhttp://dbpedia.org/class/yago/Company108058098
p449
aVhttp://dbpedia.org/class/yago/Group100031264
p450
aVhttp://dbpedia.org/class/yago/Institution108053576
p451
aVhttp://dbpedia.org/class/yago/Organization108008335
p452
aVhttp://dbpedia.org/class/yago/SocialGroup107950920
p453
aVhttp://dbpedia.org/class/yago/YagoLegalActorGeo
p454
aVhttp://dbpedia.org/class/yago/CompaniesBasedInMilwaukee,Wisconsin
p455
aVhttp://dbpedia.org/class/yago/CompaniesEstablishedIn1903
p456
aVhttp://dbpedia.org/class/yago/YagoPermanentlyLocatedEntity
p457
aVhttp://dbpedia.org/class/yago/YagoLegalActor
p458
aVhttp://dbpedia.org/resource/Harley-Davidson
tp459
aa(lp460
a(lp461
aa(lp462
(lp463
a(lp464
a(lp465
a(lp466
((lp467
Vhttp://dbpedia.org/class/yago/Artifact100021939
p468
aVhttp://dbpedia.org/class/yago/BiotechnologyJournals
p469
aVhttp://dbpedia.org/class/yago/Creation103129123
p470
aVhttp://dbpedia.org/class/yago/Object100002684
p471
aVhttp://dbpedia.org/class/yago/Periodical106593296
p472
aVhttp://dbpedia.org/class/yago/Product104007894
p473
aVhttp://dbpedia.org/class/yago/Publication106589574
p474
aVhttp://dbpedia.org/class/yago/Whole100003553
p475
aVhttp://dbpedia.org/class/yago/PhysicalEntity100001930
p476
aVhttp://dbpedia.org/class/yago/Work104599396
p477
aVhttp://dbpedia.org/resource/Nature_Biotechnology
tp478
aaa(lp479
(lp480
a(lp481
a(lp482
a(lp483
aa(lp484
(lp485
a(lp486
a(lp487
a(lp488
aa(lp489
(lp490
a(lp491
a(lp492
a(lp493
aa(lp494
(lp495
a(lp496
a(lp497
a(lp498
aa(lp499
(lp500
a(lp501
a(lp502
a(lp503
aa(lp504
(lp505
a(lp506
a(lp507
a(lp508
((lp509
Vhttp://dbpedia.org/class/yago/Artifact100021939
p510
aVhttp://dbpedia.org/class/yago/BiotechnologyJournals
p511
aVhttp://dbpedia.org/class/yago/Creation103129123
p512
aVhttp://dbpedia.org/class/yago/Object100002684
p513
aVhttp://dbpedia.org/class/yago/Periodical106593296
p514
aVhttp://dbpedia.org/class/yago/Product104007894
p515
aVhttp://dbpedia.org/class/yago/Publication106589574
p516
aVhttp://dbpedia.org/class/yago/Whole100003553
p517
aVhttp://dbpedia.org/class/yago/PhysicalEntity100001930
p518
aVhttp://dbpedia.org/class/yago/Work104599396
p519
aVhttp://dbpedia.org/resource/Nature_Biotechnology
tp520
aaa(lp521
(lp522
a(lp523
a(lp524
a(lp525
((lp526
Vhttp://dbpedia.org/class/yago/Artifact100021939
p527
aVhttp://dbpedia.org/class/yago/BiotechnologyJournals
p528
aVhttp://dbpedia.org/class/yago/Creation103129123
p529
aVhttp://dbpedia.org/class/yago/Object100002684
p530
aVhttp://dbpedia.org/class/yago/Periodical106593296
p531
aVhttp://dbpedia.org/class/yago/Product104007894
p532
aVhttp://dbpedia.org/class/yago/Publication106589574
p533
aVhttp://dbpedia.org/class/yago/Whole100003553
p534
aVhttp://dbpedia.org/class/yago/PhysicalEntity100001930
p535
aVhttp://dbpedia.org/class/yago/Work104599396
p536
aVhttp://dbpedia.org/resource/Nature_Biotechnology
tp537
aaa(lp538
(lp539
a(lp540
((lp541
Vhttp://www.w3.org/2002/07/owl#Thing
p542
aVhttp://dbpedia.org/ontology/Company
p543
aVhttp://www.ontologydesignpatterns.org/ont/dul/DUL.owl#Agent
p544
aVhttp://www.ontologydesignpatterns.org/ont/dul/DUL.owl#SocialPerson
p545
aVhttp://www.wikidata.org/entity/Q43229
p546
aVhttp://dbpedia.org/ontology/Agent
p547
aVhttp://dbpedia.org/ontology/Bank
p548
aVhttp://dbpedia.org/ontology/Organisation
p549
aVhttp://schema.org/BankOrCreditUnion
p550
aVhttp://schema.org/Organization
p551
aVhttp://umbel.org/umbel/rc/Business
p552
aVhttp://umbel.org/umbel/rc/Organization
p553
aVhttp://dbpedia.org/class/yago/Abstraction100002137
p554
aVhttp://dbpedia.org/class/yago/BanksBasedInNewYorkCity
p555
aVhttp://dbpedia.org/class/yago/BanksEstablishedIn1869
p556
aVhttp://dbpedia.org/class/yago/Company108058098
p557
aVhttp://dbpedia.org/class/yago/DepositoryFinancialInstitution108420278
p558
aVhttp://dbpedia.org/class/yago/FinancialInstitution108054721
p559
aVhttp://dbpedia.org/class/yago/Group100031264
p560
aVhttp://dbpedia.org/class/yago/Institution108053576
p561
aVhttp://dbpedia.org/class/yago/Organization108008335
p562
aVhttp://dbpedia.org/class/yago/SocialGroup107950920
p563
aVhttp://dbpedia.org/class/yago/YagoLegalActorGeo
p564
aVhttp://dbpedia.org/class/yago/CompaniesBasedInManhattan
p565
aVhttp://dbpedia.org/class/yago/FinancialServicesCompaniesBasedInNewYorkCity
p566
aVhttp://dbpedia.org/class/yago/YagoPermanentlyLocatedEntity
p567
aVhttp://dbpedia.org/class/yago/InvestmentBanks
p568
aVhttp://dbpedia.org/class/yago/MultinationalCompaniesBasedInNewYorkCity
p569
aVhttp://dbpedia.org/class/yago/YagoLegalActor
p570
aVhttp://dbpedia.org/class/yago/PubliclyTradedCompaniesBasedInNewYorkCity
p571
aVhttp://dbpedia.org/resource/Goldman_Sachs
tp572
aa(lp573
a(lp574
aa(lp575
(lp576
a(lp577
a(lp578
a(lp579
aa(lp580
(lp581
a(lp582
a(lp583
a(lp584
aa(lp585
(lp586
a(lp587
a(lp588
a(lp589
aa(lp590
(lp591
a(lp592
a(lp593
a(lp594
aa(lp595
(lp596
a(lp597
a(lp598
a(lp599
aa(lp600
(lp601
a(lp602
a(lp603
a(lp604
aa(lp605
(lp606
a(lp607
a(lp608
a(lp609
((lp610
Vhttp://dbpedia.org/class/yago/Artifact100021939
p611
aVhttp://dbpedia.org/class/yago/BiotechnologyJournals
p612
aVhttp://dbpedia.org/class/yago/Creation103129123
p613
aVhttp://dbpedia.org/class/yago/Object100002684
p614
aVhttp://dbpedia.org/class/yago/Periodical106593296
p615
aVhttp://dbpedia.org/class/yago/Product104007894
p616
aVhttp://dbpedia.org/class/yago/Publication106589574
p617
aVhttp://dbpedia.org/class/yago/Whole100003553
p618
aVhttp://dbpedia.org/class/yago/PhysicalEntity100001930
p619
aVhttp://dbpedia.org/class/yago/Work104599396
p620
aVhttp://dbpedia.org/resource/Nature_Biotechnology
tp621
aaa(lp622
(lp623
a(lp624
a(lp625
a(lp626
aa(lp627
(lp628
a(lp629
a(lp630
a(lp631
((lVhttp://dbpedia.org/resource/Personal_care
tp632
aaa(lp633
(lp634
a(lp635
a(lp636
a(lp637
aa(lp638
(lp639
a(lp640
a(lp641
a(lp642
aa(lp643
(lp644
a(lp645
a(lp646
a(lp647
aa(lp648
(lp649
a(lp650
a(lp651
a(lp652
aa(lp653
(lp654
a(lp655
a(lp656
a(lp657
((lVhttp://dbpedia.org/resource/Personal_care
tp658
aaa(lp659
(lp660
a(lp661
a(lp662
a(lp663
aa(lp664
(lp665
a(lp666
a(lp667
a(lp668
aa(lp669
(lp670
a(lp671
a(lp672
a(lp673
aa(lp674
(lp675
a(lp676
a(lp677
a(lp678
aa(lp679
(lp680
a(lp681
a(lp682
a(lp683
aa(lp684
(lp685
a(lp686
((lp687
Vhttp://www.w3.org/2002/07/owl#Thing
p688
aVhttp://dbpedia.org/ontology/Company
p689
aVhttp://www.ontologydesignpatterns.org/ont/dul/DUL.owl#Agent
p690
aVhttp://www.ontologydesignpatterns.org/ont/dul/DUL.owl#SocialPerson
p691
aVhttp://www.wikidata.org/entity/Q43229
p692
aVhttp://dbpedia.org/ontology/Agent
p693
aVhttp://dbpedia.org/ontology/Organisation
p694
aVhttp://schema.org/Organization
p695
aVhttp://umbel.org/umbel/rc/Business
p696
aVhttp://umbel.org/umbel/rc/Organization
p697
aVhttp://dbpedia.org/class/yago/Abstraction100002137
p698
aVhttp://dbpedia.org/class/yago/Business108061042
p699
aVhttp://dbpedia.org/class/yago/Company108058098
p700
aVhttp://dbpedia.org/class/yago/Enterprise108056231
p701
aVhttp://dbpedia.org/class/yago/Firm108059870
p702
aVhttp://dbpedia.org/class/yago/Group100031264
p703
aVhttp://dbpedia.org/class/yago/Institution108053576
p704
aVhttp://dbpedia.org/class/yago/Organization108008335
p705
aVhttp://dbpedia.org/class/yago/Publisher108062623
p706
aVhttp://dbpedia.org/class/yago/SocialGroup107950920
p707
aVhttp://dbpedia.org/class/yago/YagoLegalActorGeo
p708
aVhttp://dbpedia.org/class/yago/CompaniesBasedInRedwoodCity,California
p709
aVhttp://dbpedia.org/class/yago/CompaniesEstablishedIn1982
p710
aVhttp://dbpedia.org/class/yago/CompaniesListedOnNASDAQ
p711
aVhttp://dbpedia.org/class/yago/YagoPermanentlyLocatedEntity
p712
aVhttp://dbpedia.org/class/yago/MultinationalCompanies
p713
aVhttp://dbpedia.org/class/yago/YagoLegalActor
p714
aVhttp://dbpedia.org/class/yago/VideoGameCompaniesOfTheUnitedStates
p715
aVhttp://dbpedia.org/class/yago/VideoGamePublishers
p716
aVhttp://dbpedia.org/resource/Electronic_Arts
tp717
aa(lp718
a(lp719
aa(lp720
(lp721
a(lp722
a(lp723
a(lp724
aa(lp725
(lp726
a(lp727
a(lp728
a(lp729
aa(lp730
(lp731
a(lp732
a(lp733
a(lp734
aa(lp735
(lp736
a(lp737
a(lp738
a(lp739
aa(lp740
(lp741
a(lp742
a(lp743
a(lp744
aa(lp745
(lp746
a(lp747
a(lp748
a(lp749
aa(lp750
(lp751
a(lp752
a(lp753
a(lp754
aa(lp755
(lp756
a(lp757
((lVhttp://dbpedia.org/resource/Caterpillar
tp758
aa(lp759
a(lp760
((lp761
Vhttp://dbpedia.org/class/yago/Artifact100021939
p762
aVhttp://dbpedia.org/class/yago/BiotechnologyJournals
p763
aVhttp://dbpedia.org/class/yago/Creation103129123
p764
aVhttp://dbpedia.org/class/yago/Object100002684
p765
aVhttp://dbpedia.org/class/yago/Periodical106593296
p766
aVhttp://dbpedia.org/class/yago/Product104007894
p767
aVhttp://dbpedia.org/class/yago/Publication106589574
p768
aVhttp://dbpedia.org/class/yago/Whole100003553
p769
aVhttp://dbpedia.org/class/yago/PhysicalEntity100001930
p770
aVhttp://dbpedia.org/class/yago/Work104599396
p771
aVhttp://dbpedia.org/resource/Nature_Biotechnology
p772
tp773
aaa(lp774
(lp775
a(lp776
a(lp777
a(lp778
aa(lp779
(lp780
a(lp781
a(lp782
a(lp783
aa(lp784
(lp785
a(lp786
a(lp787
a(lp788
aa(lp789
(lp790
a(lp791
a(lp792
a(lp793
aa(lp794
(lp795
a(lp796
a(lp797
a(lp798
aa(lp799
(lp800
a(lp801
a(lp802
a(lp803
aa(lp804
(lp805
a(lp806
a(lp807
a(lp808
aa.