ccollections
defaultdict
p1
(c__builtin__
dict
p2
tRp3
I8
(dp4
I1
(lp5
Vhttp://dbpedia.org/ontology/country
p6
aVhttp://dbpedia.org/property/region
p7
aVhttp://dbpedia.org/property/officialLanguages
p8
aVhttp://www.w3.org/2000/01/rdf-schema#comment
p9
aVhttp://dbpedia.org/ontology/abstract
p10
aVhttp://dbpedia.org/property/states
p11
aVhttp://dbpedia.org/property/demonym
p12
aVhttp://dbpedia.org/ontology/spokenIn
p13
aVhttp://dbpedia.org/ontology/demonym
p14
aVhttp://dbpedia.org/ontology/officialLanguage
p15
aVhttp://dbpedia.org/ontology/language
p16
aVhttp://dbpedia.org/ontology/populationPlace
p17
asI2
(lp18
sI3
(lp19
sI4
(lp20
ssI9
(dp21
I1
(lp22
Vhttp://dbpedia.org/ontology/country
p23
aVhttp://dbpedia.org/property/region
p24
aVhttp://dbpedia.org/property/officialLanguages
p25
aVhttp://www.w3.org/2000/01/rdf-schema#comment
p26
aVhttp://dbpedia.org/ontology/abstract
p27
aVhttp://dbpedia.org/property/states
p28
aVhttp://dbpedia.org/property/demonym
p29
aVhttp://dbpedia.org/ontology/spokenIn
p30
aVhttp://dbpedia.org/ontology/demonym
p31
aVhttp://dbpedia.org/ontology/officialLanguage
p32
aVhttp://dbpedia.org/ontology/language
p33
aVhttp://dbpedia.org/ontology/populationPlace
p34
asI2
(lp35
sI3
(lp36
sI4
(lp37
ss.