(lp1
(dp2
I0
(dp3
I0
(lp4
sI1
(lp5
sI2
(lp6
sI3
(lp7
Vhttp://dbpedia.org/ontology/wikiPageExternalLink
p8
aVhttp://dbpedia.org/ontology/director
p9
aVhttp://www.w3.org/1999/02/22-rdf-syntax-ns#type
p10
aVhttp://purl.org/dc/terms/subject
p11
aVhttp://dbpedia.org/ontology/starring
p12
aVhttp://www.w3.org/2000/01/rdf-schema#comment
p13
aVhttp://dbpedia.org/ontology/abstract
p14
aVhttp://xmlns.com/foaf/0.1/depiction
p15
aVhttp://dbpedia.org/property/wordnet_type
p16
aVhttp://purl.org/voc/vrank#hasRank
p17
aVhttp://dbpedia.org/ontology/thumbnail
p18
aVhttp://dbpedia.org/property/director
p19
aVhttp://dbpedia.org/property/caption
p20
aVhttp://dbpedia.org/ontology/viafId
p21
aVhttp://www.w3.org/2002/07/owl#sameAs
p22
aVhttp://dbpedia.org/ontology/occupation
p23
asI4
(lp24
sI5
(lp25
ssI1
(dp26
I0
g5
sI1
(lp27
sI2
(lp28
sI3
(lp29
Vhttp://dbpedia.org/ontology/abstract
p30
aVhttp://www.w3.org/2000/01/rdf-schema#comment
p31
aVhttp://dbpedia.org/property/title
p32
asI4
(lp33
sI5
(lp34
ssI2
(dp35
I0
g6
sI1
g28
sI2
(lp36
sI3
(lp37
Vhttp://dbpedia.org/ontology/abstract
p38
aVhttp://www.w3.org/2000/01/rdf-schema#comment
p39
asI4
(lp40
sI5
(lp41
ssI3
(dp42
I0
g7
sI1
g29
sI2
g37
sI3
(lp43
sI4
(lp44
Vhttp://www.w3.org/1999/02/22-rdf-syntax-ns#type
p45
aVhttp://dbpedia.org/ontology/viafId
p46
asI5
(lp47
ssI4
(dp48
I0
g24
sI1
g33
sI2
g40
sI3
g44
sI4
(lp49
sI5
(lp50
ssI5
(dp51
I0
g25
sI1
g34
sI2
g41
sI3
g47
sI4
g50
sI5
(lp52
ssa(dp53
I0
(dp54
I0
(lp55
sI1
(lp56
sI2
(lp57
sI3
(lp58
Vhttp://dbpedia.org/ontology/wikiPageExternalLink
p59
aVhttp://dbpedia.org/ontology/director
p60
aVhttp://www.w3.org/1999/02/22-rdf-syntax-ns#type
p61
aVhttp://www.w3.org/2000/01/rdf-schema#comment
p62
aVhttp://dbpedia.org/ontology/abstract
p63
aVhttp://xmlns.com/foaf/0.1/depiction
p64
aVhttp://dbpedia.org/property/wordnet_type
p65
aVhttp://purl.org/voc/vrank#hasRank
p66
aVhttp://dbpedia.org/ontology/thumbnail
p67
aVhttp://www.w3.org/ns/prov#wasDerivedFrom
p68
aVhttp://dbpedia.org/property/caption
p69
aVhttp://dbpedia.org/property/director
p70
aVhttp://dbpedia.org/property/width
p71
aVhttp://dbpedia.org/ontology/viafId
p72
aVhttp://www.w3.org/2002/07/owl#sameAs
p73
asI4
(lp74
sI5
(lp75
ssI1
(dp76
I0
g56
sI1
(lp77
sI2
(lp78
sI3
(lp79
Vhttp://dbpedia.org/ontology/wikiPageExternalLink
p80
aVhttp://dbpedia.org/ontology/director
p81
aVhttp://dbpedia.org/property/producer
p82
aVhttp://www.w3.org/2000/01/rdf-schema#comment
p83
aVhttp://dbpedia.org/ontology/abstract
p84
aVhttp://dbpedia.org/ontology/writer
p85
aVhttp://dbpedia.org/property/director
p86
aVhttp://dbpedia.org/ontology/producer
p87
asI4
(lp88
sI5
(lp89
ssI2
(dp90
I0
g57
sI1
g78
sI2
(lp91
sI3
(lp92
Vhttp://dbpedia.org/ontology/abstract
p93
aVhttp://www.w3.org/2000/01/rdf-schema#comment
p94
asI4
(lp95
sI5
(lp96
ssI3
(dp97
I0
g58
sI1
g79
sI2
g92
sI3
(lp98
sI4
(lp99
Vhttp://www.w3.org/1999/02/22-rdf-syntax-ns#type
p100
asI5
(lp101
ssI4
(dp102
I0
g74
sI1
g88
sI2
g95
sI3
g99
sI4
(lp103
sI5
(lp104
ssI5
(dp105
I0
g75
sI1
g89
sI2
g96
sI3
g101
sI4
g104
sI5
(lp106
ssa(dp107
I0
(dp108
I0
(lp109
sI1
(lp110
Vhttp://dbpedia.org/ontology/wikiPageExternalLink
p111
aVhttp://www.w3.org/1999/02/22-rdf-syntax-ns#type
p112
aVhttp://dbpedia.org/ontology/abstract
p113
aVhttp://dbpedia.org/ontology/thumbnail
p114
aVhttp://www.w3.org/ns/prov#wasDerivedFrom
p115
aVhttp://dbpedia.org/property/hasPhotoCollection
p116
asI2
(lp117
sI3
(lp118
sI4
(lp119
sI5
(lp120
ssI1
(dp121
I0
g110
sI1
(lp122
sI2
(lp123
sI3
(lp124
sI4
(lp125
Vhttp://www.w3.org/ns/prov#wasDerivedFrom
p126
aVhttp://dbpedia.org/ontology/wikiPageExternalLink
p127
aVhttp://www.w3.org/1999/02/22-rdf-syntax-ns#type
p128
asI5
(lp129
ssI2
(dp130
I0
g117
sI1
g123
sI2
(lp131
sI3
(lp132
sI4
(lp133
sI5
(lp134
ssI3
(dp135
I0
g118
sI1
g124
sI2
g132
sI3
(lp136
sI4
(lp137
sI5
(lp138
ssI4
(dp139
I0
g119
sI1
g125
sI2
g133
sI3
g137
sI4
(lp140
sI5
(lp141
ssI5
(dp142
I0
g120
sI1
g129
sI2
g134
sI3
g138
sI4
g141
sI5
(lp143
ssa(dp144
I0
(dp145
I0
(lp146
sI1
(lp147
Vhttp://www.w3.org/1999/02/22-rdf-syntax-ns#type
p148
aVhttp://purl.org/dc/terms/subject
p149
aVhttp://dbpedia.org/ontology/lcc
p150
aVhttp://purl.org/voc/vrank#hasRank
p151
aVhttp://dbpedia.org/ontology/dcc
p152
aVhttp://dbpedia.org/property/congress
p153
aVhttp://www.w3.org/ns/prov#wasDerivedFrom
p154
aVhttp://dbpedia.org/ontology/oclc
p155
aVhttp://www.w3.org/2002/07/owl#sameAs
p156
asI2
(lp157
sI3
(lp158
Vhttp://dbpedia.org/ontology/wikiPageExternalLink
p159
aVhttp://dbpedia.org/ontology/director
p160
aVhttp://www.w3.org/1999/02/22-rdf-syntax-ns#type
p161
aVhttp://purl.org/dc/terms/subject
p162
aVhttp://dbpedia.org/property/guests
p163
aVhttp://dbpedia.org/property/producer
p164
aVhttp://www.w3.org/2000/01/rdf-schema#comment
p165
aVhttp://dbpedia.org/ontology/abstract
p166
aVhttp://dbpedia.org/ontology/wikiPageRedirects
p167
aVhttp://purl.org/voc/vrank#hasRank
p168
aVhttp://dbpedia.org/property/d
p169
aVhttp://www.w3.org/ns/prov#wasDerivedFrom
p170
aVhttp://dbpedia.org/property/director
p171
aVhttp://dbpedia.org/ontology/viafId
p172
aVhttp://www.w3.org/2002/07/owl#sameAs
p173
asI4
(lp174
sI5
(lp175
ssI1
(dp176
I0
g147
sI1
(lp177
sI2
(lp178
Vhttp://dbpedia.org/ontology/abstract
p179
aVhttp://www.w3.org/2000/01/rdf-schema#comment
p180
asI3
(lp181
sI4
(lp182
sI5
(lp183
ssI2
(dp184
I0
g157
sI1
g178
sI2
(lp185
sI3
(lp186
Vhttp://dbpedia.org/ontology/wikiPageExternalLink
p187
aVhttp://dbpedia.org/property/caption
p188
aVhttp://dbpedia.org/ontology/abstract
p189
aVhttp://xmlns.com/foaf/0.1/depiction
p190
aVhttp://dbpedia.org/ontology/thumbnail
p191
asI4
(lp192
sI5
(lp193
ssI3
(dp194
I0
g158
sI1
g181
sI2
g186
sI3
(lp195
sI4
(lp196
Vhttp://www.w3.org/1999/02/22-rdf-syntax-ns#type
p197
asI5
(lp198
ssI4
(dp199
I0
g174
sI1
g182
sI2
g192
sI3
g196
sI4
(lp200
sI5
(lp201
ssI5
(dp202
I0
g175
sI1
g183
sI2
g193
sI3
g198
sI4
g201
sI5
(lp203
ssa(dp204
I0
(dp205
I0
(lp206
sI1
(lp207
Vhttp://www.w3.org/1999/02/22-rdf-syntax-ns#type
p208
aVhttp://www.w3.org/2000/01/rdf-schema#comment
p209
aVhttp://dbpedia.org/ontology/abstract
p210
aVhttp://dbpedia.org/property/books
p211
aVhttp://www.w3.org/ns/prov#wasDerivedFrom
p212
aVhttp://dbpedia.org/property/hasPhotoCollection
p213
aVhttp://www.w3.org/2002/07/owl#sameAs
p214
asI2
(lp215
sI3
(lp216
sI4
(lp217
sI5
(lp218
ssI1
(dp219
I0
g207
sI1
(lp220
sI2
(lp221
Vhttp://dbpedia.org/ontology/abstract
p222
aVhttp://www.w3.org/2000/01/rdf-schema#comment
p223
asI3
(lp224
sI4
(lp225
sI5
(lp226
ssI2
(dp227
I0
g215
sI1
g221
sI2
(lp228
sI3
(lp229
sI4
(lp230
sI5
(lp231
ssI3
(dp232
I0
g216
sI1
g224
sI2
g229
sI3
(lp233
sI4
(lp234
sI5
(lp235
ssI4
(dp236
I0
g217
sI1
g225
sI2
g230
sI3
g234
sI4
(lp237
sI5
(lp238
ssI5
(dp239
I0
g218
sI1
g226
sI2
g231
sI3
g235
sI4
g238
sI5
(lp240
ssa(dp241
I0
(dp242
I0
(lp243
sI1
(lp244
sI2
(lp245
sI3
(lp246
sI4
(lp247
sI5
(lp248
ssI1
(dp249
I0
g244
sI1
(lp250
sI2
(lp251
sI3
(lp252
sI4
(lp253
sI5
(lp254
ssI2
(dp255
I0
g245
sI1
g251
sI2
(lp256
sI3
(lp257
sI4
(lp258
sI5
(lp259
ssI3
(dp260
I0
g246
sI1
g252
sI2
g257
sI3
(lp261
sI4
(lp262
sI5
(lp263
ssI4
(dp264
I0
g247
sI1
g253
sI2
g258
sI3
g262
sI4
(lp265
sI5
(lp266
ssI5
(dp267
I0
g248
sI1
g254
sI2
g259
sI3
g263
sI4
g266
sI5
(lp268
ssa(dp269
I0
(dp270
I0
(lp271
sI1
(lp272
sI2
(lp273
sI3
(lp274
Vhttp://dbpedia.org/ontology/wikiPageExternalLink
p275
aVhttp://dbpedia.org/ontology/director
p276
aVhttp://www.w3.org/1999/02/22-rdf-syntax-ns#type
p277
aVhttp://www.w3.org/2000/01/rdf-schema#comment
p278
aVhttp://dbpedia.org/ontology/abstract
p279
aVhttp://purl.org/voc/vrank#hasRank
p280
aVhttp://dbpedia.org/ontology/writer
p281
aVhttp://www.w3.org/2002/07/owl#sameAs
p282
aVhttp://www.w3.org/ns/prov#wasDerivedFrom
p283
aVhttp://dbpedia.org/property/director
p284
aVhttp://dbpedia.org/ontology/editing
p285
aVhttp://dbpedia.org/ontology/viafId
p286
aVhttp://dbpedia.org/ontology/producer
p287
asI4
(lp288
sI5
(lp289
ssI1
(dp290
I0
g272
sI1
(lp291
sI2
(lp292
sI3
(lp293
Vhttp://dbpedia.org/ontology/director
p294
aVhttp://dbpedia.org/ontology/publisher
p295
aVhttp://dbpedia.org/property/notableWorks
p296
aVhttp://www.w3.org/2000/01/rdf-schema#comment
p297
aVhttp://dbpedia.org/ontology/abstract
p298
aVhttp://dbpedia.org/ontology/author
p299
aVhttp://dbpedia.org/ontology/writer
p300
aVhttp://dbpedia.org/property/director
p301
aVhttp://dbpedia.org/property/publisher
p302
asI4
(lp303
sI5
(lp304
ssI2
(dp305
I0
g273
sI1
g292
sI2
(lp306
sI3
(lp307
Vhttp://dbpedia.org/ontology/director
p308
aVhttp://dbpedia.org/property/director
p309
aVhttp://dbpedia.org/ontology/abstract
p310
aVhttp://dbpedia.org/ontology/writer
p311
aVhttp://www.w3.org/2000/01/rdf-schema#comment
p312
asI4
(lp313
sI5
(lp314
ssI3
(dp315
I0
g274
sI1
g293
sI2
g307
sI3
(lp316
sI4
(lp317
Vhttp://www.w3.org/1999/02/22-rdf-syntax-ns#type
p318
asI5
(lp319
ssI4
(dp320
I0
g288
sI1
g303
sI2
g313
sI3
g317
sI4
(lp321
sI5
(lp322
ssI5
(dp323
I0
g289
sI1
g304
sI2
g314
sI3
g319
sI4
g322
sI5
(lp324
ssa(dp325
I0
(dp326
I0
(lp327
sI1
(lp328
Vhttp://dbpedia.org/ontology/abstract
p329
aVhttp://www.w3.org/2000/01/rdf-schema#comment
p330
aVhttp://www.w3.org/2002/07/owl#sameAs
p331
aVhttp://dbpedia.org/property/storyTimeline
p332
asI2
(lp333
sI3
(lp334
sI4
(lp335
sI5
(lp336
ssI1
(dp337
I0
g328
sI1
(lp338
sI2
(lp339
Vhttp://dbpedia.org/ontology/abstract
p340
aVhttp://www.w3.org/2000/01/rdf-schema#comment
p341
asI3
(lp342
Vhttp://dbpedia.org/ontology/abstract
p343
asI4
(lp344
sI5
(lp345
ssI2
(dp346
I0
g333
sI1
g339
sI2
(lp347
sI3
(lp348
sI4
(lp349
sI5
(lp350
ssI3
(dp351
I0
g334
sI1
g342
sI2
g348
sI3
(lp352
sI4
(lp353
sI5
(lp354
ssI4
(dp355
I0
g335
sI1
g344
sI2
g349
sI3
g353
sI4
(lp356
sI5
(lp357
ssI5
(dp358
I0
g336
sI1
g345
sI2
g350
sI3
g354
sI4
g357
sI5
(lp359
ssa(dp360
I0
(dp361
I0
(lp362
sI1
(lp363
sI2
(lp364
sI3
(lp365
sI4
(lp366
sI5
(lp367
ssI1
(dp368
I0
g363
sI1
(lp369
sI2
(lp370
sI3
(lp371
sI4
(lp372
sI5
(lp373
ssI2
(dp374
I0
g364
sI1
g370
sI2
(lp375
sI3
(lp376
sI4
(lp377
sI5
(lp378
ssI3
(dp379
I0
g365
sI1
g371
sI2
g376
sI3
(lp380
sI4
(lp381
sI5
(lp382
ssI4
(dp383
I0
g366
sI1
g372
sI2
g377
sI3
g381
sI4
(lp384
sI5
(lp385
ssI5
(dp386
I0
g367
sI1
g373
sI2
g378
sI3
g382
sI4
g385
sI5
(lp387
ssa(dp388
I0
(dp389
I0
(lp390
sI1
(lp391
Vhttp://dbpedia.org/ontology/abstract
p392
aVhttp://purl.org/dc/terms/subject
p393
aVhttp://www.w3.org/2000/01/rdf-schema#comment
p394
asI2
(lp395
sI3
(lp396
Vhttp://www.w3.org/1999/02/22-rdf-syntax-ns#type
p397
aVhttp://dbpedia.org/property/producer
p398
aVhttp://www.w3.org/2000/01/rdf-schema#comment
p399
aVhttp://dbpedia.org/ontology/abstract
p400
aVhttp://dbpedia.org/ontology/producer
p401
aVhttp://dbpedia.org/property/caption
p402
aVhttp://www.w3.org/2002/07/owl#sameAs
p403
asI4
(lp404
sI5
(lp405
ssI1
(dp406
I0
g391
sI1
(lp407
sI2
(lp408
Vhttp://dbpedia.org/ontology/abstract
p409
aVhttp://www.w3.org/2000/01/rdf-schema#comment
p410
asI3
(lp411
sI4
(lp412
sI5
(lp413
ssI2
(dp414
I0
g395
sI1
g408
sI2
(lp415
sI3
(lp416
Vhttp://dbpedia.org/ontology/abstract
p417
aVhttp://dbpedia.org/ontology/producer
p418
aVhttp://dbpedia.org/property/producer
p419
asI4
(lp420
sI5
(lp421
ssI3
(dp422
I0
g396
sI1
g411
sI2
g416
sI3
(lp423
sI4
(lp424
sI5
(lp425
ssI4
(dp426
I0
g404
sI1
g412
sI2
g420
sI3
g424
sI4
(lp427
sI5
(lp428
ssI5
(dp429
I0
g405
sI1
g413
sI2
g421
sI3
g425
sI4
g428
sI5
(lp430
ssa(dp431
I0
(dp432
I0
(lp433
sI1
(lp434
sI2
(lp435
sI3
(lp436
sI4
(lp437
sI5
(lp438
ssI1
(dp439
I0
g434
sI1
(lp440
sI2
(lp441
sI3
(lp442
sI4
(lp443
sI5
(lp444
ssI2
(dp445
I0
g435
sI1
g441
sI2
(lp446
sI3
(lp447
sI4
(lp448
sI5
(lp449
ssI3
(dp450
I0
g436
sI1
g442
sI2
g447
sI3
(lp451
sI4
(lp452
sI5
(lp453
ssI4
(dp454
I0
g437
sI1
g443
sI2
g448
sI3
g452
sI4
(lp455
sI5
(lp456
ssI5
(dp457
I0
g438
sI1
g444
sI2
g449
sI3
g453
sI4
g456
sI5
(lp458
ssa(dp459
I0
(dp460
I0
(lp461
sI1
(lp462
sI2
(lp463
sI3
(lp464
sI4
(lp465
sI5
(lp466
ssI1
(dp467
I0
g462
sI1
(lp468
sI2
(lp469
sI3
(lp470
sI4
(lp471
sI5
(lp472
ssI2
(dp473
I0
g463
sI1
g469
sI2
(lp474
sI3
(lp475
sI4
(lp476
sI5
(lp477
ssI3
(dp478
I0
g464
sI1
g470
sI2
g475
sI3
(lp479
sI4
(lp480
sI5
(lp481
ssI4
(dp482
I0
g465
sI1
g471
sI2
g476
sI3
g480
sI4
(lp483
sI5
(lp484
ssI5
(dp485
I0
g466
sI1
g472
sI2
g477
sI3
g481
sI4
g484
sI5
(lp486
ssa(dp487
I0
(dp488
I0
(lp489
sI1
(lp490
sI2
(lp491
sI3
(lp492
Vhttp://dbpedia.org/ontology/abstract
p493
aVhttp://dbpedia.org/property/guests
p494
asI4
(lp495
sI5
(lp496
ssI1
(dp497
I0
g490
sI1
(lp498
sI2
(lp499
sI3
(lp500
Vhttp://dbpedia.org/ontology/abstract
p501
aVhttp://www.w3.org/2000/01/rdf-schema#comment
p502
asI4
(lp503
sI5
(lp504
ssI2
(dp505
I0
g491
sI1
g499
sI2
(lp506
sI3
(lp507
Vhttp://dbpedia.org/ontology/abstract
p508
aVhttp://dbpedia.org/property/guests
p509
aVhttp://www.w3.org/2000/01/rdf-schema#comment
p510
asI4
(lp511
sI5
(lp512
ssI3
(dp513
I0
g492
sI1
g500
sI2
g507
sI3
(lp514
sI4
(lp515
sI5
(lp516
ssI4
(dp517
I0
g495
sI1
g503
sI2
g511
sI3
g515
sI4
(lp518
sI5
(lp519
ssI5
(dp520
I0
g496
sI1
g504
sI2
g512
sI3
g516
sI4
g519
sI5
(lp521
ssa(dp522
I0
(dp523
I0
(lp524
sI1
(lp525
sI2
(lp526
sI3
(lp527
sI4
(lp528
sI5
(lp529
ssI1
(dp530
I0
g525
sI1
(lp531
sI2
(lp532
sI3
(lp533
sI4
(lp534
sI5
(lp535
ssI2
(dp536
I0
g526
sI1
g532
sI2
(lp537
sI3
(lp538
sI4
(lp539
sI5
(lp540
ssI3
(dp541
I0
g527
sI1
g533
sI2
g538
sI3
(lp542
sI4
(lp543
sI5
(lp544
ssI4
(dp545
I0
g528
sI1
g534
sI2
g539
sI3
g543
sI4
(lp546
sI5
(lp547
ssI5
(dp548
I0
g529
sI1
g535
sI2
g540
sI3
g544
sI4
g547
sI5
(lp549
ssa(dp550
I0
(dp551
I0
(lp552
sI1
(lp553
sI2
(lp554
sI3
(lp555
Vhttp://www.w3.org/1999/02/22-rdf-syntax-ns#type
p556
asI4
(lp557
sI5
(lp558
ssI1
(dp559
I0
g553
sI1
(lp560
sI2
(lp561
sI3
(lp562
sI4
(lp563
sI5
(lp564
ssI2
(dp565
I0
g554
sI1
g561
sI2
(lp566
sI3
(lp567
sI4
(lp568
sI5
(lp569
ssI3
(dp570
I0
g555
sI1
g562
sI2
g567
sI3
(lp571
sI4
(lp572
Vhttp://www.w3.org/1999/02/22-rdf-syntax-ns#type
p573
asI5
(lp574
ssI4
(dp575
I0
g557
sI1
g563
sI2
g568
sI3
g572
sI4
(lp576
sI5
(lp577
ssI5
(dp578
I0
g558
sI1
g564
sI2
g569
sI3
g574
sI4
g577
sI5
(lp579
ssa(dp580
I0
(dp581
I0
(lp582
sI1
(lp583
sI2
(lp584
sI3
(lp585
sI4
(lp586
sI5
(lp587
ssI1
(dp588
I0
g583
sI1
(lp589
sI2
(lp590
sI3
(lp591
sI4
(lp592
sI5
(lp593
ssI2
(dp594
I0
g584
sI1
g590
sI2
(lp595
sI3
(lp596
sI4
(lp597
sI5
(lp598
ssI3
(dp599
I0
g585
sI1
g591
sI2
g596
sI3
(lp600
sI4
(lp601
sI5
(lp602
ssI4
(dp603
I0
g586
sI1
g592
sI2
g597
sI3
g601
sI4
(lp604
sI5
(lp605
ssI5
(dp606
I0
g587
sI1
g593
sI2
g598
sI3
g602
sI4
g605
sI5
(lp607
ssa(dp608
I0
(dp609
I0
(lp610
sI1
(lp611
sI2
(lp612
sI3
(lp613
sI4
(lp614
sI5
(lp615
ssI1
(dp616
I0
g611
sI1
(lp617
sI2
(lp618
sI3
(lp619
Vhttp://dbpedia.org/ontology/abstract
p620
asI4
(lp621
sI5
(lp622
ssI2
(dp623
I0
g612
sI1
g618
sI2
(lp624
sI3
(lp625
Vhttp://dbpedia.org/ontology/abstract
p626
asI4
(lp627
sI5
(lp628
ssI3
(dp629
I0
g613
sI1
g619
sI2
g625
sI3
(lp630
sI4
(lp631
Vhttp://www.w3.org/1999/02/22-rdf-syntax-ns#type
p632
asI5
(lp633
ssI4
(dp634
I0
g614
sI1
g621
sI2
g627
sI3
g631
sI4
(lp635
sI5
(lp636
ssI5
(dp637
I0
g615
sI1
g622
sI2
g628
sI3
g633
sI4
g636
sI5
(lp638
ssa(dp639
I0
(dp640
I0
(lp641
sI1
(lp642
sI2
(lp643
sI3
(lp644
sI4
(lp645
sI5
(lp646
ssI1
(dp647
I0
g642
sI1
(lp648
sI2
(lp649
sI3
(lp650
sI4
(lp651
sI5
(lp652
ssI2
(dp653
I0
g643
sI1
g649
sI2
(lp654
sI3
(lp655
sI4
(lp656
sI5
(lp657
ssI3
(dp658
I0
g644
sI1
g650
sI2
g655
sI3
(lp659
sI4
(lp660
sI5
(lp661
ssI4
(dp662
I0
g645
sI1
g651
sI2
g656
sI3
g660
sI4
(lp663
sI5
(lp664
ssI5
(dp665
I0
g646
sI1
g652
sI2
g657
sI3
g661
sI4
g664
sI5
(lp666
ssa(dp667
I0
(dp668
I0
(lp669
sI1
(lp670
sI2
(lp671
sI3
(lp672
sI4
(lp673
sI5
(lp674
ssI1
(dp675
I0
g670
sI1
(lp676
sI2
(lp677
sI3
(lp678
sI4
(lp679
sI5
(lp680
ssI2
(dp681
I0
g671
sI1
g677
sI2
(lp682
sI3
(lp683
sI4
(lp684
sI5
(lp685
ssI3
(dp686
I0
g672
sI1
g678
sI2
g683
sI3
(lp687
sI4
(lp688
sI5
(lp689
ssI4
(dp690
I0
g673
sI1
g679
sI2
g684
sI3
g688
sI4
(lp691
sI5
(lp692
ssI5
(dp693
I0
g674
sI1
g680
sI2
g685
sI3
g689
sI4
g692
sI5
(lp694
ssa(dp695
I0
(dp696
I0
(lp697
sI1
(lp698
Vhttp://www.w3.org/1999/02/22-rdf-syntax-ns#type
p699
aVhttp://purl.org/dc/terms/subject
p700
aVhttp://www.w3.org/2000/01/rdf-schema#comment
p701
aVhttp://dbpedia.org/ontology/abstract
p702
aVhttp://dbpedia.org/ontology/lcc
p703
aVhttp://purl.org/voc/vrank#hasRank
p704
aVhttp://dbpedia.org/property/congress
p705
asI2
(lp706
sI3
(lp707
sI4
(lp708
sI5
(lp709
ssI1
(dp710
I0
g698
sI1
(lp711
sI2
(lp712
Vhttp://dbpedia.org/ontology/abstract
p713
aVhttp://www.w3.org/2000/01/rdf-schema#comment
p714
asI3
(lp715
Vhttp://dbpedia.org/ontology/abstract
p716
aVhttp://www.w3.org/2000/01/rdf-schema#comment
p717
asI4
(lp718
Vhttp://dbpedia.org/ontology/wikiPageExternalLink
p719
aVhttp://dbpedia.org/ontology/dcc
p720
asI5
(lp721
ssI2
(dp722
I0
g706
sI1
g712
sI2
(lp723
sI3
(lp724
sI4
(lp725
sI5
(lp726
ssI3
(dp727
I0
g707
sI1
g715
sI2
g724
sI3
(lp728
sI4
(lp729
sI5
(lp730
ssI4
(dp731
I0
g708
sI1
g718
sI2
g725
sI3
g729
sI4
(lp732
sI5
(lp733
ssI5
(dp734
I0
g709
sI1
g721
sI2
g726
sI3
g730
sI4
g733
sI5
(lp735
ssa.