(lp1
(lp2
(lp3
((lp4
Vhttp://www.w3.org/2002/07/owl#Thing
p5
aVhttp://www.wikidata.org/entity/Q2188189
p6
aVhttp://www.wikidata.org/entity/Q386724
p7
aVhttp://www.wikidata.org/entity/Q482994
p8
aVhttp://dbpedia.org/ontology/MusicalWork
p9
aVhttp://dbpedia.org/ontology/Work
p10
aVhttp://schema.org/CreativeWork
p11
aVhttp://schema.org/MusicAlbum
p12
aVhttp://dbpedia.org/resource/Jack_Stapleton_and_Laurie_Montgomery_series
tp13
aa(lp14
a(lp15
((lp16
Vhttp://www.w3.org/2002/07/owl#Thing
p17
aVhttp://www.wikidata.org/entity/Q12136
p18
aVhttp://dbpedia.org/ontology/Disease
p19
aVhttp://umbel.org/umbel/rc/AilmentCondition
p20
aVhttp://dbpedia.org/resource/Generalized_anxiety_disorder
tp21
aa(lp22
a(lp23
a(lp24
a(lp25
a(lp26
a(lp27
a(lp28
a(lp29
a(lp30
a(lp31
a(lp32
a(lp33
a(lp34
a(lp35
a(lp36
((lp37
Vhttp://dbpedia.org/class/yago/Abstraction100002137
p38
aVhttp://dbpedia.org/class/yago/Attribute100024264
p39
aVhttp://dbpedia.org/class/yago/Condition113920835
p40
aVhttp://dbpedia.org/class/yago/Disease114070360
p41
aVhttp://dbpedia.org/class/yago/GeneticDisease114151139
p42
aVhttp://dbpedia.org/class/yago/IllHealth114052046
p43
aVhttp://dbpedia.org/class/yago/Illness114061805
p44
aVhttp://dbpedia.org/class/yago/PhysicalCondition114034177
p45
aVhttp://dbpedia.org/class/yago/State100024720
p46
aVhttp://www.w3.org/2002/07/owl#Thing
p47
aVhttp://www.wikidata.org/entity/Q12136
p48
aVhttp://dbpedia.org/ontology/Disease
p49
aVhttp://dbpedia.org/class/yago/GeneticDisorders
p50
aVhttp://dbpedia.org/class/yago/PathologicalState114051917
p51
aVhttp://dbpedia.org/resource/Inherited_disorders_of_trafficking
p52
tp53
aa(lp54
aa.