(lp1
(lp2
(lp3
a(lp4
((lp5
Vhttp://www.w3.org/2002/07/owl#Thing
p6
aVhttp://xmlns.com/foaf/0.1/Person
p7
aVhttp://dbpedia.org/ontology/Person
p8
aVhttp://www.ontologydesignpatterns.org/ont/dul/DUL.owl#Agent
p9
aVhttp://www.ontologydesignpatterns.org/ont/dul/DUL.owl#NaturalPerson
p10
aVhttp://www.wikidata.org/entity/Q215627
p11
aVhttp://www.wikidata.org/entity/Q5
p12
aVhttp://dbpedia.org/ontology/Agent
p13
aVhttp://schema.org/Person
p14
aVhttp://dbpedia.org/resource/Himanshi_Khurana
tp15
aa(lp16
aa(lp17
(lp18
a(lp19
a(lp20
aa(lp21
(lp22
a(lp23
a(lp24
aa(lp25
(lp26
a(lp27
a(lp28
aa(lp29
(lp30
a(lp31
((lp32
Vhttp://dbpedia.org/class/yago/Alumnus109786338
p33
aVhttp://dbpedia.org/class/yago/Analyst109790482
p34
aVhttp://dbpedia.org/class/yago/CausalAgent100007347
p35
aVhttp://dbpedia.org/class/yago/Expert109617867
p36
aVhttp://dbpedia.org/class/yago/Intellectual109621545
p37
aVhttp://dbpedia.org/class/yago/LivingThing100004258
p38
aVhttp://dbpedia.org/class/yago/Mathematician110301261
p39
aVhttp://dbpedia.org/class/yago/Object100002684
p40
aVhttp://dbpedia.org/class/yago/Organism100004475
p41
aVhttp://dbpedia.org/class/yago/Person100007846
p42
aVhttp://dbpedia.org/class/yago/Scholar110557854
p43
aVhttp://dbpedia.org/class/yago/Scientist110560637
p44
aVhttp://dbpedia.org/class/yago/Whole100003553
p45
aVhttp://dbpedia.org/class/yago/YagoLegalActorGeo
p46
aVhttp://www.w3.org/2002/07/owl#Thing
p47
aVhttp://xmlns.com/foaf/0.1/Person
p48
aVhttp://dbpedia.org/ontology/Person
p49
aVhttp://www.ontologydesignpatterns.org/ont/dul/DUL.owl#Agent
p50
aVhttp://www.ontologydesignpatterns.org/ont/dul/DUL.owl#NaturalPerson
p51
aVhttp://www.wikidata.org/entity/Q215627
p52
aVhttp://www.wikidata.org/entity/Q5
p53
aVhttp://dbpedia.org/ontology/Agent
p54
aVhttp://schema.org/Person
p55
aVhttp://dbpedia.org/class/yago/YagoLegalActor
p56
aVhttp://dbpedia.org/class/yago/JapaneseMathematicians
p57
aVhttp://dbpedia.org/class/yago/KyotoUniversityAlumni
p58
aVhttp://dbpedia.org/class/yago/MathematicalAnalysts
p59
aVhttp://dbpedia.org/class/yago/PhysicalEntity100001930
p60
aVhttp://dbpedia.org/resource/Hiroshi_Okamura
tp61
aa(lp62
aa(lp63
(lp64
a(lp65
a(lp66
aa(lp67
(lp68
a(lp69
a(lp70
aa(lp71
(lp72
a(lp73
((lp74
Vhttp://www.w3.org/2002/07/owl#Thing
p75
aVhttp://xmlns.com/foaf/0.1/Person
p76
aVhttp://dbpedia.org/ontology/Person
p77
aVhttp://www.ontologydesignpatterns.org/ont/dul/DUL.owl#Agent
p78
aVhttp://www.ontologydesignpatterns.org/ont/dul/DUL.owl#NaturalPerson
p79
aVhttp://www.wikidata.org/entity/Q215627
p80
aVhttp://www.wikidata.org/entity/Q5
p81
aVhttp://dbpedia.org/ontology/Agent
p82
aVhttp://schema.org/Person
p83
aVhttp://dbpedia.org/resource/Hovanes_Margarian
tp84
aa(lp85
aa(lp86
(lp87
a(lp88
a(lp89
aa(lp90
(lp91
a(lp92
a(lp93
aa(lp94
(lp95
a(lp96
((lp97
Vhttp://www.w3.org/2002/07/owl#Thing
p98
aVhttp://xmlns.com/foaf/0.1/Person
p99
aVhttp://dbpedia.org/ontology/Person
p100
aVhttp://www.ontologydesignpatterns.org/ont/dul/DUL.owl#Agent
p101
aVhttp://www.ontologydesignpatterns.org/ont/dul/DUL.owl#NaturalPerson
p102
aVhttp://www.wikidata.org/entity/Q215627
p103
aVhttp://www.wikidata.org/entity/Q5
p104
aVhttp://dbpedia.org/ontology/Agent
p105
aVhttp://schema.org/Person
p106
aVhttp://dbpedia.org/resource/Hussain_Jawad
tp107
aa(lp108
aa(lp109
(lp110
a(lp111
((lp112
Vhttp://www.w3.org/2002/07/owl#Thing
p113
aVhttp://xmlns.com/foaf/0.1/Person
p114
aVhttp://dbpedia.org/ontology/Person
p115
aVhttp://www.ontologydesignpatterns.org/ont/dul/DUL.owl#Agent
p116
aVhttp://www.ontologydesignpatterns.org/ont/dul/DUL.owl#NaturalPerson
p117
aVhttp://www.wikidata.org/entity/Q215627
p118
aVhttp://www.wikidata.org/entity/Q5
p119
aVhttp://dbpedia.org/ontology/Agent
p120
aVhttp://schema.org/Person
p121
aVhttp://dbpedia.org/resource/Ian_Reisner
tp122
aa(lp123
aa(lp124
(lp125
a(lp126
((lp127
Vhttp://www.w3.org/2002/07/owl#Thing
p128
aVhttp://xmlns.com/foaf/0.1/Person
p129
aVhttp://dbpedia.org/ontology/Person
p130
aVhttp://www.ontologydesignpatterns.org/ont/dul/DUL.owl#Agent
p131
aVhttp://www.ontologydesignpatterns.org/ont/dul/DUL.owl#NaturalPerson
p132
aVhttp://www.wikidata.org/entity/Q215627
p133
aVhttp://www.wikidata.org/entity/Q5
p134
aVhttp://dbpedia.org/ontology/Agent
p135
aVhttp://schema.org/Person
p136
aVhttp://dbpedia.org/resource/Ibrahim_AlHusseini
p137
tp138
aa(lp139
aa(lp140
(lp141
a(lp142
a(lp143
aa(lp144
(lp145
a(lp146
a(lp147
aa.