(lp1
(dp2
I0
(dp3
I0
(lp4
sI1
(lp5
Vhttp://dbpedia.org/ontology/birthPlace
p6
aVhttp://dbpedia.org/property/birthPlace
p7
asI2
(lp8
ssI1
(dp9
I0
g5
sI1
(lp10
sI2
(lp11
Vhttp://dbpedia.org/ontology/birthPlace
p12
aVhttp://dbpedia.org/property/birthPlace
p13
assI2
(dp14
I1
g11
sI2
(lp15
ssa(dp16
I0
(dp17
I0
(lp18
sI1
(lp19
sI2
(lp20
ssI1
(dp21
I0
g19
sI1
(lp22
sI2
(lp23
ssI2
(dp24
I1
g23
sI2
(lp25
ssa(dp26
I0
(dp27
I0
(lp28
sI1
(lp29
sI2
(lp30
ssI1
(dp31
I0
g29
sI1
(lp32
sI2
(lp33
ssI2
(dp34
I0
g30
sI1
g33
sI2
(lp35
ssa(dp36
I0
(dp37
I0
(lp38
sI1
(lp39
sI2
(lp40
ssI1
(dp41
I0
g39
sI1
(lp42
sI2
(lp43
ssI2
(dp44
I0
g40
sI1
g43
sI2
(lp45
ssa(dp46
I0
(dp47
I0
(lp48
sI1
(lp49
sI2
(lp50
ssI1
(dp51
I0
g49
sI1
(lp52
sI2
(lp53
ssI2
(dp54
I1
g53
sI2
(lp55
ssa(dp56
I0
(dp57
I0
(lp58
sI1
(lp59
sI2
(lp60
ssI1
(dp61
I0
g59
sI1
(lp62
sI2
(lp63
ssI2
(dp64
I1
g63
sI2
(lp65
ssa(dp66
I0
(dp67
I0
(lp68
sI1
(lp69
sI2
(lp70
ssI1
(dp71
I0
g69
sI1
(lp72
sI2
(lp73
ssI2
(dp74
I1
g73
sI2
(lp75
ssa(dp76
I0
(dp77
I0
(lp78
sI1
(lp79
Vhttp://dbpedia.org/ontology/birthPlace
p80
aVhttp://dbpedia.org/property/birthPlace
p81
asI2
(lp82
ssI1
(dp83
I0
g79
sI1
(lp84
sI2
(lp85
Vhttp://dbpedia.org/ontology/birthPlace
p86
aVhttp://dbpedia.org/property/birthPlace
p87
assI2
(dp88
I1
g85
sI2
(lp89
ssa(dp90
I0
(dp91
I0
(lp92
sI1
(lp93
sI2
(lp94
ssI1
(dp95
I0
g93
sI1
(lp96
sI2
(lp97
ssI2
(dp98
I1
g97
sI2
(lp99
ssa(dp100
I0
(dp101
I0
(lp102
sI1
(lp103
sI2
(lp104
ssI1
(dp105
I0
g103
sI1
(lp106
sI2
(lp107
ssI2
(dp108
I0
g104
sI1
g107
sI2
(lp109
ssa(dp110
I0
(dp111
I0
(lp112
sI1
(lp113
Vhttp://dbpedia.org/property/residence
p114
aVhttp://dbpedia.org/ontology/birthPlace
p115
aVhttp://dbpedia.org/property/birthPlace
p116
aVhttp://dbpedia.org/ontology/residence
p117
aVhttp://dbpedia.org/property/hometown
p118
asI2
(lp119
ssI1
(dp120
I0
g113
sI1
(lp121
sI2
(lp122
Vhttp://dbpedia.org/property/residence
p123
aVhttp://dbpedia.org/ontology/birthPlace
p124
aVhttp://dbpedia.org/property/birthPlace
p125
aVhttp://dbpedia.org/ontology/residence
p126
aVhttp://dbpedia.org/property/hometown
p127
assI2
(dp128
I1
g122
sI2
(lp129
ssa(dp130
I0
(dp131
I0
(lp132
sI1
(lp133
Vhttp://dbpedia.org/ontology/birthPlace
p134
aVhttp://dbpedia.org/property/birthPlace
p135
aVhttp://dbpedia.org/property/placeOfBirth
p136
asI2
(lp137
ssI1
(dp138
I0
g133
sI1
(lp139
sI2
(lp140
Vhttp://dbpedia.org/ontology/birthPlace
p141
aVhttp://dbpedia.org/property/birthPlace
p142
aVhttp://dbpedia.org/property/placeOfBirth
p143
assI2
(dp144
I1
g140
sI2
(lp145
ssa(dp146
I0
(dp147
I0
(lp148
sI1
(lp149
sI2
(lp150
ssI1
(dp151
I0
g149
sI1
(lp152
sI2
(lp153
ssI2
(dp154
I1
g153
sI2
(lp155
ssa(dp156
I0
(dp157
I0
(lp158
sI1
(lp159
sI2
(lp160
ssI1
(dp161
I0
g159
sI1
(lp162
sI2
(lp163
ssI2
(dp164
I1
g163
sI2
(lp165
ssa(dp166
I0
(dp167
I0
(lp168
sI1
(lp169
sI2
(lp170
ssI1
(dp171
I0
g169
sI1
(lp172
sI2
(lp173
ssI2
(dp174
I0
g170
sI1
g173
sI2
(lp175
ssa.