(lp1
(lp2
(dp3
Vstart
p4
I0
sVdisambiguatedURL
p5
NsVnamedEntity
p6
V?1295 +VAT (12 Months)
p7
sVoffset
p8
I22
saa(lp9
(dp10
Vstart
p11
I0
sVdisambiguatedURL
p12
NsVnamedEntity
p13
VUnlimited Annual VacancyPackage
p14
sVoffset
p15
I31
saa(lp16
(dp17
Vstart
p18
I0
sVdisambiguatedURL
p19
NsVnamedEntity
p20
VUnlimited vacancy     advertisements with logo and any Jobs4 site      Vacancies automatically         added to regional sites andJobs4Network.co.uk      Recruiters profile page with logo and link to your site    Your logo included in our recruiting now section
p21
sVoffset
p22
I261
saa(lp23
(dp24
Vstart
p25
I0
sVdisambiguatedURL
p26
NsVnamedEntity
p27
V
sVoffset
p28
I0
saa(lp29
(dp30
Vstart
p31
I0
sVdisambiguatedURL
p32
Vhttp://dbpedia.org/resource/Null
p33
sVnamedEntity
p34
VNULL
p35
sVoffset
p36
I4
saa.