(lp1
(lp2
(lp3
a(lp4
a(lp5
a(lp6
a(lp7
Vhttp://dbpedia.org/resource/North_Yorkshire
p8
aaa(lp9
(lp10
a(lp11
a(lp12
a(lp13
a(lp14
Vhttp://dbpedia.org/resource/North_Yorkshire
p15
aaa(lp16
(lp17
a(lp18
a(lp19
a(lp20
a(lp21
Vhttp://dbpedia.org/resource/Anheuser-Busch_InBev
p22
aaa(lp23
(lp24
a(lp25
a(lp26
a(lp27
a(lp28
aa(lp29
(lp30
a(lp31
a(lp32
a(lp33
a(lp34
aa(lp35
(lp36
a(lp37
a(lp38
a(lp39
a(lp40
Vhttp://dbpedia.org/resource/Washington_(state)
p41
aaa(lp42
(lp43
a(lp44
Vhttp://dbpedia.org/resource/Slingshot_57
p45
aa(lp46
a(lp47
a(lp48
aa(lp49
(lp50
a(lp51
Vhttp://dbpedia.org/resource/Millennial_Media
p52
aa(lp53
a(lp54
a(lp55
Vhttp://dbpedia.org/resource/MediaDefender
p56
aaa(lp57
(lp58
a(lp59
a(lp60
a(lp61
a(lp62
Vhttp://dbpedia.org/resource/North_Yorkshire
p63
aaa(lp64
(lp65
a(lp66
a(lp67
a(lp68
a(lp69
aa.