ccollections
defaultdict
p1
(c__builtin__
dict
p2
tRp3
I10
(dp4
I1
(lp5
Vhttp://www.w3.org/2000/01/rdf-schema#seeAlso
p6
aVhttp://xmlns.com/foaf/0.1/primaryTopic
p7
aVhttp://www.w3.org/2000/01/rdf-schema#comment
p8
aVhttp://dbpedia.org/property/region
p9
aVhttp://dbpedia.org/ontology/wikiPageDisambiguates
p10
aVhttp://dbpedia.org/ontology/abstract
p11
aVhttp://dbpedia.org/property/imageCaption
p12
aVhttp://dbpedia.org/property/place
p13
aVhttp://dbpedia.org/property/name
p14
aVhttp://dbpedia.org/ontology/wikiPageRedirects
p15
aVhttp://dbpedia.org/property/otherName
p16
aVhttp://www.w3.org/ns/prov#wasDerivedFrom
p17
aVhttp://dbpedia.org/ontology/place
p18
aVhttp://xmlns.com/foaf/0.1/isPrimaryTopicOf
p19
aVhttp://dbpedia.org/property/locatorMap
p20
aVhttp://dbpedia.org/ontology/spokenIn
p21
aVhttp://xmlns.com/foaf/0.1/name
p22
aVhttp://dbpedia.org/property/hasPhotoCollection
p23
aVhttp://www.w3.org/2000/01/rdf-schema#label
p24
aVhttp://dbpedia.org/property/locatorCaption
p25
aVhttp://www.w3.org/2002/07/owl#sameAs
p26
asI2
(lp27
sI3
(lp28
sI4
(lp29
ss.