(lp1
(lp2
(lp3
a(lp4
a(lp5
a(lp6
aa(lp7
(lp8
a(lp9
a(lp10
a(lp11
aa(lp12
(lp13
a(lp14
Vhttp://dbpedia.org/resource/Blackjack_Mulligan
p15
aa(lp16
a(lp17
aa(lp18
(lp19
a(lp20
Vhttp://dbpedia.org/resource/Montel_Vontavious_Porter
p21
aa(lp22
a(lp23
aa(lp24
(lp25
a(lp26
a(lp27
a(lp28
aa(lp29
(lp30
a(lp31
a(lp32
a(lp33
aa(lp34
(lp35
a(lp36
Vhttp://dbpedia.org/resource/Chris_Benoit
p37
aa(lp38
a(lp39
aa(lp40
(lp41
a(lp42
a(lp43
a(lp44
aa(lp45
(lp46
a(lp47
a(lp48
a(lp49
aa(lp50
(lp51
a(lp52
a(lp53
a(lp54
aa(lp55
(lp56
a(lp57
a(lp58
a(lp59
aa(lp60
(lp61
a(lp62
Vhttp://dbpedia.org/resource/Barry_Windham
p63
aa(lp64
a(lp65
aa(lp66
(lp67
a(lp68
a(lp69
a(lp70
aa(lp71
(lp72
a(lp73
a(lp74
a(lp75
aa(lp76
(lp77
a(lp78
a(lp79
a(lp80
aa(lp81
(lp82
a(lp83
Vhttp://dbpedia.org/resource/Shelton_Benjamin
p84
aa(lp85
a(lp86
aa(lp87
(lp88
a(lp89
a(lp90
a(lp91
aa(lp92
(lp93
a(lp94
a(lp95
a(lp96
aa(lp97
(lp98
a(lp99
a(lp100
a(lp101
aa(lp102
(lp103
a(lp104
a(lp105
a(lp106
aa.