(lp1
(lp2
(lp3
a(lp4
a(lp5
a(lp6
a(lp7
a(lp8
a(lp9
a(lp10
a(lp11
a(lp12
a(lp13
a(lp14
a(lp15
a(lp16
aa(lp17
(lp18
a(lp19
a(lp20
a(lp21
a(lp22
a(lp23
a(lp24
a(lp25
((lVhttp://dbpedia.org/resource/Null
tp26
aa(lp27
a(lp28
a(lp29
a(lp30
a(lp31
a(lp32
aa(lp33
(lp34
a(lp35
a(lp36
a(lp37
a(lp38
a(lp39
a(lp40
a(lp41
((lVhttp://dbpedia.org/resource/Null
tp42
aa(lp43
a(lp44
a(lp45
a(lp46
a(lp47
a(lp48
aa(lp49
(lp50
a(lp51
a(lp52
a(lp53
a(lp54
a(lp55
a(lp56
a(lp57
((lVhttp://dbpedia.org/resource/Null
p58
tp59
aa(lp60
a(lp61
a(lp62
a(lp63
a(lp64
a(lp65
aa.