(lp1
(lp2
(dp3
Vstart
p4
I0
sVdisambiguatedURL
p5
NsVnamedEntity
p6
Vu
sVoffset
p7
I1
saa(lp8
(dp9
Vstart
p10
I0
sVdisambiguatedURL
p11
Vhttp://dbpedia.org/resource/Programmed_input/output
p12
sVnamedEntity
p13
Vo
sVoffset
p14
I1
saa(lp15
(dp16
Vstart
p17
I0
sVdisambiguatedURL
p18
Vhttp://dbpedia.org/resource/Data_rate_units
p19
sVnamedEntity
p20
Vs
sVoffset
p21
I1
saa(lp22
(dp23
Vstart
p24
I0
sVdisambiguatedURL
p25
Vhttp://dbpedia.org/resource/Gray_(unit)
p26
sVnamedEntity
p27
Vh
sVoffset
p28
I1
saa(lp29
(dp30
Vstart
p31
I0
sVdisambiguatedURL
p32
Vhttp://dbpedia.org/resource/Sailing_ship
p33
sVnamedEntity
p34
Vv
sVoffset
p35
I1
saa.