(lp1
(lp2
(lp3
a(lp4
a(lp5
((lp6
Vhttp://dbpedia.org/class/yago/AmericanTelevisionWriters
p7
aVhttp://dbpedia.org/class/yago/CausalAgent100007347
p8
aVhttp://dbpedia.org/class/yago/Communicator109610660
p9
aVhttp://dbpedia.org/class/yago/LivingThing100004258
p10
aVhttp://dbpedia.org/class/yago/Object100002684
p11
aVhttp://dbpedia.org/class/yago/Organism100004475
p12
aVhttp://dbpedia.org/class/yago/Person100007846
p13
aVhttp://dbpedia.org/class/yago/Whole100003553
p14
aVhttp://dbpedia.org/class/yago/Writer110794014
p15
aVhttp://dbpedia.org/class/yago/YagoLegalActorGeo
p16
aVhttp://www.w3.org/2002/07/owl#Thing
p17
aVhttp://xmlns.com/foaf/0.1/Person
p18
aVhttp://dbpedia.org/ontology/Person
p19
aVhttp://www.ontologydesignpatterns.org/ont/dul/DUL.owl#Agent
p20
aVhttp://www.ontologydesignpatterns.org/ont/dul/DUL.owl#NaturalPerson
p21
aVhttp://www.wikidata.org/entity/Q215627
p22
aVhttp://www.wikidata.org/entity/Q5
p23
aVhttp://dbpedia.org/ontology/Agent
p24
aVhttp://schema.org/Person
p25
aVhttp://dbpedia.org/class/yago/YagoLegalActor
p26
aVhttp://dbpedia.org/class/yago/LivingPeople
p27
aVhttp://dbpedia.org/class/yago/PhysicalEntity100001930
p28
aVhttp://dbpedia.org/resource/Josh_Appelbaum
tp29
aaa(lp30
(lp31
a(lp32
a(lp33
aa(lp34
(lp35
a(lp36
a(lp37
aa(lp38
(lp39
a(lp40
a(lp41
aa(lp42
(lp43
a(lp44
a(lp45
aa(lp46
(lp47
a(lp48
a(lp49
aa(lp50
(lp51
a(lp52
a(lp53
aa(lp54
(lp55
a(lp56
a(lp57
aa(lp58
(lp59
a(lp60
a(lp61
((lp62
Vhttp://dbpedia.org/class/yago/Athlete109820263
p63
aVhttp://dbpedia.org/class/yago/CausalAgent100007347
p64
aVhttp://dbpedia.org/class/yago/Contestant109613191
p65
aVhttp://dbpedia.org/class/yago/LivingThing100004258
p66
aVhttp://dbpedia.org/class/yago/Marathoner110292969
p67
aVhttp://dbpedia.org/class/yago/Object100002684
p68
aVhttp://dbpedia.org/class/yago/Organism100004475
p69
aVhttp://dbpedia.org/class/yago/Person100007846
p70
aVhttp://dbpedia.org/class/yago/Whole100003553
p71
aVhttp://dbpedia.org/class/yago/YagoLegalActorGeo
p72
aVhttp://www.w3.org/2002/07/owl#Thing
p73
aVhttp://xmlns.com/foaf/0.1/Person
p74
aVhttp://dbpedia.org/ontology/Person
p75
aVhttp://www.ontologydesignpatterns.org/ont/dul/DUL.owl#Agent
p76
aVhttp://www.ontologydesignpatterns.org/ont/dul/DUL.owl#NaturalPerson
p77
aVhttp://www.wikidata.org/entity/Q215627
p78
aVhttp://www.wikidata.org/entity/Q5
p79
aVhttp://dbpedia.org/ontology/Agent
p80
aVhttp://schema.org/Person
p81
aVhttp://dbpedia.org/class/yago/OlympicAthletesOfJapan
p82
aVhttp://dbpedia.org/class/yago/PeopleFromAkitaPrefecture
p83
aVhttp://dbpedia.org/class/yago/YagoLegalActor
p84
aVhttp://dbpedia.org/class/yago/JapaneseLong-distanceRunners
p85
aVhttp://dbpedia.org/class/yago/LivingPeople
p86
aVhttp://dbpedia.org/class/yago/PhysicalEntity100001930
p87
aVhttp://dbpedia.org/class/yago/Runner110542888
p88
aVhttp://dbpedia.org/resource/Keizo_Yamada
tp89
aaa(lp90
(lp91
a(lp92
a(lp93
aa(lp94
(lp95
a(lp96
a(lp97
((lp98
Vhttp://dbpedia.org/class/yago/BadPerson109831962
p99
aVhttp://dbpedia.org/class/yago/CausalAgent100007347
p100
aVhttp://dbpedia.org/class/yago/Deserter110006842
p101
aVhttp://dbpedia.org/class/yago/LivingThing100004258
p102
aVhttp://dbpedia.org/class/yago/Object100002684
p103
aVhttp://dbpedia.org/class/yago/Organism100004475
p104
aVhttp://dbpedia.org/class/yago/Person100007846
p105
aVhttp://dbpedia.org/class/yago/Whole100003553
p106
aVhttp://dbpedia.org/class/yago/Wrongdoer109633969
p107
aVhttp://dbpedia.org/class/yago/YagoLegalActorGeo
p108
aVhttp://www.w3.org/2002/07/owl#Thing
p109
aVhttp://xmlns.com/foaf/0.1/Person
p110
aVhttp://dbpedia.org/ontology/Person
p111
aVhttp://www.ontologydesignpatterns.org/ont/dul/DUL.owl#Agent
p112
aVhttp://www.ontologydesignpatterns.org/ont/dul/DUL.owl#NaturalPerson
p113
aVhttp://www.wikidata.org/entity/Q215627
p114
aVhttp://www.wikidata.org/entity/Q5
p115
aVhttp://dbpedia.org/ontology/Agent
p116
aVhttp://schema.org/Person
p117
aVhttp://dbpedia.org/class/yago/ChaouiPeople
p118
aVhttp://dbpedia.org/class/yago/DefectorsFromTheFrenchArmyToTheALN
p119
aVhttp://dbpedia.org/class/yago/PeopleFromBatnaProvince
p120
aVhttp://dbpedia.org/class/yago/YagoLegalActor
p121
aVhttp://dbpedia.org/class/yago/LivingPeople
p122
aVhttp://dbpedia.org/class/yago/PhysicalEntity100001930
p123
aVhttp://dbpedia.org/resource/Khaled_Nezzar
p124
tp125
aaa(lp126
(lp127
a(lp128
a(lp129
aa(lp130
(lp131
a(lp132
a(lp133
aa(lp134
(lp135
a(lp136
a(lp137
aa(lp138
(lp139
a(lp140
a(lp141
aa(lp142
(lp143
a(lp144
a(lp145
aa(lp146
(lp147
a(lp148
a(lp149
aa(lp150
(lp151
a(lp152
a(lp153
aa(lp154
(lp155
a(lp156
a(lp157
aa.