(lp1
(lp2
(dp3
Vstart
p4
I0
sVdisambiguatedURL
p5
NsVnamedEntity
p6
V6 tabs x 500mg
p7
sVoffset
p8
I14
saa(lp9
(dp10
Vstart
p11
I0
sVdisambiguatedURL
p12
NsVnamedEntity
p13
V6 tabs x 500mg
p14
sVoffset
p15
I14
saa(lp16
(dp17
Vstart
p18
I0
sVdisambiguatedURL
p19
NsVnamedEntity
p20
V500mg tabs x 30Generic:CHLORZOXAZONE
p21
sVoffset
p22
I36
saa(lp23
(dp24
Vstart
p25
I0
sVdisambiguatedURL
p26
NsVnamedEntity
p27
V500mg tabs x 30Generic:CHLORZOXAZONE
p28
sVoffset
p29
I36
saa(lp30
(dp31
Vstart
p32
I0
sVdisambiguatedURL
p33
NsVnamedEntity
p34
V500mg tabs x 60Generic:CHLORZOXAZONE
p35
sVoffset
p36
I36
saa(lp37
(dp38
Vstart
p39
I0
sVdisambiguatedURL
p40
NsVnamedEntity
p41
V500mg tabs x 60Generic:CHLORZOXAZONE
p42
sVoffset
p43
I36
saa(lp44
(dp45
Vstart
p46
I0
sVdisambiguatedURL
p47
NsVnamedEntity
p48
V500mg tabs x 90Generic:CHLORZOXAZONE
p49
sVoffset
p50
I36
saa(lp51
(dp52
Vstart
p53
I0
sVdisambiguatedURL
p54
NsVnamedEntity
p55
V500mg tabs x 90Generic:CHLORZOXAZONE
p56
sVoffset
p57
I36
saa.