(lp1
(lp2
(lp3
a(lp4
a(lp5
a(lp6
a(lp7
a(lp8
a(lp9
aa(lp10
(lp11
a(lp12
Vhttp://dbpedia.org/resource/United_States
p13
aa(lp14
a(lp15
a(lp16
a(lp17
a(lp18
aa(lp19
(lp20
Vhttp://dbpedia.org/resource/General_Electric
p21
aa(lp22
Vhttp://dbpedia.org/resource/United_States
p23
aa(lp24
Vhttp://dbpedia.org/resource/Conglomerate
p25
aa(lp26
a(lp27
a(lp28
a(lp29
aa(lp30
(lp31
a(lp32
a(lp33
Vhttp://dbpedia.org/resource/Telecommunications_service
p34
aa(lp35
a(lp36
a(lp37
a(lp38
aa(lp39
(lp40
a(lp41
a(lp42
a(lp43
a(lp44
a(lp45
a(lp46
aa(lp47
(lp48
a(lp49
a(lp50
a(lp51
a(lp52
a(lp53
a(lp54
aa(lp55
(lp56
a(lp57
Vhttp://dbpedia.org/resource/United_States
p58
aa(lp59
a(lp60
a(lp61
a(lp62
a(lp63
aa(lp64
(lp65
a(lp66
a(lp67
a(lp68
a(lp69
a(lp70
a(lp71
aa(lp72
(lp73
a(lp74
Vhttp://dbpedia.org/resource/Netherlands
p75
aa(lp76
a(lp77
a(lp78
a(lp79
a(lp80
aa(lp81
(lp82
Vhttp://dbpedia.org/resource/Berkshire_Hathaway
p83
aa(lp84
Vhttp://dbpedia.org/resource/United_States
p85
aa(lp86
Vhttp://dbpedia.org/resource/Diversified_financial
p87
aa(lp88
a(lp89
a(lp90
a(lp91
aa(lp92
(lp93
a(lp94
Vhttp://dbpedia.org/resource/United_States
p95
aa(lp96
Vhttp://dbpedia.org/resource/Telecommunications_service
p97
aa(lp98
a(lp99
a(lp100
a(lp101
aa(lp102
(lp103
a(lp104
Vhttp://dbpedia.org/resource/United_Kingdom
p105
aa(lp106
a(lp107
a(lp108
a(lp109
a(lp110
aa(lp111
(lp112
a(lp113
Vhttp://dbpedia.org/resource/United_States
p114
aa(lp115
a(lp116
a(lp117
a(lp118
a(lp119
aa(lp120
(lp121
a(lp122
Vhttp://dbpedia.org/resource/United_States
p123
aa(lp124
a(lp125
a(lp126
a(lp127
a(lp128
aa(lp129
(lp130
Vhttp://dbpedia.org/resource/BHP_Billiton
p131
aa(lp132
a(lp133
a(lp134
a(lp135
a(lp136
a(lp137
aa(lp138
(lp139
a(lp140
Vhttp://dbpedia.org/resource/Switzerland
p141
aa(lp142
a(lp143
a(lp144
a(lp145
a(lp146
aa(lp147
(lp148
Vhttp://dbpedia.org/resource/Sinopec
p149
aa(lp150
a(lp151
a(lp152
a(lp153
a(lp154
a(lp155
aa(lp156
(lp157
a(lp158
a(lp159
a(lp160
a(lp161
a(lp162
a(lp163
aa(lp164
(lp165
Vhttp://dbpedia.org/resource/HSBC
p166
aa(lp167
Vhttp://dbpedia.org/resource/United_Kingdom
p168
aa(lp169
a(lp170
a(lp171
a(lp172
a(lp173
aa(lp174
(lp175
a(lp176
Vhttp://dbpedia.org/resource/United_States
p177
aa(lp178
a(lp179
a(lp180
a(lp181
a(lp182
aa.