ccollections
defaultdict
p1
(c__builtin__
dict
p2
tRp3
I2
(dp4
I1
(lp5
sI2
(lp6
sI3
(lp7
ssI3
(dp8
I1
(lp9
sI2
(lp10
sI3
(lp11
ssI4
(dp12
I1
(lp13
sI2
(lp14
sI3
(lp15
ssI5
(dp16
I1
(lp17
sI2
(lp18
sI3
(lp19
ssI8
(dp20
I1
(lp21
sI2
(lp22
sI3
(lp23
ssI9
(dp24
I1
(lp25
sI2
(lp26
sI3
(lp27
ssI10
(dp28
I1
(lp29
sI2
(lp30
sI3
(lp31
ssI11
(dp32
I1
(lp33
sI2
(lp34
sI3
(lp35
ssI16
(dp36
I1
(lp37
sI2
(lp38
sI3
(lp39
ss.