(lp1
(lp2
(lp3
((lp4
Vhttp://dbpedia.org/class/yago/10th-centuryChristianSaints
p5
aVhttp://dbpedia.org/class/yago/CausalAgent100007347
p6
aVhttp://dbpedia.org/class/yago/GoodPerson110138767
p7
aVhttp://dbpedia.org/class/yago/Leader109623038
p8
aVhttp://dbpedia.org/class/yago/LivingThing100004258
p9
aVhttp://dbpedia.org/class/yago/Object100002684
p10
aVhttp://dbpedia.org/class/yago/Organism100004475
p11
aVhttp://dbpedia.org/class/yago/Person100007846
p12
aVhttp://dbpedia.org/class/yago/Pope110453533
p13
aVhttp://dbpedia.org/class/yago/Saint110546850
p14
aVhttp://dbpedia.org/class/yago/SpiritualLeader109505153
p15
aVhttp://dbpedia.org/class/yago/Whole100003553
p16
aVhttp://dbpedia.org/class/yago/YagoLegalActorGeo
p17
aVhttp://dbpedia.org/class/yago/PhysicalEntity100001930
p18
aVhttp://dbpedia.org/class/yago/PopesOfTheCopticOrthodoxChurchOfAlexandria
p19
aVhttp://dbpedia.org/class/yago/YagoLegalActor
p20
aVhttp://dbpedia.org/resource/Pope_Abraham_of_Alexandria
tp21
aa(lp22
a(lp23
a(lp24
a(lp25
a(lp26
aa(lp27
(lp28
((lp29
Vhttp://www.w3.org/2002/07/owl#Thing
p30
aVhttp://xmlns.com/foaf/0.1/Person
p31
aVhttp://dbpedia.org/ontology/Person
p32
aVhttp://www.ontologydesignpatterns.org/ont/dul/DUL.owl#Agent
p33
aVhttp://www.ontologydesignpatterns.org/ont/dul/DUL.owl#NaturalPerson
p34
aVhttp://www.wikidata.org/entity/Q215627
p35
aVhttp://www.wikidata.org/entity/Q5
p36
aVhttp://dbpedia.org/ontology/Agent
p37
aVhttp://schema.org/Person
p38
aVhttp://dbpedia.org/resource/Adalbert_(archbishop_of_Magdeburg)
tp39
aa(lp40
a(lp41
a(lp42
a(lp43
a(lp44
aa(lp45
(lp46
((lp47
Vhttp://www.w3.org/2002/07/owl#Thing
p48
aVhttp://xmlns.com/foaf/0.1/Person
p49
aVhttp://dbpedia.org/ontology/Person
p50
aVhttp://www.ontologydesignpatterns.org/ont/dul/DUL.owl#Agent
p51
aVhttp://www.ontologydesignpatterns.org/ont/dul/DUL.owl#NaturalPerson
p52
aVhttp://www.wikidata.org/entity/Q215627
p53
aVhttp://www.wikidata.org/entity/Q43115
p54
aVhttp://www.wikidata.org/entity/Q5
p55
aVhttp://dbpedia.org/ontology/Agent
p56
aVhttp://dbpedia.org/ontology/Cleric
p57
aVhttp://dbpedia.org/ontology/Saint
p58
aVhttp://schema.org/Person
p59
aVhttp://umbel.org/umbel/rc/Cleric
p60
aVhttp://umbel.org/umbel/rc/PersonWithOccupation
p61
aVhttp://umbel.org/umbel/rc/Saint
p62
aVhttp://dbpedia.org/class/yago/10th-centuryBishops
p63
aVhttp://dbpedia.org/class/yago/10th-centuryChristianMartyrs
p64
aVhttp://dbpedia.org/class/yago/10th-centuryChristianSaints
p65
aVhttp://dbpedia.org/class/yago/Adult109605289
p66
aVhttp://dbpedia.org/class/yago/Bishop109857200
p67
aVhttp://dbpedia.org/class/yago/BishopsOfPrague
p68
aVhttp://dbpedia.org/class/yago/CausalAgent100007347
p69
aVhttp://dbpedia.org/class/yago/Clergyman109927451
p70
aVhttp://dbpedia.org/class/yago/Educator110045713
p71
aVhttp://dbpedia.org/class/yago/GoodPerson110138767
p72
aVhttp://dbpedia.org/class/yago/Leader109623038
p73
aVhttp://dbpedia.org/class/yago/LivingThing100004258
p74
aVhttp://dbpedia.org/class/yago/Martyr110296618
p75
aVhttp://dbpedia.org/class/yago/Missionary110322957
p76
aVhttp://dbpedia.org/class/yago/Object100002684
p77
aVhttp://dbpedia.org/class/yago/Organism100004475
p78
aVhttp://dbpedia.org/class/yago/Person100007846
p79
aVhttp://dbpedia.org/class/yago/Priest110470779
p80
aVhttp://dbpedia.org/class/yago/Professional110480253
p81
aVhttp://dbpedia.org/class/yago/Saint110546850
p82
aVhttp://dbpedia.org/class/yago/SpiritualLeader109505153
p83
aVhttp://dbpedia.org/class/yago/Teacher110694258
p84
aVhttp://dbpedia.org/class/yago/Unfortunate109630641
p85
aVhttp://dbpedia.org/class/yago/Victim110752093
p86
aVhttp://dbpedia.org/class/yago/Whole100003553
p87
aVhttp://dbpedia.org/class/yago/YagoLegalActorGeo
p88
aVhttp://dbpedia.org/class/yago/ChristianMartyrsOfTheMiddleAges
p89
aVhttp://dbpedia.org/class/yago/CzechRomanCatholicBishops
p90
aVhttp://dbpedia.org/class/yago/CzechRomanCatholicSaints
p91
aVhttp://dbpedia.org/class/yago/CzechSaints
p92
aVhttp://dbpedia.org/class/yago/PhysicalEntity100001930
p93
aVhttp://dbpedia.org/class/yago/PeopleFromNymburkDistrict
p94
aVhttp://dbpedia.org/class/yago/PolishRomanCatholicSaints
p95
aVhttp://dbpedia.org/class/yago/PolishSaints
p96
aVhttp://dbpedia.org/class/yago/YagoLegalActor
p97
aVhttp://dbpedia.org/class/yago/RomanCatholicMissionaries
p98
aVhttp://dbpedia.org/resource/Adalbert_of_Prague
tp99
aa(lp100
a(lp101
a(lp102
a(lp103
a(lp104
aa(lp105
(lp106
((lp107
Vhttp://www.w3.org/2002/07/owl#Thing
p108
aVhttp://xmlns.com/foaf/0.1/Person
p109
aVhttp://dbpedia.org/ontology/Person
p110
aVhttp://www.ontologydesignpatterns.org/ont/dul/DUL.owl#Agent
p111
aVhttp://www.ontologydesignpatterns.org/ont/dul/DUL.owl#NaturalPerson
p112
aVhttp://www.wikidata.org/entity/Q215627
p113
aVhttp://www.wikidata.org/entity/Q43115
p114
aVhttp://www.wikidata.org/entity/Q5
p115
aVhttp://dbpedia.org/ontology/Agent
p116
aVhttp://dbpedia.org/ontology/Cleric
p117
aVhttp://dbpedia.org/ontology/Saint
p118
aVhttp://schema.org/Person
p119
aVhttp://umbel.org/umbel/rc/Cleric
p120
aVhttp://umbel.org/umbel/rc/Saint
p121
aVhttp://dbpedia.org/class/yago/10th-centuryChristianFemaleSaints
p122
aVhttp://dbpedia.org/class/yago/Adult109605289
p123
aVhttp://dbpedia.org/class/yago/Aristocrat109807754
p124
aVhttp://dbpedia.org/class/yago/CausalAgent100007347
p125
aVhttp://dbpedia.org/class/yago/Communicator109610660
p126
aVhttp://dbpedia.org/class/yago/Duchess110038409
p127
aVhttp://dbpedia.org/class/yago/Emperor110053004
p128
aVhttp://dbpedia.org/class/yago/Empress110053439
p129
aVhttp://dbpedia.org/class/yago/GoodPerson110138767
p130
aVhttp://dbpedia.org/class/yago/HeadOfState110164747
p131
aVhttp://dbpedia.org/class/yago/Leader109623038
p132
aVhttp://dbpedia.org/class/yago/LivingThing100004258
p133
aVhttp://dbpedia.org/class/yago/Negotiator110351874
p134
aVhttp://dbpedia.org/class/yago/Noblewoman110242791
p135
aVhttp://dbpedia.org/class/yago/Object100002684
p136
aVhttp://dbpedia.org/class/yago/Organism100004475
p137
aVhttp://dbpedia.org/class/yago/Person100007846
p138
aVhttp://dbpedia.org/class/yago/Regent110516117
p139
aVhttp://dbpedia.org/class/yago/Representative110522035
p140
aVhttp://dbpedia.org/class/yago/Ruler110541229
p141
aVhttp://dbpedia.org/class/yago/Saint110546850
p142
aVhttp://dbpedia.org/class/yago/Sovereign110628644
p143
aVhttp://dbpedia.org/class/yago/Whole100003553
p144
aVhttp://dbpedia.org/class/yago/Woman110787470
p145
aVhttp://dbpedia.org/class/yago/YagoLegalActorGeo
p146
aVhttp://dbpedia.org/class/yago/DuchessesOfSaxony
p147
aVhttp://dbpedia.org/class/yago/Female109619168
p148
aVhttp://dbpedia.org/class/yago/FemaleAristocrat110083823
p149
aVhttp://dbpedia.org/class/yago/FemaleRegents
p150
aVhttp://dbpedia.org/class/yago/FrankishSaints
p151
aVhttp://dbpedia.org/class/yago/FrankishWomen
p152
aVhttp://dbpedia.org/class/yago/FrenchRomanCatholicSaints
p153
aVhttp://dbpedia.org/class/yago/PhysicalEntity100001930
p154
aVhttp://dbpedia.org/class/yago/GermanRomanCatholicSaints
p155
aVhttp://dbpedia.org/class/yago/HolyRomanEmpresses
p156
aVhttp://dbpedia.org/class/yago/PeopleFromBurgundy(FrenchRegion)
p157
aVhttp://dbpedia.org/class/yago/YagoLegalActor
p158
aVhttp://dbpedia.org/class/yago/RomanCatholicRoyalSaints
p159
aVhttp://dbpedia.org/class/yago/WomenInMedievalWarfare
p160
aVhttp://dbpedia.org/class/yago/WomenOfMedievalGermany
p161
aVhttp://dbpedia.org/resource/Adelaide_of_Italy
tp162
aa(lp163
a(lp164
a(lp165
a(lp166
a(lp167
aa(lp168
(lp169
a(lp170
a(lp171
a(lp172
a(lp173
a(lp174
aa(lp175
(lp176
((lp177
Vhttp://www.w3.org/2002/07/owl#Thing
p178
aVhttp://xmlns.com/foaf/0.1/Person
p179
aVhttp://dbpedia.org/ontology/Person
p180
aVhttp://www.ontologydesignpatterns.org/ont/dul/DUL.owl#Agent
p181
aVhttp://www.ontologydesignpatterns.org/ont/dul/DUL.owl#NaturalPerson
p182
aVhttp://www.wikidata.org/entity/Q215627
p183
aVhttp://www.wikidata.org/entity/Q43115
p184
aVhttp://www.wikidata.org/entity/Q5
p185
aVhttp://dbpedia.org/ontology/Agent
p186
aVhttp://dbpedia.org/ontology/Cleric
p187
aVhttp://dbpedia.org/ontology/Saint
p188
aVhttp://schema.org/Person
p189
aVhttp://umbel.org/umbel/rc/Cleric
p190
aVhttp://umbel.org/umbel/rc/Saint
p191
aVhttp://dbpedia.org/resource/Adrian_and_Natalia_of_Nicomedia
tp192
aa(lp193
a(lp194
a(lp195
a(lp196
a(lp197
aa(lp198
(lp199
a(lp200
a(lp201
a(lp202
a(lp203
a(lp204
aa(lp205
(lp206
a(lp207
a(lp208
a(lp209
a(lp210
a(lp211
aa(lp212
(lp213
a(lp214
a(lp215
a(lp216
a(lp217
a(lp218
aa(lp219
(lp220
a(lp221
a(lp222
a(lp223
a(lp224
a(lp225
aa(lp226
(lp227
((lp228
Vhttp://www.w3.org/2002/07/owl#Thing
p229
aVhttp://xmlns.com/foaf/0.1/Person
p230
aVhttp://dbpedia.org/ontology/Person
p231
aVhttp://www.ontologydesignpatterns.org/ont/dul/DUL.owl#Agent
p232
aVhttp://www.ontologydesignpatterns.org/ont/dul/DUL.owl#NaturalPerson
p233
aVhttp://www.wikidata.org/entity/Q215627
p234
aVhttp://www.wikidata.org/entity/Q43115
p235
aVhttp://www.wikidata.org/entity/Q5
p236
aVhttp://dbpedia.org/ontology/Agent
p237
aVhttp://dbpedia.org/ontology/Cleric
p238
aVhttp://dbpedia.org/ontology/Saint
p239
aVhttp://schema.org/Person
p240
aVhttp://umbel.org/umbel/rc/Cleric
p241
aVhttp://umbel.org/umbel/rc/PersonWithOccupation
p242
aVhttp://umbel.org/umbel/rc/Saint
p243
aVhttp://dbpedia.org/class/yago/7th-centuryBishops
p244
aVhttp://dbpedia.org/class/yago/7th-centuryChristianSaints
p245
aVhttp://dbpedia.org/class/yago/7th-centuryIrishPeople
p246
aVhttp://dbpedia.org/class/yago/7th-centuryPeople
p247
aVhttp://dbpedia.org/class/yago/Absentee109757653
p248
aVhttp://dbpedia.org/class/yago/AnglicanSaints
p249
aVhttp://dbpedia.org/class/yago/Bishop109857200
p250
aVhttp://dbpedia.org/class/yago/BishopsOfLindisfarne
p251
aVhttp://dbpedia.org/class/yago/CausalAgent100007347
p252
aVhttp://dbpedia.org/class/yago/Clergyman109927451
p253
aVhttp://dbpedia.org/class/yago/Exile110071332
p254
aVhttp://dbpedia.org/class/yago/GoodPerson110138767
p255
aVhttp://dbpedia.org/class/yago/Leader109623038
p256
aVhttp://dbpedia.org/class/yago/LivingThing100004258
p257
aVhttp://dbpedia.org/class/yago/Monk110112129
p258
aVhttp://dbpedia.org/class/yago/Object100002684
p259
aVhttp://dbpedia.org/class/yago/Organism100004475
p260
aVhttp://dbpedia.org/class/yago/Person100007846
p261
aVhttp://dbpedia.org/class/yago/Priest110470779
p262
aVhttp://dbpedia.org/class/yago/ReligiousPerson109628382
p263
aVhttp://dbpedia.org/class/yago/Saint110546850
p264
aVhttp://dbpedia.org/class/yago/SpiritualLeader109505153
p265
aVhttp://dbpedia.org/class/yago/Traveler109629752
p266
aVhttp://dbpedia.org/class/yago/Whole100003553
p267
aVhttp://dbpedia.org/class/yago/YagoLegalActorGeo
p268
aVhttp://dbpedia.org/class/yago/EasternOrthodoxSaints
p269
aVhttp://dbpedia.org/class/yago/PhysicalEntity100001930
p270
aVhttp://dbpedia.org/class/yago/Religious110518602
p271
aVhttp://dbpedia.org/class/yago/IrishChristianMonks
p272
aVhttp://dbpedia.org/class/yago/IrishExpatriatesInTheUnitedKingdom
p273
aVhttp://dbpedia.org/class/yago/MedievalIrishSaints
p274
aVhttp://dbpedia.org/class/yago/NorthumbrianSaints
p275
aVhttp://dbpedia.org/class/yago/YagoLegalActor
p276
aVhttp://dbpedia.org/resource/Aidan_of_Lindisfarne
tp277
aa(lp278
a(lp279
a(lp280
a(lp281
a(lp282
aa(lp283
(lp284
a(lp285
a(lp286
a(lp287
a(lp288
a(lp289
aa(lp290
(lp291
a(lp292
a(lp293
a(lp294
a(lp295
a(lp296
aa(lp297
(lp298
a(lp299
a(lp300
a(lp301
a(lp302
a(lp303
aa(lp304
(lp305
((lp306
Vhttp://www.w3.org/2002/07/owl#Thing
p307
aVhttp://xmlns.com/foaf/0.1/Person
p308
aVhttp://dbpedia.org/ontology/Person
p309
aVhttp://www.ontologydesignpatterns.org/ont/dul/DUL.owl#Agent
p310
aVhttp://www.ontologydesignpatterns.org/ont/dul/DUL.owl#NaturalPerson
p311
aVhttp://www.wikidata.org/entity/Q215627
p312
aVhttp://www.wikidata.org/entity/Q5
p313
aVhttp://dbpedia.org/ontology/Agent
p314
aVhttp://dbpedia.org/ontology/ChristianBishop
p315
aVhttp://dbpedia.org/ontology/Cleric
p316
aVhttp://schema.org/Person
p317
aVhttp://umbel.org/umbel/rc/Cleric
p318
aVhttp://umbel.org/umbel/rc/PersonWithOccupation
p319
aVhttp://umbel.org/umbel/rc/Saint
p320
aVhttp://dbpedia.org/class/yago/4th-centuryChristianSaints
p321
aVhttp://dbpedia.org/class/yago/4th-centuryPhilosophers
p322
aVhttp://dbpedia.org/class/yago/Adult109605289
p323
aVhttp://dbpedia.org/class/yago/Ancestor109792555
p324
aVhttp://dbpedia.org/class/yago/AnglicanSaints
p325
aVhttp://dbpedia.org/class/yago/Archbishop109805151
p326
aVhttp://dbpedia.org/class/yago/ArchbishopsOfMilan
p327
aVhttp://dbpedia.org/class/yago/Bishop109857200
p328
aVhttp://dbpedia.org/class/yago/CausalAgent100007347
p329
aVhttp://dbpedia.org/class/yago/Clergyman109927451
p330
aVhttp://dbpedia.org/class/yago/Communicator109610660
p331
aVhttp://dbpedia.org/class/yago/Correspondent109966554
p332
aVhttp://dbpedia.org/class/yago/Doctor110020890
p333
aVhttp://dbpedia.org/class/yago/Ethicist110065066
p334
aVhttp://dbpedia.org/class/yago/Father110080869
p335
aVhttp://dbpedia.org/class/yago/GoodPerson110138767
p336
aVhttp://dbpedia.org/class/yago/HealthProfessional110165109
p337
aVhttp://dbpedia.org/class/yago/Intellectual109621545
p338
aVhttp://dbpedia.org/class/yago/Leader109623038
p339
aVhttp://dbpedia.org/class/yago/LivingThing100004258
p340
aVhttp://dbpedia.org/class/yago/Object100002684
p341
aVhttp://dbpedia.org/class/yago/Organism100004475
p342
aVhttp://dbpedia.org/class/yago/Parent110399491
p343
aVhttp://dbpedia.org/class/yago/Person100007846
p344
aVhttp://dbpedia.org/class/yago/Philosopher110423589
p345
aVhttp://dbpedia.org/class/yago/Priest110470779
p346
aVhttp://dbpedia.org/class/yago/Professional110480253
p347
aVhttp://dbpedia.org/class/yago/Relative110235549
p348
aVhttp://dbpedia.org/class/yago/Saint110546850
p349
aVhttp://dbpedia.org/class/yago/Scholar110557854
p350
aVhttp://dbpedia.org/class/yago/SpiritualLeader109505153
p351
aVhttp://dbpedia.org/class/yago/Theologian110705615
p352
aVhttp://dbpedia.org/class/yago/Whole100003553
p353
aVhttp://dbpedia.org/class/yago/YagoLegalActorGeo
p354
aVhttp://dbpedia.org/class/yago/ChristianEthicists
p355
aVhttp://dbpedia.org/class/yago/ChristianTheologians
p356
aVhttp://dbpedia.org/class/yago/ChurchFathers
p357
aVhttp://dbpedia.org/class/yago/DoctorsOfTheChurch
p358
aVhttp://dbpedia.org/class/yago/EasternOrthodoxSaints
p359
aVhttp://dbpedia.org/class/yago/MedicalPractitioner110305802
p360
aVhttp://dbpedia.org/class/yago/PhysicalEntity100001930
p361
aVhttp://dbpedia.org/class/yago/Genitor110126708
p362
aVhttp://dbpedia.org/class/yago/LatinLetterWriters
p363
aVhttp://dbpedia.org/class/yago/Progenitor110126806
p364
aVhttp://dbpedia.org/class/yago/PeopleCelebratedInTheLutheranLiturgicalCalendar
p365
aVhttp://dbpedia.org/class/yago/PeopleFromTrier
p366
aVhttp://dbpedia.org/class/yago/YagoLegalActor
p367
aVhttp://dbpedia.org/class/yago/SaintsOfTheGoldenLegend
p368
aVhttp://dbpedia.org/resource/Ambrose
p369
tp370
aa(lp371
a(lp372
a(lp373
a(lp374
a(lp375
aa(lp376
(lp377
a(lp378
a(lp379
a(lp380
a(lp381
a(lp382
aa(lp383
(lp384
a(lp385
a(lp386
a(lp387
a(lp388
a(lp389
aa(lp390
(lp391
a(lp392
a(lp393
a(lp394
a(lp395
a(lp396
aa(lp397
(lp398
a(lp399
a(lp400
a(lp401
a(lp402
a(lp403
aa(lp404
(lp405
a(lp406
a(lp407
a(lp408
a(lp409
a(lp410
aa.