ccollections
defaultdict
p1
(c__builtin__
dict
p2
tRp3
I0
(dp4
I0
(lp5
sI1
(lp6
sI2
(lp7
sI3
(lp8
ssI1
(dp9
I0
(lp10
sI1
(lp11
sI2
(lp12
sI3
(lp13
ssI2
(dp14
I0
(lp15
Vhttp://dbpedia.org/property/placeOfDeath
p16
aVhttp://dbpedia.org/ontology/populationPlace
p17
aVhttp://www.w3.org/2000/01/rdf-schema#comment
p18
aVhttp://dbpedia.org/ontology/birthPlace
p19
aVhttp://dbpedia.org/property/deathPlace
p20
aVhttp://dbpedia.org/property/northwest
p21
aVhttp://dbpedia.org/property/birthPlace
p22
aVhttp://dbpedia.org/ontology/deathPlace
p23
aVhttp://dbpedia.org/ontology/abstract
p24
aVhttp://dbpedia.org/property/placeOfBirth
p25
asI1
(lp26
Vhttp://dbpedia.org/property/placeOfDeath
p27
aVhttp://dbpedia.org/ontology/populationPlace
p28
aVhttp://www.w3.org/2000/01/rdf-schema#comment
p29
aVhttp://dbpedia.org/ontology/birthPlace
p30
aVhttp://dbpedia.org/property/deathPlace
p31
aVhttp://dbpedia.org/property/northwest
p32
aVhttp://dbpedia.org/property/birthPlace
p33
aVhttp://dbpedia.org/ontology/deathPlace
p34
aVhttp://dbpedia.org/ontology/abstract
p35
aVhttp://dbpedia.org/property/placeOfBirth
p36
asI2
(lp37
sI3
(lp38
ssI3
(dp39
I0
(lp40
sI1
(lp41
sI2
(lp42
sI3
(lp43
ssI6
(dp44
I0
(lp45
sI1
(lp46
sI2
(lp47
sI3
(lp48
ssI7
(dp49
I0
(lp50
sI1
(lp51
sI2
(lp52
sI3
(lp53
ssI8
(dp54
I0
(lp55
Vhttp://www.w3.org/2000/01/rdf-schema#seeAlso
p56
aVhttp://dbpedia.org/ontology/county
p57
aVhttp://dbpedia.org/property/stadium
p58
aVhttp://dbpedia.org/property/recorded
p59
aVhttp://dbpedia.org/property/broadcastArea
p60
aVhttp://dbpedia.org/property/conventionalLongName
p61
aVhttp://dbpedia.org/property/place
p62
aVhttp://dbpedia.org/ontology/foundationPlace
p63
aVhttp://dbpedia.org/property/sovereigntyType
p64
aVhttp://dbpedia.org/ontology/longName
p65
aVhttp://www.w3.org/ns/prov#wasDerivedFrom
p66
aVhttp://dbpedia.org/property/caption
p67
aVhttp://dbpedia.org/property/seat
p68
aVhttp://dbpedia.org/property/hasPhotoCollection
p69
aVhttp://dbpedia.org/ontology/regionServed
p70
aVhttp://dbpedia.org/ontology/country
p71
aVhttp://dbpedia.org/property/commonName
p72
aVhttp://dbpedia.org/property/upperHouse
p73
aVhttp://dbpedia.org/property/locations
p74
aVhttp://dbpedia.org/property/country/region
p75
aVhttp://dbpedia.org/ontology/place
p76
aVhttp://xmlns.com/foaf/0.1/isPrimaryTopicOf
p77
aVhttp://dbpedia.org/property/language
p78
aVhttp://dbpedia.org/property/winnerOrigin
p79
aVhttp://dbpedia.org/property/country
p80
aVhttp://dbpedia.org/ontology/broadcastArea
p81
aVhttp://dbpedia.org/ontology/wikiPageDisambiguates
p82
aVhttp://dbpedia.org/property/establishedEvent
p83
aVhttp://dbpedia.org/property/placeOfBirth
p84
aVhttp://dbpedia.org/ontology/wikiPageExternalLink
p85
aVhttp://xmlns.com/foaf/0.1/primaryTopic
p86
aVhttp://dbpedia.org/ontology/recordedIn
p87
aVhttp://purl.org/dc/terms/subject
p88
aVhttp://dbpedia.org/ontology/populationPlace
p89
aVhttp://dbpedia.org/ontology/abstract
p90
aVhttp://xmlns.com/foaf/0.1/depiction
p91
aVhttp://dbpedia.org/property/location
p92
aVhttp://dbpedia.org/property/armiger
p93
aVhttp://dbpedia.org/ontology/locationCountry
p94
aVhttp://dbpedia.org/ontology/thumbnail
p95
aVhttp://dbpedia.org/ontology/locatedInArea
p96
aVhttp://dbpedia.org/property/foundation
p97
aVhttp://dbpedia.org/ontology/flag
p98
aVhttp://www.w3.org/2000/01/rdf-schema#label
p99
aVhttp://dbpedia.org/property/subdivisionName
p100
aVhttp://dbpedia.org/ontology/language
p101
aVhttp://dbpedia.org/property/title
p102
aVhttp://dbpedia.org/property/basinCountries
p103
aVhttp://dbpedia.org/property/imageMap
p104
aVhttp://dbpedia.org/ontology/location
p105
aVhttp://www.w3.org/2000/01/rdf-schema#comment
p106
aVhttp://dbpedia.org/ontology/birthPlace
p107
aVhttp://dbpedia.org/ontology/wikiPageRedirects
p108
aVhttp://dbpedia.org/property/area
p109
aVhttp://dbpedia.org/property/imageFlag
p110
aVhttp://dbpedia.org/property/nat
p111
aVhttp://dbpedia.org/property/headquarters
p112
aVhttp://dbpedia.org/property/imageCoat
p113
aVhttp://xmlns.com/foaf/0.1/name
p114
aVhttp://dbpedia.org/property/leaderTitle
p115
aVhttp://dbpedia.org/property/locationCountry
p116
aVhttp://www.w3.org/2002/07/owl#sameAs
p117
aVhttp://dbpedia.org/ontology/headquarter
p118
asI1
(lp119
Vhttp://www.w3.org/2000/01/rdf-schema#seeAlso
p120
aVhttp://dbpedia.org/ontology/county
p121
aVhttp://dbpedia.org/property/stadium
p122
aVhttp://dbpedia.org/property/recorded
p123
aVhttp://dbpedia.org/property/broadcastArea
p124
aVhttp://dbpedia.org/property/conventionalLongName
p125
aVhttp://dbpedia.org/property/place
p126
aVhttp://dbpedia.org/ontology/foundationPlace
p127
aVhttp://dbpedia.org/property/sovereigntyType
p128
aVhttp://dbpedia.org/ontology/longName
p129
aVhttp://www.w3.org/ns/prov#wasDerivedFrom
p130
aVhttp://dbpedia.org/property/caption
p131
aVhttp://dbpedia.org/property/seat
p132
aVhttp://dbpedia.org/property/hasPhotoCollection
p133
aVhttp://dbpedia.org/ontology/regionServed
p134
aVhttp://dbpedia.org/ontology/country
p135
aVhttp://dbpedia.org/property/commonName
p136
aVhttp://dbpedia.org/property/upperHouse
p137
aVhttp://dbpedia.org/property/locations
p138
aVhttp://dbpedia.org/property/country/region
p139
aVhttp://dbpedia.org/ontology/place
p140
aVhttp://xmlns.com/foaf/0.1/isPrimaryTopicOf
p141
aVhttp://dbpedia.org/property/language
p142
aVhttp://dbpedia.org/property/winnerOrigin
p143
aVhttp://dbpedia.org/property/country
p144
aVhttp://dbpedia.org/ontology/broadcastArea
p145
aVhttp://dbpedia.org/ontology/wikiPageDisambiguates
p146
aVhttp://dbpedia.org/property/establishedEvent
p147
aVhttp://dbpedia.org/property/placeOfBirth
p148
aVhttp://dbpedia.org/ontology/wikiPageExternalLink
p149
aVhttp://xmlns.com/foaf/0.1/primaryTopic
p150
aVhttp://dbpedia.org/ontology/recordedIn
p151
aVhttp://purl.org/dc/terms/subject
p152
aVhttp://dbpedia.org/ontology/populationPlace
p153
aVhttp://dbpedia.org/ontology/abstract
p154
aVhttp://xmlns.com/foaf/0.1/depiction
p155
aVhttp://dbpedia.org/property/location
p156
aVhttp://dbpedia.org/property/armiger
p157
aVhttp://dbpedia.org/ontology/locationCountry
p158
aVhttp://dbpedia.org/ontology/thumbnail
p159
aVhttp://dbpedia.org/ontology/locatedInArea
p160
aVhttp://dbpedia.org/property/foundation
p161
aVhttp://dbpedia.org/ontology/flag
p162
aVhttp://www.w3.org/2000/01/rdf-schema#label
p163
aVhttp://dbpedia.org/property/subdivisionName
p164
aVhttp://dbpedia.org/ontology/language
p165
aVhttp://dbpedia.org/property/title
p166
aVhttp://dbpedia.org/property/basinCountries
p167
aVhttp://dbpedia.org/property/imageMap
p168
aVhttp://dbpedia.org/ontology/location
p169
aVhttp://www.w3.org/2000/01/rdf-schema#comment
p170
aVhttp://dbpedia.org/ontology/birthPlace
p171
aVhttp://dbpedia.org/ontology/wikiPageRedirects
p172
aVhttp://dbpedia.org/property/area
p173
aVhttp://dbpedia.org/property/imageFlag
p174
aVhttp://dbpedia.org/property/nat
p175
aVhttp://dbpedia.org/property/headquarters
p176
aVhttp://dbpedia.org/property/imageCoat
p177
aVhttp://xmlns.com/foaf/0.1/name
p178
aVhttp://dbpedia.org/property/leaderTitle
p179
aVhttp://dbpedia.org/property/locationCountry
p180
aVhttp://www.w3.org/2002/07/owl#sameAs
p181
aVhttp://dbpedia.org/ontology/headquarter
p182
asI2
(lp183
sI3
(lp184
ssI9
(dp185
I0
(lp186
Vhttp://dbpedia.org/ontology/abstract
p187
aVhttp://dbpedia.org/property/filename
p188
aVhttp://www.w3.org/2000/01/rdf-schema#comment
p189
asI1
(lp190
sI2
(lp191
sI3
(lp192
ssI10
(dp193
I0
(lp194
Vhttp://dbpedia.org/ontology/abstract
p195
aVhttp://dbpedia.org/property/filename
p196
aVhttp://www.w3.org/2000/01/rdf-schema#comment
p197
asI1
(lp198
sI2
(lp199
sI3
(lp200
ssI11
(dp201
I0
(lp202
sI1
(lp203
sI2
(lp204
sI3
(lp205
ssI13
(dp206
I0
(lp207
sI1
(lp208
sI2
(lp209
sI3
(lp210
ssI14
(dp211
I0
(lp212
sI1
(lp213
sI2
(lp214
sI3
(lp215
ssI15
(dp216
I0
(lp217
sI1
(lp218
sI2
(lp219
sI3
(lp220
ssI16
(dp221
I0
(lp222
Vhttp://www.w3.org/1999/02/22-rdf-syntax-ns#type
p223
aVhttp://purl.org/dc/terms/subject
p224
aVhttp://dbpedia.org/property/headquarters
p225
aVhttp://dbpedia.org/ontology/abstract
p226
aVhttp://xmlns.com/foaf/0.1/depiction
p227
aVhttp://dbpedia.org/ontology/thumbnail
p228
asI1
(lp229
Vhttp://www.w3.org/1999/02/22-rdf-syntax-ns#type
p230
aVhttp://purl.org/dc/terms/subject
p231
aVhttp://dbpedia.org/property/headquarters
p232
aVhttp://dbpedia.org/ontology/abstract
p233
aVhttp://xmlns.com/foaf/0.1/depiction
p234
aVhttp://dbpedia.org/ontology/thumbnail
p235
asI2
(lp236
sI3
(lp237
ssI17
(dp238
I0
(lp239
sI1
(lp240
sI2
(lp241
sI3
(lp242
ssI18
(dp243
I0
(lp244
sI1
(lp245
sI2
(lp246
sI3
(lp247
ss.