(lp1
(lp2
(lp3
a(lp4
a(lp5
a(lp6
a(lp7
a(lp8
a(lp9
a(lp10
aa(lp11
(lp12
a(lp13
a(lp14
a(lp15
a(lp16
a(lp17
a(lp18
a(lp19
aa(lp20
(lp21
a(lp22
a(lp23
a(lp24
a(lp25
a(lp26
a(lp27
a(lp28
aa(lp29
(lp30
a(lp31
a(lp32
a(lp33
a(lp34
a(lp35
a(lp36
a(lp37
aa(lp38
(lp39
a(lp40
a(lp41
a(lp42
a(lp43
a(lp44
a(lp45
a(lp46
aa(lp47
(lp48
Vhttp://dbpedia.org/resource/Oceania
p49
aa(lp50
a(lp51
a(lp52
a(lp53
a(lp54
a(lp55
a(lp56
aa(lp57
(lp58
a(lp59
a(lp60
a(lp61
a(lp62
a(lp63
a(lp64
a(lp65
aa(lp66
(lp67
a(lp68
a(lp69
a(lp70
a(lp71
a(lp72
a(lp73
a(lp74
aa(lp75
(lp76
a(lp77
a(lp78
a(lp79
a(lp80
a(lp81
a(lp82
a(lp83
aa(lp84
(lp85
a(lp86
a(lp87
a(lp88
a(lp89
a(lp90
a(lp91
a(lp92
aa(lp93
(lp94
a(lp95
a(lp96
a(lp97
a(lp98
a(lp99
a(lp100
a(lp101
aa(lp102
(lp103
Vhttp://dbpedia.org/resource/Belarus
p104
aa(lp105
a(lp106
a(lp107
a(lp108
a(lp109
a(lp110
a(lp111
aa(lp112
(lp113
a(lp114
a(lp115
a(lp116
a(lp117
a(lp118
a(lp119
a(lp120
aa(lp121
(lp122
a(lp123
Vhttp://dbpedia.org/resource/Emission_standard
p124
aa(lp125
a(lp126
a(lp127
a(lp128
a(lp129
a(lp130
aa(lp131
(lp132
a(lp133
a(lp134
a(lp135
a(lp136
a(lp137
a(lp138
a(lp139
aa(lp140
(lp141
a(lp142
a(lp143
a(lp144
a(lp145
a(lp146
a(lp147
a(lp148
aa(lp149
(lp150
a(lp151
a(lp152
a(lp153
a(lp154
a(lp155
a(lp156
a(lp157
aa(lp158
(lp159
a(lp160
a(lp161
a(lp162
a(lp163
a(lp164
a(lp165
a(lp166
aa(lp167
(lp168
a(lp169
a(lp170
a(lp171
a(lp172
a(lp173
a(lp174
a(lp175
aa(lp176
(lp177
a(lp178
a(lp179
a(lp180
a(lp181
a(lp182
a(lp183
a(lp184
aa.