(lp1
(lp2
(lp3
a(lp4
a(lp5
((lVhttp://dbpedia.org/resource/Amateur
tp6
aa(lp7
((lVhttp://dbpedia.org/resource/Ballroom
tp8
aa(lp9
aa(lp10
(lp11
a(lp12
a(lp13
((lVhttp://dbpedia.org/resource/Junior_4
tp14
aa(lp15
((lVhttp://dbpedia.org/resource/Ballroom
tp16
aa(lp17
aa(lp18
(lp19
a(lp20
a(lp21
((lVhttp://dbpedia.org/resource/Junior_4
tp22
aa(lp23
((lVhttp://dbpedia.org/resource/Ballroom
tp24
aa(lp25
aa(lp26
(lp27
a(lp28
a(lp29
((lVhttp://dbpedia.org/resource/Youth
tp30
aa(lp31
((lVhttp://dbpedia.org/resource/Ballroom
tp32
aa(lp33
aa(lp34
(lp35
a(lp36
a(lp37
((lVhttp://dbpedia.org/resource/Youth
tp38
aa(lp39
((lVhttp://dbpedia.org/resource/Ballroom
tp40
aa(lp41
aa(lp42
(lp43
a(lp44
a(lp45
((lVhttp://dbpedia.org/resource/Amateur
tp46
aa(lp47
((lp48
Vhttp://www.w3.org/2002/07/owl#Thing
p49
aVhttp://dbpedia.org/resource/ISO/IEC_8859-1
tp50
aa(lp51
aa(lp52
(lp53
a(lp54
a(lp55
((lVhttp://dbpedia.org/resource/Amateur
tp56
aa(lp57
((lp58
Vhttp://www.w3.org/2002/07/owl#Thing
p59
aVhttp://dbpedia.org/resource/ISO/IEC_8859-1
tp60
aa(lp61
aa(lp62
(lp63
a(lp64
a(lp65
((lVhttp://dbpedia.org/resource/Junior_4
tp66
aa(lp67
((lp68
Vhttp://www.w3.org/2002/07/owl#Thing
p69
aVhttp://dbpedia.org/resource/ISO/IEC_8859-1
tp70
aa(lp71
aa(lp72
(lp73
a(lp74
a(lp75
((lVhttp://dbpedia.org/resource/Junior_4
tp76
aa(lp77
((lp78
Vhttp://www.w3.org/2002/07/owl#Thing
p79
aVhttp://dbpedia.org/resource/ISO/IEC_8859-1
tp80
aa(lp81
aa(lp82
(lp83
a(lp84
a(lp85
((lVhttp://dbpedia.org/resource/Youth
tp86
aa(lp87
((lp88
Vhttp://www.w3.org/2002/07/owl#Thing
p89
aVhttp://dbpedia.org/resource/ISO/IEC_8859-1
tp90
aa(lp91
aa(lp92
(lp93
a(lp94
a(lp95
((lVhttp://dbpedia.org/resource/Youth
tp96
aa(lp97
((lp98
Vhttp://www.w3.org/2002/07/owl#Thing
p99
aVhttp://dbpedia.org/resource/ISO/IEC_8859-1
p100
tp101
aa(lp102
aa.