(lp1
(dp2
I0
(dp3
I0
(lp4
sI1
(lp5
sI2
(lp6
ssI1
(dp7
I0
g5
sI1
(lp8
sI2
(lp9
ssI2
(dp10
I0
g6
sI1
g9
sI2
(lp11
ssa(dp12
I0
(dp13
I0
(lp14
sI1
(lp15
sI2
(lp16
ssI1
(dp17
I0
g15
sI1
(lp18
sI2
(lp19
ssI2
(dp20
I0
g16
sI1
g19
sI2
(lp21
ssa(dp22
I0
(dp23
I0
(lp24
sI1
(lp25
sI2
(lp26
ssI1
(dp27
I0
g25
sI1
(lp28
sI2
(lp29
ssI2
(dp30
I0
g26
sI1
g29
sI2
(lp31
ssa(dp32
I0
(dp33
I0
(lp34
sI1
(lp35
sI2
(lp36
ssI1
(dp37
I0
g35
sI1
(lp38
sI2
(lp39
ssI2
(dp40
I0
g36
sI1
g39
sI2
(lp41
ssa(dp42
I0
(dp43
I0
(lp44
sI1
(lp45
sI2
(lp46
ssI1
(dp47
I0
g45
sI1
(lp48
sI2
(lp49
ssI2
(dp50
I0
g46
sI1
g49
sI2
(lp51
ssa(dp52
I0
(dp53
I0
(lp54
sI1
(lp55
Vhttp://dbpedia.org/ontology/wikiPageExternalLink
p56
aVhttp://www.w3.org/1999/02/22-rdf-syntax-ns#type
p57
aVhttp://purl.org/dc/terms/subject
p58
aVhttp://dbpedia.org/ontology/location
p59
aVhttp://www.w3.org/2000/01/rdf-schema#comment
p60
aVhttp://dbpedia.org/ontology/border
p61
aVhttp://dbpedia.org/ontology/abstract
p62
aVhttp://dbpedia.org/property/location
p63
aVhttp://dbpedia.org/ontology/inflow
p64
aVhttp://dbpedia.org/property/namedFor
p65
aVhttp://dbpedia.org/ontology/mouthMountain
p66
aVhttp://dbpedia.org/property/image
p67
aVhttp://dbpedia.org/ontology/routeEnd
p68
aVhttp://dbpedia.org/property/mouthLocation
p69
aVhttp://dbpedia.org/property/mouthName
p70
aVhttp://dbpedia.org/ontology/mouthPlace
p71
aVhttp://dbpedia.org/ontology/city
p72
aVhttp://dbpedia.org/ontology/riverMouth
p73
asI2
(lp74
ssI1
(dp75
I0
g55
sI1
(lp76
sI2
(lp77
ssI2
(dp78
I0
g74
sI1
g77
sI2
(lp79
ssa(dp80
I0
(dp81
I0
(lp82
sI1
(lp83
sI2
(lp84
ssI1
(dp85
I0
g83
sI1
(lp86
sI2
(lp87
ssI2
(dp88
I0
g84
sI1
g87
sI2
(lp89
ssa(dp90
I0
(dp91
I0
(lp92
sI1
(lp93
Vhttp://www.w3.org/1999/02/22-rdf-syntax-ns#type
p94
aVhttp://purl.org/dc/terms/subject
p95
aVhttp://dbpedia.org/ontology/location
p96
aVhttp://www.w3.org/2000/01/rdf-schema#comment
p97
aVhttp://dbpedia.org/ontology/abstract
p98
aVhttp://dbpedia.org/property/location
p99
aVhttp://dbpedia.org/property/cities
p100
aVhttp://dbpedia.org/ontology/city
p101
asI2
(lp102
ssI1
(dp103
I0
g93
sI1
(lp104
sI2
(lp105
ssI2
(dp106
I0
g102
sI1
g105
sI2
(lp107
ssa(dp108
I0
(dp109
I0
(lp110
sI1
(lp111
sI2
(lp112
ssI1
(dp113
I0
g111
sI1
(lp114
sI2
(lp115
ssI2
(dp116
I0
g112
sI1
g115
sI2
(lp117
ssa(dp118
I0
(dp119
I0
(lp120
sI1
(lp121
Vhttp://www.w3.org/1999/02/22-rdf-syntax-ns#type
p122
aVhttp://purl.org/dc/terms/subject
p123
aVhttp://dbpedia.org/ontology/location
p124
aVhttp://dbpedia.org/property/inflow
p125
aVhttp://dbpedia.org/ontology/abstract
p126
aVhttp://www.w3.org/2000/01/rdf-schema#comment
p127
aVhttp://dbpedia.org/property/imageBathymetry
p128
aVhttp://dbpedia.org/ontology/inflow
p129
aVhttp://dbpedia.org/property/namedFor
p130
aVhttp://dbpedia.org/ontology/island
p131
aVhttp://dbpedia.org/property/location
p132
aVhttp://dbpedia.org/property/captionBathymetry
p133
asI2
(lp134
ssI1
(dp135
I0
g121
sI1
(lp136
sI2
(lp137
ssI2
(dp138
I0
g134
sI1
g137
sI2
(lp139
ssa(dp140
I0
(dp141
I0
(lp142
sI1
(lp143
Vhttp://www.w3.org/1999/02/22-rdf-syntax-ns#type
p144
aVhttp://purl.org/dc/terms/subject
p145
aVhttp://dbpedia.org/ontology/location
p146
aVhttp://www.w3.org/2000/01/rdf-schema#comment
p147
aVhttp://dbpedia.org/property/southeast
p148
aVhttp://dbpedia.org/ontology/abstract
p149
aVhttp://dbpedia.org/property/location
p150
aVhttp://dbpedia.org/ontology/routeStart
p151
aVhttp://dbpedia.org/property/cities
p152
aVhttp://dbpedia.org/ontology/city
p153
aVhttp://dbpedia.org/property/northeast
p154
asI2
(lp155
ssI1
(dp156
I0
g143
sI1
(lp157
sI2
(lp158
ssI2
(dp159
I0
g155
sI1
g158
sI2
(lp160
ssa(dp161
I0
(dp162
I0
(lp163
sI1
(lp164
Vhttp://dbpedia.org/ontology/abstract
p165
aVhttp://www.w3.org/2000/01/rdf-schema#comment
p166
asI2
(lp167
ssI1
(dp168
I0
g164
sI1
(lp169
sI2
(lp170
ssI2
(dp171
I0
g167
sI1
g170
sI2
(lp172
ssa(dp173
I0
(dp174
I0
(lp175
sI1
(lp176
sI2
(lp177
ssI1
(dp178
I0
g176
sI1
(lp179
sI2
(lp180
ssI2
(dp181
I0
g177
sI1
g180
sI2
(lp182
ssa(dp183
I0
(dp184
I0
(lp185
sI1
(lp186
Vhttp://www.w3.org/1999/02/22-rdf-syntax-ns#type
p187
aVhttp://purl.org/dc/terms/subject
p188
aVhttp://dbpedia.org/ontology/location
p189
aVhttp://www.w3.org/2000/01/rdf-schema#comment
p190
aVhttp://dbpedia.org/ontology/abstract
p191
aVhttp://dbpedia.org/property/location
p192
asI2
(lp193
ssI1
(dp194
I0
g186
sI1
(lp195
sI2
(lp196
ssI2
(dp197
I0
g193
sI1
g196
sI2
(lp198
ssa(dp199
I0
(dp200
I0
(lp201
sI1
(lp202
sI2
(lp203
ssI1
(dp204
I0
g202
sI1
(lp205
sI2
(lp206
ssI2
(dp207
I0
g203
sI1
g206
sI2
(lp208
ssa.