(lp1
(lp2
(lp3
((lp4
Vhttp://www.w3.org/2002/07/owl#Thing
p5
aVhttp://dbpedia.org/ontology/Place
p6
aVhttp://dbpedia.org/ontology/Location
p7
aVhttp://www.wikidata.org/entity/Q23397
p8
aVhttp://dbpedia.org/ontology/BodyOfWater
p9
aVhttp://dbpedia.org/ontology/Lake
p10
aVhttp://dbpedia.org/ontology/NaturalPlace
p11
aVhttp://www.w3.org/2003/01/geo/wgs84_pos#SpatialThing
p12
aVhttp://schema.org/BodyOfWater
p13
aVhttp://schema.org/LakeBodyOfWater
p14
aVhttp://schema.org/Place
p15
aVhttp://umbel.org/umbel/rc/BodyOfWater
p16
aVhttp://umbel.org/umbel/rc/Lake
p17
aVhttp://dbpedia.org/class/yago/BodyOfWater109225146
p18
aVhttp://dbpedia.org/class/yago/Lake109328904
p19
aVhttp://dbpedia.org/class/yago/Thing100002452
p20
aVhttp://dbpedia.org/class/yago/YagoGeoEntity
p21
aVhttp://dbpedia.org/class/yago/PhysicalEntity100001930
p22
aVhttp://dbpedia.org/class/yago/YagoPermanentlyLocatedEntity
p23
aVhttp://dbpedia.org/class/yago/InternationalLakesOfNorthAmerica
p24
aVhttp://dbpedia.org/class/yago/LakesOfAlgomaDistrict
p25
aVhttp://dbpedia.org/class/yago/LakesOfMichigan
p26
aVhttp://dbpedia.org/class/yago/LakesOfMinnesota
p27
aVhttp://dbpedia.org/class/yago/LakesOfOntario
p28
aVhttp://dbpedia.org/class/yago/LakesOfThunderBayDistrict
p29
aVhttp://dbpedia.org/class/yago/LakesOfWisconsin
p30
aVhttp://dbpedia.org/class/yago/RiftLakes
p31
aVhttp://dbpedia.org/resource/Lake_Superior
tp32
aa(lp33
a(lp34
aa(lp35
(lp36
a(lp37
a(lp38
aa(lp39
(lp40
((lp41
Vhttp://www.w3.org/2002/07/owl#Thing
p42
aVhttp://dbpedia.org/ontology/Place
p43
aVhttp://dbpedia.org/ontology/Location
p44
aVhttp://www.wikidata.org/entity/Q23397
p45
aVhttp://dbpedia.org/ontology/BodyOfWater
p46
aVhttp://dbpedia.org/ontology/Lake
p47
aVhttp://dbpedia.org/ontology/NaturalPlace
p48
aVhttp://www.w3.org/2003/01/geo/wgs84_pos#SpatialThing
p49
aVhttp://schema.org/BodyOfWater
p50
aVhttp://schema.org/LakeBodyOfWater
p51
aVhttp://schema.org/Place
p52
aVhttp://umbel.org/umbel/rc/BodyOfWater
p53
aVhttp://umbel.org/umbel/rc/Lake
p54
aVhttp://dbpedia.org/class/yago/BodyOfWater109225146
p55
aVhttp://dbpedia.org/class/yago/BordersOfIllinois
p56
aVhttp://dbpedia.org/class/yago/BordersOfIndiana
p57
aVhttp://dbpedia.org/class/yago/BordersOfMichigan
p58
aVhttp://dbpedia.org/class/yago/BordersOfWisconsin
p59
aVhttp://dbpedia.org/class/yago/Boundary108512259
p60
aVhttp://dbpedia.org/class/yago/BoundaryLine108512736
p61
aVhttp://dbpedia.org/class/yago/Extremity108568978
p62
aVhttp://dbpedia.org/class/yago/Lake109328904
p63
aVhttp://dbpedia.org/class/yago/Location100027167
p64
aVhttp://dbpedia.org/class/yago/Object100002684
p65
aVhttp://dbpedia.org/class/yago/Region108630039
p66
aVhttp://dbpedia.org/class/yago/Thing100002452
p67
aVhttp://dbpedia.org/class/yago/YagoGeoEntity
p68
aVhttp://dbpedia.org/class/yago/YagoLegalActorGeo
p69
aVhttp://dbpedia.org/class/yago/PhysicalEntity100001930
p70
aVhttp://dbpedia.org/class/yago/YagoPermanentlyLocatedEntity
p71
aVhttp://dbpedia.org/class/yago/LakesOfIllinois
p72
aVhttp://dbpedia.org/class/yago/LakesOfIndiana
p73
aVhttp://dbpedia.org/class/yago/LakesOfMichigan
p74
aVhttp://dbpedia.org/class/yago/LakesOfWisconsin
p75
aVhttp://dbpedia.org/resource/Lake_Michigan
tp76
aa(lp77
a(lp78
aa(lp79
(lp80
a(lp81
a(lp82
aa(lp83
(lp84
((lp85
Vhttp://www.w3.org/2002/07/owl#Thing
p86
aVhttp://dbpedia.org/ontology/Place
p87
aVhttp://dbpedia.org/ontology/Location
p88
aVhttp://www.wikidata.org/entity/Q23397
p89
aVhttp://dbpedia.org/ontology/BodyOfWater
p90
aVhttp://dbpedia.org/ontology/Lake
p91
aVhttp://dbpedia.org/ontology/NaturalPlace
p92
aVhttp://www.w3.org/2003/01/geo/wgs84_pos#SpatialThing
p93
aVhttp://schema.org/BodyOfWater
p94
aVhttp://schema.org/LakeBodyOfWater
p95
aVhttp://schema.org/Place
p96
aVhttp://umbel.org/umbel/rc/BodyOfWater
p97
aVhttp://umbel.org/umbel/rc/Lake
p98
aVhttp://dbpedia.org/class/yago/BodyOfWater109225146
p99
aVhttp://dbpedia.org/class/yago/Lake109328904
p100
aVhttp://dbpedia.org/class/yago/Thing100002452
p101
aVhttp://dbpedia.org/class/yago/YagoGeoEntity
p102
aVhttp://dbpedia.org/class/yago/PhysicalEntity100001930
p103
aVhttp://dbpedia.org/class/yago/YagoPermanentlyLocatedEntity
p104
aVhttp://dbpedia.org/class/yago/InternationalLakesOfNorthAmerica
p105
aVhttp://dbpedia.org/class/yago/LakesOfNewYork
p106
aVhttp://dbpedia.org/class/yago/LakesOfOntario
p107
aVhttp://dbpedia.org/resource/Lake_Ontario
tp108
aa(lp109
a(lp110
aa(lp111
(lp112
((lp113
Vhttp://www.w3.org/2002/07/owl#Thing
p114
aVhttp://dbpedia.org/ontology/Place
p115
aVhttp://dbpedia.org/ontology/Location
p116
aVhttp://www.wikidata.org/entity/Q23397
p117
aVhttp://dbpedia.org/ontology/BodyOfWater
p118
aVhttp://dbpedia.org/ontology/Lake
p119
aVhttp://dbpedia.org/ontology/NaturalPlace
p120
aVhttp://www.w3.org/2003/01/geo/wgs84_pos#SpatialThing
p121
aVhttp://schema.org/BodyOfWater
p122
aVhttp://schema.org/LakeBodyOfWater
p123
aVhttp://schema.org/Place
p124
aVhttp://umbel.org/umbel/rc/BodyOfWater
p125
aVhttp://umbel.org/umbel/rc/Lake
p126
aVhttp://dbpedia.org/class/yago/BodyOfWater109225146
p127
aVhttp://dbpedia.org/class/yago/Lake109328904
p128
aVhttp://dbpedia.org/class/yago/Thing100002452
p129
aVhttp://dbpedia.org/class/yago/YagoGeoEntity
p130
aVhttp://dbpedia.org/class/yago/EndorheicLakesOfUtah
p131
aVhttp://dbpedia.org/class/yago/PhysicalEntity100001930
p132
aVhttp://dbpedia.org/class/yago/YagoPermanentlyLocatedEntity
p133
aVhttp://dbpedia.org/class/yago/LakesOfTheGreatBasin
p134
aVhttp://dbpedia.org/class/yago/LakesOfUtah
p135
aVhttp://dbpedia.org/class/yago/SalineLakes
p136
aVhttp://dbpedia.org/resource/Great_Salt_Lake
tp137
aa(lp138
a(lp139
aa(lp140
(lp141
((lp142
Vhttp://www.w3.org/2002/07/owl#Thing
p143
aVhttp://dbpedia.org/ontology/Place
p144
aVhttp://dbpedia.org/ontology/Location
p145
aVhttp://www.wikidata.org/entity/Q23397
p146
aVhttp://dbpedia.org/ontology/BodyOfWater
p147
aVhttp://dbpedia.org/ontology/Lake
p148
aVhttp://dbpedia.org/ontology/NaturalPlace
p149
aVhttp://www.w3.org/2003/01/geo/wgs84_pos#SpatialThing
p150
aVhttp://schema.org/BodyOfWater
p151
aVhttp://schema.org/LakeBodyOfWater
p152
aVhttp://schema.org/Place
p153
aVhttp://umbel.org/umbel/rc/BodyOfWater
p154
aVhttp://umbel.org/umbel/rc/Lake
p155
aVhttp://dbpedia.org/class/yago/BodyOfWater109225146
p156
aVhttp://dbpedia.org/class/yago/Lake109328904
p157
aVhttp://dbpedia.org/class/yago/Thing100002452
p158
aVhttp://dbpedia.org/class/yago/YagoGeoEntity
p159
aVhttp://dbpedia.org/class/yago/PhysicalEntity100001930
p160
aVhttp://dbpedia.org/class/yago/YagoPermanentlyLocatedEntity
p161
aVhttp://dbpedia.org/class/yago/InternationalLakesOfNorthAmerica
p162
aVhttp://dbpedia.org/class/yago/LakesOfKenoraDistrict
p163
aVhttp://dbpedia.org/class/yago/LakesOfManitoba
p164
aVhttp://dbpedia.org/class/yago/LakesOfMinnesota
p165
aVhttp://dbpedia.org/class/yago/LakesOfRainyRiverDistrict
p166
aVhttp://dbpedia.org/resource/Lake_of_the_Woods
tp167
aa(lp168
a(lp169
aa(lp170
(lp171
((lp172
Vhttp://www.w3.org/2002/07/owl#Thing
p173
aVhttp://dbpedia.org/ontology/Place
p174
aVhttp://dbpedia.org/ontology/Location
p175
aVhttp://www.wikidata.org/entity/Q23397
p176
aVhttp://dbpedia.org/ontology/BodyOfWater
p177
aVhttp://dbpedia.org/ontology/Lake
p178
aVhttp://dbpedia.org/ontology/NaturalPlace
p179
aVhttp://www.w3.org/2003/01/geo/wgs84_pos#SpatialThing
p180
aVhttp://schema.org/BodyOfWater
p181
aVhttp://schema.org/LakeBodyOfWater
p182
aVhttp://schema.org/Place
p183
aVhttp://umbel.org/umbel/rc/BodyOfWater
p184
aVhttp://umbel.org/umbel/rc/Lake
p185
aVhttp://dbpedia.org/class/yago/BodyOfWater109225146
p186
aVhttp://dbpedia.org/class/yago/Lake109328904
p187
aVhttp://dbpedia.org/class/yago/Thing100002452
p188
aVhttp://dbpedia.org/class/yago/YagoGeoEntity
p189
aVhttp://dbpedia.org/class/yago/PhysicalEntity100001930
p190
aVhttp://dbpedia.org/class/yago/YagoPermanentlyLocatedEntity
p191
aVhttp://dbpedia.org/class/yago/LakesOfAlaska
p192
aVhttp://dbpedia.org/resource/Iliamna_Lake
tp193
aa(lp194
a(lp195
aa(lp196
(lp197
a(lp198
a(lp199
aa(lp200
(lp201
((lp202
Vhttp://www.w3.org/2002/07/owl#Thing
p203
aVhttp://dbpedia.org/ontology/Place
p204
aVhttp://dbpedia.org/ontology/Location
p205
aVhttp://www.wikidata.org/entity/Q23397
p206
aVhttp://dbpedia.org/ontology/BodyOfWater
p207
aVhttp://dbpedia.org/ontology/Lake
p208
aVhttp://dbpedia.org/ontology/NaturalPlace
p209
aVhttp://www.w3.org/2003/01/geo/wgs84_pos#SpatialThing
p210
aVhttp://schema.org/BodyOfWater
p211
aVhttp://schema.org/LakeBodyOfWater
p212
aVhttp://schema.org/Place
p213
aVhttp://umbel.org/umbel/rc/BodyOfWater
p214
aVhttp://umbel.org/umbel/rc/Lake
p215
aVhttp://dbpedia.org/class/yago/BodyOfWater109225146
p216
aVhttp://dbpedia.org/class/yago/Lake109328904
p217
aVhttp://dbpedia.org/class/yago/Thing100002452
p218
aVhttp://dbpedia.org/class/yago/YagoGeoEntity
p219
aVhttp://dbpedia.org/class/yago/PhysicalEntity100001930
p220
aVhttp://dbpedia.org/class/yago/YagoPermanentlyLocatedEntity
p221
aVhttp://dbpedia.org/class/yago/LakesOfFlorida
p222
aVhttp://dbpedia.org/resource/Lake_Okeechobee
tp223
aa(lp224
a(lp225
aa(lp226
(lp227
((lp228
Vhttp://www.w3.org/2002/07/owl#Thing
p229
aVhttp://dbpedia.org/ontology/Place
p230
aVhttp://dbpedia.org/ontology/Location
p231
aVhttp://www.wikidata.org/entity/Q23397
p232
aVhttp://dbpedia.org/ontology/BodyOfWater
p233
aVhttp://dbpedia.org/ontology/Lake
p234
aVhttp://dbpedia.org/ontology/NaturalPlace
p235
aVhttp://www.w3.org/2003/01/geo/wgs84_pos#SpatialThing
p236
aVhttp://schema.org/BodyOfWater
p237
aVhttp://schema.org/LakeBodyOfWater
p238
aVhttp://schema.org/Place
p239
aVhttp://umbel.org/umbel/rc/BodyOfWater
p240
aVhttp://umbel.org/umbel/rc/Lake
p241
aVhttp://dbpedia.org/class/yago/BodyOfWater109225146
p242
aVhttp://dbpedia.org/class/yago/Lake109328904
p243
aVhttp://dbpedia.org/class/yago/Thing100002452
p244
aVhttp://dbpedia.org/class/yago/Waterway109476331
p245
aVhttp://dbpedia.org/class/yago/YagoGeoEntity
p246
aVhttp://dbpedia.org/class/yago/EstuariesOfLouisiana
p247
aVhttp://dbpedia.org/class/yago/Estuary109274500
p248
aVhttp://dbpedia.org/class/yago/PhysicalEntity100001930
p249
aVhttp://dbpedia.org/class/yago/YagoPermanentlyLocatedEntity
p250
aVhttp://dbpedia.org/class/yago/LakesOfLouisiana
p251
aVhttp://dbpedia.org/class/yago/WaterwaysAffectedByHurricaneKatrina
p252
aVhttp://dbpedia.org/resource/Lake_Pontchartrain
tp253
aa(lp254
a(lp255
aa(lp256
(lp257
((lp258
Vhttp://www.w3.org/2002/07/owl#Thing
p259
aVhttp://dbpedia.org/ontology/Place
p260
aVhttp://dbpedia.org/ontology/Location
p261
aVhttp://www.wikidata.org/entity/Q23397
p262
aVhttp://dbpedia.org/ontology/BodyOfWater
p263
aVhttp://dbpedia.org/ontology/Lake
p264
aVhttp://dbpedia.org/ontology/NaturalPlace
p265
aVhttp://www.w3.org/2003/01/geo/wgs84_pos#SpatialThing
p266
aVhttp://schema.org/BodyOfWater
p267
aVhttp://schema.org/LakeBodyOfWater
p268
aVhttp://schema.org/Place
p269
aVhttp://umbel.org/umbel/rc/BodyOfWater
p270
aVhttp://umbel.org/umbel/rc/Lake
p271
aVhttp://dbpedia.org/class/yago/Area108497294
p272
aVhttp://dbpedia.org/class/yago/BodyOfWater109225146
p273
aVhttp://dbpedia.org/class/yago/Lake109328904
p274
aVhttp://dbpedia.org/class/yago/Location100027167
p275
aVhttp://dbpedia.org/class/yago/Object100002684
p276
aVhttp://dbpedia.org/class/yago/Region108630985
p277
aVhttp://dbpedia.org/class/yago/Thing100002452
p278
aVhttp://dbpedia.org/class/yago/YagoGeoEntity
p279
aVhttp://dbpedia.org/class/yago/YagoLegalActorGeo
p280
aVhttp://dbpedia.org/class/yago/PhysicalEntity100001930
p281
aVhttp://dbpedia.org/class/yago/YagoPermanentlyLocatedEntity
p282
aVhttp://dbpedia.org/class/yago/ProtectedAreasOfDunnCounty,NorthDakota
p283
aVhttp://dbpedia.org/class/yago/ProtectedAreasOfMcKenzieCounty,NorthDakota
p284
aVhttp://dbpedia.org/class/yago/ProtectedAreasOfMcLeanCounty,NorthDakota
p285
aVhttp://dbpedia.org/class/yago/ProtectedAreasOfMercerCounty,NorthDakota
p286
aVhttp://dbpedia.org/class/yago/ProtectedAreasOfMountrailCounty,NorthDakota
p287
aVhttp://dbpedia.org/class/yago/ProtectedAreasOfWilliamsCounty,NorthDakota
p288
aVhttp://dbpedia.org/resource/Lake_Sakakawea
tp289
aa(lp290
((lp291
Vhttp://www.w3.org/2002/07/owl#Thing
p292
aVhttp://umbel.org/umbel/rc/PopulatedPlace
p293
aVhttp://dbpedia.org/class/yago/AdministrativeDistrict108491826
p294
aVhttp://dbpedia.org/class/yago/AmericanIndianReservationsInNorthDakota
p295
aVhttp://dbpedia.org/class/yago/Country108544813
p296
aVhttp://dbpedia.org/class/yago/District108552138
p297
aVhttp://dbpedia.org/class/yago/Location100027167
p298
aVhttp://dbpedia.org/class/yago/Object100002684
p299
aVhttp://dbpedia.org/class/yago/Region108630985
p300
aVhttp://dbpedia.org/class/yago/Reservation108587174
p301
aVhttp://dbpedia.org/class/yago/YagoGeoEntity
p302
aVhttp://dbpedia.org/class/yago/YagoLegalActorGeo
p303
aVhttp://dbpedia.org/class/yago/PhysicalEntity100001930
p304
aVhttp://dbpedia.org/class/yago/YagoPermanentlyLocatedEntity
p305
aVhttp://dbpedia.org/class/yago/StatesAndTerritoriesEstablishedIn1889
p306
aVhttp://dbpedia.org/class/yago/StatesOfTheUnitedStates
p307
aVhttp://dbpedia.org/resource/North_Dakota
tp308
aa(lp309
aa(lp310
(lp311
((lp312
Vhttp://www.w3.org/2002/07/owl#Thing
p313
aVhttp://dbpedia.org/ontology/Place
p314
aVhttp://dbpedia.org/ontology/Location
p315
aVhttp://www.wikidata.org/entity/Q23397
p316
aVhttp://dbpedia.org/ontology/BodyOfWater
p317
aVhttp://dbpedia.org/ontology/Lake
p318
aVhttp://dbpedia.org/ontology/NaturalPlace
p319
aVhttp://www.w3.org/2003/01/geo/wgs84_pos#SpatialThing
p320
aVhttp://schema.org/BodyOfWater
p321
aVhttp://schema.org/LakeBodyOfWater
p322
aVhttp://schema.org/Place
p323
aVhttp://umbel.org/umbel/rc/BodyOfWater
p324
aVhttp://umbel.org/umbel/rc/Lake
p325
aVhttp://dbpedia.org/class/yago/BodyOfWater109225146
p326
aVhttp://dbpedia.org/class/yago/BordersOfNewYork
p327
aVhttp://dbpedia.org/class/yago/BordersOfVermont
p328
aVhttp://dbpedia.org/class/yago/Boundary108512259
p329
aVhttp://dbpedia.org/class/yago/BoundaryLine108512736
p330
aVhttp://dbpedia.org/class/yago/Branch109228324
p331
aVhttp://dbpedia.org/class/yago/Extremity108568978
p332
aVhttp://dbpedia.org/class/yago/Lake109328904
p333
aVhttp://dbpedia.org/class/yago/Location100027167
p334
aVhttp://dbpedia.org/class/yago/Object100002684
p335
aVhttp://dbpedia.org/class/yago/Region108630039
p336
aVhttp://dbpedia.org/class/yago/Stream109448361
p337
aVhttp://dbpedia.org/class/yago/Thing100002452
p338
aVhttp://dbpedia.org/class/yago/YagoGeoEntity
p339
aVhttp://dbpedia.org/class/yago/YagoLegalActorGeo
p340
aVhttp://dbpedia.org/class/yago/Feeder109278997
p341
aVhttp://dbpedia.org/class/yago/PhysicalEntity100001930
p342
aVhttp://dbpedia.org/class/yago/YagoPermanentlyLocatedEntity
p343
aVhttp://dbpedia.org/class/yago/InternationalLakesOfNorthAmerica
p344
aVhttp://dbpedia.org/class/yago/LakesOfNewYork
p345
aVhttp://dbpedia.org/class/yago/LakesOfQuebec
p346
aVhttp://dbpedia.org/class/yago/LakesOfVermont
p347
aVhttp://dbpedia.org/class/yago/TributariesOfTheSaintLawrenceRiver
p348
aVhttp://dbpedia.org/resource/Lake_Champlain
tp349
aa(lp350
a(lp351
aa(lp352
(lp353
((lp354
Vhttp://www.w3.org/2002/07/owl#Thing
p355
aVhttp://dbpedia.org/ontology/Place
p356
aVhttp://dbpedia.org/ontology/Location
p357
aVhttp://www.wikidata.org/entity/Q23397
p358
aVhttp://dbpedia.org/ontology/BodyOfWater
p359
aVhttp://dbpedia.org/ontology/Lake
p360
aVhttp://dbpedia.org/ontology/NaturalPlace
p361
aVhttp://www.w3.org/2003/01/geo/wgs84_pos#SpatialThing
p362
aVhttp://schema.org/BodyOfWater
p363
aVhttp://schema.org/LakeBodyOfWater
p364
aVhttp://schema.org/Place
p365
aVhttp://umbel.org/umbel/rc/BodyOfWater
p366
aVhttp://umbel.org/umbel/rc/Lake
p367
aVhttp://dbpedia.org/class/yago/BodyOfWater109225146
p368
aVhttp://dbpedia.org/class/yago/Lake109328904
p369
aVhttp://dbpedia.org/class/yago/Thing100002452
p370
aVhttp://dbpedia.org/class/yago/YagoGeoEntity
p371
aVhttp://dbpedia.org/class/yago/PhysicalEntity100001930
p372
aVhttp://dbpedia.org/class/yago/YagoPermanentlyLocatedEntity
p373
aVhttp://dbpedia.org/class/yago/LakesOfAlaska
p374
aVhttp://dbpedia.org/resource/Becharof_Lake
p375
tp376
aa(lp377
a(lp378
aa(lp379
(lp380
a(lp381
a(lp382
aa.