ccollections
defaultdict
p1
(c__builtin__
dict
p2
tRp3
I0
(dp4
I1
(lp5
sI2
(lp6
ssI1
(dp7
I1
(lp8
sI2
(lp9
ssI2
(dp10
I1
(lp11
sI2
(lp12
ssI3
(dp13
I1
(lp14
sI2
(lp15
ssI4
(dp16
I1
(lp17
sI2
(lp18
ssI5
(dp19
I1
(lp20
sI2
(lp21
ssI6
(dp22
I1
(lp23
sI2
(lp24
ssI7
(dp25
I1
(lp26
sI2
(lp27
ssI8
(dp28
I1
(lp29
sI2
(lp30
ssI9
(dp31
I1
(lp32
sI2
(lp33
ssI10
(dp34
I1
(lp35
sI2
(lp36
ssI11
(dp37
I1
(lp38
Vhttp://dbpedia.org/ontology/wikiPageExternalLink
p39
aVhttp://dbpedia.org/ontology/country
p40
aVhttp://dbpedia.org/property/country
p41
asI2
(lp42
ssI12
(dp43
I1
(lp44
sI2
(lp45
ssI13
(dp46
I1
(lp47
sI2
(lp48
ssI15
(dp49
I1
(lp50
sI2
(lp51
ssI16
(dp52
I1
(lp53
sI2
(lp54
ssI17
(dp55
I1
(lp56
sI2
(lp57
ssI18
(dp58
I1
(lp59
sI2
(lp60
ssI19
(dp61
I1
(lp62
sI2
(lp63
ss.