(lp1
(dp2
I0
(dp3
I0
(lp4
sI1
(lp5
Vhttp://dbpedia.org/ontology/wikiPageExternalLink
p6
aVhttp://dbpedia.org/property/party
p7
aVhttp://dbpedia.org/property/participants
p8
aVhttp://www.w3.org/1999/02/22-rdf-syntax-ns#type
p9
aVhttp://purl.org/dc/terms/subject
p10
aVhttp://dbpedia.org/property/headquarters
p11
aVhttp://www.w3.org/2000/01/rdf-schema#comment
p12
aVhttp://dbpedia.org/ontology/abstract
p13
aVhttp://dbpedia.org/ontology/wikiPageRedirects
p14
aVhttp://purl.org/voc/vrank#hasRank
p15
aVhttp://dbpedia.org/property/currentmpparty
p16
aVhttp://dbpedia.org/ontology/thumbnail
p17
aVhttp://dbpedia.org/ontology/affiliation
p18
aVhttp://dbpedia.org/property/afterColour
p19
aVhttp://dbpedia.org/property/hasPhotoCollection
p20
aVhttp://dbpedia.org/property/label
p21
aVhttp://www.w3.org/2002/07/owl#sameAs
p22
aVhttp://dbpedia.org/property/beforeColour
p23
asI2
(lp24
Vhttp://dbpedia.org/ontology/abstract
p25
aVhttp://www.w3.org/2000/01/rdf-schema#comment
p26
asI3
(lp27
Vhttp://dbpedia.org/ontology/abstract
p28
aVhttp://www.w3.org/2000/01/rdf-schema#comment
p29
asI4
(lp30
Vhttp://dbpedia.org/ontology/wikiPageExternalLink
p31
aVhttp://dbpedia.org/ontology/abstract
p32
assI1
(dp33
I0
g5
sI1
(lp34
sI2
(lp35
sI3
(lp36
sI4
(lp37
ssI2
(dp38
I0
g24
sI1
g35
sI2
(lp39
sI3
(lp40
sI4
(lp41
ssI3
(dp42
I0
g27
sI1
g36
sI3
(lp43
sI4
(lp44
ssI4
(dp45
I0
g30
sI1
g37
sI2
g41
sI3
g44
sI4
(lp46
ssa(dp47
I0
(dp48
I0
(lp49
sI1
(lp50
Vhttp://dbpedia.org/ontology/wikiPageExternalLink
p51
aVhttp://www.w3.org/1999/02/22-rdf-syntax-ns#type
p52
aVhttp://dbpedia.org/property/tradedAs
p53
aVhttp://www.w3.org/2000/01/rdf-schema#comment
p54
aVhttp://dbpedia.org/ontology/abstract
p55
aVhttp://dbpedia.org/ontology/wikiPageRedirects
p56
aVhttp://dbpedia.org/property/wordnet_type
p57
aVhttp://purl.org/voc/vrank#hasRank
p58
aVhttp://dbpedia.org/ontology/thumbnail
p59
aVhttp://www.w3.org/ns/prov#wasDerivedFrom
p60
aVhttp://dbpedia.org/property/hasPhotoCollection
p61
aVhttp://www.w3.org/2002/07/owl#sameAs
p62
asI2
(lp63
Vhttp://dbpedia.org/ontology/abstract
p64
aVhttp://www.w3.org/1999/02/22-rdf-syntax-ns#type
p65
aVhttp://purl.org/dc/terms/subject
p66
aVhttp://www.w3.org/2000/01/rdf-schema#comment
p67
asI3
(lp68
Vhttp://dbpedia.org/ontology/abstract
p69
aVhttp://www.w3.org/1999/02/22-rdf-syntax-ns#type
p70
aVhttp://purl.org/dc/terms/subject
p71
aVhttp://www.w3.org/2000/01/rdf-schema#comment
p72
asI4
(lp73
ssI1
(dp74
I0
g50
sI1
(lp75
sI2
(lp76
sI3
(lp77
sI4
(lp78
ssI2
(dp79
I0
g63
sI1
g76
sI2
(lp80
sI3
(lp81
sI4
(lp82
ssI3
(dp83
I0
g68
sI1
g77
sI3
(lp84
sI4
(lp85
ssI4
(dp86
I0
g73
sI1
g78
sI2
g82
sI3
g85
sI4
(lp87
ssa(dp88
I0
(dp89
I0
(lp90
sI1
(lp91
Vhttp://dbpedia.org/ontology/wikiPageExternalLink
p92
aVhttp://www.w3.org/1999/02/22-rdf-syntax-ns#type
p93
aVhttp://purl.org/dc/terms/subject
p94
aVhttp://www.w3.org/2000/01/rdf-schema#comment
p95
aVhttp://dbpedia.org/ontology/abstract
p96
aVhttp://dbpedia.org/property/music
p97
aVhttp://dbpedia.org/property/wordnet_type
p98
aVhttp://purl.org/voc/vrank#hasRank
p99
aVhttp://dbpedia.org/ontology/thumbnail
p100
aVhttp://dbpedia.org/property/hasPhotoCollection
p101
aVhttp://dbpedia.org/ontology/musicComposer
p102
aVhttp://www.w3.org/2002/07/owl#sameAs
p103
asI2
(lp104
Vhttp://www.w3.org/1999/02/22-rdf-syntax-ns#type
p105
aVhttp://www.w3.org/2002/07/owl#sameAs
p106
asI3
(lp107
Vhttp://www.w3.org/1999/02/22-rdf-syntax-ns#type
p108
aVhttp://www.w3.org/2002/07/owl#sameAs
p109
asI4
(lp110
Vhttp://www.w3.org/ns/prov#wasDerivedFrom
p111
aVhttp://purl.org/voc/vrank#hasRank
p112
aVhttp://dbpedia.org/ontology/abstract
p113
aVhttp://www.w3.org/1999/02/22-rdf-syntax-ns#type
p114
aVhttp://www.w3.org/2002/07/owl#sameAs
p115
assI1
(dp116
I0
g91
sI1
(lp117
sI2
(lp118
sI3
(lp119
sI4
(lp120
ssI2
(dp121
I0
g104
sI1
g118
sI2
(lp122
sI3
(lp123
sI4
(lp124
ssI3
(dp125
I0
g107
sI1
g119
sI3
(lp126
sI4
(lp127
ssI4
(dp128
I0
g110
sI1
g120
sI2
g124
sI3
g127
sI4
(lp129
ssa(dp130
I0
(dp131
I0
(lp132
sI1
(lp133
Vhttp://www.w3.org/ns/prov#wasDerivedFrom
p134
aVhttp://purl.org/voc/vrank#hasRank
p135
asI2
(lp136
sI3
(lp137
sI4
(lp138
ssI1
(dp139
I0
g133
sI1
(lp140
sI2
(lp141
sI3
(lp142
sI4
(lp143
ssI2
(dp144
I0
g136
sI1
g141
sI2
(lp145
sI3
(lp146
sI4
(lp147
ssI3
(dp148
I0
g137
sI1
g142
sI3
(lp149
sI4
(lp150
ssI4
(dp151
I0
g138
sI1
g143
sI4
(lp152
ssa(dp153
I0
(dp154
I0
(lp155
sI1
(lp156
Vhttp://dbpedia.org/ontology/wikiPageExternalLink
p157
aVhttp://www.w3.org/2000/01/rdf-schema#comment
p158
aVhttp://dbpedia.org/ontology/abstract
p159
aVhttp://purl.org/voc/vrank#hasRank
p160
aVhttp://dbpedia.org/ontology/thumbnail
p161
aVhttp://dbpedia.org/property/hasPhotoCollection
p162
aVhttp://www.w3.org/2002/07/owl#sameAs
p163
asI2
(lp164
Vhttp://dbpedia.org/ontology/wikiPageExternalLink
p165
aVhttp://www.w3.org/2000/01/rdf-schema#comment
p166
aVhttp://dbpedia.org/ontology/abstract
p167
aVhttp://purl.org/voc/vrank#hasRank
p168
aVhttp://dbpedia.org/property/image
p169
aVhttp://dbpedia.org/property/caption
p170
aVhttp://dbpedia.org/property/hasPhotoCollection
p171
aVhttp://www.w3.org/2002/07/owl#sameAs
p172
asI3
(lp173
Vhttp://dbpedia.org/ontology/wikiPageExternalLink
p174
aVhttp://www.w3.org/2000/01/rdf-schema#comment
p175
aVhttp://dbpedia.org/ontology/abstract
p176
aVhttp://purl.org/voc/vrank#hasRank
p177
aVhttp://dbpedia.org/property/image
p178
aVhttp://dbpedia.org/property/caption
p179
aVhttp://dbpedia.org/property/hasPhotoCollection
p180
aVhttp://www.w3.org/2002/07/owl#sameAs
p181
asI4
(lp182
Vhttp://www.w3.org/ns/prov#wasDerivedFrom
p183
aVhttp://dbpedia.org/ontology/wikiPageExternalLink
p184
aVhttp://dbpedia.org/property/image
p185
aVhttp://www.w3.org/2002/07/owl#sameAs
p186
aVhttp://purl.org/voc/vrank#hasRank
p187
assI1
(dp188
I0
g156
sI1
(lp189
sI2
(lp190
sI3
(lp191
sI4
(lp192
ssI2
(dp193
I0
g164
sI1
g190
sI2
(lp194
sI3
(lp195
sI4
(lp196
ssI3
(dp197
I0
g173
sI1
g191
sI3
(lp198
sI4
(lp199
ssI4
(dp200
I0
g182
sI1
g192
sI2
g196
sI3
g199
sI4
(lp201
ssa.