(lp1
(lp2
(lp3
a(lp4
a(lp5
Vhttp://dbpedia.org/resource/Null
p6
aa(lp7
Vhttp://dbpedia.org/resource/Null
p8
aa(lp9
Vhttp://dbpedia.org/resource/Null
p10
aaa(lp11
(lp12
a(lp13
a(lp14
a(lp15
a(lp16
aa(lp17
(lp18
a(lp19
Vhttp://dbpedia.org/resource/Bruno_Sammartino
p20
aa(lp21
Vhttp://dbpedia.org/resource/Null
p22
aa(lp23
Vhttp://dbpedia.org/resource/Null
p24
aa(lp25
Vhttp://dbpedia.org/resource/Null
p26
aaa(lp27
(lp28
a(lp29
Vhttp://dbpedia.org/resource/Mr._Wrestling_II
p30
aa(lp31
a(lp32
a(lp33
aa(lp34
(lp35
a(lp36
a(lp37
Vhttp://dbpedia.org/resource/Bruno_Sammartino
p38
aa(lp39
a(lp40
aa(lp41
(lp42
a(lp43
a(lp44
a(lp45
a(lp46
aa(lp47
(lp48
a(lp49
a(lp50
a(lp51
a(lp52
aa(lp53
(lp54
a(lp55
a(lp56
a(lp57
a(lp58
aa(lp59
(lp60
a(lp61
a(lp62
a(lp63
a(lp64
aa(lp65
(lp66
a(lp67
a(lp68
a(lp69
a(lp70
aa(lp71
(lp72
a(lp73
a(lp74
a(lp75
a(lp76
aa(lp77
(lp78
a(lp79
a(lp80
a(lp81
a(lp82
aa(lp83
(lp84
a(lp85
a(lp86
a(lp87
a(lp88
aa(lp89
(lp90
a(lp91
a(lp92
a(lp93
a(lp94
aa(lp95
(lp96
a(lp97
a(lp98
a(lp99
a(lp100
aa(lp101
(lp102
a(lp103
a(lp104
a(lp105
a(lp106
aa(lp107
(lp108
a(lp109
a(lp110
a(lp111
a(lp112
aa(lp113
(lp114
a(lp115
a(lp116
a(lp117
a(lp118
aa(lp119
(lp120
a(lp121
a(lp122
Vhttp://dbpedia.org/resource/The_Ultimate_Warrior
p123
aa(lp124
a(lp125
aa(lp126
(lp127
a(lp128
a(lp129
a(lp130
a(lp131
aa.