(lp1
(lp2
a(lp3
(dp4
Vstart
p5
I0
sS'classes'
p6
(lp7
Vhttp://dbpedia.org/class/yago/Abstraction100002137
p8
aVhttp://dbpedia.org/class/yago/CartridgeFamilies
p9
aVhttp://dbpedia.org/class/yago/Family108078020
p10
aVhttp://dbpedia.org/class/yago/Group100031264
p11
aVhttp://dbpedia.org/class/yago/Organization108008335
p12
aVhttp://dbpedia.org/class/yago/SocialGroup107950920
p13
aVhttp://dbpedia.org/class/yago/Unit108189659
p14
aVhttp://dbpedia.org/class/yago/YagoLegalActorGeo
p15
aVhttp://dbpedia.org/class/yago/YagoPermanentlyLocatedEntity
p16
aVhttp://dbpedia.org/class/yago/YagoLegalActor
p17
asVdisambiguatedURL
p18
Vhttp://dbpedia.org/resource/Intermediate_cartridge
p19
sVnamedEntity
p20
Vintermediate
p21
sVoffset
p22
I12
saa(lp23
a.