ccollections
defaultdict
p1
(c__builtin__
dict
p2
tRp3
I9
(dp4
I1
(lp5
sI2
(lp6
Vhttp://dbpedia.org/ontology/abstract
p7
aVhttp://www.w3.org/1999/02/22-rdf-syntax-ns#type
p8
aVhttp://purl.org/dc/terms/subject
p9
aVhttp://www.w3.org/2000/01/rdf-schema#comment
p10
asI3
(lp11
sI4
(lp12
Vhttp://dbpedia.org/ontology/birthPlace
p13
aVhttp://dbpedia.org/property/birthPlace
p14
aVhttp://dbpedia.org/property/placeOfBirth
p15
ass.