(lp1
(lp2
(dp3
Vstart
p4
I0
sVdisambiguatedURL
p5
NsVnamedEntity
p6
VCAROFF
p7
sVoffset
p8
I6
saa(lp9
(dp10
Vstart
p11
I0
sVdisambiguatedURL
p12
Vhttp://dbpedia.org/resource/VINE_Transit
p13
sVnamedEntity
p14
VVINE
p15
sVoffset
p16
I4
saa(lp17
(dp18
Vstart
p19
I0
sVdisambiguatedURL
p20
NsVnamedEntity
p21
VLE FOLL
p22
sVoffset
p23
I7
saa(lp24
(dp25
Vstart
p26
I0
sVdisambiguatedURL
p27
NsVnamedEntity
p28
VORIOL
p29
sVoffset
p30
I5
saa(lp31
(dp32
Vstart
p33
I0
sVdisambiguatedURL
p34
NsVnamedEntity
p35
VBOTHOREL
p36
sVoffset
p37
I8
saa(lp38
(dp39
Vstart
p40
I0
sVdisambiguatedURL
p41
NsVnamedEntity
p42
VGUILLERM
p43
sVoffset
p44
I8
saa(lp45
(dp46
Vstart
p47
I0
sVdisambiguatedURL
p48
Vhttp://dbpedia.org/resource/LEON
p49
sVnamedEntity
p50
VLEON
p51
sVoffset
p52
I4
saa(lp53
(dp54
Vstart
p55
I0
sVdisambiguatedURL
p56
NsVnamedEntity
p57
VBOTHOREL
p58
sVoffset
p59
I8
saa(lp60
(dp61
Vstart
p62
I0
sVdisambiguatedURL
p63
NsVnamedEntity
p64
VMORVAN
p65
sVoffset
p66
I6
saa(lp67
(dp68
Vstart
p69
I0
sVdisambiguatedURL
p70
NsVnamedEntity
p71
VGARO
p72
sVoffset
p73
I4
saa(lp74
(dp75
Vstart
p76
I0
sVdisambiguatedURL
p77
NsVnamedEntity
p78
VMESSAGER
p79
sVoffset
p80
I8
saa(lp81
(dp82
Vstart
p83
I0
sVdisambiguatedURL
p84
NsVnamedEntity
p85
VLE PAGE
p86
sVoffset
p87
I7
saa(lp88
(dp89
Vstart
p90
I0
sVdisambiguatedURL
p91
NsVnamedEntity
p92
VCAROFF
p93
sVoffset
p94
I6
saa(lp95
(dp96
Vstart
p97
I0
sVdisambiguatedURL
p98
NsVnamedEntity
p99
VMESSAGER
p100
sVoffset
p101
I8
saa(lp102
(dp103
Vstart
p104
I0
sVdisambiguatedURL
p105
NsVnamedEntity
p106
VLE SAOUT
p107
sVoffset
p108
I8
saa(lp109
(dp110
Vstart
p111
I0
sVdisambiguatedURL
p112
NsVnamedEntity
p113
VGUYOMAR
p114
sVoffset
p115
I7
saa.