(lp1
(dp2
I0
(dp3
I0
(lp4
sI1
(lp5
Vhttp://xmlns.com/foaf/0.1/primaryTopic
p6
aVhttp://www.w3.org/1999/02/22-rdf-syntax-ns#type
p7
aVhttp://purl.org/dc/terms/subject
p8
aVhttp://dbpedia.org/ontology/location
p9
aVhttp://www.w3.org/2000/01/rdf-schema#comment
p10
aVhttp://xmlns.com/foaf/0.1/name
p11
aVhttp://dbpedia.org/ontology/abstract
p12
aVhttp://dbpedia.org/property/region
p13
aVhttp://dbpedia.org/property/name
p14
aVhttp://dbpedia.org/property/location
p15
aVhttp://xmlns.com/foaf/0.1/isPrimaryTopicOf
p16
aVhttp://www.w3.org/ns/prov#wasDerivedFrom
p17
aVhttp://dbpedia.org/ontology/region
p18
aVhttp://www.w3.org/2000/01/rdf-schema#label
p19
aVhttp://dbpedia.org/property/hasPhotoCollection
p20
aVhttp://www.w3.org/2002/07/owl#sameAs
p21
asI2
(lp22
ssI1
(dp23
I0
g5
sI1
(lp24
sI2
(lp25
ssI2
(dp26
I0
g22
sI1
g25
sI2
(lp27
ssa(dp28
I0
(dp29
I0
(lp30
sI1
(lp31
sI2
(lp32
ssI1
(dp33
I0
g31
sI1
(lp34
sI2
(lp35
ssI2
(dp36
I0
g32
sI1
g35
sI2
(lp37
ssa(dp38
I0
(dp39
I0
(lp40
sI1
(lp41
Vhttp://dbpedia.org/property/region
p42
aVhttp://www.w3.org/1999/02/22-rdf-syntax-ns#type
p43
aVhttp://purl.org/dc/terms/subject
p44
aVhttp://www.w3.org/2000/01/rdf-schema#comment
p45
aVhttp://dbpedia.org/ontology/abstract
p46
aVhttp://dbpedia.org/ontology/region
p47
asI2
(lp48
ssI1
(dp49
I0
g41
sI1
(lp50
sI2
(lp51
Vhttp://dbpedia.org/ontology/wikiPageExternalLink
p52
aVhttp://dbpedia.org/property/website
p53
aVhttp://xmlns.com/foaf/0.1/primaryTopic
p54
aVhttp://purl.org/dc/terms/subject
p55
aVhttp://dbpedia.org/ontology/location
p56
aVhttp://www.w3.org/2000/01/rdf-schema#comment
p57
aVhttp://dbpedia.org/ontology/abstract
p58
aVhttp://dbpedia.org/property/name
p59
aVhttp://dbpedia.org/property/location
p60
aVhttp://xmlns.com/foaf/0.1/name
p61
aVhttp://xmlns.com/foaf/0.1/isPrimaryTopicOf
p62
aVhttp://www.w3.org/ns/prov#wasDerivedFrom
p63
aVhttp://xmlns.com/foaf/0.1/homepage
p64
aVhttp://dbpedia.org/property/hasPhotoCollection
p65
aVhttp://www.w3.org/2000/01/rdf-schema#label
p66
aVhttp://www.w3.org/2002/07/owl#sameAs
p67
assI2
(dp68
I0
g48
sI1
g51
sI2
(lp69
ssa(dp70
I0
(dp71
I0
(lp72
sI1
(lp73
sI2
(lp74
ssI1
(dp75
I0
g73
sI1
(lp76
sI2
(lp77
ssI2
(dp78
I0
g74
sI1
g77
sI2
(lp79
ssa(dp80
I0
(dp81
I0
(lp82
sI1
(lp83
sI2
(lp84
ssI1
(dp85
I0
g83
sI1
(lp86
sI2
(lp87
ssI2
(dp88
I0
g84
sI1
g87
sI2
(lp89
ssa(dp90
I0
(dp91
I0
(lp92
sI1
(lp93
sI2
(lp94
ssI1
(dp95
I0
g93
sI1
(lp96
sI2
(lp97
Vhttp://dbpedia.org/property/affiliation
p98
aVhttp://dbpedia.org/property/region
p99
aVhttp://www.w3.org/1999/02/22-rdf-syntax-ns#type
p100
aVhttp://purl.org/dc/terms/subject
p101
aVhttp://www.w3.org/2000/01/rdf-schema#comment
p102
aVhttp://dbpedia.org/ontology/abstract
p103
aVhttp://dbpedia.org/property/healthcare
p104
aVhttp://xmlns.com/foaf/0.1/primaryTopic
p105
aVhttp://dbpedia.org/property/name
p106
aVhttp://dbpedia.org/property/helipad
p107
aVhttp://xmlns.com/foaf/0.1/name
p108
aVhttp://xmlns.com/foaf/0.1/isPrimaryTopicOf
p109
aVhttp://www.w3.org/ns/prov#wasDerivedFrom
p110
aVhttp://dbpedia.org/ontology/affiliation
p111
aVhttp://dbpedia.org/ontology/region
p112
aVhttp://www.w3.org/2000/01/rdf-schema#label
p113
aVhttp://dbpedia.org/property/hasPhotoCollection
p114
aVhttp://www.w3.org/2002/07/owl#sameAs
p115
assI2
(dp116
I0
g94
sI1
g97
sI2
(lp117
ssa(dp118
I0
(dp119
I0
(lp120
sI1
(lp121
sI2
(lp122
ssI1
(dp123
I0
g121
sI1
(lp124
sI2
(lp125
Vhttp://dbpedia.org/property/region
p126
aVhttp://www.w3.org/1999/02/22-rdf-syntax-ns#type
p127
aVhttp://purl.org/dc/terms/subject
p128
aVhttp://dbpedia.org/ontology/location
p129
aVhttp://www.w3.org/2000/01/rdf-schema#comment
p130
aVhttp://dbpedia.org/ontology/abstract
p131
aVhttp://dbpedia.org/property/location
p132
aVhttp://dbpedia.org/ontology/region
p133
assI2
(dp134
I0
g122
sI1
g125
sI2
(lp135
ssa(dp136
I0
(dp137
I0
(lp138
sI1
(lp139
sI2
(lp140
ssI1
(dp141
I0
g139
sI1
(lp142
sI2
(lp143
Vhttp://xmlns.com/foaf/0.1/primaryTopic
p144
aVhttp://purl.org/dc/terms/subject
p145
aVhttp://dbpedia.org/ontology/location
p146
aVhttp://www.w3.org/2000/01/rdf-schema#comment
p147
aVhttp://dbpedia.org/ontology/abstract
p148
aVhttp://dbpedia.org/property/name
p149
aVhttp://dbpedia.org/property/location
p150
aVhttp://xmlns.com/foaf/0.1/name
p151
aVhttp://xmlns.com/foaf/0.1/isPrimaryTopicOf
p152
aVhttp://www.w3.org/ns/prov#wasDerivedFrom
p153
aVhttp://dbpedia.org/property/hasPhotoCollection
p154
aVhttp://www.w3.org/2000/01/rdf-schema#label
p155
aVhttp://www.w3.org/2002/07/owl#sameAs
p156
assI2
(dp157
I0
g140
sI1
g143
sI2
(lp158
ssa(dp159
I0
(dp160
I0
(lp161
sI1
(lp162
sI2
(lp163
ssI1
(dp164
I0
g162
sI1
(lp165
sI2
(lp166
ssI2
(dp167
I0
g163
sI1
g166
sI2
(lp168
ssa(dp169
I0
(dp170
I0
(lp171
sI1
(lp172
sI2
(lp173
ssI1
(dp174
I0
g172
sI1
(lp175
sI2
(lp176
ssI2
(dp177
I0
g173
sI1
g176
sI2
(lp178
ssa(dp179
I0
(dp180
I0
(lp181
sI1
(lp182
sI2
(lp183
ssI1
(dp184
I0
g182
sI1
(lp185
sI2
(lp186
ssI2
(dp187
I0
g183
sI1
g186
sI2
(lp188
ssa(dp189
I0
(dp190
I0
(lp191
sI1
(lp192
sI2
(lp193
ssI1
(dp194
I0
g192
sI1
(lp195
sI2
(lp196
ssI2
(dp197
I0
g193
sI1
g196
sI2
(lp198
ssa(dp199
I0
(dp200
I0
(lp201
sI1
(lp202
sI2
(lp203
ssI1
(dp204
I0
g202
sI1
(lp205
sI2
(lp206
ssI2
(dp207
I0
g203
sI1
g206
sI2
(lp208
ssa(dp209
I0
(dp210
I0
(lp211
sI1
(lp212
sI2
(lp213
ssI1
(dp214
I0
g212
sI1
(lp215
sI2
(lp216
ssI2
(dp217
I0
g213
sI1
g216
sI2
(lp218
ssa(dp219
I0
(dp220
I0
(lp221
sI1
(lp222
sI2
(lp223
ssI1
(dp224
I0
g222
sI1
(lp225
sI2
(lp226
Vhttp://dbpedia.org/property/region
p227
aVhttp://www.w3.org/1999/02/22-rdf-syntax-ns#type
p228
aVhttp://purl.org/dc/terms/subject
p229
aVhttp://dbpedia.org/ontology/location
p230
aVhttp://www.w3.org/2000/01/rdf-schema#comment
p231
aVhttp://dbpedia.org/ontology/abstract
p232
aVhttp://dbpedia.org/property/location
p233
aVhttp://dbpedia.org/ontology/region
p234
assI2
(dp235
I0
g223
sI1
g226
sI2
(lp236
ssa(dp237
I0
(dp238
I0
(lp239
sI1
(lp240
sI2
(lp241
ssI1
(dp242
I0
g240
sI1
(lp243
sI2
(lp244
Vhttp://dbpedia.org/property/affiliation
p245
aVhttp://dbpedia.org/property/region
p246
aVhttp://www.w3.org/1999/02/22-rdf-syntax-ns#type
p247
aVhttp://purl.org/dc/terms/subject
p248
aVhttp://dbpedia.org/ontology/location
p249
aVhttp://www.w3.org/2000/01/rdf-schema#comment
p250
aVhttp://dbpedia.org/ontology/abstract
p251
aVhttp://dbpedia.org/property/location
p252
aVhttp://dbpedia.org/ontology/affiliation
p253
aVhttp://dbpedia.org/ontology/region
p254
assI2
(dp255
I0
g241
sI1
g244
sI2
(lp256
ssa(dp257
I0
(dp258
I0
(lp259
sI1
(lp260
sI2
(lp261
ssI1
(dp262
I0
g260
sI1
(lp263
sI2
(lp264
ssI2
(dp265
I0
g261
sI1
g264
sI2
(lp266
ssa(dp267
I0
(dp268
I0
(lp269
sI1
(lp270
sI2
(lp271
ssI1
(dp272
I0
g270
sI1
(lp273
sI2
(lp274
ssI2
(dp275
I0
g271
sI1
g274
sI2
(lp276
ssa(dp277
I0
(dp278
I0
(lp279
sI1
(lp280
sI2
(lp281
ssI1
(dp282
I0
g280
sI1
(lp283
sI2
(lp284
ssI2
(dp285
I0
g281
sI1
g284
sI2
(lp286
ssa(dp287
I0
(dp288
I0
(lp289
sI1
(lp290
sI2
(lp291
ssI1
(dp292
I0
g290
sI1
(lp293
sI2
(lp294
ssI2
(dp295
I0
g291
sI1
g294
sI2
(lp296
ssa.