ccollections
defaultdict
p1
(c__builtin__
dict
p2
tRp3
I6
(dp4
I1
(lp5
sI2
(lp6
sI3
(lp7
sI4
(lp8
ssI10
(dp9
I1
(lp10
Vhttp://dbpedia.org/ontology/abstract
p11
aVhttp://www.w3.org/2000/01/rdf-schema#comment
p12
asI2
(lp13
sI3
(lp14
Vhttp://dbpedia.org/ontology/abstract
p15
aVhttp://www.w3.org/2000/01/rdf-schema#comment
p16
asI4
(lp17
Vhttp://dbpedia.org/ontology/abstract
p18
aVhttp://www.w3.org/2000/01/rdf-schema#comment
p19
assI11
(dp20
I1
(lp21
sI2
(lp22
sI3
(lp23
sI4
(lp24
ssI12
(dp25
I1
(lp26
Vhttp://www.w3.org/1999/02/22-rdf-syntax-ns#type
p27
asI2
(lp28
sI3
(lp29
sI4
(lp30
ssI14
(dp31
I1
(lp32
sI2
(lp33
sI3
(lp34
sI4
(lp35
ssI16
(dp36
I1
(lp37
Vhttp://dbpedia.org/ontology/abstract
p38
aVhttp://www.w3.org/2000/01/rdf-schema#comment
p39
asI2
(lp40
sI3
(lp41
sI4
(lp42
ss.