(lp1
(lp2
(lp3
a(lp4
a(lp5
aa(lp6
(lp7
((lVhttp://dbpedia.org/resource/Article_Four_Direction
tp8
aa(lp9
a(lp10
aa(lp11
(lp12
a(lp13
a(lp14
aa(lp15
(lp16
((lVhttp://dbpedia.org/resource/Null
tp17
aa(lp18
((lVhttp://dbpedia.org/resource/Null
tp19
aa(lp20
((lVhttp://dbpedia.org/resource/Null
tp21
aaa(lp22
(lp23
((lVhttp://dbpedia.org/resource/Price
tp24
aa(lp25
a(lp26
aa(lp27
(lp28
((lVhttp://dbpedia.org/resource/Null
tp29
aa(lp30
((lVhttp://dbpedia.org/resource/Null
tp31
aa(lp32
((lVhttp://dbpedia.org/resource/Null
tp33
aaa(lp34
(lp35
((lVhttp://dbpedia.org/resource/Null
tp36
aa(lp37
((lVhttp://dbpedia.org/resource/Null
tp38
aa(lp39
((lVhttp://dbpedia.org/resource/Null
tp40
aaa(lp41
(lp42
((lVhttp://dbpedia.org/resource/Warehouse_store
tp43
aa(lp44
a(lp45
aa(lp46
(lp47
((lVhttp://dbpedia.org/resource/Null
tp48
aa(lp49
((lVhttp://dbpedia.org/resource/Null
tp50
aa(lp51
((lVhttp://dbpedia.org/resource/Null
p52
tp53
aaa.