(lp1
(dp2
I0
(dp3
I0
(lp4
sI1
(lp5
Vhttp://dbpedia.org/property/returns
p6
aVhttp://dbpedia.org/property/venue
p7
aVhttp://dbpedia.org/property/location
p8
aVhttp://dbpedia.org/ontology/ground
p9
aVhttp://dbpedia.org/ontology/homeStadium
p10
aVhttp://dbpedia.org/property/stadium
p11
asI2
(lp12
Vhttp://dbpedia.org/property/placeOfDeath
p13
aVhttp://dbpedia.org/property/broadcastArea
p14
aVhttp://dbpedia.org/property/burial
p15
aVhttp://dbpedia.org/ontology/officialLanguage
p16
aVhttp://dbpedia.org/ontology/regionServed
p17
aVhttp://dbpedia.org/ontology/country
p18
aVhttp://www.w3.org/1999/02/22-rdf-syntax-ns#type
p19
aVhttp://dbpedia.org/ontology/place
p20
aVhttp://dbpedia.org/ontology/ethnicGroup
p21
aVhttp://dbpedia.org/property/country
p22
aVhttp://purl.org/dc/terms/subject
p23
aVhttp://dbpedia.org/ontology/abstract
p24
aVhttp://dbpedia.org/property/regionServed
p25
aVhttp://dbpedia.org/property/deathPlace
p26
aVhttp://dbpedia.org/property/location
p27
aVhttp://dbpedia.org/property/states
p28
aVhttp://dbpedia.org/ontology/locationCountry
p29
aVhttp://dbpedia.org/ontology/deathPlace
p30
aVhttp://dbpedia.org/ontology/language
p31
aVhttp://dbpedia.org/ontology/broadcastArea
p32
aVhttp://dbpedia.org/property/basinCountries
p33
aVhttp://dbpedia.org/property/officialLanguages
p34
aVhttp://www.w3.org/2000/01/rdf-schema#comment
p35
aVhttp://dbpedia.org/ontology/spokenIn
p36
asI3
(lp37
ssI1
(dp38
I0
g5
sI1
(lp39
sI2
(lp40
Vhttp://dbpedia.org/ontology/country
p41
aVhttp://dbpedia.org/ontology/location
p42
aVhttp://dbpedia.org/property/hostCity
p43
aVhttp://dbpedia.org/property/place
p44
aVhttp://dbpedia.org/ontology/firstDriverCountry
p45
aVhttp://dbpedia.org/property/location
p46
aVhttp://dbpedia.org/property/worldPlace
p47
aVhttp://dbpedia.org/property/venue
p48
aVhttp://dbpedia.org/property/withdraws
p49
aVhttp://dbpedia.org/ontology/poleDriverCountry
p50
aVhttp://dbpedia.org/ontology/fastestDriverCountry
p51
aVhttp://dbpedia.org/property/host
p52
aVhttp://dbpedia.org/property/stadium
p53
aVhttp://dbpedia.org/property/rd2t1Loc
p54
asI3
(lp55
ssI2
(dp56
I0
g12
sI1
g40
sI2
(lp57
sI3
(lp58
ssI3
(dp59
I0
g37
sI1
g55
sI2
g58
sI3
(lp60
ssa(dp61
I0
(dp62
I0
(lp63
sI1
(lp64
Vhttp://dbpedia.org/property/withdraws
p65
aVhttp://dbpedia.org/ontology/country
p66
aVhttp://dbpedia.org/ontology/abstract
p67
aVhttp://dbpedia.org/property/host
p68
asI2
(lp69
Vhttp://www.w3.org/2000/01/rdf-schema#seeAlso
p70
aVhttp://dbpedia.org/property/currency
p71
aVhttp://dbpedia.org/property/awardedBy
p72
aVhttp://dbpedia.org/property/broadcastArea
p73
aVhttp://dbpedia.org/ontology/currency
p74
aVhttp://dbpedia.org/ontology/garrison
p75
aVhttp://dbpedia.org/property/legislature
p76
aVhttp://dbpedia.org/property/caption
p77
aVhttp://dbpedia.org/ontology/demonym
p78
aVhttp://dbpedia.org/ontology/officialLanguage
p79
aVhttp://dbpedia.org/ontology/regionServed
p80
aVhttp://dbpedia.org/ontology/country
p81
aVhttp://dbpedia.org/property/region
p82
aVhttp://www.w3.org/1999/02/22-rdf-syntax-ns#type
p83
aVhttp://dbpedia.org/property/locationCountry
p84
aVhttp://dbpedia.org/property/allegiance
p85
aVhttp://dbpedia.org/property/officialLanguages
p86
aVhttp://dbpedia.org/property/image
p87
aVhttp://dbpedia.org/ontology/place
p88
aVhttp://dbpedia.org/property/owner
p89
aVhttp://dbpedia.org/property/country
p90
aVhttp://dbpedia.org/property/areaServed
p91
aVhttp://purl.org/dc/terms/subject
p92
aVhttp://dbpedia.org/property/origin
p93
aVhttp://dbpedia.org/ontology/abstract
p94
aVhttp://dbpedia.org/ontology/spokenIn
p95
aVhttp://dbpedia.org/property/location
p96
aVhttp://dbpedia.org/ontology/usingCountry
p97
aVhttp://dbpedia.org/property/states
p98
aVhttp://dbpedia.org/ontology/builder
p99
aVhttp://dbpedia.org/ontology/headquarter
p100
aVhttp://dbpedia.org/ontology/language
p101
aVhttp://dbpedia.org/ontology/broadcastArea
p102
aVhttp://dbpedia.org/property/shipBuilder
p103
aVhttp://dbpedia.org/property/headquarters
p104
aVhttp://dbpedia.org/property/birthPlace
p105
aVhttp://dbpedia.org/ontology/birthPlace
p106
aVhttp://www.w3.org/2000/01/rdf-schema#comment
p107
aVhttp://dbpedia.org/ontology/locationCountry
p108
aVhttp://dbpedia.org/property/area
p109
aVhttp://dbpedia.org/ontology/hometown
p110
aVhttp://dbpedia.org/property/bankOf
p111
aVhttp://dbpedia.org/property/demonym
p112
aVhttp://dbpedia.org/property/regionServed
p113
aVhttp://dbpedia.org/property/garrison
p114
aVhttp://dbpedia.org/property/leaderTitle
p115
aVhttp://dbpedia.org/ontology/location
p116
asI3
(lp117
ssI1
(dp118
I0
g64
sI1
(lp119
sI2
(lp120
sI3
(lp121
ssI2
(dp122
I0
g69
sI1
g120
sI2
(lp123
sI3
(lp124
ssI3
(dp125
I0
g117
sI1
g121
sI2
g124
sI3
(lp126
ssa(dp127
I0
(dp128
I0
(lp129
sI1
(lp130
Vhttp://dbpedia.org/ontology/abstract
p131
aVhttp://dbpedia.org/property/location
p132
aVhttp://dbpedia.org/property/stadium
p133
asI2
(lp134
Vhttp://www.w3.org/2000/01/rdf-schema#seeAlso
p135
aVhttp://dbpedia.org/property/currency
p136
aVhttp://dbpedia.org/ontology/currency
p137
aVhttp://dbpedia.org/property/legislature
p138
aVhttp://dbpedia.org/property/sovereigntyType
p139
aVhttp://dbpedia.org/ontology/longName
p140
aVhttp://www.w3.org/ns/prov#wasDerivedFrom
p141
aVhttp://dbpedia.org/property/caption
p142
aVhttp://dbpedia.org/property/territory
p143
aVhttp://dbpedia.org/ontology/demonym
p144
aVhttp://dbpedia.org/ontology/flag
p145
aVhttp://dbpedia.org/property/footer
p146
aVhttp://dbpedia.org/ontology/country
p147
aVhttp://dbpedia.org/property/region
p148
aVhttp://www.w3.org/2002/07/owl#sameAs
p149
aVhttp://dbpedia.org/property/commonName
p150
aVhttp://dbpedia.org/property/upperHouse
p151
aVhttp://dbpedia.org/property/image
p152
aVhttp://dbpedia.org/property/lowerHouse
p153
aVhttp://dbpedia.org/ontology/place
p154
aVhttp://xmlns.com/foaf/0.1/isPrimaryTopicOf
p155
aVhttp://dbpedia.org/property/imageCoat
p156
aVhttp://dbpedia.org/property/conventionalLongName
p157
aVhttp://dbpedia.org/property/country
p158
aVhttp://dbpedia.org/property/linkingName
p159
aVhttp://dbpedia.org/ontology/regionServed
p160
aVhttp://dbpedia.org/ontology/wikiPageDisambiguates
p161
aVhttp://dbpedia.org/property/establishedEvent
p162
aVhttp://dbpedia.org/ontology/wikiPageExternalLink
p163
aVhttp://xmlns.com/foaf/0.1/primaryTopic
p164
aVhttp://purl.org/dc/terms/subject
p165
aVhttp://dbpedia.org/ontology/populationPlace
p166
aVhttp://dbpedia.org/property/origin
p167
aVhttp://dbpedia.org/ontology/abstract
p168
aVhttp://xmlns.com/foaf/0.1/depiction
p169
aVhttp://dbpedia.org/property/demonym
p170
aVhttp://dbpedia.org/property/location
p171
aVhttp://dbpedia.org/ontology/usingCountry
p172
aVhttp://dbpedia.org/property/states
p173
aVhttp://dbpedia.org/ontology/locationCountry
p174
aVhttp://dbpedia.org/ontology/thumbnail
p175
aVhttp://dbpedia.org/property/hasPhotoCollection
p176
aVhttp://www.w3.org/2000/01/rdf-schema#label
p177
aVhttp://dbpedia.org/ontology/language
p178
aVhttp://dbpedia.org/property/title
p179
aVhttp://dbpedia.org/property/languages
p180
aVhttp://dbpedia.org/property/armiger
p181
aVhttp://dbpedia.org/property/imageMap
p182
aVhttp://dbpedia.org/ontology/location
p183
aVhttp://www.w3.org/2000/01/rdf-schema#comment
p184
aVhttp://dbpedia.org/property/countryName
p185
aVhttp://dbpedia.org/ontology/wikiPageRedirects
p186
aVhttp://dbpedia.org/property/areaServed
p187
aVhttp://dbpedia.org/ontology/hometown
p188
aVhttp://dbpedia.org/property/bankOf
p189
aVhttp://dbpedia.org/property/imageFlag
p190
aVhttp://dbpedia.org/property/remit
p191
aVhttp://dbpedia.org/property/headquarters
p192
aVhttp://dbpedia.org/property/regionServed
p193
aVhttp://xmlns.com/foaf/0.1/name
p194
aVhttp://xmlns.com/foaf/0.1/homepage
p195
aVhttp://dbpedia.org/ontology/spokenIn
p196
aVhttp://dbpedia.org/property/leaderTitle
p197
aVhttp://dbpedia.org/property/locationCountry
p198
aVhttp://dbpedia.org/property/stadium
p199
aVhttp://dbpedia.org/ontology/headquarter
p200
asI3
(lp201
ssI1
(dp202
I0
g130
sI1
(lp203
sI2
(lp204
sI3
(lp205
ssI2
(dp206
I0
g134
sI1
g204
sI2
(lp207
sI3
(lp208
ssI3
(dp209
I0
g201
sI1
g205
sI2
g208
sI3
(lp210
ssa(dp211
I0
(dp212
I0
(lp213
sI1
(lp214
sI2
(lp215
sI3
(lp216
ssI1
(dp217
I0
g214
sI1
(lp218
sI2
(lp219
sI3
(lp220
ssI2
(dp221
I0
g215
sI1
g219
sI2
(lp222
sI3
(lp223
ssI3
(dp224
I0
g216
sI1
g220
sI2
g223
sI3
(lp225
ssa(dp226
I0
(dp227
I0
(lp228
sI1
(lp229
Vhttp://dbpedia.org/ontology/country
p230
aVhttp://dbpedia.org/property/returns
p231
aVhttp://dbpedia.org/ontology/location
p232
aVhttp://dbpedia.org/property/hostCity
p233
aVhttp://dbpedia.org/ontology/abstract
p234
aVhttp://www.w3.org/2000/01/rdf-schema#comment
p235
aVhttp://dbpedia.org/property/place
p236
aVhttp://dbpedia.org/property/location
p237
aVhttp://dbpedia.org/property/withdraws
p238
aVhttp://dbpedia.org/property/rd3t2Loc
p239
aVhttp://dbpedia.org/property/rd2t4Loc
p240
asI2
(lp241
Vhttp://www.w3.org/2000/01/rdf-schema#seeAlso
p242
aVhttp://dbpedia.org/property/currency
p243
aVhttp://dbpedia.org/property/hostCity
p244
aVhttp://dbpedia.org/ontology/currency
p245
aVhttp://dbpedia.org/property/place
p246
aVhttp://dbpedia.org/property/city
p247
aVhttp://dbpedia.org/property/caption
p248
aVhttp://dbpedia.org/ontology/demonym
p249
aVhttp://dbpedia.org/ontology/officialLanguage
p250
aVhttp://dbpedia.org/ontology/regionServed
p251
aVhttp://dbpedia.org/ontology/country
p252
aVhttp://dbpedia.org/property/officialLanguages
p253
aVhttp://dbpedia.org/property/birthPlace
p254
aVhttp://dbpedia.org/ontology/place
p255
aVhttp://dbpedia.org/ontology/ethnicGroup
p256
aVhttp://dbpedia.org/property/country
p257
aVhttp://dbpedia.org/property/circuitImage
p258
aVhttp://dbpedia.org/property/establishedEvent
p259
aVhttp://dbpedia.org/ontology/wikiPageExternalLink
p260
aVhttp://dbpedia.org/ontology/populationPlace
p261
aVhttp://dbpedia.org/property/origin
p262
aVhttp://dbpedia.org/ontology/abstract
p263
aVhttp://dbpedia.org/ontology/spokenIn
p264
aVhttp://dbpedia.org/property/location
p265
aVhttp://dbpedia.org/ontology/usingCountry
p266
aVhttp://dbpedia.org/property/states
p267
aVhttp://dbpedia.org/ontology/headquarter
p268
aVhttp://dbpedia.org/ontology/language
p269
aVhttp://dbpedia.org/ontology/location
p270
aVhttp://dbpedia.org/property/asPartOf
p271
aVhttp://dbpedia.org/property/headquarters
p272
aVhttp://www.w3.org/2000/01/rdf-schema#comment
p273
aVhttp://dbpedia.org/ontology/birthPlace
p274
aVhttp://dbpedia.org/ontology/wikiPageRedirects
p275
aVhttp://dbpedia.org/property/area
p276
aVhttp://dbpedia.org/ontology/hometown
p277
aVhttp://dbpedia.org/property/bankOf
p278
aVhttp://dbpedia.org/property/demonym
p279
aVhttp://dbpedia.org/property/regionServed
p280
asI3
(lp281
ssI1
(dp282
I0
g229
sI1
(lp283
sI2
(lp284
sI3
(lp285
ssI2
(dp286
I0
g241
sI1
g284
sI2
(lp287
sI3
(lp288
ssI3
(dp289
I0
g281
sI1
g285
sI2
g288
sI3
(lp290
ssa(dp291
I0
(dp292
I0
(lp293
sI1
(lp294
Vhttp://dbpedia.org/property/withdraws
p295
aVhttp://dbpedia.org/property/country
p296
asI2
(lp297
Vhttp://dbpedia.org/property/origin
p298
aVhttp://dbpedia.org/ontology/leader
p299
aVhttp://dbpedia.org/property/place
p300
aVhttp://dbpedia.org/property/footnoteA
p301
aVhttp://dbpedia.org/ontology/demonym
p302
aVhttp://dbpedia.org/ontology/officialLanguage
p303
aVhttp://dbpedia.org/ontology/country
p304
aVhttp://dbpedia.org/property/nationalAnthem
p305
aVhttp://dbpedia.org/property/locationCountry
p306
aVhttp://dbpedia.org/property/officialLanguages
p307
aVhttp://dbpedia.org/ontology/nationality
p308
aVhttp://dbpedia.org/ontology/place
p309
aVhttp://dbpedia.org/ontology/ethnicGroup
p310
aVhttp://dbpedia.org/property/country
p311
aVhttp://dbpedia.org/property/shipCountry
p312
aVhttp://dbpedia.org/property/establishedEvent
p313
aVhttp://dbpedia.org/ontology/wikiPageExternalLink
p314
aVhttp://dbpedia.org/ontology/abstract
p315
aVhttp://dbpedia.org/property/leaderName
p316
aVhttp://dbpedia.org/ontology/usingCountry
p317
aVhttp://dbpedia.org/property/states
p318
aVhttp://dbpedia.org/ontology/locationCountry
p319
aVhttp://dbpedia.org/ontology/headquarter
p320
aVhttp://dbpedia.org/ontology/language
p321
aVhttp://dbpedia.org/ontology/location
p322
aVhttp://dbpedia.org/property/headquarters
p323
aVhttp://www.w3.org/2000/01/rdf-schema#comment
p324
aVhttp://dbpedia.org/ontology/wikiPageRedirects
p325
aVhttp://dbpedia.org/ontology/hometown
p326
aVhttp://dbpedia.org/property/demonym
p327
aVhttp://dbpedia.org/ontology/spokenIn
p328
aVhttp://dbpedia.org/property/observedby
p329
asI3
(lp330
ssI1
(dp331
I0
g294
sI1
(lp332
sI2
(lp333
sI3
(lp334
ssI2
(dp335
I0
g297
sI1
g333
sI2
(lp336
sI3
(lp337
ssI3
(dp338
I0
g330
sI1
g334
sI2
g337
sI3
(lp339
ssa(dp340
I0
(dp341
I0
(lp342
sI1
(lp343
Vhttp://dbpedia.org/property/referee
p344
aVhttp://dbpedia.org/property/stadium
p345
asI2
(lp346
Vhttp://www.w3.org/2000/01/rdf-schema#seeAlso
p347
aVhttp://dbpedia.org/property/origin
p348
aVhttp://dbpedia.org/property/place
p349
aVhttp://dbpedia.org/ontology/demonym
p350
aVhttp://dbpedia.org/ontology/officialLanguage
p351
aVhttp://dbpedia.org/ontology/regionServed
p352
aVhttp://dbpedia.org/ontology/country
p353
aVhttp://dbpedia.org/property/locationCountry
p354
aVhttp://dbpedia.org/property/officialLanguages
p355
aVhttp://dbpedia.org/property/source
p356
aVhttp://dbpedia.org/ontology/place
p357
aVhttp://dbpedia.org/ontology/ethnicGroup
p358
aVhttp://dbpedia.org/property/country
p359
aVhttp://dbpedia.org/property/establishedEvent
p360
aVhttp://dbpedia.org/ontology/ideology
p361
aVhttp://dbpedia.org/ontology/populationPlace
p362
aVhttp://dbpedia.org/ontology/abstract
p363
aVhttp://dbpedia.org/ontology/spokenIn
p364
aVhttp://dbpedia.org/property/location
p365
aVhttp://dbpedia.org/ontology/usingCountry
p366
aVhttp://dbpedia.org/property/states
p367
aVhttp://dbpedia.org/ontology/locationCountry
p368
aVhttp://dbpedia.org/ontology/headquarter
p369
aVhttp://dbpedia.org/ontology/language
p370
aVhttp://dbpedia.org/ontology/broadcastArea
p371
aVhttp://dbpedia.org/property/headquarters
p372
aVhttp://www.w3.org/2000/01/rdf-schema#comment
p373
aVhttp://dbpedia.org/property/hostcity
p374
aVhttp://dbpedia.org/property/area
p375
aVhttp://dbpedia.org/ontology/hometown
p376
aVhttp://dbpedia.org/property/demonym
p377
aVhttp://dbpedia.org/property/regionServed
p378
aVhttp://dbpedia.org/ontology/location
p379
asI3
(lp380
ssI1
(dp381
I0
g343
sI1
(lp382
sI2
(lp383
sI3
(lp384
ssI2
(dp385
I0
g346
sI1
g383
sI2
(lp386
sI3
(lp387
ssI3
(dp388
I0
g380
sI1
g384
sI2
g387
sI3
(lp389
ssa(dp390
I0
(dp391
I0
(lp392
sI1
(lp393
Vhttp://dbpedia.org/property/stadium
p394
asI2
(lp395
Vhttp://www.w3.org/2000/01/rdf-schema#seeAlso
p396
aVhttp://www.w3.org/1999/02/22-rdf-syntax-ns#type
p397
aVhttp://purl.org/dc/terms/subject
p398
aVhttp://dbpedia.org/property/officialLanguages
p399
aVhttp://www.w3.org/2000/01/rdf-schema#comment
p400
aVhttp://dbpedia.org/ontology/abstract
p401
aVhttp://dbpedia.org/ontology/officialLanguage
p402
aVhttp://dbpedia.org/ontology/language
p403
asI3
(lp404
ssI1
(dp405
I0
g393
sI1
(lp406
sI2
(lp407
sI3
(lp408
ssI2
(dp409
I0
g395
sI1
g407
sI2
(lp410
sI3
(lp411
ssI3
(dp412
I0
g404
sI1
g408
sI2
g411
sI3
(lp413
ssa(dp414
I0
(dp415
I0
(lp416
sI1
(lp417
Vhttp://dbpedia.org/property/origin
p418
aVhttp://dbpedia.org/property/returns
p419
aVhttp://dbpedia.org/property/rd1t5Loc
p420
aVhttp://dbpedia.org/property/debuts
p421
aVhttp://dbpedia.org/property/usedBy
p422
aVhttp://dbpedia.org/property/rd2t3Loc
p423
asI2
(lp424
Vhttp://www.w3.org/2000/01/rdf-schema#seeAlso
p425
aVhttp://dbpedia.org/property/origin
p426
aVhttp://dbpedia.org/ontology/type
p427
aVhttp://dbpedia.org/ontology/currency
p428
aVhttp://dbpedia.org/property/place
p429
aVhttp://dbpedia.org/property/city
p430
aVhttp://dbpedia.org/ontology/garrison
p431
aVhttp://dbpedia.org/property/territory
p432
aVhttp://dbpedia.org/ontology/demonym
p433
aVhttp://dbpedia.org/ontology/regionServed
p434
aVhttp://dbpedia.org/ontology/country
p435
aVhttp://dbpedia.org/property/locationCountry
p436
aVhttp://dbpedia.org/ontology/place
p437
aVhttp://dbpedia.org/property/locationSigned
p438
aVhttp://dbpedia.org/property/owner
p439
aVhttp://dbpedia.org/property/country
p440
aVhttp://dbpedia.org/property/establishedEvent
p441
aVhttp://dbpedia.org/ontology/populationPlace
p442
aVhttp://dbpedia.org/ontology/abstract
p443
aVhttp://dbpedia.org/ontology/spokenIn
p444
aVhttp://dbpedia.org/property/location
p445
aVhttp://dbpedia.org/ontology/usingCountry
p446
aVhttp://dbpedia.org/ontology/locationCountry
p447
aVhttp://dbpedia.org/ontology/headquarter
p448
aVhttp://dbpedia.org/ontology/language
p449
aVhttp://dbpedia.org/ontology/location
p450
aVhttp://dbpedia.org/property/languages
p451
aVhttp://dbpedia.org/property/headquarters
p452
aVhttp://www.w3.org/2000/01/rdf-schema#comment
p453
aVhttp://dbpedia.org/ontology/wikiPageRedirects
p454
aVhttp://dbpedia.org/property/area
p455
aVhttp://dbpedia.org/ontology/hometown
p456
aVhttp://dbpedia.org/property/demonym
p457
aVhttp://dbpedia.org/property/areaServed
p458
aVhttp://dbpedia.org/property/regionServed
p459
aVhttp://dbpedia.org/property/foundingLocation
p460
asI3
(lp461
ssI1
(dp462
I0
g417
sI1
(lp463
sI2
(lp464
sI3
(lp465
ssI2
(dp466
I0
g424
sI1
g464
sI2
(lp467
sI3
(lp468
ssI3
(dp469
I0
g461
sI1
g465
sI2
g468
sI3
(lp470
ssa(dp471
I0
(dp472
I0
(lp473
sI1
(lp474
Vhttp://dbpedia.org/ontology/country
p475
aVhttp://www.w3.org/1999/02/22-rdf-syntax-ns#type
p476
aVhttp://purl.org/dc/terms/subject
p477
aVhttp://www.w3.org/2000/01/rdf-schema#comment
p478
aVhttp://dbpedia.org/ontology/abstract
p479
aVhttp://dbpedia.org/property/debuts
p480
aVhttp://dbpedia.org/property/country
p481
asI2
(lp482
Vhttp://www.w3.org/2000/01/rdf-schema#seeAlso
p483
aVhttp://dbpedia.org/property/currency
p484
aVhttp://dbpedia.org/ontology/origin
p485
aVhttp://dbpedia.org/ontology/currency
p486
aVhttp://dbpedia.org/property/place
p487
aVhttp://dbpedia.org/property/residence
p488
aVhttp://dbpedia.org/property/caption
p489
aVhttp://dbpedia.org/property/territory
p490
aVhttp://dbpedia.org/ontology/demonym
p491
aVhttp://dbpedia.org/ontology/officialLanguage
p492
aVhttp://dbpedia.org/property/footer
p493
aVhttp://dbpedia.org/ontology/country
p494
aVhttp://dbpedia.org/property/nationalAnthem
p495
aVhttp://dbpedia.org/property/locationCountry
p496
aVhttp://dbpedia.org/property/officialLanguages
p497
aVhttp://dbpedia.org/property/birthPlace
p498
aVhttp://dbpedia.org/ontology/place
p499
aVhttp://dbpedia.org/property/placeOfBirth
p500
aVhttp://dbpedia.org/property/country
p501
aVhttp://dbpedia.org/ontology/regionServed
p502
aVhttp://dbpedia.org/property/areaServed
p503
aVhttp://purl.org/dc/terms/subject
p504
aVhttp://dbpedia.org/property/origin
p505
aVhttp://dbpedia.org/ontology/abstract
p506
aVhttp://dbpedia.org/property/location
p507
aVhttp://dbpedia.org/ontology/locationCountry
p508
aVhttp://dbpedia.org/ontology/headquarter
p509
aVhttp://dbpedia.org/ontology/language
p510
aVhttp://dbpedia.org/ontology/location
p511
aVhttp://dbpedia.org/property/headquarters
p512
aVhttp://www.w3.org/2000/01/rdf-schema#comment
p513
aVhttp://dbpedia.org/ontology/birthPlace
p514
aVhttp://dbpedia.org/ontology/wikiPageRedirects
p515
aVhttp://dbpedia.org/ontology/hometown
p516
aVhttp://dbpedia.org/property/demonym
p517
aVhttp://dbpedia.org/ontology/spokenIn
p518
aVhttp://dbpedia.org/property/remit
p519
asI3
(lp520
ssI1
(dp521
I0
g474
sI1
(lp522
sI2
(lp523
sI3
(lp524
ssI2
(dp525
I0
g482
sI1
g523
sI2
(lp526
sI3
(lp527
ssI3
(dp528
I0
g520
sI1
g524
sI2
g527
sI3
(lp529
ssa(dp530
I0
(dp531
I0
(lp532
sI1
(lp533
Vhttp://dbpedia.org/property/rd1t3Loc
p534
aVhttp://www.w3.org/1999/02/22-rdf-syntax-ns#type
p535
aVhttp://dbpedia.org/property/venue
p536
aVhttp://dbpedia.org/property/worldPlace
p537
asI2
(lp538
Vhttp://www.w3.org/2000/01/rdf-schema#seeAlso
p539
aVhttp://dbpedia.org/property/origin
p540
aVhttp://dbpedia.org/property/cities
p541
aVhttp://dbpedia.org/property/conventionalLongName
p542
aVhttp://dbpedia.org/property/place
p543
aVhttp://dbpedia.org/property/footnoteA
p544
aVhttp://dbpedia.org/ontology/longName
p545
aVhttp://www.w3.org/ns/prov#wasDerivedFrom
p546
aVhttp://dbpedia.org/ontology/locatedInArea
p547
aVhttp://dbpedia.org/property/footnoteB
p548
aVhttp://dbpedia.org/ontology/demonym
p549
aVhttp://dbpedia.org/ontology/officialLanguage
p550
aVhttp://dbpedia.org/ontology/regionServed
p551
aVhttp://dbpedia.org/ontology/country
p552
aVhttp://dbpedia.org/property/nationalAnthem
p553
aVhttp://www.w3.org/2002/07/owl#differentFrom
p554
aVhttp://dbpedia.org/property/locationCountry
p555
aVhttp://dbpedia.org/property/available
p556
aVhttp://dbpedia.org/property/bankOf
p557
aVhttp://dbpedia.org/ontology/place
p558
aVhttp://dbpedia.org/ontology/ethnicGroup
p559
aVhttp://dbpedia.org/property/stateParty
p560
aVhttp://dbpedia.org/property/country
p561
aVhttp://dbpedia.org/ontology/headquarter
p562
aVhttp://dbpedia.org/ontology/wikiPageDisambiguates
p563
aVhttp://xmlns.com/foaf/0.1/isPrimaryTopicOf
p564
aVhttp://dbpedia.org/ontology/wikiPageExternalLink
p565
aVhttp://xmlns.com/foaf/0.1/primaryTopic
p566
aVhttp://purl.org/dc/terms/subject
p567
aVhttp://dbpedia.org/ontology/populationPlace
p568
aVhttp://dbpedia.org/ontology/flag
p569
aVhttp://dbpedia.org/ontology/abstract
p570
aVhttp://xmlns.com/foaf/0.1/depiction
p571
aVhttp://dbpedia.org/property/demonym
p572
aVhttp://dbpedia.org/property/location
p573
aVhttp://dbpedia.org/ontology/usingCountry
p574
aVhttp://dbpedia.org/property/states
p575
aVhttp://dbpedia.org/ontology/locationCountry
p576
aVhttp://dbpedia.org/ontology/thumbnail
p577
aVhttp://dbpedia.org/property/namedAfter
p578
aVhttp://dbpedia.org/property/commonName
p579
aVhttp://dbpedia.org/property/hasPhotoCollection
p580
aVhttp://www.w3.org/2000/01/rdf-schema#label
p581
aVhttp://dbpedia.org/ontology/language
p582
aVhttp://dbpedia.org/ontology/broadcastArea
p583
aVhttp://dbpedia.org/property/armiger
p584
aVhttp://dbpedia.org/property/imageMap
p585
aVhttp://dbpedia.org/property/officialLanguages
p586
aVhttp://www.w3.org/2000/01/rdf-schema#comment
p587
aVhttp://dbpedia.org/property/countryName
p588
aVhttp://dbpedia.org/ontology/wikiPageRedirects
p589
aVhttp://dbpedia.org/property/area
p590
aVhttp://dbpedia.org/ontology/hometown
p591
aVhttp://dbpedia.org/property/destination
p592
aVhttp://dbpedia.org/property/imageFlag
p593
aVhttp://www.w3.org/2002/07/owl#sameAs
p594
aVhttp://dbpedia.org/property/headquarters
p595
aVhttp://dbpedia.org/property/imageCoat
p596
aVhttp://xmlns.com/foaf/0.1/name
p597
aVhttp://xmlns.com/foaf/0.1/homepage
p598
aVhttp://dbpedia.org/property/legislature
p599
aVhttp://dbpedia.org/ontology/spokenIn
p600
aVhttp://dbpedia.org/property/leaderTitle
p601
aVhttp://dbpedia.org/property/stadium
p602
aVhttp://dbpedia.org/ontology/location
p603
asI3
(lp604
ssI1
(dp605
I0
g533
sI1
(lp606
sI2
(lp607
Vhttp://dbpedia.org/property/rd1t3Loc
p608
aVhttp://www.w3.org/1999/02/22-rdf-syntax-ns#type
p609
aVhttp://dbpedia.org/property/venue
p610
aVhttp://dbpedia.org/property/worldPlace
p611
asI3
(lp612
ssI2
(dp613
I0
g538
sI1
g607
sI2
(lp614
sI3
(lp615
ssI3
(dp616
I0
g604
sI1
g612
sI2
g615
sI3
(lp617
ssa(dp618
I0
(dp619
I0
(lp620
sI1
(lp621
Vhttp://dbpedia.org/property/rd0t1Loc
p622
asI2
(lp623
Vhttp://www.w3.org/2000/01/rdf-schema#seeAlso
p624
aVhttp://dbpedia.org/ontology/country
p625
aVhttp://dbpedia.org/property/officialLanguages
p626
aVhttp://www.w3.org/2000/01/rdf-schema#comment
p627
aVhttp://dbpedia.org/ontology/anthem
p628
aVhttp://dbpedia.org/ontology/abstract
p629
aVhttp://dbpedia.org/ontology/officialLanguage
p630
aVhttp://dbpedia.org/property/demonym
p631
aVhttp://dbpedia.org/ontology/deathPlace
p632
aVhttp://dbpedia.org/ontology/spokenIn
p633
aVhttp://dbpedia.org/property/country
p634
aVhttp://dbpedia.org/ontology/populationPlace
p635
aVhttp://dbpedia.org/ontology/demonym
p636
aVhttp://dbpedia.org/ontology/birthPlace
p637
aVhttp://dbpedia.org/ontology/language
p638
aVhttp://dbpedia.org/ontology/ethnicGroup
p639
asI3
(lp640
ssI1
(dp641
I0
g621
sI1
(lp642
sI2
(lp643
sI3
(lp644
ssI2
(dp645
I0
g623
sI1
g643
sI2
(lp646
sI3
(lp647
ssI3
(dp648
I0
g640
sI1
g644
sI2
g647
sI3
(lp649
ssa(dp650
I0
(dp651
I0
(lp652
sI1
(lp653
Vhttp://www.w3.org/2000/01/rdf-schema#seeAlso
p654
aVhttp://dbpedia.org/ontology/country
p655
aVhttp://dbpedia.org/property/venue
p656
aVhttp://dbpedia.org/property/location
p657
aVhttp://dbpedia.org/property/worldPlace
p658
aVhttp://dbpedia.org/property/country
p659
aVhttp://dbpedia.org/ontology/language
p660
asI2
(lp661
Vhttp://dbpedia.org/property/origin
p662
aVhttp://dbpedia.org/property/placeOfDeath
p663
aVhttp://dbpedia.org/ontology/type
p664
aVhttp://dbpedia.org/property/sovereigntyType
p665
aVhttp://www.w3.org/ns/prov#wasDerivedFrom
p666
aVhttp://dbpedia.org/ontology/demonym
p667
aVhttp://dbpedia.org/property/nation
p668
aVhttp://dbpedia.org/ontology/nationality
p669
aVhttp://dbpedia.org/property/royalAnthem
p670
aVhttp://dbpedia.org/property/meetingPlace
p671
aVhttp://dbpedia.org/property/establishedEvent
p672
aVhttp://dbpedia.org/property/mapCaption
p673
aVhttp://dbpedia.org/ontology/residence
p674
aVhttp://dbpedia.org/ontology/abstract
p675
aVhttp://dbpedia.org/property/venue
p676
aVhttp://dbpedia.org/property/officialLanguages
p677
aVhttp://dbpedia.org/property/imageMap
p678
aVhttp://dbpedia.org/ontology/location
p679
aVhttp://dbpedia.org/property/residence
p680
aVhttp://dbpedia.org/property/area
p681
aVhttp://dbpedia.org/ontology/hometown
p682
aVhttp://dbpedia.org/property/bankOf
p683
aVhttp://dbpedia.org/ontology/spokenIn
p684
aVhttp://dbpedia.org/property/leaderTitle
p685
aVhttp://www.w3.org/2000/01/rdf-schema#seeAlso
p686
aVhttp://dbpedia.org/property/currency
p687
aVhttp://dbpedia.org/property/agencyName
p688
aVhttp://dbpedia.org/property/conventionalLongName
p689
aVhttp://dbpedia.org/ontology/foundationPlace
p690
aVhttp://dbpedia.org/property/legislature
p691
aVhttp://dbpedia.org/ontology/officialLanguage
p692
aVhttp://dbpedia.org/ontology/country
p693
aVhttp://dbpedia.org/property/region
p694
aVhttp://dbpedia.org/property/nationalAnthem
p695
aVhttp://dbpedia.org/property/birthPlace
p696
aVhttp://dbpedia.org/property/stateParty
p697
aVhttp://dbpedia.org/property/country
p698
aVhttp://dbpedia.org/ontology/regionServed
p699
aVhttp://dbpedia.org/property/areaServed
p700
aVhttp://dbpedia.org/property/areasAffected
p701
aVhttp://dbpedia.org/ontology/wikiPageExternalLink
p702
aVhttp://xmlns.com/foaf/0.1/primaryTopic
p703
aVhttp://dbpedia.org/property/location
p704
aVhttp://dbpedia.org/property/states
p705
aVhttp://dbpedia.org/ontology/locationCountry
p706
aVhttp://dbpedia.org/ontology/deathPlace
p707
aVhttp://dbpedia.org/property/hasPhotoCollection
p708
aVhttp://dbpedia.org/property/headquarters
p709
aVhttp://dbpedia.org/property/countryName
p710
aVhttp://dbpedia.org/ontology/anthem
p711
aVhttp://dbpedia.org/ontology/birthPlace
p712
aVhttp://dbpedia.org/ontology/wikiPageRedirects
p713
aVhttp://dbpedia.org/property/imageCoat
p714
aVhttp://xmlns.com/foaf/0.1/homepage
p715
aVhttp://dbpedia.org/property/host
p716
aVhttp://dbpedia.org/ontology/stateOfOrigin
p717
aVhttp://dbpedia.org/property/south
p718
aVhttp://dbpedia.org/ontology/origin
p719
aVhttp://dbpedia.org/ontology/currency
p720
aVhttp://dbpedia.org/property/winnerOrigin
p721
aVhttp://dbpedia.org/ontology/longName
p722
aVhttp://dbpedia.org/property/locationCountry
p723
aVhttp://dbpedia.org/ontology/ground
p724
aVhttp://dbpedia.org/ontology/ethnicGroup
p725
aVhttp://dbpedia.org/property/centre
p726
aVhttp://dbpedia.org/property/nativeName
p727
aVhttp://dbpedia.org/ontology/broadcastArea
p728
aVhttp://dbpedia.org/property/placeOfBirth
p729
aVhttp://xmlns.com/foaf/0.1/depiction
p730
aVhttp://xmlns.com/foaf/0.1/isPrimaryTopicOf
p731
aVhttp://dbpedia.org/property/fightingOutOf
p732
aVhttp://dbpedia.org/ontology/thumbnail
p733
aVhttp://dbpedia.org/ontology/city
p734
aVhttp://dbpedia.org/ontology/flag
p735
aVhttp://dbpedia.org/property/commonName
p736
aVhttp://dbpedia.org/property/subdivisionName
p737
aVhttp://dbpedia.org/property/languages
p738
aVhttp://dbpedia.org/property/popplace
p739
aVhttp://dbpedia.org/property/destination
p740
aVhttp://dbpedia.org/property/southeast
p741
aVhttp://dbpedia.org/property/founded
p742
aVhttp://dbpedia.org/property/stadium
p743
aVhttp://dbpedia.org/property/ground
p744
aVhttp://dbpedia.org/property/place
p745
aVhttp://dbpedia.org/property/territorialExtent
p746
aVhttp://dbpedia.org/property/caption
p747
aVhttp://dbpedia.org/property/site
p748
aVhttp://dbpedia.org/ontology/place
p749
aVhttp://dbpedia.org/property/nationality
p750
aVhttp://dbpedia.org/property/callingCode
p751
aVhttp://dbpedia.org/ontology/wikiPageDisambiguates
p752
aVhttp://dbpedia.org/ontology/sourceCountry
p753
aVhttp://purl.org/dc/terms/subject
p754
aVhttp://dbpedia.org/ontology/populationPlace
p755
aVhttp://dbpedia.org/property/deathPlace
p756
aVhttp://dbpedia.org/ontology/headquarter
p757
aVhttp://www.w3.org/2000/01/rdf-schema#label
p758
aVhttp://dbpedia.org/ontology/language
p759
aVhttp://dbpedia.org/property/title
p760
aVhttp://dbpedia.org/property/locale
p761
aVhttp://dbpedia.org/property/demonym
p762
aVhttp://www.w3.org/2000/01/rdf-schema#comment
p763
aVhttp://dbpedia.org/ontology/timeZone
p764
aVhttp://dbpedia.org/property/imageFlag
p765
aVhttp://www.w3.org/2002/07/owl#sameAs
p766
aVhttp://dbpedia.org/property/regionServed
p767
aVhttp://xmlns.com/foaf/0.1/name
p768
asI3
(lp769
ssI1
(dp770
I0
g653
sI1
(lp771
sI2
(lp772
sI3
(lp773
ssI2
(dp774
I0
g661
sI1
g772
sI2
(lp775
sI3
(lp776
ssI3
(dp777
I0
g769
sI1
g773
sI2
g776
sI3
(lp778
ssa(dp779
I0
(dp780
I0
(lp781
sI1
(lp782
Vhttp://dbpedia.org/ontology/country
p783
aVhttp://www.w3.org/2000/01/rdf-schema#comment
p784
aVhttp://dbpedia.org/property/2rpt2Loc
p785
aVhttp://dbpedia.org/ontology/abstract
p786
aVhttp://dbpedia.org/property/venue
p787
aVhttp://dbpedia.org/property/location
p788
aVhttp://dbpedia.org/property/withdraws
p789
aVhttp://dbpedia.org/property/rd2t4Loc
p790
asI2
(lp791
Vhttp://www.w3.org/2000/01/rdf-schema#seeAlso
p792
aVhttp://dbpedia.org/property/currency
p793
aVhttp://dbpedia.org/ontology/currency
p794
aVhttp://dbpedia.org/property/place
p795
aVhttp://dbpedia.org/property/cityOrRegion
p796
aVhttp://dbpedia.org/property/caption
p797
aVhttp://dbpedia.org/ontology/demonym
p798
aVhttp://dbpedia.org/ontology/officialLanguage
p799
aVhttp://dbpedia.org/ontology/regionServed
p800
aVhttp://dbpedia.org/ontology/country
p801
aVhttp://www.w3.org/1999/02/22-rdf-syntax-ns#type
p802
aVhttp://dbpedia.org/property/locationCountry
p803
aVhttp://dbpedia.org/property/officialLanguages
p804
aVhttp://dbpedia.org/property/image
p805
aVhttp://dbpedia.org/ontology/place
p806
aVhttp://dbpedia.org/ontology/ethnicGroup
p807
aVhttp://dbpedia.org/property/origins
p808
aVhttp://dbpedia.org/property/foundedPlace
p809
aVhttp://dbpedia.org/property/country
p810
aVhttp://dbpedia.org/property/shipCountry
p811
aVhttp://dbpedia.org/ontology/abstract
p812
aVhttp://dbpedia.org/property/establishedEvent
p813
aVhttp://dbpedia.org/ontology/wikiPageExternalLink
p814
aVhttp://purl.org/dc/terms/subject
p815
aVhttp://dbpedia.org/property/origin
p816
aVhttp://dbpedia.org/property/state
p817
aVhttp://dbpedia.org/ontology/spokenIn
p818
aVhttp://dbpedia.org/property/location
p819
aVhttp://dbpedia.org/property/states
p820
aVhttp://dbpedia.org/property/owner
p821
aVhttp://dbpedia.org/ontology/locationCountry
p822
aVhttp://dbpedia.org/ontology/headquarter
p823
aVhttp://dbpedia.org/ontology/language
p824
aVhttp://dbpedia.org/ontology/location
p825
aVhttp://dbpedia.org/property/headquarters
p826
aVhttp://www.w3.org/2000/01/rdf-schema#comment
p827
aVhttp://dbpedia.org/ontology/birthPlace
p828
aVhttp://dbpedia.org/property/area
p829
aVhttp://dbpedia.org/ontology/hometown
p830
aVhttp://dbpedia.org/property/demonym
p831
aVhttp://dbpedia.org/property/areaServed
p832
aVhttp://dbpedia.org/property/regionServed
p833
aVhttp://dbpedia.org/property/foundingLocation
p834
aVhttp://dbpedia.org/property/garrison
p835
aVhttp://dbpedia.org/property/remit
p836
asI3
(lp837
ssI1
(dp838
I0
g782
sI1
(lp839
sI2
(lp840
sI3
(lp841
ssI2
(dp842
I0
g791
sI1
g840
sI2
(lp843
sI3
(lp844
ssI3
(dp845
I0
g837
sI1
g841
sI2
g844
sI3
(lp846
ssa.