(lp1
(lp2
(lp3
a(lp4
a(lp5
((lp6
Vhttp://dbpedia.org/class/yago/Abstraction100002137
p7
aVhttp://dbpedia.org/class/yago/Chemical114806838
p8
aVhttp://dbpedia.org/class/yago/Compound114818238
p9
aVhttp://dbpedia.org/class/yago/Macromolecule114944888
p10
aVhttp://dbpedia.org/class/yago/Material114580897
p11
aVhttp://dbpedia.org/class/yago/Matter100020827
p12
aVhttp://dbpedia.org/class/yago/OrganicCompound114727670
p13
aVhttp://dbpedia.org/class/yago/Part113809207
p14
aVhttp://dbpedia.org/class/yago/Protein114728724
p15
aVhttp://dbpedia.org/class/yago/Relation100031921
p16
aVhttp://dbpedia.org/class/yago/Substance100019613
p17
aVhttp://dbpedia.org/class/yago/Thing100002452
p18
aVhttp://dbpedia.org/class/yago/Molecule114682133
p19
aVhttp://dbpedia.org/class/yago/PhysicalEntity100001930
p20
aVhttp://dbpedia.org/class/yago/Unit109465459
p21
aVhttp://dbpedia.org/class/yago/TransportProteins
p22
aVhttp://dbpedia.org/resource/Karyopherin
tp23
aa(lp24
((lp25
Vhttp://www.w3.org/2002/07/owl#Thing
p26
aVhttp://dbpedia.org/class/yago/Abstraction100002137
p27
aVhttp://dbpedia.org/class/yago/DefiniteQuantity113576101
p28
aVhttp://dbpedia.org/class/yago/UnitOfMeasurement113583724
p29
aVhttp://dbpedia.org/class/yago/Measure100033615
p30
aVhttp://dbpedia.org/class/yago/UnitsOfFlow
p31
aVhttp://dbpedia.org/class/yago/UnitsOfInformation
p32
aVhttp://dbpedia.org/resource/Data_rate_units
p33
tp34
aa(lp35
a(lp36
aa(lp37
(lp38
a(lp39
a(lp40
a(lp41
a(lp42
a(lp43
a(lp44
a(lp45
a(lp46
a(lp47
a(lp48
aa(lp49
(lp50
a(lp51
a(lp52
a(lp53
a(lp54
a(lp55
a(lp56
a(lp57
a(lp58
a(lp59
a(lp60
aa(lp61
(lp62
a(lp63
a(lp64
a(lp65
a(lp66
a(lp67
a(lp68
a(lp69
a(lp70
a(lp71
a(lp72
aa(lp73
(lp74
a(lp75
a(lp76
a(lp77
a(lp78
a(lp79
a(lp80
a(lp81
a(lp82
a(lp83
a(lp84
aa(lp85
(lp86
a(lp87
a(lp88
a(lp89
a(lp90
a(lp91
a(lp92
a(lp93
a(lp94
a(lp95
a(lp96
aa(lp97
(lp98
a(lp99
a(lp100
a(lp101
a(lp102
a(lp103
a(lp104
a(lp105
a(lp106
a(lp107
a(lp108
aa(lp109
(lp110
a(lp111
a(lp112
a(lp113
a(lp114
a(lp115
a(lp116
a(lp117
a(lp118
a(lp119
aa(lp120
(lp121
a(lp122
a(lp123
a(lp124
a(lp125
a(lp126
a(lp127
a(lp128
a(lp129
a(lp130
a(lp131
aa.