(lp1
(lp2
(lp3
a(lp4
((lVhttp://dbpedia.org/resource/Null
tp5
aa(lp6
a(lp7
aa(lp8
(lp9
a(lp10
((lVhttp://dbpedia.org/resource/Null
tp11
aa(lp12
a(lp13
aa(lp14
(lp15
a(lp16
((lVhttp://dbpedia.org/resource/Null
tp17
aa(lp18
a(lp19
aa(lp20
(lp21
a(lp22
((lVhttp://dbpedia.org/resource/Null
p23
tp24
aa(lp25
a(lp26
aa.