(lp1
(dp2
I0
(dp3
I0
(lp4
sI1
(lp5
ssI1
(dp6
I0
g5
sI1
(lp7
ssa(dp8
I0
(dp9
I0
(lp10
sI1
(lp11
ssI1
(dp12
I0
g11
sI1
(lp13
ssa(dp14
I0
(dp15
I0
(lp16
sI1
(lp17
ssI1
(dp18
I0
g17
sI1
(lp19
ssa(dp20
I0
(dp21
I0
(lp22
sI1
(lp23
ssI1
(dp24
I0
g23
sI1
(lp25
ssa(dp26
I0
(dp27
I0
(lp28
sI1
(lp29
ssI1
(dp30
I0
g29
sI1
(lp31
ssa(dp32
I0
(dp33
I0
(lp34
sI1
(lp35
ssI1
(dp36
I0
g35
sI1
(lp37
ssa(dp38
I0
(dp39
I0
(lp40
sI1
(lp41
ssI1
(dp42
I0
g41
sI1
(lp43
ssa(dp44
I0
(dp45
I0
(lp46
sI1
(lp47
ssI1
(dp48
I0
g47
sI1
(lp49
ssa(dp50
I0
(dp51
I0
(lp52
sI1
(lp53
ssI1
(dp54
I0
g53
sI1
(lp55
ssa(dp56
I0
(dp57
I0
(lp58
sI1
(lp59
ssI1
(dp60
I0
g59
sI1
(lp61
ssa(dp62
I0
(dp63
I0
(lp64
sI1
(lp65
ssI1
(dp66
I0
g65
sI1
(lp67
ssa(dp68
I0
(dp69
I0
(lp70
sI1
(lp71
Vhttp://purl.org/voc/vrank#hasRank
p72
assI1
(dp73
I0
g71
sI1
(lp74
ssa(dp75
I0
(dp76
I0
(lp77
sI1
(lp78
ssI1
(dp79
I0
g78
sI1
(lp80
ssa(dp81
I0
(dp82
I0
(lp83
sI1
(lp84
ssI1
(dp85
I0
g84
sI1
(lp86
ssa(dp87
I0
(dp88
I0
(lp89
sI1
(lp90
ssI1
(dp91
I0
g90
sI1
(lp92
ssa(dp93
I0
(dp94
I0
(lp95
sI1
(lp96
ssI1
(dp97
I0
g96
sI1
(lp98
ssa(dp99
I0
(dp100
I0
(lp101
sI1
(lp102
ssI1
(dp103
I0
g102
sI1
(lp104
ssa(dp105
I0
(dp106
I0
(lp107
sI1
(lp108
ssI1
(dp109
I0
g108
sI1
(lp110
ssa(dp111
I0
(dp112
I0
(lp113
sI1
(lp114
ssI1
(dp115
I0
g114
sI1
(lp116
ssa(dp117
I0
(dp118
I0
(lp119
sI1
(lp120
ssI1
(dp121
I0
g120
sI1
(lp122
ssa.