(lp1
(dp2
I0
(dp3
I0
(lp4
sI1
(lp5
sI2
(lp6
sI3
(lp7
sI4
(lp8
sI5
(lp9
ssI1
(dp10
I0
g5
sI1
(lp11
sI2
(lp12
sI3
(lp13
sI4
(lp14
sI5
(lp15
ssI2
(dp16
I0
g6
sI1
g12
sI2
(lp17
sI3
(lp18
sI4
(lp19
sI5
(lp20
ssI3
(dp21
I0
g7
sI1
g13
sI2
g18
sI3
(lp22
sI4
(lp23
sI5
(lp24
ssI4
(dp25
I0
g8
sI1
g14
sI2
g19
sI3
g23
sI4
(lp26
sI5
(lp27
ssI5
(dp28
I0
g9
sI1
g15
sI2
g20
sI3
g24
sI4
g27
sI5
(lp29
ssa(dp30
I0
(dp31
I0
(lp32
sI1
(lp33
sI2
(lp34
sI3
(lp35
sI4
(lp36
sI5
(lp37
ssI1
(dp38
I0
g33
sI1
(lp39
sI2
(lp40
sI3
(lp41
sI4
(lp42
sI5
(lp43
ssI2
(dp44
I0
g34
sI1
g40
sI2
(lp45
sI3
(lp46
sI4
(lp47
sI5
(lp48
ssI3
(dp49
I0
g35
sI1
g41
sI2
g46
sI3
(lp50
sI4
(lp51
sI5
(lp52
ssI4
(dp53
I0
g36
sI1
g42
sI2
g47
sI3
g51
sI4
(lp54
sI5
(lp55
ssI5
(dp56
I0
g37
sI1
g43
sI2
g48
sI3
g52
sI4
g55
sI5
(lp57
ssa(dp58
I0
(dp59
I0
(lp60
sI1
(lp61
sI2
(lp62
sI3
(lp63
sI4
(lp64
sI5
(lp65
ssI1
(dp66
I0
g61
sI1
(lp67
sI2
(lp68
sI3
(lp69
sI4
(lp70
sI5
(lp71
ssI2
(dp72
I0
g62
sI1
g68
sI2
(lp73
sI3
(lp74
sI4
(lp75
sI5
(lp76
ssI3
(dp77
I0
g63
sI1
g69
sI2
g74
sI3
(lp78
sI4
(lp79
sI5
(lp80
ssI4
(dp81
I0
g64
sI1
g70
sI2
g75
sI3
g79
sI4
(lp82
sI5
(lp83
ssI5
(dp84
I0
g65
sI1
g71
sI2
g76
sI3
g80
sI4
g83
sI5
(lp85
ssa(dp86
I0
(dp87
I0
(lp88
sI1
(lp89
sI2
(lp90
sI3
(lp91
sI4
(lp92
sI5
(lp93
ssI1
(dp94
I0
g89
sI1
(lp95
sI2
(lp96
Vhttp://dbpedia.org/property/pga
p97
aVhttp://www.w3.org/1999/02/22-rdf-syntax-ns#type
p98
aVhttp://www.w3.org/2000/01/rdf-schema#comment
p99
aVhttp://dbpedia.org/ontology/abstract
p100
aVhttp://xmlns.com/foaf/0.1/depiction
p101
aVhttp://purl.org/voc/vrank#hasRank
p102
aVhttp://dbpedia.org/ontology/thumbnail
p103
aVhttp://www.w3.org/ns/prov#wasDerivedFrom
p104
aVhttp://dbpedia.org/property/caption
p105
aVhttp://dbpedia.org/ontology/Person/height
p106
aVhttp://www.w3.org/2002/07/owl#sameAs
p107
asI3
(lp108
sI4
(lp109
sI5
(lp110
ssI2
(dp111
I0
g90
sI1
g96
sI2
(lp112
sI3
(lp113
sI4
(lp114
sI5
(lp115
ssI3
(dp116
I0
g91
sI1
g108
sI2
g113
sI3
(lp117
sI4
(lp118
sI5
(lp119
ssI4
(dp120
I0
g92
sI1
g109
sI2
g114
sI3
g118
sI4
(lp121
sI5
(lp122
ssI5
(dp123
I0
g93
sI1
g110
sI2
g115
sI3
g119
sI4
g122
sI5
(lp124
ssa(dp125
I0
(dp126
I0
(lp127
sI1
(lp128
sI2
(lp129
sI3
(lp130
sI4
(lp131
sI5
(lp132
ssI1
(dp133
I0
g128
sI1
(lp134
sI2
(lp135
sI3
(lp136
sI4
(lp137
sI5
(lp138
ssI2
(dp139
I0
g129
sI1
g135
sI2
(lp140
sI3
(lp141
sI4
(lp142
sI5
(lp143
ssI3
(dp144
I0
g130
sI1
g136
sI2
g141
sI3
(lp145
sI4
(lp146
sI5
(lp147
ssI4
(dp148
I0
g131
sI1
g137
sI2
g142
sI3
g146
sI4
(lp149
sI5
(lp150
ssI5
(dp151
I0
g132
sI1
g138
sI2
g143
sI3
g147
sI4
g150
sI5
(lp152
ssa(dp153
I0
(dp154
I0
(lp155
sI1
(lp156
sI2
(lp157
sI3
(lp158
sI4
(lp159
sI5
(lp160
ssI1
(dp161
I0
g156
sI1
(lp162
sI2
(lp163
sI3
(lp164
sI4
(lp165
sI5
(lp166
ssI2
(dp167
I0
g157
sI1
g163
sI2
(lp168
sI3
(lp169
sI4
(lp170
sI5
(lp171
ssI3
(dp172
I0
g158
sI1
g164
sI2
g169
sI3
(lp173
sI4
(lp174
sI5
(lp175
ssI4
(dp176
I0
g159
sI1
g165
sI2
g170
sI3
g174
sI4
(lp177
sI5
(lp178
ssI5
(dp179
I0
g160
sI1
g166
sI2
g171
sI3
g175
sI4
g178
sI5
(lp180
ssa(dp181
I0
(dp182
I0
(lp183
sI1
(lp184
sI2
(lp185
sI3
(lp186
sI4
(lp187
sI5
(lp188
ssI1
(dp189
I0
g184
sI1
(lp190
sI2
(lp191
sI3
(lp192
sI4
(lp193
sI5
(lp194
ssI2
(dp195
I0
g185
sI1
g191
sI2
(lp196
sI3
(lp197
sI4
(lp198
sI5
(lp199
ssI3
(dp200
I0
g186
sI1
g192
sI2
g197
sI3
(lp201
sI4
(lp202
sI5
(lp203
ssI4
(dp204
I0
g187
sI1
g193
sI2
g198
sI3
g202
sI4
(lp205
sI5
(lp206
ssI5
(dp207
I0
g188
sI1
g194
sI2
g199
sI3
g203
sI4
g206
sI5
(lp208
ssa(dp209
I0
(dp210
I0
(lp211
sI1
(lp212
sI2
(lp213
sI3
(lp214
sI4
(lp215
sI5
(lp216
ssI1
(dp217
I0
g212
sI1
(lp218
sI2
(lp219
sI3
(lp220
sI4
(lp221
sI5
(lp222
ssI2
(dp223
I0
g213
sI1
g219
sI2
(lp224
sI3
(lp225
sI4
(lp226
sI5
(lp227
ssI3
(dp228
I0
g214
sI1
g220
sI2
g225
sI3
(lp229
sI4
(lp230
sI5
(lp231
ssI4
(dp232
I0
g215
sI1
g221
sI2
g226
sI3
g230
sI4
(lp233
sI5
(lp234
ssI5
(dp235
I0
g216
sI1
g222
sI2
g227
sI3
g231
sI4
g234
sI5
(lp236
ssa(dp237
I0
(dp238
I0
(lp239
sI1
(lp240
sI2
(lp241
sI3
(lp242
sI4
(lp243
sI5
(lp244
ssI1
(dp245
I0
g240
sI1
(lp246
sI2
(lp247
sI3
(lp248
sI4
(lp249
sI5
(lp250
ssI2
(dp251
I0
g241
sI1
g247
sI2
(lp252
sI3
(lp253
sI4
(lp254
sI5
(lp255
ssI3
(dp256
I0
g242
sI1
g248
sI2
g253
sI3
(lp257
sI4
(lp258
sI5
(lp259
ssI4
(dp260
I0
g243
sI1
g249
sI2
g254
sI3
g258
sI4
(lp261
sI5
(lp262
ssI5
(dp263
I0
g244
sI1
g250
sI2
g255
sI3
g259
sI4
g262
sI5
(lp264
ssa(dp265
I0
(dp266
I0
(lp267
sI1
(lp268
sI2
(lp269
sI3
(lp270
sI4
(lp271
sI5
(lp272
ssI1
(dp273
I0
g268
sI1
(lp274
sI2
(lp275
sI3
(lp276
sI4
(lp277
sI5
(lp278
ssI2
(dp279
I0
g269
sI1
g275
sI2
(lp280
sI3
(lp281
sI4
(lp282
sI5
(lp283
ssI3
(dp284
I0
g270
sI1
g276
sI2
g281
sI3
(lp285
sI4
(lp286
sI5
(lp287
ssI4
(dp288
I0
g271
sI1
g277
sI2
g282
sI3
g286
sI4
(lp289
sI5
(lp290
ssI5
(dp291
I0
g272
sI1
g278
sI2
g283
sI3
g287
sI4
g290
sI5
(lp292
ssa(dp293
I0
(dp294
I0
(lp295
sI1
(lp296
sI2
(lp297
sI3
(lp298
sI4
(lp299
sI5
(lp300
ssI1
(dp301
I0
g296
sI1
(lp302
sI2
(lp303
sI3
(lp304
sI4
(lp305
sI5
(lp306
ssI2
(dp307
I0
g297
sI1
g303
sI2
(lp308
sI3
(lp309
sI4
(lp310
sI5
(lp311
ssI3
(dp312
I0
g298
sI1
g304
sI2
g309
sI3
(lp313
sI4
(lp314
sI5
(lp315
ssI4
(dp316
I0
g299
sI1
g305
sI2
g310
sI3
g314
sI4
(lp317
sI5
(lp318
ssI5
(dp319
I0
g300
sI1
g306
sI2
g311
sI3
g315
sI4
g318
sI5
(lp320
ssa(dp321
I0
(dp322
I0
(lp323
sI1
(lp324
sI2
(lp325
sI3
(lp326
sI4
(lp327
sI5
(lp328
ssI1
(dp329
I0
g324
sI1
(lp330
sI2
(lp331
sI3
(lp332
sI4
(lp333
sI5
(lp334
ssI2
(dp335
I0
g325
sI1
g331
sI2
(lp336
sI3
(lp337
sI4
(lp338
sI5
(lp339
ssI3
(dp340
I0
g326
sI1
g332
sI2
g337
sI3
(lp341
sI4
(lp342
sI5
(lp343
ssI4
(dp344
I0
g327
sI1
g333
sI2
g338
sI3
g342
sI4
(lp345
sI5
(lp346
ssI5
(dp347
I0
g328
sI1
g334
sI2
g339
sI3
g343
sI4
g346
sI5
(lp348
ssa(dp349
I0
(dp350
I0
(lp351
sI1
(lp352
sI2
(lp353
sI3
(lp354
sI4
(lp355
sI5
(lp356
ssI1
(dp357
I0
g352
sI1
(lp358
sI2
(lp359
sI3
(lp360
sI4
(lp361
sI5
(lp362
ssI2
(dp363
I0
g353
sI1
g359
sI2
(lp364
sI3
(lp365
sI4
(lp366
sI5
(lp367
ssI3
(dp368
I0
g354
sI1
g360
sI2
g365
sI3
(lp369
sI4
(lp370
sI5
(lp371
ssI4
(dp372
I0
g355
sI1
g361
sI2
g366
sI3
g370
sI4
(lp373
sI5
(lp374
ssI5
(dp375
I0
g356
sI1
g362
sI2
g367
sI3
g371
sI4
g374
sI5
(lp376
ssa(dp377
I0
(dp378
I0
(lp379
sI1
(lp380
sI2
(lp381
sI3
(lp382
sI4
(lp383
sI5
(lp384
ssI1
(dp385
I0
g380
sI1
(lp386
sI2
(lp387
sI3
(lp388
sI4
(lp389
sI5
(lp390
ssI2
(dp391
I0
g381
sI1
g387
sI2
(lp392
sI3
(lp393
sI4
(lp394
sI5
(lp395
ssI3
(dp396
I0
g382
sI1
g388
sI2
g393
sI3
(lp397
sI4
(lp398
sI5
(lp399
ssI4
(dp400
I0
g383
sI1
g389
sI2
g394
sI3
g398
sI4
(lp401
sI5
(lp402
ssI5
(dp403
I0
g384
sI1
g390
sI2
g395
sI3
g399
sI4
g402
sI5
(lp404
ssa(dp405
I0
(dp406
I0
(lp407
sI1
(lp408
sI2
(lp409
sI3
(lp410
sI4
(lp411
sI5
(lp412
ssI1
(dp413
I0
g408
sI1
(lp414
sI2
(lp415
sI3
(lp416
sI4
(lp417
sI5
(lp418
ssI2
(dp419
I0
g409
sI1
g415
sI2
(lp420
sI3
(lp421
sI4
(lp422
sI5
(lp423
ssI3
(dp424
I0
g410
sI1
g416
sI2
g421
sI3
(lp425
sI4
(lp426
sI5
(lp427
ssI4
(dp428
I0
g411
sI1
g417
sI2
g422
sI3
g426
sI4
(lp429
sI5
(lp430
ssI5
(dp431
I0
g412
sI1
g418
sI2
g423
sI3
g427
sI4
g430
sI5
(lp432
ssa(dp433
I0
(dp434
I0
(lp435
sI1
(lp436
sI2
(lp437
sI3
(lp438
sI4
(lp439
sI5
(lp440
ssI1
(dp441
I0
g436
sI1
(lp442
sI2
(lp443
sI3
(lp444
sI4
(lp445
sI5
(lp446
ssI2
(dp447
I0
g437
sI1
g443
sI2
(lp448
sI3
(lp449
sI4
(lp450
sI5
(lp451
ssI3
(dp452
I0
g438
sI1
g444
sI2
g449
sI3
(lp453
sI4
(lp454
sI5
(lp455
ssI4
(dp456
I0
g439
sI1
g445
sI2
g450
sI3
g454
sI4
(lp457
sI5
(lp458
ssI5
(dp459
I0
g440
sI1
g446
sI2
g451
sI3
g455
sI4
g458
sI5
(lp460
ssa(dp461
I0
(dp462
I0
(lp463
sI1
(lp464
sI2
(lp465
sI3
(lp466
sI4
(lp467
sI5
(lp468
ssI1
(dp469
I0
g464
sI1
(lp470
sI2
(lp471
sI3
(lp472
sI4
(lp473
sI5
(lp474
ssI2
(dp475
I0
g465
sI1
g471
sI2
(lp476
sI3
(lp477
sI4
(lp478
sI5
(lp479
ssI3
(dp480
I0
g466
sI1
g472
sI2
g477
sI3
(lp481
sI4
(lp482
sI5
(lp483
ssI4
(dp484
I0
g467
sI1
g473
sI2
g478
sI3
g482
sI4
(lp485
sI5
(lp486
ssI5
(dp487
I0
g468
sI1
g474
sI2
g479
sI3
g483
sI4
g486
sI5
(lp488
ssa(dp489
I0
(dp490
I0
(lp491
sI1
(lp492
sI2
(lp493
sI3
(lp494
sI4
(lp495
sI5
(lp496
ssI1
(dp497
I0
g492
sI1
(lp498
sI2
(lp499
sI3
(lp500
sI4
(lp501
sI5
(lp502
ssI2
(dp503
I0
g493
sI1
g499
sI2
(lp504
sI3
(lp505
sI4
(lp506
sI5
(lp507
ssI3
(dp508
I0
g494
sI1
g500
sI2
g505
sI3
(lp509
sI4
(lp510
sI5
(lp511
ssI4
(dp512
I0
g495
sI1
g501
sI2
g506
sI3
g510
sI4
(lp513
sI5
(lp514
ssI5
(dp515
I0
g496
sI1
g502
sI2
g507
sI3
g511
sI4
g514
sI5
(lp516
ssa(dp517
I0
(dp518
I0
(lp519
sI1
(lp520
sI2
(lp521
sI3
(lp522
sI4
(lp523
sI5
(lp524
ssI1
(dp525
I0
g520
sI1
(lp526
sI2
(lp527
sI3
(lp528
sI4
(lp529
sI5
(lp530
ssI2
(dp531
I0
g521
sI1
g527
sI2
(lp532
sI3
(lp533
sI4
(lp534
sI5
(lp535
ssI3
(dp536
I0
g522
sI1
g528
sI2
g533
sI3
(lp537
sI4
(lp538
sI5
(lp539
ssI4
(dp540
I0
g523
sI1
g529
sI2
g534
sI3
g538
sI4
(lp541
sI5
(lp542
ssI5
(dp543
I0
g524
sI1
g530
sI2
g535
sI3
g539
sI4
g542
sI5
(lp544
ssa(dp545
I0
(dp546
I0
(lp547
sI1
(lp548
sI2
(lp549
sI3
(lp550
sI4
(lp551
sI5
(lp552
ssI1
(dp553
I0
g548
sI1
(lp554
sI2
(lp555
sI3
(lp556
sI4
(lp557
sI5
(lp558
ssI2
(dp559
I0
g549
sI1
g555
sI2
(lp560
sI3
(lp561
sI4
(lp562
sI5
(lp563
ssI3
(dp564
I0
g550
sI1
g556
sI2
g561
sI3
(lp565
sI4
(lp566
sI5
(lp567
ssI4
(dp568
I0
g551
sI1
g557
sI2
g562
sI3
g566
sI4
(lp569
sI5
(lp570
ssI5
(dp571
I0
g552
sI1
g558
sI2
g563
sI3
g567
sI4
g570
sI5
(lp572
ssa.