(lp1
(lp2
(lp3
((lp4
Vhttp://www.w3.org/2002/07/owl#Thing
p5
aVhttp://dbpedia.org/ontology/Place
p6
aVhttp://dbpedia.org/ontology/Location
p7
aVhttp://www.wikidata.org/entity/Q8072
p8
aVhttp://dbpedia.org/ontology/NaturalPlace
p9
aVhttp://dbpedia.org/ontology/Volcano
p10
aVhttp://www.w3.org/2003/01/geo/wgs84_pos#SpatialThing
p11
aVhttp://schema.org/Place
p12
aVhttp://dbpedia.org/resource/Guishan_Island_(Yilan)
tp13
aa(lp14
aa(lp15
(lp16
((lp17
Vhttp://dbpedia.org/class/yago/Abstraction100002137
p18
aVhttp://dbpedia.org/class/yago/ActiveVolcanoes
p19
aVhttp://dbpedia.org/class/yago/AmorphousShape113867492
p20
aVhttp://dbpedia.org/class/yago/Attribute100024264
p21
aVhttp://dbpedia.org/class/yago/BodyOfWater109225146
p22
aVhttp://dbpedia.org/class/yago/GeologicalFormation109287968
p23
aVhttp://dbpedia.org/class/yago/Lake109328904
p24
aVhttp://dbpedia.org/class/yago/Location100027167
p25
aVhttp://dbpedia.org/class/yago/Mountain109359803
p26
aVhttp://dbpedia.org/class/yago/Object100002684
p27
aVhttp://dbpedia.org/class/yago/Opening109379111
p28
aVhttp://dbpedia.org/class/yago/Shape100027807
p29
aVhttp://dbpedia.org/class/yago/Space113910384
p30
aVhttp://dbpedia.org/class/yago/Thing100002452
p31
aVhttp://dbpedia.org/class/yago/Vent109470550
p32
aVhttp://dbpedia.org/class/yago/YagoGeoEntity
p33
aVhttp://dbpedia.org/class/yago/YagoLegalActorGeo
p34
aVhttp://dbpedia.org/class/yago/SubductionVolcanoes
p35
aVhttp://www.w3.org/2002/07/owl#Thing
p36
aVhttp://dbpedia.org/ontology/Place
p37
aVhttp://dbpedia.org/ontology/Location
p38
aVhttp://www.wikidata.org/entity/Q8072
p39
aVhttp://dbpedia.org/ontology/NaturalPlace
p40
aVhttp://dbpedia.org/ontology/Volcano
p41
aVhttp://www.w3.org/2003/01/geo/wgs84_pos#SpatialThing
p42
aVhttp://schema.org/Place
p43
aVhttp://umbel.org/umbel/rc/Mountain
p44
aVhttp://dbpedia.org/class/yago/Crack109258715
p45
aVhttp://dbpedia.org/class/yago/CraterLakes
p46
aVhttp://dbpedia.org/class/yago/YagoPermanentlyLocatedEntity
p47
aVhttp://dbpedia.org/class/yago/MountainsOfIndonesia
p48
aVhttp://dbpedia.org/class/yago/NaturalElevation109366317
p49
aVhttp://dbpedia.org/class/yago/PhysicalEntity100001930
p50
aVhttp://dbpedia.org/class/yago/VolcanoesOfSumatra
p51
aVhttp://dbpedia.org/resource/Mount_Talang
tp52
aa(lp53
aa(lp54
(lp55
((lp56
Vhttp://dbpedia.org/class/yago/Abstraction100002137
p57
aVhttp://dbpedia.org/class/yago/ActiveVolcanoes
p58
aVhttp://dbpedia.org/class/yago/AmorphousShape113867492
p59
aVhttp://dbpedia.org/class/yago/Attribute100024264
p60
aVhttp://dbpedia.org/class/yago/GeologicalFormation109287968
p61
aVhttp://dbpedia.org/class/yago/Location100027167
p62
aVhttp://dbpedia.org/class/yago/Mountain109359803
p63
aVhttp://dbpedia.org/class/yago/Object100002684
p64
aVhttp://dbpedia.org/class/yago/Opening109379111
p65
aVhttp://dbpedia.org/class/yago/Shape100027807
p66
aVhttp://dbpedia.org/class/yago/Space113910384
p67
aVhttp://dbpedia.org/class/yago/Vent109470550
p68
aVhttp://dbpedia.org/class/yago/YagoGeoEntity
p69
aVhttp://dbpedia.org/class/yago/YagoLegalActorGeo
p70
aVhttp://www.w3.org/2002/07/owl#Thing
p71
aVhttp://dbpedia.org/ontology/Place
p72
aVhttp://dbpedia.org/ontology/Location
p73
aVhttp://www.wikidata.org/entity/Q8072
p74
aVhttp://dbpedia.org/ontology/NaturalPlace
p75
aVhttp://dbpedia.org/ontology/Volcano
p76
aVhttp://www.w3.org/2003/01/geo/wgs84_pos#SpatialThing
p77
aVhttp://schema.org/Place
p78
aVhttp://umbel.org/umbel/rc/Mountain
p79
aVhttp://dbpedia.org/class/yago/ComplexVolcanoes
p80
aVhttp://dbpedia.org/class/yago/Crack109258715
p81
aVhttp://dbpedia.org/class/yago/YagoPermanentlyLocatedEntity
p82
aVhttp://dbpedia.org/class/yago/NaturalElevation109366317
p83
aVhttp://dbpedia.org/class/yago/PhysicalEntity100001930
p84
aVhttp://dbpedia.org/class/yago/VolcanoesOfHalmahera
p85
aVhttp://dbpedia.org/resource/Jailolo
tp86
aa(lp87
aa(lp88
(lp89
((lp90
Vhttp://dbpedia.org/class/yago/Abstraction100002137
p91
aVhttp://dbpedia.org/class/yago/AmorphousShape113867492
p92
aVhttp://dbpedia.org/class/yago/Attribute100024264
p93
aVhttp://dbpedia.org/class/yago/GeologicalFormation109287968
p94
aVhttp://dbpedia.org/class/yago/Island109316454
p95
aVhttp://dbpedia.org/class/yago/Land109334396
p96
aVhttp://dbpedia.org/class/yago/Location100027167
p97
aVhttp://dbpedia.org/class/yago/Mountain109359803
p98
aVhttp://dbpedia.org/class/yago/Object100002684
p99
aVhttp://dbpedia.org/class/yago/Opening109379111
p100
aVhttp://dbpedia.org/class/yago/Shape100027807
p101
aVhttp://dbpedia.org/class/yago/Space113910384
p102
aVhttp://dbpedia.org/class/yago/Vent109470550
p103
aVhttp://dbpedia.org/class/yago/YagoGeoEntity
p104
aVhttp://dbpedia.org/class/yago/YagoLegalActorGeo
p105
aVhttp://www.w3.org/2002/07/owl#Thing
p106
aVhttp://dbpedia.org/ontology/Place
p107
aVhttp://dbpedia.org/ontology/Location
p108
aVhttp://www.wikidata.org/entity/Q8072
p109
aVhttp://dbpedia.org/ontology/NaturalPlace
p110
aVhttp://dbpedia.org/ontology/Volcano
p111
aVhttp://www.w3.org/2003/01/geo/wgs84_pos#SpatialThing
p112
aVhttp://schema.org/Place
p113
aVhttp://umbel.org/umbel/rc/Mountain
p114
aVhttp://dbpedia.org/class/yago/Crack109258715
p115
aVhttp://dbpedia.org/class/yago/YagoPermanentlyLocatedEntity
p116
aVhttp://dbpedia.org/class/yago/IslandsOfPapuaNewGuinea
p117
aVhttp://dbpedia.org/class/yago/NaturalElevation109366317
p118
aVhttp://dbpedia.org/class/yago/PhysicalEntity100001930
p119
aVhttp://dbpedia.org/class/yago/VolcanoesOfPapuaNewGuinea
p120
aVhttp://dbpedia.org/resource/Kadovar
tp121
aa(lp122
aa(lp123
(lp124
a(lp125
aa(lp126
(lp127
((lp128
Vhttp://dbpedia.org/class/yago/GeologicalFormation109287968
p129
aVhttp://dbpedia.org/class/yago/Mountain109359803
p130
aVhttp://dbpedia.org/class/yago/Object100002684
p131
aVhttp://dbpedia.org/class/yago/YagoGeoEntity
p132
aVhttp://www.w3.org/2002/07/owl#Thing
p133
aVhttp://dbpedia.org/ontology/Place
p134
aVhttp://dbpedia.org/ontology/Location
p135
aVhttp://www.wikidata.org/entity/Q8072
p136
aVhttp://dbpedia.org/ontology/NaturalPlace
p137
aVhttp://dbpedia.org/ontology/Volcano
p138
aVhttp://www.w3.org/2003/01/geo/wgs84_pos#SpatialThing
p139
aVhttp://schema.org/Place
p140
aVhttp://umbel.org/umbel/rc/Mountain
p141
aVhttp://dbpedia.org/class/yago/YagoPermanentlyLocatedEntity
p142
aVhttp://dbpedia.org/class/yago/MountainsOfIndonesia
p143
aVhttp://dbpedia.org/class/yago/NaturalElevation109366317
p144
aVhttp://dbpedia.org/class/yago/PhysicalEntity100001930
p145
aVhttp://dbpedia.org/resource/Kamojang
tp146
aa(lp147
aa(lp148
(lp149
((lp150
Vhttp://dbpedia.org/class/yago/Abstraction100002137
p151
aVhttp://dbpedia.org/class/yago/AmorphousShape113867492
p152
aVhttp://dbpedia.org/class/yago/Attribute100024264
p153
aVhttp://dbpedia.org/class/yago/Caldera109231117
p154
aVhttp://dbpedia.org/class/yago/GeologicalFormation109287968
p155
aVhttp://dbpedia.org/class/yago/Island109316454
p156
aVhttp://dbpedia.org/class/yago/Land109334396
p157
aVhttp://dbpedia.org/class/yago/Location100027167
p158
aVhttp://dbpedia.org/class/yago/Mountain109359803
p159
aVhttp://dbpedia.org/class/yago/Object100002684
p160
aVhttp://dbpedia.org/class/yago/Opening109379111
p161
aVhttp://dbpedia.org/class/yago/Shape100027807
p162
aVhttp://dbpedia.org/class/yago/Space113910384
p163
aVhttp://dbpedia.org/class/yago/Vent109470550
p164
aVhttp://dbpedia.org/class/yago/VolcanicCrater109472413
p165
aVhttp://dbpedia.org/class/yago/YagoGeoEntity
p166
aVhttp://dbpedia.org/class/yago/YagoLegalActorGeo
p167
aVhttp://www.w3.org/2002/07/owl#Thing
p168
aVhttp://dbpedia.org/ontology/Place
p169
aVhttp://dbpedia.org/ontology/Location
p170
aVhttp://www.wikidata.org/entity/Q8072
p171
aVhttp://dbpedia.org/ontology/NaturalPlace
p172
aVhttp://dbpedia.org/ontology/Volcano
p173
aVhttp://www.w3.org/2003/01/geo/wgs84_pos#SpatialThing
p174
aVhttp://schema.org/Place
p175
aVhttp://umbel.org/umbel/rc/Mountain
p176
aVhttp://dbpedia.org/class/yago/Crack109258715
p177
aVhttp://dbpedia.org/class/yago/YagoPermanentlyLocatedEntity
p178
aVhttp://dbpedia.org/class/yago/IslandsOfPapuaNewGuinea
p179
aVhttp://dbpedia.org/class/yago/NaturalElevation109366317
p180
aVhttp://dbpedia.org/class/yago/PhysicalEntity100001930
p181
aVhttp://dbpedia.org/class/yago/VolcanicCalderas
p182
aVhttp://dbpedia.org/class/yago/VolcanoesOfPapuaNewGuinea
p183
aVhttp://dbpedia.org/resource/Karkar_Island
tp184
aa(lp185
aa(lp186
(lp187
((lp188
Vhttp://dbpedia.org/class/yago/Abstraction100002137
p189
aVhttp://dbpedia.org/class/yago/ActiveVolcanoes
p190
aVhttp://dbpedia.org/class/yago/AmorphousShape113867492
p191
aVhttp://dbpedia.org/class/yago/Attribute100024264
p192
aVhttp://dbpedia.org/class/yago/GeologicalFormation109287968
p193
aVhttp://dbpedia.org/class/yago/Location100027167
p194
aVhttp://dbpedia.org/class/yago/Mountain109359803
p195
aVhttp://dbpedia.org/class/yago/Object100002684
p196
aVhttp://dbpedia.org/class/yago/Opening109379111
p197
aVhttp://dbpedia.org/class/yago/Shape100027807
p198
aVhttp://dbpedia.org/class/yago/Space113910384
p199
aVhttp://dbpedia.org/class/yago/Vent109470550
p200
aVhttp://dbpedia.org/class/yago/YagoGeoEntity
p201
aVhttp://dbpedia.org/class/yago/YagoLegalActorGeo
p202
aVhttp://www.w3.org/2002/07/owl#Thing
p203
aVhttp://dbpedia.org/ontology/Place
p204
aVhttp://dbpedia.org/ontology/Location
p205
aVhttp://www.wikidata.org/entity/Q8072
p206
aVhttp://dbpedia.org/ontology/NaturalPlace
p207
aVhttp://dbpedia.org/ontology/Volcano
p208
aVhttp://www.w3.org/2003/01/geo/wgs84_pos#SpatialThing
p209
aVhttp://schema.org/Place
p210
aVhttp://umbel.org/umbel/rc/Mountain
p211
aVhttp://dbpedia.org/class/yago/Crack109258715
p212
aVhttp://dbpedia.org/class/yago/YagoPermanentlyLocatedEntity
p213
aVhttp://dbpedia.org/class/yago/MountainsOfRussia
p214
aVhttp://dbpedia.org/class/yago/NaturalElevation109366317
p215
aVhttp://dbpedia.org/class/yago/PhysicalEntity100001930
p216
aVhttp://dbpedia.org/class/yago/VEI-6Volcanoes
p217
aVhttp://dbpedia.org/class/yago/VolcanoesOfKamchatka
p218
aVhttp://dbpedia.org/resource/Karymsky_(volcano)
tp219
aa(lp220
aa(lp221
(lp222
((lp223
Vhttp://dbpedia.org/class/yago/Abstraction100002137
p224
aVhttp://dbpedia.org/class/yago/ActiveVolcanoesOfIndonesia
p225
aVhttp://dbpedia.org/class/yago/AmorphousShape113867492
p226
aVhttp://dbpedia.org/class/yago/Attribute100024264
p227
aVhttp://dbpedia.org/class/yago/BodyOfWater109225146
p228
aVhttp://dbpedia.org/class/yago/GeologicalFormation109287968
p229
aVhttp://dbpedia.org/class/yago/Lake109328904
p230
aVhttp://dbpedia.org/class/yago/Location100027167
p231
aVhttp://dbpedia.org/class/yago/Mountain109359803
p232
aVhttp://dbpedia.org/class/yago/Object100002684
p233
aVhttp://dbpedia.org/class/yago/Opening109379111
p234
aVhttp://dbpedia.org/class/yago/Shape100027807
p235
aVhttp://dbpedia.org/class/yago/Space113910384
p236
aVhttp://dbpedia.org/class/yago/Thing100002452
p237
aVhttp://dbpedia.org/class/yago/Vent109470550
p238
aVhttp://dbpedia.org/class/yago/YagoGeoEntity
p239
aVhttp://dbpedia.org/class/yago/YagoLegalActorGeo
p240
aVhttp://www.w3.org/2002/07/owl#Thing
p241
aVhttp://dbpedia.org/ontology/Place
p242
aVhttp://dbpedia.org/ontology/Location
p243
aVhttp://www.wikidata.org/entity/Q8072
p244
aVhttp://dbpedia.org/ontology/NaturalPlace
p245
aVhttp://dbpedia.org/ontology/Volcano
p246
aVhttp://www.w3.org/2003/01/geo/wgs84_pos#SpatialThing
p247
aVhttp://schema.org/Place
p248
aVhttp://umbel.org/umbel/rc/Mountain
p249
aVhttp://dbpedia.org/class/yago/Crack109258715
p250
aVhttp://dbpedia.org/class/yago/CraterLakes
p251
aVhttp://dbpedia.org/class/yago/YagoPermanentlyLocatedEntity
p252
aVhttp://dbpedia.org/class/yago/MountainsOfIndonesia
p253
aVhttp://dbpedia.org/class/yago/NaturalElevation109366317
p254
aVhttp://dbpedia.org/class/yago/PhysicalEntity100001930
p255
aVhttp://dbpedia.org/class/yago/VolcanoesOfJava
p256
aVhttp://dbpedia.org/resource/Kelud
tp257
aa(lp258
aa(lp259
(lp260
((lp261
Vhttp://dbpedia.org/class/yago/Abstraction100002137
p262
aVhttp://dbpedia.org/class/yago/AmorphousShape113867492
p263
aVhttp://dbpedia.org/class/yago/Attribute100024264
p264
aVhttp://dbpedia.org/class/yago/BodyOfWater109225146
p265
aVhttp://dbpedia.org/class/yago/Caldera109231117
p266
aVhttp://dbpedia.org/class/yago/GeologicalFormation109287968
p267
aVhttp://dbpedia.org/class/yago/Lake109328904
p268
aVhttp://dbpedia.org/class/yago/Location100027167
p269
aVhttp://dbpedia.org/class/yago/Mountain109359803
p270
aVhttp://dbpedia.org/class/yago/Object100002684
p271
aVhttp://dbpedia.org/class/yago/Opening109379111
p272
aVhttp://dbpedia.org/class/yago/Shape100027807
p273
aVhttp://dbpedia.org/class/yago/Space113910384
p274
aVhttp://dbpedia.org/class/yago/Thing100002452
p275
aVhttp://dbpedia.org/class/yago/Vent109470550
p276
aVhttp://dbpedia.org/class/yago/VolcanicCrater109472413
p277
aVhttp://dbpedia.org/class/yago/YagoGeoEntity
p278
aVhttp://dbpedia.org/class/yago/YagoLegalActorGeo
p279
aVhttp://www.w3.org/2002/07/owl#Thing
p280
aVhttp://dbpedia.org/ontology/Place
p281
aVhttp://dbpedia.org/ontology/Location
p282
aVhttp://www.wikidata.org/entity/Q8072
p283
aVhttp://dbpedia.org/ontology/NaturalPlace
p284
aVhttp://dbpedia.org/ontology/Volcano
p285
aVhttp://www.w3.org/2003/01/geo/wgs84_pos#SpatialThing
p286
aVhttp://schema.org/Place
p287
aVhttp://umbel.org/umbel/rc/Mountain
p288
aVhttp://dbpedia.org/class/yago/Crack109258715
p289
aVhttp://dbpedia.org/class/yago/CraterLakes
p290
aVhttp://dbpedia.org/class/yago/YagoPermanentlyLocatedEntity
p291
aVhttp://dbpedia.org/class/yago/MountainsOfRussia
p292
aVhttp://dbpedia.org/class/yago/NaturalElevation109366317
p293
aVhttp://dbpedia.org/class/yago/PhysicalEntity100001930
p294
aVhttp://dbpedia.org/class/yago/VEI-6Volcanoes
p295
aVhttp://dbpedia.org/class/yago/VolcanicCalderasOfRussia
p296
aVhttp://dbpedia.org/class/yago/VolcanoesOfKamchatka
p297
aVhttp://dbpedia.org/resource/Khangar
tp298
aa(lp299
aa(lp300
(lp301
((lp302
Vhttp://dbpedia.org/class/yago/Abstraction100002137
p303
aVhttp://dbpedia.org/class/yago/AmorphousShape113867492
p304
aVhttp://dbpedia.org/class/yago/Attribute100024264
p305
aVhttp://dbpedia.org/class/yago/GeologicalFormation109287968
p306
aVhttp://dbpedia.org/class/yago/Location100027167
p307
aVhttp://dbpedia.org/class/yago/Mountain109359803
p308
aVhttp://dbpedia.org/class/yago/Object100002684
p309
aVhttp://dbpedia.org/class/yago/Opening109379111
p310
aVhttp://dbpedia.org/class/yago/Shape100027807
p311
aVhttp://dbpedia.org/class/yago/Space113910384
p312
aVhttp://dbpedia.org/class/yago/Vent109470550
p313
aVhttp://dbpedia.org/class/yago/YagoGeoEntity
p314
aVhttp://dbpedia.org/class/yago/YagoLegalActorGeo
p315
aVhttp://www.w3.org/2002/07/owl#Thing
p316
aVhttp://dbpedia.org/ontology/Place
p317
aVhttp://dbpedia.org/ontology/Location
p318
aVhttp://www.wikidata.org/entity/Q8072
p319
aVhttp://dbpedia.org/ontology/NaturalPlace
p320
aVhttp://dbpedia.org/ontology/Volcano
p321
aVhttp://www.w3.org/2003/01/geo/wgs84_pos#SpatialThing
p322
aVhttp://schema.org/Place
p323
aVhttp://umbel.org/umbel/rc/Mountain
p324
aVhttp://dbpedia.org/class/yago/Crack109258715
p325
aVhttp://dbpedia.org/class/yago/YagoPermanentlyLocatedEntity
p326
aVhttp://dbpedia.org/class/yago/MountainsOfRussia
p327
aVhttp://dbpedia.org/class/yago/NaturalElevation109366317
p328
aVhttp://dbpedia.org/class/yago/PhysicalEntity100001930
p329
aVhttp://dbpedia.org/class/yago/VolcanoesOfKamchatka
p330
aVhttp://dbpedia.org/resource/Kikhpinych
tp331
aa(lp332
aa(lp333
(lp334
((lp335
Vhttp://dbpedia.org/class/yago/Abstraction100002137
p336
aVhttp://dbpedia.org/class/yago/ActiveVolcanoes
p337
aVhttp://dbpedia.org/class/yago/AmorphousShape113867492
p338
aVhttp://dbpedia.org/class/yago/Attribute100024264
p339
aVhttp://dbpedia.org/class/yago/GeologicalFormation109287968
p340
aVhttp://dbpedia.org/class/yago/Location100027167
p341
aVhttp://dbpedia.org/class/yago/Mountain109359803
p342
aVhttp://dbpedia.org/class/yago/Object100002684
p343
aVhttp://dbpedia.org/class/yago/Opening109379111
p344
aVhttp://dbpedia.org/class/yago/Shape100027807
p345
aVhttp://dbpedia.org/class/yago/Space113910384
p346
aVhttp://dbpedia.org/class/yago/Vent109470550
p347
aVhttp://dbpedia.org/class/yago/YagoGeoEntity
p348
aVhttp://dbpedia.org/class/yago/YagoLegalActorGeo
p349
aVhttp://www.w3.org/2002/07/owl#Thing
p350
aVhttp://dbpedia.org/ontology/Place
p351
aVhttp://dbpedia.org/ontology/Location
p352
aVhttp://www.wikidata.org/entity/Q8072
p353
aVhttp://dbpedia.org/ontology/NaturalPlace
p354
aVhttp://dbpedia.org/ontology/Volcano
p355
aVhttp://www.w3.org/2003/01/geo/wgs84_pos#SpatialThing
p356
aVhttp://schema.org/Place
p357
aVhttp://umbel.org/umbel/rc/Mountain
p358
aVhttp://dbpedia.org/class/yago/Crack109258715
p359
aVhttp://dbpedia.org/class/yago/YagoPermanentlyLocatedEntity
p360
aVhttp://dbpedia.org/class/yago/MountainsOfRussia
p361
aVhttp://dbpedia.org/class/yago/NaturalElevation109366317
p362
aVhttp://dbpedia.org/class/yago/PhysicalEntity100001930
p363
aVhttp://dbpedia.org/class/yago/VolcanoesOfKamchatka
p364
aVhttp://dbpedia.org/resource/Kizimen
tp365
aa(lp366
aa(lp367
(lp368
((lp369
Vhttp://dbpedia.org/class/yago/Abstraction100002137
p370
aVhttp://dbpedia.org/class/yago/ActiveVolcanoes
p371
aVhttp://dbpedia.org/class/yago/AmorphousShape113867492
p372
aVhttp://dbpedia.org/class/yago/Attribute100024264
p373
aVhttp://dbpedia.org/class/yago/GeologicalFormation109287968
p374
aVhttp://dbpedia.org/class/yago/Location100027167
p375
aVhttp://dbpedia.org/class/yago/Mountain109359803
p376
aVhttp://dbpedia.org/class/yago/Object100002684
p377
aVhttp://dbpedia.org/class/yago/Opening109379111
p378
aVhttp://dbpedia.org/class/yago/Shape100027807
p379
aVhttp://dbpedia.org/class/yago/Space113910384
p380
aVhttp://dbpedia.org/class/yago/Vent109470550
p381
aVhttp://dbpedia.org/class/yago/YagoGeoEntity
p382
aVhttp://dbpedia.org/class/yago/YagoLegalActorGeo
p383
aVhttp://dbpedia.org/class/yago/SacredMountains
p384
aVhttp://dbpedia.org/class/yago/SubductionVolcanoes
p385
aVhttp://www.w3.org/2002/07/owl#Thing
p386
aVhttp://dbpedia.org/ontology/Place
p387
aVhttp://dbpedia.org/ontology/Location
p388
aVhttp://www.wikidata.org/entity/Q8072
p389
aVhttp://dbpedia.org/ontology/NaturalPlace
p390
aVhttp://dbpedia.org/ontology/Volcano
p391
aVhttp://www.w3.org/2003/01/geo/wgs84_pos#SpatialThing
p392
aVhttp://schema.org/Place
p393
aVhttp://umbel.org/umbel/rc/Mountain
p394
aVhttp://dbpedia.org/class/yago/Crack109258715
p395
aVhttp://dbpedia.org/class/yago/YagoPermanentlyLocatedEntity
p396
aVhttp://dbpedia.org/class/yago/MountainsOfRussia
p397
aVhttp://dbpedia.org/class/yago/NaturalElevation109366317
p398
aVhttp://dbpedia.org/class/yago/PhysicalEntity100001930
p399
aVhttp://dbpedia.org/class/yago/VEI-4Volcanoes
p400
aVhttp://dbpedia.org/class/yago/VolcanoesOfKamchatka
p401
aVhttp://dbpedia.org/resource/Klyuchevskaya_Sopka
tp402
aa(lp403
aa(lp404
(lp405
((lp406
Vhttp://dbpedia.org/class/yago/Abstraction100002137
p407
aVhttp://dbpedia.org/class/yago/ActiveVolcanoes
p408
aVhttp://dbpedia.org/class/yago/AmorphousShape113867492
p409
aVhttp://dbpedia.org/class/yago/Attribute100024264
p410
aVhttp://dbpedia.org/class/yago/GeologicalFormation109287968
p411
aVhttp://dbpedia.org/class/yago/Location100027167
p412
aVhttp://dbpedia.org/class/yago/Mountain109359803
p413
aVhttp://dbpedia.org/class/yago/Object100002684
p414
aVhttp://dbpedia.org/class/yago/Opening109379111
p415
aVhttp://dbpedia.org/class/yago/Shape100027807
p416
aVhttp://dbpedia.org/class/yago/Space113910384
p417
aVhttp://dbpedia.org/class/yago/Vent109470550
p418
aVhttp://dbpedia.org/class/yago/YagoGeoEntity
p419
aVhttp://dbpedia.org/class/yago/YagoLegalActorGeo
p420
aVhttp://www.w3.org/2002/07/owl#Thing
p421
aVhttp://dbpedia.org/ontology/Place
p422
aVhttp://dbpedia.org/ontology/Location
p423
aVhttp://www.wikidata.org/entity/Q8072
p424
aVhttp://dbpedia.org/ontology/NaturalPlace
p425
aVhttp://dbpedia.org/ontology/Volcano
p426
aVhttp://www.w3.org/2003/01/geo/wgs84_pos#SpatialThing
p427
aVhttp://schema.org/Place
p428
aVhttp://umbel.org/umbel/rc/Mountain
p429
aVhttp://dbpedia.org/class/yago/Crack109258715
p430
aVhttp://dbpedia.org/class/yago/DecadeVolcanoes
p431
aVhttp://dbpedia.org/class/yago/YagoPermanentlyLocatedEntity
p432
aVhttp://dbpedia.org/class/yago/MountainsOfRussia
p433
aVhttp://dbpedia.org/class/yago/NaturalElevation109366317
p434
aVhttp://dbpedia.org/class/yago/PhysicalEntity100001930
p435
aVhttp://dbpedia.org/class/yago/VEI-3Volcanoes
p436
aVhttp://dbpedia.org/class/yago/VolcanoesOfKamchatka
p437
aVhttp://dbpedia.org/resource/Koryaksky
tp438
aa(lp439
aa(lp440
(lp441
((lp442
Vhttp://www.w3.org/2002/07/owl#Thing
p443
aVhttp://dbpedia.org/ontology/Place
p444
aVhttp://dbpedia.org/ontology/Location
p445
aVhttp://www.wikidata.org/entity/Q8072
p446
aVhttp://dbpedia.org/ontology/NaturalPlace
p447
aVhttp://dbpedia.org/ontology/Volcano
p448
aVhttp://www.w3.org/2003/01/geo/wgs84_pos#SpatialThing
p449
aVhttp://schema.org/Place
p450
aVhttp://dbpedia.org/resource/Koshelev_(volcano)
tp451
aa(lp452
aa(lp453
(lp454
((lp455
Vhttp://dbpedia.org/class/yago/Abstraction100002137
p456
aVhttp://dbpedia.org/class/yago/AmorphousShape113867492
p457
aVhttp://dbpedia.org/class/yago/Attribute100024264
p458
aVhttp://dbpedia.org/class/yago/GeologicalFormation109287968
p459
aVhttp://dbpedia.org/class/yago/Location100027167
p460
aVhttp://dbpedia.org/class/yago/Mountain109359803
p461
aVhttp://dbpedia.org/class/yago/Object100002684
p462
aVhttp://dbpedia.org/class/yago/Opening109379111
p463
aVhttp://dbpedia.org/class/yago/Shape100027807
p464
aVhttp://dbpedia.org/class/yago/Space113910384
p465
aVhttp://dbpedia.org/class/yago/Vent109470550
p466
aVhttp://dbpedia.org/class/yago/YagoGeoEntity
p467
aVhttp://dbpedia.org/class/yago/YagoLegalActorGeo
p468
aVhttp://www.w3.org/2002/07/owl#Thing
p469
aVhttp://dbpedia.org/ontology/Place
p470
aVhttp://dbpedia.org/ontology/Location
p471
aVhttp://www.wikidata.org/entity/Q8072
p472
aVhttp://dbpedia.org/ontology/NaturalPlace
p473
aVhttp://dbpedia.org/ontology/Volcano
p474
aVhttp://www.w3.org/2003/01/geo/wgs84_pos#SpatialThing
p475
aVhttp://schema.org/Place
p476
aVhttp://umbel.org/umbel/rc/Mountain
p477
aVhttp://dbpedia.org/class/yago/Crack109258715
p478
aVhttp://dbpedia.org/class/yago/YagoPermanentlyLocatedEntity
p479
aVhttp://dbpedia.org/class/yago/MountainsOfRussia
p480
aVhttp://dbpedia.org/class/yago/NaturalElevation109366317
p481
aVhttp://dbpedia.org/class/yago/PhysicalEntity100001930
p482
aVhttp://dbpedia.org/class/yago/VolcanoesOfKamchatka
p483
aVhttp://dbpedia.org/resource/Krasheninnikov_(volcano)
tp484
aa(lp485
aa(lp486
(lp487
((lp488
Vhttp://dbpedia.org/class/yago/Abstraction100002137
p489
aVhttp://dbpedia.org/class/yago/AmorphousShape113867492
p490
aVhttp://dbpedia.org/class/yago/Attribute100024264
p491
aVhttp://dbpedia.org/class/yago/BodyOfWater109225146
p492
aVhttp://dbpedia.org/class/yago/Caldera109231117
p493
aVhttp://dbpedia.org/class/yago/GeologicalFormation109287968
p494
aVhttp://dbpedia.org/class/yago/Lake109328904
p495
aVhttp://dbpedia.org/class/yago/Location100027167
p496
aVhttp://dbpedia.org/class/yago/Mountain109359803
p497
aVhttp://dbpedia.org/class/yago/Object100002684
p498
aVhttp://dbpedia.org/class/yago/Opening109379111
p499
aVhttp://dbpedia.org/class/yago/Shape100027807
p500
aVhttp://dbpedia.org/class/yago/Space113910384
p501
aVhttp://dbpedia.org/class/yago/Thing100002452
p502
aVhttp://dbpedia.org/class/yago/Vent109470550
p503
aVhttp://dbpedia.org/class/yago/VolcanicCrater109472413
p504
aVhttp://dbpedia.org/class/yago/YagoGeoEntity
p505
aVhttp://dbpedia.org/class/yago/YagoLegalActorGeo
p506
aVhttp://www.w3.org/2002/07/owl#Thing
p507
aVhttp://dbpedia.org/ontology/Place
p508
aVhttp://dbpedia.org/ontology/Location
p509
aVhttp://www.wikidata.org/entity/Q8072
p510
aVhttp://dbpedia.org/ontology/NaturalPlace
p511
aVhttp://dbpedia.org/ontology/Volcano
p512
aVhttp://www.w3.org/2003/01/geo/wgs84_pos#SpatialThing
p513
aVhttp://schema.org/Place
p514
aVhttp://umbel.org/umbel/rc/Mountain
p515
aVhttp://dbpedia.org/class/yago/Crack109258715
p516
aVhttp://dbpedia.org/class/yago/CraterLakes
p517
aVhttp://dbpedia.org/class/yago/YagoPermanentlyLocatedEntity
p518
aVhttp://dbpedia.org/class/yago/MountainsOfRussia
p519
aVhttp://dbpedia.org/class/yago/NaturalElevation109366317
p520
aVhttp://dbpedia.org/class/yago/PhysicalEntity100001930
p521
aVhttp://dbpedia.org/class/yago/VEI-6Volcanoes
p522
aVhttp://dbpedia.org/class/yago/VolcanicCalderasOfRussia
p523
aVhttp://dbpedia.org/class/yago/VolcanoesOfKamchatka
p524
aVhttp://dbpedia.org/resource/Ksudach
tp525
aa(lp526
aa(lp527
(lp528
((lp529
Vhttp://dbpedia.org/class/yago/GeologicalFormation109287968
p530
aVhttp://dbpedia.org/class/yago/Mountain109359803
p531
aVhttp://dbpedia.org/class/yago/Object100002684
p532
aVhttp://dbpedia.org/class/yago/YagoGeoEntity
p533
aVhttp://www.w3.org/2002/07/owl#Thing
p534
aVhttp://dbpedia.org/ontology/Place
p535
aVhttp://dbpedia.org/ontology/Location
p536
aVhttp://www.wikidata.org/entity/Q8072
p537
aVhttp://dbpedia.org/ontology/NaturalPlace
p538
aVhttp://dbpedia.org/ontology/Volcano
p539
aVhttp://www.w3.org/2003/01/geo/wgs84_pos#SpatialThing
p540
aVhttp://schema.org/Place
p541
aVhttp://umbel.org/umbel/rc/Mountain
p542
aVhttp://dbpedia.org/class/yago/YagoPermanentlyLocatedEntity
p543
aVhttp://dbpedia.org/class/yago/NaturalElevation109366317
p544
aVhttp://dbpedia.org/class/yago/PhysicalEntity100001930
p545
aVhttp://dbpedia.org/resource/Kuntomintar
tp546
aa(lp547
aa(lp548
(lp549
((lp550
Vhttp://dbpedia.org/class/yago/Abstraction100002137
p551
aVhttp://dbpedia.org/class/yago/AmorphousShape113867492
p552
aVhttp://dbpedia.org/class/yago/Attribute100024264
p553
aVhttp://dbpedia.org/class/yago/GeologicalFormation109287968
p554
aVhttp://dbpedia.org/class/yago/Landmark108624891
p555
aVhttp://dbpedia.org/class/yago/Location100027167
p556
aVhttp://dbpedia.org/class/yago/Mountain109359803
p557
aVhttp://dbpedia.org/class/yago/Object100002684
p558
aVhttp://dbpedia.org/class/yago/Opening109379111
p559
aVhttp://dbpedia.org/class/yago/Point108620061
p560
aVhttp://dbpedia.org/class/yago/Position108621598
p561
aVhttp://dbpedia.org/class/yago/Shape100027807
p562
aVhttp://dbpedia.org/class/yago/Space113910384
p563
aVhttp://dbpedia.org/class/yago/Vent109470550
p564
aVhttp://dbpedia.org/class/yago/YagoGeoEntity
p565
aVhttp://dbpedia.org/class/yago/YagoLegalActorGeo
p566
aVhttp://dbpedia.org/class/yago/PotentiallyActiveVolcanoesOfThePhilippines
p567
aVhttp://www.w3.org/2002/07/owl#Thing
p568
aVhttp://dbpedia.org/ontology/Place
p569
aVhttp://dbpedia.org/ontology/Location
p570
aVhttp://www.wikidata.org/entity/Q8072
p571
aVhttp://dbpedia.org/ontology/NaturalPlace
p572
aVhttp://dbpedia.org/ontology/Volcano
p573
aVhttp://www.w3.org/2003/01/geo/wgs84_pos#SpatialThing
p574
aVhttp://schema.org/Place
p575
aVhttp://dbpedia.org/class/yago/Crack109258715
p576
aVhttp://dbpedia.org/class/yago/YagoPermanentlyLocatedEntity
p577
aVhttp://dbpedia.org/class/yago/MountainsOfThePhilippines
p578
aVhttp://dbpedia.org/class/yago/LandmarksInThePhilippines
p579
aVhttp://dbpedia.org/class/yago/NaturalElevation109366317
p580
aVhttp://dbpedia.org/class/yago/PhysicalEntity100001930
p581
aVhttp://dbpedia.org/class/yago/VolcanoesOfMindanao
p582
aVhttp://dbpedia.org/resource/Latukan
p583
tp584
aa(lp585
aa.