(lp1
(lp2
(lp3
a(lp4
a(lp5
a(lp6
aa(lp7
(lp8
a(lp9
a(lp10
a(lp11
aa(lp12
(lp13
a(lp14
a(lp15
a(lp16
aa(lp17
(lp18
((lVhttp://dbpedia.org/resource/Date
tp19
aa(lp20
((lp21
Vhttp://www.w3.org/2002/07/owl#Thing
p22
aVhttp://xmlns.com/foaf/0.1/Person
p23
aVhttp://dbpedia.org/ontology/Person
p24
aVhttp://www.ontologydesignpatterns.org/ont/dul/DUL.owl#Agent
p25
aVhttp://www.ontologydesignpatterns.org/ont/dul/DUL.owl#NaturalPerson
p26
aVhttp://www.wikidata.org/entity/Q215627
p27
aVhttp://www.wikidata.org/entity/Q483501
p28
aVhttp://www.wikidata.org/entity/Q5
p29
aVhttp://dbpedia.org/ontology/Agent
p30
aVhttp://dbpedia.org/ontology/Artist
p31
aVhttp://schema.org/Person
p32
aVhttp://dbpedia.org/class/yago/AmericanCurators
p33
aVhttp://dbpedia.org/class/yago/Artist109812338
p34
aVhttp://dbpedia.org/class/yago/ArtistsFromOregon
p35
aVhttp://dbpedia.org/class/yago/CausalAgent100007347
p36
aVhttp://dbpedia.org/class/yago/Communicator109610660
p37
aVhttp://dbpedia.org/class/yago/Creator109614315
p38
aVhttp://dbpedia.org/class/yago/Curator109983889
p39
aVhttp://dbpedia.org/class/yago/Custodian109984298
p40
aVhttp://dbpedia.org/class/yago/Defender109614684
p41
aVhttp://dbpedia.org/class/yago/LivingThing100004258
p42
aVhttp://dbpedia.org/class/yago/Object100002684
p43
aVhttp://dbpedia.org/class/yago/Organism100004475
p44
aVhttp://dbpedia.org/class/yago/Person100007846
p45
aVhttp://dbpedia.org/class/yago/Whole100003553
p46
aVhttp://dbpedia.org/class/yago/Writer110794014
p47
aVhttp://dbpedia.org/class/yago/YagoLegalActorGeo
p48
aVhttp://dbpedia.org/class/yago/PhysicalEntity100001930
p49
aVhttp://dbpedia.org/class/yago/Preserver110466918
p50
aVhttp://dbpedia.org/class/yago/LivingPeople
p51
aVhttp://dbpedia.org/class/yago/YagoLegalActor
p52
aVhttp://dbpedia.org/class/yago/WritersFromPortland,Oregon
p53
aVhttp://dbpedia.org/resource/Jeff_Jahn
tp54
aa(lp55
a(lp56
aa(lp57
(lp58
a(lp59
a(lp60
a(lp61
aa(lp62
(lp63
a(lp64
a(lp65
a(lp66
aa(lp67
(lp68
a(lp69
((lp70
Vhttp://www.w3.org/2002/07/owl#Thing
p71
aVhttp://dbpedia.org/ontology/Place
p72
aVhttp://dbpedia.org/ontology/Location
p73
aVhttp://www.wikidata.org/entity/Q486972
p74
aVhttp://www.wikidata.org/entity/Q515
p75
aVhttp://dbpedia.org/ontology/City
p76
aVhttp://dbpedia.org/ontology/PopulatedPlace
p77
aVhttp://dbpedia.org/ontology/Settlement
p78
aVhttp://www.w3.org/2003/01/geo/wgs84_pos#SpatialThing
p79
aVhttp://schema.org/City
p80
aVhttp://schema.org/Place
p81
aVhttp://umbel.org/umbel/rc/City
p82
aVhttp://umbel.org/umbel/rc/Location_Underspecified
p83
aVhttp://umbel.org/umbel/rc/PopulatedPlace
p84
aVhttp://umbel.org/umbel/rc/Village
p85
aVhttp://dbpedia.org/class/yago/AdministrativeDistrict108491826
p86
aVhttp://dbpedia.org/class/yago/Area108497294
p87
aVhttp://dbpedia.org/class/yago/Capital108518505
p88
aVhttp://dbpedia.org/class/yago/CapitalDistrictsAndTerritories
p89
aVhttp://dbpedia.org/class/yago/CapitalsInNorthAmerica
p90
aVhttp://dbpedia.org/class/yago/CapitalsInTheCaribbean
p91
aVhttp://dbpedia.org/class/yago/Center108523483
p92
aVhttp://dbpedia.org/class/yago/City108524735
p93
aVhttp://dbpedia.org/class/yago/District108552138
p94
aVhttp://dbpedia.org/class/yago/Location100027167
p95
aVhttp://dbpedia.org/class/yago/Object100002684
p96
aVhttp://dbpedia.org/class/yago/Region108630985
p97
aVhttp://dbpedia.org/class/yago/Seat108647945
p98
aVhttp://dbpedia.org/class/yago/Site108651247
p99
aVhttp://dbpedia.org/class/yago/Tract108673395
p100
aVhttp://dbpedia.org/class/yago/UrbanArea108675967
p101
aVhttp://dbpedia.org/class/yago/YagoGeoEntity
p102
aVhttp://dbpedia.org/class/yago/YagoLegalActorGeo
p103
aVhttp://dbpedia.org/class/yago/GeographicalArea108574314
p104
aVhttp://dbpedia.org/class/yago/Municipality108626283
p105
aVhttp://dbpedia.org/class/yago/PhysicalEntity100001930
p106
aVhttp://dbpedia.org/class/yago/YagoPermanentlyLocatedEntity
p107
aVhttp://dbpedia.org/class/yago/MetropolitanAreasOfBarbados
p108
aVhttp://dbpedia.org/class/yago/PopulatedCoastalPlacesInBarbados
p109
aVhttp://dbpedia.org/class/yago/PopulatedPlacesEstablishedIn1628
p110
aVhttp://dbpedia.org/class/yago/PopulatedPlacesEstablishedInThe17thCentury
p111
aVhttp://dbpedia.org/class/yago/PopulatedPlacesInBarbados
p112
aVhttp://dbpedia.org/class/yago/PortCitiesInTheCaribbean
p113
aVhttp://dbpedia.org/class/yago/PortSettlementsInNorthAmerica
p114
aVhttp://dbpedia.org/class/yago/WorldHeritageSitesInBarbados
p115
aVhttp://dbpedia.org/resource/Bridgetown
tp116
aa(lp117
a(lp118
aa(lp119
(lp120
a(lp121
((lp122
Vhttp://www.w3.org/2002/07/owl#Thing
p123
aVhttp://dbpedia.org/ontology/Place
p124
aVhttp://dbpedia.org/ontology/Location
p125
aVhttp://www.wikidata.org/entity/Q486972
p126
aVhttp://dbpedia.org/ontology/PopulatedPlace
p127
aVhttp://dbpedia.org/ontology/Settlement
p128
aVhttp://www.w3.org/2003/01/geo/wgs84_pos#SpatialThing
p129
aVhttp://schema.org/Place
p130
aVhttp://umbel.org/umbel/rc/Location_Underspecified
p131
aVhttp://umbel.org/umbel/rc/PopulatedPlace
p132
aVhttp://dbpedia.org/class/yago/AdministrativeDistrict108491826
p133
aVhttp://dbpedia.org/class/yago/Area108497294
p134
aVhttp://dbpedia.org/class/yago/Capital108518505
p135
aVhttp://dbpedia.org/class/yago/CapitalsInNorthAmerica
p136
aVhttp://dbpedia.org/class/yago/Center108523483
p137
aVhttp://dbpedia.org/class/yago/City108524735
p138
aVhttp://dbpedia.org/class/yago/District108552138
p139
aVhttp://dbpedia.org/class/yago/Location100027167
p140
aVhttp://dbpedia.org/class/yago/Object100002684
p141
aVhttp://dbpedia.org/class/yago/Prefecture108626947
p142
aVhttp://dbpedia.org/class/yago/Region108630985
p143
aVhttp://dbpedia.org/class/yago/Seat108647945
p144
aVhttp://dbpedia.org/class/yago/Site108651247
p145
aVhttp://dbpedia.org/class/yago/Tract108673395
p146
aVhttp://dbpedia.org/class/yago/UrbanArea108675967
p147
aVhttp://dbpedia.org/class/yago/YagoGeoEntity
p148
aVhttp://dbpedia.org/class/yago/YagoLegalActorGeo
p149
aVhttp://dbpedia.org/class/yago/Commune108541609
p150
aVhttp://dbpedia.org/class/yago/CommunesOfMartinique
p151
aVhttp://dbpedia.org/class/yago/GeographicalArea108574314
p152
aVhttp://dbpedia.org/class/yago/Municipality108626283
p153
aVhttp://dbpedia.org/class/yago/PhysicalEntity100001930
p154
aVhttp://dbpedia.org/class/yago/YagoPermanentlyLocatedEntity
p155
aVhttp://dbpedia.org/class/yago/PopulatedPlacesInMartinique
p156
aVhttp://dbpedia.org/class/yago/PortCitiesInTheCaribbean
p157
aVhttp://dbpedia.org/class/yago/PrefecturesInFrance
p158
aVhttp://dbpedia.org/resource/Fort-de-France
tp159
aa(lp160
a(lp161
aa(lp162
(lp163
a(lp164
((lp165
Vhttp://www.w3.org/2002/07/owl#Thing
p166
aVhttp://dbpedia.org/ontology/Place
p167
aVhttp://dbpedia.org/ontology/Location
p168
aVhttp://www.wikidata.org/entity/Q486972
p169
aVhttp://www.wikidata.org/entity/Q6256
p170
aVhttp://dbpedia.org/ontology/Country
p171
aVhttp://dbpedia.org/ontology/PopulatedPlace
p172
aVhttp://www.w3.org/2003/01/geo/wgs84_pos#SpatialThing
p173
aVhttp://schema.org/Country
p174
aVhttp://schema.org/Place
p175
aVhttp://umbel.org/umbel/rc/Country
p176
aVhttp://umbel.org/umbel/rc/Location_Underspecified
p177
aVhttp://umbel.org/umbel/rc/PopulatedPlace
p178
aVhttp://dbpedia.org/class/yago/AdministrativeDistrict108491826
p179
aVhttp://dbpedia.org/class/yago/CaribbeanCountries
p180
aVhttp://dbpedia.org/class/yago/Country108544813
p181
aVhttp://dbpedia.org/class/yago/District108552138
p182
aVhttp://dbpedia.org/class/yago/Island109316454
p183
aVhttp://dbpedia.org/class/yago/Land109334396
p184
aVhttp://dbpedia.org/class/yago/Location100027167
p185
aVhttp://dbpedia.org/class/yago/Object100002684
p186
aVhttp://dbpedia.org/class/yago/Region108630985
p187
aVhttp://dbpedia.org/class/yago/YagoGeoEntity
p188
aVhttp://dbpedia.org/class/yago/YagoLegalActorGeo
p189
aVhttp://dbpedia.org/class/yago/DependentTerritoriesInNorthAmerica
p190
aVhttp://dbpedia.org/class/yago/Dutch-speakingCountries
p191
aVhttp://dbpedia.org/class/yago/English-speakingCountriesAndTerritories
p192
aVhttp://dbpedia.org/class/yago/PhysicalEntity100001930
p193
aVhttp://dbpedia.org/class/yago/YagoPermanentlyLocatedEntity
p194
aVhttp://dbpedia.org/class/yago/IslandsOfTheNetherlandsAntilles
p195
aVhttp://dbpedia.org/class/yago/StatesAndTerritoriesEstablishedIn2010
p196
aVhttp://dbpedia.org/resource/Sint_Maarten
tp197
aa(lp198
a(lp199
aa(lp200
(lp201
a(lp202
a(lp203
a(lp204
aa(lp205
(lp206
a(lp207
((lp208
Vhttp://www.w3.org/2002/07/owl#Thing
p209
aVhttp://dbpedia.org/ontology/Place
p210
aVhttp://dbpedia.org/ontology/Location
p211
aVhttp://www.wikidata.org/entity/Q23442
p212
aVhttp://www.wikidata.org/entity/Q486972
p213
aVhttp://dbpedia.org/ontology/Island
p214
aVhttp://dbpedia.org/ontology/PopulatedPlace
p215
aVhttp://schema.org/Place
p216
aVhttp://umbel.org/umbel/rc/Island
p217
aVhttp://umbel.org/umbel/rc/Location_Underspecified
p218
aVhttp://umbel.org/umbel/rc/PopulatedPlace
p219
aVhttp://dbpedia.org/class/yago/Island109316454
p220
aVhttp://dbpedia.org/class/yago/Land109334396
p221
aVhttp://dbpedia.org/class/yago/Object100002684
p222
aVhttp://dbpedia.org/class/yago/YagoGeoEntity
p223
aVhttp://dbpedia.org/class/yago/PhysicalEntity100001930
p224
aVhttp://dbpedia.org/class/yago/YagoPermanentlyLocatedEntity
p225
aVhttp://dbpedia.org/class/yago/IslandsOfTheUnitedStatesVirginIslands
p226
aVhttp://dbpedia.org/class/yago/SaintCroix,U.S.VirginIslands
p227
aVhttp://dbpedia.org/resource/Saint_Croix,_U.S._Virgin_Islands
p228
tp229
aa(lp230
a(lp231
aa(lp232
(lp233
a(lp234
a(lp235
a(lp236
aa.