(lp1
(dp2
I0
(dp3
I0
(lp4
sI1
(lp5
Vhttp://www.w3.org/2000/01/rdf-schema#seeAlso
p6
aVhttp://dbpedia.org/property/origin
p7
aVhttp://dbpedia.org/property/hostCity
p8
aVhttp://dbpedia.org/ontology/origin
p9
aVhttp://dbpedia.org/property/place
p10
aVhttp://dbpedia.org/property/allegiance
p11
aVhttp://dbpedia.org/property/territorialExtent
p12
aVhttp://dbpedia.org/ontology/fastestDriverCountry
p13
aVhttp://dbpedia.org/ontology/PopulatedPlace/populationDensity
p14
aVhttp://dbpedia.org/ontology/country
p15
aVhttp://dbpedia.org/property/returns
p16
aVhttp://www.w3.org/1999/02/22-rdf-syntax-ns#type
p17
aVhttp://dbpedia.org/property/assembly
p18
aVhttp://dbpedia.org/property/locations
p19
aVhttp://dbpedia.org/property/parties
p20
aVhttp://dbpedia.org/property/withdraws
p21
aVhttp://dbpedia.org/property/birthPlace
p22
aVhttp://dbpedia.org/property/placeOfBirth
p23
aVhttp://dbpedia.org/property/country
p24
aVhttp://dbpedia.org/property/shipCountry
p25
aVhttp://dbpedia.org/property/l
p26
aVhttp://dbpedia.org/property/areasAffected
p27
aVhttp://dbpedia.org/ontology/firstDriverCountry
p28
aVhttp://dbpedia.org/ontology/abstract
p29
aVhttp://dbpedia.org/property/venue
p30
aVhttp://dbpedia.org/property/deathPlace
p31
aVhttp://dbpedia.org/property/location
p32
aVhttp://dbpedia.org/ontology/builder
p33
aVhttp://dbpedia.org/ontology/deathPlace
p34
aVhttp://dbpedia.org/ontology/city
p35
aVhttp://dbpedia.org/property/worldPlace
p36
aVhttp://dbpedia.org/ontology/premierePlace
p37
aVhttp://dbpedia.org/ontology/assembly
p38
aVhttp://dbpedia.org/ontology/location
p39
aVhttp://www.w3.org/2000/01/rdf-schema#comment
p40
aVhttp://dbpedia.org/ontology/birthPlace
p41
aVhttp://dbpedia.org/property/countries
p42
aVhttp://dbpedia.org/property/area
p43
aVhttp://dbpedia.org/property/gamesPlace
p44
aVhttp://dbpedia.org/ontology/hometown
p45
aVhttp://dbpedia.org/property/asianPlace
p46
aVhttp://dbpedia.org/property/stadium
p47
aVhttp://dbpedia.org/property/areas
p48
asI2
(lp49
Vhttp://dbpedia.org/ontology/abstract
p50
aVhttp://www.w3.org/1999/02/22-rdf-syntax-ns#type
p51
aVhttp://www.w3.org/2002/07/owl#sameAs
p52
aVhttp://www.w3.org/2000/01/rdf-schema#comment
p53
asI3
(lp54
Vhttp://www.w3.org/1999/02/22-rdf-syntax-ns#type
p55
aVhttp://www.w3.org/2002/07/owl#sameAs
p56
asI4
(lp57
sI5
(lp58
sI6
(lp59
sI7
(lp60
ssI1
(dp61
I0
g5
sI1
(lp62
sI2
(lp63
Vhttp://dbpedia.org/property/origin
p64
aVhttp://dbpedia.org/property/recorded
p65
aVhttp://dbpedia.org/ontology/origin
p66
aVhttp://dbpedia.org/ontology/regionServed
p67
aVhttp://dbpedia.org/ontology/country
p68
aVhttp://www.w3.org/1999/02/22-rdf-syntax-ns#type
p69
aVhttp://dbpedia.org/property/locationCountry
p70
aVhttp://dbpedia.org/ontology/nationality
p71
aVhttp://dbpedia.org/property/birthPlace
p72
aVhttp://dbpedia.org/property/placeOfBirth
p73
aVhttp://dbpedia.org/property/country
p74
aVhttp://purl.org/dc/terms/subject
p75
aVhttp://dbpedia.org/property/nationality
p76
aVhttp://dbpedia.org/ontology/abstract
p77
aVhttp://dbpedia.org/ontology/recordedIn
p78
aVhttp://dbpedia.org/property/location
p79
aVhttp://dbpedia.org/ontology/locationCountry
p80
aVhttp://dbpedia.org/ontology/deathPlace
p81
aVhttp://dbpedia.org/ontology/language
p82
aVhttp://dbpedia.org/ontology/location
p83
aVhttp://dbpedia.org/property/languages
p84
aVhttp://dbpedia.org/ontology/stateOfOrigin
p85
aVhttp://dbpedia.org/property/headquarters
p86
aVhttp://dbpedia.org/ontology/birthPlace
p87
aVhttp://dbpedia.org/property/nationalOrigin
p88
aVhttp://dbpedia.org/ontology/hometown
p89
aVhttp://dbpedia.org/property/regionServed
p90
aVhttp://dbpedia.org/ontology/spokenIn
p91
aVhttp://dbpedia.org/property/data
p92
aVhttp://dbpedia.org/ontology/headquarter
p93
asI3
(lp94
sI4
(lp95
sI5
(lp96
Vhttp://dbpedia.org/property/origin
p97
aVhttp://dbpedia.org/property/placeOfDeath
p98
aVhttp://dbpedia.org/property/allegiance
p99
aVhttp://dbpedia.org/property/ethnicity
p100
aVhttp://dbpedia.org/property/territory
p101
aVhttp://dbpedia.org/ontology/regionServed
p102
aVhttp://dbpedia.org/property/assembly
p103
aVhttp://dbpedia.org/ontology/nationality
p104
aVhttp://dbpedia.org/property/shortDescription
p105
aVhttp://dbpedia.org/property/placeOfBirth
p106
aVhttp://dbpedia.org/property/regionalScenes
p107
aVhttp://dbpedia.org/property/nationality
p108
aVhttp://dbpedia.org/ontology/abstract
p109
aVhttp://dbpedia.org/ontology/recordedIn
p110
aVhttp://dbpedia.org/property/venue
p111
aVhttp://dbpedia.org/property/languages2Type
p112
aVhttp://www.georss.org/georss/point
p113
aVhttp://dbpedia.org/property/usedBy
p114
aVhttp://dbpedia.org/property/nationalOrigin
p115
aVhttp://dbpedia.org/property/imageMap
p116
aVhttp://dbpedia.org/property/shipBuilder
p117
aVhttp://dbpedia.org/ontology/location
p118
aVhttp://dbpedia.org/property/finish
p119
aVhttp://dbpedia.org/ontology/hometown
p120
aVhttp://dbpedia.org/ontology/restingPlace
p121
aVhttp://dbpedia.org/ontology/spokenIn
p122
aVhttp://dbpedia.org/property/builders
p123
aVhttp://www.w3.org/2000/01/rdf-schema#seeAlso
p124
aVhttp://dbpedia.org/ontology/foundationPlace
p125
aVhttp://dbpedia.org/property/base
p126
aVhttp://dbpedia.org/ontology/locatedInArea
p127
aVhttp://dbpedia.org/property/based
p128
aVhttp://dbpedia.org/ontology/country
p129
aVhttp://dbpedia.org/property/region
p130
aVhttp://dbpedia.org/property/destinations
p131
aVhttp://dbpedia.org/property/birthPlace
p132
aVhttp://dbpedia.org/property/plane1Origin
p133
aVhttp://dbpedia.org/property/origins
p134
aVhttp://dbpedia.org/property/country
p135
aVhttp://dbpedia.org/property/areaServed
p136
aVhttp://dbpedia.org/ontology/wikiPageExternalLink
p137
aVhttp://dbpedia.org/property/diaspora
p138
aVhttp://dbpedia.org/property/location
p139
aVhttp://dbpedia.org/ontology/locationCountry
p140
aVhttp://dbpedia.org/ontology/deathPlace
p141
aVhttp://dbpedia.org/property/hasPhotoCollection
p142
aVhttp://dbpedia.org/property/drivesOn
p143
aVhttp://dbpedia.org/property/headquarters
p144
aVhttp://dbpedia.org/ontology/birthPlace
p145
aVhttp://dbpedia.org/ontology/citizenship
p146
aVhttp://dbpedia.org/property/citizenship
p147
aVhttp://dbpedia.org/ontology/stateOfOrigin
p148
aVhttp://www.w3.org/2002/07/owl#sameAs
p149
aVhttp://dbpedia.org/property/recorded
p150
aVhttp://dbpedia.org/ontology/origin
p151
aVhttp://dbpedia.org/property/residence
p152
aVhttp://dbpedia.org/property/altMap
p153
aVhttp://www.w3.org/1999/02/22-rdf-syntax-ns#type
p154
aVhttp://dbpedia.org/property/locationCountry
p155
aVhttp://dbpedia.org/property/education
p156
aVhttp://dbpedia.org/ontology/education
p157
aVhttp://dbpedia.org/property/locationSigned
p158
aVhttp://dbpedia.org/property/shipCountry
p159
aVhttp://dbpedia.org/property/countryofbirth
p160
aVhttp://dbpedia.org/ontology/assembly
p161
aVhttp://dbpedia.org/property/subdivisionName
p162
aVhttp://dbpedia.org/property/languages
p163
aVhttp://dbpedia.org/property/training
p164
aVhttp://dbpedia.org/property/parliament
p165
aVhttp://dbpedia.org/property/locationCity
p166
aVhttp://dbpedia.org/property/place
p167
aVhttp://dbpedia.org/ontology/wikiPageRedirects
p168
aVhttp://dbpedia.org/property/territorialExtent
p169
aVhttp://dbpedia.org/property/placeofburial
p170
aVhttp://dbpedia.org/property/locations
p171
aVhttp://dbpedia.org/property/countryOfProduction
p172
aVhttp://dbpedia.org/property/after
p173
aVhttp://dbpedia.org/ontology/residence
p174
aVhttp://purl.org/dc/terms/subject
p175
aVhttp://dbpedia.org/ontology/populationPlace
p176
aVhttp://dbpedia.org/property/deathPlace
p177
aVhttp://dbpedia.org/ontology/headquarter
p178
aVhttp://www.w3.org/2000/01/rdf-schema#label
p179
aVhttp://dbpedia.org/property/controlledby
p180
aVhttp://dbpedia.org/property/locale
p181
aVhttp://dbpedia.org/property/moreUsers
p182
aVhttp://www.w3.org/2000/01/rdf-schema#comment
p183
aVhttp://dbpedia.org/property/regionServed
p184
aVhttp://dbpedia.org/ontology/builder
p185
aVhttp://dbpedia.org/ontology/locationCity
p186
asI6
(lp187
Vhttp://dbpedia.org/property/placeOfDeath
p188
aVhttp://dbpedia.org/property/origin
p189
aVhttp://dbpedia.org/property/awardedBy
p190
aVhttp://dbpedia.org/property/locations
p191
aVhttp://dbpedia.org/ontology/PopulatedPlace/areaTotal
p192
aVhttp://dbpedia.org/ontology/garrison
p193
aVhttp://dbpedia.org/ontology/fastestDriverCountry
p194
aVhttp://dbpedia.org/property/parties
p195
aVhttp://dbpedia.org/ontology/regionServed
p196
aVhttp://dbpedia.org/property/city
p197
aVhttp://dbpedia.org/property/assembly
p198
aVhttp://dbpedia.org/ontology/nationality
p199
aVhttp://dbpedia.org/property/placeOfBirth
p200
aVhttp://dbpedia.org/property/garrison
p201
aVhttp://dbpedia.org/property/byCountry
p202
aVhttp://dbpedia.org/property/establishedEvent
p203
aVhttp://dbpedia.org/property/languages
p204
aVhttp://dbpedia.org/property/nationality
p205
aVhttp://dbpedia.org/ontology/abstract
p206
aVhttp://dbpedia.org/ontology/recordedIn
p207
aVhttp://dbpedia.org/property/venue
p208
aVhttp://dbpedia.org/property/gdpPpp
p209
aVhttp://dbpedia.org/property/usedBy
p210
aVhttp://dbpedia.org/property/nationalOrigin
p211
aVhttp://dbpedia.org/property/shipRoute
p212
aVhttp://www.georss.org/georss/point
p213
aVhttp://dbpedia.org/property/shipBuilder
p214
aVhttp://dbpedia.org/ontology/location
p215
aVhttp://dbpedia.org/property/countriesAffected
p216
aVhttp://dbpedia.org/property/countries
p217
aVhttp://dbpedia.org/property/area
p218
aVhttp://dbpedia.org/ontology/hometown
p219
aVhttp://dbpedia.org/ontology/restingPlace
p220
aVhttp://dbpedia.org/ontology/poleDriverCountry
p221
aVhttp://dbpedia.org/property/builders
p222
aVhttp://www.w3.org/2000/01/rdf-schema#seeAlso
p223
aVhttp://dbpedia.org/ontology/citizenship
p224
aVhttp://dbpedia.org/ontology/countryWithFirstSatellite
p225
aVhttp://dbpedia.org/property/hostCity
p226
aVhttp://dbpedia.org/property/restingPlace
p227
aVhttp://dbpedia.org/ontology/foundationPlace
p228
aVhttp://dbpedia.org/property/base
p229
aVhttp://dbpedia.org/property/site
p230
aVhttp://dbpedia.org/ontology/country
p231
aVhttp://dbpedia.org/property/returns
p232
aVhttp://dbpedia.org/ontology/countryWithFirstSpaceflight
p233
aVhttp://dbpedia.org/property/birthPlace
p234
aVhttp://dbpedia.org/property/plane1Origin
p235
aVhttp://dbpedia.org/property/country
p236
aVhttp://dbpedia.org/ontology/assembly
p237
aVhttp://dbpedia.org/property/areaServed
p238
aVhttp://dbpedia.org/property/areasAffected
p239
aVhttp://dbpedia.org/ontology/wikiPageExternalLink
p240
aVhttp://dbpedia.org/ontology/firstDriverCountry
p241
aVhttp://dbpedia.org/property/deathPlace
p242
aVhttp://dbpedia.org/ontology/locationCountry
p243
aVhttp://dbpedia.org/ontology/deathPlace
p244
aVhttp://dbpedia.org/ontology/birthPlace
p245
aVhttp://dbpedia.org/ontology/wikiPageRedirects
p246
aVhttp://dbpedia.org/property/citizenship
p247
aVhttp://dbpedia.org/property/asianPlace
p248
aVhttp://www.w3.org/2002/07/owl#sameAs
p249
aVhttp://dbpedia.org/property/areas
p250
aVhttp://dbpedia.org/property/recorded
p251
aVhttp://dbpedia.org/ontology/origin
p252
aVhttp://dbpedia.org/property/populationDensityRank
p253
aVhttp://dbpedia.org/property/worldPlace
p254
aVhttp://dbpedia.org/property/residence
p255
aVhttp://www.w3.org/1999/02/22-rdf-syntax-ns#type
p256
aVhttp://dbpedia.org/property/locationCountry
p257
aVhttp://dbpedia.org/ontology/secondDriverCountry
p258
aVhttp://dbpedia.org/property/withdraws
p259
aVhttp://dbpedia.org/property/winnerOrigin
p260
aVhttp://dbpedia.org/property/shipCountry
p261
aVhttp://dbpedia.org/property/l
p262
aVhttp://dbpedia.org/property/gdpNominal
p263
aVhttp://dbpedia.org/property/gdpNominalPerCapita
p264
aVhttp://dbpedia.org/property/locationSigned
p265
aVhttp://dbpedia.org/ontology/city
p266
aVhttp://dbpedia.org/ontology/homeport
p267
aVhttp://dbpedia.org/property/hostcity
p268
aVhttp://dbpedia.org/property/opponents
p269
aVhttp://dbpedia.org/property/secondTeam
p270
aVhttp://dbpedia.org/property/parliament
p271
aVhttp://dbpedia.org/ontology/broadcastArea
p272
aVhttp://dbpedia.org/property/stadium
p273
aVhttp://dbpedia.org/ontology/countryWithFirstAstronaut
p274
aVhttp://dbpedia.org/property/place
p275
aVhttp://dbpedia.org/property/debuts
p276
aVhttp://dbpedia.org/property/territorialExtent
p277
aVhttp://dbpedia.org/property/utcOffsetDst
p278
aVhttp://dbpedia.org/ontology/thirdDriverCountry
p279
aVhttp://dbpedia.org/ontology/PopulatedPlace/populationDensity
p280
aVhttp://dbpedia.org/property/restingplace
p281
aVhttp://dbpedia.org/property/allegiance
p282
aVhttp://dbpedia.org/property/countryOfProduction
p283
aVhttp://dbpedia.org/ontology/place
p284
aVhttp://dbpedia.org/property/manufacturer
p285
aVhttp://dbpedia.org/property/gamesPlace
p286
aVhttp://dbpedia.org/property/location
p287
aVhttp://dbpedia.org/property/builder
p288
aVhttp://dbpedia.org/ontology/language
p289
aVhttp://dbpedia.org/property/shipRegistry
p290
aVhttp://dbpedia.org/property/locale
p291
aVhttp://dbpedia.org/ontology/stateOfOrigin
p292
aVhttp://dbpedia.org/property/moreUsers
p293
aVhttp://www.w3.org/2000/01/rdf-schema#comment
p294
aVhttp://dbpedia.org/ontology/releaseLocation
p295
aVhttp://dbpedia.org/property/olympicPlace
p296
aVhttp://dbpedia.org/property/shipHomeport
p297
aVhttp://dbpedia.org/ontology/builder
p298
aVhttp://dbpedia.org/ontology/premierePlace
p299
aVhttp://dbpedia.org/ontology/occupation
p300
asI7
(lp301
Vhttp://dbpedia.org/property/shipCountry
p302
assI2
(dp303
I0
g49
sI1
g63
sI2
(lp304
sI3
(lp305
sI4
(lp306
sI5
(lp307
Vhttp://dbpedia.org/ontology/utcOffset
p308
aVhttp://www.georss.org/georss/point
p309
aVhttp://www.w3.org/2000/01/rdf-schema#comment
p310
aVhttp://dbpedia.org/ontology/abstract
p311
aVhttp://dbpedia.org/property/hasPhotoCollection
p312
aVhttp://www.w3.org/2002/07/owl#sameAs
p313
asI6
(lp314
Vhttp://www.w3.org/1999/02/22-rdf-syntax-ns#type
p315
aVhttp://www.w3.org/2000/01/rdf-schema#comment
p316
aVhttp://dbpedia.org/ontology/postalCode
p317
aVhttp://dbpedia.org/ontology/abstract
p318
aVhttp://dbpedia.org/ontology/PopulatedPlace/areaTotal
p319
aVhttp://www.w3.org/ns/prov#wasDerivedFrom
p320
aVhttp://dbpedia.org/ontology/areaCode
p321
aVhttp://dbpedia.org/ontology/PopulatedPlace/populationDensity
p322
aVhttp://www.w3.org/2002/07/owl#sameAs
p323
asI7
(lp324
ssI3
(dp325
I0
g54
sI1
g94
sI2
g305
sI3
(lp326
sI4
(lp327
Vhttp://dbpedia.org/ontology/abstract
p328
aVhttp://www.w3.org/2000/01/rdf-schema#comment
p329
asI5
(lp330
Vhttp://dbpedia.org/ontology/genre
p331
aVhttp://www.w3.org/2000/01/rdf-schema#comment
p332
aVhttp://dbpedia.org/ontology/abstract
p333
aVhttp://dbpedia.org/property/genre
p334
aVhttp://dbpedia.org/property/hasPhotoCollection
p335
aVhttp://www.w3.org/2002/07/owl#sameAs
p336
asI6
(lp337
Vhttp://www.w3.org/1999/02/22-rdf-syntax-ns#type
p338
aVhttp://purl.org/dc/terms/subject
p339
aVhttp://dbpedia.org/property/entrant
p340
aVhttp://www.w3.org/2000/01/rdf-schema#comment
p341
aVhttp://dbpedia.org/ontology/abstract
p342
aVhttp://xmlns.com/foaf/0.1/depiction
p343
aVhttp://dbpedia.org/ontology/thumbnail
p344
aVhttp://www.w3.org/ns/prov#wasDerivedFrom
p345
aVhttp://dbpedia.org/property/caption
p346
aVhttp://www.w3.org/2002/07/owl#sameAs
p347
asI7
(lp348
ssI4
(dp349
I0
g57
sI1
g95
sI2
g306
sI3
g327
sI4
(lp350
sI5
(lp351
sI6
(lp352
sI7
(lp353
ssI5
(dp354
I0
g58
sI1
g96
sI2
g307
sI3
g330
sI4
g351
sI5
(lp355
sI6
(lp356
sI7
(lp357
ssI6
(dp358
I0
g59
sI1
g187
sI2
g314
sI3
g337
sI4
g352
sI5
g356
sI6
(lp359
sI7
(lp360
ssI7
(dp361
I0
g60
sI1
g301
sI2
g324
sI3
g348
sI4
g353
sI5
g357
sI6
g360
sI7
(lp362
ssa(dp363
I0
(dp364
I0
(lp365
sI1
(lp366
Vhttp://dbpedia.org/ontology/country
p367
aVhttp://www.w3.org/1999/02/22-rdf-syntax-ns#type
p368
aVhttp://dbpedia.org/property/hostCity
p369
aVhttp://dbpedia.org/ontology/abstract
p370
aVhttp://www.w3.org/2000/01/rdf-schema#comment
p371
aVhttp://dbpedia.org/property/location
p372
aVhttp://dbpedia.org/property/worldPlace
p373
aVhttp://dbpedia.org/property/withdraws
p374
aVhttp://dbpedia.org/property/asianPlace
p375
aVhttp://www.w3.org/2002/07/owl#sameAs
p376
aVhttp://dbpedia.org/property/gdpPpp
p377
aVhttp://dbpedia.org/ontology/locatedInArea
p378
aVhttp://dbpedia.org/property/asianPlaceQ
p379
aVhttp://dbpedia.org/property/debuts
p380
aVhttp://dbpedia.org/property/nationalOrigin
p381
aVhttp://dbpedia.org/property/gdpNominal
p382
asI2
(lp383
Vhttp://www.w3.org/1999/02/22-rdf-syntax-ns#type
p384
aVhttp://dbpedia.org/ontology/PopulatedPlace/populationDensity
p385
asI3
(lp386
Vhttp://www.w3.org/1999/02/22-rdf-syntax-ns#type
p387
asI4
(lp388
sI5
(lp389
sI6
(lp390
sI7
(lp391
ssI1
(dp392
I0
g366
sI1
(lp393
sI2
(lp394
Vhttp://dbpedia.org/ontology/location
p395
aVhttp://dbpedia.org/property/location
p396
asI3
(lp397
sI4
(lp398
sI5
(lp399
Vhttp://www.w3.org/2000/01/rdf-schema#seeAlso
p400
aVhttp://dbpedia.org/property/origin
p401
aVhttp://dbpedia.org/property/governmentType
p402
aVhttp://dbpedia.org/property/ground
p403
aVhttp://dbpedia.org/ontology/origin
p404
aVhttp://dbpedia.org/ontology/citizenship
p405
aVhttp://dbpedia.org/property/city
p406
aVhttp://dbpedia.org/property/placeOfDeath
p407
aVhttp://dbpedia.org/ontology/locatedInArea
p408
aVhttp://dbpedia.org/property/usedBy
p409
aVhttp://dbpedia.org/property/team
p410
aVhttp://dbpedia.org/ontology/country
p411
aVhttp://dbpedia.org/property/region
p412
aVhttp://www.w3.org/1999/02/22-rdf-syntax-ns#type
p413
aVhttp://dbpedia.org/ontology/nearestCity
p414
aVhttp://dbpedia.org/ontology/sourceCountry
p415
aVhttp://dbpedia.org/property/hasPhotoCollection
p416
aVhttp://dbpedia.org/property/locationCountry
p417
aVhttp://dbpedia.org/property/referee
p418
aVhttp://dbpedia.org/ontology/ground
p419
aVhttp://dbpedia.org/ontology/nationality
p420
aVhttp://dbpedia.org/property/birthPlace
p421
aVhttp://dbpedia.org/ontology/education
p422
aVhttp://dbpedia.org/property/placeOfBirth
p423
aVhttp://dbpedia.org/property/stateParty
p424
aVhttp://dbpedia.org/property/foundedPlace
p425
aVhttp://dbpedia.org/property/country
p426
aVhttp://dbpedia.org/ontology/headquarter
p427
aVhttp://dbpedia.org/property/leaderName
p428
aVhttp://dbpedia.org/property/areaServed
p429
aVhttp://dbpedia.org/ontology/wikiPageExternalLink
p430
aVhttp://purl.org/dc/terms/subject
p431
aVhttp://dbpedia.org/property/nationality
p432
aVhttp://dbpedia.org/ontology/abstract
p433
aVhttp://dbpedia.org/ontology/recordedIn
p434
aVhttp://dbpedia.org/property/venue
p435
aVhttp://dbpedia.org/property/deathPlace
p436
aVhttp://dbpedia.org/property/location
p437
aVhttp://dbpedia.org/property/states
p438
aVhttp://xmlns.com/foaf/0.1/name
p439
aVhttp://dbpedia.org/ontology/locationCountry
p440
aVhttp://dbpedia.org/ontology/deathPlace
p441
aVhttp://dbpedia.org/ontology/city
p442
aVhttp://dbpedia.org/property/builder
p443
aVhttp://dbpedia.org/property/subdivisionName
p444
aVhttp://dbpedia.org/property/nationalOrigin
p445
aVhttp://dbpedia.org/ontology/location
p446
aVhttp://dbpedia.org/property/locale
p447
aVhttp://dbpedia.org/property/basinCountries
p448
aVhttp://dbpedia.org/property/imageMap
p449
aVhttp://dbpedia.org/property/headquarters
p450
aVhttp://dbpedia.org/ontology/residence
p451
aVhttp://dbpedia.org/property/residence
p452
aVhttp://dbpedia.org/ontology/locationCity
p453
aVhttp://dbpedia.org/ontology/birthPlace
p454
aVhttp://www.w3.org/2000/01/rdf-schema#comment
p455
aVhttp://dbpedia.org/ontology/wikiPageRedirects
p456
aVhttp://dbpedia.org/property/before
p457
aVhttp://dbpedia.org/ontology/hometown
p458
aVhttp://dbpedia.org/property/locationCity
p459
aVhttp://dbpedia.org/property/citizenship
p460
aVhttp://dbpedia.org/property/basedIn
p461
aVhttp://dbpedia.org/ontology/builder
p462
aVhttp://www.w3.org/2002/07/owl#sameAs
p463
aVhttp://dbpedia.org/ontology/spokenIn
p464
aVhttp://dbpedia.org/ontology/stateOfOrigin
p465
aVhttp://dbpedia.org/property/stadium
p466
aVhttp://dbpedia.org/ontology/leader
p467
asI6
(lp468
Vhttp://dbpedia.org/property/origin
p469
aVhttp://dbpedia.org/property/placeOfDeath
p470
aVhttp://dbpedia.org/property/almaMater
p471
aVhttp://dbpedia.org/property/ground
p472
aVhttp://dbpedia.org/ontology/origin
p473
aVhttp://dbpedia.org/property/worldPlace
p474
aVhttp://dbpedia.org/property/city
p475
aVhttp://dbpedia.org/ontology/deathPlace
p476
aVhttp://www.w3.org/ns/prov#wasDerivedFrom
p477
aVhttp://dbpedia.org/property/rd2t3Loc
p478
aVhttp://dbpedia.org/ontology/PopulatedPlace/populationDensity
p479
aVhttp://dbpedia.org/ontology/country
p480
aVhttp://dbpedia.org/property/region
p481
aVhttp://www.w3.org/1999/02/22-rdf-syntax-ns#type
p482
aVhttp://www.w3.org/2002/07/owl#sameAs
p483
aVhttp://dbpedia.org/property/locationCountry
p484
aVhttp://dbpedia.org/property/referee
p485
aVhttp://dbpedia.org/property/rd1t5Loc
p486
aVhttp://dbpedia.org/property/rd1t2Loc
p487
aVhttp://dbpedia.org/ontology/ground
p488
aVhttp://dbpedia.org/property/withdraws
p489
aVhttp://dbpedia.org/property/birthPlace
p490
aVhttp://dbpedia.org/property/placeOfBirth
p491
aVhttp://dbpedia.org/property/gdpNominalPerCapita
p492
aVhttp://dbpedia.org/property/country
p493
aVhttp://dbpedia.org/property/countries
p494
aVhttp://dbpedia.org/property/l
p495
aVhttp://dbpedia.org/property/establishedEvent
p496
aVhttp://dbpedia.org/property/nationality
p497
aVhttp://dbpedia.org/ontology/abstract
p498
aVhttp://dbpedia.org/property/venue
p499
aVhttp://dbpedia.org/property/deathPlace
p500
aVhttp://dbpedia.org/property/location
p501
aVhttp://dbpedia.org/property/fightingOutOf
p502
aVhttp://dbpedia.org/property/rd3t2Loc
p503
aVhttp://dbpedia.org/property/countryOfProduction
p504
aVhttp://dbpedia.org/property/rd2t4Loc
p505
aVhttp://dbpedia.org/property/gdpPpp
p506
aVhttp://dbpedia.org/property/usedBy
p507
aVhttp://dbpedia.org/property/debuts
p508
aVhttp://dbpedia.org/property/hostCity
p509
aVhttp://dbpedia.org/property/subdivisionName
p510
aVhttp://dbpedia.org/property/nationalOrigin
p511
aVhttp://dbpedia.org/ontology/location
p512
aVhttp://dbpedia.org/property/locale
p513
aVhttp://www.georss.org/georss/point
p514
aVhttp://dbpedia.org/property/headquarters
p515
aVhttp://dbpedia.org/property/patronage
p516
aVhttp://dbpedia.org/ontology/PopulatedPlace/areaTotal
p517
aVhttp://dbpedia.org/property/populationEstimateYear
p518
aVhttp://www.w3.org/2000/01/rdf-schema#comment
p519
aVhttp://purl.org/voc/vrank#hasRank
p520
aVhttp://dbpedia.org/property/citizenship
p521
aVhttp://dbpedia.org/ontology/headquarter
p522
aVhttp://dbpedia.org/property/asianPlace
p523
aVhttp://dbpedia.org/property/residence
p524
aVhttp://dbpedia.org/ontology/birthPlace
p525
aVhttp://dbpedia.org/property/stadium
p526
aVhttp://dbpedia.org/ontology/homeStadium
p527
asI7
(lp528
Vhttp://dbpedia.org/property/placeOfDeath
p529
aVhttp://dbpedia.org/ontology/country
p530
aVhttp://www.w3.org/1999/02/22-rdf-syntax-ns#type
p531
aVhttp://dbpedia.org/property/recorded
p532
aVhttp://dbpedia.org/property/placeOfResidence
p533
aVhttp://www.w3.org/2000/01/rdf-schema#comment
p534
aVhttp://www.w3.org/2002/07/owl#sameAs
p535
aVhttp://dbpedia.org/ontology/abstract
p536
aVhttp://dbpedia.org/ontology/recordedIn
p537
aVhttp://dbpedia.org/property/deathPlace
p538
aVhttp://dbpedia.org/property/birthPlace
p539
aVhttp://dbpedia.org/ontology/deathPlace
p540
aVhttp://dbpedia.org/property/locationSigned
p541
aVhttp://dbpedia.org/property/rd2t3Loc
p542
aVhttp://dbpedia.org/ontology/birthPlace
p543
aVhttp://dbpedia.org/property/stadium
p544
aVhttp://dbpedia.org/property/placeOfBirth
p545
assI2
(dp546
I0
g383
sI1
g394
sI2
(lp547
sI3
(lp548
sI4
(lp549
sI5
(lp550
Vhttp://dbpedia.org/ontology/utcOffset
p551
aVhttp://www.georss.org/georss/point
p552
aVhttp://www.w3.org/2000/01/rdf-schema#comment
p553
aVhttp://dbpedia.org/ontology/abstract
p554
aVhttp://dbpedia.org/property/hasPhotoCollection
p555
aVhttp://www.w3.org/2002/07/owl#sameAs
p556
asI6
(lp557
Vhttp://www.georss.org/georss/point
p558
aVhttp://www.w3.org/2000/01/rdf-schema#comment
p559
aVhttp://dbpedia.org/ontology/postalCode
p560
aVhttp://dbpedia.org/ontology/abstract
p561
aVhttp://dbpedia.org/ontology/PopulatedPlace/areaTotal
p562
aVhttp://www.w3.org/1999/02/22-rdf-syntax-ns#type
p563
aVhttp://www.w3.org/ns/prov#wasDerivedFrom
p564
aVhttp://purl.org/voc/vrank#hasRank
p565
aVhttp://dbpedia.org/ontology/PopulatedPlace/populationDensity
p566
aVhttp://www.w3.org/2002/07/owl#sameAs
p567
asI7
(lp568
Vhttp://www.w3.org/ns/prov#wasDerivedFrom
p569
aVhttp://www.w3.org/1999/02/22-rdf-syntax-ns#type
p570
assI3
(dp571
I0
g386
sI1
g397
sI2
g548
sI3
(lp572
sI4
(lp573
Vhttp://dbpedia.org/ontology/abstract
p574
asI5
(lp575
Vhttp://www.w3.org/2000/01/rdf-schema#comment
p576
aVhttp://dbpedia.org/property/hasPhotoCollection
p577
aVhttp://xmlns.com/foaf/0.1/depiction
p578
aVhttp://dbpedia.org/ontology/abstract
p579
aVhttp://dbpedia.org/ontology/thumbnail
p580
asI6
(lp581
Vhttp://purl.org/dc/terms/subject
p582
aVhttp://www.w3.org/2000/01/rdf-schema#comment
p583
aVhttp://dbpedia.org/ontology/abstract
p584
aVhttp://purl.org/voc/vrank#hasRank
p585
aVhttp://www.w3.org/ns/prov#wasDerivedFrom
p586
aVhttp://www.w3.org/2002/07/owl#sameAs
p587
asI7
(lp588
ssI4
(dp589
I0
g388
sI1
g398
sI2
g549
sI3
g573
sI4
(lp590
sI5
(lp591
sI6
(lp592
sI7
(lp593
ssI5
(dp594
I0
g389
sI1
g399
sI2
g550
sI3
g575
sI4
g591
sI5
(lp595
sI6
(lp596
sI7
(lp597
ssI6
(dp598
I0
g390
sI1
g468
sI2
g557
sI3
g581
sI4
g592
sI5
g596
sI6
(lp599
sI7
(lp600
ssI7
(dp601
I0
g391
sI1
g528
sI2
g568
sI3
g588
sI4
g593
sI5
g597
sI6
g600
sI7
(lp602
ssa(dp603
I0
(dp604
I0
(lp605
sI1
(lp606
Vhttp://dbpedia.org/property/origin
p607
aVhttp://dbpedia.org/ontology/country
p608
aVhttp://www.w3.org/1999/02/22-rdf-syntax-ns#type
p609
aVhttp://dbpedia.org/ontology/assembly
p610
aVhttp://dbpedia.org/ontology/location
p611
aVhttp://dbpedia.org/property/hostCity
p612
aVhttp://dbpedia.org/ontology/origin
p613
aVhttp://dbpedia.org/ontology/firstDriverCountry
p614
aVhttp://dbpedia.org/property/assembly
p615
aVhttp://dbpedia.org/property/deathPlace
p616
aVhttp://dbpedia.org/property/location
p617
aVhttp://dbpedia.org/property/venue
p618
aVhttp://www.w3.org/2002/07/owl#sameAs
p619
aVhttp://dbpedia.org/ontology/deathPlace
p620
aVhttp://dbpedia.org/property/placeOfDeath
p621
aVhttp://dbpedia.org/property/country
p622
aVhttp://dbpedia.org/property/hasPhotoCollection
p623
aVhttp://dbpedia.org/property/nationalOrigin
p624
aVhttp://dbpedia.org/property/headquarters
p625
asI2
(lp626
Vhttp://dbpedia.org/property/origin
p627
aVhttp://dbpedia.org/ontology/country
p628
aVhttp://www.w3.org/1999/02/22-rdf-syntax-ns#type
p629
aVhttp://dbpedia.org/ontology/assembly
p630
aVhttp://dbpedia.org/ontology/location
p631
aVhttp://dbpedia.org/property/hostCity
p632
aVhttp://dbpedia.org/ontology/origin
p633
aVhttp://dbpedia.org/ontology/firstDriverCountry
p634
aVhttp://dbpedia.org/property/assembly
p635
aVhttp://dbpedia.org/property/deathPlace
p636
aVhttp://dbpedia.org/property/location
p637
aVhttp://dbpedia.org/property/venue
p638
aVhttp://www.w3.org/2002/07/owl#sameAs
p639
aVhttp://dbpedia.org/ontology/deathPlace
p640
aVhttp://dbpedia.org/property/placeOfDeath
p641
aVhttp://dbpedia.org/property/country
p642
aVhttp://dbpedia.org/property/hasPhotoCollection
p643
aVhttp://dbpedia.org/property/nationalOrigin
p644
aVhttp://dbpedia.org/property/headquarters
p645
asI3
(lp646
Vhttp://dbpedia.org/property/hasPhotoCollection
p647
aVhttp://www.w3.org/1999/02/22-rdf-syntax-ns#type
p648
asI4
(lp649
sI5
(lp650
sI6
(lp651
sI7
(lp652
ssI1
(dp653
I0
g606
sI1
(lp654
sI2
(lp655
Vhttp://dbpedia.org/property/origin
p656
aVhttp://dbpedia.org/property/placeOfDeath
p657
aVhttp://dbpedia.org/property/broadcastArea
p658
aVhttp://dbpedia.org/property/sovereigntyType
p659
aVhttp://www.w3.org/ns/prov#wasDerivedFrom
p660
aVhttp://dbpedia.org/ontology/fastestDriverCountry
p661
aVhttp://dbpedia.org/ontology/demonym
p662
aVhttp://dbpedia.org/ontology/regionServed
p663
aVhttp://dbpedia.org/ontology/nationality
p664
aVhttp://xmlns.com/foaf/0.1/isPrimaryTopicOf
p665
aVhttp://dbpedia.org/property/byCountry
p666
aVhttp://dbpedia.org/property/establishedEvent
p667
aVhttp://dbpedia.org/property/nationality
p668
aVhttp://dbpedia.org/ontology/abstract
p669
aVhttp://dbpedia.org/ontology/recordedIn
p670
aVhttp://dbpedia.org/ontology/architecturalStyle
p671
aVhttp://dbpedia.org/ontology/location
p672
aVhttp://dbpedia.org/property/imageMap
p673
aVhttp://dbpedia.org/property/officialLanguages
p674
aVhttp://dbpedia.org/property/area
p675
aVhttp://dbpedia.org/ontology/hometown
p676
aVhttp://dbpedia.org/ontology/spokenIn
p677
aVhttp://dbpedia.org/property/leaderTitle
p678
aVhttp://www.w3.org/2000/01/rdf-schema#seeAlso
p679
aVhttp://dbpedia.org/ontology/wikiPageExternalLink
p680
aVhttp://dbpedia.org/property/hostCity
p681
aVhttp://dbpedia.org/property/conventionalLongName
p682
aVhttp://dbpedia.org/ontology/foundationPlace
p683
aVhttp://dbpedia.org/ontology/poleDriverCountry
p684
aVhttp://dbpedia.org/ontology/locatedInArea
p685
aVhttp://dbpedia.org/ontology/officialLanguage
p686
aVhttp://dbpedia.org/ontology/country
p687
aVhttp://dbpedia.org/property/birthPlace
p688
aVhttp://dbpedia.org/property/country/region
p689
aVhttp://dbpedia.org/property/country
p690
aVhttp://dbpedia.org/ontology/county
p691
aVhttp://xmlns.com/foaf/0.1/primaryTopic
p692
aVhttp://dbpedia.org/ontology/campus
p693
aVhttp://dbpedia.org/ontology/firstDriverCountry
p694
aVhttp://dbpedia.org/property/states
p695
aVhttp://dbpedia.org/ontology/locationCountry
p696
aVhttp://dbpedia.org/ontology/deathPlace
p697
aVhttp://dbpedia.org/property/hasPhotoCollection
p698
aVhttp://dbpedia.org/property/locationSigned
p699
aVhttp://dbpedia.org/property/headquarters
p700
aVhttp://dbpedia.org/ontology/birthPlace
p701
aVhttp://dbpedia.org/ontology/wikiPageRedirects
p702
aVhttp://dbpedia.org/property/citizenship
p703
aVhttp://dbpedia.org/property/imageCoat
p704
aVhttp://dbpedia.org/ontology/stateOfOrigin
p705
aVhttp://www.w3.org/2002/07/owl#sameAs
p706
aVhttp://dbpedia.org/property/recorded
p707
aVhttp://dbpedia.org/ontology/longName
p708
aVhttp://www.w3.org/1999/02/22-rdf-syntax-ns#type
p709
aVhttp://dbpedia.org/property/locationCountry
p710
aVhttp://dbpedia.org/ontology/secondDriverCountry
p711
aVhttp://dbpedia.org/property/winnerOrigin
p712
aVhttp://dbpedia.org/property/namedAfter
p713
aVhttp://dbpedia.org/property/shipCountry
p714
aVhttp://dbpedia.org/property/placeOfBirth
p715
aVhttp://xmlns.com/foaf/0.1/depiction
p716
aVhttp://dbpedia.org/property/observedby
p717
aVhttp://dbpedia.org/ontology/flag
p718
aVhttp://dbpedia.org/property/commonName
p719
aVhttp://dbpedia.org/property/subdivisionName
p720
aVhttp://dbpedia.org/property/locationCity
p721
aVhttp://dbpedia.org/property/nat
p722
aVhttp://dbpedia.org/ontology/broadcastArea
p723
aVhttp://dbpedia.org/property/stadium
p724
aVhttp://dbpedia.org/property/place
p725
aVhttp://dbpedia.org/property/footnoteA
p726
aVhttp://dbpedia.org/property/caption
p727
aVhttp://dbpedia.org/ontology/thirdDriverCountry
p728
aVhttp://www.w3.org/2002/07/owl#differentFrom
p729
aVhttp://dbpedia.org/property/upperHouse
p730
aVhttp://dbpedia.org/property/locations
p731
aVhttp://dbpedia.org/ontology/place
p732
aVhttp://dbpedia.org/property/language
p733
aVhttp://dbpedia.org/property/imageFlag
p734
aVhttp://dbpedia.org/ontology/wikiPageDisambiguates
p735
aVhttp://purl.org/dc/terms/subject
p736
aVhttp://dbpedia.org/ontology/populationPlace
p737
aVhttp://dbpedia.org/property/location
p738
aVhttp://dbpedia.org/property/armiger
p739
aVhttp://dbpedia.org/ontology/headquarter
p740
aVhttp://dbpedia.org/property/foundation
p741
aVhttp://www.w3.org/2000/01/rdf-schema#label
p742
aVhttp://dbpedia.org/ontology/language
p743
aVhttp://dbpedia.org/property/title
p744
aVhttp://dbpedia.org/property/basinCountries
p745
aVhttp://www.w3.org/2000/01/rdf-schema#comment
p746
aVhttp://dbpedia.org/property/seat
p747
aVhttp://dbpedia.org/property/demonym
p748
aVhttp://dbpedia.org/property/regionServed
p749
aVhttp://xmlns.com/foaf/0.1/name
p750
aVhttp://dbpedia.org/ontology/locationCity
p751
aVhttp://dbpedia.org/property/buried
p752
aVhttp://dbpedia.org/ontology/thumbnail
p753
asI3
(lp754
sI4
(lp755
sI5
(lp756
Vhttp://dbpedia.org/property/placeOfDeath
p757
aVhttp://dbpedia.org/property/origin
p758
aVhttp://dbpedia.org/property/locations
p759
aVhttp://dbpedia.org/ontology/wineRegion
p760
aVhttp://dbpedia.org/property/ethnicity
p761
aVhttp://dbpedia.org/property/territory
p762
aVhttp://dbpedia.org/ontology/regionServed
p763
aVhttp://dbpedia.org/property/dateOfBirth
p764
aVhttp://dbpedia.org/property/lage
p765
aVhttp://dbpedia.org/property/assembly
p766
aVhttp://dbpedia.org/ontology/nationality
p767
aVhttp://dbpedia.org/property/shortDescription
p768
aVhttp://dbpedia.org/property/placeOfBirth
p769
aVhttp://dbpedia.org/property/primaryUser
p770
aVhttp://dbpedia.org/ontology/residence
p771
aVhttp://dbpedia.org/ontology/abstract
p772
aVhttp://dbpedia.org/ontology/recordedIn
p773
aVhttp://dbpedia.org/property/venue
p774
aVhttp://dbpedia.org/property/usedBy
p775
aVhttp://dbpedia.org/property/nationalOrigin
p776
aVhttp://dbpedia.org/property/imageMap
p777
aVhttp://dbpedia.org/property/shipBuilder
p778
aVhttp://dbpedia.org/ontology/location
p779
aVhttp://dbpedia.org/property/city
p780
aVhttp://dbpedia.org/ontology/wikiPageExternalLink
p781
aVhttp://dbpedia.org/property/factory
p782
aVhttp://dbpedia.org/ontology/hometown
p783
aVhttp://dbpedia.org/ontology/restingPlace
p784
aVhttp://dbpedia.org/property/silver
p785
aVhttp://dbpedia.org/ontology/spokenIn
p786
aVhttp://dbpedia.org/property/foundingLocation
p787
aVhttp://dbpedia.org/property/builders
p788
aVhttp://www.w3.org/2000/01/rdf-schema#seeAlso
p789
aVhttp://dbpedia.org/property/isolation
p790
aVhttp://dbpedia.org/property/restingPlace
p791
aVhttp://dbpedia.org/ontology/foundationPlace
p792
aVhttp://dbpedia.org/property/base
p793
aVhttp://dbpedia.org/ontology/locatedInArea
p794
aVhttp://dbpedia.org/property/placeOfBurial
p795
aVhttp://dbpedia.org/ontology/country
p796
aVhttp://dbpedia.org/property/region
p797
aVhttp://dbpedia.org/property/home
p798
aVhttp://dbpedia.org/property/countryOrigin
p799
aVhttp://dbpedia.org/property/birthPlace
p800
aVhttp://dbpedia.org/property/stateParty
p801
aVhttp://dbpedia.org/property/country
p802
aVhttp://dbpedia.org/property/areaServed
p803
aVhttp://dbpedia.org/ontology/county
p804
aVhttp://dbpedia.org/property/diaspora
p805
aVhttp://dbpedia.org/property/deathPlace
p806
aVhttp://dbpedia.org/property/states
p807
aVhttp://dbpedia.org/ontology/locationCountry
p808
aVhttp://dbpedia.org/ontology/deathPlace
p809
aVhttp://dbpedia.org/property/hasPhotoCollection
p810
aVhttp://dbpedia.org/property/cityServed
p811
aVhttp://dbpedia.org/property/headquarters
p812
aVhttp://dbpedia.org/property/dateOfDeath
p813
aVhttp://dbpedia.org/ontology/birthPlace
p814
aVhttp://dbpedia.org/ontology/wikiPageRedirects
p815
aVhttp://dbpedia.org/property/citizenship
p816
aVhttp://dbpedia.org/ontology/stateOfOrigin
p817
aVhttp://www.w3.org/2002/07/owl#sameAs
p818
aVhttp://dbpedia.org/property/placeofdeath
p819
aVhttp://dbpedia.org/property/recorded
p820
aVhttp://dbpedia.org/ontology/origin
p821
aVhttp://dbpedia.org/property/today
p822
aVhttp://dbpedia.org/property/residence
p823
aVhttp://dbpedia.org/property/moreUsers
p824
aVhttp://www.w3.org/1999/02/22-rdf-syntax-ns#type
p825
aVhttp://dbpedia.org/property/locationCountry
p826
aVhttp://dbpedia.org/ontology/sourceCountry
p827
aVhttp://dbpedia.org/property/streetaddress
p828
aVhttp://dbpedia.org/property/shipCountry
p829
aVhttp://dbpedia.org/ontology/countryOrigin
p830
aVhttp://dbpedia.org/ontology/city
p831
aVhttp://dbpedia.org/property/subdivisionName
p832
aVhttp://www.w3.org/2000/01/rdf-schema#comment
p833
aVhttp://dbpedia.org/property/destination
p834
aVhttp://dbpedia.org/property/locationCity
p835
aVhttp://dbpedia.org/property/stadium
p836
aVhttp://dbpedia.org/property/terminusB
p837
aVhttp://dbpedia.org/property/almaMater
p838
aVhttp://dbpedia.org/property/membership
p839
aVhttp://dbpedia.org/property/place
p840
aVhttp://dbpedia.org/ontology/citizenship
p841
aVhttp://dbpedia.org/property/caption
p842
aVhttp://dbpedia.org/property/team
p843
aVhttp://dbpedia.org/property/allegiance
p844
aVhttp://dbpedia.org/property/image
p845
aVhttp://dbpedia.org/ontology/place
p846
aVhttp://dbpedia.org/property/office
p847
aVhttp://dbpedia.org/property/nationality
p848
aVhttp://purl.org/dc/terms/subject
p849
aVhttp://dbpedia.org/ontology/populationPlace
p850
aVhttp://dbpedia.org/property/location
p851
aVhttp://dbpedia.org/property/regions
p852
aVhttp://dbpedia.org/ontology/headquarter
p853
aVhttp://dbpedia.org/property/foundation
p854
aVhttp://dbpedia.org/ontology/language
p855
aVhttp://dbpedia.org/property/shipRegistry
p856
aVhttp://dbpedia.org/property/locale
p857
aVhttp://dbpedia.org/property/basinCountries
p858
aVhttp://dbpedia.org/ontology/assembly
p859
aVhttp://dbpedia.org/property/address
p860
aVhttp://dbpedia.org/property/regionServed
p861
aVhttp://dbpedia.org/ontology/builder
p862
aVhttp://dbpedia.org/ontology/locationCity
p863
asI6
(lp864
Vhttp://dbpedia.org/property/origin
p865
aVhttp://dbpedia.org/property/placeOfDeath
p866
aVhttp://dbpedia.org/ontology/origin
p867
aVhttp://dbpedia.org/property/place
p868
aVhttp://dbpedia.org/ontology/country
p869
aVhttp://dbpedia.org/property/home
p870
aVhttp://dbpedia.org/property/referee
p871
aVhttp://dbpedia.org/property/assembly
p872
aVhttp://dbpedia.org/ontology/ground
p873
aVhttp://dbpedia.org/property/birthPlace
p874
aVhttp://dbpedia.org/ontology/place
p875
aVhttp://dbpedia.org/property/placeOfBirth
p876
aVhttp://dbpedia.org/property/country
p877
aVhttp://dbpedia.org/ontology/abstract
p878
aVhttp://dbpedia.org/property/venue
p879
aVhttp://dbpedia.org/property/deathPlace
p880
aVhttp://dbpedia.org/property/location
p881
aVhttp://dbpedia.org/ontology/builder
p882
aVhttp://dbpedia.org/ontology/homeStadium
p883
aVhttp://dbpedia.org/ontology/assembly
p884
aVhttp://dbpedia.org/property/usedBy
p885
aVhttp://dbpedia.org/property/nationalOrigin
p886
aVhttp://dbpedia.org/ontology/homeport
p887
aVhttp://dbpedia.org/property/shipBuilder
p888
aVhttp://dbpedia.org/ontology/birthPlace
p889
aVhttp://dbpedia.org/property/rd1t1Loc
p890
aVhttp://www.w3.org/2002/07/owl#sameAs
p891
aVhttp://dbpedia.org/property/stadium
p892
aVhttp://dbpedia.org/ontology/deathPlace
p893
asI7
(lp894
Vhttp://dbpedia.org/property/origin
p895
aVhttp://dbpedia.org/property/placeOfDeath
p896
aVhttp://dbpedia.org/property/hostCity
p897
aVhttp://dbpedia.org/ontology/origin
p898
aVhttp://dbpedia.org/property/worldPlace
p899
aVhttp://dbpedia.org/ontology/garrison
p900
aVhttp://dbpedia.org/property/site
p901
aVhttp://dbpedia.org/ontology/country
p902
aVhttp://www.w3.org/1999/02/22-rdf-syntax-ns#type
p903
aVhttp://dbpedia.org/property/home
p904
aVhttp://dbpedia.org/property/assembly
p905
aVhttp://dbpedia.org/ontology/ground
p906
aVhttp://dbpedia.org/property/birthPlace
p907
aVhttp://dbpedia.org/ontology/language
p908
aVhttp://dbpedia.org/property/country
p909
aVhttp://dbpedia.org/property/rallybase
p910
aVhttp://dbpedia.org/property/gdpNominal
p911
aVhttp://dbpedia.org/ontology/abstract
p912
aVhttp://dbpedia.org/property/rd1t8Loc
p913
aVhttp://dbpedia.org/property/venue
p914
aVhttp://dbpedia.org/property/deathPlace
p915
aVhttp://dbpedia.org/property/location
p916
aVhttp://dbpedia.org/ontology/builder
p917
aVhttp://dbpedia.org/ontology/deathPlace
p918
aVhttp://dbpedia.org/property/stopover
p919
aVhttp://dbpedia.org/property/gdpPpp
p920
aVhttp://dbpedia.org/property/debuts
p921
aVhttp://dbpedia.org/property/nationalOrigin
p922
aVhttp://dbpedia.org/ontology/assembly
p923
aVhttp://dbpedia.org/ontology/location
p924
aVhttp://www.w3.org/2000/01/rdf-schema#comment
p925
aVhttp://dbpedia.org/ontology/birthPlace
p926
aVhttp://dbpedia.org/property/placeOfBirth
p927
aVhttp://dbpedia.org/property/silver
p928
aVhttp://dbpedia.org/property/stadium
p929
aVhttp://dbpedia.org/ontology/homeStadium
p930
assI2
(dp931
I0
g626
sI1
g655
sI2
(lp932
sI3
(lp933
sI4
(lp934
sI5
(lp935
Vhttp://dbpedia.org/property/placeOfDeath
p936
aVhttp://dbpedia.org/property/origin
p937
aVhttp://dbpedia.org/property/locations
p938
aVhttp://dbpedia.org/ontology/wineRegion
p939
aVhttp://dbpedia.org/property/ethnicity
p940
aVhttp://dbpedia.org/property/territory
p941
aVhttp://dbpedia.org/ontology/regionServed
p942
aVhttp://dbpedia.org/property/dateOfBirth
p943
aVhttp://dbpedia.org/property/lage
p944
aVhttp://dbpedia.org/property/assembly
p945
aVhttp://dbpedia.org/ontology/nationality
p946
aVhttp://dbpedia.org/property/shortDescription
p947
aVhttp://dbpedia.org/property/placeOfBirth
p948
aVhttp://dbpedia.org/property/primaryUser
p949
aVhttp://dbpedia.org/ontology/residence
p950
aVhttp://dbpedia.org/ontology/abstract
p951
aVhttp://dbpedia.org/ontology/recordedIn
p952
aVhttp://dbpedia.org/property/venue
p953
aVhttp://dbpedia.org/property/usedBy
p954
aVhttp://dbpedia.org/property/nationalOrigin
p955
aVhttp://dbpedia.org/property/imageMap
p956
aVhttp://dbpedia.org/property/shipBuilder
p957
aVhttp://dbpedia.org/ontology/location
p958
aVhttp://dbpedia.org/property/city
p959
aVhttp://dbpedia.org/ontology/wikiPageExternalLink
p960
aVhttp://dbpedia.org/property/factory
p961
aVhttp://dbpedia.org/ontology/hometown
p962
aVhttp://dbpedia.org/ontology/restingPlace
p963
aVhttp://dbpedia.org/property/silver
p964
aVhttp://dbpedia.org/ontology/spokenIn
p965
aVhttp://dbpedia.org/property/foundingLocation
p966
aVhttp://dbpedia.org/property/builders
p967
aVhttp://www.w3.org/2000/01/rdf-schema#seeAlso
p968
aVhttp://dbpedia.org/property/isolation
p969
aVhttp://dbpedia.org/property/restingPlace
p970
aVhttp://dbpedia.org/ontology/foundationPlace
p971
aVhttp://dbpedia.org/property/base
p972
aVhttp://dbpedia.org/ontology/locatedInArea
p973
aVhttp://dbpedia.org/property/placeOfBurial
p974
aVhttp://dbpedia.org/ontology/country
p975
aVhttp://dbpedia.org/property/region
p976
aVhttp://dbpedia.org/property/home
p977
aVhttp://dbpedia.org/property/countryOrigin
p978
aVhttp://dbpedia.org/property/birthPlace
p979
aVhttp://dbpedia.org/property/stateParty
p980
aVhttp://dbpedia.org/property/country
p981
aVhttp://dbpedia.org/property/areaServed
p982
aVhttp://dbpedia.org/ontology/county
p983
aVhttp://dbpedia.org/property/diaspora
p984
aVhttp://dbpedia.org/property/deathPlace
p985
aVhttp://dbpedia.org/property/states
p986
aVhttp://dbpedia.org/ontology/locationCountry
p987
aVhttp://dbpedia.org/ontology/deathPlace
p988
aVhttp://dbpedia.org/property/hasPhotoCollection
p989
aVhttp://dbpedia.org/property/cityServed
p990
aVhttp://dbpedia.org/property/headquarters
p991
aVhttp://dbpedia.org/property/dateOfDeath
p992
aVhttp://dbpedia.org/ontology/birthPlace
p993
aVhttp://dbpedia.org/ontology/wikiPageRedirects
p994
aVhttp://dbpedia.org/property/citizenship
p995
aVhttp://dbpedia.org/ontology/stateOfOrigin
p996
aVhttp://www.w3.org/2002/07/owl#sameAs
p997
aVhttp://dbpedia.org/property/placeofdeath
p998
aVhttp://dbpedia.org/property/recorded
p999
aVhttp://dbpedia.org/ontology/origin
p1000
aVhttp://dbpedia.org/property/today
p1001
aVhttp://dbpedia.org/property/residence
p1002
aVhttp://dbpedia.org/property/moreUsers
p1003
aVhttp://www.w3.org/1999/02/22-rdf-syntax-ns#type
p1004
aVhttp://dbpedia.org/property/locationCountry
p1005
aVhttp://dbpedia.org/ontology/sourceCountry
p1006
aVhttp://dbpedia.org/property/streetaddress
p1007
aVhttp://dbpedia.org/property/shipCountry
p1008
aVhttp://dbpedia.org/ontology/countryOrigin
p1009
aVhttp://dbpedia.org/ontology/city
p1010
aVhttp://dbpedia.org/property/subdivisionName
p1011
aVhttp://www.w3.org/2000/01/rdf-schema#comment
p1012
aVhttp://dbpedia.org/property/destination
p1013
aVhttp://dbpedia.org/property/locationCity
p1014
aVhttp://dbpedia.org/property/stadium
p1015
aVhttp://dbpedia.org/property/terminusB
p1016
aVhttp://dbpedia.org/property/almaMater
p1017
aVhttp://dbpedia.org/property/membership
p1018
aVhttp://dbpedia.org/property/place
p1019
aVhttp://dbpedia.org/ontology/citizenship
p1020
aVhttp://dbpedia.org/property/caption
p1021
aVhttp://dbpedia.org/property/team
p1022
aVhttp://dbpedia.org/property/allegiance
p1023
aVhttp://dbpedia.org/property/image
p1024
aVhttp://dbpedia.org/ontology/place
p1025
aVhttp://dbpedia.org/property/office
p1026
aVhttp://dbpedia.org/property/nationality
p1027
aVhttp://purl.org/dc/terms/subject
p1028
aVhttp://dbpedia.org/ontology/populationPlace
p1029
aVhttp://dbpedia.org/property/location
p1030
aVhttp://dbpedia.org/property/regions
p1031
aVhttp://dbpedia.org/ontology/headquarter
p1032
aVhttp://dbpedia.org/property/foundation
p1033
aVhttp://dbpedia.org/ontology/language
p1034
aVhttp://dbpedia.org/property/shipRegistry
p1035
aVhttp://dbpedia.org/property/locale
p1036
aVhttp://dbpedia.org/property/basinCountries
p1037
aVhttp://dbpedia.org/ontology/assembly
p1038
aVhttp://dbpedia.org/property/address
p1039
aVhttp://dbpedia.org/property/regionServed
p1040
aVhttp://dbpedia.org/ontology/builder
p1041
aVhttp://dbpedia.org/ontology/locationCity
p1042
asI6
(lp1043
Vhttp://dbpedia.org/property/origin
p1044
aVhttp://dbpedia.org/property/placeOfDeath
p1045
aVhttp://dbpedia.org/ontology/origin
p1046
aVhttp://dbpedia.org/property/place
p1047
aVhttp://dbpedia.org/ontology/country
p1048
aVhttp://dbpedia.org/property/home
p1049
aVhttp://dbpedia.org/property/referee
p1050
aVhttp://dbpedia.org/property/assembly
p1051
aVhttp://dbpedia.org/ontology/ground
p1052
aVhttp://dbpedia.org/property/birthPlace
p1053
aVhttp://dbpedia.org/ontology/place
p1054
aVhttp://dbpedia.org/property/placeOfBirth
p1055
aVhttp://dbpedia.org/property/country
p1056
aVhttp://dbpedia.org/ontology/abstract
p1057
aVhttp://dbpedia.org/property/venue
p1058
aVhttp://dbpedia.org/property/deathPlace
p1059
aVhttp://dbpedia.org/property/location
p1060
aVhttp://dbpedia.org/ontology/builder
p1061
aVhttp://dbpedia.org/ontology/homeStadium
p1062
aVhttp://dbpedia.org/ontology/assembly
p1063
aVhttp://dbpedia.org/property/usedBy
p1064
aVhttp://dbpedia.org/property/nationalOrigin
p1065
aVhttp://dbpedia.org/ontology/homeport
p1066
aVhttp://dbpedia.org/property/shipBuilder
p1067
aVhttp://dbpedia.org/ontology/birthPlace
p1068
aVhttp://dbpedia.org/property/rd1t1Loc
p1069
aVhttp://www.w3.org/2002/07/owl#sameAs
p1070
aVhttp://dbpedia.org/property/stadium
p1071
aVhttp://dbpedia.org/ontology/deathPlace
p1072
asI7
(lp1073
Vhttp://dbpedia.org/property/origin
p1074
aVhttp://dbpedia.org/property/placeOfDeath
p1075
aVhttp://dbpedia.org/property/hostCity
p1076
aVhttp://dbpedia.org/ontology/origin
p1077
aVhttp://dbpedia.org/property/worldPlace
p1078
aVhttp://dbpedia.org/ontology/garrison
p1079
aVhttp://dbpedia.org/property/site
p1080
aVhttp://dbpedia.org/ontology/country
p1081
aVhttp://www.w3.org/1999/02/22-rdf-syntax-ns#type
p1082
aVhttp://dbpedia.org/property/home
p1083
aVhttp://dbpedia.org/property/assembly
p1084
aVhttp://dbpedia.org/ontology/ground
p1085
aVhttp://dbpedia.org/property/birthPlace
p1086
aVhttp://dbpedia.org/ontology/language
p1087
aVhttp://dbpedia.org/property/country
p1088
aVhttp://dbpedia.org/property/rallybase
p1089
aVhttp://dbpedia.org/property/gdpNominal
p1090
aVhttp://dbpedia.org/ontology/abstract
p1091
aVhttp://dbpedia.org/property/rd1t8Loc
p1092
aVhttp://dbpedia.org/property/venue
p1093
aVhttp://dbpedia.org/property/deathPlace
p1094
aVhttp://dbpedia.org/property/location
p1095
aVhttp://dbpedia.org/ontology/builder
p1096
aVhttp://dbpedia.org/ontology/deathPlace
p1097
aVhttp://dbpedia.org/property/stopover
p1098
aVhttp://dbpedia.org/property/gdpPpp
p1099
aVhttp://dbpedia.org/property/debuts
p1100
aVhttp://dbpedia.org/property/nationalOrigin
p1101
aVhttp://dbpedia.org/ontology/assembly
p1102
aVhttp://dbpedia.org/ontology/location
p1103
aVhttp://www.w3.org/2000/01/rdf-schema#comment
p1104
aVhttp://dbpedia.org/ontology/birthPlace
p1105
aVhttp://dbpedia.org/property/placeOfBirth
p1106
aVhttp://dbpedia.org/property/silver
p1107
aVhttp://dbpedia.org/property/stadium
p1108
aVhttp://dbpedia.org/ontology/homeStadium
p1109
assI3
(dp1110
I0
g646
sI1
g754
sI2
g933
sI3
(lp1111
sI4
(lp1112
Vhttp://dbpedia.org/ontology/abstract
p1113
asI5
(lp1114
Vhttp://dbpedia.org/ontology/abstract
p1115
aVhttp://dbpedia.org/property/hasPhotoCollection
p1116
aVhttp://www.w3.org/2002/07/owl#sameAs
p1117
aVhttp://www.w3.org/2000/01/rdf-schema#comment
p1118
asI6
(lp1119
Vhttp://www.w3.org/1999/02/22-rdf-syntax-ns#type
p1120
asI7
(lp1121
Vhttp://www.w3.org/1999/02/22-rdf-syntax-ns#type
p1122
assI4
(dp1123
I0
g649
sI1
g755
sI2
g934
sI3
g1112
sI4
(lp1124
sI5
(lp1125
sI6
(lp1126
sI7
(lp1127
ssI5
(dp1128
I0
g650
sI1
g756
sI2
g935
sI3
g1114
sI4
g1125
sI5
(lp1129
sI6
(lp1130
sI7
(lp1131
ssI6
(dp1132
I0
g651
sI1
g864
sI2
g1043
sI3
g1119
sI4
g1126
sI5
g1130
sI6
(lp1133
sI7
(lp1134
ssI7
(dp1135
I0
g652
sI1
g894
sI2
g1073
sI3
g1121
sI4
g1127
sI5
g1131
sI6
g1134
sI7
(lp1136
ssa(dp1137
I0
(dp1138
I0
(lp1139
sI1
(lp1140
Vhttp://dbpedia.org/property/gdpNominalPerCapita
p1141
aVhttp://purl.org/voc/vrank#hasRank
p1142
aVhttp://dbpedia.org/property/2rpt1Loc
p1143
aVhttp://dbpedia.org/property/location
p1144
asI2
(lp1145
Vhttp://www.w3.org/2002/07/owl#sameAs
p1146
asI3
(lp1147
sI4
(lp1148
sI5
(lp1149
sI6
(lp1150
sI7
(lp1151
ssI1
(dp1152
I0
g1140
sI1
(lp1153
sI2
(lp1154
Vhttp://dbpedia.org/ontology/country
p1155
aVhttp://purl.org/dc/terms/subject
p1156
aVhttp://dbpedia.org/property/officialLanguages
p1157
aVhttp://www.w3.org/2000/01/rdf-schema#comment
p1158
aVhttp://dbpedia.org/ontology/abstract
p1159
aVhttp://dbpedia.org/ontology/wikiPageRedirects
p1160
aVhttp://dbpedia.org/property/location
p1161
aVhttp://dbpedia.org/ontology/headquarter
p1162
aVhttp://dbpedia.org/ontology/spokenIn
p1163
aVhttp://dbpedia.org/property/country
p1164
aVhttp://dbpedia.org/ontology/officialLanguage
p1165
aVhttp://dbpedia.org/ontology/language
p1166
aVhttp://dbpedia.org/ontology/location
p1167
asI3
(lp1168
sI4
(lp1169
sI5
(lp1170
sI6
(lp1171
Vhttp://www.w3.org/2000/01/rdf-schema#seeAlso
p1172
aVhttp://dbpedia.org/property/origin
p1173
aVhttp://dbpedia.org/property/hostCity
p1174
aVhttp://dbpedia.org/property/worldPlace
p1175
aVhttp://dbpedia.org/ontology/PopulatedPlace/areaTotal
p1176
aVhttp://dbpedia.org/property/placeOfDeath
p1177
aVhttp://www.w3.org/ns/prov#wasDerivedFrom
p1178
aVhttp://dbpedia.org/property/placeOfBurial
p1179
aVhttp://dbpedia.org/ontology/PopulatedPlace/populationDensity
p1180
aVhttp://dbpedia.org/property/rd1t7Loc
p1181
aVhttp://dbpedia.org/ontology/country
p1182
aVhttp://www.w3.org/1999/02/22-rdf-syntax-ns#type
p1183
aVhttp://dbpedia.org/property/rd1t5Loc
p1184
aVhttp://dbpedia.org/property/withdraws
p1185
aVhttp://dbpedia.org/property/source
p1186
aVhttp://dbpedia.org/property/birthPlace
p1187
aVhttp://dbpedia.org/ontology/place
p1188
aVhttp://dbpedia.org/property/placeOfBirth
p1189
aVhttp://dbpedia.org/property/country
p1190
aVhttp://dbpedia.org/ontology/abstract
p1191
aVhttp://dbpedia.org/property/venue
p1192
aVhttp://dbpedia.org/property/location
p1193
aVhttp://dbpedia.org/property/bgcolor
p1194
aVhttp://dbpedia.org/ontology/deathPlace
p1195
aVhttp://dbpedia.org/property/rd2t4Loc
p1196
aVhttp://dbpedia.org/property/debuts
p1197
aVhttp://www.georss.org/georss/point
p1198
aVhttp://dbpedia.org/property/gdpPppPerCapita
p1199
aVhttp://dbpedia.org/ontology/birthPlace
p1200
aVhttp://www.w3.org/2000/01/rdf-schema#comment
p1201
aVhttp://dbpedia.org/ontology/wikiPageRedirects
p1202
aVhttp://purl.org/voc/vrank#hasRank
p1203
aVhttp://dbpedia.org/ontology/restingPlace
p1204
aVhttp://www.w3.org/2002/07/owl#sameAs
p1205
aVhttp://dbpedia.org/property/openingCity
p1206
aVhttp://dbpedia.org/property/asianPlace
p1207
aVhttp://dbpedia.org/property/stadium
p1208
asI7
(lp1209
Vhttp://dbpedia.org/ontology/PopulatedPlace/areaTotal
p1210
aVhttp://dbpedia.org/ontology/country
p1211
aVhttp://dbpedia.org/property/location
p1212
aVhttp://www.w3.org/2002/07/owl#sameAs
p1213
aVhttp://dbpedia.org/property/country
p1214
assI2
(dp1215
I0
g1145
sI1
g1154
sI2
(lp1216
sI3
(lp1217
sI4
(lp1218
sI5
(lp1219
sI6
(lp1220
Vhttp://www.w3.org/ns/prov#wasDerivedFrom
p1221
aVhttp://www.w3.org/1999/02/22-rdf-syntax-ns#type
p1222
asI7
(lp1223
Vhttp://www.w3.org/1999/02/22-rdf-syntax-ns#type
p1224
assI3
(dp1225
I0
g1147
sI1
g1168
sI2
g1217
sI3
(lp1226
sI4
(lp1227
sI5
(lp1228
sI6
(lp1229
Vhttp://www.w3.org/ns/prov#wasDerivedFrom
p1230
aVhttp://purl.org/voc/vrank#hasRank
p1231
aVhttp://www.w3.org/1999/02/22-rdf-syntax-ns#type
p1232
asI7
(lp1233
ssI4
(dp1234
I0
g1148
sI1
g1169
sI2
g1218
sI3
g1227
sI4
(lp1235
sI5
(lp1236
sI6
(lp1237
sI7
(lp1238
ssI5
(dp1239
I0
g1149
sI1
g1170
sI2
g1219
sI3
g1228
sI4
g1236
sI5
(lp1240
sI6
(lp1241
sI7
(lp1242
ssI6
(dp1243
I0
g1150
sI1
g1171
sI2
g1220
sI3
g1229
sI4
g1237
sI5
g1241
sI6
(lp1244
sI7
(lp1245
ssI7
(dp1246
I0
g1151
sI1
g1209
sI2
g1223
sI3
g1233
sI4
g1238
sI5
g1242
sI6
g1245
sI7
(lp1247
ssa(dp1248
I0
(dp1249
I0
(lp1250
sI1
(lp1251
Vhttp://dbpedia.org/ontology/wikiPageExternalLink
p1252
aVhttp://dbpedia.org/property/rd1t5Loc
p1253
aVhttp://dbpedia.org/property/withdraws
p1254
aVhttp://dbpedia.org/property/1rpt3Loc
p1255
aVhttp://dbpedia.org/property/locationSigned
p1256
aVhttp://dbpedia.org/property/footnoteD
p1257
aVhttp://www.w3.org/2002/07/owl#sameAs
p1258
asI2
(lp1259
Vhttp://xmlns.com/foaf/0.1/depiction
p1260
aVhttp://dbpedia.org/ontology/thumbnail
p1261
asI3
(lp1262
Vhttp://www.w3.org/1999/02/22-rdf-syntax-ns#type
p1263
asI4
(lp1264
sI5
(lp1265
sI6
(lp1266
sI7
(lp1267
ssI1
(dp1268
I0
g1251
sI1
(lp1269
sI2
(lp1270
Vhttp://www.w3.org/1999/02/22-rdf-syntax-ns#type
p1271
aVhttp://purl.org/dc/terms/subject
p1272
aVhttp://dbpedia.org/property/officialLanguages
p1273
aVhttp://www.w3.org/2000/01/rdf-schema#comment
p1274
aVhttp://dbpedia.org/ontology/abstract
p1275
aVhttp://dbpedia.org/property/area
p1276
aVhttp://dbpedia.org/ontology/language
p1277
aVhttp://dbpedia.org/ontology/officialLanguage
p1278
aVhttp://dbpedia.org/property/establishedEvent
p1279
aVhttp://dbpedia.org/ontology/broadcastArea
p1280
asI3
(lp1281
sI4
(lp1282
sI5
(lp1283
sI6
(lp1284
Vhttp://dbpedia.org/property/withdraws
p1285
aVhttp://dbpedia.org/ontology/abstract
p1286
aVhttp://dbpedia.org/property/location
p1287
aVhttp://dbpedia.org/property/stadium
p1288
aVhttp://dbpedia.org/property/returns
p1289
asI7
(lp1290
Vhttp://dbpedia.org/ontology/wikiPageExternalLink
p1291
aVhttp://dbpedia.org/ontology/abstract
p1292
aVhttp://dbpedia.org/ontology/place
p1293
aVhttp://dbpedia.org/property/location
p1294
aVhttp://www.w3.org/2002/07/owl#sameAs
p1295
assI2
(dp1296
I0
g1259
sI1
g1270
sI2
(lp1297
sI3
(lp1298
sI4
(lp1299
sI5
(lp1300
sI6
(lp1301
Vhttp://www.w3.org/1999/02/22-rdf-syntax-ns#type
p1302
asI7
(lp1303
Vhttp://www.w3.org/2002/07/owl#sameAs
p1304
assI3
(dp1305
I0
g1262
sI1
g1281
sI2
g1298
sI3
(lp1306
sI4
(lp1307
Vhttp://dbpedia.org/ontology/abstract
p1308
asI5
(lp1309
sI6
(lp1310
Vhttp://dbpedia.org/ontology/abstract
p1311
aVhttp://www.w3.org/1999/02/22-rdf-syntax-ns#type
p1312
aVhttp://www.w3.org/2000/01/rdf-schema#comment
p1313
asI7
(lp1314
Vhttp://dbpedia.org/ontology/abstract
p1315
assI4
(dp1316
I0
g1264
sI1
g1282
sI2
g1299
sI3
g1307
sI4
(lp1317
sI5
(lp1318
sI6
(lp1319
sI7
(lp1320
ssI5
(dp1321
I0
g1265
sI1
g1283
sI2
g1300
sI3
g1309
sI4
g1318
sI5
(lp1322
sI6
(lp1323
sI7
(lp1324
ssI6
(dp1325
I0
g1266
sI1
g1284
sI2
g1301
sI3
g1310
sI4
g1319
sI5
g1323
sI6
(lp1326
sI7
(lp1327
ssI7
(dp1328
I0
g1267
sI1
g1290
sI2
g1303
sI3
g1314
sI4
g1320
sI5
g1324
sI6
g1327
sI7
(lp1329
ssa(dp1330
I0
(dp1331
I0
(lp1332
sI1
(lp1333
Vhttp://dbpedia.org/ontology/wikiPageExternalLink
p1334
aVhttp://dbpedia.org/property/placeOfDeath
p1335
aVhttp://dbpedia.org/property/venue
p1336
aVhttp://dbpedia.org/property/place
p1337
aVhttp://dbpedia.org/property/location
p1338
aVhttp://dbpedia.org/property/worldPlace
p1339
aVhttp://dbpedia.org/property/rd1t1Loc
p1340
aVhttp://dbpedia.org/ontology/deathPlace
p1341
aVhttp://dbpedia.org/property/deathPlace
p1342
aVhttp://dbpedia.org/property/asianPlace
p1343
aVhttp://dbpedia.org/ontology/PopulatedPlace/populationDensity
p1344
aVhttp://dbpedia.org/property/nationalOrigin
p1345
asI2
(lp1346
Vhttp://dbpedia.org/property/wordnet_type
p1347
asI3
(lp1348
Vhttp://purl.org/voc/vrank#hasRank
p1349
aVhttp://www.w3.org/1999/02/22-rdf-syntax-ns#type
p1350
aVhttp://www.w3.org/2002/07/owl#sameAs
p1351
asI4
(lp1352
sI5
(lp1353
sI6
(lp1354
sI7
(lp1355
ssI1
(dp1356
I0
g1333
sI1
(lp1357
sI2
(lp1358
Vhttp://dbpedia.org/ontology/officialLanguage
p1359
aVhttp://dbpedia.org/ontology/country
p1360
aVhttp://www.w3.org/1999/02/22-rdf-syntax-ns#type
p1361
aVhttp://purl.org/dc/terms/subject
p1362
aVhttp://dbpedia.org/property/officialLanguages
p1363
aVhttp://www.w3.org/2000/01/rdf-schema#comment
p1364
aVhttp://dbpedia.org/ontology/origin
p1365
aVhttp://dbpedia.org/property/southeast
p1366
aVhttp://dbpedia.org/ontology/abstract
p1367
aVhttp://dbpedia.org/property/country
p1368
aVhttp://dbpedia.org/property/nearestTown
p1369
aVhttp://dbpedia.org/property/location
p1370
aVhttp://dbpedia.org/property/east
p1371
aVhttp://dbpedia.org/ontology/place
p1372
aVhttp://dbpedia.org/ontology/spokenIn
p1373
aVhttp://dbpedia.org/property/north
p1374
aVhttp://dbpedia.org/property/northeast
p1375
aVhttp://dbpedia.org/property/subdivisionName
p1376
aVhttp://dbpedia.org/ontology/language
p1377
aVhttp://dbpedia.org/ontology/populationPlace
p1378
asI3
(lp1379
sI4
(lp1380
sI5
(lp1381
sI6
(lp1382
Vhttp://dbpedia.org/property/origin
p1383
aVhttp://dbpedia.org/property/placeOfDeath
p1384
aVhttp://dbpedia.org/property/almaMater
p1385
aVhttp://dbpedia.org/ontology/origin
p1386
aVhttp://dbpedia.org/property/place
p1387
aVhttp://dbpedia.org/property/worldPlace
p1388
aVhttp://dbpedia.org/property/city
p1389
aVhttp://dbpedia.org/property/base
p1390
aVhttp://dbpedia.org/property/maleIndividualChampionTeam
p1391
aVhttp://dbpedia.org/ontology/thirdDriverCountry
p1392
aVhttp://dbpedia.org/ontology/PopulatedPlace/populationDensity
p1393
aVhttp://dbpedia.org/property/rd1t7Loc
p1394
aVhttp://dbpedia.org/ontology/country
p1395
aVhttp://dbpedia.org/property/region
p1396
aVhttp://www.w3.org/1999/02/22-rdf-syntax-ns#type
p1397
aVhttp://dbpedia.org/ontology/capital
p1398
aVhttp://www.w3.org/2002/07/owl#sameAs
p1399
aVhttp://dbpedia.org/property/home
p1400
aVhttp://dbpedia.org/property/referee
p1401
aVhttp://dbpedia.org/property/withdraws
p1402
aVhttp://dbpedia.org/property/birthPlace
p1403
aVhttp://dbpedia.org/ontology/place
p1404
aVhttp://dbpedia.org/property/placeOfBirth
p1405
aVhttp://dbpedia.org/property/locationSigned
p1406
aVhttp://dbpedia.org/property/country
p1407
aVhttp://dbpedia.org/property/establishedEvent
p1408
aVhttp://dbpedia.org/property/areasAffected
p1409
aVhttp://dbpedia.org/ontology/wikiPageExternalLink
p1410
aVhttp://dbpedia.org/property/nationality
p1411
aVhttp://purl.org/dc/terms/subject
p1412
aVhttp://dbpedia.org/property/gdpNominalPerCapita
p1413
aVhttp://dbpedia.org/ontology/abstract
p1414
aVhttp://dbpedia.org/property/venue
p1415
aVhttp://dbpedia.org/property/returns
p1416
aVhttp://dbpedia.org/property/deathPlace
p1417
aVhttp://dbpedia.org/property/cityServed
p1418
aVhttp://dbpedia.org/property/gdpPppPerCapita
p1419
aVhttp://dbpedia.org/ontology/deathPlace
p1420
aVhttp://dbpedia.org/property/rd2t4Loc
p1421
aVhttp://dbpedia.org/property/usedBy
p1422
aVhttp://dbpedia.org/property/debuts
p1423
aVhttp://dbpedia.org/property/nationalOrigin
p1424
aVhttp://dbpedia.org/ontology/location
p1425
aVhttp://dbpedia.org/property/locale
p1426
aVhttp://dbpedia.org/property/basinCountries
p1427
aVhttp://www.georss.org/georss/point
p1428
aVhttp://dbpedia.org/property/headquarters
p1429
aVhttp://dbpedia.org/ontology/PopulatedPlace/areaTotal
p1430
aVhttp://dbpedia.org/property/rd3t4Loc
p1431
aVhttp://dbpedia.org/property/location
p1432
aVhttp://www.w3.org/2000/01/rdf-schema#comment
p1433
aVhttp://dbpedia.org/property/olympicPlace
p1434
aVhttp://dbpedia.org/property/area
p1435
aVhttp://dbpedia.org/property/rd1t1Loc
p1436
aVhttp://purl.org/voc/vrank#hasRank
p1437
aVhttp://dbpedia.org/property/rd2t8Loc
p1438
aVhttp://dbpedia.org/property/citizenship
p1439
aVhttp://dbpedia.org/property/rd4t2Loc
p1440
aVhttp://dbpedia.org/ontology/hometown
p1441
aVhttp://dbpedia.org/property/asianPlace
p1442
aVhttp://dbpedia.org/ontology/birthPlace
p1443
aVhttp://dbpedia.org/property/stadium
p1444
asI7
(lp1445
Vhttp://dbpedia.org/ontology/wikiPageExternalLink
p1446
aVhttp://dbpedia.org/ontology/country
p1447
aVhttp://www.w3.org/1999/02/22-rdf-syntax-ns#type
p1448
aVhttp://dbpedia.org/ontology/location
p1449
aVhttp://www.w3.org/2002/07/owl#sameAs
p1450
aVhttp://dbpedia.org/property/rd2t4Loc
p1451
aVhttp://dbpedia.org/ontology/thirdDriverCountry
p1452
aVhttp://dbpedia.org/ontology/PopulatedPlace/populationDensity
p1453
aVhttp://dbpedia.org/property/rd1t7Loc
p1454
assI2
(dp1455
I0
g1346
sI1
g1358
sI2
(lp1456
sI3
(lp1457
sI4
(lp1458
sI5
(lp1459
sI6
(lp1460
Vhttp://www.w3.org/ns/prov#wasDerivedFrom
p1461
aVhttp://dbpedia.org/ontology/abstract
p1462
aVhttp://www.w3.org/1999/02/22-rdf-syntax-ns#type
p1463
aVhttp://www.w3.org/2002/07/owl#sameAs
p1464
aVhttp://www.w3.org/2000/01/rdf-schema#comment
p1465
asI7
(lp1466
Vhttp://dbpedia.org/ontology/abstract
p1467
aVhttp://www.w3.org/2000/01/rdf-schema#comment
p1468
assI3
(dp1469
I0
g1348
sI1
g1379
sI2
g1457
sI3
(lp1470
sI4
(lp1471
Vhttp://dbpedia.org/ontology/abstract
p1472
asI5
(lp1473
sI6
(lp1474
Vhttp://www.w3.org/1999/02/22-rdf-syntax-ns#type
p1475
aVhttp://purl.org/dc/terms/subject
p1476
aVhttp://www.w3.org/2000/01/rdf-schema#comment
p1477
aVhttp://dbpedia.org/ontology/abstract
p1478
aVhttp://purl.org/voc/vrank#hasRank
p1479
aVhttp://www.w3.org/ns/prov#wasDerivedFrom
p1480
asI7
(lp1481
Vhttp://www.w3.org/1999/02/22-rdf-syntax-ns#type
p1482
assI4
(dp1483
I0
g1352
sI1
g1380
sI2
g1458
sI3
g1471
sI4
(lp1484
sI5
(lp1485
sI6
(lp1486
sI7
(lp1487
ssI5
(dp1488
I0
g1353
sI1
g1381
sI2
g1459
sI3
g1473
sI4
g1485
sI5
(lp1489
sI6
(lp1490
sI7
(lp1491
ssI6
(dp1492
I0
g1354
sI1
g1382
sI2
g1460
sI3
g1474
sI4
g1486
sI5
g1490
sI6
(lp1493
sI7
(lp1494
ssI7
(dp1495
I0
g1355
sI1
g1445
sI2
g1466
sI3
g1481
sI4
g1487
sI5
g1491
sI6
g1494
sI7
(lp1496
ssa(dp1497
I0
(dp1498
I0
(lp1499
sI1
(lp1500
Vhttp://dbpedia.org/property/withdraws
p1501
aVhttp://dbpedia.org/ontology/sportCountry
p1502
aVhttp://www.w3.org/1999/02/22-rdf-syntax-ns#type
p1503
aVhttp://dbpedia.org/property/venue
p1504
aVhttp://www.w3.org/2002/07/owl#sameAs
p1505
asI2
(lp1506
Vhttp://www.w3.org/1999/02/22-rdf-syntax-ns#type
p1507
aVhttp://dbpedia.org/ontology/PopulatedPlace/populationDensity
p1508
asI3
(lp1509
Vhttp://www.w3.org/1999/02/22-rdf-syntax-ns#type
p1510
asI4
(lp1511
sI5
(lp1512
sI6
(lp1513
sI7
(lp1514
ssI1
(dp1515
I0
g1500
sI1
(lp1516
sI2
(lp1517
Vhttp://dbpedia.org/property/nationality
p1518
aVhttp://dbpedia.org/ontology/abstract
p1519
aVhttp://dbpedia.org/ontology/nationality
p1520
aVhttp://dbpedia.org/property/birthPlace
p1521
aVhttp://dbpedia.org/property/placeOfBirth
p1522
aVhttp://dbpedia.org/ontology/spokenIn
p1523
aVhttp://dbpedia.org/ontology/stateOfOrigin
p1524
aVhttp://dbpedia.org/ontology/birthPlace
p1525
asI3
(lp1526
sI4
(lp1527
sI5
(lp1528
Vhttp://www.w3.org/2000/01/rdf-schema#seeAlso
p1529
aVhttp://dbpedia.org/property/origin
p1530
aVhttp://dbpedia.org/property/imageCaption
p1531
aVhttp://dbpedia.org/property/lastStopover
p1532
aVhttp://dbpedia.org/property/hasPhotoCollection
p1533
aVhttp://dbpedia.org/ontology/country
p1534
aVhttp://dbpedia.org/property/region
p1535
aVhttp://dbpedia.org/property/locationCountry
p1536
aVhttp://dbpedia.org/ontology/nationality
p1537
aVhttp://dbpedia.org/property/birthPlace
p1538
aVhttp://dbpedia.org/ontology/place
p1539
aVhttp://dbpedia.org/property/placeOfBirth
p1540
aVhttp://dbpedia.org/property/country
p1541
aVhttp://dbpedia.org/property/areaServed
p1542
aVhttp://dbpedia.org/ontology/wikiPageExternalLink
p1543
aVhttp://dbpedia.org/ontology/populationPlace
p1544
aVhttp://dbpedia.org/property/diaspora
p1545
aVhttp://dbpedia.org/ontology/abstract
p1546
aVhttp://dbpedia.org/property/location
p1547
aVhttp://dbpedia.org/property/deathPlace
p1548
aVhttp://dbpedia.org/ontology/builder
p1549
aVhttp://dbpedia.org/ontology/deathPlace
p1550
aVhttp://dbpedia.org/property/usedBy
p1551
aVhttp://dbpedia.org/ontology/location
p1552
aVhttp://dbpedia.org/property/shipBuilder
p1553
aVhttp://dbpedia.org/property/headquarters
p1554
aVhttp://www.w3.org/2000/01/rdf-schema#comment
p1555
aVhttp://dbpedia.org/ontology/birthPlace
p1556
aVhttp://dbpedia.org/ontology/hometown
p1557
aVhttp://dbpedia.org/ontology/restingPlace
p1558
aVhttp://www.w3.org/2002/07/owl#sameAs
p1559
aVhttp://dbpedia.org/property/host
p1560
aVhttp://dbpedia.org/property/builders
p1561
aVhttp://dbpedia.org/property/popplace
p1562
aVhttp://dbpedia.org/property/stadium
p1563
aVhttp://dbpedia.org/ontology/headquarter
p1564
asI6
(lp1565
Vhttp://www.w3.org/2000/01/rdf-schema#seeAlso
p1566
aVhttp://dbpedia.org/ontology/country
p1567
aVhttp://dbpedia.org/property/commands
p1568
aVhttp://www.w3.org/1999/02/22-rdf-syntax-ns#type
p1569
aVhttp://www.w3.org/2000/01/rdf-schema#comment
p1570
aVhttp://dbpedia.org/ontology/abstract
p1571
aVhttp://dbpedia.org/property/imageCaption
p1572
aVhttp://dbpedia.org/property/venue
p1573
aVhttp://dbpedia.org/property/location
p1574
aVhttp://dbpedia.org/property/withdraws
p1575
aVhttp://dbpedia.org/ontology/nationality
p1576
aVhttp://www.w3.org/2002/07/owl#sameAs
p1577
aVhttp://dbpedia.org/property/returns
p1578
aVhttp://dbpedia.org/property/stadium
p1579
aVhttp://dbpedia.org/property/areasAffected
p1580
asI7
(lp1581
Vhttp://www.w3.org/1999/02/22-rdf-syntax-ns#type
p1582
assI2
(dp1583
I0
g1506
sI1
g1517
sI2
(lp1584
sI3
(lp1585
sI4
(lp1586
sI5
(lp1587
Vhttp://dbpedia.org/ontology/utcOffset
p1588
aVhttp://www.georss.org/georss/point
p1589
aVhttp://www.w3.org/2000/01/rdf-schema#comment
p1590
aVhttp://dbpedia.org/ontology/abstract
p1591
aVhttp://dbpedia.org/property/hasPhotoCollection
p1592
aVhttp://www.w3.org/2002/07/owl#sameAs
p1593
asI6
(lp1594
Vhttp://dbpedia.org/ontology/abstract
p1595
aVhttp://www.w3.org/1999/02/22-rdf-syntax-ns#type
p1596
aVhttp://www.w3.org/2000/01/rdf-schema#comment
p1597
asI7
(lp1598
Vhttp://dbpedia.org/ontology/PopulatedPlace/areaTotal
p1599
aVhttp://dbpedia.org/ontology/abstract
p1600
aVhttp://www.w3.org/1999/02/22-rdf-syntax-ns#type
p1601
aVhttp://www.w3.org/2000/01/rdf-schema#comment
p1602
assI3
(dp1603
I0
g1509
sI1
g1526
sI2
g1585
sI3
(lp1604
sI4
(lp1605
Vhttp://dbpedia.org/ontology/abstract
p1606
aVhttp://dbpedia.org/property/as
p1607
aVhttp://www.w3.org/2000/01/rdf-schema#comment
p1608
asI5
(lp1609
Vhttp://dbpedia.org/ontology/wikiPageExternalLink
p1610
aVhttp://www.w3.org/2000/01/rdf-schema#comment
p1611
aVhttp://dbpedia.org/ontology/abstract
p1612
aVhttp://xmlns.com/foaf/0.1/depiction
p1613
aVhttp://dbpedia.org/property/wordnet_type
p1614
aVhttp://dbpedia.org/ontology/thumbnail
p1615
aVhttp://dbpedia.org/property/hasPhotoCollection
p1616
aVhttp://www.w3.org/2002/07/owl#sameAs
p1617
asI6
(lp1618
Vhttp://www.w3.org/1999/02/22-rdf-syntax-ns#type
p1619
asI7
(lp1620
ssI4
(dp1621
I0
g1511
sI1
g1527
sI2
g1586
sI3
g1605
sI4
(lp1622
sI5
(lp1623
sI6
(lp1624
sI7
(lp1625
ssI5
(dp1626
I0
g1512
sI1
g1528
sI2
g1587
sI3
g1609
sI4
g1623
sI5
(lp1627
sI6
(lp1628
sI7
(lp1629
ssI6
(dp1630
I0
g1513
sI1
g1565
sI2
g1594
sI3
g1618
sI4
g1624
sI5
g1628
sI6
(lp1631
sI7
(lp1632
ssI7
(dp1633
I0
g1514
sI1
g1581
sI2
g1598
sI3
g1620
sI4
g1625
sI5
g1629
sI6
g1632
sI7
(lp1634
ssa(dp1635
I0
(dp1636
I0
(lp1637
sI1
(lp1638
Vhttp://dbpedia.org/ontology/wikiPageExternalLink
p1639
aVhttp://dbpedia.org/ontology/country
p1640
aVhttp://dbpedia.org/property/returns
p1641
aVhttp://www.w3.org/1999/02/22-rdf-syntax-ns#type
p1642
aVhttp://dbpedia.org/property/origin
p1643
aVhttp://dbpedia.org/ontology/recordedIn
p1644
aVhttp://dbpedia.org/property/venue
p1645
aVhttp://dbpedia.org/property/location
p1646
aVhttp://dbpedia.org/property/worldPlace
p1647
aVhttp://dbpedia.org/property/withdraws
p1648
aVhttp://dbpedia.org/property/areas
p1649
aVhttp://dbpedia.org/property/country
p1650
aVhttp://dbpedia.org/property/debuts
p1651
aVhttp://dbpedia.org/property/subdivisionName
p1652
aVhttp://dbpedia.org/property/stadium
p1653
aVhttp://dbpedia.org/property/areasAffected
p1654
asI2
(lp1655
Vhttp://www.w3.org/1999/02/22-rdf-syntax-ns#type
p1656
aVhttp://dbpedia.org/ontology/PopulatedPlace/populationDensity
p1657
asI3
(lp1658
sI4
(lp1659
sI5
(lp1660
sI6
(lp1661
sI7
(lp1662
ssI1
(dp1663
I0
g1638
sI1
(lp1664
sI2
(lp1665
Vhttp://dbpedia.org/ontology/wikiPageExternalLink
p1666
aVhttp://dbpedia.org/ontology/regionalLanguage
p1667
aVhttp://dbpedia.org/property/footnoteA
p1668
aVhttp://xmlns.com/foaf/0.1/homepage
p1669
aVhttp://dbpedia.org/property/footnoteC
p1670
aVhttp://dbpedia.org/property/regionalLanguages
p1671
aVhttp://dbpedia.org/ontology/language
p1672
asI3
(lp1673
sI4
(lp1674
sI5
(lp1675
Vhttp://www.w3.org/2000/01/rdf-schema#seeAlso
p1676
aVhttp://dbpedia.org/property/origin
p1677
aVhttp://dbpedia.org/property/place
p1678
aVhttp://dbpedia.org/ontology/foundationPlace
p1679
aVhttp://dbpedia.org/property/city
p1680
aVhttp://dbpedia.org/property/base
p1681
aVhttp://dbpedia.org/ontology/deathPlace
p1682
aVhttp://dbpedia.org/property/placeOfDeath
p1683
aVhttp://dbpedia.org/property/maleIndividualChampionTeam
p1684
aVhttp://dbpedia.org/property/placeofburial
p1685
aVhttp://dbpedia.org/property/hasPhotoCollection
p1686
aVhttp://dbpedia.org/property/dateFormat
p1687
aVhttp://dbpedia.org/ontology/country
p1688
aVhttp://dbpedia.org/property/region
p1689
aVhttp://www.w3.org/1999/02/22-rdf-syntax-ns#type
p1690
aVhttp://dbpedia.org/ontology/locationCountry
p1691
aVhttp://dbpedia.org/property/placeOfBurial
p1692
aVhttp://dbpedia.org/property/locationCountry
p1693
aVhttp://dbpedia.org/property/assembly
p1694
aVhttp://dbpedia.org/property/birghPlace
p1695
aVhttp://dbpedia.org/property/controlledby
p1696
aVhttp://dbpedia.org/ontology/isPartOf
p1697
aVhttp://dbpedia.org/ontology/nationality
p1698
aVhttp://dbpedia.org/property/birthPlace
p1699
aVhttp://dbpedia.org/ontology/place
p1700
aVhttp://dbpedia.org/ontology/ethnicGroup
p1701
aVhttp://dbpedia.org/property/femaleIndividualChampionTeam
p1702
aVhttp://dbpedia.org/property/country
p1703
aVhttp://dbpedia.org/property/shipCountry
p1704
aVhttp://dbpedia.org/property/areaServed
p1705
aVhttp://dbpedia.org/property/placeOfBirth
p1706
aVhttp://dbpedia.org/ontology/wikiPageExternalLink
p1707
aVhttp://dbpedia.org/property/regionalScenes
p1708
aVhttp://dbpedia.org/ontology/recordedIn
p1709
aVhttp://purl.org/dc/terms/subject
p1710
aVhttp://dbpedia.org/ontology/populationPlace
p1711
aVhttp://dbpedia.org/property/burialPlace
p1712
aVhttp://dbpedia.org/property/ideology
p1713
aVhttp://dbpedia.org/property/nationality
p1714
aVhttp://dbpedia.org/ontology/abstract
p1715
aVhttp://dbpedia.org/property/locationSigned
p1716
aVhttp://dbpedia.org/property/venue
p1717
aVhttp://dbpedia.org/property/deathPlace
p1718
aVhttp://dbpedia.org/property/location
p1719
aVhttp://dbpedia.org/ontology/builder
p1720
aVhttp://dbpedia.org/property/imageMap
p1721
aVhttp://dbpedia.org/ontology/leader
p1722
aVhttp://dbpedia.org/property/estate
p1723
aVhttp://dbpedia.org/ontology/regionServed
p1724
aVhttp://dbpedia.org/ontology/city
p1725
aVhttp://dbpedia.org/property/usedBy
p1726
aVhttp://www.w3.org/2000/01/rdf-schema#label
p1727
aVhttp://dbpedia.org/property/subdivisionName
p1728
aVhttp://dbpedia.org/ontology/language
p1729
aVhttp://dbpedia.org/property/shipRegistry
p1730
aVhttp://dbpedia.org/property/locale
p1731
aVhttp://dbpedia.org/property/leaderName
p1732
aVhttp://dbpedia.org/ontology/assembly
p1733
aVhttp://dbpedia.org/property/headquarters
p1734
aVhttp://dbpedia.org/ontology/residence
p1735
aVhttp://www.w3.org/2000/01/rdf-schema#comment
p1736
aVhttp://dbpedia.org/ontology/birthPlace
p1737
aVhttp://dbpedia.org/property/nationalOrigin
p1738
aVhttp://dbpedia.org/ontology/wikiPageRedirects
p1739
aVhttp://dbpedia.org/ontology/hometown
p1740
aVhttp://dbpedia.org/ontology/restingPlace
p1741
aVhttp://www.w3.org/2002/07/owl#sameAs
p1742
aVhttp://dbpedia.org/ontology/spokenIn
p1743
aVhttp://dbpedia.org/ontology/stateOfOrigin
p1744
aVhttp://dbpedia.org/property/residence
p1745
aVhttp://dbpedia.org/property/popplace
p1746
aVhttp://dbpedia.org/property/stadium
p1747
aVhttp://dbpedia.org/ontology/location
p1748
asI6
(lp1749
Vhttp://dbpedia.org/property/origin
p1750
aVhttp://dbpedia.org/property/placeOfDeath
p1751
aVhttp://dbpedia.org/property/recorded
p1752
aVhttp://dbpedia.org/property/broadcastArea
p1753
aVhttp://dbpedia.org/property/place
p1754
aVhttp://dbpedia.org/property/worldPlace
p1755
aVhttp://dbpedia.org/property/city
p1756
aVhttp://dbpedia.org/ontology/city
p1757
aVhttp://dbpedia.org/property/rd2t6Loc
p1758
aVhttp://dbpedia.org/property/maleIndividualChampionTeam
p1759
aVhttp://dbpedia.org/property/rd2t3Loc
p1760
aVhttp://dbpedia.org/property/placeofburial
p1761
aVhttp://dbpedia.org/ontology/PopulatedPlace/populationDensity
p1762
aVhttp://dbpedia.org/ontology/country
p1763
aVhttp://dbpedia.org/property/returns
p1764
aVhttp://www.w3.org/1999/02/22-rdf-syntax-ns#type
p1765
aVhttp://dbpedia.org/property/rd3t3Loc
p1766
aVhttp://www.w3.org/2002/07/owl#sameAs
p1767
aVhttp://dbpedia.org/property/home
p1768
aVhttp://dbpedia.org/property/locationCountry
p1769
aVhttp://dbpedia.org/property/referee
p1770
aVhttp://dbpedia.org/property/rd1t5Loc
p1771
aVhttp://dbpedia.org/property/allegiance
p1772
aVhttp://dbpedia.org/property/rd4t1Loc
p1773
aVhttp://dbpedia.org/property/withdraws
p1774
aVhttp://dbpedia.org/property/championSite
p1775
aVhttp://dbpedia.org/property/birthPlace
p1776
aVhttp://dbpedia.org/ontology/place
p1777
aVhttp://dbpedia.org/ontology/language
p1778
aVhttp://dbpedia.org/property/femaleIndividualChampionTeam
p1779
aVhttp://dbpedia.org/property/depositor
p1780
aVhttp://dbpedia.org/property/country
p1781
aVhttp://dbpedia.org/property/shipCountry
p1782
aVhttp://dbpedia.org/property/gdpNominal
p1783
aVhttp://dbpedia.org/ontology/wikiPageExternalLink
p1784
aVhttp://dbpedia.org/property/nationality
p1785
aVhttp://dbpedia.org/ontology/recordedIn
p1786
aVhttp://dbpedia.org/property/rd1t8Loc
p1787
aVhttp://dbpedia.org/property/rd2t2Loc
p1788
aVhttp://dbpedia.org/property/gdpNominalPerCapita
p1789
aVhttp://dbpedia.org/ontology/abstract
p1790
aVhttp://dbpedia.org/property/locationSigned
p1791
aVhttp://dbpedia.org/property/venue
p1792
aVhttp://dbpedia.org/property/deathPlace
p1793
aVhttp://dbpedia.org/property/location
p1794
aVhttp://dbpedia.org/property/fightingOutOf
p1795
aVhttp://dbpedia.org/ontology/locationCountry
p1796
aVhttp://dbpedia.org/property/rd3t2Loc
p1797
aVhttp://dbpedia.org/ontology/deathPlace
p1798
aVhttp://dbpedia.org/property/rd2t4Loc
p1799
aVhttp://dbpedia.org/property/gdpPpp
p1800
aVhttp://dbpedia.org/property/rd1t6Loc
p1801
aVhttp://dbpedia.org/property/usedBy
p1802
aVhttp://dbpedia.org/property/debuts
p1803
aVhttp://dbpedia.org/property/hostCity
p1804
aVhttp://dbpedia.org/property/subdivisionName
p1805
aVhttp://dbpedia.org/property/nationalOrigin
p1806
aVhttp://dbpedia.org/property/headquarters
p1807
aVhttp://dbpedia.org/property/locale
p1808
aVhttp://dbpedia.org/property/rd1t3Loc
p1809
aVhttp://dbpedia.org/property/shipBuilder
p1810
aVhttp://dbpedia.org/property/rd2t1Loc
p1811
aVhttp://dbpedia.org/ontology/PopulatedPlace/areaTotal
p1812
aVhttp://dbpedia.org/ontology/birthPlace
p1813
aVhttp://www.w3.org/2000/01/rdf-schema#comment
p1814
aVhttp://dbpedia.org/ontology/builder
p1815
aVhttp://dbpedia.org/property/placeOfBirth
p1816
aVhttp://dbpedia.org/property/rd2t5Loc
p1817
aVhttp://dbpedia.org/property/rd2t8Loc
p1818
aVhttp://dbpedia.org/property/callingCode
p1819
aVhttp://dbpedia.org/property/rd1t2Loc
p1820
aVhttp://dbpedia.org/property/countries
p1821
aVhttp://dbpedia.org/property/rd3t4Loc
p1822
aVhttp://dbpedia.org/property/host
p1823
aVhttp://dbpedia.org/property/signatories
p1824
aVhttp://dbpedia.org/property/residence
p1825
aVhttp://dbpedia.org/property/areasAffected
p1826
aVhttp://dbpedia.org/property/stadium
p1827
aVhttp://dbpedia.org/ontology/location
p1828
asI7
(lp1829
Vhttp://dbpedia.org/property/origin
p1830
aVhttp://www.w3.org/1999/02/22-rdf-syntax-ns#type
p1831
aVhttp://dbpedia.org/ontology/hometown
p1832
aVhttp://dbpedia.org/ontology/abstract
p1833
aVhttp://dbpedia.org/property/worldPlace
p1834
aVhttp://dbpedia.org/property/rd2t5Loc
p1835
aVhttp://dbpedia.org/property/combatant
p1836
aVhttp://dbpedia.org/property/debuts
p1837
assI2
(dp1838
I0
g1655
sI1
g1665
sI2
(lp1839
sI3
(lp1840
sI4
(lp1841
sI5
(lp1842
Vhttp://dbpedia.org/ontology/utcOffset
p1843
aVhttp://www.georss.org/georss/point
p1844
aVhttp://www.w3.org/2000/01/rdf-schema#comment
p1845
aVhttp://dbpedia.org/ontology/abstract
p1846
aVhttp://dbpedia.org/property/hasPhotoCollection
p1847
aVhttp://www.w3.org/2002/07/owl#sameAs
p1848
asI6
(lp1849
Vhttp://www.w3.org/ns/prov#wasDerivedFrom
p1850
aVhttp://www.w3.org/1999/02/22-rdf-syntax-ns#type
p1851
aVhttp://dbpedia.org/ontology/PopulatedPlace/populationDensity
p1852
asI7
(lp1853
Vhttp://dbpedia.org/ontology/PopulatedPlace/areaTotal
p1854
aVhttp://www.georss.org/georss/point
p1855
assI3
(dp1856
I0
g1658
sI1
g1673
sI2
g1840
sI3
(lp1857
sI4
(lp1858
Vhttp://dbpedia.org/ontology/abstract
p1859
asI5
(lp1860
Vhttp://dbpedia.org/property/hasPhotoCollection
p1861
aVhttp://www.w3.org/1999/02/22-rdf-syntax-ns#type
p1862
aVhttp://www.w3.org/2002/07/owl#sameAs
p1863
aVhttp://dbpedia.org/property/before
p1864
asI6
(lp1865
Vhttp://www.w3.org/1999/02/22-rdf-syntax-ns#type
p1866
aVhttp://purl.org/dc/terms/subject
p1867
aVhttp://dbpedia.org/property/entrant
p1868
aVhttp://www.w3.org/2000/01/rdf-schema#comment
p1869
aVhttp://dbpedia.org/ontology/abstract
p1870
aVhttp://purl.org/voc/vrank#hasRank
p1871
aVhttp://www.w3.org/2002/07/owl#sameAs
p1872
asI7
(lp1873
Vhttp://www.w3.org/ns/prov#wasDerivedFrom
p1874
aVhttp://dbpedia.org/ontology/abstract
p1875
aVhttp://www.w3.org/1999/02/22-rdf-syntax-ns#type
p1876
assI4
(dp1877
I0
g1659
sI1
g1674
sI2
g1841
sI3
g1858
sI4
(lp1878
sI5
(lp1879
Vhttp://dbpedia.org/ontology/abstract
p1880
aVhttp://dbpedia.org/property/hasPhotoCollection
p1881
aVhttp://www.w3.org/2000/01/rdf-schema#comment
p1882
asI6
(lp1883
Vhttp://www.w3.org/ns/prov#wasDerivedFrom
p1884
aVhttp://dbpedia.org/ontology/abstract
p1885
asI7
(lp1886
Vhttp://www.w3.org/2002/07/owl#sameAs
p1887
assI5
(dp1888
I0
g1660
sI1
g1675
sI2
g1842
sI3
g1860
sI4
g1879
sI5
(lp1889
sI6
(lp1890
sI7
(lp1891
ssI6
(dp1892
I0
g1661
sI1
g1749
sI2
g1849
sI3
g1865
sI4
g1883
sI5
g1890
sI6
(lp1893
sI7
(lp1894
ssI7
(dp1895
I0
g1662
sI1
g1829
sI2
g1853
sI3
g1873
sI4
g1886
sI5
g1891
sI6
g1894
sI7
(lp1896
ssa(dp1897
I0
(dp1898
I0
(lp1899
sI1
(lp1900
Vhttp://dbpedia.org/ontology/country
p1901
aVhttp://www.w3.org/1999/02/22-rdf-syntax-ns#type
p1902
aVhttp://www.w3.org/2000/01/rdf-schema#comment
p1903
aVhttp://dbpedia.org/property/lowestTemperature
p1904
aVhttp://dbpedia.org/ontology/abstract
p1905
aVhttp://dbpedia.org/property/venue
p1906
aVhttp://dbpedia.org/property/location
p1907
aVhttp://dbpedia.org/property/debuts
p1908
aVhttp://dbpedia.org/ontology/language
p1909
aVhttp://dbpedia.org/property/country
p1910
aVhttp://www.w3.org/2002/07/owl#sameAs
p1911
asI2
(lp1912
Vhttp://www.w3.org/1999/02/22-rdf-syntax-ns#type
p1913
asI3
(lp1914
sI4
(lp1915
Vhttp://www.w3.org/1999/02/22-rdf-syntax-ns#type
p1916
asI5
(lp1917
sI6
(lp1918
sI7
(lp1919
ssI1
(dp1920
I0
g1900
sI1
(lp1921
sI2
(lp1922
Vhttp://dbpedia.org/ontology/wikiPageExternalLink
p1923
asI3
(lp1924
sI4
(lp1925
sI5
(lp1926
Vhttp://www.w3.org/2000/01/rdf-schema#seeAlso
p1927
aVhttp://dbpedia.org/property/origin
p1928
aVhttp://dbpedia.org/property/broadcastArea
p1929
aVhttp://dbpedia.org/ontology/origin
p1930
aVhttp://dbpedia.org/property/membership
p1931
aVhttp://dbpedia.org/property/place
p1932
aVhttp://dbpedia.org/ontology/mouthCountry
p1933
aVhttp://dbpedia.org/ontology/wikiPageRedirects
p1934
aVhttp://dbpedia.org/property/city
p1935
aVhttp://dbpedia.org/property/residence
p1936
aVhttp://dbpedia.org/ontology/garrison
p1937
aVhttp://dbpedia.org/property/mouthCountry
p1938
aVhttp://dbpedia.org/property/placeOfDeath
p1939
aVhttp://dbpedia.org/property/homeTown
p1940
aVhttp://dbpedia.org/ontology/locatedInArea
p1941
aVhttp://dbpedia.org/ontology/regionServed
p1942
aVhttp://dbpedia.org/ontology/country
p1943
aVhttp://www.w3.org/2002/07/owl#sameAs
p1944
aVhttp://dbpedia.org/property/locationCountry
p1945
aVhttp://dbpedia.org/property/ground
p1946
aVhttp://dbpedia.org/property/image
p1947
aVhttp://dbpedia.org/ontology/nationality
p1948
aVhttp://dbpedia.org/property/birthPlace
p1949
aVhttp://dbpedia.org/ontology/city
p1950
aVhttp://dbpedia.org/ontology/place
p1951
aVhttp://dbpedia.org/property/placeOfBirth
p1952
aVhttp://dbpedia.org/property/nationality
p1953
aVhttp://dbpedia.org/property/legend
p1954
aVhttp://dbpedia.org/property/country
p1955
aVhttp://dbpedia.org/property/shipCountry
p1956
aVhttp://dbpedia.org/property/areaServed
p1957
aVhttp://dbpedia.org/property/citizenship
p1958
aVhttp://dbpedia.org/ontology/wikiPageExternalLink
p1959
aVhttp://dbpedia.org/property/regionalScenes
p1960
aVhttp://xmlns.com/foaf/0.1/depiction
p1961
aVhttp://dbpedia.org/property/allegiance
p1962
aVhttp://dbpedia.org/ontology/abstract
p1963
aVhttp://dbpedia.org/ontology/recordedIn
p1964
aVhttp://dbpedia.org/property/deathPlace
p1965
aVhttp://dbpedia.org/property/location
p1966
aVhttp://dbpedia.org/property/cityServed
p1967
aVhttp://dbpedia.org/ontology/locationCountry
p1968
aVhttp://dbpedia.org/ontology/thumbnail
p1969
aVhttp://dbpedia.org/property/sourceCountry
p1970
aVhttp://dbpedia.org/property/foundation
p1971
aVhttp://dbpedia.org/property/hasPhotoCollection
p1972
aVhttp://dbpedia.org/ontology/foundationPlace
p1973
aVhttp://dbpedia.org/property/subdivisionName
p1974
aVhttp://dbpedia.org/ontology/sourceCountry
p1975
aVhttp://dbpedia.org/ontology/location
p1976
aVhttp://dbpedia.org/property/basinCountries
p1977
aVhttp://dbpedia.org/property/garrison
p1978
aVhttp://dbpedia.org/ontology/releaseLocation
p1979
aVhttp://dbpedia.org/property/headquarters
p1980
aVhttp://dbpedia.org/ontology/residence
p1981
aVhttp://www.w3.org/2000/01/rdf-schema#comment
p1982
aVhttp://dbpedia.org/ontology/birthPlace
p1983
aVhttp://dbpedia.org/ontology/citizenship
p1984
aVhttp://dbpedia.org/ontology/hometown
p1985
aVhttp://dbpedia.org/ontology/restingPlace
p1986
aVhttp://dbpedia.org/property/silver
p1987
aVhttp://dbpedia.org/ontology/language
p1988
aVhttp://dbpedia.org/ontology/stateOfOrigin
p1989
aVhttp://dbpedia.org/property/disappearedPlace
p1990
aVhttp://dbpedia.org/property/stadium
p1991
aVhttp://dbpedia.org/ontology/deathPlace
p1992
asI6
(lp1993
Vhttp://dbpedia.org/property/placeOfDeath
p1994
aVhttp://dbpedia.org/ontology/country
p1995
aVhttp://www.w3.org/1999/02/22-rdf-syntax-ns#type
p1996
aVhttp://dbpedia.org/ontology/birthPlace
p1997
aVhttp://dbpedia.org/ontology/abstract
p1998
aVhttp://dbpedia.org/property/venue
p1999
aVhttp://dbpedia.org/ontology/locationCountry
p2000
aVhttp://dbpedia.org/ontology/nationality
p2001
aVhttp://dbpedia.org/property/birthPlace
p2002
aVhttp://dbpedia.org/property/placeOfBirth
p2003
aVhttp://dbpedia.org/ontology/regionServed
p2004
aVhttp://dbpedia.org/property/country
p2005
aVhttp://dbpedia.org/property/fullname
p2006
aVhttp://dbpedia.org/property/shipCountry
p2007
aVhttp://dbpedia.org/property/locationCountry
p2008
aVhttp://www.w3.org/2002/07/owl#sameAs
p2009
aVhttp://dbpedia.org/ontology/deathPlace
p2010
asI7
(lp2011
Vhttp://dbpedia.org/property/origin
p2012
aVhttp://dbpedia.org/property/rd2t6Loc
p2013
aVhttp://dbpedia.org/property/worldPlace
p2014
aVhttp://dbpedia.org/ontology/team
p2015
aVhttp://dbpedia.org/property/rd2t3Loc
p2016
aVhttp://dbpedia.org/property/site
p2017
aVhttp://dbpedia.org/property/rd1t4Loc
p2018
aVhttp://dbpedia.org/ontology/country
p2019
aVhttp://dbpedia.org/property/returns
p2020
aVhttp://www.w3.org/1999/02/22-rdf-syntax-ns#type
p2021
aVhttp://dbpedia.org/property/withdraws
p2022
aVhttp://dbpedia.org/property/birthPlace
p2023
aVhttp://dbpedia.org/property/placeOfBirth
p2024
aVhttp://dbpedia.org/property/winnerOrigin
p2025
aVhttp://dbpedia.org/property/country
p2026
aVhttp://dbpedia.org/property/shipCountry
p2027
aVhttp://dbpedia.org/ontology/wikiPageExternalLink
p2028
aVhttp://purl.org/dc/terms/subject
p2029
aVhttp://dbpedia.org/ontology/abstract
p2030
aVhttp://dbpedia.org/property/rd1t8Loc
p2031
aVhttp://dbpedia.org/property/venue
p2032
aVhttp://dbpedia.org/property/location
p2033
aVhttp://dbpedia.org/property/shipOwner
p2034
aVhttp://dbpedia.org/property/rd1t6Loc
p2035
aVhttp://dbpedia.org/property/usedBy
p2036
aVhttp://dbpedia.org/ontology/language
p2037
aVhttp://dbpedia.org/ontology/owner
p2038
aVhttp://dbpedia.org/ontology/location
p2039
aVhttp://www.w3.org/2000/01/rdf-schema#comment
p2040
aVhttp://dbpedia.org/ontology/birthPlace
p2041
aVhttp://dbpedia.org/property/countries
p2042
aVhttp://dbpedia.org/property/rd0t4Loc
p2043
aVhttp://dbpedia.org/property/rd1t1Loc
p2044
aVhttp://dbpedia.org/property/stadium
p2045
aVhttp://dbpedia.org/property/data
p2046
aVhttp://www.w3.org/2002/07/owl#sameAs
p2047
assI2
(dp2048
I0
g1912
sI1
g1922
sI2
(lp2049
sI3
(lp2050
sI4
(lp2051
sI5
(lp2052
Vhttp://dbpedia.org/ontology/utcOffset
p2053
aVhttp://www.georss.org/georss/point
p2054
aVhttp://www.w3.org/2000/01/rdf-schema#comment
p2055
aVhttp://dbpedia.org/ontology/abstract
p2056
aVhttp://dbpedia.org/property/hasPhotoCollection
p2057
aVhttp://www.w3.org/2002/07/owl#sameAs
p2058
asI6
(lp2059
Vhttp://dbpedia.org/ontology/postalCode
p2060
aVhttp://www.w3.org/1999/02/22-rdf-syntax-ns#type
p2061
asI7
(lp2062
Vhttp://www.w3.org/1999/02/22-rdf-syntax-ns#type
p2063
aVhttp://www.w3.org/2000/01/rdf-schema#comment
p2064
aVhttp://dbpedia.org/ontology/postalCode
p2065
aVhttp://dbpedia.org/ontology/abstract
p2066
aVhttp://dbpedia.org/ontology/PopulatedPlace/areaTotal
p2067
aVhttp://dbpedia.org/ontology/PopulatedPlace/populationDensity
p2068
aVhttp://www.w3.org/2002/07/owl#sameAs
p2069
assI3
(dp2070
I0
g1914
sI1
g1924
sI2
g2050
sI3
(lp2071
sI4
(lp2072
sI5
(lp2073
Vhttp://xmlns.com/foaf/0.1/name
p2074
aVhttp://www.w3.org/2002/07/owl#sameAs
p2075
asI6
(lp2076
sI7
(lp2077
Vhttp://www.w3.org/2002/07/owl#sameAs
p2078
assI4
(dp2079
I0
g1915
sI1
g1925
sI2
g2051
sI3
g2072
sI4
(lp2080
sI5
(lp2081
Vhttp://dbpedia.org/ontology/wikiPageExternalLink
p2082
aVhttp://www.w3.org/2000/01/rdf-schema#comment
p2083
aVhttp://dbpedia.org/ontology/abstract
p2084
aVhttp://dbpedia.org/ontology/wikiPageRedirects
p2085
aVhttp://www.w3.org/2002/07/owl#sameAs
p2086
aVhttp://dbpedia.org/property/hasPhotoCollection
p2087
aVhttp://dbpedia.org/property/children
p2088
aVhttp://dbpedia.org/property/knownFor
p2089
aVhttp://dbpedia.org/property/footer
p2090
asI6
(lp2091
Vhttp://dbpedia.org/ontology/abstract
p2092
aVhttp://www.w3.org/1999/02/22-rdf-syntax-ns#type
p2093
aVhttp://purl.org/dc/terms/subject
p2094
aVhttp://www.w3.org/2002/07/owl#sameAs
p2095
aVhttp://www.w3.org/2000/01/rdf-schema#comment
p2096
asI7
(lp2097
Vhttp://www.w3.org/1999/02/22-rdf-syntax-ns#type
p2098
aVhttp://purl.org/dc/terms/subject
p2099
aVhttp://www.w3.org/2000/01/rdf-schema#comment
p2100
aVhttp://dbpedia.org/ontology/abstract
p2101
aVhttp://www.w3.org/ns/prov#wasDerivedFrom
p2102
aVhttp://dbpedia.org/ontology/viafId
p2103
aVhttp://www.w3.org/2002/07/owl#sameAs
p2104
assI5
(dp2105
I0
g1917
sI1
g1926
sI2
g2052
sI3
g2073
sI4
g2081
sI5
(lp2106
sI6
(lp2107
sI7
(lp2108
ssI6
(dp2109
I0
g1918
sI1
g1993
sI2
g2059
sI3
g2076
sI4
g2091
sI5
g2107
sI6
(lp2110
sI7
(lp2111
ssI7
(dp2112
I0
g1919
sI1
g2011
sI2
g2062
sI3
g2077
sI4
g2097
sI5
g2108
sI6
g2111
sI7
(lp2113
ssa(dp2114
I0
(dp2115
I0
(lp2116
sI1
(lp2117
Vhttp://dbpedia.org/ontology/wikiPageExternalLink
p2118
aVhttp://dbpedia.org/ontology/country
p2119
aVhttp://www.w3.org/1999/02/22-rdf-syntax-ns#type
p2120
aVhttp://dbpedia.org/property/countriesAffected
p2121
aVhttp://dbpedia.org/property/shipCountry
p2122
aVhttp://dbpedia.org/ontology/abstract
p2123
aVhttp://www.w3.org/2000/01/rdf-schema#comment
p2124
aVhttp://dbpedia.org/property/place
p2125
aVhttp://dbpedia.org/property/location
p2126
aVhttp://dbpedia.org/property/olympicPlace
p2127
aVhttp://dbpedia.org/property/worldPlace
p2128
aVhttp://dbpedia.org/property/withdraws
p2129
aVhttp://dbpedia.org/property/city
p2130
aVhttp://dbpedia.org/property/asianPlaceF
p2131
aVhttp://dbpedia.org/ontology/city
p2132
aVhttp://dbpedia.org/property/usedBy
p2133
aVhttp://dbpedia.org/property/asianPlace
p2134
aVhttp://dbpedia.org/ontology/PopulatedPlace/populationDensity
p2135
asI2
(lp2136
sI3
(lp2137
Vhttp://dbpedia.org/ontology/abstract
p2138
aVhttp://www.w3.org/1999/02/22-rdf-syntax-ns#type
p2139
asI4
(lp2140
sI5
(lp2141
sI6
(lp2142
sI7
(lp2143
ssI1
(dp2144
I0
g2117
sI1
(lp2145
sI2
(lp2146
Vhttp://www.w3.org/2000/01/rdf-schema#seeAlso
p2147
aVhttp://dbpedia.org/property/origin
p2148
aVhttp://dbpedia.org/ontology/origin
p2149
aVhttp://dbpedia.org/property/place
p2150
aVhttp://dbpedia.org/property/footnoteA
p2151
aVhttp://dbpedia.org/ontology/demonym
p2152
aVhttp://dbpedia.org/ontology/officialLanguage
p2153
aVhttp://dbpedia.org/ontology/country
p2154
aVhttp://dbpedia.org/property/usingCountries
p2155
aVhttp://dbpedia.org/property/officialLanguages
p2156
aVhttp://dbpedia.org/property/winnerOrigin
p2157
aVhttp://dbpedia.org/property/foundedPlace
p2158
aVhttp://dbpedia.org/property/country
p2159
aVhttp://dbpedia.org/ontology/wikiPageExternalLink
p2160
aVhttp://dbpedia.org/ontology/populationPlace
p2161
aVhttp://dbpedia.org/ontology/abstract
p2162
aVhttp://dbpedia.org/property/location
p2163
aVhttp://dbpedia.org/ontology/usingCountry
p2164
aVhttp://dbpedia.org/property/regions
p2165
aVhttp://dbpedia.org/ontology/headquarter
p2166
aVhttp://dbpedia.org/property/shipNamesake
p2167
aVhttp://dbpedia.org/ontology/language
p2168
aVhttp://dbpedia.org/ontology/location
p2169
aVhttp://dbpedia.org/property/states
p2170
aVhttp://dbpedia.org/property/headquarters
p2171
aVhttp://www.w3.org/2000/01/rdf-schema#comment
p2172
aVhttp://dbpedia.org/ontology/birthPlace
p2173
aVhttp://dbpedia.org/ontology/wikiPageRedirects
p2174
aVhttp://dbpedia.org/property/area
p2175
aVhttp://dbpedia.org/ontology/hometown
p2176
aVhttp://dbpedia.org/property/demonym
p2177
aVhttp://dbpedia.org/ontology/spokenIn
p2178
aVhttp://dbpedia.org/property/foundingLocation
p2179
aVhttp://dbpedia.org/property/jurisdiction
p2180
aVhttp://dbpedia.org/property/popplace
p2181
asI3
(lp2182
sI4
(lp2183
sI5
(lp2184
sI6
(lp2185
Vhttp://dbpedia.org/ontology/country
p2186
aVhttp://dbpedia.org/property/returns
p2187
aVhttp://www.w3.org/1999/02/22-rdf-syntax-ns#type
p2188
aVhttp://dbpedia.org/property/shipCountry
p2189
aVhttp://www.w3.org/2000/01/rdf-schema#comment
p2190
aVhttp://dbpedia.org/property/home
p2191
aVhttp://dbpedia.org/ontology/abstract
p2192
aVhttp://dbpedia.org/property/countriesAffected
p2193
aVhttp://dbpedia.org/property/place
p2194
aVhttp://dbpedia.org/property/location
p2195
aVhttp://dbpedia.org/property/worldPlace
p2196
aVhttp://dbpedia.org/property/venue
p2197
aVhttp://dbpedia.org/ontology/PopulatedPlace/areaTotal
p2198
aVhttp://dbpedia.org/property/siteCityst
p2199
aVhttp://dbpedia.org/ontology/place
p2200
aVhttp://dbpedia.org/property/date
p2201
aVhttp://dbpedia.org/property/asianPlace
p2202
aVhttp://dbpedia.org/property/gdpPpp
p2203
aVhttp://dbpedia.org/property/country
p2204
aVhttp://dbpedia.org/property/territory
p2205
asI7
(lp2206
Vhttp://www.w3.org/2000/01/rdf-schema#seeAlso
p2207
aVhttp://dbpedia.org/ontology/countryWithFirstSatellite
p2208
aVhttp://dbpedia.org/property/hostCity
p2209
aVhttp://dbpedia.org/property/place
p2210
aVhttp://dbpedia.org/property/worldPlace
p2211
aVhttp://dbpedia.org/property/siteCityst
p2212
aVhttp://dbpedia.org/property/footnoteA
p2213
aVhttp://dbpedia.org/ontology/country
p2214
aVhttp://dbpedia.org/property/rd0t2Loc
p2215
aVhttp://www.w3.org/1999/02/22-rdf-syntax-ns#type
p2216
aVhttp://dbpedia.org/property/home
p2217
aVhttp://dbpedia.org/property/rd1t2Loc
p2218
aVhttp://dbpedia.org/property/withdraws
p2219
aVhttp://dbpedia.org/ontology/place
p2220
aVhttp://dbpedia.org/property/asianPlaceF
p2221
aVhttp://dbpedia.org/property/country
p2222
aVhttp://dbpedia.org/property/rallybase
p2223
aVhttp://dbpedia.org/ontology/wikiPageExternalLink
p2224
aVhttp://dbpedia.org/property/rd0t1Loc
p2225
aVhttp://dbpedia.org/property/rd2t2Loc
p2226
aVhttp://dbpedia.org/ontology/abstract
p2227
aVhttp://dbpedia.org/property/rd1t8Loc
p2228
aVhttp://dbpedia.org/property/venue
p2229
aVhttp://dbpedia.org/property/returns
p2230
aVhttp://dbpedia.org/property/location
p2231
aVhttp://dbpedia.org/property/rd3t2Loc
p2232
aVhttp://dbpedia.org/property/rd2t4Loc
p2233
aVhttp://dbpedia.org/property/debuts
p2234
aVhttp://dbpedia.org/ontology/language
p2235
aVhttp://dbpedia.org/property/rd1t3Loc
p2236
aVhttp://www.w3.org/2000/01/rdf-schema#comment
p2237
aVhttp://dbpedia.org/property/countriesAffected
p2238
aVhttp://dbpedia.org/property/rd0t4Loc
p2239
aVhttp://dbpedia.org/property/olympicPlace
p2240
aVhttp://purl.org/voc/vrank#hasRank
p2241
aVhttp://dbpedia.org/property/stadium
p2242
aVhttp://dbpedia.org/property/date
p2243
aVhttp://dbpedia.org/property/host
p2244
aVhttp://dbpedia.org/property/asianPlace
p2245
aVhttp://www.w3.org/2002/07/owl#sameAs
p2246
assI2
(dp2247
I0
g2136
sI1
g2146
sI2
(lp2248
sI3
(lp2249
sI4
(lp2250
sI5
(lp2251
sI6
(lp2252
sI7
(lp2253
ssI3
(dp2254
I0
g2137
sI1
g2182
sI2
g2249
sI3
(lp2255
sI4
(lp2256
sI5
(lp2257
sI6
(lp2258
Vhttp://dbpedia.org/ontology/abstract
p2259
aVhttp://www.w3.org/2000/01/rdf-schema#comment
p2260
asI7
(lp2261
Vhttp://dbpedia.org/property/caption
p2262
aVhttp://dbpedia.org/ontology/abstract
p2263
aVhttp://www.w3.org/1999/02/22-rdf-syntax-ns#type
p2264
assI4
(dp2265
I0
g2140
sI1
g2183
sI2
g2250
sI3
g2256
sI4
(lp2266
sI5
(lp2267
sI6
(lp2268
sI7
(lp2269
ssI5
(dp2270
I0
g2141
sI1
g2184
sI2
g2251
sI3
g2257
sI4
g2267
sI5
(lp2271
sI6
(lp2272
sI7
(lp2273
ssI6
(dp2274
I0
g2142
sI1
g2185
sI2
g2252
sI3
g2258
sI4
g2268
sI5
g2272
sI6
(lp2275
sI7
(lp2276
ssI7
(dp2277
I0
g2143
sI1
g2206
sI2
g2253
sI3
g2261
sI4
g2269
sI5
g2273
sI6
g2276
sI7
(lp2278
ssa(dp2279
I0
(dp2280
I0
(lp2281
sI1
(lp2282
Vhttp://dbpedia.org/ontology/wikiPageExternalLink
p2283
aVhttp://dbpedia.org/property/origin
p2284
aVhttp://dbpedia.org/ontology/assembly
p2285
aVhttp://dbpedia.org/property/rd3Team
p2286
aVhttp://www.w3.org/2000/01/rdf-schema#comment
p2287
aVhttp://dbpedia.org/property/assembly
p2288
aVhttp://dbpedia.org/ontology/abstract
p2289
aVhttp://dbpedia.org/property/hostCity
p2290
aVhttp://dbpedia.org/property/venue
p2291
aVhttp://dbpedia.org/property/location
p2292
aVhttp://dbpedia.org/property/worldPlace
p2293
aVhttp://dbpedia.org/property/withdraws
p2294
aVhttp://dbpedia.org/ontology/hometown
p2295
aVhttp://dbpedia.org/property/gdpNominal
p2296
aVhttp://dbpedia.org/property/gdpPpp
p2297
aVhttp://dbpedia.org/property/date
p2298
aVhttp://dbpedia.org/property/rallybase
p2299
aVhttp://dbpedia.org/property/debuts
p2300
aVhttp://dbpedia.org/property/site
p2301
aVhttp://dbpedia.org/property/2rpt1Loc
p2302
asI2
(lp2303
Vhttp://dbpedia.org/ontology/postalCode
p2304
asI3
(lp2305
sI4
(lp2306
sI5
(lp2307
sI6
(lp2308
sI7
(lp2309
ssI1
(dp2310
I0
g2282
sI1
(lp2311
sI2
(lp2312
sI3
(lp2313
sI4
(lp2314
Vhttp://dbpedia.org/ontology/language
p2315
asI5
(lp2316
Vhttp://www.w3.org/2000/01/rdf-schema#seeAlso
p2317
aVhttp://dbpedia.org/property/placeOfDeath
p2318
aVhttp://dbpedia.org/ontology/citizenship
p2319
aVhttp://dbpedia.org/property/recorded
p2320
aVhttp://dbpedia.org/property/broadcastArea
p2321
aVhttp://dbpedia.org/ontology/origin
p2322
aVhttp://dbpedia.org/property/membership
p2323
aVhttp://dbpedia.org/ontology/foundationPlace
p2324
aVhttp://dbpedia.org/property/city
p2325
aVhttp://dbpedia.org/ontology/deathPlace
p2326
aVhttp://dbpedia.org/ontology/city
p2327
aVhttp://dbpedia.org/ontology/locatedInArea
p2328
aVhttp://dbpedia.org/property/site
p2329
aVhttp://dbpedia.org/ontology/regionServed
p2330
aVhttp://dbpedia.org/ontology/country
p2331
aVhttp://dbpedia.org/property/nationalAnthem
p2332
aVhttp://dbpedia.org/property/bronze
p2333
aVhttp://dbpedia.org/property/hasPhotoCollection
p2334
aVhttp://dbpedia.org/property/locationCountry
p2335
aVhttp://dbpedia.org/property/ground
p2336
aVhttp://dbpedia.org/property/assembly
p2337
aVhttp://dbpedia.org/ontology/spokenIn
p2338
aVhttp://dbpedia.org/ontology/ground
p2339
aVhttp://dbpedia.org/ontology/nationality
p2340
aVhttp://dbpedia.org/property/birthPlace
p2341
aVhttp://dbpedia.org/ontology/place
p2342
aVhttp://dbpedia.org/property/placeOfBirth
p2343
aVhttp://dbpedia.org/ontology/residence
p2344
aVhttp://dbpedia.org/property/country
p2345
aVhttp://dbpedia.org/property/co
p2346
aVhttp://dbpedia.org/ontology/assembly
p2347
aVhttp://dbpedia.org/property/areaServed
p2348
aVhttp://dbpedia.org/ontology/ideology
p2349
aVhttp://dbpedia.org/property/regionalScenes
p2350
aVhttp://purl.org/dc/terms/subject
p2351
aVhttp://dbpedia.org/ontology/populationPlace
p2352
aVhttp://dbpedia.org/property/origin
p2353
aVhttp://dbpedia.org/property/manufacturer
p2354
aVhttp://dbpedia.org/property/ideology
p2355
aVhttp://dbpedia.org/property/nationality
p2356
aVhttp://dbpedia.org/ontology/abstract
p2357
aVhttp://dbpedia.org/ontology/recordedIn
p2358
aVhttp://dbpedia.org/property/deathPlace
p2359
aVhttp://dbpedia.org/property/location
p2360
aVhttp://dbpedia.org/property/states
p2361
aVhttp://xmlns.com/foaf/0.1/name
p2362
aVhttp://dbpedia.org/ontology/locationCountry
p2363
aVhttp://dbpedia.org/ontology/headquarter
p2364
aVhttp://www.w3.org/2002/07/owl#sameAs
p2365
aVhttp://dbpedia.org/property/foundation
p2366
aVhttp://dbpedia.org/property/usedBy
p2367
aVhttp://dbpedia.org/property/shipNamesake
p2368
aVhttp://dbpedia.org/property/subdivisionName
p2369
aVhttp://dbpedia.org/property/nationalOrigin
p2370
aVhttp://dbpedia.org/property/title
p2371
aVhttp://dbpedia.org/property/basinCountries
p2372
aVhttp://dbpedia.org/property/imageMap
p2373
aVhttp://dbpedia.org/property/shipBuilder
p2374
aVhttp://dbpedia.org/property/headquarters
p2375
aVhttp://dbpedia.org/property/residence
p2376
aVhttp://dbpedia.org/property/builders
p2377
aVhttp://dbpedia.org/ontology/birthPlace
p2378
aVhttp://www.w3.org/2000/01/rdf-schema#comment
p2379
aVhttp://dbpedia.org/ontology/wikiPageExternalLink
p2380
aVhttp://dbpedia.org/ontology/wikiPageRedirects
p2381
aVhttp://dbpedia.org/ontology/hometown
p2382
aVhttp://dbpedia.org/property/citizenship
p2383
aVhttp://dbpedia.org/property/basedIn
p2384
aVhttp://dbpedia.org/ontology/builder
p2385
aVhttp://dbpedia.org/property/usedby
p2386
aVhttp://dbpedia.org/ontology/language
p2387
aVhttp://dbpedia.org/ontology/stateOfOrigin
p2388
aVhttp://dbpedia.org/property/stadium
p2389
aVhttp://dbpedia.org/ontology/location
p2390
asI6
(lp2391
Vhttp://dbpedia.org/ontology/wikiPageExternalLink
p2392
aVhttp://dbpedia.org/property/origin
p2393
aVhttp://dbpedia.org/ontology/assembly
p2394
aVhttp://dbpedia.org/property/rd3Team
p2395
aVhttp://www.w3.org/2000/01/rdf-schema#comment
p2396
aVhttp://dbpedia.org/property/assembly
p2397
aVhttp://dbpedia.org/ontology/abstract
p2398
aVhttp://dbpedia.org/property/hostCity
p2399
aVhttp://dbpedia.org/property/venue
p2400
aVhttp://dbpedia.org/property/location
p2401
aVhttp://dbpedia.org/property/worldPlace
p2402
aVhttp://dbpedia.org/property/withdraws
p2403
aVhttp://dbpedia.org/ontology/hometown
p2404
aVhttp://dbpedia.org/property/gdpNominal
p2405
aVhttp://dbpedia.org/property/gdpPpp
p2406
aVhttp://dbpedia.org/property/date
p2407
aVhttp://dbpedia.org/property/rallybase
p2408
aVhttp://dbpedia.org/property/debuts
p2409
aVhttp://dbpedia.org/property/site
p2410
aVhttp://dbpedia.org/property/2rpt1Loc
p2411
asI7
(lp2412
Vhttp://dbpedia.org/ontology/PopulatedPlace/areaTotal
p2413
aVhttp://dbpedia.org/ontology/abstract
p2414
aVhttp://www.w3.org/1999/02/22-rdf-syntax-ns#type
p2415
aVhttp://dbpedia.org/ontology/assembly
p2416
aVhttp://dbpedia.org/property/assembly
p2417
assI2
(dp2418
I0
g2303
sI1
g2312
sI2
(lp2419
sI3
(lp2420
sI4
(lp2421
sI5
(lp2422
Vhttp://dbpedia.org/ontology/utcOffset
p2423
aVhttp://www.georss.org/georss/point
p2424
aVhttp://www.w3.org/2000/01/rdf-schema#comment
p2425
aVhttp://dbpedia.org/ontology/abstract
p2426
aVhttp://dbpedia.org/property/hasPhotoCollection
p2427
aVhttp://www.w3.org/2002/07/owl#sameAs
p2428
asI6
(lp2429
Vhttp://dbpedia.org/ontology/postalCode
p2430
asI7
(lp2431
Vhttp://dbpedia.org/ontology/PopulatedPlace/areaTotal
p2432
assI3
(dp2433
I0
g2305
sI1
g2313
sI2
g2420
sI3
(lp2434
sI4
(lp2435
sI5
(lp2436
sI6
(lp2437
sI7
(lp2438
ssI4
(dp2439
I0
g2306
sI1
g2314
sI2
g2421
sI3
g2435
sI4
(lp2440
sI5
(lp2441
sI6
(lp2442
sI7
(lp2443
ssI5
(dp2444
I0
g2307
sI1
g2316
sI2
g2422
sI3
g2436
sI4
g2441
sI5
(lp2445
sI6
(lp2446
sI7
(lp2447
ssI6
(dp2448
I1
g2391
sI2
g2429
sI3
g2437
sI4
g2442
sI5
g2446
sI6
(lp2449
sI7
(lp2450
ssI7
(dp2451
I0
g2309
sI1
g2412
sI2
g2431
sI3
g2438
sI4
g2443
sI5
g2447
sI6
g2450
sI7
(lp2452
ssa(dp2453
I0
(dp2454
I0
(lp2455
sI1
(lp2456
Vhttp://dbpedia.org/property/origin
p2457
aVhttp://dbpedia.org/property/school
p2458
aVhttp://dbpedia.org/ontology/origin
p2459
aVhttp://dbpedia.org/property/place
p2460
aVhttp://dbpedia.org/property/worldPlace
p2461
aVhttp://dbpedia.org/property/fullname
p2462
aVhttp://dbpedia.org/ontology/country
p2463
aVhttp://dbpedia.org/property/returns
p2464
aVhttp://www.w3.org/1999/02/22-rdf-syntax-ns#type
p2465
aVhttp://dbpedia.org/property/home
p2466
aVhttp://dbpedia.org/property/assembly
p2467
aVhttp://dbpedia.org/property/discoverySite
p2468
aVhttp://dbpedia.org/property/birthPlace
p2469
aVhttp://dbpedia.org/ontology/place
p2470
aVhttp://dbpedia.org/property/country
p2471
aVhttp://dbpedia.org/ontology/abstract
p2472
aVhttp://dbpedia.org/property/venue
p2473
aVhttp://dbpedia.org/property/location
p2474
aVhttp://dbpedia.org/ontology/city
p2475
aVhttp://dbpedia.org/property/usedBy
p2476
aVhttp://dbpedia.org/property/nationalOrigin
p2477
aVhttp://dbpedia.org/ontology/location
p2478
aVhttp://dbpedia.org/ontology/assembly
p2479
aVhttp://dbpedia.org/property/rd2t1Loc
p2480
aVhttp://www.w3.org/2000/01/rdf-schema#comment
p2481
aVhttp://dbpedia.org/property/rd1t1Loc
p2482
aVhttp://dbpedia.org/ontology/hometown
p2483
aVhttp://dbpedia.org/property/rd3t1Loc
p2484
aVhttp://dbpedia.org/property/stadium
p2485
asI2
(lp2486
Vhttp://purl.org/voc/vrank#hasRank
p2487
asI3
(lp2488
sI4
(lp2489
sI5
(lp2490
sI6
(lp2491
sI7
(lp2492
ssI1
(dp2493
I0
g2456
sI1
(lp2494
sI2
(lp2495
Vhttp://www.w3.org/2000/01/rdf-schema#seeAlso
p2496
aVhttp://dbpedia.org/property/origin
p2497
aVhttp://dbpedia.org/ontology/poleDriverCountry
p2498
aVhttp://dbpedia.org/ontology/demonym
p2499
aVhttp://dbpedia.org/property/demonym
p2500
aVhttp://dbpedia.org/ontology/country
p2501
aVhttp://www.w3.org/1999/02/22-rdf-syntax-ns#type
p2502
aVhttp://dbpedia.org/property/locationCountry
p2503
aVhttp://dbpedia.org/ontology/secondDriverCountry
p2504
aVhttp://dbpedia.org/property/allegiance
p2505
aVhttp://dbpedia.org/property/birthPlace
p2506
aVhttp://dbpedia.org/ontology/place
p2507
aVhttp://dbpedia.org/ontology/ethnicGroup
p2508
aVhttp://dbpedia.org/property/office
p2509
aVhttp://dbpedia.org/property/garrison
p2510
aVhttp://dbpedia.org/property/country
p2511
aVhttp://dbpedia.org/property/shipCountry
p2512
aVhttp://dbpedia.org/property/areaServed
p2513
aVhttp://dbpedia.org/property/placeOfBirth
p2514
aVhttp://dbpedia.org/ontology/ideology
p2515
aVhttp://purl.org/dc/terms/subject
p2516
aVhttp://dbpedia.org/property/ideology
p2517
aVhttp://dbpedia.org/ontology/abstract
p2518
aVhttp://dbpedia.org/ontology/firstDriverCountry
p2519
aVhttp://dbpedia.org/property/location
p2520
aVhttp://dbpedia.org/property/states
p2521
aVhttp://dbpedia.org/ontology/locationCountry
p2522
aVhttp://dbpedia.org/ontology/headquarter
p2523
aVhttp://dbpedia.org/ontology/language
p2524
aVhttp://dbpedia.org/ontology/location
p2525
aVhttp://dbpedia.org/property/languages
p2526
aVhttp://dbpedia.org/ontology/territory
p2527
aVhttp://dbpedia.org/property/shipBuilder
p2528
aVhttp://dbpedia.org/property/headquarters
p2529
aVhttp://www.w3.org/2000/01/rdf-schema#comment
p2530
aVhttp://dbpedia.org/ontology/birthPlace
p2531
aVhttp://dbpedia.org/ontology/wikiPageRedirects
p2532
aVhttp://dbpedia.org/ontology/hometown
p2533
aVhttp://dbpedia.org/ontology/garrison
p2534
aVhttp://dbpedia.org/property/locationCity
p2535
aVhttp://dbpedia.org/ontology/spokenIn
p2536
aVhttp://dbpedia.org/ontology/builder
p2537
aVhttp://dbpedia.org/property/jurisdiction
p2538
aVhttp://dbpedia.org/ontology/locationCity
p2539
aVhttp://dbpedia.org/ontology/deathPlace
p2540
asI3
(lp2541
sI4
(lp2542
sI5
(lp2543
sI6
(lp2544
Vhttp://dbpedia.org/ontology/wikiPageExternalLink
p2545
aVhttp://dbpedia.org/ontology/country
p2546
aVhttp://www.w3.org/1999/02/22-rdf-syntax-ns#type
p2547
aVhttp://dbpedia.org/property/birthPlace
p2548
aVhttp://www.w3.org/2002/07/owl#sameAs
p2549
aVhttp://dbpedia.org/ontology/abstract
p2550
aVhttp://dbpedia.org/property/place
p2551
aVhttp://dbpedia.org/property/deathPlace
p2552
aVhttp://dbpedia.org/property/discoverySite
p2553
aVhttp://dbpedia.org/ontology/wikiPageRedirects
p2554
aVhttp://dbpedia.org/property/combatant
p2555
aVhttp://dbpedia.org/ontology/restingPlace
p2556
aVhttp://dbpedia.org/ontology/place
p2557
aVhttp://dbpedia.org/ontology/deathPlace
p2558
aVhttp://dbpedia.org/property/placeOfDeath
p2559
aVhttp://dbpedia.org/property/country
p2560
aVhttp://dbpedia.org/property/fifaTrigramme
p2561
aVhttp://dbpedia.org/property/fullname
p2562
aVhttp://dbpedia.org/ontology/birthPlace
p2563
aVhttp://dbpedia.org/property/stadium
p2564
aVhttp://dbpedia.org/property/placeOfBirth
p2565
asI7
(lp2566
Vhttp://dbpedia.org/property/placeOfDeath
p2567
aVhttp://dbpedia.org/property/school
p2568
aVhttp://dbpedia.org/property/place
p2569
aVhttp://dbpedia.org/property/worldPlace
p2570
aVhttp://dbpedia.org/property/site
p2571
aVhttp://dbpedia.org/ontology/country
p2572
aVhttp://dbpedia.org/property/returns
p2573
aVhttp://dbpedia.org/property/withdraws
p2574
aVhttp://dbpedia.org/ontology/nationality
p2575
aVhttp://dbpedia.org/property/birthPlace
p2576
aVhttp://dbpedia.org/ontology/place
p2577
aVhttp://dbpedia.org/property/placeOfBirth
p2578
aVhttp://dbpedia.org/property/country
p2579
aVhttp://dbpedia.org/property/gdpNominalPerCapita
p2580
aVhttp://dbpedia.org/property/venue
p2581
aVhttp://dbpedia.org/property/location
p2582
aVhttp://dbpedia.org/ontology/deathPlace
p2583
aVhttp://dbpedia.org/property/stopover
p2584
aVhttp://dbpedia.org/property/nationalOrigin
p2585
aVhttp://dbpedia.org/ontology/assembly
p2586
aVhttp://dbpedia.org/ontology/location
p2587
aVhttp://dbpedia.org/ontology/birthPlace
p2588
aVhttp://dbpedia.org/property/stadium
p2589
aVhttp://dbpedia.org/property/rd4t1Loc
p2590
assI2
(dp2591
I0
g2486
sI1
g2495
sI2
(lp2592
sI3
(lp2593
sI4
(lp2594
sI5
(lp2595
sI6
(lp2596
Vhttp://dbpedia.org/ontology/abstract
p2597
aVhttp://www.w3.org/1999/02/22-rdf-syntax-ns#type
p2598
aVhttp://www.w3.org/2000/01/rdf-schema#comment
p2599
asI7
(lp2600
Vhttp://www.w3.org/2002/07/owl#sameAs
p2601
assI3
(dp2602
I0
g2488
sI1
g2541
sI2
g2593
sI3
(lp2603
sI4
(lp2604
sI5
(lp2605
sI6
(lp2606
Vhttp://dbpedia.org/ontology/abstract
p2607
aVhttp://www.w3.org/1999/02/22-rdf-syntax-ns#type
p2608
aVhttp://www.w3.org/2000/01/rdf-schema#comment
p2609
asI7
(lp2610
Vhttp://www.w3.org/1999/02/22-rdf-syntax-ns#type
p2611
assI4
(dp2612
I0
g2489
sI1
g2542
sI2
g2594
sI3
g2604
sI4
(lp2613
sI5
(lp2614
sI6
(lp2615
sI7
(lp2616
ssI5
(dp2617
I0
g2490
sI1
g2543
sI2
g2595
sI3
g2605
sI4
g2614
sI5
(lp2618
sI6
(lp2619
sI7
(lp2620
ssI6
(dp2621
I0
g2491
sI1
g2544
sI2
g2596
sI3
g2606
sI4
g2615
sI5
g2619
sI6
(lp2622
sI7
(lp2623
ssI7
(dp2624
I0
g2492
sI1
g2566
sI2
g2600
sI3
g2610
sI4
g2616
sI5
g2620
sI6
g2623
sI7
(lp2625
ssa(dp2626
I0
(dp2627
I0
(lp2628
sI1
(lp2629
Vhttp://dbpedia.org/property/ground
p2630
aVhttp://dbpedia.org/property/place
p2631
aVhttp://dbpedia.org/property/worldPlace
p2632
aVhttp://dbpedia.org/property/city
p2633
aVhttp://dbpedia.org/ontology/country
p2634
aVhttp://www.w3.org/1999/02/22-rdf-syntax-ns#type
p2635
aVhttp://www.w3.org/2002/07/owl#sameAs
p2636
aVhttp://dbpedia.org/property/home
p2637
aVhttp://dbpedia.org/property/hostCity
p2638
aVhttp://dbpedia.org/property/championshipPlace
p2639
aVhttp://dbpedia.org/ontology/ground
p2640
aVhttp://dbpedia.org/property/withdraws
p2641
aVhttp://dbpedia.org/ontology/place
p2642
aVhttp://dbpedia.org/ontology/language
p2643
aVhttp://dbpedia.org/property/country
p2644
aVhttp://dbpedia.org/property/gdpNominal
p2645
aVhttp://dbpedia.org/property/siteCityst
p2646
aVhttp://dbpedia.org/ontology/abstract
p2647
aVhttp://dbpedia.org/property/venue
p2648
aVhttp://dbpedia.org/property/location
p2649
aVhttp://dbpedia.org/ontology/builder
p2650
aVhttp://dbpedia.org/ontology/headquarter
p2651
aVhttp://dbpedia.org/property/usedBy
p2652
aVhttp://dbpedia.org/property/nationalOrigin
p2653
aVhttp://dbpedia.org/property/headquarters
p2654
aVhttp://dbpedia.org/property/locale
p2655
aVhttp://dbpedia.org/property/rd2t1Loc
p2656
aVhttp://www.w3.org/2000/01/rdf-schema#comment
p2657
aVhttp://dbpedia.org/property/rd3t1Loc
p2658
aVhttp://dbpedia.org/ontology/PopulatedPlace/areaTotal
p2659
aVhttp://dbpedia.org/property/rd1t2Loc
p2660
aVhttp://dbpedia.org/property/asianPlace
p2661
aVhttp://dbpedia.org/property/stadium
p2662
aVhttp://dbpedia.org/ontology/location
p2663
asI2
(lp2664
sI3
(lp2665
sI4
(lp2666
sI5
(lp2667
sI6
(lp2668
sI7
(lp2669
ssI1
(dp2670
I0
g2629
sI1
(lp2671
sI2
(lp2672
sI3
(lp2673
sI4
(lp2674
sI5
(lp2675
Vhttp://www.w3.org/2000/01/rdf-schema#seeAlso
p2676
aVhttp://dbpedia.org/property/origin
p2677
aVhttp://dbpedia.org/property/finish
p2678
aVhttp://dbpedia.org/property/broadcastArea
p2679
aVhttp://dbpedia.org/ontology/origin
p2680
aVhttp://dbpedia.org/property/restingPlace
p2681
aVhttp://dbpedia.org/property/place
p2682
aVhttp://dbpedia.org/ontology/foundationPlace
p2683
aVhttp://dbpedia.org/property/city
p2684
aVhttp://dbpedia.org/property/base
p2685
aVhttp://dbpedia.org/property/placeOfDeath
p2686
aVhttp://dbpedia.org/ontology/city
p2687
aVhttp://dbpedia.org/property/footnoteA
p2688
aVhttp://dbpedia.org/property/caption
p2689
aVhttp://dbpedia.org/property/hasPhotoCollection
p2690
aVhttp://dbpedia.org/property/label
p2691
aVhttp://dbpedia.org/ontology/country
p2692
aVhttp://dbpedia.org/property/region
p2693
aVhttp://www.w3.org/1999/02/22-rdf-syntax-ns#type
p2694
aVhttp://dbpedia.org/ontology/nearestCity
p2695
aVhttp://www.w3.org/2002/07/owl#sameAs
p2696
aVhttp://dbpedia.org/property/locationCountry
p2697
aVhttp://dbpedia.org/property/ground
p2698
aVhttp://dbpedia.org/property/assembly
p2699
aVhttp://dbpedia.org/property/locations
p2700
aVhttp://dbpedia.org/ontology/ground
p2701
aVhttp://dbpedia.org/ontology/nationality
p2702
aVhttp://dbpedia.org/property/birthPlace
p2703
aVhttp://dbpedia.org/ontology/restingPlace
p2704
aVhttp://dbpedia.org/ontology/place
p2705
aVhttp://dbpedia.org/property/placeOfBirth
p2706
aVhttp://dbpedia.org/property/stateParty
p2707
aVhttp://dbpedia.org/property/country
p2708
aVhttp://dbpedia.org/property/shipCountry
p2709
aVhttp://dbpedia.org/property/nearestCity
p2710
aVhttp://dbpedia.org/ontology/wikiPageExternalLink
p2711
aVhttp://purl.org/dc/terms/subject
p2712
aVhttp://dbpedia.org/ontology/populationPlace
p2713
aVhttp://dbpedia.org/property/lagePolitisch
p2714
aVhttp://dbpedia.org/property/primaryUser
p2715
aVhttp://dbpedia.org/property/nationality
p2716
aVhttp://dbpedia.org/ontology/abstract
p2717
aVhttp://dbpedia.org/ontology/recordedIn
p2718
aVhttp://dbpedia.org/property/venue
p2719
aVhttp://dbpedia.org/property/deathPlace
p2720
aVhttp://dbpedia.org/ontology/usingCountry
p2721
aVhttp://dbpedia.org/property/location
p2722
aVhttp://dbpedia.org/property/states
p2723
aVhttp://dbpedia.org/ontology/locationCountry
p2724
aVhttp://dbpedia.org/property/imageMap
p2725
aVhttp://dbpedia.org/ontology/spokenIn
p2726
aVhttp://dbpedia.org/ontology/deathPlace
p2727
aVhttp://dbpedia.org/property/foundation
p2728
aVhttp://dbpedia.org/property/usedBy
p2729
aVhttp://dbpedia.org/property/nationalOrigin
p2730
aVhttp://dbpedia.org/ontology/broadcastArea
p2731
aVhttp://dbpedia.org/property/locale
p2732
aVhttp://dbpedia.org/property/cityServed
p2733
aVhttp://dbpedia.org/property/popmax
p2734
aVhttp://dbpedia.org/ontology/assembly
p2735
aVhttp://dbpedia.org/ontology/location
p2736
aVhttp://dbpedia.org/ontology/residence
p2737
aVhttp://dbpedia.org/property/residence
p2738
aVhttp://dbpedia.org/ontology/locationCity
p2739
aVhttp://dbpedia.org/ontology/birthPlace
p2740
aVhttp://www.w3.org/2000/01/rdf-schema#comment
p2741
aVhttp://dbpedia.org/ontology/wikiPageRedirects
p2742
aVhttp://dbpedia.org/ontology/stateOfOrigin
p2743
aVhttp://dbpedia.org/ontology/hometown
p2744
aVhttp://dbpedia.org/ontology/citizenship
p2745
aVhttp://dbpedia.org/property/locationCity
p2746
aVhttp://dbpedia.org/property/citizenship
p2747
aVhttp://dbpedia.org/property/imageCoat
p2748
aVhttp://dbpedia.org/ontology/builder
p2749
aVhttp://dbpedia.org/property/basinCountries
p2750
aVhttp://dbpedia.org/property/host
p2751
aVhttp://dbpedia.org/property/setting
p2752
aVhttp://dbpedia.org/property/builders
p2753
aVhttp://dbpedia.org/property/stadium
p2754
aVhttp://dbpedia.org/property/shortDescription
p2755
asI6
(lp2756
Vhttp://dbpedia.org/property/origin
p2757
aVhttp://dbpedia.org/property/placeOfDeath
p2758
aVhttp://dbpedia.org/property/recorded
p2759
aVhttp://dbpedia.org/property/broadcastArea
p2760
aVhttp://dbpedia.org/ontology/origin
p2761
aVhttp://dbpedia.org/property/assembly
p2762
aVhttp://dbpedia.org/property/deathDate
p2763
aVhttp://dbpedia.org/property/place
p2764
aVhttp://dbpedia.org/property/worldPlace
p2765
aVhttp://dbpedia.org/ontology/garrison
p2766
aVhttp://dbpedia.org/property/city
p2767
aVhttp://dbpedia.org/ontology/poleDriverCountry
p2768
aVhttp://dbpedia.org/ontology/deathPlace
p2769
aVhttp://dbpedia.org/ontology/battle
p2770
aVhttp://dbpedia.org/property/1rpt2Loc
p2771
aVhttp://dbpedia.org/ontology/fastestDriverCountry
p2772
aVhttp://dbpedia.org/ontology/thirdDriverCountry
p2773
aVhttp://dbpedia.org/ontology/PopulatedPlace/populationDensity
p2774
aVhttp://dbpedia.org/ontology/country
p2775
aVhttp://dbpedia.org/property/returns
p2776
aVhttp://www.w3.org/1999/02/22-rdf-syntax-ns#type
p2777
aVhttp://dbpedia.org/property/rd2t3Loc
p2778
aVhttp://dbpedia.org/property/rd3t3Loc
p2779
aVhttp://www.w3.org/2002/07/owl#sameAs
p2780
aVhttp://dbpedia.org/property/home
p2781
aVhttp://dbpedia.org/ontology/secondDriverCountry
p2782
aVhttp://dbpedia.org/property/rd1t5Loc
p2783
aVhttp://dbpedia.org/property/rd1t2Loc
p2784
aVhttp://dbpedia.org/property/discoverySite
p2785
aVhttp://dbpedia.org/ontology/ground
p2786
aVhttp://dbpedia.org/property/available
p2787
aVhttp://dbpedia.org/property/championshipPlace
p2788
aVhttp://dbpedia.org/property/birthPlace
p2789
aVhttp://dbpedia.org/ontology/place
p2790
aVhttp://dbpedia.org/property/placeOfBirth
p2791
aVhttp://dbpedia.org/property/stateParty
p2792
aVhttp://dbpedia.org/property/country
p2793
aVhttp://dbpedia.org/property/countries
p2794
aVhttp://purl.org/dc/terms/subject
p2795
aVhttp://www.w3.org/2000/01/rdf-schema#comment
p2796
aVhttp://dbpedia.org/property/rd2t2Loc
p2797
aVhttp://dbpedia.org/ontology/firstDriverCountry
p2798
aVhttp://dbpedia.org/ontology/abstract
p2799
aVhttp://dbpedia.org/ontology/recordedIn
p2800
aVhttp://dbpedia.org/property/venue
p2801
aVhttp://dbpedia.org/property/deathPlace
p2802
aVhttp://dbpedia.org/property/location
p2803
aVhttp://dbpedia.org/property/states
p2804
aVhttp://dbpedia.org/property/rd3t2Loc
p2805
aVhttp://dbpedia.org/ontology/headquarter
p2806
aVhttp://dbpedia.org/property/namedAfter
p2807
aVhttp://dbpedia.org/property/primaryUser
p2808
aVhttp://dbpedia.org/ontology/city
p2809
aVhttp://dbpedia.org/property/usedBy
p2810
aVhttp://dbpedia.org/property/hostCity
p2811
aVhttp://dbpedia.org/property/nationalOrigin
p2812
aVhttp://dbpedia.org/ontology/location
p2813
aVhttp://dbpedia.org/property/locale
p2814
aVhttp://dbpedia.org/property/basinCountries
p2815
aVhttp://dbpedia.org/property/rd1t3Loc
p2816
aVhttp://dbpedia.org/property/garrison
p2817
aVhttp://dbpedia.org/ontology/assembly
p2818
aVhttp://dbpedia.org/property/headquarters
p2819
aVhttp://dbpedia.org/ontology/PopulatedPlace/areaTotal
p2820
aVhttp://dbpedia.org/ontology/birthPlace
p2821
aVhttp://dbpedia.org/property/countriesAffected
p2822
aVhttp://dbpedia.org/ontology/releaseLocation
p2823
aVhttp://dbpedia.org/property/rd1t1Loc
p2824
aVhttp://dbpedia.org/property/rd2t5Loc
p2825
aVhttp://dbpedia.org/property/rd3t1Loc
p2826
aVhttp://dbpedia.org/property/destination
p2827
aVhttp://dbpedia.org/property/ground
p2828
aVhttp://dbpedia.org/property/rd4t2Loc
p2829
aVhttp://dbpedia.org/property/battles
p2830
aVhttp://dbpedia.org/ontology/language
p2831
aVhttp://dbpedia.org/property/rd5t1Loc
p2832
aVhttp://dbpedia.org/property/stadium
p2833
aVhttp://dbpedia.org/property/rd4t1Loc
p2834
asI7
(lp2835
Vhttp://dbpedia.org/ontology/country
p2836
aVhttp://www.w3.org/1999/02/22-rdf-syntax-ns#type
p2837
aVhttp://dbpedia.org/ontology/location
p2838
aVhttp://dbpedia.org/ontology/birthPlace
p2839
aVhttp://dbpedia.org/property/location
p2840
aVhttp://dbpedia.org/property/city
p2841
aVhttp://dbpedia.org/property/birthPlace
p2842
aVhttp://dbpedia.org/ontology/place
p2843
aVhttp://dbpedia.org/property/placeOfBirth
p2844
aVhttp://dbpedia.org/property/country
p2845
aVhttp://dbpedia.org/property/namedAfter
p2846
aVhttp://dbpedia.org/ontology/PopulatedPlace/populationDensity
p2847
assI2
(dp2848
I0
g2664
sI1
g2672
sI2
(lp2849
sI3
(lp2850
sI4
(lp2851
sI5
(lp2852
sI6
(lp2853
sI7
(lp2854
ssI3
(dp2855
I0
g2665
sI1
g2673
sI2
g2850
sI3
(lp2856
sI4
(lp2857
sI5
(lp2858
Vhttp://dbpedia.org/ontology/wikiPageExternalLink
p2859
aVhttp://www.w3.org/2000/01/rdf-schema#comment
p2860
aVhttp://dbpedia.org/ontology/abstract
p2861
aVhttp://xmlns.com/foaf/0.1/depiction
p2862
aVhttp://dbpedia.org/ontology/thumbnail
p2863
aVhttp://dbpedia.org/property/hasPhotoCollection
p2864
asI6
(lp2865
Vhttp://dbpedia.org/ontology/wikiPageExternalLink
p2866
aVhttp://www.w3.org/1999/02/22-rdf-syntax-ns#type
p2867
aVhttp://www.w3.org/2000/01/rdf-schema#comment
p2868
aVhttp://dbpedia.org/ontology/abstract
p2869
aVhttp://xmlns.com/foaf/0.1/depiction
p2870
aVhttp://purl.org/voc/vrank#hasRank
p2871
aVhttp://dbpedia.org/ontology/thumbnail
p2872
aVhttp://www.w3.org/ns/prov#wasDerivedFrom
p2873
aVhttp://www.w3.org/2002/07/owl#sameAs
p2874
asI7
(lp2875
ssI4
(dp2876
I0
g2666
sI1
g2674
sI2
g2851
sI3
g2857
sI4
(lp2877
sI5
(lp2878
sI6
(lp2879
sI7
(lp2880
ssI5
(dp2881
I0
g2667
sI1
g2675
sI2
g2852
sI3
g2858
sI4
g2878
sI5
(lp2882
sI6
(lp2883
sI7
(lp2884
ssI6
(dp2885
I0
g2668
sI1
g2756
sI2
g2853
sI3
g2865
sI4
g2879
sI5
g2883
sI6
(lp2886
sI7
(lp2887
ssI7
(dp2888
I0
g2669
sI1
g2835
sI2
g2854
sI3
g2875
sI4
g2880
sI5
g2884
sI6
g2887
sI7
(lp2889
ssa(dp2890
I0
(dp2891
I0
(lp2892
sI1
(lp2893
Vhttp://dbpedia.org/ontology/country
p2894
aVhttp://dbpedia.org/property/returns
p2895
aVhttp://dbpedia.org/ontology/location
p2896
aVhttp://www.w3.org/2000/01/rdf-schema#comment
p2897
aVhttp://dbpedia.org/property/home
p2898
aVhttp://dbpedia.org/ontology/abstract
p2899
aVhttp://dbpedia.org/property/location
p2900
aVhttp://dbpedia.org/ontology/ground
p2901
aVhttp://dbpedia.org/property/populationEstimateYear
p2902
aVhttp://dbpedia.org/ontology/homeStadium
p2903
aVhttp://dbpedia.org/property/country
p2904
aVhttp://dbpedia.org/property/fullname
p2905
aVhttp://dbpedia.org/property/asianPlace
p2906
aVhttp://dbpedia.org/property/l
p2907
aVhttp://dbpedia.org/property/stadium
p2908
asI2
(lp2909
Vhttp://www.w3.org/ns/prov#wasDerivedFrom
p2910
aVhttp://dbpedia.org/ontology/PopulatedPlace/areaTotal
p2911
aVhttp://www.w3.org/1999/02/22-rdf-syntax-ns#type
p2912
asI3
(lp2913
sI4
(lp2914
Vhttp://purl.org/voc/vrank#hasRank
p2915
asI5
(lp2916
sI6
(lp2917
sI7
(lp2918
ssI1
(dp2919
I0
g2893
sI1
(lp2920
sI2
(lp2921
Vhttp://dbpedia.org/ontology/wikiPageExternalLink
p2922
aVhttp://xmlns.com/foaf/0.1/homepage
p2923
asI3
(lp2924
sI4
(lp2925
sI5
(lp2926
Vhttp://www.w3.org/2000/01/rdf-schema#seeAlso
p2927
aVhttp://dbpedia.org/property/origin
p2928
aVhttp://dbpedia.org/ontology/origin
p2929
aVhttp://dbpedia.org/ontology/wineRegion
p2930
aVhttp://dbpedia.org/property/placeOfDeath
p2931
aVhttp://dbpedia.org/ontology/locatedInArea
p2932
aVhttp://dbpedia.org/property/footnoteB
p2933
aVhttp://dbpedia.org/property/placeOfBurial
p2934
aVhttp://dbpedia.org/property/hasPhotoCollection
p2935
aVhttp://dbpedia.org/property/img
p2936
aVhttp://dbpedia.org/ontology/country
p2937
aVhttp://www.w3.org/1999/02/22-rdf-syntax-ns#type
p2938
aVhttp://dbpedia.org/property/homecountry
p2939
aVhttp://www.w3.org/2002/07/owl#sameAs
p2940
aVhttp://dbpedia.org/property/assembly
p2941
aVhttp://dbpedia.org/ontology/nationality
p2942
aVhttp://dbpedia.org/property/birthPlace
p2943
aVhttp://dbpedia.org/ontology/place
p2944
aVhttp://dbpedia.org/property/placeOfBirth
p2945
aVhttp://dbpedia.org/ontology/residence
p2946
aVhttp://dbpedia.org/property/country
p2947
aVhttp://dbpedia.org/ontology/assembly
p2948
aVhttp://dbpedia.org/property/establishedEvent
p2949
aVhttp://dbpedia.org/ontology/wikiPageExternalLink
p2950
aVhttp://purl.org/dc/terms/subject
p2951
aVhttp://dbpedia.org/property/nationality
p2952
aVhttp://dbpedia.org/ontology/abstract
p2953
aVhttp://dbpedia.org/property/venue
p2954
aVhttp://dbpedia.org/property/deathPlace
p2955
aVhttp://dbpedia.org/property/location
p2956
aVhttp://dbpedia.org/property/cityServed
p2957
aVhttp://dbpedia.org/ontology/locationCountry
p2958
aVhttp://dbpedia.org/ontology/headquarter
p2959
aVhttp://dbpedia.org/property/statRef
p2960
aVhttp://dbpedia.org/ontology/city
p2961
aVhttp://dbpedia.org/property/usedBy
p2962
aVhttp://dbpedia.org/property/nationalOrigin
p2963
aVhttp://dbpedia.org/ontology/location
p2964
aVhttp://dbpedia.org/property/locale
p2965
aVhttp://dbpedia.org/property/regions
p2966
aVhttp://dbpedia.org/property/imageMap
p2967
aVhttp://dbpedia.org/property/moreUsers
p2968
aVhttp://dbpedia.org/property/headquarters
p2969
aVhttp://dbpedia.org/property/residence
p2970
aVhttp://dbpedia.org/ontology/birthPlace
p2971
aVhttp://www.w3.org/2000/01/rdf-schema#comment
p2972
aVhttp://dbpedia.org/ontology/wikiPageRedirects
p2973
aVhttp://dbpedia.org/ontology/restingPlace
p2974
aVhttp://dbpedia.org/property/areaServed
p2975
aVhttp://dbpedia.org/property/gold
p2976
aVhttp://dbpedia.org/ontology/stateOfOrigin
p2977
aVhttp://dbpedia.org/property/builders
p2978
aVhttp://dbpedia.org/property/stadium
p2979
aVhttp://dbpedia.org/ontology/deathPlace
p2980
asI6
(lp2981
Vhttp://dbpedia.org/property/origin
p2982
aVhttp://dbpedia.org/property/placeOfDeath
p2983
aVhttp://dbpedia.org/property/almaMater
p2984
aVhttp://dbpedia.org/property/hostCity
p2985
aVhttp://dbpedia.org/ontology/origin
p2986
aVhttp://dbpedia.org/property/deathDate
p2987
aVhttp://dbpedia.org/property/place
p2988
aVhttp://dbpedia.org/property/debuts
p2989
aVhttp://dbpedia.org/ontology/poleDriverCountry
p2990
aVhttp://www.w3.org/ns/prov#wasDerivedFrom
p2991
aVhttp://dbpedia.org/ontology/locatedInArea
p2992
aVhttp://dbpedia.org/property/rd2t3Loc
p2993
aVhttp://dbpedia.org/property/hasPhotoCollection
p2994
aVhttp://dbpedia.org/property/rd1t4Loc
p2995
aVhttp://dbpedia.org/property/establishedDate
p2996
aVhttp://dbpedia.org/property/region
p2997
aVhttp://www.w3.org/1999/02/22-rdf-syntax-ns#type
p2998
aVhttp://dbpedia.org/property/home
p2999
aVhttp://dbpedia.org/property/rd1t5Loc
p3000
aVhttp://dbpedia.org/ontology/ground
p3001
aVhttp://dbpedia.org/property/withdraws
p3002
aVhttp://dbpedia.org/property/birthPlace
p3003
aVhttp://dbpedia.org/property/placeOfBirth
p3004
aVhttp://dbpedia.org/property/country
p3005
aVhttp://dbpedia.org/ontology/wikiPageExternalLink
p3006
aVhttp://purl.org/dc/terms/subject
p3007
aVhttp://dbpedia.org/ontology/country
p3008
aVhttp://dbpedia.org/property/gdpNominalPerCapita
p3009
aVhttp://dbpedia.org/ontology/abstract
p3010
aVhttp://dbpedia.org/property/venue
p3011
aVhttp://dbpedia.org/property/returns
p3012
aVhttp://dbpedia.org/property/deathPlace
p3013
aVhttp://dbpedia.org/ontology/deathPlace
p3014
aVhttp://dbpedia.org/ontology/city
p3015
aVhttp://dbpedia.org/property/usedBy
p3016
aVhttp://dbpedia.org/property/nationalOrigin
p3017
aVhttp://dbpedia.org/ontology/location
p3018
aVhttp://dbpedia.org/property/basinCountries
p3019
aVhttp://www.georss.org/georss/point
p3020
aVhttp://dbpedia.org/property/rd2t1Loc
p3021
aVhttp://www.w3.org/2000/01/rdf-schema#comment
p3022
aVhttp://dbpedia.org/property/location
p3023
aVhttp://dbpedia.org/property/countries
p3024
aVhttp://dbpedia.org/property/olympicPlace
p3025
aVhttp://dbpedia.org/property/rd2t8Loc
p3026
aVhttp://www.w3.org/2002/07/owl#sameAs
p3027
aVhttp://dbpedia.org/ontology/thirdDriverCountry
p3028
aVhttp://dbpedia.org/ontology/birthPlace
p3029
aVhttp://dbpedia.org/property/stadium
p3030
aVhttp://dbpedia.org/ontology/homeStadium
p3031
asI7
(lp3032
Vhttp://dbpedia.org/property/origin
p3033
aVhttp://dbpedia.org/property/placeOfDeath
p3034
aVhttp://dbpedia.org/property/place
p3035
aVhttp://dbpedia.org/property/worldPlace
p3036
aVhttp://dbpedia.org/property/birthplace
p3037
aVhttp://dbpedia.org/ontology/country
p3038
aVhttp://dbpedia.org/property/home
p3039
aVhttp://dbpedia.org/property/birthPlace
p3040
aVhttp://dbpedia.org/property/placeOfBirth
p3041
aVhttp://dbpedia.org/property/country
p3042
aVhttp://dbpedia.org/property/start
p3043
aVhttp://dbpedia.org/ontology/abstract
p3044
aVhttp://dbpedia.org/property/venue
p3045
aVhttp://dbpedia.org/property/location
p3046
aVhttp://dbpedia.org/property/deathPlace
p3047
aVhttp://dbpedia.org/ontology/deathPlace
p3048
aVhttp://dbpedia.org/property/nationalOrigin
p3049
aVhttp://dbpedia.org/ontology/location
p3050
aVhttp://dbpedia.org/ontology/birthPlace
p3051
aVhttp://dbpedia.org/property/olympicPlace
p3052
aVhttp://dbpedia.org/property/asianPlace
p3053
aVhttp://dbpedia.org/property/stadium
p3054
assI2
(dp3055
I0
g2909
sI1
g2921
sI2
(lp3056
sI3
(lp3057
sI4
(lp3058
sI5
(lp3059
Vhttp://dbpedia.org/ontology/utcOffset
p3060
aVhttp://www.georss.org/georss/point
p3061
aVhttp://www.w3.org/2000/01/rdf-schema#comment
p3062
aVhttp://dbpedia.org/ontology/abstract
p3063
aVhttp://dbpedia.org/property/hasPhotoCollection
p3064
aVhttp://www.w3.org/2002/07/owl#sameAs
p3065
asI6
(lp3066
Vhttp://dbpedia.org/ontology/utcOffset
p3067
aVhttp://www.georss.org/georss/point
p3068
aVhttp://www.w3.org/2000/01/rdf-schema#comment
p3069
aVhttp://dbpedia.org/ontology/abstract
p3070
aVhttp://dbpedia.org/ontology/PopulatedPlace/areaTotal
p3071
aVhttp://www.w3.org/1999/02/22-rdf-syntax-ns#type
p3072
aVhttp://dbpedia.org/property/hasPhotoCollection
p3073
aVhttp://purl.org/voc/vrank#hasRank
p3074
aVhttp://www.w3.org/2002/07/owl#sameAs
p3075
asI7
(lp3076
Vhttp://dbpedia.org/ontology/PopulatedPlace/populationDensity
p3077
assI3
(dp3078
I0
g2913
sI1
g2924
sI2
g3057
sI3
(lp3079
sI4
(lp3080
sI5
(lp3081
sI6
(lp3082
sI7
(lp3083
ssI4
(dp3084
I0
g2914
sI1
g2925
sI2
g3058
sI3
g3080
sI4
(lp3085
sI5
(lp3086
Vhttp://dbpedia.org/property/hasPhotoCollection
p3087
asI6
(lp3088
Vhttp://www.w3.org/ns/prov#wasDerivedFrom
p3089
aVhttp://purl.org/voc/vrank#hasRank
p3090
aVhttp://dbpedia.org/property/hasPhotoCollection
p3091
aVhttp://www.w3.org/2002/07/owl#sameAs
p3092
asI7
(lp3093
ssI5
(dp3094
I0
g2916
sI1
g2926
sI2
g3059
sI3
g3081
sI4
g3086
sI5
(lp3095
sI6
(lp3096
sI7
(lp3097
ssI6
(dp3098
I0
g2917
sI1
g2981
sI2
g3066
sI3
g3082
sI4
g3088
sI5
g3096
sI6
(lp3099
sI7
(lp3100
ssI7
(dp3101
I0
g2918
sI1
g3032
sI2
g3076
sI3
g3083
sI4
g3093
sI5
g3097
sI6
g3100
sI7
(lp3102
ssa(dp3103
I0
(dp3104
I0
(lp3105
sI1
(lp3106
Vhttp://dbpedia.org/property/rd1t3Loc
p3107
aVhttp://www.georss.org/georss/point
p3108
aVhttp://www.w3.org/2000/01/rdf-schema#comment
p3109
aVhttp://dbpedia.org/ontology/abstract
p3110
aVhttp://dbpedia.org/property/place
p3111
aVhttp://dbpedia.org/property/location
p3112
aVhttp://dbpedia.org/ontology/place
p3113
aVhttp://dbpedia.org/property/country
p3114
aVhttp://dbpedia.org/ontology/PopulatedPlace/populationDensity
p3115
asI2
(lp3116
sI3
(lp3117
Vhttp://www.w3.org/1999/02/22-rdf-syntax-ns#type
p3118
asI4
(lp3119
sI5
(lp3120
sI6
(lp3121
sI7
(lp3122
ssI1
(dp3123
I0
g3106
sI1
(lp3124
sI2
(lp3125
Vhttp://www.w3.org/2000/01/rdf-schema#seeAlso
p3126
aVhttp://dbpedia.org/property/origin
p3127
aVhttp://dbpedia.org/ontology/origin
p3128
aVhttp://dbpedia.org/property/conventionalLongName
p3129
aVhttp://dbpedia.org/ontology/garrison
p3130
aVhttp://dbpedia.org/ontology/longName
p3131
aVhttp://dbpedia.org/property/footnoteA
p3132
aVhttp://dbpedia.org/ontology/demonym
p3133
aVhttp://dbpedia.org/ontology/officialLanguage
p3134
aVhttp://dbpedia.org/ontology/country
p3135
aVhttp://dbpedia.org/property/region
p3136
aVhttp://www.w3.org/1999/02/22-rdf-syntax-ns#type
p3137
aVhttp://dbpedia.org/property/officialLanguages
p3138
aVhttp://dbpedia.org/property/birthPlace
p3139
aVhttp://dbpedia.org/ontology/place
p3140
aVhttp://dbpedia.org/ontology/ethnicGroup
p3141
aVhttp://dbpedia.org/property/country
p3142
aVhttp://dbpedia.org/property/shipCountry
p3143
aVhttp://dbpedia.org/property/establishedEvent
p3144
aVhttp://dbpedia.org/property/placeOfBirth
p3145
aVhttp://dbpedia.org/ontology/wikiPageExternalLink
p3146
aVhttp://purl.org/dc/terms/subject
p3147
aVhttp://dbpedia.org/ontology/abstract
p3148
aVhttp://dbpedia.org/ontology/spokenIn
p3149
aVhttp://dbpedia.org/property/location
p3150
aVhttp://dbpedia.org/ontology/usingCountry
p3151
aVhttp://dbpedia.org/property/states
p3152
aVhttp://dbpedia.org/ontology/headquarter
p3153
aVhttp://dbpedia.org/property/builder
p3154
aVhttp://dbpedia.org/ontology/language
p3155
aVhttp://dbpedia.org/ontology/location
p3156
aVhttp://dbpedia.org/property/garrison
p3157
aVhttp://dbpedia.org/property/headquarters
p3158
aVhttp://www.w3.org/2000/01/rdf-schema#comment
p3159
aVhttp://dbpedia.org/ontology/birthPlace
p3160
aVhttp://dbpedia.org/ontology/wikiPageRedirects
p3161
aVhttp://dbpedia.org/ontology/hometown
p3162
aVhttp://dbpedia.org/property/demonym
p3163
aVhttp://dbpedia.org/property/regionServed
p3164
aVhttp://dbpedia.org/property/jurisdiction
p3165
asI3
(lp3166
sI4
(lp3167
sI5
(lp3168
sI6
(lp3169
Vhttp://dbpedia.org/ontology/wikiPageExternalLink
p3170
aVhttp://dbpedia.org/ontology/country
p3171
aVhttp://dbpedia.org/property/returns
p3172
aVhttp://www.w3.org/1999/02/22-rdf-syntax-ns#type
p3173
aVhttp://www.w3.org/2000/01/rdf-schema#comment
p3174
aVhttp://dbpedia.org/property/nationality
p3175
aVhttp://dbpedia.org/ontology/abstract
p3176
aVhttp://dbpedia.org/property/venue
p3177
aVhttp://dbpedia.org/property/location
p3178
aVhttp://dbpedia.org/property/debuts
p3179
aVhttp://dbpedia.org/property/withdraws
p3180
aVhttp://dbpedia.org/ontology/nationality
p3181
aVhttp://dbpedia.org/ontology/PopulatedPlace/areaTotal
p3182
aVhttp://www.w3.org/ns/prov#wasDerivedFrom
p3183
aVhttp://dbpedia.org/property/rallybase
p3184
aVhttp://dbpedia.org/property/shipCountry
p3185
aVhttp://dbpedia.org/property/stadium
p3186
asI7
(lp3187
Vhttp://dbpedia.org/property/country
p3188
aVhttp://dbpedia.org/ontology/PopulatedPlace/populationDensity
p3189
aVhttp://www.w3.org/2002/07/owl#sameAs
p3190
aVhttp://dbpedia.org/property/broadcastArea
p3191
assI2
(dp3192
I0
g3116
sI1
g3125
sI2
(lp3193
sI3
(lp3194
sI4
(lp3195
sI5
(lp3196
sI6
(lp3197
Vhttp://dbpedia.org/ontology/abstract
p3198
asI7
(lp3199
Vhttp://www.w3.org/1999/02/22-rdf-syntax-ns#type
p3200
assI3
(dp3201
I0
g3117
sI1
g3166
sI2
g3194
sI3
(lp3202
sI4
(lp3203
Vhttp://dbpedia.org/ontology/abstract
p3204
asI5
(lp3205
sI6
(lp3206
Vhttp://dbpedia.org/ontology/abstract
p3207
aVhttp://www.w3.org/1999/02/22-rdf-syntax-ns#type
p3208
asI7
(lp3209
ssI4
(dp3210
I0
g3119
sI1
g3167
sI2
g3195
sI3
g3203
sI4
(lp3211
sI5
(lp3212
sI6
(lp3213
sI7
(lp3214
ssI5
(dp3215
I0
g3120
sI1
g3168
sI2
g3196
sI3
g3205
sI4
g3212
sI5
(lp3216
sI6
(lp3217
sI7
(lp3218
ssI6
(dp3219
I0
g3121
sI1
g3169
sI2
g3197
sI3
g3206
sI4
g3213
sI5
g3217
sI6
(lp3220
sI7
(lp3221
ssI7
(dp3222
I0
g3122
sI1
g3187
sI2
g3199
sI3
g3209
sI4
g3214
sI5
g3218
sI6
g3221
sI7
(lp3223
ssa(dp3224
I0
(dp3225
I0
(lp3226
sI1
(lp3227
Vhttp://dbpedia.org/ontology/abstract
p3228
asI2
(lp3229
sI3
(lp3230
sI4
(lp3231
sI5
(lp3232
sI6
(lp3233
sI7
(lp3234
ssI1
(dp3235
I0
g3227
sI1
(lp3236
sI2
(lp3237
sI3
(lp3238
sI4
(lp3239
sI5
(lp3240
sI6
(lp3241
Vhttp://dbpedia.org/ontology/wikiPageExternalLink
p3242
aVhttp://www.w3.org/2000/01/rdf-schema#comment
p3243
aVhttp://dbpedia.org/ontology/abstract
p3244
aVhttp://dbpedia.org/ontology/thumbnail
p3245
aVhttp://www.w3.org/ns/prov#wasDerivedFrom
p3246
aVhttp://dbpedia.org/property/hasPhotoCollection
p3247
aVhttp://www.w3.org/2002/07/owl#sameAs
p3248
asI7
(lp3249
Vhttp://www.w3.org/2002/07/owl#sameAs
p3250
assI2
(dp3251
I0
g3229
sI1
g3237
sI2
(lp3252
sI3
(lp3253
sI4
(lp3254
sI5
(lp3255
sI6
(lp3256
Vhttp://www.w3.org/1999/02/22-rdf-syntax-ns#type
p3257
aVhttp://xmlns.com/foaf/0.1/depiction
p3258
aVhttp://dbpedia.org/property/wordnet_type
p3259
aVhttp://purl.org/voc/vrank#hasRank
p3260
aVhttp://dbpedia.org/ontology/thumbnail
p3261
aVhttp://www.w3.org/ns/prov#wasDerivedFrom
p3262
aVhttp://dbpedia.org/property/hasPhotoCollection
p3263
asI7
(lp3264
Vhttp://www.w3.org/1999/02/22-rdf-syntax-ns#type
p3265
assI3
(dp3266
I0
g3230
sI1
g3238
sI2
g3253
sI3
(lp3267
sI4
(lp3268
sI5
(lp3269
sI6
(lp3270
sI7
(lp3271
ssI4
(dp3272
I0
g3231
sI1
g3239
sI2
g3254
sI3
g3268
sI4
(lp3273
sI5
(lp3274
sI6
(lp3275
sI7
(lp3276
ssI5
(dp3277
I0
g3232
sI1
g3240
sI2
g3255
sI3
g3269
sI4
g3274
sI5
(lp3278
sI6
(lp3279
sI7
(lp3280
ssI6
(dp3281
I0
g3233
sI1
g3241
sI2
g3256
sI3
g3270
sI4
g3275
sI5
g3279
sI6
(lp3282
sI7
(lp3283
ssI7
(dp3284
I0
g3234
sI1
g3249
sI2
g3264
sI3
g3271
sI4
g3276
sI5
g3280
sI6
g3283
sI7
(lp3285
ssa(dp3286
I0
(dp3287
I0
(lp3288
sI1
(lp3289
sI2
(lp3290
Vhttp://www.w3.org/2002/07/owl#sameAs
p3291
asI3
(lp3292
Vhttp://dbpedia.org/ontology/abstract
p3293
aVhttp://www.w3.org/2000/01/rdf-schema#comment
p3294
asI4
(lp3295
sI5
(lp3296
sI6
(lp3297
sI7
(lp3298
ssI1
(dp3299
I0
g3289
sI1
(lp3300
sI2
(lp3301
Vhttp://dbpedia.org/ontology/abstract
p3302
aVhttp://purl.org/dc/terms/subject
p3303
aVhttp://www.w3.org/2000/01/rdf-schema#comment
p3304
asI3
(lp3305
sI4
(lp3306
sI5
(lp3307
sI6
(lp3308
Vhttp://dbpedia.org/property/logofile
p3309
aVhttp://dbpedia.org/property/terrChan
p3310
aVhttp://dbpedia.org/property/name
p3311
aVhttp://www.w3.org/ns/prov#wasDerivedFrom
p3312
aVhttp://www.w3.org/1999/02/22-rdf-syntax-ns#type
p3313
aVhttp://dbpedia.org/property/formerNames
p3314
aVhttp://dbpedia.org/property/wordnet_type
p3315
aVhttp://xmlns.com/foaf/0.1/isPrimaryTopicOf
p3316
aVhttp://dbpedia.org/ontology/wikiPageExternalLink
p3317
aVhttp://dbpedia.org/property/web
p3318
aVhttp://xmlns.com/foaf/0.1/primaryTopic
p3319
aVhttp://dbpedia.org/ontology/abstract
p3320
aVhttp://xmlns.com/foaf/0.1/depiction
p3321
aVhttp://dbpedia.org/ontology/thumbnail
p3322
aVhttp://dbpedia.org/property/adslChan
p3323
aVhttp://dbpedia.org/property/shareAsOf
p3324
aVhttp://dbpedia.org/property/slogan
p3325
aVhttp://dbpedia.org/property/hasPhotoCollection
p3326
aVhttp://www.w3.org/2000/01/rdf-schema#label
p3327
aVhttp://dbpedia.org/property/studio
p3328
aVhttp://www.w3.org/2000/01/rdf-schema#comment
p3329
aVhttp://dbpedia.org/property/satChan
p3330
aVhttp://dbpedia.org/ontology/wikiPageRedirects
p3331
aVhttp://purl.org/voc/vrank#hasRank
p3332
aVhttp://xmlns.com/foaf/0.1/homepage
p3333
aVhttp://www.w3.org/2002/07/owl#sameAs
p3334
asI7
(lp3335
ssI2
(dp3336
I0
g3290
sI1
g3301
sI2
(lp3337
sI3
(lp3338
sI4
(lp3339
sI5
(lp3340
sI6
(lp3341
Vhttp://www.w3.org/1999/02/22-rdf-syntax-ns#type
p3342
aVhttp://dbpedia.org/property/map
p3343
aVhttp://xmlns.com/foaf/0.1/depiction
p3344
aVhttp://dbpedia.org/property/wordnet_type
p3345
aVhttp://purl.org/voc/vrank#hasRank
p3346
aVhttp://dbpedia.org/ontology/thumbnail
p3347
aVhttp://www.w3.org/ns/prov#wasDerivedFrom
p3348
aVhttp://www.w3.org/2002/07/owl#sameAs
p3349
asI7
(lp3350
ssI3
(dp3351
I0
g3292
sI1
g3305
sI2
g3338
sI3
(lp3352
sI4
(lp3353
sI5
(lp3354
sI6
(lp3355
Vhttp://www.w3.org/1999/02/22-rdf-syntax-ns#type
p3356
aVhttp://www.w3.org/2000/01/rdf-schema#comment
p3357
aVhttp://dbpedia.org/ontology/abstract
p3358
aVhttp://purl.org/voc/vrank#hasRank
p3359
aVhttp://www.w3.org/ns/prov#wasDerivedFrom
p3360
aVhttp://www.w3.org/2002/07/owl#sameAs
p3361
asI7
(lp3362
ssI4
(dp3363
I0
g3295
sI1
g3306
sI2
g3339
sI3
g3353
sI4
(lp3364
sI5
(lp3365
sI6
(lp3366
sI7
(lp3367
ssI5
(dp3368
I0
g3296
sI1
g3307
sI2
g3340
sI3
g3354
sI4
g3365
sI5
(lp3369
sI6
(lp3370
Vhttp://xmlns.com/foaf/0.1/primaryTopic
p3371
aVhttp://www.w3.org/2000/01/rdf-schema#label
p3372
aVhttp://dbpedia.org/ontology/wikiPageRedirects
p3373
aVhttp://xmlns.com/foaf/0.1/isPrimaryTopicOf
p3374
aVhttp://www.w3.org/ns/prov#wasDerivedFrom
p3375
aVhttp://dbpedia.org/ontology/wikiPageDisambiguates
p3376
aVhttp://www.w3.org/2002/07/owl#sameAs
p3377
asI7
(lp3378
ssI6
(dp3379
I0
g3297
sI1
g3308
sI2
g3341
sI3
g3355
sI4
g3366
sI5
g3370
sI6
(lp3380
sI7
(lp3381
ssI7
(dp3382
I0
g3298
sI1
g3335
sI2
g3350
sI3
g3362
sI4
g3367
sI5
g3378
sI6
g3381
sI7
(lp3383
ssa(dp3384
I0
(dp3385
I0
(lp3386
sI1
(lp3387
Vhttp://dbpedia.org/ontology/abstract
p3388
aVhttp://www.w3.org/1999/02/22-rdf-syntax-ns#type
p3389
aVhttp://www.w3.org/2000/01/rdf-schema#comment
p3390
asI2
(lp3391
Vhttp://dbpedia.org/ontology/abstract
p3392
asI3
(lp3393
sI4
(lp3394
sI5
(lp3395
sI6
(lp3396
sI7
(lp3397
ssI1
(dp3398
I0
g3387
sI1
(lp3399
sI2
(lp3400
Vhttp://dbpedia.org/ontology/abstract
p3401
aVhttp://www.w3.org/2000/01/rdf-schema#comment
p3402
asI3
(lp3403
sI4
(lp3404
sI5
(lp3405
sI6
(lp3406
Vhttp://dbpedia.org/ontology/wikiPageExternalLink
p3407
aVhttp://dbpedia.org/ontology/abstract
p3408
aVhttp://dbpedia.org/property/nationalOrigin
p3409
aVhttp://www.w3.org/2000/01/rdf-schema#comment
p3410
asI7
(lp3411
Vhttp://dbpedia.org/ontology/wikiPageExternalLink
p3412
aVhttp://dbpedia.org/ontology/country
p3413
aVhttp://www.w3.org/1999/02/22-rdf-syntax-ns#type
p3414
aVhttp://dbpedia.org/property/moreUsers
p3415
aVhttp://dbpedia.org/ontology/abstract
p3416
aVhttp://dbpedia.org/property/location
p3417
aVhttp://dbpedia.org/property/olympicPlace
p3418
aVhttp://dbpedia.org/property/nationalOrigin
p3419
assI2
(dp3420
I0
g3391
sI1
g3400
sI2
(lp3421
sI3
(lp3422
sI4
(lp3423
sI5
(lp3424
sI6
(lp3425
Vhttp://www.w3.org/ns/prov#wasDerivedFrom
p3426
aVhttp://www.w3.org/2002/07/owl#sameAs
p3427
asI7
(lp3428
ssI3
(dp3429
I0
g3393
sI1
g3403
sI2
g3422
sI3
(lp3430
sI4
(lp3431
Vhttp://dbpedia.org/ontology/abstract
p3432
aVhttp://www.w3.org/2000/01/rdf-schema#comment
p3433
asI5
(lp3434
sI6
(lp3435
Vhttp://www.w3.org/ns/prov#wasDerivedFrom
p3436
aVhttp://dbpedia.org/ontology/abstract
p3437
aVhttp://www.w3.org/2000/01/rdf-schema#comment
p3438
asI7
(lp3439
Vhttp://dbpedia.org/ontology/abstract
p3440
aVhttp://www.w3.org/1999/02/22-rdf-syntax-ns#type
p3441
assI4
(dp3442
I0
g3394
sI1
g3404
sI2
g3423
sI3
g3431
sI4
(lp3443
sI5
(lp3444
sI6
(lp3445
sI7
(lp3446
ssI5
(dp3447
I0
g3395
sI1
g3405
sI2
g3424
sI3
g3434
sI4
g3444
sI5
(lp3448
sI6
(lp3449
sI7
(lp3450
ssI6
(dp3451
I0
g3396
sI1
g3406
sI2
g3425
sI3
g3435
sI4
g3445
sI5
g3449
sI6
(lp3452
sI7
(lp3453
ssI7
(dp3454
I0
g3397
sI1
g3411
sI2
g3428
sI3
g3439
sI4
g3446
sI5
g3450
sI6
g3453
sI7
(lp3455
ssa.