(lp1
(lp2
(dp3
Vstart
p4
I0
sVdisambiguatedURL
p5
Vhttp://dbpedia.org/resource/Microprocessor
p6
sVnamedEntity
p7
VProcessor
p8
sVoffset
p9
I9
saa(lp10
(dp11
Vstart
p12
I0
sVdisambiguatedURL
p13
Vhttp://dbpedia.org/resource/Motherboard
p14
sVnamedEntity
p15
VMotherboard
p16
sVoffset
p17
I11
saa(lp18
(dp19
Vstart
p20
I0
sVdisambiguatedURL
p21
Vhttp://dbpedia.org/resource/Memory
p22
sVnamedEntity
p23
VMemory
p24
sVoffset
p25
I6
saa(lp26
(dp27
Vstart
p28
I0
sVdisambiguatedURL
p29
Vhttp://dbpedia.org/resource/Video_card
p30
sVnamedEntity
p31
VVideo Card
p32
sVoffset
p33
I10
saa(lp34
(dp35
Vstart
p36
I0
sVdisambiguatedURL
p37
Vhttp://dbpedia.org/resource/Hard_disk_drive
p38
sVnamedEntity
p39
VHard Drive
p40
sVoffset
p41
I10
saa(lp42
(dp43
Vstart
p44
I0
sVdisambiguatedURL
p45
Vhttp://dbpedia.org/resource/Thermoelectric_cooling
p46
sVnamedEntity
p47
VCooling
p48
sVoffset
p49
I7
saa(lp50
(dp51
Vstart
p52
I0
sVdisambiguatedURL
p53
Vhttp://dbpedia.org/resource/Power_supply
p54
sVnamedEntity
p55
VPower Supply
p56
sVoffset
p57
I12
saa(lp58
(dp59
Vstart
p60
I0
sVdisambiguatedURL
p61
Vhttp://dbpedia.org/resource/Operating_system
p62
sVnamedEntity
p63
VOperating System
p64
sVoffset
p65
I16
saa.