(lp1
(lp2
(dp3
Vstart
p4
I0
sVdisambiguatedURL
p5
NsVnamedEntity
p6
Vaylesbury: a-z street atlas
p7
sVoffset
p8
I27
saa(lp9
(dp10
Vstart
p11
I0
sVdisambiguatedURL
p12
NsVnamedEntity
p13
Vnewbury & hungerford: a-z street atlas
p14
sVoffset
p15
I38
saa(lp16
(dp17
Vstart
p18
I0
sVdisambiguatedURL
p19
NsVnamedEntity
p20
Vstratford-upon-avon & warwick: a-z street atlas
p21
sVoffset
p22
I47
saa.