(lp1
(lp2
(lp3
((lVhttp://dbpedia.org/resource/Chinese
tp4
aa(lp5
a(lp6
a(lp7
a(lp8
aa(lp9
(lp10
((lp11
Vhttp://www.w3.org/2002/07/owl#Thing
p12
aVhttp://dbpedia.org/ontology/Place
p13
aVhttp://dbpedia.org/ontology/Location
p14
aVhttp://www.wikidata.org/entity/Q3957
p15
aVhttp://www.wikidata.org/entity/Q486972
p16
aVhttp://dbpedia.org/ontology/PopulatedPlace
p17
aVhttp://dbpedia.org/ontology/Settlement
p18
aVhttp://dbpedia.org/ontology/Town
p19
aVhttp://www.w3.org/2003/01/geo/wgs84_pos#SpatialThing
p20
aVhttp://schema.org/Place
p21
aVhttp://umbel.org/umbel/rc/Town
p22
aVhttp://dbpedia.org/class/yago/AdministrativeDistrict108491826
p23
aVhttp://dbpedia.org/class/yago/Area108497294
p24
aVhttp://dbpedia.org/class/yago/Center108523483
p25
aVhttp://dbpedia.org/class/yago/District108552138
p26
aVhttp://dbpedia.org/class/yago/Location100027167
p27
aVhttp://dbpedia.org/class/yago/Object100002684
p28
aVhttp://dbpedia.org/class/yago/Region108630985
p29
aVhttp://dbpedia.org/class/yago/Seat108647945
p30
aVhttp://dbpedia.org/class/yago/Site108651247
p31
aVhttp://dbpedia.org/class/yago/Town108665504
p32
aVhttp://dbpedia.org/class/yago/Tract108673395
p33
aVhttp://dbpedia.org/class/yago/UrbanArea108675967
p34
aVhttp://dbpedia.org/class/yago/YagoGeoEntity
p35
aVhttp://dbpedia.org/class/yago/YagoLegalActorGeo
p36
aVhttp://dbpedia.org/class/yago/CountySeat108547143
p37
aVhttp://dbpedia.org/class/yago/CountySeatsInIndiana
p38
aVhttp://dbpedia.org/class/yago/GeographicalArea108574314
p39
aVhttp://dbpedia.org/class/yago/Municipality108626283
p40
aVhttp://dbpedia.org/class/yago/PhysicalEntity100001930
p41
aVhttp://dbpedia.org/class/yago/YagoPermanentlyLocatedEntity
p42
aVhttp://dbpedia.org/class/yago/PopulatedPlacesInCrawfordCounty,Indiana
p43
aVhttp://dbpedia.org/class/yago/TownsInIndiana
p44
aVhttp://dbpedia.org/resource/English,_Indiana
tp45
aa(lp46
a(lp47
a(lp48
a(lp49
aa(lp50
(lp51
((lp52
Vhttp://www.w3.org/2002/07/owl#Thing
p53
aVhttp://dbpedia.org/ontology/Place
p54
aVhttp://dbpedia.org/ontology/Location
p55
aVhttp://www.wikidata.org/entity/Q4022
p56
aVhttp://www.wikidata.org/entity/Q47521
p57
aVhttp://dbpedia.org/ontology/BodyOfWater
p58
aVhttp://dbpedia.org/ontology/NaturalPlace
p59
aVhttp://dbpedia.org/ontology/River
p60
aVhttp://dbpedia.org/ontology/Stream
p61
aVhttp://schema.org/BodyOfWater
p62
aVhttp://schema.org/Place
p63
aVhttp://schema.org/RiverBodyOfWater
p64
aVhttp://umbel.org/umbel/rc/BodyOfWater
p65
aVhttp://umbel.org/umbel/rc/River
p66
aVhttp://umbel.org/umbel/rc/Stream
p67
aVhttp://dbpedia.org/class/yago/BodyOfWater109225146
p68
aVhttp://dbpedia.org/class/yago/Branch109228324
p69
aVhttp://dbpedia.org/class/yago/CanadianHeritageRivers
p70
aVhttp://dbpedia.org/class/yago/River109411430
p71
aVhttp://dbpedia.org/class/yago/Stream109448361
p72
aVhttp://dbpedia.org/class/yago/Thing100002452
p73
aVhttp://dbpedia.org/class/yago/YagoGeoEntity
p74
aVhttp://dbpedia.org/class/yago/Feeder109278997
p75
aVhttp://dbpedia.org/class/yago/PhysicalEntity100001930
p76
aVhttp://dbpedia.org/class/yago/YagoPermanentlyLocatedEntity
p77
aVhttp://dbpedia.org/class/yago/RiversOfOntario
p78
aVhttp://dbpedia.org/class/yago/TributariesOfLakeHuron
p79
aVhttp://dbpedia.org/resource/French_River_(Ontario)
tp80
aa(lp81
((lp82
Vhttp://www.w3.org/2002/07/owl#Thing
p83
aVhttp://dbpedia.org/ontology/Place
p84
aVhttp://dbpedia.org/ontology/Location
p85
aVhttp://www.wikidata.org/entity/Q486972
p86
aVhttp://www.wikidata.org/entity/Q6256
p87
aVhttp://dbpedia.org/ontology/Country
p88
aVhttp://dbpedia.org/ontology/PopulatedPlace
p89
aVhttp://www.w3.org/2003/01/geo/wgs84_pos#SpatialThing
p90
aVhttp://schema.org/Country
p91
aVhttp://schema.org/Place
p92
aVhttp://umbel.org/umbel/rc/Country
p93
aVhttp://umbel.org/umbel/rc/Location_Underspecified
p94
aVhttp://umbel.org/umbel/rc/PopulatedPlace
p95
aVhttp://dbpedia.org/class/yago/Abstraction100002137
p96
aVhttp://dbpedia.org/class/yago/AdministrativeDistrict108491826
p97
aVhttp://dbpedia.org/class/yago/AfricanCountries
p98
aVhttp://dbpedia.org/class/yago/AfricanUnionMemberEconomies
p99
aVhttp://dbpedia.org/class/yago/AmorphousShape113867492
p100
aVhttp://dbpedia.org/class/yago/Attribute100024264
p101
aVhttp://dbpedia.org/class/yago/Country108544813
p102
aVhttp://dbpedia.org/class/yago/District108552138
p103
aVhttp://dbpedia.org/class/yago/Economy108366753
p104
aVhttp://dbpedia.org/class/yago/Group100031264
p105
aVhttp://dbpedia.org/class/yago/Island109316454
p106
aVhttp://dbpedia.org/class/yago/Land109334396
p107
aVhttp://dbpedia.org/class/yago/Location100027167
p108
aVhttp://dbpedia.org/class/yago/Object100002684
p109
aVhttp://dbpedia.org/class/yago/Opening109379111
p110
aVhttp://dbpedia.org/class/yago/Region108630985
p111
aVhttp://dbpedia.org/class/yago/Shape100027807
p112
aVhttp://dbpedia.org/class/yago/Space113910384
p113
aVhttp://dbpedia.org/class/yago/System108435388
p114
aVhttp://dbpedia.org/class/yago/Vent109470550
p115
aVhttp://dbpedia.org/class/yago/YagoGeoEntity
p116
aVhttp://dbpedia.org/class/yago/YagoLegalActorGeo
p117
aVhttp://dbpedia.org/class/yago/CountriesOfTheIndianOcean
p118
aVhttp://dbpedia.org/class/yago/Crack109258715
p119
aVhttp://dbpedia.org/class/yago/English-speakingCountriesAndTerritories
p120
aVhttp://dbpedia.org/class/yago/ExtinctVolcanoes
p121
aVhttp://dbpedia.org/class/yago/French-speakingCountries
p122
aVhttp://dbpedia.org/class/yago/PhysicalEntity100001930
p123
aVhttp://dbpedia.org/class/yago/YagoPermanentlyLocatedEntity
p124
aVhttp://dbpedia.org/class/yago/HotspotVolcanoes
p125
aVhttp://dbpedia.org/class/yago/IslandCountries
p126
aVhttp://dbpedia.org/class/yago/IslandsOfMauritius
p127
aVhttp://dbpedia.org/class/yago/MemberStatesOfLaFrancophonie
p128
aVhttp://dbpedia.org/class/yago/MemberStatesOfTheAfricanUnion
p129
aVhttp://dbpedia.org/class/yago/MemberStatesOfTheCommonwealthOfNations
p130
aVhttp://dbpedia.org/class/yago/MemberStatesOfTheUnitedNations
p131
aVhttp://dbpedia.org/class/yago/StatesAndTerritoriesEstablishedIn1968
p132
aVhttp://dbpedia.org/class/yago/VolcanoesOfMauritius
p133
aVhttp://dbpedia.org/class/yago/WorldTradeOrganizationMemberEconomies
p134
aVhttp://dbpedia.org/resource/Mauritius
tp135
aa(lp136
a(lp137
a(lp138
aa(lp139
(lp140
((lp141
Vhttp://www.w3.org/2002/07/owl#Thing
p142
aVhttp://dbpedia.org/ontology/Place
p143
aVhttp://dbpedia.org/ontology/Location
p144
aVhttp://www.wikidata.org/entity/Q3957
p145
aVhttp://www.wikidata.org/entity/Q486972
p146
aVhttp://dbpedia.org/ontology/PopulatedPlace
p147
aVhttp://dbpedia.org/ontology/Settlement
p148
aVhttp://dbpedia.org/ontology/Town
p149
aVhttp://www.w3.org/2003/01/geo/wgs84_pos#SpatialThing
p150
aVhttp://schema.org/Place
p151
aVhttp://dbpedia.org/class/yago/AdministrativeDistrict108491826
p152
aVhttp://dbpedia.org/class/yago/District108552138
p153
aVhttp://dbpedia.org/class/yago/Location100027167
p154
aVhttp://dbpedia.org/class/yago/Object100002684
p155
aVhttp://dbpedia.org/class/yago/Region108630985
p156
aVhttp://dbpedia.org/class/yago/Town108665504
p157
aVhttp://dbpedia.org/class/yago/UrbanArea108675967
p158
aVhttp://dbpedia.org/class/yago/YagoGeoEntity
p159
aVhttp://dbpedia.org/class/yago/YagoLegalActorGeo
p160
aVhttp://dbpedia.org/class/yago/GeographicalArea108574314
p161
aVhttp://dbpedia.org/class/yago/Municipality108626283
p162
aVhttp://dbpedia.org/class/yago/PhysicalEntity100001930
p163
aVhttp://dbpedia.org/class/yago/YagoPermanentlyLocatedEntity
p164
aVhttp://dbpedia.org/class/yago/MunicipalitiesInAlgomaDistrict
p165
aVhttp://dbpedia.org/class/yago/TownsInOntario
p166
aVhttp://dbpedia.org/resource/Spanish,_Ontario
tp167
aa(lp168
a(lp169
a(lp170
a(lp171
aa(lp172
(lp173
((lp174
Vhttp://www.w3.org/2002/07/owl#Thing
p175
aVhttp://dbpedia.org/ontology/Place
p176
aVhttp://dbpedia.org/ontology/Location
p177
aVhttp://www.wikidata.org/entity/Q3957
p178
aVhttp://www.wikidata.org/entity/Q486972
p179
aVhttp://dbpedia.org/ontology/PopulatedPlace
p180
aVhttp://dbpedia.org/ontology/Settlement
p181
aVhttp://dbpedia.org/ontology/Town
p182
aVhttp://www.w3.org/2003/01/geo/wgs84_pos#SpatialThing
p183
aVhttp://schema.org/Place
p184
aVhttp://dbpedia.org/class/yago/AdministrativeDistrict108491826
p185
aVhttp://dbpedia.org/class/yago/District108552138
p186
aVhttp://dbpedia.org/class/yago/Location100027167
p187
aVhttp://dbpedia.org/class/yago/Object100002684
p188
aVhttp://dbpedia.org/class/yago/Region108630985
p189
aVhttp://dbpedia.org/class/yago/Town108665504
p190
aVhttp://dbpedia.org/class/yago/UrbanArea108675967
p191
aVhttp://dbpedia.org/class/yago/YagoGeoEntity
p192
aVhttp://dbpedia.org/class/yago/YagoLegalActorGeo
p193
aVhttp://dbpedia.org/class/yago/GeographicalArea108574314
p194
aVhttp://dbpedia.org/class/yago/Municipality108626283
p195
aVhttp://dbpedia.org/class/yago/PhysicalEntity100001930
p196
aVhttp://dbpedia.org/class/yago/YagoPermanentlyLocatedEntity
p197
aVhttp://dbpedia.org/class/yago/MunicipalitiesInAlgomaDistrict
p198
aVhttp://dbpedia.org/class/yago/TownsInOntario
p199
aVhttp://dbpedia.org/resource/Spanish,_Ontario
tp200
aa(lp201
a(lp202
a(lp203
a(lp204
aa(lp205
(lp206
((lp207
Vhttp://www.w3.org/2002/07/owl#Thing
p208
aVhttp://dbpedia.org/ontology/Place
p209
aVhttp://dbpedia.org/ontology/Location
p210
aVhttp://www.wikidata.org/entity/Q3957
p211
aVhttp://www.wikidata.org/entity/Q486972
p212
aVhttp://dbpedia.org/ontology/PopulatedPlace
p213
aVhttp://dbpedia.org/ontology/Settlement
p214
aVhttp://dbpedia.org/ontology/Town
p215
aVhttp://www.w3.org/2003/01/geo/wgs84_pos#SpatialThing
p216
aVhttp://schema.org/Place
p217
aVhttp://dbpedia.org/class/yago/AdministrativeDistrict108491826
p218
aVhttp://dbpedia.org/class/yago/District108552138
p219
aVhttp://dbpedia.org/class/yago/Location100027167
p220
aVhttp://dbpedia.org/class/yago/Object100002684
p221
aVhttp://dbpedia.org/class/yago/Region108630985
p222
aVhttp://dbpedia.org/class/yago/Town108665504
p223
aVhttp://dbpedia.org/class/yago/UrbanArea108675967
p224
aVhttp://dbpedia.org/class/yago/YagoGeoEntity
p225
aVhttp://dbpedia.org/class/yago/YagoLegalActorGeo
p226
aVhttp://dbpedia.org/class/yago/GeographicalArea108574314
p227
aVhttp://dbpedia.org/class/yago/Municipality108626283
p228
aVhttp://dbpedia.org/class/yago/PhysicalEntity100001930
p229
aVhttp://dbpedia.org/class/yago/YagoPermanentlyLocatedEntity
p230
aVhttp://dbpedia.org/class/yago/MunicipalitiesInAlgomaDistrict
p231
aVhttp://dbpedia.org/class/yago/TownsInOntario
p232
aVhttp://dbpedia.org/resource/Spanish,_Ontario
p233
tp234
aa(lp235
a(lp236
a(lp237
a(lp238
aa.