(lp1
(lp2
(lp3
a(lp4
a(lp5
a(lp6
a(lp7
aa(lp8
(lp9
a(lp10
a(lp11
a(lp12
a(lp13
aa(lp14
(lp15
a(lp16
a(lp17
Vhttp://dbpedia.org/resource/Null
p18
aa(lp19
a(lp20
aa(lp21
(lp22
a(lp23
a(lp24
a(lp25
a(lp26
aa(lp27
(lp28
a(lp29
a(lp30
a(lp31
a(lp32
aa(lp33
(lp34
a(lp35
a(lp36
a(lp37
a(lp38
aa(lp39
(lp40
a(lp41
a(lp42
Vhttp://dbpedia.org/resource/Null
p43
aa(lp44
a(lp45
aa(lp46
(lp47
a(lp48
a(lp49
Vhttp://dbpedia.org/resource/Null
p50
aa(lp51
a(lp52
aa(lp53
(lp54
a(lp55
a(lp56
Vhttp://dbpedia.org/resource/Null
p57
aa(lp58
a(lp59
aa(lp60
(lp61
a(lp62
a(lp63
a(lp64
a(lp65
aa(lp66
(lp67
a(lp68
a(lp69
a(lp70
a(lp71
aa(lp72
(lp73
a(lp74
a(lp75
Vhttp://dbpedia.org/resource/Null
p76
aa(lp77
a(lp78
aa(lp79
(lp80
a(lp81
a(lp82
Vhttp://dbpedia.org/resource/Null
p83
aa(lp84
a(lp85
aa(lp86
(lp87
a(lp88
a(lp89
Vhttp://dbpedia.org/resource/Null
p90
aa(lp91
a(lp92
aa(lp93
(lp94
a(lp95
a(lp96
Vhttp://dbpedia.org/resource/Null
p97
aa(lp98
a(lp99
aa(lp100
(lp101
a(lp102
a(lp103
Vhttp://dbpedia.org/resource/Null
p104
aa(lp105
a(lp106
aa(lp107
(lp108
a(lp109
a(lp110
Vhttp://dbpedia.org/resource/Null
p111
aa(lp112
a(lp113
aa(lp114
(lp115
a(lp116
a(lp117
Vhttp://dbpedia.org/resource/Null
p118
aa(lp119
a(lp120
aa(lp121
(lp122
a(lp123
a(lp124
Vhttp://dbpedia.org/resource/Null
p125
aa(lp126
a(lp127
aa(lp128
(lp129
a(lp130
a(lp131
Vhttp://dbpedia.org/resource/Null
p132
aa(lp133
a(lp134
aa.