(lp1
(dp2
I0
(dp3
I0
(lp4
sI1
(lp5
sI2
(lp6
sI3
(lp7
sI4
(lp8
ssI1
(dp9
I0
g5
sI1
(lp10
sI2
(lp11
sI3
(lp12
sI4
(lp13
ssI2
(dp14
I0
g6
sI1
g11
sI2
(lp15
sI3
(lp16
sI4
(lp17
ssI3
(dp18
I0
g7
sI1
g12
sI2
g16
sI3
(lp19
sI4
(lp20
ssI4
(dp21
I0
g8
sI1
g13
sI2
g17
sI3
g20
sI4
(lp22
ssa(dp23
I0
(dp24
I0
(lp25
sI1
(lp26
sI2
(lp27
sI3
(lp28
sI4
(lp29
ssI1
(dp30
I0
g26
sI1
(lp31
sI2
(lp32
sI3
(lp33
sI4
(lp34
ssI2
(dp35
I0
g27
sI1
g32
sI2
(lp36
sI3
(lp37
sI4
(lp38
ssI3
(dp39
I0
g28
sI1
g33
sI2
g37
sI3
(lp40
sI4
(lp41
ssI4
(dp42
I0
g29
sI1
g34
sI2
g38
sI3
g41
sI4
(lp43
ssa(dp44
I0
(dp45
I0
(lp46
sI1
(lp47
sI2
(lp48
sI3
(lp49
sI4
(lp50
ssI1
(dp51
I0
g47
sI1
(lp52
sI2
(lp53
sI3
(lp54
sI4
(lp55
ssI2
(dp56
I0
g48
sI1
g53
sI2
(lp57
sI3
(lp58
Vhttp://purl.org/voc/vrank#hasRank
p59
asI4
(lp60
ssI3
(dp61
I0
g49
sI1
g54
sI2
g58
sI3
(lp62
sI4
(lp63
ssI4
(dp64
I0
g50
sI1
g55
sI2
g60
sI3
g63
sI4
(lp65
ssa(dp66
I0
(dp67
I0
(lp68
sI1
(lp69
sI2
(lp70
sI3
(lp71
sI4
(lp72
ssI1
(dp73
I0
g69
sI1
(lp74
sI2
(lp75
sI3
(lp76
sI4
(lp77
ssI2
(dp78
I0
g70
sI1
g75
sI2
(lp79
sI3
(lp80
sI4
(lp81
ssI3
(dp82
I0
g71
sI1
g76
sI2
g80
sI3
(lp83
sI4
(lp84
ssI4
(dp85
I0
g72
sI1
g77
sI2
g81
sI3
g84
sI4
(lp86
ssa(dp87
I0
(dp88
I0
(lp89
sI1
(lp90
sI2
(lp91
sI3
(lp92
sI4
(lp93
ssI1
(dp94
I0
g90
sI1
(lp95
sI2
(lp96
sI3
(lp97
sI4
(lp98
ssI2
(dp99
I0
g91
sI1
g96
sI2
(lp100
sI3
(lp101
sI4
(lp102
ssI3
(dp103
I0
g92
sI1
g97
sI2
g101
sI3
(lp104
sI4
(lp105
ssI4
(dp106
I0
g93
sI1
g98
sI2
g102
sI3
g105
sI4
(lp107
ssa(dp108
I0
(dp109
I0
(lp110
sI1
(lp111
sI2
(lp112
sI3
(lp113
sI4
(lp114
ssI1
(dp115
I0
g111
sI1
(lp116
sI2
(lp117
sI3
(lp118
sI4
(lp119
ssI2
(dp120
I0
g112
sI1
g117
sI2
(lp121
sI3
(lp122
sI4
(lp123
ssI3
(dp124
I0
g113
sI1
g118
sI2
g122
sI3
(lp125
sI4
(lp126
ssI4
(dp127
I0
g114
sI1
g119
sI2
g123
sI3
g126
sI4
(lp128
ssa(dp129
I0
(dp130
I0
(lp131
sI1
(lp132
sI2
(lp133
sI3
(lp134
sI4
(lp135
ssI1
(dp136
I0
g132
sI1
(lp137
sI2
(lp138
sI3
(lp139
sI4
(lp140
ssI2
(dp141
I0
g133
sI1
g138
sI2
(lp142
sI3
(lp143
Vhttp://purl.org/voc/vrank#hasRank
p144
aVhttp://www.w3.org/2002/07/owl#sameAs
p145
asI4
(lp146
ssI3
(dp147
I0
g134
sI1
g139
sI2
g143
sI3
(lp148
sI4
(lp149
ssI4
(dp150
I0
g135
sI1
g140
sI2
g146
sI3
g149
sI4
(lp151
ssa(dp152
I0
(dp153
I0
(lp154
sI1
(lp155
sI2
(lp156
sI3
(lp157
sI4
(lp158
ssI1
(dp159
I0
g155
sI1
(lp160
sI2
(lp161
sI3
(lp162
sI4
(lp163
ssI2
(dp164
I0
g156
sI1
g161
sI2
(lp165
sI3
(lp166
Vhttp://purl.org/voc/vrank#hasRank
p167
aVhttp://www.w3.org/2002/07/owl#sameAs
p168
asI4
(lp169
ssI3
(dp170
I0
g157
sI1
g162
sI2
g166
sI3
(lp171
sI4
(lp172
ssI4
(dp173
I0
g158
sI1
g163
sI2
g169
sI3
g172
sI4
(lp174
ssa(dp175
I0
(dp176
I0
(lp177
sI1
(lp178
sI2
(lp179
sI3
(lp180
sI4
(lp181
ssI1
(dp182
I0
g178
sI1
(lp183
sI2
(lp184
sI3
(lp185
sI4
(lp186
ssI2
(dp187
I0
g179
sI1
g184
sI2
(lp188
sI3
(lp189
Vhttp://purl.org/voc/vrank#hasRank
p190
aVhttp://www.w3.org/2002/07/owl#sameAs
p191
asI4
(lp192
ssI3
(dp193
I0
g180
sI1
g185
sI2
g189
sI3
(lp194
sI4
(lp195
ssI4
(dp196
I0
g181
sI1
g186
sI2
g192
sI3
g195
sI4
(lp197
ssa(dp198
I0
(dp199
I0
(lp200
sI1
(lp201
sI2
(lp202
sI3
(lp203
sI4
(lp204
ssI1
(dp205
I0
g201
sI1
(lp206
sI2
(lp207
sI3
(lp208
sI4
(lp209
ssI2
(dp210
I0
g202
sI1
g207
sI2
(lp211
sI3
(lp212
sI4
(lp213
ssI3
(dp214
I0
g203
sI1
g208
sI2
g212
sI3
(lp215
sI4
(lp216
ssI4
(dp217
I0
g204
sI1
g209
sI2
g213
sI3
g216
sI4
(lp218
ssa(dp219
I0
(dp220
I0
(lp221
sI1
(lp222
sI2
(lp223
sI3
(lp224
sI4
(lp225
ssI1
(dp226
I0
g222
sI1
(lp227
sI2
(lp228
sI3
(lp229
sI4
(lp230
ssI2
(dp231
I0
g223
sI1
g228
sI2
(lp232
sI3
(lp233
sI4
(lp234
ssI3
(dp235
I0
g224
sI1
g229
sI2
g233
sI3
(lp236
sI4
(lp237
ssI4
(dp238
I0
g225
sI1
g230
sI2
g234
sI3
g237
sI4
(lp239
ssa(dp240
I0
(dp241
I0
(lp242
sI1
(lp243
sI2
(lp244
sI3
(lp245
sI4
(lp246
ssI1
(dp247
I0
g243
sI1
(lp248
sI2
(lp249
sI3
(lp250
sI4
(lp251
ssI2
(dp252
I0
g244
sI1
g249
sI2
(lp253
sI3
(lp254
Vhttp://purl.org/voc/vrank#hasRank
p255
aVhttp://www.w3.org/2002/07/owl#sameAs
p256
asI4
(lp257
ssI3
(dp258
I0
g245
sI1
g250
sI2
g254
sI3
(lp259
sI4
(lp260
ssI4
(dp261
I0
g246
sI1
g251
sI2
g257
sI3
g260
sI4
(lp262
ssa(dp263
I0
(dp264
I0
(lp265
sI1
(lp266
sI2
(lp267
sI3
(lp268
sI4
(lp269
ssI1
(dp270
I0
g266
sI1
(lp271
sI2
(lp272
sI3
(lp273
sI4
(lp274
ssI2
(dp275
I0
g267
sI1
g272
sI2
(lp276
sI3
(lp277
Vhttp://purl.org/voc/vrank#hasRank
p278
aVhttp://www.w3.org/2002/07/owl#sameAs
p279
asI4
(lp280
ssI3
(dp281
I0
g268
sI1
g273
sI2
g277
sI3
(lp282
sI4
(lp283
ssI4
(dp284
I0
g269
sI1
g274
sI2
g280
sI3
g283
sI4
(lp285
ssa(dp286
I0
(dp287
I0
(lp288
sI1
(lp289
sI2
(lp290
sI3
(lp291
sI4
(lp292
ssI1
(dp293
I0
g289
sI1
(lp294
sI2
(lp295
sI3
(lp296
sI4
(lp297
ssI2
(dp298
I0
g290
sI1
g295
sI2
(lp299
sI3
(lp300
Vhttp://www.w3.org/ns/prov#wasDerivedFrom
p301
aVhttp://purl.org/voc/vrank#hasRank
p302
aVhttp://www.w3.org/2002/07/owl#sameAs
p303
asI4
(lp304
ssI3
(dp305
I0
g291
sI1
g296
sI2
g300
sI3
(lp306
sI4
(lp307
ssI4
(dp308
I0
g292
sI1
g297
sI2
g304
sI3
g307
sI4
(lp309
ssa(dp310
I0
(dp311
I0
(lp312
sI1
(lp313
sI2
(lp314
sI3
(lp315
sI4
(lp316
ssI1
(dp317
I0
g313
sI1
(lp318
sI2
(lp319
sI3
(lp320
sI4
(lp321
ssI2
(dp322
I0
g314
sI1
g319
sI2
(lp323
sI3
(lp324
Vhttp://purl.org/voc/vrank#hasRank
p325
aVhttp://www.w3.org/2002/07/owl#sameAs
p326
asI4
(lp327
Vhttp://xmlns.com/foaf/0.1/primaryTopic
p328
aVhttp://dbpedia.org/ontology/wikiPageDisambiguates
p329
aVhttp://dbpedia.org/ontology/wikiPageRedirects
p330
aVhttp://purl.org/voc/vrank#hasRank
p331
aVhttp://xmlns.com/foaf/0.1/isPrimaryTopicOf
p332
aVhttp://www.w3.org/ns/prov#wasDerivedFrom
p333
aVhttp://www.w3.org/2000/01/rdf-schema#label
p334
aVhttp://www.w3.org/2002/07/owl#sameAs
p335
assI3
(dp336
I0
g315
sI1
g320
sI2
g324
sI3
(lp337
sI4
(lp338
ssI4
(dp339
I0
g316
sI1
g321
sI2
g327
sI3
g338
sI4
(lp340
ssa(dp341
I0
(dp342
I0
(lp343
sI1
(lp344
sI2
(lp345
sI3
(lp346
sI4
(lp347
ssI1
(dp348
I0
g344
sI1
(lp349
sI2
(lp350
sI3
(lp351
sI4
(lp352
ssI2
(dp353
I0
g345
sI1
g350
sI2
(lp354
sI3
(lp355
Vhttp://purl.org/voc/vrank#hasRank
p356
aVhttp://www.w3.org/2002/07/owl#sameAs
p357
asI4
(lp358
Vhttp://xmlns.com/foaf/0.1/primaryTopic
p359
aVhttp://dbpedia.org/ontology/wikiPageDisambiguates
p360
aVhttp://dbpedia.org/ontology/wikiPageRedirects
p361
aVhttp://purl.org/voc/vrank#hasRank
p362
aVhttp://xmlns.com/foaf/0.1/isPrimaryTopicOf
p363
aVhttp://www.w3.org/ns/prov#wasDerivedFrom
p364
aVhttp://www.w3.org/2000/01/rdf-schema#label
p365
aVhttp://www.w3.org/2002/07/owl#sameAs
p366
assI3
(dp367
I0
g346
sI1
g351
sI2
g355
sI3
(lp368
sI4
(lp369
ssI4
(dp370
I0
g347
sI1
g352
sI2
g358
sI3
g369
sI4
(lp371
ssa(dp372
I0
(dp373
I0
(lp374
sI1
(lp375
sI2
(lp376
sI3
(lp377
sI4
(lp378
ssI1
(dp379
I0
g375
sI1
(lp380
sI2
(lp381
sI3
(lp382
sI4
(lp383
ssI2
(dp384
I0
g376
sI1
g381
sI2
(lp385
sI3
(lp386
Vhttp://purl.org/voc/vrank#hasRank
p387
aVhttp://www.w3.org/2002/07/owl#sameAs
p388
asI4
(lp389
Vhttp://xmlns.com/foaf/0.1/primaryTopic
p390
aVhttp://dbpedia.org/ontology/wikiPageRedirects
p391
aVhttp://xmlns.com/foaf/0.1/isPrimaryTopicOf
p392
aVhttp://www.w3.org/ns/prov#wasDerivedFrom
p393
aVhttp://dbpedia.org/ontology/wikiPageDisambiguates
p394
aVhttp://www.w3.org/2002/07/owl#sameAs
p395
assI3
(dp396
I0
g377
sI1
g382
sI2
g386
sI3
(lp397
sI4
(lp398
ssI4
(dp399
I0
g378
sI1
g383
sI2
g389
sI3
g398
sI4
(lp400
ssa(dp401
I0
(dp402
I0
(lp403
sI1
(lp404
sI2
(lp405
sI3
(lp406
sI4
(lp407
ssI1
(dp408
I0
g404
sI1
(lp409
sI2
(lp410
sI3
(lp411
sI4
(lp412
ssI2
(dp413
I0
g405
sI1
g410
sI2
(lp414
sI3
(lp415
Vhttp://purl.org/voc/vrank#hasRank
p416
aVhttp://www.w3.org/2002/07/owl#sameAs
p417
asI4
(lp418
ssI3
(dp419
I0
g406
sI1
g411
sI2
g415
sI3
(lp420
sI4
(lp421
ssI4
(dp422
I0
g407
sI1
g412
sI2
g418
sI3
g421
sI4
(lp423
ssa(dp424
I0
(dp425
I0
(lp426
sI1
(lp427
sI2
(lp428
sI3
(lp429
sI4
(lp430
ssI1
(dp431
I0
g427
sI1
(lp432
sI2
(lp433
sI3
(lp434
sI4
(lp435
ssI2
(dp436
I0
g428
sI1
g433
sI2
(lp437
sI3
(lp438
Vhttp://purl.org/voc/vrank#hasRank
p439
aVhttp://www.w3.org/2002/07/owl#sameAs
p440
asI4
(lp441
ssI3
(dp442
I0
g429
sI1
g434
sI2
g438
sI3
(lp443
sI4
(lp444
ssI4
(dp445
I0
g430
sI1
g435
sI2
g441
sI3
g444
sI4
(lp446
ssa(dp447
I0
(dp448
I0
(lp449
sI1
(lp450
sI2
(lp451
sI3
(lp452
sI4
(lp453
ssI1
(dp454
I0
g450
sI1
(lp455
sI2
(lp456
sI3
(lp457
sI4
(lp458
ssI2
(dp459
I0
g451
sI1
g456
sI2
(lp460
sI3
(lp461
Vhttp://purl.org/voc/vrank#hasRank
p462
aVhttp://www.w3.org/2002/07/owl#sameAs
p463
asI4
(lp464
ssI3
(dp465
I0
g452
sI1
g457
sI2
g461
sI3
(lp466
sI4
(lp467
ssI4
(dp468
I0
g453
sI1
g458
sI2
g464
sI3
g467
sI4
(lp469
ssa.