(lp1
(lp2
(dp3
Vstart
p4
I0
sVdisambiguatedURL
p5
Vhttp://dbpedia.org/resource/Illinois_wine
p6
sVnamedEntity
p7
VIllinois
p8
sVoffset
p9
I8
saa(lp10
(dp11
Vstart
p12
I0
sVdisambiguatedURL
p13
Vhttp://dbpedia.org/resource/Indiana
p14
sVnamedEntity
p15
VIndiana
p16
sVoffset
p17
I7
saa(lp18
(dp19
Vstart
p20
I0
sVdisambiguatedURL
p21
Vhttp://dbpedia.org/resource/Iowa
p22
sVnamedEntity
p23
VIowa
p24
sVoffset
p25
I4
saa(lp26
(dp27
Vstart
p28
I0
sVdisambiguatedURL
p29
Vhttp://dbpedia.org/resource/Michigan
p30
sVnamedEntity
p31
VMichigan
p32
sVoffset
p33
I8
saa(lp34
(dp35
Vstart
p36
I0
sVdisambiguatedURL
p37
Vhttp://dbpedia.org/resource/Wisconsin
p38
sVnamedEntity
p39
VWisconsin
p40
sVoffset
p41
I9
saa.