(lp1
(lp2
(lp3
((lp4
Vhttp://www.w3.org/2002/07/owl#Thing
p5
aVhttp://dbpedia.org/ontology/Place
p6
aVhttp://dbpedia.org/ontology/Location
p7
aVhttp://dbpedia.org/ontology/WineRegion
p8
aVhttp://schema.org/Place
p9
aVhttp://umbel.org/umbel/rc/GeographicalRegion
p10
aVhttp://dbpedia.org/resource/Illinois_wine
tp11
aa(lp12
a(lp13
a(lp14
aa(lp15
(lp16
((lp17
Vhttp://www.w3.org/2002/07/owl#Thing
p18
aVhttp://dbpedia.org/ontology/Place
p19
aVhttp://dbpedia.org/ontology/Location
p20
aVhttp://www.wikidata.org/entity/Q3455524
p21
aVhttp://www.wikidata.org/entity/Q486972
p22
aVhttp://dbpedia.org/ontology/AdministrativeRegion
p23
aVhttp://dbpedia.org/ontology/PopulatedPlace
p24
aVhttp://dbpedia.org/ontology/Region
p25
aVhttp://schema.org/AdministrativeArea
p26
aVhttp://schema.org/Place
p27
aVhttp://umbel.org/umbel/rc/PopulatedPlace
p28
aVhttp://dbpedia.org/class/yago/AdministrativeDistrict108491826
p29
aVhttp://dbpedia.org/class/yago/Country108544813
p30
aVhttp://dbpedia.org/class/yago/District108552138
p31
aVhttp://dbpedia.org/class/yago/Location100027167
p32
aVhttp://dbpedia.org/class/yago/Object100002684
p33
aVhttp://dbpedia.org/class/yago/Region108630985
p34
aVhttp://dbpedia.org/class/yago/YagoGeoEntity
p35
aVhttp://dbpedia.org/class/yago/YagoLegalActorGeo
p36
aVhttp://dbpedia.org/class/yago/PhysicalEntity100001930
p37
aVhttp://dbpedia.org/class/yago/YagoPermanentlyLocatedEntity
p38
aVhttp://dbpedia.org/class/yago/StatesAndTerritoriesEstablishedIn1816
p39
aVhttp://dbpedia.org/class/yago/StatesOfTheUnitedStates
p40
aVhttp://dbpedia.org/resource/Indiana
tp41
aa(lp42
a(lp43
a(lp44
aa(lp45
(lp46
((lp47
Vhttp://www.w3.org/2002/07/owl#Thing
p48
aVhttp://dbpedia.org/ontology/Place
p49
aVhttp://dbpedia.org/ontology/Location
p50
aVhttp://www.wikidata.org/entity/Q3455524
p51
aVhttp://www.wikidata.org/entity/Q486972
p52
aVhttp://dbpedia.org/ontology/AdministrativeRegion
p53
aVhttp://dbpedia.org/ontology/PopulatedPlace
p54
aVhttp://dbpedia.org/ontology/Region
p55
aVhttp://schema.org/AdministrativeArea
p56
aVhttp://schema.org/Place
p57
aVhttp://umbel.org/umbel/rc/PopulatedPlace
p58
aVhttp://dbpedia.org/class/yago/AdministrativeDistrict108491826
p59
aVhttp://dbpedia.org/class/yago/Country108544813
p60
aVhttp://dbpedia.org/class/yago/District108552138
p61
aVhttp://dbpedia.org/class/yago/Location100027167
p62
aVhttp://dbpedia.org/class/yago/Object100002684
p63
aVhttp://dbpedia.org/class/yago/Region108630985
p64
aVhttp://dbpedia.org/class/yago/YagoGeoEntity
p65
aVhttp://dbpedia.org/class/yago/YagoLegalActorGeo
p66
aVhttp://dbpedia.org/class/yago/PhysicalEntity100001930
p67
aVhttp://dbpedia.org/class/yago/YagoPermanentlyLocatedEntity
p68
aVhttp://dbpedia.org/class/yago/MidwesternUnitedStates
p69
aVhttp://dbpedia.org/class/yago/StatesAndTerritoriesEstablishedIn1846
p70
aVhttp://dbpedia.org/class/yago/StatesOfTheUnitedStates
p71
aVhttp://dbpedia.org/resource/Iowa
tp72
aa(lp73
a(lp74
a(lp75
aa(lp76
(lp77
((lp78
Vhttp://www.w3.org/2002/07/owl#Thing
p79
aVhttp://dbpedia.org/ontology/Place
p80
aVhttp://dbpedia.org/ontology/Location
p81
aVhttp://www.wikidata.org/entity/Q3455524
p82
aVhttp://www.wikidata.org/entity/Q486972
p83
aVhttp://dbpedia.org/ontology/AdministrativeRegion
p84
aVhttp://dbpedia.org/ontology/PopulatedPlace
p85
aVhttp://dbpedia.org/ontology/Region
p86
aVhttp://schema.org/AdministrativeArea
p87
aVhttp://schema.org/Place
p88
aVhttp://umbel.org/umbel/rc/Location_Underspecified
p89
aVhttp://umbel.org/umbel/rc/PopulatedPlace
p90
aVhttp://dbpedia.org/class/yago/AdministrativeDistrict108491826
p91
aVhttp://dbpedia.org/class/yago/Country108544813
p92
aVhttp://dbpedia.org/class/yago/District108552138
p93
aVhttp://dbpedia.org/class/yago/Location100027167
p94
aVhttp://dbpedia.org/class/yago/Object100002684
p95
aVhttp://dbpedia.org/class/yago/Region108630985
p96
aVhttp://dbpedia.org/class/yago/YagoGeoEntity
p97
aVhttp://dbpedia.org/class/yago/YagoLegalActorGeo
p98
aVhttp://dbpedia.org/class/yago/PhysicalEntity100001930
p99
aVhttp://dbpedia.org/class/yago/YagoPermanentlyLocatedEntity
p100
aVhttp://dbpedia.org/class/yago/StatesAndTerritoriesEstablishedIn1837
p101
aVhttp://dbpedia.org/class/yago/StatesOfTheUnitedStates
p102
aVhttp://dbpedia.org/resource/Michigan
tp103
aa(lp104
a(lp105
a(lp106
aa(lp107
(lp108
((lp109
Vhttp://www.w3.org/2002/07/owl#Thing
p110
aVhttp://umbel.org/umbel/rc/PopulatedPlace
p111
aVhttp://dbpedia.org/class/yago/AdministrativeDistrict108491826
p112
aVhttp://dbpedia.org/class/yago/Country108544813
p113
aVhttp://dbpedia.org/class/yago/District108552138
p114
aVhttp://dbpedia.org/class/yago/Location100027167
p115
aVhttp://dbpedia.org/class/yago/Object100002684
p116
aVhttp://dbpedia.org/class/yago/Region108630985
p117
aVhttp://dbpedia.org/class/yago/YagoGeoEntity
p118
aVhttp://dbpedia.org/class/yago/YagoLegalActorGeo
p119
aVhttp://dbpedia.org/class/yago/PhysicalEntity100001930
p120
aVhttp://dbpedia.org/class/yago/YagoPermanentlyLocatedEntity
p121
aVhttp://dbpedia.org/class/yago/StatesAndTerritoriesEstablishedIn1848
p122
aVhttp://dbpedia.org/class/yago/StatesOfTheUnitedStates
p123
aVhttp://dbpedia.org/resource/Wisconsin
p124
tp125
aa(lp126
a(lp127
a(lp128
aa.