(lp1
(lp2
(dp3
Vstart
p4
I0
sS'classes'
p5
(lp6
Vhttp://www.w3.org/2002/07/owl#Thing
p7
aVhttp://dbpedia.org/ontology/Place
p8
aVhttp://dbpedia.org/ontology/Location
p9
aVhttp://dbpedia.org/ontology/WineRegion
p10
aVhttp://schema.org/Place
p11
aVhttp://umbel.org/umbel/rc/GeographicalRegion
p12
asVdisambiguatedURL
p13
Vhttp://dbpedia.org/resource/Illinois_wine
p14
sVnamedEntity
p15
VIllinois
p16
sVoffset
p17
I8
saa(lp18
(dp19
Vstart
p20
I0
sg5
(lp21
Vhttp://www.w3.org/2002/07/owl#Thing
p22
aVhttp://dbpedia.org/ontology/Place
p23
aVhttp://dbpedia.org/ontology/Location
p24
aVhttp://www.wikidata.org/entity/Q3455524
p25
aVhttp://www.wikidata.org/entity/Q486972
p26
aVhttp://dbpedia.org/ontology/AdministrativeRegion
p27
aVhttp://dbpedia.org/ontology/PopulatedPlace
p28
aVhttp://dbpedia.org/ontology/Region
p29
aVhttp://schema.org/AdministrativeArea
p30
aVhttp://schema.org/Place
p31
aVhttp://umbel.org/umbel/rc/PopulatedPlace
p32
aVhttp://dbpedia.org/class/yago/AdministrativeDistrict108491826
p33
aVhttp://dbpedia.org/class/yago/Country108544813
p34
aVhttp://dbpedia.org/class/yago/District108552138
p35
aVhttp://dbpedia.org/class/yago/Location100027167
p36
aVhttp://dbpedia.org/class/yago/Object100002684
p37
aVhttp://dbpedia.org/class/yago/Region108630985
p38
aVhttp://dbpedia.org/class/yago/YagoGeoEntity
p39
aVhttp://dbpedia.org/class/yago/YagoLegalActorGeo
p40
aVhttp://dbpedia.org/class/yago/PhysicalEntity100001930
p41
aVhttp://dbpedia.org/class/yago/YagoPermanentlyLocatedEntity
p42
aVhttp://dbpedia.org/class/yago/StatesAndTerritoriesEstablishedIn1816
p43
aVhttp://dbpedia.org/class/yago/StatesOfTheUnitedStates
p44
asVdisambiguatedURL
p45
Vhttp://dbpedia.org/resource/Indiana
p46
sVnamedEntity
p47
VIndiana
p48
sVoffset
p49
I7
saa(lp50
(dp51
Vstart
p52
I0
sg5
(lp53
Vhttp://www.w3.org/2002/07/owl#Thing
p54
aVhttp://dbpedia.org/ontology/Place
p55
aVhttp://dbpedia.org/ontology/Location
p56
aVhttp://www.wikidata.org/entity/Q3455524
p57
aVhttp://www.wikidata.org/entity/Q486972
p58
aVhttp://dbpedia.org/ontology/AdministrativeRegion
p59
aVhttp://dbpedia.org/ontology/PopulatedPlace
p60
aVhttp://dbpedia.org/ontology/Region
p61
aVhttp://schema.org/AdministrativeArea
p62
aVhttp://schema.org/Place
p63
aVhttp://umbel.org/umbel/rc/PopulatedPlace
p64
aVhttp://dbpedia.org/class/yago/AdministrativeDistrict108491826
p65
aVhttp://dbpedia.org/class/yago/Country108544813
p66
aVhttp://dbpedia.org/class/yago/District108552138
p67
aVhttp://dbpedia.org/class/yago/Location100027167
p68
aVhttp://dbpedia.org/class/yago/Object100002684
p69
aVhttp://dbpedia.org/class/yago/Region108630985
p70
aVhttp://dbpedia.org/class/yago/YagoGeoEntity
p71
aVhttp://dbpedia.org/class/yago/YagoLegalActorGeo
p72
aVhttp://dbpedia.org/class/yago/PhysicalEntity100001930
p73
aVhttp://dbpedia.org/class/yago/YagoPermanentlyLocatedEntity
p74
aVhttp://dbpedia.org/class/yago/MidwesternUnitedStates
p75
aVhttp://dbpedia.org/class/yago/StatesAndTerritoriesEstablishedIn1846
p76
aVhttp://dbpedia.org/class/yago/StatesOfTheUnitedStates
p77
asVdisambiguatedURL
p78
Vhttp://dbpedia.org/resource/Iowa
p79
sVnamedEntity
p80
VIowa
p81
sVoffset
p82
I4
saa(lp83
(dp84
Vstart
p85
I0
sg5
(lp86
Vhttp://www.w3.org/2002/07/owl#Thing
p87
aVhttp://dbpedia.org/ontology/Place
p88
aVhttp://dbpedia.org/ontology/Location
p89
aVhttp://www.wikidata.org/entity/Q3455524
p90
aVhttp://www.wikidata.org/entity/Q486972
p91
aVhttp://dbpedia.org/ontology/AdministrativeRegion
p92
aVhttp://dbpedia.org/ontology/PopulatedPlace
p93
aVhttp://dbpedia.org/ontology/Region
p94
aVhttp://schema.org/AdministrativeArea
p95
aVhttp://schema.org/Place
p96
aVhttp://umbel.org/umbel/rc/Location_Underspecified
p97
aVhttp://umbel.org/umbel/rc/PopulatedPlace
p98
aVhttp://dbpedia.org/class/yago/AdministrativeDistrict108491826
p99
aVhttp://dbpedia.org/class/yago/Country108544813
p100
aVhttp://dbpedia.org/class/yago/District108552138
p101
aVhttp://dbpedia.org/class/yago/Location100027167
p102
aVhttp://dbpedia.org/class/yago/Object100002684
p103
aVhttp://dbpedia.org/class/yago/Region108630985
p104
aVhttp://dbpedia.org/class/yago/YagoGeoEntity
p105
aVhttp://dbpedia.org/class/yago/YagoLegalActorGeo
p106
aVhttp://dbpedia.org/class/yago/PhysicalEntity100001930
p107
aVhttp://dbpedia.org/class/yago/YagoPermanentlyLocatedEntity
p108
aVhttp://dbpedia.org/class/yago/StatesAndTerritoriesEstablishedIn1837
p109
aVhttp://dbpedia.org/class/yago/StatesOfTheUnitedStates
p110
asVdisambiguatedURL
p111
Vhttp://dbpedia.org/resource/Michigan
p112
sVnamedEntity
p113
VMichigan
p114
sVoffset
p115
I8
saa(lp116
(dp117
Vstart
p118
I0
sg5
(lp119
Vhttp://www.w3.org/2002/07/owl#Thing
p120
aVhttp://umbel.org/umbel/rc/PopulatedPlace
p121
aVhttp://dbpedia.org/class/yago/AdministrativeDistrict108491826
p122
aVhttp://dbpedia.org/class/yago/Country108544813
p123
aVhttp://dbpedia.org/class/yago/District108552138
p124
aVhttp://dbpedia.org/class/yago/Location100027167
p125
aVhttp://dbpedia.org/class/yago/Object100002684
p126
aVhttp://dbpedia.org/class/yago/Region108630985
p127
aVhttp://dbpedia.org/class/yago/YagoGeoEntity
p128
aVhttp://dbpedia.org/class/yago/YagoLegalActorGeo
p129
aVhttp://dbpedia.org/class/yago/PhysicalEntity100001930
p130
aVhttp://dbpedia.org/class/yago/YagoPermanentlyLocatedEntity
p131
aVhttp://dbpedia.org/class/yago/StatesAndTerritoriesEstablishedIn1848
p132
aVhttp://dbpedia.org/class/yago/StatesOfTheUnitedStates
p133
asVdisambiguatedURL
p134
Vhttp://dbpedia.org/resource/Wisconsin
p135
sVnamedEntity
p136
VWisconsin
p137
sVoffset
p138
I9
saa.