(lp1
(lp2
a(lp3
a(lp4
a(lp5
a(lp6
a(lp7
a(lp8
a(lp9
a(lp10
a(lp11
a(lp12
a(lp13
a(lp14
a(lp15
a(lp16
(dp17
Vstart
p18
I0
sS'classes'
p19
(lp20
Vhttp://umbel.org/umbel/rc/Animal
p21
aVhttp://umbel.org/umbel/rc/BiologicalLivingObject
p22
aVhttp://umbel.org/umbel/rc/Bird
p23
aVhttp://umbel.org/umbel/rc/EukaryoticCell
p24
aVhttp://dbpedia.org/class/yago/Animal100015388
p25
aVhttp://dbpedia.org/class/yago/AnimalsDescribedIn1758
p26
aVhttp://dbpedia.org/class/yago/AquaticBird101844917
p27
aVhttp://dbpedia.org/class/yago/AtlanticAuks
p28
aVhttp://dbpedia.org/class/yago/Auk102045369
p29
aVhttp://dbpedia.org/class/yago/Bird101503061
p30
aVhttp://dbpedia.org/class/yago/BirdsOfCanada
p31
aVhttp://dbpedia.org/class/yago/BirdsOfEurope
p32
aVhttp://dbpedia.org/class/yago/BirdsOfIceland
p33
aVhttp://dbpedia.org/class/yago/BirdsOfTheFaroeIslands
p34
aVhttp://dbpedia.org/class/yago/LivingThing100004258
p35
aVhttp://dbpedia.org/class/yago/Object100002684
p36
aVhttp://dbpedia.org/class/yago/Organism100004475
p37
aVhttp://dbpedia.org/class/yago/Seabird102021795
p38
aVhttp://dbpedia.org/class/yago/Vertebrate101471682
p39
aVhttp://dbpedia.org/class/yago/Whole100003553
p40
aVhttp://dbpedia.org/class/yago/Chordate101466257
p41
aVhttp://dbpedia.org/class/yago/PhysicalEntity100001930
p42
aVhttp://dbpedia.org/class/yago/Puffin102047614
p43
aVhttp://dbpedia.org/class/yago/Puffins
p44
asVdisambiguatedURL
p45
Vhttp://dbpedia.org/resource/Atlantic_Puffin
p46
sVnamedEntity
p47
Vatlantic puffin
p48
sVoffset
p49
I15
saa(lp50
a(lp51
a(lp52
a(lp53
a(lp54
a.