(lp1
(lp2
(lp3
a(lp4
((lp5
Vhttp://www.w3.org/2002/07/owl#Thing
p6
aVhttp://xmlns.com/foaf/0.1/Person
p7
aVhttp://dbpedia.org/ontology/Person
p8
aVhttp://www.ontologydesignpatterns.org/ont/dul/DUL.owl#Agent
p9
aVhttp://www.ontologydesignpatterns.org/ont/dul/DUL.owl#NaturalPerson
p10
aVhttp://www.wikidata.org/entity/Q215627
p11
aVhttp://www.wikidata.org/entity/Q5
p12
aVhttp://dbpedia.org/ontology/Agent
p13
aVhttp://schema.org/Person
p14
aVhttp://dbpedia.org/resource/Asheesh_Sethi
tp15
aa(lp16
a(lp17
aa(lp18
(lp19
a(lp20
a(lp21
a(lp22
aa(lp23
(lp24
a(lp25
((lp26
Vhttp://www.w3.org/2002/07/owl#Thing
p27
aVhttp://xmlns.com/foaf/0.1/Person
p28
aVhttp://dbpedia.org/ontology/Person
p29
aVhttp://www.ontologydesignpatterns.org/ont/dul/DUL.owl#Agent
p30
aVhttp://www.ontologydesignpatterns.org/ont/dul/DUL.owl#NaturalPerson
p31
aVhttp://www.wikidata.org/entity/Q215627
p32
aVhttp://www.wikidata.org/entity/Q5
p33
aVhttp://dbpedia.org/ontology/Agent
p34
aVhttp://schema.org/Person
p35
aVhttp://dbpedia.org/resource/Ashley_Clements
tp36
aa(lp37
a(lp38
aa(lp39
(lp40
a(lp41
((lp42
Vhttp://www.w3.org/2002/07/owl#Thing
p43
aVhttp://xmlns.com/foaf/0.1/Person
p44
aVhttp://dbpedia.org/ontology/Person
p45
aVhttp://www.ontologydesignpatterns.org/ont/dul/DUL.owl#Agent
p46
aVhttp://www.ontologydesignpatterns.org/ont/dul/DUL.owl#NaturalPerson
p47
aVhttp://www.wikidata.org/entity/Q215627
p48
aVhttp://www.wikidata.org/entity/Q5
p49
aVhttp://dbpedia.org/ontology/Agent
p50
aVhttp://schema.org/Person
p51
aVhttp://dbpedia.org/resource/Ashley_Comeau
tp52
aa(lp53
a(lp54
aa(lp55
(lp56
a(lp57
((lp58
Vhttp://www.w3.org/2002/07/owl#Thing
p59
aVhttp://xmlns.com/foaf/0.1/Person
p60
aVhttp://dbpedia.org/ontology/Person
p61
aVhttp://www.ontologydesignpatterns.org/ont/dul/DUL.owl#Agent
p62
aVhttp://www.ontologydesignpatterns.org/ont/dul/DUL.owl#NaturalPerson
p63
aVhttp://www.wikidata.org/entity/Q215627
p64
aVhttp://www.wikidata.org/entity/Q5
p65
aVhttp://dbpedia.org/ontology/Agent
p66
aVhttp://schema.org/Person
p67
aVhttp://dbpedia.org/resource/Ashley_Everett
tp68
aa(lp69
a(lp70
aa(lp71
(lp72
a(lp73
((lp74
Vhttp://www.w3.org/2002/07/owl#Thing
p75
aVhttp://xmlns.com/foaf/0.1/Person
p76
aVhttp://dbpedia.org/ontology/Person
p77
aVhttp://www.ontologydesignpatterns.org/ont/dul/DUL.owl#Agent
p78
aVhttp://www.ontologydesignpatterns.org/ont/dul/DUL.owl#NaturalPerson
p79
aVhttp://www.wikidata.org/entity/Q215627
p80
aVhttp://www.wikidata.org/entity/Q5
p81
aVhttp://dbpedia.org/ontology/Agent
p82
aVhttp://schema.org/Person
p83
aVhttp://dbpedia.org/resource/Ashok_Bhagat
tp84
aa(lp85
a(lp86
aa(lp87
(lp88
a(lp89
a(lp90
a(lp91
aa(lp92
(lp93
a(lp94
a(lp95
a(lp96
aa(lp97
(lp98
a(lp99
((lp100
Vhttp://www.w3.org/2002/07/owl#Thing
p101
aVhttp://xmlns.com/foaf/0.1/Person
p102
aVhttp://dbpedia.org/ontology/Person
p103
aVhttp://www.ontologydesignpatterns.org/ont/dul/DUL.owl#Agent
p104
aVhttp://www.ontologydesignpatterns.org/ont/dul/DUL.owl#NaturalPerson
p105
aVhttp://www.wikidata.org/entity/Q215627
p106
aVhttp://www.wikidata.org/entity/Q5
p107
aVhttp://dbpedia.org/ontology/Agent
p108
aVhttp://schema.org/Person
p109
aVhttp://dbpedia.org/resource/Asmirandah
tp110
aa(lp111
a(lp112
aa(lp113
(lp114
a(lp115
((lp116
Vhttp://www.w3.org/2002/07/owl#Thing
p117
aVhttp://xmlns.com/foaf/0.1/Person
p118
aVhttp://dbpedia.org/ontology/Person
p119
aVhttp://www.ontologydesignpatterns.org/ont/dul/DUL.owl#Agent
p120
aVhttp://www.ontologydesignpatterns.org/ont/dul/DUL.owl#NaturalPerson
p121
aVhttp://www.wikidata.org/entity/Q215627
p122
aVhttp://www.wikidata.org/entity/Q5
p123
aVhttp://dbpedia.org/ontology/Agent
p124
aVhttp://schema.org/Person
p125
aVhttp://dbpedia.org/resource/Asser_Yassin
tp126
aa(lp127
a(lp128
aa(lp129
(lp130
a(lp131
a(lp132
a(lp133
aa(lp134
(lp135
a(lp136
a(lp137
a(lp138
aa(lp139
(lp140
a(lp141
a(lp142
a(lp143
aa(lp144
(lp145
a(lp146
a(lp147
a(lp148
aa(lp149
(lp150
a(lp151
a(lp152
a(lp153
aa(lp154
(lp155
a(lp156
((lp157
Vhttp://www.w3.org/2002/07/owl#Thing
p158
aVhttp://xmlns.com/foaf/0.1/Person
p159
aVhttp://dbpedia.org/ontology/Person
p160
aVhttp://www.ontologydesignpatterns.org/ont/dul/DUL.owl#Agent
p161
aVhttp://www.ontologydesignpatterns.org/ont/dul/DUL.owl#NaturalPerson
p162
aVhttp://www.wikidata.org/entity/Q215627
p163
aVhttp://www.wikidata.org/entity/Q5
p164
aVhttp://dbpedia.org/ontology/Agent
p165
aVhttp://schema.org/Person
p166
aVhttp://dbpedia.org/resource/Attila_Grandpierre
tp167
aa(lp168
a(lp169
aa(lp170
(lp171
a(lp172
a(lp173
a(lp174
aa(lp175
(lp176
a(lp177
((lp178
Vhttp://www.w3.org/2002/07/owl#Thing
p179
aVhttp://xmlns.com/foaf/0.1/Person
p180
aVhttp://dbpedia.org/ontology/Person
p181
aVhttp://www.ontologydesignpatterns.org/ont/dul/DUL.owl#Agent
p182
aVhttp://www.ontologydesignpatterns.org/ont/dul/DUL.owl#NaturalPerson
p183
aVhttp://www.wikidata.org/entity/Q215627
p184
aVhttp://www.wikidata.org/entity/Q5
p185
aVhttp://dbpedia.org/ontology/Agent
p186
aVhttp://schema.org/Person
p187
aVhttp://dbpedia.org/resource/Avani_Modi
tp188
aa(lp189
a(lp190
aa(lp191
(lp192
a(lp193
((lp194
Vhttp://www.w3.org/2002/07/owl#Thing
p195
aVhttp://xmlns.com/foaf/0.1/Person
p196
aVhttp://dbpedia.org/ontology/Person
p197
aVhttp://www.ontologydesignpatterns.org/ont/dul/DUL.owl#Agent
p198
aVhttp://www.ontologydesignpatterns.org/ont/dul/DUL.owl#NaturalPerson
p199
aVhttp://www.wikidata.org/entity/Q215627
p200
aVhttp://www.wikidata.org/entity/Q5
p201
aVhttp://dbpedia.org/ontology/Agent
p202
aVhttp://schema.org/Person
p203
aVhttp://dbpedia.org/resource/Avery_Paraiso
p204
tp205
aa(lp206
a(lp207
aa.