(lp1
(lp2
(dp3
Vstart
p4
I0
sVdisambiguatedURL
p5
Vhttp://dbpedia.org/resource/X86_virtualization
p6
sVnamedEntity
p7
Vx
sVoffset
p8
I1
saa(lp9
(dp10
Vstart
p11
I0
sVdisambiguatedURL
p12
Vhttp://dbpedia.org/resource/X86_virtualization
p13
sVnamedEntity
p14
Vx
sVoffset
p15
I1
saa(lp16
(dp17
Vstart
p18
I0
sVdisambiguatedURL
p19
Vhttp://dbpedia.org/resource/Null
p20
sVnamedEntity
p21
VNULL
p22
sVoffset
p23
I4
saa(lp24
(dp25
Vstart
p26
I0
sVdisambiguatedURL
p27
Vhttp://dbpedia.org/resource/Null
p28
sVnamedEntity
p29
VNULL
p30
sVoffset
p31
I4
saa(lp32
(dp33
Vstart
p34
I0
sVdisambiguatedURL
p35
Vhttp://dbpedia.org/resource/Null
p36
sVnamedEntity
p37
VNULL
p38
sVoffset
p39
I4
saa(lp40
(dp41
Vstart
p42
I0
sVdisambiguatedURL
p43
Vhttp://dbpedia.org/resource/Null
p44
sVnamedEntity
p45
VNULL
p46
sVoffset
p47
I4
saa(lp48
(dp49
Vstart
p50
I0
sVdisambiguatedURL
p51
Vhttp://dbpedia.org/resource/Null
p52
sVnamedEntity
p53
VNULL
p54
sVoffset
p55
I4
saa(lp56
(dp57
Vstart
p58
I0
sVdisambiguatedURL
p59
Vhttp://dbpedia.org/resource/Null
p60
sVnamedEntity
p61
VNULL
p62
sVoffset
p63
I4
saa(lp64
(dp65
Vstart
p66
I0
sVdisambiguatedURL
p67
Vhttp://dbpedia.org/resource/Null
p68
sVnamedEntity
p69
VNULL
p70
sVoffset
p71
I4
saa.