(lp1
(lp2
(lp3
Vhttp://dbpedia.org/resource/X86_virtualization
p4
aa(lp5
Vhttp://dbpedia.org/resource/Motor_vehicle
p6
aa(lp7
Vhttp://dbpedia.org/resource/Null
p8
aa(lp9
a(lp10
Vhttp://dbpedia.org/resource/Null
p11
aa(lp12
aa(lp13
(lp14
Vhttp://dbpedia.org/resource/X86_virtualization
p15
aa(lp16
Vhttp://dbpedia.org/resource/Building_material
p17
aa(lp18
Vhttp://dbpedia.org/resource/Null
p19
aa(lp20
Vhttp://dbpedia.org/resource/Mobile_home
p21
aa(lp22
Vhttp://dbpedia.org/resource/X86_virtualization
p23
aa(lp24
aa(lp25
(lp26
Vhttp://dbpedia.org/resource/Null
p27
aa(lp28
a(lp29
Vhttp://dbpedia.org/resource/Null
p30
aa(lp31
a(lp32
Vhttp://dbpedia.org/resource/Null
p33
aa(lp34
aa(lp35
(lp36
Vhttp://dbpedia.org/resource/Null
p37
aa(lp38
a(lp39
Vhttp://dbpedia.org/resource/Null
p40
aa(lp41
a(lp42
Vhttp://dbpedia.org/resource/Null
p43
aa(lp44
aa(lp45
(lp46
Vhttp://dbpedia.org/resource/Null
p47
aa(lp48
a(lp49
Vhttp://dbpedia.org/resource/Null
p50
aa(lp51
a(lp52
Vhttp://dbpedia.org/resource/Null
p53
aa(lp54
aa(lp55
(lp56
Vhttp://dbpedia.org/resource/Null
p57
aa(lp58
a(lp59
Vhttp://dbpedia.org/resource/Null
p60
aa(lp61
a(lp62
Vhttp://dbpedia.org/resource/Null
p63
aa(lp64
aa(lp65
(lp66
Vhttp://dbpedia.org/resource/Null
p67
aa(lp68
a(lp69
Vhttp://dbpedia.org/resource/Null
p70
aa(lp71
a(lp72
Vhttp://dbpedia.org/resource/Null
p73
aa(lp74
aa(lp75
(lp76
Vhttp://dbpedia.org/resource/Null
p77
aa(lp78
a(lp79
Vhttp://dbpedia.org/resource/Null
p80
aa(lp81
a(lp82
Vhttp://dbpedia.org/resource/Null
p83
aa(lp84
aa(lp85
(lp86
Vhttp://dbpedia.org/resource/Null
p87
aa(lp88
Vhttp://dbpedia.org/resource/Construction
p89
aa(lp90
Vhttp://dbpedia.org/resource/Null
p91
aa(lp92
a(lp93
Vhttp://dbpedia.org/resource/Null
p94
aa(lp95
Vhttp://dbpedia.org/resource/Null
p96
aaa.