ccollections
defaultdict
p1
(c__builtin__
dict
p2
tRp3
I0
(dp4
I1
(lp5
sI2
(lp6
sI3
(lp7
sI4
(lp8
sI5
(lp9
ssI1
(dp10
I1
(lp11
sI2
(lp12
sI3
(lp13
sI4
(lp14
Vhttp://dbpedia.org/ontology/wikiPageExternalLink
p15
aVhttp://xmlns.com/foaf/0.1/primaryTopic
p16
aVhttp://purl.org/dc/terms/subject
p17
aVhttp://www.w3.org/2000/01/rdf-schema#comment
p18
aVhttp://dbpedia.org/ontology/abstract
p19
aVhttp://dbpedia.org/ontology/wikiPageRedirects
p20
aVhttp://xmlns.com/foaf/0.1/isPrimaryTopicOf
p21
aVhttp://www.w3.org/ns/prov#wasDerivedFrom
p22
aVhttp://dbpedia.org/property/hasPhotoCollection
p23
aVhttp://www.w3.org/2000/01/rdf-schema#label
p24
aVhttp://www.w3.org/2002/07/owl#sameAs
p25
asI5
(lp26
ss.