ccollections
defaultdict
p1
(c__builtin__
dict
p2
tRp3
I0
(dp4
I0
(lp5
Vhttp://www.w3.org/2000/01/rdf-schema#seeAlso
p6
aVhttp://dbpedia.org/ontology/countryWithFirstSatellite
p7
aVhttp://dbpedia.org/property/hostCity
p8
aVhttp://dbpedia.org/property/worldPlace
p9
aVhttp://dbpedia.org/property/city
p10
aVhttp://dbpedia.org/property/utcOffset
p11
aVhttp://dbpedia.org/property/footnoteB
p12
aVhttp://dbpedia.org/ontology/PopulatedPlace/populationDensity
p13
aVhttp://dbpedia.org/ontology/country
p14
aVhttp://dbpedia.org/property/returns
p15
aVhttp://www.w3.org/1999/02/22-rdf-syntax-ns#type
p16
aVhttp://dbpedia.org/property/home
p17
aVhttp://dbpedia.org/property/rd1t2Loc
p18
aVhttp://dbpedia.org/ontology/ground
p19
aVhttp://dbpedia.org/property/withdraws
p20
aVhttp://dbpedia.org/property/country
p21
aVhttp://dbpedia.org/property/l
p22
aVhttp://dbpedia.org/ontology/wikiPageExternalLink
p23
aVhttp://dbpedia.org/ontology/abstract
p24
aVhttp://dbpedia.org/property/rd1t8Loc
p25
aVhttp://dbpedia.org/property/venue
p26
aVhttp://dbpedia.org/property/location
p27
aVhttp://dbpedia.org/ontology/homeStadium
p28
aVhttp://dbpedia.org/property/statRef
p29
aVhttp://dbpedia.org/ontology/city
p30
aVhttp://dbpedia.org/property/fullname
p31
aVhttp://dbpedia.org/property/debuts
p32
aVhttp://dbpedia.org/property/moreUsers
p33
aVhttp://dbpedia.org/ontology/location
p34
aVhttp://www.w3.org/2000/01/rdf-schema#comment
p35
aVhttp://dbpedia.org/property/populationEstimateYear
p36
aVhttp://dbpedia.org/property/stadium
p37
aVhttp://dbpedia.org/property/gold
p38
aVhttp://dbpedia.org/property/asianPlace
p39
aVhttp://www.w3.org/2002/07/owl#sameAs
p40
asI2
(lp41
Vhttp://dbpedia.org/property/placeOfDeath
p42
aVhttp://dbpedia.org/property/broadcastArea
p43
aVhttp://dbpedia.org/property/burial
p44
aVhttp://dbpedia.org/ontology/officialLanguage
p45
aVhttp://dbpedia.org/ontology/regionServed
p46
aVhttp://dbpedia.org/ontology/country
p47
aVhttp://www.w3.org/1999/02/22-rdf-syntax-ns#type
p48
aVhttp://dbpedia.org/ontology/place
p49
aVhttp://dbpedia.org/ontology/ethnicGroup
p50
aVhttp://dbpedia.org/property/country
p51
aVhttp://purl.org/dc/terms/subject
p52
aVhttp://dbpedia.org/ontology/abstract
p53
aVhttp://dbpedia.org/ontology/spokenIn
p54
aVhttp://dbpedia.org/property/deathPlace
p55
aVhttp://dbpedia.org/property/location
p56
aVhttp://dbpedia.org/property/states
p57
aVhttp://dbpedia.org/ontology/locationCountry
p58
aVhttp://dbpedia.org/ontology/deathPlace
p59
aVhttp://dbpedia.org/ontology/language
p60
aVhttp://dbpedia.org/ontology/broadcastArea
p61
aVhttp://dbpedia.org/property/basinCountries
p62
aVhttp://dbpedia.org/property/officialLanguages
p63
aVhttp://www.w3.org/2000/01/rdf-schema#comment
p64
aVhttp://dbpedia.org/property/regionServed
p65
asI3
(lp66
sI4
(lp67
sI5
(lp68
sI6
(lp69
Vhttp://dbpedia.org/property/origin
p70
aVhttp://dbpedia.org/property/placeOfDeath
p71
aVhttp://dbpedia.org/property/twin1Country
p72
aVhttp://dbpedia.org/property/hostCity
p73
aVhttp://dbpedia.org/ontology/origin
p74
aVhttp://dbpedia.org/property/deathDate
p75
aVhttp://dbpedia.org/property/place
p76
aVhttp://dbpedia.org/property/worldPlace
p77
aVhttp://dbpedia.org/ontology/PopulatedPlace/areaTotal
p78
aVhttp://dbpedia.org/property/birthplace
p79
aVhttp://www.w3.org/ns/prov#wasDerivedFrom
p80
aVhttp://dbpedia.org/ontology/fastestDriverCountry
p81
aVhttp://dbpedia.org/ontology/PopulatedPlace/populationDensity
p82
aVhttp://dbpedia.org/ontology/routeEnd
p83
aVhttp://dbpedia.org/ontology/country
p84
aVhttp://dbpedia.org/property/region
p85
aVhttp://www.w3.org/1999/02/22-rdf-syntax-ns#type
p86
aVhttp://dbpedia.org/property/homecountry
p87
aVhttp://dbpedia.org/property/home
p88
aVhttp://dbpedia.org/property/restingplace
p89
aVhttp://dbpedia.org/property/assembly
p90
aVhttp://dbpedia.org/property/rd1t2Loc
p91
aVhttp://dbpedia.org/ontology/ground
p92
aVhttp://dbpedia.org/property/withdraws
p93
aVhttp://dbpedia.org/property/2rpt2Loc
p94
aVhttp://dbpedia.org/property/birthPlace
p95
aVhttp://dbpedia.org/ontology/place
p96
aVhttp://dbpedia.org/property/placeOfBirth
p97
aVhttp://dbpedia.org/property/returns
p98
aVhttp://dbpedia.org/property/country
p99
aVhttp://dbpedia.org/property/img
p100
aVhttp://dbpedia.org/property/gdpNominal
p101
aVhttp://dbpedia.org/ontology/wikiPageExternalLink
p102
aVhttp://dbpedia.org/property/start
p103
aVhttp://dbpedia.org/property/venue
p104
aVhttp://dbpedia.org/ontology/abstract
p105
aVhttp://dbpedia.org/property/rd1t8Loc
p106
aVhttp://dbpedia.org/ontology/firstDriverCountry
p107
aVhttp://dbpedia.org/property/deathPlace
p108
aVhttp://dbpedia.org/property/location
p109
aVhttp://dbpedia.org/ontology/locationCountry
p110
aVhttp://dbpedia.org/ontology/homeStadium
p111
aVhttp://dbpedia.org/property/usedBy
p112
aVhttp://dbpedia.org/property/nationalOrigin
p113
aVhttp://dbpedia.org/property/rd2t1Loc
p114
aVhttp://www.georss.org/georss/point
p115
aVhttp://dbpedia.org/ontology/assembly
p116
aVhttp://dbpedia.org/ontology/location
p117
aVhttp://www.w3.org/2000/01/rdf-schema#comment
p118
aVhttp://dbpedia.org/ontology/birthPlace
p119
aVhttp://dbpedia.org/property/countries
p120
aVhttp://dbpedia.org/property/olympicPlace
p121
aVhttp://dbpedia.org/property/rd1t1Loc
p122
aVhttp://purl.org/voc/vrank#hasRank
p123
aVhttp://dbpedia.org/property/stadium
p124
aVhttp://dbpedia.org/property/asianPlace
p125
aVhttp://dbpedia.org/property/residence
p126
aVhttp://dbpedia.org/property/areasAffected
p127
aVhttp://www.w3.org/2002/07/owl#sameAs
p128
aVhttp://dbpedia.org/ontology/deathPlace
p129
asI7
(lp130
Vhttp://dbpedia.org/ontology/country
p131
aVhttp://www.w3.org/1999/02/22-rdf-syntax-ns#type
p132
aVhttp://dbpedia.org/ontology/location
p133
aVhttp://dbpedia.org/property/countries
p134
aVhttp://dbpedia.org/ontology/abstract
p135
aVhttp://dbpedia.org/property/hostCity
p136
aVhttp://dbpedia.org/property/venue
p137
aVhttp://dbpedia.org/property/location
p138
aVhttp://www.w3.org/ns/prov#wasDerivedFrom
p139
assI1
(dp140
I0
(lp141
Vhttp://www.w3.org/1999/02/22-rdf-syntax-ns#type
p142
aVhttp://dbpedia.org/property/venue
p143
aVhttp://dbpedia.org/property/location
p144
aVhttp://dbpedia.org/property/worldPlace
p145
aVhttp://dbpedia.org/property/fullname
p146
aVhttp://dbpedia.org/property/asianPlace
p147
aVhttp://dbpedia.org/ontology/sales
p148
aVhttp://dbpedia.org/property/stadium
p149
asI2
(lp150
Vhttp://www.w3.org/2000/01/rdf-schema#seeAlso
p151
aVhttp://dbpedia.org/property/currency
p152
aVhttp://dbpedia.org/ontology/origin
p153
aVhttp://dbpedia.org/ontology/currency
p154
aVhttp://dbpedia.org/property/usingJurisdiction
p155
aVhttp://dbpedia.org/property/place
p156
aVhttp://dbpedia.org/ontology/foundationPlace
p157
aVhttp://dbpedia.org/property/caption
p158
aVhttp://dbpedia.org/property/territory
p159
aVhttp://dbpedia.org/ontology/demonym
p160
aVhttp://dbpedia.org/ontology/officialLanguage
p161
aVhttp://dbpedia.org/ontology/regionServed
p162
aVhttp://dbpedia.org/ontology/country
p163
aVhttp://dbpedia.org/property/locationCountry
p164
aVhttp://dbpedia.org/property/site
p165
aVhttp://dbpedia.org/property/birthPlace
p166
aVhttp://dbpedia.org/property/headquarters
p167
aVhttp://dbpedia.org/ontology/place
p168
aVhttp://dbpedia.org/ontology/ethnicGroup
p169
aVhttp://dbpedia.org/property/country
p170
aVhttp://dbpedia.org/property/areaServed
p171
aVhttp://dbpedia.org/property/placeOfBirth
p172
aVhttp://dbpedia.org/ontology/populationPlace
p173
aVhttp://dbpedia.org/property/origin
p174
aVhttp://dbpedia.org/ontology/abstract
p175
aVhttp://dbpedia.org/property/regionServed
p176
aVhttp://dbpedia.org/property/location
p177
aVhttp://dbpedia.org/ontology/usingCountry
p178
aVhttp://dbpedia.org/property/states
p179
aVhttp://dbpedia.org/ontology/locationCountry
p180
aVhttp://dbpedia.org/ontology/headquarter
p181
aVhttp://dbpedia.org/property/allies
p182
aVhttp://dbpedia.org/ontology/language
p183
aVhttp://dbpedia.org/ontology/location
p184
aVhttp://dbpedia.org/property/officialLanguages
p185
aVhttp://www.w3.org/2000/01/rdf-schema#comment
p186
aVhttp://dbpedia.org/ontology/birthPlace
p187
aVhttp://dbpedia.org/ontology/wikiPageRedirects
p188
aVhttp://dbpedia.org/ontology/hometown
p189
aVhttp://dbpedia.org/ontology/spokenIn
p190
aVhttp://dbpedia.org/property/jurisdiction
p191
asI3
(lp192
sI4
(lp193
sI5
(lp194
sI6
(lp195
Vhttp://www.w3.org/2000/01/rdf-schema#seeAlso
p196
aVhttp://dbpedia.org/ontology/country
p197
aVhttp://dbpedia.org/property/returns
p198
aVhttp://dbpedia.org/property/origin
p199
aVhttp://dbpedia.org/property/countriesAffected
p200
aVhttp://dbpedia.org/ontology/origin
p201
aVhttp://dbpedia.org/property/home
p202
aVhttp://dbpedia.org/ontology/abstract
p203
aVhttp://dbpedia.org/property/place
p204
aVhttp://dbpedia.org/property/location
p205
aVhttp://dbpedia.org/property/venue
p206
aVhttp://dbpedia.org/property/rd1t1Loc
p207
aVhttp://dbpedia.org/property/country
p208
aVhttp://dbpedia.org/ontology/PopulatedPlace/populationDensity
p209
aVhttp://www.w3.org/2002/07/owl#sameAs
p210
asI7
(lp211
Vhttp://dbpedia.org/ontology/abstract
p212
aVhttp://purl.org/dc/terms/subject
p213
aVhttp://dbpedia.org/property/location
p214
aVhttp://www.w3.org/2000/01/rdf-schema#comment
p215
assI2
(dp216
I0
(lp217
Vhttp://dbpedia.org/ontology/wikiPageExternalLink
p218
aVhttp://www.w3.org/1999/02/22-rdf-syntax-ns#type
p219
aVhttp://dbpedia.org/ontology/countryWithFirstSatellite
p220
aVhttp://dbpedia.org/property/countriesAffected
p221
aVhttp://dbpedia.org/property/venue
p222
aVhttp://dbpedia.org/property/location
p223
aVhttp://dbpedia.org/property/withdraws
p224
aVhttp://dbpedia.org/property/rd3t2Loc
p225
aVhttp://dbpedia.org/property/rd2t4Loc
p226
aVhttp://www.w3.org/ns/prov#wasDerivedFrom
p227
aVhttp://dbpedia.org/property/hasPhotoCollection
p228
aVhttp://www.w3.org/2002/07/owl#sameAs
p229
asI2
(lp230
Vhttp://www.w3.org/2000/01/rdf-schema#seeAlso
p231
aVhttp://dbpedia.org/property/origin
p232
aVhttp://dbpedia.org/ontology/origin
p233
aVhttp://dbpedia.org/property/place
p234
aVhttp://dbpedia.org/property/footnoteA
p235
aVhttp://dbpedia.org/ontology/demonym
p236
aVhttp://dbpedia.org/ontology/officialLanguage
p237
aVhttp://dbpedia.org/ontology/country
p238
aVhttp://dbpedia.org/property/usingCountries
p239
aVhttp://dbpedia.org/property/headquarters
p240
aVhttp://dbpedia.org/property/winnerOrigin
p241
aVhttp://dbpedia.org/property/foundedPlace
p242
aVhttp://dbpedia.org/property/country
p243
aVhttp://dbpedia.org/ontology/wikiPageExternalLink
p244
aVhttp://dbpedia.org/ontology/populationPlace
p245
aVhttp://dbpedia.org/ontology/abstract
p246
aVhttp://dbpedia.org/property/location
p247
aVhttp://dbpedia.org/ontology/usingCountry
p248
aVhttp://dbpedia.org/property/regions
p249
aVhttp://dbpedia.org/ontology/headquarter
p250
aVhttp://dbpedia.org/property/shipNamesake
p251
aVhttp://dbpedia.org/ontology/language
p252
aVhttp://dbpedia.org/ontology/location
p253
aVhttp://dbpedia.org/property/states
p254
aVhttp://dbpedia.org/property/officialLanguages
p255
aVhttp://www.w3.org/2000/01/rdf-schema#comment
p256
aVhttp://dbpedia.org/ontology/birthPlace
p257
aVhttp://dbpedia.org/ontology/wikiPageRedirects
p258
aVhttp://dbpedia.org/property/area
p259
aVhttp://dbpedia.org/ontology/hometown
p260
aVhttp://dbpedia.org/property/demonym
p261
aVhttp://dbpedia.org/ontology/spokenIn
p262
aVhttp://dbpedia.org/property/foundingLocation
p263
aVhttp://dbpedia.org/property/jurisdiction
p264
aVhttp://dbpedia.org/property/popplace
p265
asI3
(lp266
sI4
(lp267
sI5
(lp268
sI6
(lp269
Vhttp://dbpedia.org/property/territory
p270
aVhttp://dbpedia.org/ontology/country
p271
aVhttp://dbpedia.org/property/returns
p272
aVhttp://www.w3.org/1999/02/22-rdf-syntax-ns#type
p273
aVhttp://www.w3.org/2000/01/rdf-schema#comment
p274
aVhttp://dbpedia.org/property/home
p275
aVhttp://dbpedia.org/ontology/abstract
p276
aVhttp://dbpedia.org/property/countriesAffected
p277
aVhttp://dbpedia.org/property/place
p278
aVhttp://dbpedia.org/property/location
p279
aVhttp://dbpedia.org/property/worldPlace
p280
aVhttp://dbpedia.org/property/venue
p281
aVhttp://dbpedia.org/ontology/PopulatedPlace/areaTotal
p282
aVhttp://dbpedia.org/property/asianPlace
p283
aVhttp://dbpedia.org/property/siteCityst
p284
aVhttp://dbpedia.org/ontology/place
p285
aVhttp://dbpedia.org/property/gdpPpp
p286
aVhttp://dbpedia.org/property/date
p287
aVhttp://dbpedia.org/property/country
p288
aVhttp://dbpedia.org/property/shipCountry
p289
asI7
(lp290
Vhttp://www.w3.org/1999/02/22-rdf-syntax-ns#type
p291
aVhttp://www.w3.org/2000/01/rdf-schema#comment
p292
aVhttp://dbpedia.org/property/venue
p293
aVhttp://dbpedia.org/ontology/abstract
p294
aVhttp://dbpedia.org/property/countriesAffected
p295
aVhttp://dbpedia.org/property/place
p296
aVhttp://dbpedia.org/property/location
p297
aVhttp://dbpedia.org/property/areaServed
p298
aVhttp://dbpedia.org/ontology/PopulatedPlace/areaTotal
p299
aVhttp://dbpedia.org/ontology/thumbnail
p300
aVhttp://dbpedia.org/property/gdpPpp
p301
aVhttp://dbpedia.org/property/country
p302
aVhttp://dbpedia.org/property/usedBy
p303
aVhttp://dbpedia.org/property/worldPlace
p304
aVhttp://dbpedia.org/property/establishedEvent
p305
aVhttp://dbpedia.org/ontology/regionServed
p306
assI3
(dp307
I0
(lp308
Vhttp://purl.org/voc/vrank#hasRank
p309
aVhttp://dbpedia.org/property/rd2t2Loc
p310
aVhttp://dbpedia.org/ontology/abstract
p311
aVhttp://dbpedia.org/property/location
p312
aVhttp://dbpedia.org/property/gdpPppPerCapita
p313
aVhttp://dbpedia.org/property/stadium
p314
aVhttp://dbpedia.org/property/gdpPpp
p315
aVhttp://www.w3.org/2002/07/owl#sameAs
p316
aVhttp://dbpedia.org/property/rd1t4Loc
p317
asI2
(lp318
Vhttp://www.w3.org/1999/02/22-rdf-syntax-ns#type
p319
aVhttp://purl.org/dc/terms/subject
p320
aVhttp://dbpedia.org/property/officialLanguages
p321
aVhttp://www.w3.org/2000/01/rdf-schema#comment
p322
aVhttp://dbpedia.org/ontology/abstract
p323
aVhttp://dbpedia.org/property/area
p324
aVhttp://dbpedia.org/property/establishedEvent
p325
aVhttp://dbpedia.org/ontology/officialLanguage
p326
aVhttp://dbpedia.org/ontology/language
p327
aVhttp://dbpedia.org/ontology/broadcastArea
p328
asI3
(lp329
sI4
(lp330
sI5
(lp331
sI6
(lp332
Vhttp://dbpedia.org/property/origin
p333
aVhttp://dbpedia.org/property/placeOfDeath
p334
aVhttp://dbpedia.org/property/rd2t6Loc
p335
aVhttp://dbpedia.org/ontology/countryWithFirstSatellite
p336
aVhttp://dbpedia.org/property/broadcastArea
p337
aVhttp://dbpedia.org/property/debuts
p338
aVhttp://dbpedia.org/ontology/PopulatedPlace/areaTotal
p339
aVhttp://dbpedia.org/property/footnoteB
p340
aVhttp://dbpedia.org/ontology/PopulatedPlace/populationDensity
p341
aVhttp://dbpedia.org/property/rd1t4Loc
p342
aVhttp://dbpedia.org/ontology/country
p343
aVhttp://dbpedia.org/property/returns
p344
aVhttp://www.w3.org/1999/02/22-rdf-syntax-ns#type
p345
aVhttp://dbpedia.org/property/referee
p346
aVhttp://dbpedia.org/property/rd1t2Loc
p347
aVhttp://dbpedia.org/property/withdraws
p348
aVhttp://dbpedia.org/property/birthPlace
p349
aVhttp://dbpedia.org/ontology/place
p350
aVhttp://dbpedia.org/property/placeOfBirth
p351
aVhttp://dbpedia.org/property/country
p352
aVhttp://dbpedia.org/property/co
p353
aVhttp://dbpedia.org/property/areaServed
p354
aVhttp://dbpedia.org/property/signatories
p355
aVhttp://dbpedia.org/ontology/wikiPageExternalLink
p356
aVhttp://dbpedia.org/property/rd3t1Loc
p357
aVhttp://dbpedia.org/ontology/abstract
p358
aVhttp://dbpedia.org/property/venue
p359
aVhttp://dbpedia.org/property/deathPlace
p360
aVhttp://dbpedia.org/property/location
p361
aVhttp://dbpedia.org/ontology/deathPlace
p362
aVhttp://dbpedia.org/property/rd1t6Loc
p363
aVhttp://dbpedia.org/property/basinCountries
p364
aVhttp://dbpedia.org/property/rd1t3Loc
p365
aVhttp://www.georss.org/georss/point
p366
aVhttp://dbpedia.org/property/rd2t1Loc
p367
aVhttp://dbpedia.org/property/countries
p368
aVhttp://dbpedia.org/ontology/birthPlace
p369
aVhttp://dbpedia.org/ontology/wikiPageRedirects
p370
aVhttp://purl.org/voc/vrank#hasRank
p371
aVhttp://dbpedia.org/property/rd2t8Loc
p372
aVhttp://dbpedia.org/property/stadium
p373
aVhttp://dbpedia.org/property/regionServed
p374
aVhttp://www.w3.org/2002/07/owl#sameAs
p375
asI7
(lp376
Vhttp://www.w3.org/ns/prov#wasDerivedFrom
p377
aVhttp://www.w3.org/1999/02/22-rdf-syntax-ns#type
p378
assI5
(dp379
I0
(lp380
Vhttp://dbpedia.org/property/origin
p381
aVhttp://dbpedia.org/property/ground
p382
aVhttp://dbpedia.org/property/place
p383
aVhttp://dbpedia.org/property/worldPlace
p384
aVhttp://dbpedia.org/ontology/country
p385
aVhttp://dbpedia.org/property/returns
p386
aVhttp://dbpedia.org/property/hostCity
p387
aVhttp://dbpedia.org/property/assembly
p388
aVhttp://dbpedia.org/ontology/ground
p389
aVhttp://dbpedia.org/property/withdraws
p390
aVhttp://dbpedia.org/property/birthPlace
p391
aVhttp://dbpedia.org/property/placeOfBirth
p392
aVhttp://dbpedia.org/property/asianPlaceF
p393
aVhttp://dbpedia.org/property/country
p394
aVhttp://dbpedia.org/property/asianPlaceQ
p395
aVhttp://dbpedia.org/property/rd2t2Loc
p396
aVhttp://dbpedia.org/property/venue
p397
aVhttp://dbpedia.org/property/location
p398
aVhttp://dbpedia.org/property/worldPlaceQ
p399
aVhttp://dbpedia.org/property/gdpPpp
p400
aVhttp://dbpedia.org/property/worldPlaceF
p401
aVhttp://dbpedia.org/property/debuts
p402
aVhttp://dbpedia.org/ontology/assembly
p403
aVhttp://dbpedia.org/ontology/location
p404
aVhttp://dbpedia.org/ontology/birthPlace
p405
aVhttp://dbpedia.org/ontology/hometown
p406
aVhttp://www.w3.org/2002/07/owl#sameAs
p407
aVhttp://dbpedia.org/property/asianPlace
p408
aVhttp://dbpedia.org/property/stadium
p409
asI2
(lp410
Vhttp://www.w3.org/2000/01/rdf-schema#seeAlso
p411
aVhttp://dbpedia.org/property/origin
p412
aVhttp://dbpedia.org/property/recorded
p413
aVhttp://dbpedia.org/property/broadcastArea
p414
aVhttp://dbpedia.org/ontology/origin
p415
aVhttp://dbpedia.org/property/conventionalLongName
p416
aVhttp://dbpedia.org/property/bases
p417
aVhttp://dbpedia.org/property/place
p418
aVhttp://dbpedia.org/ontology/foundationPlace
p419
aVhttp://dbpedia.org/property/city
p420
aVhttp://dbpedia.org/ontology/garrison
p421
aVhttp://dbpedia.org/ontology/longName
p422
aVhttp://dbpedia.org/property/legislature
p423
aVhttp://dbpedia.org/ontology/fastestDriverCountry
p424
aVhttp://dbpedia.org/property/footnoteB
p425
aVhttp://www.w3.org/2002/07/owl#differentFrom
p426
aVhttp://dbpedia.org/ontology/officialLanguage
p427
aVhttp://dbpedia.org/ontology/regionServed
p428
aVhttp://dbpedia.org/ontology/country
p429
aVhttp://www.w3.org/1999/02/22-rdf-syntax-ns#type
p430
aVhttp://dbpedia.org/ontology/demonym
p431
aVhttp://dbpedia.org/property/locationCountry
p432
aVhttp://dbpedia.org/ontology/secondDriverCountry
p433
aVhttp://dbpedia.org/property/allegiance
p434
aVhttp://dbpedia.org/property/combatant
p435
aVhttp://dbpedia.org/property/site
p436
aVhttp://dbpedia.org/property/birthPlace
p437
aVhttp://dbpedia.org/property/country/region
p438
aVhttp://dbpedia.org/ontology/place
p439
aVhttp://dbpedia.org/property/placeOfBirth
p440
aVhttp://dbpedia.org/property/regionServed
p441
aVhttp://dbpedia.org/property/country
p442
aVhttp://dbpedia.org/property/shipCountry
p443
aVhttp://dbpedia.org/property/establishedEvent
p444
aVhttp://dbpedia.org/ontology/targetAirport
p445
aVhttp://purl.org/dc/terms/subject
p446
aVhttp://dbpedia.org/ontology/populationPlace
p447
aVhttp://dbpedia.org/ontology/abstract
p448
aVhttp://dbpedia.org/ontology/recordedIn
p449
aVhttp://dbpedia.org/ontology/firstDriverCountry
p450
aVhttp://dbpedia.org/property/location
p451
aVhttp://dbpedia.org/ontology/usingCountry
p452
aVhttp://dbpedia.org/property/states
p453
aVhttp://dbpedia.org/ontology/locationCountry
p454
aVhttp://dbpedia.org/ontology/headquarter
p455
aVhttp://dbpedia.org/ontology/city
p456
aVhttp://dbpedia.org/property/shipNamesake
p457
aVhttp://dbpedia.org/ontology/language
p458
aVhttp://dbpedia.org/ontology/location
p459
aVhttp://dbpedia.org/property/basinCountries
p460
aVhttp://dbpedia.org/property/jurisdiction
p461
aVhttp://dbpedia.org/property/officialLanguages
p462
aVhttp://www.w3.org/2000/01/rdf-schema#comment
p463
aVhttp://dbpedia.org/ontology/birthPlace
p464
aVhttp://dbpedia.org/ontology/wikiPageRedirects
p465
aVhttp://dbpedia.org/ontology/poleDriverCountry
p466
aVhttp://dbpedia.org/property/area
p467
aVhttp://dbpedia.org/property/remit
p468
aVhttp://dbpedia.org/ontology/hometown
p469
aVhttp://dbpedia.org/ontology/jurisdiction
p470
aVhttp://dbpedia.org/property/demonym
p471
aVhttp://dbpedia.org/property/areaServed
p472
aVhttp://dbpedia.org/property/headquarters
p473
aVhttp://dbpedia.org/ontology/spokenIn
p474
aVhttp://dbpedia.org/property/garrison
p475
aVhttp://dbpedia.org/ontology/thirdDriverCountry
p476
aVhttp://dbpedia.org/property/stadium
p477
aVhttp://dbpedia.org/property/observedby
p478
asI3
(lp479
sI4
(lp480
sI5
(lp481
sI6
(lp482
Vhttp://dbpedia.org/property/origin
p483
aVhttp://dbpedia.org/property/placeOfDeath
p484
aVhttp://dbpedia.org/ontology/PopulatedPlace/areaTotal
p485
aVhttp://www.w3.org/ns/prov#wasDerivedFrom
p486
aVhttp://dbpedia.org/ontology/fastestDriverCountry
p487
aVhttp://dbpedia.org/property/rd1t7Loc
p488
aVhttp://dbpedia.org/property/rd3t4Loc
p489
aVhttp://dbpedia.org/property/assembly
p490
aVhttp://dbpedia.org/property/placeOfBirth
p491
aVhttp://dbpedia.org/property/establishedEvent
p492
aVhttp://dbpedia.org/property/primaryUser
p493
aVhttp://dbpedia.org/property/nationality
p494
aVhttp://dbpedia.org/ontology/abstract
p495
aVhttp://dbpedia.org/ontology/recordedIn
p496
aVhttp://dbpedia.org/property/venue
p497
aVhttp://dbpedia.org/property/gdpPpp
p498
aVhttp://dbpedia.org/property/usedBy
p499
aVhttp://dbpedia.org/property/nationalOrigin
p500
aVhttp://dbpedia.org/property/shipBuilder
p501
aVhttp://dbpedia.org/ontology/location
p502
aVhttp://dbpedia.org/property/city
p503
aVhttp://dbpedia.org/property/countriesAffected
p504
aVhttp://dbpedia.org/ontology/hometown
p505
aVhttp://dbpedia.org/property/rd4t1Loc
p506
aVhttp://dbpedia.org/ontology/countryWithFirstSatellite
p507
aVhttp://dbpedia.org/property/hostCity
p508
aVhttp://dbpedia.org/ontology/poleDriverCountry
p509
aVhttp://dbpedia.org/property/rd2t3Loc
p510
aVhttp://dbpedia.org/property/site
p511
aVhttp://dbpedia.org/ontology/country
p512
aVhttp://dbpedia.org/property/returns
p513
aVhttp://dbpedia.org/ontology/countryWithFirstSpaceflight
p514
aVhttp://dbpedia.org/property/rd2t5Loc
p515
aVhttp://dbpedia.org/property/home
p516
aVhttp://dbpedia.org/property/rd1t5Loc
p517
aVhttp://dbpedia.org/property/discoverySite
p518
aVhttp://dbpedia.org/property/birthPlace
p519
aVhttp://dbpedia.org/property/stateParty
p520
aVhttp://dbpedia.org/property/country
p521
aVhttp://dbpedia.org/ontology/firstDriverCountry
p522
aVhttp://dbpedia.org/property/deathPlace
p523
aVhttp://dbpedia.org/property/states
p524
aVhttp://dbpedia.org/ontology/builder
p525
aVhttp://dbpedia.org/ontology/deathPlace
p526
aVhttp://dbpedia.org/ontology/birthPlace
p527
aVhttp://dbpedia.org/ontology/wikiPageRedirects
p528
aVhttp://purl.org/voc/vrank#hasRank
p529
aVhttp://dbpedia.org/property/rd4t2Loc
p530
aVhttp://dbpedia.org/property/asianPlace
p531
aVhttp://www.w3.org/2002/07/owl#sameAs
p532
aVhttp://dbpedia.org/property/recorded
p533
aVhttp://dbpedia.org/ontology/origin
p534
aVhttp://dbpedia.org/property/populationDensityRank
p535
aVhttp://dbpedia.org/property/worldPlace
p536
aVhttp://dbpedia.org/property/residence
p537
aVhttp://www.w3.org/1999/02/22-rdf-syntax-ns#type
p538
aVhttp://dbpedia.org/property/rd3t3Loc
p539
aVhttp://dbpedia.org/ontology/secondDriverCountry
p540
aVhttp://dbpedia.org/ontology/ground
p541
aVhttp://dbpedia.org/property/withdraws
p542
aVhttp://dbpedia.org/property/namedAfter
p543
aVhttp://dbpedia.org/property/countries
p544
aVhttp://dbpedia.org/property/rd2t7Loc
p545
aVhttp://dbpedia.org/ontology/city
p546
aVhttp://dbpedia.org/property/rd1t3Loc
p547
aVhttp://dbpedia.org/property/rd5t1Loc
p548
aVhttp://dbpedia.org/property/stadium
p549
aVhttp://dbpedia.org/property/ground
p550
aVhttp://dbpedia.org/property/place
p551
aVhttp://dbpedia.org/property/debuts
p552
aVhttp://dbpedia.org/ontology/thirdDriverCountry
p553
aVhttp://dbpedia.org/ontology/PopulatedPlace/populationDensity
p554
aVhttp://dbpedia.org/property/asianPlaceQ
p555
aVhttp://dbpedia.org/ontology/place
p556
aVhttp://dbpedia.org/property/asianPlaceF
p557
aVhttp://purl.org/dc/terms/subject
p558
aVhttp://dbpedia.org/property/rd2t2Loc
p559
aVhttp://dbpedia.org/property/worldPlaceQ
p560
aVhttp://dbpedia.org/property/rd3t2Loc
p561
aVhttp://dbpedia.org/property/worldPlaceF
p562
aVhttp://dbpedia.org/ontology/language
p563
aVhttp://dbpedia.org/property/locale
p564
aVhttp://dbpedia.org/property/basinCountries
p565
aVhttp://dbpedia.org/ontology/assembly
p566
aVhttp://dbpedia.org/property/rd2t1Loc
p567
aVhttp://www.w3.org/2000/01/rdf-schema#comment
p568
aVhttp://dbpedia.org/property/location
p569
aVhttp://dbpedia.org/property/olympicPlace
p570
aVhttp://dbpedia.org/property/rd1t1Loc
p571
aVhttp://dbpedia.org/property/rd3t1Loc
p572
asI7
(lp573
Vhttp://dbpedia.org/property/placeOfDeath
p574
aVhttp://dbpedia.org/property/ground
p575
aVhttp://dbpedia.org/ontology/fastestDriverCountry
p576
aVhttp://dbpedia.org/ontology/thirdDriverCountry
p577
aVhttp://dbpedia.org/ontology/country
p578
aVhttp://dbpedia.org/property/home
p579
aVhttp://dbpedia.org/property/hostCity
p580
aVhttp://dbpedia.org/ontology/ground
p581
aVhttp://dbpedia.org/property/birthPlace
p582
aVhttp://dbpedia.org/property/placeOfBirth
p583
aVhttp://dbpedia.org/property/country
p584
aVhttp://dbpedia.org/ontology/abstract
p585
aVhttp://dbpedia.org/property/venue
p586
aVhttp://dbpedia.org/property/deathPlace
p587
aVhttp://dbpedia.org/property/location
p588
aVhttp://dbpedia.org/ontology/headquarter
p589
aVhttp://dbpedia.org/property/headquarters
p590
aVhttp://dbpedia.org/ontology/location
p591
aVhttp://www.w3.org/2000/01/rdf-schema#comment
p592
aVhttp://dbpedia.org/ontology/birthPlace
p593
aVhttp://dbpedia.org/property/countriesAffected
p594
aVhttp://dbpedia.org/property/rd1t1Loc
p595
aVhttp://dbpedia.org/property/stadium
p596
aVhttp://dbpedia.org/ontology/deathPlace
p597
assI6
(dp598
I0
(lp599
Vhttp://dbpedia.org/property/returns
p600
aVhttp://www.w3.org/1999/02/22-rdf-syntax-ns#type
p601
aVhttp://dbpedia.org/ontology/abstract
p602
aVhttp://dbpedia.org/property/location
p603
aVhttp://dbpedia.org/property/debuts
p604
aVhttp://dbpedia.org/property/rd0t1Loc
p605
aVhttp://dbpedia.org/property/thirdTeam
p606
aVhttp://www.w3.org/ns/prov#wasDerivedFrom
p607
aVhttp://dbpedia.org/property/country
p608
aVhttp://dbpedia.org/property/shipCountry
p609
asI2
(lp610
Vhttp://dbpedia.org/property/origin
p611
aVhttp://dbpedia.org/property/currency
p612
aVhttp://dbpedia.org/ontology/origin
p613
aVhttp://dbpedia.org/ontology/currency
p614
aVhttp://dbpedia.org/ontology/foundationPlace
p615
aVhttp://dbpedia.org/property/placeOfDeath
p616
aVhttp://dbpedia.org/property/caption
p617
aVhttp://dbpedia.org/property/imageMap2Caption
p618
aVhttp://dbpedia.org/ontology/demonym
p619
aVhttp://dbpedia.org/ontology/officialLanguage
p620
aVhttp://dbpedia.org/property/label
p621
aVhttp://dbpedia.org/ontology/country
p622
aVhttp://dbpedia.org/property/region
p623
aVhttp://www.w3.org/1999/02/22-rdf-syntax-ns#type
p624
aVhttp://dbpedia.org/property/locationCountry
p625
aVhttp://dbpedia.org/property/allegiance
p626
aVhttp://dbpedia.org/property/birthPlace
p627
aVhttp://dbpedia.org/property/headquarters
p628
aVhttp://dbpedia.org/property/placeOfBirth
p629
aVhttp://dbpedia.org/property/country
p630
aVhttp://dbpedia.org/property/imageMapCaption
p631
aVhttp://dbpedia.org/property/establishedEvent
p632
aVhttp://dbpedia.org/ontology/wikiPageExternalLink
p633
aVhttp://purl.org/dc/terms/subject
p634
aVhttp://dbpedia.org/ontology/abstract
p635
aVhttp://dbpedia.org/property/deathPlace
p636
aVhttp://dbpedia.org/ontology/usingCountry
p637
aVhttp://dbpedia.org/property/location
p638
aVhttp://dbpedia.org/ontology/locationCountry
p639
aVhttp://dbpedia.org/ontology/headquarter
p640
aVhttp://dbpedia.org/property/foundation
p641
aVhttp://dbpedia.org/property/shipNamesake
p642
aVhttp://dbpedia.org/ontology/language
p643
aVhttp://dbpedia.org/ontology/location
p644
aVhttp://dbpedia.org/property/officialLanguages
p645
aVhttp://www.w3.org/2000/01/rdf-schema#comment
p646
aVhttp://dbpedia.org/ontology/birthPlace
p647
aVhttp://dbpedia.org/ontology/wikiPageRedirects
p648
aVhttp://dbpedia.org/ontology/hometown
p649
aVhttp://dbpedia.org/ontology/spokenIn
p650
aVhttp://dbpedia.org/property/jurisdiction
p651
aVhttp://dbpedia.org/ontology/deathPlace
p652
asI3
(lp653
sI4
(lp654
sI5
(lp655
sI6
(lp656
Vhttp://dbpedia.org/ontology/country
p657
aVhttp://dbpedia.org/property/returns
p658
aVhttp://www.w3.org/1999/02/22-rdf-syntax-ns#type
p659
aVhttp://purl.org/dc/terms/subject
p660
aVhttp://dbpedia.org/property/hostCity
p661
aVhttp://dbpedia.org/property/home
p662
aVhttp://dbpedia.org/ontology/abstract
p663
aVhttp://dbpedia.org/property/rd1t8Loc
p664
aVhttp://dbpedia.org/property/place
p665
aVhttp://dbpedia.org/property/location
p666
aVhttp://dbpedia.org/property/withdraws
p667
aVhttp://dbpedia.org/property/venue
p668
aVhttp://dbpedia.org/property/birthplace
p669
aVhttp://dbpedia.org/property/rd3t2Loc
p670
aVhttp://dbpedia.org/property/rd2t4Loc
p671
aVhttp://dbpedia.org/property/locationCountry
p672
aVhttp://dbpedia.org/property/stadium
p673
asI7
(lp674
Vhttp://dbpedia.org/ontology/wikiPageExternalLink
p675
aVhttp://dbpedia.org/property/gdpPppPerCapita
p676
aVhttp://www.w3.org/1999/02/22-rdf-syntax-ns#type
p677
aVhttp://dbpedia.org/property/rd2t2Loc
p678
aVhttp://www.w3.org/2002/07/owl#sameAs
p679
assI7
(dp680
I0
(lp681
Vhttp://dbpedia.org/ontology/wikiPageExternalLink
p682
aVhttp://dbpedia.org/ontology/country
p683
aVhttp://dbpedia.org/property/returns
p684
aVhttp://www.w3.org/1999/02/22-rdf-syntax-ns#type
p685
aVhttp://dbpedia.org/property/origin
p686
aVhttp://dbpedia.org/property/hostCity
p687
aVhttp://dbpedia.org/property/venue
p688
aVhttp://dbpedia.org/ontology/abstract
p689
aVhttp://dbpedia.org/property/countriesAffected
p690
aVhttp://dbpedia.org/property/place
p691
aVhttp://dbpedia.org/property/location
p692
aVhttp://dbpedia.org/property/worldPlace
p693
aVhttp://dbpedia.org/property/hostcity
p694
aVhttp://dbpedia.org/ontology/place
p695
aVhttp://dbpedia.org/ontology/city
p696
aVhttp://dbpedia.org/property/populationEstimateYear
p697
aVhttp://dbpedia.org/property/stadium
p698
asI2
(lp699
Vhttp://www.w3.org/2000/01/rdf-schema#seeAlso
p700
aVhttp://dbpedia.org/property/currency
p701
aVhttp://dbpedia.org/ontology/currency
p702
aVhttp://dbpedia.org/property/place
p703
aVhttp://dbpedia.org/ontology/foundationPlace
p704
aVhttp://dbpedia.org/property/territorialExtent
p705
aVhttp://dbpedia.org/ontology/poleDriverCountry
p706
aVhttp://dbpedia.org/property/foundation
p707
aVhttp://dbpedia.org/ontology/thirdDriverCountry
p708
aVhttp://dbpedia.org/ontology/demonym
p709
aVhttp://dbpedia.org/ontology/officialLanguage
p710
aVhttp://dbpedia.org/ontology/regionServed
p711
aVhttp://dbpedia.org/ontology/country
p712
aVhttp://dbpedia.org/property/locationCountry
p713
aVhttp://dbpedia.org/ontology/secondDriverCountry
p714
aVhttp://dbpedia.org/property/allegiance
p715
aVhttp://dbpedia.org/property/site
p716
aVhttp://dbpedia.org/ontology/nationality
p717
aVhttp://dbpedia.org/property/birthPlace
p718
aVhttp://dbpedia.org/property/headquarters
p719
aVhttp://dbpedia.org/ontology/place
p720
aVhttp://dbpedia.org/property/nationalOrigin
p721
aVhttp://dbpedia.org/property/office
p722
aVhttp://dbpedia.org/property/country
p723
aVhttp://dbpedia.org/property/areaServed
p724
aVhttp://dbpedia.org/property/placeOfBirth
p725
aVhttp://purl.org/dc/terms/subject
p726
aVhttp://dbpedia.org/ontology/populationPlace
p727
aVhttp://dbpedia.org/property/origin
p728
aVhttp://dbpedia.org/ontology/abstract
p729
aVhttp://dbpedia.org/property/regionServed
p730
aVhttp://dbpedia.org/property/location
p731
aVhttp://dbpedia.org/property/states
p732
aVhttp://dbpedia.org/ontology/locationCountry
p733
aVhttp://dbpedia.org/ontology/headquarter
p734
aVhttp://dbpedia.org/ontology/city
p735
aVhttp://dbpedia.org/ontology/language
p736
aVhttp://dbpedia.org/ontology/location
p737
aVhttp://dbpedia.org/property/officialLanguages
p738
aVhttp://www.w3.org/2000/01/rdf-schema#comment
p739
aVhttp://dbpedia.org/ontology/birthPlace
p740
aVhttp://dbpedia.org/property/hostcity
p741
aVhttp://dbpedia.org/ontology/wikiPageRedirects
p742
aVhttp://dbpedia.org/ontology/hometown
p743
aVhttp://dbpedia.org/property/bankOf
p744
aVhttp://dbpedia.org/property/locationCity
p745
aVhttp://dbpedia.org/ontology/spokenIn
p746
aVhttp://dbpedia.org/property/jurisdiction
p747
aVhttp://dbpedia.org/ontology/locationCity
p748
aVhttp://dbpedia.org/ontology/deathPlace
p749
asI3
(lp750
sI4
(lp751
sI5
(lp752
sI6
(lp753
Vhttp://dbpedia.org/ontology/wikiPageExternalLink
p754
aVhttp://dbpedia.org/ontology/country
p755
aVhttp://dbpedia.org/property/returns
p756
aVhttp://www.w3.org/1999/02/22-rdf-syntax-ns#type
p757
aVhttp://dbpedia.org/property/headquarters
p758
aVhttp://dbpedia.org/property/origin
p759
aVhttp://dbpedia.org/property/broadcastArea
p760
aVhttp://dbpedia.org/property/venue
p761
aVhttp://dbpedia.org/property/hostCity
p762
aVhttp://dbpedia.org/property/place
p763
aVhttp://dbpedia.org/property/location
p764
aVhttp://dbpedia.org/property/olympicPlace
p765
aVhttp://dbpedia.org/property/worldPlace
p766
aVhttp://dbpedia.org/property/withdraws
p767
aVhttp://dbpedia.org/property/nationalOrigin
p768
aVhttp://dbpedia.org/property/gold
p769
aVhttp://dbpedia.org/property/country
p770
aVhttp://dbpedia.org/property/usedBy
p771
aVhttp://dbpedia.org/ontology/language
p772
aVhttp://dbpedia.org/property/rd1t4Loc
p773
asI7
(lp774
Vhttp://dbpedia.org/ontology/wikiPageExternalLink
p775
aVhttp://dbpedia.org/property/origin
p776
aVhttp://dbpedia.org/property/countries
p777
aVhttp://dbpedia.org/property/gdpNominalPerCapita
p778
aVhttp://dbpedia.org/ontology/hometown
p779
aVhttp://dbpedia.org/ontology/place
p780
assI8
(dp781
I0
(lp782
Vhttp://dbpedia.org/property/stadium
p783
aVhttp://www.w3.org/1999/02/22-rdf-syntax-ns#type
p784
aVhttp://dbpedia.org/ontology/location
p785
aVhttp://dbpedia.org/ontology/countryWithFirstSatellite
p786
aVhttp://dbpedia.org/ontology/birthPlace
p787
aVhttp://dbpedia.org/property/birthplace
p788
aVhttp://dbpedia.org/property/before
p789
aVhttp://dbpedia.org/property/location
p790
aVhttp://dbpedia.org/property/birthPlace
p791
aVhttp://dbpedia.org/property/placeOfBirth
p792
aVhttp://dbpedia.org/property/nationalOrigin
p793
asI2
(lp794
Vhttp://dbpedia.org/property/languages
p795
aVhttp://www.w3.org/1999/02/22-rdf-syntax-ns#type
p796
aVhttp://purl.org/dc/terms/subject
p797
aVhttp://dbpedia.org/ontology/populationPlace
p798
aVhttp://www.w3.org/2000/01/rdf-schema#comment
p799
aVhttp://dbpedia.org/ontology/abstract
p800
aVhttp://dbpedia.org/property/states
p801
aVhttp://dbpedia.org/property/birthPlace
p802
aVhttp://dbpedia.org/property/placeOfBirth
p803
aVhttp://dbpedia.org/ontology/spokenIn
p804
aVhttp://dbpedia.org/ontology/birthPlace
p805
aVhttp://dbpedia.org/ontology/language
p806
asI3
(lp807
sI4
(lp808
sI5
(lp809
sI6
(lp810
Vhttp://dbpedia.org/property/origin
p811
aVhttp://dbpedia.org/property/placeOfDeath
p812
aVhttp://dbpedia.org/property/stadium
p813
aVhttp://dbpedia.org/property/almaMater
p814
aVhttp://dbpedia.org/property/ground
p815
aVhttp://dbpedia.org/ontology/origin
p816
aVhttp://dbpedia.org/property/worldPlace
p817
aVhttp://dbpedia.org/ontology/PopulatedPlace/areaTotal
p818
aVhttp://www.w3.org/ns/prov#wasDerivedFrom
p819
aVhttp://dbpedia.org/property/countryOfProduction
p820
aVhttp://dbpedia.org/ontology/PopulatedPlace/populationDensity
p821
aVhttp://dbpedia.org/ontology/country
p822
aVhttp://dbpedia.org/property/region
p823
aVhttp://www.w3.org/1999/02/22-rdf-syntax-ns#type
p824
aVhttp://dbpedia.org/property/city
p825
aVhttp://dbpedia.org/property/rd2t3Loc
p826
aVhttp://dbpedia.org/property/locationCountry
p827
aVhttp://dbpedia.org/property/referee
p828
aVhttp://dbpedia.org/property/rd1t5Loc
p829
aVhttp://dbpedia.org/property/rd1t2Loc
p830
aVhttp://dbpedia.org/ontology/ground
p831
aVhttp://dbpedia.org/property/withdraws
p832
aVhttp://dbpedia.org/property/birthPlace
p833
aVhttp://dbpedia.org/property/placeOfBirth
p834
aVhttp://dbpedia.org/property/nationality
p835
aVhttp://dbpedia.org/property/country
p836
aVhttp://dbpedia.org/property/l
p837
aVhttp://dbpedia.org/property/establishedEvent
p838
aVhttp://dbpedia.org/property/gdpNominalPerCapita
p839
aVhttp://dbpedia.org/ontology/abstract
p840
aVhttp://dbpedia.org/property/venue
p841
aVhttp://dbpedia.org/property/deathPlace
p842
aVhttp://dbpedia.org/property/location
p843
aVhttp://dbpedia.org/property/fightingOutOf
p844
aVhttp://dbpedia.org/property/rd3t2Loc
p845
aVhttp://dbpedia.org/ontology/homeStadium
p846
aVhttp://dbpedia.org/property/rd2t4Loc
p847
aVhttp://dbpedia.org/property/gdpPpp
p848
aVhttp://dbpedia.org/property/usedBy
p849
aVhttp://dbpedia.org/property/debuts
p850
aVhttp://dbpedia.org/property/hostCity
p851
aVhttp://dbpedia.org/property/subdivisionName
p852
aVhttp://dbpedia.org/property/nationalOrigin
p853
aVhttp://dbpedia.org/property/headquarters
p854
aVhttp://dbpedia.org/property/locale
p855
aVhttp://www.georss.org/georss/point
p856
aVhttp://dbpedia.org/ontology/location
p857
aVhttp://dbpedia.org/property/patronage
p858
aVhttp://www.w3.org/2000/01/rdf-schema#comment
p859
aVhttp://dbpedia.org/property/populationEstimateYear
p860
aVhttp://dbpedia.org/property/countries
p861
aVhttp://purl.org/voc/vrank#hasRank
p862
aVhttp://dbpedia.org/property/citizenship
p863
aVhttp://dbpedia.org/ontology/headquarter
p864
aVhttp://dbpedia.org/property/asianPlace
p865
aVhttp://dbpedia.org/property/residence
p866
aVhttp://dbpedia.org/ontology/birthPlace
p867
aVhttp://www.w3.org/2002/07/owl#sameAs
p868
aVhttp://dbpedia.org/ontology/deathPlace
p869
asI7
(lp870
Vhttp://dbpedia.org/ontology/PopulatedPlace/areaTotal
p871
assI9
(dp872
I0
(lp873
Vhttp://dbpedia.org/ontology/wikiPageExternalLink
p874
aVhttp://dbpedia.org/ontology/country
p875
aVhttp://www.w3.org/1999/02/22-rdf-syntax-ns#type
p876
aVhttp://dbpedia.org/ontology/assembly
p877
aVhttp://dbpedia.org/ontology/location
p878
aVhttp://dbpedia.org/property/bronze
p879
aVhttp://dbpedia.org/property/asianPlaceQ
p880
aVhttp://dbpedia.org/property/venue
p881
aVhttp://dbpedia.org/ontology/abstract
p882
aVhttp://dbpedia.org/ontology/recordedIn
p883
aVhttp://dbpedia.org/property/assembly
p884
aVhttp://dbpedia.org/property/location
p885
aVhttp://dbpedia.org/property/olympicPlace
p886
aVhttp://dbpedia.org/property/worldPlace
p887
aVhttp://dbpedia.org/property/withdraws
p888
aVhttp://dbpedia.org/property/date
p889
aVhttp://dbpedia.org/property/usedBy
p890
aVhttp://dbpedia.org/property/asianPlace
p891
aVhttp://dbpedia.org/property/title
p892
asI2
(lp893
Vhttp://www.w3.org/2000/01/rdf-schema#seeAlso
p894
aVhttp://dbpedia.org/ontology/ideology
p895
aVhttp://dbpedia.org/ontology/origin
p896
aVhttp://dbpedia.org/property/place
p897
aVhttp://dbpedia.org/ontology/jurisdiction
p898
aVhttp://dbpedia.org/property/territory
p899
aVhttp://dbpedia.org/ontology/demonym
p900
aVhttp://dbpedia.org/ontology/officialLanguage
p901
aVhttp://dbpedia.org/property/religion
p902
aVhttp://dbpedia.org/property/reason
p903
aVhttp://dbpedia.org/property/region
p904
aVhttp://dbpedia.org/property/empire
p905
aVhttp://dbpedia.org/property/site
p906
aVhttp://dbpedia.org/property/birthPlace
p907
aVhttp://dbpedia.org/property/headquarters
p908
aVhttp://dbpedia.org/ontology/place
p909
aVhttp://dbpedia.org/property/placeOfBirth
p910
aVhttp://dbpedia.org/property/counties
p911
aVhttp://dbpedia.org/property/country
p912
aVhttp://dbpedia.org/property/establishedEvent
p913
aVhttp://dbpedia.org/ontology/county
p914
aVhttp://dbpedia.org/property/locale
p915
aVhttp://purl.org/dc/terms/subject
p916
aVhttp://dbpedia.org/ontology/populationPlace
p917
aVhttp://dbpedia.org/property/origin
p918
aVhttp://dbpedia.org/ontology/country
p919
aVhttp://dbpedia.org/property/ideology
p920
aVhttp://dbpedia.org/ontology/abstract
p921
aVhttp://dbpedia.org/property/location
p922
aVhttp://dbpedia.org/ontology/usingCountry
p923
aVhttp://dbpedia.org/property/states
p924
aVhttp://dbpedia.org/ontology/locationCountry
p925
aVhttp://dbpedia.org/ontology/headquarter
p926
aVhttp://dbpedia.org/ontology/similar
p927
aVhttp://dbpedia.org/ontology/language
p928
aVhttp://dbpedia.org/property/officialLanguages
p929
aVhttp://dbpedia.org/ontology/homeport
p930
aVhttp://dbpedia.org/property/jurisdiction
p931
aVhttp://dbpedia.org/ontology/location
p932
aVhttp://www.w3.org/2000/01/rdf-schema#comment
p933
aVhttp://dbpedia.org/ontology/birthPlace
p934
aVhttp://dbpedia.org/ontology/builder
p935
aVhttp://dbpedia.org/ontology/hometown
p936
aVhttp://dbpedia.org/ontology/garrison
p937
aVhttp://dbpedia.org/property/areaServed
p938
aVhttp://dbpedia.org/ontology/spokenIn
p939
aVhttp://dbpedia.org/property/garrison
p940
aVhttp://dbpedia.org/property/locationCountry
p941
aVhttp://dbpedia.org/property/observedby
p942
asI3
(lp943
sI4
(lp944
Vhttp://dbpedia.org/ontology/language
p945
asI5
(lp946
sI6
(lp947
Vhttp://www.w3.org/2000/01/rdf-schema#seeAlso
p948
aVhttp://dbpedia.org/property/origin
p949
aVhttp://dbpedia.org/property/rd2t6Loc
p950
aVhttp://dbpedia.org/property/shipRegistry
p951
aVhttp://dbpedia.org/property/hostCity
p952
aVhttp://dbpedia.org/property/2rpt2Loc
p953
aVhttp://dbpedia.org/property/place
p954
aVhttp://dbpedia.org/property/worldPlace
p955
aVhttp://dbpedia.org/property/rd2t3Loc
p956
aVhttp://dbpedia.org/property/site
p957
aVhttp://dbpedia.org/property/rd1t4Loc
p958
aVhttp://dbpedia.org/ontology/country
p959
aVhttp://dbpedia.org/property/returns
p960
aVhttp://www.w3.org/1999/02/22-rdf-syntax-ns#type
p961
aVhttp://dbpedia.org/property/rd1t5Loc
p962
aVhttp://dbpedia.org/property/rd1t2Loc
p963
aVhttp://dbpedia.org/property/withdraws
p964
aVhttp://dbpedia.org/property/birthPlace
p965
aVhttp://dbpedia.org/ontology/place
p966
aVhttp://dbpedia.org/property/placeOfBirth
p967
aVhttp://dbpedia.org/property/country
p968
aVhttp://dbpedia.org/property/shipCountry
p969
aVhttp://purl.org/dc/terms/subject
p970
aVhttp://dbpedia.org/property/rd2t1Loc
p971
aVhttp://dbpedia.org/property/rd2t2Loc
p972
aVhttp://dbpedia.org/ontology/abstract
p973
aVhttp://dbpedia.org/property/rd1t8Loc
p974
aVhttp://dbpedia.org/property/venue
p975
aVhttp://dbpedia.org/property/location
p976
aVhttp://dbpedia.org/ontology/builder
p977
aVhttp://dbpedia.org/property/rd3t2Loc
p978
aVhttp://dbpedia.org/ontology/headquarter
p979
aVhttp://dbpedia.org/property/rd2t4Loc
p980
aVhttp://dbpedia.org/property/rd2t7Loc
p981
aVhttp://dbpedia.org/ontology/city
p982
aVhttp://dbpedia.org/property/usedBy
p983
aVhttp://dbpedia.org/property/debuts
p984
aVhttp://dbpedia.org/ontology/language
p985
aVhttp://dbpedia.org/property/title
p986
aVhttp://dbpedia.org/ontology/homeport
p987
aVhttp://dbpedia.org/property/shipBuilder
p988
aVhttp://dbpedia.org/property/headquarters
p989
aVhttp://www.w3.org/2000/01/rdf-schema#comment
p990
aVhttp://dbpedia.org/ontology/birthPlace
p991
aVhttp://dbpedia.org/property/olympicPlace
p992
aVhttp://dbpedia.org/ontology/hometown
p993
aVhttp://dbpedia.org/property/rd3t1Loc
p994
aVhttp://dbpedia.org/property/shipHomeport
p995
aVhttp://dbpedia.org/property/stadium
p996
asI7
(lp997
Vhttp://dbpedia.org/property/origin
p998
aVhttp://dbpedia.org/property/placeOfDeath
p999
aVhttp://dbpedia.org/property/stadium
p1000
aVhttp://dbpedia.org/property/rd2t6Loc
p1001
aVhttp://dbpedia.org/property/ground
p1002
aVhttp://dbpedia.org/property/rd1t5Loc
p1003
aVhttp://dbpedia.org/property/rd2t7Loc
p1004
aVhttp://dbpedia.org/ontology/foundationPlace
p1005
aVhttp://dbpedia.org/ontology/PopulatedPlace/areaTotal
p1006
aVhttp://dbpedia.org/property/birthplace
p1007
aVhttp://dbpedia.org/property/hostcity
p1008
aVhttp://dbpedia.org/property/mouthCountry
p1009
aVhttp://dbpedia.org/property/foundation
p1010
aVhttp://www.w3.org/ns/prov#wasDerivedFrom
p1011
aVhttp://dbpedia.org/ontology/PopulatedPlace/populationDensity
p1012
aVhttp://dbpedia.org/property/rd1t4Loc
p1013
aVhttp://dbpedia.org/ontology/country
p1014
aVhttp://dbpedia.org/property/region
p1015
aVhttp://www.w3.org/1999/02/22-rdf-syntax-ns#type
p1016
aVhttp://purl.org/voc/vrank#hasRank
p1017
aVhttp://dbpedia.org/property/genre
p1018
aVhttp://dbpedia.org/property/twin5Country
p1019
aVhttp://dbpedia.org/property/assembly
p1020
aVhttp://dbpedia.org/property/rd1t2Loc
p1021
aVhttp://dbpedia.org/ontology/ground
p1022
aVhttp://dbpedia.org/property/venue
p1023
aVhttp://dbpedia.org/property/birthPlace
p1024
aVhttp://dbpedia.org/ontology/place
p1025
aVhttp://dbpedia.org/property/placeOfBirth
p1026
aVhttp://dbpedia.org/property/returns
p1027
aVhttp://dbpedia.org/property/country
p1028
aVhttp://dbpedia.org/property/shipCountry
p1029
aVhttp://dbpedia.org/property/gdpNominal
p1030
aVhttp://dbpedia.org/ontology/wikiPageExternalLink
p1031
aVhttp://dbpedia.org/ontology/genre
p1032
aVhttp://dbpedia.org/property/locale
p1033
aVhttp://dbpedia.org/property/rd2t2Loc
p1034
aVhttp://dbpedia.org/property/nationality
p1035
aVhttp://dbpedia.org/ontology/abstract
p1036
aVhttp://dbpedia.org/ontology/recordedIn
p1037
aVhttp://dbpedia.org/property/leaderName
p1038
aVhttp://dbpedia.org/property/deathPlace
p1039
aVhttp://dbpedia.org/property/location
p1040
aVhttp://dbpedia.org/property/setIn
p1041
aVhttp://dbpedia.org/ontology/builder
p1042
aVhttp://dbpedia.org/ontology/deathPlace
p1043
aVhttp://dbpedia.org/property/namedAfter
p1044
aVhttp://dbpedia.org/ontology/city
p1045
aVhttp://dbpedia.org/property/usedBy
p1046
aVhttp://dbpedia.org/property/worldPlace
p1047
aVhttp://dbpedia.org/property/subdivisionName
p1048
aVhttp://dbpedia.org/property/nationalOrigin
p1049
aVhttp://dbpedia.org/property/silver
p1050
aVhttp://dbpedia.org/ontology/homeport
p1051
aVhttp://dbpedia.org/property/basinCountries
p1052
aVhttp://dbpedia.org/property/rd1t3Loc
p1053
aVhttp://www.georss.org/georss/point
p1054
aVhttp://dbpedia.org/ontology/assembly
p1055
aVhttp://dbpedia.org/property/headquarters
p1056
aVhttp://dbpedia.org/property/worldPlaceF
p1057
aVhttp://www.w3.org/2000/01/rdf-schema#comment
p1058
aVhttp://dbpedia.org/ontology/birthPlace
p1059
aVhttp://dbpedia.org/property/countries
p1060
aVhttp://dbpedia.org/ontology/wikiPageRedirects
p1061
aVhttp://dbpedia.org/property/olympicPlace
p1062
aVhttp://dbpedia.org/property/withdraws
p1063
aVhttp://dbpedia.org/ontology/hometown
p1064
aVhttp://dbpedia.org/property/citizenship
p1065
aVhttp://dbpedia.org/property/shipHomeport
p1066
aVhttp://dbpedia.org/property/regionServed
p1067
aVhttp://dbpedia.org/property/debuts
p1068
aVhttp://dbpedia.org/property/usedby
p1069
aVhttp://dbpedia.org/property/asianPlace
p1070
aVhttp://dbpedia.org/property/residence
p1071
aVhttp://dbpedia.org/property/locationCountry
p1072
aVhttp://www.w3.org/2002/07/owl#sameAs
p1073
assI10
(dp1074
I0
(lp1075
Vhttp://dbpedia.org/ontology/wikiPageExternalLink
p1076
aVhttp://www.w3.org/2000/01/rdf-schema#seeAlso
p1077
aVhttp://dbpedia.org/ontology/location
p1078
aVhttp://dbpedia.org/ontology/country
p1079
aVhttp://dbpedia.org/property/venue
p1080
aVhttp://dbpedia.org/ontology/abstract
p1081
aVhttp://www.w3.org/2000/01/rdf-schema#comment
p1082
aVhttp://dbpedia.org/property/leaderName
p1083
aVhttp://dbpedia.org/property/location
p1084
aVhttp://dbpedia.org/property/debuts
p1085
aVhttp://dbpedia.org/property/withdraws
p1086
aVhttp://dbpedia.org/property/locale
p1087
aVhttp://dbpedia.org/property/image
p1088
aVhttp://dbpedia.org/property/stadium
p1089
aVhttp://dbpedia.org/property/country
p1090
aVhttp://dbpedia.org/ontology/person
p1091
aVhttp://dbpedia.org/property/hostCity
p1092
aVhttp://dbpedia.org/ontology/language
p1093
asI2
(lp1094
Vhttp://www.w3.org/2000/01/rdf-schema#seeAlso
p1095
aVhttp://dbpedia.org/property/origin
p1096
aVhttp://dbpedia.org/property/awardedBy
p1097
aVhttp://dbpedia.org/property/place
p1098
aVhttp://dbpedia.org/property/northwest
p1099
aVhttp://dbpedia.org/property/placeOfDeath
p1100
aVhttp://dbpedia.org/ontology/regionServed
p1101
aVhttp://dbpedia.org/ontology/country
p1102
aVhttp://dbpedia.org/property/region
p1103
aVhttp://dbpedia.org/property/locationCountry
p1104
aVhttp://dbpedia.org/property/allegiance
p1105
aVhttp://dbpedia.org/property/combatant
p1106
aVhttp://dbpedia.org/ontology/place
p1107
aVhttp://dbpedia.org/property/placeOfBirth
p1108
aVhttp://dbpedia.org/property/office
p1109
aVhttp://dbpedia.org/property/owner
p1110
aVhttp://dbpedia.org/property/country
p1111
aVhttp://dbpedia.org/property/areaServed
p1112
aVhttp://dbpedia.org/ontology/abstract
p1113
aVhttp://dbpedia.org/property/regionServed
p1114
aVhttp://dbpedia.org/property/location
p1115
aVhttp://dbpedia.org/ontology/usingCountry
p1116
aVhttp://dbpedia.org/property/states
p1117
aVhttp://dbpedia.org/ontology/locationCountry
p1118
aVhttp://dbpedia.org/ontology/deathPlace
p1119
aVhttp://dbpedia.org/property/observedby
p1120
aVhttp://dbpedia.org/property/foundation
p1121
aVhttp://dbpedia.org/ontology/foundationPlace
p1122
aVhttp://dbpedia.org/property/headquarters
p1123
aVhttp://dbpedia.org/property/basinCountries
p1124
aVhttp://dbpedia.org/ontology/location
p1125
aVhttp://www.w3.org/2000/01/rdf-schema#comment
p1126
aVhttp://dbpedia.org/ontology/birthPlace
p1127
aVhttp://dbpedia.org/ontology/wikiPageRedirects
p1128
aVhttp://dbpedia.org/ontology/hometown
p1129
aVhttp://dbpedia.org/ontology/spokenIn
p1130
aVhttp://dbpedia.org/ontology/headquarter
p1131
asI3
(lp1132
sI4
(lp1133
sI5
(lp1134
sI6
(lp1135
Vhttp://dbpedia.org/ontology/wikiPageExternalLink
p1136
aVhttp://www.w3.org/1999/02/22-rdf-syntax-ns#type
p1137
aVhttp://dbpedia.org/ontology/abstract
p1138
aVhttp://dbpedia.org/property/place
p1139
aVhttp://dbpedia.org/ontology/wikiPageRedirects
p1140
aVhttp://dbpedia.org/ontology/place
p1141
aVhttp://dbpedia.org/property/stadium
p1142
aVhttp://www.w3.org/2002/07/owl#sameAs
p1143
asI7
(lp1144
Vhttp://dbpedia.org/ontology/country
p1145
aVhttp://dbpedia.org/property/returns
p1146
aVhttp://www.w3.org/2000/01/rdf-schema#comment
p1147
aVhttp://dbpedia.org/property/home
p1148
aVhttp://dbpedia.org/ontology/abstract
p1149
aVhttp://dbpedia.org/property/hostCity
p1150
aVhttp://dbpedia.org/property/location
p1151
aVhttp://dbpedia.org/property/olympicPlace
p1152
aVhttp://www.w3.org/2002/07/owl#sameAs
p1153
aVhttp://dbpedia.org/property/country
p1154
aVhttp://dbpedia.org/property/usedBy
p1155
aVhttp://dbpedia.org/ontology/language
p1156
assI11
(dp1157
I0
(lp1158
Vhttp://dbpedia.org/property/origin
p1159
aVhttp://dbpedia.org/property/placeOfDeath
p1160
aVhttp://dbpedia.org/property/hostCity
p1161
aVhttp://dbpedia.org/ontology/origin
p1162
aVhttp://dbpedia.org/property/worldPlace
p1163
aVhttp://dbpedia.org/ontology/garrison
p1164
aVhttp://dbpedia.org/property/site
p1165
aVhttp://dbpedia.org/ontology/country
p1166
aVhttp://www.w3.org/1999/02/22-rdf-syntax-ns#type
p1167
aVhttp://dbpedia.org/property/home
p1168
aVhttp://dbpedia.org/property/assembly
p1169
aVhttp://dbpedia.org/ontology/ground
p1170
aVhttp://dbpedia.org/property/birthPlace
p1171
aVhttp://dbpedia.org/property/nationalOrigin
p1172
aVhttp://dbpedia.org/property/country
p1173
aVhttp://dbpedia.org/property/rallybase
p1174
aVhttp://dbpedia.org/property/gdpNominal
p1175
aVhttp://dbpedia.org/ontology/abstract
p1176
aVhttp://dbpedia.org/property/rd1t8Loc
p1177
aVhttp://dbpedia.org/property/venue
p1178
aVhttp://dbpedia.org/property/deathPlace
p1179
aVhttp://dbpedia.org/property/location
p1180
aVhttp://dbpedia.org/ontology/builder
p1181
aVhttp://dbpedia.org/ontology/deathPlace
p1182
aVhttp://dbpedia.org/property/stopover
p1183
aVhttp://dbpedia.org/property/gdpPpp
p1184
aVhttp://dbpedia.org/property/debuts
p1185
aVhttp://dbpedia.org/ontology/language
p1186
aVhttp://dbpedia.org/ontology/assembly
p1187
aVhttp://dbpedia.org/ontology/location
p1188
aVhttp://www.w3.org/2000/01/rdf-schema#comment
p1189
aVhttp://dbpedia.org/ontology/birthPlace
p1190
aVhttp://dbpedia.org/property/placeOfBirth
p1191
aVhttp://dbpedia.org/property/silver
p1192
aVhttp://dbpedia.org/property/stadium
p1193
aVhttp://dbpedia.org/ontology/homeStadium
p1194
asI2
(lp1195
Vhttp://dbpedia.org/property/origin
p1196
aVhttp://dbpedia.org/property/placeOfDeath
p1197
aVhttp://dbpedia.org/property/broadcastArea
p1198
aVhttp://dbpedia.org/property/sovereigntyType
p1199
aVhttp://www.w3.org/ns/prov#wasDerivedFrom
p1200
aVhttp://dbpedia.org/ontology/fastestDriverCountry
p1201
aVhttp://dbpedia.org/ontology/demonym
p1202
aVhttp://dbpedia.org/ontology/regionServed
p1203
aVhttp://dbpedia.org/ontology/nationality
p1204
aVhttp://xmlns.com/foaf/0.1/isPrimaryTopicOf
p1205
aVhttp://dbpedia.org/property/byCountry
p1206
aVhttp://dbpedia.org/property/nat
p1207
aVhttp://dbpedia.org/property/nationality
p1208
aVhttp://dbpedia.org/ontology/abstract
p1209
aVhttp://dbpedia.org/ontology/recordedIn
p1210
aVhttp://dbpedia.org/ontology/architecturalStyle
p1211
aVhttp://dbpedia.org/ontology/location
p1212
aVhttp://dbpedia.org/property/imageMap
p1213
aVhttp://dbpedia.org/property/officialLanguages
p1214
aVhttp://dbpedia.org/property/area
p1215
aVhttp://dbpedia.org/ontology/hometown
p1216
aVhttp://dbpedia.org/ontology/spokenIn
p1217
aVhttp://dbpedia.org/property/leaderTitle
p1218
aVhttp://www.w3.org/2000/01/rdf-schema#seeAlso
p1219
aVhttp://dbpedia.org/ontology/wikiPageExternalLink
p1220
aVhttp://dbpedia.org/property/hostCity
p1221
aVhttp://dbpedia.org/property/conventionalLongName
p1222
aVhttp://dbpedia.org/ontology/foundationPlace
p1223
aVhttp://dbpedia.org/ontology/poleDriverCountry
p1224
aVhttp://dbpedia.org/ontology/locatedInArea
p1225
aVhttp://dbpedia.org/ontology/officialLanguage
p1226
aVhttp://dbpedia.org/ontology/country
p1227
aVhttp://dbpedia.org/property/birthPlace
p1228
aVhttp://dbpedia.org/property/country/region
p1229
aVhttp://dbpedia.org/property/country
p1230
aVhttp://dbpedia.org/ontology/county
p1231
aVhttp://xmlns.com/foaf/0.1/primaryTopic
p1232
aVhttp://dbpedia.org/ontology/campus
p1233
aVhttp://dbpedia.org/ontology/firstDriverCountry
p1234
aVhttp://dbpedia.org/property/states
p1235
aVhttp://dbpedia.org/ontology/locationCountry
p1236
aVhttp://dbpedia.org/ontology/deathPlace
p1237
aVhttp://dbpedia.org/property/hasPhotoCollection
p1238
aVhttp://dbpedia.org/property/headquarters
p1239
aVhttp://dbpedia.org/ontology/birthPlace
p1240
aVhttp://dbpedia.org/ontology/wikiPageRedirects
p1241
aVhttp://dbpedia.org/property/citizenship
p1242
aVhttp://dbpedia.org/property/imageCoat
p1243
aVhttp://dbpedia.org/ontology/stateOfOrigin
p1244
aVhttp://www.w3.org/2002/07/owl#sameAs
p1245
aVhttp://dbpedia.org/property/recorded
p1246
aVhttp://dbpedia.org/property/winnerOrigin
p1247
aVhttp://dbpedia.org/ontology/longName
p1248
aVhttp://www.w3.org/1999/02/22-rdf-syntax-ns#type
p1249
aVhttp://dbpedia.org/property/locationCountry
p1250
aVhttp://dbpedia.org/ontology/secondDriverCountry
p1251
aVhttp://dbpedia.org/property/locationSigned
p1252
aVhttp://dbpedia.org/property/namedAfter
p1253
aVhttp://dbpedia.org/property/title
p1254
aVhttp://dbpedia.org/property/placeOfBirth
p1255
aVhttp://xmlns.com/foaf/0.1/depiction
p1256
aVhttp://dbpedia.org/property/observedby
p1257
aVhttp://dbpedia.org/ontology/flag
p1258
aVhttp://dbpedia.org/property/commonName
p1259
aVhttp://dbpedia.org/property/subdivisionName
p1260
aVhttp://dbpedia.org/property/shipCountry
p1261
aVhttp://dbpedia.org/property/locationCity
p1262
aVhttp://dbpedia.org/property/establishedEvent
p1263
aVhttp://dbpedia.org/property/stadium
p1264
aVhttp://dbpedia.org/property/place
p1265
aVhttp://dbpedia.org/property/footnoteA
p1266
aVhttp://dbpedia.org/property/caption
p1267
aVhttp://dbpedia.org/ontology/thirdDriverCountry
p1268
aVhttp://www.w3.org/2002/07/owl#differentFrom
p1269
aVhttp://dbpedia.org/property/upperHouse
p1270
aVhttp://dbpedia.org/property/locations
p1271
aVhttp://dbpedia.org/ontology/place
p1272
aVhttp://dbpedia.org/property/language
p1273
aVhttp://dbpedia.org/property/demonym
p1274
aVhttp://dbpedia.org/ontology/wikiPageDisambiguates
p1275
aVhttp://purl.org/dc/terms/subject
p1276
aVhttp://dbpedia.org/ontology/populationPlace
p1277
aVhttp://dbpedia.org/property/location
p1278
aVhttp://dbpedia.org/property/armiger
p1279
aVhttp://dbpedia.org/ontology/headquarter
p1280
aVhttp://dbpedia.org/property/foundation
p1281
aVhttp://www.w3.org/2000/01/rdf-schema#label
p1282
aVhttp://dbpedia.org/ontology/language
p1283
aVhttp://dbpedia.org/ontology/broadcastArea
p1284
aVhttp://dbpedia.org/property/basinCountries
p1285
aVhttp://www.w3.org/2000/01/rdf-schema#comment
p1286
aVhttp://dbpedia.org/property/seat
p1287
aVhttp://dbpedia.org/property/imageFlag
p1288
aVhttp://dbpedia.org/property/regionServed
p1289
aVhttp://xmlns.com/foaf/0.1/name
p1290
aVhttp://dbpedia.org/ontology/locationCity
p1291
aVhttp://dbpedia.org/property/buried
p1292
aVhttp://dbpedia.org/ontology/thumbnail
p1293
asI3
(lp1294
sI4
(lp1295
Vhttp://dbpedia.org/ontology/country
p1296
aVhttp://dbpedia.org/property/location
p1297
aVhttp://dbpedia.org/ontology/location
p1298
aVhttp://dbpedia.org/property/country
p1299
asI5
(lp1300
Vhttp://dbpedia.org/ontology/country
p1301
aVhttp://dbpedia.org/ontology/location
p1302
aVhttp://dbpedia.org/property/location
p1303
aVhttp://dbpedia.org/ontology/locationCountry
p1304
aVhttp://dbpedia.org/property/country
p1305
aVhttp://dbpedia.org/property/areaServed
p1306
aVhttp://dbpedia.org/ontology/regionServed
p1307
asI6
(lp1308
Vhttp://dbpedia.org/property/origin
p1309
aVhttp://dbpedia.org/property/placeOfDeath
p1310
aVhttp://dbpedia.org/ontology/PopulatedPlace/areaTotal
p1311
aVhttp://dbpedia.org/ontology/garrison
p1312
aVhttp://dbpedia.org/ontology/fastestDriverCountry
p1313
aVhttp://dbpedia.org/property/rd1t7Loc
p1314
aVhttp://dbpedia.org/property/firstRun
p1315
aVhttp://dbpedia.org/property/assembly
p1316
aVhttp://dbpedia.org/property/shortDescription
p1317
aVhttp://dbpedia.org/property/placeOfBirth
p1318
aVhttp://dbpedia.org/property/rallybase
p1319
aVhttp://dbpedia.org/ontology/abstract
p1320
aVhttp://dbpedia.org/ontology/recordedIn
p1321
aVhttp://dbpedia.org/property/venue
p1322
aVhttp://dbpedia.org/property/returns
p1323
aVhttp://dbpedia.org/property/gdpPpp
p1324
aVhttp://dbpedia.org/property/usedBy
p1325
aVhttp://dbpedia.org/property/nationalOrigin
p1326
aVhttp://www.georss.org/georss/point
p1327
aVhttp://dbpedia.org/property/shipBuilder
p1328
aVhttp://dbpedia.org/ontology/location
p1329
aVhttp://dbpedia.org/property/city
p1330
aVhttp://dbpedia.org/property/countries
p1331
aVhttp://dbpedia.org/property/area
p1332
aVhttp://dbpedia.org/ontology/hometown
p1333
aVhttp://dbpedia.org/property/silver
p1334
aVhttp://dbpedia.org/property/leaderTitle
p1335
aVhttp://www.w3.org/2000/01/rdf-schema#seeAlso
p1336
aVhttp://dbpedia.org/property/hostCity
p1337
aVhttp://dbpedia.org/property/birthplace
p1338
aVhttp://dbpedia.org/ontology/poleDriverCountry
p1339
aVhttp://dbpedia.org/property/rd2t3Loc
p1340
aVhttp://dbpedia.org/property/placeOfBurial
p1341
aVhttp://dbpedia.org/property/site
p1342
aVhttp://dbpedia.org/ontology/country
p1343
aVhttp://dbpedia.org/property/region
p1344
aVhttp://dbpedia.org/property/home
p1345
aVhttp://dbpedia.org/property/rd1t5Loc
p1346
aVhttp://dbpedia.org/property/discoverySite
p1347
aVhttp://dbpedia.org/property/birthPlace
p1348
aVhttp://dbpedia.org/property/country
p1349
aVhttp://dbpedia.org/ontology/assembly
p1350
aVhttp://dbpedia.org/property/areasAffected
p1351
aVhttp://dbpedia.org/ontology/wikiPageExternalLink
p1352
aVhttp://dbpedia.org/ontology/firstDriverCountry
p1353
aVhttp://dbpedia.org/property/location
p1354
aVhttp://dbpedia.org/ontology/builder
p1355
aVhttp://dbpedia.org/ontology/deathPlace
p1356
aVhttp://dbpedia.org/property/rd2t4Loc
p1357
aVhttp://dbpedia.org/property/headquarters
p1358
aVhttp://dbpedia.org/ontology/birthPlace
p1359
aVhttp://dbpedia.org/ontology/locationCountry
p1360
aVhttp://purl.org/voc/vrank#hasRank
p1361
aVhttp://dbpedia.org/property/rd4t2Loc
p1362
aVhttp://dbpedia.org/property/host
p1363
aVhttp://dbpedia.org/property/garrison
p1364
aVhttp://www.w3.org/2002/07/owl#sameAs
p1365
aVhttp://dbpedia.org/ontology/homeStadium
p1366
aVhttp://dbpedia.org/property/referee
p1367
aVhttp://dbpedia.org/property/recorded
p1368
aVhttp://dbpedia.org/ontology/origin
p1369
aVhttp://dbpedia.org/property/worldPlace
p1370
aVhttp://dbpedia.org/property/winnerOrigin
p1371
aVhttp://www.w3.org/1999/02/22-rdf-syntax-ns#type
p1372
aVhttp://dbpedia.org/property/rd3t3Loc
p1373
aVhttp://dbpedia.org/property/locationCountry
p1374
aVhttp://dbpedia.org/ontology/secondDriverCountry
p1375
aVhttp://dbpedia.org/ontology/ground
p1376
aVhttp://dbpedia.org/property/withdraws
p1377
aVhttp://dbpedia.org/property/c
p1378
aVhttp://dbpedia.org/property/locationSigned
p1379
aVhttp://dbpedia.org/property/namedAfter
p1380
aVhttp://dbpedia.org/property/shipCountry
p1381
aVhttp://dbpedia.org/property/l
p1382
aVhttp://dbpedia.org/property/gdpNominal
p1383
aVhttp://dbpedia.org/property/gdpNominalPerCapita
p1384
aVhttp://dbpedia.org/property/rd1t8Loc
p1385
aVhttp://dbpedia.org/property/endowment
p1386
aVhttp://dbpedia.org/property/worldPlaceQ
p1387
aVhttp://dbpedia.org/ontology/city
p1388
aVhttp://dbpedia.org/property/fullname
p1389
aVhttp://dbpedia.org/property/rd1t3Loc
p1390
aVhttp://dbpedia.org/property/locationCity
p1391
aVhttp://dbpedia.org/property/rd5t1Loc
p1392
aVhttp://dbpedia.org/property/stadium
p1393
aVhttp://dbpedia.org/property/place
p1394
aVhttp://dbpedia.org/property/debuts
p1395
aVhttp://dbpedia.org/property/utcOffsetDst
p1396
aVhttp://dbpedia.org/property/footnoteB
p1397
aVhttp://dbpedia.org/ontology/PopulatedPlace/populationDensity
p1398
aVhttp://dbpedia.org/property/team
p1399
aVhttp://dbpedia.org/property/asianPlaceQ
p1400
aVhttp://dbpedia.org/ontology/thirdDriverCountry
p1401
aVhttp://dbpedia.org/property/locations
p1402
aVhttp://dbpedia.org/property/image
p1403
aVhttp://dbpedia.org/ontology/place
p1404
aVhttp://dbpedia.org/property/asianPlaceF
p1405
aVhttp://purl.org/dc/terms/subject
p1406
aVhttp://dbpedia.org/property/manufacturer
p1407
aVhttp://dbpedia.org/property/deathPlace
p1408
aVhttp://dbpedia.org/property/cityServed
p1409
aVhttp://dbpedia.org/property/rd3t2Loc
p1410
aVhttp://dbpedia.org/ontology/headquarter
p1411
aVhttp://dbpedia.org/property/stopover
p1412
aVhttp://dbpedia.org/property/worldPlaceF
p1413
aVhttp://dbpedia.org/ontology/language
p1414
aVhttp://dbpedia.org/property/shipRegistry
p1415
aVhttp://dbpedia.org/property/locale
p1416
aVhttp://dbpedia.org/property/asianPlace
p1417
aVhttp://dbpedia.org/property/moreUsers
p1418
aVhttp://dbpedia.org/property/rd2t1Loc
p1419
aVhttp://www.w3.org/2000/01/rdf-schema#comment
p1420
aVhttp://dbpedia.org/property/olympicPlace
p1421
aVhttp://dbpedia.org/property/seat
p1422
aVhttp://dbpedia.org/property/rd1t1Loc
p1423
aVhttp://dbpedia.org/property/rd3t1Loc
p1424
aVhttp://dbpedia.org/property/regionServed
p1425
aVhttp://dbpedia.org/property/data
p1426
asI7
(lp1427
Vhttp://dbpedia.org/property/assembly
p1428
aVhttp://dbpedia.org/ontology/assembly
p1429
aVhttp://dbpedia.org/property/stopover
p1430
assI12
(dp1431
I0
(lp1432
Vhttp://www.w3.org/2000/01/rdf-schema#seeAlso
p1433
aVhttp://dbpedia.org/property/origin
p1434
aVhttp://dbpedia.org/property/hostCity
p1435
aVhttp://dbpedia.org/property/place
p1436
aVhttp://dbpedia.org/property/worldPlace
p1437
aVhttp://dbpedia.org/ontology/country
p1438
aVhttp://www.w3.org/1999/02/22-rdf-syntax-ns#type
p1439
aVhttp://dbpedia.org/property/locationCountry
p1440
aVhttp://dbpedia.org/property/assembly
p1441
aVhttp://dbpedia.org/ontology/nationality
p1442
aVhttp://dbpedia.org/property/country
p1443
aVhttp://dbpedia.org/property/shipCountry
p1444
aVhttp://dbpedia.org/ontology/abstract
p1445
aVhttp://dbpedia.org/ontology/recordedIn
p1446
aVhttp://dbpedia.org/property/location
p1447
aVhttp://dbpedia.org/ontology/city
p1448
aVhttp://dbpedia.org/property/usedBy
p1449
aVhttp://dbpedia.org/property/nationalOrigin
p1450
aVhttp://dbpedia.org/property/asianPlace
p1451
aVhttp://dbpedia.org/ontology/assembly
p1452
aVhttp://dbpedia.org/ontology/location
p1453
aVhttp://www.w3.org/2000/01/rdf-schema#comment
p1454
aVhttp://dbpedia.org/ontology/releaseLocation
p1455
aVhttp://dbpedia.org/ontology/hometown
p1456
aVhttp://dbpedia.org/ontology/premierePlace
p1457
aVhttp://dbpedia.org/property/stadium
p1458
asI2
(lp1459
Vhttp://dbpedia.org/property/origin
p1460
aVhttp://dbpedia.org/property/recorded
p1461
aVhttp://dbpedia.org/ontology/origin
p1462
aVhttp://dbpedia.org/ontology/regionServed
p1463
aVhttp://dbpedia.org/ontology/country
p1464
aVhttp://www.w3.org/1999/02/22-rdf-syntax-ns#type
p1465
aVhttp://dbpedia.org/property/locationCountry
p1466
aVhttp://dbpedia.org/ontology/nationality
p1467
aVhttp://dbpedia.org/property/birthPlace
p1468
aVhttp://dbpedia.org/property/nationalOrigin
p1469
aVhttp://dbpedia.org/property/regionServed
p1470
aVhttp://dbpedia.org/property/country
p1471
aVhttp://dbpedia.org/property/placeOfBirth
p1472
aVhttp://purl.org/dc/terms/subject
p1473
aVhttp://dbpedia.org/property/nationality
p1474
aVhttp://dbpedia.org/ontology/abstract
p1475
aVhttp://dbpedia.org/ontology/recordedIn
p1476
aVhttp://dbpedia.org/property/location
p1477
aVhttp://dbpedia.org/ontology/locationCountry
p1478
aVhttp://dbpedia.org/ontology/deathPlace
p1479
aVhttp://dbpedia.org/ontology/language
p1480
aVhttp://dbpedia.org/property/headquarters
p1481
aVhttp://dbpedia.org/property/languages
p1482
aVhttp://dbpedia.org/ontology/location
p1483
aVhttp://dbpedia.org/ontology/birthPlace
p1484
aVhttp://dbpedia.org/ontology/hometown
p1485
aVhttp://dbpedia.org/ontology/spokenIn
p1486
aVhttp://dbpedia.org/ontology/stateOfOrigin
p1487
aVhttp://dbpedia.org/property/data
p1488
aVhttp://dbpedia.org/ontology/headquarter
p1489
asI3
(lp1490
sI4
(lp1491
sI5
(lp1492
sI6
(lp1493
Vhttp://dbpedia.org/property/origin
p1494
aVhttp://dbpedia.org/property/placeOfDeath
p1495
aVhttp://dbpedia.org/property/awardedBy
p1496
aVhttp://dbpedia.org/property/broadcastArea
p1497
aVhttp://dbpedia.org/property/allegiance
p1498
aVhttp://dbpedia.org/ontology/PopulatedPlace/areaTotal
p1499
aVhttp://www.w3.org/ns/prov#wasDerivedFrom
p1500
aVhttp://dbpedia.org/property/utcOffset
p1501
aVhttp://dbpedia.org/ontology/regionServed
p1502
aVhttp://dbpedia.org/property/assembly
p1503
aVhttp://dbpedia.org/ontology/nationality
p1504
aVhttp://dbpedia.org/property/placeOfBirth
p1505
aVhttp://dbpedia.org/property/byCountry
p1506
aVhttp://dbpedia.org/property/establishedEvent
p1507
aVhttp://dbpedia.org/property/nationality
p1508
aVhttp://dbpedia.org/ontology/abstract
p1509
aVhttp://dbpedia.org/ontology/recordedIn
p1510
aVhttp://dbpedia.org/property/venue
p1511
aVhttp://dbpedia.org/property/gdpPpp
p1512
aVhttp://dbpedia.org/property/usedBy
p1513
aVhttp://dbpedia.org/property/nationalOrigin
p1514
aVhttp://dbpedia.org/property/shipRoute
p1515
aVhttp://dbpedia.org/property/shipBuilder
p1516
aVhttp://dbpedia.org/ontology/location
p1517
aVhttp://dbpedia.org/property/city
p1518
aVhttp://dbpedia.org/property/countries
p1519
aVhttp://dbpedia.org/property/area
p1520
aVhttp://dbpedia.org/ontology/hometown
p1521
aVhttp://dbpedia.org/property/builders
p1522
aVhttp://www.w3.org/2000/01/rdf-schema#seeAlso
p1523
aVhttp://dbpedia.org/property/hostCity
p1524
aVhttp://dbpedia.org/ontology/fastestDriverCountry
p1525
aVhttp://dbpedia.org/ontology/country
p1526
aVhttp://dbpedia.org/property/destinations
p1527
aVhttp://dbpedia.org/ontology/locationCountry
p1528
aVhttp://dbpedia.org/property/birthPlace
p1529
aVhttp://dbpedia.org/property/country
p1530
aVhttp://dbpedia.org/property/giniRank
p1531
aVhttp://dbpedia.org/property/areaServed
p1532
aVhttp://dbpedia.org/property/areasAffected
p1533
aVhttp://dbpedia.org/ontology/wikiPageExternalLink
p1534
aVhttp://dbpedia.org/ontology/firstDriverCountry
p1535
aVhttp://dbpedia.org/property/location
p1536
aVhttp://dbpedia.org/ontology/builder
p1537
aVhttp://dbpedia.org/ontology/deathPlace
p1538
aVhttp://dbpedia.org/property/hasPhotoCollection
p1539
aVhttp://dbpedia.org/property/headquarters
p1540
aVhttp://dbpedia.org/ontology/birthPlace
p1541
aVhttp://dbpedia.org/ontology/wikiPageRedirects
p1542
aVhttp://purl.org/voc/vrank#hasRank
p1543
aVhttp://dbpedia.org/property/distribution
p1544
aVhttp://dbpedia.org/property/citizenship
p1545
aVhttp://dbpedia.org/ontology/stateOfOrigin
p1546
aVhttp://www.w3.org/2002/07/owl#sameAs
p1547
aVhttp://dbpedia.org/property/recorded
p1548
aVhttp://dbpedia.org/ontology/origin
p1549
aVhttp://dbpedia.org/property/worldPlace
p1550
aVhttp://dbpedia.org/property/residence
p1551
aVhttp://www.w3.org/1999/02/22-rdf-syntax-ns#type
p1552
aVhttp://dbpedia.org/property/locationCountry
p1553
aVhttp://dbpedia.org/ontology/secondDriverCountry
p1554
aVhttp://dbpedia.org/property/withdraws
p1555
aVhttp://dbpedia.org/property/locationSigned
p1556
aVhttp://dbpedia.org/property/shipCountry
p1557
aVhttp://dbpedia.org/property/gdpPppPerCapita
p1558
aVhttp://dbpedia.org/ontology/thumbnail
p1559
aVhttp://dbpedia.org/ontology/city
p1560
aVhttp://dbpedia.org/property/languages
p1561
aVhttp://www.w3.org/2000/01/rdf-schema#comment
p1562
aVhttp://dbpedia.org/ontology/assembly
p1563
aVhttp://dbpedia.org/property/parliament
p1564
aVhttp://dbpedia.org/property/locationCity
p1565
aVhttp://dbpedia.org/ontology/broadcastArea
p1566
aVhttp://dbpedia.org/property/operators
p1567
aVhttp://dbpedia.org/property/stadium
p1568
aVhttp://dbpedia.org/property/significantBuildings
p1569
aVhttp://dbpedia.org/property/place
p1570
aVhttp://dbpedia.org/property/territorialExtent
p1571
aVhttp://dbpedia.org/ontology/thirdDriverCountry
p1572
aVhttp://dbpedia.org/ontology/PopulatedPlace/populationDensity
p1573
aVhttp://dbpedia.org/property/locations
p1574
aVhttp://dbpedia.org/property/countryOfProduction
p1575
aVhttp://dbpedia.org/property/after
p1576
aVhttp://dbpedia.org/property/gamesPlace
p1577
aVhttp://dbpedia.org/property/deathPlace
p1578
aVhttp://dbpedia.org/property/foundation
p1579
aVhttp://dbpedia.org/property/shipRegistry
p1580
aVhttp://dbpedia.org/property/locale
p1581
aVhttp://dbpedia.org/property/asianPlace
p1582
aVhttp://dbpedia.org/property/moreUsers
p1583
aVhttp://dbpedia.org/property/opponents
p1584
aVhttp://dbpedia.org/ontology/releaseLocation
p1585
aVhttp://dbpedia.org/property/olympicPlace
p1586
aVhttp://dbpedia.org/ontology/premierePlace
p1587
asI7
(lp1588
Vhttp://dbpedia.org/property/origin
p1589
aVhttp://dbpedia.org/ontology/country
p1590
aVhttp://dbpedia.org/property/shipCountry
p1591
assI13
(dp1592
I0
(lp1593
Vhttp://dbpedia.org/ontology/country
p1594
aVhttp://dbpedia.org/property/stadium
p1595
aVhttp://www.w3.org/2000/01/rdf-schema#comment
p1596
aVhttp://dbpedia.org/property/venue
p1597
aVhttp://dbpedia.org/ontology/abstract
p1598
aVhttp://dbpedia.org/property/birthPlace
p1599
aVhttp://dbpedia.org/property/deathPlace
p1600
aVhttp://dbpedia.org/property/rallybase
p1601
aVhttp://dbpedia.org/property/location
p1602
aVhttp://dbpedia.org/property/site
p1603
aVhttp://dbpedia.org/property/image
p1604
aVhttp://dbpedia.org/ontology/restingPlace
p1605
aVhttp://dbpedia.org/ontology/deathPlace
p1606
aVhttp://dbpedia.org/property/returns
p1607
aVhttp://dbpedia.org/property/country
p1608
aVhttp://dbpedia.org/property/host
p1609
aVhttp://dbpedia.org/property/debuts
p1610
aVhttp://dbpedia.org/property/placeOfBurial
p1611
aVhttp://dbpedia.org/ontology/birthPlace
p1612
aVhttp://www.w3.org/2002/07/owl#sameAs
p1613
asI2
(lp1614
Vhttp://www.w3.org/2000/01/rdf-schema#seeAlso
p1615
aVhttp://dbpedia.org/property/origin
p1616
aVhttp://dbpedia.org/ontology/origin
p1617
aVhttp://dbpedia.org/property/conventionalLongName
p1618
aVhttp://dbpedia.org/ontology/garrison
p1619
aVhttp://dbpedia.org/ontology/longName
p1620
aVhttp://dbpedia.org/property/footnoteA
p1621
aVhttp://dbpedia.org/ontology/demonym
p1622
aVhttp://dbpedia.org/ontology/officialLanguage
p1623
aVhttp://dbpedia.org/ontology/country
p1624
aVhttp://dbpedia.org/property/region
p1625
aVhttp://www.w3.org/1999/02/22-rdf-syntax-ns#type
p1626
aVhttp://dbpedia.org/property/birthPlace
p1627
aVhttp://dbpedia.org/property/headquarters
p1628
aVhttp://dbpedia.org/ontology/place
p1629
aVhttp://dbpedia.org/ontology/ethnicGroup
p1630
aVhttp://dbpedia.org/property/country
p1631
aVhttp://dbpedia.org/property/shipCountry
p1632
aVhttp://dbpedia.org/property/establishedEvent
p1633
aVhttp://dbpedia.org/property/placeOfBirth
p1634
aVhttp://dbpedia.org/ontology/wikiPageExternalLink
p1635
aVhttp://purl.org/dc/terms/subject
p1636
aVhttp://dbpedia.org/ontology/abstract
p1637
aVhttp://dbpedia.org/property/regionServed
p1638
aVhttp://dbpedia.org/property/location
p1639
aVhttp://dbpedia.org/ontology/usingCountry
p1640
aVhttp://dbpedia.org/property/states
p1641
aVhttp://dbpedia.org/ontology/headquarter
p1642
aVhttp://dbpedia.org/property/builder
p1643
aVhttp://dbpedia.org/ontology/language
p1644
aVhttp://dbpedia.org/ontology/location
p1645
aVhttp://dbpedia.org/property/jurisdiction
p1646
aVhttp://dbpedia.org/property/officialLanguages
p1647
aVhttp://www.w3.org/2000/01/rdf-schema#comment
p1648
aVhttp://dbpedia.org/ontology/birthPlace
p1649
aVhttp://dbpedia.org/ontology/wikiPageRedirects
p1650
aVhttp://dbpedia.org/ontology/hometown
p1651
aVhttp://dbpedia.org/property/demonym
p1652
aVhttp://dbpedia.org/ontology/spokenIn
p1653
aVhttp://dbpedia.org/property/garrison
p1654
asI3
(lp1655
sI4
(lp1656
sI5
(lp1657
sI6
(lp1658
Vhttp://dbpedia.org/property/placeOfDeath
p1659
aVhttp://dbpedia.org/property/broadcastArea
p1660
aVhttp://dbpedia.org/property/place
p1661
aVhttp://dbpedia.org/property/city
p1662
aVhttp://dbpedia.org/property/rd2t3Loc
p1663
aVhttp://dbpedia.org/ontology/PopulatedPlace/populationDensity
p1664
aVhttp://dbpedia.org/property/rd1t4Loc
p1665
aVhttp://dbpedia.org/ontology/country
p1666
aVhttp://dbpedia.org/property/region
p1667
aVhttp://www.w3.org/1999/02/22-rdf-syntax-ns#type
p1668
aVhttp://dbpedia.org/property/locationCountry
p1669
aVhttp://dbpedia.org/property/ground
p1670
aVhttp://dbpedia.org/property/allegiance
p1671
aVhttp://dbpedia.org/property/site
p1672
aVhttp://dbpedia.org/property/withdraws
p1673
aVhttp://dbpedia.org/property/rd2t2Loc
p1674
aVhttp://dbpedia.org/property/birthPlace
p1675
aVhttp://dbpedia.org/ontology/place
p1676
aVhttp://dbpedia.org/property/placeOfBirth
p1677
aVhttp://dbpedia.org/property/returns
p1678
aVhttp://dbpedia.org/property/owner
p1679
aVhttp://dbpedia.org/property/country
p1680
aVhttp://dbpedia.org/property/shipCountry
p1681
aVhttp://dbpedia.org/ontology/wikiPageExternalLink
p1682
aVhttp://dbpedia.org/property/throne
p1683
aVhttp://dbpedia.org/property/nationality
p1684
aVhttp://dbpedia.org/ontology/abstract
p1685
aVhttp://dbpedia.org/property/deathPlace
p1686
aVhttp://dbpedia.org/property/location
p1687
aVhttp://dbpedia.org/property/gdpPppPerCapita
p1688
aVhttp://dbpedia.org/ontology/deathPlace
p1689
aVhttp://dbpedia.org/ontology/city
p1690
aVhttp://dbpedia.org/property/usedBy
p1691
aVhttp://dbpedia.org/property/subdivisionName
p1692
aVhttp://www.georss.org/georss/point
p1693
aVhttp://dbpedia.org/ontology/assembly
p1694
aVhttp://www.w3.org/2000/01/rdf-schema#comment
p1695
aVhttp://dbpedia.org/ontology/birthPlace
p1696
aVhttp://dbpedia.org/ontology/wikiPageRedirects
p1697
aVhttp://dbpedia.org/property/area
p1698
aVhttp://purl.org/voc/vrank#hasRank
p1699
aVhttp://dbpedia.org/property/rd3t1Loc
p1700
aVhttp://dbpedia.org/property/hqLocationCountry
p1701
aVhttp://dbpedia.org/property/stadium
p1702
aVhttp://dbpedia.org/property/constituency
p1703
aVhttp://www.w3.org/2002/07/owl#sameAs
p1704
asI7
(lp1705
Vhttp://dbpedia.org/property/gdpPppPerCapita
p1706
aVhttp://www.w3.org/1999/02/22-rdf-syntax-ns#type
p1707
aVhttp://dbpedia.org/ontology/place
p1708
assI14
(dp1709
I0
(lp1710
Vhttp://dbpedia.org/ontology/location
p1711
aVhttp://www.w3.org/2000/01/rdf-schema#comment
p1712
aVhttp://dbpedia.org/ontology/birthPlace
p1713
aVhttp://dbpedia.org/ontology/abstract
p1714
aVhttp://dbpedia.org/property/referee
p1715
aVhttp://dbpedia.org/property/place
p1716
aVhttp://dbpedia.org/property/combatant
p1717
aVhttp://dbpedia.org/ontology/ground
p1718
aVhttp://dbpedia.org/property/venue
p1719
aVhttp://dbpedia.org/ontology/PopulatedPlace/areaTotal
p1720
aVhttp://dbpedia.org/property/birthPlace
p1721
aVhttp://dbpedia.org/property/location
p1722
aVhttp://dbpedia.org/ontology/place
p1723
aVhttp://dbpedia.org/ontology/homeStadium
p1724
aVhttp://dbpedia.org/property/l
p1725
aVhttp://dbpedia.org/property/home
p1726
aVhttp://dbpedia.org/property/populationDensityKm
p1727
aVhttp://dbpedia.org/property/worldPlace
p1728
aVhttp://dbpedia.org/ontology/PopulatedPlace/populationDensity
p1729
aVhttp://dbpedia.org/property/stadium
p1730
aVhttp://dbpedia.org/property/placeOfBirth
p1731
asI2
(lp1732
Vhttp://www.w3.org/2000/01/rdf-schema#seeAlso
p1733
aVhttp://dbpedia.org/property/origin
p1734
aVhttp://dbpedia.org/ontology/origin
p1735
aVhttp://dbpedia.org/property/place
p1736
aVhttp://dbpedia.org/property/usedBy
p1737
aVhttp://dbpedia.org/property/adminCenter
p1738
aVhttp://dbpedia.org/property/footnoteC
p1739
aVhttp://www.w3.org/2002/07/owl#differentFrom
p1740
aVhttp://dbpedia.org/property/footnoteD
p1741
aVhttp://dbpedia.org/ontology/country
p1742
aVhttp://dbpedia.org/property/region
p1743
aVhttp://www.w3.org/1999/02/22-rdf-syntax-ns#type
p1744
aVhttp://dbpedia.org/ontology/demonym
p1745
aVhttp://dbpedia.org/ontology/officialLanguage
p1746
aVhttp://dbpedia.org/ontology/nationality
p1747
aVhttp://dbpedia.org/property/birthPlace
p1748
aVhttp://dbpedia.org/property/country/region
p1749
aVhttp://dbpedia.org/ontology/place
p1750
aVhttp://dbpedia.org/ontology/ethnicGroup
p1751
aVhttp://dbpedia.org/property/locationSigned
p1752
aVhttp://dbpedia.org/property/depositor
p1753
aVhttp://dbpedia.org/property/country
p1754
aVhttp://dbpedia.org/property/regionalLanguages
p1755
aVhttp://purl.org/dc/terms/subject
p1756
aVhttp://dbpedia.org/ontology/populationPlace
p1757
aVhttp://dbpedia.org/property/ideology
p1758
aVhttp://dbpedia.org/ontology/abstract
p1759
aVhttp://dbpedia.org/ontology/recordedIn
p1760
aVhttp://dbpedia.org/property/venue
p1761
aVhttp://dbpedia.org/property/location
p1762
aVhttp://dbpedia.org/property/states
p1763
aVhttp://dbpedia.org/ontology/headquarter
p1764
aVhttp://dbpedia.org/property/officialLanguages
p1765
aVhttp://dbpedia.org/ontology/language
p1766
aVhttp://dbpedia.org/ontology/location
p1767
aVhttp://dbpedia.org/ontology/regionalLanguage
p1768
aVhttp://www.w3.org/2000/01/rdf-schema#comment
p1769
aVhttp://dbpedia.org/ontology/birthPlace
p1770
aVhttp://dbpedia.org/ontology/wikiPageRedirects
p1771
aVhttp://dbpedia.org/ontology/hometown
p1772
aVhttp://dbpedia.org/property/demonym
p1773
aVhttp://dbpedia.org/property/headquarters
p1774
aVhttp://dbpedia.org/ontology/spokenIn
p1775
aVhttp://dbpedia.org/ontology/stateOfOrigin
p1776
aVhttp://dbpedia.org/property/stadium
p1777
asI3
(lp1778
sI4
(lp1779
Vhttp://www.w3.org/2000/01/rdf-schema#seeAlso
p1780
aVhttp://dbpedia.org/property/recorded
p1781
aVhttp://dbpedia.org/property/shipRegistry
p1782
aVhttp://dbpedia.org/property/stateParty
p1783
aVhttp://dbpedia.org/property/city
p1784
aVhttp://dbpedia.org/property/capital
p1785
aVhttp://dbpedia.org/ontology/country
p1786
aVhttp://dbpedia.org/property/region
p1787
aVhttp://dbpedia.org/property/footnoteB
p1788
aVhttp://dbpedia.org/ontology/capital
p1789
aVhttp://dbpedia.org/property/locationCountry
p1790
aVhttp://dbpedia.org/ontology/ground
p1791
aVhttp://dbpedia.org/property/locationSigned
p1792
aVhttp://dbpedia.org/property/country
p1793
aVhttp://dbpedia.org/property/shipCountry
p1794
aVhttp://dbpedia.org/ontology/abstract
p1795
aVhttp://dbpedia.org/ontology/recordedIn
p1796
aVhttp://dbpedia.org/property/location
p1797
aVhttp://dbpedia.org/property/cityServed
p1798
aVhttp://dbpedia.org/property/territory
p1799
aVhttp://dbpedia.org/ontology/city
p1800
aVhttp://dbpedia.org/property/subdivisionName
p1801
aVhttp://dbpedia.org/ontology/language
p1802
aVhttp://dbpedia.org/ontology/location
p1803
aVhttp://dbpedia.org/property/locale
p1804
aVhttp://dbpedia.org/property/headquarters
p1805
aVhttp://www.w3.org/2000/01/rdf-schema#comment
p1806
asI5
(lp1807
sI6
(lp1808
Vhttp://dbpedia.org/property/origin
p1809
aVhttp://dbpedia.org/property/placeOfDeath
p1810
aVhttp://dbpedia.org/property/rd2t6Loc
p1811
aVhttp://dbpedia.org/property/broadcastArea
p1812
aVhttp://dbpedia.org/property/place
p1813
aVhttp://dbpedia.org/ontology/routeStart
p1814
aVhttp://dbpedia.org/ontology/PopulatedPlace/areaTotal
p1815
aVhttp://dbpedia.org/property/usedBy
p1816
aVhttp://dbpedia.org/property/populationDensityKm
p1817
aVhttp://dbpedia.org/ontology/PopulatedPlace/populationDensity
p1818
aVhttp://dbpedia.org/ontology/country
p1819
aVhttp://dbpedia.org/property/returns
p1820
aVhttp://www.w3.org/1999/02/22-rdf-syntax-ns#type
p1821
aVhttp://dbpedia.org/property/rd2t5Loc
p1822
aVhttp://dbpedia.org/property/home
p1823
aVhttp://dbpedia.org/property/referee
p1824
aVhttp://dbpedia.org/property/combatant
p1825
aVhttp://dbpedia.org/ontology/ground
p1826
aVhttp://dbpedia.org/property/withdraws
p1827
aVhttp://dbpedia.org/property/championSite
p1828
aVhttp://dbpedia.org/property/birthPlace
p1829
aVhttp://dbpedia.org/ontology/place
p1830
aVhttp://dbpedia.org/property/placeOfBirth
p1831
aVhttp://dbpedia.org/property/nationality
p1832
aVhttp://dbpedia.org/property/country
p1833
aVhttp://dbpedia.org/property/shipCountry
p1834
aVhttp://dbpedia.org/property/l
p1835
aVhttp://dbpedia.org/property/signatories
p1836
aVhttp://dbpedia.org/ontology/wikiPageExternalLink
p1837
aVhttp://dbpedia.org/property/foundedDate
p1838
aVhttp://dbpedia.org/property/gdpNominalPerCapita
p1839
aVhttp://dbpedia.org/ontology/abstract
p1840
aVhttp://dbpedia.org/property/rd1t8Loc
p1841
aVhttp://dbpedia.org/property/venue
p1842
aVhttp://dbpedia.org/property/deathPlace
p1843
aVhttp://dbpedia.org/property/location
p1844
aVhttp://dbpedia.org/property/fightingOutOf
p1845
aVhttp://dbpedia.org/property/gdpPppPerCapita
p1846
aVhttp://dbpedia.org/ontology/locationCountry
p1847
aVhttp://dbpedia.org/property/rd3t2Loc
p1848
aVhttp://dbpedia.org/ontology/homeStadium
p1849
aVhttp://dbpedia.org/property/rd2t4Loc
p1850
aVhttp://dbpedia.org/property/hasPhotoCollection
p1851
aVhttp://dbpedia.org/property/twin3Country
p1852
aVhttp://dbpedia.org/property/nationalOrigin
p1853
aVhttp://dbpedia.org/property/headquarters
p1854
aVhttp://dbpedia.org/property/rd4t1Loc
p1855
aVhttp://dbpedia.org/property/rd1t3Loc
p1856
aVhttp://www.georss.org/georss/point
p1857
aVhttp://dbpedia.org/property/shipBuilder
p1858
aVhttp://dbpedia.org/ontology/location
p1859
aVhttp://www.w3.org/2000/01/rdf-schema#comment
p1860
aVhttp://dbpedia.org/ontology/birthPlace
p1861
aVhttp://dbpedia.org/property/countries
p1862
aVhttp://dbpedia.org/property/worldPlace
p1863
aVhttp://dbpedia.org/ontology/builder
p1864
aVhttp://dbpedia.org/property/area
p1865
aVhttp://dbpedia.org/ontology/hometown
p1866
aVhttp://dbpedia.org/property/callingCode
p1867
aVhttp://dbpedia.org/property/stadium
p1868
aVhttp://www.w3.org/ns/prov#wasDerivedFrom
p1869
aVhttp://dbpedia.org/property/debuts
p1870
aVhttp://dbpedia.org/property/areasAffected
p1871
aVhttp://dbpedia.org/property/residence
p1872
aVhttp://www.w3.org/2002/07/owl#sameAs
p1873
aVhttp://dbpedia.org/ontology/deathPlace
p1874
asI7
(lp1875
Vhttp://dbpedia.org/property/worldPlace
p1876
aVhttp://dbpedia.org/ontology/PopulatedPlace/areaTotal
p1877
aVhttp://dbpedia.org/property/maleIndividualChampionTeam
p1878
aVhttp://dbpedia.org/property/rd2t3Loc
p1879
aVhttp://dbpedia.org/property/returns
p1880
aVhttp://www.w3.org/1999/02/22-rdf-syntax-ns#type
p1881
aVhttp://dbpedia.org/property/home
p1882
aVhttp://dbpedia.org/property/referee
p1883
aVhttp://dbpedia.org/property/rd1t5Loc
p1884
aVhttp://dbpedia.org/property/withdraws
p1885
aVhttp://dbpedia.org/property/birthPlace
p1886
aVhttp://dbpedia.org/property/placeOfBirth
p1887
aVhttp://dbpedia.org/property/femaleIndividualChampionTeam
p1888
aVhttp://dbpedia.org/property/depositor
p1889
aVhttp://dbpedia.org/property/country
p1890
aVhttp://dbpedia.org/property/shipCountry
p1891
aVhttp://dbpedia.org/property/rd1t8Loc
p1892
aVhttp://dbpedia.org/ontology/abstract
p1893
aVhttp://dbpedia.org/property/locationSigned
p1894
aVhttp://dbpedia.org/property/venue
p1895
aVhttp://dbpedia.org/property/location
p1896
aVhttp://dbpedia.org/ontology/builder
p1897
aVhttp://dbpedia.org/property/rd2t4Loc
p1898
aVhttp://dbpedia.org/property/rd1t6Loc
p1899
aVhttp://dbpedia.org/property/debuts
p1900
aVhttp://dbpedia.org/property/locale
p1901
aVhttp://dbpedia.org/property/rd1t3Loc
p1902
aVhttp://dbpedia.org/ontology/birthPlace
p1903
aVhttp://dbpedia.org/property/rd2t8Loc
p1904
aVhttp://www.w3.org/2002/07/owl#sameAs
p1905
aVhttp://dbpedia.org/property/rd3t4Loc
p1906
aVhttp://dbpedia.org/property/stadium
p1907
assI15
(dp1908
I0
(lp1909
Vhttp://dbpedia.org/ontology/abstract
p1910
aVhttp://www.w3.org/2000/01/rdf-schema#comment
p1911
asI2
(lp1912
Vhttp://dbpedia.org/ontology/abstract
p1913
aVhttp://purl.org/dc/terms/subject
p1914
aVhttp://www.w3.org/2000/01/rdf-schema#comment
p1915
asI3
(lp1916
sI4
(lp1917
sI5
(lp1918
sI6
(lp1919
Vhttp://dbpedia.org/property/studio
p1920
aVhttp://dbpedia.org/property/adslChan
p1921
asI7
(lp1922
Vhttp://purl.org/voc/vrank#hasRank
p1923
assI16
(dp1924
I0
(lp1925
Vhttp://www.w3.org/2000/01/rdf-schema#seeAlso
p1926
aVhttp://dbpedia.org/property/placeOfDeath
p1927
aVhttp://www.w3.org/2000/01/rdf-schema#comment
p1928
aVhttp://dbpedia.org/ontology/abstract
p1929
aVhttp://dbpedia.org/property/restingPlace
p1930
aVhttp://dbpedia.org/property/place
p1931
aVhttp://dbpedia.org/property/deathPlace
p1932
aVhttp://dbpedia.org/property/birthPlace
p1933
aVhttp://dbpedia.org/ontology/restingPlace
p1934
aVhttp://dbpedia.org/ontology/place
p1935
aVhttp://dbpedia.org/ontology/deathPlace
p1936
aVhttp://dbpedia.org/ontology/birthPlace
p1937
aVhttp://www.w3.org/2002/07/owl#sameAs
p1938
aVhttp://dbpedia.org/property/placeOfBirth
p1939
asI2
(lp1940
Vhttp://dbpedia.org/property/nationality
p1941
aVhttp://dbpedia.org/ontology/abstract
p1942
aVhttp://dbpedia.org/ontology/nationality
p1943
aVhttp://dbpedia.org/property/birthPlace
p1944
aVhttp://dbpedia.org/property/placeOfBirth
p1945
aVhttp://dbpedia.org/ontology/spokenIn
p1946
aVhttp://dbpedia.org/ontology/stateOfOrigin
p1947
aVhttp://dbpedia.org/ontology/birthPlace
p1948
asI3
(lp1949
sI4
(lp1950
sI5
(lp1951
sI6
(lp1952
Vhttp://www.w3.org/2000/01/rdf-schema#seeAlso
p1953
aVhttp://dbpedia.org/property/origin
p1954
aVhttp://dbpedia.org/property/commands
p1955
aVhttp://dbpedia.org/property/recorded
p1956
aVhttp://dbpedia.org/property/imageCaption
p1957
aVhttp://dbpedia.org/property/place
p1958
aVhttp://dbpedia.org/property/debuts
p1959
aVhttp://dbpedia.org/property/territorialExtent
p1960
aVhttp://dbpedia.org/ontology/PopulatedPlace/areaTotal
p1961
aVhttp://dbpedia.org/property/rd0t2Loc
p1962
aVhttp://dbpedia.org/property/rd0t1Loc
p1963
aVhttp://dbpedia.org/property/ethnicity
p1964
aVhttp://dbpedia.org/property/rd1t6Loc
p1965
aVhttp://dbpedia.org/property/rd2t6Loc
p1966
aVhttp://dbpedia.org/property/lastStopover
p1967
aVhttp://dbpedia.org/property/rd2t3Loc
p1968
aVhttp://dbpedia.org/property/placeofburial
p1969
aVhttp://dbpedia.org/property/rd1t7Loc
p1970
aVhttp://dbpedia.org/property/rd1t4Loc
p1971
aVhttp://dbpedia.org/ontology/country
p1972
aVhttp://dbpedia.org/property/region
p1973
aVhttp://www.w3.org/1999/02/22-rdf-syntax-ns#type
p1974
aVhttp://dbpedia.org/property/utcOffset1Dst
p1975
aVhttp://dbpedia.org/property/2rpt1Loc
p1976
aVhttp://dbpedia.org/property/home
p1977
aVhttp://dbpedia.org/property/locationCountry
p1978
aVhttp://dbpedia.org/property/assembly
p1979
aVhttp://dbpedia.org/property/locations
p1980
aVhttp://dbpedia.org/property/placeOfDeath
p1981
aVhttp://dbpedia.org/property/rd0t3Loc
p1982
aVhttp://dbpedia.org/ontology/nationality
p1983
aVhttp://dbpedia.org/property/birthPlace
p1984
aVhttp://dbpedia.org/ontology/place
p1985
aVhttp://dbpedia.org/property/placeOfBirth
p1986
aVhttp://dbpedia.org/property/returns
p1987
aVhttp://dbpedia.org/property/country
p1988
aVhttp://dbpedia.org/property/areasAffected
p1989
aVhttp://dbpedia.org/ontology/wikiPageExternalLink
p1990
aVhttp://dbpedia.org/property/restingPlace
p1991
aVhttp://dbpedia.org/property/rd2t2Loc
p1992
aVhttp://dbpedia.org/property/nationality
p1993
aVhttp://dbpedia.org/ontology/abstract
p1994
aVhttp://dbpedia.org/property/rd1t2Loc
p1995
aVhttp://dbpedia.org/property/venue
p1996
aVhttp://dbpedia.org/property/deathPlace
p1997
aVhttp://dbpedia.org/property/location
p1998
aVhttp://dbpedia.org/ontology/locationCountry
p1999
aVhttp://dbpedia.org/ontology/sportCountry
p2000
aVhttp://dbpedia.org/ontology/deathPlace
p2001
aVhttp://dbpedia.org/property/rd2t4Loc
p2002
aVhttp://dbpedia.org/property/shipBuilder
p2003
aVhttp://dbpedia.org/property/rd2t1Loc
p2004
aVhttp://dbpedia.org/property/headquarters
p2005
aVhttp://dbpedia.org/property/rd1t3Loc
p2006
aVhttp://dbpedia.org/ontology/assembly
p2007
aVhttp://dbpedia.org/ontology/location
p2008
aVhttp://www.w3.org/2000/01/rdf-schema#comment
p2009
aVhttp://dbpedia.org/ontology/birthPlace
p2010
aVhttp://dbpedia.org/property/rd0t4Loc
p2011
aVhttp://dbpedia.org/ontology/builder
p2012
aVhttp://dbpedia.org/property/area
p2013
aVhttp://dbpedia.org/property/rd1t1Loc
p2014
aVhttp://dbpedia.org/property/withdraws
p2015
aVhttp://dbpedia.org/ontology/restingPlace
p2016
aVhttp://dbpedia.org/property/stadium
p2017
aVhttp://dbpedia.org/property/host
p2018
aVhttp://dbpedia.org/property/areas
p2019
aVhttp://dbpedia.org/property/residence
p2020
aVhttp://www.w3.org/2002/07/owl#sameAs
p2021
aVhttp://dbpedia.org/ontology/occupation
p2022
asI7
(lp2023
ssI17
(dp2024
I0
(lp2025
Vhttp://www.w3.org/2000/01/rdf-schema#seeAlso
p2026
aVhttp://dbpedia.org/property/placeOfDeath
p2027
aVhttp://dbpedia.org/property/place
p2028
aVhttp://dbpedia.org/ontology/PopulatedPlace/areaTotal
p2029
aVhttp://dbpedia.org/property/fifaTrigramme
p2030
aVhttp://dbpedia.org/ontology/PopulatedPlace/populationDensity
p2031
aVhttp://dbpedia.org/ontology/regionServed
p2032
aVhttp://dbpedia.org/ontology/country
p2033
aVhttp://www.w3.org/1999/02/22-rdf-syntax-ns#type
p2034
aVhttp://dbpedia.org/property/assembly
p2035
aVhttp://dbpedia.org/property/birthPlace
p2036
aVhttp://dbpedia.org/ontology/place
p2037
aVhttp://dbpedia.org/property/placeOfBirth
p2038
aVhttp://dbpedia.org/property/shipCountry
p2039
aVhttp://dbpedia.org/property/areaServed
p2040
aVhttp://dbpedia.org/property/deathPlace
p2041
aVhttp://dbpedia.org/ontology/builder
p2042
aVhttp://dbpedia.org/ontology/deathPlace
p2043
aVhttp://dbpedia.org/property/shipBuilder
p2044
aVhttp://dbpedia.org/property/usedBy
p2045
aVhttp://dbpedia.org/ontology/assembly
p2046
aVhttp://dbpedia.org/ontology/birthPlace
p2047
aVhttp://www.w3.org/2002/07/owl#sameAs
p2048
asI2
(lp2049
Vhttp://www.w3.org/2000/01/rdf-schema#seeAlso
p2050
aVhttp://dbpedia.org/property/origin
p2051
aVhttp://dbpedia.org/ontology/wikiPageRedirects
p2052
aVhttp://dbpedia.org/ontology/poleDriverCountry
p2053
aVhttp://dbpedia.org/ontology/demonym
p2054
aVhttp://dbpedia.org/ontology/country
p2055
aVhttp://www.w3.org/1999/02/22-rdf-syntax-ns#type
p2056
aVhttp://dbpedia.org/property/locationCountry
p2057
aVhttp://dbpedia.org/ontology/secondDriverCountry
p2058
aVhttp://dbpedia.org/property/allegiance
p2059
aVhttp://dbpedia.org/property/locationCity
p2060
aVhttp://dbpedia.org/property/birthPlace
p2061
aVhttp://dbpedia.org/ontology/place
p2062
aVhttp://dbpedia.org/ontology/ethnicGroup
p2063
aVhttp://dbpedia.org/property/office
p2064
aVhttp://dbpedia.org/property/country
p2065
aVhttp://dbpedia.org/property/shipCountry
p2066
aVhttp://dbpedia.org/property/areaServed
p2067
aVhttp://dbpedia.org/property/placeOfBirth
p2068
aVhttp://dbpedia.org/ontology/ideology
p2069
aVhttp://purl.org/dc/terms/subject
p2070
aVhttp://dbpedia.org/property/ideology
p2071
aVhttp://dbpedia.org/ontology/abstract
p2072
aVhttp://dbpedia.org/ontology/firstDriverCountry
p2073
aVhttp://dbpedia.org/property/location
p2074
aVhttp://dbpedia.org/property/states
p2075
aVhttp://dbpedia.org/ontology/locationCountry
p2076
aVhttp://dbpedia.org/ontology/headquarter
p2077
aVhttp://dbpedia.org/ontology/language
p2078
aVhttp://dbpedia.org/property/headquarters
p2079
aVhttp://dbpedia.org/property/languages
p2080
aVhttp://dbpedia.org/ontology/territory
p2081
aVhttp://dbpedia.org/property/shipBuilder
p2082
aVhttp://dbpedia.org/ontology/location
p2083
aVhttp://www.w3.org/2000/01/rdf-schema#comment
p2084
aVhttp://dbpedia.org/ontology/birthPlace
p2085
aVhttp://dbpedia.org/ontology/builder
p2086
aVhttp://dbpedia.org/ontology/hometown
p2087
aVhttp://dbpedia.org/ontology/garrison
p2088
aVhttp://dbpedia.org/property/demonym
p2089
aVhttp://dbpedia.org/ontology/spokenIn
p2090
aVhttp://dbpedia.org/property/jurisdiction
p2091
aVhttp://dbpedia.org/property/garrison
p2092
aVhttp://dbpedia.org/ontology/locationCity
p2093
aVhttp://dbpedia.org/ontology/deathPlace
p2094
asI3
(lp2095
sI4
(lp2096
sI5
(lp2097
sI6
(lp2098
Vhttp://dbpedia.org/property/origin
p2099
aVhttp://dbpedia.org/property/school
p2100
aVhttp://dbpedia.org/ontology/origin
p2101
aVhttp://dbpedia.org/property/place
p2102
aVhttp://dbpedia.org/property/worldPlace
p2103
aVhttp://dbpedia.org/property/usedBy
p2104
aVhttp://dbpedia.org/ontology/country
p2105
aVhttp://dbpedia.org/property/returns
p2106
aVhttp://www.w3.org/1999/02/22-rdf-syntax-ns#type
p2107
aVhttp://dbpedia.org/property/home
p2108
aVhttp://dbpedia.org/property/assembly
p2109
aVhttp://dbpedia.org/property/discoverySite
p2110
aVhttp://dbpedia.org/property/birthPlace
p2111
aVhttp://dbpedia.org/ontology/place
p2112
aVhttp://dbpedia.org/property/country
p2113
aVhttp://dbpedia.org/ontology/abstract
p2114
aVhttp://dbpedia.org/property/venue
p2115
aVhttp://dbpedia.org/property/location
p2116
aVhttp://dbpedia.org/ontology/city
p2117
aVhttp://dbpedia.org/property/fullname
p2118
aVhttp://dbpedia.org/property/nationalOrigin
p2119
aVhttp://dbpedia.org/property/rd2t1Loc
p2120
aVhttp://dbpedia.org/ontology/assembly
p2121
aVhttp://dbpedia.org/ontology/location
p2122
aVhttp://www.w3.org/2000/01/rdf-schema#comment
p2123
aVhttp://dbpedia.org/property/rd1t1Loc
p2124
aVhttp://dbpedia.org/ontology/hometown
p2125
aVhttp://dbpedia.org/property/rd3t1Loc
p2126
aVhttp://dbpedia.org/property/stadium
p2127
asI7
(lp2128
Vhttp://dbpedia.org/property/origin
p2129
aVhttp://dbpedia.org/ontology/country
p2130
aVhttp://www.w3.org/1999/02/22-rdf-syntax-ns#type
p2131
aVhttp://dbpedia.org/ontology/origin
p2132
aVhttp://dbpedia.org/ontology/birthPlace
p2133
aVhttp://dbpedia.org/property/place
p2134
aVhttp://dbpedia.org/property/location
p2135
aVhttp://dbpedia.org/property/birthPlace
p2136
aVhttp://dbpedia.org/ontology/place
p2137
aVhttp://dbpedia.org/property/placeOfBirth
p2138
assI18
(dp2139
I0
(lp2140
Vhttp://dbpedia.org/ontology/countryWithFirstAstronaut
p2141
aVhttp://dbpedia.org/property/origin
p2142
aVhttp://dbpedia.org/property/rd2t6Loc
p2143
aVhttp://dbpedia.org/property/hostCity
p2144
aVhttp://dbpedia.org/property/place
p2145
aVhttp://dbpedia.org/property/worldPlace
p2146
aVhttp://dbpedia.org/property/placeOfDeath
p2147
aVhttp://dbpedia.org/property/rd1t6Loc
p2148
aVhttp://dbpedia.org/property/footnoteC
p2149
aVhttp://dbpedia.org/ontology/thirdDriverCountry
p2150
aVhttp://dbpedia.org/ontology/county
p2151
aVhttp://dbpedia.org/property/rd1t7Loc
p2152
aVhttp://dbpedia.org/property/rd1t4Loc
p2153
aVhttp://dbpedia.org/ontology/country
p2154
aVhttp://dbpedia.org/property/returns
p2155
aVhttp://www.w3.org/1999/02/22-rdf-syntax-ns#type
p2156
aVhttp://dbpedia.org/property/rd2t3Loc
p2157
aVhttp://dbpedia.org/property/rd3t3Loc
p2158
aVhttp://dbpedia.org/property/rd3t4Loc
p2159
aVhttp://dbpedia.org/property/referee
p2160
aVhttp://dbpedia.org/property/withdraws
p2161
aVhttp://dbpedia.org/property/birthPlace
p2162
aVhttp://dbpedia.org/ontology/place
p2163
aVhttp://dbpedia.org/property/placeOfBirth
p2164
aVhttp://dbpedia.org/property/country
p2165
aVhttp://dbpedia.org/property/shipCountry
p2166
aVhttp://dbpedia.org/property/signatories
p2167
aVhttp://dbpedia.org/ontology/wikiPageExternalLink
p2168
aVhttp://dbpedia.org/property/rd2t2Loc
p2169
aVhttp://dbpedia.org/ontology/abstract
p2170
aVhttp://dbpedia.org/property/rd1t8Loc
p2171
aVhttp://dbpedia.org/property/venue
p2172
aVhttp://dbpedia.org/property/deathPlace
p2173
aVhttp://dbpedia.org/property/location
p2174
aVhttp://dbpedia.org/property/rd3t2Loc
p2175
aVhttp://dbpedia.org/ontology/deathPlace
p2176
aVhttp://dbpedia.org/property/rd2t4Loc
p2177
aVhttp://dbpedia.org/property/rd2t7Loc
p2178
aVhttp://dbpedia.org/ontology/city
p2179
aVhttp://dbpedia.org/property/debuts
p2180
aVhttp://dbpedia.org/property/rd2t1Loc
p2181
aVhttp://dbpedia.org/property/rd1t3Loc
p2182
aVhttp://dbpedia.org/ontology/assembly
p2183
aVhttp://dbpedia.org/ontology/location
p2184
aVhttp://www.w3.org/2000/01/rdf-schema#comment
p2185
aVhttp://dbpedia.org/ontology/birthPlace
p2186
aVhttp://dbpedia.org/property/countries
p2187
aVhttp://dbpedia.org/property/olympicPlace
p2188
aVhttp://dbpedia.org/property/rd1t1Loc
p2189
aVhttp://dbpedia.org/property/rd2t5Loc
p2190
aVhttp://dbpedia.org/property/rd2t8Loc
p2191
aVhttp://dbpedia.org/property/rd4t2Loc
p2192
aVhttp://dbpedia.org/property/areasAffected
p2193
aVhttp://dbpedia.org/property/rd5t1Loc
p2194
aVhttp://dbpedia.org/property/stadium
p2195
asI2
(lp2196
Vhttp://dbpedia.org/property/nearestTown
p2197
aVhttp://dbpedia.org/ontology/country
p2198
aVhttp://www.w3.org/1999/02/22-rdf-syntax-ns#type
p2199
aVhttp://purl.org/dc/terms/subject
p2200
aVhttp://dbpedia.org/property/officialLanguages
p2201
aVhttp://dbpedia.org/property/north
p2202
aVhttp://www.w3.org/2000/01/rdf-schema#comment
p2203
aVhttp://dbpedia.org/ontology/origin
p2204
aVhttp://dbpedia.org/property/southeast
p2205
aVhttp://dbpedia.org/ontology/abstract
p2206
aVhttp://dbpedia.org/property/location
p2207
aVhttp://dbpedia.org/property/subdivisionName
p2208
aVhttp://dbpedia.org/property/east
p2209
aVhttp://dbpedia.org/ontology/place
p2210
aVhttp://dbpedia.org/ontology/spokenIn
p2211
aVhttp://dbpedia.org/property/country
p2212
aVhttp://dbpedia.org/property/northeast
p2213
aVhttp://dbpedia.org/ontology/officialLanguage
p2214
aVhttp://dbpedia.org/ontology/language
p2215
aVhttp://dbpedia.org/ontology/populationPlace
p2216
asI3
(lp2217
Vhttp://dbpedia.org/property/origin
p2218
aVhttp://dbpedia.org/ontology/hometown
p2219
asI4
(lp2220
sI5
(lp2221
sI6
(lp2222
Vhttp://dbpedia.org/ontology/wikiPageExternalLink
p2223
aVhttp://dbpedia.org/ontology/country
p2224
aVhttp://dbpedia.org/property/countries
p2225
aVhttp://dbpedia.org/ontology/abstract
p2226
aVhttp://dbpedia.org/ontology/capital
p2227
aVhttp://dbpedia.org/property/place
p2228
aVhttp://dbpedia.org/ontology/place
p2229
aVhttp://dbpedia.org/property/country
p2230
asI7
(lp2231
Vhttp://dbpedia.org/ontology/wikiPageExternalLink
p2232
aVhttp://dbpedia.org/ontology/country
p2233
aVhttp://dbpedia.org/property/referee
p2234
aVhttp://dbpedia.org/ontology/location
p2235
aVhttp://www.w3.org/2000/01/rdf-schema#comment
p2236
aVhttp://dbpedia.org/property/home
p2237
aVhttp://dbpedia.org/ontology/abstract
p2238
aVhttp://dbpedia.org/property/countries
p2239
aVhttp://dbpedia.org/property/place
p2240
aVhttp://dbpedia.org/property/location
p2241
aVhttp://dbpedia.org/property/worldPlace
p2242
aVhttp://dbpedia.org/property/withdraws
p2243
aVhttp://dbpedia.org/ontology/place
p2244
aVhttp://dbpedia.org/property/debuts
p2245
aVhttp://dbpedia.org/property/country
p2246
aVhttp://dbpedia.org/property/asianPlace
p2247
aVhttp://dbpedia.org/property/stadium
p2248
ass.