(lp1
(lp2
(lp3
a(lp4
((lp5
Vhttp://www.w3.org/2002/07/owl#Thing
p6
aVhttp://dbpedia.org/ontology/Place
p7
aVhttp://dbpedia.org/ontology/Location
p8
aVhttp://www.wikidata.org/entity/Q486972
p9
aVhttp://www.wikidata.org/entity/Q6256
p10
aVhttp://dbpedia.org/ontology/Country
p11
aVhttp://dbpedia.org/ontology/PopulatedPlace
p12
aVhttp://www.w3.org/2003/01/geo/wgs84_pos#SpatialThing
p13
aVhttp://schema.org/Country
p14
aVhttp://schema.org/Place
p15
aVhttp://umbel.org/umbel/rc/Country
p16
aVhttp://umbel.org/umbel/rc/Location_Underspecified
p17
aVhttp://umbel.org/umbel/rc/PopulatedPlace
p18
aVhttp://dbpedia.org/class/yago/Abstraction100002137
p19
aVhttp://dbpedia.org/class/yago/AdministrativeDistrict108491826
p20
aVhttp://dbpedia.org/class/yago/AlpineCountries
p21
aVhttp://dbpedia.org/class/yago/Country108544813
p22
aVhttp://dbpedia.org/class/yago/District108552138
p23
aVhttp://dbpedia.org/class/yago/Economy108366753
p24
aVhttp://dbpedia.org/class/yago/Group100031264
p25
aVhttp://dbpedia.org/class/yago/Location100027167
p26
aVhttp://dbpedia.org/class/yago/Object100002684
p27
aVhttp://dbpedia.org/class/yago/Point108620061
p28
aVhttp://dbpedia.org/class/yago/Region108630985
p29
aVhttp://dbpedia.org/class/yago/System108435388
p30
aVhttp://dbpedia.org/class/yago/TopographicPoint108664443
p31
aVhttp://dbpedia.org/class/yago/YagoGeoEntity
p32
aVhttp://dbpedia.org/class/yago/YagoLegalActorGeo
p33
aVhttp://dbpedia.org/class/yago/Zone108688247
p34
aVhttp://dbpedia.org/class/yago/EuropeanCountries
p35
aVhttp://dbpedia.org/class/yago/EuropeanUnionMemberEconomies
p36
aVhttp://dbpedia.org/class/yago/FederalCountries
p37
aVhttp://dbpedia.org/class/yago/PhysicalEntity100001930
p38
aVhttp://dbpedia.org/class/yago/YagoPermanentlyLocatedEntity
p39
aVhttp://dbpedia.org/class/yago/German-speakingCountries
p40
aVhttp://dbpedia.org/class/yago/LandlockedCountries
p41
aVhttp://dbpedia.org/class/yago/MemberStatesOfTheCouncilOfEurope
p42
aVhttp://dbpedia.org/class/yago/MemberStatesOfTheEuropeanUnion
p43
aVhttp://dbpedia.org/class/yago/MemberStatesOfTheUnionForTheMediterranean
p44
aVhttp://dbpedia.org/class/yago/MemberStatesOfTheUnitedNations
p45
aVhttp://dbpedia.org/class/yago/Nuclear-freeZones
p46
aVhttp://dbpedia.org/class/yago/StatesAndTerritoriesEstablishedIn1955
p47
aVhttp://dbpedia.org/resource/Austria
tp48
aa(lp49
((lp50
Vhttp://www.w3.org/2002/07/owl#Thing
p51
aVhttp://dbpedia.org/ontology/Place
p52
aVhttp://dbpedia.org/ontology/Location
p53
aVhttp://www.wikidata.org/entity/Q486972
p54
aVhttp://www.wikidata.org/entity/Q6256
p55
aVhttp://dbpedia.org/ontology/Country
p56
aVhttp://dbpedia.org/ontology/PopulatedPlace
p57
aVhttp://www.w3.org/2003/01/geo/wgs84_pos#SpatialThing
p58
aVhttp://schema.org/Country
p59
aVhttp://schema.org/Place
p60
aVhttp://umbel.org/umbel/rc/Country
p61
aVhttp://umbel.org/umbel/rc/Location_Underspecified
p62
aVhttp://umbel.org/umbel/rc/PopulatedPlace
p63
aVhttp://dbpedia.org/class/yago/Abstraction100002137
p64
aVhttp://dbpedia.org/class/yago/AdministrativeDistrict108491826
p65
aVhttp://dbpedia.org/class/yago/AlpineCountries
p66
aVhttp://dbpedia.org/class/yago/Country108544813
p67
aVhttp://dbpedia.org/class/yago/District108552138
p68
aVhttp://dbpedia.org/class/yago/Economy108366753
p69
aVhttp://dbpedia.org/class/yago/Group100031264
p70
aVhttp://dbpedia.org/class/yago/Location100027167
p71
aVhttp://dbpedia.org/class/yago/Object100002684
p72
aVhttp://dbpedia.org/class/yago/Region108630985
p73
aVhttp://dbpedia.org/class/yago/System108435388
p74
aVhttp://dbpedia.org/class/yago/YagoGeoEntity
p75
aVhttp://dbpedia.org/class/yago/YagoLegalActorGeo
p76
aVhttp://dbpedia.org/class/yago/CountriesBorderingTheAtlanticOcean
p77
aVhttp://dbpedia.org/class/yago/CountriesBorderingTheBalticSea
p78
aVhttp://dbpedia.org/class/yago/EuropeanCountries
p79
aVhttp://dbpedia.org/class/yago/EuropeanUnionMemberEconomies
p80
aVhttp://dbpedia.org/class/yago/FederalCountries
p81
aVhttp://dbpedia.org/class/yago/PhysicalEntity100001930
p82
aVhttp://dbpedia.org/class/yago/YagoPermanentlyLocatedEntity
p83
aVhttp://dbpedia.org/class/yago/German-speakingCountries
p84
aVhttp://dbpedia.org/class/yago/MemberStatesOfNATO
p85
aVhttp://dbpedia.org/class/yago/MemberStatesOfTheEuropeanUnion
p86
aVhttp://dbpedia.org/class/yago/MemberStatesOfTheUnionForTheMediterranean
p87
aVhttp://dbpedia.org/class/yago/MemberStatesOfTheUnitedNations
p88
aVhttp://dbpedia.org/class/yago/StatesAndTerritoriesEstablishedIn1871
p89
aVhttp://dbpedia.org/resource/Germany
tp90
aa(lp91
a(lp92
a(lp93
a(lp94
a(lp95
aa(lp96
(lp97
a(lp98
((lp99
Vhttp://www.w3.org/2002/07/owl#Thing
p100
aVhttp://dbpedia.org/ontology/Place
p101
aVhttp://dbpedia.org/ontology/Location
p102
aVhttp://www.wikidata.org/entity/Q486972
p103
aVhttp://www.wikidata.org/entity/Q6256
p104
aVhttp://dbpedia.org/ontology/Country
p105
aVhttp://dbpedia.org/ontology/PopulatedPlace
p106
aVhttp://www.w3.org/2003/01/geo/wgs84_pos#SpatialThing
p107
aVhttp://schema.org/Country
p108
aVhttp://schema.org/Place
p109
aVhttp://umbel.org/umbel/rc/Country
p110
aVhttp://umbel.org/umbel/rc/Location_Underspecified
p111
aVhttp://umbel.org/umbel/rc/PopulatedPlace
p112
aVhttp://dbpedia.org/resource/Turkey
tp113
aa(lp114
a(lp115
((lp116
Vhttp://www.w3.org/2002/07/owl#Thing
p117
aVhttp://xmlns.com/foaf/0.1/Person
p118
aVhttp://dbpedia.org/ontology/Person
p119
aVhttp://www.ontologydesignpatterns.org/ont/dul/DUL.owl#Agent
p120
aVhttp://www.ontologydesignpatterns.org/ont/dul/DUL.owl#NaturalPerson
p121
aVhttp://www.wikidata.org/entity/Q215627
p122
aVhttp://www.wikidata.org/entity/Q483501
p123
aVhttp://www.wikidata.org/entity/Q5
p124
aVhttp://dbpedia.org/ontology/Agent
p125
aVhttp://dbpedia.org/ontology/Artist
p126
aVhttp://dbpedia.org/ontology/MusicalArtist
p127
aVhttp://schema.org/MusicGroup
p128
aVhttp://schema.org/Person
p129
aVhttp://umbel.org/umbel/rc/Artist
p130
aVhttp://umbel.org/umbel/rc/MusicalPerformer
p131
aVhttp://dbpedia.org/class/yago/Actor109765278
p132
aVhttp://dbpedia.org/class/yago/Artist109812338
p133
aVhttp://dbpedia.org/class/yago/CausalAgent100007347
p134
aVhttp://dbpedia.org/class/yago/Creator109614315
p135
aVhttp://dbpedia.org/class/yago/Entertainer109616922
p136
aVhttp://dbpedia.org/class/yago/LivingThing100004258
p137
aVhttp://dbpedia.org/class/yago/Musician110339966
p138
aVhttp://dbpedia.org/class/yago/Musician110340312
p139
aVhttp://dbpedia.org/class/yago/Object100002684
p140
aVhttp://dbpedia.org/class/yago/Organism100004475
p141
aVhttp://dbpedia.org/class/yago/Performer110415638
p142
aVhttp://dbpedia.org/class/yago/Person100007846
p143
aVhttp://dbpedia.org/class/yago/Singer110599806
p144
aVhttp://dbpedia.org/class/yago/Whole100003553
p145
aVhttp://dbpedia.org/class/yago/YagoLegalActorGeo
p146
aVhttp://dbpedia.org/class/yago/PhysicalEntity100001930
p147
aVhttp://dbpedia.org/class/yago/LivingPeople
p148
aVhttp://dbpedia.org/class/yago/PeopleFromIstanbul
p149
aVhttp://dbpedia.org/class/yago/YagoLegalActor
p150
aVhttp://dbpedia.org/class/yago/StateArtistsOfTurkey
p151
aVhttp://dbpedia.org/class/yago/TurkishActors
p152
aVhttp://dbpedia.org/class/yago/TurkishFemaleSingers
p153
aVhttp://dbpedia.org/class/yago/TurkishPopSingers
p154
aVhttp://dbpedia.org/resource/Ajda_Pekkan
tp155
aa(lp156
a(lp157
((lp158
Vhttp://www.w3.org/2002/07/owl#Thing
p159
aVhttp://dbpedia.org/resource/Petroleum
tp160
aa(lp161
a(lp162
aa(lp163
(lp164
a(lp165
((lp166
Vhttp://www.w3.org/2002/07/owl#Thing
p167
aVhttp://dbpedia.org/ontology/Place
p168
aVhttp://dbpedia.org/ontology/Location
p169
aVhttp://www.wikidata.org/entity/Q486972
p170
aVhttp://www.wikidata.org/entity/Q6256
p171
aVhttp://dbpedia.org/ontology/Country
p172
aVhttp://dbpedia.org/ontology/PopulatedPlace
p173
aVhttp://www.w3.org/2003/01/geo/wgs84_pos#SpatialThing
p174
aVhttp://schema.org/Country
p175
aVhttp://schema.org/Place
p176
aVhttp://umbel.org/umbel/rc/Country
p177
aVhttp://umbel.org/umbel/rc/Location_Underspecified
p178
aVhttp://umbel.org/umbel/rc/PopulatedPlace
p179
aVhttp://dbpedia.org/class/yago/Abstraction100002137
p180
aVhttp://dbpedia.org/class/yago/AdministrativeDistrict108491826
p181
aVhttp://dbpedia.org/class/yago/Attribute100024264
p182
aVhttp://dbpedia.org/class/yago/BicontinentalCountries
p183
aVhttp://dbpedia.org/class/yago/Condition113920835
p184
aVhttp://dbpedia.org/class/yago/Country108544813
p185
aVhttp://dbpedia.org/class/yago/Difficulty114408086
p186
aVhttp://dbpedia.org/class/yago/District108552138
p187
aVhttp://dbpedia.org/class/yago/Economy108366753
p188
aVhttp://dbpedia.org/class/yago/Event100029378
p189
aVhttp://dbpedia.org/class/yago/Group100031264
p190
aVhttp://dbpedia.org/class/yago/Happening107283608
p191
aVhttp://dbpedia.org/class/yago/Location100027167
p192
aVhttp://dbpedia.org/class/yago/Noise107387509
p193
aVhttp://dbpedia.org/class/yago/Object100002684
p194
aVhttp://dbpedia.org/class/yago/Region108630985
p195
aVhttp://dbpedia.org/class/yago/Sound107371293
p196
aVhttp://dbpedia.org/class/yago/State100024720
p197
aVhttp://dbpedia.org/class/yago/System108435388
p198
aVhttp://dbpedia.org/class/yago/YagoGeoEntity
p199
aVhttp://dbpedia.org/class/yago/YagoLegalActorGeo
p200
aVhttp://dbpedia.org/class/yago/Clang107380144
p201
aVhttp://dbpedia.org/class/yago/CountriesOfTheMediterraneanSea
p202
aVhttp://dbpedia.org/class/yago/Crisis113933560
p203
aVhttp://dbpedia.org/class/yago/EasternMediterraneanCountries
p204
aVhttp://dbpedia.org/class/yago/EuropeanCountries
p205
aVhttp://dbpedia.org/class/yago/EuropeanUnionMemberEconomies
p206
aVhttp://dbpedia.org/class/yago/FinancialCrises
p207
aVhttp://dbpedia.org/class/yago/PhysicalEntity100001930
p208
aVhttp://dbpedia.org/class/yago/PsychologicalFeature100023100
p209
aVhttp://dbpedia.org/class/yago/Situation114411243
p210
aVhttp://dbpedia.org/class/yago/YagoPermanentlyLocatedEntity
p211
aVhttp://dbpedia.org/class/yago/MemberStatesOfLaFrancophonie
p212
aVhttp://dbpedia.org/class/yago/MemberStatesOfNATO
p213
aVhttp://dbpedia.org/class/yago/MemberStatesOfTheCouncilOfEurope
p214
aVhttp://dbpedia.org/class/yago/MemberStatesOfTheEuropeanUnion
p215
aVhttp://dbpedia.org/class/yago/MemberStatesOfTheUnionForTheMediterranean
p216
aVhttp://dbpedia.org/class/yago/MemberStatesOfTheUnitedNations
p217
aVhttp://dbpedia.org/class/yago/StatesAndTerritoriesEstablishedIn1821
p218
aVhttp://dbpedia.org/class/yago/StockMarketCrashes
p219
aVhttp://dbpedia.org/resource/Greece
tp220
aa(lp221
((lVhttp://dbpedia.org/resource/Greek
tp222
aa(lp223
a(lp224
a(lp225
((lp226
Vhttp://www.w3.org/2002/07/owl#Thing
p227
aVhttp://xmlns.com/foaf/0.1/Person
p228
aVhttp://dbpedia.org/ontology/Person
p229
aVhttp://www.ontologydesignpatterns.org/ont/dul/DUL.owl#Agent
p230
aVhttp://www.ontologydesignpatterns.org/ont/dul/DUL.owl#NaturalPerson
p231
aVhttp://www.wikidata.org/entity/Q215627
p232
aVhttp://www.wikidata.org/entity/Q5
p233
aVhttp://dbpedia.org/ontology/Agent
p234
aVhttp://schema.org/Person
p235
aVhttp://dbpedia.org/class/yago/Abstraction100002137
p236
aVhttp://dbpedia.org/class/yago/Act100030358
p237
aVhttp://dbpedia.org/class/yago/Action100037396
p238
aVhttp://dbpedia.org/class/yago/Change100191142
p239
aVhttp://dbpedia.org/class/yago/Event100029378
p240
aVhttp://dbpedia.org/class/yago/Motion100331950
p241
aVhttp://dbpedia.org/class/yago/PsychologicalFeature100023100
p242
aVhttp://dbpedia.org/class/yago/YagoPermanentlyLocatedEntity
p243
aVhttp://dbpedia.org/class/yago/Gesture100334509
p244
aVhttp://dbpedia.org/class/yago/Gestures
p245
aVhttp://dbpedia.org/resource/Hitchhiking
tp246
aa(lp247
a(lp248
aa(lp249
(lp250
a(lp251
((lp252
Vhttp://www.w3.org/2002/07/owl#Thing
p253
aVhttp://dbpedia.org/ontology/Place
p254
aVhttp://dbpedia.org/ontology/Location
p255
aVhttp://www.wikidata.org/entity/Q486972
p256
aVhttp://www.wikidata.org/entity/Q6256
p257
aVhttp://dbpedia.org/ontology/Country
p258
aVhttp://dbpedia.org/ontology/PopulatedPlace
p259
aVhttp://www.w3.org/2003/01/geo/wgs84_pos#SpatialThing
p260
aVhttp://schema.org/Country
p261
aVhttp://schema.org/Place
p262
aVhttp://umbel.org/umbel/rc/Country
p263
aVhttp://umbel.org/umbel/rc/Location_Underspecified
p264
aVhttp://umbel.org/umbel/rc/PopulatedPlace
p265
aVhttp://dbpedia.org/class/yago/Abstraction100002137
p266
aVhttp://dbpedia.org/class/yago/AdministrativeDistrict108491826
p267
aVhttp://dbpedia.org/class/yago/Country108544813
p268
aVhttp://dbpedia.org/class/yago/District108552138
p269
aVhttp://dbpedia.org/class/yago/Economy108366753
p270
aVhttp://dbpedia.org/class/yago/Group100031264
p271
aVhttp://dbpedia.org/class/yago/Location100027167
p272
aVhttp://dbpedia.org/class/yago/Object100002684
p273
aVhttp://dbpedia.org/class/yago/Region108630039
p274
aVhttp://dbpedia.org/class/yago/Region108630985
p275
aVhttp://dbpedia.org/class/yago/System108435388
p276
aVhttp://dbpedia.org/class/yago/YagoGeoEntity
p277
aVhttp://dbpedia.org/class/yago/YagoLegalActorGeo
p278
aVhttp://dbpedia.org/class/yago/DividedRegions
p279
aVhttp://dbpedia.org/class/yago/EuropeanCountries
p280
aVhttp://dbpedia.org/class/yago/EuropeanUnionMemberEconomies
p281
aVhttp://dbpedia.org/class/yago/French-speakingCountries
p282
aVhttp://dbpedia.org/class/yago/PhysicalEntity100001930
p283
aVhttp://dbpedia.org/class/yago/YagoPermanentlyLocatedEntity
p284
aVhttp://dbpedia.org/class/yago/German-speakingCountries
p285
aVhttp://dbpedia.org/class/yago/LandlockedCountries
p286
aVhttp://dbpedia.org/class/yago/MemberStatesOfLaFrancophonie
p287
aVhttp://dbpedia.org/class/yago/MemberStatesOfNATO
p288
aVhttp://dbpedia.org/class/yago/MemberStatesOfTheEuropeanUnion
p289
aVhttp://dbpedia.org/class/yago/MemberStatesOfTheUnionForTheMediterranean
p290
aVhttp://dbpedia.org/class/yago/MemberStatesOfTheUnitedNations
p291
aVhttp://dbpedia.org/class/yago/NUTS1StatisticalRegionsOfTheEuropeanUnion
p292
aVhttp://dbpedia.org/class/yago/NUTS2StatisticalRegionsOfTheEuropeanUnion
p293
aVhttp://dbpedia.org/class/yago/StatesAndTerritoriesEstablishedIn1815
p294
aVhttp://dbpedia.org/class/yago/StatesOfTheGermanConfederation
p295
aVhttp://dbpedia.org/resource/Luxembourg
tp296
aa(lp297
((lp298
Vhttp://www.w3.org/2002/07/owl#Thing
p299
aVhttp://dbpedia.org/ontology/Place
p300
aVhttp://dbpedia.org/ontology/Location
p301
aVhttp://www.wikidata.org/entity/Q4022
p302
aVhttp://www.wikidata.org/entity/Q47521
p303
aVhttp://dbpedia.org/ontology/BodyOfWater
p304
aVhttp://dbpedia.org/ontology/NaturalPlace
p305
aVhttp://dbpedia.org/ontology/River
p306
aVhttp://dbpedia.org/ontology/Stream
p307
aVhttp://schema.org/BodyOfWater
p308
aVhttp://schema.org/Place
p309
aVhttp://schema.org/RiverBodyOfWater
p310
aVhttp://umbel.org/umbel/rc/BodyOfWater
p311
aVhttp://umbel.org/umbel/rc/River
p312
aVhttp://umbel.org/umbel/rc/Stream
p313
aVhttp://dbpedia.org/class/yago/BodyOfWater109225146
p314
aVhttp://dbpedia.org/class/yago/Branch109228324
p315
aVhttp://dbpedia.org/class/yago/CanadianHeritageRivers
p316
aVhttp://dbpedia.org/class/yago/River109411430
p317
aVhttp://dbpedia.org/class/yago/Stream109448361
p318
aVhttp://dbpedia.org/class/yago/Thing100002452
p319
aVhttp://dbpedia.org/class/yago/YagoGeoEntity
p320
aVhttp://dbpedia.org/class/yago/Feeder109278997
p321
aVhttp://dbpedia.org/class/yago/PhysicalEntity100001930
p322
aVhttp://dbpedia.org/class/yago/YagoPermanentlyLocatedEntity
p323
aVhttp://dbpedia.org/class/yago/RiversOfOntario
p324
aVhttp://dbpedia.org/class/yago/TributariesOfLakeHuron
p325
aVhttp://dbpedia.org/resource/French_River_(Ontario)
tp326
aa(lp327
a(lp328
a(lp329
a(lp330
a(lp331
aa(lp332
(lp333
a(lp334
a(lp335
((lp336
Vhttp://www.w3.org/2002/07/owl#Thing
p337
aVhttp://dbpedia.org/resource/Arabic_script_in_Unicode
tp338
aa(lp339
a(lp340
a(lp341
((lp342
Vhttp://dbpedia.org/class/yago/1996Songs
p343
aVhttp://dbpedia.org/class/yago/Abstraction100002137
p344
aVhttp://dbpedia.org/class/yago/AuditoryCommunication107109019
p345
aVhttp://dbpedia.org/class/yago/Communication100033020
p346
aVhttp://dbpedia.org/class/yago/Music107020895
p347
aVhttp://dbpedia.org/class/yago/MusicalComposition107037465
p348
aVhttp://dbpedia.org/class/yago/Song107048000
p349
aVhttp://dbpedia.org/resource/Love_Message_(song)
tp350
aa(lp351
a(lp352
aa(lp353
(lp354
a(lp355
((lp356
Vhttp://www.w3.org/2002/07/owl#Thing
p357
aVhttp://dbpedia.org/ontology/Place
p358
aVhttp://dbpedia.org/ontology/Location
p359
aVhttp://www.wikidata.org/entity/Q486972
p360
aVhttp://www.wikidata.org/entity/Q6256
p361
aVhttp://dbpedia.org/ontology/Country
p362
aVhttp://dbpedia.org/ontology/PopulatedPlace
p363
aVhttp://www.w3.org/2003/01/geo/wgs84_pos#SpatialThing
p364
aVhttp://schema.org/Country
p365
aVhttp://schema.org/Place
p366
aVhttp://umbel.org/umbel/rc/Country
p367
aVhttp://umbel.org/umbel/rc/Location_Underspecified
p368
aVhttp://umbel.org/umbel/rc/PopulatedPlace
p369
aVhttp://dbpedia.org/class/yago/Abstraction100002137
p370
aVhttp://dbpedia.org/class/yago/AdministrativeDistrict108491826
p371
aVhttp://dbpedia.org/class/yago/AlpineCountries
p372
aVhttp://dbpedia.org/class/yago/BicontinentalCountries
p373
aVhttp://dbpedia.org/class/yago/Country108544813
p374
aVhttp://dbpedia.org/class/yago/District108552138
p375
aVhttp://dbpedia.org/class/yago/Economy108366753
p376
aVhttp://dbpedia.org/class/yago/Group100031264
p377
aVhttp://dbpedia.org/class/yago/Location100027167
p378
aVhttp://dbpedia.org/class/yago/Object100002684
p379
aVhttp://dbpedia.org/class/yago/Region108630985
p380
aVhttp://dbpedia.org/class/yago/System108435388
p381
aVhttp://dbpedia.org/class/yago/YagoGeoEntity
p382
aVhttp://dbpedia.org/class/yago/YagoLegalActorGeo
p383
aVhttp://dbpedia.org/class/yago/CountriesOfTheMediterraneanSea
p384
aVhttp://dbpedia.org/class/yago/EuropeanCountries
p385
aVhttp://dbpedia.org/class/yago/EuropeanUnionMemberEconomies
p386
aVhttp://dbpedia.org/class/yago/PhysicalEntity100001930
p387
aVhttp://dbpedia.org/class/yago/YagoPermanentlyLocatedEntity
p388
aVhttp://dbpedia.org/class/yago/Italian-speakingCountries
p389
aVhttp://dbpedia.org/class/yago/MemberStatesOfNATO
p390
aVhttp://dbpedia.org/class/yago/MemberStatesOfTheCouncilOfEurope
p391
aVhttp://dbpedia.org/class/yago/MemberStatesOfTheEuropeanUnion
p392
aVhttp://dbpedia.org/class/yago/MemberStatesOfTheUnionForTheMediterranean
p393
aVhttp://dbpedia.org/class/yago/MemberStatesOfTheUnitedNations
p394
aVhttp://dbpedia.org/class/yago/StatesAndTerritoriesEstablishedIn1861
p395
aVhttp://dbpedia.org/resource/Italy
tp396
aa(lp397
((lp398
Vhttp://dbpedia.org/class/yago/Abstraction100002137
p399
aVhttp://dbpedia.org/class/yago/Act100030358
p400
aVhttp://dbpedia.org/class/yago/Activity100407535
p401
aVhttp://dbpedia.org/class/yago/Event100029378
p402
aVhttp://dbpedia.org/class/yago/Order101009871
p403
aVhttp://dbpedia.org/class/yago/Succession101010458
p404
aVhttp://dbpedia.org/class/yago/ChessOpenings
p405
aVhttp://dbpedia.org/class/yago/Opening100457890
p406
aVhttp://dbpedia.org/class/yago/PsychologicalFeature100023100
p407
aVhttp://dbpedia.org/class/yago/YagoPermanentlyLocatedEntity
p408
aVhttp://dbpedia.org/class/yago/Organization101008378
p409
aVhttp://dbpedia.org/resource/Italian_Gambit
tp410
aa(lp411
a(lp412
a(lp413
a(lp414
a(lp415
aa(lp416
(lp417
a(lp418
((lp419
Vhttp://www.w3.org/2002/07/owl#Thing
p420
aVhttp://dbpedia.org/ontology/Place
p421
aVhttp://dbpedia.org/ontology/Location
p422
aVhttp://www.wikidata.org/entity/Q486972
p423
aVhttp://www.wikidata.org/entity/Q6256
p424
aVhttp://dbpedia.org/ontology/Country
p425
aVhttp://dbpedia.org/ontology/PopulatedPlace
p426
aVhttp://www.w3.org/2003/01/geo/wgs84_pos#SpatialThing
p427
aVhttp://schema.org/Country
p428
aVhttp://schema.org/Place
p429
aVhttp://umbel.org/umbel/rc/Country
p430
aVhttp://umbel.org/umbel/rc/Location_Underspecified
p431
aVhttp://umbel.org/umbel/rc/PopulatedPlace
p432
aVhttp://dbpedia.org/class/yago/Abstraction100002137
p433
aVhttp://dbpedia.org/class/yago/AdministrativeDistrict108491826
p434
aVhttp://dbpedia.org/class/yago/Country108544813
p435
aVhttp://dbpedia.org/class/yago/District108552138
p436
aVhttp://dbpedia.org/class/yago/Economy108366753
p437
aVhttp://dbpedia.org/class/yago/Group100031264
p438
aVhttp://dbpedia.org/class/yago/Location100027167
p439
aVhttp://dbpedia.org/class/yago/Object100002684
p440
aVhttp://dbpedia.org/class/yago/Region108630039
p441
aVhttp://dbpedia.org/class/yago/Region108630985
p442
aVhttp://dbpedia.org/class/yago/System108435388
p443
aVhttp://dbpedia.org/class/yago/YagoGeoEntity
p444
aVhttp://dbpedia.org/class/yago/YagoLegalActorGeo
p445
aVhttp://dbpedia.org/class/yago/CountriesBorderingTheAtlanticOcean
p446
aVhttp://dbpedia.org/class/yago/CountriesBorderingTheBalticSea
p447
aVhttp://dbpedia.org/class/yago/Danish-speakingCountries
p448
aVhttp://dbpedia.org/class/yago/EuropeanCountries
p449
aVhttp://dbpedia.org/class/yago/EuropeanUnionMemberEconomies
p450
aVhttp://dbpedia.org/class/yago/PhysicalEntity100001930
p451
aVhttp://dbpedia.org/class/yago/YagoPermanentlyLocatedEntity
p452
aVhttp://dbpedia.org/class/yago/MemberStatesOfNATO
p453
aVhttp://dbpedia.org/class/yago/MemberStatesOfTheEuropeanUnion
p454
aVhttp://dbpedia.org/class/yago/MemberStatesOfTheUnionForTheMediterranean
p455
aVhttp://dbpedia.org/class/yago/MemberStatesOfTheUnitedNations
p456
aVhttp://dbpedia.org/class/yago/NUTS2StatisticalRegionsOfTheEuropeanUnion
p457
aVhttp://dbpedia.org/class/yago/NordicCountries
p458
aVhttp://dbpedia.org/class/yago/StatesAndTerritoriesEstablishedIn1814
p459
aVhttp://dbpedia.org/resource/Denmark
tp460
aa(lp461
((lVhttp://dbpedia.org/resource/Danish_(name)
tp462
aa(lp463
a(lp464
((lp465
Vhttp://www.w3.org/2002/07/owl#Thing
p466
aVhttp://www.wikidata.org/entity/Q2188189
p467
aVhttp://www.wikidata.org/entity/Q386724
p468
aVhttp://dbpedia.org/ontology/EurovisionSongContestEntry
p469
aVhttp://dbpedia.org/ontology/MusicalWork
p470
aVhttp://dbpedia.org/ontology/Song
p471
aVhttp://dbpedia.org/ontology/Work
p472
aVhttp://schema.org/CreativeWork
p473
aVhttp://schema.org/MusicRecording
p474
aVhttp://umbel.org/umbel/rc/MusicalComposition_Song
p475
aVhttp://dbpedia.org/class/yago/1980Songs
p476
aVhttp://dbpedia.org/class/yago/Abstraction100002137
p477
aVhttp://dbpedia.org/class/yago/AuditoryCommunication107109019
p478
aVhttp://dbpedia.org/class/yago/Communication100033020
p479
aVhttp://dbpedia.org/class/yago/Music107020895
p480
aVhttp://dbpedia.org/class/yago/MusicalComposition107037465
p481
aVhttp://dbpedia.org/class/yago/Song107048000
p482
aVhttp://dbpedia.org/class/yago/EurovisionSongsOf1980
p483
aVhttp://dbpedia.org/class/yago/EurovisionSongsOfDenmark
p484
aVhttp://dbpedia.org/resource/T%C3%A6nker_altid_p%C3%A5_dig
tp485
aa(lp486
a(lp487
a(lp488
aa(lp489
(lp490
a(lp491
((lp492
Vhttp://www.w3.org/2002/07/owl#Thing
p493
aVhttp://dbpedia.org/ontology/Place
p494
aVhttp://dbpedia.org/ontology/Location
p495
aVhttp://www.wikidata.org/entity/Q486972
p496
aVhttp://www.wikidata.org/entity/Q6256
p497
aVhttp://dbpedia.org/ontology/Country
p498
aVhttp://dbpedia.org/ontology/PopulatedPlace
p499
aVhttp://www.w3.org/2003/01/geo/wgs84_pos#SpatialThing
p500
aVhttp://schema.org/Country
p501
aVhttp://schema.org/Place
p502
aVhttp://umbel.org/umbel/rc/Country
p503
aVhttp://umbel.org/umbel/rc/Location_Underspecified
p504
aVhttp://umbel.org/umbel/rc/PopulatedPlace
p505
aVhttp://dbpedia.org/class/yago/Abstraction100002137
p506
aVhttp://dbpedia.org/class/yago/AdministrativeDistrict108491826
p507
aVhttp://dbpedia.org/class/yago/Country108544813
p508
aVhttp://dbpedia.org/class/yago/District108552138
p509
aVhttp://dbpedia.org/class/yago/Economy108366753
p510
aVhttp://dbpedia.org/class/yago/Group100031264
p511
aVhttp://dbpedia.org/class/yago/Location100027167
p512
aVhttp://dbpedia.org/class/yago/Object100002684
p513
aVhttp://dbpedia.org/class/yago/Region108630985
p514
aVhttp://dbpedia.org/class/yago/System108435388
p515
aVhttp://dbpedia.org/class/yago/YagoGeoEntity
p516
aVhttp://dbpedia.org/class/yago/YagoLegalActorGeo
p517
aVhttp://dbpedia.org/class/yago/CountriesBorderingTheAtlanticOcean
p518
aVhttp://dbpedia.org/class/yago/CountriesBorderingTheBalticSea
p519
aVhttp://dbpedia.org/class/yago/EuropeanCountries
p520
aVhttp://dbpedia.org/class/yago/EuropeanUnionMemberEconomies
p521
aVhttp://dbpedia.org/class/yago/PhysicalEntity100001930
p522
aVhttp://dbpedia.org/class/yago/YagoPermanentlyLocatedEntity
p523
aVhttp://dbpedia.org/class/yago/MemberStatesOfTheEuropeanUnion
p524
aVhttp://dbpedia.org/class/yago/MemberStatesOfTheUnionForTheMediterranean
p525
aVhttp://dbpedia.org/class/yago/MemberStatesOfTheUnitedNations
p526
aVhttp://dbpedia.org/class/yago/NordicCountries
p527
aVhttp://dbpedia.org/resource/Sweden
tp528
aa(lp529
((lVhttp://dbpedia.org/resource/Swedish
tp530
aa(lp531
((lp532
Vhttp://www.w3.org/2002/07/owl#Thing
p533
aVhttp://xmlns.com/foaf/0.1/Person
p534
aVhttp://dbpedia.org/ontology/Person
p535
aVhttp://www.ontologydesignpatterns.org/ont/dul/DUL.owl#Agent
p536
aVhttp://www.ontologydesignpatterns.org/ont/dul/DUL.owl#NaturalPerson
p537
aVhttp://www.wikidata.org/entity/Q215627
p538
aVhttp://www.wikidata.org/entity/Q483501
p539
aVhttp://www.wikidata.org/entity/Q5
p540
aVhttp://dbpedia.org/ontology/Agent
p541
aVhttp://dbpedia.org/ontology/Artist
p542
aVhttp://dbpedia.org/ontology/MusicalArtist
p543
aVhttp://schema.org/MusicGroup
p544
aVhttp://schema.org/Person
p545
aVhttp://dbpedia.org/class/yago/Artist109812338
p546
aVhttp://dbpedia.org/class/yago/CausalAgent100007347
p547
aVhttp://dbpedia.org/class/yago/Contestant109613191
p548
aVhttp://dbpedia.org/class/yago/Creator109614315
p549
aVhttp://dbpedia.org/class/yago/Entertainer109616922
p550
aVhttp://dbpedia.org/class/yago/Guitarist110151760
p551
aVhttp://dbpedia.org/class/yago/LivingThing100004258
p552
aVhttp://dbpedia.org/class/yago/Maker110284064
p553
aVhttp://dbpedia.org/class/yago/Manufacturer110292316
p554
aVhttp://dbpedia.org/class/yago/Musician110339966
p555
aVhttp://dbpedia.org/class/yago/Musician110340312
p556
aVhttp://dbpedia.org/class/yago/Object100002684
p557
aVhttp://dbpedia.org/class/yago/Organism100004475
p558
aVhttp://dbpedia.org/class/yago/Performer110415638
p559
aVhttp://dbpedia.org/class/yago/Person100007846
p560
aVhttp://dbpedia.org/class/yago/Singer110599806
p561
aVhttp://dbpedia.org/class/yago/Whole100003553
p562
aVhttp://dbpedia.org/class/yago/YagoLegalActorGeo
p563
aVhttp://dbpedia.org/class/yago/PhysicalEntity100001930
p564
aVhttp://dbpedia.org/class/yago/LivingPeople
p565
aVhttp://dbpedia.org/class/yago/MelodifestivalenContestants
p566
aVhttp://dbpedia.org/class/yago/PeopleFromSandvikenMunicipality
p567
aVhttp://dbpedia.org/class/yago/YagoLegalActor
p568
aVhttp://dbpedia.org/class/yago/RecordProducers
p569
aVhttp://dbpedia.org/class/yago/SwedishGuitarists
p570
aVhttp://dbpedia.org/class/yago/SwedishMaleSingers
p571
aVhttp://dbpedia.org/resource/Tomas_Ledin
tp572
aa(lp573
a(lp574
((lVhttp://dbpedia.org/resource/Right_Now
tp575
aa(lp576
a(lp577
aa(lp578
(lp579
a(lp580
((lp581
Vhttp://www.w3.org/2002/07/owl#Thing
p582
aVhttp://dbpedia.org/ontology/Place
p583
aVhttp://dbpedia.org/ontology/Location
p584
aVhttp://www.wikidata.org/entity/Q486972
p585
aVhttp://www.wikidata.org/entity/Q6256
p586
aVhttp://dbpedia.org/ontology/Country
p587
aVhttp://dbpedia.org/ontology/PopulatedPlace
p588
aVhttp://www.w3.org/2003/01/geo/wgs84_pos#SpatialThing
p589
aVhttp://schema.org/Country
p590
aVhttp://schema.org/Place
p591
aVhttp://umbel.org/umbel/rc/Country
p592
aVhttp://umbel.org/umbel/rc/Location_Underspecified
p593
aVhttp://umbel.org/umbel/rc/PopulatedPlace
p594
aVhttp://dbpedia.org/class/yago/Abstraction100002137
p595
aVhttp://dbpedia.org/class/yago/AdministrativeDistrict108491826
p596
aVhttp://dbpedia.org/class/yago/AlpineCountries
p597
aVhttp://dbpedia.org/class/yago/Country108544813
p598
aVhttp://dbpedia.org/class/yago/District108552138
p599
aVhttp://dbpedia.org/class/yago/Economy108366753
p600
aVhttp://dbpedia.org/class/yago/Group100031264
p601
aVhttp://dbpedia.org/class/yago/Location100027167
p602
aVhttp://dbpedia.org/class/yago/Object100002684
p603
aVhttp://dbpedia.org/class/yago/Region108630985
p604
aVhttp://dbpedia.org/class/yago/System108435388
p605
aVhttp://dbpedia.org/class/yago/YagoGeoEntity
p606
aVhttp://dbpedia.org/class/yago/YagoLegalActorGeo
p607
aVhttp://dbpedia.org/class/yago/EuropeanCountries
p608
aVhttp://dbpedia.org/class/yago/FederalCountries
p609
aVhttp://dbpedia.org/class/yago/French-speakingCountries
p610
aVhttp://dbpedia.org/class/yago/PhysicalEntity100001930
p611
aVhttp://dbpedia.org/class/yago/YagoPermanentlyLocatedEntity
p612
aVhttp://dbpedia.org/class/yago/German-speakingCountries
p613
aVhttp://dbpedia.org/class/yago/Italian-speakingCountries
p614
aVhttp://dbpedia.org/class/yago/LandlockedCountries
p615
aVhttp://dbpedia.org/class/yago/MemberStatesOfLaFrancophonie
p616
aVhttp://dbpedia.org/class/yago/MemberStatesOfTheUnitedNations
p617
aVhttp://dbpedia.org/class/yago/StatesAndTerritoriesEstablishedIn1291
p618
aVhttp://dbpedia.org/class/yago/WorldTradeOrganizationMemberEconomies
p619
aVhttp://dbpedia.org/resource/Switzerland
tp620
aa(lp621
((lp622
Vhttp://www.w3.org/2002/07/owl#Thing
p623
aVhttp://dbpedia.org/ontology/Place
p624
aVhttp://dbpedia.org/ontology/Location
p625
aVhttp://www.wikidata.org/entity/Q4022
p626
aVhttp://www.wikidata.org/entity/Q47521
p627
aVhttp://dbpedia.org/ontology/BodyOfWater
p628
aVhttp://dbpedia.org/ontology/NaturalPlace
p629
aVhttp://dbpedia.org/ontology/River
p630
aVhttp://dbpedia.org/ontology/Stream
p631
aVhttp://schema.org/BodyOfWater
p632
aVhttp://schema.org/Place
p633
aVhttp://schema.org/RiverBodyOfWater
p634
aVhttp://umbel.org/umbel/rc/BodyOfWater
p635
aVhttp://umbel.org/umbel/rc/River
p636
aVhttp://umbel.org/umbel/rc/Stream
p637
aVhttp://dbpedia.org/class/yago/BodyOfWater109225146
p638
aVhttp://dbpedia.org/class/yago/Branch109228324
p639
aVhttp://dbpedia.org/class/yago/CanadianHeritageRivers
p640
aVhttp://dbpedia.org/class/yago/River109411430
p641
aVhttp://dbpedia.org/class/yago/Stream109448361
p642
aVhttp://dbpedia.org/class/yago/Thing100002452
p643
aVhttp://dbpedia.org/class/yago/YagoGeoEntity
p644
aVhttp://dbpedia.org/class/yago/Feeder109278997
p645
aVhttp://dbpedia.org/class/yago/PhysicalEntity100001930
p646
aVhttp://dbpedia.org/class/yago/YagoPermanentlyLocatedEntity
p647
aVhttp://dbpedia.org/class/yago/RiversOfOntario
p648
aVhttp://dbpedia.org/class/yago/TributariesOfLakeHuron
p649
aVhttp://dbpedia.org/resource/French_River_(Ontario)
tp650
aa(lp651
((lp652
Vhttp://www.w3.org/2002/07/owl#Thing
p653
aVhttp://dbpedia.org/ontology/Place
p654
aVhttp://dbpedia.org/ontology/Location
p655
aVhttp://www.wikidata.org/entity/Q486972
p656
aVhttp://dbpedia.org/ontology/PopulatedPlace
p657
aVhttp://dbpedia.org/ontology/Settlement
p658
aVhttp://www.w3.org/2003/01/geo/wgs84_pos#SpatialThing
p659
aVhttp://schema.org/Place
p660
aVhttp://umbel.org/umbel/rc/PopulatedPlace
p661
aVhttp://umbel.org/umbel/rc/Village
p662
aVhttp://dbpedia.org/class/yago/AdministrativeDistrict108491826
p663
aVhttp://dbpedia.org/class/yago/District108552138
p664
aVhttp://dbpedia.org/class/yago/Location100027167
p665
aVhttp://dbpedia.org/class/yago/Object100002684
p666
aVhttp://dbpedia.org/class/yago/Region108630985
p667
aVhttp://dbpedia.org/class/yago/Site108651247
p668
aVhttp://dbpedia.org/class/yago/Town108665504
p669
aVhttp://dbpedia.org/class/yago/Tract108673395
p670
aVhttp://dbpedia.org/class/yago/UrbanArea108675967
p671
aVhttp://dbpedia.org/class/yago/YagoGeoEntity
p672
aVhttp://dbpedia.org/class/yago/YagoLegalActorGeo
p673
aVhttp://dbpedia.org/class/yago/GeographicalArea108574314
p674
aVhttp://dbpedia.org/class/yago/Municipality108626283
p675
aVhttp://dbpedia.org/class/yago/PhysicalEntity100001930
p676
aVhttp://dbpedia.org/class/yago/YagoPermanentlyLocatedEntity
p677
aVhttp://dbpedia.org/class/yago/PopulatedPlacesEstablishedIn1626
p678
aVhttp://dbpedia.org/class/yago/TownsInMalta
p679
aVhttp://dbpedia.org/resource/Paola,_Malta
tp680
aa(lp681
a(lp682
((lVhttp://dbpedia.org/resource/Cinema
tp683
aa(lp684
a(lp685
aa(lp686
(lp687
a(lp688
((lp689
Vhttp://www.w3.org/2002/07/owl#Thing
p690
aVhttp://dbpedia.org/ontology/Place
p691
aVhttp://dbpedia.org/ontology/Location
p692
aVhttp://www.wikidata.org/entity/Q486972
p693
aVhttp://www.wikidata.org/entity/Q6256
p694
aVhttp://dbpedia.org/ontology/Country
p695
aVhttp://dbpedia.org/ontology/PopulatedPlace
p696
aVhttp://www.w3.org/2003/01/geo/wgs84_pos#SpatialThing
p697
aVhttp://schema.org/Country
p698
aVhttp://schema.org/Place
p699
aVhttp://umbel.org/umbel/rc/Country
p700
aVhttp://umbel.org/umbel/rc/Location_Underspecified
p701
aVhttp://umbel.org/umbel/rc/PopulatedPlace
p702
aVhttp://dbpedia.org/class/yago/Abstraction100002137
p703
aVhttp://dbpedia.org/class/yago/AdministrativeDistrict108491826
p704
aVhttp://dbpedia.org/class/yago/Country108544813
p705
aVhttp://dbpedia.org/class/yago/District108552138
p706
aVhttp://dbpedia.org/class/yago/Economy108366753
p707
aVhttp://dbpedia.org/class/yago/Group100031264
p708
aVhttp://dbpedia.org/class/yago/Location100027167
p709
aVhttp://dbpedia.org/class/yago/Object100002684
p710
aVhttp://dbpedia.org/class/yago/Region108630985
p711
aVhttp://dbpedia.org/class/yago/System108435388
p712
aVhttp://dbpedia.org/class/yago/YagoGeoEntity
p713
aVhttp://dbpedia.org/class/yago/YagoLegalActorGeo
p714
aVhttp://dbpedia.org/class/yago/CountriesBorderingTheBalticSea
p715
aVhttp://dbpedia.org/class/yago/EuropeanCountries
p716
aVhttp://dbpedia.org/class/yago/EuropeanUnionMemberEconomies
p717
aVhttp://dbpedia.org/class/yago/PhysicalEntity100001930
p718
aVhttp://dbpedia.org/class/yago/YagoPermanentlyLocatedEntity
p719
aVhttp://dbpedia.org/class/yago/MemberStatesOfTheCouncilOfEurope
p720
aVhttp://dbpedia.org/class/yago/MemberStatesOfTheEuropeanUnion
p721
aVhttp://dbpedia.org/class/yago/MemberStatesOfTheUnionForTheMediterranean
p722
aVhttp://dbpedia.org/class/yago/MemberStatesOfTheUnitedNations
p723
aVhttp://dbpedia.org/class/yago/NordicCountries
p724
aVhttp://dbpedia.org/class/yago/StatesAndTerritoriesEstablishedIn1918
p725
aVhttp://dbpedia.org/resource/Finland
tp726
aa(lp727
((lVhttp://dbpedia.org/resource/Finnish_cuisine
tp728
aa(lp729
((lp730
Vhttp://www.w3.org/2002/07/owl#Thing
p731
aVhttp://xmlns.com/foaf/0.1/Person
p732
aVhttp://dbpedia.org/ontology/Person
p733
aVhttp://www.ontologydesignpatterns.org/ont/dul/DUL.owl#Agent
p734
aVhttp://www.ontologydesignpatterns.org/ont/dul/DUL.owl#NaturalPerson
p735
aVhttp://www.wikidata.org/entity/Q215627
p736
aVhttp://www.wikidata.org/entity/Q5
p737
aVhttp://dbpedia.org/ontology/Agent
p738
aVhttp://schema.org/Person
p739
aVhttp://umbel.org/umbel/rc/Actor
p740
aVhttp://dbpedia.org/class/yago/Actor109765278
p741
aVhttp://dbpedia.org/class/yago/Artist109812338
p742
aVhttp://dbpedia.org/class/yago/CausalAgent100007347
p743
aVhttp://dbpedia.org/class/yago/Creator109614315
p744
aVhttp://dbpedia.org/class/yago/Entertainer109616922
p745
aVhttp://dbpedia.org/class/yago/LivingThing100004258
p746
aVhttp://dbpedia.org/class/yago/Musician110339966
p747
aVhttp://dbpedia.org/class/yago/Musician110340312
p748
aVhttp://dbpedia.org/class/yago/Object100002684
p749
aVhttp://dbpedia.org/class/yago/Organism100004475
p750
aVhttp://dbpedia.org/class/yago/Performer110415638
p751
aVhttp://dbpedia.org/class/yago/Person100007846
p752
aVhttp://dbpedia.org/class/yago/Singer110599806
p753
aVhttp://dbpedia.org/class/yago/Whole100003553
p754
aVhttp://dbpedia.org/class/yago/YagoLegalActorGeo
p755
aVhttp://dbpedia.org/class/yago/FinnishActors
p756
aVhttp://dbpedia.org/class/yago/FinnishSingers
p757
aVhttp://dbpedia.org/class/yago/PhysicalEntity100001930
p758
aVhttp://dbpedia.org/class/yago/LivingPeople
p759
aVhttp://dbpedia.org/class/yago/PeopleFromHelsinki
p760
aVhttp://dbpedia.org/class/yago/YagoLegalActor
p761
aVhttp://dbpedia.org/resource/Vesa-Matti_Loiri
tp762
aa(lp763
a(lp764
a(lp765
a(lp766
aa(lp767
(lp768
a(lp769
((lp770
Vhttp://www.w3.org/2002/07/owl#Thing
p771
aVhttp://umbel.org/umbel/rc/Country
p772
aVhttp://umbel.org/umbel/rc/Location_Underspecified
p773
aVhttp://umbel.org/umbel/rc/PopulatedPlace
p774
aVhttp://dbpedia.org/class/yago/Abstraction100002137
p775
aVhttp://dbpedia.org/class/yago/AdministrativeDistrict108491826
p776
aVhttp://dbpedia.org/class/yago/Country108544813
p777
aVhttp://dbpedia.org/class/yago/District108552138
p778
aVhttp://dbpedia.org/class/yago/Economy108366753
p779
aVhttp://dbpedia.org/class/yago/Group100031264
p780
aVhttp://dbpedia.org/class/yago/Location100027167
p781
aVhttp://dbpedia.org/class/yago/Object100002684
p782
aVhttp://dbpedia.org/class/yago/Region108630985
p783
aVhttp://dbpedia.org/class/yago/System108435388
p784
aVhttp://dbpedia.org/class/yago/YagoGeoEntity
p785
aVhttp://dbpedia.org/class/yago/YagoLegalActorGeo
p786
aVhttp://dbpedia.org/class/yago/CountriesBorderingTheArcticOcean
p787
aVhttp://dbpedia.org/class/yago/CountriesBorderingTheAtlanticOcean
p788
aVhttp://dbpedia.org/class/yago/EuropeanCountries
p789
aVhttp://dbpedia.org/class/yago/PhysicalEntity100001930
p790
aVhttp://dbpedia.org/class/yago/YagoPermanentlyLocatedEntity
p791
aVhttp://dbpedia.org/class/yago/MemberStatesOfNATO
p792
aVhttp://dbpedia.org/class/yago/MemberStatesOfTheUnitedNations
p793
aVhttp://dbpedia.org/class/yago/NordicCountries
p794
aVhttp://dbpedia.org/class/yago/StatesAndTerritoriesEstablishedIn1905
p795
aVhttp://dbpedia.org/class/yago/StatesAndTerritoriesEstablishedIn872
p796
aVhttp://dbpedia.org/class/yago/WorldTradeOrganizationMemberEconomies
p797
aVhttp://dbpedia.org/resource/Norway
tp798
aa(lp799
((lp800
Vhttp://www.w3.org/2002/07/owl#Thing
p801
aVhttp://dbpedia.org/ontology/Company
p802
aVhttp://www.ontologydesignpatterns.org/ont/dul/DUL.owl#Agent
p803
aVhttp://www.ontologydesignpatterns.org/ont/dul/DUL.owl#SocialPerson
p804
aVhttp://www.wikidata.org/entity/Q43229
p805
aVhttp://www.wikidata.org/entity/Q46970
p806
aVhttp://dbpedia.org/ontology/Agent
p807
aVhttp://dbpedia.org/ontology/Airline
p808
aVhttp://dbpedia.org/ontology/Organisation
p809
aVhttp://schema.org/Organization
p810
aVhttp://umbel.org/umbel/rc/AirlineCompany
p811
aVhttp://umbel.org/umbel/rc/Business
p812
aVhttp://umbel.org/umbel/rc/Organization
p813
aVhttp://dbpedia.org/class/yago/Abstraction100002137
p814
aVhttp://dbpedia.org/class/yago/Airline102690081
p815
aVhttp://dbpedia.org/class/yago/AirlinesEstablishedIn1993
p816
aVhttp://dbpedia.org/class/yago/AirlinesOfNorway
p817
aVhttp://dbpedia.org/class/yago/Business108061042
p818
aVhttp://dbpedia.org/class/yago/Carrier108057633
p819
aVhttp://dbpedia.org/class/yago/Company108058098
p820
aVhttp://dbpedia.org/class/yago/Enterprise108056231
p821
aVhttp://dbpedia.org/class/yago/Group100031264
p822
aVhttp://dbpedia.org/class/yago/Institution108053576
p823
aVhttp://dbpedia.org/class/yago/Line103671473
p824
aVhttp://dbpedia.org/class/yago/Organization108008335
p825
aVhttp://dbpedia.org/class/yago/SocialGroup107950920
p826
aVhttp://dbpedia.org/class/yago/YagoLegalActorGeo
p827
aVhttp://dbpedia.org/class/yago/CompaniesBasedInB%C3%A6rum
p828
aVhttp://dbpedia.org/class/yago/CompaniesListedOnTheOsloStockExchange
p829
aVhttp://dbpedia.org/class/yago/YagoPermanentlyLocatedEntity
p830
aVhttp://dbpedia.org/class/yago/Low-costAirlines
p831
aVhttp://dbpedia.org/class/yago/YagoLegalActor
p832
aVhttp://dbpedia.org/resource/Norwegian_Air_Shuttle
tp833
aa(lp834
a(lp835
a(lp836
((lVhttp://dbpedia.org/resource/Lappland
tp837
aa(lp838
a(lp839
aa(lp840
(lp841
a(lp842
((lp843
Vhttp://www.w3.org/2002/07/owl#Thing
p844
aVhttp://dbpedia.org/ontology/Place
p845
aVhttp://dbpedia.org/ontology/Location
p846
aVhttp://www.wikidata.org/entity/Q486972
p847
aVhttp://www.wikidata.org/entity/Q6256
p848
aVhttp://dbpedia.org/ontology/Country
p849
aVhttp://dbpedia.org/ontology/PopulatedPlace
p850
aVhttp://www.w3.org/2003/01/geo/wgs84_pos#SpatialThing
p851
aVhttp://schema.org/Country
p852
aVhttp://schema.org/Place
p853
aVhttp://umbel.org/umbel/rc/Country
p854
aVhttp://umbel.org/umbel/rc/Location_Underspecified
p855
aVhttp://umbel.org/umbel/rc/PopulatedPlace
p856
aVhttp://dbpedia.org/class/yago/Abstraction100002137
p857
aVhttp://dbpedia.org/class/yago/AdministrativeDistrict108491826
p858
aVhttp://dbpedia.org/class/yago/AlpineCountries
p859
aVhttp://dbpedia.org/class/yago/Country108544813
p860
aVhttp://dbpedia.org/class/yago/District108552138
p861
aVhttp://dbpedia.org/class/yago/Economy108366753
p862
aVhttp://dbpedia.org/class/yago/Group100031264
p863
aVhttp://dbpedia.org/class/yago/Location100027167
p864
aVhttp://dbpedia.org/class/yago/Object100002684
p865
aVhttp://dbpedia.org/class/yago/Region108630985
p866
aVhttp://dbpedia.org/class/yago/System108435388
p867
aVhttp://dbpedia.org/class/yago/YagoGeoEntity
p868
aVhttp://dbpedia.org/class/yago/YagoLegalActorGeo
p869
aVhttp://dbpedia.org/class/yago/CountriesBorderingTheAtlanticOcean
p870
aVhttp://dbpedia.org/class/yago/CountriesBorderingTheBalticSea
p871
aVhttp://dbpedia.org/class/yago/EuropeanCountries
p872
aVhttp://dbpedia.org/class/yago/EuropeanUnionMemberEconomies
p873
aVhttp://dbpedia.org/class/yago/FederalCountries
p874
aVhttp://dbpedia.org/class/yago/PhysicalEntity100001930
p875
aVhttp://dbpedia.org/class/yago/YagoPermanentlyLocatedEntity
p876
aVhttp://dbpedia.org/class/yago/German-speakingCountries
p877
aVhttp://dbpedia.org/class/yago/MemberStatesOfNATO
p878
aVhttp://dbpedia.org/class/yago/MemberStatesOfTheEuropeanUnion
p879
aVhttp://dbpedia.org/class/yago/MemberStatesOfTheUnionForTheMediterranean
p880
aVhttp://dbpedia.org/class/yago/MemberStatesOfTheUnitedNations
p881
aVhttp://dbpedia.org/class/yago/StatesAndTerritoriesEstablishedIn1871
p882
aVhttp://dbpedia.org/resource/Germany
tp883
aa(lp884
((lp885
Vhttp://www.w3.org/2002/07/owl#Thing
p886
aVhttp://dbpedia.org/ontology/Place
p887
aVhttp://dbpedia.org/ontology/Location
p888
aVhttp://www.wikidata.org/entity/Q486972
p889
aVhttp://www.wikidata.org/entity/Q6256
p890
aVhttp://dbpedia.org/ontology/Country
p891
aVhttp://dbpedia.org/ontology/PopulatedPlace
p892
aVhttp://www.w3.org/2003/01/geo/wgs84_pos#SpatialThing
p893
aVhttp://schema.org/Country
p894
aVhttp://schema.org/Place
p895
aVhttp://umbel.org/umbel/rc/Country
p896
aVhttp://umbel.org/umbel/rc/Location_Underspecified
p897
aVhttp://umbel.org/umbel/rc/PopulatedPlace
p898
aVhttp://dbpedia.org/class/yago/Abstraction100002137
p899
aVhttp://dbpedia.org/class/yago/AdministrativeDistrict108491826
p900
aVhttp://dbpedia.org/class/yago/AlpineCountries
p901
aVhttp://dbpedia.org/class/yago/Country108544813
p902
aVhttp://dbpedia.org/class/yago/District108552138
p903
aVhttp://dbpedia.org/class/yago/Economy108366753
p904
aVhttp://dbpedia.org/class/yago/Group100031264
p905
aVhttp://dbpedia.org/class/yago/Location100027167
p906
aVhttp://dbpedia.org/class/yago/Object100002684
p907
aVhttp://dbpedia.org/class/yago/Region108630985
p908
aVhttp://dbpedia.org/class/yago/System108435388
p909
aVhttp://dbpedia.org/class/yago/YagoGeoEntity
p910
aVhttp://dbpedia.org/class/yago/YagoLegalActorGeo
p911
aVhttp://dbpedia.org/class/yago/CountriesBorderingTheAtlanticOcean
p912
aVhttp://dbpedia.org/class/yago/CountriesBorderingTheBalticSea
p913
aVhttp://dbpedia.org/class/yago/EuropeanCountries
p914
aVhttp://dbpedia.org/class/yago/EuropeanUnionMemberEconomies
p915
aVhttp://dbpedia.org/class/yago/FederalCountries
p916
aVhttp://dbpedia.org/class/yago/PhysicalEntity100001930
p917
aVhttp://dbpedia.org/class/yago/YagoPermanentlyLocatedEntity
p918
aVhttp://dbpedia.org/class/yago/German-speakingCountries
p919
aVhttp://dbpedia.org/class/yago/MemberStatesOfNATO
p920
aVhttp://dbpedia.org/class/yago/MemberStatesOfTheEuropeanUnion
p921
aVhttp://dbpedia.org/class/yago/MemberStatesOfTheUnionForTheMediterranean
p922
aVhttp://dbpedia.org/class/yago/MemberStatesOfTheUnitedNations
p923
aVhttp://dbpedia.org/class/yago/StatesAndTerritoriesEstablishedIn1871
p924
aVhttp://dbpedia.org/resource/Germany
tp925
aa(lp926
a(lp927
((lVhttp://dbpedia.org/resource/Theatre
tp928
aa(lp929
((lVhttp://dbpedia.org/resource/Theatre
tp930
aa(lp931
a(lp932
aa(lp933
(lp934
a(lp935
((lp936
Vhttp://www.w3.org/2002/07/owl#Thing
p937
aVhttp://dbpedia.org/ontology/Place
p938
aVhttp://dbpedia.org/ontology/Location
p939
aVhttp://www.wikidata.org/entity/Q486972
p940
aVhttp://www.wikidata.org/entity/Q6256
p941
aVhttp://dbpedia.org/ontology/Country
p942
aVhttp://dbpedia.org/ontology/PopulatedPlace
p943
aVhttp://www.w3.org/2003/01/geo/wgs84_pos#SpatialThing
p944
aVhttp://schema.org/Country
p945
aVhttp://schema.org/Place
p946
aVhttp://umbel.org/umbel/rc/Country
p947
aVhttp://umbel.org/umbel/rc/Location_Underspecified
p948
aVhttp://umbel.org/umbel/rc/PopulatedPlace
p949
aVhttp://dbpedia.org/class/yago/Abstraction100002137
p950
aVhttp://dbpedia.org/class/yago/AdministrativeDistrict108491826
p951
aVhttp://dbpedia.org/class/yago/Country108544813
p952
aVhttp://dbpedia.org/class/yago/District108552138
p953
aVhttp://dbpedia.org/class/yago/Economy108366753
p954
aVhttp://dbpedia.org/class/yago/Group100031264
p955
aVhttp://dbpedia.org/class/yago/Location100027167
p956
aVhttp://dbpedia.org/class/yago/Object100002684
p957
aVhttp://dbpedia.org/class/yago/Region108630985
p958
aVhttp://dbpedia.org/class/yago/System108435388
p959
aVhttp://dbpedia.org/class/yago/YagoGeoEntity
p960
aVhttp://dbpedia.org/class/yago/YagoLegalActorGeo
p961
aVhttp://dbpedia.org/class/yago/CountriesBorderingTheAtlanticOcean
p962
aVhttp://dbpedia.org/class/yago/English-speakingCountriesAndTerritories
p963
aVhttp://dbpedia.org/class/yago/EuropeanCountries
p964
aVhttp://dbpedia.org/class/yago/EuropeanUnionMemberEconomies
p965
aVhttp://dbpedia.org/class/yago/PhysicalEntity100001930
p966
aVhttp://dbpedia.org/class/yago/YagoPermanentlyLocatedEntity
p967
aVhttp://dbpedia.org/class/yago/IslandCountries
p968
aVhttp://dbpedia.org/class/yago/MemberStatesOfNATO
p969
aVhttp://dbpedia.org/class/yago/MemberStatesOfTheCommonwealthOfNations
p970
aVhttp://dbpedia.org/class/yago/MemberStatesOfTheCouncilOfEurope
p971
aVhttp://dbpedia.org/class/yago/MemberStatesOfTheEuropeanUnion
p972
aVhttp://dbpedia.org/class/yago/MemberStatesOfTheUnionForTheMediterranean
p973
aVhttp://dbpedia.org/class/yago/MemberStatesOfTheUnitedNations
p974
aVhttp://dbpedia.org/resource/United_Kingdom
tp975
aa(lp976
((lp977
Vhttp://www.w3.org/2002/07/owl#Thing
p978
aVhttp://dbpedia.org/ontology/Place
p979
aVhttp://dbpedia.org/ontology/Location
p980
aVhttp://www.wikidata.org/entity/Q3957
p981
aVhttp://www.wikidata.org/entity/Q486972
p982
aVhttp://dbpedia.org/ontology/PopulatedPlace
p983
aVhttp://dbpedia.org/ontology/Settlement
p984
aVhttp://dbpedia.org/ontology/Town
p985
aVhttp://www.w3.org/2003/01/geo/wgs84_pos#SpatialThing
p986
aVhttp://schema.org/Place
p987
aVhttp://umbel.org/umbel/rc/Town
p988
aVhttp://dbpedia.org/class/yago/AdministrativeDistrict108491826
p989
aVhttp://dbpedia.org/class/yago/Area108497294
p990
aVhttp://dbpedia.org/class/yago/Center108523483
p991
aVhttp://dbpedia.org/class/yago/District108552138
p992
aVhttp://dbpedia.org/class/yago/Location100027167
p993
aVhttp://dbpedia.org/class/yago/Object100002684
p994
aVhttp://dbpedia.org/class/yago/Region108630985
p995
aVhttp://dbpedia.org/class/yago/Seat108647945
p996
aVhttp://dbpedia.org/class/yago/Site108651247
p997
aVhttp://dbpedia.org/class/yago/Town108665504
p998
aVhttp://dbpedia.org/class/yago/Tract108673395
p999
aVhttp://dbpedia.org/class/yago/UrbanArea108675967
p1000
aVhttp://dbpedia.org/class/yago/YagoGeoEntity
p1001
aVhttp://dbpedia.org/class/yago/YagoLegalActorGeo
p1002
aVhttp://dbpedia.org/class/yago/CountySeat108547143
p1003
aVhttp://dbpedia.org/class/yago/CountySeatsInIndiana
p1004
aVhttp://dbpedia.org/class/yago/GeographicalArea108574314
p1005
aVhttp://dbpedia.org/class/yago/Municipality108626283
p1006
aVhttp://dbpedia.org/class/yago/PhysicalEntity100001930
p1007
aVhttp://dbpedia.org/class/yago/YagoPermanentlyLocatedEntity
p1008
aVhttp://dbpedia.org/class/yago/PopulatedPlacesInCrawfordCounty,Indiana
p1009
aVhttp://dbpedia.org/class/yago/TownsInIndiana
p1010
aVhttp://dbpedia.org/resource/English,_Indiana
tp1011
aa(lp1012
((lp1013
Vhttp://www.w3.org/2002/07/owl#Thing
p1014
aVhttp://www.ontologydesignpatterns.org/ont/dul/DUL.owl#Agent
p1015
aVhttp://dbpedia.org/ontology/Agent
p1016
aVhttp://schema.org/MusicGroup
p1017
aVhttp://dbpedia.org/resource/Prima_donna
tp1018
aa(lp1019
a(lp1020
a(lp1021
a(lp1022
aa(lp1023
(lp1024
a(lp1025
((lp1026
Vhttp://www.w3.org/2002/07/owl#Thing
p1027
aVhttp://dbpedia.org/ontology/Place
p1028
aVhttp://dbpedia.org/ontology/Location
p1029
aVhttp://www.wikidata.org/entity/Q486972
p1030
aVhttp://www.wikidata.org/entity/Q6256
p1031
aVhttp://dbpedia.org/ontology/Country
p1032
aVhttp://dbpedia.org/ontology/PopulatedPlace
p1033
aVhttp://www.w3.org/2003/01/geo/wgs84_pos#SpatialThing
p1034
aVhttp://schema.org/Country
p1035
aVhttp://schema.org/Place
p1036
aVhttp://umbel.org/umbel/rc/Country
p1037
aVhttp://umbel.org/umbel/rc/Location_Underspecified
p1038
aVhttp://umbel.org/umbel/rc/PopulatedPlace
p1039
aVhttp://dbpedia.org/class/yago/Abstraction100002137
p1040
aVhttp://dbpedia.org/class/yago/AdministrativeDistrict108491826
p1041
aVhttp://dbpedia.org/class/yago/Country108544813
p1042
aVhttp://dbpedia.org/class/yago/District108552138
p1043
aVhttp://dbpedia.org/class/yago/Economy108366753
p1044
aVhttp://dbpedia.org/class/yago/Group100031264
p1045
aVhttp://dbpedia.org/class/yago/Location100027167
p1046
aVhttp://dbpedia.org/class/yago/Object100002684
p1047
aVhttp://dbpedia.org/class/yago/Region108630985
p1048
aVhttp://dbpedia.org/class/yago/System108435388
p1049
aVhttp://dbpedia.org/class/yago/YagoGeoEntity
p1050
aVhttp://dbpedia.org/class/yago/YagoLegalActorGeo
p1051
aVhttp://dbpedia.org/class/yago/CountriesBorderingTheAtlanticOcean
p1052
aVhttp://dbpedia.org/class/yago/EuropeanCountries
p1053
aVhttp://dbpedia.org/class/yago/EuropeanUnionMemberEconomies
p1054
aVhttp://dbpedia.org/class/yago/PhysicalEntity100001930
p1055
aVhttp://dbpedia.org/class/yago/YagoPermanentlyLocatedEntity
p1056
aVhttp://dbpedia.org/class/yago/MemberStatesOfNATO
p1057
aVhttp://dbpedia.org/class/yago/MemberStatesOfTheCommunityOfPortugueseLanguageCountries
p1058
aVhttp://dbpedia.org/class/yago/MemberStatesOfTheEuropeanUnion
p1059
aVhttp://dbpedia.org/class/yago/MemberStatesOfTheUnionForTheMediterranean
p1060
aVhttp://dbpedia.org/class/yago/MemberStatesOfTheUnitedNations
p1061
aVhttp://dbpedia.org/class/yago/Portuguese-speakingCountries
p1062
aVhttp://dbpedia.org/class/yago/WorldTradeOrganizationMemberEconomies
p1063
aVhttp://dbpedia.org/resource/Portugal
tp1064
aa(lp1065
((lp1066
Vhttp://www.w3.org/2002/07/owl#Thing
p1067
aVhttp://www.wikidata.org/entity/Q386724
p1068
aVhttp://www.wikidata.org/entity/Q5185279
p1069
aVhttp://dbpedia.org/ontology/Poem
p1070
aVhttp://dbpedia.org/ontology/Work
p1071
aVhttp://dbpedia.org/ontology/WrittenWork
p1072
aVhttp://schema.org/CreativeWork
p1073
aVhttp://dbpedia.org/class/yago/1850Poems
p1074
aVhttp://dbpedia.org/class/yago/Abstraction100002137
p1075
aVhttp://dbpedia.org/class/yago/BritishPoems
p1076
aVhttp://dbpedia.org/class/yago/Communication100033020
p1077
aVhttp://dbpedia.org/class/yago/LiteraryComposition106364329
p1078
aVhttp://dbpedia.org/class/yago/Poem106377442
p1079
aVhttp://dbpedia.org/class/yago/Writing106362953
p1080
aVhttp://dbpedia.org/class/yago/WrittenCommunication106349220
p1081
aVhttp://dbpedia.org/class/yago/Sonnet106381372
p1082
aVhttp://dbpedia.org/class/yago/Sonnets
p1083
aVhttp://dbpedia.org/resource/Sonnets_from_the_Portuguese
tp1084
aa(lp1085
((lVhttp://dbpedia.org/resource/Jos_Cid
tp1086
aa(lp1087
a(lp1088
a(lp1089
a(lp1090
aa(lp1091
(lp1092
a(lp1093
((lp1094
Vhttp://www.w3.org/2002/07/owl#Thing
p1095
aVhttp://dbpedia.org/ontology/Place
p1096
aVhttp://dbpedia.org/ontology/Location
p1097
aVhttp://www.wikidata.org/entity/Q486972
p1098
aVhttp://www.wikidata.org/entity/Q6256
p1099
aVhttp://dbpedia.org/ontology/Country
p1100
aVhttp://dbpedia.org/ontology/PopulatedPlace
p1101
aVhttp://www.w3.org/2003/01/geo/wgs84_pos#SpatialThing
p1102
aVhttp://schema.org/Country
p1103
aVhttp://schema.org/Place
p1104
aVhttp://umbel.org/umbel/rc/Country
p1105
aVhttp://umbel.org/umbel/rc/Location_Underspecified
p1106
aVhttp://umbel.org/umbel/rc/PopulatedPlace
p1107
aVhttp://dbpedia.org/class/yago/Abstraction100002137
p1108
aVhttp://dbpedia.org/class/yago/AdministrativeDistrict108491826
p1109
aVhttp://dbpedia.org/class/yago/BicontinentalCountries
p1110
aVhttp://dbpedia.org/class/yago/CaribbeanCountries
p1111
aVhttp://dbpedia.org/class/yago/Country108544813
p1112
aVhttp://dbpedia.org/class/yago/District108552138
p1113
aVhttp://dbpedia.org/class/yago/Economy108366753
p1114
aVhttp://dbpedia.org/class/yago/Group100031264
p1115
aVhttp://dbpedia.org/class/yago/Location100027167
p1116
aVhttp://dbpedia.org/class/yago/Object100002684
p1117
aVhttp://dbpedia.org/class/yago/Region108630985
p1118
aVhttp://dbpedia.org/class/yago/System108435388
p1119
aVhttp://dbpedia.org/class/yago/YagoGeoEntity
p1120
aVhttp://dbpedia.org/class/yago/YagoLegalActorGeo
p1121
aVhttp://dbpedia.org/class/yago/CountriesBorderingTheAtlanticOcean
p1122
aVhttp://dbpedia.org/class/yago/Dutch-speakingCountries
p1123
aVhttp://dbpedia.org/class/yago/EuropeanCountries
p1124
aVhttp://dbpedia.org/class/yago/EuropeanUnionMemberEconomies
p1125
aVhttp://dbpedia.org/class/yago/PhysicalEntity100001930
p1126
aVhttp://dbpedia.org/class/yago/YagoPermanentlyLocatedEntity
p1127
aVhttp://dbpedia.org/class/yago/MemberStatesOfNATO
p1128
aVhttp://dbpedia.org/class/yago/MemberStatesOfTheDutchLanguageUnion
p1129
aVhttp://dbpedia.org/class/yago/MemberStatesOfTheEuropeanUnion
p1130
aVhttp://dbpedia.org/class/yago/MemberStatesOfTheUnionForTheMediterranean
p1131
aVhttp://dbpedia.org/resource/Netherlands
tp1132
aa(lp1133
((lp1134
Vhttp://www.w3.org/2002/07/owl#Thing
p1135
aVhttp://xmlns.com/foaf/0.1/Person
p1136
aVhttp://dbpedia.org/ontology/Person
p1137
aVhttp://www.ontologydesignpatterns.org/ont/dul/DUL.owl#Agent
p1138
aVhttp://www.ontologydesignpatterns.org/ont/dul/DUL.owl#NaturalPerson
p1139
aVhttp://www.wikidata.org/entity/Q215627
p1140
aVhttp://www.wikidata.org/entity/Q5
p1141
aVhttp://dbpedia.org/ontology/Agent
p1142
aVhttp://dbpedia.org/ontology/Athlete
p1143
aVhttp://dbpedia.org/ontology/PokerPlayer
p1144
aVhttp://schema.org/Person
p1145
aVhttp://umbel.org/umbel/rc/PersonWithOccupation
p1146
aVhttp://dbpedia.org/class/yago/AmericanPokerPlayers
p1147
aVhttp://dbpedia.org/class/yago/CausalAgent100007347
p1148
aVhttp://dbpedia.org/class/yago/Contestant109613191
p1149
aVhttp://dbpedia.org/class/yago/LivingThing100004258
p1150
aVhttp://dbpedia.org/class/yago/Object100002684
p1151
aVhttp://dbpedia.org/class/yago/Organism100004475
p1152
aVhttp://dbpedia.org/class/yago/Person100007846
p1153
aVhttp://dbpedia.org/class/yago/Player110439851
p1154
aVhttp://dbpedia.org/class/yago/Whole100003553
p1155
aVhttp://dbpedia.org/class/yago/YagoLegalActorGeo
p1156
aVhttp://dbpedia.org/class/yago/PhysicalEntity100001930
p1157
aVhttp://dbpedia.org/class/yago/LivingPeople
p1158
aVhttp://dbpedia.org/class/yago/PeopleWithBipolarDisorder
p1159
aVhttp://dbpedia.org/class/yago/YagoLegalActor
p1160
aVhttp://dbpedia.org/resource/Dutch_Boyd
tp1161
aa(lp1162
a(lp1163
((lp1164
Vhttp://www.w3.org/2002/07/owl#Thing
p1165
aVhttp://dbpedia.org/ontology/Place
p1166
aVhttp://dbpedia.org/ontology/Location
p1167
aVhttp://www.wikidata.org/entity/Q486972
p1168
aVhttp://www.wikidata.org/entity/Q515
p1169
aVhttp://dbpedia.org/ontology/City
p1170
aVhttp://dbpedia.org/ontology/PopulatedPlace
p1171
aVhttp://dbpedia.org/ontology/Settlement
p1172
aVhttp://www.w3.org/2003/01/geo/wgs84_pos#SpatialThing
p1173
aVhttp://schema.org/City
p1174
aVhttp://schema.org/Place
p1175
aVhttp://umbel.org/umbel/rc/City
p1176
aVhttp://umbel.org/umbel/rc/Location_Underspecified
p1177
aVhttp://umbel.org/umbel/rc/PopulatedPlace
p1178
aVhttp://umbel.org/umbel/rc/Village
p1179
aVhttp://dbpedia.org/class/yago/1928SummerOlympicVenues
p1180
aVhttp://dbpedia.org/class/yago/AdministrativeDistrict108491826
p1181
aVhttp://dbpedia.org/class/yago/Area108497294
p1182
aVhttp://dbpedia.org/class/yago/Capital108518505
p1183
aVhttp://dbpedia.org/class/yago/CapitalsInEurope
p1184
aVhttp://dbpedia.org/class/yago/Center108523483
p1185
aVhttp://dbpedia.org/class/yago/City108524735
p1186
aVhttp://dbpedia.org/class/yago/District108552138
p1187
aVhttp://dbpedia.org/class/yago/Location100027167
p1188
aVhttp://dbpedia.org/class/yago/Object100002684
p1189
aVhttp://dbpedia.org/class/yago/Region108630985
p1190
aVhttp://dbpedia.org/class/yago/Seat108647945
p1191
aVhttp://dbpedia.org/class/yago/Site108651247
p1192
aVhttp://dbpedia.org/class/yago/Tract108673395
p1193
aVhttp://dbpedia.org/class/yago/UrbanArea108675967
p1194
aVhttp://dbpedia.org/class/yago/Venue108677628
p1195
aVhttp://dbpedia.org/class/yago/YagoGeoEntity
p1196
aVhttp://dbpedia.org/class/yago/YagoLegalActorGeo
p1197
aVhttp://dbpedia.org/class/yago/CitiesInTheNetherlands
p1198
aVhttp://dbpedia.org/class/yago/EuropeanCapitalsOfCulture
p1199
aVhttp://dbpedia.org/class/yago/GeographicalArea108574314
p1200
aVhttp://dbpedia.org/class/yago/Municipality108626283
p1201
aVhttp://dbpedia.org/class/yago/PhysicalEntity100001930
p1202
aVhttp://dbpedia.org/class/yago/Scene108645963
p1203
aVhttp://dbpedia.org/class/yago/YagoPermanentlyLocatedEntity
p1204
aVhttp://dbpedia.org/class/yago/HostCitiesOfTheSummerOlympicGames
p1205
aVhttp://dbpedia.org/class/yago/PopulatedPlacesEstablishedInThe13thCentury
p1206
aVhttp://dbpedia.org/class/yago/PopulatedPlacesInNorthHolland
p1207
aVhttp://dbpedia.org/class/yago/PortCitiesAndTownsInTheNetherlands
p1208
aVhttp://dbpedia.org/class/yago/PortCitiesAndTownsOfTheNorthSea
p1209
aVhttp://dbpedia.org/resource/Amsterdam
tp1210
aa(lp1211
a(lp1212
a(lp1213
aa(lp1214
(lp1215
a(lp1216
((lp1217
Vhttp://www.w3.org/2002/07/owl#Thing
p1218
aVhttp://umbel.org/umbel/rc/Business
p1219
aVhttp://umbel.org/umbel/rc/Organization
p1220
aVhttp://dbpedia.org/resource/France_2
tp1221
aa(lp1222
((lp1223
Vhttp://www.w3.org/2002/07/owl#Thing
p1224
aVhttp://dbpedia.org/ontology/Place
p1225
aVhttp://dbpedia.org/ontology/Location
p1226
aVhttp://www.wikidata.org/entity/Q4022
p1227
aVhttp://www.wikidata.org/entity/Q47521
p1228
aVhttp://dbpedia.org/ontology/BodyOfWater
p1229
aVhttp://dbpedia.org/ontology/NaturalPlace
p1230
aVhttp://dbpedia.org/ontology/River
p1231
aVhttp://dbpedia.org/ontology/Stream
p1232
aVhttp://schema.org/BodyOfWater
p1233
aVhttp://schema.org/Place
p1234
aVhttp://schema.org/RiverBodyOfWater
p1235
aVhttp://umbel.org/umbel/rc/BodyOfWater
p1236
aVhttp://umbel.org/umbel/rc/River
p1237
aVhttp://umbel.org/umbel/rc/Stream
p1238
aVhttp://dbpedia.org/class/yago/BodyOfWater109225146
p1239
aVhttp://dbpedia.org/class/yago/Branch109228324
p1240
aVhttp://dbpedia.org/class/yago/CanadianHeritageRivers
p1241
aVhttp://dbpedia.org/class/yago/River109411430
p1242
aVhttp://dbpedia.org/class/yago/Stream109448361
p1243
aVhttp://dbpedia.org/class/yago/Thing100002452
p1244
aVhttp://dbpedia.org/class/yago/YagoGeoEntity
p1245
aVhttp://dbpedia.org/class/yago/Feeder109278997
p1246
aVhttp://dbpedia.org/class/yago/PhysicalEntity100001930
p1247
aVhttp://dbpedia.org/class/yago/YagoPermanentlyLocatedEntity
p1248
aVhttp://dbpedia.org/class/yago/RiversOfOntario
p1249
aVhttp://dbpedia.org/class/yago/TributariesOfLakeHuron
p1250
aVhttp://dbpedia.org/resource/French_River_(Ontario)
tp1251
aa(lp1252
((lp1253
Vhttp://dbpedia.org/class/yago/Artifact100021939
p1254
aVhttp://dbpedia.org/class/yago/AustrianMagazines
p1255
aVhttp://dbpedia.org/class/yago/Creation103129123
p1256
aVhttp://dbpedia.org/class/yago/Magazine106595351
p1257
aVhttp://dbpedia.org/class/yago/Medium106254669
p1258
aVhttp://dbpedia.org/class/yago/NewsMagazine106596474
p1259
aVhttp://dbpedia.org/class/yago/Object100002684
p1260
aVhttp://dbpedia.org/class/yago/Product104007894
p1261
aVhttp://dbpedia.org/class/yago/Publication106589574
p1262
aVhttp://dbpedia.org/class/yago/Whole100003553
p1263
aVhttp://dbpedia.org/class/yago/Instrumentality103575240
p1264
aVhttp://dbpedia.org/class/yago/PhysicalEntity100001930
p1265
aVhttp://dbpedia.org/class/yago/Press106263369
p1266
aVhttp://dbpedia.org/class/yago/Work104599396
p1267
aVhttp://dbpedia.org/class/yago/German-languageMagazines
p1268
aVhttp://dbpedia.org/class/yago/MagazinesEstablishedIn1970
p1269
aVhttp://dbpedia.org/class/yago/PrintMedia106263609
p1270
aVhttp://dbpedia.org/class/yago/NewsMagazines
p1271
aVhttp://dbpedia.org/resource/Profil_(magazine)
tp1272
aa(lp1273
a(lp1274
a(lp1275
a(lp1276
aa(lp1277
(lp1278
a(lp1279
((lp1280
Vhttp://www.w3.org/2002/07/owl#Thing
p1281
aVhttp://dbpedia.org/ontology/Place
p1282
aVhttp://dbpedia.org/ontology/Location
p1283
aVhttp://www.wikidata.org/entity/Q23442
p1284
aVhttp://www.wikidata.org/entity/Q486972
p1285
aVhttp://dbpedia.org/ontology/Island
p1286
aVhttp://dbpedia.org/ontology/PopulatedPlace
p1287
aVhttp://schema.org/Place
p1288
aVhttp://umbel.org/umbel/rc/Island
p1289
aVhttp://umbel.org/umbel/rc/Location_Underspecified
p1290
aVhttp://umbel.org/umbel/rc/PopulatedPlace
p1291
aVhttp://dbpedia.org/class/yago/Island109316454
p1292
aVhttp://dbpedia.org/class/yago/Land109334396
p1293
aVhttp://dbpedia.org/class/yago/Location100027167
p1294
aVhttp://dbpedia.org/class/yago/Object100002684
p1295
aVhttp://dbpedia.org/class/yago/Region108630039
p1296
aVhttp://dbpedia.org/class/yago/YagoGeoEntity
p1297
aVhttp://dbpedia.org/class/yago/YagoLegalActorGeo
p1298
aVhttp://dbpedia.org/class/yago/DividedRegions
p1299
aVhttp://dbpedia.org/class/yago/PhysicalEntity100001930
p1300
aVhttp://dbpedia.org/class/yago/YagoPermanentlyLocatedEntity
p1301
aVhttp://dbpedia.org/class/yago/InternationalIslands
p1302
aVhttp://dbpedia.org/resource/Ireland
tp1303
aa(lp1304
((lp1305
Vhttp://www.w3.org/2002/07/owl#Thing
p1306
aVhttp://dbpedia.org/ontology/Place
p1307
aVhttp://dbpedia.org/ontology/Location
p1308
aVhttp://www.wikidata.org/entity/Q3957
p1309
aVhttp://www.wikidata.org/entity/Q486972
p1310
aVhttp://dbpedia.org/ontology/PopulatedPlace
p1311
aVhttp://dbpedia.org/ontology/Settlement
p1312
aVhttp://dbpedia.org/ontology/Town
p1313
aVhttp://www.w3.org/2003/01/geo/wgs84_pos#SpatialThing
p1314
aVhttp://schema.org/Place
p1315
aVhttp://umbel.org/umbel/rc/Town
p1316
aVhttp://dbpedia.org/class/yago/AdministrativeDistrict108491826
p1317
aVhttp://dbpedia.org/class/yago/Area108497294
p1318
aVhttp://dbpedia.org/class/yago/Center108523483
p1319
aVhttp://dbpedia.org/class/yago/District108552138
p1320
aVhttp://dbpedia.org/class/yago/Location100027167
p1321
aVhttp://dbpedia.org/class/yago/Object100002684
p1322
aVhttp://dbpedia.org/class/yago/Region108630985
p1323
aVhttp://dbpedia.org/class/yago/Seat108647945
p1324
aVhttp://dbpedia.org/class/yago/Site108651247
p1325
aVhttp://dbpedia.org/class/yago/Town108665504
p1326
aVhttp://dbpedia.org/class/yago/Tract108673395
p1327
aVhttp://dbpedia.org/class/yago/UrbanArea108675967
p1328
aVhttp://dbpedia.org/class/yago/YagoGeoEntity
p1329
aVhttp://dbpedia.org/class/yago/YagoLegalActorGeo
p1330
aVhttp://dbpedia.org/class/yago/CountySeat108547143
p1331
aVhttp://dbpedia.org/class/yago/CountySeatsInIndiana
p1332
aVhttp://dbpedia.org/class/yago/GeographicalArea108574314
p1333
aVhttp://dbpedia.org/class/yago/Municipality108626283
p1334
aVhttp://dbpedia.org/class/yago/PhysicalEntity100001930
p1335
aVhttp://dbpedia.org/class/yago/YagoPermanentlyLocatedEntity
p1336
aVhttp://dbpedia.org/class/yago/PopulatedPlacesInCrawfordCounty,Indiana
p1337
aVhttp://dbpedia.org/class/yago/TownsInIndiana
p1338
aVhttp://dbpedia.org/resource/English,_Indiana
tp1339
aa(lp1340
((lp1341
Vhttp://www.w3.org/2002/07/owl#Thing
p1342
aVhttp://xmlns.com/foaf/0.1/Person
p1343
aVhttp://dbpedia.org/ontology/Person
p1344
aVhttp://www.ontologydesignpatterns.org/ont/dul/DUL.owl#Agent
p1345
aVhttp://www.ontologydesignpatterns.org/ont/dul/DUL.owl#NaturalPerson
p1346
aVhttp://www.wikidata.org/entity/Q215627
p1347
aVhttp://www.wikidata.org/entity/Q3665646
p1348
aVhttp://www.wikidata.org/entity/Q5
p1349
aVhttp://dbpedia.org/ontology/Agent
p1350
aVhttp://dbpedia.org/ontology/Athlete
p1351
aVhttp://dbpedia.org/ontology/BasketballPlayer
p1352
aVhttp://schema.org/Person
p1353
aVhttp://dbpedia.org/class/yago/AmericanBasketballCoaches
p1354
aVhttp://dbpedia.org/class/yago/AmericanBasketballPlayers
p1355
aVhttp://dbpedia.org/class/yago/Athlete109820263
p1356
aVhttp://dbpedia.org/class/yago/BasketballCoach109841955
p1357
aVhttp://dbpedia.org/class/yago/BasketballPlayer109842047
p1358
aVhttp://dbpedia.org/class/yago/CausalAgent100007347
p1359
aVhttp://dbpedia.org/class/yago/Coach109931640
p1360
aVhttp://dbpedia.org/class/yago/Contestant109613191
p1361
aVhttp://dbpedia.org/class/yago/Leader109623038
p1362
aVhttp://dbpedia.org/class/yago/LivingThing100004258
p1363
aVhttp://dbpedia.org/class/yago/Object100002684
p1364
aVhttp://dbpedia.org/class/yago/Organism100004475
p1365
aVhttp://dbpedia.org/class/yago/Person100007846
p1366
aVhttp://dbpedia.org/class/yago/Player110439851
p1367
aVhttp://dbpedia.org/class/yago/Trainer110722575
p1368
aVhttp://dbpedia.org/class/yago/Whole100003553
p1369
aVhttp://dbpedia.org/class/yago/YagoLegalActorGeo
p1370
aVhttp://dbpedia.org/class/yago/PhysicalEntity100001930
p1371
aVhttp://dbpedia.org/class/yago/IndianaHoosiersMen'sBasketballPlayers
p1372
aVhttp://dbpedia.org/class/yago/NationalBasketballAssociationHeadCoaches
p1373
aVhttp://dbpedia.org/class/yago/YagoLegalActor
p1374
aVhttp://dbpedia.org/class/yago/St.LouisBombers(NBA)Players
p1375
aVhttp://dbpedia.org/class/yago/Tri-CitiesBlackhawksHeadCoaches
p1376
aVhttp://dbpedia.org/class/yago/Tri-CitiesBlackhawksPlayers
p1377
aVhttp://dbpedia.org/resource/Johnny_Logan_(basketball)
tp1378
aa(lp1379
a(lp1380
a(lp1381
a(lp1382
aa(lp1383
(lp1384
a(lp1385
((lp1386
Vhttp://www.w3.org/2002/07/owl#Thing
p1387
aVhttp://dbpedia.org/ontology/Place
p1388
aVhttp://dbpedia.org/ontology/Location
p1389
aVhttp://www.wikidata.org/entity/Q486972
p1390
aVhttp://www.wikidata.org/entity/Q6256
p1391
aVhttp://dbpedia.org/ontology/Country
p1392
aVhttp://dbpedia.org/ontology/PopulatedPlace
p1393
aVhttp://www.w3.org/2003/01/geo/wgs84_pos#SpatialThing
p1394
aVhttp://schema.org/Country
p1395
aVhttp://schema.org/Place
p1396
aVhttp://umbel.org/umbel/rc/Country
p1397
aVhttp://umbel.org/umbel/rc/Location_Underspecified
p1398
aVhttp://umbel.org/umbel/rc/PopulatedPlace
p1399
aVhttp://dbpedia.org/class/yago/Abstraction100002137
p1400
aVhttp://dbpedia.org/class/yago/AdministrativeDistrict108491826
p1401
aVhttp://dbpedia.org/class/yago/BicontinentalCountries
p1402
aVhttp://dbpedia.org/class/yago/Country108544813
p1403
aVhttp://dbpedia.org/class/yago/District108552138
p1404
aVhttp://dbpedia.org/class/yago/Economy108366753
p1405
aVhttp://dbpedia.org/class/yago/Group100031264
p1406
aVhttp://dbpedia.org/class/yago/Location100027167
p1407
aVhttp://dbpedia.org/class/yago/Object100002684
p1408
aVhttp://dbpedia.org/class/yago/Region108630985
p1409
aVhttp://dbpedia.org/class/yago/System108435388
p1410
aVhttp://dbpedia.org/class/yago/YagoGeoEntity
p1411
aVhttp://dbpedia.org/class/yago/YagoLegalActorGeo
p1412
aVhttp://dbpedia.org/class/yago/CountriesBorderingTheAtlanticOcean
p1413
aVhttp://dbpedia.org/class/yago/CountriesOfTheMediterraneanSea
p1414
aVhttp://dbpedia.org/class/yago/EuropeanCountries
p1415
aVhttp://dbpedia.org/class/yago/EuropeanUnionMemberEconomies
p1416
aVhttp://dbpedia.org/class/yago/PhysicalEntity100001930
p1417
aVhttp://dbpedia.org/class/yago/YagoPermanentlyLocatedEntity
p1418
aVhttp://dbpedia.org/class/yago/MemberStatesOfNATO
p1419
aVhttp://dbpedia.org/class/yago/MemberStatesOfTheEuropeanUnion
p1420
aVhttp://dbpedia.org/class/yago/MemberStatesOfTheUnionForTheMediterranean
p1421
aVhttp://dbpedia.org/class/yago/MemberStatesOfTheUnitedNations
p1422
aVhttp://dbpedia.org/class/yago/Spanish-speakingCountries
p1423
aVhttp://dbpedia.org/class/yago/WorldTradeOrganizationMemberEconomies
p1424
aVhttp://dbpedia.org/resource/Spain
tp1425
aa(lp1426
((lp1427
Vhttp://www.w3.org/2002/07/owl#Thing
p1428
aVhttp://dbpedia.org/ontology/Place
p1429
aVhttp://dbpedia.org/ontology/Location
p1430
aVhttp://www.wikidata.org/entity/Q3957
p1431
aVhttp://www.wikidata.org/entity/Q486972
p1432
aVhttp://dbpedia.org/ontology/PopulatedPlace
p1433
aVhttp://dbpedia.org/ontology/Settlement
p1434
aVhttp://dbpedia.org/ontology/Town
p1435
aVhttp://www.w3.org/2003/01/geo/wgs84_pos#SpatialThing
p1436
aVhttp://schema.org/Place
p1437
aVhttp://dbpedia.org/class/yago/AdministrativeDistrict108491826
p1438
aVhttp://dbpedia.org/class/yago/District108552138
p1439
aVhttp://dbpedia.org/class/yago/Location100027167
p1440
aVhttp://dbpedia.org/class/yago/Object100002684
p1441
aVhttp://dbpedia.org/class/yago/Region108630985
p1442
aVhttp://dbpedia.org/class/yago/Town108665504
p1443
aVhttp://dbpedia.org/class/yago/UrbanArea108675967
p1444
aVhttp://dbpedia.org/class/yago/YagoGeoEntity
p1445
aVhttp://dbpedia.org/class/yago/YagoLegalActorGeo
p1446
aVhttp://dbpedia.org/class/yago/GeographicalArea108574314
p1447
aVhttp://dbpedia.org/class/yago/Municipality108626283
p1448
aVhttp://dbpedia.org/class/yago/PhysicalEntity100001930
p1449
aVhttp://dbpedia.org/class/yago/YagoPermanentlyLocatedEntity
p1450
aVhttp://dbpedia.org/class/yago/MunicipalitiesInAlgomaDistrict
p1451
aVhttp://dbpedia.org/class/yago/TownsInOntario
p1452
aVhttp://dbpedia.org/resource/Spanish,_Ontario
tp1453
aa(lp1454
a(lp1455
((lp1456
Vhttp://www.w3.org/2002/07/owl#Thing
p1457
aVhttp://www.wikidata.org/entity/Q2188189
p1458
aVhttp://www.wikidata.org/entity/Q386724
p1459
aVhttp://dbpedia.org/ontology/EurovisionSongContestEntry
p1460
aVhttp://dbpedia.org/ontology/MusicalWork
p1461
aVhttp://dbpedia.org/ontology/Song
p1462
aVhttp://dbpedia.org/ontology/Work
p1463
aVhttp://schema.org/CreativeWork
p1464
aVhttp://schema.org/MusicRecording
p1465
aVhttp://umbel.org/umbel/rc/MusicalComposition_Song
p1466
aVhttp://dbpedia.org/class/yago/1980Songs
p1467
aVhttp://dbpedia.org/class/yago/Abstraction100002137
p1468
aVhttp://dbpedia.org/class/yago/AuditoryCommunication107109019
p1469
aVhttp://dbpedia.org/class/yago/Communication100033020
p1470
aVhttp://dbpedia.org/class/yago/Music107020895
p1471
aVhttp://dbpedia.org/class/yago/MusicalComposition107037465
p1472
aVhttp://dbpedia.org/class/yago/Song107048000
p1473
aVhttp://dbpedia.org/class/yago/EurovisionSongsOf1980
p1474
aVhttp://dbpedia.org/class/yago/EurovisionSongsOfSpain
p1475
aVhttp://dbpedia.org/resource/Qu%C3%A9date_esta_noche
tp1476
aa(lp1477
a(lp1478
a(lp1479
aa(lp1480
(lp1481
a(lp1482
((lp1483
Vhttp://www.w3.org/2002/07/owl#Thing
p1484
aVhttp://dbpedia.org/ontology/Place
p1485
aVhttp://dbpedia.org/ontology/Location
p1486
aVhttp://www.wikidata.org/entity/Q486972
p1487
aVhttp://www.wikidata.org/entity/Q6256
p1488
aVhttp://dbpedia.org/ontology/Country
p1489
aVhttp://dbpedia.org/ontology/PopulatedPlace
p1490
aVhttp://www.w3.org/2003/01/geo/wgs84_pos#SpatialThing
p1491
aVhttp://schema.org/Country
p1492
aVhttp://schema.org/Place
p1493
aVhttp://umbel.org/umbel/rc/Country
p1494
aVhttp://umbel.org/umbel/rc/Location_Underspecified
p1495
aVhttp://umbel.org/umbel/rc/PopulatedPlace
p1496
aVhttp://dbpedia.org/class/yago/Abstraction100002137
p1497
aVhttp://dbpedia.org/class/yago/AdministrativeDistrict108491826
p1498
aVhttp://dbpedia.org/class/yago/Country108544813
p1499
aVhttp://dbpedia.org/class/yago/District108552138
p1500
aVhttp://dbpedia.org/class/yago/Economy108366753
p1501
aVhttp://dbpedia.org/class/yago/Group100031264
p1502
aVhttp://dbpedia.org/class/yago/Location100027167
p1503
aVhttp://dbpedia.org/class/yago/Object100002684
p1504
aVhttp://dbpedia.org/class/yago/Region108630985
p1505
aVhttp://dbpedia.org/class/yago/System108435388
p1506
aVhttp://dbpedia.org/class/yago/YagoGeoEntity
p1507
aVhttp://dbpedia.org/class/yago/YagoLegalActorGeo
p1508
aVhttp://dbpedia.org/class/yago/CountriesBorderingTheAtlanticOcean
p1509
aVhttp://dbpedia.org/class/yago/Dutch-speakingCountries
p1510
aVhttp://dbpedia.org/class/yago/EuropeanCountries
p1511
aVhttp://dbpedia.org/class/yago/EuropeanUnionMemberEconomies
p1512
aVhttp://dbpedia.org/class/yago/FederalCountries
p1513
aVhttp://dbpedia.org/class/yago/French-speakingCountries
p1514
aVhttp://dbpedia.org/class/yago/PhysicalEntity100001930
p1515
aVhttp://dbpedia.org/class/yago/YagoPermanentlyLocatedEntity
p1516
aVhttp://dbpedia.org/class/yago/German-speakingCountries
p1517
aVhttp://dbpedia.org/class/yago/MemberStatesOfLaFrancophonie
p1518
aVhttp://dbpedia.org/class/yago/MemberStatesOfNATO
p1519
aVhttp://dbpedia.org/class/yago/MemberStatesOfTheCouncilOfEurope
p1520
aVhttp://dbpedia.org/class/yago/MemberStatesOfTheDutchLanguageUnion
p1521
aVhttp://dbpedia.org/class/yago/MemberStatesOfTheEuropeanUnion
p1522
aVhttp://dbpedia.org/class/yago/MemberStatesOfTheUnionForTheMediterranean
p1523
aVhttp://dbpedia.org/class/yago/MemberStatesOfTheUnitedNations
p1524
aVhttp://dbpedia.org/class/yago/StatesAndTerritoriesEstablishedIn1830
p1525
aVhttp://dbpedia.org/resource/Belgium
tp1526
aa(lp1527
((lp1528
Vhttp://www.w3.org/2002/07/owl#Thing
p1529
aVhttp://dbpedia.org/ontology/Place
p1530
aVhttp://dbpedia.org/ontology/Location
p1531
aVhttp://www.wikidata.org/entity/Q4022
p1532
aVhttp://www.wikidata.org/entity/Q47521
p1533
aVhttp://dbpedia.org/ontology/BodyOfWater
p1534
aVhttp://dbpedia.org/ontology/NaturalPlace
p1535
aVhttp://dbpedia.org/ontology/River
p1536
aVhttp://dbpedia.org/ontology/Stream
p1537
aVhttp://schema.org/BodyOfWater
p1538
aVhttp://schema.org/Place
p1539
aVhttp://schema.org/RiverBodyOfWater
p1540
aVhttp://umbel.org/umbel/rc/BodyOfWater
p1541
aVhttp://umbel.org/umbel/rc/River
p1542
aVhttp://umbel.org/umbel/rc/Stream
p1543
aVhttp://dbpedia.org/class/yago/BodyOfWater109225146
p1544
aVhttp://dbpedia.org/class/yago/Branch109228324
p1545
aVhttp://dbpedia.org/class/yago/CanadianHeritageRivers
p1546
aVhttp://dbpedia.org/class/yago/River109411430
p1547
aVhttp://dbpedia.org/class/yago/Stream109448361
p1548
aVhttp://dbpedia.org/class/yago/Thing100002452
p1549
aVhttp://dbpedia.org/class/yago/YagoGeoEntity
p1550
aVhttp://dbpedia.org/class/yago/Feeder109278997
p1551
aVhttp://dbpedia.org/class/yago/PhysicalEntity100001930
p1552
aVhttp://dbpedia.org/class/yago/YagoPermanentlyLocatedEntity
p1553
aVhttp://dbpedia.org/class/yago/RiversOfOntario
p1554
aVhttp://dbpedia.org/class/yago/TributariesOfLakeHuron
p1555
aVhttp://dbpedia.org/resource/French_River_(Ontario)
tp1556
aa(lp1557
((lVhttp://dbpedia.org/resource/Telex
p1558
tp1559
aa(lp1560
a(lp1561
a(lp1562
a(lp1563
aa.