ccollections
defaultdict
p1
(c__builtin__
dict
p2
tRp3
I0
(dp4
I1
(lp5
sI2
(lp6
Vhttp://dbpedia.org/ontology/abstract
p7
aVhttp://www.w3.org/2000/01/rdf-schema#comment
p8
asI3
(lp9
sI4
(lp10
Vhttp://dbpedia.org/property/placeOfDeath
p11
aVhttp://www.w3.org/2000/01/rdf-schema#comment
p12
aVhttp://dbpedia.org/ontology/residence
p13
aVhttp://dbpedia.org/ontology/abstract
p14
aVhttp://dbpedia.org/property/deathPlace
p15
aVhttp://dbpedia.org/property/residence
p16
aVhttp://dbpedia.org/ontology/deathPlace
p17
assI4
(dp18
I1
(lp19
sI2
(lp20
Vhttp://dbpedia.org/ontology/abstract
p21
aVhttp://www.w3.org/2000/01/rdf-schema#comment
p22
asI3
(lp23
sI4
(lp24
Vhttp://dbpedia.org/ontology/abstract
p25
assI8
(dp26
I1
(lp27
sI2
(lp28
sI3
(lp29
sI4
(lp30
Vhttp://dbpedia.org/ontology/abstract
p31
aVhttp://www.w3.org/2000/01/rdf-schema#comment
p32
assI10
(dp33
I1
(lp34
sI2
(lp35
Vhttp://dbpedia.org/ontology/wikiPageExternalLink
p36
aVhttp://dbpedia.org/property/industry
p37
aVhttp://www.w3.org/2000/01/rdf-schema#comment
p38
aVhttp://dbpedia.org/property/currentowner
p39
aVhttp://dbpedia.org/ontology/abstract
p40
aVhttp://dbpedia.org/ontology/wikiPageRedirects
p41
aVhttp://dbpedia.org/property/previousowners
p42
asI3
(lp43
sI4
(lp44
Vhttp://dbpedia.org/ontology/abstract
p45
aVhttp://dbpedia.org/property/location
p46
aVhttp://www.w3.org/2000/01/rdf-schema#comment
p47
assI16
(dp48
I1
(lp49
sI2
(lp50
sI3
(lp51
sI4
(lp52
Vhttp://dbpedia.org/ontology/abstract
p53
aVhttp://www.w3.org/2000/01/rdf-schema#comment
p54
assI19
(dp55
I1
(lp56
sI2
(lp57
sI3
(lp58
Vhttp://www.w3.org/1999/02/22-rdf-syntax-ns#type
p59
asI4
(lp60
Vhttp://dbpedia.org/ontology/abstract
p61
aVhttp://dbpedia.org/property/location
p62
aVhttp://www.w3.org/2000/01/rdf-schema#comment
p63
ass.