(lp1
(lp2
(lp3
Vhttp://dbpedia.org/resource/Canada
p4
aa(lp5
a(lp6
aa(lp7
(lp8
Vhttp://dbpedia.org/resource/Czech_Republic
p9
aa(lp10
a(lp11
aa(lp12
(lp13
Vhttp://dbpedia.org/resource/Germany
p14
aa(lp15
a(lp16
aa(lp17
(lp18
Vhttp://dbpedia.org/resource/Italy
p19
aa(lp20
a(lp21
aa(lp22
(lp23
Vhttp://dbpedia.org/resource/Poland
p24
aa(lp25
a(lp26
aa(lp27
(lp28
Vhttp://dbpedia.org/resource/Portugal
p29
aa(lp30
a(lp31
aa(lp32
(lp33
Vhttp://dbpedia.org/resource/Romania
p34
aa(lp35
a(lp36
aa(lp37
(lp38
Vhttp://dbpedia.org/resource/Slovakia
p39
aa(lp40
Vhttp://dbpedia.org/resource/Columbus,_Ohio
p41
aa(lp42
aa(lp43
(lp44
Vhttp://dbpedia.org/resource/Slovenia
p45
aa(lp46
a(lp47
aa(lp48
(lp49
Vhttp://dbpedia.org/resource/Taiwan
p50
aa(lp51
a(lp52
aa.