(lp1
(lp2
(lp3
((lp4
Vhttp://www.w3.org/2002/07/owl#Thing
p5
aVhttp://dbpedia.org/ontology/Place
p6
aVhttp://dbpedia.org/ontology/Location
p7
aVhttp://www.wikidata.org/entity/Q486972
p8
aVhttp://www.wikidata.org/entity/Q6256
p9
aVhttp://dbpedia.org/ontology/Country
p10
aVhttp://dbpedia.org/ontology/PopulatedPlace
p11
aVhttp://www.w3.org/2003/01/geo/wgs84_pos#SpatialThing
p12
aVhttp://schema.org/Country
p13
aVhttp://schema.org/Place
p14
aVhttp://umbel.org/umbel/rc/Country
p15
aVhttp://umbel.org/umbel/rc/Location_Underspecified
p16
aVhttp://umbel.org/umbel/rc/PopulatedPlace
p17
aVhttp://dbpedia.org/class/yago/Abstraction100002137
p18
aVhttp://dbpedia.org/class/yago/AdministrativeDistrict108491826
p19
aVhttp://dbpedia.org/class/yago/Country108544813
p20
aVhttp://dbpedia.org/class/yago/District108552138
p21
aVhttp://dbpedia.org/class/yago/Economy108366753
p22
aVhttp://dbpedia.org/class/yago/Group100031264
p23
aVhttp://dbpedia.org/class/yago/Location100027167
p24
aVhttp://dbpedia.org/class/yago/Object100002684
p25
aVhttp://dbpedia.org/class/yago/Region108630985
p26
aVhttp://dbpedia.org/class/yago/System108435388
p27
aVhttp://dbpedia.org/class/yago/YagoGeoEntity
p28
aVhttp://dbpedia.org/class/yago/YagoLegalActorGeo
p29
aVhttp://dbpedia.org/class/yago/CountriesBorderingTheBalticSea
p30
aVhttp://dbpedia.org/class/yago/EuropeanCountries
p31
aVhttp://dbpedia.org/class/yago/EuropeanUnionMemberEconomies
p32
aVhttp://dbpedia.org/class/yago/PhysicalEntity100001930
p33
aVhttp://dbpedia.org/class/yago/YagoPermanentlyLocatedEntity
p34
aVhttp://dbpedia.org/class/yago/MemberStatesOfNATO
p35
aVhttp://dbpedia.org/class/yago/MemberStatesOfTheEuropeanUnion
p36
aVhttp://dbpedia.org/class/yago/MemberStatesOfTheUnionForTheMediterranean
p37
aVhttp://dbpedia.org/class/yago/MemberStatesOfTheUnitedNations
p38
aVhttp://dbpedia.org/class/yago/SlavicCountries
p39
aVhttp://dbpedia.org/class/yago/StatesAndTerritoriesEstablishedIn1918
p40
aVhttp://dbpedia.org/class/yago/WorldTradeOrganizationMemberEconomies
p41
aVhttp://dbpedia.org/resource/Poland
tp42
aa(lp43
a(lp44
a(lp45
aa(lp46
(lp47
a(lp48
a(lp49
a(lp50
aa(lp51
(lp52
((lp53
Vhttp://www.w3.org/2002/07/owl#Thing
p54
aVhttp://dbpedia.org/ontology/Place
p55
aVhttp://dbpedia.org/ontology/Location
p56
aVhttp://www.wikidata.org/entity/Q486972
p57
aVhttp://www.wikidata.org/entity/Q6256
p58
aVhttp://dbpedia.org/ontology/Country
p59
aVhttp://dbpedia.org/ontology/PopulatedPlace
p60
aVhttp://www.w3.org/2003/01/geo/wgs84_pos#SpatialThing
p61
aVhttp://schema.org/Country
p62
aVhttp://schema.org/Place
p63
aVhttp://umbel.org/umbel/rc/Country
p64
aVhttp://umbel.org/umbel/rc/Location_Underspecified
p65
aVhttp://umbel.org/umbel/rc/PopulatedPlace
p66
aVhttp://dbpedia.org/class/yago/Abstraction100002137
p67
aVhttp://dbpedia.org/class/yago/AdministrativeDistrict108491826
p68
aVhttp://dbpedia.org/class/yago/Country108544813
p69
aVhttp://dbpedia.org/class/yago/District108552138
p70
aVhttp://dbpedia.org/class/yago/Economy108366753
p71
aVhttp://dbpedia.org/class/yago/Group100031264
p72
aVhttp://dbpedia.org/class/yago/Location100027167
p73
aVhttp://dbpedia.org/class/yago/Object100002684
p74
aVhttp://dbpedia.org/class/yago/Region108630985
p75
aVhttp://dbpedia.org/class/yago/System108435388
p76
aVhttp://dbpedia.org/class/yago/YagoGeoEntity
p77
aVhttp://dbpedia.org/class/yago/YagoLegalActorGeo
p78
aVhttp://dbpedia.org/class/yago/CountriesBorderingTheArcticOcean
p79
aVhttp://dbpedia.org/class/yago/CountriesBorderingTheAtlanticOcean
p80
aVhttp://dbpedia.org/class/yago/CountriesBorderingThePacificOcean
p81
aVhttp://dbpedia.org/class/yago/English-speakingCountriesAndTerritories
p82
aVhttp://dbpedia.org/class/yago/FederalCountries
p83
aVhttp://dbpedia.org/class/yago/French-speakingCountries
p84
aVhttp://dbpedia.org/class/yago/PhysicalEntity100001930
p85
aVhttp://dbpedia.org/class/yago/YagoPermanentlyLocatedEntity
p86
aVhttp://dbpedia.org/class/yago/MemberStatesOfLaFrancophonie
p87
aVhttp://dbpedia.org/class/yago/MemberStatesOfNATO
p88
aVhttp://dbpedia.org/class/yago/MemberStatesOfTheCommonwealthOfNations
p89
aVhttp://dbpedia.org/class/yago/MemberStatesOfTheUnitedNations
p90
aVhttp://dbpedia.org/class/yago/NorthernAmericanCountries
p91
aVhttp://dbpedia.org/class/yago/StatesAndTerritoriesEstablishedIn1867
p92
aVhttp://dbpedia.org/resource/Canada
tp93
aa(lp94
a(lp95
a(lp96
aa(lp97
(lp98
((lp99
Vhttp://www.w3.org/2002/07/owl#Thing
p100
aVhttp://dbpedia.org/ontology/Place
p101
aVhttp://dbpedia.org/ontology/Location
p102
aVhttp://www.wikidata.org/entity/Q486972
p103
aVhttp://www.wikidata.org/entity/Q6256
p104
aVhttp://dbpedia.org/ontology/Country
p105
aVhttp://dbpedia.org/ontology/PopulatedPlace
p106
aVhttp://www.w3.org/2003/01/geo/wgs84_pos#SpatialThing
p107
aVhttp://schema.org/Country
p108
aVhttp://schema.org/Place
p109
aVhttp://umbel.org/umbel/rc/Country
p110
aVhttp://umbel.org/umbel/rc/Location_Underspecified
p111
aVhttp://umbel.org/umbel/rc/PopulatedPlace
p112
aVhttp://dbpedia.org/class/yago/Abstraction100002137
p113
aVhttp://dbpedia.org/class/yago/AdministrativeDistrict108491826
p114
aVhttp://dbpedia.org/class/yago/Country108544813
p115
aVhttp://dbpedia.org/class/yago/District108552138
p116
aVhttp://dbpedia.org/class/yago/Economy108366753
p117
aVhttp://dbpedia.org/class/yago/Group100031264
p118
aVhttp://dbpedia.org/class/yago/Location100027167
p119
aVhttp://dbpedia.org/class/yago/Object100002684
p120
aVhttp://dbpedia.org/class/yago/Region108630985
p121
aVhttp://dbpedia.org/class/yago/System108435388
p122
aVhttp://dbpedia.org/class/yago/YagoGeoEntity
p123
aVhttp://dbpedia.org/class/yago/YagoLegalActorGeo
p124
aVhttp://dbpedia.org/class/yago/CountriesOfTheMediterraneanSea
p125
aVhttp://dbpedia.org/class/yago/EuropeanCountries
p126
aVhttp://dbpedia.org/class/yago/PhysicalEntity100001930
p127
aVhttp://dbpedia.org/class/yago/YagoPermanentlyLocatedEntity
p128
aVhttp://dbpedia.org/class/yago/MemberStatesOfNATO
p129
aVhttp://dbpedia.org/class/yago/MemberStatesOfTheUnionForTheMediterranean
p130
aVhttp://dbpedia.org/class/yago/MemberStatesOfTheUnitedNations
p131
aVhttp://dbpedia.org/class/yago/Serbo-Croatian-speakingCountries
p132
aVhttp://dbpedia.org/class/yago/SlavicCountries
p133
aVhttp://dbpedia.org/class/yago/StatesAndTerritoriesEstablishedIn1991
p134
aVhttp://dbpedia.org/class/yago/WorldTradeOrganizationMemberEconomies
p135
aVhttp://dbpedia.org/resource/Croatia
tp136
aa(lp137
((lVhttp://dbpedia.org/resource/V.B.Z.
tp138
aa(lp139
a(lp140
aa(lp141
(lp142
a(lp143
a(lp144
a(lp145
aa(lp146
(lp147
((lp148
Vhttp://www.w3.org/2002/07/owl#Thing
p149
aVhttp://dbpedia.org/ontology/Place
p150
aVhttp://dbpedia.org/ontology/Location
p151
aVhttp://www.wikidata.org/entity/Q486972
p152
aVhttp://www.wikidata.org/entity/Q6256
p153
aVhttp://dbpedia.org/ontology/Country
p154
aVhttp://dbpedia.org/ontology/PopulatedPlace
p155
aVhttp://www.w3.org/2003/01/geo/wgs84_pos#SpatialThing
p156
aVhttp://schema.org/Country
p157
aVhttp://schema.org/Place
p158
aVhttp://umbel.org/umbel/rc/Country
p159
aVhttp://umbel.org/umbel/rc/Location_Underspecified
p160
aVhttp://umbel.org/umbel/rc/PopulatedPlace
p161
aVhttp://dbpedia.org/class/yago/Abstraction100002137
p162
aVhttp://dbpedia.org/class/yago/AdministrativeDistrict108491826
p163
aVhttp://dbpedia.org/class/yago/BlackSeaCountries
p164
aVhttp://dbpedia.org/class/yago/Country108544813
p165
aVhttp://dbpedia.org/class/yago/District108552138
p166
aVhttp://dbpedia.org/class/yago/Economy108366753
p167
aVhttp://dbpedia.org/class/yago/Group100031264
p168
aVhttp://dbpedia.org/class/yago/Location100027167
p169
aVhttp://dbpedia.org/class/yago/Object100002684
p170
aVhttp://dbpedia.org/class/yago/Region108630985
p171
aVhttp://dbpedia.org/class/yago/System108435388
p172
aVhttp://dbpedia.org/class/yago/YagoGeoEntity
p173
aVhttp://dbpedia.org/class/yago/YagoLegalActorGeo
p174
aVhttp://dbpedia.org/class/yago/EuropeanCountries
p175
aVhttp://dbpedia.org/class/yago/EuropeanUnionMemberEconomies
p176
aVhttp://dbpedia.org/class/yago/PhysicalEntity100001930
p177
aVhttp://dbpedia.org/class/yago/YagoPermanentlyLocatedEntity
p178
aVhttp://dbpedia.org/class/yago/MemberStatesOfNATO
p179
aVhttp://dbpedia.org/class/yago/MemberStatesOfTheEuropeanUnion
p180
aVhttp://dbpedia.org/class/yago/MemberStatesOfTheUnionForTheMediterranean
p181
aVhttp://dbpedia.org/class/yago/MemberStatesOfTheUnitedNations
p182
aVhttp://dbpedia.org/class/yago/Romanian-speakingCountriesAndTerritories
p183
aVhttp://dbpedia.org/class/yago/StatesAndTerritoriesEstablishedIn1878
p184
aVhttp://dbpedia.org/resource/Romania
tp185
aa(lp186
a(lp187
a(lp188
aa(lp189
(lp190
((lp191
Vhttp://www.w3.org/2002/07/owl#Thing
p192
aVhttp://dbpedia.org/ontology/Place
p193
aVhttp://dbpedia.org/ontology/Location
p194
aVhttp://www.wikidata.org/entity/Q486972
p195
aVhttp://www.wikidata.org/entity/Q6256
p196
aVhttp://dbpedia.org/ontology/Country
p197
aVhttp://dbpedia.org/ontology/PopulatedPlace
p198
aVhttp://www.w3.org/2003/01/geo/wgs84_pos#SpatialThing
p199
aVhttp://schema.org/Country
p200
aVhttp://schema.org/Place
p201
aVhttp://umbel.org/umbel/rc/Country
p202
aVhttp://umbel.org/umbel/rc/Location_Underspecified
p203
aVhttp://umbel.org/umbel/rc/PopulatedPlace
p204
aVhttp://dbpedia.org/class/yago/Abstraction100002137
p205
aVhttp://dbpedia.org/class/yago/AdministrativeDistrict108491826
p206
aVhttp://dbpedia.org/class/yago/Country108544813
p207
aVhttp://dbpedia.org/class/yago/District108552138
p208
aVhttp://dbpedia.org/class/yago/Domain108556491
p209
aVhttp://dbpedia.org/class/yago/Economy108366753
p210
aVhttp://dbpedia.org/class/yago/Group100031264
p211
aVhttp://dbpedia.org/class/yago/Location100027167
p212
aVhttp://dbpedia.org/class/yago/Object100002684
p213
aVhttp://dbpedia.org/class/yago/Region108630985
p214
aVhttp://dbpedia.org/class/yago/System108435388
p215
aVhttp://dbpedia.org/class/yago/YagoGeoEntity
p216
aVhttp://dbpedia.org/class/yago/YagoLegalActorGeo
p217
aVhttp://dbpedia.org/class/yago/CountriesBorderingThePacificOcean
p218
aVhttp://dbpedia.org/class/yago/CountriesBorderingThePhilippineSea
p219
aVhttp://dbpedia.org/class/yago/EastAsianCountries
p220
aVhttp://dbpedia.org/class/yago/Empire108557482
p221
aVhttp://dbpedia.org/class/yago/Empires
p222
aVhttp://dbpedia.org/class/yago/PhysicalEntity100001930
p223
aVhttp://dbpedia.org/class/yago/YagoPermanentlyLocatedEntity
p224
aVhttp://dbpedia.org/class/yago/IslandCountries
p225
aVhttp://dbpedia.org/class/yago/MemberStatesOfTheUnitedNations
p226
aVhttp://dbpedia.org/class/yago/StatesAndTerritoriesEstablishedIn660BC
p227
aVhttp://dbpedia.org/resource/Japan
tp228
aa(lp229
a(lp230
a(lp231
aa(lp232
(lp233
((lp234
Vhttp://www.w3.org/2002/07/owl#Thing
p235
aVhttp://dbpedia.org/ontology/Place
p236
aVhttp://dbpedia.org/ontology/Location
p237
aVhttp://www.wikidata.org/entity/Q486972
p238
aVhttp://www.wikidata.org/entity/Q6256
p239
aVhttp://dbpedia.org/ontology/Country
p240
aVhttp://dbpedia.org/ontology/PopulatedPlace
p241
aVhttp://www.w3.org/2003/01/geo/wgs84_pos#SpatialThing
p242
aVhttp://schema.org/Country
p243
aVhttp://schema.org/Place
p244
aVhttp://umbel.org/umbel/rc/Country
p245
aVhttp://umbel.org/umbel/rc/Location_Underspecified
p246
aVhttp://umbel.org/umbel/rc/PopulatedPlace
p247
aVhttp://dbpedia.org/class/yago/Abstraction100002137
p248
aVhttp://dbpedia.org/class/yago/AdministrativeDistrict108491826
p249
aVhttp://dbpedia.org/class/yago/Country108544813
p250
aVhttp://dbpedia.org/class/yago/District108552138
p251
aVhttp://dbpedia.org/class/yago/Economy108366753
p252
aVhttp://dbpedia.org/class/yago/Group100031264
p253
aVhttp://dbpedia.org/class/yago/Location100027167
p254
aVhttp://dbpedia.org/class/yago/Object100002684
p255
aVhttp://dbpedia.org/class/yago/Region108630985
p256
aVhttp://dbpedia.org/class/yago/System108435388
p257
aVhttp://dbpedia.org/class/yago/YagoGeoEntity
p258
aVhttp://dbpedia.org/class/yago/YagoLegalActorGeo
p259
aVhttp://dbpedia.org/class/yago/CountriesBorderingTheSouthChinaSea
p260
aVhttp://dbpedia.org/class/yago/CountriesOfTheIndianOcean
p261
aVhttp://dbpedia.org/class/yago/PhysicalEntity100001930
p262
aVhttp://dbpedia.org/class/yago/YagoPermanentlyLocatedEntity
p263
aVhttp://dbpedia.org/class/yago/MemberStatesOfTheAssociationOfSoutheastAsianNations
p264
aVhttp://dbpedia.org/class/yago/MemberStatesOfTheUnitedNations
p265
aVhttp://dbpedia.org/class/yago/SoutheastAsianCountries
p266
aVhttp://dbpedia.org/class/yago/WorldTradeOrganizationMemberEconomies
p267
aVhttp://dbpedia.org/resource/Thailand
tp268
aa(lp269
a(lp270
a(lp271
aa(lp272
(lp273
((lp274
Vhttp://www.w3.org/2002/07/owl#Thing
p275
aVhttp://dbpedia.org/ontology/Place
p276
aVhttp://dbpedia.org/ontology/Location
p277
aVhttp://www.wikidata.org/entity/Q486972
p278
aVhttp://www.wikidata.org/entity/Q6256
p279
aVhttp://dbpedia.org/ontology/Country
p280
aVhttp://dbpedia.org/ontology/PopulatedPlace
p281
aVhttp://www.w3.org/2003/01/geo/wgs84_pos#SpatialThing
p282
aVhttp://schema.org/Country
p283
aVhttp://schema.org/Place
p284
aVhttp://umbel.org/umbel/rc/Country
p285
aVhttp://umbel.org/umbel/rc/Location_Underspecified
p286
aVhttp://umbel.org/umbel/rc/PopulatedPlace
p287
aVhttp://dbpedia.org/class/yago/Abstraction100002137
p288
aVhttp://dbpedia.org/class/yago/AdministrativeDistrict108491826
p289
aVhttp://dbpedia.org/class/yago/Country108544813
p290
aVhttp://dbpedia.org/class/yago/District108552138
p291
aVhttp://dbpedia.org/class/yago/Economy108366753
p292
aVhttp://dbpedia.org/class/yago/Group100031264
p293
aVhttp://dbpedia.org/class/yago/Location100027167
p294
aVhttp://dbpedia.org/class/yago/Object100002684
p295
aVhttp://dbpedia.org/class/yago/Region108630985
p296
aVhttp://dbpedia.org/class/yago/System108435388
p297
aVhttp://dbpedia.org/class/yago/YagoGeoEntity
p298
aVhttp://dbpedia.org/class/yago/YagoLegalActorGeo
p299
aVhttp://dbpedia.org/class/yago/CountriesBorderingTheAtlanticOcean
p300
aVhttp://dbpedia.org/class/yago/CountriesBorderingTheBalticSea
p301
aVhttp://dbpedia.org/class/yago/EuropeanCountries
p302
aVhttp://dbpedia.org/class/yago/EuropeanUnionMemberEconomies
p303
aVhttp://dbpedia.org/class/yago/PhysicalEntity100001930
p304
aVhttp://dbpedia.org/class/yago/YagoPermanentlyLocatedEntity
p305
aVhttp://dbpedia.org/class/yago/MemberStatesOfTheEuropeanUnion
p306
aVhttp://dbpedia.org/class/yago/MemberStatesOfTheUnionForTheMediterranean
p307
aVhttp://dbpedia.org/class/yago/MemberStatesOfTheUnitedNations
p308
aVhttp://dbpedia.org/class/yago/NordicCountries
p309
aVhttp://dbpedia.org/resource/Sweden
tp310
aa(lp311
a(lp312
a(lp313
aa(lp314
(lp315
((lp316
Vhttp://www.w3.org/2002/07/owl#Thing
p317
aVhttp://dbpedia.org/ontology/Place
p318
aVhttp://dbpedia.org/ontology/Location
p319
aVhttp://www.wikidata.org/entity/Q486972
p320
aVhttp://www.wikidata.org/entity/Q6256
p321
aVhttp://dbpedia.org/ontology/Country
p322
aVhttp://dbpedia.org/ontology/PopulatedPlace
p323
aVhttp://www.w3.org/2003/01/geo/wgs84_pos#SpatialThing
p324
aVhttp://schema.org/Country
p325
aVhttp://schema.org/Place
p326
aVhttp://umbel.org/umbel/rc/Country
p327
aVhttp://umbel.org/umbel/rc/Location_Underspecified
p328
aVhttp://umbel.org/umbel/rc/PopulatedPlace
p329
aVhttp://dbpedia.org/class/yago/Abstraction100002137
p330
aVhttp://dbpedia.org/class/yago/AdministrativeDistrict108491826
p331
aVhttp://dbpedia.org/class/yago/Arabic-speakingCountriesAndTerritories
p332
aVhttp://dbpedia.org/class/yago/Country108544813
p333
aVhttp://dbpedia.org/class/yago/District108552138
p334
aVhttp://dbpedia.org/class/yago/Economy108366753
p335
aVhttp://dbpedia.org/class/yago/Group100031264
p336
aVhttp://dbpedia.org/class/yago/Location100027167
p337
aVhttp://dbpedia.org/class/yago/Object100002684
p338
aVhttp://dbpedia.org/class/yago/Region108630985
p339
aVhttp://dbpedia.org/class/yago/System108435388
p340
aVhttp://dbpedia.org/class/yago/YagoGeoEntity
p341
aVhttp://dbpedia.org/class/yago/YagoLegalActorGeo
p342
aVhttp://dbpedia.org/class/yago/CountriesBorderingTheRedSea
p343
aVhttp://dbpedia.org/class/yago/EasternMediterraneanCountries
p344
aVhttp://dbpedia.org/class/yago/PhysicalEntity100001930
p345
aVhttp://dbpedia.org/class/yago/YagoPermanentlyLocatedEntity
p346
aVhttp://dbpedia.org/class/yago/MemberStatesOfTheUnionForTheMediterranean
p347
aVhttp://dbpedia.org/class/yago/MemberStatesOfTheUnitedNations
p348
aVhttp://dbpedia.org/class/yago/MiddleEasternCountries
p349
aVhttp://dbpedia.org/class/yago/NearEasternCountries
p350
aVhttp://dbpedia.org/class/yago/StatesAndTerritoriesEstablishedIn1948
p351
aVhttp://dbpedia.org/class/yago/WorldTradeOrganizationMemberEconomies
p352
aVhttp://dbpedia.org/resource/Israel
tp353
aa(lp354
a(lp355
a(lp356
aa(lp357
(lp358
((lp359
Vhttp://www.w3.org/2002/07/owl#Thing
p360
aVhttp://dbpedia.org/ontology/Place
p361
aVhttp://dbpedia.org/ontology/Location
p362
aVhttp://www.wikidata.org/entity/Q486972
p363
aVhttp://www.wikidata.org/entity/Q6256
p364
aVhttp://dbpedia.org/ontology/Country
p365
aVhttp://dbpedia.org/ontology/PopulatedPlace
p366
aVhttp://www.w3.org/2003/01/geo/wgs84_pos#SpatialThing
p367
aVhttp://schema.org/Country
p368
aVhttp://schema.org/Place
p369
aVhttp://umbel.org/umbel/rc/Country
p370
aVhttp://umbel.org/umbel/rc/Location_Underspecified
p371
aVhttp://umbel.org/umbel/rc/PopulatedPlace
p372
aVhttp://dbpedia.org/class/yago/Abstraction100002137
p373
aVhttp://dbpedia.org/class/yago/AdministrativeDistrict108491826
p374
aVhttp://dbpedia.org/class/yago/Country108544813
p375
aVhttp://dbpedia.org/class/yago/District108552138
p376
aVhttp://dbpedia.org/class/yago/Economy108366753
p377
aVhttp://dbpedia.org/class/yago/Group100031264
p378
aVhttp://dbpedia.org/class/yago/Location100027167
p379
aVhttp://dbpedia.org/class/yago/Object100002684
p380
aVhttp://dbpedia.org/class/yago/Region108630985
p381
aVhttp://dbpedia.org/class/yago/System108435388
p382
aVhttp://dbpedia.org/class/yago/YagoGeoEntity
p383
aVhttp://dbpedia.org/class/yago/YagoLegalActorGeo
p384
aVhttp://dbpedia.org/class/yago/EuropeanCountries
p385
aVhttp://dbpedia.org/class/yago/EuropeanUnionMemberEconomies
p386
aVhttp://dbpedia.org/class/yago/PhysicalEntity100001930
p387
aVhttp://dbpedia.org/class/yago/YagoPermanentlyLocatedEntity
p388
aVhttp://dbpedia.org/class/yago/LandlockedCountries
p389
aVhttp://dbpedia.org/class/yago/MemberStatesOfNATO
p390
aVhttp://dbpedia.org/class/yago/MemberStatesOfTheEuropeanUnion
p391
aVhttp://dbpedia.org/class/yago/MemberStatesOfTheUnionForTheMediterranean
p392
aVhttp://dbpedia.org/class/yago/MemberStatesOfTheUnitedNations
p393
aVhttp://dbpedia.org/class/yago/SlavicCountries
p394
aVhttp://dbpedia.org/class/yago/StatesAndTerritoriesEstablishedIn1993
p395
aVhttp://dbpedia.org/resource/Slovakia
tp396
aa(lp397
a(lp398
a(lp399
aa(lp400
(lp401
((lp402
Vhttp://www.w3.org/2002/07/owl#Thing
p403
aVhttp://dbpedia.org/ontology/Place
p404
aVhttp://dbpedia.org/ontology/Location
p405
aVhttp://www.wikidata.org/entity/Q486972
p406
aVhttp://www.wikidata.org/entity/Q6256
p407
aVhttp://dbpedia.org/ontology/Country
p408
aVhttp://dbpedia.org/ontology/PopulatedPlace
p409
aVhttp://www.w3.org/2003/01/geo/wgs84_pos#SpatialThing
p410
aVhttp://schema.org/Country
p411
aVhttp://schema.org/Place
p412
aVhttp://umbel.org/umbel/rc/Country
p413
aVhttp://umbel.org/umbel/rc/Location_Underspecified
p414
aVhttp://umbel.org/umbel/rc/PopulatedPlace
p415
aVhttp://dbpedia.org/class/yago/Abstraction100002137
p416
aVhttp://dbpedia.org/class/yago/AdministrativeDistrict108491826
p417
aVhttp://dbpedia.org/class/yago/AlpineCountries
p418
aVhttp://dbpedia.org/class/yago/Country108544813
p419
aVhttp://dbpedia.org/class/yago/District108552138
p420
aVhttp://dbpedia.org/class/yago/Economy108366753
p421
aVhttp://dbpedia.org/class/yago/Group100031264
p422
aVhttp://dbpedia.org/class/yago/Location100027167
p423
aVhttp://dbpedia.org/class/yago/Object100002684
p424
aVhttp://dbpedia.org/class/yago/Region108630985
p425
aVhttp://dbpedia.org/class/yago/System108435388
p426
aVhttp://dbpedia.org/class/yago/YagoGeoEntity
p427
aVhttp://dbpedia.org/class/yago/YagoLegalActorGeo
p428
aVhttp://dbpedia.org/class/yago/CountriesOfTheMediterraneanSea
p429
aVhttp://dbpedia.org/class/yago/EuropeanCountries
p430
aVhttp://dbpedia.org/class/yago/EuropeanUnionMemberEconomies
p431
aVhttp://dbpedia.org/class/yago/PhysicalEntity100001930
p432
aVhttp://dbpedia.org/class/yago/YagoPermanentlyLocatedEntity
p433
aVhttp://dbpedia.org/class/yago/MemberStatesOfNATO
p434
aVhttp://dbpedia.org/class/yago/MemberStatesOfTheEuropeanUnion
p435
aVhttp://dbpedia.org/class/yago/MemberStatesOfTheUnionForTheMediterranean
p436
aVhttp://dbpedia.org/class/yago/MemberStatesOfTheUnitedNations
p437
aVhttp://dbpedia.org/class/yago/SlavicCountries
p438
aVhttp://dbpedia.org/class/yago/StatesAndTerritoriesEstablishedIn1991
p439
aVhttp://dbpedia.org/resource/Slovenia
tp440
aa(lp441
a(lp442
((lVhttp://dbpedia.org/resource/October_2013
tp443
aa(lp444
aa(lp445
(lp446
((lp447
Vhttp://www.w3.org/2002/07/owl#Thing
p448
aVhttp://dbpedia.org/ontology/Place
p449
aVhttp://dbpedia.org/ontology/Location
p450
aVhttp://www.wikidata.org/entity/Q486972
p451
aVhttp://www.wikidata.org/entity/Q6256
p452
aVhttp://dbpedia.org/ontology/Country
p453
aVhttp://dbpedia.org/ontology/PopulatedPlace
p454
aVhttp://www.w3.org/2003/01/geo/wgs84_pos#SpatialThing
p455
aVhttp://schema.org/Country
p456
aVhttp://schema.org/Place
p457
aVhttp://umbel.org/umbel/rc/Country
p458
aVhttp://umbel.org/umbel/rc/Location_Underspecified
p459
aVhttp://umbel.org/umbel/rc/PopulatedPlace
p460
aVhttp://dbpedia.org/class/yago/Abstraction100002137
p461
aVhttp://dbpedia.org/class/yago/AdministrativeDistrict108491826
p462
aVhttp://dbpedia.org/class/yago/Country108544813
p463
aVhttp://dbpedia.org/class/yago/District108552138
p464
aVhttp://dbpedia.org/class/yago/Economy108366753
p465
aVhttp://dbpedia.org/class/yago/Group100031264
p466
aVhttp://dbpedia.org/class/yago/Location100027167
p467
aVhttp://dbpedia.org/class/yago/Object100002684
p468
aVhttp://dbpedia.org/class/yago/Region108630985
p469
aVhttp://dbpedia.org/class/yago/System108435388
p470
aVhttp://dbpedia.org/class/yago/YagoGeoEntity
p471
aVhttp://dbpedia.org/class/yago/YagoLegalActorGeo
p472
aVhttp://dbpedia.org/class/yago/EuropeanCountries
p473
aVhttp://dbpedia.org/class/yago/EuropeanUnionMemberEconomies
p474
aVhttp://dbpedia.org/class/yago/PhysicalEntity100001930
p475
aVhttp://dbpedia.org/class/yago/YagoPermanentlyLocatedEntity
p476
aVhttp://dbpedia.org/class/yago/LandlockedCountries
p477
aVhttp://dbpedia.org/class/yago/MemberStatesOfNATO
p478
aVhttp://dbpedia.org/class/yago/MemberStatesOfTheEuropeanUnion
p479
aVhttp://dbpedia.org/class/yago/MemberStatesOfTheUnitedNations
p480
aVhttp://dbpedia.org/class/yago/SlavicCountries
p481
aVhttp://dbpedia.org/class/yago/StatesAndTerritoriesEstablishedIn1993
p482
aVhttp://dbpedia.org/resource/Czech_Republic
tp483
aa(lp484
a(lp485
a(lp486
aa(lp487
(lp488
((lp489
Vhttp://www.w3.org/2002/07/owl#Thing
p490
aVhttp://dbpedia.org/ontology/Place
p491
aVhttp://dbpedia.org/ontology/Location
p492
aVhttp://www.wikidata.org/entity/Q486972
p493
aVhttp://www.wikidata.org/entity/Q6256
p494
aVhttp://dbpedia.org/ontology/Country
p495
aVhttp://dbpedia.org/ontology/PopulatedPlace
p496
aVhttp://www.w3.org/2003/01/geo/wgs84_pos#SpatialThing
p497
aVhttp://schema.org/Country
p498
aVhttp://schema.org/Place
p499
aVhttp://umbel.org/umbel/rc/Country
p500
aVhttp://umbel.org/umbel/rc/Location_Underspecified
p501
aVhttp://umbel.org/umbel/rc/PopulatedPlace
p502
aVhttp://dbpedia.org/class/yago/Abstraction100002137
p503
aVhttp://dbpedia.org/class/yago/AdministrativeDistrict108491826
p504
aVhttp://dbpedia.org/class/yago/BalticStates
p505
aVhttp://dbpedia.org/class/yago/Country108544813
p506
aVhttp://dbpedia.org/class/yago/District108552138
p507
aVhttp://dbpedia.org/class/yago/Economy108366753
p508
aVhttp://dbpedia.org/class/yago/Group100031264
p509
aVhttp://dbpedia.org/class/yago/Location100027167
p510
aVhttp://dbpedia.org/class/yago/Object100002684
p511
aVhttp://dbpedia.org/class/yago/Region108630985
p512
aVhttp://dbpedia.org/class/yago/System108435388
p513
aVhttp://dbpedia.org/class/yago/YagoGeoEntity
p514
aVhttp://dbpedia.org/class/yago/YagoLegalActorGeo
p515
aVhttp://dbpedia.org/class/yago/CountriesBorderingTheBalticSea
p516
aVhttp://dbpedia.org/class/yago/EuropeanCountries
p517
aVhttp://dbpedia.org/class/yago/EuropeanUnionMemberEconomies
p518
aVhttp://dbpedia.org/class/yago/PhysicalEntity100001930
p519
aVhttp://dbpedia.org/class/yago/YagoPermanentlyLocatedEntity
p520
aVhttp://dbpedia.org/class/yago/MemberStatesOfNATO
p521
aVhttp://dbpedia.org/class/yago/MemberStatesOfTheEuropeanUnion
p522
aVhttp://dbpedia.org/class/yago/MemberStatesOfTheUnionForTheMediterranean
p523
aVhttp://dbpedia.org/class/yago/MemberStatesOfTheUnitedNations
p524
aVhttp://dbpedia.org/class/yago/Russian-speakingCountriesAndTerritories
p525
aVhttp://dbpedia.org/class/yago/StatesAndTerritoriesEstablishedIn1918
p526
aVhttp://dbpedia.org/class/yago/StatesAndTerritoriesEstablishedIn1991
p527
aVhttp://dbpedia.org/resource/Latvia
tp528
aa(lp529
a(lp530
a(lp531
aa(lp532
(lp533
((lp534
Vhttp://www.w3.org/2002/07/owl#Thing
p535
aVhttp://dbpedia.org/ontology/Place
p536
aVhttp://dbpedia.org/ontology/Location
p537
aVhttp://www.wikidata.org/entity/Q486972
p538
aVhttp://www.wikidata.org/entity/Q6256
p539
aVhttp://dbpedia.org/ontology/Country
p540
aVhttp://dbpedia.org/ontology/PopulatedPlace
p541
aVhttp://www.w3.org/2003/01/geo/wgs84_pos#SpatialThing
p542
aVhttp://schema.org/Country
p543
aVhttp://schema.org/Place
p544
aVhttp://umbel.org/umbel/rc/Country
p545
aVhttp://umbel.org/umbel/rc/Location_Underspecified
p546
aVhttp://umbel.org/umbel/rc/PopulatedPlace
p547
aVhttp://dbpedia.org/class/yago/Abstraction100002137
p548
aVhttp://dbpedia.org/class/yago/AdministrativeDistrict108491826
p549
aVhttp://dbpedia.org/class/yago/AlpineCountries
p550
aVhttp://dbpedia.org/class/yago/Country108544813
p551
aVhttp://dbpedia.org/class/yago/District108552138
p552
aVhttp://dbpedia.org/class/yago/Economy108366753
p553
aVhttp://dbpedia.org/class/yago/Group100031264
p554
aVhttp://dbpedia.org/class/yago/Location100027167
p555
aVhttp://dbpedia.org/class/yago/Object100002684
p556
aVhttp://dbpedia.org/class/yago/Region108630985
p557
aVhttp://dbpedia.org/class/yago/System108435388
p558
aVhttp://dbpedia.org/class/yago/YagoGeoEntity
p559
aVhttp://dbpedia.org/class/yago/YagoLegalActorGeo
p560
aVhttp://dbpedia.org/class/yago/CountriesBorderingTheAtlanticOcean
p561
aVhttp://dbpedia.org/class/yago/CountriesBorderingTheBalticSea
p562
aVhttp://dbpedia.org/class/yago/EuropeanCountries
p563
aVhttp://dbpedia.org/class/yago/EuropeanUnionMemberEconomies
p564
aVhttp://dbpedia.org/class/yago/FederalCountries
p565
aVhttp://dbpedia.org/class/yago/PhysicalEntity100001930
p566
aVhttp://dbpedia.org/class/yago/YagoPermanentlyLocatedEntity
p567
aVhttp://dbpedia.org/class/yago/German-speakingCountries
p568
aVhttp://dbpedia.org/class/yago/MemberStatesOfNATO
p569
aVhttp://dbpedia.org/class/yago/MemberStatesOfTheEuropeanUnion
p570
aVhttp://dbpedia.org/class/yago/MemberStatesOfTheUnionForTheMediterranean
p571
aVhttp://dbpedia.org/class/yago/MemberStatesOfTheUnitedNations
p572
aVhttp://dbpedia.org/class/yago/StatesAndTerritoriesEstablishedIn1871
p573
aVhttp://dbpedia.org/resource/Germany
tp574
aa(lp575
a(lp576
a(lp577
aa(lp578
(lp579
((lp580
Vhttp://www.w3.org/2002/07/owl#Thing
p581
aVhttp://dbpedia.org/ontology/Place
p582
aVhttp://dbpedia.org/ontology/Location
p583
aVhttp://www.wikidata.org/entity/Q486972
p584
aVhttp://www.wikidata.org/entity/Q6256
p585
aVhttp://dbpedia.org/ontology/Country
p586
aVhttp://dbpedia.org/ontology/PopulatedPlace
p587
aVhttp://www.w3.org/2003/01/geo/wgs84_pos#SpatialThing
p588
aVhttp://schema.org/Country
p589
aVhttp://schema.org/Place
p590
aVhttp://umbel.org/umbel/rc/Country
p591
aVhttp://umbel.org/umbel/rc/Location_Underspecified
p592
aVhttp://umbel.org/umbel/rc/PopulatedPlace
p593
aVhttp://dbpedia.org/class/yago/Abstraction100002137
p594
aVhttp://dbpedia.org/class/yago/AdministrativeDistrict108491826
p595
aVhttp://dbpedia.org/class/yago/AlpineCountries
p596
aVhttp://dbpedia.org/class/yago/BicontinentalCountries
p597
aVhttp://dbpedia.org/class/yago/Country108544813
p598
aVhttp://dbpedia.org/class/yago/District108552138
p599
aVhttp://dbpedia.org/class/yago/Economy108366753
p600
aVhttp://dbpedia.org/class/yago/Group100031264
p601
aVhttp://dbpedia.org/class/yago/Location100027167
p602
aVhttp://dbpedia.org/class/yago/Object100002684
p603
aVhttp://dbpedia.org/class/yago/Region108630985
p604
aVhttp://dbpedia.org/class/yago/System108435388
p605
aVhttp://dbpedia.org/class/yago/YagoGeoEntity
p606
aVhttp://dbpedia.org/class/yago/YagoLegalActorGeo
p607
aVhttp://dbpedia.org/class/yago/CountriesOfTheMediterraneanSea
p608
aVhttp://dbpedia.org/class/yago/EuropeanCountries
p609
aVhttp://dbpedia.org/class/yago/EuropeanUnionMemberEconomies
p610
aVhttp://dbpedia.org/class/yago/PhysicalEntity100001930
p611
aVhttp://dbpedia.org/class/yago/YagoPermanentlyLocatedEntity
p612
aVhttp://dbpedia.org/class/yago/Italian-speakingCountries
p613
aVhttp://dbpedia.org/class/yago/MemberStatesOfNATO
p614
aVhttp://dbpedia.org/class/yago/MemberStatesOfTheCouncilOfEurope
p615
aVhttp://dbpedia.org/class/yago/MemberStatesOfTheEuropeanUnion
p616
aVhttp://dbpedia.org/class/yago/MemberStatesOfTheUnionForTheMediterranean
p617
aVhttp://dbpedia.org/class/yago/MemberStatesOfTheUnitedNations
p618
aVhttp://dbpedia.org/class/yago/StatesAndTerritoriesEstablishedIn1861
p619
aVhttp://dbpedia.org/resource/Italy
p620
tp621
aa(lp622
a(lp623
a(lp624
aa.