(lp1
(lp2
(dp3
Vstart
p4
I0
sVdisambiguatedURL
p5
Vhttp://dbpedia.org/resource/Portugal
p6
sVnamedEntity
p7
VPortugal
p8
sVoffset
p9
I8
saa(lp10
(dp11
Vstart
p12
I0
sVdisambiguatedURL
p13
Vhttp://dbpedia.org/resource/Luxembourg
p14
sVnamedEntity
p15
VLuxembourg
p16
sVoffset
p17
I10
saa(lp18
(dp19
Vstart
p20
I0
sVdisambiguatedURL
p21
Vhttp://dbpedia.org/resource/Norway
p22
sVnamedEntity
p23
VNorway
p24
sVoffset
p25
I6
saa(lp26
(dp27
Vstart
p28
I0
sVdisambiguatedURL
p29
Vhttp://dbpedia.org/resource/United_Kingdom
p30
sVnamedEntity
p31
VUnitedKingdom
p32
sVoffset
p33
I13
saa(lp34
(dp35
Vstart
p36
I0
sVdisambiguatedURL
p37
Vhttp://dbpedia.org/resource/Turkey
p38
sVnamedEntity
p39
VTurkey
p40
sVoffset
p41
I6
saa(lp42
(dp43
Vstart
p44
I0
sVdisambiguatedURL
p45
Vhttp://dbpedia.org/resource/Finland
p46
sVnamedEntity
p47
VFinland
p48
sVoffset
p49
I7
saa(lp50
(dp51
Vstart
p52
I0
sVdisambiguatedURL
p53
Vhttp://dbpedia.org/resource/Switzerland
p54
sVnamedEntity
p55
VSwitzerland
p56
sVoffset
p57
I11
saa(lp58
(dp59
Vstart
p60
I0
sVdisambiguatedURL
p61
Vhttp://dbpedia.org/resource/Cyprus
p62
sVnamedEntity
p63
VCyprus
p64
sVoffset
p65
I6
saa(lp66
(dp67
Vstart
p68
I0
sVdisambiguatedURL
p69
Vhttp://dbpedia.org/resource/Sweden
p70
sVnamedEntity
p71
VSweden
p72
sVoffset
p73
I6
saa(lp74
(dp75
Vstart
p76
I0
sVdisambiguatedURL
p77
Vhttp://dbpedia.org/resource/Austria
p78
sVnamedEntity
p79
VAustria
p80
sVoffset
p81
I7
saa(lp82
(dp83
Vstart
p84
I0
sVdisambiguatedURL
p85
Vhttp://dbpedia.org/resource/Belgium
p86
sVnamedEntity
p87
VBelgium
p88
sVoffset
p89
I7
saa(lp90
(dp91
Vstart
p92
I0
sVdisambiguatedURL
p93
Vhttp://dbpedia.org/resource/Spain
p94
sVnamedEntity
p95
VSpain
p96
sVoffset
p97
I5
saa(lp98
(dp99
Vstart
p100
I0
sVdisambiguatedURL
p101
Vhttp://dbpedia.org/resource/Denmark
p102
sVnamedEntity
p103
VDenmark
p104
sVoffset
p105
I7
saa(lp106
(dp107
Vstart
p108
I0
sVdisambiguatedURL
p109
Vhttp://dbpedia.org/resource/Yugoslavia
p110
sVnamedEntity
p111
VYugoslavia
p112
sVoffset
p113
I10
saa(lp114
(dp115
Vstart
p116
I0
sVdisambiguatedURL
p117
Vhttp://dbpedia.org/resource/Israel
p118
sVnamedEntity
p119
VIsrael
p120
sVoffset
p121
I6
saa(lp122
(dp123
Vstart
p124
I0
sVdisambiguatedURL
p125
Vhttp://dbpedia.org/resource/Netherlands
p126
sVnamedEntity
p127
VNetherlands
p128
sVoffset
p129
I11
saa(lp130
(dp131
Vstart
p132
I0
sVdisambiguatedURL
p133
Vhttp://dbpedia.org/resource/Ireland
p134
sVnamedEntity
p135
VIreland
p136
sVoffset
p137
I7
saa(lp138
(dp139
Vstart
p140
I0
sVdisambiguatedURL
p141
Vhttp://dbpedia.org/resource/Germany
p142
sVnamedEntity
p143
VGermany
p144
sVoffset
p145
I7
saa.