(lp1
(lp2
(dp3
Vstart
p4
I0
sVdisambiguatedURL
p5
NsVnamedEntity
p6
V\u96fb\u8a71\u756a\u53f7
p7
sVoffset
p8
I8
saa(lp9
(dp10
Vstart
p11
I0
sVdisambiguatedURL
p12
NsVnamedEntity
p13
V\u5e97\u8217\u6240\u5728\u5730
p14
sVoffset
p15
I5
saa(lp16
(dp17
Vstart
p18
I0
sVdisambiguatedURL
p19
NsVnamedEntity
p20
V\u30b5\u30fc\u30d3\u30b9\u5185\u5bb9
p21
sVoffset
p22
I6
saa(lp23
(dp24
Vstart
p25
I0
sVdisambiguatedURL
p26
NsVnamedEntity
p27
V\u30b3\u30e1\u30f3\u30c8
p28
sVoffset
p29
I4
saa.