ccollections
defaultdict
p1
(c__builtin__
dict
p2
tRp3
I10
(dp4
I0
(lp5
Vhttp://dbpedia.org/ontology/wikiPageExternalLink
p6
asI1
(lp7
sI3
(lp8
sI4
(lp9
sI5
(lp10
ssI6
(dp11
I0
(lp12
Vhttp://www.w3.org/ns/prov#wasDerivedFrom
p13
aVhttp://dbpedia.org/ontology/abstract
p14
aVhttp://www.w3.org/1999/02/22-rdf-syntax-ns#type
p15
aVhttp://purl.org/dc/terms/subject
p16
aVhttp://www.w3.org/2000/01/rdf-schema#comment
p17
asI1
(lp18
sI3
(lp19
sI4
(lp20
sI5
(lp21
ssI7
(dp22
I0
(lp23
Vhttp://www.w3.org/ns/prov#wasDerivedFrom
p24
aVhttp://dbpedia.org/ontology/abstract
p25
aVhttp://www.w3.org/1999/02/22-rdf-syntax-ns#type
p26
aVhttp://purl.org/dc/terms/subject
p27
aVhttp://www.w3.org/2000/01/rdf-schema#comment
p28
asI1
(lp29
sI3
(lp30
sI4
(lp31
sI5
(lp32
Vhttp://www.w3.org/1999/02/22-rdf-syntax-ns#type
p33
ass.