(lp1
(lp2
(dp3
Vstart
p4
I0
sVdisambiguatedURL
p5
NsVnamedEntity
p6
Vblue Read MoreFree Shipping On Orders $50+
p7
sVoffset
p8
I224
saa(lp9
(dp10
Vstart
p11
I0
sVdisambiguatedURL
p12
NsVnamedEntity
p13
VDiaper Stackers: Sumersault Spotted Hippo Diaper StackerFind diaper bags and storage at Target.com! This cute diaper stacker by sumersault is perfect for any nursery. It has a ... Read MoreFree Shipping On Orders $50+
p14
sVoffset
p15
I217
saa(lp16
(dp17
Vstart
p18
I0
sVdisambiguatedURL
p19
NsVnamedEntity
p20
VSumersault 123 Go Diaper StackerSumersault baby gear is easy and accessible. Featuring a fun pin-stripe pattern and a flying plane applique this boys' ... Read MoreFree Shipping on $75. Valid 5.
p21
sVoffset
p22
I194
saa(lp23
(dp24
Vstart
p25
I0
sVdisambiguatedURL
p26
NsVnamedEntity
p27
VEllie & Stretch Diaper Stacker by Glenna JeanYou've bought the set why not complete it? Accessorize your baby's nursery with the Ellie & Stretch Diaper Stacker by ... Read More
p28
sVoffset
p29
I176
saa(lp30
(dp31
Vstart
p32
I0
sVdisambiguatedURL
p33
NsVnamedEntity
p34
VCotton Tale Cupcake Diaper Stacker (Pink )This adorable Cupcake diaper stacker by Cotton Tale features a pink and brown shirt stripe pattern. The diaper stacker ... Read More
p35
sVoffset
p36
I174
saa(lp37
(dp38
Vstart
p39
I0
sVdisambiguatedURL
p40
NsVnamedEntity
p41
VNewborn Multi On-the-move Diaper StackerNeatly store all of baby's diapers in our super-cute convenient stacker![*-Crisp cotton poplin with rib-knit trim*-Two ... Read More
p42
sVoffset
p43
I172
saa(lp44
(dp45
Vstart
p46
I0
sVdisambiguatedURL
p47
NsVnamedEntity
p48
VNewborn Multi Butterfly Diaper StackerNeatly store all of baby's diapers in our super-cute convenient stacker![*-Crisp cotton poplin with rib-knit trim*-Two ... Read More
p49
sVoffset
p50
I170
saa(lp51
(dp52
Vstart
p53
I0
sVdisambiguatedURL
p54
NsVnamedEntity
p55
VDiaper Stackers: Cotton Tale Lollipops and Roses Diaper Stacker: WhitePinkFind diaper bags and storage at Target.com! Cotton tale lollipops and roses diaper stacker - whitepink (20x11) Read MoreFree Shipping On Orders $50+
p56
sVoffset
p57
I222
saa(lp58
(dp59
Vstart
p60
I0
sVdisambiguatedURL
p61
NsVnamedEntity
p62
VDiaper Stackers: Sumersault Sasha Diaper StackerFind diaper bags and storage at Target.com! Bring some extra charm and order to your nursery with this diaper stacker ... Read MoreFree Shipping On Orders $50+
p63
sVoffset
p64
I207
saa.