(lp1
(lp2
(dp3
Vstart
p4
I0
sVdisambiguatedURL
p5
NsVnamedEntity
p6
VCalories30
p7
sVoffset
p8
I10
saa(lp9
(dp10
Vstart
p11
I0
sVdisambiguatedURL
p12
NsVnamedEntity
p13
VCalories from fat     0
p14
sVoffset
p15
I23
saa(lp16
(dp17
Vstart
p18
I0
sVdisambiguatedURL
p19
NsVnamedEntity
p20
V% Daily Value1
p21
sVoffset
p22
I14
saa(lp23
(dp24
Vstart
p25
I0
sVdisambiguatedURL
p26
Vhttp://dbpedia.org/resource/Fat
p27
sVnamedEntity
p28
VTotal Fat
p29
sVoffset
p30
I9
saa(lp31
(dp32
Vstart
p33
I0
sVdisambiguatedURL
p34
NsVnamedEntity
p35
VSat. Fat
p36
sVoffset
p37
I8
saa(lp38
(dp39
Vstart
p40
I0
sVdisambiguatedURL
p41
Vhttp://dbpedia.org/resource/Trans_fat
p42
sVnamedEntity
p43
VTrans Fat
p44
sVoffset
p45
I9
saa(lp46
(dp47
Vstart
p48
I0
sVdisambiguatedURL
p49
Vhttp://dbpedia.org/resource/Sodium
p50
sVnamedEntity
p51
VSodium
p52
sVoffset
p53
I6
saa(lp54
(dp55
Vstart
p56
I0
sVdisambiguatedURL
p57
NsVnamedEntity
p58
VTotal Carbs.
p59
sVoffset
p60
I12
saa(lp61
(dp62
Vstart
p63
I0
sVdisambiguatedURL
p64
Vhttp://dbpedia.org/resource/Sugar
p65
sVnamedEntity
p66
VSugars
p67
sVoffset
p68
I6
saa(lp69
(dp70
Vstart
p71
I0
sVdisambiguatedURL
p72
Vhttp://dbpedia.org/resource/Protein
p73
sVnamedEntity
p74
VProtein
p75
sVoffset
p76
I7
saa.