(lp1
(lp2
a(lp3
a(lp4
a(lp5
a(lp6
a(lp7
(dp8
Vstart
p9
I0
sS'classes'
p10
(lp11
Vhttp://dbpedia.org/class/yago/Abstraction100002137
p12
aVhttp://dbpedia.org/class/yago/Acid114607521
p13
aVhttp://dbpedia.org/class/yago/CarboxylicAcid114739360
p14
aVhttp://dbpedia.org/class/yago/CarboxylicAcids
p15
aVhttp://dbpedia.org/class/yago/Chemical114806838
p16
aVhttp://dbpedia.org/class/yago/Compound114818238
p17
aVhttp://dbpedia.org/class/yago/Macromolecule114944888
p18
aVhttp://dbpedia.org/class/yago/Material114580897
p19
aVhttp://dbpedia.org/class/yago/Matter100020827
p20
aVhttp://dbpedia.org/class/yago/OrganicCompound114727670
p21
aVhttp://dbpedia.org/class/yago/Part113809207
p22
aVhttp://dbpedia.org/class/yago/Relation100031921
p23
aVhttp://dbpedia.org/class/yago/Substance100019613
p24
aVhttp://dbpedia.org/class/yago/Thing100002452
p25
aVhttp://dbpedia.org/class/yago/FattyAcid114740227
p26
aVhttp://dbpedia.org/class/yago/FattyAcids
p27
aVhttp://dbpedia.org/class/yago/Lipid114938907
p28
aVhttp://dbpedia.org/class/yago/Molecule114682133
p29
aVhttp://dbpedia.org/class/yago/PhysicalEntity100001930
p30
aVhttp://dbpedia.org/class/yago/Unit109465459
p31
aVhttp://dbpedia.org/class/yago/Lipids
p32
asVdisambiguatedURL
p33
Vhttp://dbpedia.org/resource/Trans_fat
p34
sVnamedEntity
p35
VTrans Fat
p36
sVoffset
p37
I9
saa(lp38
a(lp39
a(lp40
a(lp41
a.