(lp1
(lp2
(lp3
a(lp4
a(lp5
aa(lp6
(lp7
a(lp8
a(lp9
aa(lp10
(lp11
a(lp12
a(lp13
aa(lp14
(lp15
((lVhttp://dbpedia.org/resource/Fat
tp16
aa(lp17
a(lp18
aa(lp19
(lp20
a(lp21
a(lp22
aa(lp23
(lp24
((lp25
Vhttp://dbpedia.org/class/yago/Abstraction100002137
p26
aVhttp://dbpedia.org/class/yago/Acid114607521
p27
aVhttp://dbpedia.org/class/yago/CarboxylicAcid114739360
p28
aVhttp://dbpedia.org/class/yago/CarboxylicAcids
p29
aVhttp://dbpedia.org/class/yago/Chemical114806838
p30
aVhttp://dbpedia.org/class/yago/Compound114818238
p31
aVhttp://dbpedia.org/class/yago/Macromolecule114944888
p32
aVhttp://dbpedia.org/class/yago/Material114580897
p33
aVhttp://dbpedia.org/class/yago/Matter100020827
p34
aVhttp://dbpedia.org/class/yago/OrganicCompound114727670
p35
aVhttp://dbpedia.org/class/yago/Part113809207
p36
aVhttp://dbpedia.org/class/yago/Relation100031921
p37
aVhttp://dbpedia.org/class/yago/Substance100019613
p38
aVhttp://dbpedia.org/class/yago/Thing100002452
p39
aVhttp://dbpedia.org/class/yago/FattyAcid114740227
p40
aVhttp://dbpedia.org/class/yago/FattyAcids
p41
aVhttp://dbpedia.org/class/yago/Lipid114938907
p42
aVhttp://dbpedia.org/class/yago/Molecule114682133
p43
aVhttp://dbpedia.org/class/yago/PhysicalEntity100001930
p44
aVhttp://dbpedia.org/class/yago/Unit109465459
p45
aVhttp://dbpedia.org/class/yago/Lipids
p46
aVhttp://dbpedia.org/resource/Trans_fat
tp47
aa(lp48
a(lp49
aa(lp50
(lp51
((lVhttp://dbpedia.org/resource/Sodium
tp52
aa(lp53
a(lp54
aa(lp55
(lp56
a(lp57
a(lp58
aa(lp59
(lp60
((lp61
Vhttp://www.w3.org/2002/07/owl#Thing
p62
aVhttp://dbpedia.org/resource/Sugar
tp63
aa(lp64
a(lp65
aa(lp66
(lp67
((lVhttp://dbpedia.org/resource/Protein
p68
tp69
aa(lp70
a(lp71
aa.