(lp1
(lp2
(lp3
((lVhttp://dbpedia.org/resource/Null
tp4
aa(lp5
a(lp6
a(lp7
((lVhttp://dbpedia.org/resource/Null
tp8
aa(lp9
((lVhttp://dbpedia.org/resource/Null
tp10
aaa(lp11
(lp12
a(lp13
a(lp14
a(lp15
((lVhttp://dbpedia.org/resource/Null
tp16
aa(lp17
((lVhttp://dbpedia.org/resource/Null
tp18
aaa(lp19
(lp20
a(lp21
a(lp22
a(lp23
((lVhttp://dbpedia.org/resource/Null
tp24
aa(lp25
((lVhttp://dbpedia.org/resource/Null
tp26
aaa(lp27
(lp28
a(lp29
a(lp30
a(lp31
((lVhttp://dbpedia.org/resource/Null
tp32
aa(lp33
((lVhttp://dbpedia.org/resource/Null
tp34
aaa(lp35
(lp36
a(lp37
a(lp38
a(lp39
((lVhttp://dbpedia.org/resource/Null
tp40
aa(lp41
((lVhttp://dbpedia.org/resource/Null
tp42
aaa(lp43
(lp44
a(lp45
a(lp46
a(lp47
((lVhttp://dbpedia.org/resource/Null
tp48
aa(lp49
((lVhttp://dbpedia.org/resource/Null
tp50
aaa(lp51
(lp52
a(lp53
a(lp54
a(lp55
((lVhttp://dbpedia.org/resource/Null
tp56
aa(lp57
((lVhttp://dbpedia.org/resource/Null
tp58
aaa(lp59
(lp60
a(lp61
a(lp62
a(lp63
((lVhttp://dbpedia.org/resource/Null
tp64
aa(lp65
((lVhttp://dbpedia.org/resource/Null
tp66
aaa(lp67
(lp68
a(lp69
a(lp70
a(lp71
((lVhttp://dbpedia.org/resource/Null
tp72
aa(lp73
((lVhttp://dbpedia.org/resource/Null
tp74
aaa(lp75
(lp76
a(lp77
a(lp78
a(lp79
((lVhttp://dbpedia.org/resource/Null
tp80
aa(lp81
((lVhttp://dbpedia.org/resource/Null
tp82
aaa(lp83
(lp84
a(lp85
a(lp86
a(lp87
((lVhttp://dbpedia.org/resource/Null
tp88
aa(lp89
((lVhttp://dbpedia.org/resource/Null
tp90
aaa(lp91
(lp92
a(lp93
a(lp94
a(lp95
((lVhttp://dbpedia.org/resource/Null
tp96
aa(lp97
((lVhttp://dbpedia.org/resource/Null
tp98
aaa(lp99
(lp100
((lVhttp://dbpedia.org/resource/Null
tp101
aa(lp102
a(lp103
a(lp104
((lVhttp://dbpedia.org/resource/Null
tp105
aa(lp106
((lVhttp://dbpedia.org/resource/Null
p107
tp108
aaa.