(lp1
(lp2
(lp3
((lVhttp://dbpedia.org/resource/Current_asset
tp4
aa(lp5
((lVhttp://dbpedia.org/resource/Current_asset
tp6
aa(lp7
((lVhttp://dbpedia.org/resource/Current_asset
tp8
aa(lp9
((lVhttp://dbpedia.org/resource/Current_asset
tp10
aaa(lp11
(lp12
((lVhttp://dbpedia.org/resource/Cash
tp13
aa(lp14
a(lp15
a(lp16
aa(lp17
(lp18
a(lp19
a(lp20
a(lp21
aa(lp22
(lp23
((lVhttp://dbpedia.org/resource/Inventory
tp24
aa(lp25
a(lp26
a(lp27
aa(lp28
(lp29
a(lp30
a(lp31
a(lp32
aa(lp33
(lp34
a(lp35
a(lp36
a(lp37
aa(lp38
(lp39
a(lp40
a(lp41
a(lp42
aa(lp43
(lp44
a(lp45
a(lp46
a(lp47
aa(lp48
(lp49
((lVhttp://dbpedia.org/resource/Asset
tp50
aa(lp51
a(lp52
a(lp53
aa(lp54
(lp55
((lVhttp://dbpedia.org/resource/Liability_(financial_accounting)
tp56
aa(lp57
((lp58
Vhttp://www.w3.org/2002/07/owl#Thing
p59
aVhttp://xmlns.com/foaf/0.1/Person
p60
aVhttp://dbpedia.org/ontology/Person
p61
aVhttp://www.ontologydesignpatterns.org/ont/dul/DUL.owl#Agent
p62
aVhttp://www.ontologydesignpatterns.org/ont/dul/DUL.owl#NaturalPerson
p63
aVhttp://www.wikidata.org/entity/Q215627
p64
aVhttp://www.wikidata.org/entity/Q5
p65
aVhttp://dbpedia.org/ontology/Agent
p66
aVhttp://schema.org/Person
p67
aVhttp://dbpedia.org/class/yago/2002FIFAWorldCupReferees
p68
aVhttp://dbpedia.org/class/yago/Adjudicator109769636
p69
aVhttp://dbpedia.org/class/yago/CausalAgent100007347
p70
aVhttp://dbpedia.org/class/yago/LivingThing100004258
p71
aVhttp://dbpedia.org/class/yago/Object100002684
p72
aVhttp://dbpedia.org/class/yago/Organism100004475
p73
aVhttp://dbpedia.org/class/yago/Person100007846
p74
aVhttp://dbpedia.org/class/yago/Referee110514429
p75
aVhttp://dbpedia.org/class/yago/Whole100003553
p76
aVhttp://dbpedia.org/class/yago/YagoLegalActorGeo
p77
aVhttp://dbpedia.org/class/yago/ChineseFootballReferees
p78
aVhttp://dbpedia.org/class/yago/Official110372076
p79
aVhttp://dbpedia.org/class/yago/PhysicalEntity100001930
p80
aVhttp://dbpedia.org/class/yago/LivingPeople
p81
aVhttp://dbpedia.org/class/yago/YagoLegalActor
p82
aVhttp://dbpedia.org/resource/Lu_Jun
tp83
aa(lp84
((lVhttp://dbpedia.org/resource/March_2
tp85
aa(lp86
((lVhttp://dbpedia.org/resource/March_2
tp87
aaa(lp88
(lp89
((lVhttp://dbpedia.org/resource/Current_liability
tp90
aa(lp91
((lVhttp://dbpedia.org/resource/Current_liability
tp92
aa(lp93
((lVhttp://dbpedia.org/resource/Current_liability
tp94
aa(lp95
((lVhttp://dbpedia.org/resource/Current_liability
tp96
aaa(lp97
(lp98
((lVhttp://dbpedia.org/resource/Accounts_payable
tp99
aa(lp100
a(lp101
a(lp102
aa(lp103
(lp104
((lVhttp://dbpedia.org/resource/Money_market
tp105
aa(lp106
a(lp107
a(lp108
aa(lp109
(lp110
a(lp111
a(lp112
a(lp113
aa(lp114
(lp115
a(lp116
a(lp117
a(lp118
aa(lp119
(lp120
a(lp121
a(lp122
a(lp123
aa(lp124
(lp125
a(lp126
a(lp127
a(lp128
aa(lp129
(lp130
((lVhttp://dbpedia.org/resource/Liability_(financial_accounting)
tp131
aa(lp132
a(lp133
a(lp134
aa(lp135
(lp136
((lp137
Vhttp://dbpedia.org/class/yago/Abstraction100002137
p138
aVhttp://dbpedia.org/class/yago/Attribute100024264
p139
aVhttp://dbpedia.org/class/yago/BasicFinancialConcepts
p140
aVhttp://dbpedia.org/class/yago/Cognition100023271
p141
aVhttp://dbpedia.org/class/yago/Concept105835747
p142
aVhttp://dbpedia.org/class/yago/Condition113920835
p143
aVhttp://dbpedia.org/class/yago/Content105809192
p144
aVhttp://dbpedia.org/class/yago/Idea105833840
p145
aVhttp://dbpedia.org/class/yago/Safety114538472
p146
aVhttp://dbpedia.org/class/yago/State100024720
p147
aVhttp://dbpedia.org/class/yago/EquitySecurities
p148
aVhttp://dbpedia.org/class/yago/PsychologicalFeature100023100
p149
aVhttp://dbpedia.org/class/yago/Security114539268
p150
aVhttp://dbpedia.org/resource/Equity_(finance)
tp151
aa(lp152
((lp153
Vhttp://dbpedia.org/class/yago/Abstraction100002137
p154
aVhttp://dbpedia.org/class/yago/Attribute100024264
p155
aVhttp://dbpedia.org/class/yago/BasicFinancialConcepts
p156
aVhttp://dbpedia.org/class/yago/Cognition100023271
p157
aVhttp://dbpedia.org/class/yago/Concept105835747
p158
aVhttp://dbpedia.org/class/yago/Condition113920835
p159
aVhttp://dbpedia.org/class/yago/Content105809192
p160
aVhttp://dbpedia.org/class/yago/Idea105833840
p161
aVhttp://dbpedia.org/class/yago/Safety114538472
p162
aVhttp://dbpedia.org/class/yago/State100024720
p163
aVhttp://dbpedia.org/class/yago/EquitySecurities
p164
aVhttp://dbpedia.org/class/yago/PsychologicalFeature100023100
p165
aVhttp://dbpedia.org/class/yago/Security114539268
p166
aVhttp://dbpedia.org/resource/Equity_(finance)
tp167
aa(lp168
((lp169
Vhttp://dbpedia.org/class/yago/Abstraction100002137
p170
aVhttp://dbpedia.org/class/yago/Attribute100024264
p171
aVhttp://dbpedia.org/class/yago/BasicFinancialConcepts
p172
aVhttp://dbpedia.org/class/yago/Cognition100023271
p173
aVhttp://dbpedia.org/class/yago/Concept105835747
p174
aVhttp://dbpedia.org/class/yago/Condition113920835
p175
aVhttp://dbpedia.org/class/yago/Content105809192
p176
aVhttp://dbpedia.org/class/yago/Idea105833840
p177
aVhttp://dbpedia.org/class/yago/Safety114538472
p178
aVhttp://dbpedia.org/class/yago/State100024720
p179
aVhttp://dbpedia.org/class/yago/EquitySecurities
p180
aVhttp://dbpedia.org/class/yago/PsychologicalFeature100023100
p181
aVhttp://dbpedia.org/class/yago/Security114539268
p182
aVhttp://dbpedia.org/resource/Equity_(finance)
tp183
aa(lp184
((lp185
Vhttp://dbpedia.org/class/yago/Abstraction100002137
p186
aVhttp://dbpedia.org/class/yago/Attribute100024264
p187
aVhttp://dbpedia.org/class/yago/BasicFinancialConcepts
p188
aVhttp://dbpedia.org/class/yago/Cognition100023271
p189
aVhttp://dbpedia.org/class/yago/Concept105835747
p190
aVhttp://dbpedia.org/class/yago/Condition113920835
p191
aVhttp://dbpedia.org/class/yago/Content105809192
p192
aVhttp://dbpedia.org/class/yago/Idea105833840
p193
aVhttp://dbpedia.org/class/yago/Safety114538472
p194
aVhttp://dbpedia.org/class/yago/State100024720
p195
aVhttp://dbpedia.org/class/yago/EquitySecurities
p196
aVhttp://dbpedia.org/class/yago/PsychologicalFeature100023100
p197
aVhttp://dbpedia.org/class/yago/Security114539268
p198
aVhttp://dbpedia.org/resource/Equity_(finance)
p199
tp200
aaa(lp201
(lp202
a(lp203
a(lp204
a(lp205
aa.