ccollections
defaultdict
p1
(c__builtin__
dict
p2
tRp3
I1
(dp4
I1
(lp5
sI2
(lp6
sI3
(lp7
ssI2
(dp8
I1
(lp9
sI2
(lp10
sI3
(lp11
ssI3
(dp12
I1
(lp13
sI2
(lp14
sI3
(lp15
ssI4
(dp16
I1
(lp17
Vhttp://dbpedia.org/ontology/birthPlace
p18
aVhttp://dbpedia.org/property/birthPlace
p19
asI2
(lp20
sI3
(lp21
Vhttp://dbpedia.org/ontology/birthPlace
p22
aVhttp://dbpedia.org/property/birthPlace
p23
assI9
(dp24
I1
(lp25
sI2
(lp26
sI3
(lp27
ssI10
(dp28
I1
(lp29
Vhttp://dbpedia.org/ontology/birthPlace
p30
aVhttp://dbpedia.org/property/birthPlace
p31
asI2
(lp32
sI3
(lp33
Vhttp://dbpedia.org/ontology/birthPlace
p34
aVhttp://dbpedia.org/property/birthPlace
p35
ass.