(lp1
(lp2
(lp3
Vhttp://dbpedia.org/resource/Null
p4
aa(lp5
Vhttp://dbpedia.org/resource/Progressive_Conservative_Party
p6
aa(lp7
Vhttp://dbpedia.org/resource/Leonard_Gustafson
p8
aa(lp9
aa(lp10
(lp11
Vhttp://dbpedia.org/resource/Null
p12
aa(lp13
Vhttp://dbpedia.org/resource/Liberalism
p14
aa(lp15
Vhttp://dbpedia.org/resource/Ralph_Goodale
p16
aa(lp17
aa(lp18
(lp19
Vhttp://dbpedia.org/resource/Null
p20
aa(lp21
Vhttp://dbpedia.org/resource/New_Democratic_Party
p22
aa(lp23
a(lp24
aa(lp25
(lp26
Vhttp://dbpedia.org/resource/Null
p27
aa(lp28
Vhttp://dbpedia.org/resource/Social_credit
p29
aa(lp30
a(lp31
aa.