ccollections
defaultdict
p1
(c__builtin__
dict
p2
tRp3
I4
(dp4
I1
(lp5
Vhttp://www.w3.org/2000/01/rdf-schema#seeAlso
p6
aVhttp://dbpedia.org/ontology/wikiPageExternalLink
p7
aVhttp://xmlns.com/foaf/0.1/primaryTopic
p8
aVhttp://www.w3.org/1999/02/22-rdf-syntax-ns#type
p9
aVhttp://purl.org/dc/terms/subject
p10
aVhttp://dbpedia.org/ontology/wikiPageRedirects
p11
aVhttp://dbpedia.org/property/content
p12
aVhttp://purl.org/voc/vrank#hasRank
p13
aVhttp://xmlns.com/foaf/0.1/isPrimaryTopicOf
p14
aVhttp://www.w3.org/ns/prov#wasDerivedFrom
p15
aVhttp://xmlns.com/foaf/0.1/homepage
p16
aVhttp://dbpedia.org/property/hasPhotoCollection
p17
aVhttp://dbpedia.org/ontology/wikiPageDisambiguates
p18
aVhttp://www.w3.org/2002/07/owl#sameAs
p19
asI2
(lp20
ssI5
(dp21
I1
(lp22
Vhttp://www.w3.org/2000/01/rdf-schema#seeAlso
p23
aVhttp://dbpedia.org/ontology/type
p24
aVhttp://dbpedia.org/ontology/computingMedia
p25
aVhttp://www.w3.org/ns/prov#wasDerivedFrom
p26
aVhttp://dbpedia.org/ontology/format
p27
aVhttp://www.w3.org/1999/02/22-rdf-syntax-ns#type
p28
aVhttp://xmlns.com/foaf/0.1/isPrimaryTopicOf
p29
aVhttp://dbpedia.org/ontology/wikiPageDisambiguates
p30
aVhttp://xmlns.com/foaf/0.1/primaryTopic
p31
aVhttp://purl.org/dc/terms/subject
p32
aVhttp://dbpedia.org/ontology/mediaType
p33
aVhttp://dbpedia.org/ontology/abstract
p34
aVhttp://xmlns.com/foaf/0.1/depiction
p35
aVhttp://dbpedia.org/property/type
p36
aVhttp://dbpedia.org/ontology/thumbnail
p37
aVhttp://dbpedia.org/property/format
p38
aVhttp://dbpedia.org/property/hasPhotoCollection
p39
aVhttp://dbpedia.org/property/media
p40
aVhttp://www.w3.org/2000/01/rdf-schema#comment
p41
aVhttp://dbpedia.org/ontology/wikiPageRedirects
p42
aVhttp://purl.org/voc/vrank#hasRank
p43
aVhttp://dbpedia.org/property/distribution
p44
aVhttp://dbpedia.org/property/mediaType
p45
aVhttp://www.w3.org/2002/07/owl#sameAs
p46
asI2
(lp47
ssI7
(dp48
I1
(lp49
Vhttp://dbpedia.org/ontology/wikiPageExternalLink
p50
aVhttp://xmlns.com/foaf/0.1/primaryTopic
p51
aVhttp://www.w3.org/1999/02/22-rdf-syntax-ns#type
p52
aVhttp://purl.org/dc/terms/subject
p53
aVhttp://purl.org/voc/vrank#hasRank
p54
aVhttp://xmlns.com/foaf/0.1/isPrimaryTopicOf
p55
aVhttp://www.w3.org/ns/prov#wasDerivedFrom
p56
aVhttp://dbpedia.org/ontology/recordLabel
p57
aVhttp://dbpedia.org/property/hasPhotoCollection
p58
aVhttp://dbpedia.org/ontology/wikiPageDisambiguates
p59
aVhttp://www.w3.org/2002/07/owl#sameAs
p60
aVhttp://dbpedia.org/property/label
p61
asI2
(lp62
ss.