(lp1
(lp2
(lp3
a(lp4
((lp5
Vhttp://www.w3.org/2002/07/owl#Thing
p6
aVhttp://dbpedia.org/resource/Holy_of_Holies
tp7
aa(lp8
((lp9
Vhttp://www.w3.org/2002/07/owl#Thing
p10
aVhttp://www.ontologydesignpatterns.org/ont/dul/DUL.owl#Agent
p11
aVhttp://www.ontologydesignpatterns.org/ont/dul/DUL.owl#SocialPerson
p12
aVhttp://www.wikidata.org/entity/Q215380
p13
aVhttp://www.wikidata.org/entity/Q43229
p14
aVhttp://dbpedia.org/ontology/Agent
p15
aVhttp://dbpedia.org/ontology/Band
p16
aVhttp://dbpedia.org/ontology/Group
p17
aVhttp://dbpedia.org/ontology/Organisation
p18
aVhttp://schema.org/MusicGroup
p19
aVhttp://schema.org/Organization
p20
aVhttp://dbpedia.org/resource/B5_(group)
tp21
aaa(lp22
(lp23
a(lp24
((lVhttp://dbpedia.org/resource/Break_Up_(1998_film)
tp25
aa(lp26
((lp27
Vhttp://www.w3.org/2002/07/owl#Thing
p28
aVhttp://www.ontologydesignpatterns.org/ont/dul/DUL.owl#Agent
p29
aVhttp://www.ontologydesignpatterns.org/ont/dul/DUL.owl#SocialPerson
p30
aVhttp://www.wikidata.org/entity/Q215380
p31
aVhttp://www.wikidata.org/entity/Q43229
p32
aVhttp://dbpedia.org/ontology/Agent
p33
aVhttp://dbpedia.org/ontology/Band
p34
aVhttp://dbpedia.org/ontology/Group
p35
aVhttp://dbpedia.org/ontology/Organisation
p36
aVhttp://schema.org/MusicGroup
p37
aVhttp://schema.org/Organization
p38
aVhttp://dbpedia.org/resource/B5_(group)
tp39
aaa(lp40
(lp41
a(lp42
a(lp43
aa(lp44
(lp45
a(lp46
a(lp47
aa(lp48
(lp49
a(lp50
a(lp51
((lp52
Vhttp://www.w3.org/2002/07/owl#Thing
p53
aVhttp://www.ontologydesignpatterns.org/ont/dul/DUL.owl#Agent
p54
aVhttp://www.ontologydesignpatterns.org/ont/dul/DUL.owl#SocialPerson
p55
aVhttp://www.wikidata.org/entity/Q215380
p56
aVhttp://www.wikidata.org/entity/Q43229
p57
aVhttp://dbpedia.org/ontology/Agent
p58
aVhttp://dbpedia.org/ontology/Band
p59
aVhttp://dbpedia.org/ontology/Group
p60
aVhttp://dbpedia.org/ontology/Organisation
p61
aVhttp://schema.org/MusicGroup
p62
aVhttp://schema.org/Organization
p63
aVhttp://dbpedia.org/resource/B5_(group)
tp64
aaa(lp65
(lp66
a(lp67
a(lp68
((lp69
Vhttp://www.w3.org/2002/07/owl#Thing
p70
aVhttp://www.ontologydesignpatterns.org/ont/dul/DUL.owl#Agent
p71
aVhttp://www.ontologydesignpatterns.org/ont/dul/DUL.owl#SocialPerson
p72
aVhttp://www.wikidata.org/entity/Q215380
p73
aVhttp://www.wikidata.org/entity/Q43229
p74
aVhttp://dbpedia.org/ontology/Agent
p75
aVhttp://dbpedia.org/ontology/Band
p76
aVhttp://dbpedia.org/ontology/Group
p77
aVhttp://dbpedia.org/ontology/Organisation
p78
aVhttp://schema.org/MusicGroup
p79
aVhttp://schema.org/Organization
p80
aVhttp://dbpedia.org/resource/B5_(group)
tp81
aaa(lp82
(lp83
a(lp84
a(lp85
((lp86
Vhttp://www.w3.org/2002/07/owl#Thing
p87
aVhttp://www.ontologydesignpatterns.org/ont/dul/DUL.owl#Agent
p88
aVhttp://www.ontologydesignpatterns.org/ont/dul/DUL.owl#SocialPerson
p89
aVhttp://www.wikidata.org/entity/Q215380
p90
aVhttp://www.wikidata.org/entity/Q43229
p91
aVhttp://dbpedia.org/ontology/Agent
p92
aVhttp://dbpedia.org/ontology/Band
p93
aVhttp://dbpedia.org/ontology/Group
p94
aVhttp://dbpedia.org/ontology/Organisation
p95
aVhttp://schema.org/MusicGroup
p96
aVhttp://schema.org/Organization
p97
aVhttp://dbpedia.org/resource/B5_(group)
tp98
aaa(lp99
(lp100
a(lp101
a(lp102
((lp103
Vhttp://www.w3.org/2002/07/owl#Thing
p104
aVhttp://www.ontologydesignpatterns.org/ont/dul/DUL.owl#Agent
p105
aVhttp://www.ontologydesignpatterns.org/ont/dul/DUL.owl#SocialPerson
p106
aVhttp://www.wikidata.org/entity/Q215380
p107
aVhttp://www.wikidata.org/entity/Q43229
p108
aVhttp://dbpedia.org/ontology/Agent
p109
aVhttp://dbpedia.org/ontology/Band
p110
aVhttp://dbpedia.org/ontology/Group
p111
aVhttp://dbpedia.org/ontology/Organisation
p112
aVhttp://schema.org/MusicGroup
p113
aVhttp://schema.org/Organization
p114
aVhttp://dbpedia.org/resource/B5_(group)
tp115
aaa(lp116
(lp117
a(lp118
a(lp119
aa(lp120
(lp121
a(lp122
a(lp123
aa(lp124
(lp125
a(lp126
((lp127
Vhttp://www.w3.org/2002/07/owl#Thing
p128
aVhttp://www.wikidata.org/entity/Q386724
p129
aVhttp://dbpedia.org/ontology/Film
p130
aVhttp://dbpedia.org/ontology/Wikidata:Q11424
p131
aVhttp://dbpedia.org/ontology/Work
p132
aVhttp://schema.org/CreativeWork
p133
aVhttp://schema.org/Movie
p134
aVhttp://dbpedia.org/class/yago/1990sDramaFilms
p135
aVhttp://dbpedia.org/class/yago/1998Films
p136
aVhttp://dbpedia.org/class/yago/Abstraction100002137
p137
aVhttp://dbpedia.org/class/yago/AmericanDramaFilms
p138
aVhttp://dbpedia.org/class/yago/Artifact100021939
p139
aVhttp://dbpedia.org/class/yago/Creation103129123
p140
aVhttp://dbpedia.org/class/yago/Event100029378
p141
aVhttp://dbpedia.org/class/yago/Movie106613686
p142
aVhttp://dbpedia.org/class/yago/Object100002684
p143
aVhttp://dbpedia.org/class/yago/Product104007894
p144
aVhttp://dbpedia.org/class/yago/Show106619065
p145
aVhttp://dbpedia.org/class/yago/SocialEvent107288639
p146
aVhttp://dbpedia.org/class/yago/Whole100003553
p147
aVhttp://dbpedia.org/class/yago/English-languageFilms
p148
aVhttp://dbpedia.org/class/yago/FilmsAboutAlcoholism
p149
aVhttp://dbpedia.org/class/yago/PhysicalEntity100001930
p150
aVhttp://dbpedia.org/class/yago/PsychologicalFeature100023100
p151
aVhttp://dbpedia.org/class/yago/YagoPermanentlyLocatedEntity
p152
aVhttp://dbpedia.org/class/yago/IndependentFilms
p153
aVhttp://dbpedia.org/resource/Falling_Sky
p154
tp155
aa(lp156
aa.