ccollections
defaultdict
p1
(c__builtin__
dict
p2
tRp3
I0
(dp4
I0
(lp5
sI1
(lp6
ssI2
(dp7
I0
(lp8
sI1
(lp9
ssI3
(dp10
I0
(lp11
sI1
(lp12
ssI4
(dp13
I0
(lp14
sI1
(lp15
ssI5
(dp16
I0
(lp17
sI1
(lp18
ssI6
(dp19
I0
(lp20
sI1
(lp21
ssI7
(dp22
I0
(lp23
sI1
(lp24
ssI8
(dp25
I0
(lp26
sI1
(lp27
ssI9
(dp28
I0
(lp29
sI1
(lp30
ssI10
(dp31
I0
(lp32
sI1
(lp33
ssI11
(dp34
I0
(lp35
sI1
(lp36
ssI14
(dp37
I0
(lp38
sI1
(lp39
ssI15
(dp40
I0
(lp41
sI1
(lp42
ss.