(lp1
(lp2
a(lp3
a(lp4
a(lp5
(dp6
Vstart
p7
I0
sS'classes'
p8
(lp9
Vhttp://www.w3.org/2002/07/owl#Thing
p10
asVdisambiguatedURL
p11
Vhttp://dbpedia.org/resource/Mechanical_engineering
p12
sVnamedEntity
p13
Vmechanical engineering
p14
sVoffset
p15
I22
saa(lp16
a(lp17
a(lp18
a(lp19
a(lp20
a(lp21
a(lp22
a.