(lp1
(lp2
(lp3
a(lp4
((lp5
Vhttp://dbpedia.org/class/yago/Abstraction100002137
p6
aVhttp://dbpedia.org/class/yago/DefiniteQuantity113576101
p7
aVhttp://dbpedia.org/class/yago/UnitOfMeasurement113583724
p8
aVhttp://dbpedia.org/class/yago/Measure100033615
p9
aVhttp://dbpedia.org/class/yago/SIDerivedUnits
p10
aVhttp://dbpedia.org/class/yago/UnitsOfElectricalInductance
p11
aVhttp://dbpedia.org/resource/Henry_(unit)
tp12
aa(lp13
a(lp14
((lp15
Vhttp://www.w3.org/2002/07/owl#Thing
p16
aVhttp://www.ontologydesignpatterns.org/ont/dul/DUL.owl#Agent
p17
aVhttp://www.ontologydesignpatterns.org/ont/dul/DUL.owl#SocialPerson
p18
aVhttp://www.wikidata.org/entity/Q43229
p19
aVhttp://www.wikidata.org/entity/Q623109
p20
aVhttp://dbpedia.org/ontology/Agent
p21
aVhttp://dbpedia.org/ontology/Organisation
p22
aVhttp://dbpedia.org/ontology/SoccerLeague
p23
aVhttp://dbpedia.org/ontology/SportsLeague
p24
aVhttp://schema.org/Organization
p25
aVhttp://dbpedia.org/class/yago/Abstraction100002137
p26
aVhttp://dbpedia.org/class/yago/BritishRugbyLeagueCompetitions
p27
aVhttp://dbpedia.org/class/yago/Contest107456188
p28
aVhttp://dbpedia.org/class/yago/Event100029378
p29
aVhttp://dbpedia.org/class/yago/SocialEvent107288639
p30
aVhttp://dbpedia.org/class/yago/EuropeanRugbyLeagueCompetitions
p31
aVhttp://dbpedia.org/class/yago/PsychologicalFeature100023100
p32
aVhttp://dbpedia.org/class/yago/YagoPermanentlyLocatedEntity
p33
aVhttp://dbpedia.org/resource/Super_League
tp34
aa(lp35
a(lp36
a(lp37
((lVhttp://dbpedia.org/resource/Report
tp38
aaa(lp39
(lp40
a(lp41
((lp42
Vhttp://dbpedia.org/class/yago/Abstraction100002137
p43
aVhttp://dbpedia.org/class/yago/DefiniteQuantity113576101
p44
aVhttp://dbpedia.org/class/yago/UnitOfMeasurement113583724
p45
aVhttp://dbpedia.org/class/yago/Measure100033615
p46
aVhttp://dbpedia.org/class/yago/SIDerivedUnits
p47
aVhttp://dbpedia.org/class/yago/UnitsOfElectricalInductance
p48
aVhttp://dbpedia.org/resource/Henry_(unit)
tp49
aa(lp50
a(lp51
((lp52
Vhttp://www.w3.org/2002/07/owl#Thing
p53
aVhttp://www.ontologydesignpatterns.org/ont/dul/DUL.owl#Agent
p54
aVhttp://www.ontologydesignpatterns.org/ont/dul/DUL.owl#SocialPerson
p55
aVhttp://www.wikidata.org/entity/Q43229
p56
aVhttp://www.wikidata.org/entity/Q623109
p57
aVhttp://dbpedia.org/ontology/Agent
p58
aVhttp://dbpedia.org/ontology/Organisation
p59
aVhttp://dbpedia.org/ontology/SoccerLeague
p60
aVhttp://dbpedia.org/ontology/SportsLeague
p61
aVhttp://schema.org/Organization
p62
aVhttp://dbpedia.org/class/yago/Abstraction100002137
p63
aVhttp://dbpedia.org/class/yago/BritishRugbyLeagueCompetitions
p64
aVhttp://dbpedia.org/class/yago/Contest107456188
p65
aVhttp://dbpedia.org/class/yago/Event100029378
p66
aVhttp://dbpedia.org/class/yago/SocialEvent107288639
p67
aVhttp://dbpedia.org/class/yago/EuropeanRugbyLeagueCompetitions
p68
aVhttp://dbpedia.org/class/yago/PsychologicalFeature100023100
p69
aVhttp://dbpedia.org/class/yago/YagoPermanentlyLocatedEntity
p70
aVhttp://dbpedia.org/resource/Super_League
tp71
aa(lp72
a(lp73
a(lp74
((lVhttp://dbpedia.org/resource/Report
tp75
aaa(lp76
(lp77
a(lp78
a(lp79
a(lp80
((lp81
Vhttp://www.w3.org/2002/07/owl#Thing
p82
aVhttp://www.ontologydesignpatterns.org/ont/dul/DUL.owl#Agent
p83
aVhttp://www.ontologydesignpatterns.org/ont/dul/DUL.owl#SocialPerson
p84
aVhttp://www.wikidata.org/entity/Q43229
p85
aVhttp://www.wikidata.org/entity/Q623109
p86
aVhttp://dbpedia.org/ontology/Agent
p87
aVhttp://dbpedia.org/ontology/Organisation
p88
aVhttp://dbpedia.org/ontology/SoccerLeague
p89
aVhttp://dbpedia.org/ontology/SportsLeague
p90
aVhttp://schema.org/Organization
p91
aVhttp://dbpedia.org/class/yago/Abstraction100002137
p92
aVhttp://dbpedia.org/class/yago/BritishRugbyLeagueCompetitions
p93
aVhttp://dbpedia.org/class/yago/Contest107456188
p94
aVhttp://dbpedia.org/class/yago/Event100029378
p95
aVhttp://dbpedia.org/class/yago/SocialEvent107288639
p96
aVhttp://dbpedia.org/class/yago/EuropeanRugbyLeagueCompetitions
p97
aVhttp://dbpedia.org/class/yago/PsychologicalFeature100023100
p98
aVhttp://dbpedia.org/class/yago/YagoPermanentlyLocatedEntity
p99
aVhttp://dbpedia.org/resource/Super_League
tp100
aa(lp101
a(lp102
a(lp103
((lVhttp://dbpedia.org/resource/Report
tp104
aaa(lp105
(lp106
a(lp107
a(lp108
a(lp109
((lp110
Vhttp://www.w3.org/2002/07/owl#Thing
p111
aVhttp://www.ontologydesignpatterns.org/ont/dul/DUL.owl#Agent
p112
aVhttp://www.ontologydesignpatterns.org/ont/dul/DUL.owl#SocialPerson
p113
aVhttp://www.wikidata.org/entity/Q43229
p114
aVhttp://www.wikidata.org/entity/Q623109
p115
aVhttp://dbpedia.org/ontology/Agent
p116
aVhttp://dbpedia.org/ontology/Organisation
p117
aVhttp://dbpedia.org/ontology/SoccerLeague
p118
aVhttp://dbpedia.org/ontology/SportsLeague
p119
aVhttp://schema.org/Organization
p120
aVhttp://dbpedia.org/class/yago/Abstraction100002137
p121
aVhttp://dbpedia.org/class/yago/BritishRugbyLeagueCompetitions
p122
aVhttp://dbpedia.org/class/yago/Contest107456188
p123
aVhttp://dbpedia.org/class/yago/Event100029378
p124
aVhttp://dbpedia.org/class/yago/SocialEvent107288639
p125
aVhttp://dbpedia.org/class/yago/EuropeanRugbyLeagueCompetitions
p126
aVhttp://dbpedia.org/class/yago/PsychologicalFeature100023100
p127
aVhttp://dbpedia.org/class/yago/YagoPermanentlyLocatedEntity
p128
aVhttp://dbpedia.org/resource/Super_League
tp129
aa(lp130
a(lp131
a(lp132
((lVhttp://dbpedia.org/resource/Report
tp133
aaa(lp134
(lp135
a(lp136
((lp137
Vhttp://dbpedia.org/class/yago/Abstraction100002137
p138
aVhttp://dbpedia.org/class/yago/DefiniteQuantity113576101
p139
aVhttp://dbpedia.org/class/yago/UnitOfMeasurement113583724
p140
aVhttp://dbpedia.org/class/yago/Measure100033615
p141
aVhttp://dbpedia.org/class/yago/SIDerivedUnits
p142
aVhttp://dbpedia.org/class/yago/UnitsOfElectricalInductance
p143
aVhttp://dbpedia.org/resource/Henry_(unit)
tp144
aa(lp145
a(lp146
((lp147
Vhttp://www.w3.org/2002/07/owl#Thing
p148
aVhttp://www.ontologydesignpatterns.org/ont/dul/DUL.owl#Agent
p149
aVhttp://www.ontologydesignpatterns.org/ont/dul/DUL.owl#SocialPerson
p150
aVhttp://www.wikidata.org/entity/Q43229
p151
aVhttp://www.wikidata.org/entity/Q623109
p152
aVhttp://dbpedia.org/ontology/Agent
p153
aVhttp://dbpedia.org/ontology/Organisation
p154
aVhttp://dbpedia.org/ontology/SoccerLeague
p155
aVhttp://dbpedia.org/ontology/SportsLeague
p156
aVhttp://schema.org/Organization
p157
aVhttp://dbpedia.org/class/yago/Abstraction100002137
p158
aVhttp://dbpedia.org/class/yago/BritishRugbyLeagueCompetitions
p159
aVhttp://dbpedia.org/class/yago/Contest107456188
p160
aVhttp://dbpedia.org/class/yago/Event100029378
p161
aVhttp://dbpedia.org/class/yago/SocialEvent107288639
p162
aVhttp://dbpedia.org/class/yago/EuropeanRugbyLeagueCompetitions
p163
aVhttp://dbpedia.org/class/yago/PsychologicalFeature100023100
p164
aVhttp://dbpedia.org/class/yago/YagoPermanentlyLocatedEntity
p165
aVhttp://dbpedia.org/resource/Super_League
tp166
aa(lp167
a(lp168
a(lp169
((lVhttp://dbpedia.org/resource/Report
p170
tp171
aaa.