(lp1
(lp2
(dp3
Vstart
p4
I0
sVdisambiguatedURL
p5
NsVnamedEntity
p6
Vw c 77 in charlotte north carolina
p7
sVoffset
p8
I34
saa(lp9
(dp10
Vstart
p11
I0
sVdisambiguatedURL
p12
NsVnamedEntity
p13
Vjklsnf'; in charlotte north carolinaupdated 18 months ago
p14
sVoffset
p15
I57
saa(lp16
(dp17
Vstart
p18
I0
sVdisambiguatedURL
p19
NsVnamedEntity
p20
Vmaureen in danbury connecticut
p21
sVoffset
p22
I30
saa(lp23
(dp24
Vstart
p25
I0
sVdisambiguatedURL
p26
NsVnamedEntity
p27
Vmary in sussex wisconsinupdated 33 months ago
p28
sVoffset
p29
I45
saa(lp30
(dp31
Vstart
p32
I0
sVdisambiguatedURL
p33
NsVnamedEntity
p34
Vsidra in west palm beach floridaupdated 35 months ago
p35
sVoffset
p36
I53
saa(lp37
(dp38
Vstart
p39
I0
sVdisambiguatedURL
p40
NsVnamedEntity
p41
Vels in lawrenceville georgiaupdated 50 months ago
p42
sVoffset
p43
I49
saa(lp44
(dp45
Vstart
p46
I0
sVdisambiguatedURL
p47
NsVnamedEntity
p48
Vterry in ardmore pennsylvaniaupdated 65 months ago
p49
sVoffset
p50
I50
saa(lp51
(dp52
Vstart
p53
I0
sVdisambiguatedURL
p54
NsVnamedEntity
p55
Vhost
p56
sVoffset
p57
I4
saa(lp58
(dp59
Vstart
p60
I0
sVdisambiguatedURL
p61
NsVnamedEntity
p62
Vhost
p63
sVoffset
p64
I4
saa(lp65
(dp66
Vstart
p67
I0
sVdisambiguatedURL
p68
NsVnamedEntity
p69
Vhost
p70
sVoffset
p71
I4
saa(lp72
(dp73
Vstart
p74
I0
sVdisambiguatedURL
p75
NsVnamedEntity
p76
Vhost
p77
sVoffset
p78
I4
saa.