(lp1
(dp2
I0
(dp3
I0
(lp4
sI1
(lp5
sI2
(lp6
sI3
(lp7
sI4
(lp8
sI5
(lp9
ssI1
(dp10
I0
g5
sI1
(lp11
sI2
(lp12
sI3
(lp13
sI4
(lp14
sI5
(lp15
ssI2
(dp16
I0
g6
sI1
g12
sI2
(lp17
sI3
(lp18
sI4
(lp19
sI5
(lp20
ssI3
(dp21
I0
g7
sI1
g13
sI2
g18
sI3
(lp22
sI4
(lp23
sI5
(lp24
ssI4
(dp25
I0
g8
sI1
g14
sI2
g19
sI3
g23
sI4
(lp26
sI5
(lp27
ssI5
(dp28
I0
g9
sI1
g15
sI2
g20
sI3
g24
sI4
g27
sI5
(lp29
ssa(dp30
I0
(dp31
I0
(lp32
sI1
(lp33
sI2
(lp34
sI3
(lp35
Vhttp://www.w3.org/1999/02/22-rdf-syntax-ns#type
p36
aVhttp://www.w3.org/2000/01/rdf-schema#comment
p37
aVhttp://dbpedia.org/ontology/abstract
p38
aVhttp://dbpedia.org/ontology/revenue
p39
aVhttp://purl.org/voc/vrank#hasRank
p40
aVhttp://dbpedia.org/property/image
p41
aVhttp://www.w3.org/ns/prov#wasDerivedFrom
p42
aVhttp://dbpedia.org/property/hasPhotoCollection
p43
aVhttp://www.w3.org/2002/07/owl#sameAs
p44
aVhttp://dbpedia.org/property/revenue
p45
asI4
(lp46
sI5
(lp47
ssI1
(dp48
I0
g33
sI1
(lp49
sI2
(lp50
sI3
(lp51
sI4
(lp52
sI5
(lp53
ssI2
(dp54
I0
g34
sI1
g50
sI2
(lp55
sI3
(lp56
sI4
(lp57
sI5
(lp58
ssI3
(dp59
I0
g35
sI1
g51
sI2
g56
sI3
(lp60
sI4
(lp61
Vhttp://dbpedia.org/ontology/abstract
p62
aVhttp://www.w3.org/2000/01/rdf-schema#comment
p63
asI5
(lp64
ssI4
(dp65
I0
g46
sI1
g52
sI2
g57
sI3
g61
sI4
(lp66
sI5
(lp67
ssI5
(dp68
I0
g47
sI1
g53
sI2
g58
sI3
g64
sI4
g67
sI5
(lp69
ssa(dp70
I0
(dp71
I0
(lp72
sI1
(lp73
sI2
(lp74
sI3
(lp75
Vhttp://www.w3.org/1999/02/22-rdf-syntax-ns#type
p76
aVhttp://www.w3.org/2000/01/rdf-schema#comment
p77
aVhttp://dbpedia.org/ontology/abstract
p78
aVhttp://dbpedia.org/property/wordnet_type
p79
aVhttp://dbpedia.org/property/image
p80
aVhttp://www.w3.org/ns/prov#wasDerivedFrom
p81
aVhttp://dbpedia.org/property/caption
p82
aVhttp://www.w3.org/2002/07/owl#sameAs
p83
asI4
(lp84
sI5
(lp85
ssI1
(dp86
I0
g73
sI1
(lp87
sI2
(lp88
sI3
(lp89
sI4
(lp90
sI5
(lp91
ssI2
(dp92
I0
g74
sI1
g88
sI2
(lp93
sI3
(lp94
sI4
(lp95
sI5
(lp96
ssI3
(dp97
I0
g75
sI1
g89
sI2
g94
sI3
(lp98
sI4
(lp99
Vhttp://dbpedia.org/ontology/abstract
p100
aVhttp://www.w3.org/2000/01/rdf-schema#comment
p101
asI5
(lp102
ssI4
(dp103
I0
g84
sI1
g90
sI2
g95
sI3
g99
sI4
(lp104
sI5
(lp105
ssI5
(dp106
I0
g85
sI1
g91
sI2
g96
sI3
g102
sI4
g105
sI5
(lp107
ssa(dp108
I0
(dp109
I0
(lp110
sI1
(lp111
sI2
(lp112
sI3
(lp113
Vhttp://www.w3.org/1999/02/22-rdf-syntax-ns#type
p114
aVhttp://purl.org/dc/terms/subject
p115
aVhttp://www.w3.org/2000/01/rdf-schema#comment
p116
aVhttp://dbpedia.org/ontology/abstract
p117
aVhttp://dbpedia.org/property/image
p118
aVhttp://dbpedia.org/property/caption
p119
asI4
(lp120
sI5
(lp121
ssI1
(dp122
I0
g111
sI1
(lp123
sI2
(lp124
sI3
(lp125
sI4
(lp126
sI5
(lp127
ssI2
(dp128
I0
g112
sI1
g124
sI2
(lp129
sI3
(lp130
sI4
(lp131
sI5
(lp132
ssI3
(dp133
I0
g113
sI1
g125
sI2
g130
sI3
(lp134
sI4
(lp135
Vhttp://dbpedia.org/ontology/abstract
p136
aVhttp://www.w3.org/2000/01/rdf-schema#comment
p137
asI5
(lp138
ssI4
(dp139
I0
g120
sI1
g126
sI2
g131
sI3
g135
sI4
(lp140
sI5
(lp141
ssI5
(dp142
I0
g121
sI1
g127
sI2
g132
sI3
g138
sI4
g141
sI5
(lp143
ssa(dp144
I0
(dp145
I0
(lp146
sI1
(lp147
sI2
(lp148
sI3
(lp149
Vhttp://www.w3.org/1999/02/22-rdf-syntax-ns#type
p150
aVhttp://www.w3.org/2000/01/rdf-schema#comment
p151
aVhttp://dbpedia.org/ontology/abstract
p152
aVhttp://dbpedia.org/property/image
p153
aVhttp://dbpedia.org/property/assets
p154
aVhttp://dbpedia.org/property/caption
p155
aVhttp://dbpedia.org/ontology/assets
p156
aVhttp://www.w3.org/2002/07/owl#sameAs
p157
asI4
(lp158
sI5
(lp159
ssI1
(dp160
I0
g147
sI1
(lp161
sI2
(lp162
sI3
(lp163
sI4
(lp164
sI5
(lp165
ssI2
(dp166
I0
g148
sI1
g162
sI2
(lp167
sI3
(lp168
sI4
(lp169
sI5
(lp170
ssI3
(dp171
I0
g149
sI1
g163
sI2
g168
sI3
(lp172
sI4
(lp173
Vhttp://dbpedia.org/ontology/abstract
p174
aVhttp://www.w3.org/2000/01/rdf-schema#comment
p175
asI5
(lp176
ssI4
(dp177
I0
g158
sI1
g164
sI2
g169
sI3
g173
sI4
(lp178
sI5
(lp179
ssI5
(dp180
I0
g159
sI1
g165
sI2
g170
sI3
g176
sI4
g179
sI5
(lp181
ssa(dp182
I0
(dp183
I0
(lp184
sI1
(lp185
sI2
(lp186
sI3
(lp187
Vhttp://www.w3.org/1999/02/22-rdf-syntax-ns#type
p188
aVhttp://purl.org/dc/terms/subject
p189
aVhttp://www.w3.org/2000/01/rdf-schema#comment
p190
aVhttp://dbpedia.org/ontology/abstract
p191
aVhttp://dbpedia.org/property/parent
p192
aVhttp://dbpedia.org/property/image
p193
aVhttp://dbpedia.org/property/assets
p194
aVhttp://www.w3.org/ns/prov#wasDerivedFrom
p195
aVhttp://dbpedia.org/property/caption
p196
aVhttp://dbpedia.org/ontology/assets
p197
asI4
(lp198
sI5
(lp199
ssI1
(dp200
I0
g185
sI1
(lp201
sI2
(lp202
sI3
(lp203
sI4
(lp204
sI5
(lp205
ssI2
(dp206
I0
g186
sI1
g202
sI2
(lp207
sI3
(lp208
sI4
(lp209
sI5
(lp210
ssI3
(dp211
I0
g187
sI1
g203
sI2
g208
sI3
(lp212
sI4
(lp213
Vhttp://dbpedia.org/ontology/abstract
p214
aVhttp://www.w3.org/2000/01/rdf-schema#comment
p215
asI5
(lp216
ssI4
(dp217
I0
g198
sI1
g204
sI2
g209
sI3
g213
sI4
(lp218
sI5
(lp219
ssI5
(dp220
I0
g199
sI1
g205
sI2
g210
sI3
g216
sI4
g219
sI5
(lp221
ssa(dp222
I0
(dp223
I0
(lp224
sI1
(lp225
sI2
(lp226
sI3
(lp227
Vhttp://dbpedia.org/ontology/abstract
p228
aVhttp://www.w3.org/1999/02/22-rdf-syntax-ns#type
p229
aVhttp://www.w3.org/2000/01/rdf-schema#comment
p230
asI4
(lp231
sI5
(lp232
ssI1
(dp233
I0
g225
sI1
(lp234
sI2
(lp235
sI3
(lp236
sI4
(lp237
sI5
(lp238
ssI2
(dp239
I0
g226
sI1
g235
sI2
(lp240
sI3
(lp241
sI4
(lp242
sI5
(lp243
ssI3
(dp244
I0
g227
sI1
g236
sI2
g241
sI3
(lp245
sI4
(lp246
Vhttp://dbpedia.org/ontology/abstract
p247
aVhttp://www.w3.org/2000/01/rdf-schema#comment
p248
asI5
(lp249
ssI4
(dp250
I0
g231
sI1
g237
sI2
g242
sI3
g246
sI4
(lp251
sI5
(lp252
ssI5
(dp253
I0
g232
sI1
g238
sI2
g243
sI3
g249
sI4
g252
sI5
(lp254
ssa(dp255
I0
(dp256
I0
(lp257
sI1
(lp258
sI2
(lp259
sI3
(lp260
Vhttp://dbpedia.org/ontology/abstract
p261
aVhttp://dbpedia.org/property/image
p262
aVhttp://www.w3.org/2000/01/rdf-schema#comment
p263
asI4
(lp264
sI5
(lp265
ssI1
(dp266
I0
g258
sI1
(lp267
sI2
(lp268
sI3
(lp269
sI4
(lp270
sI5
(lp271
ssI2
(dp272
I0
g259
sI1
g268
sI2
(lp273
sI3
(lp274
sI4
(lp275
sI5
(lp276
ssI3
(dp277
I0
g260
sI1
g269
sI2
g274
sI3
(lp278
sI4
(lp279
Vhttp://dbpedia.org/ontology/abstract
p280
aVhttp://www.w3.org/2000/01/rdf-schema#comment
p281
asI5
(lp282
ssI4
(dp283
I0
g264
sI1
g270
sI2
g275
sI3
g279
sI4
(lp284
sI5
(lp285
ssI5
(dp286
I0
g265
sI1
g271
sI2
g276
sI3
g282
sI4
g285
sI5
(lp287
ssa(dp288
I0
(dp289
I0
(lp290
sI1
(lp291
sI2
(lp292
sI3
(lp293
Vhttp://dbpedia.org/ontology/abstract
p294
aVhttp://www.w3.org/1999/02/22-rdf-syntax-ns#type
p295
aVhttp://www.w3.org/2000/01/rdf-schema#comment
p296
asI4
(lp297
sI5
(lp298
ssI1
(dp299
I0
g291
sI1
(lp300
sI2
(lp301
sI3
(lp302
sI4
(lp303
sI5
(lp304
ssI2
(dp305
I0
g292
sI1
g301
sI2
(lp306
sI3
(lp307
sI4
(lp308
sI5
(lp309
ssI3
(dp310
I0
g293
sI1
g302
sI2
g307
sI3
(lp311
sI4
(lp312
Vhttp://dbpedia.org/ontology/abstract
p313
aVhttp://www.w3.org/2000/01/rdf-schema#comment
p314
asI5
(lp315
ssI4
(dp316
I0
g297
sI1
g303
sI2
g308
sI3
g312
sI4
(lp317
sI5
(lp318
ssI5
(dp319
I0
g298
sI1
g304
sI2
g309
sI3
g315
sI4
g318
sI5
(lp320
ssa(dp321
I0
(dp322
I0
(lp323
sI1
(lp324
sI2
(lp325
sI3
(lp326
sI4
(lp327
sI5
(lp328
ssI1
(dp329
I0
g324
sI1
(lp330
sI2
(lp331
sI3
(lp332
sI4
(lp333
sI5
(lp334
ssI2
(dp335
I0
g325
sI1
g331
sI2
(lp336
sI3
(lp337
sI4
(lp338
sI5
(lp339
ssI3
(dp340
I0
g326
sI1
g332
sI2
g337
sI3
(lp341
sI4
(lp342
sI5
(lp343
ssI4
(dp344
I0
g327
sI1
g333
sI2
g338
sI3
g342
sI4
(lp345
sI5
(lp346
ssI5
(dp347
I0
g328
sI1
g334
sI2
g339
sI3
g343
sI4
g346
sI5
(lp348
ssa(dp349
I0
(dp350
I0
(lp351
sI1
(lp352
sI2
(lp353
sI3
(lp354
sI4
(lp355
sI5
(lp356
ssI1
(dp357
I0
g352
sI1
(lp358
sI2
(lp359
sI3
(lp360
sI4
(lp361
sI5
(lp362
ssI2
(dp363
I0
g353
sI1
g359
sI2
(lp364
sI3
(lp365
sI4
(lp366
sI5
(lp367
ssI3
(dp368
I0
g354
sI1
g360
sI2
g365
sI3
(lp369
sI4
(lp370
sI5
(lp371
ssI4
(dp372
I0
g355
sI1
g361
sI2
g366
sI3
g370
sI4
(lp373
sI5
(lp374
ssI5
(dp375
I0
g356
sI1
g362
sI2
g367
sI3
g371
sI4
g374
sI5
(lp376
ssa(dp377
I0
(dp378
I0
(lp379
sI1
(lp380
sI2
(lp381
sI3
(lp382
sI4
(lp383
sI5
(lp384
ssI1
(dp385
I0
g380
sI1
(lp386
sI2
(lp387
sI3
(lp388
sI4
(lp389
sI5
(lp390
ssI2
(dp391
I0
g381
sI1
g387
sI2
(lp392
sI3
(lp393
sI4
(lp394
sI5
(lp395
ssI3
(dp396
I0
g382
sI1
g388
sI2
g393
sI3
(lp397
sI4
(lp398
sI5
(lp399
ssI4
(dp400
I0
g383
sI1
g389
sI2
g394
sI3
g398
sI4
(lp401
sI5
(lp402
ssI5
(dp403
I0
g384
sI1
g390
sI2
g395
sI3
g399
sI4
g402
sI5
(lp404
ssa(dp405
I0
(dp406
I0
(lp407
sI1
(lp408
sI2
(lp409
sI3
(lp410
Vhttp://dbpedia.org/ontology/abstract
p411
aVhttp://dbpedia.org/property/image
p412
aVhttp://www.w3.org/2000/01/rdf-schema#comment
p413
asI4
(lp414
sI5
(lp415
ssI1
(dp416
I0
g408
sI1
(lp417
sI2
(lp418
sI3
(lp419
sI4
(lp420
sI5
(lp421
ssI2
(dp422
I0
g409
sI1
g418
sI2
(lp423
sI3
(lp424
sI4
(lp425
sI5
(lp426
ssI3
(dp427
I0
g410
sI1
g419
sI2
g424
sI3
(lp428
sI4
(lp429
Vhttp://dbpedia.org/ontology/abstract
p430
aVhttp://www.w3.org/2000/01/rdf-schema#comment
p431
asI5
(lp432
ssI4
(dp433
I0
g414
sI1
g420
sI2
g425
sI3
g429
sI4
(lp434
sI5
(lp435
ssI5
(dp436
I0
g415
sI1
g421
sI2
g426
sI3
g432
sI4
g435
sI5
(lp437
ssa(dp438
I0
(dp439
I0
(lp440
sI1
(lp441
sI2
(lp442
sI3
(lp443
sI4
(lp444
sI5
(lp445
ssI1
(dp446
I0
g441
sI1
(lp447
sI2
(lp448
sI3
(lp449
sI4
(lp450
sI5
(lp451
ssI2
(dp452
I0
g442
sI1
g448
sI2
(lp453
sI3
(lp454
sI4
(lp455
sI5
(lp456
ssI3
(dp457
I0
g443
sI1
g449
sI2
g454
sI3
(lp458
sI4
(lp459
Vhttp://dbpedia.org/ontology/abstract
p460
aVhttp://www.w3.org/2000/01/rdf-schema#comment
p461
asI5
(lp462
ssI4
(dp463
I0
g444
sI1
g450
sI2
g455
sI3
g459
sI4
(lp464
sI5
(lp465
ssI5
(dp466
I0
g445
sI1
g451
sI2
g456
sI3
g462
sI4
g465
sI5
(lp467
ssa(dp468
I0
(dp469
I0
(lp470
sI1
(lp471
sI2
(lp472
sI3
(lp473
Vhttp://dbpedia.org/ontology/abstract
p474
aVhttp://www.w3.org/2000/01/rdf-schema#comment
p475
asI4
(lp476
sI5
(lp477
ssI1
(dp478
I0
g471
sI1
(lp479
sI2
(lp480
sI3
(lp481
sI4
(lp482
sI5
(lp483
ssI2
(dp484
I0
g472
sI1
g480
sI2
(lp485
sI3
(lp486
sI4
(lp487
sI5
(lp488
ssI3
(dp489
I0
g473
sI1
g481
sI2
g486
sI3
(lp490
sI4
(lp491
Vhttp://dbpedia.org/ontology/abstract
p492
aVhttp://www.w3.org/2000/01/rdf-schema#comment
p493
asI5
(lp494
ssI4
(dp495
I0
g476
sI1
g482
sI2
g487
sI3
g491
sI4
(lp496
sI5
(lp497
ssI5
(dp498
I0
g477
sI1
g483
sI2
g488
sI3
g494
sI4
g497
sI5
(lp499
ssa(dp500
I0
(dp501
I0
(lp502
sI1
(lp503
sI2
(lp504
sI3
(lp505
Vhttp://dbpedia.org/property/caption
p506
aVhttp://dbpedia.org/property/image
p507
aVhttp://www.w3.org/1999/02/22-rdf-syntax-ns#type
p508
aVhttp://purl.org/dc/terms/subject
p509
asI4
(lp510
sI5
(lp511
ssI1
(dp512
I0
g503
sI1
(lp513
sI2
(lp514
sI3
(lp515
sI4
(lp516
sI5
(lp517
ssI2
(dp518
I0
g504
sI1
g514
sI2
(lp519
sI3
(lp520
sI4
(lp521
sI5
(lp522
ssI3
(dp523
I0
g505
sI1
g515
sI2
g520
sI3
(lp524
sI4
(lp525
Vhttp://dbpedia.org/ontology/abstract
p526
aVhttp://www.w3.org/2000/01/rdf-schema#comment
p527
asI5
(lp528
ssI4
(dp529
I0
g510
sI1
g516
sI2
g521
sI3
g525
sI4
(lp530
sI5
(lp531
ssI5
(dp532
I0
g511
sI1
g517
sI2
g522
sI3
g528
sI4
g531
sI5
(lp533
ssa(dp534
I0
(dp535
I0
(lp536
sI1
(lp537
sI2
(lp538
sI3
(lp539
sI4
(lp540
sI5
(lp541
ssI1
(dp542
I0
g537
sI1
(lp543
sI2
(lp544
sI3
(lp545
sI4
(lp546
sI5
(lp547
ssI2
(dp548
I0
g538
sI1
g544
sI2
(lp549
sI3
(lp550
sI4
(lp551
sI5
(lp552
ssI3
(dp553
I0
g539
sI1
g545
sI2
g550
sI3
(lp554
sI4
(lp555
sI5
(lp556
ssI4
(dp557
I0
g540
sI1
g546
sI2
g551
sI3
g555
sI4
(lp558
sI5
(lp559
ssI5
(dp560
I0
g541
sI1
g547
sI2
g552
sI3
g556
sI4
g559
sI5
(lp561
ssa.