(lp1
(lp2
a(lp3
a(lp4
a(lp5
a(lp6
a(lp7
a(lp8
a(lp9
a(lp10
a(lp11
a(lp12
a(lp13
a(lp14
a(lp15
a(lp16
a(lp17
a(lp18
(dp19
Vstart
p20
I0
sS'classes'
p21
(lp22
Vhttp://www.w3.org/2002/07/owl#Thing
p23
aVhttp://www.ontologydesignpatterns.org/ont/dul/DUL.owl#Agent
p24
aVhttp://www.ontologydesignpatterns.org/ont/dul/DUL.owl#SocialPerson
p25
aVhttp://www.wikidata.org/entity/Q43229
p26
aVhttp://dbpedia.org/ontology/Agent
p27
aVhttp://dbpedia.org/ontology/BaseballTeam
p28
aVhttp://dbpedia.org/ontology/Organisation
p29
aVhttp://dbpedia.org/ontology/SportsTeam
p30
aVhttp://schema.org/Organization
p31
aVhttp://schema.org/SportsTeam
p32
aVhttp://dbpedia.org/class/yago/Abstraction100002137
p33
aVhttp://dbpedia.org/class/yago/Association108049401
p34
aVhttp://dbpedia.org/class/yago/BaseballTeam108079319
p35
aVhttp://dbpedia.org/class/yago/Club108227214
p36
aVhttp://dbpedia.org/class/yago/Group100031264
p37
aVhttp://dbpedia.org/class/yago/Organization108008335
p38
aVhttp://dbpedia.org/class/yago/SocialGroup107950920
p39
aVhttp://dbpedia.org/class/yago/Team108208560
p40
aVhttp://dbpedia.org/class/yago/Unit108189659
p41
aVhttp://dbpedia.org/class/yago/YagoLegalActorGeo
p42
aVhttp://dbpedia.org/class/yago/YagoPermanentlyLocatedEntity
p43
aVhttp://dbpedia.org/class/yago/MajorLeagueBaseballTeams
p44
aVhttp://dbpedia.org/class/yago/YagoLegalActor
p45
aVhttp://dbpedia.org/class/yago/ProfessionalBaseballTeamsInMaryland
p46
aVhttp://dbpedia.org/class/yago/SportsClubsEstablishedIn1894
p47
asVdisambiguatedURL
p48
Vhttp://dbpedia.org/resource/Baltimore_Orioles
p49
sVnamedEntity
p50
Vbaltimore oriole
p51
sVoffset
p52
I16
saa(lp53
a(lp54
a(lp55
a.