(lp1
(lp2
(lp3
((lp4
Vhttp://www.w3.org/2002/07/owl#Thing
p5
aVhttp://www.ontologydesignpatterns.org/ont/dul/DUL.owl#Agent
p6
aVhttp://dbpedia.org/ontology/Agent
p7
aVhttp://schema.org/MusicGroup
p8
aVhttp://dbpedia.org/class/yago/Abstraction100002137
p9
aVhttp://dbpedia.org/class/yago/Day115155220
p10
aVhttp://dbpedia.org/class/yago/TimeUnit115154774
p11
aVhttp://dbpedia.org/class/yago/DaysOfTheWeek
p12
aVhttp://dbpedia.org/class/yago/Measure100033615
p13
aVhttp://dbpedia.org/resource/Thursday
tp14
aa(lp15
a(lp16
a(lp17
a(lp18
aa(lp19
(lp20
((lVhttp://dbpedia.org/resource/Pyatnica!_(TV_channel,_Russia)
tp21
aa(lp22
a(lp23
((lVhttp://dbpedia.org/resource/Cocktail_party
tp24
aa(lp25
a(lp26
aa(lp27
(lp28
((lp29
Vhttp://www.w3.org/2002/07/owl#Thing
p30
aVhttp://dbpedia.org/class/yago/Abstraction100002137
p31
aVhttp://dbpedia.org/class/yago/Act100030358
p32
aVhttp://dbpedia.org/class/yago/Activity100407535
p33
aVhttp://dbpedia.org/class/yago/Continuance101017987
p34
aVhttp://dbpedia.org/class/yago/Day115155220
p35
aVhttp://dbpedia.org/class/yago/Event100029378
p36
aVhttp://dbpedia.org/class/yago/Practice100410247
p37
aVhttp://dbpedia.org/class/yago/TimeUnit115154774
p38
aVhttp://dbpedia.org/class/yago/Custom100413239
p39
aVhttp://dbpedia.org/class/yago/DaysOfTheWeek
p40
aVhttp://dbpedia.org/class/yago/DeathCustoms
p41
aVhttp://dbpedia.org/class/yago/Measure100033615
p42
aVhttp://dbpedia.org/class/yago/PsychologicalFeature100023100
p43
aVhttp://dbpedia.org/class/yago/Survival101022178
p44
aVhttp://dbpedia.org/class/yago/YagoPermanentlyLocatedEntity
p45
aVhttp://dbpedia.org/resource/Saturday
tp46
aa(lp47
a(lp48
a(lp49
((lp50
Vhttp://www.w3.org/2002/07/owl#Thing
p51
aVhttp://www.ontologydesignpatterns.org/ont/dul/DUL.owl#Agent
p52
aVhttp://www.ontologydesignpatterns.org/ont/dul/DUL.owl#SocialPerson
p53
aVhttp://www.wikidata.org/entity/Q215380
p54
aVhttp://www.wikidata.org/entity/Q43229
p55
aVhttp://dbpedia.org/ontology/Agent
p56
aVhttp://dbpedia.org/ontology/Band
p57
aVhttp://dbpedia.org/ontology/Group
p58
aVhttp://dbpedia.org/ontology/Organisation
p59
aVhttp://schema.org/MusicGroup
p60
aVhttp://schema.org/Organization
p61
aVhttp://umbel.org/umbel/rc/Band_MusicGroup
p62
aVhttp://dbpedia.org/class/yago/Abstraction100002137
p63
aVhttp://dbpedia.org/class/yago/Group100031264
p64
aVhttp://dbpedia.org/class/yago/DubstepMusicGroups
p65
aVhttp://dbpedia.org/class/yago/EnglishElectronicMusicGroups
p66
aVhttp://dbpedia.org/resource/Various
tp67
aa(lp68
aa(lp69
(lp70
((lp71
Vhttp://www.w3.org/2002/07/owl#Thing
p72
aVhttp://dbpedia.org/class/yago/Abstraction100002137
p73
aVhttp://dbpedia.org/class/yago/Act100030358
p74
aVhttp://dbpedia.org/class/yago/Activity100407535
p75
aVhttp://dbpedia.org/class/yago/Continuance101017987
p76
aVhttp://dbpedia.org/class/yago/Day115155220
p77
aVhttp://dbpedia.org/class/yago/Event100029378
p78
aVhttp://dbpedia.org/class/yago/Practice100410247
p79
aVhttp://dbpedia.org/class/yago/TimeUnit115154774
p80
aVhttp://dbpedia.org/class/yago/Custom100413239
p81
aVhttp://dbpedia.org/class/yago/DaysOfTheWeek
p82
aVhttp://dbpedia.org/class/yago/DeathCustoms
p83
aVhttp://dbpedia.org/class/yago/Measure100033615
p84
aVhttp://dbpedia.org/class/yago/PsychologicalFeature100023100
p85
aVhttp://dbpedia.org/class/yago/Survival101022178
p86
aVhttp://dbpedia.org/class/yago/YagoPermanentlyLocatedEntity
p87
aVhttp://dbpedia.org/resource/Saturday
tp88
aa(lp89
a(lp90
a(lp91
a(lp92
aa(lp93
(lp94
((lp95
Vhttp://www.w3.org/2002/07/owl#Thing
p96
aVhttp://dbpedia.org/class/yago/Abstraction100002137
p97
aVhttp://dbpedia.org/class/yago/Day115155220
p98
aVhttp://dbpedia.org/class/yago/Festival115162388
p99
aVhttp://dbpedia.org/class/yago/TimePeriod115113229
p100
aVhttp://dbpedia.org/class/yago/TimeUnit115154774
p101
aVhttp://dbpedia.org/class/yago/ChristianFestivalsAndHolyDays
p102
aVhttp://dbpedia.org/class/yago/DaysOfTheWeek
p103
aVhttp://dbpedia.org/class/yago/EasternOrthodoxLiturgicalDays
p104
aVhttp://dbpedia.org/class/yago/Measure100033615
p105
aVhttp://dbpedia.org/class/yago/FundamentalQuantity113575869
p106
aVhttp://dbpedia.org/resource/Sunday
p107
tp108
aa(lp109
a(lp110
a(lp111
a(lp112
aa.