(lp1
(dp2
I0
(dp3
I0
(lp4
sI1
(lp5
sI2
(lp6
Vhttp://dbpedia.org/property/origin
p7
aVhttp://dbpedia.org/ontology/country
p8
aVhttp://dbpedia.org/ontology/nationality
p9
aVhttp://dbpedia.org/property/nationality
p10
aVhttp://dbpedia.org/ontology/birthPlace
p11
aVhttp://dbpedia.org/ontology/locationCountry
p12
aVhttp://dbpedia.org/ontology/hometown
p13
aVhttp://dbpedia.org/property/birthPlace
p14
aVhttp://dbpedia.org/property/shortDescription
p15
aVhttp://dbpedia.org/ontology/deathPlace
p16
aVhttp://dbpedia.org/property/country
p17
aVhttp://dbpedia.org/property/usedBy
p18
aVhttp://dbpedia.org/ontology/stateOfOrigin
p19
aVhttp://dbpedia.org/property/locationCountry
p20
aVhttp://dbpedia.org/property/placeOfBirth
p21
asI3
(lp22
Vhttp://dbpedia.org/property/origin
p23
aVhttp://dbpedia.org/ontology/country
p24
aVhttp://dbpedia.org/ontology/nationality
p25
aVhttp://dbpedia.org/property/nationality
p26
aVhttp://dbpedia.org/ontology/birthPlace
p27
aVhttp://dbpedia.org/ontology/locationCountry
p28
aVhttp://dbpedia.org/ontology/hometown
p29
aVhttp://dbpedia.org/property/birthPlace
p30
aVhttp://dbpedia.org/property/shortDescription
p31
aVhttp://dbpedia.org/ontology/deathPlace
p32
aVhttp://dbpedia.org/property/country
p33
aVhttp://dbpedia.org/property/usedBy
p34
aVhttp://dbpedia.org/ontology/stateOfOrigin
p35
aVhttp://dbpedia.org/property/locationCountry
p36
aVhttp://dbpedia.org/property/placeOfBirth
p37
asI4
(lp38
sI5
(lp39
ssI1
(dp40
I0
g5
sI1
(lp41
sI2
(lp42
sI3
(lp43
sI4
(lp44
sI5
(lp45
ssI2
(dp46
I0
g6
sI1
g42
sI2
(lp47
sI3
(lp48
sI4
(lp49
sI5
(lp50
Vhttp://dbpedia.org/ontology/country
p51
assI3
(dp52
I0
g22
sI1
g43
sI3
(lp53
sI4
(lp54
sI5
(lp55
Vhttp://dbpedia.org/ontology/country
p56
assI4
(dp57
I0
g38
sI1
g44
sI2
g49
sI3
g54
sI4
(lp58
sI5
(lp59
ssI5
(dp60
I0
g39
sI1
g45
sI2
g50
sI3
g55
sI4
g59
sI5
(lp61
ssa(dp62
I0
(dp63
I0
(lp64
sI1
(lp65
sI2
(lp66
Vhttp://dbpedia.org/property/placeOfDeath
p67
aVhttp://dbpedia.org/ontology/country
p68
aVhttp://dbpedia.org/ontology/location
p69
aVhttp://dbpedia.org/property/start
p70
aVhttp://dbpedia.org/property/nationality
p71
aVhttp://dbpedia.org/ontology/birthPlace
p72
aVhttp://dbpedia.org/property/deathPlace
p73
aVhttp://dbpedia.org/ontology/nationality
p74
aVhttp://dbpedia.org/property/birthPlace
p75
aVhttp://dbpedia.org/ontology/deathPlace
p76
aVhttp://dbpedia.org/property/country
p77
aVhttp://dbpedia.org/property/placeOfBirth
p78
asI3
(lp79
Vhttp://dbpedia.org/property/placeOfDeath
p80
aVhttp://dbpedia.org/ontology/country
p81
aVhttp://dbpedia.org/ontology/location
p82
aVhttp://dbpedia.org/property/start
p83
aVhttp://dbpedia.org/property/nationality
p84
aVhttp://dbpedia.org/ontology/birthPlace
p85
aVhttp://dbpedia.org/property/deathPlace
p86
aVhttp://dbpedia.org/ontology/nationality
p87
aVhttp://dbpedia.org/property/birthPlace
p88
aVhttp://dbpedia.org/ontology/deathPlace
p89
aVhttp://dbpedia.org/property/country
p90
aVhttp://dbpedia.org/property/placeOfBirth
p91
asI4
(lp92
sI5
(lp93
ssI1
(dp94
I0
g65
sI1
(lp95
sI2
(lp96
Vhttp://dbpedia.org/ontology/nationality
p97
aVhttp://dbpedia.org/ontology/birthPlace
p98
aVhttp://dbpedia.org/property/birthPlace
p99
aVhttp://dbpedia.org/property/nationality
p100
aVhttp://dbpedia.org/property/placeOfBirth
p101
asI3
(lp102
Vhttp://dbpedia.org/ontology/nationality
p103
aVhttp://dbpedia.org/ontology/birthPlace
p104
aVhttp://dbpedia.org/property/birthPlace
p105
aVhttp://dbpedia.org/property/nationality
p106
aVhttp://dbpedia.org/property/placeOfBirth
p107
asI4
(lp108
sI5
(lp109
ssI2
(dp110
I0
g66
sI1
g96
sI2
(lp111
sI3
(lp112
sI4
(lp113
sI5
(lp114
ssI3
(dp115
I0
g79
sI1
g102
sI3
(lp116
sI4
(lp117
sI5
(lp118
ssI4
(dp119
I0
g92
sI1
g108
sI2
g113
sI3
g117
sI4
(lp120
sI5
(lp121
ssI5
(dp122
I0
g93
sI1
g109
sI2
g114
sI3
g118
sI4
g121
sI5
(lp123
ssa(dp124
I0
(dp125
I0
(lp126
sI1
(lp127
sI2
(lp128
Vhttp://dbpedia.org/property/placeOfDeath
p129
aVhttp://dbpedia.org/ontology/birthPlace
p130
aVhttp://dbpedia.org/property/deathPlace
p131
aVhttp://dbpedia.org/property/birthPlace
p132
aVhttp://dbpedia.org/ontology/deathPlace
p133
aVhttp://dbpedia.org/property/placeOfBirth
p134
asI3
(lp135
Vhttp://dbpedia.org/property/placeOfDeath
p136
aVhttp://dbpedia.org/ontology/birthPlace
p137
aVhttp://dbpedia.org/property/deathPlace
p138
aVhttp://dbpedia.org/property/birthPlace
p139
aVhttp://dbpedia.org/ontology/deathPlace
p140
aVhttp://dbpedia.org/property/placeOfBirth
p141
asI4
(lp142
sI5
(lp143
ssI1
(dp144
I0
g127
sI1
(lp145
sI2
(lp146
sI3
(lp147
sI4
(lp148
sI5
(lp149
ssI2
(dp150
I0
g128
sI1
g146
sI2
(lp151
sI3
(lp152
sI4
(lp153
sI5
(lp154
ssI3
(dp155
I0
g135
sI1
g147
sI3
(lp156
sI4
(lp157
sI5
(lp158
ssI4
(dp159
I0
g142
sI1
g148
sI2
g153
sI3
g157
sI4
(lp160
sI5
(lp161
ssI5
(dp162
I0
g143
sI1
g149
sI2
g154
sI3
g158
sI4
g161
sI5
(lp163
ssa(dp164
I0
(dp165
I0
(lp166
sI1
(lp167
sI2
(lp168
Vhttp://dbpedia.org/ontology/birthPlace
p169
aVhttp://dbpedia.org/property/birthPlace
p170
asI3
(lp171
sI4
(lp172
sI5
(lp173
ssI1
(dp174
I0
g167
sI1
(lp175
sI2
(lp176
sI3
(lp177
sI4
(lp178
sI5
(lp179
ssI2
(dp180
I0
g168
sI1
g176
sI2
(lp181
sI3
(lp182
Vhttp://dbpedia.org/property/placeOfDeath
p183
aVhttp://dbpedia.org/ontology/birthPlace
p184
aVhttp://dbpedia.org/property/location
p185
aVhttp://dbpedia.org/property/deathPlace
p186
aVhttp://dbpedia.org/ontology/deathPlace
p187
aVhttp://dbpedia.org/ontology/battle
p188
aVhttp://dbpedia.org/property/placeOfBirth
p189
asI4
(lp190
sI5
(lp191
Vhttp://dbpedia.org/ontology/birthPlace
p192
aVhttp://dbpedia.org/property/birthPlace
p193
aVhttp://dbpedia.org/property/placeOfBirth
p194
assI3
(dp195
I0
g171
sI1
g177
sI2
g182
sI3
(lp196
sI4
(lp197
sI5
(lp198
ssI4
(dp199
I0
g172
sI1
g178
sI2
g190
sI3
g197
sI4
(lp200
sI5
(lp201
ssI5
(dp202
I0
g173
sI1
g179
sI2
g191
sI3
g198
sI4
g201
sI5
(lp203
ssa(dp204
I0
(dp205
I0
(lp206
sI1
(lp207
sI2
(lp208
Vhttp://dbpedia.org/ontology/residence
p209
aVhttp://dbpedia.org/ontology/birthPlace
p210
aVhttp://dbpedia.org/ontology/nationality
p211
aVhttp://dbpedia.org/property/birthPlace
p212
aVhttp://dbpedia.org/ontology/deathPlace
p213
aVhttp://dbpedia.org/ontology/stateOfOrigin
p214
aVhttp://dbpedia.org/property/placeOfBirth
p215
asI3
(lp216
Vhttp://dbpedia.org/ontology/residence
p217
aVhttp://dbpedia.org/ontology/birthPlace
p218
aVhttp://dbpedia.org/ontology/nationality
p219
aVhttp://dbpedia.org/property/birthPlace
p220
aVhttp://dbpedia.org/ontology/deathPlace
p221
aVhttp://dbpedia.org/ontology/stateOfOrigin
p222
aVhttp://dbpedia.org/property/placeOfBirth
p223
asI4
(lp224
sI5
(lp225
ssI1
(dp226
I0
g207
sI1
(lp227
sI2
(lp228
sI3
(lp229
sI4
(lp230
sI5
(lp231
ssI2
(dp232
I0
g208
sI1
g228
sI2
(lp233
sI3
(lp234
sI4
(lp235
sI5
(lp236
ssI3
(dp237
I0
g216
sI1
g229
sI3
(lp238
sI4
(lp239
sI5
(lp240
ssI4
(dp241
I0
g224
sI1
g230
sI2
g235
sI3
g239
sI4
(lp242
sI5
(lp243
ssI5
(dp244
I0
g225
sI1
g231
sI2
g236
sI3
g240
sI4
g243
sI5
(lp245
ssa(dp246
I0
(dp247
I0
(lp248
sI1
(lp249
sI2
(lp250
sI3
(lp251
sI4
(lp252
sI5
(lp253
ssI1
(dp254
I0
g249
sI1
(lp255
sI2
(lp256
Vhttp://dbpedia.org/ontology/birthPlace
p257
aVhttp://purl.org/dc/terms/subject
p258
aVhttp://dbpedia.org/property/birthPlace
p259
aVhttp://dbpedia.org/property/placeOfBirth
p260
asI3
(lp261
Vhttp://dbpedia.org/ontology/birthPlace
p262
aVhttp://purl.org/dc/terms/subject
p263
aVhttp://dbpedia.org/property/birthPlace
p264
aVhttp://dbpedia.org/property/placeOfBirth
p265
asI4
(lp266
sI5
(lp267
ssI2
(dp268
I0
g250
sI1
g256
sI2
(lp269
sI3
(lp270
sI4
(lp271
sI5
(lp272
Vhttp://dbpedia.org/ontology/birthPlace
p273
aVhttp://dbpedia.org/property/birthPlace
p274
aVhttp://dbpedia.org/property/placeOfBirth
p275
assI3
(dp276
I0
g251
sI1
g261
sI3
(lp277
sI4
(lp278
sI5
(lp279
Vhttp://dbpedia.org/ontology/birthPlace
p280
aVhttp://dbpedia.org/property/birthPlace
p281
aVhttp://dbpedia.org/property/placeOfBirth
p282
assI4
(dp283
I0
g252
sI1
g266
sI2
g271
sI3
g278
sI4
(lp284
sI5
(lp285
ssI5
(dp286
I0
g253
sI1
g267
sI2
g272
sI3
g279
sI4
g285
sI5
(lp287
ssa(dp288
I0
(dp289
I0
(lp290
sI1
(lp291
sI2
(lp292
sI3
(lp293
sI4
(lp294
sI5
(lp295
ssI1
(dp296
I0
g291
sI1
(lp297
sI2
(lp298
sI3
(lp299
sI4
(lp300
sI5
(lp301
ssI2
(dp302
I0
g292
sI1
g298
sI2
(lp303
sI3
(lp304
sI4
(lp305
sI5
(lp306
ssI3
(dp307
I0
g293
sI1
g299
sI3
(lp308
sI4
(lp309
sI5
(lp310
ssI4
(dp311
I0
g294
sI1
g300
sI2
g305
sI3
g309
sI4
(lp312
sI5
(lp313
ssI5
(dp314
I0
g295
sI1
g301
sI2
g306
sI3
g310
sI4
g313
sI5
(lp315
ssa(dp316
I0
(dp317
I0
(lp318
sI1
(lp319
sI2
(lp320
sI3
(lp321
sI4
(lp322
sI5
(lp323
ssI1
(dp324
I0
g319
sI1
(lp325
sI2
(lp326
sI3
(lp327
sI4
(lp328
sI5
(lp329
ssI2
(dp330
I0
g320
sI1
g326
sI2
(lp331
sI3
(lp332
sI4
(lp333
sI5
(lp334
ssI3
(dp335
I0
g321
sI1
g327
sI3
(lp336
sI4
(lp337
sI5
(lp338
ssI4
(dp339
I0
g322
sI1
g328
sI2
g333
sI3
g337
sI4
(lp340
sI5
(lp341
ssI5
(dp342
I0
g323
sI1
g329
sI2
g334
sI3
g338
sI4
g341
sI5
(lp343
ssa(dp344
I0
(dp345
I0
(lp346
sI1
(lp347
sI2
(lp348
sI3
(lp349
sI4
(lp350
sI5
(lp351
ssI1
(dp352
I0
g347
sI1
(lp353
sI2
(lp354
sI3
(lp355
sI4
(lp356
sI5
(lp357
ssI2
(dp358
I0
g348
sI1
g354
sI2
(lp359
sI3
(lp360
sI4
(lp361
sI5
(lp362
Vhttp://dbpedia.org/ontology/birthPlace
p363
aVhttp://dbpedia.org/property/birthPlace
p364
aVhttp://dbpedia.org/property/placeOfBirth
p365
assI3
(dp366
I0
g349
sI1
g355
sI3
(lp367
sI4
(lp368
sI5
(lp369
Vhttp://dbpedia.org/ontology/birthPlace
p370
aVhttp://dbpedia.org/property/birthPlace
p371
aVhttp://dbpedia.org/property/placeOfBirth
p372
assI4
(dp373
I0
g350
sI1
g356
sI2
g361
sI3
g368
sI4
(lp374
sI5
(lp375
ssI5
(dp376
I0
g351
sI1
g357
sI2
g362
sI3
g369
sI4
g375
sI5
(lp377
ssa(dp378
I0
(dp379
I0
(lp380
sI1
(lp381
sI2
(lp382
sI3
(lp383
sI4
(lp384
sI5
(lp385
ssI1
(dp386
I0
g381
sI1
(lp387
sI2
(lp388
sI3
(lp389
sI4
(lp390
sI5
(lp391
ssI2
(dp392
I0
g382
sI1
g388
sI2
(lp393
sI3
(lp394
sI4
(lp395
sI5
(lp396
ssI3
(dp397
I0
g383
sI1
g389
sI3
(lp398
sI4
(lp399
sI5
(lp400
ssI4
(dp401
I0
g384
sI1
g390
sI2
g395
sI3
g399
sI4
(lp402
sI5
(lp403
ssI5
(dp404
I0
g385
sI1
g391
sI2
g396
sI3
g400
sI4
g403
sI5
(lp405
ssa.