(lp1
(lp2
(dp3
Vstart
p4
I0
sVdisambiguatedURL
p5
NsVnamedEntity
p6
VAdrenalynn ??? ???A Litt..Views :   Video Duration : NA  Related videos
p7
sVoffset
p8
I71
saa(lp9
(dp10
Vstart
p11
I0
sVdisambiguatedURL
p12
NsVnamedEntity
p13
VKatha bl ??st geil vid 2 c com 2Views :   Video Duration : NA  Related videos
p14
sVoffset
p15
I77
saa(lp16
(dp17
Vstart
p18
I0
sVdisambiguatedURL
p19
NsVnamedEntity
p20
V???? Webcam HADURI ??? ?? ...Views :   Video Duration : NA  Related videos
p21
sVoffset
p22
I74
saa(lp23
(dp24
Vstart
p25
I0
sVdisambiguatedURL
p26
NsVnamedEntity
p27
VVivian Schmitt Der Goldene K????figViews : 57842  Video Duration : 19:23  Related videos
p28
sVoffset
p29
I88
saa(lp30
(dp31
Vstart
p32
I0
sVdisambiguatedURL
p33
NsVnamedEntity
p34
Vasian  Japanese bbw housemaid ...Views :   Video Duration : 04:00  Related videos
p35
sVoffset
p36
I81
saa(lp37
(dp38
Vstart
p39
I0
sVdisambiguatedURL
p40
NsVnamedEntity
p41
VKelly Trump B????se M????dchenViews : 312  Video Duration : 17:08  Related videos
p42
sVoffset
p43
I81
saa(lp44
(dp45
Vstart
p46
I0
sVdisambiguatedURL
p47
NsVnamedEntity
p48
VVeronica Vaughn ??? ???M..Views : 840  Video Duration : 05:15  Related videos
p49
sVoffset
p50
I77
saa(lp51
(dp52
Vstart
p53
I0
sVdisambiguatedURL
p54
NsVnamedEntity
p55
VVivian Schmitt Feuchte Tr????ume Scene 4Views : 505190  Video Duration : 12:00  Related videos
p56
sVoffset
p57
I94
saa(lp58
(dp59
Vstart
p60
I0
sVdisambiguatedURL
p61
NsVnamedEntity
p62
VDaphne Rosen ??? ???Room..Views : 8492  Video Duration : 01:54  Related videos
p63
sVoffset
p64
I78
saa.