(lp1
(lp2
a(lp3
a(lp4
a(lp5
a(lp6
a(lp7
(dp8
Vstart
p9
I0
sS'classes'
p10
(lp11
Vhttp://dbpedia.org/class/yago/Artifact100021939
p12
aVhttp://dbpedia.org/class/yago/BodiesOfWater
p13
aVhttp://dbpedia.org/class/yago/BodyOfWater109225146
p14
aVhttp://dbpedia.org/class/yago/Excavation103302121
p15
aVhttp://dbpedia.org/class/yago/Object100002684
p16
aVhttp://dbpedia.org/class/yago/Thing100002452
p17
aVhttp://dbpedia.org/class/yago/Whole100003553
p18
aVhttp://dbpedia.org/class/yago/YagoGeoEntity
p19
aVhttp://dbpedia.org/class/yago/PhysicalEntity100001930
p20
aVhttp://dbpedia.org/class/yago/Pool103982060
p21
aVhttp://dbpedia.org/class/yago/YagoPermanentlyLocatedEntity
p22
aVhttp://dbpedia.org/class/yago/NaturalPools
p23
asVdisambiguatedURL
p24
Vhttp://dbpedia.org/resource/Tide_pool
p25
sVnamedEntity
p26
VPool
p27
sVoffset
p28
I4
saa(lp29
(dp30
Vstart
p31
I0
sg10
(lp32
Vhttp://umbel.org/umbel/rc/NewspaperSeries
p33
aVhttp://dbpedia.org/class/yago/AmericanBusinessMagazines
p34
aVhttp://dbpedia.org/class/yago/Artifact100021939
p35
aVhttp://dbpedia.org/class/yago/Creation103129123
p36
aVhttp://dbpedia.org/class/yago/Magazine106595351
p37
aVhttp://dbpedia.org/class/yago/Medium106254669
p38
aVhttp://dbpedia.org/class/yago/Newspaper106267145
p39
aVhttp://dbpedia.org/class/yago/Object100002684
p40
aVhttp://dbpedia.org/class/yago/Product104007894
p41
aVhttp://dbpedia.org/class/yago/Publication106589574
p42
aVhttp://dbpedia.org/class/yago/Whole100003553
p43
aVhttp://dbpedia.org/class/yago/Instrumentality103575240
p44
aVhttp://dbpedia.org/class/yago/PhysicalEntity100001930
p45
aVhttp://dbpedia.org/class/yago/Press106263369
p46
aVhttp://dbpedia.org/class/yago/Work104599396
p47
aVhttp://dbpedia.org/class/yago/PrintMedia106263609
p48
asVdisambiguatedURL
p49
Vhttp://dbpedia.org/resource/Custom_Builder
p50
sVnamedEntity
p51
VCustom Built
p52
sVoffset
p53
I12
saa(lp54
(dp55
Vstart
p56
I0
sg10
(lp57
Vhttp://dbpedia.org/class/yago/AdministrativeDistrict108491826
p58
aVhttp://dbpedia.org/class/yago/Country108544813
p59
aVhttp://dbpedia.org/class/yago/District108552138
p60
aVhttp://dbpedia.org/class/yago/Location100027167
p61
aVhttp://dbpedia.org/class/yago/Object100002684
p62
aVhttp://dbpedia.org/class/yago/Region108630985
p63
aVhttp://dbpedia.org/class/yago/YagoGeoEntity
p64
aVhttp://dbpedia.org/class/yago/YagoLegalActorGeo
p65
aVhttp://dbpedia.org/class/yago/PhysicalEntity100001930
p66
aVhttp://dbpedia.org/class/yago/YagoPermanentlyLocatedEntity
p67
aVhttp://dbpedia.org/class/yago/UnitedStatesHousingBubble
p68
asVdisambiguatedURL
p69
Vhttp://dbpedia.org/resource/Short_sale_(real_estate)
p70
sVnamedEntity
p71
VShort Sale
p72
sVoffset
p73
I10
saa(lp74
a(lp75
a(lp76
a(lp77
a(lp78
a.