(lp1
(lp2
(lp3
a(lp4
a(lp5
aa(lp6
(lp7
a(lp8
a(lp9
aa(lp10
(lp11
Vhttp://dbpedia.org/resource/Basement
p12
aa(lp13
a(lp14
aa(lp15
(lp16
a(lp17
a(lp18
aa(lp19
(lp20
a(lp21
a(lp22
aa(lp23
(lp24
Vhttp://dbpedia.org/resource/Tide_pool
p25
aa(lp26
a(lp27
aa(lp28
(lp29
Vhttp://dbpedia.org/resource/Custom_Builder
p30
aa(lp31
a(lp32
aa(lp33
(lp34
Vhttp://dbpedia.org/resource/Short_sale_(real_estate)
p35
aa(lp36
a(lp37
aa(lp38
(lp39
Vhttp://dbpedia.org/resource/Loft
p40
aa(lp41
a(lp42
aa(lp43
(lp44
Vhttp://dbpedia.org/resource/Foreclosure
p45
aa(lp46
a(lp47
aa(lp48
(lp49
Vhttp://dbpedia.org/resource/Condominium
p50
aa(lp51
a(lp52
aa(lp53
(lp54
Vhttp://dbpedia.org/resource/City_View
p55
aa(lp56
a(lp57
aa(lp58
(lp59
a(lp60
a(lp61
aa.