(lp1
(lp2
(lp3
a(lp4
a(lp5
a(lp6
aa(lp7
(lp8
a(lp9
a(lp10
a(lp11
aa(lp12
(lp13
a(lp14
a(lp15
a(lp16
aa(lp17
(lp18
a(lp19
Vhttp://dbpedia.org/resource/Cooperative
p20
aa(lp21
a(lp22
aa(lp23
(lp24
a(lp25
Vhttp://dbpedia.org/resource/Education
p26
aa(lp27
a(lp28
aa(lp29
(lp30
a(lp31
Vhttp://dbpedia.org/resource/Fishery
p32
aa(lp33
a(lp34
aa(lp35
(lp36
a(lp37
a(lp38
a(lp39
aa(lp40
(lp41
a(lp42
Vhttp://dbpedia.org/resource/Cooperative
p43
aa(lp44
a(lp45
aa(lp46
(lp47
a(lp48
a(lp49
a(lp50
aa(lp51
(lp52
a(lp53
a(lp54
a(lp55
aa(lp56
(lp57
a(lp58
Vhttp://dbpedia.org/resource/Psychological_Warfare_Division
p59
aa(lp60
a(lp61
aa(lp62
(lp63
a(lp64
Vhttp://dbpedia.org/resource/Irrigation
p65
aa(lp66
a(lp67
aa(lp68
(lp69
a(lp70
Vhttp://dbpedia.org/resource/Agriculture
p71
aa(lp72
a(lp73
aa(lp74
(lp75
a(lp76
Vhttp://dbpedia.org/resource/Irrigation
p77
aa(lp78
a(lp79
aa(lp80
(lp81
a(lp82
a(lp83
a(lp84
aa(lp85
(lp86
a(lp87
a(lp88
a(lp89
aa(lp90
(lp91
a(lp92
Vhttp://dbpedia.org/resource/Agriculture
p93
aa(lp94
a(lp95
aa(lp96
(lp97
a(lp98
a(lp99
a(lp100
aa(lp101
(lp102
Vhttp://dbpedia.org/resource/Total
p103
aa(lp104
Vhttp://dbpedia.org/resource/Total
p105
aa(lp106
Vhttp://dbpedia.org/resource/Total
p107
aa(lp108
aa.