(lp1
(lp2
(lp3
a(lp4
((lp5
Vhttp://www.w3.org/2002/07/owl#Thing
p6
aVhttp://dbpedia.org/ontology/Place
p7
aVhttp://dbpedia.org/ontology/Location
p8
aVhttp://www.wikidata.org/entity/Q486972
p9
aVhttp://www.wikidata.org/entity/Q6256
p10
aVhttp://dbpedia.org/ontology/Country
p11
aVhttp://dbpedia.org/ontology/PopulatedPlace
p12
aVhttp://www.w3.org/2003/01/geo/wgs84_pos#SpatialThing
p13
aVhttp://schema.org/Country
p14
aVhttp://schema.org/Place
p15
aVhttp://umbel.org/umbel/rc/Country
p16
aVhttp://umbel.org/umbel/rc/Location_Underspecified
p17
aVhttp://umbel.org/umbel/rc/PopulatedPlace
p18
aVhttp://dbpedia.org/class/yago/Abstraction100002137
p19
aVhttp://dbpedia.org/class/yago/AdministrativeDistrict108491826
p20
aVhttp://dbpedia.org/class/yago/AfricanCountries
p21
aVhttp://dbpedia.org/class/yago/AfricanUnionMemberEconomies
p22
aVhttp://dbpedia.org/class/yago/Country108544813
p23
aVhttp://dbpedia.org/class/yago/District108552138
p24
aVhttp://dbpedia.org/class/yago/Economy108366753
p25
aVhttp://dbpedia.org/class/yago/Group100031264
p26
aVhttp://dbpedia.org/class/yago/Location100027167
p27
aVhttp://dbpedia.org/class/yago/Object100002684
p28
aVhttp://dbpedia.org/class/yago/Region108630985
p29
aVhttp://dbpedia.org/class/yago/System108435388
p30
aVhttp://dbpedia.org/class/yago/YagoGeoEntity
p31
aVhttp://dbpedia.org/class/yago/YagoLegalActorGeo
p32
aVhttp://dbpedia.org/class/yago/CountriesBorderingTheAtlanticOcean
p33
aVhttp://dbpedia.org/class/yago/English-speakingCountriesAndTerritories
p34
aVhttp://dbpedia.org/class/yago/French-speakingCountries
p35
aVhttp://dbpedia.org/class/yago/PhysicalEntity100001930
p36
aVhttp://dbpedia.org/class/yago/YagoPermanentlyLocatedEntity
p37
aVhttp://dbpedia.org/class/yago/MemberStatesOfLaFrancophonie
p38
aVhttp://dbpedia.org/class/yago/MemberStatesOfTheAfricanUnion
p39
aVhttp://dbpedia.org/class/yago/MemberStatesOfTheCommonwealthOfNations
p40
aVhttp://dbpedia.org/class/yago/MemberStatesOfTheOrganisationOfIslamicCooperation
p41
aVhttp://dbpedia.org/class/yago/MemberStatesOfTheUnitedNations
p42
aVhttp://dbpedia.org/class/yago/StatesAndTerritoriesEstablishedIn1960
p43
aVhttp://dbpedia.org/class/yago/WorldTradeOrganizationMemberEconomies
p44
aVhttp://dbpedia.org/resource/Cameroon
tp45
aa(lp46
aa(lp47
(lp48
a(lp49
((lp50
Vhttp://www.w3.org/2002/07/owl#Thing
p51
aVhttp://dbpedia.org/ontology/Place
p52
aVhttp://dbpedia.org/ontology/Location
p53
aVhttp://www.wikidata.org/entity/Q486972
p54
aVhttp://www.wikidata.org/entity/Q6256
p55
aVhttp://dbpedia.org/ontology/Country
p56
aVhttp://dbpedia.org/ontology/PopulatedPlace
p57
aVhttp://www.w3.org/2003/01/geo/wgs84_pos#SpatialThing
p58
aVhttp://schema.org/Country
p59
aVhttp://schema.org/Place
p60
aVhttp://umbel.org/umbel/rc/Country
p61
aVhttp://umbel.org/umbel/rc/Location_Underspecified
p62
aVhttp://umbel.org/umbel/rc/PopulatedPlace
p63
aVhttp://dbpedia.org/class/yago/Abstraction100002137
p64
aVhttp://dbpedia.org/class/yago/AdministrativeDistrict108491826
p65
aVhttp://dbpedia.org/class/yago/AfricanCountries
p66
aVhttp://dbpedia.org/class/yago/AfricanUnionMemberEconomies
p67
aVhttp://dbpedia.org/class/yago/Country108544813
p68
aVhttp://dbpedia.org/class/yago/District108552138
p69
aVhttp://dbpedia.org/class/yago/Economy108366753
p70
aVhttp://dbpedia.org/class/yago/Group100031264
p71
aVhttp://dbpedia.org/class/yago/Location100027167
p72
aVhttp://dbpedia.org/class/yago/Object100002684
p73
aVhttp://dbpedia.org/class/yago/Region108630985
p74
aVhttp://dbpedia.org/class/yago/System108435388
p75
aVhttp://dbpedia.org/class/yago/YagoGeoEntity
p76
aVhttp://dbpedia.org/class/yago/YagoLegalActorGeo
p77
aVhttp://dbpedia.org/class/yago/French-speakingCountries
p78
aVhttp://dbpedia.org/class/yago/PhysicalEntity100001930
p79
aVhttp://dbpedia.org/class/yago/YagoPermanentlyLocatedEntity
p80
aVhttp://dbpedia.org/class/yago/LandlockedCountries
p81
aVhttp://dbpedia.org/class/yago/LeastDevelopedCountries
p82
aVhttp://dbpedia.org/class/yago/MemberStatesOfLaFrancophonie
p83
aVhttp://dbpedia.org/class/yago/MemberStatesOfTheAfricanUnion
p84
aVhttp://dbpedia.org/class/yago/MemberStatesOfTheUnitedNations
p85
aVhttp://dbpedia.org/class/yago/StatesAndTerritoriesEstablishedIn1960
p86
aVhttp://dbpedia.org/class/yago/WorldTradeOrganizationMemberEconomies
p87
aVhttp://dbpedia.org/resource/Central_African_Republic
tp88
aa(lp89
aa(lp90
(lp91
a(lp92
((lp93
Vhttp://www.w3.org/2002/07/owl#Thing
p94
aVhttp://dbpedia.org/ontology/Place
p95
aVhttp://dbpedia.org/ontology/Location
p96
aVhttp://www.wikidata.org/entity/Q486972
p97
aVhttp://www.wikidata.org/entity/Q6256
p98
aVhttp://dbpedia.org/ontology/Country
p99
aVhttp://dbpedia.org/ontology/PopulatedPlace
p100
aVhttp://www.w3.org/2003/01/geo/wgs84_pos#SpatialThing
p101
aVhttp://schema.org/Country
p102
aVhttp://schema.org/Place
p103
aVhttp://umbel.org/umbel/rc/Country
p104
aVhttp://umbel.org/umbel/rc/Location_Underspecified
p105
aVhttp://umbel.org/umbel/rc/PopulatedPlace
p106
aVhttp://dbpedia.org/resource/Chad
tp107
aa(lp108
aa(lp109
(lp110
a(lp111
((lp112
Vhttp://www.w3.org/2002/07/owl#Thing
p113
aVhttp://dbpedia.org/ontology/Place
p114
aVhttp://dbpedia.org/ontology/Location
p115
aVhttp://www.wikidata.org/entity/Q486972
p116
aVhttp://www.wikidata.org/entity/Q6256
p117
aVhttp://dbpedia.org/ontology/Country
p118
aVhttp://dbpedia.org/ontology/PopulatedPlace
p119
aVhttp://www.w3.org/2003/01/geo/wgs84_pos#SpatialThing
p120
aVhttp://schema.org/Country
p121
aVhttp://schema.org/Place
p122
aVhttp://umbel.org/umbel/rc/Country
p123
aVhttp://umbel.org/umbel/rc/Location_Underspecified
p124
aVhttp://umbel.org/umbel/rc/PopulatedPlace
p125
aVhttp://dbpedia.org/class/yago/Abstraction100002137
p126
aVhttp://dbpedia.org/class/yago/AdministrativeDistrict108491826
p127
aVhttp://dbpedia.org/class/yago/AfricanCountries
p128
aVhttp://dbpedia.org/class/yago/AfricanUnionMemberEconomies
p129
aVhttp://dbpedia.org/class/yago/BantuCountriesAndTerritories
p130
aVhttp://dbpedia.org/class/yago/Country108544813
p131
aVhttp://dbpedia.org/class/yago/District108552138
p132
aVhttp://dbpedia.org/class/yago/Economy108366753
p133
aVhttp://dbpedia.org/class/yago/Group100031264
p134
aVhttp://dbpedia.org/class/yago/Location100027167
p135
aVhttp://dbpedia.org/class/yago/Object100002684
p136
aVhttp://dbpedia.org/class/yago/Region108630985
p137
aVhttp://dbpedia.org/class/yago/System108435388
p138
aVhttp://dbpedia.org/class/yago/YagoGeoEntity
p139
aVhttp://dbpedia.org/class/yago/YagoLegalActorGeo
p140
aVhttp://dbpedia.org/class/yago/CountriesBorderingTheAtlanticOcean
p141
aVhttp://dbpedia.org/class/yago/French-speakingCountries
p142
aVhttp://dbpedia.org/class/yago/PhysicalEntity100001930
p143
aVhttp://dbpedia.org/class/yago/YagoPermanentlyLocatedEntity
p144
aVhttp://dbpedia.org/class/yago/MemberStatesOfLaFrancophonie
p145
aVhttp://dbpedia.org/class/yago/MemberStatesOfTheAfricanUnion
p146
aVhttp://dbpedia.org/class/yago/MemberStatesOfTheUnitedNations
p147
aVhttp://dbpedia.org/class/yago/StatesAndTerritoriesEstablishedIn1960
p148
aVhttp://dbpedia.org/class/yago/WorldTradeOrganizationMemberEconomies
p149
aVhttp://dbpedia.org/resource/Republic_of_the_Congo
tp150
aa(lp151
aa(lp152
(lp153
a(lp154
((lp155
Vhttp://www.w3.org/2002/07/owl#Thing
p156
aVhttp://dbpedia.org/ontology/Place
p157
aVhttp://dbpedia.org/ontology/Location
p158
aVhttp://www.wikidata.org/entity/Q486972
p159
aVhttp://www.wikidata.org/entity/Q6256
p160
aVhttp://dbpedia.org/ontology/Country
p161
aVhttp://dbpedia.org/ontology/PopulatedPlace
p162
aVhttp://www.w3.org/2003/01/geo/wgs84_pos#SpatialThing
p163
aVhttp://schema.org/Country
p164
aVhttp://schema.org/Place
p165
aVhttp://dbpedia.org/resource/Ivory_Coast
tp166
aa(lp167
aa(lp168
(lp169
a(lp170
((lp171
Vhttp://www.w3.org/2002/07/owl#Thing
p172
aVhttp://dbpedia.org/ontology/Place
p173
aVhttp://dbpedia.org/ontology/Location
p174
aVhttp://www.wikidata.org/entity/Q486972
p175
aVhttp://www.wikidata.org/entity/Q6256
p176
aVhttp://dbpedia.org/ontology/Country
p177
aVhttp://dbpedia.org/ontology/PopulatedPlace
p178
aVhttp://www.w3.org/2003/01/geo/wgs84_pos#SpatialThing
p179
aVhttp://schema.org/Country
p180
aVhttp://schema.org/Place
p181
aVhttp://umbel.org/umbel/rc/Country
p182
aVhttp://umbel.org/umbel/rc/Location_Underspecified
p183
aVhttp://umbel.org/umbel/rc/PopulatedPlace
p184
aVhttp://dbpedia.org/class/yago/Abstraction100002137
p185
aVhttp://dbpedia.org/class/yago/AdministrativeDistrict108491826
p186
aVhttp://dbpedia.org/class/yago/AfricanCountries
p187
aVhttp://dbpedia.org/class/yago/AfricanUnionMemberEconomies
p188
aVhttp://dbpedia.org/class/yago/BantuCountriesAndTerritories
p189
aVhttp://dbpedia.org/class/yago/Country108544813
p190
aVhttp://dbpedia.org/class/yago/District108552138
p191
aVhttp://dbpedia.org/class/yago/Economy108366753
p192
aVhttp://dbpedia.org/class/yago/Group100031264
p193
aVhttp://dbpedia.org/class/yago/Location100027167
p194
aVhttp://dbpedia.org/class/yago/Object100002684
p195
aVhttp://dbpedia.org/class/yago/Region108630985
p196
aVhttp://dbpedia.org/class/yago/System108435388
p197
aVhttp://dbpedia.org/class/yago/YagoGeoEntity
p198
aVhttp://dbpedia.org/class/yago/YagoLegalActorGeo
p199
aVhttp://dbpedia.org/class/yago/CountriesBorderingTheAtlanticOcean
p200
aVhttp://dbpedia.org/class/yago/French-speakingCountries
p201
aVhttp://dbpedia.org/class/yago/PhysicalEntity100001930
p202
aVhttp://dbpedia.org/class/yago/YagoPermanentlyLocatedEntity
p203
aVhttp://dbpedia.org/class/yago/LeastDevelopedCountries
p204
aVhttp://dbpedia.org/class/yago/MemberStatesOfLaFrancophonie
p205
aVhttp://dbpedia.org/class/yago/MemberStatesOfTheAfricanUnion
p206
aVhttp://dbpedia.org/class/yago/MemberStatesOfTheUnitedNations
p207
aVhttp://dbpedia.org/class/yago/Spanish-speakingCountries
p208
aVhttp://dbpedia.org/class/yago/StatesAndTerritoriesEstablishedIn1968
p209
aVhttp://dbpedia.org/resource/Equatorial_Guinea
tp210
aa(lp211
aa(lp212
(lp213
a(lp214
((lp215
Vhttp://www.w3.org/2002/07/owl#Thing
p216
aVhttp://dbpedia.org/ontology/Place
p217
aVhttp://dbpedia.org/ontology/Location
p218
aVhttp://www.wikidata.org/entity/Q486972
p219
aVhttp://www.wikidata.org/entity/Q6256
p220
aVhttp://dbpedia.org/ontology/Country
p221
aVhttp://dbpedia.org/ontology/PopulatedPlace
p222
aVhttp://www.w3.org/2003/01/geo/wgs84_pos#SpatialThing
p223
aVhttp://schema.org/Country
p224
aVhttp://schema.org/Place
p225
aVhttp://umbel.org/umbel/rc/Country
p226
aVhttp://umbel.org/umbel/rc/Location_Underspecified
p227
aVhttp://umbel.org/umbel/rc/PopulatedPlace
p228
aVhttp://dbpedia.org/class/yago/Abstraction100002137
p229
aVhttp://dbpedia.org/class/yago/AdministrativeDistrict108491826
p230
aVhttp://dbpedia.org/class/yago/AfricanCountries
p231
aVhttp://dbpedia.org/class/yago/AfricanUnionMemberEconomies
p232
aVhttp://dbpedia.org/class/yago/BantuCountriesAndTerritories
p233
aVhttp://dbpedia.org/class/yago/Country108544813
p234
aVhttp://dbpedia.org/class/yago/District108552138
p235
aVhttp://dbpedia.org/class/yago/Economy108366753
p236
aVhttp://dbpedia.org/class/yago/Group100031264
p237
aVhttp://dbpedia.org/class/yago/Location100027167
p238
aVhttp://dbpedia.org/class/yago/Object100002684
p239
aVhttp://dbpedia.org/class/yago/Region108630985
p240
aVhttp://dbpedia.org/class/yago/System108435388
p241
aVhttp://dbpedia.org/class/yago/YagoGeoEntity
p242
aVhttp://dbpedia.org/class/yago/YagoLegalActorGeo
p243
aVhttp://dbpedia.org/class/yago/CountriesBorderingTheAtlanticOcean
p244
aVhttp://dbpedia.org/class/yago/French-speakingCountries
p245
aVhttp://dbpedia.org/class/yago/PhysicalEntity100001930
p246
aVhttp://dbpedia.org/class/yago/YagoPermanentlyLocatedEntity
p247
aVhttp://dbpedia.org/class/yago/MemberStatesOfLaFrancophonie
p248
aVhttp://dbpedia.org/class/yago/MemberStatesOfTheAfricanUnion
p249
aVhttp://dbpedia.org/class/yago/MemberStatesOfTheOrganisationOfIslamicCooperation
p250
aVhttp://dbpedia.org/class/yago/MemberStatesOfTheUnitedNations
p251
aVhttp://dbpedia.org/class/yago/StatesAndTerritoriesEstablishedIn1960
p252
aVhttp://dbpedia.org/class/yago/WorldTradeOrganizationMemberEconomies
p253
aVhttp://dbpedia.org/resource/Gabon
tp254
aa(lp255
aa(lp256
(lp257
a(lp258
((lp259
Vhttp://www.w3.org/2002/07/owl#Thing
p260
aVhttp://dbpedia.org/ontology/Place
p261
aVhttp://dbpedia.org/ontology/Location
p262
aVhttp://www.wikidata.org/entity/Q486972
p263
aVhttp://www.wikidata.org/entity/Q6256
p264
aVhttp://dbpedia.org/ontology/Country
p265
aVhttp://dbpedia.org/ontology/PopulatedPlace
p266
aVhttp://www.w3.org/2003/01/geo/wgs84_pos#SpatialThing
p267
aVhttp://schema.org/Country
p268
aVhttp://schema.org/Place
p269
aVhttp://umbel.org/umbel/rc/Country
p270
aVhttp://umbel.org/umbel/rc/Location_Underspecified
p271
aVhttp://umbel.org/umbel/rc/PopulatedPlace
p272
aVhttp://dbpedia.org/class/yago/Abstraction100002137
p273
aVhttp://dbpedia.org/class/yago/AdministrativeDistrict108491826
p274
aVhttp://dbpedia.org/class/yago/AfricanCountries
p275
aVhttp://dbpedia.org/class/yago/AfricanUnionMemberEconomies
p276
aVhttp://dbpedia.org/class/yago/Country108544813
p277
aVhttp://dbpedia.org/class/yago/District108552138
p278
aVhttp://dbpedia.org/class/yago/Economy108366753
p279
aVhttp://dbpedia.org/class/yago/Group100031264
p280
aVhttp://dbpedia.org/class/yago/Location100027167
p281
aVhttp://dbpedia.org/class/yago/Object100002684
p282
aVhttp://dbpedia.org/class/yago/Region108630985
p283
aVhttp://dbpedia.org/class/yago/System108435388
p284
aVhttp://dbpedia.org/class/yago/YagoGeoEntity
p285
aVhttp://dbpedia.org/class/yago/YagoLegalActorGeo
p286
aVhttp://dbpedia.org/class/yago/CountriesBorderingTheAtlanticOcean
p287
aVhttp://dbpedia.org/class/yago/PhysicalEntity100001930
p288
aVhttp://dbpedia.org/class/yago/YagoPermanentlyLocatedEntity
p289
aVhttp://dbpedia.org/class/yago/LeastDevelopedCountries
p290
aVhttp://dbpedia.org/class/yago/MemberStatesOfLaFrancophonie
p291
aVhttp://dbpedia.org/class/yago/MemberStatesOfTheAfricanUnion
p292
aVhttp://dbpedia.org/class/yago/MemberStatesOfTheCommunityOfPortugueseLanguageCountries
p293
aVhttp://dbpedia.org/class/yago/MemberStatesOfTheOrganisationOfIslamicCooperation
p294
aVhttp://dbpedia.org/class/yago/MemberStatesOfTheUnitedNations
p295
aVhttp://dbpedia.org/class/yago/Portuguese-speakingCountries
p296
aVhttp://dbpedia.org/class/yago/StatesAndTerritoriesEstablishedIn1974
p297
aVhttp://dbpedia.org/class/yago/WorldTradeOrganizationMemberEconomies
p298
aVhttp://dbpedia.org/resource/Guinea-Bissau
tp299
aa(lp300
aa(lp301
(lp302
a(lp303
((lp304
Vhttp://www.w3.org/2002/07/owl#Thing
p305
aVhttp://dbpedia.org/ontology/Place
p306
aVhttp://dbpedia.org/ontology/Location
p307
aVhttp://www.wikidata.org/entity/Q486972
p308
aVhttp://www.wikidata.org/entity/Q6256
p309
aVhttp://dbpedia.org/ontology/Country
p310
aVhttp://dbpedia.org/ontology/PopulatedPlace
p311
aVhttp://www.w3.org/2003/01/geo/wgs84_pos#SpatialThing
p312
aVhttp://schema.org/Country
p313
aVhttp://schema.org/Place
p314
aVhttp://umbel.org/umbel/rc/Country
p315
aVhttp://umbel.org/umbel/rc/Location_Underspecified
p316
aVhttp://umbel.org/umbel/rc/PopulatedPlace
p317
aVhttp://dbpedia.org/class/yago/Abstraction100002137
p318
aVhttp://dbpedia.org/class/yago/AdministrativeDistrict108491826
p319
aVhttp://dbpedia.org/class/yago/AfricanCountries
p320
aVhttp://dbpedia.org/class/yago/AfricanUnionMemberEconomies
p321
aVhttp://dbpedia.org/class/yago/Country108544813
p322
aVhttp://dbpedia.org/class/yago/District108552138
p323
aVhttp://dbpedia.org/class/yago/Economy108366753
p324
aVhttp://dbpedia.org/class/yago/Group100031264
p325
aVhttp://dbpedia.org/class/yago/Location100027167
p326
aVhttp://dbpedia.org/class/yago/Object100002684
p327
aVhttp://dbpedia.org/class/yago/Region108630985
p328
aVhttp://dbpedia.org/class/yago/System108435388
p329
aVhttp://dbpedia.org/class/yago/YagoGeoEntity
p330
aVhttp://dbpedia.org/class/yago/YagoLegalActorGeo
p331
aVhttp://dbpedia.org/class/yago/French-speakingCountries
p332
aVhttp://dbpedia.org/class/yago/PhysicalEntity100001930
p333
aVhttp://dbpedia.org/class/yago/YagoPermanentlyLocatedEntity
p334
aVhttp://dbpedia.org/class/yago/LandlockedCountries
p335
aVhttp://dbpedia.org/class/yago/LeastDevelopedCountries
p336
aVhttp://dbpedia.org/class/yago/MemberStatesOfLaFrancophonie
p337
aVhttp://dbpedia.org/class/yago/MemberStatesOfTheAfricanUnion
p338
aVhttp://dbpedia.org/class/yago/MemberStatesOfTheOrganisationOfIslamicCooperation
p339
aVhttp://dbpedia.org/class/yago/MemberStatesOfTheUnitedNations
p340
aVhttp://dbpedia.org/class/yago/StatesAndTerritoriesEstablishedIn1960
p341
aVhttp://dbpedia.org/class/yago/WorldTradeOrganizationMemberEconomies
p342
aVhttp://dbpedia.org/resource/Mali
tp343
aa(lp344
aa(lp345
(lp346
a(lp347
((lp348
Vhttp://www.w3.org/2002/07/owl#Thing
p349
aVhttp://dbpedia.org/ontology/Place
p350
aVhttp://dbpedia.org/ontology/Location
p351
aVhttp://www.wikidata.org/entity/Q486972
p352
aVhttp://www.wikidata.org/entity/Q6256
p353
aVhttp://dbpedia.org/ontology/Country
p354
aVhttp://dbpedia.org/ontology/PopulatedPlace
p355
aVhttp://www.w3.org/2003/01/geo/wgs84_pos#SpatialThing
p356
aVhttp://schema.org/Country
p357
aVhttp://schema.org/Place
p358
aVhttp://umbel.org/umbel/rc/Country
p359
aVhttp://umbel.org/umbel/rc/Location_Underspecified
p360
aVhttp://umbel.org/umbel/rc/PopulatedPlace
p361
aVhttp://dbpedia.org/class/yago/Abstraction100002137
p362
aVhttp://dbpedia.org/class/yago/AdministrativeDistrict108491826
p363
aVhttp://dbpedia.org/class/yago/AfricanCountries
p364
aVhttp://dbpedia.org/class/yago/AfricanUnionMemberEconomies
p365
aVhttp://dbpedia.org/class/yago/Country108544813
p366
aVhttp://dbpedia.org/class/yago/District108552138
p367
aVhttp://dbpedia.org/class/yago/Economy108366753
p368
aVhttp://dbpedia.org/class/yago/Group100031264
p369
aVhttp://dbpedia.org/class/yago/Location100027167
p370
aVhttp://dbpedia.org/class/yago/Object100002684
p371
aVhttp://dbpedia.org/class/yago/Region108630985
p372
aVhttp://dbpedia.org/class/yago/System108435388
p373
aVhttp://dbpedia.org/class/yago/YagoGeoEntity
p374
aVhttp://dbpedia.org/class/yago/YagoLegalActorGeo
p375
aVhttp://dbpedia.org/class/yago/French-speakingCountries
p376
aVhttp://dbpedia.org/class/yago/PhysicalEntity100001930
p377
aVhttp://dbpedia.org/class/yago/YagoPermanentlyLocatedEntity
p378
aVhttp://dbpedia.org/class/yago/LandlockedCountries
p379
aVhttp://dbpedia.org/class/yago/LeastDevelopedCountries
p380
aVhttp://dbpedia.org/class/yago/MemberStatesOfTheAfricanUnion
p381
aVhttp://dbpedia.org/class/yago/MemberStatesOfTheOrganisationOfIslamicCooperation
p382
aVhttp://dbpedia.org/class/yago/MemberStatesOfTheUnitedNations
p383
aVhttp://dbpedia.org/class/yago/StatesAndTerritoriesEstablishedIn1960
p384
aVhttp://dbpedia.org/class/yago/WorldTradeOrganizationMemberEconomies
p385
aVhttp://dbpedia.org/resource/Niger
tp386
aa(lp387
aa(lp388
(lp389
a(lp390
((lp391
Vhttp://www.w3.org/2002/07/owl#Thing
p392
aVhttp://dbpedia.org/ontology/Place
p393
aVhttp://dbpedia.org/ontology/Location
p394
aVhttp://www.wikidata.org/entity/Q486972
p395
aVhttp://www.wikidata.org/entity/Q6256
p396
aVhttp://dbpedia.org/ontology/Country
p397
aVhttp://dbpedia.org/ontology/PopulatedPlace
p398
aVhttp://www.w3.org/2003/01/geo/wgs84_pos#SpatialThing
p399
aVhttp://schema.org/Country
p400
aVhttp://schema.org/Place
p401
aVhttp://umbel.org/umbel/rc/Country
p402
aVhttp://umbel.org/umbel/rc/Location_Underspecified
p403
aVhttp://umbel.org/umbel/rc/PopulatedPlace
p404
aVhttp://dbpedia.org/class/yago/Abstraction100002137
p405
aVhttp://dbpedia.org/class/yago/AdministrativeDistrict108491826
p406
aVhttp://dbpedia.org/class/yago/AfricanCountries
p407
aVhttp://dbpedia.org/class/yago/AfricanUnionMemberEconomies
p408
aVhttp://dbpedia.org/class/yago/Country108544813
p409
aVhttp://dbpedia.org/class/yago/District108552138
p410
aVhttp://dbpedia.org/class/yago/Economy108366753
p411
aVhttp://dbpedia.org/class/yago/Group100031264
p412
aVhttp://dbpedia.org/class/yago/Location100027167
p413
aVhttp://dbpedia.org/class/yago/Object100002684
p414
aVhttp://dbpedia.org/class/yago/Region108630985
p415
aVhttp://dbpedia.org/class/yago/System108435388
p416
aVhttp://dbpedia.org/class/yago/YagoGeoEntity
p417
aVhttp://dbpedia.org/class/yago/YagoLegalActorGeo
p418
aVhttp://dbpedia.org/class/yago/CountriesBorderingTheAtlanticOcean
p419
aVhttp://dbpedia.org/class/yago/French-speakingCountries
p420
aVhttp://dbpedia.org/class/yago/PhysicalEntity100001930
p421
aVhttp://dbpedia.org/class/yago/YagoPermanentlyLocatedEntity
p422
aVhttp://dbpedia.org/class/yago/LeastDevelopedCountries
p423
aVhttp://dbpedia.org/class/yago/MemberStatesOfLaFrancophonie
p424
aVhttp://dbpedia.org/class/yago/MemberStatesOfTheAfricanUnion
p425
aVhttp://dbpedia.org/class/yago/MemberStatesOfTheOrganisationOfIslamicCooperation
p426
aVhttp://dbpedia.org/class/yago/MemberStatesOfTheUnitedNations
p427
aVhttp://dbpedia.org/class/yago/StatesAndTerritoriesEstablishedIn1960
p428
aVhttp://dbpedia.org/class/yago/WorldTradeOrganizationMemberEconomies
p429
aVhttp://dbpedia.org/resource/Senegal
tp430
aa(lp431
aa(lp432
(lp433
a(lp434
((lp435
Vhttp://www.w3.org/2002/07/owl#Thing
p436
aVhttp://dbpedia.org/ontology/Place
p437
aVhttp://dbpedia.org/ontology/Location
p438
aVhttp://www.wikidata.org/entity/Q486972
p439
aVhttp://www.wikidata.org/entity/Q6256
p440
aVhttp://dbpedia.org/ontology/Country
p441
aVhttp://dbpedia.org/ontology/PopulatedPlace
p442
aVhttp://www.w3.org/2003/01/geo/wgs84_pos#SpatialThing
p443
aVhttp://schema.org/Country
p444
aVhttp://schema.org/Place
p445
aVhttp://umbel.org/umbel/rc/Country
p446
aVhttp://umbel.org/umbel/rc/Location_Underspecified
p447
aVhttp://umbel.org/umbel/rc/PopulatedPlace
p448
aVhttp://dbpedia.org/class/yago/Abstraction100002137
p449
aVhttp://dbpedia.org/class/yago/AdministrativeDistrict108491826
p450
aVhttp://dbpedia.org/class/yago/AfricanCountries
p451
aVhttp://dbpedia.org/class/yago/AfricanUnionMemberEconomies
p452
aVhttp://dbpedia.org/class/yago/Country108544813
p453
aVhttp://dbpedia.org/class/yago/District108552138
p454
aVhttp://dbpedia.org/class/yago/Economy108366753
p455
aVhttp://dbpedia.org/class/yago/Group100031264
p456
aVhttp://dbpedia.org/class/yago/Location100027167
p457
aVhttp://dbpedia.org/class/yago/Object100002684
p458
aVhttp://dbpedia.org/class/yago/Region108630985
p459
aVhttp://dbpedia.org/class/yago/System108435388
p460
aVhttp://dbpedia.org/class/yago/YagoGeoEntity
p461
aVhttp://dbpedia.org/class/yago/YagoLegalActorGeo
p462
aVhttp://dbpedia.org/class/yago/CountriesBorderingTheAtlanticOcean
p463
aVhttp://dbpedia.org/class/yago/French-speakingCountries
p464
aVhttp://dbpedia.org/class/yago/PhysicalEntity100001930
p465
aVhttp://dbpedia.org/class/yago/YagoPermanentlyLocatedEntity
p466
aVhttp://dbpedia.org/class/yago/LeastDevelopedCountries
p467
aVhttp://dbpedia.org/class/yago/MemberStatesOfLaFrancophonie
p468
aVhttp://dbpedia.org/class/yago/MemberStatesOfTheAfricanUnion
p469
aVhttp://dbpedia.org/class/yago/MemberStatesOfTheOrganisationOfIslamicCooperation
p470
aVhttp://dbpedia.org/class/yago/MemberStatesOfTheUnitedNations
p471
aVhttp://dbpedia.org/class/yago/StatesAndTerritoriesEstablishedIn1960
p472
aVhttp://dbpedia.org/class/yago/WorldTradeOrganizationMemberEconomies
p473
aVhttp://dbpedia.org/resource/Togo
tp474
aa(lp475
aa(lp476
(lp477
((lp478
Vhttp://dbpedia.org/class/yago/Artifact100021939
p479
aVhttp://dbpedia.org/class/yago/Device103183080
p480
aVhttp://dbpedia.org/class/yago/Gauge103429288
p481
aVhttp://dbpedia.org/class/yago/Instrument103574816
p482
aVhttp://dbpedia.org/class/yago/MeasuringInstrument103733925
p483
aVhttp://dbpedia.org/class/yago/Object100002684
p484
aVhttp://dbpedia.org/class/yago/Whole100003553
p485
aVhttp://dbpedia.org/class/yago/Instrumentality103575240
p486
aVhttp://dbpedia.org/class/yago/PhysicalEntity100001930
p487
aVhttp://dbpedia.org/class/yago/WireGauge104594919
p488
aVhttp://dbpedia.org/class/yago/WireGauges
p489
aVhttp://dbpedia.org/resource/American_wire_gauge
tp490
aa(lp491
((lp492
Vhttp://www.w3.org/2002/07/owl#Thing
p493
aVhttp://dbpedia.org/ontology/Place
p494
aVhttp://dbpedia.org/ontology/Location
p495
aVhttp://www.wikidata.org/entity/Q486972
p496
aVhttp://www.wikidata.org/entity/Q6256
p497
aVhttp://dbpedia.org/ontology/Country
p498
aVhttp://dbpedia.org/ontology/PopulatedPlace
p499
aVhttp://www.w3.org/2003/01/geo/wgs84_pos#SpatialThing
p500
aVhttp://schema.org/Country
p501
aVhttp://schema.org/Place
p502
aVhttp://umbel.org/umbel/rc/Country
p503
aVhttp://umbel.org/umbel/rc/Location_Underspecified
p504
aVhttp://umbel.org/umbel/rc/PopulatedPlace
p505
aVhttp://dbpedia.org/class/yago/AdministrativeDistrict108491826
p506
aVhttp://dbpedia.org/class/yago/CaribbeanCountries
p507
aVhttp://dbpedia.org/class/yago/Country108544813
p508
aVhttp://dbpedia.org/class/yago/District108552138
p509
aVhttp://dbpedia.org/class/yago/Island109316454
p510
aVhttp://dbpedia.org/class/yago/Land109334396
p511
aVhttp://dbpedia.org/class/yago/Location100027167
p512
aVhttp://dbpedia.org/class/yago/Object100002684
p513
aVhttp://dbpedia.org/class/yago/Region108630985
p514
aVhttp://dbpedia.org/class/yago/YagoGeoEntity
p515
aVhttp://dbpedia.org/class/yago/YagoLegalActorGeo
p516
aVhttp://dbpedia.org/class/yago/DependentTerritoriesInNorthAmerica
p517
aVhttp://dbpedia.org/class/yago/Dutch-speakingCountries
p518
aVhttp://dbpedia.org/class/yago/PhysicalEntity100001930
p519
aVhttp://dbpedia.org/class/yago/YagoPermanentlyLocatedEntity
p520
aVhttp://dbpedia.org/class/yago/IslandCountries
p521
aVhttp://dbpedia.org/class/yago/IslandsOfTheNetherlandsAntilles
p522
aVhttp://dbpedia.org/class/yago/SpecialTerritoriesOfTheEuropeanUnion
p523
aVhttp://dbpedia.org/class/yago/StatesAndTerritoriesEstablishedIn1986
p524
aVhttp://dbpedia.org/resource/Aruba
tp525
aa(lp526
aa(lp527
(lp528
((lp529
Vhttp://www.w3.org/2002/07/owl#Thing
p530
aVhttp://dbpedia.org/resource/Azerbaijani_cuisine
tp531
aa(lp532
((lp533
Vhttp://www.w3.org/2002/07/owl#Thing
p534
aVhttp://dbpedia.org/ontology/Place
p535
aVhttp://dbpedia.org/ontology/Location
p536
aVhttp://www.wikidata.org/entity/Q486972
p537
aVhttp://www.wikidata.org/entity/Q6256
p538
aVhttp://dbpedia.org/ontology/Country
p539
aVhttp://dbpedia.org/ontology/PopulatedPlace
p540
aVhttp://www.w3.org/2003/01/geo/wgs84_pos#SpatialThing
p541
aVhttp://schema.org/Country
p542
aVhttp://schema.org/Place
p543
aVhttp://umbel.org/umbel/rc/Country
p544
aVhttp://umbel.org/umbel/rc/Location_Underspecified
p545
aVhttp://umbel.org/umbel/rc/PopulatedPlace
p546
aVhttp://dbpedia.org/class/yago/Abstraction100002137
p547
aVhttp://dbpedia.org/class/yago/AdministrativeDistrict108491826
p548
aVhttp://dbpedia.org/class/yago/AzerbaijaniInhabitedRegions
p549
aVhttp://dbpedia.org/class/yago/BicontinentalCountries
p550
aVhttp://dbpedia.org/class/yago/Country108544813
p551
aVhttp://dbpedia.org/class/yago/District108552138
p552
aVhttp://dbpedia.org/class/yago/Economy108366753
p553
aVhttp://dbpedia.org/class/yago/Group100031264
p554
aVhttp://dbpedia.org/class/yago/Location100027167
p555
aVhttp://dbpedia.org/class/yago/Object100002684
p556
aVhttp://dbpedia.org/class/yago/Region108630039
p557
aVhttp://dbpedia.org/class/yago/Region108630985
p558
aVhttp://dbpedia.org/class/yago/System108435388
p559
aVhttp://dbpedia.org/class/yago/YagoGeoEntity
p560
aVhttp://dbpedia.org/class/yago/YagoLegalActorGeo
p561
aVhttp://dbpedia.org/class/yago/EuropeanCountries
p562
aVhttp://dbpedia.org/class/yago/PhysicalEntity100001930
p563
aVhttp://dbpedia.org/class/yago/YagoPermanentlyLocatedEntity
p564
aVhttp://dbpedia.org/class/yago/LandlockedCountries
p565
aVhttp://dbpedia.org/class/yago/MemberStatesOfTheCommonwealthOfIndependentStates
p566
aVhttp://dbpedia.org/class/yago/MemberStatesOfTheOrganisationOfIslamicCooperation
p567
aVhttp://dbpedia.org/class/yago/MemberStatesOfTheUnitedNations
p568
aVhttp://dbpedia.org/class/yago/ModernTurkicStates
p569
aVhttp://dbpedia.org/class/yago/NearEasternCountries
p570
aVhttp://dbpedia.org/class/yago/Russian-speakingCountriesAndTerritories
p571
aVhttp://dbpedia.org/class/yago/StatesAndTerritoriesEstablishedIn1991
p572
aVhttp://dbpedia.org/class/yago/WesternAsianCountries
p573
aVhttp://dbpedia.org/resource/Azerbaijan
p574
tp575
aa(lp576
aa.