(lp1
(lp2
(lp3
Vhttp://dbpedia.org/resource/English,_Indiana
p4
aa(lp5
a(lp6
a(lp7
a(lp8
aa(lp9
(lp10
Vhttp://dbpedia.org/resource/English,_Indiana
p11
aa(lp12
a(lp13
a(lp14
a(lp15
aa(lp16
(lp17
Vhttp://dbpedia.org/resource/English,_Indiana
p18
aa(lp19
a(lp20
a(lp21
a(lp22
aa(lp23
(lp24
a(lp25
Vhttp://dbpedia.org/resource/Kosrae
p26
aa(lp27
a(lp28
a(lp29
aa(lp30
(lp31
a(lp32
Vhttp://dbpedia.org/resource/Solomon_Islands
p33
aa(lp34
a(lp35
a(lp36
aa(lp37
(lp38
Vhttp://dbpedia.org/resource/Maina_(Cook_Islands)
p39
aa(lp40
Vhttp://dbpedia.org/resource/Rarotonga
p41
aa(lp42
a(lp43
a(lp44
aa(lp45
(lp46
a(lp47
Vhttp://dbpedia.org/resource/Niue
p48
aa(lp49
a(lp50
a(lp51
aa(lp52
(lp53
a(lp54
a(lp55
a(lp56
a(lp57
aa(lp58
(lp59
a(lp60
a(lp61
a(lp62
a(lp63
aa(lp64
(lp65
a(lp66
a(lp67
a(lp68
a(lp69
aa(lp70
(lp71
a(lp72
Vhttp://dbpedia.org/resource/Pohnpei
p73
aa(lp74
a(lp75
a(lp76
aa(lp77
(lp78
a(lp79
Vhttp://dbpedia.org/resource/Pohnpei
p80
aa(lp81
a(lp82
a(lp83
aa(lp84
(lp85
a(lp86
Vhttp://dbpedia.org/resource/Pohnpei
p87
aa(lp88
a(lp89
a(lp90
aa(lp91
(lp92
a(lp93
Vhttp://dbpedia.org/resource/Pohnpei
p94
aa(lp95
a(lp96
a(lp97
Vhttp://dbpedia.org/resource/Kiti_District
p98
aaa(lp99
(lp100
Vhttp://dbpedia.org/resource/Samoan_Islands
p101
aa(lp102
a(lp103
a(lp104
a(lp105
aa(lp106
(lp107
Vhttp://dbpedia.org/resource/Samoan_Islands
p108
aa(lp109
a(lp110
a(lp111
a(lp112
aa(lp113
(lp114
Vhttp://dbpedia.org/resource/Samoan_Islands
p115
aa(lp116
Vhttp://dbpedia.org/resource/Tutuila
p117
aa(lp118
a(lp119
a(lp120
aa(lp121
(lp122
Vhttp://dbpedia.org/resource/Samoan_Islands
p123
aa(lp124
a(lp125
a(lp126
a(lp127
aa(lp128
(lp129
a(lp130
a(lp131
a(lp132
a(lp133
aa(lp134
(lp135
Vhttp://dbpedia.org/resource/Demographics_of_Tonga
p136
aa(lp137
a(lp138
a(lp139
a(lp140
aa.