(lp1
(lp2
(lp3
a(lp4
a(lp5
aa(lp6
(lp7
Vhttp://dbpedia.org/resource/Dutch_Boyd
p8
aa(lp9
Vhttp://dbpedia.org/resource/Dutch_Boyd
p10
aa(lp11
aa(lp12
(lp13
Vhttp://dbpedia.org/resource/Finnish_cuisine
p14
aa(lp15
Vhttp://dbpedia.org/resource/Finnish_cuisine
p16
aa(lp17
aa(lp18
(lp19
Vhttp://dbpedia.org/resource/European_French
p20
aa(lp21
Vhttp://dbpedia.org/resource/European_French
p22
aa(lp23
aa(lp24
(lp25
Vhttp://dbpedia.org/resource/Germany
p26
aa(lp27
Vhttp://dbpedia.org/resource/Germany
p28
aa(lp29
aa(lp30
(lp31
Vhttp://dbpedia.org/resource/Greek
p32
aa(lp33
Vhttp://dbpedia.org/resource/Greek
p34
aa(lp35
aa(lp36
(lp37
Vhttp://dbpedia.org/resource/Hindi_Belt
p38
aa(lp39
Vhttp://dbpedia.org/resource/Hindi_Belt
p40
aa(lp41
aa(lp42
(lp43
Vhttp://dbpedia.org/resource/Italian_Gambit
p44
aa(lp45
Vhttp://dbpedia.org/resource/Italian_Gambit
p46
aa(lp47
aa(lp48
(lp49
Vhttp://dbpedia.org/resource/Korean_Peninsula
p50
aa(lp51
Vhttp://dbpedia.org/resource/Korean_Peninsula
p52
aa(lp53
aa(lp54
(lp55
Vhttp://dbpedia.org/resource/Polish_cuisine
p56
aa(lp57
Vhttp://dbpedia.org/resource/Polish_cuisine
p58
aa(lp59
aa(lp60
(lp61
Vhttp://dbpedia.org/resource/Sonnets_from_the_Portuguese
p62
aa(lp63
Vhttp://dbpedia.org/resource/Brazil
p64
aa(lp65
aa(lp66
(lp67
Vhttp://dbpedia.org/resource/Sonnets_from_the_Portuguese
p68
aa(lp69
Vhttp://dbpedia.org/resource/Portugal
p70
aa(lp71
aa(lp72
(lp73
Vhttp://dbpedia.org/resource/Serbians
p74
aa(lp75
Vhttp://dbpedia.org/resource/Serbians
p76
aa(lp77
aa(lp78
(lp79
Vhttp://dbpedia.org/resource/Spanish,_Ontario
p80
aa(lp81
Vhttp://dbpedia.org/resource/Latin_America
p82
aa(lp83
aa(lp84
(lp85
Vhttp://dbpedia.org/resource/Spanish,_Ontario
p86
aa(lp87
Vhttp://dbpedia.org/resource/Spain
p88
aa(lp89
Vhttp://dbpedia.org/resource/Doble_Filo
p90
aaa(lp91
(lp92
Vhttp://dbpedia.org/resource/Null
p93
aa(lp94
Vhttp://dbpedia.org/resource/Null
p95
aa(lp96
Vhttp://dbpedia.org/resource/Null
p97
aaa.