(lp1
(lp2
(dp3
Vstart
p4
I0
sS'classes'
p5
(lp6
Vhttp://www.w3.org/2002/07/owl#Thing
p7
aVhttp://dbpedia.org/ontology/Genre
p8
aVhttp://www.ontologydesignpatterns.org/ont/dul/DUL.owl#Concept
p9
aVhttp://www.wikidata.org/entity/Q188451
p10
aVhttp://dbpedia.org/ontology/MusicGenre
p11
aVhttp://dbpedia.org/ontology/TopicalConcept
p12
asVdisambiguatedURL
p13
Vhttp://dbpedia.org/resource/Bulgarian_customs
p14
sVnamedEntity
p15
VBulgarian
p16
sVoffset
p17
I9
saa(lp18
a(lp19
a(lp20
(dp21
Vstart
p22
I0
sg5
(lp23
Vhttp://www.w3.org/2002/07/owl#Thing
p24
aVhttp://xmlns.com/foaf/0.1/Person
p25
aVhttp://dbpedia.org/ontology/Person
p26
aVhttp://www.ontologydesignpatterns.org/ont/dul/DUL.owl#Agent
p27
aVhttp://www.ontologydesignpatterns.org/ont/dul/DUL.owl#NaturalPerson
p28
aVhttp://www.wikidata.org/entity/Q215627
p29
aVhttp://www.wikidata.org/entity/Q5
p30
aVhttp://dbpedia.org/ontology/Agent
p31
aVhttp://dbpedia.org/ontology/Athlete
p32
aVhttp://dbpedia.org/ontology/PokerPlayer
p33
aVhttp://schema.org/Person
p34
aVhttp://umbel.org/umbel/rc/PersonWithOccupation
p35
aVhttp://dbpedia.org/class/yago/AmericanPokerPlayers
p36
aVhttp://dbpedia.org/class/yago/CausalAgent100007347
p37
aVhttp://dbpedia.org/class/yago/Contestant109613191
p38
aVhttp://dbpedia.org/class/yago/LivingThing100004258
p39
aVhttp://dbpedia.org/class/yago/Object100002684
p40
aVhttp://dbpedia.org/class/yago/Organism100004475
p41
aVhttp://dbpedia.org/class/yago/Person100007846
p42
aVhttp://dbpedia.org/class/yago/Player110439851
p43
aVhttp://dbpedia.org/class/yago/Whole100003553
p44
aVhttp://dbpedia.org/class/yago/YagoLegalActorGeo
p45
aVhttp://dbpedia.org/class/yago/PhysicalEntity100001930
p46
aVhttp://dbpedia.org/class/yago/LivingPeople
p47
aVhttp://dbpedia.org/class/yago/PeopleWithBipolarDisorder
p48
aVhttp://dbpedia.org/class/yago/YagoLegalActor
p49
asVdisambiguatedURL
p50
Vhttp://dbpedia.org/resource/Dutch_Boyd
p51
sVnamedEntity
p52
VDutch
p53
sVoffset
p54
I5
saa(lp55
a(lp56
(dp57
Vstart
p58
I0
sg5
(lp59
Vhttp://www.w3.org/2002/07/owl#Thing
p60
aVhttp://dbpedia.org/ontology/Language
p61
aVhttp://www.wikidata.org/entity/Q315
p62
aVhttp://www.wikidata.org/entity/Q34770
p63
aVhttp://schema.org/Language
p64
asVdisambiguatedURL
p65
Vhttp://dbpedia.org/resource/European_French
p66
sVnamedEntity
p67
VEuropean French
p68
sVoffset
p69
I15
saa(lp70
(dp71
Vstart
p72
I0
sg5
(lp73
Vhttp://www.w3.org/2002/07/owl#Thing
p74
aVhttp://dbpedia.org/ontology/Place
p75
aVhttp://dbpedia.org/ontology/Location
p76
aVhttp://www.wikidata.org/entity/Q486972
p77
aVhttp://www.wikidata.org/entity/Q6256
p78
aVhttp://dbpedia.org/ontology/Country
p79
aVhttp://dbpedia.org/ontology/PopulatedPlace
p80
aVhttp://www.w3.org/2003/01/geo/wgs84_pos#SpatialThing
p81
aVhttp://schema.org/Country
p82
aVhttp://schema.org/Place
p83
aVhttp://umbel.org/umbel/rc/Country
p84
aVhttp://umbel.org/umbel/rc/Location_Underspecified
p85
aVhttp://umbel.org/umbel/rc/PopulatedPlace
p86
aVhttp://dbpedia.org/class/yago/Abstraction100002137
p87
aVhttp://dbpedia.org/class/yago/AdministrativeDistrict108491826
p88
aVhttp://dbpedia.org/class/yago/AlpineCountries
p89
aVhttp://dbpedia.org/class/yago/Country108544813
p90
aVhttp://dbpedia.org/class/yago/District108552138
p91
aVhttp://dbpedia.org/class/yago/Economy108366753
p92
aVhttp://dbpedia.org/class/yago/Group100031264
p93
aVhttp://dbpedia.org/class/yago/Location100027167
p94
aVhttp://dbpedia.org/class/yago/Object100002684
p95
aVhttp://dbpedia.org/class/yago/Region108630985
p96
aVhttp://dbpedia.org/class/yago/System108435388
p97
aVhttp://dbpedia.org/class/yago/YagoGeoEntity
p98
aVhttp://dbpedia.org/class/yago/YagoLegalActorGeo
p99
aVhttp://dbpedia.org/class/yago/CountriesBorderingTheAtlanticOcean
p100
aVhttp://dbpedia.org/class/yago/CountriesBorderingTheBalticSea
p101
aVhttp://dbpedia.org/class/yago/EuropeanCountries
p102
aVhttp://dbpedia.org/class/yago/EuropeanUnionMemberEconomies
p103
aVhttp://dbpedia.org/class/yago/FederalCountries
p104
aVhttp://dbpedia.org/class/yago/PhysicalEntity100001930
p105
aVhttp://dbpedia.org/class/yago/YagoPermanentlyLocatedEntity
p106
aVhttp://dbpedia.org/class/yago/German-speakingCountries
p107
aVhttp://dbpedia.org/class/yago/MemberStatesOfNATO
p108
aVhttp://dbpedia.org/class/yago/MemberStatesOfTheEuropeanUnion
p109
aVhttp://dbpedia.org/class/yago/MemberStatesOfTheUnionForTheMediterranean
p110
aVhttp://dbpedia.org/class/yago/MemberStatesOfTheUnitedNations
p111
aVhttp://dbpedia.org/class/yago/StatesAndTerritoriesEstablishedIn1871
p112
asVdisambiguatedURL
p113
Vhttp://dbpedia.org/resource/Germany
p114
sVnamedEntity
p115
VGerman
p116
sVoffset
p117
I6
saa(lp118
a(lp119
a(lp120
a(lp121
(dp122
Vstart
p123
I0
sg5
(lp124
Vhttp://www.w3.org/2002/07/owl#Thing
p125
aVhttp://dbpedia.org/ontology/Company
p126
aVhttp://www.ontologydesignpatterns.org/ont/dul/DUL.owl#Agent
p127
aVhttp://www.ontologydesignpatterns.org/ont/dul/DUL.owl#SocialPerson
p128
aVhttp://www.wikidata.org/entity/Q43229
p129
aVhttp://www.wikidata.org/entity/Q46970
p130
aVhttp://dbpedia.org/ontology/Agent
p131
aVhttp://dbpedia.org/ontology/Airline
p132
aVhttp://dbpedia.org/ontology/Organisation
p133
aVhttp://schema.org/Organization
p134
aVhttp://umbel.org/umbel/rc/AirlineCompany
p135
aVhttp://umbel.org/umbel/rc/Business
p136
aVhttp://umbel.org/umbel/rc/Organization
p137
aVhttp://dbpedia.org/class/yago/Abstraction100002137
p138
aVhttp://dbpedia.org/class/yago/Airline102690081
p139
aVhttp://dbpedia.org/class/yago/AirlinesEstablishedIn1993
p140
aVhttp://dbpedia.org/class/yago/AirlinesOfNorway
p141
aVhttp://dbpedia.org/class/yago/Business108061042
p142
aVhttp://dbpedia.org/class/yago/Carrier108057633
p143
aVhttp://dbpedia.org/class/yago/Company108058098
p144
aVhttp://dbpedia.org/class/yago/Enterprise108056231
p145
aVhttp://dbpedia.org/class/yago/Group100031264
p146
aVhttp://dbpedia.org/class/yago/Institution108053576
p147
aVhttp://dbpedia.org/class/yago/Line103671473
p148
aVhttp://dbpedia.org/class/yago/Organization108008335
p149
aVhttp://dbpedia.org/class/yago/SocialGroup107950920
p150
aVhttp://dbpedia.org/class/yago/YagoLegalActorGeo
p151
aVhttp://dbpedia.org/class/yago/CompaniesBasedInB%C3%A6rum
p152
aVhttp://dbpedia.org/class/yago/CompaniesListedOnTheOsloStockExchange
p153
aVhttp://dbpedia.org/class/yago/YagoPermanentlyLocatedEntity
p154
aVhttp://dbpedia.org/class/yago/Low-costAirlines
p155
aVhttp://dbpedia.org/class/yago/YagoLegalActor
p156
asVdisambiguatedURL
p157
Vhttp://dbpedia.org/resource/Norwegian_Air_Shuttle
p158
sVnamedEntity
p159
VNorwegian
p160
sVoffset
p161
I9
saa(lp162
(dp163
Vstart
p164
I0
sg5
(lp165
Vhttp://www.w3.org/2002/07/owl#Thing
p166
asVdisambiguatedURL
p167
Vhttp://dbpedia.org/resource/Polish_cuisine
p168
sVnamedEntity
p169
VPolish
p170
sVoffset
p171
I6
saa(lp172
(dp173
Vstart
p174
I0
sg5
(lp175
Vhttp://www.w3.org/2002/07/owl#Thing
p176
aVhttp://www.wikidata.org/entity/Q386724
p177
aVhttp://www.wikidata.org/entity/Q5185279
p178
aVhttp://dbpedia.org/ontology/Poem
p179
aVhttp://dbpedia.org/ontology/Work
p180
aVhttp://dbpedia.org/ontology/WrittenWork
p181
aVhttp://schema.org/CreativeWork
p182
aVhttp://dbpedia.org/class/yago/1850Poems
p183
aVhttp://dbpedia.org/class/yago/Abstraction100002137
p184
aVhttp://dbpedia.org/class/yago/BritishPoems
p185
aVhttp://dbpedia.org/class/yago/Communication100033020
p186
aVhttp://dbpedia.org/class/yago/LiteraryComposition106364329
p187
aVhttp://dbpedia.org/class/yago/Poem106377442
p188
aVhttp://dbpedia.org/class/yago/Writing106362953
p189
aVhttp://dbpedia.org/class/yago/WrittenCommunication106349220
p190
aVhttp://dbpedia.org/class/yago/Sonnet106381372
p191
aVhttp://dbpedia.org/class/yago/Sonnets
p192
asVdisambiguatedURL
p193
Vhttp://dbpedia.org/resource/Sonnets_from_the_Portuguese
p194
sVnamedEntity
p195
VPortuguese
p196
sVoffset
p197
I10
saa(lp198
(dp199
Vstart
p200
I0
sg5
(lp201
Vhttp://www.w3.org/2002/07/owl#Thing
p202
aVhttp://www.wikidata.org/entity/Q386724
p203
aVhttp://www.wikidata.org/entity/Q5185279
p204
aVhttp://dbpedia.org/ontology/Poem
p205
aVhttp://dbpedia.org/ontology/Work
p206
aVhttp://dbpedia.org/ontology/WrittenWork
p207
aVhttp://schema.org/CreativeWork
p208
aVhttp://dbpedia.org/class/yago/1850Poems
p209
aVhttp://dbpedia.org/class/yago/Abstraction100002137
p210
aVhttp://dbpedia.org/class/yago/BritishPoems
p211
aVhttp://dbpedia.org/class/yago/Communication100033020
p212
aVhttp://dbpedia.org/class/yago/LiteraryComposition106364329
p213
aVhttp://dbpedia.org/class/yago/Poem106377442
p214
aVhttp://dbpedia.org/class/yago/Writing106362953
p215
aVhttp://dbpedia.org/class/yago/WrittenCommunication106349220
p216
aVhttp://dbpedia.org/class/yago/Sonnet106381372
p217
aVhttp://dbpedia.org/class/yago/Sonnets
p218
asVdisambiguatedURL
p219
Vhttp://dbpedia.org/resource/Sonnets_from_the_Portuguese
p220
sVnamedEntity
p221
VPortuguese
p222
sVoffset
p223
I10
saa(lp224
(dp225
Vstart
p226
I0
sg5
(lp227
Vhttp://www.w3.org/2002/07/owl#Thing
p228
aVhttp://purl.org/ontology/bibo/Book
p229
aVhttp://www.wikidata.org/entity/Q386724
p230
aVhttp://www.wikidata.org/entity/Q571
p231
aVhttp://dbpedia.org/ontology/Book
p232
aVhttp://dbpedia.org/ontology/Work
p233
aVhttp://dbpedia.org/ontology/WrittenWork
p234
aVhttp://schema.org/Book
p235
aVhttp://schema.org/CreativeWork
p236
aVhttp://dbpedia.org/class/Book
p237
aVhttp://umbel.org/umbel/rc/Book_CW
p238
asVdisambiguatedURL
p239
Vhttp://dbpedia.org/resource/The_Romanian:_Story_of_an_Obsession
p240
sVnamedEntity
p241
VRomanian
p242
sVoffset
p243
I8
saa(lp244
(dp245
Vstart
p246
I0
sg5
(lp247
Vhttp://www.w3.org/2002/07/owl#Thing
p248
aVhttp://dbpedia.org/ontology/Place
p249
aVhttp://dbpedia.org/ontology/Location
p250
aVhttp://www.wikidata.org/entity/Q3957
p251
aVhttp://www.wikidata.org/entity/Q486972
p252
aVhttp://dbpedia.org/ontology/PopulatedPlace
p253
aVhttp://dbpedia.org/ontology/Settlement
p254
aVhttp://dbpedia.org/ontology/Town
p255
aVhttp://www.w3.org/2003/01/geo/wgs84_pos#SpatialThing
p256
aVhttp://schema.org/Place
p257
aVhttp://dbpedia.org/class/yago/AdministrativeDistrict108491826
p258
aVhttp://dbpedia.org/class/yago/District108552138
p259
aVhttp://dbpedia.org/class/yago/Location100027167
p260
aVhttp://dbpedia.org/class/yago/Object100002684
p261
aVhttp://dbpedia.org/class/yago/Region108630985
p262
aVhttp://dbpedia.org/class/yago/Town108665504
p263
aVhttp://dbpedia.org/class/yago/UrbanArea108675967
p264
aVhttp://dbpedia.org/class/yago/YagoGeoEntity
p265
aVhttp://dbpedia.org/class/yago/YagoLegalActorGeo
p266
aVhttp://dbpedia.org/class/yago/GeographicalArea108574314
p267
aVhttp://dbpedia.org/class/yago/Municipality108626283
p268
aVhttp://dbpedia.org/class/yago/PhysicalEntity100001930
p269
aVhttp://dbpedia.org/class/yago/YagoPermanentlyLocatedEntity
p270
aVhttp://dbpedia.org/class/yago/MunicipalitiesInAlgomaDistrict
p271
aVhttp://dbpedia.org/class/yago/TownsInOntario
p272
asVdisambiguatedURL
p273
Vhttp://dbpedia.org/resource/Spanish,_Ontario
p274
sVnamedEntity
p275
VSpanish
p276
sVoffset
p277
I7
saa(lp278
(dp279
Vstart
p280
I0
sg5
(lp281
Vhttp://www.w3.org/2002/07/owl#Thing
p282
aVhttp://dbpedia.org/ontology/Place
p283
aVhttp://dbpedia.org/ontology/Location
p284
aVhttp://www.wikidata.org/entity/Q3957
p285
aVhttp://www.wikidata.org/entity/Q486972
p286
aVhttp://dbpedia.org/ontology/PopulatedPlace
p287
aVhttp://dbpedia.org/ontology/Settlement
p288
aVhttp://dbpedia.org/ontology/Town
p289
aVhttp://www.w3.org/2003/01/geo/wgs84_pos#SpatialThing
p290
aVhttp://schema.org/Place
p291
aVhttp://dbpedia.org/class/yago/AdministrativeDistrict108491826
p292
aVhttp://dbpedia.org/class/yago/District108552138
p293
aVhttp://dbpedia.org/class/yago/Location100027167
p294
aVhttp://dbpedia.org/class/yago/Object100002684
p295
aVhttp://dbpedia.org/class/yago/Region108630985
p296
aVhttp://dbpedia.org/class/yago/Town108665504
p297
aVhttp://dbpedia.org/class/yago/UrbanArea108675967
p298
aVhttp://dbpedia.org/class/yago/YagoGeoEntity
p299
aVhttp://dbpedia.org/class/yago/YagoLegalActorGeo
p300
aVhttp://dbpedia.org/class/yago/GeographicalArea108574314
p301
aVhttp://dbpedia.org/class/yago/Municipality108626283
p302
aVhttp://dbpedia.org/class/yago/PhysicalEntity100001930
p303
aVhttp://dbpedia.org/class/yago/YagoPermanentlyLocatedEntity
p304
aVhttp://dbpedia.org/class/yago/MunicipalitiesInAlgomaDistrict
p305
aVhttp://dbpedia.org/class/yago/TownsInOntario
p306
asVdisambiguatedURL
p307
Vhttp://dbpedia.org/resource/Spanish,_Ontario
p308
sVnamedEntity
p309
VSpanish
p310
sVoffset
p311
I7
saa(lp312
a(lp313
a.