ccollections
defaultdict
p1
(c__builtin__
dict
p2
tRp3
I5
(dp4
I1
(lp5
ssI6
(dp6
I1
(lp7
ssI7
(dp8
I1
(lp9
Vhttp://dbpedia.org/ontology/birthPlace
p10
assI9
(dp11
I1
(lp12
ssI10
(dp13
I1
(lp14
Vhttp://dbpedia.org/ontology/nationality
p15
aVhttp://dbpedia.org/ontology/birthPlace
p16
aVhttp://dbpedia.org/property/birthPlace
p17
aVhttp://dbpedia.org/property/placeOfBirth
p18
assI11
(dp19
I1
(lp20
ssI12
(dp21
I1
(lp22
ssI13
(dp23
I1
(lp24
ssI14
(dp25
I1
(lp26
Vhttp://dbpedia.org/ontology/birthPlace
p27
aVhttp://dbpedia.org/property/birthPlace
p28
aVhttp://dbpedia.org/property/placeOfBirth
p29
assI15
(dp30
I1
(lp31
ssI16
(dp32
I1
(lp33
Vhttp://dbpedia.org/ontology/birthPlace
p34
aVhttp://dbpedia.org/property/birthPlace
p35
assI17
(dp36
I1
(lp37
ssI18
(dp38
I1
(lp39
ss.