ccollections
defaultdict
p1
(c__builtin__
dict
p2
tRp3
I1
(dp4
I1
(lp5
Vhttp://dbpedia.org/ontology/birthPlace
p6
aVhttp://dbpedia.org/property/birthPlace
p7
aVhttp://dbpedia.org/property/placeOfBirth
p8
asI2
(lp9
Vhttp://dbpedia.org/ontology/birthPlace
p10
aVhttp://dbpedia.org/property/birthPlace
p11
aVhttp://dbpedia.org/property/placeOfBirth
p12
assI3
(dp13
I1
(lp14
sI2
(lp15
ssI6
(dp16
I1
(lp17
sI2
(lp18
ssI7
(dp19
I1
(lp20
Vhttp://dbpedia.org/ontology/birthPlace
p21
asI2
(lp22
ssI8
(dp23
I1
(lp24
sI2
(lp25
ssI10
(dp26
I1
(lp27
sI2
(lp28
ssI12
(dp29
I1
(lp30
sI2
(lp31
ssI13
(dp32
I1
(lp33
sI2
(lp34
ssI14
(dp35
I1
(lp36
Vhttp://dbpedia.org/ontology/birthPlace
p37
aVhttp://dbpedia.org/property/birthPlace
p38
asI2
(lp39
Vhttp://dbpedia.org/ontology/birthPlace
p40
aVhttp://dbpedia.org/property/birthPlace
p41
assI15
(dp42
I1
(lp43
sI2
(lp44
ssI17
(dp45
I1
(lp46
sI2
(lp47
ss.