ccollections
defaultdict
p1
(c__builtin__
dict
p2
tRp3
I10
(dp4
I1
(lp5
Vhttp://www.w3.org/ns/prov#wasDerivedFrom
p6
asI2
(lp7
sI3
(lp8
ssI5
(dp9
I1
(lp10
Vhttp://www.w3.org/ns/prov#wasDerivedFrom
p11
asI2
(lp12
Vhttp://dbpedia.org/ontology/wikiPageExternalLink
p13
aVhttp://xmlns.com/foaf/0.1/homepage
p14
aVhttp://dbpedia.org/property/homepage
p15
asI3
(lp16
ssI6
(dp17
I1
(lp18
Vhttp://www.w3.org/ns/prov#wasDerivedFrom
p19
asI2
(lp20
Vhttp://dbpedia.org/ontology/wikiPageExternalLink
p21
aVhttp://dbpedia.org/property/website
p22
aVhttp://xmlns.com/foaf/0.1/homepage
p23
asI3
(lp24
ss.