(lp1
(lp2
(dp3
Vstart
p4
I0
sVdisambiguatedURL
p5
Vhttp://dbpedia.org/resource/Taiwan
p6
sVnamedEntity
p7
VTaiwan
p8
sVoffset
p9
I6
saa(lp10
(dp11
Vstart
p12
I0
sVdisambiguatedURL
p13
Vhttp://dbpedia.org/resource/Tajikistan
p14
sVnamedEntity
p15
VTajikistan
p16
sVoffset
p17
I10
saa(lp18
(dp19
Vstart
p20
I0
sVdisambiguatedURL
p21
Vhttp://dbpedia.org/resource/Tanzania
p22
sVnamedEntity
p23
VTanzania
p24
sVoffset
p25
I8
saa(lp26
(dp27
Vstart
p28
I0
sVdisambiguatedURL
p29
Vhttp://dbpedia.org/resource/Thailand
p30
sVnamedEntity
p31
VThailand
p32
sVoffset
p33
I8
saa(lp34
(dp35
Vstart
p36
I0
sVdisambiguatedURL
p37
Vhttp://dbpedia.org/resource/The_Bahamas
p38
sVnamedEntity
p39
VThe Bahamas
p40
sVoffset
p41
I11
saa(lp42
(dp43
Vstart
p44
I0
sVdisambiguatedURL
p45
Vhttp://dbpedia.org/resource/The_Gambia
p46
sVnamedEntity
p47
VThe Gambia
p48
sVoffset
p49
I10
saa(lp50
(dp51
Vstart
p52
I0
sVdisambiguatedURL
p53
Vhttp://dbpedia.org/resource/Togo
p54
sVnamedEntity
p55
VTogo
p56
sVoffset
p57
I4
saa(lp58
(dp59
Vstart
p60
I0
sVdisambiguatedURL
p61
Vhttp://dbpedia.org/resource/Tokelau
p62
sVnamedEntity
p63
VTokelau
p64
sVoffset
p65
I7
saa(lp66
(dp67
Vstart
p68
I0
sVdisambiguatedURL
p69
Vhttp://dbpedia.org/resource/Tonga
p70
sVnamedEntity
p71
VTonga
p72
sVoffset
p73
I5
saa(lp74
(dp75
Vstart
p76
I0
sVdisambiguatedURL
p77
Vhttp://dbpedia.org/resource/Trinidad_and_Tobago
p78
sVnamedEntity
p79
VTrinidad and Tobago
p80
sVoffset
p81
I19
saa(lp82
(dp83
Vstart
p84
I0
sVdisambiguatedURL
p85
Vhttp://dbpedia.org/resource/Tunisia
p86
sVnamedEntity
p87
VTunisia
p88
sVoffset
p89
I7
saa(lp90
(dp91
Vstart
p92
I0
sVdisambiguatedURL
p93
Vhttp://dbpedia.org/resource/Turkey
p94
sVnamedEntity
p95
VTurkey
p96
sVoffset
p97
I6
saa(lp98
(dp99
Vstart
p100
I0
sVdisambiguatedURL
p101
Vhttp://dbpedia.org/resource/Turkmenistan
p102
sVnamedEntity
p103
VTurkmenistan
p104
sVoffset
p105
I12
saa(lp106
(dp107
Vstart
p108
I0
sVdisambiguatedURL
p109
Vhttp://dbpedia.org/resource/Turks_and_Caicos_Islands
p110
sVnamedEntity
p111
VTurks and Caicos Islands
p112
sVoffset
p113
I24
saa(lp114
(dp115
Vstart
p116
I0
sVdisambiguatedURL
p117
Vhttp://dbpedia.org/resource/Tuvalu
p118
sVnamedEntity
p119
VTuvalu
p120
sVoffset
p121
I6
saa.