(lp1
(lp2
(lp3
Vhttp://dbpedia.org/resource/Japonic_languages
p4
aa(lp5
Vhttp://dbpedia.org/resource/Japonic_languages
p6
aa(lp7
aa(lp8
(lp9
a(lp10
a(lp11
aa(lp12
(lp13
Vhttp://dbpedia.org/resource/Danish_(name)
p14
aa(lp15
Vhttp://dbpedia.org/resource/Danish_(name)
p16
aa(lp17
aa(lp18
(lp19
Vhttp://dbpedia.org/resource/Dutch_Boyd
p20
aa(lp21
Vhttp://dbpedia.org/resource/Dutch_Boyd
p22
aa(lp23
Vhttp://dbpedia.org/resource/Gras
p24
aaa(lp25
(lp26
Vhttp://dbpedia.org/resource/Finnish_cuisine
p27
aa(lp28
Vhttp://dbpedia.org/resource/Finnish_cuisine
p29
aa(lp30
aa(lp31
(lp32
Vhttp://dbpedia.org/resource/French_River_(Ontario)
p33
aa(lp34
Vhttp://dbpedia.org/resource/French_River_(Ontario)
p35
aa(lp36
Vhttp://dbpedia.org/resource/Plante
p37
aaa(lp38
(lp39
Vhttp://dbpedia.org/resource/Germany
p40
aa(lp41
Vhttp://dbpedia.org/resource/Germany
p42
aa(lp43
aa(lp44
(lp45
Vhttp://dbpedia.org/resource/Greek
p46
aa(lp47
Vhttp://dbpedia.org/resource/Greek
p48
aa(lp49
aa(lp50
(lp51
Vhttp://dbpedia.org/resource/Modern_Hebrew_phonology
p52
aa(lp53
Vhttp://dbpedia.org/resource/Modern_Hebrew_phonology
p54
aa(lp55
aa(lp56
(lp57
Vhttp://dbpedia.org/resource/Indonesian_cuisine
p58
aa(lp59
Vhttp://dbpedia.org/resource/Indonesian_cuisine
p60
aa(lp61
Vhttp://dbpedia.org/resource/Mount_Rumput
p62
aaa(lp63
(lp64
Vhttp://dbpedia.org/resource/Italian_Gambit
p65
aa(lp66
Vhttp://dbpedia.org/resource/Italian_Gambit
p67
aa(lp68
Vhttp://dbpedia.org/resource/Erba,_Lombardy
p69
aaa(lp70
(lp71
Vhttp://dbpedia.org/resource/Korean_Peninsula
p72
aa(lp73
Vhttp://dbpedia.org/resource/Korean_Peninsula
p74
aa(lp75
aa(lp76
(lp77
Vhttp://dbpedia.org/resource/Norwegian_Air_Shuttle
p78
aa(lp79
Vhttp://dbpedia.org/resource/Norwegian_Air_Shuttle
p80
aa(lp81
Vhttp://dbpedia.org/resource/Gress
p82
aaa(lp83
(lp84
Vhttp://dbpedia.org/resource/Polish_cuisine
p85
aa(lp86
Vhttp://dbpedia.org/resource/Polish_cuisine
p87
aa(lp88
aa(lp89
(lp90
Vhttp://dbpedia.org/resource/Sonnets_from_the_Portuguese
p91
aa(lp92
Vhttp://dbpedia.org/resource/Brazil
p93
aa(lp94
aa(lp95
(lp96
Vhttp://dbpedia.org/resource/Sonnets_from_the_Portuguese
p97
aa(lp98
Vhttp://dbpedia.org/resource/Portugal
p99
aa(lp100
aa(lp101
(lp102
Vhttp://dbpedia.org/resource/Spanish,_Ontario
p103
aa(lp104
Vhttp://dbpedia.org/resource/Latin_America
p105
aa(lp106
aa(lp107
(lp108
Vhttp://dbpedia.org/resource/Spanish,_Ontario
p109
aa(lp110
Vhttp://dbpedia.org/resource/Spain
p111
aa(lp112
Vhttp://dbpedia.org/resource/Albert_Planta
p113
aaa(lp114
(lp115
Vhttp://dbpedia.org/resource/Null
p116
aa(lp117
Vhttp://dbpedia.org/resource/Null
p118
aa(lp119
Vhttp://dbpedia.org/resource/Null
p120
aaa.