(lp1
(lp2
(lp3
a(lp4
a(lp5
a(lp6
a(lp7
a(lp8
a(lp9
aa(lp10
(lp11
Vhttp://dbpedia.org/resource/Twelve_Angry_Men
p12
aa(lp13
a(lp14
a(lp15
a(lp16
a(lp17
a(lp18
aa(lp19
(lp20
a(lp21
a(lp22
a(lp23
a(lp24
a(lp25
a(lp26
aa(lp27
(lp28
Vhttp://dbpedia.org/resource/2001:_A_Space_Odyssey
p29
aa(lp30
a(lp31
a(lp32
Vhttp://dbpedia.org/resource/Stanley_Kubrick
p33
aa(lp34
a(lp35
a(lp36
aa(lp37
(lp38
a(lp39
a(lp40
a(lp41
a(lp42
a(lp43
a(lp44
aa(lp45
(lp46
Vhttp://dbpedia.org/resource/3_Ninjas
p47
aa(lp48
a(lp49
a(lp50
a(lp51
a(lp52
a(lp53
aa(lp54
(lp55
Vhttp://dbpedia.org/resource/Television_advertisement
p56
aa(lp57
a(lp58
a(lp59
a(lp60
a(lp61
a(lp62
aa(lp63
(lp64
Vhttp://dbpedia.org/resource/Across_the_Universe_(Star_Trek)
p65
aa(lp66
a(lp67
a(lp68
a(lp69
a(lp70
a(lp71
aa(lp72
(lp73
a(lp74
a(lp75
a(lp76
a(lp77
a(lp78
a(lp79
aa(lp80
(lp81
Vhttp://dbpedia.org/resource/American_Beauty
p82
aa(lp83
a(lp84
a(lp85
a(lp86
a(lp87
a(lp88
aa(lp89
(lp90
a(lp91
a(lp92
a(lp93
a(lp94
a(lp95
a(lp96
aa(lp97
(lp98
a(lp99
a(lp100
a(lp101
a(lp102
a(lp103
a(lp104
aa(lp105
(lp106
a(lp107
a(lp108
a(lp109
a(lp110
a(lp111
a(lp112
aa(lp113
(lp114
a(lp115
a(lp116
a(lp117
Vhttp://dbpedia.org/resource/Christopher_Nolan
p118
aa(lp119
Vhttp://dbpedia.org/resource/Christopher_Nolan
p120
aa(lp121
a(lp122
aa(lp123
(lp124
a(lp125
a(lp126
a(lp127
a(lp128
a(lp129
a(lp130
aa(lp131
(lp132
a(lp133
a(lp134
a(lp135
Vhttp://dbpedia.org/resource/Michel_Gondry
p136
aa(lp137
Vhttp://dbpedia.org/resource/Michel_Gondry
p138
aa(lp139
a(lp140
aa(lp141
(lp142
a(lp143
a(lp144
a(lp145
a(lp146
a(lp147
a(lp148
aa(lp149
(lp150
a(lp151
a(lp152
a(lp153
a(lp154
a(lp155
a(lp156
aa(lp157
(lp158
a(lp159
a(lp160
a(lp161
a(lp162
a(lp163
a(lp164
aa(lp165
(lp166
a(lp167
a(lp168
a(lp169
a(lp170
a(lp171
a(lp172
aa.