(lp1
(lp2
(lp3
a(lp4
a(lp5
aa(lp6
(lp7
a(lp8
a(lp9
aa(lp10
(lp11
a(lp12
((lp13
Vhttp://www.w3.org/2002/07/owl#Thing
p14
aVhttp://xmlns.com/foaf/0.1/Person
p15
aVhttp://dbpedia.org/ontology/Person
p16
aVhttp://www.ontologydesignpatterns.org/ont/dul/DUL.owl#Agent
p17
aVhttp://www.ontologydesignpatterns.org/ont/dul/DUL.owl#NaturalPerson
p18
aVhttp://www.wikidata.org/entity/Q10871364
p19
aVhttp://www.wikidata.org/entity/Q215627
p20
aVhttp://www.wikidata.org/entity/Q5
p21
aVhttp://dbpedia.org/ontology/Agent
p22
aVhttp://dbpedia.org/ontology/Athlete
p23
aVhttp://dbpedia.org/ontology/BaseballPlayer
p24
aVhttp://schema.org/Person
p25
aVhttp://umbel.org/umbel/rc/Athlete
p26
aVhttp://umbel.org/umbel/rc/BaseballPlayer
p27
aVhttp://umbel.org/umbel/rc/PersonWithOccupation
p28
aVhttp://dbpedia.org/class/yago/Athlete109820263
p29
aVhttp://dbpedia.org/class/yago/Ballplayer109835506
p30
aVhttp://dbpedia.org/class/yago/BaseballPlayersFromNebraska
p31
aVhttp://dbpedia.org/class/yago/CausalAgent100007347
p32
aVhttp://dbpedia.org/class/yago/Champion109906704
p33
aVhttp://dbpedia.org/class/yago/Contestant109613191
p34
aVhttp://dbpedia.org/class/yago/LivingThing100004258
p35
aVhttp://dbpedia.org/class/yago/Object100002684
p36
aVhttp://dbpedia.org/class/yago/Organism100004475
p37
aVhttp://dbpedia.org/class/yago/Person100007846
p38
aVhttp://dbpedia.org/class/yago/Pitcher110435988
p39
aVhttp://dbpedia.org/class/yago/Player110439851
p40
aVhttp://dbpedia.org/class/yago/Rival110533013
p41
aVhttp://dbpedia.org/class/yago/Whole100003553
p42
aVhttp://dbpedia.org/class/yago/YagoLegalActorGeo
p43
aVhttp://dbpedia.org/class/yago/ChicagoCubsPlayers
p44
aVhttp://dbpedia.org/class/yago/DallasSteersPlayers
p45
aVhttp://dbpedia.org/class/yago/PhysicalEntity100001930
p46
aVhttp://dbpedia.org/class/yago/GalesburgBoostersPlayers
p47
aVhttp://dbpedia.org/class/yago/MajorLeagueBaseballPitchers
p48
aVhttp://dbpedia.org/class/yago/NationalLeagueERAChampions
p49
aVhttp://dbpedia.org/class/yago/NationalLeagueStrikeoutChampions
p50
aVhttp://dbpedia.org/class/yago/NationalLeagueWinsChampions
p51
aVhttp://dbpedia.org/class/yago/PeopleFromHowardCounty,Nebraska
p52
aVhttp://dbpedia.org/class/yago/PeopleWithEpilepsy
p53
aVhttp://dbpedia.org/class/yago/PhiladelphiaPhilliesPlayers
p54
aVhttp://dbpedia.org/class/yago/Thrower110709529
p55
aVhttp://dbpedia.org/class/yago/YagoLegalActor
p56
aVhttp://dbpedia.org/class/yago/St.LouisCardinalsPlayers
p57
aVhttp://dbpedia.org/class/yago/SyracuseStars(minorLeague)Players
p58
aVhttp://dbpedia.org/resource/Grover_Cleveland_Alexander
tp59
aa(lp60
aa(lp61
(lp62
((lVhttp://dbpedia.org/resource/Null
tp63
aa(lp64
a(lp65
aa(lp66
(lp67
a(lp68
a(lp69
aa(lp70
(lp71
a(lp72
a(lp73
aa(lp74
(lp75
a(lp76
a(lp77
aa(lp78
(lp79
a(lp80
a(lp81
aa(lp82
(lp83
a(lp84
a(lp85
aa(lp86
(lp87
a(lp88
a(lp89
aa(lp90
(lp91
a(lp92
a(lp93
aa(lp94
(lp95
a(lp96
a(lp97
aa(lp98
(lp99
a(lp100
a(lp101
aa(lp102
(lp103
a(lp104
a(lp105
aa(lp106
(lp107
((lVhttp://dbpedia.org/resource/Null
p108
tp109
aa(lp110
a(lp111
aa(lp112
(lp113
a(lp114
a(lp115
aa(lp116
(lp117
a(lp118
a(lp119
aa(lp120
(lp121
a(lp122
a(lp123
aa(lp124
(lp125
a(lp126
a(lp127
aa(lp128
(lp129
a(lp130
a(lp131
aa.