(lp1
(lp2
(dp3
Vstart
p4
I0
sVdisambiguatedURL
p5
NsVnamedEntity
p6
V1
sVoffset
p7
I1
saa(lp8
(dp9
Vstart
p10
I0
sVdisambiguatedURL
p11
NsVnamedEntity
p12
V2
sVoffset
p13
I1
saa(lp14
(dp15
Vstart
p16
I0
sVdisambiguatedURL
p17
NsVnamedEntity
p18
V3
sVoffset
p19
I1
saa(lp20
(dp21
Vstart
p22
I0
sVdisambiguatedURL
p23
Vhttp://dbpedia.org/resource/Null
p24
sVnamedEntity
p25
VNULL
p26
sVoffset
p27
I4
saa(lp28
(dp29
Vstart
p30
I0
sVdisambiguatedURL
p31
NsVnamedEntity
p32
V5
sVoffset
p33
I1
saa(lp34
(dp35
Vstart
p36
I0
sVdisambiguatedURL
p37
NsVnamedEntity
p38
V6
sVoffset
p39
I1
saa(lp40
(dp41
Vstart
p42
I0
sVdisambiguatedURL
p43
NsVnamedEntity
p44
V7
sVoffset
p45
I1
saa(lp46
(dp47
Vstart
p48
I0
sVdisambiguatedURL
p49
NsVnamedEntity
p50
V8
sVoffset
p51
I1
saa(lp52
(dp53
Vstart
p54
I0
sVdisambiguatedURL
p55
NsVnamedEntity
p56
V9
sVoffset
p57
I1
saa(lp58
(dp59
Vstart
p60
I0
sVdisambiguatedURL
p61
NsVnamedEntity
p62
V10
p63
sVoffset
p64
I2
saa(lp65
(dp66
Vstart
p67
I0
sVdisambiguatedURL
p68
NsVnamedEntity
p69
V11
p70
sVoffset
p71
I2
saa(lp72
(dp73
Vstart
p74
I0
sVdisambiguatedURL
p75
NsVnamedEntity
p76
V12
p77
sVoffset
p78
I2
saa(lp79
(dp80
Vstart
p81
I0
sVdisambiguatedURL
p82
NsVnamedEntity
p83
V13
p84
sVoffset
p85
I2
saa(lp86
(dp87
Vstart
p88
I0
sVdisambiguatedURL
p89
NsVnamedEntity
p90
V14
p91
sVoffset
p92
I2
saa(lp93
(dp94
Vstart
p95
I0
sVdisambiguatedURL
p96
Vhttp://dbpedia.org/resource/Null
p97
sVnamedEntity
p98
VNULL
p99
sVoffset
p100
I4
saa(lp101
(dp102
Vstart
p103
I0
sVdisambiguatedURL
p104
NsVnamedEntity
p105
V16
p106
sVoffset
p107
I2
saa(lp108
(dp109
Vstart
p110
I0
sVdisambiguatedURL
p111
NsVnamedEntity
p112
V17
p113
sVoffset
p114
I2
saa(lp115
(dp116
Vstart
p117
I0
sVdisambiguatedURL
p118
NsVnamedEntity
p119
V18
p120
sVoffset
p121
I2
saa(lp122
(dp123
Vstart
p124
I0
sVdisambiguatedURL
p125
NsVnamedEntity
p126
V19
p127
sVoffset
p128
I2
saa(lp129
(dp130
Vstart
p131
I0
sVdisambiguatedURL
p132
NsVnamedEntity
p133
V20
p134
sVoffset
p135
I2
saa.