(lp1
(lp2
(lp3
Vhttp://dbpedia.org/resource/Density
p4
aa(lp5
a(lp6
a(lp7
aa(lp8
(lp9
a(lp10
a(lp11
a(lp12
aa(lp13
(lp14
Vhttp://dbpedia.org/resource/Mechanical_engineering
p15
aa(lp16
Vhttp://dbpedia.org/resource/Real_versus_nominal_value_(economics)
p17
aa(lp18
Vhttp://dbpedia.org/resource/G-Unit
p19
aa(lp20
Vhttp://dbpedia.org/resource/Test_method
p21
aaa(lp22
(lp23
a(lp24
a(lp25
a(lp26
aa(lp27
(lp28
Vhttp://dbpedia.org/resource/List_of_adaptations_of_works_by_Stephen_King
p29
aa(lp30
Vhttp://dbpedia.org/resource/Real_versus_nominal_value_(economics)
p31
aa(lp32
Vhttp://dbpedia.org/resource/G-Unit
p33
aa(lp34
Vhttp://dbpedia.org/resource/Test_method
p35
aaa(lp36
(lp37
a(lp38
a(lp39
a(lp40
aa(lp41
(lp42
a(lp43
a(lp44
a(lp45
aa(lp46
(lp47
Vhttp://dbpedia.org/resource/Yield_(engineering)
p48
aa(lp49
a(lp50
a(lp51
aa(lp52
(lp53
Vhttp://dbpedia.org/resource/Television_advertisement
p54
aa(lp55
a(lp56
a(lp57
aa(lp58
(lp59
a(lp60
a(lp61
a(lp62
aa(lp63
(lp64
a(lp65
a(lp66
Vhttp://dbpedia.org/resource/Specific_activity
p67
aa(lp68
aa(lp69
(lp70
Vhttp://dbpedia.org/resource/Optics
p71
aa(lp72
Vhttp://dbpedia.org/resource/Real_versus_nominal_value_(economics)
p73
aa(lp74
Vhttp://dbpedia.org/resource/G-Unit
p75
aa(lp76
Vhttp://dbpedia.org/resource/Test_method
p77
aaa(lp78
(lp79
a(lp80
a(lp81
a(lp82
aa(lp83
(lp84
Vhttp://dbpedia.org/resource/Haze
p85
aa(lp86
a(lp87
a(lp88
Vhttp://dbpedia.org/resource/Bioplastic
p89
aaa(lp90
(lp91
a(lp92
a(lp93
a(lp94
aa(lp95
(lp96
a(lp97
a(lp98
a(lp99
aa(lp100
(lp101
a(lp102
a(lp103
a(lp104
aa(lp105
(lp106
a(lp107
a(lp108
a(lp109
aa.