(lp1
(lp2
(lp3
a(lp4
a(lp5
a(lp6
a(lp7
a(lp8
((lVhttp://dbpedia.org/resource/Null
tp9
aaa(lp10
(lp11
a(lp12
a(lp13
a(lp14
a(lp15
a(lp16
aa(lp17
(lp18
((lp19
Vhttp://www.w3.org/2002/07/owl#Thing
p20
aVhttp://dbpedia.org/class/yago/Art102743547
p21
aVhttp://dbpedia.org/class/yago/Artifact100021939
p22
aVhttp://dbpedia.org/class/yago/Creation103129123
p23
aVhttp://dbpedia.org/class/yago/Object100002684
p24
aVhttp://dbpedia.org/class/yago/Whole100003553
p25
aVhttp://dbpedia.org/class/yago/PhysicalEntity100001930
p26
aVhttp://dbpedia.org/class/yago/PerformingArts
p27
aVhttp://dbpedia.org/resource/Play_(theatre)
tp28
aa(lp29
a(lp30
a(lp31
a(lp32
a(lp33
((lVhttp://dbpedia.org/resource/Null
tp34
aaa(lp35
(lp36
((lp37
Vhttp://www.w3.org/2002/07/owl#Thing
p38
aVhttp://dbpedia.org/class/yago/Art102743547
p39
aVhttp://dbpedia.org/class/yago/Artifact100021939
p40
aVhttp://dbpedia.org/class/yago/Creation103129123
p41
aVhttp://dbpedia.org/class/yago/Object100002684
p42
aVhttp://dbpedia.org/class/yago/Whole100003553
p43
aVhttp://dbpedia.org/class/yago/PhysicalEntity100001930
p44
aVhttp://dbpedia.org/class/yago/PerformingArts
p45
aVhttp://dbpedia.org/resource/Play_(theatre)
tp46
aa(lp47
a(lp48
a(lp49
a(lp50
a(lp51
aa(lp52
(lp53
((lp54
Vhttp://www.w3.org/2002/07/owl#Thing
p55
aVhttp://dbpedia.org/class/yago/Art102743547
p56
aVhttp://dbpedia.org/class/yago/Artifact100021939
p57
aVhttp://dbpedia.org/class/yago/Creation103129123
p58
aVhttp://dbpedia.org/class/yago/Object100002684
p59
aVhttp://dbpedia.org/class/yago/Whole100003553
p60
aVhttp://dbpedia.org/class/yago/PhysicalEntity100001930
p61
aVhttp://dbpedia.org/class/yago/PerformingArts
p62
aVhttp://dbpedia.org/resource/Play_(theatre)
tp63
aa(lp64
a(lp65
a(lp66
a(lp67
a(lp68
((lVhttp://dbpedia.org/resource/Null
p69
tp70
aaa.