ccollections
defaultdict
p1
(c__builtin__
dict
p2
tRp3
I3
(dp4
I1
(lp5
Vhttp://xmlns.com/foaf/0.1/nick
p6
aVhttp://dbpedia.org/ontology/wikiPageExternalLink
p7
aVhttp://xmlns.com/foaf/0.1/primaryTopic
p8
aVhttp://www.w3.org/2000/01/rdf-schema#comment
p9
aVhttp://dbpedia.org/property/nickname
p10
aVhttp://dbpedia.org/ontology/abstract
p11
aVhttp://xmlns.com/foaf/0.1/depiction
p12
aVhttp://dbpedia.org/property/name
p13
aVhttp://xmlns.com/foaf/0.1/isPrimaryTopicOf
p14
aVhttp://www.w3.org/ns/prov#wasDerivedFrom
p15
aVhttp://xmlns.com/foaf/0.1/homepage
p16
aVhttp://dbpedia.org/property/hasPhotoCollection
p17
aVhttp://www.w3.org/2000/01/rdf-schema#label
p18
aVhttp://www.w3.org/2002/07/owl#sameAs
p19
aVhttp://dbpedia.org/ontology/thumbnail
p20
asI2
(lp21
ssI5
(dp22
I1
(lp23
Vhttp://dbpedia.org/ontology/wikiPageExternalLink
p24
aVhttp://dbpedia.org/property/mapCaption
p25
aVhttp://dbpedia.org/property/imageCaption
p26
aVhttp://www.w3.org/2000/01/rdf-schema#comment
p27
aVhttp://xmlns.com/foaf/0.1/primaryTopic
p28
aVhttp://dbpedia.org/property/nearestCity
p29
aVhttp://dbpedia.org/ontology/abstract
p30
aVhttp://xmlns.com/foaf/0.1/depiction
p31
aVhttp://dbpedia.org/property/name
p32
aVhttp://dbpedia.org/ontology/sourcePosition
p33
aVhttp://dbpedia.org/ontology/wikiPageRedirects
p34
aVhttp://www.w3.org/ns/prov#wasDerivedFrom
p35
aVhttp://xmlns.com/foaf/0.1/isPrimaryTopicOf
p36
aVhttp://xmlns.com/foaf/0.1/name
p37
aVhttp://dbpedia.org/property/hasPhotoCollection
p38
aVhttp://dbpedia.org/ontology/wikiPageDisambiguates
p39
aVhttp://www.w3.org/2000/01/rdf-schema#label
p40
aVhttp://dbpedia.org/ontology/mouthPosition
p41
aVhttp://www.w3.org/2002/07/owl#sameAs
p42
aVhttp://dbpedia.org/ontology/thumbnail
p43
asI2
(lp44
ssI6
(dp45
I1
(lp46
Vhttp://dbpedia.org/property/origin
p47
aVhttp://dbpedia.org/property/placeOfDeath
p48
aVhttp://dbpedia.org/property/broadcastArea
p49
aVhttp://dbpedia.org/property/sovereigntyType
p50
aVhttp://www.w3.org/ns/prov#wasDerivedFrom
p51
aVhttp://dbpedia.org/ontology/fastestDriverCountry
p52
aVhttp://dbpedia.org/ontology/demonym
p53
aVhttp://dbpedia.org/ontology/regionServed
p54
aVhttp://dbpedia.org/ontology/nationality
p55
aVhttp://xmlns.com/foaf/0.1/isPrimaryTopicOf
p56
aVhttp://dbpedia.org/property/byCountry
p57
aVhttp://dbpedia.org/property/nat
p58
aVhttp://dbpedia.org/property/nationality
p59
aVhttp://dbpedia.org/ontology/abstract
p60
aVhttp://dbpedia.org/ontology/recordedIn
p61
aVhttp://dbpedia.org/ontology/architecturalStyle
p62
aVhttp://dbpedia.org/ontology/location
p63
aVhttp://dbpedia.org/property/imageMap
p64
aVhttp://dbpedia.org/property/officialLanguages
p65
aVhttp://dbpedia.org/property/area
p66
aVhttp://dbpedia.org/ontology/hometown
p67
aVhttp://dbpedia.org/ontology/spokenIn
p68
aVhttp://dbpedia.org/property/leaderTitle
p69
aVhttp://www.w3.org/2000/01/rdf-schema#seeAlso
p70
aVhttp://dbpedia.org/ontology/wikiPageExternalLink
p71
aVhttp://dbpedia.org/property/hostCity
p72
aVhttp://dbpedia.org/property/conventionalLongName
p73
aVhttp://dbpedia.org/ontology/foundationPlace
p74
aVhttp://dbpedia.org/ontology/poleDriverCountry
p75
aVhttp://dbpedia.org/ontology/locatedInArea
p76
aVhttp://dbpedia.org/ontology/officialLanguage
p77
aVhttp://dbpedia.org/ontology/country
p78
aVhttp://dbpedia.org/property/birthPlace
p79
aVhttp://dbpedia.org/property/country/region
p80
aVhttp://dbpedia.org/property/country
p81
aVhttp://dbpedia.org/ontology/county
p82
aVhttp://xmlns.com/foaf/0.1/primaryTopic
p83
aVhttp://dbpedia.org/ontology/campus
p84
aVhttp://dbpedia.org/ontology/firstDriverCountry
p85
aVhttp://dbpedia.org/property/states
p86
aVhttp://dbpedia.org/ontology/locationCountry
p87
aVhttp://dbpedia.org/ontology/deathPlace
p88
aVhttp://dbpedia.org/property/hasPhotoCollection
p89
aVhttp://dbpedia.org/property/headquarters
p90
aVhttp://dbpedia.org/ontology/birthPlace
p91
aVhttp://dbpedia.org/ontology/wikiPageRedirects
p92
aVhttp://dbpedia.org/property/citizenship
p93
aVhttp://dbpedia.org/property/imageCoat
p94
aVhttp://dbpedia.org/ontology/stateOfOrigin
p95
aVhttp://www.w3.org/2002/07/owl#sameAs
p96
aVhttp://dbpedia.org/property/recorded
p97
aVhttp://dbpedia.org/property/winnerOrigin
p98
aVhttp://dbpedia.org/ontology/longName
p99
aVhttp://www.w3.org/1999/02/22-rdf-syntax-ns#type
p100
aVhttp://dbpedia.org/property/locationCountry
p101
aVhttp://dbpedia.org/ontology/secondDriverCountry
p102
aVhttp://dbpedia.org/property/locationSigned
p103
aVhttp://dbpedia.org/property/namedAfter
p104
aVhttp://dbpedia.org/property/title
p105
aVhttp://dbpedia.org/property/placeOfBirth
p106
aVhttp://xmlns.com/foaf/0.1/depiction
p107
aVhttp://dbpedia.org/property/observedby
p108
aVhttp://dbpedia.org/ontology/flag
p109
aVhttp://dbpedia.org/property/commonName
p110
aVhttp://dbpedia.org/property/subdivisionName
p111
aVhttp://dbpedia.org/property/shipCountry
p112
aVhttp://dbpedia.org/property/locationCity
p113
aVhttp://dbpedia.org/property/establishedEvent
p114
aVhttp://dbpedia.org/property/stadium
p115
aVhttp://dbpedia.org/property/place
p116
aVhttp://dbpedia.org/property/footnoteA
p117
aVhttp://dbpedia.org/property/caption
p118
aVhttp://dbpedia.org/ontology/thirdDriverCountry
p119
aVhttp://www.w3.org/2002/07/owl#differentFrom
p120
aVhttp://dbpedia.org/property/upperHouse
p121
aVhttp://dbpedia.org/property/locations
p122
aVhttp://dbpedia.org/ontology/place
p123
aVhttp://dbpedia.org/property/language
p124
aVhttp://dbpedia.org/property/demonym
p125
aVhttp://dbpedia.org/ontology/wikiPageDisambiguates
p126
aVhttp://purl.org/dc/terms/subject
p127
aVhttp://dbpedia.org/ontology/populationPlace
p128
aVhttp://dbpedia.org/property/location
p129
aVhttp://dbpedia.org/property/armiger
p130
aVhttp://dbpedia.org/ontology/headquarter
p131
aVhttp://dbpedia.org/property/foundation
p132
aVhttp://www.w3.org/2000/01/rdf-schema#label
p133
aVhttp://dbpedia.org/ontology/language
p134
aVhttp://dbpedia.org/ontology/broadcastArea
p135
aVhttp://dbpedia.org/property/basinCountries
p136
aVhttp://www.w3.org/2000/01/rdf-schema#comment
p137
aVhttp://dbpedia.org/property/seat
p138
aVhttp://dbpedia.org/property/imageFlag
p139
aVhttp://dbpedia.org/property/regionServed
p140
aVhttp://xmlns.com/foaf/0.1/name
p141
aVhttp://dbpedia.org/ontology/locationCity
p142
aVhttp://dbpedia.org/property/buried
p143
aVhttp://dbpedia.org/ontology/thumbnail
p144
asI2
(lp145
Vhttp://dbpedia.org/property/origin
p146
aVhttp://dbpedia.org/ontology/country
p147
aVhttp://dbpedia.org/ontology/location
p148
aVhttp://dbpedia.org/ontology/hometown
p149
aVhttp://dbpedia.org/property/nationality
p150
aVhttp://dbpedia.org/ontology/birthPlace
p151
aVhttp://dbpedia.org/ontology/citizenship
p152
aVhttp://dbpedia.org/property/placeOfBirth
p153
aVhttp://dbpedia.org/property/deathPlace
p154
aVhttp://dbpedia.org/ontology/nationality
p155
aVhttp://dbpedia.org/property/birthPlace
p156
aVhttp://dbpedia.org/ontology/deathPlace
p157
aVhttp://dbpedia.org/property/placeOfDeath
p158
aVhttp://dbpedia.org/property/location
p159
aVhttp://dbpedia.org/property/country
p160
aVhttp://dbpedia.org/ontology/stateOfOrigin
p161
aVhttp://dbpedia.org/property/nationalOrigin
p162
aVhttp://dbpedia.org/property/citizenship
p163
assI9
(dp164
I1
(lp165
Vhttp://www.w3.org/2000/01/rdf-schema#seeAlso
p166
aVhttp://dbpedia.org/ontology/wikiPageExternalLink
p167
aVhttp://xmlns.com/foaf/0.1/primaryTopic
p168
aVhttp://purl.org/dc/terms/subject
p169
aVhttp://www.w3.org/2000/01/rdf-schema#comment
p170
aVhttp://dbpedia.org/ontology/wikiPageDisambiguates
p171
aVhttp://dbpedia.org/ontology/abstract
p172
aVhttp://dbpedia.org/ontology/wikiPageRedirects
p173
aVhttp://xmlns.com/foaf/0.1/isPrimaryTopicOf
p174
aVhttp://www.w3.org/ns/prov#wasDerivedFrom
p175
aVhttp://dbpedia.org/property/hasPhotoCollection
p176
aVhttp://www.w3.org/2000/01/rdf-schema#label
p177
aVhttp://www.w3.org/2002/07/owl#sameAs
p178
asI2
(lp179
ssI11
(dp180
I1
(lp181
Vhttp://dbpedia.org/property/origin
p182
aVhttp://dbpedia.org/property/imageCaption
p183
aVhttp://dbpedia.org/property/place
p184
aVhttp://dbpedia.org/ontology/wikiPageRedirects
p185
aVhttp://www.w3.org/ns/prov#wasDerivedFrom
p186
aVhttp://dbpedia.org/property/mapAlt
p187
aVhttp://dbpedia.org/property/map1Alt
p188
aVhttp://dbpedia.org/property/imageAlt
p189
aVhttp://dbpedia.org/property/region
p190
aVhttp://dbpedia.org/property/map
p191
aVhttp://dbpedia.org/ontology/place
p192
aVhttp://xmlns.com/foaf/0.1/isPrimaryTopicOf
p193
aVhttp://dbpedia.org/ontology/wikiPageDisambiguates
p194
aVhttp://xmlns.com/foaf/0.1/primaryTopic
p195
aVhttp://dbpedia.org/ontology/abstract
p196
aVhttp://dbpedia.org/property/location
p197
aVhttp://dbpedia.org/property/hasPhotoCollection
p198
aVhttp://www.w3.org/2000/01/rdf-schema#label
p199
aVhttp://www.w3.org/2000/01/rdf-schema#comment
p200
aVhttp://dbpedia.org/property/name
p201
aVhttp://xmlns.com/foaf/0.1/name
p202
aVhttp://www.w3.org/2002/07/owl#sameAs
p203
asI2
(lp204
ssI12
(dp205
I1
(lp206
Vhttp://dbpedia.org/property/airline
p207
aVhttp://www.w3.org/ns/prov#wasDerivedFrom
p208
aVhttp://www.w3.org/2002/07/owl#differentFrom
p209
aVhttp://dbpedia.org/property/parent
p210
aVhttp://xmlns.com/foaf/0.1/isPrimaryTopicOf
p211
aVhttp://dbpedia.org/ontology/wikiPageDisambiguates
p212
aVhttp://dbpedia.org/property/frequentFlyer
p213
aVhttp://dbpedia.org/ontology/wikiPageExternalLink
p214
aVhttp://xmlns.com/foaf/0.1/primaryTopic
p215
aVhttp://purl.org/dc/terms/subject
p216
aVhttp://dbpedia.org/ontology/subsidiary
p217
aVhttp://dbpedia.org/ontology/abstract
p218
aVhttp://dbpedia.org/property/logo
p219
aVhttp://dbpedia.org/ontology/parentCompany
p220
aVhttp://dbpedia.org/property/hasPhotoCollection
p221
aVhttp://www.w3.org/2000/01/rdf-schema#label
p222
aVhttp://www.w3.org/2000/01/rdf-schema#comment
p223
aVhttp://dbpedia.org/property/subsidiaries
p224
aVhttp://dbpedia.org/ontology/wikiPageRedirects
p225
aVhttp://xmlns.com/foaf/0.1/name
p226
aVhttp://xmlns.com/foaf/0.1/homepage
p227
aVhttp://www.w3.org/2002/07/owl#sameAs
p228
asI2
(lp229
ssI13
(dp230
I1
(lp231
Vhttp://dbpedia.org/ontology/wikiPageExternalLink
p232
aVhttp://xmlns.com/foaf/0.1/primaryTopic
p233
aVhttp://purl.org/dc/terms/subject
p234
aVhttp://www.w3.org/2000/01/rdf-schema#comment
p235
aVhttp://dbpedia.org/ontology/wikiPageDisambiguates
p236
aVhttp://dbpedia.org/ontology/abstract
p237
aVhttp://dbpedia.org/ontology/wikiPageRedirects
p238
aVhttp://xmlns.com/foaf/0.1/isPrimaryTopicOf
p239
aVhttp://www.w3.org/ns/prov#wasDerivedFrom
p240
aVhttp://dbpedia.org/property/hasPhotoCollection
p241
aVhttp://www.w3.org/2000/01/rdf-schema#label
p242
asI2
(lp243
ssI14
(dp244
I1
(lp245
sI2
(lp246
ssI15
(dp247
I1
(lp248
sI2
(lp249
ssI16
(dp250
I1
(lp251
Vhttp://www.w3.org/2000/01/rdf-schema#seeAlso
p252
aVhttp://dbpedia.org/property/currency
p253
aVhttp://dbpedia.org/property/broadcastArea
p254
aVhttp://dbpedia.org/ontology/origin
p255
aVhttp://dbpedia.org/property/conventionalLongName
p256
aVhttp://dbpedia.org/property/place
p257
aVhttp://dbpedia.org/ontology/wikiPageRedirects
p258
aVhttp://dbpedia.org/property/city
p259
aVhttp://dbpedia.org/ontology/isPartOfMilitaryConflict
p260
aVhttp://dbpedia.org/property/placeOfDeath
p261
aVhttp://dbpedia.org/ontology/longName
p262
aVhttp://dbpedia.org/property/caption
p263
aVhttp://dbpedia.org/property/territory
p264
aVhttp://www.w3.org/2002/07/owl#differentFrom
p265
aVhttp://dbpedia.org/ontology/officialLanguage
p266
aVhttp://dbpedia.org/property/possessions
p267
aVhttp://dbpedia.org/ontology/regionServed
p268
aVhttp://dbpedia.org/ontology/country
p269
aVhttp://dbpedia.org/property/region
p270
aVhttp://www.w3.org/1999/02/22-rdf-syntax-ns#type
p271
aVhttp://dbpedia.org/ontology/demonym
p272
aVhttp://dbpedia.org/property/locationCountry
p273
aVhttp://dbpedia.org/property/birthPlace
p274
aVhttp://dbpedia.org/property/image
p275
aVhttp://dbpedia.org/property/headquarters
p276
aVhttp://dbpedia.org/ontology/place
p277
aVhttp://dbpedia.org/ontology/ethnicGroup
p278
aVhttp://dbpedia.org/ontology/currency
p279
aVhttp://dbpedia.org/property/country
p280
aVhttp://dbpedia.org/property/shipCountry
p281
aVhttp://dbpedia.org/property/establishedEvent
p282
aVhttp://dbpedia.org/property/placeOfBirth
p283
aVhttp://dbpedia.org/ontology/wikiPageExternalLink
p284
aVhttp://purl.org/dc/terms/subject
p285
aVhttp://dbpedia.org/property/origin
p286
aVhttp://dbpedia.org/ontology/abstract
p287
aVhttp://dbpedia.org/ontology/spokenIn
p288
aVhttp://dbpedia.org/property/deathPlace
p289
aVhttp://dbpedia.org/property/location
p290
aVhttp://dbpedia.org/ontology/builder
p291
aVhttp://dbpedia.org/ontology/ideology
p292
aVhttp://dbpedia.org/ontology/headquarter
p293
aVhttp://dbpedia.org/property/headquarter
p294
aVhttp://dbpedia.org/property/foundingLocation
p295
aVhttp://dbpedia.org/property/usedBy
p296
aVhttp://dbpedia.org/property/shipNamesake
p297
aVhttp://dbpedia.org/property/controlledby
p298
aVhttp://dbpedia.org/ontology/language
p299
aVhttp://dbpedia.org/ontology/location
p300
aVhttp://dbpedia.org/property/locale
p301
aVhttp://dbpedia.org/property/imageMap
p302
aVhttp://dbpedia.org/property/shipBuilder
p303
aVhttp://dbpedia.org/property/officialLanguages
p304
aVhttp://www.w3.org/2000/01/rdf-schema#comment
p305
aVhttp://dbpedia.org/ontology/birthPlace
p306
aVhttp://dbpedia.org/property/address
p307
aVhttp://dbpedia.org/ontology/locationCountry
p308
aVhttp://dbpedia.org/property/remit
p309
aVhttp://dbpedia.org/ontology/hometown
p310
aVhttp://dbpedia.org/property/demonym
p311
aVhttp://dbpedia.org/property/areaServed
p312
aVhttp://dbpedia.org/property/imageCoat
p313
aVhttp://dbpedia.org/property/regionServed
p314
aVhttp://dbpedia.org/property/builders
p315
aVhttp://dbpedia.org/property/stadium
p316
aVhttp://dbpedia.org/ontology/deathPlace
p317
asI2
(lp318
ssI17
(dp319
I1
(lp320
Vhttp://dbpedia.org/property/website
p321
aVhttp://dbpedia.org/ontology/wikiPageRedirects
p322
aVhttp://www.w3.org/ns/prov#wasDerivedFrom
p323
aVhttp://www.w3.org/2000/01/rdf-schema#label
p324
aVhttp://xmlns.com/foaf/0.1/isPrimaryTopicOf
p325
aVhttp://dbpedia.org/property/centre
p326
aVhttp://dbpedia.org/property/mouthLocation
p327
aVhttp://dbpedia.org/ontology/wikiPageDisambiguates
p328
aVhttp://dbpedia.org/property/officialName
p329
aVhttp://dbpedia.org/ontology/wikiPageExternalLink
p330
aVhttp://xmlns.com/foaf/0.1/primaryTopic
p331
aVhttp://dbpedia.org/property/imageSkyline
p332
aVhttp://dbpedia.org/ontology/abstract
p333
aVhttp://xmlns.com/foaf/0.1/depiction
p334
aVhttp://dbpedia.org/ontology/mouthMountain
p335
aVhttp://dbpedia.org/ontology/thumbnail
p336
aVhttp://dbpedia.org/property/west
p337
aVhttp://dbpedia.org/property/hasPhotoCollection
p338
aVhttp://dbpedia.org/ontology/mouthPlace
p339
aVhttp://dbpedia.org/property/east
p340
aVhttp://www.w3.org/2000/01/rdf-schema#comment
p341
aVhttp://dbpedia.org/property/name
p342
aVhttp://xmlns.com/foaf/0.1/name
p343
aVhttp://xmlns.com/foaf/0.1/homepage
p344
aVhttp://www.w3.org/2002/07/owl#sameAs
p345
asI2
(lp346
ss.