(lp1
(lp2
(lp3
a(lp4
((lp5
Vhttp://dbpedia.org/class/yago/Location100027167
p6
aVhttp://dbpedia.org/class/yago/Object100002684
p7
aVhttp://dbpedia.org/class/yago/Park108615149
p8
aVhttp://dbpedia.org/class/yago/Region108630985
p9
aVhttp://dbpedia.org/class/yago/Site108651247
p10
aVhttp://dbpedia.org/class/yago/Tract108673395
p11
aVhttp://dbpedia.org/class/yago/YagoGeoEntity
p12
aVhttp://dbpedia.org/class/yago/YagoLegalActorGeo
p13
aVhttp://www.w3.org/2003/01/geo/wgs84_pos#SpatialThing
p14
aVhttp://dbpedia.org/class/yago/YagoPermanentlyLocatedEntity
p15
aVhttp://dbpedia.org/class/yago/ParksInMelbourne
p16
aVhttp://dbpedia.org/class/yago/GeographicalArea108574314
p17
aVhttp://dbpedia.org/class/yago/HeritageSitesInMelbourne
p18
aVhttp://dbpedia.org/class/yago/PhysicalEntity100001930
p19
aVhttp://dbpedia.org/resource/Flagstaff_Gardens
tp20
aa(lp21
a(lp22
a(lp23
a(lp24
a(lp25
a(lp26
a(lp27
a(lp28
a(lp29
a(lp30
((lp31
Vhttp://www.w3.org/2002/07/owl#Thing
p32
aVhttp://dbpedia.org/ontology/Place
p33
aVhttp://dbpedia.org/ontology/Location
p34
aVhttp://www.wikidata.org/entity/Q486972
p35
aVhttp://dbpedia.org/ontology/PopulatedPlace
p36
aVhttp://www.w3.org/2003/01/geo/wgs84_pos#SpatialThing
p37
aVhttp://schema.org/Place
p38
aVhttp://dbpedia.org/resource/Frampton_Court
p39
tp40
aa(lp41
a(lp42
a(lp43
a(lp44
a(lp45
a(lp46
a(lp47
aa.