(lp1
(lp2
(lp3
a(lp4
((lVhttp://dbpedia.org/resource/Chinese
tp5
aa(lp6
a(lp7
a(lp8
aa(lp9
(lp10
a(lp11
((lp12
Vhttp://www.w3.org/2002/07/owl#Thing
p13
aVhttp://dbpedia.org/ontology/Place
p14
aVhttp://dbpedia.org/ontology/Location
p15
aVhttp://www.wikidata.org/entity/Q3957
p16
aVhttp://www.wikidata.org/entity/Q486972
p17
aVhttp://dbpedia.org/ontology/PopulatedPlace
p18
aVhttp://dbpedia.org/ontology/Settlement
p19
aVhttp://dbpedia.org/ontology/Town
p20
aVhttp://www.w3.org/2003/01/geo/wgs84_pos#SpatialThing
p21
aVhttp://schema.org/Place
p22
aVhttp://umbel.org/umbel/rc/Town
p23
aVhttp://dbpedia.org/class/yago/AdministrativeDistrict108491826
p24
aVhttp://dbpedia.org/class/yago/Area108497294
p25
aVhttp://dbpedia.org/class/yago/Center108523483
p26
aVhttp://dbpedia.org/class/yago/District108552138
p27
aVhttp://dbpedia.org/class/yago/Location100027167
p28
aVhttp://dbpedia.org/class/yago/Object100002684
p29
aVhttp://dbpedia.org/class/yago/Region108630985
p30
aVhttp://dbpedia.org/class/yago/Seat108647945
p31
aVhttp://dbpedia.org/class/yago/Site108651247
p32
aVhttp://dbpedia.org/class/yago/Town108665504
p33
aVhttp://dbpedia.org/class/yago/Tract108673395
p34
aVhttp://dbpedia.org/class/yago/UrbanArea108675967
p35
aVhttp://dbpedia.org/class/yago/YagoGeoEntity
p36
aVhttp://dbpedia.org/class/yago/YagoLegalActorGeo
p37
aVhttp://dbpedia.org/class/yago/CountySeat108547143
p38
aVhttp://dbpedia.org/class/yago/CountySeatsInIndiana
p39
aVhttp://dbpedia.org/class/yago/GeographicalArea108574314
p40
aVhttp://dbpedia.org/class/yago/Municipality108626283
p41
aVhttp://dbpedia.org/class/yago/PhysicalEntity100001930
p42
aVhttp://dbpedia.org/class/yago/YagoPermanentlyLocatedEntity
p43
aVhttp://dbpedia.org/class/yago/PopulatedPlacesInCrawfordCounty,Indiana
p44
aVhttp://dbpedia.org/class/yago/TownsInIndiana
p45
aVhttp://dbpedia.org/resource/English,_Indiana
tp46
aa(lp47
a(lp48
a(lp49
aa(lp50
(lp51
a(lp52
((lp53
Vhttp://www.w3.org/2002/07/owl#Thing
p54
aVhttp://dbpedia.org/ontology/Place
p55
aVhttp://dbpedia.org/ontology/Location
p56
aVhttp://www.wikidata.org/entity/Q3957
p57
aVhttp://www.wikidata.org/entity/Q486972
p58
aVhttp://dbpedia.org/ontology/PopulatedPlace
p59
aVhttp://dbpedia.org/ontology/Settlement
p60
aVhttp://dbpedia.org/ontology/Town
p61
aVhttp://www.w3.org/2003/01/geo/wgs84_pos#SpatialThing
p62
aVhttp://schema.org/Place
p63
aVhttp://umbel.org/umbel/rc/Town
p64
aVhttp://dbpedia.org/class/yago/AdministrativeDistrict108491826
p65
aVhttp://dbpedia.org/class/yago/Area108497294
p66
aVhttp://dbpedia.org/class/yago/Center108523483
p67
aVhttp://dbpedia.org/class/yago/District108552138
p68
aVhttp://dbpedia.org/class/yago/Location100027167
p69
aVhttp://dbpedia.org/class/yago/Object100002684
p70
aVhttp://dbpedia.org/class/yago/Region108630985
p71
aVhttp://dbpedia.org/class/yago/Seat108647945
p72
aVhttp://dbpedia.org/class/yago/Site108651247
p73
aVhttp://dbpedia.org/class/yago/Town108665504
p74
aVhttp://dbpedia.org/class/yago/Tract108673395
p75
aVhttp://dbpedia.org/class/yago/UrbanArea108675967
p76
aVhttp://dbpedia.org/class/yago/YagoGeoEntity
p77
aVhttp://dbpedia.org/class/yago/YagoLegalActorGeo
p78
aVhttp://dbpedia.org/class/yago/CountySeat108547143
p79
aVhttp://dbpedia.org/class/yago/CountySeatsInIndiana
p80
aVhttp://dbpedia.org/class/yago/GeographicalArea108574314
p81
aVhttp://dbpedia.org/class/yago/Municipality108626283
p82
aVhttp://dbpedia.org/class/yago/PhysicalEntity100001930
p83
aVhttp://dbpedia.org/class/yago/YagoPermanentlyLocatedEntity
p84
aVhttp://dbpedia.org/class/yago/PopulatedPlacesInCrawfordCounty,Indiana
p85
aVhttp://dbpedia.org/class/yago/TownsInIndiana
p86
aVhttp://dbpedia.org/resource/English,_Indiana
tp87
aa(lp88
a(lp89
a(lp90
aa(lp91
(lp92
a(lp93
((lp94
Vhttp://www.w3.org/2002/07/owl#Thing
p95
aVhttp://dbpedia.org/ontology/Place
p96
aVhttp://dbpedia.org/ontology/Location
p97
aVhttp://www.wikidata.org/entity/Q3957
p98
aVhttp://www.wikidata.org/entity/Q486972
p99
aVhttp://dbpedia.org/ontology/PopulatedPlace
p100
aVhttp://dbpedia.org/ontology/Settlement
p101
aVhttp://dbpedia.org/ontology/Town
p102
aVhttp://www.w3.org/2003/01/geo/wgs84_pos#SpatialThing
p103
aVhttp://schema.org/Place
p104
aVhttp://umbel.org/umbel/rc/Town
p105
aVhttp://dbpedia.org/class/yago/AdministrativeDistrict108491826
p106
aVhttp://dbpedia.org/class/yago/Area108497294
p107
aVhttp://dbpedia.org/class/yago/Center108523483
p108
aVhttp://dbpedia.org/class/yago/District108552138
p109
aVhttp://dbpedia.org/class/yago/Location100027167
p110
aVhttp://dbpedia.org/class/yago/Object100002684
p111
aVhttp://dbpedia.org/class/yago/Region108630985
p112
aVhttp://dbpedia.org/class/yago/Seat108647945
p113
aVhttp://dbpedia.org/class/yago/Site108651247
p114
aVhttp://dbpedia.org/class/yago/Town108665504
p115
aVhttp://dbpedia.org/class/yago/Tract108673395
p116
aVhttp://dbpedia.org/class/yago/UrbanArea108675967
p117
aVhttp://dbpedia.org/class/yago/YagoGeoEntity
p118
aVhttp://dbpedia.org/class/yago/YagoLegalActorGeo
p119
aVhttp://dbpedia.org/class/yago/CountySeat108547143
p120
aVhttp://dbpedia.org/class/yago/CountySeatsInIndiana
p121
aVhttp://dbpedia.org/class/yago/GeographicalArea108574314
p122
aVhttp://dbpedia.org/class/yago/Municipality108626283
p123
aVhttp://dbpedia.org/class/yago/PhysicalEntity100001930
p124
aVhttp://dbpedia.org/class/yago/YagoPermanentlyLocatedEntity
p125
aVhttp://dbpedia.org/class/yago/PopulatedPlacesInCrawfordCounty,Indiana
p126
aVhttp://dbpedia.org/class/yago/TownsInIndiana
p127
aVhttp://dbpedia.org/resource/English,_Indiana
tp128
aa(lp129
a(lp130
a(lp131
aa(lp132
(lp133
a(lp134
((lp135
Vhttp://www.w3.org/2002/07/owl#Thing
p136
aVhttp://dbpedia.org/ontology/Place
p137
aVhttp://dbpedia.org/ontology/Location
p138
aVhttp://www.wikidata.org/entity/Q3957
p139
aVhttp://www.wikidata.org/entity/Q486972
p140
aVhttp://dbpedia.org/ontology/PopulatedPlace
p141
aVhttp://dbpedia.org/ontology/Settlement
p142
aVhttp://dbpedia.org/ontology/Town
p143
aVhttp://www.w3.org/2003/01/geo/wgs84_pos#SpatialThing
p144
aVhttp://schema.org/Place
p145
aVhttp://dbpedia.org/class/yago/AdministrativeDistrict108491826
p146
aVhttp://dbpedia.org/class/yago/District108552138
p147
aVhttp://dbpedia.org/class/yago/Location100027167
p148
aVhttp://dbpedia.org/class/yago/Object100002684
p149
aVhttp://dbpedia.org/class/yago/Region108630985
p150
aVhttp://dbpedia.org/class/yago/Town108665504
p151
aVhttp://dbpedia.org/class/yago/UrbanArea108675967
p152
aVhttp://dbpedia.org/class/yago/YagoGeoEntity
p153
aVhttp://dbpedia.org/class/yago/YagoLegalActorGeo
p154
aVhttp://dbpedia.org/class/yago/GeographicalArea108574314
p155
aVhttp://dbpedia.org/class/yago/Municipality108626283
p156
aVhttp://dbpedia.org/class/yago/PhysicalEntity100001930
p157
aVhttp://dbpedia.org/class/yago/YagoPermanentlyLocatedEntity
p158
aVhttp://dbpedia.org/class/yago/MunicipalitiesInAlgomaDistrict
p159
aVhttp://dbpedia.org/class/yago/TownsInOntario
p160
aVhttp://dbpedia.org/resource/Spanish,_Ontario
tp161
aa(lp162
a(lp163
a(lp164
aa(lp165
(lp166
a(lp167
((lp168
Vhttp://www.w3.org/2002/07/owl#Thing
p169
aVhttp://dbpedia.org/ontology/Place
p170
aVhttp://dbpedia.org/ontology/Location
p171
aVhttp://www.wikidata.org/entity/Q3957
p172
aVhttp://www.wikidata.org/entity/Q486972
p173
aVhttp://dbpedia.org/ontology/PopulatedPlace
p174
aVhttp://dbpedia.org/ontology/Settlement
p175
aVhttp://dbpedia.org/ontology/Town
p176
aVhttp://www.w3.org/2003/01/geo/wgs84_pos#SpatialThing
p177
aVhttp://schema.org/Place
p178
aVhttp://dbpedia.org/class/yago/AdministrativeDistrict108491826
p179
aVhttp://dbpedia.org/class/yago/District108552138
p180
aVhttp://dbpedia.org/class/yago/Location100027167
p181
aVhttp://dbpedia.org/class/yago/Object100002684
p182
aVhttp://dbpedia.org/class/yago/Region108630985
p183
aVhttp://dbpedia.org/class/yago/Town108665504
p184
aVhttp://dbpedia.org/class/yago/UrbanArea108675967
p185
aVhttp://dbpedia.org/class/yago/YagoGeoEntity
p186
aVhttp://dbpedia.org/class/yago/YagoLegalActorGeo
p187
aVhttp://dbpedia.org/class/yago/GeographicalArea108574314
p188
aVhttp://dbpedia.org/class/yago/Municipality108626283
p189
aVhttp://dbpedia.org/class/yago/PhysicalEntity100001930
p190
aVhttp://dbpedia.org/class/yago/YagoPermanentlyLocatedEntity
p191
aVhttp://dbpedia.org/class/yago/MunicipalitiesInAlgomaDistrict
p192
aVhttp://dbpedia.org/class/yago/TownsInOntario
p193
aVhttp://dbpedia.org/resource/Spanish,_Ontario
tp194
aa(lp195
a(lp196
a(lp197
aa(lp198
(lp199
a(lp200
((lp201
Vhttp://www.w3.org/2002/07/owl#Thing
p202
aVhttp://dbpedia.org/ontology/Place
p203
aVhttp://dbpedia.org/ontology/Location
p204
aVhttp://www.wikidata.org/entity/Q3957
p205
aVhttp://www.wikidata.org/entity/Q486972
p206
aVhttp://dbpedia.org/ontology/PopulatedPlace
p207
aVhttp://dbpedia.org/ontology/Settlement
p208
aVhttp://dbpedia.org/ontology/Town
p209
aVhttp://www.w3.org/2003/01/geo/wgs84_pos#SpatialThing
p210
aVhttp://schema.org/Place
p211
aVhttp://dbpedia.org/class/yago/AdministrativeDistrict108491826
p212
aVhttp://dbpedia.org/class/yago/District108552138
p213
aVhttp://dbpedia.org/class/yago/Location100027167
p214
aVhttp://dbpedia.org/class/yago/Object100002684
p215
aVhttp://dbpedia.org/class/yago/Region108630985
p216
aVhttp://dbpedia.org/class/yago/Town108665504
p217
aVhttp://dbpedia.org/class/yago/UrbanArea108675967
p218
aVhttp://dbpedia.org/class/yago/YagoGeoEntity
p219
aVhttp://dbpedia.org/class/yago/YagoLegalActorGeo
p220
aVhttp://dbpedia.org/class/yago/GeographicalArea108574314
p221
aVhttp://dbpedia.org/class/yago/Municipality108626283
p222
aVhttp://dbpedia.org/class/yago/PhysicalEntity100001930
p223
aVhttp://dbpedia.org/class/yago/YagoPermanentlyLocatedEntity
p224
aVhttp://dbpedia.org/class/yago/MunicipalitiesInAlgomaDistrict
p225
aVhttp://dbpedia.org/class/yago/TownsInOntario
p226
aVhttp://dbpedia.org/resource/Spanish,_Ontario
p227
tp228
aa(lp229
a(lp230
a(lp231
aa.