(lp1
(lp2
(lp3
a(lp4
a(lp5
a(lp6
aa(lp7
(lp8
a(lp9
a(lp10
a(lp11
aa(lp12
(lp13
a(lp14
a(lp15
a(lp16
aa(lp17
(lp18
a(lp19
a(lp20
a(lp21
aa(lp22
(lp23
a(lp24
a(lp25
((lp26
Vhttp://dbpedia.org/class/yago/1969Novels
p27
aVhttp://dbpedia.org/class/yago/Abstraction100002137
p28
aVhttp://dbpedia.org/class/yago/AmericanEroticNovels
p29
aVhttp://dbpedia.org/class/yago/Communication100033020
p30
aVhttp://dbpedia.org/class/yago/LiteraryComposition106364329
p31
aVhttp://dbpedia.org/class/yago/Message106598915
p32
aVhttp://dbpedia.org/class/yago/Narrative107221094
p33
aVhttp://dbpedia.org/class/yago/Novel106367879
p34
aVhttp://dbpedia.org/class/yago/Writing106362953
p35
aVhttp://dbpedia.org/class/yago/PulpStories
p36
aVhttp://www.w3.org/2002/07/owl#Thing
p37
aVhttp://purl.org/ontology/bibo/Book
p38
aVhttp://www.wikidata.org/entity/Q386724
p39
aVhttp://www.wikidata.org/entity/Q571
p40
aVhttp://dbpedia.org/ontology/Book
p41
aVhttp://dbpedia.org/ontology/Work
p42
aVhttp://dbpedia.org/ontology/WrittenWork
p43
aVhttp://schema.org/Book
p44
aVhttp://schema.org/CreativeWork
p45
aVhttp://umbel.org/umbel/rc/Book_CW
p46
aVhttp://dbpedia.org/class/yago/CrossoverNovels
p47
aVhttp://dbpedia.org/class/yago/WrittenCommunication106349220
p48
aVhttp://dbpedia.org/class/yago/NovelsByPhilipJos%C3%A9Farmer
p49
aVhttp://dbpedia.org/class/yago/Fiction106367107
p50
aVhttp://dbpedia.org/resource/A_Feast_Unknown
tp51
aa(lp52
aa(lp53
(lp54
a(lp55
a(lp56
a(lp57
aa(lp58
(lp59
a(lp60
a(lp61
a(lp62
aa(lp63
(lp64
a(lp65
a(lp66
a(lp67
aa(lp68
(lp69
a(lp70
a(lp71
((lp72
Vhttp://dbpedia.org/class/yago/Abstraction100002137
p73
aVhttp://dbpedia.org/class/yago/EducationalInstitution108276342
p74
aVhttp://dbpedia.org/class/yago/Group100031264
p75
aVhttp://dbpedia.org/class/yago/Institution108053576
p76
aVhttp://dbpedia.org/class/yago/Organization108008335
p77
aVhttp://dbpedia.org/class/yago/PrivateSchool108411170
p78
aVhttp://dbpedia.org/class/yago/School108276720
p79
aVhttp://dbpedia.org/class/yago/SocialGroup107950920
p80
aVhttp://dbpedia.org/class/yago/University108286569
p81
aVhttp://dbpedia.org/class/yago/YagoLegalActorGeo
p82
aVhttp://dbpedia.org/class/yago/PrivateSchoolsInNorthDakota
p83
aVhttp://www.w3.org/2003/01/geo/wgs84_pos#SpatialThing
p84
aVhttp://dbpedia.org/class/yago/EducationalInstitutionsEstablishedIn1902
p85
aVhttp://dbpedia.org/class/yago/YagoPermanentlyLocatedEntity
p86
aVhttp://dbpedia.org/class/yago/YagoLegalActor
p87
aVhttp://dbpedia.org/class/yago/UniversitiesAndCollegesInNorthDakota
p88
aVhttp://dbpedia.org/resource/Aakers_Business_College
p89
tp90
aa(lp91
aa(lp92
(lp93
a(lp94
a(lp95
a(lp96
aa(lp97
(lp98
a(lp99
a(lp100
a(lp101
aa(lp102
(lp103
a(lp104
a(lp105
a(lp106
aa(lp107
(lp108
a(lp109
a(lp110
a(lp111
aa(lp112
(lp113
a(lp114
a(lp115
a(lp116
aa(lp117
(lp118
a(lp119
a(lp120
a(lp121
aa(lp122
(lp123
a(lp124
a(lp125
a(lp126
aa(lp127
(lp128
a(lp129
a(lp130
a(lp131
aa(lp132
(lp133
a(lp134
a(lp135
a(lp136
aa(lp137
(lp138
a(lp139
a(lp140
a(lp141
aa.