(lp1
(lp2
(lp3
((lp4
Vhttp://www.w3.org/2003/01/geo/wgs84_pos#SpatialThing
p5
aVhttp://umbel.org/umbel/rc/RadioStation_Organization
p6
aVhttp://dbpedia.org/class/yago/Artifact100021939
p7
aVhttp://dbpedia.org/class/yago/BroadcastingStation102903405
p8
aVhttp://dbpedia.org/class/yago/Facility103315023
p9
aVhttp://dbpedia.org/class/yago/Object100002684
p10
aVhttp://dbpedia.org/class/yago/RadioStation104044119
p11
aVhttp://dbpedia.org/class/yago/Station104306080
p12
aVhttp://dbpedia.org/class/yago/Whole100003553
p13
aVhttp://dbpedia.org/class/yago/YagoGeoEntity
p14
aVhttp://dbpedia.org/class/yago/PhysicalEntity100001930
p15
aVhttp://dbpedia.org/class/yago/YagoPermanentlyLocatedEntity
p16
aVhttp://dbpedia.org/class/yago/RadioStationsInColorado
p17
aVhttp://dbpedia.org/resource/KSBP-LP
tp18
aa(lp19
a(lp20
a(lp21
aa(lp22
(lp23
a(lp24
a(lp25
a(lp26
aa(lp27
(lp28
a(lp29
a(lp30
a(lp31
aa(lp32
(lp33
a(lp34
a(lp35
a(lp36
aa(lp37
(lp38
a(lp39
a(lp40
a(lp41
aa(lp42
(lp43
((lp44
Vhttp://www.w3.org/2002/07/owl#Thing
p45
aVhttp://www.ontologydesignpatterns.org/ont/dul/DUL.owl#Agent
p46
aVhttp://www.ontologydesignpatterns.org/ont/dul/DUL.owl#SocialPerson
p47
aVhttp://www.wikidata.org/entity/Q15265344
p48
aVhttp://www.wikidata.org/entity/Q43229
p49
aVhttp://dbpedia.org/ontology/Agent
p50
aVhttp://dbpedia.org/ontology/Broadcaster
p51
aVhttp://dbpedia.org/ontology/Organisation
p52
aVhttp://dbpedia.org/ontology/RadioStation
p53
aVhttp://schema.org/Organization
p54
aVhttp://schema.org/RadioStation
p55
aVhttp://dbpedia.org/resource/Rhode_Island_Public_Radio
tp56
aa(lp57
a(lp58
a(lp59
aa(lp60
(lp61
((lp62
Vhttp://www.w3.org/2002/07/owl#Thing
p63
aVhttp://www.ontologydesignpatterns.org/ont/dul/DUL.owl#Agent
p64
aVhttp://www.ontologydesignpatterns.org/ont/dul/DUL.owl#SocialPerson
p65
aVhttp://www.wikidata.org/entity/Q327333
p66
aVhttp://www.wikidata.org/entity/Q43229
p67
aVhttp://dbpedia.org/ontology/Agent
p68
aVhttp://dbpedia.org/ontology/GovernmentAgency
p69
aVhttp://dbpedia.org/ontology/Organisation
p70
aVhttp://schema.org/Organization
p71
aVhttp://dbpedia.org/class/yago/Abstraction100002137
p72
aVhttp://dbpedia.org/class/yago/AdministrativeUnit108077292
p73
aVhttp://dbpedia.org/class/yago/Agency108337324
p74
aVhttp://dbpedia.org/class/yago/Group100031264
p75
aVhttp://dbpedia.org/class/yago/Organization108008335
p76
aVhttp://dbpedia.org/class/yago/SocialGroup107950920
p77
aVhttp://dbpedia.org/class/yago/Unit108189659
p78
aVhttp://dbpedia.org/class/yago/YagoLegalActorGeo
p79
aVhttp://dbpedia.org/class/yago/YagoPermanentlyLocatedEntity
p80
aVhttp://dbpedia.org/class/yago/NationalCartographicAgencies
p81
aVhttp://dbpedia.org/class/yago/YagoLegalActor
p82
aVhttp://dbpedia.org/resource/Ordnance_Survey_Ireland
tp83
aa(lp84
a(lp85
a(lp86
aa(lp87
(lp88
((lp89
Vhttp://www.w3.org/2002/07/owl#Thing
p90
aVhttp://www.ontologydesignpatterns.org/ont/dul/DUL.owl#Agent
p91
aVhttp://www.ontologydesignpatterns.org/ont/dul/DUL.owl#SocialPerson
p92
aVhttp://www.wikidata.org/entity/Q15265344
p93
aVhttp://www.wikidata.org/entity/Q43229
p94
aVhttp://dbpedia.org/ontology/Agent
p95
aVhttp://dbpedia.org/ontology/Broadcaster
p96
aVhttp://dbpedia.org/ontology/Organisation
p97
aVhttp://dbpedia.org/ontology/RadioStation
p98
aVhttp://www.w3.org/2003/01/geo/wgs84_pos#SpatialThing
p99
aVhttp://schema.org/Organization
p100
aVhttp://schema.org/RadioStation
p101
aVhttp://umbel.org/umbel/rc/Organization
p102
aVhttp://umbel.org/umbel/rc/RadioStation_Organization
p103
aVhttp://dbpedia.org/class/yago/Artifact100021939
p104
aVhttp://dbpedia.org/class/yago/BroadcastingStation102903405
p105
aVhttp://dbpedia.org/class/yago/Facility103315023
p106
aVhttp://dbpedia.org/class/yago/Object100002684
p107
aVhttp://dbpedia.org/class/yago/RadioStation104044119
p108
aVhttp://dbpedia.org/class/yago/Station104306080
p109
aVhttp://dbpedia.org/class/yago/Whole100003553
p110
aVhttp://dbpedia.org/class/yago/YagoGeoEntity
p111
aVhttp://dbpedia.org/class/yago/CumulusMediaRadioStations
p112
aVhttp://dbpedia.org/class/yago/PhysicalEntity100001930
p113
aVhttp://dbpedia.org/class/yago/YagoPermanentlyLocatedEntity
p114
aVhttp://dbpedia.org/class/yago/RadioStationsEstablishedIn1925
p115
aVhttp://dbpedia.org/class/yago/RadioStationsInTheSanFranciscoBayArea
p116
aVhttp://dbpedia.org/resource/KSFO
p117
tp118
aa(lp119
a(lp120
a(lp121
aa.