(lp1
(lp2
(dp3
Vstart
p4
I0
sVdisambiguatedURL
p5
Vhttp://dbpedia.org/resource/KSBP-LP
p6
sVnamedEntity
p7
VKSBP
p8
sVoffset
p9
I4
saa(lp10
(dp11
Vstart
p12
I0
sVdisambiguatedURL
p13
NsVnamedEntity
p14
VFRAMS
p15
sVoffset
p16
I5
saa(lp17
(dp18
Vstart
p19
I0
sVdisambiguatedURL
p20
NsVnamedEntity
p21
VCALIS
p22
sVoffset
p23
I5
saa(lp24
(dp25
Vstart
p26
I0
sVdisambiguatedURL
p27
NsVnamedEntity
p28
VBLANC
p29
sVoffset
p30
I5
saa(lp31
(dp32
Vstart
p33
I0
sVdisambiguatedURL
p34
NsVnamedEntity
p35
VWONGO
p36
sVoffset
p37
I5
saa(lp38
(dp39
Vstart
p40
I0
sVdisambiguatedURL
p41
Vhttp://dbpedia.org/resource/Rhode_Island_Public_Radio
p42
sVnamedEntity
p43
VBSR
p44
sVoffset
p45
I3
saa(lp46
(dp47
Vstart
p48
I0
sVdisambiguatedURL
p49
Vhttp://dbpedia.org/resource/Ordnance_Survey_Ireland
p50
sVnamedEntity
p51
VOSI
p52
sVoffset
p53
I3
saa(lp54
(dp55
Vstart
p56
I0
sVdisambiguatedURL
p57
Vhttp://dbpedia.org/resource/KSFO
p58
sVnamedEntity
p59
VKSFO
p60
sVoffset
p61
I4
saa.