(lp1
(lp2
(lp3
Vhttp://dbpedia.org/resource/KSBP-LP
p4
aa(lp5
a(lp6
a(lp7
aa(lp8
(lp9
a(lp10
a(lp11
a(lp12
aa(lp13
(lp14
a(lp15
a(lp16
a(lp17
aa(lp18
(lp19
a(lp20
a(lp21
a(lp22
aa(lp23
(lp24
a(lp25
a(lp26
a(lp27
aa(lp28
(lp29
Vhttp://dbpedia.org/resource/Rhode_Island_Public_Radio
p30
aa(lp31
a(lp32
a(lp33
aa(lp34
(lp35
Vhttp://dbpedia.org/resource/Ordnance_Survey_Ireland
p36
aa(lp37
a(lp38
a(lp39
aa(lp40
(lp41
Vhttp://dbpedia.org/resource/KSFO
p42
aa(lp43
a(lp44
a(lp45
aa.