(lp1
(lp2
(lp3
a(lp4
a(lp5
Vhttp://dbpedia.org/resource/Spain
p6
aaa(lp7
(lp8
a(lp9
a(lp10
Vhttp://dbpedia.org/resource/Italy
p11
aaa(lp12
(lp13
a(lp14
a(lp15
Vhttp://dbpedia.org/resource/Germany
p16
aaa(lp17
(lp18
a(lp19
a(lp20
Vhttp://dbpedia.org/resource/England
p21
aaa(lp22
(lp23
a(lp24
a(lp25
aa.