(lp1
(dp2
I0
(dp3
I0
(lp4
sI1
(lp5
sI2
(lp6
Vhttp://dbpedia.org/property/origin
p7
aVhttp://dbpedia.org/property/placeOfDeath
p8
aVhttp://dbpedia.org/property/broadcastArea
p9
aVhttp://dbpedia.org/ontology/PopulatedPlace/areaTotal
p10
aVhttp://dbpedia.org/property/rd1t7Loc
p11
aVhttp://dbpedia.org/property/assembly
p12
aVhttp://dbpedia.org/ontology/nationality
p13
aVhttp://dbpedia.org/property/placeOfBirth
p14
aVhttp://dbpedia.org/property/siteCityst
p15
aVhttp://dbpedia.org/property/primaryUser
p16
aVhttp://dbpedia.org/property/nationality
p17
aVhttp://dbpedia.org/ontology/abstract
p18
aVhttp://dbpedia.org/ontology/recordedIn
p19
aVhttp://dbpedia.org/property/venue
p20
aVhttp://dbpedia.org/property/usedBy
p21
aVhttp://dbpedia.org/property/nationalOrigin
p22
aVhttp://dbpedia.org/property/shipBuilder
p23
aVhttp://dbpedia.org/ontology/location
p24
aVhttp://dbpedia.org/property/countries
p25
aVhttp://dbpedia.org/property/finish
p26
aVhttp://dbpedia.org/property/factory
p27
aVhttp://dbpedia.org/ontology/hometown
p28
aVhttp://dbpedia.org/ontology/restingPlace
p29
aVhttp://dbpedia.org/property/rd4t1Loc
p30
aVhttp://www.w3.org/2000/01/rdf-schema#seeAlso
p31
aVhttp://dbpedia.org/property/school
p32
aVhttp://dbpedia.org/property/hostCity
p33
aVhttp://dbpedia.org/ontology/poleDriverCountry
p34
aVhttp://dbpedia.org/property/rd2t3Loc
p35
aVhttp://dbpedia.org/property/site
p36
aVhttp://dbpedia.org/ontology/country
p37
aVhttp://dbpedia.org/property/returns
p38
aVhttp://dbpedia.org/property/home
p39
aVhttp://dbpedia.org/property/discoverySite
p40
aVhttp://dbpedia.org/property/birthPlace
p41
aVhttp://dbpedia.org/property/country
p42
aVhttp://dbpedia.org/ontology/firstDriverCountry
p43
aVhttp://dbpedia.org/property/worldPlaceQ
p44
aVhttp://dbpedia.org/ontology/builder
p45
aVhttp://dbpedia.org/ontology/deathPlace
p46
aVhttp://dbpedia.org/property/rd2t4Loc
p47
aVhttp://dbpedia.org/ontology/territory
p48
aVhttp://dbpedia.org/property/headquarters
p49
aVhttp://dbpedia.org/ontology/birthPlace
p50
aVhttp://purl.org/voc/vrank#hasRank
p51
aVhttp://dbpedia.org/property/host
p52
aVhttp://dbpedia.org/property/asianPlace
p53
aVhttp://www.w3.org/2002/07/owl#sameAs
p54
aVhttp://dbpedia.org/property/recorded
p55
aVhttp://dbpedia.org/ontology/origin
p56
aVhttp://dbpedia.org/property/worldPlace
p57
aVhttp://dbpedia.org/property/fifaTrigramme
p58
aVhttp://dbpedia.org/property/moreUsers
p59
aVhttp://www.w3.org/1999/02/22-rdf-syntax-ns#type
p60
aVhttp://dbpedia.org/property/locationCountry
p61
aVhttp://dbpedia.org/ontology/secondDriverCountry
p62
aVhttp://dbpedia.org/ontology/ground
p63
aVhttp://dbpedia.org/property/withdraws
p64
aVhttp://dbpedia.org/property/shipCountry
p65
aVhttp://dbpedia.org/property/l
p66
aVhttp://dbpedia.org/property/rd1t8Loc
p67
aVhttp://dbpedia.org/property/gdpPppPerCapita
p68
aVhttp://dbpedia.org/ontology/city
p69
aVhttp://dbpedia.org/property/fullname
p70
aVhttp://dbpedia.org/property/subdivisionName
p71
aVhttp://dbpedia.org/property/rd1t3Loc
p72
aVhttp://dbpedia.org/property/hostcity
p73
aVhttp://dbpedia.org/property/locationCity
p74
aVhttp://dbpedia.org/property/stadium
p75
aVhttp://dbpedia.org/property/ground
p76
aVhttp://dbpedia.org/property/place
p77
aVhttp://dbpedia.org/property/debuts
p78
aVhttp://dbpedia.org/property/utcOffsetDst
p79
aVhttp://dbpedia.org/ontology/PopulatedPlace/populationDensity
p80
aVhttp://dbpedia.org/property/asianPlaceQ
p81
aVhttp://dbpedia.org/property/combatant
p82
aVhttp://dbpedia.org/ontology/place
p83
aVhttp://dbpedia.org/property/asianPlaceF
p84
aVhttp://dbpedia.org/property/manufacturer
p85
aVhttp://dbpedia.org/property/rd2t2Loc
p86
aVhttp://dbpedia.org/property/state
p87
aVhttp://dbpedia.org/property/deathPlace
p88
aVhttp://dbpedia.org/property/cityServed
p89
aVhttp://dbpedia.org/property/rd3t2Loc
p90
aVhttp://dbpedia.org/property/rd1t6Loc
p91
aVhttp://dbpedia.org/property/worldPlaceF
p92
aVhttp://dbpedia.org/ontology/language
p93
aVhttp://dbpedia.org/property/locale
p94
aVhttp://dbpedia.org/property/basinCountries
p95
aVhttp://dbpedia.org/ontology/assembly
p96
aVhttp://dbpedia.org/property/rd2t1Loc
p97
aVhttp://www.w3.org/2000/01/rdf-schema#comment
p98
aVhttp://dbpedia.org/property/location
p99
aVhttp://dbpedia.org/property/olympicPlace
p100
aVhttp://dbpedia.org/property/rd1t1Loc
p101
aVhttp://dbpedia.org/property/rd3t1Loc
p102
assI1
(dp103
I0
g5
sI1
(lp104
sI2
(lp105
ssI2
(dp106
I0
g6
sI1
g105
sI2
(lp107
ssa(dp108
I0
(dp109
I0
(lp110
sI1
(lp111
sI2
(lp112
Vhttp://dbpedia.org/property/origin
p113
aVhttp://dbpedia.org/property/placeOfDeath
p114
aVhttp://dbpedia.org/property/broadcastArea
p115
aVhttp://dbpedia.org/ontology/PopulatedPlace/areaTotal
p116
aVhttp://dbpedia.org/property/ethnicity
p117
aVhttp://www.w3.org/ns/prov#wasDerivedFrom
p118
aVhttp://dbpedia.org/ontology/fastestDriverCountry
p119
aVhttp://dbpedia.org/ontology/routeEnd
p120
aVhttp://dbpedia.org/property/publisherOther
p121
aVhttp://dbpedia.org/property/assembly
p122
aVhttp://dbpedia.org/property/placeOfBirth
p123
aVhttp://dbpedia.org/property/hometown
p124
aVhttp://dbpedia.org/property/popmax
p125
aVhttp://dbpedia.org/property/nat
p126
aVhttp://dbpedia.org/property/regionalScenes
p127
aVhttp://dbpedia.org/property/siteCityst
p128
aVhttp://dbpedia.org/property/primaryUser
p129
aVhttp://dbpedia.org/property/nationality
p130
aVhttp://dbpedia.org/ontology/abstract
p131
aVhttp://dbpedia.org/ontology/recordedIn
p132
aVhttp://dbpedia.org/property/venue
p133
aVhttp://dbpedia.org/property/usedBy
p134
aVhttp://dbpedia.org/property/beatifiedPlace
p135
aVhttp://dbpedia.org/property/nationalOrigin
p136
aVhttp://www.georss.org/georss/point
p137
aVhttp://dbpedia.org/property/shipBuilder
p138
aVhttp://dbpedia.org/ontology/location
p139
aVhttp://dbpedia.org/property/city
p140
aVhttp://dbpedia.org/property/finish
p141
aVhttp://dbpedia.org/ontology/hometown
p142
aVhttp://dbpedia.org/property/gdpPppPerCapitaRank
p143
aVhttp://dbpedia.org/property/foundingLocation
p144
aVhttp://dbpedia.org/property/builders
p145
aVhttp://dbpedia.org/property/rd4t1Loc
p146
aVhttp://dbpedia.org/property/rd2t6Loc
p147
aVhttp://dbpedia.org/property/hostCity
p148
aVhttp://dbpedia.org/property/deathDate
p149
aVhttp://dbpedia.org/property/namedFor
p150
aVhttp://dbpedia.org/property/base
p151
aVhttp://dbpedia.org/ontology/locatedInArea
p152
aVhttp://dbpedia.org/property/rd2t3Loc
p153
aVhttp://dbpedia.org/property/site
p154
aVhttp://dbpedia.org/ontology/country
p155
aVhttp://dbpedia.org/property/region
p156
aVhttp://dbpedia.org/property/home
p157
aVhttp://dbpedia.org/property/championshipPlace
p158
aVhttp://dbpedia.org/property/discoverySite
p159
aVhttp://dbpedia.org/property/birthPlace
p160
aVhttp://dbpedia.org/property/rd1t7Loc
p161
aVhttp://dbpedia.org/property/stateParty
p162
aVhttp://dbpedia.org/property/country
p163
aVhttp://dbpedia.org/property/color
p164
aVhttp://dbpedia.org/property/burialPlace
p165
aVhttp://dbpedia.org/ontology/firstDriverCountry
p166
aVhttp://dbpedia.org/property/worldPlaceQ
p167
aVhttp://dbpedia.org/property/states
p168
aVhttp://dbpedia.org/ontology/builder
p169
aVhttp://dbpedia.org/ontology/deathPlace
p170
aVhttp://dbpedia.org/property/rd2t4Loc
p171
aVhttp://dbpedia.org/property/hasPhotoCollection
p172
aVhttp://dbpedia.org/property/headquarters
p173
aVhttp://dbpedia.org/ontology/birthPlace
p174
aVhttp://dbpedia.org/ontology/wikiPageRedirects
p175
aVhttp://purl.org/voc/vrank#hasRank
p176
aVhttp://dbpedia.org/property/citizenship
p177
aVhttp://dbpedia.org/property/deathPlace
p178
aVhttp://dbpedia.org/property/garrison
p179
aVhttp://www.w3.org/2002/07/owl#sameAs
p180
aVhttp://dbpedia.org/ontology/secondDriverCountry
p181
aVhttp://dbpedia.org/property/recorded
p182
aVhttp://dbpedia.org/ontology/origin
p183
aVhttp://dbpedia.org/property/populationDensityRank
p184
aVhttp://dbpedia.org/property/worldPlace
p185
aVhttp://dbpedia.org/property/residence
p186
aVhttp://dbpedia.org/property/populationEstimateRank
p187
aVhttp://www.w3.org/1999/02/22-rdf-syntax-ns#type
p188
aVhttp://dbpedia.org/property/rd3t3Loc
p189
aVhttp://dbpedia.org/property/manufacturedBy
p190
aVhttp://dbpedia.org/property/locationCountry
p191
aVhttp://dbpedia.org/property/titles
p192
aVhttp://dbpedia.org/property/rd1t2Loc
p193
aVhttp://dbpedia.org/ontology/ground
p194
aVhttp://dbpedia.org/property/withdraws
p195
aVhttp://dbpedia.org/property/returns
p196
aVhttp://dbpedia.org/property/prevSeries
p197
aVhttp://dbpedia.org/property/countries
p198
aVhttp://dbpedia.org/property/gdpNominal
p199
aVhttp://dbpedia.org/property/gdpNominalPerCapita
p200
aVhttp://dbpedia.org/property/gdpPppPerCapita
p201
aVhttp://dbpedia.org/ontology/thumbnail
p202
aVhttp://dbpedia.org/property/subdivisionName
p203
aVhttp://dbpedia.org/property/shipCountry
p204
aVhttp://dbpedia.org/property/canonizedPlace
p205
aVhttp://dbpedia.org/property/countriesAffected
p206
aVhttp://dbpedia.org/ontology/poleDriverCountry
p207
aVhttp://dbpedia.org/property/rd5t1Loc
p208
aVhttp://dbpedia.org/property/stadium
p209
aVhttp://dbpedia.org/property/terminusA
p210
aVhttp://dbpedia.org/property/ground
p211
aVhttp://dbpedia.org/property/place
p212
aVhttp://dbpedia.org/property/debuts
p213
aVhttp://dbpedia.org/property/caption
p214
aVhttp://dbpedia.org/ontology/thirdDriverCountry
p215
aVhttp://dbpedia.org/ontology/PopulatedPlace/populationDensity
p216
aVhttp://dbpedia.org/property/team
p217
aVhttp://dbpedia.org/property/asianPlaceQ
p218
aVhttp://dbpedia.org/ontology/place
p219
aVhttp://dbpedia.org/property/asianPlaceF
p220
aVhttp://dbpedia.org/property/rd2t2Loc
p221
aVhttp://dbpedia.org/property/location
p222
aVhttp://dbpedia.org/property/cityServed
p223
aVhttp://dbpedia.org/property/rd3t2Loc
p224
aVhttp://dbpedia.org/ontology/headquarter
p225
aVhttp://dbpedia.org/property/worldPlaceF
p226
aVhttp://dbpedia.org/ontology/language
p227
aVhttp://dbpedia.org/ontology/broadcastArea
p228
aVhttp://dbpedia.org/property/locale
p229
aVhttp://dbpedia.org/property/basinCountries
p230
aVhttp://dbpedia.org/property/asianPlace
p231
aVhttp://dbpedia.org/ontology/assembly
p232
aVhttp://dbpedia.org/property/rd2t1Loc
p233
aVhttp://www.w3.org/2000/01/rdf-schema#comment
p234
aVhttp://dbpedia.org/property/olympicPlace
p235
aVhttp://dbpedia.org/property/rd3t1Loc
p236
aVhttp://dbpedia.org/property/network
p237
aVhttp://dbpedia.org/property/populationCensusRank
p238
aVhttp://dbpedia.org/property/regionServed
p239
assI1
(dp240
I0
g111
sI1
(lp241
sI2
(lp242
ssI2
(dp243
I0
g112
sI1
g242
sI2
(lp244
ssa(dp245
I0
(dp246
I0
(lp247
sI1
(lp248
sI2
(lp249
Vhttp://dbpedia.org/property/origin
p250
aVhttp://dbpedia.org/property/placeOfDeath
p251
aVhttp://dbpedia.org/property/city
p252
aVhttp://dbpedia.org/ontology/garrison
p253
aVhttp://www.w3.org/ns/prov#wasDerivedFrom
p254
aVhttp://dbpedia.org/ontology/fastestDriverCountry
p255
aVhttp://dbpedia.org/property/assembly
p256
aVhttp://dbpedia.org/property/shortDescription
p257
aVhttp://dbpedia.org/property/placeOfBirth
p258
aVhttp://dbpedia.org/property/nat
p259
aVhttp://dbpedia.org/property/primaryUser
p260
aVhttp://dbpedia.org/property/nationality
p261
aVhttp://dbpedia.org/ontology/abstract
p262
aVhttp://dbpedia.org/ontology/recordedIn
p263
aVhttp://dbpedia.org/property/venue
p264
aVhttp://dbpedia.org/property/usedBy
p265
aVhttp://dbpedia.org/property/shipNamesake
p266
aVhttp://dbpedia.org/property/nationalOrigin
p267
aVhttp://dbpedia.org/property/shipBuilder
p268
aVhttp://dbpedia.org/ontology/location
p269
aVhttp://dbpedia.org/ontology/PopulatedPlace/areaTotal
p270
aVhttp://dbpedia.org/property/countries
p271
aVhttp://dbpedia.org/ontology/hometown
p272
aVhttp://dbpedia.org/ontology/restingPlace
p273
aVhttp://dbpedia.org/property/leaderTitle
p274
aVhttp://dbpedia.org/property/hostCity
p275
aVhttp://dbpedia.org/property/patronage
p276
aVhttp://dbpedia.org/ontology/poleDriverCountry
p277
aVhttp://dbpedia.org/property/placeOfBurial
p278
aVhttp://dbpedia.org/property/site
p279
aVhttp://dbpedia.org/ontology/country
p280
aVhttp://dbpedia.org/property/home
p281
aVhttp://dbpedia.org/property/countryOrigin
p282
aVhttp://dbpedia.org/property/birthPlace
p283
aVhttp://dbpedia.org/property/country
p284
aVhttp://dbpedia.org/ontology/firstDriverCountry
p285
aVhttp://dbpedia.org/property/location
p286
aVhttp://dbpedia.org/ontology/locationCountry
p287
aVhttp://dbpedia.org/ontology/deathPlace
p288
aVhttp://dbpedia.org/property/rd2t4Loc
p289
aVhttp://dbpedia.org/property/headquarters
p290
aVhttp://dbpedia.org/property/dateOfDeath
p291
aVhttp://dbpedia.org/ontology/birthPlace
p292
aVhttp://dbpedia.org/ontology/wikiPageRedirects
p293
aVhttp://purl.org/voc/vrank#hasRank
p294
aVhttp://dbpedia.org/property/citizenship
p295
aVhttp://dbpedia.org/property/host
p296
aVhttp://dbpedia.org/property/garrison
p297
aVhttp://www.w3.org/2002/07/owl#sameAs
p298
aVhttp://dbpedia.org/ontology/homeStadium
p299
aVhttp://dbpedia.org/property/recorded
p300
aVhttp://dbpedia.org/ontology/origin
p301
aVhttp://dbpedia.org/property/worldPlace
p302
aVhttp://dbpedia.org/property/residence
p303
aVhttp://dbpedia.org/property/moreUsers
p304
aVhttp://www.w3.org/1999/02/22-rdf-syntax-ns#type
p305
aVhttp://dbpedia.org/property/locationCountry
p306
aVhttp://dbpedia.org/property/referee
p307
aVhttp://dbpedia.org/ontology/ground
p308
aVhttp://dbpedia.org/property/withdraws
p309
aVhttp://dbpedia.org/property/namedAfter
p310
aVhttp://dbpedia.org/property/shipCountry
p311
aVhttp://dbpedia.org/property/co
p312
aVhttp://dbpedia.org/property/l
p313
aVhttp://dbpedia.org/ontology/countryOrigin
p314
aVhttp://dbpedia.org/property/gdpPppPerCapita
p315
aVhttp://dbpedia.org/ontology/city
p316
aVhttp://dbpedia.org/property/worldPlaceQ
p317
aVhttp://dbpedia.org/property/rd1t3Loc
p318
aVhttp://dbpedia.org/property/destination
p319
aVhttp://dbpedia.org/property/locationCity
p320
aVhttp://dbpedia.org/property/basedIn
p321
aVhttp://dbpedia.org/property/stadium
p322
aVhttp://dbpedia.org/property/place
p323
aVhttp://dbpedia.org/ontology/PopulatedPlace/populationDensity
p324
aVhttp://dbpedia.org/property/asianPlaceQ
p325
aVhttp://dbpedia.org/property/combatant
p326
aVhttp://dbpedia.org/ontology/place
p327
aVhttp://dbpedia.org/property/asianPlaceF
p328
aVhttp://dbpedia.org/property/gdpNominalPerCapita
p329
aVhttp://dbpedia.org/property/manufacturer
p330
aVhttp://dbpedia.org/property/deathPlace
p331
aVhttp://dbpedia.org/property/rd3t2Loc
p332
aVhttp://dbpedia.org/ontology/headquarter
p333
aVhttp://dbpedia.org/property/worldPlaceF
p334
aVhttp://dbpedia.org/ontology/language
p335
aVhttp://dbpedia.org/property/shipRegistry
p336
aVhttp://dbpedia.org/property/locale
p337
aVhttp://dbpedia.org/property/basinCountries
p338
aVhttp://dbpedia.org/property/asianPlace
p339
aVhttp://dbpedia.org/ontology/assembly
p340
aVhttp://dbpedia.org/property/rd2t1Loc
p341
aVhttp://www.w3.org/2000/01/rdf-schema#comment
p342
aVhttp://dbpedia.org/property/olympicPlace
p343
aVhttp://dbpedia.org/property/seat
p344
aVhttp://dbpedia.org/ontology/builder
p345
assI1
(dp346
I0
g248
sI1
(lp347
sI2
(lp348
ssI2
(dp349
I0
g249
sI1
g348
sI2
(lp350
ssa(dp351
I0
(dp352
I0
(lp353
sI1
(lp354
sI2
(lp355
Vhttp://dbpedia.org/property/origin
p356
aVhttp://dbpedia.org/property/placeOfDeath
p357
aVhttp://dbpedia.org/property/recorded
p358
aVhttp://dbpedia.org/ontology/occupation
p359
aVhttp://dbpedia.org/ontology/soundRecording
p360
aVhttp://dbpedia.org/property/assembly
p361
aVhttp://dbpedia.org/property/restingPlace
p362
aVhttp://dbpedia.org/property/place
p363
aVhttp://dbpedia.org/property/placeOfOrigin
p364
aVhttp://dbpedia.org/property/years
p365
aVhttp://dbpedia.org/property/territorialExtent
p366
aVhttp://dbpedia.org/ontology/PopulatedPlace/areaTotal
p367
aVhttp://dbpedia.org/property/residence
p368
aVhttp://dbpedia.org/ontology/garrison
p369
aVhttp://dbpedia.org/property/occupation
p370
aVhttp://dbpedia.org/property/site
p371
aVhttp://dbpedia.org/ontology/country
p372
aVhttp://dbpedia.org/property/returns
p373
aVhttp://www.w3.org/1999/02/22-rdf-syntax-ns#type
p374
aVhttp://dbpedia.org/property/rd3t3Loc
p375
aVhttp://purl.org/voc/vrank#hasRank
p376
aVhttp://www.w3.org/2002/07/owl#sameAs
p377
aVhttp://dbpedia.org/property/home
p378
aVhttp://dbpedia.org/property/locationCountry
p379
aVhttp://dbpedia.org/property/referee
p380
aVhttp://dbpedia.org/property/rd1t5Loc
p381
aVhttp://dbpedia.org/property/locations
p382
aVhttp://dbpedia.org/ontology/nationality
p383
aVhttp://dbpedia.org/property/birthPlace
p384
aVhttp://dbpedia.org/ontology/place
p385
aVhttp://dbpedia.org/property/placeOfBirth
p386
aVhttp://dbpedia.org/property/nationality
p387
aVhttp://dbpedia.org/property/country
p388
aVhttp://dbpedia.org/property/areasAffected
p389
aVhttp://dbpedia.org/property/rd3t1Loc
p390
aVhttp://dbpedia.org/property/rd2t2Loc
p391
aVhttp://dbpedia.org/property/gdpNominalPerCapita
p392
aVhttp://dbpedia.org/ontology/abstract
p393
aVhttp://dbpedia.org/ontology/recordedIn
p394
aVhttp://dbpedia.org/property/venue
p395
aVhttp://dbpedia.org/property/deathPlace
p396
aVhttp://dbpedia.org/property/location
p397
aVhttp://dbpedia.org/ontology/locationCountry
p398
aVhttp://dbpedia.org/property/rd3t2Loc
p399
aVhttp://dbpedia.org/ontology/deathPlace
p400
aVhttp://dbpedia.org/property/hometown
p401
aVhttp://dbpedia.org/ontology/assembly
p402
aVhttp://dbpedia.org/property/hasPhotoCollection
p403
aVhttp://dbpedia.org/property/debuts
p404
aVhttp://dbpedia.org/property/nationalOrigin
p405
aVhttp://dbpedia.org/ontology/broadcastArea
p406
aVhttp://dbpedia.org/property/countryOfOrigin
p407
aVhttp://dbpedia.org/property/rd1t3Loc
p408
aVhttp://www.georss.org/georss/point
p409
aVhttp://dbpedia.org/property/shipBuilder
p410
aVhttp://dbpedia.org/ontology/location
p411
aVhttp://dbpedia.org/property/city
p412
aVhttp://dbpedia.org/property/rd2t7Loc
p413
aVhttp://dbpedia.org/ontology/language
p414
aVhttp://dbpedia.org/ontology/builder
p415
aVhttp://dbpedia.org/property/area
p416
aVhttp://dbpedia.org/ontology/hometown
p417
aVhttp://dbpedia.org/property/rd2t8Loc
p418
aVhttp://dbpedia.org/property/stadium
p419
aVhttp://dbpedia.org/property/rd3t4Loc
p420
aVhttp://dbpedia.org/property/host
p421
aVhttp://dbpedia.org/property/garrison
p422
aVhttp://dbpedia.org/ontology/stateOfOrigin
p423
aVhttp://dbpedia.org/ontology/birthPlace
p424
aVhttp://dbpedia.org/property/rd4t2Loc
p425
aVhttp://dbpedia.org/property/rd4t1Loc
p426
assI1
(dp427
I0
g354
sI1
(lp428
sI2
(lp429
ssI2
(dp430
I0
g355
sI1
g429
sI2
(lp431
ssa(dp432
I0
(dp433
I0
(lp434
sI1
(lp435
sI2
(lp436
ssI1
(dp437
I1
(lp438
sI2
(lp439
ssI2
(dp440
I2
(lp441
ssa.