(lp1
(dp2
I0
(dp3
I0
(lp4
sI1
(lp5
Vhttp://dbpedia.org/property/origin
p6
aVhttp://dbpedia.org/property/place
p7
aVhttp://dbpedia.org/property/debuts
p8
aVhttp://www.w3.org/ns/prov#wasDerivedFrom
p9
aVhttp://dbpedia.org/property/caption
p10
aVhttp://dbpedia.org/property/site
p11
aVhttp://dbpedia.org/property/returns
p12
aVhttp://www.w3.org/1999/02/22-rdf-syntax-ns#type
p13
aVhttp://dbpedia.org/ontology/hometown
p14
aVhttp://dbpedia.org/ontology/PopulatedPlace/populationDensity
p15
aVhttp://dbpedia.org/property/withdraws
p16
aVhttp://dbpedia.org/property/gdpNominal
p17
aVhttp://dbpedia.org/ontology/wikiPageExternalLink
p18
aVhttp://purl.org/dc/terms/subject
p19
aVhttp://dbpedia.org/property/gdpNominalPerCapita
p20
aVhttp://dbpedia.org/ontology/abstract
p21
aVhttp://dbpedia.org/property/location
p22
aVhttp://dbpedia.org/ontology/headquarter
p23
aVhttp://dbpedia.org/property/gdpPpp
p24
aVhttp://www.georss.org/georss/point
p25
aVhttp://dbpedia.org/property/headquarters
p26
aVhttp://www.w3.org/2000/01/rdf-schema#comment
p27
aVhttp://dbpedia.org/ontology/wikiPageRedirects
p28
aVhttp://purl.org/voc/vrank#hasRank
p29
aVhttp://dbpedia.org/property/destination
p30
aVhttp://www.w3.org/2002/07/owl#sameAs
p31
aVhttp://dbpedia.org/property/date
p32
aVhttp://dbpedia.org/property/stadium
p33
asI2
(lp34
sI3
(lp35
sI4
(lp36
Vhttp://www.w3.org/1999/02/22-rdf-syntax-ns#type
p37
aVhttp://www.w3.org/2000/01/rdf-schema#comment
p38
aVhttp://dbpedia.org/ontology/abstract
p39
aVhttp://dbpedia.org/property/wordnet_type
p40
aVhttp://purl.org/voc/vrank#hasRank
p41
aVhttp://dbpedia.org/ontology/sourcePosition
p42
aVhttp://dbpedia.org/ontology/mouthPosition
p43
aVhttp://www.w3.org/2002/07/owl#sameAs
p44
assI1
(dp45
I0
g5
sI1
(lp46
sI2
(lp47
Vhttp://dbpedia.org/ontology/abstract
p48
aVhttp://www.w3.org/1999/02/22-rdf-syntax-ns#type
p49
aVhttp://www.w3.org/2000/01/rdf-schema#comment
p50
asI3
(lp51
sI4
(lp52
Vhttp://www.w3.org/1999/02/22-rdf-syntax-ns#type
p53
aVhttp://purl.org/dc/terms/subject
p54
aVhttp://dbpedia.org/property/officialLanguages
p55
aVhttp://www.w3.org/2000/01/rdf-schema#comment
p56
aVhttp://dbpedia.org/ontology/abstract
p57
aVhttp://dbpedia.org/property/states
p58
aVhttp://dbpedia.org/ontology/spokenIn
p59
aVhttp://dbpedia.org/ontology/officialLanguage
p60
aVhttp://dbpedia.org/ontology/language
p61
assI2
(dp62
I0
g34
sI1
g47
sI2
(lp63
sI3
(lp64
sI4
(lp65
Vhttp://www.w3.org/1999/02/22-rdf-syntax-ns#type
p66
assI3
(dp67
I0
g35
sI1
g51
sI2
g64
sI3
(lp68
sI4
(lp69
ssI4
(dp70
I0
g36
sI1
g52
sI2
g65
sI3
g69
sI4
(lp71
ssa(dp72
I0
(dp73
I0
(lp74
sI1
(lp75
Vhttp://dbpedia.org/property/origin
p76
aVhttp://dbpedia.org/property/place
p77
aVhttp://dbpedia.org/property/debuts
p78
aVhttp://dbpedia.org/ontology/PopulatedPlace/areaTotal
p79
aVhttp://dbpedia.org/property/caption
p80
aVhttp://dbpedia.org/ontology/PopulatedPlace/populationDensity
p81
aVhttp://dbpedia.org/ontology/country
p82
aVhttp://dbpedia.org/property/region
p83
aVhttp://www.w3.org/1999/02/22-rdf-syntax-ns#type
p84
aVhttp://dbpedia.org/property/withdraws
p85
aVhttp://dbpedia.org/ontology/place
p86
aVhttp://dbpedia.org/property/country
p87
aVhttp://dbpedia.org/property/placeDiscovered
p88
aVhttp://dbpedia.org/ontology/wikiPageExternalLink
p89
aVhttp://dbpedia.org/property/populationDensityRank
p90
aVhttp://dbpedia.org/ontology/abstract
p91
aVhttp://dbpedia.org/property/returns
p92
aVhttp://dbpedia.org/property/location
p93
aVhttp://dbpedia.org/property/states
p94
aVhttp://dbpedia.org/property/gdpPpp
p95
aVhttp://dbpedia.org/property/subdivisionName
p96
aVhttp://www.w3.org/2000/01/rdf-schema#comment
p97
aVhttp://dbpedia.org/ontology/wikiPageRedirects
p98
aVhttp://purl.org/voc/vrank#hasRank
p99
aVhttp://dbpedia.org/property/destination
p100
aVhttp://dbpedia.org/property/stadium
p101
aVhttp://www.w3.org/2002/07/owl#sameAs
p102
asI2
(lp103
sI3
(lp104
sI4
(lp105
ssI1
(dp106
I0
g75
sI1
(lp107
sI2
(lp108
Vhttp://dbpedia.org/property/establishedDate
p109
aVhttp://dbpedia.org/ontology/abstract
p110
aVhttp://www.w3.org/1999/02/22-rdf-syntax-ns#type
p111
asI3
(lp112
Vhttp://dbpedia.org/property/officialLanguages
p113
aVhttp://www.w3.org/2000/01/rdf-schema#comment
p114
aVhttp://dbpedia.org/ontology/abstract
p115
aVhttp://dbpedia.org/property/states
p116
aVhttp://dbpedia.org/ontology/spokenIn
p117
aVhttp://dbpedia.org/property/label
p118
aVhttp://dbpedia.org/ontology/officialLanguage
p119
aVhttp://dbpedia.org/ontology/language
p120
aVhttp://dbpedia.org/property/nation
p121
asI4
(lp122
Vhttp://dbpedia.org/property/officialLanguages
p123
aVhttp://www.w3.org/2000/01/rdf-schema#comment
p124
aVhttp://dbpedia.org/ontology/abstract
p125
aVhttp://dbpedia.org/property/states
p126
aVhttp://dbpedia.org/ontology/spokenIn
p127
aVhttp://dbpedia.org/property/label
p128
aVhttp://dbpedia.org/ontology/officialLanguage
p129
aVhttp://dbpedia.org/ontology/language
p130
aVhttp://dbpedia.org/property/nation
p131
assI2
(dp132
I0
g103
sI1
g108
sI2
(lp133
sI3
(lp134
sI4
(lp135
ssI3
(dp136
I0
g104
sI1
g112
sI2
g134
sI3
(lp137
sI4
(lp138
ssI4
(dp139
I0
g105
sI1
g122
sI2
g135
sI4
(lp140
ssa(dp141
I0
(dp142
I0
(lp143
sI1
(lp144
Vhttp://dbpedia.org/ontology/wikiPageExternalLink
p145
aVhttp://www.w3.org/2002/07/owl#sameAs
p146
aVhttp://www.georss.org/georss/point
p147
aVhttp://www.w3.org/2000/01/rdf-schema#comment
p148
aVhttp://dbpedia.org/property/gdpNominalPerCapita
p149
aVhttp://dbpedia.org/ontology/abstract
p150
aVhttp://dbpedia.org/property/ground
p151
aVhttp://dbpedia.org/ontology/wikiPageRedirects
p152
aVhttp://dbpedia.org/ontology/PopulatedPlace/populationDensity
p153
aVhttp://dbpedia.org/ontology/PopulatedPlace/areaTotal
p154
aVhttp://dbpedia.org/property/birthPlace
p155
aVhttp://dbpedia.org/property/destination
p156
aVhttp://dbpedia.org/property/placeOfBirth
p157
aVhttp://dbpedia.org/property/gdpNominal
p158
aVhttp://dbpedia.org/property/gdpPpp
p159
aVhttp://www.w3.org/1999/02/22-rdf-syntax-ns#type
p160
aVhttp://dbpedia.org/property/hasPhotoCollection
p161
aVhttp://purl.org/voc/vrank#hasRank
p162
aVhttp://dbpedia.org/ontology/birthPlace
p163
aVhttp://dbpedia.org/property/stadium
p164
aVhttp://dbpedia.org/ontology/thumbnail
p165
asI2
(lp166
sI3
(lp167
sI4
(lp168
ssI1
(dp169
I0
g144
sI1
(lp170
sI2
(lp171
sI3
(lp172
sI4
(lp173
ssI2
(dp174
I0
g166
sI1
g171
sI2
(lp175
sI3
(lp176
sI4
(lp177
ssI3
(dp178
I0
g167
sI1
g172
sI2
g176
sI3
(lp179
sI4
(lp180
ssI4
(dp181
I0
g168
sI1
g173
sI2
g177
sI3
g180
sI4
(lp182
ssa(dp183
I0
(dp184
I0
(lp185
sI1
(lp186
Vhttp://dbpedia.org/ontology/wikiPageExternalLink
p187
aVhttp://www.georss.org/georss/point
p188
aVhttp://www.w3.org/2000/01/rdf-schema#comment
p189
aVhttp://dbpedia.org/ontology/abstract
p190
aVhttp://dbpedia.org/property/location
p191
aVhttp://dbpedia.org/property/withdraws
p192
aVhttp://dbpedia.org/property/gdpPppPerCapita
p193
aVhttp://dbpedia.org/property/destination
p194
aVhttp://dbpedia.org/ontology/PopulatedPlace/areaTotal
p195
aVhttp://www.w3.org/2002/07/owl#sameAs
p196
aVhttp://www.w3.org/ns/prov#wasDerivedFrom
p197
aVhttp://www.w3.org/1999/02/22-rdf-syntax-ns#type
p198
aVhttp://purl.org/voc/vrank#hasRank
p199
aVhttp://dbpedia.org/ontology/PopulatedPlace/populationDensity
p200
aVhttp://dbpedia.org/property/stadium
p201
asI2
(lp202
sI3
(lp203
sI4
(lp204
Vhttp://www.georss.org/georss/point
p205
aVhttp://www.w3.org/2000/01/rdf-schema#comment
p206
aVhttp://dbpedia.org/ontology/postalCode
p207
aVhttp://dbpedia.org/ontology/abstract
p208
aVhttp://dbpedia.org/ontology/PopulatedPlace/areaTotal
p209
aVhttp://www.w3.org/1999/02/22-rdf-syntax-ns#type
p210
aVhttp://www.w3.org/ns/prov#wasDerivedFrom
p211
aVhttp://purl.org/voc/vrank#hasRank
p212
aVhttp://dbpedia.org/ontology/PopulatedPlace/populationDensity
p213
aVhttp://www.w3.org/2002/07/owl#sameAs
p214
assI1
(dp215
I0
g186
sI1
(lp216
sI2
(lp217
sI3
(lp218
sI4
(lp219
Vhttp://dbpedia.org/ontology/abstract
p220
aVhttp://www.w3.org/1999/02/22-rdf-syntax-ns#type
p221
aVhttp://purl.org/dc/terms/subject
p222
aVhttp://dbpedia.org/property/officialLanguages
p223
assI2
(dp224
I0
g202
sI1
g217
sI2
(lp225
sI3
(lp226
sI4
(lp227
ssI3
(dp228
I0
g203
sI1
g218
sI2
g226
sI3
(lp229
sI4
(lp230
ssI4
(dp231
I0
g204
sI1
g219
sI2
g227
sI3
g230
sI4
(lp232
ssa(dp233
I0
(dp234
I0
(lp235
sI1
(lp236
Vhttp://dbpedia.org/ontology/wikiPageExternalLink
p237
aVhttp://dbpedia.org/property/returns
p238
aVhttp://www.georss.org/georss/point
p239
aVhttp://www.w3.org/2000/01/rdf-schema#comment
p240
aVhttp://dbpedia.org/property/gdpNominalPerCapita
p241
aVhttp://dbpedia.org/ontology/abstract
p242
aVhttp://dbpedia.org/ontology/wikiPageRedirects
p243
aVhttp://dbpedia.org/property/gdpPppPerCapita
p244
aVhttp://www.w3.org/1999/02/22-rdf-syntax-ns#type
p245
aVhttp://dbpedia.org/ontology/PopulatedPlace/areaTotal
p246
aVhttp://dbpedia.org/property/gdpPpp
p247
aVhttp://dbpedia.org/property/hasPhotoCollection
p248
aVhttp://dbpedia.org/ontology/PopulatedPlace/populationDensity
p249
aVhttp://www.w3.org/2002/07/owl#sameAs
p250
asI2
(lp251
sI3
(lp252
sI4
(lp253
ssI1
(dp254
I0
g236
sI1
(lp255
sI2
(lp256
sI3
(lp257
Vhttp://dbpedia.org/property/languages
p258
aVhttp://dbpedia.org/ontology/abstract
p259
aVhttp://www.w3.org/2000/01/rdf-schema#comment
p260
asI4
(lp261
ssI2
(dp262
I0
g251
sI1
g256
sI2
(lp263
sI3
(lp264
sI4
(lp265
ssI3
(dp266
I0
g252
sI1
g257
sI2
g264
sI3
(lp267
sI4
(lp268
ssI4
(dp269
I0
g253
sI1
g261
sI2
g265
sI3
g268
sI4
(lp270
ssa(dp271
I0
(dp272
I0
(lp273
sI1
(lp274
Vhttp://dbpedia.org/ontology/wikiPageExternalLink
p275
aVhttp://www.w3.org/1999/02/22-rdf-syntax-ns#type
p276
aVhttp://purl.org/dc/terms/subject
p277
aVhttp://www.w3.org/2000/01/rdf-schema#comment
p278
aVhttp://dbpedia.org/ontology/abstract
p279
aVhttp://dbpedia.org/ontology/wikiPageRedirects
p280
aVhttp://dbpedia.org/ontology/PopulatedPlace/areaTotal
p281
aVhttp://dbpedia.org/property/populationEstimateRank
p282
aVhttp://dbpedia.org/property/gdpPpp
p283
aVhttp://www.w3.org/ns/prov#wasDerivedFrom
p284
aVhttp://purl.org/voc/vrank#hasRank
p285
aVhttp://dbpedia.org/ontology/PopulatedPlace/populationDensity
p286
aVhttp://www.w3.org/2002/07/owl#sameAs
p287
aVhttp://dbpedia.org/property/gdpNominal
p288
asI2
(lp289
sI3
(lp290
sI4
(lp291
Vhttp://www.w3.org/1999/02/22-rdf-syntax-ns#type
p292
aVhttp://www.w3.org/2000/01/rdf-schema#comment
p293
aVhttp://dbpedia.org/ontology/abstract
p294
aVhttp://dbpedia.org/property/imageCaption
p295
aVhttp://dbpedia.org/property/wordnet_type
p296
aVhttp://www.w3.org/ns/prov#wasDerivedFrom
p297
aVhttp://www.w3.org/2002/07/owl#sameAs
p298
assI1
(dp299
I0
g274
sI1
(lp300
sI2
(lp301
sI3
(lp302
sI4
(lp303
Vhttp://www.w3.org/1999/02/22-rdf-syntax-ns#type
p304
aVhttp://purl.org/dc/terms/subject
p305
aVhttp://dbpedia.org/property/officialLanguages
p306
aVhttp://www.w3.org/2000/01/rdf-schema#comment
p307
aVhttp://dbpedia.org/ontology/abstract
p308
aVhttp://dbpedia.org/ontology/officialLanguage
p309
aVhttp://dbpedia.org/ontology/language
p310
assI2
(dp311
I0
g289
sI1
g301
sI2
(lp312
sI3
(lp313
sI4
(lp314
ssI3
(dp315
I0
g290
sI1
g302
sI2
g313
sI3
(lp316
sI4
(lp317
ssI4
(dp318
I0
g291
sI1
g303
sI2
g314
sI3
g317
sI4
(lp319
ssa(dp320
I0
(dp321
I0
(lp322
sI1
(lp323
Vhttp://dbpedia.org/ontology/wikiPageExternalLink
p324
aVhttp://dbpedia.org/ontology/country
p325
aVhttp://www.w3.org/1999/02/22-rdf-syntax-ns#type
p326
aVhttp://dbpedia.org/property/origin
p327
aVhttp://www.w3.org/2000/01/rdf-schema#comment
p328
aVhttp://www.w3.org/2002/07/owl#sameAs
p329
aVhttp://dbpedia.org/property/gdpNominalPerCapita
p330
aVhttp://dbpedia.org/ontology/abstract
p331
aVhttp://dbpedia.org/property/location
p332
aVhttp://dbpedia.org/property/deathPlace
p333
aVhttp://dbpedia.org/property/gdpPppPerCapita
p334
aVhttp://dbpedia.org/property/populationEstimateRank
p335
aVhttp://dbpedia.org/ontology/PopulatedPlace/areaTotal
p336
aVhttp://dbpedia.org/ontology/wikiPageRedirects
p337
aVhttp://dbpedia.org/property/placeOfDeath
p338
aVhttp://www.w3.org/ns/prov#wasDerivedFrom
p339
aVhttp://dbpedia.org/ontology/place
p340
aVhttp://dbpedia.org/property/areasAffected
p341
aVhttp://dbpedia.org/ontology/PopulatedPlace/populationDensity
p342
aVhttp://dbpedia.org/property/stadium
p343
aVhttp://dbpedia.org/ontology/deathPlace
p344
asI2
(lp345
sI3
(lp346
sI4
(lp347
ssI1
(dp348
I0
g323
sI1
(lp349
sI2
(lp350
sI3
(lp351
sI4
(lp352
ssI2
(dp353
I0
g345
sI1
g350
sI2
(lp354
sI3
(lp355
sI4
(lp356
ssI3
(dp357
I0
g346
sI1
g351
sI2
g355
sI3
(lp358
sI4
(lp359
ssI4
(dp360
I0
g347
sI1
g352
sI2
g356
sI3
g359
sI4
(lp361
ssa(dp362
I0
(dp363
I0
(lp364
sI1
(lp365
Vhttp://dbpedia.org/property/origin
p366
aVhttp://dbpedia.org/property/ground
p367
aVhttp://dbpedia.org/property/place
p368
aVhttp://dbpedia.org/ontology/PopulatedPlace/areaTotal
p369
aVhttp://www.w3.org/ns/prov#wasDerivedFrom
p370
aVhttp://dbpedia.org/ontology/PopulatedPlace/populationDensity
p371
aVhttp://dbpedia.org/ontology/country
p372
aVhttp://dbpedia.org/property/region
p373
aVhttp://www.w3.org/1999/02/22-rdf-syntax-ns#type
p374
aVhttp://dbpedia.org/property/birthPlace
p375
aVhttp://dbpedia.org/property/placeOfBirth
p376
aVhttp://dbpedia.org/property/country
p377
aVhttp://dbpedia.org/property/nativeName
p378
aVhttp://dbpedia.org/ontology/abstract
p379
aVhttp://dbpedia.org/property/location
p380
aVhttp://www.georss.org/georss/point
p381
aVhttp://www.w3.org/2000/01/rdf-schema#comment
p382
aVhttp://dbpedia.org/ontology/birthPlace
p383
aVhttp://purl.org/voc/vrank#hasRank
p384
aVhttp://www.w3.org/2002/07/owl#sameAs
p385
aVhttp://xmlns.com/foaf/0.1/name
p386
aVhttp://dbpedia.org/property/stadium
p387
asI2
(lp388
sI3
(lp389
sI4
(lp390
Vhttp://www.w3.org/2002/07/owl#sameAs
p391
assI1
(dp392
I0
g365
sI1
(lp393
sI2
(lp394
sI3
(lp395
sI4
(lp396
ssI2
(dp397
I0
g388
sI1
g394
sI2
(lp398
sI3
(lp399
sI4
(lp400
ssI3
(dp401
I0
g389
sI1
g395
sI2
g399
sI3
(lp402
sI4
(lp403
ssI4
(dp404
I0
g390
sI1
g396
sI2
g400
sI3
g403
sI4
(lp405
ssa(dp406
I0
(dp407
I0
(lp408
sI1
(lp409
Vhttp://dbpedia.org/ontology/wikiPageExternalLink
p410
aVhttp://dbpedia.org/ontology/country
p411
aVhttp://dbpedia.org/property/region
p412
aVhttp://www.w3.org/1999/02/22-rdf-syntax-ns#type
p413
aVhttp://dbpedia.org/property/countriesAffected
p414
aVhttp://dbpedia.org/ontology/abstract
p415
aVhttp://www.w3.org/2000/01/rdf-schema#comment
p416
aVhttp://dbpedia.org/ontology/wikiPageRedirects
p417
aVhttp://dbpedia.org/property/location
p418
aVhttp://dbpedia.org/property/withdraws
p419
aVhttp://dbpedia.org/ontology/hometown
p420
aVhttp://dbpedia.org/property/fcdebutvenue
p421
aVhttp://www.w3.org/2002/07/owl#sameAs
p422
aVhttp://dbpedia.org/property/returns
p423
aVhttp://dbpedia.org/property/debuts
p424
aVhttp://dbpedia.org/property/hostCity
p425
aVhttp://dbpedia.org/ontology/PopulatedPlace/populationDensity
p426
aVhttp://dbpedia.org/property/stadium
p427
aVhttp://dbpedia.org/property/areas
p428
asI2
(lp429
sI3
(lp430
Vhttp://www.w3.org/1999/02/22-rdf-syntax-ns#type
p431
aVhttp://www.w3.org/2000/01/rdf-schema#comment
p432
aVhttp://dbpedia.org/ontology/abstract
p433
aVhttp://dbpedia.org/ontology/wikiPageRedirects
p434
aVhttp://purl.org/voc/vrank#hasRank
p435
aVhttp://www.w3.org/ns/prov#wasDerivedFrom
p436
aVhttp://www.w3.org/2002/07/owl#sameAs
p437
asI4
(lp438
Vhttp://www.w3.org/1999/02/22-rdf-syntax-ns#type
p439
aVhttp://www.w3.org/2000/01/rdf-schema#comment
p440
aVhttp://dbpedia.org/ontology/abstract
p441
aVhttp://dbpedia.org/ontology/wikiPageRedirects
p442
aVhttp://purl.org/voc/vrank#hasRank
p443
aVhttp://www.w3.org/ns/prov#wasDerivedFrom
p444
aVhttp://www.w3.org/2002/07/owl#sameAs
p445
assI1
(dp446
I0
g409
sI1
(lp447
sI2
(lp448
sI3
(lp449
Vhttp://dbpedia.org/ontology/country
p450
aVhttp://purl.org/dc/terms/subject
p451
aVhttp://dbpedia.org/property/officialLanguages
p452
aVhttp://www.w3.org/2000/01/rdf-schema#comment
p453
aVhttp://dbpedia.org/ontology/abstract
p454
aVhttp://dbpedia.org/property/states
p455
aVhttp://dbpedia.org/ontology/spokenIn
p456
aVhttp://dbpedia.org/property/country
p457
aVhttp://dbpedia.org/ontology/demonym
p458
aVhttp://dbpedia.org/ontology/officialLanguage
p459
aVhttp://dbpedia.org/ontology/language
p460
asI4
(lp461
Vhttp://dbpedia.org/ontology/country
p462
aVhttp://purl.org/dc/terms/subject
p463
aVhttp://dbpedia.org/property/officialLanguages
p464
aVhttp://www.w3.org/2000/01/rdf-schema#comment
p465
aVhttp://dbpedia.org/ontology/abstract
p466
aVhttp://dbpedia.org/property/states
p467
aVhttp://dbpedia.org/ontology/spokenIn
p468
aVhttp://dbpedia.org/property/country
p469
aVhttp://dbpedia.org/ontology/demonym
p470
aVhttp://dbpedia.org/ontology/officialLanguage
p471
aVhttp://dbpedia.org/ontology/language
p472
assI2
(dp473
I0
g429
sI1
g448
sI2
(lp474
sI3
(lp475
sI4
(lp476
ssI3
(dp477
I0
g430
sI1
g449
sI2
g475
sI3
(lp478
sI4
(lp479
ssI4
(dp480
I0
g438
sI1
g461
sI2
g476
sI4
(lp481
ssa(dp482
I0
(dp483
I0
(lp484
sI1
(lp485
Vhttp://www.w3.org/1999/02/22-rdf-syntax-ns#type
p486
aVhttp://www.w3.org/2000/01/rdf-schema#comment
p487
aVhttp://dbpedia.org/ontology/abstract
p488
aVhttp://dbpedia.org/property/gdpPppPerCapita
p489
aVhttp://dbpedia.org/property/gdpPpp
p490
aVhttp://www.w3.org/2002/07/owl#sameAs
p491
aVhttp://dbpedia.org/property/gdpNominal
p492
asI2
(lp493
sI3
(lp494
Vhttp://www.w3.org/1999/02/22-rdf-syntax-ns#type
p495
asI4
(lp496
Vhttp://dbpedia.org/ontology/abstract
p497
aVhttp://www.w3.org/1999/02/22-rdf-syntax-ns#type
p498
aVhttp://www.w3.org/2002/07/owl#sameAs
p499
aVhttp://www.w3.org/2000/01/rdf-schema#comment
p500
assI1
(dp501
I0
g485
sI1
(lp502
sI2
(lp503
Vhttp://dbpedia.org/ontology/PopulatedPlace/areaTotal
p504
aVhttp://dbpedia.org/ontology/abstract
p505
aVhttp://www.w3.org/2000/01/rdf-schema#comment
p506
asI3
(lp507
Vhttp://dbpedia.org/property/languages
p508
aVhttp://www.w3.org/2000/01/rdf-schema#comment
p509
aVhttp://dbpedia.org/ontology/abstract
p510
aVhttp://dbpedia.org/property/states
p511
aVhttp://dbpedia.org/ontology/spokenIn
p512
aVhttp://dbpedia.org/property/popplace
p513
aVhttp://dbpedia.org/ontology/language
p514
asI4
(lp515
Vhttp://www.w3.org/1999/02/22-rdf-syntax-ns#type
p516
aVhttp://purl.org/dc/terms/subject
p517
aVhttp://dbpedia.org/property/officialLanguages
p518
aVhttp://www.w3.org/2000/01/rdf-schema#comment
p519
aVhttp://dbpedia.org/ontology/abstract
p520
aVhttp://dbpedia.org/property/states
p521
aVhttp://dbpedia.org/ontology/spokenIn
p522
aVhttp://dbpedia.org/ontology/officialLanguage
p523
aVhttp://dbpedia.org/ontology/language
p524
assI2
(dp525
I0
g493
sI1
g503
sI2
(lp526
sI3
(lp527
sI4
(lp528
ssI3
(dp529
I0
g494
sI1
g507
sI2
g527
sI3
(lp530
sI4
(lp531
ssI4
(dp532
I0
g496
sI1
g515
sI2
g528
sI3
g531
sI4
(lp533
ssa(dp534
I0
(dp535
I0
(lp536
sI1
(lp537
Vhttp://dbpedia.org/ontology/wikiPageExternalLink
p538
aVhttp://dbpedia.org/ontology/abstract
p539
aVhttp://dbpedia.org/ontology/PopulatedPlace/populationDensity
p540
asI2
(lp541
sI3
(lp542
Vhttp://dbpedia.org/ontology/abstract
p543
asI4
(lp544
Vhttp://purl.org/voc/vrank#hasRank
p545
aVhttp://dbpedia.org/ontology/abstract
p546
aVhttp://www.w3.org/1999/02/22-rdf-syntax-ns#type
p547
aVhttp://www.w3.org/2000/01/rdf-schema#comment
p548
assI1
(dp549
I0
g537
sI1
(lp550
sI2
(lp551
sI3
(lp552
sI4
(lp553
Vhttp://www.w3.org/1999/02/22-rdf-syntax-ns#type
p554
aVhttp://purl.org/dc/terms/subject
p555
aVhttp://dbpedia.org/property/officialLanguages
p556
aVhttp://www.w3.org/2000/01/rdf-schema#comment
p557
aVhttp://dbpedia.org/ontology/abstract
p558
aVhttp://dbpedia.org/ontology/officialLanguage
p559
aVhttp://dbpedia.org/ontology/language
p560
assI2
(dp561
I0
g541
sI1
g551
sI2
(lp562
sI3
(lp563
sI4
(lp564
ssI3
(dp565
I0
g542
sI1
g552
sI2
g563
sI3
(lp566
sI4
(lp567
ssI4
(dp568
I0
g544
sI1
g553
sI2
g564
sI3
g567
sI4
(lp569
ssa(dp570
I0
(dp571
I0
(lp572
sI1
(lp573
Vhttp://dbpedia.org/ontology/wikiPageExternalLink
p574
aVhttp://www.w3.org/1999/02/22-rdf-syntax-ns#type
p575
aVhttp://dbpedia.org/property/stadium
p576
asI2
(lp577
sI3
(lp578
sI4
(lp579
ssI1
(dp580
I0
g573
sI1
(lp581
sI2
(lp582
Vhttp://dbpedia.org/ontology/wikiPageExternalLink
p583
asI3
(lp584
Vhttp://dbpedia.org/ontology/abstract
p585
aVhttp://www.w3.org/2000/01/rdf-schema#comment
p586
aVhttp://dbpedia.org/property/officialLanguages
p587
aVhttp://dbpedia.org/ontology/language
p588
aVhttp://dbpedia.org/ontology/officialLanguage
p589
asI4
(lp590
ssI2
(dp591
I0
g577
sI1
g582
sI2
(lp592
sI3
(lp593
sI4
(lp594
ssI3
(dp595
I0
g578
sI1
g584
sI2
g593
sI3
(lp596
sI4
(lp597
ssI4
(dp598
I0
g579
sI1
g590
sI2
g594
sI3
g597
sI4
(lp599
ssa(dp600
I0
(dp601
I0
(lp602
sI1
(lp603
Vhttp://dbpedia.org/ontology/wikiPageExternalLink
p604
aVhttp://dbpedia.org/ontology/country
p605
aVhttp://dbpedia.org/property/returns
p606
aVhttp://www.w3.org/1999/02/22-rdf-syntax-ns#type
p607
aVhttp://dbpedia.org/ontology/abstract
p608
aVhttp://dbpedia.org/property/place
p609
aVhttp://www.w3.org/ns/prov#wasDerivedFrom
p610
aVhttp://dbpedia.org/property/stadium
p611
asI2
(lp612
sI3
(lp613
Vhttp://dbpedia.org/ontology/wikiPageExternalLink
p614
aVhttp://dbpedia.org/ontology/country
p615
aVhttp://dbpedia.org/property/returns
p616
aVhttp://www.w3.org/1999/02/22-rdf-syntax-ns#type
p617
aVhttp://dbpedia.org/ontology/abstract
p618
aVhttp://dbpedia.org/property/place
p619
aVhttp://www.w3.org/ns/prov#wasDerivedFrom
p620
aVhttp://dbpedia.org/property/stadium
p621
asI4
(lp622
ssI1
(dp623
I0
g603
sI1
(lp624
sI2
(lp625
Vhttp://dbpedia.org/ontology/abstract
p626
aVhttp://www.w3.org/2002/07/owl#sameAs
p627
asI3
(lp628
Vhttp://dbpedia.org/property/origin
p629
aVhttp://dbpedia.org/property/currency
p630
aVhttp://dbpedia.org/ontology/currency
p631
aVhttp://dbpedia.org/property/place
p632
aVhttp://dbpedia.org/ontology/demonym
p633
aVhttp://dbpedia.org/ontology/officialLanguage
p634
aVhttp://dbpedia.org/ontology/country
p635
aVhttp://dbpedia.org/property/alt
p636
aVhttp://dbpedia.org/property/birthPlace
p637
aVhttp://dbpedia.org/ontology/place
p638
aVhttp://dbpedia.org/property/placeOfBirth
p639
aVhttp://dbpedia.org/property/country
p640
aVhttp://dbpedia.org/property/establishedEvent
p641
aVhttp://dbpedia.org/ontology/populationPlace
p642
aVhttp://dbpedia.org/ontology/abstract
p643
aVhttp://dbpedia.org/ontology/usingCountry
p644
aVhttp://dbpedia.org/property/states
p645
aVhttp://dbpedia.org/ontology/language
p646
aVhttp://dbpedia.org/property/officialLanguages
p647
aVhttp://www.w3.org/2000/01/rdf-schema#comment
p648
aVhttp://dbpedia.org/ontology/birthPlace
p649
aVhttp://dbpedia.org/property/area
p650
aVhttp://dbpedia.org/ontology/hometown
p651
aVhttp://dbpedia.org/property/demonym
p652
aVhttp://dbpedia.org/ontology/spokenIn
p653
aVhttp://dbpedia.org/property/popplace
p654
asI4
(lp655
ssI2
(dp656
I0
g612
sI1
g625
sI2
(lp657
sI3
(lp658
Vhttp://dbpedia.org/ontology/abstract
p659
aVhttp://www.w3.org/2002/07/owl#sameAs
p660
asI4
(lp661
ssI3
(dp662
I0
g613
sI1
g628
sI2
g658
sI3
(lp663
sI4
(lp664
ssI4
(dp665
I0
g622
sI1
g655
sI2
g661
sI3
g664
sI4
(lp666
ssa(dp667
I0
(dp668
I0
(lp669
sI1
(lp670
Vhttp://dbpedia.org/ontology/abstract
p671
aVhttp://www.w3.org/2000/01/rdf-schema#comment
p672
aVhttp://dbpedia.org/property/debuts
p673
asI2
(lp674
sI3
(lp675
sI4
(lp676
ssI1
(dp677
I0
g670
sI1
(lp678
sI2
(lp679
sI3
(lp680
Vhttp://dbpedia.org/property/languages
p681
aVhttp://dbpedia.org/ontology/country
p682
aVhttp://dbpedia.org/ontology/officialLanguage
p683
aVhttp://dbpedia.org/property/officialLanguages
p684
aVhttp://www.w3.org/2000/01/rdf-schema#comment
p685
aVhttp://dbpedia.org/ontology/headquarter
p686
aVhttp://dbpedia.org/ontology/abstract
p687
aVhttp://dbpedia.org/ontology/wikiPageRedirects
p688
aVhttp://dbpedia.org/property/location
p689
aVhttp://dbpedia.org/property/states
p690
aVhttp://dbpedia.org/property/headquarters
p691
aVhttp://dbpedia.org/ontology/ethnicGroup
p692
aVhttp://dbpedia.org/ontology/spokenIn
p693
aVhttp://dbpedia.org/property/country
p694
aVhttp://dbpedia.org/ontology/populationPlace
p695
aVhttp://dbpedia.org/property/establishedEvent
p696
aVhttp://dbpedia.org/property/popplace
p697
aVhttp://dbpedia.org/ontology/language
p698
aVhttp://dbpedia.org/ontology/location
p699
asI4
(lp700
ssI2
(dp701
I0
g674
sI1
g679
sI2
(lp702
sI3
(lp703
sI4
(lp704
ssI3
(dp705
I0
g675
sI1
g680
sI2
g703
sI3
(lp706
sI4
(lp707
ssI4
(dp708
I0
g676
sI1
g700
sI2
g704
sI3
g707
sI4
(lp709
ssa(dp710
I0
(dp711
I0
(lp712
sI1
(lp713
Vhttp://dbpedia.org/ontology/country
p714
aVhttp://dbpedia.org/property/returns
p715
aVhttp://www.w3.org/2000/01/rdf-schema#comment
p716
aVhttp://dbpedia.org/ontology/abstract
p717
aVhttp://dbpedia.org/property/location
p718
aVhttp://www.w3.org/ns/prov#wasDerivedFrom
p719
aVhttp://www.w3.org/2002/07/owl#sameAs
p720
asI2
(lp721
sI3
(lp722
sI4
(lp723
ssI1
(dp724
I0
g713
sI1
(lp725
sI2
(lp726
sI3
(lp727
Vhttp://www.w3.org/1999/02/22-rdf-syntax-ns#type
p728
aVhttp://purl.org/dc/terms/subject
p729
aVhttp://dbpedia.org/property/officialLanguages
p730
aVhttp://www.w3.org/2000/01/rdf-schema#comment
p731
aVhttp://dbpedia.org/ontology/abstract
p732
aVhttp://dbpedia.org/ontology/spokenIn
p733
aVhttp://dbpedia.org/ontology/officialLanguage
p734
aVhttp://dbpedia.org/ontology/language
p735
aVhttp://dbpedia.org/ontology/populationPlace
p736
asI4
(lp737
ssI2
(dp738
I0
g721
sI1
g726
sI2
(lp739
sI3
(lp740
sI4
(lp741
ssI3
(dp742
I0
g722
sI1
g727
sI2
g740
sI3
(lp743
sI4
(lp744
ssI4
(dp745
I0
g723
sI1
g737
sI2
g741
sI3
g744
sI4
(lp746
ssa(dp747
I0
(dp748
I0
(lp749
sI1
(lp750
Vhttp://dbpedia.org/property/gdpNominalPerCapita
p751
aVhttp://www.w3.org/1999/02/22-rdf-syntax-ns#type
p752
aVhttp://dbpedia.org/ontology/wikiPageRedirects
p753
aVhttp://www.w3.org/2002/07/owl#sameAs
p754
asI2
(lp755
sI3
(lp756
sI4
(lp757
Vhttp://www.w3.org/1999/02/22-rdf-syntax-ns#type
p758
assI1
(dp759
I0
g750
sI1
(lp760
sI2
(lp761
sI3
(lp762
sI4
(lp763
Vhttp://dbpedia.org/ontology/country
p764
aVhttp://www.w3.org/1999/02/22-rdf-syntax-ns#type
p765
aVhttp://purl.org/dc/terms/subject
p766
aVhttp://dbpedia.org/property/officialLanguages
p767
aVhttp://dbpedia.org/property/country
p768
assI2
(dp769
I0
g755
sI1
g761
sI2
(lp770
sI3
(lp771
sI4
(lp772
ssI3
(dp773
I0
g756
sI1
g762
sI2
g771
sI3
(lp774
sI4
(lp775
ssI4
(dp776
I0
g757
sI1
g763
sI2
g772
sI3
g775
sI4
(lp777
ssa(dp778
I0
(dp779
I0
(lp780
sI1
(lp781
Vhttp://dbpedia.org/property/namedAfter
p782
aVhttp://dbpedia.org/ontology/abstract
p783
asI2
(lp784
sI3
(lp785
sI4
(lp786
ssI1
(dp787
I0
g781
sI1
(lp788
sI2
(lp789
Vhttp://www.w3.org/2002/07/owl#sameAs
p790
asI3
(lp791
Vhttp://www.w3.org/1999/02/22-rdf-syntax-ns#type
p792
aVhttp://purl.org/dc/terms/subject
p793
asI4
(lp794
Vhttp://dbpedia.org/ontology/abstract
p795
assI2
(dp796
I0
g784
sI1
g789
sI2
(lp797
sI3
(lp798
sI4
(lp799
ssI3
(dp800
I0
g785
sI1
g791
sI2
g798
sI3
(lp801
sI4
(lp802
ssI4
(dp803
I0
g786
sI1
g794
sI2
g799
sI3
g802
sI4
(lp804
ssa(dp805
I0
(dp806
I0
(lp807
sI1
(lp808
Vhttp://dbpedia.org/ontology/abstract
p809
aVhttp://www.w3.org/1999/02/22-rdf-syntax-ns#type
p810
aVhttp://dbpedia.org/property/establishedEvent
p811
aVhttp://www.w3.org/2000/01/rdf-schema#comment
p812
asI2
(lp813
sI3
(lp814
Vhttp://dbpedia.org/ontology/abstract
p815
aVhttp://www.w3.org/1999/02/22-rdf-syntax-ns#type
p816
aVhttp://dbpedia.org/property/establishedEvent
p817
aVhttp://www.w3.org/2000/01/rdf-schema#comment
p818
asI4
(lp819
ssI1
(dp820
I0
g808
sI1
(lp821
sI2
(lp822
sI3
(lp823
Vhttp://www.w3.org/2000/01/rdf-schema#seeAlso
p824
aVhttp://dbpedia.org/property/currency
p825
aVhttp://dbpedia.org/property/broadcastArea
p826
aVhttp://dbpedia.org/ontology/currency
p827
aVhttp://dbpedia.org/property/officialLanguages
p828
aVhttp://dbpedia.org/ontology/flag
p829
aVhttp://dbpedia.org/property/mapCaption
p830
aVhttp://dbpedia.org/property/legislature
p831
aVhttp://dbpedia.org/property/sovereigntyType
p832
aVhttp://dbpedia.org/ontology/longName
p833
aVhttp://www.w3.org/ns/prov#wasDerivedFrom
p834
aVhttp://dbpedia.org/property/caption
p835
aVhttp://dbpedia.org/ontology/demonym
p836
aVhttp://dbpedia.org/ontology/officialLanguage
p837
aVhttp://dbpedia.org/property/imageCoat
p838
aVhttp://dbpedia.org/ontology/country
p839
aVhttp://dbpedia.org/property/nationalAnthem
p840
aVhttp://dbpedia.org/property/commonName
p841
aVhttp://dbpedia.org/property/locationCountry
p842
aVhttp://dbpedia.org/property/ground
p843
aVhttp://dbpedia.org/ontology/ground
p844
aVhttp://dbpedia.org/ontology/place
p845
aVhttp://dbpedia.org/ontology/ethnicGroup
p846
aVhttp://dbpedia.org/property/conventionalLongName
p847
aVhttp://dbpedia.org/property/country
p848
aVhttp://dbpedia.org/property/nativeName
p849
aVhttp://dbpedia.org/property/meetingPlace
p850
aVhttp://dbpedia.org/property/callingCode
p851
aVhttp://dbpedia.org/property/establishedEvent
p852
aVhttp://xmlns.com/foaf/0.1/isPrimaryTopicOf
p853
aVhttp://dbpedia.org/ontology/wikiPageExternalLink
p854
aVhttp://xmlns.com/foaf/0.1/primaryTopic
p855
aVhttp://purl.org/dc/terms/subject
p856
aVhttp://dbpedia.org/ontology/populationPlace
p857
aVhttp://dbpedia.org/ontology/abstract
p858
aVhttp://xmlns.com/foaf/0.1/depiction
p859
aVhttp://dbpedia.org/property/location
p860
aVhttp://dbpedia.org/ontology/usingCountry
p861
aVhttp://dbpedia.org/property/states
p862
aVhttp://dbpedia.org/ontology/locationCountry
p863
aVhttp://dbpedia.org/ontology/thumbnail
p864
aVhttp://dbpedia.org/property/hasPhotoCollection
p865
aVhttp://www.w3.org/2000/01/rdf-schema#label
p866
aVhttp://dbpedia.org/ontology/language
p867
aVhttp://dbpedia.org/ontology/broadcastArea
p868
aVhttp://dbpedia.org/property/armiger
p869
aVhttp://dbpedia.org/property/imageMap
p870
aVhttp://dbpedia.org/property/headquarters
p871
aVhttp://dbpedia.org/property/residence
p872
aVhttp://dbpedia.org/ontology/wikiPageDisambiguates
p873
aVhttp://dbpedia.org/property/popplace
p874
aVhttp://www.w3.org/2000/01/rdf-schema#comment
p875
aVhttp://dbpedia.org/ontology/wikiPageRedirects
p876
aVhttp://dbpedia.org/property/bankOf
p877
aVhttp://dbpedia.org/property/demonym
p878
aVhttp://www.w3.org/2002/07/owl#sameAs
p879
aVhttp://dbpedia.org/ontology/anthem
p880
aVhttp://xmlns.com/foaf/0.1/name
p881
aVhttp://dbpedia.org/ontology/spokenIn
p882
aVhttp://dbpedia.org/property/leaderTitle
p883
aVhttp://dbpedia.org/property/imageFlag
p884
aVhttp://dbpedia.org/property/stadium
p885
aVhttp://dbpedia.org/ontology/location
p886
asI4
(lp887
ssI2
(dp888
I0
g813
sI1
g822
sI2
(lp889
sI3
(lp890
sI4
(lp891
ssI3
(dp892
I0
g814
sI1
g823
sI2
g890
sI3
(lp893
sI4
(lp894
ssI4
(dp895
I0
g819
sI1
g887
sI2
g891
sI3
g894
sI4
(lp896
ssa(dp897
I0
(dp898
I0
(lp899
sI1
(lp900
Vhttp://dbpedia.org/property/rd0t2Loc
p901
aVhttp://www.w3.org/1999/02/22-rdf-syntax-ns#type
p902
aVhttp://purl.org/dc/terms/subject
p903
aVhttp://www.w3.org/2000/01/rdf-schema#comment
p904
aVhttp://dbpedia.org/ontology/abstract
p905
aVhttp://dbpedia.org/property/rd1t5Loc
p906
aVhttp://dbpedia.org/property/location
p907
aVhttp://dbpedia.org/property/debuts
p908
aVhttp://dbpedia.org/property/withdraws
p909
aVhttp://dbpedia.org/ontology/PopulatedPlace/areaTotal
p910
aVhttp://dbpedia.org/property/returns
p911
aVhttp://dbpedia.org/property/stadium
p912
asI2
(lp913
sI3
(lp914
sI4
(lp915
Vhttp://dbpedia.org/ontology/abstract
p916
aVhttp://www.w3.org/1999/02/22-rdf-syntax-ns#type
p917
aVhttp://www.w3.org/2000/01/rdf-schema#comment
p918
assI1
(dp919
I0
g900
sI1
(lp920
sI2
(lp921
sI3
(lp922
sI4
(lp923
Vhttp://www.w3.org/1999/02/22-rdf-syntax-ns#type
p924
aVhttp://purl.org/dc/terms/subject
p925
aVhttp://dbpedia.org/property/officialLanguages
p926
aVhttp://www.w3.org/2000/01/rdf-schema#comment
p927
aVhttp://dbpedia.org/ontology/abstract
p928
aVhttp://dbpedia.org/property/states
p929
aVhttp://dbpedia.org/ontology/spokenIn
p930
assI2
(dp931
I0
g913
sI1
g921
sI2
(lp932
sI3
(lp933
sI4
(lp934
ssI3
(dp935
I0
g914
sI1
g922
sI2
g933
sI3
(lp936
sI4
(lp937
ssI4
(dp938
I0
g915
sI1
g923
sI2
g934
sI3
g937
sI4
(lp939
ssa(dp940
I0
(dp941
I0
(lp942
sI1
(lp943
Vhttp://dbpedia.org/ontology/wikiPageExternalLink
p944
aVhttp://www.w3.org/2000/01/rdf-schema#seeAlso
p945
aVhttp://dbpedia.org/property/returns
p946
aVhttp://www.w3.org/1999/02/22-rdf-syntax-ns#type
p947
aVhttp://www.w3.org/2000/01/rdf-schema#comment
p948
aVhttp://dbpedia.org/ontology/country
p949
aVhttp://dbpedia.org/ontology/abstract
p950
aVhttp://dbpedia.org/property/hostCity
p951
aVhttp://dbpedia.org/property/location
p952
aVhttp://dbpedia.org/property/debuts
p953
aVhttp://dbpedia.org/property/withdraws
p954
aVhttp://dbpedia.org/property/city
p955
aVhttp://dbpedia.org/property/destination
p956
aVhttp://dbpedia.org/ontology/city
p957
aVhttp://dbpedia.org/property/date
p958
aVhttp://dbpedia.org/property/country
p959
aVhttp://purl.org/voc/vrank#hasRank
p960
aVhttp://dbpedia.org/property/stadium
p961
asI2
(lp962
sI3
(lp963
sI4
(lp964
Vhttp://purl.org/voc/vrank#hasRank
p965
aVhttp://dbpedia.org/ontology/abstract
p966
aVhttp://www.w3.org/1999/02/22-rdf-syntax-ns#type
p967
aVhttp://www.w3.org/2002/07/owl#sameAs
p968
aVhttp://www.w3.org/2000/01/rdf-schema#comment
p969
assI1
(dp970
I0
g943
sI1
(lp971
sI2
(lp972
sI3
(lp973
sI4
(lp974
Vhttp://dbpedia.org/ontology/abstract
p975
aVhttp://www.w3.org/1999/02/22-rdf-syntax-ns#type
p976
aVhttp://purl.org/dc/terms/subject
p977
assI2
(dp978
I0
g962
sI1
g972
sI2
(lp979
sI3
(lp980
sI4
(lp981
ssI3
(dp982
I0
g963
sI1
g973
sI2
g980
sI3
(lp983
sI4
(lp984
ssI4
(dp985
I0
g964
sI1
g974
sI2
g981
sI3
g984
sI4
(lp986
ssa.