(lp1
(lp2
(lp3
a(lp4
((lp5
Vhttp://www.w3.org/2002/07/owl#Thing
p6
aVhttp://dbpedia.org/ontology/Place
p7
aVhttp://dbpedia.org/ontology/Location
p8
aVhttp://www.wikidata.org/entity/Q486972
p9
aVhttp://www.wikidata.org/entity/Q6256
p10
aVhttp://dbpedia.org/ontology/Country
p11
aVhttp://dbpedia.org/ontology/PopulatedPlace
p12
aVhttp://www.w3.org/2003/01/geo/wgs84_pos#SpatialThing
p13
aVhttp://schema.org/Country
p14
aVhttp://schema.org/Place
p15
aVhttp://umbel.org/umbel/rc/Country
p16
aVhttp://umbel.org/umbel/rc/Location_Underspecified
p17
aVhttp://umbel.org/umbel/rc/PopulatedPlace
p18
aVhttp://dbpedia.org/class/yago/Abstraction100002137
p19
aVhttp://dbpedia.org/class/yago/AdministrativeDistrict108491826
p20
aVhttp://dbpedia.org/class/yago/AfricanCountries
p21
aVhttp://dbpedia.org/class/yago/AfricanUnionMemberEconomies
p22
aVhttp://dbpedia.org/class/yago/BantuCountriesAndTerritories
p23
aVhttp://dbpedia.org/class/yago/Country108544813
p24
aVhttp://dbpedia.org/class/yago/District108552138
p25
aVhttp://dbpedia.org/class/yago/Economy108366753
p26
aVhttp://dbpedia.org/class/yago/Group100031264
p27
aVhttp://dbpedia.org/class/yago/Location100027167
p28
aVhttp://dbpedia.org/class/yago/Object100002684
p29
aVhttp://dbpedia.org/class/yago/Region108630985
p30
aVhttp://dbpedia.org/class/yago/System108435388
p31
aVhttp://dbpedia.org/class/yago/YagoGeoEntity
p32
aVhttp://dbpedia.org/class/yago/YagoLegalActorGeo
p33
aVhttp://dbpedia.org/class/yago/CountriesBorderingTheAtlanticOcean
p34
aVhttp://dbpedia.org/class/yago/French-speakingCountries
p35
aVhttp://dbpedia.org/class/yago/PhysicalEntity100001930
p36
aVhttp://dbpedia.org/class/yago/YagoPermanentlyLocatedEntity
p37
aVhttp://dbpedia.org/class/yago/LeastDevelopedCountries
p38
aVhttp://dbpedia.org/class/yago/MemberStatesOfLaFrancophonie
p39
aVhttp://dbpedia.org/class/yago/MemberStatesOfTheAfricanUnion
p40
aVhttp://dbpedia.org/class/yago/MemberStatesOfTheUnitedNations
p41
aVhttp://dbpedia.org/class/yago/Swahili-speakingCountriesAndTerritories
p42
aVhttp://dbpedia.org/class/yago/WorldTradeOrganizationMemberEconomies
p43
aVhttp://dbpedia.org/resource/Democratic_Republic_of_the_Congo
tp44
aa(lp45
a(lp46
a(lp47
((lp48
Vhttp://www.w3.org/2002/07/owl#Thing
p49
aVhttp://dbpedia.org/ontology/Place
p50
aVhttp://dbpedia.org/ontology/Location
p51
aVhttp://www.wikidata.org/entity/Q4022
p52
aVhttp://www.wikidata.org/entity/Q47521
p53
aVhttp://dbpedia.org/ontology/BodyOfWater
p54
aVhttp://dbpedia.org/ontology/NaturalPlace
p55
aVhttp://dbpedia.org/ontology/River
p56
aVhttp://dbpedia.org/ontology/Stream
p57
aVhttp://schema.org/BodyOfWater
p58
aVhttp://schema.org/Place
p59
aVhttp://schema.org/RiverBodyOfWater
p60
aVhttp://umbel.org/umbel/rc/BodyOfWater
p61
aVhttp://umbel.org/umbel/rc/River
p62
aVhttp://umbel.org/umbel/rc/Stream
p63
aVhttp://dbpedia.org/class/yago/BodyOfWater109225146
p64
aVhttp://dbpedia.org/class/yago/Branch109228324
p65
aVhttp://dbpedia.org/class/yago/CanadianHeritageRivers
p66
aVhttp://dbpedia.org/class/yago/River109411430
p67
aVhttp://dbpedia.org/class/yago/Stream109448361
p68
aVhttp://dbpedia.org/class/yago/Thing100002452
p69
aVhttp://dbpedia.org/class/yago/YagoGeoEntity
p70
aVhttp://dbpedia.org/class/yago/Feeder109278997
p71
aVhttp://dbpedia.org/class/yago/PhysicalEntity100001930
p72
aVhttp://dbpedia.org/class/yago/YagoPermanentlyLocatedEntity
p73
aVhttp://dbpedia.org/class/yago/RiversOfOntario
p74
aVhttp://dbpedia.org/class/yago/TributariesOfLakeHuron
p75
aVhttp://dbpedia.org/resource/French_River_(Ontario)
tp76
aaa(lp77
(lp78
a(lp79
((lp80
Vhttp://www.w3.org/2002/07/owl#Thing
p81
aVhttp://dbpedia.org/ontology/Place
p82
aVhttp://dbpedia.org/ontology/Location
p83
aVhttp://www.wikidata.org/entity/Q486972
p84
aVhttp://www.wikidata.org/entity/Q6256
p85
aVhttp://dbpedia.org/ontology/Country
p86
aVhttp://dbpedia.org/ontology/PopulatedPlace
p87
aVhttp://schema.org/Country
p88
aVhttp://schema.org/Place
p89
aVhttp://umbel.org/umbel/rc/Country
p90
aVhttp://umbel.org/umbel/rc/Location_Underspecified
p91
aVhttp://umbel.org/umbel/rc/PopulatedPlace
p92
aVhttp://dbpedia.org/class/yago/Abstraction100002137
p93
aVhttp://dbpedia.org/class/yago/AdministrativeDistrict108491826
p94
aVhttp://dbpedia.org/class/yago/AfricanCountries
p95
aVhttp://dbpedia.org/class/yago/AfricanUnionMemberEconomies
p96
aVhttp://dbpedia.org/class/yago/Country108544813
p97
aVhttp://dbpedia.org/class/yago/District108552138
p98
aVhttp://dbpedia.org/class/yago/Domain108556491
p99
aVhttp://dbpedia.org/class/yago/Economy108366753
p100
aVhttp://dbpedia.org/class/yago/Group100031264
p101
aVhttp://dbpedia.org/class/yago/Location100027167
p102
aVhttp://dbpedia.org/class/yago/Object100002684
p103
aVhttp://dbpedia.org/class/yago/Region108630985
p104
aVhttp://dbpedia.org/class/yago/System108435388
p105
aVhttp://dbpedia.org/class/yago/YagoGeoEntity
p106
aVhttp://dbpedia.org/class/yago/YagoLegalActorGeo
p107
aVhttp://dbpedia.org/class/yago/Empire108557482
p108
aVhttp://dbpedia.org/class/yago/FormerEmpires
p109
aVhttp://dbpedia.org/class/yago/PhysicalEntity100001930
p110
aVhttp://dbpedia.org/class/yago/YagoPermanentlyLocatedEntity
p111
aVhttp://dbpedia.org/class/yago/LandlockedCountries
p112
aVhttp://dbpedia.org/class/yago/LeastDevelopedCountries
p113
aVhttp://dbpedia.org/class/yago/MemberStatesOfTheAfricanUnion
p114
aVhttp://dbpedia.org/class/yago/MemberStatesOfTheUnitedNations
p115
aVhttp://dbpedia.org/resource/Ethiopia
tp116
aa(lp117
a(lp118
a(lp119
aa(lp120
(lp121
a(lp122
((lp123
Vhttp://www.w3.org/2002/07/owl#Thing
p124
aVhttp://dbpedia.org/ontology/Place
p125
aVhttp://dbpedia.org/ontology/Location
p126
aVhttp://www.wikidata.org/entity/Q486972
p127
aVhttp://www.wikidata.org/entity/Q6256
p128
aVhttp://dbpedia.org/ontology/Country
p129
aVhttp://dbpedia.org/ontology/PopulatedPlace
p130
aVhttp://www.w3.org/2003/01/geo/wgs84_pos#SpatialThing
p131
aVhttp://schema.org/Country
p132
aVhttp://schema.org/Place
p133
aVhttp://umbel.org/umbel/rc/Country
p134
aVhttp://umbel.org/umbel/rc/Location_Underspecified
p135
aVhttp://umbel.org/umbel/rc/PopulatedPlace
p136
aVhttp://dbpedia.org/class/yago/Abstraction100002137
p137
aVhttp://dbpedia.org/class/yago/AdministrativeDistrict108491826
p138
aVhttp://dbpedia.org/class/yago/AfricanCountries
p139
aVhttp://dbpedia.org/class/yago/AfricanUnionMemberEconomies
p140
aVhttp://dbpedia.org/class/yago/BantuCountriesAndTerritories
p141
aVhttp://dbpedia.org/class/yago/Country108544813
p142
aVhttp://dbpedia.org/class/yago/District108552138
p143
aVhttp://dbpedia.org/class/yago/Economy108366753
p144
aVhttp://dbpedia.org/class/yago/Group100031264
p145
aVhttp://dbpedia.org/class/yago/Location100027167
p146
aVhttp://dbpedia.org/class/yago/Object100002684
p147
aVhttp://dbpedia.org/class/yago/Region108630985
p148
aVhttp://dbpedia.org/class/yago/System108435388
p149
aVhttp://dbpedia.org/class/yago/YagoGeoEntity
p150
aVhttp://dbpedia.org/class/yago/YagoLegalActorGeo
p151
aVhttp://dbpedia.org/class/yago/French-speakingCountries
p152
aVhttp://dbpedia.org/class/yago/PhysicalEntity100001930
p153
aVhttp://dbpedia.org/class/yago/YagoPermanentlyLocatedEntity
p154
aVhttp://dbpedia.org/class/yago/LandlockedCountries
p155
aVhttp://dbpedia.org/class/yago/LeastDevelopedCountries
p156
aVhttp://dbpedia.org/class/yago/MemberStatesOfLaFrancophonie
p157
aVhttp://dbpedia.org/class/yago/MemberStatesOfTheAfricanUnion
p158
aVhttp://dbpedia.org/class/yago/MemberStatesOfTheUnitedNations
p159
aVhttp://dbpedia.org/class/yago/StatesAndTerritoriesEstablishedIn1962
p160
aVhttp://dbpedia.org/class/yago/Swahili-speakingCountriesAndTerritories
p161
aVhttp://dbpedia.org/resource/Burundi
tp162
aa(lp163
a(lp164
a(lp165
aa(lp166
(lp167
a(lp168
((lp169
Vhttp://www.w3.org/2002/07/owl#Thing
p170
aVhttp://dbpedia.org/ontology/Place
p171
aVhttp://dbpedia.org/ontology/Location
p172
aVhttp://www.wikidata.org/entity/Q486972
p173
aVhttp://www.wikidata.org/entity/Q6256
p174
aVhttp://dbpedia.org/ontology/Country
p175
aVhttp://dbpedia.org/ontology/PopulatedPlace
p176
aVhttp://www.w3.org/2003/01/geo/wgs84_pos#SpatialThing
p177
aVhttp://schema.org/Country
p178
aVhttp://schema.org/Place
p179
aVhttp://umbel.org/umbel/rc/Country
p180
aVhttp://umbel.org/umbel/rc/Location_Underspecified
p181
aVhttp://umbel.org/umbel/rc/PopulatedPlace
p182
aVhttp://dbpedia.org/class/yago/Abstraction100002137
p183
aVhttp://dbpedia.org/class/yago/AdministrativeDistrict108491826
p184
aVhttp://dbpedia.org/class/yago/AfricanCountries
p185
aVhttp://dbpedia.org/class/yago/AfricanUnionMemberEconomies
p186
aVhttp://dbpedia.org/class/yago/Country108544813
p187
aVhttp://dbpedia.org/class/yago/District108552138
p188
aVhttp://dbpedia.org/class/yago/Economy108366753
p189
aVhttp://dbpedia.org/class/yago/Group100031264
p190
aVhttp://dbpedia.org/class/yago/Location100027167
p191
aVhttp://dbpedia.org/class/yago/Object100002684
p192
aVhttp://dbpedia.org/class/yago/Region108630985
p193
aVhttp://dbpedia.org/class/yago/System108435388
p194
aVhttp://dbpedia.org/class/yago/YagoGeoEntity
p195
aVhttp://dbpedia.org/class/yago/YagoLegalActorGeo
p196
aVhttp://dbpedia.org/class/yago/CountriesBorderingTheAtlanticOcean
p197
aVhttp://dbpedia.org/class/yago/English-speakingCountriesAndTerritories
p198
aVhttp://dbpedia.org/class/yago/PhysicalEntity100001930
p199
aVhttp://dbpedia.org/class/yago/YagoPermanentlyLocatedEntity
p200
aVhttp://dbpedia.org/class/yago/LeastDevelopedCountries
p201
aVhttp://dbpedia.org/class/yago/MemberStatesOfTheAfricanUnion
p202
aVhttp://dbpedia.org/class/yago/MemberStatesOfTheCommonwealthOfNations
p203
aVhttp://dbpedia.org/class/yago/MemberStatesOfTheOrganisationOfIslamicCooperation
p204
aVhttp://dbpedia.org/class/yago/MemberStatesOfTheUnitedNations
p205
aVhttp://dbpedia.org/class/yago/StatesAndTerritoriesEstablishedIn1961
p206
aVhttp://dbpedia.org/class/yago/WorldTradeOrganizationMemberEconomies
p207
aVhttp://dbpedia.org/resource/Sierra_Leone
tp208
aa(lp209
a(lp210
a(lp211
((lp212
Vhttp://www.w3.org/2002/07/owl#Thing
p213
aVhttp://dbpedia.org/ontology/Place
p214
aVhttp://dbpedia.org/ontology/Location
p215
aVhttp://www.wikidata.org/entity/Q3957
p216
aVhttp://www.wikidata.org/entity/Q486972
p217
aVhttp://dbpedia.org/ontology/PopulatedPlace
p218
aVhttp://dbpedia.org/ontology/Settlement
p219
aVhttp://dbpedia.org/ontology/Town
p220
aVhttp://www.w3.org/2003/01/geo/wgs84_pos#SpatialThing
p221
aVhttp://schema.org/Place
p222
aVhttp://umbel.org/umbel/rc/Town
p223
aVhttp://dbpedia.org/class/yago/AdministrativeDistrict108491826
p224
aVhttp://dbpedia.org/class/yago/Area108497294
p225
aVhttp://dbpedia.org/class/yago/Center108523483
p226
aVhttp://dbpedia.org/class/yago/District108552138
p227
aVhttp://dbpedia.org/class/yago/Location100027167
p228
aVhttp://dbpedia.org/class/yago/Object100002684
p229
aVhttp://dbpedia.org/class/yago/Region108630985
p230
aVhttp://dbpedia.org/class/yago/Seat108647945
p231
aVhttp://dbpedia.org/class/yago/Site108651247
p232
aVhttp://dbpedia.org/class/yago/Town108665504
p233
aVhttp://dbpedia.org/class/yago/Tract108673395
p234
aVhttp://dbpedia.org/class/yago/UrbanArea108675967
p235
aVhttp://dbpedia.org/class/yago/YagoGeoEntity
p236
aVhttp://dbpedia.org/class/yago/YagoLegalActorGeo
p237
aVhttp://dbpedia.org/class/yago/CountySeat108547143
p238
aVhttp://dbpedia.org/class/yago/CountySeatsInIndiana
p239
aVhttp://dbpedia.org/class/yago/GeographicalArea108574314
p240
aVhttp://dbpedia.org/class/yago/Municipality108626283
p241
aVhttp://dbpedia.org/class/yago/PhysicalEntity100001930
p242
aVhttp://dbpedia.org/class/yago/YagoPermanentlyLocatedEntity
p243
aVhttp://dbpedia.org/class/yago/PopulatedPlacesInCrawfordCounty,Indiana
p244
aVhttp://dbpedia.org/class/yago/TownsInIndiana
p245
aVhttp://dbpedia.org/resource/English,_Indiana
tp246
aaa(lp247
(lp248
a(lp249
((lp250
Vhttp://www.w3.org/2002/07/owl#Thing
p251
aVhttp://dbpedia.org/ontology/Place
p252
aVhttp://dbpedia.org/ontology/Location
p253
aVhttp://www.wikidata.org/entity/Q486972
p254
aVhttp://www.wikidata.org/entity/Q6256
p255
aVhttp://dbpedia.org/ontology/Country
p256
aVhttp://dbpedia.org/ontology/PopulatedPlace
p257
aVhttp://www.w3.org/2003/01/geo/wgs84_pos#SpatialThing
p258
aVhttp://schema.org/Country
p259
aVhttp://schema.org/Place
p260
aVhttp://umbel.org/umbel/rc/Country
p261
aVhttp://umbel.org/umbel/rc/Location_Underspecified
p262
aVhttp://umbel.org/umbel/rc/PopulatedPlace
p263
aVhttp://dbpedia.org/class/yago/Abstraction100002137
p264
aVhttp://dbpedia.org/class/yago/AdministrativeDistrict108491826
p265
aVhttp://dbpedia.org/class/yago/AfricanCountries
p266
aVhttp://dbpedia.org/class/yago/AfricanUnionMemberEconomies
p267
aVhttp://dbpedia.org/class/yago/BantuCountriesAndTerritories
p268
aVhttp://dbpedia.org/class/yago/Country108544813
p269
aVhttp://dbpedia.org/class/yago/District108552138
p270
aVhttp://dbpedia.org/class/yago/Economy108366753
p271
aVhttp://dbpedia.org/class/yago/Group100031264
p272
aVhttp://dbpedia.org/class/yago/Location100027167
p273
aVhttp://dbpedia.org/class/yago/Object100002684
p274
aVhttp://dbpedia.org/class/yago/Region108630985
p275
aVhttp://dbpedia.org/class/yago/System108435388
p276
aVhttp://dbpedia.org/class/yago/YagoGeoEntity
p277
aVhttp://dbpedia.org/class/yago/YagoLegalActorGeo
p278
aVhttp://dbpedia.org/class/yago/English-speakingCountriesAndTerritories
p279
aVhttp://dbpedia.org/class/yago/PhysicalEntity100001930
p280
aVhttp://dbpedia.org/class/yago/YagoPermanentlyLocatedEntity
p281
aVhttp://dbpedia.org/class/yago/LandlockedCountries
p282
aVhttp://dbpedia.org/class/yago/LeastDevelopedCountries
p283
aVhttp://dbpedia.org/class/yago/MemberStatesOfTheAfricanUnion
p284
aVhttp://dbpedia.org/class/yago/MemberStatesOfTheCommonwealthOfNations
p285
aVhttp://dbpedia.org/class/yago/MemberStatesOfTheUnitedNations
p286
aVhttp://dbpedia.org/class/yago/StatesAndTerritoriesEstablishedIn1964
p287
aVhttp://dbpedia.org/class/yago/WorldTradeOrganizationMemberEconomies
p288
aVhttp://dbpedia.org/resource/Malawi
tp289
aa(lp290
a(lp291
a(lp292
aa(lp293
(lp294
a(lp295
((lp296
Vhttp://www.w3.org/2002/07/owl#Thing
p297
aVhttp://dbpedia.org/ontology/Place
p298
aVhttp://dbpedia.org/ontology/Location
p299
aVhttp://www.wikidata.org/entity/Q486972
p300
aVhttp://www.wikidata.org/entity/Q6256
p301
aVhttp://dbpedia.org/ontology/Country
p302
aVhttp://dbpedia.org/ontology/PopulatedPlace
p303
aVhttp://www.w3.org/2003/01/geo/wgs84_pos#SpatialThing
p304
aVhttp://schema.org/Country
p305
aVhttp://schema.org/Place
p306
aVhttp://umbel.org/umbel/rc/Country
p307
aVhttp://umbel.org/umbel/rc/Location_Underspecified
p308
aVhttp://umbel.org/umbel/rc/PopulatedPlace
p309
aVhttp://dbpedia.org/class/yago/Abstraction100002137
p310
aVhttp://dbpedia.org/class/yago/AdministrativeDistrict108491826
p311
aVhttp://dbpedia.org/class/yago/AfricanCountries
p312
aVhttp://dbpedia.org/class/yago/AfricanUnionMemberEconomies
p313
aVhttp://dbpedia.org/class/yago/Country108544813
p314
aVhttp://dbpedia.org/class/yago/District108552138
p315
aVhttp://dbpedia.org/class/yago/Economy108366753
p316
aVhttp://dbpedia.org/class/yago/Group100031264
p317
aVhttp://dbpedia.org/class/yago/Location100027167
p318
aVhttp://dbpedia.org/class/yago/Object100002684
p319
aVhttp://dbpedia.org/class/yago/Region108630985
p320
aVhttp://dbpedia.org/class/yago/System108435388
p321
aVhttp://dbpedia.org/class/yago/YagoGeoEntity
p322
aVhttp://dbpedia.org/class/yago/YagoLegalActorGeo
p323
aVhttp://dbpedia.org/class/yago/French-speakingCountries
p324
aVhttp://dbpedia.org/class/yago/PhysicalEntity100001930
p325
aVhttp://dbpedia.org/class/yago/YagoPermanentlyLocatedEntity
p326
aVhttp://dbpedia.org/class/yago/LandlockedCountries
p327
aVhttp://dbpedia.org/class/yago/LeastDevelopedCountries
p328
aVhttp://dbpedia.org/class/yago/MemberStatesOfTheAfricanUnion
p329
aVhttp://dbpedia.org/class/yago/MemberStatesOfTheOrganisationOfIslamicCooperation
p330
aVhttp://dbpedia.org/class/yago/MemberStatesOfTheUnitedNations
p331
aVhttp://dbpedia.org/class/yago/StatesAndTerritoriesEstablishedIn1960
p332
aVhttp://dbpedia.org/class/yago/WorldTradeOrganizationMemberEconomies
p333
aVhttp://dbpedia.org/resource/Niger
tp334
aa(lp335
a(lp336
a(lp337
((lp338
Vhttp://www.w3.org/2002/07/owl#Thing
p339
aVhttp://dbpedia.org/ontology/Place
p340
aVhttp://dbpedia.org/ontology/Location
p341
aVhttp://www.wikidata.org/entity/Q4022
p342
aVhttp://www.wikidata.org/entity/Q47521
p343
aVhttp://dbpedia.org/ontology/BodyOfWater
p344
aVhttp://dbpedia.org/ontology/NaturalPlace
p345
aVhttp://dbpedia.org/ontology/River
p346
aVhttp://dbpedia.org/ontology/Stream
p347
aVhttp://schema.org/BodyOfWater
p348
aVhttp://schema.org/Place
p349
aVhttp://schema.org/RiverBodyOfWater
p350
aVhttp://umbel.org/umbel/rc/BodyOfWater
p351
aVhttp://umbel.org/umbel/rc/River
p352
aVhttp://umbel.org/umbel/rc/Stream
p353
aVhttp://dbpedia.org/class/yago/BodyOfWater109225146
p354
aVhttp://dbpedia.org/class/yago/Branch109228324
p355
aVhttp://dbpedia.org/class/yago/CanadianHeritageRivers
p356
aVhttp://dbpedia.org/class/yago/River109411430
p357
aVhttp://dbpedia.org/class/yago/Stream109448361
p358
aVhttp://dbpedia.org/class/yago/Thing100002452
p359
aVhttp://dbpedia.org/class/yago/YagoGeoEntity
p360
aVhttp://dbpedia.org/class/yago/Feeder109278997
p361
aVhttp://dbpedia.org/class/yago/PhysicalEntity100001930
p362
aVhttp://dbpedia.org/class/yago/YagoPermanentlyLocatedEntity
p363
aVhttp://dbpedia.org/class/yago/RiversOfOntario
p364
aVhttp://dbpedia.org/class/yago/TributariesOfLakeHuron
p365
aVhttp://dbpedia.org/resource/French_River_(Ontario)
tp366
aaa(lp367
(lp368
a(lp369
((lp370
Vhttp://www.w3.org/2002/07/owl#Thing
p371
aVhttp://dbpedia.org/ontology/Place
p372
aVhttp://dbpedia.org/ontology/Location
p373
aVhttp://www.wikidata.org/entity/Q486972
p374
aVhttp://www.wikidata.org/entity/Q6256
p375
aVhttp://dbpedia.org/ontology/Country
p376
aVhttp://dbpedia.org/ontology/PopulatedPlace
p377
aVhttp://www.w3.org/2003/01/geo/wgs84_pos#SpatialThing
p378
aVhttp://schema.org/Country
p379
aVhttp://schema.org/Place
p380
aVhttp://umbel.org/umbel/rc/Country
p381
aVhttp://umbel.org/umbel/rc/Location_Underspecified
p382
aVhttp://umbel.org/umbel/rc/PopulatedPlace
p383
aVhttp://dbpedia.org/resource/Chad
tp384
aa(lp385
a(lp386
a(lp387
aa(lp388
(lp389
a(lp390
((lp391
Vhttp://www.w3.org/2002/07/owl#Thing
p392
aVhttp://dbpedia.org/ontology/Place
p393
aVhttp://dbpedia.org/ontology/Location
p394
aVhttp://www.wikidata.org/entity/Q486972
p395
aVhttp://www.wikidata.org/entity/Q6256
p396
aVhttp://dbpedia.org/ontology/Country
p397
aVhttp://dbpedia.org/ontology/PopulatedPlace
p398
aVhttp://www.w3.org/2003/01/geo/wgs84_pos#SpatialThing
p399
aVhttp://schema.org/Country
p400
aVhttp://schema.org/Place
p401
aVhttp://umbel.org/umbel/rc/Country
p402
aVhttp://umbel.org/umbel/rc/Location_Underspecified
p403
aVhttp://umbel.org/umbel/rc/PopulatedPlace
p404
aVhttp://dbpedia.org/class/yago/Abstraction100002137
p405
aVhttp://dbpedia.org/class/yago/AdministrativeDistrict108491826
p406
aVhttp://dbpedia.org/class/yago/AfricanCountries
p407
aVhttp://dbpedia.org/class/yago/AfricanUnionMemberEconomies
p408
aVhttp://dbpedia.org/class/yago/BantuCountriesAndTerritories
p409
aVhttp://dbpedia.org/class/yago/Country108544813
p410
aVhttp://dbpedia.org/class/yago/District108552138
p411
aVhttp://dbpedia.org/class/yago/Economy108366753
p412
aVhttp://dbpedia.org/class/yago/Group100031264
p413
aVhttp://dbpedia.org/class/yago/Location100027167
p414
aVhttp://dbpedia.org/class/yago/Object100002684
p415
aVhttp://dbpedia.org/class/yago/Region108630985
p416
aVhttp://dbpedia.org/class/yago/System108435388
p417
aVhttp://dbpedia.org/class/yago/YagoGeoEntity
p418
aVhttp://dbpedia.org/class/yago/YagoLegalActorGeo
p419
aVhttp://dbpedia.org/class/yago/PhysicalEntity100001930
p420
aVhttp://dbpedia.org/class/yago/YagoPermanentlyLocatedEntity
p421
aVhttp://dbpedia.org/class/yago/LeastDevelopedCountries
p422
aVhttp://dbpedia.org/class/yago/MemberStatesOfTheAfricanUnion
p423
aVhttp://dbpedia.org/class/yago/MemberStatesOfTheCommonwealthOfNations
p424
aVhttp://dbpedia.org/class/yago/MemberStatesOfTheCommunityOfPortugueseLanguageCountries
p425
aVhttp://dbpedia.org/class/yago/MemberStatesOfTheOrganisationOfIslamicCooperation
p426
aVhttp://dbpedia.org/class/yago/MemberStatesOfTheUnitedNations
p427
aVhttp://dbpedia.org/class/yago/Portuguese-speakingCountries
p428
aVhttp://dbpedia.org/class/yago/StatesAndTerritoriesEstablishedIn1975
p429
aVhttp://dbpedia.org/class/yago/Swahili-speakingCountriesAndTerritories
p430
aVhttp://dbpedia.org/class/yago/WorldTradeOrganizationMemberEconomies
p431
aVhttp://dbpedia.org/resource/Mozambique
tp432
aa(lp433
a(lp434
a(lp435
((lVhttp://dbpedia.org/resource/Portuguese
tp436
aaa(lp437
(lp438
a(lp439
((lp440
Vhttp://www.w3.org/2002/07/owl#Thing
p441
aVhttp://dbpedia.org/ontology/Place
p442
aVhttp://dbpedia.org/ontology/Location
p443
aVhttp://www.wikidata.org/entity/Q486972
p444
aVhttp://www.wikidata.org/entity/Q6256
p445
aVhttp://dbpedia.org/ontology/Country
p446
aVhttp://dbpedia.org/ontology/PopulatedPlace
p447
aVhttp://www.w3.org/2003/01/geo/wgs84_pos#SpatialThing
p448
aVhttp://schema.org/Country
p449
aVhttp://schema.org/Place
p450
aVhttp://umbel.org/umbel/rc/Country
p451
aVhttp://umbel.org/umbel/rc/Location_Underspecified
p452
aVhttp://umbel.org/umbel/rc/PopulatedPlace
p453
aVhttp://dbpedia.org/class/yago/Abstraction100002137
p454
aVhttp://dbpedia.org/class/yago/AdministrativeDistrict108491826
p455
aVhttp://dbpedia.org/class/yago/Country108544813
p456
aVhttp://dbpedia.org/class/yago/District108552138
p457
aVhttp://dbpedia.org/class/yago/Economy108366753
p458
aVhttp://dbpedia.org/class/yago/Group100031264
p459
aVhttp://dbpedia.org/class/yago/Location100027167
p460
aVhttp://dbpedia.org/class/yago/Object100002684
p461
aVhttp://dbpedia.org/class/yago/Region108630985
p462
aVhttp://dbpedia.org/class/yago/System108435388
p463
aVhttp://dbpedia.org/class/yago/YagoGeoEntity
p464
aVhttp://dbpedia.org/class/yago/YagoLegalActorGeo
p465
aVhttp://dbpedia.org/class/yago/FederalCountries
p466
aVhttp://dbpedia.org/class/yago/PhysicalEntity100001930
p467
aVhttp://dbpedia.org/class/yago/YagoPermanentlyLocatedEntity
p468
aVhttp://dbpedia.org/class/yago/LandlockedCountries
p469
aVhttp://dbpedia.org/class/yago/LeastDevelopedCountries
p470
aVhttp://dbpedia.org/class/yago/MemberStatesOfTheSouthAsianAssociationForRegionalCooperation
p471
aVhttp://dbpedia.org/class/yago/MemberStatesOfTheUnitedNations
p472
aVhttp://dbpedia.org/class/yago/SouthAsianCountries
p473
aVhttp://dbpedia.org/class/yago/StatesAndTerritoriesEstablishedIn1768
p474
aVhttp://dbpedia.org/class/yago/WorldTradeOrganizationMemberEconomies
p475
aVhttp://dbpedia.org/resource/Nepal
tp476
aa(lp477
a(lp478
((lp479
Vhttp://www.w3.org/2002/07/owl#Thing
p480
aVhttp://www.ontologydesignpatterns.org/ont/dul/DUL.owl#Agent
p481
aVhttp://www.ontologydesignpatterns.org/ont/dul/DUL.owl#SocialPerson
p482
aVhttp://www.wikidata.org/entity/Q43229
p483
aVhttp://www.wikidata.org/entity/Q7278
p484
aVhttp://dbpedia.org/ontology/Agent
p485
aVhttp://dbpedia.org/ontology/Organisation
p486
aVhttp://dbpedia.org/ontology/PoliticalParty
p487
aVhttp://schema.org/Organization
p488
aVhttp://dbpedia.org/class/yago/Abstraction100002137
p489
aVhttp://dbpedia.org/class/yago/Group100031264
p490
aVhttp://dbpedia.org/class/yago/Organization108008335
p491
aVhttp://dbpedia.org/class/yago/Party108256968
p492
aVhttp://dbpedia.org/class/yago/SocialGroup107950920
p493
aVhttp://dbpedia.org/class/yago/YagoLegalActorGeo
p494
aVhttp://dbpedia.org/class/yago/YagoPermanentlyLocatedEntity
p495
aVhttp://dbpedia.org/class/yago/PoliticalPartiesInNepal
p496
aVhttp://dbpedia.org/class/yago/YagoLegalActor
p497
aVhttp://dbpedia.org/class/yago/SocialDemocraticParties
p498
aVhttp://dbpedia.org/resource/Nepali_Congress
tp499
aa(lp500
((lp501
Vhttp://www.w3.org/2002/07/owl#Thing
p502
aVhttp://www.ontologydesignpatterns.org/ont/dul/DUL.owl#Agent
p503
aVhttp://www.ontologydesignpatterns.org/ont/dul/DUL.owl#SocialPerson
p504
aVhttp://www.wikidata.org/entity/Q43229
p505
aVhttp://www.wikidata.org/entity/Q7278
p506
aVhttp://dbpedia.org/ontology/Agent
p507
aVhttp://dbpedia.org/ontology/Organisation
p508
aVhttp://dbpedia.org/ontology/PoliticalParty
p509
aVhttp://schema.org/Organization
p510
aVhttp://dbpedia.org/class/yago/Abstraction100002137
p511
aVhttp://dbpedia.org/class/yago/Group100031264
p512
aVhttp://dbpedia.org/class/yago/Organization108008335
p513
aVhttp://dbpedia.org/class/yago/Party108256968
p514
aVhttp://dbpedia.org/class/yago/SocialGroup107950920
p515
aVhttp://dbpedia.org/class/yago/YagoLegalActorGeo
p516
aVhttp://dbpedia.org/class/yago/YagoPermanentlyLocatedEntity
p517
aVhttp://dbpedia.org/class/yago/PoliticalPartiesInNepal
p518
aVhttp://dbpedia.org/class/yago/YagoLegalActor
p519
aVhttp://dbpedia.org/class/yago/SocialDemocraticParties
p520
aVhttp://dbpedia.org/resource/Nepali_Congress
tp521
aaa(lp522
(lp523
a(lp524
((lp525
Vhttp://www.w3.org/2002/07/owl#Thing
p526
aVhttp://dbpedia.org/ontology/Place
p527
aVhttp://dbpedia.org/ontology/Location
p528
aVhttp://www.wikidata.org/entity/Q486972
p529
aVhttp://www.wikidata.org/entity/Q6256
p530
aVhttp://dbpedia.org/ontology/Country
p531
aVhttp://dbpedia.org/ontology/PopulatedPlace
p532
aVhttp://www.w3.org/2003/01/geo/wgs84_pos#SpatialThing
p533
aVhttp://schema.org/Country
p534
aVhttp://schema.org/Place
p535
aVhttp://umbel.org/umbel/rc/Country
p536
aVhttp://umbel.org/umbel/rc/Location_Underspecified
p537
aVhttp://umbel.org/umbel/rc/PopulatedPlace
p538
aVhttp://dbpedia.org/class/yago/Abstraction100002137
p539
aVhttp://dbpedia.org/class/yago/AdministrativeDistrict108491826
p540
aVhttp://dbpedia.org/class/yago/AfricanCountries
p541
aVhttp://dbpedia.org/class/yago/AfricanUnionMemberEconomies
p542
aVhttp://dbpedia.org/class/yago/Country108544813
p543
aVhttp://dbpedia.org/class/yago/District108552138
p544
aVhttp://dbpedia.org/class/yago/Economy108366753
p545
aVhttp://dbpedia.org/class/yago/Group100031264
p546
aVhttp://dbpedia.org/class/yago/Location100027167
p547
aVhttp://dbpedia.org/class/yago/Object100002684
p548
aVhttp://dbpedia.org/class/yago/Region108630985
p549
aVhttp://dbpedia.org/class/yago/System108435388
p550
aVhttp://dbpedia.org/class/yago/YagoGeoEntity
p551
aVhttp://dbpedia.org/class/yago/YagoLegalActorGeo
p552
aVhttp://dbpedia.org/class/yago/French-speakingCountries
p553
aVhttp://dbpedia.org/class/yago/PhysicalEntity100001930
p554
aVhttp://dbpedia.org/class/yago/YagoPermanentlyLocatedEntity
p555
aVhttp://dbpedia.org/class/yago/LandlockedCountries
p556
aVhttp://dbpedia.org/class/yago/LeastDevelopedCountries
p557
aVhttp://dbpedia.org/class/yago/MemberStatesOfLaFrancophonie
p558
aVhttp://dbpedia.org/class/yago/MemberStatesOfTheAfricanUnion
p559
aVhttp://dbpedia.org/class/yago/MemberStatesOfTheOrganisationOfIslamicCooperation
p560
aVhttp://dbpedia.org/class/yago/MemberStatesOfTheUnitedNations
p561
aVhttp://dbpedia.org/class/yago/StatesAndTerritoriesEstablishedIn1960
p562
aVhttp://dbpedia.org/class/yago/WorldTradeOrganizationMemberEconomies
p563
aVhttp://dbpedia.org/resource/Mali
tp564
aa(lp565
a(lp566
((lp567
Vhttp://www.w3.org/2002/07/owl#Thing
p568
aVhttp://xmlns.com/foaf/0.1/Person
p569
aVhttp://dbpedia.org/ontology/Person
p570
aVhttp://www.ontologydesignpatterns.org/ont/dul/DUL.owl#Agent
p571
aVhttp://www.ontologydesignpatterns.org/ont/dul/DUL.owl#NaturalPerson
p572
aVhttp://www.wikidata.org/entity/Q215627
p573
aVhttp://www.wikidata.org/entity/Q36180
p574
aVhttp://www.wikidata.org/entity/Q483501
p575
aVhttp://www.wikidata.org/entity/Q5
p576
aVhttp://dbpedia.org/ontology/Agent
p577
aVhttp://dbpedia.org/ontology/Artist
p578
aVhttp://dbpedia.org/ontology/Writer
p579
aVhttp://schema.org/Person
p580
aVhttp://dbpedia.org/class/yago/AfricanAmericanWriters
p581
aVhttp://dbpedia.org/class/yago/AmericanNovelists
p582
aVhttp://dbpedia.org/class/yago/AmericanShortStoryWriters
p583
aVhttp://dbpedia.org/class/yago/CausalAgent100007347
p584
aVhttp://dbpedia.org/class/yago/Communicator109610660
p585
aVhttp://dbpedia.org/class/yago/LivingThing100004258
p586
aVhttp://dbpedia.org/class/yago/Novelist110363573
p587
aVhttp://dbpedia.org/class/yago/Object100002684
p588
aVhttp://dbpedia.org/class/yago/Organism100004475
p589
aVhttp://dbpedia.org/class/yago/Person100007846
p590
aVhttp://dbpedia.org/class/yago/Whole100003553
p591
aVhttp://dbpedia.org/class/yago/Writer110794014
p592
aVhttp://dbpedia.org/class/yago/YagoLegalActorGeo
p593
aVhttp://dbpedia.org/class/yago/PhysicalEntity100001930
p594
aVhttp://dbpedia.org/class/yago/YagoLegalActor
p595
aVhttp://dbpedia.org/resource/Toni_Cade_Bambara
tp596
aa(lp597
((lp598
Vhttp://www.w3.org/2002/07/owl#Thing
p599
aVhttp://dbpedia.org/ontology/Place
p600
aVhttp://dbpedia.org/ontology/Location
p601
aVhttp://www.wikidata.org/entity/Q4022
p602
aVhttp://www.wikidata.org/entity/Q47521
p603
aVhttp://dbpedia.org/ontology/BodyOfWater
p604
aVhttp://dbpedia.org/ontology/NaturalPlace
p605
aVhttp://dbpedia.org/ontology/River
p606
aVhttp://dbpedia.org/ontology/Stream
p607
aVhttp://schema.org/BodyOfWater
p608
aVhttp://schema.org/Place
p609
aVhttp://schema.org/RiverBodyOfWater
p610
aVhttp://umbel.org/umbel/rc/BodyOfWater
p611
aVhttp://umbel.org/umbel/rc/River
p612
aVhttp://umbel.org/umbel/rc/Stream
p613
aVhttp://dbpedia.org/class/yago/BodyOfWater109225146
p614
aVhttp://dbpedia.org/class/yago/Branch109228324
p615
aVhttp://dbpedia.org/class/yago/CanadianHeritageRivers
p616
aVhttp://dbpedia.org/class/yago/River109411430
p617
aVhttp://dbpedia.org/class/yago/Stream109448361
p618
aVhttp://dbpedia.org/class/yago/Thing100002452
p619
aVhttp://dbpedia.org/class/yago/YagoGeoEntity
p620
aVhttp://dbpedia.org/class/yago/Feeder109278997
p621
aVhttp://dbpedia.org/class/yago/PhysicalEntity100001930
p622
aVhttp://dbpedia.org/class/yago/YagoPermanentlyLocatedEntity
p623
aVhttp://dbpedia.org/class/yago/RiversOfOntario
p624
aVhttp://dbpedia.org/class/yago/TributariesOfLakeHuron
p625
aVhttp://dbpedia.org/resource/French_River_(Ontario)
tp626
aaa(lp627
(lp628
a(lp629
((lp630
Vhttp://www.w3.org/2002/07/owl#Thing
p631
aVhttp://dbpedia.org/ontology/Place
p632
aVhttp://dbpedia.org/ontology/Location
p633
aVhttp://www.wikidata.org/entity/Q486972
p634
aVhttp://www.wikidata.org/entity/Q6256
p635
aVhttp://dbpedia.org/ontology/Country
p636
aVhttp://dbpedia.org/ontology/PopulatedPlace
p637
aVhttp://www.w3.org/2003/01/geo/wgs84_pos#SpatialThing
p638
aVhttp://schema.org/Country
p639
aVhttp://schema.org/Place
p640
aVhttp://umbel.org/umbel/rc/Country
p641
aVhttp://umbel.org/umbel/rc/Location_Underspecified
p642
aVhttp://umbel.org/umbel/rc/PopulatedPlace
p643
aVhttp://dbpedia.org/class/yago/Abstraction100002137
p644
aVhttp://dbpedia.org/class/yago/AdministrativeDistrict108491826
p645
aVhttp://dbpedia.org/class/yago/AfricanCountries
p646
aVhttp://dbpedia.org/class/yago/AfricanUnionMemberEconomies
p647
aVhttp://dbpedia.org/class/yago/Country108544813
p648
aVhttp://dbpedia.org/class/yago/District108552138
p649
aVhttp://dbpedia.org/class/yago/Economy108366753
p650
aVhttp://dbpedia.org/class/yago/Group100031264
p651
aVhttp://dbpedia.org/class/yago/Location100027167
p652
aVhttp://dbpedia.org/class/yago/Object100002684
p653
aVhttp://dbpedia.org/class/yago/Region108630985
p654
aVhttp://dbpedia.org/class/yago/System108435388
p655
aVhttp://dbpedia.org/class/yago/YagoGeoEntity
p656
aVhttp://dbpedia.org/class/yago/YagoLegalActorGeo
p657
aVhttp://dbpedia.org/class/yago/French-speakingCountries
p658
aVhttp://dbpedia.org/class/yago/PhysicalEntity100001930
p659
aVhttp://dbpedia.org/class/yago/YagoPermanentlyLocatedEntity
p660
aVhttp://dbpedia.org/class/yago/LandlockedCountries
p661
aVhttp://dbpedia.org/class/yago/LeastDevelopedCountries
p662
aVhttp://dbpedia.org/class/yago/MemberStatesOfLaFrancophonie
p663
aVhttp://dbpedia.org/class/yago/MemberStatesOfTheAfricanUnion
p664
aVhttp://dbpedia.org/class/yago/MemberStatesOfTheOrganisationOfIslamicCooperation
p665
aVhttp://dbpedia.org/class/yago/MemberStatesOfTheUnitedNations
p666
aVhttp://dbpedia.org/class/yago/StatesAndTerritoriesEstablishedIn1960
p667
aVhttp://dbpedia.org/class/yago/WorldTradeOrganizationMemberEconomies
p668
aVhttp://dbpedia.org/resource/Burkina_Faso
tp669
aa(lp670
a(lp671
((lp672
Vhttp://dbpedia.org/class/yago/Abstraction100002137
p673
aVhttp://dbpedia.org/class/yago/Communication100033020
p674
aVhttp://dbpedia.org/class/yago/Language106282651
p675
aVhttp://dbpedia.org/class/yago/Niger%E2%80%93CongoLanguages
p676
aVhttp://dbpedia.org/class/yago/Nilo-SaharanLanguages
p677
aVhttp://dbpedia.org/resource/Sudanic_languages
tp678
aa(lp679
((lp680
Vhttp://www.w3.org/2002/07/owl#Thing
p681
aVhttp://dbpedia.org/ontology/Place
p682
aVhttp://dbpedia.org/ontology/Location
p683
aVhttp://www.wikidata.org/entity/Q4022
p684
aVhttp://www.wikidata.org/entity/Q47521
p685
aVhttp://dbpedia.org/ontology/BodyOfWater
p686
aVhttp://dbpedia.org/ontology/NaturalPlace
p687
aVhttp://dbpedia.org/ontology/River
p688
aVhttp://dbpedia.org/ontology/Stream
p689
aVhttp://schema.org/BodyOfWater
p690
aVhttp://schema.org/Place
p691
aVhttp://schema.org/RiverBodyOfWater
p692
aVhttp://umbel.org/umbel/rc/BodyOfWater
p693
aVhttp://umbel.org/umbel/rc/River
p694
aVhttp://umbel.org/umbel/rc/Stream
p695
aVhttp://dbpedia.org/class/yago/BodyOfWater109225146
p696
aVhttp://dbpedia.org/class/yago/Branch109228324
p697
aVhttp://dbpedia.org/class/yago/CanadianHeritageRivers
p698
aVhttp://dbpedia.org/class/yago/River109411430
p699
aVhttp://dbpedia.org/class/yago/Stream109448361
p700
aVhttp://dbpedia.org/class/yago/Thing100002452
p701
aVhttp://dbpedia.org/class/yago/YagoGeoEntity
p702
aVhttp://dbpedia.org/class/yago/Feeder109278997
p703
aVhttp://dbpedia.org/class/yago/PhysicalEntity100001930
p704
aVhttp://dbpedia.org/class/yago/YagoPermanentlyLocatedEntity
p705
aVhttp://dbpedia.org/class/yago/RiversOfOntario
p706
aVhttp://dbpedia.org/class/yago/TributariesOfLakeHuron
p707
aVhttp://dbpedia.org/resource/French_River_(Ontario)
tp708
aaa(lp709
(lp710
a(lp711
((lp712
Vhttp://www.w3.org/2002/07/owl#Thing
p713
aVhttp://dbpedia.org/ontology/Place
p714
aVhttp://dbpedia.org/ontology/Location
p715
aVhttp://www.wikidata.org/entity/Q486972
p716
aVhttp://www.wikidata.org/entity/Q6256
p717
aVhttp://dbpedia.org/ontology/Country
p718
aVhttp://dbpedia.org/ontology/PopulatedPlace
p719
aVhttp://www.w3.org/2003/01/geo/wgs84_pos#SpatialThing
p720
aVhttp://schema.org/Country
p721
aVhttp://schema.org/Place
p722
aVhttp://umbel.org/umbel/rc/Country
p723
aVhttp://umbel.org/umbel/rc/Location_Underspecified
p724
aVhttp://umbel.org/umbel/rc/PopulatedPlace
p725
aVhttp://dbpedia.org/class/yago/Abstraction100002137
p726
aVhttp://dbpedia.org/class/yago/AdministrativeDistrict108491826
p727
aVhttp://dbpedia.org/class/yago/AfricanCountries
p728
aVhttp://dbpedia.org/class/yago/AfricanUnionMemberEconomies
p729
aVhttp://dbpedia.org/class/yago/BantuCountriesAndTerritories
p730
aVhttp://dbpedia.org/class/yago/Country108544813
p731
aVhttp://dbpedia.org/class/yago/District108552138
p732
aVhttp://dbpedia.org/class/yago/Economy108366753
p733
aVhttp://dbpedia.org/class/yago/Group100031264
p734
aVhttp://dbpedia.org/class/yago/Location100027167
p735
aVhttp://dbpedia.org/class/yago/Object100002684
p736
aVhttp://dbpedia.org/class/yago/Region108630985
p737
aVhttp://dbpedia.org/class/yago/System108435388
p738
aVhttp://dbpedia.org/class/yago/YagoGeoEntity
p739
aVhttp://dbpedia.org/class/yago/YagoLegalActorGeo
p740
aVhttp://dbpedia.org/class/yago/English-speakingCountriesAndTerritories
p741
aVhttp://dbpedia.org/class/yago/French-speakingCountries
p742
aVhttp://dbpedia.org/class/yago/PhysicalEntity100001930
p743
aVhttp://dbpedia.org/class/yago/YagoPermanentlyLocatedEntity
p744
aVhttp://dbpedia.org/class/yago/LandlockedCountries
p745
aVhttp://dbpedia.org/class/yago/LeastDevelopedCountries
p746
aVhttp://dbpedia.org/class/yago/MemberStatesOfTheAfricanUnion
p747
aVhttp://dbpedia.org/class/yago/MemberStatesOfTheCommonwealthOfNations
p748
aVhttp://dbpedia.org/class/yago/MemberStatesOfTheUnitedNations
p749
aVhttp://dbpedia.org/class/yago/StatesAndTerritoriesEstablishedIn1962
p750
aVhttp://dbpedia.org/class/yago/Swahili-speakingCountriesAndTerritories
p751
aVhttp://dbpedia.org/class/yago/WorldTradeOrganizationMemberEconomies
p752
aVhttp://dbpedia.org/resource/Rwanda
tp753
aa(lp754
a(lp755
a(lp756
aa(lp757
(lp758
a(lp759
((lp760
Vhttp://www.w3.org/2002/07/owl#Thing
p761
aVhttp://dbpedia.org/ontology/Place
p762
aVhttp://dbpedia.org/ontology/Location
p763
aVhttp://www.wikidata.org/entity/Q486972
p764
aVhttp://www.wikidata.org/entity/Q6256
p765
aVhttp://dbpedia.org/ontology/Country
p766
aVhttp://dbpedia.org/ontology/PopulatedPlace
p767
aVhttp://www.w3.org/2003/01/geo/wgs84_pos#SpatialThing
p768
aVhttp://schema.org/Country
p769
aVhttp://schema.org/Place
p770
aVhttp://umbel.org/umbel/rc/Country
p771
aVhttp://umbel.org/umbel/rc/Location_Underspecified
p772
aVhttp://umbel.org/umbel/rc/PopulatedPlace
p773
aVhttp://dbpedia.org/class/yago/Abstraction100002137
p774
aVhttp://dbpedia.org/class/yago/AdministrativeDistrict108491826
p775
aVhttp://dbpedia.org/class/yago/AfricanCountries
p776
aVhttp://dbpedia.org/class/yago/AfricanUnionMemberEconomies
p777
aVhttp://dbpedia.org/class/yago/Country108544813
p778
aVhttp://dbpedia.org/class/yago/District108552138
p779
aVhttp://dbpedia.org/class/yago/Economy108366753
p780
aVhttp://dbpedia.org/class/yago/Group100031264
p781
aVhttp://dbpedia.org/class/yago/Island109316454
p782
aVhttp://dbpedia.org/class/yago/Land109334396
p783
aVhttp://dbpedia.org/class/yago/Location100027167
p784
aVhttp://dbpedia.org/class/yago/Object100002684
p785
aVhttp://dbpedia.org/class/yago/Region108630985
p786
aVhttp://dbpedia.org/class/yago/State108654360
p787
aVhttp://dbpedia.org/class/yago/System108435388
p788
aVhttp://dbpedia.org/class/yago/YagoGeoEntity
p789
aVhttp://dbpedia.org/class/yago/YagoLegalActorGeo
p790
aVhttp://dbpedia.org/class/yago/CountriesOfTheIndianOcean
p791
aVhttp://dbpedia.org/class/yago/French-speakingCountries
p792
aVhttp://dbpedia.org/class/yago/PhysicalEntity100001930
p793
aVhttp://dbpedia.org/class/yago/YagoPermanentlyLocatedEntity
p794
aVhttp://dbpedia.org/class/yago/IslandCountries
p795
aVhttp://dbpedia.org/class/yago/IslandsOfAfrica
p796
aVhttp://dbpedia.org/class/yago/IslandsOfMadagascar
p797
aVhttp://dbpedia.org/class/yago/LeastDevelopedCountries
p798
aVhttp://dbpedia.org/class/yago/MemberStatesOfLaFrancophonie
p799
aVhttp://dbpedia.org/class/yago/MemberStatesOfTheAfricanUnion
p800
aVhttp://dbpedia.org/class/yago/MemberStatesOfTheUnitedNations
p801
aVhttp://dbpedia.org/class/yago/PhysiographicProvinces
p802
aVhttp://dbpedia.org/class/yago/StatesAndTerritoriesEstablishedIn1960
p803
aVhttp://dbpedia.org/class/yago/WorldTradeOrganizationMemberEconomies
p804
aVhttp://dbpedia.org/resource/Madagascar
tp805
aa(lp806
a(lp807
((lp808
Vhttp://www.w3.org/2002/07/owl#Thing
p809
aVhttp://dbpedia.org/ontology/Place
p810
aVhttp://dbpedia.org/ontology/Location
p811
aVhttp://www.wikidata.org/entity/Q486972
p812
aVhttp://www.wikidata.org/entity/Q6256
p813
aVhttp://dbpedia.org/ontology/Country
p814
aVhttp://dbpedia.org/ontology/PopulatedPlace
p815
aVhttp://www.w3.org/2003/01/geo/wgs84_pos#SpatialThing
p816
aVhttp://schema.org/Country
p817
aVhttp://schema.org/Place
p818
aVhttp://umbel.org/umbel/rc/Country
p819
aVhttp://umbel.org/umbel/rc/Location_Underspecified
p820
aVhttp://umbel.org/umbel/rc/PopulatedPlace
p821
aVhttp://dbpedia.org/class/yago/Abstraction100002137
p822
aVhttp://dbpedia.org/class/yago/AdministrativeDistrict108491826
p823
aVhttp://dbpedia.org/class/yago/AfricanCountries
p824
aVhttp://dbpedia.org/class/yago/AfricanUnionMemberEconomies
p825
aVhttp://dbpedia.org/class/yago/Country108544813
p826
aVhttp://dbpedia.org/class/yago/District108552138
p827
aVhttp://dbpedia.org/class/yago/Economy108366753
p828
aVhttp://dbpedia.org/class/yago/Group100031264
p829
aVhttp://dbpedia.org/class/yago/Island109316454
p830
aVhttp://dbpedia.org/class/yago/Land109334396
p831
aVhttp://dbpedia.org/class/yago/Location100027167
p832
aVhttp://dbpedia.org/class/yago/Object100002684
p833
aVhttp://dbpedia.org/class/yago/Region108630985
p834
aVhttp://dbpedia.org/class/yago/State108654360
p835
aVhttp://dbpedia.org/class/yago/System108435388
p836
aVhttp://dbpedia.org/class/yago/YagoGeoEntity
p837
aVhttp://dbpedia.org/class/yago/YagoLegalActorGeo
p838
aVhttp://dbpedia.org/class/yago/CountriesOfTheIndianOcean
p839
aVhttp://dbpedia.org/class/yago/French-speakingCountries
p840
aVhttp://dbpedia.org/class/yago/PhysicalEntity100001930
p841
aVhttp://dbpedia.org/class/yago/YagoPermanentlyLocatedEntity
p842
aVhttp://dbpedia.org/class/yago/IslandCountries
p843
aVhttp://dbpedia.org/class/yago/IslandsOfAfrica
p844
aVhttp://dbpedia.org/class/yago/IslandsOfMadagascar
p845
aVhttp://dbpedia.org/class/yago/LeastDevelopedCountries
p846
aVhttp://dbpedia.org/class/yago/MemberStatesOfLaFrancophonie
p847
aVhttp://dbpedia.org/class/yago/MemberStatesOfTheAfricanUnion
p848
aVhttp://dbpedia.org/class/yago/MemberStatesOfTheUnitedNations
p849
aVhttp://dbpedia.org/class/yago/PhysiographicProvinces
p850
aVhttp://dbpedia.org/class/yago/StatesAndTerritoriesEstablishedIn1960
p851
aVhttp://dbpedia.org/class/yago/WorldTradeOrganizationMemberEconomies
p852
aVhttp://dbpedia.org/resource/Madagascar
tp853
aa(lp854
aa(lp855
(lp856
a(lp857
((lp858
Vhttp://www.w3.org/2002/07/owl#Thing
p859
aVhttp://dbpedia.org/ontology/Place
p860
aVhttp://dbpedia.org/ontology/Location
p861
aVhttp://www.wikidata.org/entity/Q486972
p862
aVhttp://www.wikidata.org/entity/Q6256
p863
aVhttp://dbpedia.org/ontology/Country
p864
aVhttp://dbpedia.org/ontology/PopulatedPlace
p865
aVhttp://www.w3.org/2003/01/geo/wgs84_pos#SpatialThing
p866
aVhttp://schema.org/Country
p867
aVhttp://schema.org/Place
p868
aVhttp://umbel.org/umbel/rc/Country
p869
aVhttp://umbel.org/umbel/rc/Location_Underspecified
p870
aVhttp://umbel.org/umbel/rc/PopulatedPlace
p871
aVhttp://dbpedia.org/class/yago/Abstraction100002137
p872
aVhttp://dbpedia.org/class/yago/AdministrativeDistrict108491826
p873
aVhttp://dbpedia.org/class/yago/Country108544813
p874
aVhttp://dbpedia.org/class/yago/District108552138
p875
aVhttp://dbpedia.org/class/yago/Economy108366753
p876
aVhttp://dbpedia.org/class/yago/Group100031264
p877
aVhttp://dbpedia.org/class/yago/Location100027167
p878
aVhttp://dbpedia.org/class/yago/Object100002684
p879
aVhttp://dbpedia.org/class/yago/Region108630985
p880
aVhttp://dbpedia.org/class/yago/System108435388
p881
aVhttp://dbpedia.org/class/yago/YagoGeoEntity
p882
aVhttp://dbpedia.org/class/yago/YagoLegalActorGeo
p883
aVhttp://dbpedia.org/class/yago/CountriesBorderingTheSouthChinaSea
p884
aVhttp://dbpedia.org/class/yago/French-speakingCountries
p885
aVhttp://dbpedia.org/class/yago/PhysicalEntity100001930
p886
aVhttp://dbpedia.org/class/yago/YagoPermanentlyLocatedEntity
p887
aVhttp://dbpedia.org/class/yago/LeastDevelopedCountries
p888
aVhttp://dbpedia.org/class/yago/MemberStatesOfLaFrancophonie
p889
aVhttp://dbpedia.org/class/yago/MemberStatesOfTheAssociationOfSoutheastAsianNations
p890
aVhttp://dbpedia.org/class/yago/MemberStatesOfTheUnitedNations
p891
aVhttp://dbpedia.org/class/yago/SoutheastAsianCountries
p892
aVhttp://dbpedia.org/class/yago/StatesAndTerritoriesEstablishedIn1953
p893
aVhttp://dbpedia.org/class/yago/StatesAndTerritoriesEstablishedIn802
p894
aVhttp://dbpedia.org/class/yago/WorldTradeOrganizationMemberEconomies
p895
aVhttp://dbpedia.org/resource/Cambodia
tp896
aa(lp897
a(lp898
((lp899
Vhttp://www.w3.org/2002/07/owl#Thing
p900
aVhttp://dbpedia.org/ontology/Place
p901
aVhttp://dbpedia.org/ontology/Location
p902
aVhttp://www.wikidata.org/entity/Q486972
p903
aVhttp://www.wikidata.org/entity/Q6256
p904
aVhttp://dbpedia.org/ontology/Country
p905
aVhttp://dbpedia.org/ontology/PopulatedPlace
p906
aVhttp://schema.org/Country
p907
aVhttp://schema.org/Place
p908
aVhttp://umbel.org/umbel/rc/Country
p909
aVhttp://dbpedia.org/class/yago/AdministrativeDistrict108491826
p910
aVhttp://dbpedia.org/class/yago/Country108544813
p911
aVhttp://dbpedia.org/class/yago/District108552138
p912
aVhttp://dbpedia.org/class/yago/Location100027167
p913
aVhttp://dbpedia.org/class/yago/Object100002684
p914
aVhttp://dbpedia.org/class/yago/Region108630985
p915
aVhttp://dbpedia.org/class/yago/YagoGeoEntity
p916
aVhttp://dbpedia.org/class/yago/YagoLegalActorGeo
p917
aVhttp://dbpedia.org/class/yago/FormerCountriesInAsia
p918
aVhttp://dbpedia.org/class/yago/PhysicalEntity100001930
p919
aVhttp://dbpedia.org/class/yago/YagoPermanentlyLocatedEntity
p920
aVhttp://dbpedia.org/class/yago/StatesAndTerritoriesEstablishedIn1970
p921
aVhttp://dbpedia.org/resource/Khmer_Republic
tp922
aa(lp923
aa(lp924
(lp925
a(lp926
((lp927
Vhttp://www.w3.org/2002/07/owl#Thing
p928
aVhttp://dbpedia.org/ontology/Place
p929
aVhttp://dbpedia.org/ontology/Location
p930
aVhttp://www.wikidata.org/entity/Q486972
p931
aVhttp://www.wikidata.org/entity/Q6256
p932
aVhttp://dbpedia.org/ontology/Country
p933
aVhttp://dbpedia.org/ontology/PopulatedPlace
p934
aVhttp://schema.org/Country
p935
aVhttp://schema.org/Place
p936
aVhttp://umbel.org/umbel/rc/Country
p937
aVhttp://umbel.org/umbel/rc/Location_Underspecified
p938
aVhttp://umbel.org/umbel/rc/PopulatedPlace
p939
aVhttp://dbpedia.org/class/yago/Abstraction100002137
p940
aVhttp://dbpedia.org/class/yago/AdministrativeDistrict108491826
p941
aVhttp://dbpedia.org/class/yago/AfricanCountries
p942
aVhttp://dbpedia.org/class/yago/AfricanUnionMemberEconomies
p943
aVhttp://dbpedia.org/class/yago/BantuCountriesAndTerritories
p944
aVhttp://dbpedia.org/class/yago/Country108544813
p945
aVhttp://dbpedia.org/class/yago/District108552138
p946
aVhttp://dbpedia.org/class/yago/Economy108366753
p947
aVhttp://dbpedia.org/class/yago/Group100031264
p948
aVhttp://dbpedia.org/class/yago/Location100027167
p949
aVhttp://dbpedia.org/class/yago/Object100002684
p950
aVhttp://dbpedia.org/class/yago/Region108630985
p951
aVhttp://dbpedia.org/class/yago/System108435388
p952
aVhttp://dbpedia.org/class/yago/YagoGeoEntity
p953
aVhttp://dbpedia.org/class/yago/YagoLegalActorGeo
p954
aVhttp://dbpedia.org/class/yago/CountriesOfTheIndianOcean
p955
aVhttp://dbpedia.org/class/yago/English-speakingCountriesAndTerritories
p956
aVhttp://dbpedia.org/class/yago/PhysicalEntity100001930
p957
aVhttp://dbpedia.org/class/yago/YagoPermanentlyLocatedEntity
p958
aVhttp://dbpedia.org/class/yago/LeastDevelopedCountries
p959
aVhttp://dbpedia.org/class/yago/MemberStatesOfTheAfricanUnion
p960
aVhttp://dbpedia.org/class/yago/MemberStatesOfTheCommonwealthOfNations
p961
aVhttp://dbpedia.org/class/yago/MemberStatesOfTheUnitedNations
p962
aVhttp://dbpedia.org/class/yago/StatesAndTerritoriesEstablishedIn1964
p963
aVhttp://dbpedia.org/class/yago/Swahili-speakingCountriesAndTerritories
p964
aVhttp://dbpedia.org/class/yago/WorldTradeOrganizationMemberEconomies
p965
aVhttp://dbpedia.org/resource/Tanzania
tp966
aa(lp967
a(lp968
((lVhttp://dbpedia.org/resource/Swahili_culture
tp969
aa(lp970
aa(lp971
(lp972
a(lp973
((lp974
Vhttp://www.w3.org/2002/07/owl#Thing
p975
aVhttp://dbpedia.org/ontology/Place
p976
aVhttp://dbpedia.org/ontology/Location
p977
aVhttp://www.wikidata.org/entity/Q486972
p978
aVhttp://www.wikidata.org/entity/Q6256
p979
aVhttp://dbpedia.org/ontology/Country
p980
aVhttp://dbpedia.org/ontology/PopulatedPlace
p981
aVhttp://www.w3.org/2003/01/geo/wgs84_pos#SpatialThing
p982
aVhttp://schema.org/Country
p983
aVhttp://schema.org/Place
p984
aVhttp://umbel.org/umbel/rc/Country
p985
aVhttp://umbel.org/umbel/rc/Location_Underspecified
p986
aVhttp://umbel.org/umbel/rc/PopulatedPlace
p987
aVhttp://dbpedia.org/class/yago/Abstraction100002137
p988
aVhttp://dbpedia.org/class/yago/AdministrativeDistrict108491826
p989
aVhttp://dbpedia.org/class/yago/AfricanCountries
p990
aVhttp://dbpedia.org/class/yago/AfricanUnionMemberEconomies
p991
aVhttp://dbpedia.org/class/yago/Country108544813
p992
aVhttp://dbpedia.org/class/yago/District108552138
p993
aVhttp://dbpedia.org/class/yago/Economy108366753
p994
aVhttp://dbpedia.org/class/yago/Group100031264
p995
aVhttp://dbpedia.org/class/yago/Location100027167
p996
aVhttp://dbpedia.org/class/yago/Object100002684
p997
aVhttp://dbpedia.org/class/yago/Region108630985
p998
aVhttp://dbpedia.org/class/yago/System108435388
p999
aVhttp://dbpedia.org/class/yago/YagoGeoEntity
p1000
aVhttp://dbpedia.org/class/yago/YagoLegalActorGeo
p1001
aVhttp://dbpedia.org/class/yago/CountriesBorderingTheAtlanticOcean
p1002
aVhttp://dbpedia.org/class/yago/Developing8CountriesMemberStates
p1003
aVhttp://dbpedia.org/class/yago/English-speakingCountriesAndTerritories
p1004
aVhttp://dbpedia.org/class/yago/PhysicalEntity100001930
p1005
aVhttp://dbpedia.org/class/yago/YagoPermanentlyLocatedEntity
p1006
aVhttp://dbpedia.org/class/yago/MemberStatesOfOPEC
p1007
aVhttp://dbpedia.org/class/yago/MemberStatesOfTheAfricanUnion
p1008
aVhttp://dbpedia.org/class/yago/MemberStatesOfTheCommonwealthOfNations
p1009
aVhttp://dbpedia.org/class/yago/MemberStatesOfTheOrganisationOfIslamicCooperation
p1010
aVhttp://dbpedia.org/class/yago/MemberStatesOfTheUnitedNations
p1011
aVhttp://dbpedia.org/class/yago/StatesAndTerritoriesEstablishedIn1960
p1012
aVhttp://dbpedia.org/class/yago/WorldTradeOrganizationMemberEconomies
p1013
aVhttp://dbpedia.org/resource/Nigeria
tp1014
aa(lp1015
a(lp1016
a(lp1017
((lp1018
Vhttp://www.w3.org/2002/07/owl#Thing
p1019
aVhttp://dbpedia.org/ontology/Place
p1020
aVhttp://dbpedia.org/ontology/Location
p1021
aVhttp://www.wikidata.org/entity/Q3957
p1022
aVhttp://www.wikidata.org/entity/Q486972
p1023
aVhttp://dbpedia.org/ontology/PopulatedPlace
p1024
aVhttp://dbpedia.org/ontology/Settlement
p1025
aVhttp://dbpedia.org/ontology/Town
p1026
aVhttp://www.w3.org/2003/01/geo/wgs84_pos#SpatialThing
p1027
aVhttp://schema.org/Place
p1028
aVhttp://umbel.org/umbel/rc/Town
p1029
aVhttp://dbpedia.org/class/yago/AdministrativeDistrict108491826
p1030
aVhttp://dbpedia.org/class/yago/Area108497294
p1031
aVhttp://dbpedia.org/class/yago/Center108523483
p1032
aVhttp://dbpedia.org/class/yago/District108552138
p1033
aVhttp://dbpedia.org/class/yago/Location100027167
p1034
aVhttp://dbpedia.org/class/yago/Object100002684
p1035
aVhttp://dbpedia.org/class/yago/Region108630985
p1036
aVhttp://dbpedia.org/class/yago/Seat108647945
p1037
aVhttp://dbpedia.org/class/yago/Site108651247
p1038
aVhttp://dbpedia.org/class/yago/Town108665504
p1039
aVhttp://dbpedia.org/class/yago/Tract108673395
p1040
aVhttp://dbpedia.org/class/yago/UrbanArea108675967
p1041
aVhttp://dbpedia.org/class/yago/YagoGeoEntity
p1042
aVhttp://dbpedia.org/class/yago/YagoLegalActorGeo
p1043
aVhttp://dbpedia.org/class/yago/CountySeat108547143
p1044
aVhttp://dbpedia.org/class/yago/CountySeatsInIndiana
p1045
aVhttp://dbpedia.org/class/yago/GeographicalArea108574314
p1046
aVhttp://dbpedia.org/class/yago/Municipality108626283
p1047
aVhttp://dbpedia.org/class/yago/PhysicalEntity100001930
p1048
aVhttp://dbpedia.org/class/yago/YagoPermanentlyLocatedEntity
p1049
aVhttp://dbpedia.org/class/yago/PopulatedPlacesInCrawfordCounty,Indiana
p1050
aVhttp://dbpedia.org/class/yago/TownsInIndiana
p1051
aVhttp://dbpedia.org/resource/English,_Indiana
tp1052
aaa(lp1053
(lp1054
a(lp1055
((lp1056
Vhttp://www.w3.org/2002/07/owl#Thing
p1057
aVhttp://dbpedia.org/ontology/Place
p1058
aVhttp://dbpedia.org/ontology/Location
p1059
aVhttp://www.wikidata.org/entity/Q486972
p1060
aVhttp://www.wikidata.org/entity/Q6256
p1061
aVhttp://dbpedia.org/ontology/Country
p1062
aVhttp://dbpedia.org/ontology/PopulatedPlace
p1063
aVhttp://www.w3.org/2003/01/geo/wgs84_pos#SpatialThing
p1064
aVhttp://schema.org/Country
p1065
aVhttp://schema.org/Place
p1066
aVhttp://umbel.org/umbel/rc/Country
p1067
aVhttp://umbel.org/umbel/rc/Location_Underspecified
p1068
aVhttp://umbel.org/umbel/rc/PopulatedPlace
p1069
aVhttp://dbpedia.org/class/yago/Abstraction100002137
p1070
aVhttp://dbpedia.org/class/yago/AdministrativeDistrict108491826
p1071
aVhttp://dbpedia.org/class/yago/AfricanCountries
p1072
aVhttp://dbpedia.org/class/yago/AfricanUnionMemberEconomies
p1073
aVhttp://dbpedia.org/class/yago/BantuCountriesAndTerritories
p1074
aVhttp://dbpedia.org/class/yago/Country108544813
p1075
aVhttp://dbpedia.org/class/yago/District108552138
p1076
aVhttp://dbpedia.org/class/yago/Economy108366753
p1077
aVhttp://dbpedia.org/class/yago/Group100031264
p1078
aVhttp://dbpedia.org/class/yago/Location100027167
p1079
aVhttp://dbpedia.org/class/yago/Object100002684
p1080
aVhttp://dbpedia.org/class/yago/Region108630985
p1081
aVhttp://dbpedia.org/class/yago/System108435388
p1082
aVhttp://dbpedia.org/class/yago/YagoGeoEntity
p1083
aVhttp://dbpedia.org/class/yago/YagoLegalActorGeo
p1084
aVhttp://dbpedia.org/class/yago/CountriesBorderingTheAtlanticOcean
p1085
aVhttp://dbpedia.org/class/yago/PhysicalEntity100001930
p1086
aVhttp://dbpedia.org/class/yago/YagoPermanentlyLocatedEntity
p1087
aVhttp://dbpedia.org/class/yago/LeastDevelopedCountries
p1088
aVhttp://dbpedia.org/class/yago/MemberStatesOfOPEC
p1089
aVhttp://dbpedia.org/class/yago/MemberStatesOfTheAfricanUnion
p1090
aVhttp://dbpedia.org/class/yago/MemberStatesOfTheCommunityOfPortugueseLanguageCountries
p1091
aVhttp://dbpedia.org/class/yago/MemberStatesOfTheUnitedNations
p1092
aVhttp://dbpedia.org/class/yago/Portuguese-speakingCountries
p1093
aVhttp://dbpedia.org/class/yago/StatesAndTerritoriesEstablishedIn1975
p1094
aVhttp://dbpedia.org/class/yago/WorldTradeOrganizationMemberEconomies
p1095
aVhttp://dbpedia.org/resource/Angola
tp1096
aa(lp1097
a(lp1098
((lVhttp://dbpedia.org/resource/Bantustan
tp1099
aa(lp1100
((lVhttp://dbpedia.org/resource/Portuguese
tp1101
aaa(lp1102
(lp1103
a(lp1104
((lp1105
Vhttp://www.w3.org/2002/07/owl#Thing
p1106
aVhttp://dbpedia.org/ontology/Place
p1107
aVhttp://dbpedia.org/ontology/Location
p1108
aVhttp://www.wikidata.org/entity/Q486972
p1109
aVhttp://www.wikidata.org/entity/Q6256
p1110
aVhttp://dbpedia.org/ontology/Country
p1111
aVhttp://dbpedia.org/ontology/PopulatedPlace
p1112
aVhttp://www.w3.org/2003/01/geo/wgs84_pos#SpatialThing
p1113
aVhttp://schema.org/Country
p1114
aVhttp://schema.org/Place
p1115
aVhttp://umbel.org/umbel/rc/Country
p1116
aVhttp://umbel.org/umbel/rc/Location_Underspecified
p1117
aVhttp://umbel.org/umbel/rc/PopulatedPlace
p1118
aVhttp://dbpedia.org/class/yago/Abstraction100002137
p1119
aVhttp://dbpedia.org/class/yago/AdministrativeDistrict108491826
p1120
aVhttp://dbpedia.org/class/yago/Country108544813
p1121
aVhttp://dbpedia.org/class/yago/District108552138
p1122
aVhttp://dbpedia.org/class/yago/Economy108366753
p1123
aVhttp://dbpedia.org/class/yago/Group100031264
p1124
aVhttp://dbpedia.org/class/yago/Location100027167
p1125
aVhttp://dbpedia.org/class/yago/Object100002684
p1126
aVhttp://dbpedia.org/class/yago/Region108630985
p1127
aVhttp://dbpedia.org/class/yago/System108435388
p1128
aVhttp://dbpedia.org/class/yago/YagoGeoEntity
p1129
aVhttp://dbpedia.org/class/yago/YagoLegalActorGeo
p1130
aVhttp://dbpedia.org/class/yago/CommunistStates
p1131
aVhttp://dbpedia.org/class/yago/French-speakingCountries
p1132
aVhttp://dbpedia.org/class/yago/PhysicalEntity100001930
p1133
aVhttp://dbpedia.org/class/yago/YagoPermanentlyLocatedEntity
p1134
aVhttp://dbpedia.org/class/yago/LandlockedCountries
p1135
aVhttp://dbpedia.org/class/yago/LeastDevelopedCountries
p1136
aVhttp://dbpedia.org/class/yago/MemberStatesOfLaFrancophonie
p1137
aVhttp://dbpedia.org/class/yago/MemberStatesOfTheAssociationOfSoutheastAsianNations
p1138
aVhttp://dbpedia.org/class/yago/MemberStatesOfTheUnitedNations
p1139
aVhttp://dbpedia.org/class/yago/Single-partyStates
p1140
aVhttp://dbpedia.org/class/yago/SocialistStates
p1141
aVhttp://dbpedia.org/class/yago/SoutheastAsianCountries
p1142
aVhttp://dbpedia.org/class/yago/StatesAndTerritoriesEstablishedIn1949
p1143
aVhttp://dbpedia.org/resource/Laos
tp1144
aa(lp1145
a(lp1146
((lp1147
Vhttp://www.w3.org/2002/07/owl#Thing
p1148
aVhttp://dbpedia.org/ontology/Place
p1149
aVhttp://dbpedia.org/ontology/Location
p1150
aVhttp://www.wikidata.org/entity/Q486972
p1151
aVhttp://www.wikidata.org/entity/Q6256
p1152
aVhttp://dbpedia.org/ontology/Country
p1153
aVhttp://dbpedia.org/ontology/PopulatedPlace
p1154
aVhttp://www.w3.org/2003/01/geo/wgs84_pos#SpatialThing
p1155
aVhttp://schema.org/Country
p1156
aVhttp://schema.org/Place
p1157
aVhttp://umbel.org/umbel/rc/Country
p1158
aVhttp://umbel.org/umbel/rc/Location_Underspecified
p1159
aVhttp://umbel.org/umbel/rc/PopulatedPlace
p1160
aVhttp://dbpedia.org/class/yago/Abstraction100002137
p1161
aVhttp://dbpedia.org/class/yago/AdministrativeDistrict108491826
p1162
aVhttp://dbpedia.org/class/yago/Country108544813
p1163
aVhttp://dbpedia.org/class/yago/District108552138
p1164
aVhttp://dbpedia.org/class/yago/Economy108366753
p1165
aVhttp://dbpedia.org/class/yago/Group100031264
p1166
aVhttp://dbpedia.org/class/yago/Location100027167
p1167
aVhttp://dbpedia.org/class/yago/Object100002684
p1168
aVhttp://dbpedia.org/class/yago/Region108630985
p1169
aVhttp://dbpedia.org/class/yago/System108435388
p1170
aVhttp://dbpedia.org/class/yago/YagoGeoEntity
p1171
aVhttp://dbpedia.org/class/yago/YagoLegalActorGeo
p1172
aVhttp://dbpedia.org/class/yago/CommunistStates
p1173
aVhttp://dbpedia.org/class/yago/French-speakingCountries
p1174
aVhttp://dbpedia.org/class/yago/PhysicalEntity100001930
p1175
aVhttp://dbpedia.org/class/yago/YagoPermanentlyLocatedEntity
p1176
aVhttp://dbpedia.org/class/yago/LandlockedCountries
p1177
aVhttp://dbpedia.org/class/yago/LeastDevelopedCountries
p1178
aVhttp://dbpedia.org/class/yago/MemberStatesOfLaFrancophonie
p1179
aVhttp://dbpedia.org/class/yago/MemberStatesOfTheAssociationOfSoutheastAsianNations
p1180
aVhttp://dbpedia.org/class/yago/MemberStatesOfTheUnitedNations
p1181
aVhttp://dbpedia.org/class/yago/Single-partyStates
p1182
aVhttp://dbpedia.org/class/yago/SocialistStates
p1183
aVhttp://dbpedia.org/class/yago/SoutheastAsianCountries
p1184
aVhttp://dbpedia.org/class/yago/StatesAndTerritoriesEstablishedIn1949
p1185
aVhttp://dbpedia.org/resource/Laos
tp1186
aa(lp1187
aa(lp1188
(lp1189
a(lp1190
((lp1191
Vhttp://www.w3.org/2002/07/owl#Thing
p1192
aVhttp://dbpedia.org/ontology/Place
p1193
aVhttp://dbpedia.org/ontology/Location
p1194
aVhttp://www.wikidata.org/entity/Q486972
p1195
aVhttp://www.wikidata.org/entity/Q6256
p1196
aVhttp://dbpedia.org/ontology/Country
p1197
aVhttp://dbpedia.org/ontology/PopulatedPlace
p1198
aVhttp://www.w3.org/2003/01/geo/wgs84_pos#SpatialThing
p1199
aVhttp://schema.org/Country
p1200
aVhttp://schema.org/Place
p1201
aVhttp://umbel.org/umbel/rc/Country
p1202
aVhttp://umbel.org/umbel/rc/Location_Underspecified
p1203
aVhttp://umbel.org/umbel/rc/PopulatedPlace
p1204
aVhttp://dbpedia.org/class/yago/Abstraction100002137
p1205
aVhttp://dbpedia.org/class/yago/AdministrativeDistrict108491826
p1206
aVhttp://dbpedia.org/class/yago/AfricanCountries
p1207
aVhttp://dbpedia.org/class/yago/AfricanUnionMemberEconomies
p1208
aVhttp://dbpedia.org/class/yago/Country108544813
p1209
aVhttp://dbpedia.org/class/yago/District108552138
p1210
aVhttp://dbpedia.org/class/yago/Economy108366753
p1211
aVhttp://dbpedia.org/class/yago/Group100031264
p1212
aVhttp://dbpedia.org/class/yago/Location100027167
p1213
aVhttp://dbpedia.org/class/yago/Object100002684
p1214
aVhttp://dbpedia.org/class/yago/Region108630985
p1215
aVhttp://dbpedia.org/class/yago/System108435388
p1216
aVhttp://dbpedia.org/class/yago/YagoGeoEntity
p1217
aVhttp://dbpedia.org/class/yago/YagoLegalActorGeo
p1218
aVhttp://dbpedia.org/class/yago/CountriesBorderingTheAtlanticOcean
p1219
aVhttp://dbpedia.org/class/yago/French-speakingCountries
p1220
aVhttp://dbpedia.org/class/yago/PhysicalEntity100001930
p1221
aVhttp://dbpedia.org/class/yago/YagoPermanentlyLocatedEntity
p1222
aVhttp://dbpedia.org/class/yago/LeastDevelopedCountries
p1223
aVhttp://dbpedia.org/class/yago/MemberStatesOfLaFrancophonie
p1224
aVhttp://dbpedia.org/class/yago/MemberStatesOfTheAfricanUnion
p1225
aVhttp://dbpedia.org/class/yago/MemberStatesOfTheOrganisationOfIslamicCooperation
p1226
aVhttp://dbpedia.org/class/yago/MemberStatesOfTheUnitedNations
p1227
aVhttp://dbpedia.org/class/yago/StatesAndTerritoriesEstablishedIn1960
p1228
aVhttp://dbpedia.org/class/yago/WorldTradeOrganizationMemberEconomies
p1229
aVhttp://dbpedia.org/resource/Togo
tp1230
aa(lp1231
a(lp1232
a(lp1233
((lp1234
Vhttp://www.w3.org/2002/07/owl#Thing
p1235
aVhttp://dbpedia.org/ontology/Place
p1236
aVhttp://dbpedia.org/ontology/Location
p1237
aVhttp://www.wikidata.org/entity/Q4022
p1238
aVhttp://www.wikidata.org/entity/Q47521
p1239
aVhttp://dbpedia.org/ontology/BodyOfWater
p1240
aVhttp://dbpedia.org/ontology/NaturalPlace
p1241
aVhttp://dbpedia.org/ontology/River
p1242
aVhttp://dbpedia.org/ontology/Stream
p1243
aVhttp://schema.org/BodyOfWater
p1244
aVhttp://schema.org/Place
p1245
aVhttp://schema.org/RiverBodyOfWater
p1246
aVhttp://umbel.org/umbel/rc/BodyOfWater
p1247
aVhttp://umbel.org/umbel/rc/River
p1248
aVhttp://umbel.org/umbel/rc/Stream
p1249
aVhttp://dbpedia.org/class/yago/BodyOfWater109225146
p1250
aVhttp://dbpedia.org/class/yago/Branch109228324
p1251
aVhttp://dbpedia.org/class/yago/CanadianHeritageRivers
p1252
aVhttp://dbpedia.org/class/yago/River109411430
p1253
aVhttp://dbpedia.org/class/yago/Stream109448361
p1254
aVhttp://dbpedia.org/class/yago/Thing100002452
p1255
aVhttp://dbpedia.org/class/yago/YagoGeoEntity
p1256
aVhttp://dbpedia.org/class/yago/Feeder109278997
p1257
aVhttp://dbpedia.org/class/yago/PhysicalEntity100001930
p1258
aVhttp://dbpedia.org/class/yago/YagoPermanentlyLocatedEntity
p1259
aVhttp://dbpedia.org/class/yago/RiversOfOntario
p1260
aVhttp://dbpedia.org/class/yago/TributariesOfLakeHuron
p1261
aVhttp://dbpedia.org/resource/French_River_(Ontario)
tp1262
aaa(lp1263
(lp1264
a(lp1265
((lp1266
Vhttp://www.w3.org/2002/07/owl#Thing
p1267
aVhttp://umbel.org/umbel/rc/Country
p1268
aVhttp://umbel.org/umbel/rc/Location_Underspecified
p1269
aVhttp://umbel.org/umbel/rc/PopulatedPlace
p1270
aVhttp://dbpedia.org/class/yago/Abstraction100002137
p1271
aVhttp://dbpedia.org/class/yago/AdministrativeDistrict108491826
p1272
aVhttp://dbpedia.org/class/yago/AfricanCountries
p1273
aVhttp://dbpedia.org/class/yago/AfricanUnionMemberEconomies
p1274
aVhttp://dbpedia.org/class/yago/BantuCountriesAndTerritories
p1275
aVhttp://dbpedia.org/class/yago/Country108544813
p1276
aVhttp://dbpedia.org/class/yago/District108552138
p1277
aVhttp://dbpedia.org/class/yago/Economy108366753
p1278
aVhttp://dbpedia.org/class/yago/Group100031264
p1279
aVhttp://dbpedia.org/class/yago/Location100027167
p1280
aVhttp://dbpedia.org/class/yago/Object100002684
p1281
aVhttp://dbpedia.org/class/yago/Region108630985
p1282
aVhttp://dbpedia.org/class/yago/System108435388
p1283
aVhttp://dbpedia.org/class/yago/YagoGeoEntity
p1284
aVhttp://dbpedia.org/class/yago/YagoLegalActorGeo
p1285
aVhttp://dbpedia.org/class/yago/English-speakingCountriesAndTerritories
p1286
aVhttp://dbpedia.org/class/yago/PhysicalEntity100001930
p1287
aVhttp://dbpedia.org/class/yago/YagoPermanentlyLocatedEntity
p1288
aVhttp://dbpedia.org/class/yago/LandlockedCountries
p1289
aVhttp://dbpedia.org/class/yago/LeastDevelopedCountries
p1290
aVhttp://dbpedia.org/class/yago/MemberStatesOfTheAfricanUnion
p1291
aVhttp://dbpedia.org/class/yago/MemberStatesOfTheCommonwealthOfNations
p1292
aVhttp://dbpedia.org/class/yago/MemberStatesOfTheOrganisationOfIslamicCooperation
p1293
aVhttp://dbpedia.org/class/yago/MemberStatesOfTheUnitedNations
p1294
aVhttp://dbpedia.org/class/yago/StatesAndTerritoriesEstablishedIn1962
p1295
aVhttp://dbpedia.org/class/yago/Swahili-speakingCountriesAndTerritories
p1296
aVhttp://dbpedia.org/class/yago/WorldTradeOrganizationMemberEconomies
p1297
aVhttp://dbpedia.org/resource/Uganda
tp1298
aa(lp1299
a(lp1300
a(lp1301
((lp1302
Vhttp://www.w3.org/2002/07/owl#Thing
p1303
aVhttp://dbpedia.org/ontology/Place
p1304
aVhttp://dbpedia.org/ontology/Location
p1305
aVhttp://www.wikidata.org/entity/Q3957
p1306
aVhttp://www.wikidata.org/entity/Q486972
p1307
aVhttp://dbpedia.org/ontology/PopulatedPlace
p1308
aVhttp://dbpedia.org/ontology/Settlement
p1309
aVhttp://dbpedia.org/ontology/Town
p1310
aVhttp://www.w3.org/2003/01/geo/wgs84_pos#SpatialThing
p1311
aVhttp://schema.org/Place
p1312
aVhttp://umbel.org/umbel/rc/Town
p1313
aVhttp://dbpedia.org/class/yago/AdministrativeDistrict108491826
p1314
aVhttp://dbpedia.org/class/yago/Area108497294
p1315
aVhttp://dbpedia.org/class/yago/Center108523483
p1316
aVhttp://dbpedia.org/class/yago/District108552138
p1317
aVhttp://dbpedia.org/class/yago/Location100027167
p1318
aVhttp://dbpedia.org/class/yago/Object100002684
p1319
aVhttp://dbpedia.org/class/yago/Region108630985
p1320
aVhttp://dbpedia.org/class/yago/Seat108647945
p1321
aVhttp://dbpedia.org/class/yago/Site108651247
p1322
aVhttp://dbpedia.org/class/yago/Town108665504
p1323
aVhttp://dbpedia.org/class/yago/Tract108673395
p1324
aVhttp://dbpedia.org/class/yago/UrbanArea108675967
p1325
aVhttp://dbpedia.org/class/yago/YagoGeoEntity
p1326
aVhttp://dbpedia.org/class/yago/YagoLegalActorGeo
p1327
aVhttp://dbpedia.org/class/yago/CountySeat108547143
p1328
aVhttp://dbpedia.org/class/yago/CountySeatsInIndiana
p1329
aVhttp://dbpedia.org/class/yago/GeographicalArea108574314
p1330
aVhttp://dbpedia.org/class/yago/Municipality108626283
p1331
aVhttp://dbpedia.org/class/yago/PhysicalEntity100001930
p1332
aVhttp://dbpedia.org/class/yago/YagoPermanentlyLocatedEntity
p1333
aVhttp://dbpedia.org/class/yago/PopulatedPlacesInCrawfordCounty,Indiana
p1334
aVhttp://dbpedia.org/class/yago/TownsInIndiana
p1335
aVhttp://dbpedia.org/resource/English,_Indiana
p1336
tp1337
aaa.