(lp1
(lp2
(lp3
Vhttp://dbpedia.org/resource/Null
p4
aa(lp5
Vhttp://dbpedia.org/resource/Null
p6
aa(lp7
Vhttp://dbpedia.org/resource/Null
p8
aa(lp9
a(lp10
aa(lp11
(lp12
Vhttp://dbpedia.org/resource/Null
p13
aa(lp14
Vhttp://dbpedia.org/resource/Null
p15
aa(lp16
Vhttp://dbpedia.org/resource/Null
p17
aa(lp18
a(lp19
aa(lp20
(lp21
Vhttp://dbpedia.org/resource/Null
p22
aa(lp23
Vhttp://dbpedia.org/resource/Null
p24
aa(lp25
Vhttp://dbpedia.org/resource/Null
p26
aa(lp27
a(lp28
aa(lp29
(lp30
Vhttp://dbpedia.org/resource/Null
p31
aa(lp32
Vhttp://dbpedia.org/resource/Null
p33
aa(lp34
Vhttp://dbpedia.org/resource/Null
p35
aa(lp36
a(lp37
aa(lp38
(lp39
Vhttp://dbpedia.org/resource/Null
p40
aa(lp41
Vhttp://dbpedia.org/resource/Null
p42
aa(lp43
Vhttp://dbpedia.org/resource/Null
p44
aa(lp45
a(lp46
aa(lp47
(lp48
Vhttp://dbpedia.org/resource/Null
p49
aa(lp50
Vhttp://dbpedia.org/resource/Null
p51
aa(lp52
Vhttp://dbpedia.org/resource/Null
p53
aa(lp54
a(lp55
aa(lp56
(lp57
Vhttp://dbpedia.org/resource/Null
p58
aa(lp59
Vhttp://dbpedia.org/resource/Null
p60
aa(lp61
Vhttp://dbpedia.org/resource/Null
p62
aa(lp63
a(lp64
aa(lp65
(lp66
Vhttp://dbpedia.org/resource/Null
p67
aa(lp68
Vhttp://dbpedia.org/resource/Null
p69
aa(lp70
Vhttp://dbpedia.org/resource/Null
p71
aa(lp72
a(lp73
aa(lp74
(lp75
Vhttp://dbpedia.org/resource/Null
p76
aa(lp77
Vhttp://dbpedia.org/resource/Null
p78
aa(lp79
Vhttp://dbpedia.org/resource/Null
p80
aa(lp81
a(lp82
aa(lp83
(lp84
Vhttp://dbpedia.org/resource/Null
p85
aa(lp86
Vhttp://dbpedia.org/resource/Null
p87
aa(lp88
Vhttp://dbpedia.org/resource/Null
p89
aa(lp90
a(lp91
aa(lp92
(lp93
Vhttp://dbpedia.org/resource/Null
p94
aa(lp95
Vhttp://dbpedia.org/resource/Null
p96
aa(lp97
Vhttp://dbpedia.org/resource/Null
p98
aa(lp99
a(lp100
aa(lp101
(lp102
Vhttp://dbpedia.org/resource/Null
p103
aa(lp104
Vhttp://dbpedia.org/resource/Null
p105
aa(lp106
Vhttp://dbpedia.org/resource/Null
p107
aa(lp108
a(lp109
aa(lp110
(lp111
Vhttp://dbpedia.org/resource/Null
p112
aa(lp113
Vhttp://dbpedia.org/resource/Null
p114
aa(lp115
Vhttp://dbpedia.org/resource/Null
p116
aa(lp117
a(lp118
aa(lp119
(lp120
Vhttp://dbpedia.org/resource/Null
p121
aa(lp122
Vhttp://dbpedia.org/resource/Null
p123
aa(lp124
Vhttp://dbpedia.org/resource/Null
p125
aa(lp126
a(lp127
aa(lp128
(lp129
Vhttp://dbpedia.org/resource/Null
p130
aa(lp131
Vhttp://dbpedia.org/resource/Null
p132
aa(lp133
Vhttp://dbpedia.org/resource/Null
p134
aa(lp135
a(lp136
aa(lp137
(lp138
Vhttp://dbpedia.org/resource/Null
p139
aa(lp140
Vhttp://dbpedia.org/resource/Null
p141
aa(lp142
Vhttp://dbpedia.org/resource/Null
p143
aa(lp144
a(lp145
aa(lp146
(lp147
Vhttp://dbpedia.org/resource/Null
p148
aa(lp149
Vhttp://dbpedia.org/resource/Null
p150
aa(lp151
Vhttp://dbpedia.org/resource/Null
p152
aa(lp153
a(lp154
aa(lp155
(lp156
Vhttp://dbpedia.org/resource/Null
p157
aa(lp158
Vhttp://dbpedia.org/resource/Null
p159
aa(lp160
Vhttp://dbpedia.org/resource/Null
p161
aa(lp162
a(lp163
aa(lp164
(lp165
Vhttp://dbpedia.org/resource/Null
p166
aa(lp167
Vhttp://dbpedia.org/resource/Null
p168
aa(lp169
Vhttp://dbpedia.org/resource/Null
p170
aa(lp171
a(lp172
aa(lp173
(lp174
Vhttp://dbpedia.org/resource/Null
p175
aa(lp176
Vhttp://dbpedia.org/resource/Null
p177
aa(lp178
Vhttp://dbpedia.org/resource/Null
p179
aa(lp180
a(lp181
aa.