(lp1
(lp2
(lp3
a(lp4
a(lp5
a(lp6
a(lp7
aa(lp8
(lp9
a(lp10
a(lp11
a(lp12
a(lp13
aa(lp14
(lp15
a(lp16
a(lp17
a(lp18
a(lp19
aa(lp20
(lp21
a(lp22
a(lp23
a(lp24
a(lp25
aa(lp26
(lp27
a(lp28
a(lp29
a(lp30
a(lp31
aa(lp32
(lp33
a(lp34
a(lp35
a(lp36
a(lp37
aa(lp38
(lp39
a(lp40
a(lp41
Vhttp://dbpedia.org/resource/Christian_radio
p42
aa(lp43
a(lp44
aa(lp45
(lp46
a(lp47
a(lp48
Vhttp://dbpedia.org/resource/Children's_radio
p49
aa(lp50
a(lp51
aa(lp52
(lp53
a(lp54
a(lp55
a(lp56
a(lp57
aa(lp58
(lp59
a(lp60
a(lp61
Vhttp://dbpedia.org/resource/Talk_radio
p62
aa(lp63
a(lp64
aa(lp65
(lp66
a(lp67
a(lp68
a(lp69
a(lp70
aa(lp71
(lp72
a(lp73
a(lp74
a(lp75
a(lp76
aa(lp77
(lp78
a(lp79
a(lp80
Vhttp://dbpedia.org/resource/CBC_News
p81
aa(lp82
a(lp83
aa(lp84
(lp85
a(lp86
a(lp87
a(lp88
a(lp89
aa(lp90
(lp91
a(lp92
a(lp93
a(lp94
a(lp95
aa(lp96
(lp97
a(lp98
a(lp99
a(lp100
a(lp101
aa(lp102
(lp103
a(lp104
a(lp105
a(lp106
a(lp107
aa(lp108
(lp109
a(lp110
a(lp111
a(lp112
a(lp113
aa(lp114
(lp115
a(lp116
a(lp117
a(lp118
a(lp119
aa(lp120
(lp121
a(lp122
a(lp123
a(lp124
a(lp125
aa.