(lp1
(lp2
(lp3
Vhttp://dbpedia.org/resource/Claude_Monet
p4
aa(lp5
a(lp6
aa(lp7
(lp8
a(lp9
a(lp10
aa(lp11
(lp12
a(lp13
a(lp14
aa(lp15
(lp16
a(lp17
a(lp18
aa(lp19
(lp20
Vhttp://dbpedia.org/resource/Impressionism
p21
aa(lp22
a(lp23
aa(lp24
(lp25
a(lp26
a(lp27
aa(lp28
(lp29
a(lp30
a(lp31
aa(lp32
(lp33
a(lp34
a(lp35
aa(lp36
(lp37
a(lp38
a(lp39
aa(lp40
(lp41
a(lp42
a(lp43
Vhttp://dbpedia.org/resource/Screen_printing
p44
aaa(lp45
(lp46
a(lp47
a(lp48
aa(lp49
(lp50
a(lp51
a(lp52
aa.