(lp1
(lp2
(dp3
Vstart
p4
I0
sVdisambiguatedURL
p5
NsVnamedEntity
p6
V
sVoffset
p7
I0
saa(lp8
(dp9
Vstart
p10
I0
sVdisambiguatedURL
p11
NsVnamedEntity
p12
V
sVoffset
p13
I0
saa(lp14
(dp15
Vstart
p16
I0
sVdisambiguatedURL
p17
NsVnamedEntity
p18
Vb/t/j3-4 yr11:00-12:00pm
p19
sVoffset
p20
I24
saa(lp21
(dp22
Vstart
p23
I0
sVdisambiguatedURL
p24
NsVnamedEntity
p25
Vb/t/j4-5 yr3:30-4:30pm
p26
sVoffset
p27
I22
saa(lp28
(dp29
Vstart
p30
I0
sVdisambiguatedURL
p31
NsVnamedEntity
p32
Vballet/ modern6-9 yr4:30-5:30pm
p33
sVoffset
p34
I31
saa(lp35
(dp36
Vstart
p37
I0
sVdisambiguatedURL
p38
NsVnamedEntity
p39
Vballet5-8 yr5:30-6:30pm
p40
sVoffset
p41
I23
saa(lp42
(dp43
Vstart
p44
I0
sVdisambiguatedURL
p45
NsVnamedEntity
p46
Vjazz/tap6-9 yr6:30-7:30pm
p47
sVoffset
p48
I25
saa(lp49
(dp50
Vstart
p51
I0
sVdisambiguatedURL
p52
NsVnamedEntity
p53
Vjazz funk10-167:30-8:30pm
p54
sVoffset
p55
I25
saa(lp56
(dp57
Vstart
p58
I0
sVdisambiguatedURL
p59
NsVnamedEntity
p60
V
sVoffset
p61
I0
saa.