(lp1
(dp2
I0
(dp3
I0
(lp4
sI1
(lp5
Vhttp://dbpedia.org/ontology/wikiPageExternalLink
p6
aVhttp://www.w3.org/1999/02/22-rdf-syntax-ns#type
p7
aVhttp://purl.org/dc/terms/subject
p8
aVhttp://www.w3.org/2000/01/rdf-schema#comment
p9
aVhttp://dbpedia.org/ontology/revenue
p10
aVhttp://dbpedia.org/ontology/abstract
p11
aVhttp://xmlns.com/foaf/0.1/depiction
p12
aVhttp://dbpedia.org/property/wordnet_type
p13
aVhttp://dbpedia.org/property/netIncome
p14
aVhttp://dbpedia.org/property/cashFlow
p15
aVhttp://dbpedia.org/ontology/netIncome
p16
aVhttp://dbpedia.org/property/revenue
p17
aVhttp://dbpedia.org/ontology/assets
p18
aVhttp://www.w3.org/2002/07/owl#sameAs
p19
aVhttp://dbpedia.org/ontology/thumbnail
p20
asI2
(lp21
Vhttp://dbpedia.org/property/ground
p22
aVhttp://dbpedia.org/property/populationDensityRank
p23
aVhttp://dbpedia.org/property/debuts
p24
aVhttp://dbpedia.org/property/hdiRank
p25
aVhttp://dbpedia.org/property/city
p26
aVhttp://dbpedia.org/property/birthplace
p27
aVhttp://www.w3.org/ns/prov#wasDerivedFrom
p28
aVhttp://dbpedia.org/property/utcOffset
p29
aVhttp://dbpedia.org/property/areaRank
p30
aVhttp://dbpedia.org/property/returns
p31
aVhttp://www.w3.org/1999/02/22-rdf-syntax-ns#type
p32
aVhttp://dbpedia.org/property/home
p33
aVhttp://dbpedia.org/property/withdraws
p34
aVhttp://dbpedia.org/property/birthPlace
p35
aVhttp://dbpedia.org/ontology/place
p36
aVhttp://dbpedia.org/property/placeOfBirth
p37
aVhttp://dbpedia.org/property/gdpNominalPerCapita
p38
aVhttp://dbpedia.org/property/country
p39
aVhttp://dbpedia.org/property/countries
p40
aVhttp://dbpedia.org/ontology/wikiPageExternalLink
p41
aVhttp://www.w3.org/2000/01/rdf-schema#comment
p42
aVhttp://dbpedia.org/ontology/country
p43
aVhttp://dbpedia.org/property/place
p44
aVhttp://dbpedia.org/ontology/abstract
p45
aVhttp://dbpedia.org/property/venue
p46
aVhttp://dbpedia.org/property/location
p47
aVhttp://dbpedia.org/property/cityServed
p48
aVhttp://dbpedia.org/property/gdpPppPerCapita
p49
aVhttp://dbpedia.org/ontology/deathPlace
p50
aVhttp://dbpedia.org/property/subdivisionName
p51
aVhttp://dbpedia.org/ontology/broadcastArea
p52
aVhttp://dbpedia.org/property/locale
p53
aVhttp://dbpedia.org/property/basinCountries
p54
aVhttp://www.georss.org/georss/point
p55
aVhttp://dbpedia.org/property/headquarters
p56
aVhttp://dbpedia.org/ontology/PopulatedPlace/areaTotal
p57
aVhttp://dbpedia.org/ontology/birthPlace
p58
aVhttp://dbpedia.org/property/countriesAffected
p59
aVhttp://dbpedia.org/ontology/wikiPageRedirects
p60
aVhttp://www.w3.org/2002/07/owl#sameAs
p61
aVhttp://dbpedia.org/property/residence
p62
aVhttp://dbpedia.org/property/stadium
p63
aVhttp://dbpedia.org/ontology/location
p64
asI3
(lp65
Vhttp://dbpedia.org/ontology/wikiPageExternalLink
p66
aVhttp://www.w3.org/2000/01/rdf-schema#comment
p67
aVhttp://dbpedia.org/ontology/abstract
p68
aVhttp://purl.org/voc/vrank#hasRank
p69
aVhttp://www.w3.org/ns/prov#wasDerivedFrom
p70
aVhttp://www.w3.org/2002/07/owl#sameAs
p71
asI4
(lp72
sI5
(lp73
ssI1
(dp74
I0
g5
sI1
(lp75
sI2
(lp76
sI3
(lp77
sI4
(lp78
sI5
(lp79
ssI2
(dp80
I0
g21
sI1
g76
sI2
(lp81
sI3
(lp82
sI4
(lp83
sI5
(lp84
ssI3
(dp85
I0
g65
sI1
g77
sI2
g82
sI3
(lp86
sI4
(lp87
sI5
(lp88
ssI4
(dp89
I0
g72
sI1
g78
sI2
g83
sI3
g87
sI4
(lp90
sI5
(lp91
ssI5
(dp92
I0
g73
sI1
g79
sI2
g84
sI3
g88
sI4
g91
sI5
(lp93
ssa(dp94
I0
(dp95
I0
(lp96
sI1
(lp97
Vhttp://dbpedia.org/ontology/wikiPageExternalLink
p98
aVhttp://www.w3.org/1999/02/22-rdf-syntax-ns#type
p99
aVhttp://www.w3.org/2000/01/rdf-schema#comment
p100
aVhttp://dbpedia.org/ontology/abstract
p101
aVhttp://dbpedia.org/property/wordnet_type
p102
aVhttp://purl.org/voc/vrank#hasRank
p103
aVhttp://dbpedia.org/property/date
p104
asI2
(lp105
Vhttp://www.w3.org/1999/02/22-rdf-syntax-ns#type
p106
aVhttp://dbpedia.org/property/producer
p107
aVhttp://www.w3.org/2000/01/rdf-schema#comment
p108
aVhttp://dbpedia.org/ontology/abstract
p109
aVhttp://dbpedia.org/property/music
p110
aVhttp://dbpedia.org/ontology/artist
p111
aVhttp://dbpedia.org/property/wordnet_type
p112
aVhttp://purl.org/voc/vrank#hasRank
p113
aVhttp://www.w3.org/2002/07/owl#sameAs
p114
aVhttp://dbpedia.org/property/artist
p115
aVhttp://www.w3.org/ns/prov#wasDerivedFrom
p116
aVhttp://dbpedia.org/property/caption
p117
aVhttp://dbpedia.org/ontology/viafId
p118
aVhttp://dbpedia.org/ontology/musicComposer
p119
aVhttp://dbpedia.org/ontology/producer
p120
asI3
(lp121
sI4
(lp122
sI5
(lp123
ssI1
(dp124
I0
g97
sI1
(lp125
sI2
(lp126
Vhttp://dbpedia.org/ontology/abstract
p127
asI3
(lp128
sI4
(lp129
sI5
(lp130
ssI2
(dp131
I0
g105
sI1
g126
sI2
(lp132
sI3
(lp133
sI4
(lp134
sI5
(lp135
ssI3
(dp136
I0
g121
sI1
g128
sI2
g133
sI3
(lp137
sI4
(lp138
sI5
(lp139
ssI4
(dp140
I0
g122
sI1
g129
sI2
g134
sI3
g138
sI4
(lp141
sI5
(lp142
ssI5
(dp143
I0
g123
sI1
g130
sI2
g135
sI3
g139
sI4
g142
sI5
(lp144
ssa(dp145
I0
(dp146
I0
(lp147
sI1
(lp148
Vhttp://dbpedia.org/ontology/wikiPageExternalLink
p149
aVhttp://www.w3.org/1999/02/22-rdf-syntax-ns#type
p150
aVhttp://dbpedia.org/property/manufacturer
p151
aVhttp://dbpedia.org/ontology/abstract
p152
aVhttp://www.w3.org/2000/01/rdf-schema#comment
p153
aVhttp://dbpedia.org/property/wordnet_type
p154
aVhttp://dbpedia.org/ontology/thumbnail
p155
aVhttp://dbpedia.org/property/employer
p156
aVhttp://www.w3.org/ns/prov#wasDerivedFrom
p157
aVhttp://dbpedia.org/property/hasPhotoCollection
p158
aVhttp://www.w3.org/2002/07/owl#sameAs
p159
aVhttp://dbpedia.org/ontology/manufacturer
p160
asI2
(lp161
Vhttp://www.w3.org/1999/02/22-rdf-syntax-ns#type
p162
aVhttp://www.w3.org/2000/01/rdf-schema#comment
p163
aVhttp://dbpedia.org/ontology/abstract
p164
aVhttp://xmlns.com/foaf/0.1/depiction
p165
aVhttp://dbpedia.org/ontology/wikiPageRedirects
p166
aVhttp://dbpedia.org/property/family
p167
aVhttp://purl.org/voc/vrank#hasRank
p168
aVhttp://dbpedia.org/ontology/thumbnail
p169
aVhttp://xmlns.com/foaf/0.1/name
p170
aVhttp://dbpedia.org/property/caption
p171
aVhttp://dbpedia.org/property/jyutpingchinesename
p172
aVhttp://dbpedia.org/ontology/viafId
p173
aVhttp://dbpedia.org/property/hasPhotoCollection
p174
aVhttp://www.w3.org/2002/07/owl#sameAs
p175
asI3
(lp176
sI4
(lp177
sI5
(lp178
ssI1
(dp179
I0
g148
sI1
(lp180
sI2
(lp181
Vhttp://www.w3.org/1999/02/22-rdf-syntax-ns#type
p182
aVhttp://dbpedia.org/ontology/type
p183
aVhttp://dbpedia.org/property/manufacturer
p184
aVhttp://dbpedia.org/ontology/abstract
p185
aVhttp://www.w3.org/2000/01/rdf-schema#comment
p186
aVhttp://dbpedia.org/property/type
p187
aVhttp://dbpedia.org/property/locationCity
p188
aVhttp://purl.org/dc/terms/subject
p189
aVhttp://dbpedia.org/ontology/locationCity
p190
aVhttp://dbpedia.org/ontology/product
p191
aVhttp://dbpedia.org/ontology/manufacturer
p192
asI3
(lp193
sI4
(lp194
sI5
(lp195
ssI2
(dp196
I0
g161
sI1
g181
sI2
(lp197
sI3
(lp198
sI4
(lp199
sI5
(lp200
ssI3
(dp201
I0
g176
sI1
g193
sI2
g198
sI3
(lp202
sI4
(lp203
sI5
(lp204
ssI4
(dp205
I0
g177
sI1
g194
sI2
g199
sI3
g203
sI4
(lp206
sI5
(lp207
ssI5
(dp208
I0
g178
sI1
g195
sI2
g200
sI3
g204
sI4
g207
sI5
(lp209
ssa(dp210
I0
(dp211
I0
(lp212
sI1
(lp213
Vhttp://www.w3.org/1999/02/22-rdf-syntax-ns#type
p214
aVhttp://www.w3.org/2000/01/rdf-schema#comment
p215
aVhttp://dbpedia.org/ontology/abstract
p216
aVhttp://dbpedia.org/ontology/equity
p217
aVhttp://purl.org/voc/vrank#hasRank
p218
aVhttp://dbpedia.org/property/operatingIncome
p219
aVhttp://www.w3.org/ns/prov#wasDerivedFrom
p220
aVhttp://dbpedia.org/ontology/operatingIncome
p221
aVhttp://dbpedia.org/property/equity
p222
asI2
(lp223
Vhttp://www.w3.org/1999/02/22-rdf-syntax-ns#type
p224
aVhttp://www.w3.org/2000/01/rdf-schema#comment
p225
aVhttp://dbpedia.org/ontology/abstract
p226
aVhttp://dbpedia.org/property/jyutpingchinesename
p227
aVhttp://dbpedia.org/ontology/wikiPageRedirects
p228
aVhttp://dbpedia.org/ontology/artist
p229
aVhttp://xmlns.com/foaf/0.1/name
p230
aVhttp://dbpedia.org/property/artist
p231
aVhttp://www.w3.org/ns/prov#wasDerivedFrom
p232
asI3
(lp233
Vhttp://dbpedia.org/property/industry
p234
aVhttp://www.w3.org/1999/02/22-rdf-syntax-ns#type
p235
aVhttp://www.w3.org/2000/01/rdf-schema#comment
p236
aVhttp://dbpedia.org/ontology/abstract
p237
aVhttp://purl.org/voc/vrank#hasRank
p238
aVhttp://dbpedia.org/property/products
p239
aVhttp://www.w3.org/ns/prov#wasDerivedFrom
p240
aVhttp://www.w3.org/2002/07/owl#sameAs
p241
asI4
(lp242
sI5
(lp243
ssI1
(dp244
I0
g213
sI1
(lp245
sI2
(lp246
Vhttp://www.w3.org/1999/02/22-rdf-syntax-ns#type
p247
aVhttp://purl.org/dc/terms/subject
p248
aVhttp://dbpedia.org/ontology/location
p249
aVhttp://www.w3.org/2000/01/rdf-schema#comment
p250
aVhttp://dbpedia.org/ontology/abstract
p251
aVhttp://dbpedia.org/property/location
p252
aVhttp://dbpedia.org/property/netIncome
p253
aVhttp://dbpedia.org/property/operatingIncome
p254
aVhttp://dbpedia.org/property/keyPeople
p255
asI3
(lp256
Vhttp://dbpedia.org/ontology/abstract
p257
aVhttp://www.w3.org/2000/01/rdf-schema#comment
p258
asI4
(lp259
sI5
(lp260
ssI2
(dp261
I0
g223
sI1
g246
sI2
(lp262
sI3
(lp263
sI4
(lp264
sI5
(lp265
ssI3
(dp266
I0
g233
sI1
g256
sI2
g263
sI3
(lp267
sI4
(lp268
sI5
(lp269
ssI4
(dp270
I0
g242
sI1
g259
sI2
g264
sI3
g268
sI4
(lp271
sI5
(lp272
ssI5
(dp273
I0
g243
sI1
g260
sI2
g265
sI3
g269
sI4
g272
sI5
(lp274
ssa(dp275
I0
(dp276
I0
(lp277
sI1
(lp278
Vhttp://dbpedia.org/ontology/abstract
p279
aVhttp://www.w3.org/1999/02/22-rdf-syntax-ns#type
p280
aVhttp://dbpedia.org/property/hasPhotoCollection
p281
aVhttp://www.w3.org/2000/01/rdf-schema#comment
p282
asI2
(lp283
Vhttp://www.w3.org/1999/02/22-rdf-syntax-ns#type
p284
aVhttp://www.w3.org/2000/01/rdf-schema#comment
p285
aVhttp://dbpedia.org/ontology/abstract
p286
aVhttp://dbpedia.org/property/location
p287
aVhttp://dbpedia.org/ontology/PopulatedPlace/areaTotal
p288
aVhttp://dbpedia.org/property/placeOfBirth
p289
aVhttp://www.w3.org/ns/prov#wasDerivedFrom
p290
aVhttp://dbpedia.org/property/hasPhotoCollection
p291
aVhttp://dbpedia.org/ontology/birthPlace
p292
aVhttp://www.w3.org/2002/07/owl#sameAs
p293
asI3
(lp294
Vhttp://dbpedia.org/ontology/wikiPageExternalLink
p295
aVhttp://www.w3.org/1999/02/22-rdf-syntax-ns#type
p296
aVhttp://www.w3.org/2000/01/rdf-schema#comment
p297
aVhttp://dbpedia.org/ontology/abstract
p298
aVhttp://www.w3.org/ns/prov#wasDerivedFrom
p299
aVhttp://dbpedia.org/property/hasPhotoCollection
p300
asI4
(lp301
sI5
(lp302
ssI1
(dp303
I0
g278
sI1
(lp304
sI2
(lp305
Vhttp://dbpedia.org/property/wordnet_type
p306
aVhttp://dbpedia.org/ontology/abstract
p307
aVhttp://www.w3.org/1999/02/22-rdf-syntax-ns#type
p308
aVhttp://www.w3.org/2002/07/owl#sameAs
p309
aVhttp://www.w3.org/2000/01/rdf-schema#comment
p310
asI3
(lp311
sI4
(lp312
sI5
(lp313
ssI2
(dp314
I0
g283
sI1
g305
sI2
(lp315
sI3
(lp316
sI4
(lp317
sI5
(lp318
ssI3
(dp319
I0
g294
sI1
g311
sI2
g316
sI3
(lp320
sI4
(lp321
sI5
(lp322
ssI4
(dp323
I0
g301
sI1
g312
sI2
g317
sI3
g321
sI4
(lp324
sI5
(lp325
ssI5
(dp326
I0
g302
sI1
g313
sI2
g318
sI3
g322
sI4
g325
sI5
(lp327
ssa(dp328
I0
(dp329
I0
(lp330
sI1
(lp331
Vhttp://www.w3.org/1999/02/22-rdf-syntax-ns#type
p332
aVhttp://www.w3.org/2000/01/rdf-schema#comment
p333
aVhttp://dbpedia.org/ontology/abstract
p334
aVhttp://dbpedia.org/property/wordnet_type
p335
aVhttp://purl.org/voc/vrank#hasRank
p336
aVhttp://www.w3.org/ns/prov#wasDerivedFrom
p337
aVhttp://www.w3.org/2002/07/owl#sameAs
p338
asI2
(lp339
Vhttp://dbpedia.org/property/restingPlace
p340
aVhttp://dbpedia.org/property/place
p341
aVhttp://dbpedia.org/property/years
p342
aVhttp://dbpedia.org/property/city
p343
aVhttp://dbpedia.org/ontology/garrison
p344
aVhttp://www.w3.org/ns/prov#wasDerivedFrom
p345
aVhttp://dbpedia.org/ontology/routeEnd
p346
aVhttp://dbpedia.org/ontology/country
p347
aVhttp://www.w3.org/1999/02/22-rdf-syntax-ns#type
p348
aVhttp://dbpedia.org/property/allegiance
p349
aVhttp://dbpedia.org/property/birthPlace
p350
aVhttp://dbpedia.org/ontology/place
p351
aVhttp://dbpedia.org/property/placeOfBirth
p352
aVhttp://dbpedia.org/property/medianhouseholdincome
p353
aVhttp://dbpedia.org/ontology/abstract
p354
aVhttp://dbpedia.org/property/areasAffected
p355
aVhttp://dbpedia.org/property/languages
p356
aVhttp://dbpedia.org/property/siteCityst
p357
aVhttp://dbpedia.org/property/state
p358
aVhttp://dbpedia.org/property/deathPlace
p359
aVhttp://dbpedia.org/property/location
p360
aVhttp://dbpedia.org/property/states
p361
aVhttp://dbpedia.org/ontology/builder
p362
aVhttp://dbpedia.org/ontology/deathPlace
p363
aVhttp://dbpedia.org/property/vpState
p364
aVhttp://dbpedia.org/ontology/homeport
p365
aVhttp://dbpedia.org/property/shipBuilder
p366
aVhttp://dbpedia.org/property/homeState
p367
aVhttp://dbpedia.org/ontology/birthPlace
p368
aVhttp://www.w3.org/2000/01/rdf-schema#comment
p369
aVhttp://purl.org/voc/vrank#hasRank
p370
aVhttp://dbpedia.org/ontology/restingPlace
p371
aVhttp://dbpedia.org/ontology/PopulatedPlace/areaTotal
p372
aVhttp://www.w3.org/2002/07/owl#sameAs
p373
aVhttp://dbpedia.org/property/shipHomeport
p374
aVhttp://dbpedia.org/property/garrison
p375
aVhttp://dbpedia.org/property/stadium
p376
aVhttp://dbpedia.org/property/areas
p377
asI3
(lp378
sI4
(lp379
sI5
(lp380
ssI1
(dp381
I0
g331
sI1
(lp382
sI2
(lp383
Vhttp://www.w3.org/1999/02/22-rdf-syntax-ns#type
p384
aVhttp://purl.org/dc/terms/subject
p385
aVhttp://www.w3.org/2000/01/rdf-schema#comment
p386
aVhttp://dbpedia.org/ontology/abstract
p387
aVhttp://dbpedia.org/property/type
p388
aVhttp://dbpedia.org/ontology/type
p389
asI3
(lp390
sI4
(lp391
sI5
(lp392
ssI2
(dp393
I0
g339
sI1
g383
sI2
(lp394
sI3
(lp395
sI4
(lp396
sI5
(lp397
ssI3
(dp398
I0
g378
sI1
g390
sI2
g395
sI3
(lp399
sI4
(lp400
sI5
(lp401
ssI4
(dp402
I0
g379
sI1
g391
sI2
g396
sI3
g400
sI4
(lp403
sI5
(lp404
ssI5
(dp405
I0
g380
sI1
g392
sI2
g397
sI3
g401
sI4
g404
sI5
(lp406
ssa(dp407
I0
(dp408
I0
(lp409
sI1
(lp410
Vhttp://purl.org/voc/vrank#hasRank
p411
aVhttp://dbpedia.org/ontology/abstract
p412
aVhttp://www.w3.org/1999/02/22-rdf-syntax-ns#type
p413
aVhttp://www.w3.org/2002/07/owl#sameAs
p414
aVhttp://www.w3.org/2000/01/rdf-schema#comment
p415
asI2
(lp416
sI3
(lp417
Vhttp://www.w3.org/1999/02/22-rdf-syntax-ns#type
p418
aVhttp://www.w3.org/2000/01/rdf-schema#comment
p419
aVhttp://dbpedia.org/ontology/abstract
p420
aVhttp://dbpedia.org/property/name
p421
aVhttp://purl.org/voc/vrank#hasRank
p422
aVhttp://dbpedia.org/property/clubs
p423
aVhttp://dbpedia.org/ontology/team
p424
aVhttp://dbpedia.org/property/managerclubs
p425
aVhttp://www.w3.org/2002/07/owl#sameAs
p426
asI4
(lp427
sI5
(lp428
ssI1
(dp429
I0
g410
sI1
(lp430
sI2
(lp431
Vhttp://www.w3.org/1999/02/22-rdf-syntax-ns#type
p432
aVhttp://purl.org/dc/terms/subject
p433
aVhttp://dbpedia.org/ontology/location
p434
aVhttp://www.w3.org/2000/01/rdf-schema#comment
p435
aVhttp://dbpedia.org/ontology/abstract
p436
aVhttp://dbpedia.org/property/location
p437
aVhttp://dbpedia.org/property/constructors
p438
aVhttp://dbpedia.org/property/architect
p439
asI3
(lp440
sI4
(lp441
sI5
(lp442
ssI2
(dp443
I0
g416
sI1
g431
sI2
(lp444
sI3
(lp445
Vhttp://dbpedia.org/property/club
p446
aVhttp://www.w3.org/1999/02/22-rdf-syntax-ns#type
p447
aVhttp://purl.org/dc/terms/subject
p448
aVhttp://dbpedia.org/ontology/abstract
p449
aVhttp://dbpedia.org/property/currentclub
p450
aVhttp://dbpedia.org/property/name
p451
aVhttp://dbpedia.org/property/clubs
p452
aVhttp://dbpedia.org/ontology/team
p453
aVhttp://dbpedia.org/property/managerclubs
p454
aVhttp://dbpedia.org/property/other
p455
asI4
(lp456
sI5
(lp457
ssI3
(dp458
I0
g417
sI1
g440
sI2
g445
sI3
(lp459
sI4
(lp460
sI5
(lp461
ssI4
(dp462
I0
g427
sI1
g441
sI2
g456
sI3
g460
sI4
(lp463
sI5
(lp464
ssI5
(dp465
I0
g428
sI1
g442
sI2
g457
sI3
g461
sI4
g464
sI5
(lp466
ssa(dp467
I0
(dp468
I0
(lp469
sI1
(lp470
Vhttp://dbpedia.org/ontology/netIncome
p471
aVhttp://dbpedia.org/ontology/abstract
p472
aVhttp://www.w3.org/1999/02/22-rdf-syntax-ns#type
p473
aVhttp://purl.org/dc/terms/subject
p474
aVhttp://www.w3.org/2000/01/rdf-schema#comment
p475
asI2
(lp476
Vhttp://dbpedia.org/ontology/wikiPageExternalLink
p477
aVhttp://dbpedia.org/property/ground
p478
aVhttp://dbpedia.org/property/place
p479
aVhttp://dbpedia.org/property/debuts
p480
aVhttp://dbpedia.org/ontology/PopulatedPlace/areaTotal
p481
aVhttp://www.w3.org/ns/prov#wasDerivedFrom
p482
aVhttp://dbpedia.org/ontology/PopulatedPlace/populationDensity
p483
aVhttp://dbpedia.org/ontology/country
p484
aVhttp://dbpedia.org/property/returns
p485
aVhttp://www.w3.org/1999/02/22-rdf-syntax-ns#type
p486
aVhttp://dbpedia.org/property/birthPlace
p487
aVhttp://dbpedia.org/ontology/place
p488
aVhttp://dbpedia.org/property/placeOfBirth
p489
aVhttp://dbpedia.org/property/country
p490
aVhttp://dbpedia.org/property/areaServed
p491
aVhttp://dbpedia.org/property/color
p492
aVhttp://dbpedia.org/ontology/abstract
p493
aVhttp://dbpedia.org/property/location
p494
aVhttp://dbpedia.org/property/cityServed
p495
aVhttp://dbpedia.org/property/subdivisionName
p496
aVhttp://www.georss.org/georss/point
p497
aVhttp://www.w3.org/2000/01/rdf-schema#comment
p498
aVhttp://dbpedia.org/ontology/birthPlace
p499
aVhttp://dbpedia.org/property/rd0t4Loc
p500
aVhttp://dbpedia.org/ontology/wikiPageRedirects
p501
aVhttp://purl.org/voc/vrank#hasRank
p502
aVhttp://www.w3.org/2002/07/owl#sameAs
p503
aVhttp://dbpedia.org/property/garrison
p504
aVhttp://dbpedia.org/property/residence
p505
aVhttp://dbpedia.org/property/stadium
p506
asI3
(lp507
Vhttp://dbpedia.org/ontology/wikiPageExternalLink
p508
aVhttp://dbpedia.org/ontology/abstract
p509
aVhttp://dbpedia.org/ontology/wikiPageRedirects
p510
aVhttp://purl.org/voc/vrank#hasRank
p511
aVhttp://www.w3.org/ns/prov#wasDerivedFrom
p512
aVhttp://www.w3.org/2002/07/owl#sameAs
p513
asI4
(lp514
sI5
(lp515
ssI1
(dp516
I0
g470
sI1
(lp517
sI2
(lp518
sI3
(lp519
Vhttp://dbpedia.org/ontology/abstract
p520
aVhttp://purl.org/dc/terms/subject
p521
aVhttp://www.w3.org/2000/01/rdf-schema#comment
p522
asI4
(lp523
sI5
(lp524
ssI2
(dp525
I0
g476
sI1
g518
sI2
(lp526
sI3
(lp527
sI4
(lp528
sI5
(lp529
ssI3
(dp530
I0
g507
sI1
g519
sI2
g527
sI3
(lp531
sI4
(lp532
sI5
(lp533
ssI4
(dp534
I0
g514
sI1
g523
sI2
g528
sI3
g532
sI4
(lp535
sI5
(lp536
ssI5
(dp537
I0
g515
sI1
g524
sI2
g529
sI3
g533
sI4
g536
sI5
(lp538
ssa(dp539
I0
(dp540
I0
(lp541
sI1
(lp542
Vhttp://www.w3.org/1999/02/22-rdf-syntax-ns#type
p543
aVhttp://purl.org/dc/terms/subject
p544
aVhttp://www.w3.org/2000/01/rdf-schema#comment
p545
aVhttp://dbpedia.org/ontology/abstract
p546
aVhttp://www.w3.org/ns/prov#wasDerivedFrom
p547
aVhttp://www.w3.org/2002/07/owl#sameAs
p548
asI2
(lp549
Vhttp://www.w3.org/1999/02/22-rdf-syntax-ns#type
p550
aVhttp://purl.org/dc/terms/subject
p551
aVhttp://dbpedia.org/property/ground
p552
aVhttp://dbpedia.org/property/county
p553
aVhttp://dbpedia.org/ontology/abstract
p554
aVhttp://www.w3.org/2000/01/rdf-schema#comment
p555
aVhttp://dbpedia.org/property/location
p556
aVhttp://purl.org/voc/vrank#hasRank
p557
aVhttp://dbpedia.org/ontology/deathPlace
p558
aVhttp://dbpedia.org/ontology/birthPlace
p559
aVhttp://www.w3.org/2002/07/owl#sameAs
p560
asI3
(lp561
Vhttp://dbpedia.org/ontology/wikiPageExternalLink
p562
aVhttp://dbpedia.org/property/industry
p563
aVhttp://www.w3.org/1999/02/22-rdf-syntax-ns#type
p564
aVhttp://www.w3.org/2000/01/rdf-schema#comment
p565
aVhttp://dbpedia.org/ontology/abstract
p566
aVhttp://dbpedia.org/property/services
p567
aVhttp://www.w3.org/2002/07/owl#sameAs
p568
asI4
(lp569
sI5
(lp570
ssI1
(dp571
I0
g542
sI1
(lp572
sI2
(lp573
Vhttp://dbpedia.org/property/wordnet_type
p574
aVhttp://dbpedia.org/ontology/abstract
p575
aVhttp://www.w3.org/1999/02/22-rdf-syntax-ns#type
p576
aVhttp://dbpedia.org/ontology/wikiPageRedirects
p577
aVhttp://www.w3.org/2002/07/owl#sameAs
p578
asI3
(lp579
sI4
(lp580
sI5
(lp581
ssI2
(dp582
I0
g549
sI1
g573
sI2
(lp583
sI3
(lp584
sI4
(lp585
sI5
(lp586
ssI3
(dp587
I0
g561
sI1
g579
sI2
g584
sI3
(lp588
sI4
(lp589
sI5
(lp590
ssI4
(dp591
I0
g569
sI1
g580
sI2
g585
sI3
g589
sI4
(lp592
sI5
(lp593
ssI5
(dp594
I0
g570
sI1
g581
sI2
g586
sI3
g590
sI4
g593
sI5
(lp595
ssa(dp596
I0
(dp597
I0
(lp598
sI1
(lp599
Vhttp://www.w3.org/2000/01/rdf-schema#comment
p600
aVhttp://dbpedia.org/ontology/abstract
p601
aVhttp://www.w3.org/1999/02/22-rdf-syntax-ns#type
p602
aVhttp://dbpedia.org/ontology/assets
p603
aVhttp://dbpedia.org/ontology/revenue
p604
asI2
(lp605
Vhttp://dbpedia.org/ontology/abstract
p606
aVhttp://www.w3.org/1999/02/22-rdf-syntax-ns#type
p607
aVhttp://dbpedia.org/property/guests
p608
asI3
(lp609
Vhttp://www.w3.org/ns/prov#wasDerivedFrom
p610
asI4
(lp611
sI5
(lp612
ssI1
(dp613
I0
g599
sI1
(lp614
sI2
(lp615
Vhttp://www.w3.org/1999/02/22-rdf-syntax-ns#type
p616
aVhttp://purl.org/dc/terms/subject
p617
aVhttp://www.w3.org/2000/01/rdf-schema#comment
p618
aVhttp://dbpedia.org/ontology/abstract
p619
aVhttp://dbpedia.org/ontology/foundationPlace
p620
aVhttp://dbpedia.org/property/locationCity
p621
aVhttp://dbpedia.org/property/foundation
p622
aVhttp://dbpedia.org/property/hasPhotoCollection
p623
aVhttp://dbpedia.org/ontology/locationCity
p624
aVhttp://dbpedia.org/property/areaServed
p625
aVhttp://dbpedia.org/ontology/regionServed
p626
asI3
(lp627
sI4
(lp628
sI5
(lp629
ssI2
(dp630
I0
g605
sI1
g615
sI2
(lp631
sI3
(lp632
sI4
(lp633
sI5
(lp634
ssI3
(dp635
I0
g609
sI1
g627
sI2
g632
sI3
(lp636
sI4
(lp637
sI5
(lp638
ssI4
(dp639
I0
g611
sI1
g628
sI2
g633
sI3
g637
sI4
(lp640
sI5
(lp641
ssI5
(dp642
I0
g612
sI1
g629
sI2
g634
sI3
g638
sI4
g641
sI5
(lp643
ssa(dp644
I0
(dp645
I0
(lp646
sI1
(lp647
Vhttp://dbpedia.org/ontology/abstract
p648
asI2
(lp649
sI3
(lp650
sI4
(lp651
sI5
(lp652
ssI1
(dp653
I0
g647
sI1
(lp654
sI2
(lp655
Vhttp://dbpedia.org/ontology/owner
p656
aVhttp://www.w3.org/1999/02/22-rdf-syntax-ns#type
p657
aVhttp://purl.org/dc/terms/subject
p658
aVhttp://www.w3.org/2000/01/rdf-schema#comment
p659
aVhttp://dbpedia.org/ontology/abstract
p660
aVhttp://xmlns.com/foaf/0.1/depiction
p661
aVhttp://dbpedia.org/ontology/owningCompany
p662
aVhttp://dbpedia.org/property/locationCity
p663
aVhttp://dbpedia.org/ontology/thumbnail
p664
aVhttp://dbpedia.org/property/owner
p665
aVhttp://dbpedia.org/ontology/locationCity
p666
aVhttp://dbpedia.org/property/revenue
p667
asI3
(lp668
sI4
(lp669
sI5
(lp670
ssI2
(dp671
I0
g649
sI1
g655
sI2
(lp672
sI3
(lp673
sI4
(lp674
sI5
(lp675
ssI3
(dp676
I0
g650
sI1
g668
sI2
g673
sI3
(lp677
sI4
(lp678
sI5
(lp679
ssI4
(dp680
I0
g651
sI1
g669
sI2
g674
sI3
g678
sI4
(lp681
sI5
(lp682
ssI5
(dp683
I0
g652
sI1
g670
sI2
g675
sI3
g679
sI4
g682
sI5
(lp684
ssa(dp685
I0
(dp686
I0
(lp687
sI1
(lp688
Vhttp://dbpedia.org/ontology/abstract
p689
aVhttp://www.w3.org/1999/02/22-rdf-syntax-ns#type
p690
asI2
(lp691
Vhttp://dbpedia.org/property/hostCity
p692
aVhttp://dbpedia.org/property/debuts
p693
aVhttp://dbpedia.org/property/sp
p694
aVhttp://dbpedia.org/property/rd2t3Loc
p695
aVhttp://dbpedia.org/ontology/country
p696
aVhttp://www.w3.org/1999/02/22-rdf-syntax-ns#type
p697
aVhttp://dbpedia.org/property/locationCountry
p698
aVhttp://dbpedia.org/property/rd1t5Loc
p699
aVhttp://dbpedia.org/property/withdraws
p700
aVhttp://dbpedia.org/property/femaleIndividualChampionTeam
p701
aVhttp://dbpedia.org/property/country
p702
aVhttp://dbpedia.org/property/shipCountry
p703
aVhttp://dbpedia.org/ontology/abstract
p704
aVhttp://dbpedia.org/ontology/recordedIn
p705
aVhttp://dbpedia.org/property/venue
p706
aVhttp://dbpedia.org/property/location
p707
aVhttp://dbpedia.org/ontology/locationCountry
p708
aVhttp://dbpedia.org/property/nationalOrigin
p709
aVhttp://dbpedia.org/ontology/location
p710
aVhttp://dbpedia.org/property/countries
p711
aVhttp://www.w3.org/2002/07/owl#sameAs
p712
aVhttp://dbpedia.org/property/stadium
p713
asI3
(lp714
sI4
(lp715
sI5
(lp716
ssI1
(dp717
I0
g688
sI1
(lp718
sI2
(lp719
Vhttp://dbpedia.org/ontology/abstract
p720
aVhttp://dbpedia.org/property/hasPhotoCollection
p721
asI3
(lp722
sI4
(lp723
sI5
(lp724
ssI2
(dp725
I0
g691
sI1
g719
sI2
(lp726
sI3
(lp727
sI4
(lp728
sI5
(lp729
ssI3
(dp730
I0
g714
sI1
g722
sI2
g727
sI3
(lp731
sI4
(lp732
sI5
(lp733
ssI4
(dp734
I0
g715
sI1
g723
sI2
g728
sI3
g732
sI4
(lp735
sI5
(lp736
ssI5
(dp737
I0
g716
sI1
g724
sI2
g729
sI3
g733
sI4
g736
sI5
(lp738
ssa(dp739
I0
(dp740
I0
(lp741
sI1
(lp742
Vhttp://dbpedia.org/ontology/abstract
p743
aVhttp://www.w3.org/1999/02/22-rdf-syntax-ns#type
p744
aVhttp://www.w3.org/2000/01/rdf-schema#comment
p745
asI2
(lp746
Vhttp://dbpedia.org/ontology/country
p747
aVhttp://www.w3.org/1999/02/22-rdf-syntax-ns#type
p748
aVhttp://dbpedia.org/ontology/location
p749
aVhttp://dbpedia.org/property/home
p750
aVhttp://dbpedia.org/property/place
p751
aVhttp://dbpedia.org/property/location
p752
aVhttp://dbpedia.org/property/allegiance
p753
aVhttp://dbpedia.org/property/city
p754
aVhttp://dbpedia.org/property/siteCityst
p755
aVhttp://dbpedia.org/ontology/routeStart
p756
aVhttp://dbpedia.org/property/stadium
p757
asI3
(lp758
Vhttp://www.w3.org/2002/07/owl#sameAs
p759
asI4
(lp760
sI5
(lp761
ssI1
(dp762
I0
g742
sI1
(lp763
sI2
(lp764
sI3
(lp765
Vhttp://dbpedia.org/ontology/abstract
p766
aVhttp://www.w3.org/2000/01/rdf-schema#comment
p767
asI4
(lp768
sI5
(lp769
ssI2
(dp770
I0
g746
sI1
g764
sI2
(lp771
sI3
(lp772
sI4
(lp773
sI5
(lp774
ssI3
(dp775
I0
g758
sI1
g765
sI2
g772
sI3
(lp776
sI4
(lp777
sI5
(lp778
ssI4
(dp779
I0
g760
sI1
g768
sI2
g773
sI3
g777
sI4
(lp780
sI5
(lp781
ssI5
(dp782
I0
g761
sI1
g769
sI2
g774
sI3
g778
sI4
g781
sI5
(lp783
ssa(dp784
I0
(dp785
I0
(lp786
sI1
(lp787
Vhttp://www.w3.org/2002/07/owl#sameAs
p788
asI2
(lp789
Vhttp://dbpedia.org/ontology/wikiPageExternalLink
p790
asI3
(lp791
sI4
(lp792
sI5
(lp793
ssI1
(dp794
I0
g787
sI1
(lp795
sI2
(lp796
Vhttp://www.w3.org/1999/02/22-rdf-syntax-ns#type
p797
aVhttp://purl.org/dc/terms/subject
p798
aVhttp://www.w3.org/2000/01/rdf-schema#comment
p799
aVhttp://dbpedia.org/ontology/abstract
p800
aVhttp://dbpedia.org/ontology/wikiPageRedirects
p801
aVhttp://dbpedia.org/property/locationCity
p802
aVhttp://dbpedia.org/property/products
p803
aVhttp://dbpedia.org/property/hasPhotoCollection
p804
aVhttp://dbpedia.org/ontology/product
p805
asI3
(lp806
sI4
(lp807
sI5
(lp808
ssI2
(dp809
I0
g789
sI1
g796
sI2
(lp810
sI3
(lp811
sI4
(lp812
sI5
(lp813
ssI3
(dp814
I0
g791
sI1
g806
sI2
g811
sI3
(lp815
sI4
(lp816
sI5
(lp817
ssI4
(dp818
I0
g792
sI1
g807
sI2
g812
sI3
g816
sI4
(lp819
sI5
(lp820
ssI5
(dp821
I0
g793
sI1
g808
sI2
g813
sI3
g817
sI4
g820
sI5
(lp822
ssa(dp823
I0
(dp824
I0
(lp825
sI1
(lp826
Vhttp://dbpedia.org/ontology/wikiPageExternalLink
p827
asI2
(lp828
Vhttp://purl.org/voc/vrank#hasRank
p829
asI3
(lp830
sI4
(lp831
sI5
(lp832
ssI1
(dp833
I0
g826
sI1
(lp834
sI2
(lp835
Vhttp://dbpedia.org/ontology/wikiPageExternalLink
p836
aVhttp://dbpedia.org/ontology/abstract
p837
aVhttp://www.w3.org/1999/02/22-rdf-syntax-ns#type
p838
aVhttp://www.w3.org/2000/01/rdf-schema#comment
p839
asI3
(lp840
sI4
(lp841
sI5
(lp842
ssI2
(dp843
I0
g828
sI1
g835
sI2
(lp844
sI3
(lp845
sI4
(lp846
sI5
(lp847
ssI3
(dp848
I0
g830
sI1
g840
sI2
g845
sI3
(lp849
sI4
(lp850
sI5
(lp851
ssI4
(dp852
I0
g831
sI1
g841
sI2
g846
sI3
g850
sI4
(lp853
sI5
(lp854
ssI5
(dp855
I0
g832
sI1
g842
sI2
g847
sI3
g851
sI4
g854
sI5
(lp856
ssa(dp857
I0
(dp858
I0
(lp859
sI1
(lp860
sI2
(lp861
Vhttp://dbpedia.org/ontology/artist
p862
aVhttp://dbpedia.org/property/description
p863
aVhttp://dbpedia.org/property/artist
p864
asI3
(lp865
sI4
(lp866
sI5
(lp867
ssI1
(dp868
I0
g860
sI1
(lp869
sI2
(lp870
Vhttp://www.w3.org/1999/02/22-rdf-syntax-ns#type
p871
asI3
(lp872
sI4
(lp873
sI5
(lp874
ssI2
(dp875
I0
g861
sI1
g870
sI2
(lp876
sI3
(lp877
sI4
(lp878
sI5
(lp879
ssI3
(dp880
I0
g865
sI1
g872
sI2
g877
sI3
(lp881
sI4
(lp882
sI5
(lp883
ssI4
(dp884
I0
g866
sI1
g873
sI2
g878
sI3
g882
sI4
(lp885
sI5
(lp886
ssI5
(dp887
I0
g867
sI1
g874
sI2
g879
sI3
g883
sI4
g886
sI5
(lp888
ssa(dp889
I0
(dp890
I0
(lp891
sI1
(lp892
sI2
(lp893
sI3
(lp894
sI4
(lp895
sI5
(lp896
ssI1
(dp897
I0
g892
sI1
(lp898
sI2
(lp899
sI3
(lp900
sI4
(lp901
sI5
(lp902
ssI2
(dp903
I0
g893
sI1
g899
sI2
(lp904
sI3
(lp905
sI4
(lp906
sI5
(lp907
ssI3
(dp908
I0
g894
sI1
g900
sI2
g905
sI3
(lp909
sI4
(lp910
sI5
(lp911
ssI4
(dp912
I0
g895
sI1
g901
sI2
g906
sI3
g910
sI4
(lp913
sI5
(lp914
ssI5
(dp915
I0
g896
sI1
g902
sI2
g907
sI3
g911
sI4
g914
sI5
(lp916
ssa(dp917
I0
(dp918
I0
(lp919
sI1
(lp920
sI2
(lp921
Vhttp://dbpedia.org/ontology/artist
p922
aVhttp://dbpedia.org/property/artist
p923
asI3
(lp924
sI4
(lp925
sI5
(lp926
ssI1
(dp927
I0
g920
sI1
(lp928
sI2
(lp929
Vhttp://www.w3.org/1999/02/22-rdf-syntax-ns#type
p930
aVhttp://purl.org/dc/terms/subject
p931
aVhttp://dbpedia.org/ontology/location
p932
aVhttp://www.w3.org/2000/01/rdf-schema#comment
p933
aVhttp://dbpedia.org/ontology/abstract
p934
aVhttp://dbpedia.org/property/location
p935
aVhttp://dbpedia.org/ontology/foundationPlace
p936
aVhttp://dbpedia.org/property/foundation
p937
aVhttp://dbpedia.org/property/areaServed
p938
aVhttp://dbpedia.org/ontology/regionServed
p939
asI3
(lp940
sI4
(lp941
sI5
(lp942
ssI2
(dp943
I0
g921
sI1
g929
sI2
(lp944
sI3
(lp945
sI4
(lp946
sI5
(lp947
ssI3
(dp948
I0
g924
sI1
g940
sI2
g945
sI3
(lp949
sI4
(lp950
sI5
(lp951
ssI4
(dp952
I0
g925
sI1
g941
sI2
g946
sI3
g950
sI4
(lp953
sI5
(lp954
ssI5
(dp955
I0
g926
sI1
g942
sI2
g947
sI3
g951
sI4
g954
sI5
(lp956
ssa(dp957
I0
(dp958
I0
(lp959
sI1
(lp960
Vhttp://dbpedia.org/ontology/abstract
p961
aVhttp://www.w3.org/1999/02/22-rdf-syntax-ns#type
p962
aVhttp://purl.org/dc/terms/subject
p963
aVhttp://www.w3.org/2000/01/rdf-schema#comment
p964
asI2
(lp965
sI3
(lp966
Vhttp://purl.org/voc/vrank#hasRank
p967
asI4
(lp968
sI5
(lp969
ssI1
(dp970
I0
g960
sI1
(lp971
sI2
(lp972
Vhttp://www.w3.org/1999/02/22-rdf-syntax-ns#type
p973
aVhttp://purl.org/dc/terms/subject
p974
aVhttp://dbpedia.org/property/headquarters
p975
aVhttp://www.w3.org/2000/01/rdf-schema#comment
p976
aVhttp://dbpedia.org/ontology/abstract
p977
aVhttp://dbpedia.org/property/location
p978
asI3
(lp979
sI4
(lp980
sI5
(lp981
ssI2
(dp982
I0
g965
sI1
g972
sI2
(lp983
sI3
(lp984
Vhttp://dbpedia.org/ontology/wikiPageDisambiguates
p985
asI4
(lp986
sI5
(lp987
ssI3
(dp988
I0
g966
sI1
g979
sI2
g984
sI3
(lp989
sI4
(lp990
sI5
(lp991
ssI4
(dp992
I0
g968
sI1
g980
sI2
g986
sI3
g990
sI4
(lp993
sI5
(lp994
ssI5
(dp995
I0
g969
sI1
g981
sI2
g987
sI3
g991
sI4
g994
sI5
(lp996
ssa(dp997
I0
(dp998
I0
(lp999
sI1
(lp1000
Vhttp://www.w3.org/2000/01/rdf-schema#seeAlso
p1001
aVhttp://www.w3.org/1999/02/22-rdf-syntax-ns#type
p1002
aVhttp://www.w3.org/2000/01/rdf-schema#comment
p1003
aVhttp://dbpedia.org/ontology/abstract
p1004
aVhttp://dbpedia.org/property/wordnet_type
p1005
aVhttp://purl.org/voc/vrank#hasRank
p1006
asI2
(lp1007
sI3
(lp1008
Vhttp://dbpedia.org/ontology/wikiPageExternalLink
p1009
aVhttp://www.w3.org/2000/01/rdf-schema#comment
p1010
aVhttp://dbpedia.org/ontology/abstract
p1011
aVhttp://purl.org/voc/vrank#hasRank
p1012
aVhttp://www.w3.org/ns/prov#wasDerivedFrom
p1013
aVhttp://dbpedia.org/property/title
p1014
asI4
(lp1015
sI5
(lp1016
ssI1
(dp1017
I0
g1000
sI1
(lp1018
sI2
(lp1019
Vhttp://dbpedia.org/ontology/wikiPageExternalLink
p1020
aVhttp://www.w3.org/1999/02/22-rdf-syntax-ns#type
p1021
aVhttp://purl.org/dc/terms/subject
p1022
aVhttp://www.w3.org/2000/01/rdf-schema#comment
p1023
aVhttp://dbpedia.org/ontology/abstract
p1024
aVhttp://xmlns.com/foaf/0.1/depiction
p1025
aVhttp://dbpedia.org/property/wordnet_type
p1026
aVhttp://dbpedia.org/ontology/thumbnail
p1027
aVhttp://www.w3.org/2002/07/owl#sameAs
p1028
asI3
(lp1029
sI4
(lp1030
sI5
(lp1031
ssI2
(dp1032
I0
g1007
sI1
g1019
sI2
(lp1033
sI3
(lp1034
Vhttp://dbpedia.org/ontology/wikiPageExternalLink
p1035
aVhttp://dbpedia.org/property/industry
p1036
aVhttp://www.w3.org/2000/01/rdf-schema#comment
p1037
aVhttp://dbpedia.org/ontology/abstract
p1038
aVhttp://xmlns.com/foaf/0.1/depiction
p1039
aVhttp://dbpedia.org/ontology/keyPerson
p1040
aVhttp://dbpedia.org/ontology/thumbnail
p1041
aVhttp://dbpedia.org/property/sectors
p1042
aVhttp://dbpedia.org/ontology/industry
p1043
asI4
(lp1044
sI5
(lp1045
ssI3
(dp1046
I0
g1008
sI1
g1029
sI2
g1034
sI3
(lp1047
sI4
(lp1048
sI5
(lp1049
ssI4
(dp1050
I0
g1015
sI1
g1030
sI2
g1044
sI3
g1048
sI4
(lp1051
sI5
(lp1052
ssI5
(dp1053
I0
g1016
sI1
g1031
sI2
g1045
sI3
g1049
sI4
g1052
sI5
(lp1054
ssa.