(lp1
(lp2
(lp3
a(lp4
Vhttp://dbpedia.org/resource/Reyes_Holdings
p5
aa(lp6
Vhttp://dbpedia.org/resource/Image-Line
p7
aa(lp8
a(lp9
a(lp10
aa(lp11
(lp12
a(lp13
Vhttp://dbpedia.org/resource/Caesars_Entertainment_Corporation
p14
aa(lp15
Vhttp://dbpedia.org/resource/Anheuser-Busch_InBev
p16
aa(lp17
a(lp18
a(lp19
aa(lp20
(lp21
a(lp22
Vhttp://dbpedia.org/resource/Capital_Group_Companies
p23
aa(lp24
a(lp25
Vhttp://dbpedia.org/resource/Asset_management
p26
aa(lp27
a(lp28
aa(lp29
(lp30
a(lp31
Vhttp://dbpedia.org/resource/Dollar_General
p32
aa(lp33
Vhttp://dbpedia.org/resource/Tunisia
p34
aa(lp35
a(lp36
a(lp37
aa(lp38
(lp39
a(lp40
Vhttp://dbpedia.org/resource/Performance_Food_Group
p41
aa(lp42
Vhttp://dbpedia.org/resource/Virginia
p43
aa(lp44
a(lp45
a(lp46
aa(lp47
(lp48
a(lp49
Vhttp://dbpedia.org/resource/S._C._Johnson_&_Son
p50
aa(lp51
Vhttp://dbpedia.org/resource/Wisconsin
p52
aa(lp53
Vhttp://dbpedia.org/resource/Personal_care
p54
aa(lp55
a(lp56
aa(lp57
(lp58
a(lp59
Vhttp://dbpedia.org/resource/Transammonia
p60
aa(lp61
Vhttp://dbpedia.org/resource/North_Yorkshire
p62
aa(lp63
Vhttp://dbpedia.org/resource/Agrochemical
p64
aa(lp65
a(lp66
aa(lp67
(lp68
a(lp69
Vhttp://dbpedia.org/resource/Southern_Wine_&_Spirits
p70
aa(lp71
Vhttp://dbpedia.org/resource/The_Flaming_Lips
p72
aa(lp73
a(lp74
a(lp75
aa(lp76
(lp77
a(lp78
Vhttp://dbpedia.org/resource/CDW
p79
aa(lp80
Vhttp://dbpedia.org/resource/Image-Line
p81
aa(lp82
a(lp83
a(lp84
aa(lp85
(lp86
a(lp87
Vhttp://dbpedia.org/resource/Cumberland_Farms
p88
aa(lp89
Vhttp://dbpedia.org/resource/Massive_Attack
p90
aa(lp91
Vhttp://dbpedia.org/resource/Grocery_store
p92
aa(lp93
a(lp94
aa(lp95
(lp96
a(lp97
Vhttp://dbpedia.org/resource/Hilton_Hotels_&_Resorts
p98
aa(lp99
a(lp100
Vhttp://dbpedia.org/resource/Lodging
p101
aa(lp102
a(lp103
aa(lp104
(lp105
a(lp106
Vhttp://dbpedia.org/resource/QuikTrip
p107
aa(lp108
Vhttp://dbpedia.org/resource/Organized_Konfusion
p109
aa(lp110
Vhttp://dbpedia.org/resource/Grocery_store
p111
aa(lp112
a(lp113
aa(lp114
(lp115
a(lp116
Vhttp://dbpedia.org/resource/First_Data
p117
aa(lp118
Vhttp://dbpedia.org/resource/Colombia
p119
aa(lp120
Vhttp://dbpedia.org/resource/Service_(economics)
p121
aa(lp122
a(lp123
aa(lp124
(lp125
a(lp126
Vhttp://dbpedia.org/resource/Giant_Eagle
p127
aa(lp128
a(lp129
Vhttp://dbpedia.org/resource/Grocery_store
p130
aa(lp131
a(lp132
aa(lp133
(lp134
a(lp135
Vhttp://dbpedia.org/resource/Energy_Future_Holdings
p136
aa(lp137
Vhttp://dbpedia.org/resource/Texas
p138
aa(lp139
Vhttp://dbpedia.org/resource/Electric_utility
p140
aa(lp141
a(lp142
aa(lp143
(lp144
a(lp145
Vhttp://dbpedia.org/resource/Advance_Publications
p146
aa(lp147
Vhttp://dbpedia.org/resource/North_Yorkshire
p148
aa(lp149
a(lp150
a(lp151
aa(lp152
(lp153
a(lp154
a(lp155
a(lp156
Vhttp://dbpedia.org/resource/Crop
p157
aa(lp158
a(lp159
aa(lp160
(lp161
a(lp162
Vhttp://dbpedia.org/resource/Paul_Menard
p163
aa(lp164
Vhttp://dbpedia.org/resource/Wisconsin
p165
aa(lp166
Vhttp://dbpedia.org/resource/List_of_awards_and_nominations_received_by_Home_Improvement
p167
aa(lp168
a(lp169
aa(lp170
(lp171
a(lp172
Vhttp://dbpedia.org/resource/Alticor
p173
aa(lp174
Vhttp://dbpedia.org/resource/Sammi_Cheng
p175
aa(lp176
Vhttp://dbpedia.org/resource/Personal_care
p177
aa(lp178
a(lp179
aa(lp180
(lp181
a(lp182
Vhttp://dbpedia.org/resource/Sinclair_Hill
p183
aa(lp184
Vhttp://dbpedia.org/resource/Uncle_Tupelo
p185
aa(lp186
a(lp187
a(lp188
aa.