ccollections
defaultdict
p1
(c__builtin__
dict
p2
tRp3
I0
(dp4
I1
(lp5
Vhttp://dbpedia.org/ontology/abstract
p6
aVhttp://dbpedia.org/ontology/wikiPageRedirects
p7
aVhttp://www.w3.org/2000/01/rdf-schema#comment
p8
asI2
(lp9
ssI1
(dp10
I1
(lp11
Vhttp://dbpedia.org/ontology/abstract
p12
aVhttp://www.w3.org/2000/01/rdf-schema#comment
p13
asI2
(lp14
ssI2
(dp15
I1
(lp16
sI2
(lp17
ssI3
(dp18
I1
(lp19
Vhttp://purl.org/dc/terms/subject
p20
asI2
(lp21
ssI4
(dp22
I1
(lp23
sI2
(lp24
ssI5
(dp25
I1
(lp26
sI2
(lp27
ssI6
(dp28
I1
(lp29
sI2
(lp30
ssI8
(dp31
I1
(lp32
sI2
(lp33
ssI9
(dp34
I1
(lp35
Vhttp://dbpedia.org/property/products
p36
asI2
(lp37
ssI10
(dp38
I1
(lp39
sI2
(lp40
ssI11
(dp41
I1
(lp42
sI2
(lp43
ssI12
(dp44
I1
(lp45
sI2
(lp46
ssI13
(dp47
I1
(lp48
sI2
(lp49
ssI15
(dp50
I1
(lp51
sI2
(lp52
ssI16
(dp53
I1
(lp54
sI2
(lp55
ssI17
(dp56
I1
(lp57
sI2
(lp58
ssI19
(dp59
I1
(lp60
sI2
(lp61
ss.