(lp1
(lp2
(dp3
Vstart
p4
I0
sS'classes'
p5
(lp6
Vhttp://www.w3.org/2002/07/owl#Thing
p7
aVhttp://dbpedia.org/ontology/Company
p8
aVhttp://www.ontologydesignpatterns.org/ont/dul/DUL.owl#Agent
p9
aVhttp://www.ontologydesignpatterns.org/ont/dul/DUL.owl#SocialPerson
p10
aVhttp://www.wikidata.org/entity/Q43229
p11
aVhttp://dbpedia.org/ontology/Agent
p12
aVhttp://dbpedia.org/ontology/Organisation
p13
aVhttp://schema.org/Organization
p14
aVhttp://umbel.org/umbel/rc/Business
p15
aVhttp://umbel.org/umbel/rc/Organization
p16
aVhttp://dbpedia.org/class/yago/Abstraction100002137
p17
aVhttp://dbpedia.org/class/yago/BiotechnologyCompaniesOfTheUnitedStates
p18
aVhttp://dbpedia.org/class/yago/Company108058098
p19
aVhttp://dbpedia.org/class/yago/Group100031264
p20
aVhttp://dbpedia.org/class/yago/Institution108053576
p21
aVhttp://dbpedia.org/class/yago/Organization108008335
p22
aVhttp://dbpedia.org/class/yago/SocialGroup107950920
p23
aVhttp://dbpedia.org/class/yago/YagoLegalActorGeo
p24
aVhttp://dbpedia.org/class/yago/CompaniesBasedInLakeCounty,Illinois
p25
aVhttp://dbpedia.org/class/yago/CompaniesEstablishedIn1888
p26
aVhttp://dbpedia.org/class/yago/DrugCompany108002578
p27
aVhttp://dbpedia.org/class/yago/YagoPermanentlyLocatedEntity
p28
aVhttp://dbpedia.org/class/yago/MultinationalCompanies
p29
aVhttp://dbpedia.org/class/yago/PharmaceuticalCompaniesOfTheUnitedStates
p30
aVhttp://dbpedia.org/class/yago/YagoLegalActor
p31
aVhttp://dbpedia.org/class/yago/VeterinaryMedicineCompanies
p32
asVdisambiguatedURL
p33
Vhttp://dbpedia.org/resource/Abbott_Laboratories
p34
sVnamedEntity
p35
VAbbott Laboratories
p36
sVoffset
p37
I19
saa(lp38
(dp39
Vstart
p40
I0
sg5
(lp41
Vhttp://www.w3.org/2002/07/owl#Thing
p42
aVhttp://dbpedia.org/ontology/Company
p43
aVhttp://www.ontologydesignpatterns.org/ont/dul/DUL.owl#Agent
p44
aVhttp://www.ontologydesignpatterns.org/ont/dul/DUL.owl#SocialPerson
p45
aVhttp://www.wikidata.org/entity/Q43229
p46
aVhttp://dbpedia.org/ontology/Agent
p47
aVhttp://dbpedia.org/ontology/Organisation
p48
aVhttp://schema.org/Organization
p49
aVhttp://umbel.org/umbel/rc/Business
p50
aVhttp://umbel.org/umbel/rc/Organization
p51
aVhttp://dbpedia.org/class/yago/Abstraction100002137
p52
aVhttp://dbpedia.org/class/yago/Company108058098
p53
aVhttp://dbpedia.org/class/yago/Group100031264
p54
aVhttp://dbpedia.org/class/yago/Institution108053576
p55
aVhttp://dbpedia.org/class/yago/Organization108008335
p56
aVhttp://dbpedia.org/class/yago/SocialGroup107950920
p57
aVhttp://dbpedia.org/class/yago/YagoLegalActorGeo
p58
aVhttp://dbpedia.org/class/yago/CompaniesBasedInSanJose,California
p59
aVhttp://dbpedia.org/class/yago/CompaniesEstablishedIn1982
p60
aVhttp://dbpedia.org/class/yago/CompaniesListedOnNASDAQ
p61
aVhttp://dbpedia.org/class/yago/YagoPermanentlyLocatedEntity
p62
aVhttp://dbpedia.org/class/yago/YagoLegalActor
p63
aVhttp://dbpedia.org/class/yago/SoftwareCompaniesBasedInCalifornia
p64
asVdisambiguatedURL
p65
Vhttp://dbpedia.org/resource/Adobe_Systems
p66
sVnamedEntity
p67
VAdobe Systems
p68
sVoffset
p69
I13
saa(lp70
(dp71
Vstart
p72
I0
sg5
(lp73
Vhttp://www.w3.org/2002/07/owl#Thing
p74
aVhttp://dbpedia.org/ontology/Company
p75
aVhttp://www.ontologydesignpatterns.org/ont/dul/DUL.owl#Agent
p76
aVhttp://www.ontologydesignpatterns.org/ont/dul/DUL.owl#SocialPerson
p77
aVhttp://www.wikidata.org/entity/Q43229
p78
aVhttp://dbpedia.org/ontology/Agent
p79
aVhttp://dbpedia.org/ontology/Organisation
p80
aVhttp://schema.org/Organization
p81
aVhttp://umbel.org/umbel/rc/Business
p82
aVhttp://umbel.org/umbel/rc/Organization
p83
aVhttp://dbpedia.org/class/yago/Abstraction100002137
p84
aVhttp://dbpedia.org/class/yago/Company108058098
p85
aVhttp://dbpedia.org/class/yago/FinancialInstitution108054721
p86
aVhttp://dbpedia.org/class/yago/Group100031264
p87
aVhttp://dbpedia.org/class/yago/Institution108053576
p88
aVhttp://dbpedia.org/class/yago/NondepositoryFinancialInstitution108419984
p89
aVhttp://dbpedia.org/class/yago/Organization108008335
p90
aVhttp://dbpedia.org/class/yago/SocialGroup107950920
p91
aVhttp://dbpedia.org/class/yago/YagoLegalActorGeo
p92
aVhttp://dbpedia.org/class/yago/CompaniesBasedInHartford,Connecticut
p93
aVhttp://dbpedia.org/class/yago/CompaniesEstablishedIn1850
p94
aVhttp://dbpedia.org/class/yago/CompaniesListedOnTheNewYorkStockExchange
p95
aVhttp://dbpedia.org/class/yago/DentalCompanies
p96
aVhttp://dbpedia.org/class/yago/InsuranceCompany108070465
p97
aVhttp://dbpedia.org/class/yago/YagoPermanentlyLocatedEntity
p98
aVhttp://dbpedia.org/class/yago/InsuranceCompaniesOfTheUnitedStates
p99
aVhttp://dbpedia.org/class/yago/LifeInsuranceCompanies
p100
aVhttp://dbpedia.org/class/yago/PharmacyBenefitManagementCompaniesBasedInTheUnitedStates
p101
aVhttp://dbpedia.org/class/yago/YagoLegalActor
p102
asVdisambiguatedURL
p103
Vhttp://dbpedia.org/resource/Aetna
p104
sVnamedEntity
p105
VAetna
p106
sVoffset
p107
I5
saa(lp108
(dp109
Vstart
p110
I0
sg5
(lp111
Vhttp://www.w3.org/2002/07/owl#Thing
p112
aVhttp://dbpedia.org/ontology/Company
p113
aVhttp://www.ontologydesignpatterns.org/ont/dul/DUL.owl#Agent
p114
aVhttp://www.ontologydesignpatterns.org/ont/dul/DUL.owl#SocialPerson
p115
aVhttp://www.wikidata.org/entity/Q43229
p116
aVhttp://dbpedia.org/ontology/Agent
p117
aVhttp://dbpedia.org/ontology/Organisation
p118
aVhttp://schema.org/Organization
p119
aVhttp://umbel.org/umbel/rc/Business
p120
aVhttp://umbel.org/umbel/rc/Organization
p121
aVhttp://dbpedia.org/class/yago/Abstraction100002137
p122
aVhttp://dbpedia.org/class/yago/AluminiumCompaniesOfTheUnitedStates
p123
aVhttp://dbpedia.org/class/yago/Company108058098
p124
aVhttp://dbpedia.org/class/yago/Group100031264
p125
aVhttp://dbpedia.org/class/yago/Institution108053576
p126
aVhttp://dbpedia.org/class/yago/Organization108008335
p127
aVhttp://dbpedia.org/class/yago/SocialGroup107950920
p128
aVhttp://dbpedia.org/class/yago/YagoLegalActorGeo
p129
aVhttp://dbpedia.org/class/yago/CompaniesBasedInNewYorkCity
p130
aVhttp://dbpedia.org/class/yago/CompaniesBasedInPittsburgh,Pennsylvania
p131
aVhttp://dbpedia.org/class/yago/CompaniesEstablishedIn1886
p132
aVhttp://dbpedia.org/class/yago/YagoPermanentlyLocatedEntity
p133
aVhttp://dbpedia.org/class/yago/YagoLegalActor
p134
asVdisambiguatedURL
p135
Vhttp://dbpedia.org/resource/Alcoa
p136
sVnamedEntity
p137
VAlcoa
p138
sVoffset
p139
I5
saa(lp140
a(lp141
(dp142
Vstart
p143
I0
sg5
(lp144
Vhttp://www.w3.org/2002/07/owl#Thing
p145
aVhttp://dbpedia.org/ontology/Company
p146
aVhttp://www.ontologydesignpatterns.org/ont/dul/DUL.owl#Agent
p147
aVhttp://www.ontologydesignpatterns.org/ont/dul/DUL.owl#SocialPerson
p148
aVhttp://www.wikidata.org/entity/Q43229
p149
aVhttp://dbpedia.org/ontology/Agent
p150
aVhttp://dbpedia.org/ontology/Organisation
p151
aVhttp://schema.org/Organization
p152
aVhttp://umbel.org/umbel/rc/Business
p153
aVhttp://umbel.org/umbel/rc/Organization
p154
aVhttp://dbpedia.org/class/yago/Abstraction100002137
p155
aVhttp://dbpedia.org/class/yago/BusinessServicesCompaniesOfTheUnitedStates
p156
aVhttp://dbpedia.org/class/yago/Company108058098
p157
aVhttp://dbpedia.org/class/yago/Group100031264
p158
aVhttp://dbpedia.org/class/yago/Institution108053576
p159
aVhttp://dbpedia.org/class/yago/Organization108008335
p160
aVhttp://dbpedia.org/class/yago/SocialGroup107950920
p161
aVhttp://dbpedia.org/class/yago/YagoLegalActorGeo
p162
aVhttp://dbpedia.org/class/yago/CompaniesBasedInPhiladelphia,Pennsylvania
p163
aVhttp://dbpedia.org/class/yago/CompaniesEstablishedIn1959
p164
aVhttp://dbpedia.org/class/yago/YagoPermanentlyLocatedEntity
p165
aVhttp://dbpedia.org/class/yago/HospitalityCompaniesOfTheUnitedStates
p166
aVhttp://dbpedia.org/class/yago/MultinationalCompanies
p167
aVhttp://dbpedia.org/class/yago/YagoLegalActor
p168
aVhttp://dbpedia.org/class/yago/PrivateEquityPortfolioCompanies
p169
asVdisambiguatedURL
p170
Vhttp://dbpedia.org/resource/Aramark
p171
sVnamedEntity
p172
VAramark
p173
sVoffset
p174
I7
saa(lp175
(dp176
Vstart
p177
I0
sg5
(lp178
Vhttp://www.w3.org/2002/07/owl#Thing
p179
aVhttp://dbpedia.org/ontology/Company
p180
aVhttp://www.ontologydesignpatterns.org/ont/dul/DUL.owl#Agent
p181
aVhttp://www.ontologydesignpatterns.org/ont/dul/DUL.owl#SocialPerson
p182
aVhttp://www.wikidata.org/entity/Q43229
p183
aVhttp://dbpedia.org/ontology/Agent
p184
aVhttp://dbpedia.org/ontology/Organisation
p185
aVhttp://schema.org/Organization
p186
aVhttp://umbel.org/umbel/rc/Business
p187
aVhttp://umbel.org/umbel/rc/Organization
p188
aVhttp://dbpedia.org/class/yago/Abstraction100002137
p189
aVhttp://dbpedia.org/class/yago/AgricultureCompaniesOfTheUnitedStates
p190
aVhttp://dbpedia.org/class/yago/Company108058098
p191
aVhttp://dbpedia.org/class/yago/Group100031264
p192
aVhttp://dbpedia.org/class/yago/Institution108053576
p193
aVhttp://dbpedia.org/class/yago/Organization108008335
p194
aVhttp://dbpedia.org/class/yago/SocialGroup107950920
p195
aVhttp://dbpedia.org/class/yago/YagoLegalActorGeo
p196
aVhttp://dbpedia.org/class/yago/ChemicalCompaniesOfTheUnitedStates
p197
aVhttp://dbpedia.org/class/yago/CompaniesBasedInMaconCounty,Illinois
p198
aVhttp://dbpedia.org/class/yago/CompaniesEstablishedIn1902
p199
aVhttp://dbpedia.org/class/yago/FoodProductionCompaniesOfTheUnitedStates
p200
aVhttp://dbpedia.org/class/yago/YagoPermanentlyLocatedEntity
p201
aVhttp://dbpedia.org/class/yago/YagoLegalActor
p202
aVhttp://dbpedia.org/class/yago/PubliclyTradedCompaniesOfTheUnitedStates
p203
aVhttp://dbpedia.org/class/yago/StarchCompanies
p204
asVdisambiguatedURL
p205
Vhttp://dbpedia.org/resource/Archer_Daniels_Midland
p206
sVnamedEntity
p207
VArcher Daniels Midland
p208
sVoffset
p209
I22
saa(lp210
(dp211
Vstart
p212
I0
sg5
(lp213
Vhttp://umbel.org/umbel/rc/Business
p214
asVdisambiguatedURL
p215
Vhttp://dbpedia.org/resource/Automatic_Data_Processing
p216
sVnamedEntity
p217
VAutomatic Data Processing
p218
sVoffset
p219
I25
saa(lp220
(dp221
Vstart
p222
I0
sg5
(lp223
Vhttp://www.w3.org/2002/07/owl#Thing
p224
aVhttp://dbpedia.org/ontology/Company
p225
aVhttp://www.ontologydesignpatterns.org/ont/dul/DUL.owl#Agent
p226
aVhttp://www.ontologydesignpatterns.org/ont/dul/DUL.owl#SocialPerson
p227
aVhttp://www.wikidata.org/entity/Q43229
p228
aVhttp://dbpedia.org/ontology/Agent
p229
aVhttp://dbpedia.org/ontology/Organisation
p230
aVhttp://schema.org/Organization
p231
aVhttp://umbel.org/umbel/rc/Business
p232
aVhttp://dbpedia.org/class/yago/Abstraction100002137
p233
aVhttp://dbpedia.org/class/yago/Company108058098
p234
aVhttp://dbpedia.org/class/yago/Group100031264
p235
aVhttp://dbpedia.org/class/yago/Institution108053576
p236
aVhttp://dbpedia.org/class/yago/Organization108008335
p237
aVhttp://dbpedia.org/class/yago/SocialGroup107950920
p238
aVhttp://dbpedia.org/class/yago/YagoLegalActorGeo
p239
aVhttp://dbpedia.org/class/yago/CompaniesBasedInPhoenix,Arizona
p240
aVhttp://dbpedia.org/class/yago/CompaniesEstablishedIn1921
p241
aVhttp://dbpedia.org/class/yago/DistributionCompaniesOfTheUnitedStates
p242
aVhttp://dbpedia.org/class/yago/YagoPermanentlyLocatedEntity
p243
aVhttp://dbpedia.org/class/yago/YagoLegalActor
p244
asVdisambiguatedURL
p245
Vhttp://dbpedia.org/resource/Avnet
p246
sVnamedEntity
p247
VAvnet
p248
sVoffset
p249
I5
saa(lp250
(dp251
Vstart
p252
I0
sg5
(lp253
Vhttp://www.w3.org/2002/07/owl#Thing
p254
aVhttp://dbpedia.org/ontology/Company
p255
aVhttp://www.ontologydesignpatterns.org/ont/dul/DUL.owl#Agent
p256
aVhttp://www.ontologydesignpatterns.org/ont/dul/DUL.owl#SocialPerson
p257
aVhttp://www.wikidata.org/entity/Q43229
p258
aVhttp://dbpedia.org/ontology/Agent
p259
aVhttp://dbpedia.org/ontology/Organisation
p260
aVhttp://schema.org/Organization
p261
aVhttp://umbel.org/umbel/rc/Business
p262
aVhttp://umbel.org/umbel/rc/Organization
p263
aVhttp://dbpedia.org/class/yago/Abstraction100002137
p264
aVhttp://dbpedia.org/class/yago/Company108058098
p265
aVhttp://dbpedia.org/class/yago/Group100031264
p266
aVhttp://dbpedia.org/class/yago/Institution108053576
p267
aVhttp://dbpedia.org/class/yago/Organization108008335
p268
aVhttp://dbpedia.org/class/yago/SocialGroup107950920
p269
aVhttp://dbpedia.org/class/yago/YagoLegalActorGeo
p270
aVhttp://dbpedia.org/class/yago/ChemicalCompaniesOfGermany
p271
aVhttp://dbpedia.org/class/yago/CompaniesBasedInRhineland-Palatinate
p272
aVhttp://dbpedia.org/class/yago/CompaniesEstablishedIn1865
p273
aVhttp://dbpedia.org/class/yago/YagoPermanentlyLocatedEntity
p274
aVhttp://dbpedia.org/class/yago/YagoLegalActor
p275
asVdisambiguatedURL
p276
Vhttp://dbpedia.org/resource/BASF
p277
sVnamedEntity
p278
VBASF
p279
sVoffset
p280
I4
saa(lp281
(dp282
Vstart
p283
I0
sg5
(lp284
Vhttp://www.w3.org/2002/07/owl#Thing
p285
aVhttp://dbpedia.org/ontology/Company
p286
aVhttp://www.ontologydesignpatterns.org/ont/dul/DUL.owl#Agent
p287
aVhttp://www.ontologydesignpatterns.org/ont/dul/DUL.owl#SocialPerson
p288
aVhttp://www.wikidata.org/entity/Q43229
p289
aVhttp://dbpedia.org/ontology/Agent
p290
aVhttp://dbpedia.org/ontology/Organisation
p291
aVhttp://schema.org/Organization
p292
aVhttp://umbel.org/umbel/rc/Business
p293
aVhttp://umbel.org/umbel/rc/Organization
p294
aVhttp://dbpedia.org/class/yago/Abstraction100002137
p295
aVhttp://dbpedia.org/class/yago/Company108058098
p296
aVhttp://dbpedia.org/class/yago/Group100031264
p297
aVhttp://dbpedia.org/class/yago/Institution108053576
p298
aVhttp://dbpedia.org/class/yago/Organization108008335
p299
aVhttp://dbpedia.org/class/yago/SocialGroup107950920
p300
aVhttp://dbpedia.org/class/yago/YagoLegalActorGeo
p301
aVhttp://dbpedia.org/class/yago/CompaniesBasedInBergenCounty,NewJersey
p302
aVhttp://dbpedia.org/class/yago/CompaniesEstablishedIn1897
p303
aVhttp://dbpedia.org/class/yago/YagoPermanentlyLocatedEntity
p304
aVhttp://dbpedia.org/class/yago/YagoLegalActor
p305
asVdisambiguatedURL
p306
Vhttp://dbpedia.org/resource/Becton_Dickinson
p307
sVnamedEntity
p308
VBecton Dickinson
p309
sVoffset
p310
I16
saa(lp311
(dp312
Vstart
p313
I0
sg5
(lp314
Vhttp://www.w3.org/2002/07/owl#Thing
p315
aVhttp://dbpedia.org/ontology/Company
p316
aVhttp://www.ontologydesignpatterns.org/ont/dul/DUL.owl#Agent
p317
aVhttp://www.ontologydesignpatterns.org/ont/dul/DUL.owl#SocialPerson
p318
aVhttp://www.wikidata.org/entity/Q43229
p319
aVhttp://dbpedia.org/ontology/Agent
p320
aVhttp://dbpedia.org/ontology/Organisation
p321
aVhttp://schema.org/Organization
p322
aVhttp://umbel.org/umbel/rc/Business
p323
aVhttp://umbel.org/umbel/rc/Organization
p324
aVhttp://dbpedia.org/class/yago/Abstraction100002137
p325
aVhttp://dbpedia.org/class/yago/Company108058098
p326
aVhttp://dbpedia.org/class/yago/Group100031264
p327
aVhttp://dbpedia.org/class/yago/HoldingCompany108185369
p328
aVhttp://dbpedia.org/class/yago/Institution108053576
p329
aVhttp://dbpedia.org/class/yago/Organization108008335
p330
aVhttp://dbpedia.org/class/yago/SocialGroup107950920
p331
aVhttp://dbpedia.org/class/yago/YagoLegalActorGeo
p332
aVhttp://dbpedia.org/class/yago/CompaniesBasedInOmaha,Nebraska
p333
aVhttp://dbpedia.org/class/yago/CompaniesEstablishedIn1839
p334
aVhttp://dbpedia.org/class/yago/ConglomerateCompanies
p335
aVhttp://dbpedia.org/class/yago/YagoPermanentlyLocatedEntity
p336
aVhttp://dbpedia.org/class/yago/HoldingCompaniesOfTheUnitedStates
p337
aVhttp://dbpedia.org/class/yago/MultinationalCompaniesHeadquarteredInTheUnitedStates
p338
aVhttp://dbpedia.org/class/yago/YagoLegalActor
p339
aVhttp://dbpedia.org/class/yago/PubliclyTradedCompaniesOfTheUnitedStates
p340
aVhttp://dbpedia.org/class/yago/ReinsuranceCompanies
p341
asVdisambiguatedURL
p342
Vhttp://dbpedia.org/resource/Berkshire_Hathaway
p343
sVnamedEntity
p344
VBerkshire Hathaway
p345
sVoffset
p346
I18
saa(lp347
(dp348
Vstart
p349
I0
sg5
(lp350
Vhttp://www.w3.org/2002/07/owl#Thing
p351
aVhttp://dbpedia.org/ontology/Company
p352
aVhttp://www.ontologydesignpatterns.org/ont/dul/DUL.owl#Agent
p353
aVhttp://www.ontologydesignpatterns.org/ont/dul/DUL.owl#SocialPerson
p354
aVhttp://www.wikidata.org/entity/Q43229
p355
aVhttp://dbpedia.org/ontology/Agent
p356
aVhttp://dbpedia.org/ontology/Organisation
p357
aVhttp://schema.org/Organization
p358
aVhttp://umbel.org/umbel/rc/Business
p359
aVhttp://umbel.org/umbel/rc/Organization
p360
aVhttp://dbpedia.org/class/yago/Abstraction100002137
p361
aVhttp://dbpedia.org/class/yago/AircraftEngineManufacturersOfGermany
p362
aVhttp://dbpedia.org/class/yago/AutomotiveCompaniesOfGermany
p363
aVhttp://dbpedia.org/class/yago/Business108061042
p364
aVhttp://dbpedia.org/class/yago/CarManufacturer108066763
p365
aVhttp://dbpedia.org/class/yago/CarManufacturersOfGermany
p366
aVhttp://dbpedia.org/class/yago/Company108058098
p367
aVhttp://dbpedia.org/class/yago/Enterprise108056231
p368
aVhttp://dbpedia.org/class/yago/Group100031264
p369
aVhttp://dbpedia.org/class/yago/Institution108053576
p370
aVhttp://dbpedia.org/class/yago/Manufacturer108060446
p371
aVhttp://dbpedia.org/class/yago/Organization108008335
p372
aVhttp://dbpedia.org/class/yago/SocialGroup107950920
p373
aVhttp://dbpedia.org/class/yago/YagoLegalActorGeo
p374
aVhttp://dbpedia.org/class/yago/CompaniesBasedInMunich
p375
aVhttp://dbpedia.org/class/yago/CompaniesEstablishedIn1917
p376
aVhttp://dbpedia.org/class/yago/YagoPermanentlyLocatedEntity
p377
aVhttp://dbpedia.org/class/yago/LuxuryMotorVehicleManufacturers
p378
aVhttp://dbpedia.org/class/yago/MotorVehicleCompanies
p379
aVhttp://dbpedia.org/class/yago/MotorVehicleManufacturersOfGermany
p380
aVhttp://dbpedia.org/class/yago/MotorcycleManufacturersOfGermany
p381
aVhttp://dbpedia.org/class/yago/YagoLegalActor
p382
aVhttp://dbpedia.org/class/yago/SportsCarManufacturers
p383
asVdisambiguatedURL
p384
Vhttp://dbpedia.org/resource/BMW
p385
sVnamedEntity
p386
VBMW
p387
sVoffset
p388
I3
saa(lp389
(dp390
Vstart
p391
I0
sg5
(lp392
Vhttp://www.w3.org/2002/07/owl#Thing
p393
aVhttp://dbpedia.org/ontology/Company
p394
aVhttp://www.ontologydesignpatterns.org/ont/dul/DUL.owl#Agent
p395
aVhttp://www.ontologydesignpatterns.org/ont/dul/DUL.owl#SocialPerson
p396
aVhttp://www.wikidata.org/entity/Q43229
p397
aVhttp://dbpedia.org/ontology/Agent
p398
aVhttp://dbpedia.org/ontology/Organisation
p399
aVhttp://schema.org/Organization
p400
aVhttp://umbel.org/umbel/rc/Business
p401
aVhttp://dbpedia.org/class/yago/Abstraction100002137
p402
aVhttp://dbpedia.org/class/yago/Company108058098
p403
aVhttp://dbpedia.org/class/yago/Group100031264
p404
aVhttp://dbpedia.org/class/yago/Institution108053576
p405
aVhttp://dbpedia.org/class/yago/Organization108008335
p406
aVhttp://dbpedia.org/class/yago/SocialGroup107950920
p407
aVhttp://dbpedia.org/class/yago/YagoLegalActorGeo
p408
aVhttp://dbpedia.org/class/yago/CompaniesBasedInEdenPrairie,Minnesota
p409
aVhttp://dbpedia.org/class/yago/CompaniesEstablishedIn1905
p410
aVhttp://dbpedia.org/class/yago/YagoPermanentlyLocatedEntity
p411
aVhttp://dbpedia.org/class/yago/LogisticsCompaniesOfTheUnitedStates
p412
aVhttp://dbpedia.org/class/yago/YagoLegalActor
p413
asVdisambiguatedURL
p414
Vhttp://dbpedia.org/resource/C._H._Robinson_Worldwide
p415
sVnamedEntity
p416
VC.H. Robinson Worldwide
p417
sVoffset
p418
I23
saa(lp419
a(lp420
(dp421
Vstart
p422
I0
sg5
(lp423
Vhttp://www.w3.org/2002/07/owl#Thing
p424
aVhttp://dbpedia.org/ontology/Company
p425
aVhttp://www.ontologydesignpatterns.org/ont/dul/DUL.owl#Agent
p426
aVhttp://www.ontologydesignpatterns.org/ont/dul/DUL.owl#SocialPerson
p427
aVhttp://www.wikidata.org/entity/Q43229
p428
aVhttp://dbpedia.org/ontology/Agent
p429
aVhttp://dbpedia.org/ontology/Organisation
p430
aVhttp://schema.org/Organization
p431
aVhttp://umbel.org/umbel/rc/Business
p432
aVhttp://umbel.org/umbel/rc/Organization
p433
aVhttp://dbpedia.org/class/yago/Abstraction100002137
p434
aVhttp://dbpedia.org/class/yago/Company108058098
p435
aVhttp://dbpedia.org/class/yago/Group100031264
p436
aVhttp://dbpedia.org/class/yago/Institution108053576
p437
aVhttp://dbpedia.org/class/yago/Organization108008335
p438
aVhttp://dbpedia.org/class/yago/SocialGroup107950920
p439
aVhttp://dbpedia.org/class/yago/YagoLegalActorGeo
p440
aVhttp://dbpedia.org/class/yago/CompaniesBasedInSanJose,California
p441
aVhttp://dbpedia.org/class/yago/CompaniesEstablishedIn1984
p442
aVhttp://dbpedia.org/class/yago/CompaniesListedOnNASDAQ
p443
aVhttp://dbpedia.org/class/yago/YagoPermanentlyLocatedEntity
p444
aVhttp://dbpedia.org/class/yago/MultinationalCompaniesHeadquarteredInTheUnitedStates
p445
aVhttp://dbpedia.org/class/yago/NetworkingCompaniesOfTheUnitedStates
p446
aVhttp://dbpedia.org/class/yago/NetworkingHardwareCompanies
p447
aVhttp://dbpedia.org/class/yago/YagoLegalActor
p448
aVhttp://dbpedia.org/class/yago/PubliclyTradedCompaniesOfTheUnitedStates
p449
asVdisambiguatedURL
p450
Vhttp://dbpedia.org/resource/Cisco_Systems
p451
sVnamedEntity
p452
VCisco Systems
p453
sVoffset
p454
I13
saa(lp455
(dp456
Vstart
p457
I0
sg5
(lp458
Vhttp://www.w3.org/2002/07/owl#Thing
p459
aVhttp://dbpedia.org/ontology/Company
p460
aVhttp://www.ontologydesignpatterns.org/ont/dul/DUL.owl#Agent
p461
aVhttp://www.ontologydesignpatterns.org/ont/dul/DUL.owl#SocialPerson
p462
aVhttp://www.wikidata.org/entity/Q43229
p463
aVhttp://dbpedia.org/ontology/Agent
p464
aVhttp://dbpedia.org/ontology/Organisation
p465
aVhttp://schema.org/Organization
p466
aVhttp://umbel.org/umbel/rc/Business
p467
aVhttp://umbel.org/umbel/rc/Organization
p468
aVhttp://dbpedia.org/class/yago/Abstraction100002137
p469
aVhttp://dbpedia.org/class/yago/BeverageCompaniesOfTheUnitedStates
p470
aVhttp://dbpedia.org/class/yago/Company108058098
p471
aVhttp://dbpedia.org/class/yago/Group100031264
p472
aVhttp://dbpedia.org/class/yago/Institution108053576
p473
aVhttp://dbpedia.org/class/yago/Organization108008335
p474
aVhttp://dbpedia.org/class/yago/SocialGroup107950920
p475
aVhttp://dbpedia.org/class/yago/YagoLegalActorGeo
p476
aVhttp://dbpedia.org/class/yago/CompaniesBasedInAtlanta,Georgia
p477
aVhttp://dbpedia.org/class/yago/CompaniesEstablishedIn1892
p478
aVhttp://dbpedia.org/class/yago/FoodCompany108003427
p479
aVhttp://dbpedia.org/class/yago/YagoPermanentlyLocatedEntity
p480
aVhttp://dbpedia.org/class/yago/MultinationalCompaniesHeadquarteredInTheUnitedStates
p481
aVhttp://dbpedia.org/class/yago/MultinationalFoodCompanies
p482
aVhttp://dbpedia.org/class/yago/YagoLegalActor
p483
aVhttp://dbpedia.org/class/yago/PubliclyTradedCompaniesOfTheUnitedStates
p484
asVdisambiguatedURL
p485
Vhttp://dbpedia.org/resource/The_Coca-Cola_Company
p486
sVnamedEntity
p487
VCoca-Cola
p488
sVoffset
p489
I9
saa(lp490
(dp491
Vstart
p492
I0
sg5
(lp493
Vhttp://www.w3.org/2002/07/owl#Thing
p494
aVhttp://dbpedia.org/ontology/Company
p495
aVhttp://www.ontologydesignpatterns.org/ont/dul/DUL.owl#Agent
p496
aVhttp://www.ontologydesignpatterns.org/ont/dul/DUL.owl#SocialPerson
p497
aVhttp://www.wikidata.org/entity/Q43229
p498
aVhttp://dbpedia.org/ontology/Agent
p499
aVhttp://dbpedia.org/ontology/Organisation
p500
aVhttp://schema.org/Organization
p501
aVhttp://umbel.org/umbel/rc/Business
p502
aVhttp://umbel.org/umbel/rc/Organization
p503
aVhttp://dbpedia.org/class/yago/Abstraction100002137
p504
aVhttp://dbpedia.org/class/yago/Company108058098
p505
aVhttp://dbpedia.org/class/yago/Group100031264
p506
aVhttp://dbpedia.org/class/yago/Institution108053576
p507
aVhttp://dbpedia.org/class/yago/Organization108008335
p508
aVhttp://dbpedia.org/class/yago/SocialGroup107950920
p509
aVhttp://dbpedia.org/class/yago/YagoLegalActorGeo
p510
aVhttp://dbpedia.org/class/yago/CompaniesBasedInWashington(state)
p511
aVhttp://dbpedia.org/class/yago/CompaniesEstablishedIn1983
p512
aVhttp://dbpedia.org/class/yago/YagoPermanentlyLocatedEntity
p513
aVhttp://dbpedia.org/class/yago/OnlineRetailCompaniesOfTheUnitedStates
p514
aVhttp://dbpedia.org/class/yago/YagoLegalActor
p515
aVhttp://dbpedia.org/class/yago/PubliclyTradedCompaniesOfTheUnitedStates
p516
aVhttp://dbpedia.org/class/yago/RetailCompaniesOfTheUnitedStates
p517
asVdisambiguatedURL
p518
Vhttp://dbpedia.org/resource/Costco
p519
sVnamedEntity
p520
VCostco Wholesale
p521
sVoffset
p522
I16
saa(lp523
(dp524
Vstart
p525
I0
sg5
(lp526
Vhttp://umbel.org/umbel/rc/Business
p527
aVhttp://umbel.org/umbel/rc/Organization
p528
aVhttp://dbpedia.org/class/yago/Abstraction100002137
p529
aVhttp://dbpedia.org/class/yago/Company108058098
p530
aVhttp://dbpedia.org/class/yago/Group100031264
p531
aVhttp://dbpedia.org/class/yago/Institution108053576
p532
aVhttp://dbpedia.org/class/yago/Organization108008335
p533
aVhttp://dbpedia.org/class/yago/SocialGroup107950920
p534
aVhttp://dbpedia.org/class/yago/YagoLegalActorGeo
p535
aVhttp://dbpedia.org/class/yago/CompaniesBasedInRhodeIsland
p536
aVhttp://dbpedia.org/class/yago/CompaniesEstablishedIn2007
p537
aVhttp://dbpedia.org/class/yago/YagoPermanentlyLocatedEntity
p538
aVhttp://dbpedia.org/class/yago/PharmacyBenefitManagementCompaniesBasedInTheUnitedStates
p539
aVhttp://dbpedia.org/class/yago/YagoLegalActor
p540
asVdisambiguatedURL
p541
Vhttp://dbpedia.org/resource/CVS_Caremark
p542
sVnamedEntity
p543
VCaremark
p544
sVoffset
p545
I12
saa(lp546
(dp547
Vstart
p548
I0
sg5
(lp549
Vhttp://www.w3.org/2002/07/owl#Thing
p550
aVhttp://dbpedia.org/ontology/Company
p551
aVhttp://www.ontologydesignpatterns.org/ont/dul/DUL.owl#Agent
p552
aVhttp://www.ontologydesignpatterns.org/ont/dul/DUL.owl#SocialPerson
p553
aVhttp://www.wikidata.org/entity/Q43229
p554
aVhttp://dbpedia.org/ontology/Agent
p555
aVhttp://dbpedia.org/ontology/Organisation
p556
aVhttp://schema.org/Organization
p557
aVhttp://umbel.org/umbel/rc/Business
p558
aVhttp://dbpedia.org/class/yago/Abstraction100002137
p559
aVhttp://dbpedia.org/class/yago/Company108058098
p560
aVhttp://dbpedia.org/class/yago/Group100031264
p561
aVhttp://dbpedia.org/class/yago/Institution108053576
p562
aVhttp://dbpedia.org/class/yago/Organization108008335
p563
aVhttp://dbpedia.org/class/yago/SocialGroup107950920
p564
aVhttp://dbpedia.org/class/yago/YagoLegalActorGeo
p565
aVhttp://dbpedia.org/class/yago/YagoPermanentlyLocatedEntity
p566
aVhttp://dbpedia.org/class/yago/YagoLegalActor
p567
asVdisambiguatedURL
p568
Vhttp://dbpedia.org/resource/DaVita
p569
sVnamedEntity
p570
VDaVita
p571
sVoffset
p572
I6
saa.