(lp1
(dp2
I0
(dp3
I0
(lp4
sI1
(lp5
Vhttp://dbpedia.org/ontology/abstract
p6
aVhttp://dbpedia.org/ontology/wikiPageRedirects
p7
aVhttp://www.w3.org/2000/01/rdf-schema#comment
p8
asI2
(lp9
ssI1
(dp10
I0
g5
sI1
(lp11
sI2
(lp12
ssI2
(dp13
I0
g9
sI1
g12
sI2
(lp14
ssa(dp15
I0
(dp16
I0
(lp17
sI1
(lp18
Vhttp://dbpedia.org/ontology/abstract
p19
aVhttp://www.w3.org/2000/01/rdf-schema#comment
p20
asI2
(lp21
ssI1
(dp22
I0
g18
sI1
(lp23
sI2
(lp24
ssI2
(dp25
I0
g21
sI1
g24
sI2
(lp26
ssa(dp27
I0
(dp28
I0
(lp29
sI1
(lp30
sI2
(lp31
ssI1
(dp32
I0
g30
sI1
(lp33
sI2
(lp34
ssI2
(dp35
I0
g31
sI1
g34
sI2
(lp36
ssa(dp37
I0
(dp38
I0
(lp39
sI1
(lp40
sI2
(lp41
ssI1
(dp42
I0
g40
sI1
(lp43
sI2
(lp44
ssI2
(dp45
I0
g41
sI1
g44
sI2
(lp46
ssa(dp47
I0
(dp48
I0
(lp49
sI1
(lp50
sI2
(lp51
ssI1
(dp52
I0
g50
sI1
(lp53
sI2
(lp54
ssI2
(dp55
I0
g51
sI1
g54
sI2
(lp56
ssa(dp57
I0
(dp58
I0
(lp59
sI1
(lp60
sI2
(lp61
ssI1
(dp62
I0
g60
sI1
(lp63
sI2
(lp64
ssI2
(dp65
I0
g61
sI1
g64
sI2
(lp66
ssa(dp67
I0
(dp68
I0
(lp69
sI1
(lp70
sI2
(lp71
ssI1
(dp72
I0
g70
sI1
(lp73
sI2
(lp74
ssI2
(dp75
I0
g71
sI1
g74
sI2
(lp76
ssa(dp77
I0
(dp78
I0
(lp79
sI1
(lp80
sI2
(lp81
ssI1
(dp82
I0
g80
sI1
(lp83
sI2
(lp84
ssI2
(dp85
I0
g81
sI1
g84
sI2
(lp86
ssa(dp87
I0
(dp88
I0
(lp89
sI1
(lp90
sI2
(lp91
ssI1
(dp92
I0
g90
sI1
(lp93
sI2
(lp94
ssI2
(dp95
I0
g91
sI1
g94
sI2
(lp96
ssa(dp97
I0
(dp98
I0
(lp99
sI1
(lp100
sI2
(lp101
ssI1
(dp102
I0
g100
sI1
(lp103
sI2
(lp104
ssI2
(dp105
I0
g101
sI1
g104
sI2
(lp106
ssa(dp107
I0
(dp108
I0
(lp109
sI1
(lp110
sI2
(lp111
ssI1
(dp112
I0
g110
sI1
(lp113
sI2
(lp114
ssI2
(dp115
I0
g111
sI1
g114
sI2
(lp116
ssa(dp117
I0
(dp118
I0
(lp119
sI1
(lp120
sI2
(lp121
ssI1
(dp122
I0
g120
sI1
(lp123
sI2
(lp124
ssI2
(dp125
I0
g121
sI1
g124
sI2
(lp126
ssa(dp127
I0
(dp128
I0
(lp129
sI1
(lp130
sI2
(lp131
ssI1
(dp132
I0
g130
sI1
(lp133
sI2
(lp134
ssI2
(dp135
I0
g131
sI1
g134
sI2
(lp136
ssa(dp137
I0
(dp138
I0
(lp139
sI1
(lp140
sI2
(lp141
ssI1
(dp142
I0
g140
sI1
(lp143
sI2
(lp144
ssI2
(dp145
I0
g141
sI1
g144
sI2
(lp146
ssa(dp147
I0
(dp148
I0
(lp149
sI1
(lp150
sI2
(lp151
ssI1
(dp152
I0
g150
sI1
(lp153
sI2
(lp154
ssI2
(dp155
I0
g151
sI1
g154
sI2
(lp156
ssa(dp157
I0
(dp158
I0
(lp159
sI1
(lp160
sI2
(lp161
ssI1
(dp162
I0
g160
sI1
(lp163
sI2
(lp164
ssI2
(dp165
I0
g161
sI1
g164
sI2
(lp166
ssa(dp167
I0
(dp168
I0
(lp169
sI1
(lp170
sI2
(lp171
ssI1
(dp172
I0
g170
sI1
(lp173
sI2
(lp174
ssI2
(dp175
I0
g171
sI1
g174
sI2
(lp176
ssa(dp177
I0
(dp178
I0
(lp179
sI1
(lp180
sI2
(lp181
ssI1
(dp182
I0
g180
sI1
(lp183
sI2
(lp184
ssI2
(dp185
I0
g181
sI1
g184
sI2
(lp186
ssa(dp187
I0
(dp188
I0
(lp189
sI1
(lp190
sI2
(lp191
ssI1
(dp192
I0
g190
sI1
(lp193
sI2
(lp194
ssI2
(dp195
I0
g191
sI1
g194
sI2
(lp196
ssa(dp197
I0
(dp198
I0
(lp199
sI1
(lp200
sI2
(lp201
ssI1
(dp202
I0
g200
sI1
(lp203
sI2
(lp204
ssI2
(dp205
I0
g201
sI1
g204
sI2
(lp206
ssa.