(lp1
(lp2
(dp3
Vstart
p4
I0
sVdisambiguatedURL
p5
Vhttp://dbpedia.org/resource/Chinese
p6
sVnamedEntity
p7
VChinese
p8
sVoffset
p9
I7
saa(lp10
(dp11
Vstart
p12
I0
sVdisambiguatedURL
p13
Vhttp://dbpedia.org/resource/English,_Indiana
p14
sVnamedEntity
p15
VEnglish
p16
sVoffset
p17
I7
saa(lp18
(dp19
Vstart
p20
I0
sVdisambiguatedURL
p21
Vhttp://dbpedia.org/resource/English,_Indiana
p22
sVnamedEntity
p23
VEnglish
p24
sVoffset
p25
I7
saa(lp26
(dp27
Vstart
p28
I0
sVdisambiguatedURL
p29
Vhttp://dbpedia.org/resource/English,_Indiana
p30
sVnamedEntity
p31
VEnglish
p32
sVoffset
p33
I7
saa(lp34
(dp35
Vstart
p36
I0
sVdisambiguatedURL
p37
Vhttp://dbpedia.org/resource/English,_Indiana
p38
sVnamedEntity
p39
VEnglish
p40
sVoffset
p41
I7
saa(lp42
(dp43
Vstart
p44
I0
sVdisambiguatedURL
p45
Vhttp://dbpedia.org/resource/English,_Indiana
p46
sVnamedEntity
p47
VEnglish
p48
sVoffset
p49
I7
saa(lp50
(dp51
Vstart
p52
I0
sVdisambiguatedURL
p53
Vhttp://dbpedia.org/resource/English,_Indiana
p54
sVnamedEntity
p55
VEnglish
p56
sVoffset
p57
I7
saa(lp58
(dp59
Vstart
p60
I0
sVdisambiguatedURL
p61
Vhttp://dbpedia.org/resource/English,_Indiana
p62
sVnamedEntity
p63
VEnglish
p64
sVoffset
p65
I7
saa(lp66
(dp67
Vstart
p68
I0
sVdisambiguatedURL
p69
Vhttp://dbpedia.org/resource/English,_Indiana
p70
sVnamedEntity
p71
VEnglish
p72
sVoffset
p73
I7
saa(lp74
(dp75
Vstart
p76
I0
sVdisambiguatedURL
p77
Vhttp://dbpedia.org/resource/English,_Indiana
p78
sVnamedEntity
p79
VEnglish
p80
sVoffset
p81
I7
saa(lp82
(dp83
Vstart
p84
I0
sVdisambiguatedURL
p85
Vhttp://dbpedia.org/resource/French_River_(Ontario)
p86
sVnamedEntity
p87
VFrench
p88
sVoffset
p89
I6
saa(lp90
(dp91
Vstart
p92
I0
sVdisambiguatedURL
p93
Vhttp://dbpedia.org/resource/The_Hawaiians
p94
sVnamedEntity
p95
VHawaiian
p96
sVoffset
p97
I8
saa(lp98
(dp99
Vstart
p100
I0
sVdisambiguatedURL
p101
Vhttp://dbpedia.org/resource/Japonic_languages
p102
sVnamedEntity
p103
VJapanese
p104
sVoffset
p105
I8
saa(lp106
(dp107
Vstart
p108
I0
sVdisambiguatedURL
p109
NsVnamedEntity
p110
VMangarevan
p111
sVoffset
p112
I10
saa(lp113
(dp114
Vstart
p115
I0
sVdisambiguatedURL
p116
NsVnamedEntity
p117
VMarshallese
p118
sVoffset
p119
I11
saa(lp120
(dp121
Vstart
p122
I0
sVdisambiguatedURL
p123
NsVnamedEntity
p124
VMarshallese
p125
sVoffset
p126
I11
saa(lp127
(dp128
Vstart
p129
I0
sVdisambiguatedURL
p130
NsVnamedEntity
p131
VNiuean
p132
sVoffset
p133
I6
saa(lp134
(dp135
Vstart
p136
I0
sVdisambiguatedURL
p137
Vhttp://dbpedia.org/resource/Spanish,_Ontario
p138
sVnamedEntity
p139
VSpanish
p140
sVoffset
p141
I7
saa(lp142
(dp143
Vstart
p144
I0
sVdisambiguatedURL
p145
Vhttp://dbpedia.org/resource/Spanish,_Ontario
p146
sVnamedEntity
p147
VSpanish
p148
sVoffset
p149
I7
saa.