ccollections
defaultdict
p1
(c__builtin__
dict
p2
tRp3
I0
(dp4
I0
(lp5
sI1
(lp6
sI3
(lp7
Vhttp://www.w3.org/1999/02/22-rdf-syntax-ns#type
p8
aVhttp://purl.org/dc/terms/subject
p9
aVhttp://dbpedia.org/property/officialLanguages
p10
aVhttp://www.w3.org/2000/01/rdf-schema#comment
p11
aVhttp://dbpedia.org/ontology/abstract
p12
aVhttp://dbpedia.org/ontology/officialLanguage
p13
aVhttp://dbpedia.org/ontology/language
p14
assI2
(dp15
I0
(lp16
sI1
(lp17
sI3
(lp18
ssI3
(dp19
I0
(lp20
sI1
(lp21
sI3
(lp22
Vhttp://dbpedia.org/property/languages
p23
aVhttp://dbpedia.org/ontology/country
p24
aVhttp://dbpedia.org/ontology/language
p25
aVhttp://dbpedia.org/property/country
p26
assI4
(dp27
I0
(lp28
sI1
(lp29
sI3
(lp30
ssI5
(dp31
I0
(lp32
sI1
(lp33
sI3
(lp34
ssI6
(dp35
I0
(lp36
sI1
(lp37
sI3
(lp38
Vhttp://www.w3.org/2000/01/rdf-schema#seeAlso
p39
aVhttp://purl.org/dc/terms/subject
p40
aVhttp://dbpedia.org/property/officialLanguages
p41
aVhttp://www.w3.org/2000/01/rdf-schema#comment
p42
aVhttp://dbpedia.org/ontology/abstract
p43
aVhttp://dbpedia.org/ontology/spokenIn
p44
aVhttp://dbpedia.org/ontology/officialLanguage
p45
aVhttp://dbpedia.org/ontology/language
p46
aVhttp://dbpedia.org/ontology/populationPlace
p47
assI7
(dp48
I0
(lp49
sI1
(lp50
sI3
(lp51
Vhttp://dbpedia.org/property/demographics2Title
p52
aVhttp://dbpedia.org/property/venue
p53
assI8
(dp54
I0
(lp55
sI1
(lp56
sI3
(lp57
Vhttp://dbpedia.org/ontology/wikiPageExternalLink
p58
aVhttp://dbpedia.org/ontology/hometown
p59
aVhttp://dbpedia.org/property/headquarters
p60
aVhttp://dbpedia.org/property/origin
p61
assI9
(dp62
I0
(lp63
sI1
(lp64
sI3
(lp65
Vhttp://dbpedia.org/ontology/abstract
p66
aVhttp://www.w3.org/2000/01/rdf-schema#comment
p67
assI10
(dp68
I0
(lp69
sI1
(lp70
sI3
(lp71
Vhttp://dbpedia.org/property/languages
p72
aVhttp://www.w3.org/2000/01/rdf-schema#seeAlso
p73
aVhttp://www.w3.org/1999/02/22-rdf-syntax-ns#type
p74
aVhttp://purl.org/dc/terms/subject
p75
aVhttp://dbpedia.org/property/officialLanguages
p76
aVhttp://www.w3.org/2000/01/rdf-schema#comment
p77
aVhttp://dbpedia.org/ontology/country
p78
aVhttp://dbpedia.org/ontology/abstract
p79
aVhttp://dbpedia.org/property/location
p80
aVhttp://dbpedia.org/property/states
p81
aVhttp://dbpedia.org/ontology/spokenIn
p82
aVhttp://dbpedia.org/property/country
p83
aVhttp://dbpedia.org/ontology/populationPlace
p84
aVhttp://dbpedia.org/property/popplace
p85
aVhttp://dbpedia.org/property/stadium
p86
aVhttp://dbpedia.org/ontology/location
p87
assI11
(dp88
I0
(lp89
sI1
(lp90
sI3
(lp91
Vhttp://dbpedia.org/ontology/wikiPageExternalLink
p92
aVhttp://www.w3.org/1999/02/22-rdf-syntax-ns#type
p93
aVhttp://purl.org/dc/terms/subject
p94
aVhttp://dbpedia.org/property/officialLanguages
p95
aVhttp://www.w3.org/2000/01/rdf-schema#comment
p96
aVhttp://dbpedia.org/ontology/abstract
p97
aVhttp://dbpedia.org/property/footnoteA
p98
aVhttp://dbpedia.org/ontology/officialLanguage
p99
aVhttp://dbpedia.org/ontology/language
p100
assI12
(dp101
I0
(lp102
sI1
(lp103
sI3
(lp104
Vhttp://dbpedia.org/property/currency
p105
aVhttp://dbpedia.org/property/capitalExile
p106
aVhttp://dbpedia.org/ontology/abstract
p107
aVhttp://www.w3.org/2000/01/rdf-schema#comment
p108
aVhttp://dbpedia.org/property/titleLeader
p109
aVhttp://dbpedia.org/property/commonLanguages
p110
assI13
(dp111
I0
(lp112
sI1
(lp113
sI3
(lp114
Vhttp://dbpedia.org/property/shipBuilder
p115
aVhttp://dbpedia.org/ontology/location
p116
aVhttp://dbpedia.org/property/piccap
p117
aVhttp://www.w3.org/2000/01/rdf-schema#comment
p118
aVhttp://dbpedia.org/property/recordLocation
p119
aVhttp://dbpedia.org/ontology/abstract
p120
aVhttp://dbpedia.org/property/location
p121
aVhttp://dbpedia.org/ontology/builder
p122
aVhttp://dbpedia.org/ontology/spokenIn
p123
aVhttp://dbpedia.org/property/areasAffected
p124
aVhttp://www.w3.org/2002/07/owl#differentFrom
p125
aVhttp://dbpedia.org/property/stadium
p126
aVhttp://dbpedia.org/property/label
p127
assI14
(dp128
I0
(lp129
sI1
(lp130
sI3
(lp131
Vhttp://dbpedia.org/property/stadium
p132
assI15
(dp133
I0
(lp134
sI1
(lp135
sI3
(lp136
Vhttp://dbpedia.org/property/shipBuilder
p137
aVhttp://dbpedia.org/ontology/location
p138
aVhttp://dbpedia.org/property/piccap
p139
aVhttp://www.w3.org/2000/01/rdf-schema#comment
p140
aVhttp://dbpedia.org/property/recordLocation
p141
aVhttp://dbpedia.org/ontology/abstract
p142
aVhttp://dbpedia.org/property/location
p143
aVhttp://dbpedia.org/ontology/builder
p144
aVhttp://dbpedia.org/ontology/spokenIn
p145
aVhttp://dbpedia.org/property/areasAffected
p146
aVhttp://www.w3.org/2002/07/owl#differentFrom
p147
aVhttp://dbpedia.org/property/stadium
p148
aVhttp://dbpedia.org/property/label
p149
assI16
(dp150
I0
(lp151
sI1
(lp152
sI3
(lp153
Vhttp://dbpedia.org/ontology/abstract
p154
aVhttp://www.w3.org/2000/01/rdf-schema#comment
p155
assI17
(dp156
I0
(lp157
sI1
(lp158
sI3
(lp159
Vhttp://dbpedia.org/ontology/abstract
p160
aVhttp://www.w3.org/2000/01/rdf-schema#comment
p161
assI18
(dp162
I0
(lp163
sI1
(lp164
sI3
(lp165
Vhttp://dbpedia.org/ontology/wikiPageExternalLink
p166
aVhttp://xmlns.com/foaf/0.1/homepage
p167
aVhttp://dbpedia.org/property/website
p168
ass.