(lp1
(lp2
(dp3
Vstart
p4
I0
sVdisambiguatedURL
p5
Vhttp://dbpedia.org/resource/Dominican_Republic
p6
sVnamedEntity
p7
VDominican Republic
p8
sVoffset
p9
I18
saa(lp10
(dp11
Vstart
p12
I0
sVdisambiguatedURL
p13
NsVnamedEntity
p14
VWashington D.C. U.S.A.
p15
sVoffset
p16
I22
saa(lp17
(dp18
Vstart
p19
I0
sVdisambiguatedURL
p20
Vhttp://dbpedia.org/resource/Indonesia
p21
sVnamedEntity
p22
VIndonesia
p23
sVoffset
p24
I9
saa(lp25
(dp26
Vstart
p27
I0
sVdisambiguatedURL
p28
Vhttp://dbpedia.org/resource/Bangladesh
p29
sVnamedEntity
p30
VBangladesh
p31
sVoffset
p32
I10
saa(lp33
(dp34
Vstart
p35
I0
sVdisambiguatedURL
p36
Vhttp://dbpedia.org/resource/Cairo
p37
sVnamedEntity
p38
VCairo Egypt
p39
sVoffset
p40
I11
saa(lp41
(dp42
Vstart
p43
I0
sVdisambiguatedURL
p44
Vhttp://dbpedia.org/resource/Cairo
p45
sVnamedEntity
p46
VCairo Egypt
p47
sVoffset
p48
I11
saa(lp49
(dp50
Vstart
p51
I0
sVdisambiguatedURL
p52
Vhttp://dbpedia.org/resource/Bangladesh
p53
sVnamedEntity
p54
VBangladesh
p55
sVoffset
p56
I10
saa(lp57
(dp58
Vstart
p59
I0
sVdisambiguatedURL
p60
Vhttp://dbpedia.org/resource/Cape_Town
p61
sVnamedEntity
p62
VCape Town South Africa
p63
sVoffset
p64
I22
saa(lp65
(dp66
Vstart
p67
I0
sVdisambiguatedURL
p68
Vhttp://dbpedia.org/resource/Toronto
p69
sVnamedEntity
p70
VToronto Canada
p71
sVoffset
p72
I14
saa(lp73
(dp74
Vstart
p75
I0
sVdisambiguatedURL
p76
Vhttp://dbpedia.org/resource/Dhaka
p77
sVnamedEntity
p78
VDhaka Bangladesh
p79
sVoffset
p80
I16
saa(lp81
(dp82
Vstart
p83
I0
sVdisambiguatedURL
p84
Vhttp://dbpedia.org/resource/Singapore
p85
sVnamedEntity
p86
VSingapore
p87
sVoffset
p88
I9
saa(lp89
(dp90
Vstart
p91
I0
sVdisambiguatedURL
p92
Vhttp://dbpedia.org/resource/Colombia
p93
sVnamedEntity
p94
VColombia
p95
sVoffset
p96
I8
saa(lp97
(dp98
Vstart
p99
I0
sVdisambiguatedURL
p100
Vhttp://dbpedia.org/resource/Mexico_City
p101
sVnamedEntity
p102
VMexico City Mexico
p103
sVoffset
p104
I18
saa(lp105
(dp106
Vstart
p107
I0
sVdisambiguatedURL
p108
Vhttp://dbpedia.org/resource/Shanghai
p109
sVnamedEntity
p110
VShanghai China
p111
sVoffset
p112
I14
saa(lp113
(dp114
Vstart
p115
I0
sVdisambiguatedURL
p116
Vhttp://dbpedia.org/resource/Mexico_City
p117
sVnamedEntity
p118
VMexico City Mexico
p119
sVoffset
p120
I18
saa(lp121
(dp122
Vstart
p123
I0
sVdisambiguatedURL
p124
Vhttp://dbpedia.org/resource/Shanghai
p125
sVnamedEntity
p126
VShanghai China
p127
sVoffset
p128
I14
saa(lp129
(dp130
Vstart
p131
I0
sVdisambiguatedURL
p132
Vhttp://dbpedia.org/resource/San_Pedro_Sula
p133
sVnamedEntity
p134
VSan Pedro Sula Honduras
p135
sVoffset
p136
I23
saa(lp137
(dp138
Vstart
p139
I0
sVdisambiguatedURL
p140
Vhttp://dbpedia.org/resource/San_Pedro_Sula
p141
sVnamedEntity
p142
VSan Pedro Sula Honduras
p143
sVoffset
p144
I23
saa(lp145
(dp146
Vstart
p147
I0
sVdisambiguatedURL
p148
Vhttp://dbpedia.org/resource/Shenzhen
p149
sVnamedEntity
p150
VShenzhen China
p151
sVoffset
p152
I14
saa(lp153
(dp154
Vstart
p155
I0
sVdisambiguatedURL
p156
NsVnamedEntity
p157
VSan Francisco C.A. U.S.A.
p158
sVoffset
p159
I25
saa.