ccollections
defaultdict
p1
(c__builtin__
dict
p2
tRp3
I0
(dp4
I0
(lp5
Vhttp://www.w3.org/1999/02/22-rdf-syntax-ns#type
p6
aVhttp://www.w3.org/2000/01/rdf-schema#comment
p7
aVhttp://dbpedia.org/ontology/abstract
p8
aVhttp://xmlns.com/foaf/0.1/depiction
p9
aVhttp://dbpedia.org/ontology/thumbnail
p10
aVhttp://dbpedia.org/property/caption
p11
asI1
(lp12
ssI1
(dp13
I0
(lp14
Vhttp://dbpedia.org/property/wordnet_type
p15
aVhttp://www.w3.org/1999/02/22-rdf-syntax-ns#type
p16
aVhttp://dbpedia.org/ontology/lccnId
p17
aVhttp://www.w3.org/2000/01/rdf-schema#comment
p18
aVhttp://dbpedia.org/ontology/abstract
p19
aVhttp://dbpedia.org/property/lccn
p20
aVhttp://purl.org/voc/vrank#hasRank
p21
aVhttp://dbpedia.org/ontology/thumbnail
p22
aVhttp://www.w3.org/ns/prov#wasDerivedFrom
p23
aVhttp://dbpedia.org/ontology/Person/height
p24
aVhttp://dbpedia.org/ontology/viafId
p25
aVhttp://dbpedia.org/property/hasPhotoCollection
p26
aVhttp://www.w3.org/2002/07/owl#sameAs
p27
aVhttp://dbpedia.org/property/guests
p28
asI1
(lp29
ssI2
(dp30
I0
(lp31
Vhttp://dbpedia.org/ontology/wikiPageExternalLink
p32
aVhttp://www.w3.org/1999/02/22-rdf-syntax-ns#type
p33
aVhttp://purl.org/dc/terms/subject
p34
aVhttp://dbpedia.org/ontology/starring
p35
aVhttp://www.w3.org/2000/01/rdf-schema#comment
p36
aVhttp://dbpedia.org/ontology/abstract
p37
aVhttp://dbpedia.org/property/wordnet_type
p38
aVhttp://dbpedia.org/property/starring
p39
aVhttp://www.w3.org/ns/prov#wasDerivedFrom
p40
aVhttp://dbpedia.org/property/caption
p41
aVhttp://www.w3.org/2002/07/owl#sameAs
p42
asI1
(lp43
ssI3
(dp44
I0
(lp45
Vhttp://dbpedia.org/ontology/wikiPageExternalLink
p46
aVhttp://dbpedia.org/property/caption
p47
aVhttp://dbpedia.org/property/wordnet_type
p48
aVhttp://www.w3.org/1999/02/22-rdf-syntax-ns#type
p49
aVhttp://dbpedia.org/ontology/viafId
p50
asI1
(lp51
ssI4
(dp52
I0
(lp53
Vhttp://www.w3.org/1999/02/22-rdf-syntax-ns#type
p54
aVhttp://purl.org/dc/terms/subject
p55
aVhttp://dbpedia.org/property/guests
p56
aVhttp://dbpedia.org/ontology/starring
p57
aVhttp://www.w3.org/2000/01/rdf-schema#comment
p58
aVhttp://dbpedia.org/ontology/abstract
p59
aVhttp://xmlns.com/foaf/0.1/depiction
p60
aVhttp://dbpedia.org/property/wordnet_type
p61
aVhttp://dbpedia.org/ontology/thumbnail
p62
aVhttp://www.w3.org/ns/prov#wasDerivedFrom
p63
aVhttp://dbpedia.org/property/caption
p64
aVhttp://dbpedia.org/property/starring
p65
asI1
(lp66
ssI5
(dp67
I0
(lp68
Vhttp://www.w3.org/1999/02/22-rdf-syntax-ns#type
p69
aVhttp://purl.org/dc/terms/subject
p70
asI1
(lp71
ssI6
(dp72
I0
(lp73
Vhttp://www.w3.org/1999/02/22-rdf-syntax-ns#type
p74
aVhttp://purl.org/dc/terms/subject
p75
aVhttp://dbpedia.org/ontology/starring
p76
aVhttp://www.w3.org/2000/01/rdf-schema#comment
p77
aVhttp://dbpedia.org/ontology/abstract
p78
aVhttp://dbpedia.org/property/wordnet_type
p79
aVhttp://purl.org/voc/vrank#hasRank
p80
aVhttp://dbpedia.org/ontology/guest
p81
aVhttp://dbpedia.org/property/starring
p82
aVhttp://www.w3.org/ns/prov#wasDerivedFrom
p83
aVhttp://www.w3.org/2002/07/owl#sameAs
p84
aVhttp://dbpedia.org/ontology/occupation
p85
asI1
(lp86
ssI7
(dp87
I0
(lp88
Vhttp://www.w3.org/1999/02/22-rdf-syntax-ns#type
p89
aVhttp://purl.org/dc/terms/subject
p90
aVhttp://www.w3.org/2000/01/rdf-schema#comment
p91
aVhttp://dbpedia.org/ontology/abstract
p92
aVhttp://dbpedia.org/property/wordnet_type
p93
aVhttp://purl.org/voc/vrank#hasRank
p94
aVhttp://www.w3.org/ns/prov#wasDerivedFrom
p95
aVhttp://dbpedia.org/property/caption
p96
aVhttp://dbpedia.org/ontology/viafId
p97
aVhttp://www.w3.org/2002/07/owl#sameAs
p98
aVhttp://dbpedia.org/ontology/occupation
p99
asI1
(lp100
ssI8
(dp101
I0
(lp102
Vhttp://www.w3.org/1999/02/22-rdf-syntax-ns#type
p103
aVhttp://purl.org/dc/terms/subject
p104
aVhttp://www.w3.org/2000/01/rdf-schema#comment
p105
aVhttp://dbpedia.org/ontology/abstract
p106
aVhttp://xmlns.com/foaf/0.1/depiction
p107
aVhttp://dbpedia.org/property/wordnet_type
p108
aVhttp://purl.org/voc/vrank#hasRank
p109
aVhttp://dbpedia.org/ontology/thumbnail
p110
aVhttp://www.w3.org/ns/prov#wasDerivedFrom
p111
aVhttp://dbpedia.org/property/caption
p112
aVhttp://www.w3.org/2002/07/owl#sameAs
p113
asI1
(lp114
ssI9
(dp115
I0
(lp116
Vhttp://www.w3.org/1999/02/22-rdf-syntax-ns#type
p117
aVhttp://purl.org/dc/terms/subject
p118
aVhttp://dbpedia.org/ontology/starring
p119
aVhttp://www.w3.org/2000/01/rdf-schema#comment
p120
aVhttp://dbpedia.org/ontology/abstract
p121
aVhttp://dbpedia.org/property/wordnet_type
p122
aVhttp://purl.org/voc/vrank#hasRank
p123
aVhttp://dbpedia.org/property/starring
p124
aVhttp://www.w3.org/ns/prov#wasDerivedFrom
p125
aVhttp://dbpedia.org/property/caption
p126
aVhttp://dbpedia.org/ontology/viafId
p127
aVhttp://www.w3.org/2002/07/owl#sameAs
p128
aVhttp://dbpedia.org/ontology/occupation
p129
asI1
(lp130
ssI10
(dp131
I0
(lp132
Vhttp://www.w3.org/1999/02/22-rdf-syntax-ns#type
p133
aVhttp://purl.org/dc/terms/subject
p134
aVhttp://www.w3.org/2000/01/rdf-schema#comment
p135
aVhttp://dbpedia.org/ontology/abstract
p136
aVhttp://dbpedia.org/property/wordnet_type
p137
aVhttp://purl.org/voc/vrank#hasRank
p138
aVhttp://www.w3.org/ns/prov#wasDerivedFrom
p139
aVhttp://dbpedia.org/property/caption
p140
aVhttp://dbpedia.org/property/starring
p141
asI1
(lp142
ssI11
(dp143
I0
(lp144
Vhttp://www.w3.org/1999/02/22-rdf-syntax-ns#type
p145
aVhttp://purl.org/dc/terms/subject
p146
aVhttp://dbpedia.org/property/guests
p147
aVhttp://dbpedia.org/ontology/starring
p148
aVhttp://www.w3.org/2000/01/rdf-schema#comment
p149
aVhttp://dbpedia.org/ontology/abstract
p150
aVhttp://dbpedia.org/property/wordnet_type
p151
aVhttp://dbpedia.org/property/portrayer
p152
aVhttp://dbpedia.org/property/starring
p153
aVhttp://www.w3.org/ns/prov#wasDerivedFrom
p154
aVhttp://www.w3.org/2002/07/owl#sameAs
p155
aVhttp://dbpedia.org/ontology/occupation
p156
asI1
(lp157
ss.