(lp1
(dp2
I0
(dp3
I0
(lp4
sI1
(lp5
sI2
(lp6
Vhttp://www.w3.org/1999/02/22-rdf-syntax-ns#type
p7
aVhttp://www.w3.org/2000/01/rdf-schema#comment
p8
aVhttp://dbpedia.org/ontology/abstract
p9
aVhttp://xmlns.com/foaf/0.1/depiction
p10
aVhttp://dbpedia.org/ontology/thumbnail
p11
aVhttp://dbpedia.org/property/caption
p12
assI1
(dp13
I0
g5
sI1
(lp14
sI2
(lp15
ssI2
(dp16
I0
g6
sI1
g15
sI2
(lp17
ssa(dp18
I0
(dp19
I0
(lp20
sI1
(lp21
Vhttp://www.w3.org/ns/prov#wasDerivedFrom
p22
aVhttp://www.w3.org/2002/07/owl#sameAs
p23
asI2
(lp24
Vhttp://dbpedia.org/property/lccn
p25
aVhttp://www.w3.org/1999/02/22-rdf-syntax-ns#type
p26
aVhttp://dbpedia.org/ontology/lccnId
p27
aVhttp://www.w3.org/2000/01/rdf-schema#comment
p28
aVhttp://dbpedia.org/ontology/abstract
p29
aVhttp://dbpedia.org/property/wordnet_type
p30
aVhttp://purl.org/voc/vrank#hasRank
p31
aVhttp://dbpedia.org/ontology/thumbnail
p32
aVhttp://www.w3.org/ns/prov#wasDerivedFrom
p33
aVhttp://dbpedia.org/ontology/Person/height
p34
aVhttp://dbpedia.org/ontology/viafId
p35
aVhttp://dbpedia.org/property/hasPhotoCollection
p36
aVhttp://www.w3.org/2002/07/owl#sameAs
p37
aVhttp://dbpedia.org/property/guests
p38
assI1
(dp39
I0
g21
sI1
(lp40
sI2
(lp41
ssI2
(dp42
I0
g24
sI1
g41
sI2
(lp43
ssa(dp44
I0
(dp45
I0
(lp46
sI1
(lp47
Vhttp://purl.org/voc/vrank#hasRank
p48
asI2
(lp49
Vhttp://dbpedia.org/ontology/wikiPageExternalLink
p50
aVhttp://www.w3.org/1999/02/22-rdf-syntax-ns#type
p51
aVhttp://purl.org/dc/terms/subject
p52
aVhttp://dbpedia.org/ontology/starring
p53
aVhttp://www.w3.org/2000/01/rdf-schema#comment
p54
aVhttp://dbpedia.org/ontology/abstract
p55
aVhttp://dbpedia.org/property/wordnet_type
p56
aVhttp://www.w3.org/2002/07/owl#sameAs
p57
aVhttp://www.w3.org/ns/prov#wasDerivedFrom
p58
aVhttp://dbpedia.org/property/caption
p59
aVhttp://dbpedia.org/property/starring
p60
assI1
(dp61
I0
g47
sI1
(lp62
sI2
(lp63
ssI2
(dp64
I0
g49
sI1
g63
sI2
(lp65
ssa(dp66
I0
(dp67
I0
(lp68
sI1
(lp69
Vhttp://purl.org/voc/vrank#hasRank
p70
asI2
(lp71
Vhttp://dbpedia.org/ontology/wikiPageExternalLink
p72
aVhttp://dbpedia.org/property/caption
p73
aVhttp://dbpedia.org/property/wordnet_type
p74
aVhttp://dbpedia.org/ontology/viafId
p75
aVhttp://www.w3.org/1999/02/22-rdf-syntax-ns#type
p76
assI1
(dp77
I0
g69
sI1
(lp78
sI2
(lp79
ssI2
(dp80
I0
g71
sI1
g79
sI2
(lp81
ssa(dp82
I0
(dp83
I0
(lp84
sI1
(lp85
Vhttp://purl.org/voc/vrank#hasRank
p86
asI2
(lp87
Vhttp://www.w3.org/1999/02/22-rdf-syntax-ns#type
p88
aVhttp://purl.org/dc/terms/subject
p89
aVhttp://dbpedia.org/property/guests
p90
aVhttp://dbpedia.org/ontology/starring
p91
aVhttp://www.w3.org/2000/01/rdf-schema#comment
p92
aVhttp://dbpedia.org/ontology/abstract
p93
aVhttp://xmlns.com/foaf/0.1/depiction
p94
aVhttp://dbpedia.org/property/wordnet_type
p95
aVhttp://dbpedia.org/ontology/thumbnail
p96
aVhttp://www.w3.org/ns/prov#wasDerivedFrom
p97
aVhttp://dbpedia.org/property/caption
p98
aVhttp://dbpedia.org/property/starring
p99
assI1
(dp100
I0
g85
sI1
(lp101
sI2
(lp102
ssI2
(dp103
I0
g87
sI1
g102
sI2
(lp104
ssa(dp105
I0
(dp106
I0
(lp107
sI1
(lp108
Vhttp://purl.org/voc/vrank#hasRank
p109
asI2
(lp110
Vhttp://www.w3.org/1999/02/22-rdf-syntax-ns#type
p111
aVhttp://purl.org/dc/terms/subject
p112
assI1
(dp113
I0
g108
sI1
(lp114
sI2
(lp115
ssI2
(dp116
I0
g110
sI1
g115
sI2
(lp117
ssa(dp118
I0
(dp119
I0
(lp120
sI1
(lp121
Vhttp://purl.org/voc/vrank#hasRank
p122
aVhttp://www.w3.org/2002/07/owl#sameAs
p123
asI2
(lp124
Vhttp://www.w3.org/2002/07/owl#sameAs
p125
aVhttp://www.w3.org/1999/02/22-rdf-syntax-ns#type
p126
aVhttp://purl.org/dc/terms/subject
p127
aVhttp://dbpedia.org/ontology/starring
p128
aVhttp://www.w3.org/2000/01/rdf-schema#comment
p129
aVhttp://dbpedia.org/ontology/abstract
p130
aVhttp://dbpedia.org/property/wordnet_type
p131
aVhttp://purl.org/voc/vrank#hasRank
p132
aVhttp://dbpedia.org/ontology/guest
p133
aVhttp://www.w3.org/ns/prov#wasDerivedFrom
p134
aVhttp://dbpedia.org/property/starring
p135
aVhttp://dbpedia.org/ontology/occupation
p136
assI1
(dp137
I0
g121
sI1
(lp138
sI2
(lp139
ssI2
(dp140
I0
g124
sI1
g139
sI2
(lp141
ssa(dp142
I0
(dp143
I0
(lp144
sI1
(lp145
Vhttp://purl.org/voc/vrank#hasRank
p146
aVhttp://www.w3.org/2002/07/owl#sameAs
p147
asI2
(lp148
Vhttp://www.w3.org/1999/02/22-rdf-syntax-ns#type
p149
aVhttp://purl.org/dc/terms/subject
p150
aVhttp://www.w3.org/2000/01/rdf-schema#comment
p151
aVhttp://dbpedia.org/ontology/abstract
p152
aVhttp://dbpedia.org/property/wordnet_type
p153
aVhttp://purl.org/voc/vrank#hasRank
p154
aVhttp://www.w3.org/ns/prov#wasDerivedFrom
p155
aVhttp://dbpedia.org/property/caption
p156
aVhttp://dbpedia.org/ontology/viafId
p157
aVhttp://www.w3.org/2002/07/owl#sameAs
p158
aVhttp://dbpedia.org/ontology/occupation
p159
assI1
(dp160
I0
g145
sI1
(lp161
sI2
(lp162
ssI2
(dp163
I0
g148
sI1
g162
sI2
(lp164
ssa(dp165
I0
(dp166
I0
(lp167
sI1
(lp168
Vhttp://purl.org/voc/vrank#hasRank
p169
aVhttp://www.w3.org/2002/07/owl#sameAs
p170
asI2
(lp171
Vhttp://www.w3.org/1999/02/22-rdf-syntax-ns#type
p172
aVhttp://purl.org/dc/terms/subject
p173
aVhttp://www.w3.org/2000/01/rdf-schema#comment
p174
aVhttp://dbpedia.org/ontology/abstract
p175
aVhttp://xmlns.com/foaf/0.1/depiction
p176
aVhttp://dbpedia.org/property/wordnet_type
p177
aVhttp://purl.org/voc/vrank#hasRank
p178
aVhttp://dbpedia.org/ontology/thumbnail
p179
aVhttp://www.w3.org/ns/prov#wasDerivedFrom
p180
aVhttp://dbpedia.org/property/caption
p181
aVhttp://www.w3.org/2002/07/owl#sameAs
p182
assI1
(dp183
I0
g168
sI1
(lp184
sI2
(lp185
ssI2
(dp186
I0
g171
sI1
g185
sI2
(lp187
ssa(dp188
I0
(dp189
I0
(lp190
sI1
(lp191
Vhttp://purl.org/voc/vrank#hasRank
p192
aVhttp://www.w3.org/2002/07/owl#sameAs
p193
asI2
(lp194
Vhttp://www.w3.org/1999/02/22-rdf-syntax-ns#type
p195
aVhttp://purl.org/dc/terms/subject
p196
aVhttp://dbpedia.org/ontology/starring
p197
aVhttp://www.w3.org/2000/01/rdf-schema#comment
p198
aVhttp://dbpedia.org/ontology/abstract
p199
aVhttp://dbpedia.org/property/wordnet_type
p200
aVhttp://purl.org/voc/vrank#hasRank
p201
aVhttp://www.w3.org/2002/07/owl#sameAs
p202
aVhttp://www.w3.org/ns/prov#wasDerivedFrom
p203
aVhttp://dbpedia.org/property/caption
p204
aVhttp://dbpedia.org/ontology/viafId
p205
aVhttp://dbpedia.org/property/starring
p206
aVhttp://dbpedia.org/ontology/occupation
p207
assI1
(dp208
I0
g191
sI1
(lp209
sI2
(lp210
ssI2
(dp211
I0
g194
sI1
g210
sI2
(lp212
ssa(dp213
I0
(dp214
I0
(lp215
sI1
(lp216
Vhttp://purl.org/voc/vrank#hasRank
p217
aVhttp://www.w3.org/2002/07/owl#sameAs
p218
asI2
(lp219
Vhttp://www.w3.org/1999/02/22-rdf-syntax-ns#type
p220
aVhttp://purl.org/dc/terms/subject
p221
aVhttp://www.w3.org/2000/01/rdf-schema#comment
p222
aVhttp://dbpedia.org/ontology/abstract
p223
aVhttp://dbpedia.org/property/wordnet_type
p224
aVhttp://purl.org/voc/vrank#hasRank
p225
aVhttp://www.w3.org/ns/prov#wasDerivedFrom
p226
aVhttp://dbpedia.org/property/caption
p227
aVhttp://dbpedia.org/property/starring
p228
assI1
(dp229
I0
g216
sI1
(lp230
sI2
(lp231
ssI2
(dp232
I0
g219
sI1
g231
sI2
(lp233
ssa(dp234
I0
(dp235
I0
(lp236
sI1
(lp237
Vhttp://purl.org/voc/vrank#hasRank
p238
aVhttp://www.w3.org/2002/07/owl#sameAs
p239
asI2
(lp240
Vhttp://www.w3.org/1999/02/22-rdf-syntax-ns#type
p241
aVhttp://purl.org/dc/terms/subject
p242
aVhttp://dbpedia.org/property/guests
p243
aVhttp://dbpedia.org/ontology/starring
p244
aVhttp://www.w3.org/2000/01/rdf-schema#comment
p245
aVhttp://dbpedia.org/ontology/abstract
p246
aVhttp://dbpedia.org/property/wordnet_type
p247
aVhttp://dbpedia.org/property/portrayer
p248
aVhttp://www.w3.org/2002/07/owl#sameAs
p249
aVhttp://www.w3.org/ns/prov#wasDerivedFrom
p250
aVhttp://dbpedia.org/property/starring
p251
aVhttp://dbpedia.org/ontology/occupation
p252
assI1
(dp253
I0
g237
sI1
(lp254
sI2
(lp255
ssI2
(dp256
I0
g240
sI1
g255
sI2
(lp257
ssa.