(lp1
(lp2
(lp3
((lp4
Vhttp://www.w3.org/2002/07/owl#Thing
p5
aVhttp://dbpedia.org/ontology/Company
p6
aVhttp://www.ontologydesignpatterns.org/ont/dul/DUL.owl#Agent
p7
aVhttp://www.ontologydesignpatterns.org/ont/dul/DUL.owl#SocialPerson
p8
aVhttp://www.wikidata.org/entity/Q43229
p9
aVhttp://dbpedia.org/ontology/Agent
p10
aVhttp://dbpedia.org/ontology/Bank
p11
aVhttp://dbpedia.org/ontology/Organisation
p12
aVhttp://schema.org/BankOrCreditUnion
p13
aVhttp://schema.org/Organization
p14
aVhttp://umbel.org/umbel/rc/Business
p15
aVhttp://umbel.org/umbel/rc/Organization
p16
aVhttp://dbpedia.org/class/yago/Abstraction100002137
p17
aVhttp://dbpedia.org/class/yago/BanksBasedInNorthCarolina
p18
aVhttp://dbpedia.org/class/yago/BanksEstablishedIn1998
p19
aVhttp://dbpedia.org/class/yago/Brokerage108069878
p20
aVhttp://dbpedia.org/class/yago/Company108058098
p21
aVhttp://dbpedia.org/class/yago/DepositoryFinancialInstitution108420278
p22
aVhttp://dbpedia.org/class/yago/FinancialInstitution108054721
p23
aVhttp://dbpedia.org/class/yago/Group100031264
p24
aVhttp://dbpedia.org/class/yago/Institution108053576
p25
aVhttp://dbpedia.org/class/yago/NondepositoryFinancialInstitution108419984
p26
aVhttp://dbpedia.org/class/yago/Organization108008335
p27
aVhttp://dbpedia.org/class/yago/SocialGroup107950920
p28
aVhttp://dbpedia.org/class/yago/YagoLegalActorGeo
p29
aVhttp://dbpedia.org/class/yago/CompaniesBasedInCharlotte,NorthCarolina
p30
aVhttp://dbpedia.org/class/yago/FinancialServicesCompaniesOfTheUnitedStates
p31
aVhttp://dbpedia.org/class/yago/YagoPermanentlyLocatedEntity
p32
aVhttp://dbpedia.org/class/yago/MultinationalCompaniesHeadquarteredInTheUnitedStates
p33
aVhttp://dbpedia.org/class/yago/OnlineBrokerages
p34
aVhttp://dbpedia.org/class/yago/YagoLegalActor
p35
aVhttp://dbpedia.org/class/yago/PubliclyTradedCompaniesOfTheUnitedStates
p36
aVhttp://dbpedia.org/resource/Bank_of_America
tp37
aa(lp38
a(lp39
a(lp40
aa(lp41
(lp42
((lp43
Vhttp://www.w3.org/2002/07/owl#Thing
p44
aVhttp://dbpedia.org/ontology/Company
p45
aVhttp://www.ontologydesignpatterns.org/ont/dul/DUL.owl#Agent
p46
aVhttp://www.ontologydesignpatterns.org/ont/dul/DUL.owl#SocialPerson
p47
aVhttp://www.wikidata.org/entity/Q43229
p48
aVhttp://dbpedia.org/ontology/Agent
p49
aVhttp://dbpedia.org/ontology/Bank
p50
aVhttp://dbpedia.org/ontology/Organisation
p51
aVhttp://schema.org/BankOrCreditUnion
p52
aVhttp://schema.org/Organization
p53
aVhttp://umbel.org/umbel/rc/Business
p54
aVhttp://dbpedia.org/class/yago/Abstraction100002137
p55
aVhttp://dbpedia.org/class/yago/BanksBasedInCalifornia
p56
aVhttp://dbpedia.org/class/yago/Company108058098
p57
aVhttp://dbpedia.org/class/yago/DepositoryFinancialInstitution108420278
p58
aVhttp://dbpedia.org/class/yago/FinancialInstitution108054721
p59
aVhttp://dbpedia.org/class/yago/Group100031264
p60
aVhttp://dbpedia.org/class/yago/Institution108053576
p61
aVhttp://dbpedia.org/class/yago/Organization108008335
p62
aVhttp://dbpedia.org/class/yago/SocialGroup107950920
p63
aVhttp://dbpedia.org/class/yago/YagoLegalActorGeo
p64
aVhttp://dbpedia.org/class/yago/CompaniesBasedInSanFrancisco,California
p65
aVhttp://dbpedia.org/class/yago/YagoPermanentlyLocatedEntity
p66
aVhttp://dbpedia.org/class/yago/YagoLegalActor
p67
aVhttp://dbpedia.org/resource/Bank_of_the_West
tp68
aa(lp69
a(lp70
a(lp71
aa(lp72
(lp73
a(lp74
a(lp75
a(lp76
aa(lp77
(lp78
a(lp79
a(lp80
a(lp81
aa(lp82
(lp83
a(lp84
a(lp85
a(lp86
aa(lp87
(lp88
((lp89
Vhttp://www.w3.org/2002/07/owl#Thing
p90
aVhttp://dbpedia.org/ontology/Place
p91
aVhttp://dbpedia.org/ontology/Location
p92
aVhttp://www.wikidata.org/entity/Q486972
p93
aVhttp://dbpedia.org/ontology/PopulatedPlace
p94
aVhttp://schema.org/Place
p95
aVhttp://dbpedia.org/class/yago/Artifact100021939
p96
aVhttp://dbpedia.org/class/yago/Building102913152
p97
aVhttp://dbpedia.org/class/yago/BuildingsAndStructuresInLouisville,Kentucky
p98
aVhttp://dbpedia.org/class/yago/Object100002684
p99
aVhttp://dbpedia.org/class/yago/Structure104341686
p100
aVhttp://dbpedia.org/class/yago/Whole100003553
p101
aVhttp://dbpedia.org/class/yago/YagoGeoEntity
p102
aVhttp://dbpedia.org/class/yago/PhysicalEntity100001930
p103
aVhttp://dbpedia.org/class/yago/YagoPermanentlyLocatedEntity
p104
aVhttp://dbpedia.org/resource/Fourth_Street_Live!
tp105
aa(lp106
a(lp107
a(lp108
aa(lp109
(lp110
a(lp111
a(lp112
a(lp113
aa(lp114
(lp115
((lp116
Vhttp://www.w3.org/2002/07/owl#Thing
p117
aVhttp://dbpedia.org/ontology/Company
p118
aVhttp://www.ontologydesignpatterns.org/ont/dul/DUL.owl#Agent
p119
aVhttp://www.ontologydesignpatterns.org/ont/dul/DUL.owl#SocialPerson
p120
aVhttp://www.wikidata.org/entity/Q43229
p121
aVhttp://dbpedia.org/ontology/Agent
p122
aVhttp://dbpedia.org/ontology/Bank
p123
aVhttp://dbpedia.org/ontology/Organisation
p124
aVhttp://schema.org/BankOrCreditUnion
p125
aVhttp://schema.org/Organization
p126
aVhttp://umbel.org/umbel/rc/Business
p127
aVhttp://umbel.org/umbel/rc/Organization
p128
aVhttp://dbpedia.org/class/yago/Abstraction100002137
p129
aVhttp://dbpedia.org/class/yago/BanksBasedInMinnesota
p130
aVhttp://dbpedia.org/class/yago/Company108058098
p131
aVhttp://dbpedia.org/class/yago/DepositoryFinancialInstitution108420278
p132
aVhttp://dbpedia.org/class/yago/FinancialInstitution108054721
p133
aVhttp://dbpedia.org/class/yago/Group100031264
p134
aVhttp://dbpedia.org/class/yago/Institution108053576
p135
aVhttp://dbpedia.org/class/yago/Organization108008335
p136
aVhttp://dbpedia.org/class/yago/SocialGroup107950920
p137
aVhttp://dbpedia.org/class/yago/YagoLegalActorGeo
p138
aVhttp://dbpedia.org/class/yago/CompaniesBasedInMinneapolis,Minnesota
p139
aVhttp://dbpedia.org/class/yago/CompaniesEstablishedIn1890
p140
aVhttp://dbpedia.org/class/yago/YagoPermanentlyLocatedEntity
p141
aVhttp://dbpedia.org/class/yago/YagoLegalActor
p142
aVhttp://dbpedia.org/resource/U.S._Bancorp
tp143
aa(lp144
a(lp145
a(lp146
aa(lp147
(lp148
((lp149
Vhttp://www.w3.org/2002/07/owl#Thing
p150
aVhttp://dbpedia.org/ontology/Company
p151
aVhttp://www.ontologydesignpatterns.org/ont/dul/DUL.owl#Agent
p152
aVhttp://www.ontologydesignpatterns.org/ont/dul/DUL.owl#SocialPerson
p153
aVhttp://www.wikidata.org/entity/Q43229
p154
aVhttp://dbpedia.org/ontology/Agent
p155
aVhttp://dbpedia.org/ontology/Organisation
p156
aVhttp://schema.org/Organization
p157
aVhttp://umbel.org/umbel/rc/Business
p158
aVhttp://dbpedia.org/class/yago/Abstraction100002137
p159
aVhttp://dbpedia.org/class/yago/BanksBasedInOregon
p160
aVhttp://dbpedia.org/class/yago/Company108058098
p161
aVhttp://dbpedia.org/class/yago/DepositoryFinancialInstitution108420278
p162
aVhttp://dbpedia.org/class/yago/FinancialInstitution108054721
p163
aVhttp://dbpedia.org/class/yago/Group100031264
p164
aVhttp://dbpedia.org/class/yago/Institution108053576
p165
aVhttp://dbpedia.org/class/yago/Organization108008335
p166
aVhttp://dbpedia.org/class/yago/SocialGroup107950920
p167
aVhttp://dbpedia.org/class/yago/YagoLegalActorGeo
p168
aVhttp://dbpedia.org/class/yago/CompaniesBasedInPortland,Oregon
p169
aVhttp://dbpedia.org/class/yago/CompaniesEstablishedIn1953
p170
aVhttp://dbpedia.org/class/yago/CompaniesListedOnNASDAQ
p171
aVhttp://dbpedia.org/class/yago/YagoPermanentlyLocatedEntity
p172
aVhttp://dbpedia.org/class/yago/YagoLegalActor
p173
aVhttp://dbpedia.org/resource/Umpqua_Holdings_Corporation
tp174
aa(lp175
a(lp176
a(lp177
aa(lp178
(lp179
((lp180
Vhttp://www.w3.org/2002/07/owl#Thing
p181
aVhttp://dbpedia.org/ontology/Place
p182
aVhttp://dbpedia.org/ontology/Location
p183
aVhttp://www.wikidata.org/entity/Q41176
p184
aVhttp://dbpedia.org/ontology/ArchitecturalStructure
p185
aVhttp://dbpedia.org/ontology/Building
p186
aVhttp://www.w3.org/2003/01/geo/wgs84_pos#SpatialThing
p187
aVhttp://schema.org/Place
p188
aVhttp://umbel.org/umbel/rc/Skyscraper
p189
aVhttp://dbpedia.org/resource/1201_Third_Avenue
tp190
aa(lp191
a(lp192
a(lp193
aa(lp194
(lp195
((lp196
Vhttp://www.w3.org/2002/07/owl#Thing
p197
aVhttp://dbpedia.org/ontology/Company
p198
aVhttp://www.ontologydesignpatterns.org/ont/dul/DUL.owl#Agent
p199
aVhttp://www.ontologydesignpatterns.org/ont/dul/DUL.owl#SocialPerson
p200
aVhttp://www.wikidata.org/entity/Q43229
p201
aVhttp://dbpedia.org/ontology/Agent
p202
aVhttp://dbpedia.org/ontology/Bank
p203
aVhttp://dbpedia.org/ontology/Organisation
p204
aVhttp://schema.org/BankOrCreditUnion
p205
aVhttp://schema.org/Organization
p206
aVhttp://umbel.org/umbel/rc/Business
p207
aVhttp://umbel.org/umbel/rc/Organization
p208
aVhttp://dbpedia.org/class/yago/Abstraction100002137
p209
aVhttp://dbpedia.org/class/yago/BanksBasedInCalifornia
p210
aVhttp://dbpedia.org/class/yago/BanksEstablishedIn1852
p211
aVhttp://dbpedia.org/class/yago/Brokerage108069878
p212
aVhttp://dbpedia.org/class/yago/Company108058098
p213
aVhttp://dbpedia.org/class/yago/DepositoryFinancialInstitution108420278
p214
aVhttp://dbpedia.org/class/yago/FinancialInstitution108054721
p215
aVhttp://dbpedia.org/class/yago/Group100031264
p216
aVhttp://dbpedia.org/class/yago/Institution108053576
p217
aVhttp://dbpedia.org/class/yago/NondepositoryFinancialInstitution108419984
p218
aVhttp://dbpedia.org/class/yago/Organization108008335
p219
aVhttp://dbpedia.org/class/yago/SocialGroup107950920
p220
aVhttp://dbpedia.org/class/yago/YagoLegalActorGeo
p221
aVhttp://dbpedia.org/class/yago/CompaniesBasedInSanFrancisco,California
p222
aVhttp://dbpedia.org/class/yago/YagoPermanentlyLocatedEntity
p223
aVhttp://dbpedia.org/class/yago/OnlineBrokerages
p224
aVhttp://dbpedia.org/class/yago/YagoLegalActor
p225
aVhttp://dbpedia.org/resource/Wells_Fargo
tp226
aa(lp227
a(lp228
a(lp229
aa(lp230
(lp231
((lp232
Vhttp://www.w3.org/2002/07/owl#Thing
p233
aVhttp://dbpedia.org/ontology/Company
p234
aVhttp://www.ontologydesignpatterns.org/ont/dul/DUL.owl#Agent
p235
aVhttp://www.ontologydesignpatterns.org/ont/dul/DUL.owl#SocialPerson
p236
aVhttp://www.wikidata.org/entity/Q43229
p237
aVhttp://dbpedia.org/ontology/Agent
p238
aVhttp://dbpedia.org/ontology/Bank
p239
aVhttp://dbpedia.org/ontology/Organisation
p240
aVhttp://schema.org/BankOrCreditUnion
p241
aVhttp://schema.org/Organization
p242
aVhttp://dbpedia.org/class/yago/Abstraction100002137
p243
aVhttp://dbpedia.org/class/yago/BanksBasedInCalifornia
p244
aVhttp://dbpedia.org/class/yago/Company108058098
p245
aVhttp://dbpedia.org/class/yago/DepositoryFinancialInstitution108420278
p246
aVhttp://dbpedia.org/class/yago/FinancialInstitution108054721
p247
aVhttp://dbpedia.org/class/yago/Group100031264
p248
aVhttp://dbpedia.org/class/yago/Institution108053576
p249
aVhttp://dbpedia.org/class/yago/Organization108008335
p250
aVhttp://dbpedia.org/class/yago/SocialGroup107950920
p251
aVhttp://dbpedia.org/class/yago/YagoLegalActorGeo
p252
aVhttp://dbpedia.org/class/yago/CompaniesBasedInMarinCounty,California
p253
aVhttp://dbpedia.org/class/yago/YagoPermanentlyLocatedEntity
p254
aVhttp://dbpedia.org/class/yago/YagoLegalActor
p255
aVhttp://dbpedia.org/resource/Westamerica_Bank
p256
tp257
aa(lp258
a(lp259
a(lp260
aa(lp261
(lp262
a(lp263
a(lp264
a(lp265
aa.