(lp1
(lp2
(lp3
Vhttp://dbpedia.org/resource/Bank_of_America
p4
aa(lp5
a(lp6
a(lp7
aa(lp8
(lp9
Vhttp://dbpedia.org/resource/Bank_of_the_West
p10
aa(lp11
a(lp12
a(lp13
aa(lp14
(lp15
a(lp16
a(lp17
a(lp18
aa(lp19
(lp20
a(lp21
a(lp22
a(lp23
aa(lp24
(lp25
a(lp26
a(lp27
a(lp28
aa(lp29
(lp30
Vhttp://dbpedia.org/resource/Fourth_Street_Live!
p31
aa(lp32
a(lp33
a(lp34
aa(lp35
(lp36
a(lp37
a(lp38
a(lp39
aa(lp40
(lp41
Vhttp://dbpedia.org/resource/U.S._Bancorp
p42
aa(lp43
a(lp44
a(lp45
aa(lp46
(lp47
Vhttp://dbpedia.org/resource/Umpqua_Holdings_Corporation
p48
aa(lp49
a(lp50
a(lp51
aa(lp52
(lp53
Vhttp://dbpedia.org/resource/1201_Third_Avenue
p54
aa(lp55
a(lp56
a(lp57
aa(lp58
(lp59
Vhttp://dbpedia.org/resource/Wells_Fargo
p60
aa(lp61
a(lp62
a(lp63
aa(lp64
(lp65
Vhttp://dbpedia.org/resource/Westamerica_Bank
p66
aa(lp67
a(lp68
a(lp69
aa(lp70
(lp71
a(lp72
a(lp73
a(lp74
aa.