(lp1
(dp2
I0
(dp3
I0
(lp4
sI1
(lp5
sI2
(lp6
Vhttp://dbpedia.org/ontology/abstract
p7
assI1
(dp8
I0
g5
sI1
(lp9
sI2
(lp10
ssI2
(dp11
I0
g6
sI1
g10
sI2
(lp12
ssa(dp13
I0
(dp14
I0
(lp15
sI1
(lp16
sI2
(lp17
ssI1
(dp18
I0
g16
sI1
(lp19
sI2
(lp20
ssI2
(dp21
I0
g17
sI1
g20
sI2
(lp22
ssa(dp23
I0
(dp24
I0
(lp25
sI1
(lp26
sI2
(lp27
ssI1
(dp28
I0
g26
sI1
(lp29
sI2
(lp30
ssI2
(dp31
I0
g27
sI1
g30
sI2
(lp32
ssa(dp33
I0
(dp34
I0
(lp35
sI1
(lp36
sI2
(lp37
ssI1
(dp38
I0
g36
sI1
(lp39
sI2
(lp40
ssI2
(dp41
I0
g37
sI1
g40
sI2
(lp42
ssa(dp43
I0
(dp44
I0
(lp45
sI1
(lp46
Vhttp://dbpedia.org/ontology/country
p47
asI2
(lp48
ssI1
(dp49
I0
g46
sI1
(lp50
sI2
(lp51
ssI2
(dp52
I0
g48
sI1
g51
sI2
(lp53
ssa(dp54
I0
(dp55
I0
(lp56
sI1
(lp57
sI2
(lp58
ssI1
(dp59
I0
g57
sI1
(lp60
sI2
(lp61
ssI2
(dp62
I0
g58
sI1
g61
sI2
(lp63
ssa(dp64
I0
(dp65
I0
(lp66
sI1
(lp67
sI2
(lp68
ssI1
(dp69
I0
g67
sI1
(lp70
sI2
(lp71
ssI2
(dp72
I0
g68
sI1
g71
sI2
(lp73
ssa(dp74
I0
(dp75
I0
(lp76
sI1
(lp77
Vhttp://dbpedia.org/ontology/country
p78
aVhttp://dbpedia.org/ontology/birthPlace
p79
aVhttp://dbpedia.org/property/birthPlace
p80
aVhttp://dbpedia.org/property/country
p81
asI2
(lp82
ssI1
(dp83
I0
g77
sI1
(lp84
sI2
(lp85
ssI2
(dp86
I0
g82
sI1
g85
sI2
(lp87
ssa(dp88
I0
(dp89
I0
(lp90
sI1
(lp91
sI2
(lp92
ssI1
(dp93
I0
g91
sI1
(lp94
sI2
(lp95
ssI2
(dp96
I0
g92
sI1
g95
sI2
(lp97
ssa(dp98
I0
(dp99
I0
(lp100
sI1
(lp101
sI2
(lp102
ssI1
(dp103
I0
g101
sI1
(lp104
sI2
(lp105
ssI2
(dp106
I0
g102
sI1
g105
sI2
(lp107
ssa(dp108
I0
(dp109
I0
(lp110
sI1
(lp111
sI2
(lp112
ssI1
(dp113
I0
g111
sI1
(lp114
sI2
(lp115
ssI2
(dp116
I0
g112
sI1
g115
sI2
(lp117
ssa(dp118
I0
(dp119
I0
(lp120
sI1
(lp121
sI2
(lp122
ssI1
(dp123
I0
g121
sI1
(lp124
sI2
(lp125
ssI2
(dp126
I0
g122
sI1
g125
sI2
(lp127
ssa.