(lp1
(lp2
(lp3
Vhttp://dbpedia.org/resource/Iceland
p4
aa(lp5
Vhttp://dbpedia.org/resource/Null
p6
aa(lp7
Vhttp://dbpedia.org/resource/North_Germanic_languages
p8
aaa(lp9
(lp10
Vhttp://dbpedia.org/resource/Denmark
p11
aa(lp12
Vhttp://dbpedia.org/resource/Null
p13
aa(lp14
Vhttp://dbpedia.org/resource/North_Germanic_languages
p15
aaa(lp16
(lp17
a(lp18
Vhttp://dbpedia.org/resource/Null
p19
aa(lp20
Vhttp://dbpedia.org/resource/West_Germanic_languages
p21
aaa(lp22
(lp23
Vhttp://dbpedia.org/resource/Northern_Germany
p24
aa(lp25
Vhttp://dbpedia.org/resource/Null
p26
aa(lp27
Vhttp://dbpedia.org/resource/West_Germanic_languages
p28
aaa(lp29
(lp30
Vhttp://dbpedia.org/resource/United_Kingdom
p31
aa(lp32
Vhttp://dbpedia.org/resource/Null
p33
aa(lp34
Vhttp://dbpedia.org/resource/West_Germanic_languages
p35
aaa(lp36
(lp37
a(lp38
Vhttp://dbpedia.org/resource/Null
p39
aa(lp40
Vhttp://dbpedia.org/resource/West_Germanic_languages
p41
aaa(lp42
(lp43
Vhttp://dbpedia.org/resource/Norway
p44
aa(lp45
Vhttp://dbpedia.org/resource/Null
p46
aa(lp47
Vhttp://dbpedia.org/resource/North_Germanic_languages
p48
aaa(lp49
(lp50
Vhttp://dbpedia.org/resource/Germany
p51
aa(lp52
Vhttp://dbpedia.org/resource/Null
p53
aa(lp54
Vhttp://dbpedia.org/resource/West_Germanic_languages
p55
aaa(lp56
(lp57
a(lp58
Vhttp://dbpedia.org/resource/Null
p59
aa(lp60
Vhttp://dbpedia.org/resource/West_Germanic_languages
p61
aaa(lp62
(lp63
Vhttp://dbpedia.org/resource/Faroe_Islands
p64
aa(lp65
Vhttp://dbpedia.org/resource/Null
p66
aa(lp67
Vhttp://dbpedia.org/resource/North_Germanic_languages
p68
aaa(lp69
(lp70
a(lp71
Vhttp://dbpedia.org/resource/Null
p72
aa(lp73
Vhttp://dbpedia.org/resource/West_Germanic_languages
p74
aaa(lp75
(lp76
Vhttp://dbpedia.org/resource/Sweden
p77
aa(lp78
Vhttp://dbpedia.org/resource/Null
p79
aa(lp80
Vhttp://dbpedia.org/resource/North_Germanic_languages
p81
aaa.