(lp1
(dp2
I0
(dp3
I0
(lp4
sI1
(lp5
ssI1
(dp6
I0
g5
sI1
(lp7
ssa(dp8
I0
(dp9
I0
(lp10
sI1
(lp11
ssI1
(dp12
I0
g11
sI1
(lp13
ssa(dp14
I0
(dp15
I0
(lp16
sI1
(lp17
ssI1
(dp18
I0
g17
sI1
(lp19
ssa(dp20
I0
(dp21
I0
(lp22
sI1
(lp23
Vhttp://purl.org/voc/vrank#hasRank
p24
aVhttp://dbpedia.org/property/hasPhotoCollection
p25
aVhttp://www.w3.org/1999/02/22-rdf-syntax-ns#type
p26
aVhttp://www.w3.org/2002/07/owl#sameAs
p27
assI1
(dp28
I0
g23
sI1
(lp29
ssa(dp30
I0
(dp31
I0
(lp32
sI1
(lp33
ssI1
(dp34
I0
g33
sI1
(lp35
ssa.