ccollections
defaultdict
p1
(c__builtin__
dict
p2
tRp3
I2
(dp4
I0
(lp5
sI1
(lp6
Vhttp://dbpedia.org/ontology/abstract
p7
asI3
(lp8
Vhttp://dbpedia.org/ontology/abstract
p9
aVhttp://dbpedia.org/ontology/location
p10
aVhttp://dbpedia.org/property/location
p11
asI4
(lp12
ssI4
(dp13
I0
(lp14
sI1
(lp15
Vhttp://dbpedia.org/ontology/abstract
p16
aVhttp://dbpedia.org/property/imageCaption
p17
asI3
(lp18
Vhttp://dbpedia.org/ontology/postalCode
p19
aVhttp://dbpedia.org/property/city
p20
asI4
(lp21
ssI5
(dp22
I0
(lp23
sI1
(lp24
Vhttp://dbpedia.org/ontology/abstract
p25
asI3
(lp26
sI4
(lp27
ssI6
(dp28
I0
(lp29
sI1
(lp30
sI3
(lp31
Vhttp://dbpedia.org/property/siteCityst
p32
aVhttp://dbpedia.org/property/shipBuilder
p33
aVhttp://dbpedia.org/ontology/location
p34
aVhttp://dbpedia.org/ontology/birthPlace
p35
aVhttp://dbpedia.org/ontology/recordedIn
p36
aVhttp://dbpedia.org/property/deathPlace
p37
aVhttp://dbpedia.org/property/location
p38
aVhttp://dbpedia.org/property/city
p39
aVhttp://dbpedia.org/property/birthPlace
p40
aVhttp://dbpedia.org/property/finalfourcity
p41
aVhttp://dbpedia.org/ontology/deathPlace
p42
aVhttp://dbpedia.org/property/shipHomeport
p43
aVhttp://dbpedia.org/property/stadium
p44
aVhttp://dbpedia.org/property/placeOfBirth
p45
asI4
(lp46
ssI7
(dp47
I0
(lp48
sI1
(lp49
sI3
(lp50
Vhttp://dbpedia.org/property/siteCityst
p51
aVhttp://dbpedia.org/property/recorded
p52
aVhttp://dbpedia.org/ontology/location
p53
aVhttp://dbpedia.org/property/residence
p54
aVhttp://dbpedia.org/ontology/abstract
p55
aVhttp://dbpedia.org/ontology/recordedIn
p56
aVhttp://dbpedia.org/property/deathPlace
p57
aVhttp://dbpedia.org/property/location
p58
aVhttp://dbpedia.org/property/city
p59
aVhttp://dbpedia.org/property/finalfourcity
p60
aVhttp://dbpedia.org/ontology/deathPlace
p61
aVhttp://dbpedia.org/property/stadium
p62
asI4
(lp63
ssI8
(dp64
I0
(lp65
sI1
(lp66
sI3
(lp67
Vhttp://dbpedia.org/property/origin
p68
aVhttp://www.w3.org/1999/02/22-rdf-syntax-ns#type
p69
aVhttp://dbpedia.org/property/shipBuilder
p70
aVhttp://dbpedia.org/ontology/location
p71
aVhttp://dbpedia.org/property/location
p72
aVhttp://dbpedia.org/property/city
p73
aVhttp://dbpedia.org/ontology/builder
p74
aVhttp://dbpedia.org/property/siteCityst
p75
aVhttp://dbpedia.org/property/locationCity
p76
aVhttp://dbpedia.org/property/finalfourcity
p77
aVhttp://dbpedia.org/ontology/locationCity
p78
asI4
(lp79
ssI9
(dp80
I0
(lp81
sI1
(lp82
sI3
(lp83
Vhttp://dbpedia.org/property/origin
p84
aVhttp://dbpedia.org/ontology/recordedIn
p85
aVhttp://www.w3.org/1999/02/22-rdf-syntax-ns#type
p86
aVhttp://dbpedia.org/property/city
p87
aVhttp://dbpedia.org/ontology/location
p88
aVhttp://dbpedia.org/ontology/hometown
p89
aVhttp://dbpedia.org/ontology/birthPlace
p90
aVhttp://dbpedia.org/ontology/abstract
p91
aVhttp://www.w3.org/2000/01/rdf-schema#comment
p92
aVhttp://dbpedia.org/property/location
p93
aVhttp://dbpedia.org/property/worldPlace
p94
aVhttp://dbpedia.org/ontology/PopulatedPlace/areaTotal
p95
aVhttp://dbpedia.org/property/birthPlace
p96
aVhttp://dbpedia.org/property/siteCityst
p97
aVhttp://dbpedia.org/property/finalfourcity
p98
aVhttp://dbpedia.org/property/locationTown
p99
aVhttp://dbpedia.org/property/stopover
p100
aVhttp://dbpedia.org/ontology/PopulatedPlace/populationDensity
p101
aVhttp://dbpedia.org/property/placeOfBirth
p102
asI4
(lp103
ssI10
(dp104
I0
(lp105
sI1
(lp106
sI3
(lp107
Vhttp://www.w3.org/1999/02/22-rdf-syntax-ns#type
p108
aVhttp://dbpedia.org/property/shipBuilder
p109
aVhttp://dbpedia.org/ontology/location
p110
aVhttp://dbpedia.org/property/city
p111
aVhttp://dbpedia.org/property/venue
p112
aVhttp://dbpedia.org/property/location
p113
aVhttp://purl.org/voc/vrank#hasRank
p114
aVhttp://dbpedia.org/property/siteCityst
p115
aVhttp://dbpedia.org/property/finalfourcity
p116
aVhttp://dbpedia.org/ontology/areaCode
p117
aVhttp://dbpedia.org/ontology/city
p118
aVhttp://dbpedia.org/property/based
p119
aVhttp://dbpedia.org/property/stadium
p120
asI4
(lp121
ssI11
(dp122
I0
(lp123
sI1
(lp124
Vhttp://dbpedia.org/property/imageCaption
p125
asI3
(lp126
Vhttp://dbpedia.org/property/placeOfDeath
p127
aVhttp://dbpedia.org/property/commands
p128
aVhttp://dbpedia.org/property/significantBuildings
p129
aVhttp://dbpedia.org/property/champCity
p130
aVhttp://dbpedia.org/property/next
p131
aVhttp://dbpedia.org/property/place
p132
aVhttp://dbpedia.org/ontology/routeStart
p133
aVhttp://dbpedia.org/property/city
p134
aVhttp://dbpedia.org/property/birthplace
p135
aVhttp://dbpedia.org/ontology/PopulatedPlace/areaUrban
p136
aVhttp://dbpedia.org/ontology/PopulatedPlace/populationDensity
p137
aVhttp://dbpedia.org/ontology/routeEnd
p138
aVhttp://www.w3.org/1999/02/22-rdf-syntax-ns#type
p139
aVhttp://dbpedia.org/ontology/postalCode
p140
aVhttp://dbpedia.org/property/home
p141
aVhttp://dbpedia.org/ontology/PopulatedPlace/areaMetro
p142
aVhttp://dbpedia.org/property/rd1t2Loc
p143
aVhttp://dbpedia.org/property/owned
p144
aVhttp://dbpedia.org/property/birthPlace
p145
aVhttp://dbpedia.org/property/prev
p146
aVhttp://dbpedia.org/property/finalfourcity
p147
aVhttp://dbpedia.org/property/placeOfBirth
p148
aVhttp://dbpedia.org/property/owner
p149
aVhttp://dbpedia.org/property/hometown
p150
aVhttp://dbpedia.org/ontology/routeJunction
p151
aVhttp://dbpedia.org/property/rd
p152
aVhttp://dbpedia.org/property/siteCityst
p153
aVhttp://dbpedia.org/ontology/abstract
p154
aVhttp://dbpedia.org/ontology/recordedIn
p155
aVhttp://dbpedia.org/property/venue
p156
aVhttp://dbpedia.org/property/deathPlace
p157
aVhttp://dbpedia.org/property/location
p158
aVhttp://dbpedia.org/ontology/builder
p159
aVhttp://dbpedia.org/ontology/deathPlace
p160
aVhttp://dbpedia.org/ontology/city
p161
aVhttp://dbpedia.org/property/builder
p162
aVhttp://dbpedia.org/property/shipNamesake
p163
aVhttp://dbpedia.org/property/rd2t1Loc
p164
aVhttp://www.georss.org/georss/point
p165
aVhttp://dbpedia.org/property/shipBuilder
p166
aVhttp://dbpedia.org/ontology/location
p167
aVhttp://www.w3.org/2000/01/rdf-schema#comment
p168
aVhttp://dbpedia.org/ontology/birthPlace
p169
aVhttp://dbpedia.org/property/governmentType
p170
aVhttp://dbpedia.org/property/rd1t1Loc
p171
aVhttp://dbpedia.org/property/rd3t1Loc
p172
aVhttp://dbpedia.org/ontology/restingPlace
p173
aVhttp://dbpedia.org/property/stadium
p174
aVhttp://dbpedia.org/property/rd4t1Loc
p175
aVhttp://www.w3.org/2002/07/owl#sameAs
p176
aVhttp://dbpedia.org/property/address
p177
asI4
(lp178
ss.