(lp1
(dp2
I0
(dp3
I0
(lp4
sI1
(lp5
sI2
(lp6
sI3
(lp7
sI4
(lp8
ssI1
(dp9
I0
g5
sI1
(lp10
sI2
(lp11
Vhttp://dbpedia.org/ontology/wikiPageExternalLink
p12
aVhttp://www.w3.org/1999/02/22-rdf-syntax-ns#type
p13
aVhttp://purl.org/dc/terms/subject
p14
aVhttp://dbpedia.org/ontology/location
p15
aVhttp://www.w3.org/2000/01/rdf-schema#comment
p16
aVhttp://dbpedia.org/ontology/abstract
p17
aVhttp://dbpedia.org/property/location
p18
aVhttp://dbpedia.org/ontology/wikiPageRedirects
p19
aVhttp://dbpedia.org/ontology/formerName
p20
aVhttp://xmlns.com/foaf/0.1/homepage
p21
aVhttp://www.w3.org/2002/07/owl#differentFrom
p22
aVhttp://dbpedia.org/property/formerNames
p23
asI3
(lp24
Vhttp://dbpedia.org/ontology/abstract
p25
aVhttp://www.w3.org/2000/01/rdf-schema#comment
p26
asI4
(lp27
Vhttp://dbpedia.org/ontology/abstract
p28
aVhttp://www.w3.org/2000/01/rdf-schema#comment
p29
assI2
(dp30
I0
g6
sI1
g11
sI2
(lp31
sI3
(lp32
sI4
(lp33
ssI3
(dp34
I0
g7
sI1
g24
sI2
g32
sI3
(lp35
sI4
(lp36
ssI4
(dp37
I0
g8
sI1
g27
sI2
g33
sI3
g36
sI4
(lp38
ssa(dp39
I0
(dp40
I0
(lp41
sI1
(lp42
sI2
(lp43
sI3
(lp44
sI4
(lp45
ssI1
(dp46
I0
g42
sI1
(lp47
sI2
(lp48
sI3
(lp49
sI4
(lp50
ssI2
(dp51
I0
g43
sI1
g48
sI2
(lp52
sI3
(lp53
sI4
(lp54
ssI3
(dp55
I0
g44
sI1
g49
sI2
g53
sI3
(lp56
sI4
(lp57
ssI4
(dp58
I0
g45
sI1
g50
sI2
g54
sI3
g57
sI4
(lp59
ssa(dp60
I0
(dp61
I0
(lp62
sI1
(lp63
sI2
(lp64
sI3
(lp65
sI4
(lp66
ssI1
(dp67
I0
g63
sI1
(lp68
sI2
(lp69
Vhttp://dbpedia.org/ontology/abstract
p70
aVhttp://dbpedia.org/property/location
p71
aVhttp://www.w3.org/2000/01/rdf-schema#comment
p72
asI3
(lp73
Vhttp://dbpedia.org/ontology/abstract
p74
aVhttp://www.w3.org/2000/01/rdf-schema#comment
p75
asI4
(lp76
Vhttp://dbpedia.org/ontology/abstract
p77
aVhttp://www.w3.org/2000/01/rdf-schema#comment
p78
assI2
(dp79
I0
g64
sI1
g69
sI2
(lp80
sI3
(lp81
Vhttp://dbpedia.org/ontology/abstract
p82
aVhttp://dbpedia.org/ontology/location
p83
aVhttp://dbpedia.org/property/location
p84
asI4
(lp85
ssI3
(dp86
I0
g65
sI1
g73
sI2
g81
sI3
(lp87
sI4
(lp88
ssI4
(dp89
I0
g66
sI1
g76
sI2
g85
sI3
g88
sI4
(lp90
ssa(dp91
I0
(dp92
I0
(lp93
sI1
(lp94
sI2
(lp95
sI3
(lp96
sI4
(lp97
ssI1
(dp98
I0
g94
sI1
(lp99
sI2
(lp100
Vhttp://dbpedia.org/ontology/wikiPageExternalLink
p101
aVhttp://www.w3.org/1999/02/22-rdf-syntax-ns#type
p102
aVhttp://purl.org/dc/terms/subject
p103
aVhttp://dbpedia.org/ontology/location
p104
aVhttp://www.w3.org/2000/01/rdf-schema#comment
p105
aVhttp://dbpedia.org/ontology/abstract
p106
aVhttp://dbpedia.org/property/location
p107
aVhttp://dbpedia.org/property/image
p108
aVhttp://dbpedia.org/property/after
p109
aVhttp://dbpedia.org/property/caption
p110
aVhttp://dbpedia.org/property/title
p111
asI3
(lp112
Vhttp://dbpedia.org/ontology/abstract
p113
aVhttp://www.w3.org/2000/01/rdf-schema#comment
p114
aVhttp://dbpedia.org/property/title
p115
asI4
(lp116
Vhttp://dbpedia.org/ontology/abstract
p117
aVhttp://www.w3.org/2000/01/rdf-schema#comment
p118
aVhttp://dbpedia.org/property/title
p119
assI2
(dp120
I0
g95
sI1
g100
sI2
(lp121
sI3
(lp122
sI4
(lp123
ssI3
(dp124
I0
g96
sI1
g112
sI2
g122
sI3
(lp125
sI4
(lp126
ssI4
(dp127
I0
g97
sI1
g116
sI2
g123
sI3
g126
sI4
(lp128
ssa(dp129
I0
(dp130
I0
(lp131
sI1
(lp132
sI2
(lp133
sI3
(lp134
sI4
(lp135
ssI1
(dp136
I0
g132
sI1
(lp137
sI2
(lp138
Vhttp://dbpedia.org/ontology/abstract
p139
aVhttp://dbpedia.org/property/location
p140
aVhttp://www.w3.org/2000/01/rdf-schema#comment
p141
asI3
(lp142
Vhttp://dbpedia.org/ontology/abstract
p143
aVhttp://www.w3.org/2000/01/rdf-schema#comment
p144
asI4
(lp145
Vhttp://dbpedia.org/ontology/abstract
p146
assI2
(dp147
I0
g133
sI1
g138
sI2
(lp148
sI3
(lp149
Vhttp://dbpedia.org/ontology/postalCode
p150
aVhttp://dbpedia.org/property/city
p151
asI4
(lp152
ssI3
(dp153
I0
g134
sI1
g142
sI2
g149
sI3
(lp154
sI4
(lp155
ssI4
(dp156
I0
g135
sI1
g145
sI2
g152
sI3
g155
sI4
(lp157
ssa(dp158
I0
(dp159
I0
(lp160
sI1
(lp161
sI2
(lp162
sI3
(lp163
sI4
(lp164
ssI1
(dp165
I0
g161
sI1
(lp166
sI2
(lp167
Vhttp://dbpedia.org/ontology/abstract
p168
aVhttp://www.w3.org/2000/01/rdf-schema#comment
p169
asI3
(lp170
Vhttp://dbpedia.org/ontology/abstract
p171
aVhttp://www.w3.org/1999/02/22-rdf-syntax-ns#type
p172
aVhttp://www.w3.org/2000/01/rdf-schema#comment
p173
asI4
(lp174
Vhttp://dbpedia.org/ontology/abstract
p175
aVhttp://www.w3.org/2000/01/rdf-schema#comment
p176
assI2
(dp177
I0
g162
sI1
g167
sI2
(lp178
sI3
(lp179
sI4
(lp180
ssI3
(dp181
I0
g163
sI1
g170
sI2
g179
sI3
(lp182
sI4
(lp183
ssI4
(dp184
I0
g164
sI1
g174
sI2
g180
sI3
g183
sI4
(lp185
ssa(dp186
I0
(dp187
I0
(lp188
sI1
(lp189
sI2
(lp190
sI3
(lp191
sI4
(lp192
ssI1
(dp193
I0
g189
sI1
(lp194
sI2
(lp195
Vhttp://dbpedia.org/ontology/abstract
p196
aVhttp://www.w3.org/2000/01/rdf-schema#comment
p197
asI3
(lp198
Vhttp://dbpedia.org/ontology/abstract
p199
aVhttp://www.w3.org/2000/01/rdf-schema#comment
p200
asI4
(lp201
Vhttp://dbpedia.org/ontology/abstract
p202
aVhttp://www.w3.org/2000/01/rdf-schema#comment
p203
assI2
(dp204
I0
g190
sI1
g195
sI2
(lp205
sI3
(lp206
Vhttp://dbpedia.org/property/siteCityst
p207
aVhttp://dbpedia.org/property/shipBuilder
p208
aVhttp://dbpedia.org/ontology/location
p209
aVhttp://dbpedia.org/ontology/birthPlace
p210
aVhttp://dbpedia.org/ontology/recordedIn
p211
aVhttp://dbpedia.org/property/deathPlace
p212
aVhttp://dbpedia.org/property/location
p213
aVhttp://dbpedia.org/property/city
p214
aVhttp://dbpedia.org/property/birthPlace
p215
aVhttp://dbpedia.org/property/finalfourcity
p216
aVhttp://dbpedia.org/ontology/deathPlace
p217
aVhttp://dbpedia.org/property/shipHomeport
p218
aVhttp://dbpedia.org/property/stadium
p219
aVhttp://dbpedia.org/property/placeOfBirth
p220
asI4
(lp221
ssI3
(dp222
I0
g191
sI1
g198
sI2
g206
sI3
(lp223
sI4
(lp224
ssI4
(dp225
I0
g192
sI1
g201
sI2
g221
sI3
g224
sI4
(lp226
ssa(dp227
I0
(dp228
I0
(lp229
sI1
(lp230
sI2
(lp231
sI3
(lp232
sI4
(lp233
ssI1
(dp234
I0
g230
sI1
(lp235
sI2
(lp236
sI3
(lp237
sI4
(lp238
ssI2
(dp239
I0
g231
sI1
g236
sI2
(lp240
sI3
(lp241
Vhttp://dbpedia.org/property/siteCityst
p242
aVhttp://dbpedia.org/property/recorded
p243
aVhttp://dbpedia.org/ontology/location
p244
aVhttp://dbpedia.org/property/city
p245
aVhttp://dbpedia.org/ontology/abstract
p246
aVhttp://dbpedia.org/ontology/recordedIn
p247
aVhttp://dbpedia.org/property/deathPlace
p248
aVhttp://dbpedia.org/property/location
p249
aVhttp://dbpedia.org/property/residence
p250
aVhttp://dbpedia.org/property/finalfourcity
p251
aVhttp://dbpedia.org/ontology/deathPlace
p252
aVhttp://dbpedia.org/property/stadium
p253
asI4
(lp254
ssI3
(dp255
I0
g232
sI1
g237
sI2
g241
sI3
(lp256
sI4
(lp257
ssI4
(dp258
I0
g233
sI1
g238
sI2
g254
sI3
g257
sI4
(lp259
ssa(dp260
I0
(dp261
I0
(lp262
sI1
(lp263
sI2
(lp264
sI3
(lp265
sI4
(lp266
ssI1
(dp267
I0
g263
sI1
(lp268
sI2
(lp269
Vhttp://dbpedia.org/ontology/abstract
p270
aVhttp://www.w3.org/2000/01/rdf-schema#comment
p271
asI3
(lp272
Vhttp://dbpedia.org/ontology/abstract
p273
aVhttp://www.w3.org/2000/01/rdf-schema#comment
p274
asI4
(lp275
Vhttp://dbpedia.org/ontology/abstract
p276
aVhttp://www.w3.org/2000/01/rdf-schema#comment
p277
assI2
(dp278
I0
g264
sI1
g269
sI2
(lp279
sI3
(lp280
Vhttp://dbpedia.org/property/origin
p281
aVhttp://www.w3.org/1999/02/22-rdf-syntax-ns#type
p282
aVhttp://dbpedia.org/property/shipBuilder
p283
aVhttp://dbpedia.org/ontology/location
p284
aVhttp://dbpedia.org/property/location
p285
aVhttp://dbpedia.org/property/city
p286
aVhttp://dbpedia.org/ontology/builder
p287
aVhttp://dbpedia.org/property/siteCityst
p288
aVhttp://dbpedia.org/property/locationCity
p289
aVhttp://dbpedia.org/property/finalfourcity
p290
aVhttp://dbpedia.org/ontology/locationCity
p291
asI4
(lp292
ssI3
(dp293
I0
g265
sI1
g272
sI2
g280
sI3
(lp294
sI4
(lp295
ssI4
(dp296
I0
g266
sI1
g275
sI2
g292
sI3
g295
sI4
(lp297
ssa(dp298
I0
(dp299
I0
(lp300
sI1
(lp301
sI2
(lp302
sI3
(lp303
sI4
(lp304
ssI1
(dp305
I0
g301
sI1
(lp306
sI2
(lp307
Vhttp://dbpedia.org/ontology/abstract
p308
aVhttp://www.w3.org/2000/01/rdf-schema#comment
p309
asI3
(lp310
Vhttp://dbpedia.org/ontology/abstract
p311
aVhttp://www.w3.org/2000/01/rdf-schema#comment
p312
asI4
(lp313
Vhttp://dbpedia.org/ontology/abstract
p314
aVhttp://www.w3.org/2000/01/rdf-schema#comment
p315
assI2
(dp316
I0
g302
sI1
g307
sI2
(lp317
sI3
(lp318
Vhttp://dbpedia.org/property/origin
p319
aVhttp://www.w3.org/2000/01/rdf-schema#comment
p320
aVhttp://www.w3.org/1999/02/22-rdf-syntax-ns#type
p321
aVhttp://dbpedia.org/ontology/location
p322
aVhttp://dbpedia.org/property/city
p323
aVhttp://dbpedia.org/ontology/PopulatedPlace/populationDensity
p324
aVhttp://dbpedia.org/ontology/birthPlace
p325
aVhttp://dbpedia.org/ontology/recordedIn
p326
aVhttp://dbpedia.org/property/location
p327
aVhttp://dbpedia.org/property/worldPlace
p328
aVhttp://dbpedia.org/ontology/hometown
p329
aVhttp://dbpedia.org/property/birthPlace
p330
aVhttp://dbpedia.org/property/siteCityst
p331
aVhttp://dbpedia.org/ontology/PopulatedPlace/areaTotal
p332
aVhttp://dbpedia.org/property/locationTown
p333
aVhttp://dbpedia.org/property/stopover
p334
aVhttp://dbpedia.org/property/finalfourcity
p335
aVhttp://dbpedia.org/ontology/abstract
p336
aVhttp://dbpedia.org/property/placeOfBirth
p337
asI4
(lp338
ssI3
(dp339
I0
g303
sI1
g310
sI2
g318
sI3
(lp340
sI4
(lp341
ssI4
(dp342
I0
g304
sI1
g313
sI2
g338
sI3
g341
sI4
(lp343
ssa(dp344
I0
(dp345
I0
(lp346
sI1
(lp347
sI2
(lp348
sI3
(lp349
sI4
(lp350
ssI1
(dp351
I0
g347
sI1
(lp352
sI2
(lp353
sI3
(lp354
sI4
(lp355
ssI2
(dp356
I0
g348
sI1
g353
sI2
(lp357
sI3
(lp358
Vhttp://www.w3.org/1999/02/22-rdf-syntax-ns#type
p359
aVhttp://dbpedia.org/property/shipBuilder
p360
aVhttp://dbpedia.org/ontology/location
p361
aVhttp://purl.org/voc/vrank#hasRank
p362
aVhttp://dbpedia.org/property/venue
p363
aVhttp://dbpedia.org/property/location
p364
aVhttp://dbpedia.org/property/city
p365
aVhttp://dbpedia.org/property/siteCityst
p366
aVhttp://dbpedia.org/property/finalfourcity
p367
aVhttp://dbpedia.org/ontology/areaCode
p368
aVhttp://dbpedia.org/ontology/city
p369
aVhttp://dbpedia.org/property/based
p370
aVhttp://dbpedia.org/property/stadium
p371
asI4
(lp372
ssI3
(dp373
I0
g349
sI1
g354
sI2
g358
sI3
(lp374
sI4
(lp375
ssI4
(dp376
I0
g350
sI1
g355
sI2
g372
sI3
g375
sI4
(lp377
ssa(dp378
I0
(dp379
I0
(lp380
sI1
(lp381
sI2
(lp382
sI3
(lp383
sI4
(lp384
ssI1
(dp385
I0
g381
sI1
(lp386
sI2
(lp387
Vhttp://dbpedia.org/ontology/wikiPageExternalLink
p388
aVhttp://xmlns.com/foaf/0.1/primaryTopic
p389
aVhttp://www.w3.org/1999/02/22-rdf-syntax-ns#type
p390
aVhttp://purl.org/dc/terms/subject
p391
aVhttp://dbpedia.org/ontology/location
p392
aVhttp://www.w3.org/2000/01/rdf-schema#comment
p393
aVhttp://xmlns.com/foaf/0.1/name
p394
aVhttp://www.w3.org/2000/01/rdf-schema#label
p395
aVhttp://dbpedia.org/ontology/abstract
p396
aVhttp://xmlns.com/foaf/0.1/depiction
p397
aVhttp://dbpedia.org/ontology/wikiPageRedirects
p398
aVhttp://dbpedia.org/property/name
p399
aVhttp://dbpedia.org/property/location
p400
aVhttp://xmlns.com/foaf/0.1/isPrimaryTopicOf
p401
aVhttp://www.w3.org/ns/prov#wasDerivedFrom
p402
aVhttp://dbpedia.org/property/caption
p403
aVhttp://dbpedia.org/property/hasPhotoCollection
p404
aVhttp://dbpedia.org/property/meetingPlace
p405
aVhttp://www.w3.org/2002/07/owl#sameAs
p406
aVhttp://dbpedia.org/ontology/thumbnail
p407
asI3
(lp408
Vhttp://dbpedia.org/ontology/wikiPageExternalLink
p409
aVhttp://www.w3.org/1999/02/22-rdf-syntax-ns#type
p410
aVhttp://purl.org/dc/terms/subject
p411
aVhttp://www.w3.org/2000/01/rdf-schema#comment
p412
aVhttp://dbpedia.org/ontology/abstract
p413
aVhttp://dbpedia.org/property/location
p414
aVhttp://purl.org/voc/vrank#hasRank
p415
asI4
(lp416
Vhttp://dbpedia.org/ontology/abstract
p417
aVhttp://www.w3.org/2000/01/rdf-schema#comment
p418
aVhttp://dbpedia.org/property/years
p419
assI2
(dp420
I0
g382
sI1
g387
sI2
(lp421
sI3
(lp422
Vhttp://dbpedia.org/property/placeOfDeath
p423
aVhttp://dbpedia.org/property/commands
p424
aVhttp://dbpedia.org/property/significantBuildings
p425
aVhttp://dbpedia.org/property/champCity
p426
aVhttp://dbpedia.org/property/next
p427
aVhttp://dbpedia.org/property/place
p428
aVhttp://dbpedia.org/ontology/routeStart
p429
aVhttp://dbpedia.org/property/city
p430
aVhttp://dbpedia.org/property/birthplace
p431
aVhttp://dbpedia.org/ontology/PopulatedPlace/areaUrban
p432
aVhttp://dbpedia.org/ontology/PopulatedPlace/populationDensity
p433
aVhttp://dbpedia.org/ontology/routeEnd
p434
aVhttp://www.w3.org/1999/02/22-rdf-syntax-ns#type
p435
aVhttp://dbpedia.org/ontology/postalCode
p436
aVhttp://dbpedia.org/property/home
p437
aVhttp://dbpedia.org/ontology/PopulatedPlace/areaMetro
p438
aVhttp://dbpedia.org/property/rd1t2Loc
p439
aVhttp://dbpedia.org/property/owned
p440
aVhttp://dbpedia.org/property/birthPlace
p441
aVhttp://dbpedia.org/property/prev
p442
aVhttp://dbpedia.org/property/finalfourcity
p443
aVhttp://dbpedia.org/property/placeOfBirth
p444
aVhttp://dbpedia.org/property/owner
p445
aVhttp://dbpedia.org/property/hometown
p446
aVhttp://dbpedia.org/ontology/routeJunction
p447
aVhttp://dbpedia.org/property/rd
p448
aVhttp://dbpedia.org/property/siteCityst
p449
aVhttp://dbpedia.org/ontology/abstract
p450
aVhttp://dbpedia.org/ontology/recordedIn
p451
aVhttp://dbpedia.org/property/venue
p452
aVhttp://dbpedia.org/property/deathPlace
p453
aVhttp://dbpedia.org/property/location
p454
aVhttp://dbpedia.org/ontology/builder
p455
aVhttp://dbpedia.org/ontology/deathPlace
p456
aVhttp://dbpedia.org/ontology/city
p457
aVhttp://dbpedia.org/property/builder
p458
aVhttp://dbpedia.org/property/shipNamesake
p459
aVhttp://dbpedia.org/ontology/location
p460
aVhttp://www.georss.org/georss/point
p461
aVhttp://dbpedia.org/property/shipBuilder
p462
aVhttp://dbpedia.org/property/rd2t1Loc
p463
aVhttp://www.w3.org/2000/01/rdf-schema#comment
p464
aVhttp://dbpedia.org/ontology/birthPlace
p465
aVhttp://dbpedia.org/property/governmentType
p466
aVhttp://dbpedia.org/property/rd1t1Loc
p467
aVhttp://dbpedia.org/property/rd3t1Loc
p468
aVhttp://dbpedia.org/ontology/restingPlace
p469
aVhttp://dbpedia.org/property/address
p470
aVhttp://www.w3.org/2002/07/owl#sameAs
p471
aVhttp://dbpedia.org/property/stadium
p472
aVhttp://dbpedia.org/property/rd4t1Loc
p473
asI4
(lp474
ssI3
(dp475
I0
g383
sI1
g408
sI2
g422
sI3
(lp476
sI4
(lp477
ssI4
(dp478
I0
g384
sI1
g416
sI2
g474
sI3
g477
sI4
(lp479
ssa.