(lp1
(lp2
(lp3
Vhttp://dbpedia.org/resource/Li_&_Fung
p4
aa(lp5
Vhttp://dbpedia.org/resource/Hong_Kong
p6
aa(lp7
a(lp8
a(lp9
Vhttp://dbpedia.org/resource/Trading_company
p10
aaa(lp11
(lp12
Vhttp://dbpedia.org/resource/Larsen_&_Toubro
p13
aa(lp14
Vhttp://dbpedia.org/resource/India
p15
aa(lp16
a(lp17
a(lp18
Vhttp://dbpedia.org/resource/Capital_good
p19
aaa(lp20
(lp21
Vhttp://dbpedia.org/resource/Tata_Motors
p22
aa(lp23
Vhttp://dbpedia.org/resource/India
p24
aa(lp25
a(lp26
a(lp27
Vhttp://dbpedia.org/resource/Capital_good
p28
aaa(lp29
(lp30
Vhttp://dbpedia.org/resource/C._S._Lewis
p31
aa(lp32
Vhttp://dbpedia.org/resource/Australia
p33
aa(lp34
a(lp35
a(lp36
aa(lp37
(lp38
a(lp39
Vhttp://dbpedia.org/resource/South_Korea
p40
aa(lp41
a(lp42
a(lp43
Vhttp://dbpedia.org/resource/Insurance
p44
aaa(lp45
(lp46
Vhttp://dbpedia.org/resource/Philippine_Long_Distance_Telephone_Company
p47
aa(lp48
Vhttp://dbpedia.org/resource/Philippines
p49
aa(lp50
a(lp51
a(lp52
Vhttp://dbpedia.org/resource/Telecommunications_service_provider
p53
aaa(lp54
(lp55
Vhttp://dbpedia.org/resource/Toll_Group
p56
aa(lp57
Vhttp://dbpedia.org/resource/Australia
p58
aa(lp59
a(lp60
a(lp61
Vhttp://dbpedia.org/resource/Transport
p62
aaa(lp63
(lp64
Vhttp://dbpedia.org/resource/Konica_Minolta_Maxxum_7D
p65
aa(lp66
Vhttp://dbpedia.org/resource/Japan
p67
aa(lp68
a(lp69
a(lp70
aa(lp71
(lp72
Vhttp://dbpedia.org/resource/Chi_Mei_Corporation
p73
aa(lp74
Vhttp://dbpedia.org/resource/Taiwan
p75
aa(lp76
a(lp77
a(lp78
aa(lp79
(lp80
Vhttp://dbpedia.org/resource/Bajaj_Auto
p81
aa(lp82
Vhttp://dbpedia.org/resource/India
p83
aa(lp84
a(lp85
a(lp86
Vhttp://dbpedia.org/resource/Durable_good
p87
aaa(lp88
(lp89
Vhttp://dbpedia.org/resource/Bank_Central_Asia
p90
aa(lp91
Vhttp://dbpedia.org/resource/Indonesia
p92
aa(lp93
a(lp94
a(lp95
Vhttp://dbpedia.org/resource/Bank
p96
aaa(lp97
(lp98
Vhttp://dbpedia.org/resource/HDFC_Bank
p99
aa(lp100
Vhttp://dbpedia.org/resource/India
p101
aa(lp102
a(lp103
a(lp104
Vhttp://dbpedia.org/resource/Bank
p105
aaa(lp106
(lp107
Vhttp://dbpedia.org/resource/Mahindra_Satyam
p108
aa(lp109
Vhttp://dbpedia.org/resource/India
p110
aa(lp111
a(lp112
a(lp113
aa(lp114
(lp115
a(lp116
Vhttp://dbpedia.org/resource/South_Korea
p117
aa(lp118
a(lp119
a(lp120
Vhttp://dbpedia.org/resource/Capital_good
p121
aaa(lp122
(lp123
Vhttp://dbpedia.org/resource/International_Ombudsman_Institute
p124
aa(lp125
Vhttp://dbpedia.org/resource/Malaysia
p126
aa(lp127
a(lp128
a(lp129
aa(lp130
(lp131
Vhttp://dbpedia.org/resource/Minsheng_Banking_Corp
p132
aa(lp133
Vhttp://dbpedia.org/resource/China
p134
aa(lp135
a(lp136
a(lp137
Vhttp://dbpedia.org/resource/Bank
p138
aaa(lp139
(lp140
Vhttp://dbpedia.org/resource/Sterlite_Industries
p141
aa(lp142
Vhttp://dbpedia.org/resource/India
p143
aa(lp144
a(lp145
a(lp146
Vhttp://dbpedia.org/resource/Materials_(journal)
p147
aaa(lp148
(lp149
Vhttp://dbpedia.org/resource/LG_Corp
p150
aa(lp151
Vhttp://dbpedia.org/resource/South_Korea
p152
aa(lp153
a(lp154
a(lp155
Vhttp://dbpedia.org/resource/Conglomerate
p156
aaa(lp157
(lp158
a(lp159
Vhttp://dbpedia.org/resource/Japan
p160
aa(lp161
a(lp162
a(lp163
aa(lp164
(lp165
a(lp166
Vhttp://dbpedia.org/resource/Taiwan
p167
aa(lp168
a(lp169
a(lp170
aa.