(lp1
(lp2
(dp3
Vstart
p4
I0
sVdisambiguatedURL
p5
Vhttp://dbpedia.org/resource/Null
p6
sVnamedEntity
p7
VNULL
p8
sVoffset
p9
I4
saa(lp10
(dp11
Vstart
p12
I0
sVdisambiguatedURL
p13
NsVnamedEntity
p14
V2012-01-23
p15
sVoffset
p16
I10
saa(lp17
(dp18
Vstart
p19
I0
sVdisambiguatedURL
p20
NsVnamedEntity
p21
V2012-01-21
p22
sVoffset
p23
I10
saa(lp24
(dp25
Vstart
p26
I0
sVdisambiguatedURL
p27
NsVnamedEntity
p28
V2012-01-20
p29
sVoffset
p30
I10
saa(lp31
(dp32
Vstart
p33
I0
sVdisambiguatedURL
p34
NsVnamedEntity
p35
V2012-01-19
p36
sVoffset
p37
I10
saa(lp38
(dp39
Vstart
p40
I0
sVdisambiguatedURL
p41
NsVnamedEntity
p42
V2012-01-15
p43
sVoffset
p44
I10
saa(lp45
(dp46
Vstart
p47
I0
sVdisambiguatedURL
p48
NsVnamedEntity
p49
V2012-01-14
p50
sVoffset
p51
I10
saa(lp52
(dp53
Vstart
p54
I0
sVdisambiguatedURL
p55
NsVnamedEntity
p56
V2012-01-12
p57
sVoffset
p58
I10
saa(lp59
(dp60
Vstart
p61
I0
sVdisambiguatedURL
p62
NsVnamedEntity
p63
V2012-01-11
p64
sVoffset
p65
I10
saa(lp66
(dp67
Vstart
p68
I0
sVdisambiguatedURL
p69
NsVnamedEntity
p70
V2012-01-10
p71
sVoffset
p72
I10
saa(lp73
(dp74
Vstart
p75
I0
sVdisambiguatedURL
p76
NsVnamedEntity
p77
V2012-01-08
p78
sVoffset
p79
I10
saa(lp80
(dp81
Vstart
p82
I0
sVdisambiguatedURL
p83
NsVnamedEntity
p84
V2012-01-07
p85
sVoffset
p86
I10
saa(lp87
(dp88
Vstart
p89
I0
sVdisambiguatedURL
p90
NsVnamedEntity
p91
V2012-01-07
p92
sVoffset
p93
I10
saa(lp94
(dp95
Vstart
p96
I0
sVdisambiguatedURL
p97
NsVnamedEntity
p98
V2012-01-05
p99
sVoffset
p100
I10
saa(lp101
(dp102
Vstart
p103
I0
sVdisambiguatedURL
p104
NsVnamedEntity
p105
V2012-01-03
p106
sVoffset
p107
I10
saa(lp108
(dp109
Vstart
p110
I0
sVdisambiguatedURL
p111
NsVnamedEntity
p112
V2012-01-02
p113
sVoffset
p114
I10
saa(lp115
(dp116
Vstart
p117
I0
sVdisambiguatedURL
p118
NsVnamedEntity
p119
V2011-12-30
p120
sVoffset
p121
I10
saa(lp122
(dp123
Vstart
p124
I0
sVdisambiguatedURL
p125
NsVnamedEntity
p126
V2011-12-28
p127
sVoffset
p128
I10
saa(lp129
(dp130
Vstart
p131
I0
sVdisambiguatedURL
p132
NsVnamedEntity
p133
V2011-12-23
p134
sVoffset
p135
I10
saa(lp136
(dp137
Vstart
p138
I0
sVdisambiguatedURL
p139
NsVnamedEntity
p140
V2011-12-17
p141
sVoffset
p142
I10
saa.