(lp1
(lp2
(lp3
Vhttp://dbpedia.org/resource/Scripps_Mercy_Hospital
p4
aa(lp5
Vhttp://dbpedia.org/resource/Scripps_Mercy_Hospital
p6
aa(lp7
Vhttp://dbpedia.org/resource/Market_sentiment
p8
aa(lp9
Vhttp://dbpedia.org/resource/Market_sentiment
p10
aa(lp11
aa(lp12
(lp13
a(lp14
Vhttp://dbpedia.org/resource/Adi
p15
aa(lp16
Vhttp://dbpedia.org/resource/Market_sentiment
p17
aa(lp18
Vhttp://dbpedia.org/resource/Market_sentiment
p19
aa(lp20
aa(lp21
(lp22
a(lp23
Vhttp://dbpedia.org/resource/Applied_Materials
p24
aa(lp25
Vhttp://dbpedia.org/resource/Neutral_Records
p26
aa(lp27
Vhttp://dbpedia.org/resource/Neutral_Records
p28
aa(lp29
aa(lp30
(lp31
a(lp32
Vhttp://dbpedia.org/resource/Intel
p33
aa(lp34
Vhttp://dbpedia.org/resource/Market_sentiment
p35
aa(lp36
Vhttp://dbpedia.org/resource/Market_sentiment
p37
aa(lp38
aa(lp39
(lp40
a(lp41
Vhttp://dbpedia.org/resource/KLAC
p42
aa(lp43
Vhttp://dbpedia.org/resource/Market_sentiment
p44
aa(lp45
Vhttp://dbpedia.org/resource/Market_sentiment
p46
aa(lp47
aa(lp48
(lp49
a(lp50
a(lp51
Vhttp://dbpedia.org/resource/Market_sentiment
p52
aa(lp53
Vhttp://dbpedia.org/resource/Market_sentiment
p54
aa(lp55
aa(lp56
(lp57
a(lp58
Vhttp://dbpedia.org/resource/Maxim_Integrated
p59
aa(lp60
Vhttp://dbpedia.org/resource/Market_sentiment
p61
aa(lp62
Vhttp://dbpedia.org/resource/Market_sentiment
p63
aa(lp64
aa(lp65
(lp66
a(lp67
Vhttp://dbpedia.org/resource/Mauritius
p68
aa(lp69
Vhttp://dbpedia.org/resource/Market_sentiment
p70
aa(lp71
Vhttp://dbpedia.org/resource/Market_sentiment
p72
aa(lp73
aa(lp74
(lp75
a(lp76
Vhttp://dbpedia.org/resource/IG_Culture
p77
aa(lp78
Vhttp://dbpedia.org/resource/Market_sentiment
p79
aa(lp80
Vhttp://dbpedia.org/resource/Market_sentiment
p81
aa(lp82
aa(lp83
(lp84
a(lp85
Vhttp://dbpedia.org/resource/TX_Network
p86
aa(lp87
Vhttp://dbpedia.org/resource/Market_sentiment
p88
aa(lp89
Vhttp://dbpedia.org/resource/Market_sentiment
p90
aa(lp91
aa(lp92
(lp93
a(lp94
Vhttp://dbpedia.org/resource/Xilinx
p95
aa(lp96
Vhttp://dbpedia.org/resource/Market_sentiment
p97
aa(lp98
Vhttp://dbpedia.org/resource/Market_sentiment
p99
aa(lp100
aa.