(lp1
(lp2
(dp3
Vstart
p4
I0
sS'classes'
p5
(lp6
Vhttp://www.w3.org/2002/07/owl#Thing
p7
aVhttp://dbpedia.org/ontology/Place
p8
aVhttp://dbpedia.org/ontology/Location
p9
aVhttp://www.wikidata.org/entity/Q16917
p10
aVhttp://www.wikidata.org/entity/Q41176
p11
aVhttp://dbpedia.org/ontology/ArchitecturalStructure
p12
aVhttp://dbpedia.org/ontology/Building
p13
aVhttp://dbpedia.org/ontology/Hospital
p14
aVhttp://schema.org/Hospital
p15
aVhttp://schema.org/Place
p16
aVhttp://dbpedia.org/class/yago/Artifact100021939
p17
aVhttp://dbpedia.org/class/yago/Building102913152
p18
aVhttp://dbpedia.org/class/yago/Hospital103540595
p19
aVhttp://dbpedia.org/class/yago/Object100002684
p20
aVhttp://dbpedia.org/class/yago/Structure104341686
p21
aVhttp://dbpedia.org/class/yago/Whole100003553
p22
aVhttp://dbpedia.org/class/yago/YagoGeoEntity
p23
aVhttp://dbpedia.org/class/yago/MedicalBuilding103739518
p24
aVhttp://dbpedia.org/class/yago/PhysicalEntity100001930
p25
aVhttp://dbpedia.org/class/yago/YagoPermanentlyLocatedEntity
p26
aVhttp://dbpedia.org/class/yago/HospitalsInCalifornia
p27
asVdisambiguatedURL
p28
Vhttp://dbpedia.org/resource/Scripps_Mercy_Hospital
p29
sVnamedEntity
p30
VSMH
p31
sVoffset
p32
I3
saa(lp33
a(lp34
a(lp35
a(lp36
a(lp37
a(lp38
a(lp39
a(lp40
a(lp41
a(lp42
a.