(lp1
(lp2
(lp3
Vhttp://dbpedia.org/resource/Name
p4
aa(lp5
Vhttp://dbpedia.org/resource/Normal_type
p6
aa(lp7
a(lp8
Vhttp://dbpedia.org/resource/Return_to_Forever
p9
aaa(lp10
(lp11
Vhttp://dbpedia.org/resource/Draw_poker
p12
aa(lp13
a(lp14
a(lp15
aa(lp16
(lp17
a(lp18
a(lp19
a(lp20
aa(lp21
(lp22
Vhttp://dbpedia.org/resource/Video_poker
p23
aa(lp24
a(lp25
a(lp26
aa(lp27
(lp28
a(lp29
a(lp30
a(lp31
aa(lp32
(lp33
a(lp34
a(lp35
a(lp36
aa(lp37
(lp38
a(lp39
a(lp40
a(lp41
aa(lp42
(lp43
Vhttp://dbpedia.org/resource/Deuces_Wild_(band)
p44
aa(lp45
a(lp46
a(lp47
aa.