(lp1
(lp2
(dp3
Vstart
p4
I0
sVdisambiguatedURL
p5
NsVnamedEntity
p6
VPacific Northwest National Laboratory
p7
sVoffset
p8
I46
saa(lp9
(dp10
Vstart
p11
I0
sVdisambiguatedURL
p12
Vhttp://dbpedia.org/resource/United_Regions_of_Serbia
p13
sVnamedEntity
p14
VURS
p15
sVoffset
p16
I3
saa(lp17
(dp18
Vstart
p19
I0
sVdisambiguatedURL
p20
Vhttp://dbpedia.org/resource/CH2M_Hill
p21
sVnamedEntity
p22
VCH2M Hill
p23
sVoffset
p24
I9
saa(lp25
(dp26
Vstart
p27
I0
sVdisambiguatedURL
p28
Vhttp://dbpedia.org/resource/ConAgra_Foods
p29
sVnamedEntity
p30
VConAgra
p31
sVoffset
p32
I7
saa(lp33
(dp34
Vstart
p35
I0
sVdisambiguatedURL
p36
NsVnamedEntity
p37
VBechtel National
p38
sVoffset
p39
I16
saa(lp40
(dp41
Vstart
p42
I0
sVdisambiguatedURL
p43
NsVnamedEntity
p44
VKadlec Medical Center
p45
sVoffset
p46
I21
saa(lp47
(dp48
Vstart
p49
I0
sVdisambiguatedURL
p50
NsVnamedEntity
p51
VWashington River Protection
p52
sVoffset
p53
I27
saa(lp54
(dp55
Vstart
p56
I0
sVdisambiguatedURL
p57
NsVnamedEntity
p58
VMission Support Alliance
p59
sVoffset
p60
I24
saa(lp61
(dp62
Vstart
p63
I0
sVdisambiguatedURL
p64
NsVnamedEntity
p65
VWashington Closure Hanford
p66
sVoffset
p67
I26
saa(lp68
(dp69
Vstart
p70
I0
sVdisambiguatedURL
p71
Vhttp://dbpedia.org/resource/Tyson_Foods
p72
sVnamedEntity
p73
VTyson Foods
p74
sVoffset
p75
I11
saa(lp76
(dp77
Vstart
p78
I0
sVdisambiguatedURL
p79
Vhttp://dbpedia.org/resource/Energy_Northwest
p80
sVnamedEntity
p81
VEnergy Northwest
p82
sVoffset
p83
I16
saa(lp84
(dp85
Vstart
p86
I0
sVdisambiguatedURL
p87
NsVnamedEntity
p88
VKennewick General Hospital
p89
sVoffset
p90
I26
saa(lp91
(dp92
Vstart
p93
I0
sVdisambiguatedURL
p94
NsVnamedEntity
p95
VBroetje Orchards
p96
sVoffset
p97
I16
saa(lp98
(dp99
Vstart
p100
I0
sVdisambiguatedURL
p101
NsVnamedEntity
p102
VLourdes Health Network
p103
sVoffset
p104
I22
saa(lp105
(dp106
Vstart
p107
I0
sVdisambiguatedURL
p108
Vhttp://dbpedia.org/resource/Areva
p109
sVnamedEntity
p110
VAREVA
p111
sVoffset
p112
I5
saa(lp113
(dp114
Vstart
p115
I0
sVdisambiguatedURL
p116
NsVnamedEntity
p117
VApollo Inc.
p118
sVoffset
p119
I11
saa(lp120
(dp121
Vstart
p122
I0
sVdisambiguatedURL
p123
Vhttp://dbpedia.org/resource/Lockheed_Martin
p124
sVnamedEntity
p125
VLockheed Martin
p126
sVoffset
p127
I15
saa(lp128
(dp129
Vstart
p130
I0
sVdisambiguatedURL
p131
Vhttp://dbpedia.org/resource/Boise_Cascade
p132
sVnamedEntity
p133
VBoise Cascade
p134
sVoffset
p135
I13
saa(lp136
(dp137
Vstart
p138
I0
sVdisambiguatedURL
p139
NsVnamedEntity
p140
VFluor Federal Services
p141
sVoffset
p142
I22
saa(lp143
(dp144
Vstart
p145
I0
sVdisambiguatedURL
p146
NsVnamedEntity
p147
VDepartment of Energy (DOE)
p148
sVoffset
p149
I26
saa.