(lp1
(lp2
(lp3
a(lp4
Vhttp://dbpedia.org/resource/Research_and_development
p5
aa(lp6
aa(lp7
(lp8
Vhttp://dbpedia.org/resource/United_Regions_of_Serbia
p9
aa(lp10
Vhttp://dbpedia.org/resource/Government
p11
aa(lp12
aa(lp13
(lp14
Vhttp://dbpedia.org/resource/CH2M_Hill
p15
aa(lp16
Vhttp://dbpedia.org/resource/Government
p17
aa(lp18
aa(lp19
(lp20
Vhttp://dbpedia.org/resource/ConAgra_Foods
p21
aa(lp22
a(lp23
aa(lp24
(lp25
a(lp26
Vhttp://dbpedia.org/resource/Government
p27
aa(lp28
aa(lp29
(lp30
a(lp31
Vhttp://dbpedia.org/resource/Department_of_Health_Services
p32
aa(lp33
aa(lp34
(lp35
a(lp36
Vhttp://dbpedia.org/resource/Government
p37
aa(lp38
aa(lp39
(lp40
a(lp41
Vhttp://dbpedia.org/resource/Government
p42
aa(lp43
aa(lp44
(lp45
a(lp46
Vhttp://dbpedia.org/resource/Government
p47
aa(lp48
aa(lp49
(lp50
Vhttp://dbpedia.org/resource/Tyson_Foods
p51
aa(lp52
a(lp53
aa(lp54
(lp55
Vhttp://dbpedia.org/resource/Energy_Northwest
p56
aa(lp57
a(lp58
aa(lp59
(lp60
a(lp61
Vhttp://dbpedia.org/resource/Department_of_Health_Services
p62
aa(lp63
aa(lp64
(lp65
a(lp66
a(lp67
aa(lp68
(lp69
a(lp70
Vhttp://dbpedia.org/resource/Department_of_Health_Services
p71
aa(lp72
aa(lp73
(lp74
Vhttp://dbpedia.org/resource/Areva
p75
aa(lp76
Vhttp://dbpedia.org/resource/Manufacturing
p77
aa(lp78
aa(lp79
(lp80
a(lp81
Vhttp://dbpedia.org/resource/Manufacturing
p82
aa(lp83
aa(lp84
(lp85
Vhttp://dbpedia.org/resource/Lockheed_Martin
p86
aa(lp87
a(lp88
aa(lp89
(lp90
Vhttp://dbpedia.org/resource/Boise_Cascade
p91
aa(lp92
Vhttp://dbpedia.org/resource/Manufacturing
p93
aa(lp94
aa(lp95
(lp96
a(lp97
Vhttp://dbpedia.org/resource/Government
p98
aa(lp99
aa(lp100
(lp101
a(lp102
Vhttp://dbpedia.org/resource/Government
p103
aa(lp104
aa.