(lp1
(lp2
(lp3
a(lp4
a(lp5
a(lp6
((lp7
Vhttp://dbpedia.org/class/yago/Abstraction100002137
p8
aVhttp://dbpedia.org/class/yago/Chemical114806838
p9
aVhttp://dbpedia.org/class/yago/Compound114818238
p10
aVhttp://dbpedia.org/class/yago/Macromolecule114944888
p11
aVhttp://dbpedia.org/class/yago/Material114580897
p12
aVhttp://dbpedia.org/class/yago/Matter100020827
p13
aVhttp://dbpedia.org/class/yago/OrganicCompound114727670
p14
aVhttp://dbpedia.org/class/yago/Part113809207
p15
aVhttp://dbpedia.org/class/yago/Protein114728724
p16
aVhttp://dbpedia.org/class/yago/Relation100031921
p17
aVhttp://dbpedia.org/class/yago/Substance100019613
p18
aVhttp://dbpedia.org/class/yago/Thing100002452
p19
aVhttp://dbpedia.org/class/yago/Molecule114682133
p20
aVhttp://dbpedia.org/class/yago/PhysicalEntity100001930
p21
aVhttp://dbpedia.org/class/yago/Unit109465459
p22
aVhttp://dbpedia.org/class/yago/TransportProteins
p23
aVhttp://dbpedia.org/resource/Karyopherin
tp24
aa(lp25
aa(lp26
(lp27
((lp28
Vhttp://www.w3.org/2002/07/owl#Thing
p29
aVhttp://dbpedia.org/ontology/Place
p30
aVhttp://dbpedia.org/ontology/Location
p31
aVhttp://www.wikidata.org/entity/Q23397
p32
aVhttp://dbpedia.org/ontology/BodyOfWater
p33
aVhttp://dbpedia.org/ontology/Lake
p34
aVhttp://dbpedia.org/ontology/NaturalPlace
p35
aVhttp://schema.org/BodyOfWater
p36
aVhttp://schema.org/LakeBodyOfWater
p37
aVhttp://schema.org/Place
p38
aVhttp://umbel.org/umbel/rc/BodyOfWater
p39
aVhttp://umbel.org/umbel/rc/Lake
p40
aVhttp://dbpedia.org/class/yago/BodyOfWater109225146
p41
aVhttp://dbpedia.org/class/yago/Lake109328904
p42
aVhttp://dbpedia.org/class/yago/Thing100002452
p43
aVhttp://dbpedia.org/class/yago/YagoGeoEntity
p44
aVhttp://dbpedia.org/class/yago/PhysicalEntity100001930
p45
aVhttp://dbpedia.org/class/yago/YagoPermanentlyLocatedEntity
p46
aVhttp://dbpedia.org/class/yago/LakesOfAlberta
p47
aVhttp://dbpedia.org/resource/Buffalo_Lake_(Alberta)
tp48
aa(lp49
a(lp50
a(lp51
((lp52
Vhttp://dbpedia.org/class/yago/Abstraction100002137
p53
aVhttp://dbpedia.org/class/yago/Chemical114806838
p54
aVhttp://dbpedia.org/class/yago/Compound114818238
p55
aVhttp://dbpedia.org/class/yago/Macromolecule114944888
p56
aVhttp://dbpedia.org/class/yago/Material114580897
p57
aVhttp://dbpedia.org/class/yago/Matter100020827
p58
aVhttp://dbpedia.org/class/yago/OrganicCompound114727670
p59
aVhttp://dbpedia.org/class/yago/Part113809207
p60
aVhttp://dbpedia.org/class/yago/Protein114728724
p61
aVhttp://dbpedia.org/class/yago/Relation100031921
p62
aVhttp://dbpedia.org/class/yago/Substance100019613
p63
aVhttp://dbpedia.org/class/yago/Thing100002452
p64
aVhttp://dbpedia.org/class/yago/Molecule114682133
p65
aVhttp://dbpedia.org/class/yago/PhysicalEntity100001930
p66
aVhttp://dbpedia.org/class/yago/Unit109465459
p67
aVhttp://dbpedia.org/class/yago/TransportProteins
p68
aVhttp://dbpedia.org/resource/Karyopherin
tp69
aa(lp70
aa(lp71
(lp72
a(lp73
a(lp74
a(lp75
a(lp76
aa(lp77
(lp78
a(lp79
a(lp80
a(lp81
((lp82
Vhttp://dbpedia.org/class/yago/Abstraction100002137
p83
aVhttp://dbpedia.org/class/yago/Chemical114806838
p84
aVhttp://dbpedia.org/class/yago/Compound114818238
p85
aVhttp://dbpedia.org/class/yago/Macromolecule114944888
p86
aVhttp://dbpedia.org/class/yago/Material114580897
p87
aVhttp://dbpedia.org/class/yago/Matter100020827
p88
aVhttp://dbpedia.org/class/yago/OrganicCompound114727670
p89
aVhttp://dbpedia.org/class/yago/Part113809207
p90
aVhttp://dbpedia.org/class/yago/Protein114728724
p91
aVhttp://dbpedia.org/class/yago/Relation100031921
p92
aVhttp://dbpedia.org/class/yago/Substance100019613
p93
aVhttp://dbpedia.org/class/yago/Thing100002452
p94
aVhttp://dbpedia.org/class/yago/Molecule114682133
p95
aVhttp://dbpedia.org/class/yago/PhysicalEntity100001930
p96
aVhttp://dbpedia.org/class/yago/Unit109465459
p97
aVhttp://dbpedia.org/class/yago/TransportProteins
p98
aVhttp://dbpedia.org/resource/Karyopherin
tp99
aa(lp100
aa(lp101
(lp102
a(lp103
a(lp104
a(lp105
((lp106
Vhttp://dbpedia.org/class/yago/Abstraction100002137
p107
aVhttp://dbpedia.org/class/yago/Chemical114806838
p108
aVhttp://dbpedia.org/class/yago/Compound114818238
p109
aVhttp://dbpedia.org/class/yago/Macromolecule114944888
p110
aVhttp://dbpedia.org/class/yago/Material114580897
p111
aVhttp://dbpedia.org/class/yago/Matter100020827
p112
aVhttp://dbpedia.org/class/yago/OrganicCompound114727670
p113
aVhttp://dbpedia.org/class/yago/Part113809207
p114
aVhttp://dbpedia.org/class/yago/Protein114728724
p115
aVhttp://dbpedia.org/class/yago/Relation100031921
p116
aVhttp://dbpedia.org/class/yago/Substance100019613
p117
aVhttp://dbpedia.org/class/yago/Thing100002452
p118
aVhttp://dbpedia.org/class/yago/Molecule114682133
p119
aVhttp://dbpedia.org/class/yago/PhysicalEntity100001930
p120
aVhttp://dbpedia.org/class/yago/Unit109465459
p121
aVhttp://dbpedia.org/class/yago/TransportProteins
p122
aVhttp://dbpedia.org/resource/Karyopherin
tp123
aa(lp124
aa(lp125
(lp126
((lp127
Vhttp://www.w3.org/2002/07/owl#Thing
p128
aVhttp://dbpedia.org/ontology/Place
p129
aVhttp://dbpedia.org/ontology/Location
p130
aVhttp://www.wikidata.org/entity/Q23397
p131
aVhttp://dbpedia.org/ontology/BodyOfWater
p132
aVhttp://dbpedia.org/ontology/Lake
p133
aVhttp://dbpedia.org/ontology/NaturalPlace
p134
aVhttp://schema.org/BodyOfWater
p135
aVhttp://schema.org/LakeBodyOfWater
p136
aVhttp://schema.org/Place
p137
aVhttp://umbel.org/umbel/rc/BodyOfWater
p138
aVhttp://umbel.org/umbel/rc/Lake
p139
aVhttp://dbpedia.org/class/yago/BodyOfWater109225146
p140
aVhttp://dbpedia.org/class/yago/Lake109328904
p141
aVhttp://dbpedia.org/class/yago/Thing100002452
p142
aVhttp://dbpedia.org/class/yago/YagoGeoEntity
p143
aVhttp://dbpedia.org/class/yago/PhysicalEntity100001930
p144
aVhttp://dbpedia.org/class/yago/YagoPermanentlyLocatedEntity
p145
aVhttp://dbpedia.org/class/yago/LakesOfOregon
p146
aVhttp://dbpedia.org/resource/Devils_Lake_(Lincoln_County,_Oregon)
tp147
aa(lp148
a(lp149
a(lp150
a(lp151
aa(lp152
(lp153
a(lp154
a(lp155
a(lp156
((lp157
Vhttp://dbpedia.org/class/yago/Abstraction100002137
p158
aVhttp://dbpedia.org/class/yago/Chemical114806838
p159
aVhttp://dbpedia.org/class/yago/Compound114818238
p160
aVhttp://dbpedia.org/class/yago/Macromolecule114944888
p161
aVhttp://dbpedia.org/class/yago/Material114580897
p162
aVhttp://dbpedia.org/class/yago/Matter100020827
p163
aVhttp://dbpedia.org/class/yago/OrganicCompound114727670
p164
aVhttp://dbpedia.org/class/yago/Part113809207
p165
aVhttp://dbpedia.org/class/yago/Protein114728724
p166
aVhttp://dbpedia.org/class/yago/Relation100031921
p167
aVhttp://dbpedia.org/class/yago/Substance100019613
p168
aVhttp://dbpedia.org/class/yago/Thing100002452
p169
aVhttp://dbpedia.org/class/yago/Molecule114682133
p170
aVhttp://dbpedia.org/class/yago/PhysicalEntity100001930
p171
aVhttp://dbpedia.org/class/yago/Unit109465459
p172
aVhttp://dbpedia.org/class/yago/TransportProteins
p173
aVhttp://dbpedia.org/resource/Karyopherin
tp174
aa(lp175
aa(lp176
(lp177
a(lp178
a(lp179
a(lp180
((lp181
Vhttp://dbpedia.org/class/yago/Abstraction100002137
p182
aVhttp://dbpedia.org/class/yago/Chemical114806838
p183
aVhttp://dbpedia.org/class/yago/Compound114818238
p184
aVhttp://dbpedia.org/class/yago/Macromolecule114944888
p185
aVhttp://dbpedia.org/class/yago/Material114580897
p186
aVhttp://dbpedia.org/class/yago/Matter100020827
p187
aVhttp://dbpedia.org/class/yago/OrganicCompound114727670
p188
aVhttp://dbpedia.org/class/yago/Part113809207
p189
aVhttp://dbpedia.org/class/yago/Protein114728724
p190
aVhttp://dbpedia.org/class/yago/Relation100031921
p191
aVhttp://dbpedia.org/class/yago/Substance100019613
p192
aVhttp://dbpedia.org/class/yago/Thing100002452
p193
aVhttp://dbpedia.org/class/yago/Molecule114682133
p194
aVhttp://dbpedia.org/class/yago/PhysicalEntity100001930
p195
aVhttp://dbpedia.org/class/yago/Unit109465459
p196
aVhttp://dbpedia.org/class/yago/TransportProteins
p197
aVhttp://dbpedia.org/resource/Karyopherin
tp198
aa(lp199
aa(lp200
(lp201
a(lp202
a(lp203
a(lp204
a(lp205
aa(lp206
(lp207
a(lp208
a(lp209
a(lp210
((lp211
Vhttp://dbpedia.org/class/yago/Abstraction100002137
p212
aVhttp://dbpedia.org/class/yago/Chemical114806838
p213
aVhttp://dbpedia.org/class/yago/Compound114818238
p214
aVhttp://dbpedia.org/class/yago/Macromolecule114944888
p215
aVhttp://dbpedia.org/class/yago/Material114580897
p216
aVhttp://dbpedia.org/class/yago/Matter100020827
p217
aVhttp://dbpedia.org/class/yago/OrganicCompound114727670
p218
aVhttp://dbpedia.org/class/yago/Part113809207
p219
aVhttp://dbpedia.org/class/yago/Protein114728724
p220
aVhttp://dbpedia.org/class/yago/Relation100031921
p221
aVhttp://dbpedia.org/class/yago/Substance100019613
p222
aVhttp://dbpedia.org/class/yago/Thing100002452
p223
aVhttp://dbpedia.org/class/yago/Molecule114682133
p224
aVhttp://dbpedia.org/class/yago/PhysicalEntity100001930
p225
aVhttp://dbpedia.org/class/yago/Unit109465459
p226
aVhttp://dbpedia.org/class/yago/TransportProteins
p227
aVhttp://dbpedia.org/resource/Karyopherin
tp228
aa(lp229
aa(lp230
(lp231
a(lp232
a(lp233
a(lp234
((lp235
Vhttp://dbpedia.org/class/yago/Abstraction100002137
p236
aVhttp://dbpedia.org/class/yago/Chemical114806838
p237
aVhttp://dbpedia.org/class/yago/Compound114818238
p238
aVhttp://dbpedia.org/class/yago/Macromolecule114944888
p239
aVhttp://dbpedia.org/class/yago/Material114580897
p240
aVhttp://dbpedia.org/class/yago/Matter100020827
p241
aVhttp://dbpedia.org/class/yago/OrganicCompound114727670
p242
aVhttp://dbpedia.org/class/yago/Part113809207
p243
aVhttp://dbpedia.org/class/yago/Protein114728724
p244
aVhttp://dbpedia.org/class/yago/Relation100031921
p245
aVhttp://dbpedia.org/class/yago/Substance100019613
p246
aVhttp://dbpedia.org/class/yago/Thing100002452
p247
aVhttp://dbpedia.org/class/yago/Molecule114682133
p248
aVhttp://dbpedia.org/class/yago/PhysicalEntity100001930
p249
aVhttp://dbpedia.org/class/yago/Unit109465459
p250
aVhttp://dbpedia.org/class/yago/TransportProteins
p251
aVhttp://dbpedia.org/resource/Karyopherin
tp252
aa(lp253
aa(lp254
(lp255
a(lp256
a(lp257
a(lp258
((lp259
Vhttp://dbpedia.org/class/yago/Abstraction100002137
p260
aVhttp://dbpedia.org/class/yago/Chemical114806838
p261
aVhttp://dbpedia.org/class/yago/Compound114818238
p262
aVhttp://dbpedia.org/class/yago/Macromolecule114944888
p263
aVhttp://dbpedia.org/class/yago/Material114580897
p264
aVhttp://dbpedia.org/class/yago/Matter100020827
p265
aVhttp://dbpedia.org/class/yago/OrganicCompound114727670
p266
aVhttp://dbpedia.org/class/yago/Part113809207
p267
aVhttp://dbpedia.org/class/yago/Protein114728724
p268
aVhttp://dbpedia.org/class/yago/Relation100031921
p269
aVhttp://dbpedia.org/class/yago/Substance100019613
p270
aVhttp://dbpedia.org/class/yago/Thing100002452
p271
aVhttp://dbpedia.org/class/yago/Molecule114682133
p272
aVhttp://dbpedia.org/class/yago/PhysicalEntity100001930
p273
aVhttp://dbpedia.org/class/yago/Unit109465459
p274
aVhttp://dbpedia.org/class/yago/TransportProteins
p275
aVhttp://dbpedia.org/resource/Karyopherin
tp276
aa(lp277
aa(lp278
(lp279
a(lp280
a(lp281
a(lp282
a(lp283
aa(lp284
(lp285
a(lp286
a(lp287
a(lp288
a(lp289
aa(lp290
(lp291
((lp292
Vhttp://www.w3.org/2002/07/owl#Thing
p293
aVhttp://dbpedia.org/ontology/Place
p294
aVhttp://dbpedia.org/ontology/Location
p295
aVhttp://www.wikidata.org/entity/Q23397
p296
aVhttp://dbpedia.org/ontology/BodyOfWater
p297
aVhttp://dbpedia.org/ontology/Lake
p298
aVhttp://dbpedia.org/ontology/NaturalPlace
p299
aVhttp://schema.org/BodyOfWater
p300
aVhttp://schema.org/LakeBodyOfWater
p301
aVhttp://schema.org/Place
p302
aVhttp://umbel.org/umbel/rc/BodyOfWater
p303
aVhttp://umbel.org/umbel/rc/Lake
p304
aVhttp://dbpedia.org/class/yago/Artifact100021939
p305
aVhttp://dbpedia.org/class/yago/Barrier102796623
p306
aVhttp://dbpedia.org/class/yago/BodyOfWater109225146
p307
aVhttp://dbpedia.org/class/yago/Dam103160309
p308
aVhttp://dbpedia.org/class/yago/Lake109328904
p309
aVhttp://dbpedia.org/class/yago/Object100002684
p310
aVhttp://dbpedia.org/class/yago/Obstruction103839993
p311
aVhttp://dbpedia.org/class/yago/Structure104341686
p312
aVhttp://dbpedia.org/class/yago/Thing100002452
p313
aVhttp://dbpedia.org/class/yago/Whole100003553
p314
aVhttp://dbpedia.org/class/yago/YagoGeoEntity
p315
aVhttp://dbpedia.org/class/yago/DamsAndReservoirsInU.S.NationalParkServiceUnits
p316
aVhttp://dbpedia.org/class/yago/PhysicalEntity100001930
p317
aVhttp://dbpedia.org/class/yago/YagoPermanentlyLocatedEntity
p318
aVhttp://dbpedia.org/class/yago/LakesOfGrandTetonNationalPark
p319
aVhttp://dbpedia.org/class/yago/LakesOfWyoming
p320
aVhttp://dbpedia.org/resource/Jackson_Lake
tp321
aa(lp322
a(lp323
a(lp324
((lp325
Vhttp://dbpedia.org/class/yago/Abstraction100002137
p326
aVhttp://dbpedia.org/class/yago/Chemical114806838
p327
aVhttp://dbpedia.org/class/yago/Compound114818238
p328
aVhttp://dbpedia.org/class/yago/Macromolecule114944888
p329
aVhttp://dbpedia.org/class/yago/Material114580897
p330
aVhttp://dbpedia.org/class/yago/Matter100020827
p331
aVhttp://dbpedia.org/class/yago/OrganicCompound114727670
p332
aVhttp://dbpedia.org/class/yago/Part113809207
p333
aVhttp://dbpedia.org/class/yago/Protein114728724
p334
aVhttp://dbpedia.org/class/yago/Relation100031921
p335
aVhttp://dbpedia.org/class/yago/Substance100019613
p336
aVhttp://dbpedia.org/class/yago/Thing100002452
p337
aVhttp://dbpedia.org/class/yago/Molecule114682133
p338
aVhttp://dbpedia.org/class/yago/PhysicalEntity100001930
p339
aVhttp://dbpedia.org/class/yago/Unit109465459
p340
aVhttp://dbpedia.org/class/yago/TransportProteins
p341
aVhttp://dbpedia.org/resource/Karyopherin
p342
tp343
aa(lp344
aa(lp345
(lp346
a(lp347
a(lp348
a(lp349
a(lp350
aa(lp351
(lp352
a(lp353
a(lp354
a(lp355
a(lp356
aa(lp357
(lp358
a(lp359
a(lp360
a(lp361
a(lp362
aa(lp363
(lp364
a(lp365
a(lp366
a(lp367
a(lp368
aa(lp369
(lp370
a(lp371
a(lp372
a(lp373
a(lp374
aa.