(lp1
(lp2
(dp3
Vstart
p4
I0
sVdisambiguatedURL
p5
NsVnamedEntity
p6
Vbony lake
p7
sVoffset
p8
I9
saa(lp9
(dp10
Vstart
p11
I0
sVdisambiguatedURL
p12
Vhttp://dbpedia.org/resource/Buffalo_Lake_(Alberta)
p13
sVnamedEntity
p14
Vbuffalo lake
p15
sVoffset
p16
I12
saa(lp17
(dp18
Vstart
p19
I0
sVdisambiguatedURL
p20
NsVnamedEntity
p21
Vbuskey bay
p22
sVoffset
p23
I10
saa(lp24
(dp25
Vstart
p26
I0
sVdisambiguatedURL
p27
NsVnamedEntity
p28
Vchippewa
p29
sVoffset
p30
I8
saa(lp31
(dp32
Vstart
p33
I0
sVdisambiguatedURL
p34
NsVnamedEntity
p35
Vcranberry lake t44n r09w s30
p36
sVoffset
p37
I28
saa(lp38
(dp39
Vstart
p40
I0
sVdisambiguatedURL
p41
Vhttp://dbpedia.org/resource/Devils_Lake_(Lincoln_County,_Oregon)
p42
sVnamedEntity
p43
Vdevils lake
p44
sVoffset
p45
I11
saa(lp46
(dp47
Vstart
p48
I0
sVdisambiguatedURL
p49
NsVnamedEntity
p50
Veagle lake (murrayinch)
p51
sVoffset
p52
I23
saa(lp53
(dp54
Vstart
p55
I0
sVdisambiguatedURL
p56
NsVnamedEntity
p57
Veau claire lake lower*
p58
sVoffset
p59
I22
saa(lp60
(dp61
Vstart
p62
I0
sVdisambiguatedURL
p63
NsVnamedEntity
p64
Veau claire lake middle
p65
sVoffset
p66
I22
saa(lp67
(dp68
Vstart
p69
I0
sVdisambiguatedURL
p70
NsVnamedEntity
p71
Veau claire lake upper
p72
sVoffset
p73
I21
saa(lp74
(dp75
Vstart
p76
I0
sVdisambiguatedURL
p77
NsVnamedEntity
p78
Vflynn lake t46n r08w s03
p79
sVoffset
p80
I24
saa(lp81
(dp82
Vstart
p83
I0
sVdisambiguatedURL
p84
NsVnamedEntity
p85
Vghost lake
p86
sVoffset
p87
I10
saa(lp88
(dp89
Vstart
p90
I0
sVdisambiguatedURL
p91
NsVnamedEntity
p92
Vhart lake (heartwiehe)
p93
sVoffset
p94
I22
saa(lp95
(dp96
Vstart
p97
I0
sVdisambiguatedURL
p98
NsVnamedEntity
p99
Vhildur (bluebird) lake
p100
sVoffset
p101
I22
saa(lp102
(dp103
Vstart
p104
I0
sVdisambiguatedURL
p105
Vhttp://dbpedia.org/resource/Jackson_Lake
p106
sVnamedEntity
p107
Vjackson lake
p108
sVoffset
p109
I12
saa(lp110
(dp111
Vstart
p112
I0
sVdisambiguatedURL
p113
NsVnamedEntity
p114
Vmccarry lake
p115
sVoffset
p116
I12
saa(lp117
(dp118
Vstart
p119
I0
sVdisambiguatedURL
p120
NsVnamedEntity
p121
Vmillicent lake (pike)
p122
sVoffset
p123
I21
saa(lp124
(dp125
Vstart
p126
I0
sVdisambiguatedURL
p127
NsVnamedEntity
p128
Vmuskellunge lake (butte)
p129
sVoffset
p130
I24
saa(lp131
(dp132
Vstart
p133
I0
sVdisambiguatedURL
p134
NsVnamedEntity
p135
Vnamekagon lake(spring garden)
p136
sVoffset
p137
I29
saa(lp138
(dp139
Vstart
p140
I0
sVdisambiguatedURL
p141
NsVnamedEntity
p142
Vpacwawong lake*
p143
sVoffset
p144
I15
saa.