(lp1
(lp2
(dp3
Vstart
p4
I0
sS'classes'
p5
(lp6
Vhttp://www.w3.org/2002/07/owl#Thing
p7
aVhttp://dbpedia.org/ontology/Place
p8
aVhttp://dbpedia.org/ontology/Location
p9
aVhttp://www.wikidata.org/entity/Q486972
p10
aVhttp://www.wikidata.org/entity/Q6256
p11
aVhttp://dbpedia.org/ontology/Country
p12
aVhttp://dbpedia.org/ontology/PopulatedPlace
p13
aVhttp://www.w3.org/2003/01/geo/wgs84_pos#SpatialThing
p14
aVhttp://schema.org/Country
p15
aVhttp://schema.org/Place
p16
aVhttp://umbel.org/umbel/rc/Country
p17
aVhttp://umbel.org/umbel/rc/Location_Underspecified
p18
aVhttp://umbel.org/umbel/rc/PopulatedPlace
p19
aVhttp://dbpedia.org/class/yago/Abstraction100002137
p20
aVhttp://dbpedia.org/class/yago/AdministrativeDistrict108491826
p21
aVhttp://dbpedia.org/class/yago/Attribute100024264
p22
aVhttp://dbpedia.org/class/yago/BicontinentalCountries
p23
aVhttp://dbpedia.org/class/yago/Condition113920835
p24
aVhttp://dbpedia.org/class/yago/Country108544813
p25
aVhttp://dbpedia.org/class/yago/Difficulty114408086
p26
aVhttp://dbpedia.org/class/yago/District108552138
p27
aVhttp://dbpedia.org/class/yago/Economy108366753
p28
aVhttp://dbpedia.org/class/yago/Event100029378
p29
aVhttp://dbpedia.org/class/yago/Group100031264
p30
aVhttp://dbpedia.org/class/yago/Happening107283608
p31
aVhttp://dbpedia.org/class/yago/Location100027167
p32
aVhttp://dbpedia.org/class/yago/Noise107387509
p33
aVhttp://dbpedia.org/class/yago/Object100002684
p34
aVhttp://dbpedia.org/class/yago/Region108630985
p35
aVhttp://dbpedia.org/class/yago/Sound107371293
p36
aVhttp://dbpedia.org/class/yago/State100024720
p37
aVhttp://dbpedia.org/class/yago/System108435388
p38
aVhttp://dbpedia.org/class/yago/YagoGeoEntity
p39
aVhttp://dbpedia.org/class/yago/YagoLegalActorGeo
p40
aVhttp://dbpedia.org/class/yago/Clang107380144
p41
aVhttp://dbpedia.org/class/yago/CountriesOfTheMediterraneanSea
p42
aVhttp://dbpedia.org/class/yago/Crisis113933560
p43
aVhttp://dbpedia.org/class/yago/EasternMediterraneanCountries
p44
aVhttp://dbpedia.org/class/yago/EuropeanCountries
p45
aVhttp://dbpedia.org/class/yago/EuropeanUnionMemberEconomies
p46
aVhttp://dbpedia.org/class/yago/FinancialCrises
p47
aVhttp://dbpedia.org/class/yago/PhysicalEntity100001930
p48
aVhttp://dbpedia.org/class/yago/PsychologicalFeature100023100
p49
aVhttp://dbpedia.org/class/yago/Situation114411243
p50
aVhttp://dbpedia.org/class/yago/YagoPermanentlyLocatedEntity
p51
aVhttp://dbpedia.org/class/yago/MemberStatesOfLaFrancophonie
p52
aVhttp://dbpedia.org/class/yago/MemberStatesOfNATO
p53
aVhttp://dbpedia.org/class/yago/MemberStatesOfTheCouncilOfEurope
p54
aVhttp://dbpedia.org/class/yago/MemberStatesOfTheEuropeanUnion
p55
aVhttp://dbpedia.org/class/yago/MemberStatesOfTheUnionForTheMediterranean
p56
aVhttp://dbpedia.org/class/yago/MemberStatesOfTheUnitedNations
p57
aVhttp://dbpedia.org/class/yago/StatesAndTerritoriesEstablishedIn1821
p58
aVhttp://dbpedia.org/class/yago/StockMarketCrashes
p59
asVdisambiguatedURL
p60
Vhttp://dbpedia.org/resource/Greece
p61
sVnamedEntity
p62
VGreece
p63
sVoffset
p64
I6
saa(lp65
(dp66
Vstart
p67
I0
sg5
(lp68
Vhttp://www.w3.org/2002/07/owl#Thing
p69
aVhttp://dbpedia.org/ontology/Place
p70
aVhttp://dbpedia.org/ontology/Location
p71
aVhttp://www.wikidata.org/entity/Q486972
p72
aVhttp://www.wikidata.org/entity/Q6256
p73
aVhttp://dbpedia.org/ontology/Country
p74
aVhttp://dbpedia.org/ontology/PopulatedPlace
p75
aVhttp://www.w3.org/2003/01/geo/wgs84_pos#SpatialThing
p76
aVhttp://schema.org/Country
p77
aVhttp://schema.org/Place
p78
aVhttp://umbel.org/umbel/rc/Country
p79
aVhttp://umbel.org/umbel/rc/Location_Underspecified
p80
aVhttp://umbel.org/umbel/rc/PopulatedPlace
p81
aVhttp://dbpedia.org/class/yago/Abstraction100002137
p82
aVhttp://dbpedia.org/class/yago/AdministrativeDistrict108491826
p83
aVhttp://dbpedia.org/class/yago/Country108544813
p84
aVhttp://dbpedia.org/class/yago/District108552138
p85
aVhttp://dbpedia.org/class/yago/Economy108366753
p86
aVhttp://dbpedia.org/class/yago/Group100031264
p87
aVhttp://dbpedia.org/class/yago/Location100027167
p88
aVhttp://dbpedia.org/class/yago/Object100002684
p89
aVhttp://dbpedia.org/class/yago/Region108630985
p90
aVhttp://dbpedia.org/class/yago/System108435388
p91
aVhttp://dbpedia.org/class/yago/YagoGeoEntity
p92
aVhttp://dbpedia.org/class/yago/YagoLegalActorGeo
p93
aVhttp://dbpedia.org/class/yago/CountriesBorderingTheAtlanticOcean
p94
aVhttp://dbpedia.org/class/yago/FederalCountries
p95
aVhttp://dbpedia.org/class/yago/PhysicalEntity100001930
p96
aVhttp://dbpedia.org/class/yago/YagoPermanentlyLocatedEntity
p97
aVhttp://dbpedia.org/class/yago/LatinAmericanCountries
p98
aVhttp://dbpedia.org/class/yago/MemberStatesOfMercosur
p99
aVhttp://dbpedia.org/class/yago/MemberStatesOfTheCommunityOfPortugueseLanguageCountries
p100
aVhttp://dbpedia.org/class/yago/MemberStatesOfTheUnionOfSouthAmericanNations
p101
aVhttp://dbpedia.org/class/yago/MemberStatesOfTheUnitedNations
p102
aVhttp://dbpedia.org/class/yago/Portuguese-speakingCountries
p103
aVhttp://dbpedia.org/class/yago/SouthAmericanCountries
p104
aVhttp://dbpedia.org/class/yago/StatesAndTerritoriesEstablishedIn1822
p105
aVhttp://dbpedia.org/class/yago/WorldTradeOrganizationMemberEconomies
p106
asVdisambiguatedURL
p107
Vhttp://dbpedia.org/resource/Brazil
p108
sVnamedEntity
p109
VBrazil
p110
sVoffset
p111
I6
saa(lp112
(dp113
Vstart
p114
I0
sg5
(lp115
Vhttp://www.w3.org/2002/07/owl#Thing
p116
aVhttp://dbpedia.org/ontology/Place
p117
aVhttp://dbpedia.org/ontology/Location
p118
aVhttp://www.wikidata.org/entity/Q486972
p119
aVhttp://www.wikidata.org/entity/Q6256
p120
aVhttp://dbpedia.org/ontology/Country
p121
aVhttp://dbpedia.org/ontology/PopulatedPlace
p122
aVhttp://www.w3.org/2003/01/geo/wgs84_pos#SpatialThing
p123
aVhttp://schema.org/Country
p124
aVhttp://schema.org/Place
p125
aVhttp://umbel.org/umbel/rc/Country
p126
aVhttp://umbel.org/umbel/rc/Location_Underspecified
p127
aVhttp://umbel.org/umbel/rc/PopulatedPlace
p128
aVhttp://dbpedia.org/class/yago/Abstraction100002137
p129
aVhttp://dbpedia.org/class/yago/AdministrativeDistrict108491826
p130
aVhttp://dbpedia.org/class/yago/Country108544813
p131
aVhttp://dbpedia.org/class/yago/District108552138
p132
aVhttp://dbpedia.org/class/yago/Economy108366753
p133
aVhttp://dbpedia.org/class/yago/Group100031264
p134
aVhttp://dbpedia.org/class/yago/Location100027167
p135
aVhttp://dbpedia.org/class/yago/Object100002684
p136
aVhttp://dbpedia.org/class/yago/Region108630985
p137
aVhttp://dbpedia.org/class/yago/System108435388
p138
aVhttp://dbpedia.org/class/yago/YagoGeoEntity
p139
aVhttp://dbpedia.org/class/yago/YagoLegalActorGeo
p140
aVhttp://dbpedia.org/class/yago/CommunistStates
p141
aVhttp://dbpedia.org/class/yago/French-speakingCountries
p142
aVhttp://dbpedia.org/class/yago/PhysicalEntity100001930
p143
aVhttp://dbpedia.org/class/yago/YagoPermanentlyLocatedEntity
p144
aVhttp://dbpedia.org/class/yago/LandlockedCountries
p145
aVhttp://dbpedia.org/class/yago/LeastDevelopedCountries
p146
aVhttp://dbpedia.org/class/yago/MemberStatesOfLaFrancophonie
p147
aVhttp://dbpedia.org/class/yago/MemberStatesOfTheAssociationOfSoutheastAsianNations
p148
aVhttp://dbpedia.org/class/yago/MemberStatesOfTheUnitedNations
p149
aVhttp://dbpedia.org/class/yago/Single-partyStates
p150
aVhttp://dbpedia.org/class/yago/SocialistStates
p151
aVhttp://dbpedia.org/class/yago/SoutheastAsianCountries
p152
aVhttp://dbpedia.org/class/yago/StatesAndTerritoriesEstablishedIn1949
p153
asVdisambiguatedURL
p154
Vhttp://dbpedia.org/resource/Laos
p155
sVnamedEntity
p156
VLaos
p157
sVoffset
p158
I4
saa(lp159
(dp160
Vstart
p161
I0
sg5
(lp162
Vhttp://www.w3.org/2002/07/owl#Thing
p163
aVhttp://dbpedia.org/ontology/Place
p164
aVhttp://dbpedia.org/ontology/Location
p165
aVhttp://www.wikidata.org/entity/Q486972
p166
aVhttp://www.wikidata.org/entity/Q6256
p167
aVhttp://dbpedia.org/ontology/Country
p168
aVhttp://dbpedia.org/ontology/PopulatedPlace
p169
aVhttp://www.w3.org/2003/01/geo/wgs84_pos#SpatialThing
p170
aVhttp://schema.org/Country
p171
aVhttp://schema.org/Place
p172
aVhttp://umbel.org/umbel/rc/Country
p173
aVhttp://umbel.org/umbel/rc/Location_Underspecified
p174
aVhttp://umbel.org/umbel/rc/PopulatedPlace
p175
aVhttp://dbpedia.org/class/yago/AdministrativeDistrict108491826
p176
aVhttp://dbpedia.org/class/yago/Country108544813
p177
aVhttp://dbpedia.org/class/yago/District108552138
p178
aVhttp://dbpedia.org/class/yago/Location100027167
p179
aVhttp://dbpedia.org/class/yago/Object100002684
p180
aVhttp://dbpedia.org/class/yago/Region108630039
p181
aVhttp://dbpedia.org/class/yago/Region108630985
p182
aVhttp://dbpedia.org/class/yago/YagoGeoEntity
p183
aVhttp://dbpedia.org/class/yago/YagoLegalActorGeo
p184
aVhttp://dbpedia.org/class/yago/PhysicalEntity100001930
p185
aVhttp://dbpedia.org/class/yago/YagoPermanentlyLocatedEntity
p186
aVhttp://dbpedia.org/class/yago/IslandCountries
p187
aVhttp://dbpedia.org/class/yago/NUTS1StatisticalRegionsOfTheEuropeanUnion
p188
aVhttp://dbpedia.org/class/yago/NUTS1StatisticalRegionsOfTheUnitedKingdom
p189
asVdisambiguatedURL
p190
Vhttp://dbpedia.org/resource/Wales
p191
sVnamedEntity
p192
VWales
p193
sVoffset
p194
I5
saa(lp195
(dp196
Vstart
p197
I0
sg5
(lp198
Vhttp://www.w3.org/2002/07/owl#Thing
p199
aVhttp://dbpedia.org/ontology/Place
p200
aVhttp://dbpedia.org/ontology/Location
p201
aVhttp://www.wikidata.org/entity/Q486972
p202
aVhttp://www.wikidata.org/entity/Q6256
p203
aVhttp://dbpedia.org/ontology/Country
p204
aVhttp://dbpedia.org/ontology/PopulatedPlace
p205
aVhttp://schema.org/Country
p206
aVhttp://schema.org/Place
p207
aVhttp://umbel.org/umbel/rc/Country
p208
aVhttp://umbel.org/umbel/rc/Location_Underspecified
p209
aVhttp://umbel.org/umbel/rc/PopulatedPlace
p210
aVhttp://dbpedia.org/class/yago/Abstraction100002137
p211
aVhttp://dbpedia.org/class/yago/AdministrativeDistrict108491826
p212
aVhttp://dbpedia.org/class/yago/AfricanCountries
p213
aVhttp://dbpedia.org/class/yago/AfricanUnionMemberEconomies
p214
aVhttp://dbpedia.org/class/yago/Country108544813
p215
aVhttp://dbpedia.org/class/yago/District108552138
p216
aVhttp://dbpedia.org/class/yago/Economy108366753
p217
aVhttp://dbpedia.org/class/yago/Group100031264
p218
aVhttp://dbpedia.org/class/yago/Location100027167
p219
aVhttp://dbpedia.org/class/yago/Object100002684
p220
aVhttp://dbpedia.org/class/yago/Region108630985
p221
aVhttp://dbpedia.org/class/yago/System108435388
p222
aVhttp://dbpedia.org/class/yago/YagoGeoEntity
p223
aVhttp://dbpedia.org/class/yago/YagoLegalActorGeo
p224
aVhttp://dbpedia.org/class/yago/CountriesBorderingTheAtlanticOcean
p225
aVhttp://dbpedia.org/class/yago/CountriesOfTheIndianOcean
p226
aVhttp://dbpedia.org/class/yago/English-speakingCountriesAndTerritories
p227
aVhttp://dbpedia.org/class/yago/PhysicalEntity100001930
p228
aVhttp://dbpedia.org/class/yago/YagoPermanentlyLocatedEntity
p229
aVhttp://dbpedia.org/class/yago/MemberStatesOfTheAfricanUnion
p230
aVhttp://dbpedia.org/class/yago/MemberStatesOfTheCommonwealthOfNations
p231
aVhttp://dbpedia.org/class/yago/MemberStatesOfTheUnitedNations
p232
aVhttp://dbpedia.org/class/yago/StatesAndTerritoriesEstablishedIn1910
p233
aVhttp://dbpedia.org/class/yago/WorldTradeOrganizationMemberEconomies
p234
asVdisambiguatedURL
p235
Vhttp://dbpedia.org/resource/South_Africa
p236
sVnamedEntity
p237
VSouth Africa
p238
sVoffset
p239
I12
saa(lp240
(dp241
Vstart
p242
I0
sg5
(lp243
Vhttp://www.w3.org/2002/07/owl#Thing
p244
aVhttp://dbpedia.org/ontology/Place
p245
aVhttp://dbpedia.org/ontology/Location
p246
aVhttp://www.wikidata.org/entity/Q486972
p247
aVhttp://www.wikidata.org/entity/Q6256
p248
aVhttp://dbpedia.org/ontology/Country
p249
aVhttp://dbpedia.org/ontology/PopulatedPlace
p250
aVhttp://www.w3.org/2003/01/geo/wgs84_pos#SpatialThing
p251
aVhttp://schema.org/Country
p252
aVhttp://schema.org/Place
p253
aVhttp://umbel.org/umbel/rc/Country
p254
aVhttp://umbel.org/umbel/rc/Location_Underspecified
p255
aVhttp://umbel.org/umbel/rc/PopulatedPlace
p256
aVhttp://dbpedia.org/class/yago/Abstraction100002137
p257
aVhttp://dbpedia.org/class/yago/AdministrativeDistrict108491826
p258
aVhttp://dbpedia.org/class/yago/Country108544813
p259
aVhttp://dbpedia.org/class/yago/District108552138
p260
aVhttp://dbpedia.org/class/yago/Economy108366753
p261
aVhttp://dbpedia.org/class/yago/Group100031264
p262
aVhttp://dbpedia.org/class/yago/Location100027167
p263
aVhttp://dbpedia.org/class/yago/Object100002684
p264
aVhttp://dbpedia.org/class/yago/Region108630985
p265
aVhttp://dbpedia.org/class/yago/System108435388
p266
aVhttp://dbpedia.org/class/yago/YagoGeoEntity
p267
aVhttp://dbpedia.org/class/yago/YagoLegalActorGeo
p268
aVhttp://dbpedia.org/class/yago/CountriesBorderingTheBalticSea
p269
aVhttp://dbpedia.org/class/yago/EuropeanCountries
p270
aVhttp://dbpedia.org/class/yago/EuropeanUnionMemberEconomies
p271
aVhttp://dbpedia.org/class/yago/PhysicalEntity100001930
p272
aVhttp://dbpedia.org/class/yago/YagoPermanentlyLocatedEntity
p273
aVhttp://dbpedia.org/class/yago/MemberStatesOfNATO
p274
aVhttp://dbpedia.org/class/yago/MemberStatesOfTheEuropeanUnion
p275
aVhttp://dbpedia.org/class/yago/MemberStatesOfTheUnionForTheMediterranean
p276
aVhttp://dbpedia.org/class/yago/MemberStatesOfTheUnitedNations
p277
aVhttp://dbpedia.org/class/yago/SlavicCountries
p278
aVhttp://dbpedia.org/class/yago/StatesAndTerritoriesEstablishedIn1918
p279
aVhttp://dbpedia.org/class/yago/WorldTradeOrganizationMemberEconomies
p280
asVdisambiguatedURL
p281
Vhttp://dbpedia.org/resource/Poland
p282
sVnamedEntity
p283
VPoland
p284
sVoffset
p285
I6
saa(lp286
(dp287
Vstart
p288
I0
sg5
(lp289
Vhttp://www.w3.org/2002/07/owl#Thing
p290
aVhttp://dbpedia.org/ontology/Place
p291
aVhttp://dbpedia.org/ontology/Location
p292
aVhttp://www.wikidata.org/entity/Q486972
p293
aVhttp://www.wikidata.org/entity/Q6256
p294
aVhttp://dbpedia.org/ontology/Country
p295
aVhttp://dbpedia.org/ontology/PopulatedPlace
p296
aVhttp://www.w3.org/2003/01/geo/wgs84_pos#SpatialThing
p297
aVhttp://schema.org/Country
p298
aVhttp://schema.org/Place
p299
aVhttp://umbel.org/umbel/rc/Country
p300
aVhttp://umbel.org/umbel/rc/Location_Underspecified
p301
aVhttp://umbel.org/umbel/rc/PopulatedPlace
p302
aVhttp://dbpedia.org/class/yago/Abstraction100002137
p303
aVhttp://dbpedia.org/class/yago/AdministrativeDistrict108491826
p304
aVhttp://dbpedia.org/class/yago/CaribbeanCountries
p305
aVhttp://dbpedia.org/class/yago/Country108544813
p306
aVhttp://dbpedia.org/class/yago/District108552138
p307
aVhttp://dbpedia.org/class/yago/Economy108366753
p308
aVhttp://dbpedia.org/class/yago/Group100031264
p309
aVhttp://dbpedia.org/class/yago/Location100027167
p310
aVhttp://dbpedia.org/class/yago/Object100002684
p311
aVhttp://dbpedia.org/class/yago/Region108630985
p312
aVhttp://dbpedia.org/class/yago/System108435388
p313
aVhttp://dbpedia.org/class/yago/YagoGeoEntity
p314
aVhttp://dbpedia.org/class/yago/YagoLegalActorGeo
p315
aVhttp://dbpedia.org/class/yago/FederalCountries
p316
aVhttp://dbpedia.org/class/yago/PhysicalEntity100001930
p317
aVhttp://dbpedia.org/class/yago/YagoPermanentlyLocatedEntity
p318
aVhttp://dbpedia.org/class/yago/MemberStatesOfOPEC
p319
aVhttp://dbpedia.org/class/yago/MemberStatesOfTheUnionOfSouthAmericanNations
p320
aVhttp://dbpedia.org/class/yago/MemberStatesOfTheUnitedNations
p321
aVhttp://dbpedia.org/class/yago/SouthAmericanCountries
p322
aVhttp://dbpedia.org/class/yago/Spanish-speakingCountries
p323
aVhttp://dbpedia.org/class/yago/StatesAndTerritoriesEstablishedIn1811
p324
aVhttp://dbpedia.org/class/yago/WorldTradeOrganizationMemberEconomies
p325
asVdisambiguatedURL
p326
Vhttp://dbpedia.org/resource/Venezuela
p327
sVnamedEntity
p328
VVenezuela
p329
sVoffset
p330
I9
saa(lp331
(dp332
Vstart
p333
I0
sg5
(lp334
Vhttp://www.w3.org/2002/07/owl#Thing
p335
aVhttp://dbpedia.org/ontology/Place
p336
aVhttp://dbpedia.org/ontology/Location
p337
aVhttp://www.wikidata.org/entity/Q486972
p338
aVhttp://www.wikidata.org/entity/Q6256
p339
aVhttp://dbpedia.org/ontology/Country
p340
aVhttp://dbpedia.org/ontology/PopulatedPlace
p341
aVhttp://www.w3.org/2003/01/geo/wgs84_pos#SpatialThing
p342
aVhttp://schema.org/Country
p343
aVhttp://schema.org/Place
p344
aVhttp://umbel.org/umbel/rc/Country
p345
aVhttp://umbel.org/umbel/rc/Location_Underspecified
p346
aVhttp://umbel.org/umbel/rc/PopulatedPlace
p347
aVhttp://dbpedia.org/class/yago/Abstraction100002137
p348
aVhttp://dbpedia.org/class/yago/AdministrativeDistrict108491826
p349
aVhttp://dbpedia.org/class/yago/CaribbeanCountries
p350
aVhttp://dbpedia.org/class/yago/Country108544813
p351
aVhttp://dbpedia.org/class/yago/District108552138
p352
aVhttp://dbpedia.org/class/yago/Economy108366753
p353
aVhttp://dbpedia.org/class/yago/Group100031264
p354
aVhttp://dbpedia.org/class/yago/Location100027167
p355
aVhttp://dbpedia.org/class/yago/Object100002684
p356
aVhttp://dbpedia.org/class/yago/Region108630985
p357
aVhttp://dbpedia.org/class/yago/System108435388
p358
aVhttp://dbpedia.org/class/yago/YagoGeoEntity
p359
aVhttp://dbpedia.org/class/yago/YagoLegalActorGeo
p360
aVhttp://dbpedia.org/class/yago/French-speakingCountries
p361
aVhttp://dbpedia.org/class/yago/PhysicalEntity100001930
p362
aVhttp://dbpedia.org/class/yago/YagoPermanentlyLocatedEntity
p363
aVhttp://dbpedia.org/class/yago/IslandCountries
p364
aVhttp://dbpedia.org/class/yago/LeastDevelopedCountries
p365
aVhttp://dbpedia.org/class/yago/MemberStatesOfLaFrancophonie
p366
aVhttp://dbpedia.org/class/yago/MemberStatesOfTheCaribbeanCommunity
p367
aVhttp://dbpedia.org/class/yago/MemberStatesOfTheUnitedNations
p368
aVhttp://dbpedia.org/class/yago/StatesAndTerritoriesEstablishedIn1804
p369
aVhttp://dbpedia.org/class/yago/WorldTradeOrganizationMemberEconomies
p370
asVdisambiguatedURL
p371
Vhttp://dbpedia.org/resource/Haiti
p372
sVnamedEntity
p373
VHaiti
p374
sVoffset
p375
I5
saa(lp376
(dp377
Vstart
p378
I0
sg5
(lp379
Vhttp://www.w3.org/2002/07/owl#Thing
p380
aVhttp://dbpedia.org/ontology/Place
p381
aVhttp://dbpedia.org/ontology/Location
p382
aVhttp://www.wikidata.org/entity/Q486972
p383
aVhttp://www.wikidata.org/entity/Q6256
p384
aVhttp://dbpedia.org/ontology/Country
p385
aVhttp://dbpedia.org/ontology/PopulatedPlace
p386
aVhttp://www.w3.org/2003/01/geo/wgs84_pos#SpatialThing
p387
aVhttp://schema.org/Country
p388
aVhttp://schema.org/Place
p389
aVhttp://umbel.org/umbel/rc/Country
p390
aVhttp://umbel.org/umbel/rc/Location_Underspecified
p391
aVhttp://umbel.org/umbel/rc/PopulatedPlace
p392
aVhttp://dbpedia.org/class/yago/Abstraction100002137
p393
aVhttp://dbpedia.org/class/yago/AdministrativeDistrict108491826
p394
aVhttp://dbpedia.org/class/yago/Country108544813
p395
aVhttp://dbpedia.org/class/yago/District108552138
p396
aVhttp://dbpedia.org/class/yago/Economy108366753
p397
aVhttp://dbpedia.org/class/yago/Group100031264
p398
aVhttp://dbpedia.org/class/yago/Location100027167
p399
aVhttp://dbpedia.org/class/yago/Object100002684
p400
aVhttp://dbpedia.org/class/yago/Region108630985
p401
aVhttp://dbpedia.org/class/yago/System108435388
p402
aVhttp://dbpedia.org/class/yago/YagoGeoEntity
p403
aVhttp://dbpedia.org/class/yago/YagoLegalActorGeo
p404
aVhttp://dbpedia.org/class/yago/CountriesOfTheIndianOcean
p405
aVhttp://dbpedia.org/class/yago/FederalCountries
p406
aVhttp://dbpedia.org/class/yago/PhysicalEntity100001930
p407
aVhttp://dbpedia.org/class/yago/YagoPermanentlyLocatedEntity
p408
aVhttp://dbpedia.org/class/yago/MemberStatesOfTheCommonwealthOfNations
p409
aVhttp://dbpedia.org/class/yago/MemberStatesOfTheSouthAsianAssociationForRegionalCooperation
p410
aVhttp://dbpedia.org/class/yago/MemberStatesOfTheUnitedNations
p411
aVhttp://dbpedia.org/class/yago/SouthAsianCountries
p412
aVhttp://dbpedia.org/class/yago/StatesAndTerritoriesEstablishedIn1947
p413
aVhttp://dbpedia.org/class/yago/WorldTradeOrganizationMemberEconomies
p414
asVdisambiguatedURL
p415
Vhttp://dbpedia.org/resource/India
p416
sVnamedEntity
p417
VIndia
p418
sVoffset
p419
I5
saa.