(lp1
(lp2
(lp3
((lp4
Vhttp://www.w3.org/2002/07/owl#Thing
p5
aVhttp://dbpedia.org/ontology/Place
p6
aVhttp://dbpedia.org/ontology/Location
p7
aVhttp://www.wikidata.org/entity/Q12323
p8
aVhttp://dbpedia.org/ontology/ArchitecturalStructure
p9
aVhttp://dbpedia.org/ontology/Dam
p10
aVhttp://dbpedia.org/ontology/Infrastructure
p11
aVhttp://www.w3.org/2003/01/geo/wgs84_pos#SpatialThing
p12
aVhttp://schema.org/Place
p13
aVhttp://umbel.org/umbel/rc/Lake
p14
aVhttp://dbpedia.org/class/yago/BodyOfWater109225146
p15
aVhttp://dbpedia.org/class/yago/Lake109328904
p16
aVhttp://dbpedia.org/class/yago/Thing100002452
p17
aVhttp://dbpedia.org/class/yago/YagoGeoEntity
p18
aVhttp://dbpedia.org/class/yago/PhysicalEntity100001930
p19
aVhttp://dbpedia.org/class/yago/YagoPermanentlyLocatedEntity
p20
aVhttp://dbpedia.org/class/yago/LakesOfQueensland
p21
aVhttp://dbpedia.org/resource/Atkinson_Dam
tp22
aa(lp23
a(lp24
aa(lp25
(lp26
((lp27
Vhttp://www.w3.org/2002/07/owl#Thing
p28
aVhttp://dbpedia.org/ontology/Place
p29
aVhttp://dbpedia.org/ontology/Location
p30
aVhttp://www.wikidata.org/entity/Q12323
p31
aVhttp://dbpedia.org/ontology/ArchitecturalStructure
p32
aVhttp://dbpedia.org/ontology/Dam
p33
aVhttp://dbpedia.org/ontology/Infrastructure
p34
aVhttp://www.w3.org/2003/01/geo/wgs84_pos#SpatialThing
p35
aVhttp://schema.org/Place
p36
aVhttp://umbel.org/umbel/rc/BodyOfWater
p37
aVhttp://umbel.org/umbel/rc/Lake
p38
aVhttp://dbpedia.org/class/yago/BodyOfWater109225146
p39
aVhttp://dbpedia.org/class/yago/Lake109328904
p40
aVhttp://dbpedia.org/class/yago/Thing100002452
p41
aVhttp://dbpedia.org/class/yago/YagoGeoEntity
p42
aVhttp://dbpedia.org/class/yago/PhysicalEntity100001930
p43
aVhttp://dbpedia.org/class/yago/YagoPermanentlyLocatedEntity
p44
aVhttp://dbpedia.org/class/yago/LakesOfQueensland
p45
aVhttp://dbpedia.org/resource/Bill_Gunn_Dam
tp46
aa(lp47
a(lp48
aa(lp49
(lp50
((lp51
Vhttp://www.w3.org/2002/07/owl#Thing
p52
aVhttp://dbpedia.org/ontology/Place
p53
aVhttp://dbpedia.org/ontology/Location
p54
aVhttp://www.wikidata.org/entity/Q23397
p55
aVhttp://dbpedia.org/ontology/BodyOfWater
p56
aVhttp://dbpedia.org/ontology/Lake
p57
aVhttp://dbpedia.org/ontology/NaturalPlace
p58
aVhttp://schema.org/BodyOfWater
p59
aVhttp://schema.org/LakeBodyOfWater
p60
aVhttp://schema.org/Place
p61
aVhttp://umbel.org/umbel/rc/BodyOfWater
p62
aVhttp://umbel.org/umbel/rc/Lake
p63
aVhttp://dbpedia.org/class/yago/BodyOfWater109225146
p64
aVhttp://dbpedia.org/class/yago/Lake109328904
p65
aVhttp://dbpedia.org/class/yago/Thing100002452
p66
aVhttp://dbpedia.org/class/yago/YagoGeoEntity
p67
aVhttp://dbpedia.org/class/yago/PhysicalEntity100001930
p68
aVhttp://dbpedia.org/class/yago/YagoPermanentlyLocatedEntity
p69
aVhttp://dbpedia.org/class/yago/LakesOfQueensland
p70
aVhttp://dbpedia.org/resource/Bjelke-Petersen_Dam
tp71
aa(lp72
a(lp73
aa(lp74
(lp75
a(lp76
a(lp77
aa(lp78
(lp79
a(lp80
a(lp81
aa(lp82
(lp83
((lp84
Vhttp://www.w3.org/2002/07/owl#Thing
p85
aVhttp://dbpedia.org/ontology/Place
p86
aVhttp://dbpedia.org/ontology/Location
p87
aVhttp://www.wikidata.org/entity/Q23397
p88
aVhttp://dbpedia.org/ontology/BodyOfWater
p89
aVhttp://dbpedia.org/ontology/Lake
p90
aVhttp://dbpedia.org/ontology/NaturalPlace
p91
aVhttp://schema.org/BodyOfWater
p92
aVhttp://schema.org/LakeBodyOfWater
p93
aVhttp://schema.org/Place
p94
aVhttp://umbel.org/umbel/rc/Lake
p95
aVhttp://dbpedia.org/class/yago/BodyOfWater109225146
p96
aVhttp://dbpedia.org/class/yago/Lake109328904
p97
aVhttp://dbpedia.org/class/yago/Thing100002452
p98
aVhttp://dbpedia.org/class/yago/YagoGeoEntity
p99
aVhttp://dbpedia.org/class/yago/PhysicalEntity100001930
p100
aVhttp://dbpedia.org/class/yago/YagoPermanentlyLocatedEntity
p101
aVhttp://dbpedia.org/class/yago/LakesOfQueensland
p102
aVhttp://dbpedia.org/resource/Callide_Dam
tp103
aa(lp104
a(lp105
aa(lp106
(lp107
((lp108
Vhttp://www.w3.org/2002/07/owl#Thing
p109
aVhttp://dbpedia.org/ontology/Place
p110
aVhttp://dbpedia.org/ontology/Location
p111
aVhttp://www.wikidata.org/entity/Q12323
p112
aVhttp://dbpedia.org/ontology/ArchitecturalStructure
p113
aVhttp://dbpedia.org/ontology/Dam
p114
aVhttp://dbpedia.org/ontology/Infrastructure
p115
aVhttp://www.w3.org/2003/01/geo/wgs84_pos#SpatialThing
p116
aVhttp://schema.org/Place
p117
aVhttp://umbel.org/umbel/rc/BodyOfWater
p118
aVhttp://umbel.org/umbel/rc/Lake
p119
aVhttp://dbpedia.org/class/yago/BodyOfWater109225146
p120
aVhttp://dbpedia.org/class/yago/Lake109328904
p121
aVhttp://dbpedia.org/class/yago/Thing100002452
p122
aVhttp://dbpedia.org/class/yago/YagoGeoEntity
p123
aVhttp://dbpedia.org/class/yago/PhysicalEntity100001930
p124
aVhttp://dbpedia.org/class/yago/YagoPermanentlyLocatedEntity
p125
aVhttp://dbpedia.org/class/yago/LakesOfQueensland
p126
aVhttp://dbpedia.org/resource/Cedar_Pocket_Dam
tp127
aa(lp128
a(lp129
aa(lp130
(lp131
((lp132
Vhttp://www.w3.org/2002/07/owl#Thing
p133
aVhttp://dbpedia.org/ontology/Place
p134
aVhttp://dbpedia.org/ontology/Location
p135
aVhttp://www.wikidata.org/entity/Q12323
p136
aVhttp://dbpedia.org/ontology/ArchitecturalStructure
p137
aVhttp://dbpedia.org/ontology/Dam
p138
aVhttp://dbpedia.org/ontology/Infrastructure
p139
aVhttp://www.w3.org/2003/01/geo/wgs84_pos#SpatialThing
p140
aVhttp://schema.org/Place
p141
aVhttp://umbel.org/umbel/rc/Lake
p142
aVhttp://dbpedia.org/class/yago/BodyOfWater109225146
p143
aVhttp://dbpedia.org/class/yago/Lake109328904
p144
aVhttp://dbpedia.org/class/yago/Thing100002452
p145
aVhttp://dbpedia.org/class/yago/YagoGeoEntity
p146
aVhttp://dbpedia.org/class/yago/PhysicalEntity100001930
p147
aVhttp://dbpedia.org/class/yago/YagoPermanentlyLocatedEntity
p148
aVhttp://dbpedia.org/class/yago/LakesOfQueensland
p149
aVhttp://dbpedia.org/resource/Coolmunda_Dam
tp150
aa(lp151
((lp152
Vhttp://www.w3.org/2002/07/owl#Thing
p153
aVhttp://dbpedia.org/ontology/Place
p154
aVhttp://dbpedia.org/ontology/Location
p155
aVhttp://www.wikidata.org/entity/Q3455524
p156
aVhttp://www.wikidata.org/entity/Q486972
p157
aVhttp://dbpedia.org/ontology/AdministrativeRegion
p158
aVhttp://dbpedia.org/ontology/PopulatedPlace
p159
aVhttp://dbpedia.org/ontology/Region
p160
aVhttp://www.w3.org/2003/01/geo/wgs84_pos#SpatialThing
p161
aVhttp://schema.org/AdministrativeArea
p162
aVhttp://schema.org/Place
p163
aVhttp://dbpedia.org/resource/Goondiwindi
tp164
aa(lp165
aa(lp166
(lp167
((lp168
Vhttp://www.w3.org/2002/07/owl#Thing
p169
aVhttp://dbpedia.org/ontology/Place
p170
aVhttp://dbpedia.org/ontology/Location
p171
aVhttp://www.wikidata.org/entity/Q23397
p172
aVhttp://dbpedia.org/ontology/BodyOfWater
p173
aVhttp://dbpedia.org/ontology/Lake
p174
aVhttp://dbpedia.org/ontology/NaturalPlace
p175
aVhttp://schema.org/BodyOfWater
p176
aVhttp://schema.org/LakeBodyOfWater
p177
aVhttp://schema.org/Place
p178
aVhttp://umbel.org/umbel/rc/Lake
p179
aVhttp://dbpedia.org/class/yago/BodyOfWater109225146
p180
aVhttp://dbpedia.org/class/yago/Lake109328904
p181
aVhttp://dbpedia.org/class/yago/Thing100002452
p182
aVhttp://dbpedia.org/class/yago/YagoGeoEntity
p183
aVhttp://dbpedia.org/class/yago/PhysicalEntity100001930
p184
aVhttp://dbpedia.org/class/yago/YagoPermanentlyLocatedEntity
p185
aVhttp://dbpedia.org/class/yago/LakesOfQueensland
p186
aVhttp://dbpedia.org/resource/Eungella_Dam
tp187
aa(lp188
a(lp189
aa(lp190
(lp191
((lp192
Vhttp://www.w3.org/2002/07/owl#Thing
p193
aVhttp://dbpedia.org/ontology/Place
p194
aVhttp://dbpedia.org/ontology/Location
p195
aVhttp://www.wikidata.org/entity/Q23397
p196
aVhttp://dbpedia.org/ontology/BodyOfWater
p197
aVhttp://dbpedia.org/ontology/Lake
p198
aVhttp://dbpedia.org/ontology/NaturalPlace
p199
aVhttp://schema.org/BodyOfWater
p200
aVhttp://schema.org/LakeBodyOfWater
p201
aVhttp://schema.org/Place
p202
aVhttp://umbel.org/umbel/rc/BodyOfWater
p203
aVhttp://umbel.org/umbel/rc/Lake
p204
aVhttp://dbpedia.org/class/yago/BodyOfWater109225146
p205
aVhttp://dbpedia.org/class/yago/Lake109328904
p206
aVhttp://dbpedia.org/class/yago/Thing100002452
p207
aVhttp://dbpedia.org/class/yago/YagoGeoEntity
p208
aVhttp://dbpedia.org/class/yago/PhysicalEntity100001930
p209
aVhttp://dbpedia.org/class/yago/YagoPermanentlyLocatedEntity
p210
aVhttp://dbpedia.org/class/yago/LakesOfQueensland
p211
aVhttp://dbpedia.org/resource/Fairbairn_Dam
tp212
aa(lp213
((lp214
Vhttp://dbpedia.org/class/yago/Abstraction100002137
p215
aVhttp://dbpedia.org/class/yago/Biome107941945
p216
aVhttp://dbpedia.org/class/yago/Community107941729
p217
aVhttp://dbpedia.org/class/yago/GeologicalFormation109287968
p218
aVhttp://dbpedia.org/class/yago/Group100031264
p219
aVhttp://dbpedia.org/class/yago/Location100027167
p220
aVhttp://dbpedia.org/class/yago/Object100002684
p221
aVhttp://dbpedia.org/class/yago/Region108630985
p222
aVhttp://dbpedia.org/class/yago/Tract108673395
p223
aVhttp://dbpedia.org/class/yago/YagoGeoEntity
p224
aVhttp://dbpedia.org/class/yago/YagoLegalActorGeo
p225
aVhttp://dbpedia.org/class/yago/Desert108505573
p226
aVhttp://dbpedia.org/class/yago/DesertsOfEurope
p227
aVhttp://dbpedia.org/class/yago/GeographicalArea108574314
p228
aVhttp://dbpedia.org/class/yago/Highland109302616
p229
aVhttp://dbpedia.org/class/yago/PhysicalEntity100001930
p230
aVhttp://dbpedia.org/class/yago/YagoPermanentlyLocatedEntity
p231
aVhttp://dbpedia.org/class/yago/HighlandsOfIceland
p232
aVhttp://dbpedia.org/class/yago/NaturalElevation109366317
p233
aVhttp://dbpedia.org/resource/Highlands_of_Iceland
tp234
aa(lp235
aa(lp236
(lp237
((lp238
Vhttp://www.w3.org/2002/07/owl#Thing
p239
aVhttp://dbpedia.org/ontology/Place
p240
aVhttp://dbpedia.org/ontology/Location
p241
aVhttp://www.wikidata.org/entity/Q23397
p242
aVhttp://dbpedia.org/ontology/BodyOfWater
p243
aVhttp://dbpedia.org/ontology/Lake
p244
aVhttp://dbpedia.org/ontology/NaturalPlace
p245
aVhttp://schema.org/BodyOfWater
p246
aVhttp://schema.org/LakeBodyOfWater
p247
aVhttp://schema.org/Place
p248
aVhttp://umbel.org/umbel/rc/Lake
p249
aVhttp://dbpedia.org/class/yago/BodyOfWater109225146
p250
aVhttp://dbpedia.org/class/yago/Lake109328904
p251
aVhttp://dbpedia.org/class/yago/Thing100002452
p252
aVhttp://dbpedia.org/class/yago/YagoGeoEntity
p253
aVhttp://dbpedia.org/class/yago/PhysicalEntity100001930
p254
aVhttp://dbpedia.org/class/yago/YagoPermanentlyLocatedEntity
p255
aVhttp://dbpedia.org/class/yago/LakesOfQueensland
p256
aVhttp://dbpedia.org/resource/Fred_Haigh_Dam
tp257
aa(lp258
a(lp259
aa(lp260
(lp261
((lp262
Vhttp://www.w3.org/2002/07/owl#Thing
p263
aVhttp://dbpedia.org/ontology/Place
p264
aVhttp://dbpedia.org/ontology/Location
p265
aVhttp://www.wikidata.org/entity/Q23397
p266
aVhttp://dbpedia.org/ontology/BodyOfWater
p267
aVhttp://dbpedia.org/ontology/Lake
p268
aVhttp://dbpedia.org/ontology/NaturalPlace
p269
aVhttp://schema.org/BodyOfWater
p270
aVhttp://schema.org/LakeBodyOfWater
p271
aVhttp://schema.org/Place
p272
aVhttp://umbel.org/umbel/rc/BodyOfWater
p273
aVhttp://umbel.org/umbel/rc/Lake
p274
aVhttp://dbpedia.org/class/yago/BodyOfWater109225146
p275
aVhttp://dbpedia.org/class/yago/Lake109328904
p276
aVhttp://dbpedia.org/class/yago/Thing100002452
p277
aVhttp://dbpedia.org/class/yago/YagoGeoEntity
p278
aVhttp://dbpedia.org/class/yago/PhysicalEntity100001930
p279
aVhttp://dbpedia.org/class/yago/YagoPermanentlyLocatedEntity
p280
aVhttp://dbpedia.org/class/yago/LakesOfQueensland
p281
aVhttp://dbpedia.org/resource/Glenlyon_Dam
tp282
aa(lp283
a(lp284
aa(lp285
(lp286
((lp287
Vhttp://www.w3.org/2002/07/owl#Thing
p288
aVhttp://dbpedia.org/ontology/Place
p289
aVhttp://dbpedia.org/ontology/Location
p290
aVhttp://www.wikidata.org/entity/Q23397
p291
aVhttp://dbpedia.org/ontology/BodyOfWater
p292
aVhttp://dbpedia.org/ontology/Lake
p293
aVhttp://dbpedia.org/ontology/NaturalPlace
p294
aVhttp://schema.org/BodyOfWater
p295
aVhttp://schema.org/LakeBodyOfWater
p296
aVhttp://schema.org/Place
p297
aVhttp://umbel.org/umbel/rc/Lake
p298
aVhttp://dbpedia.org/class/yago/BodyOfWater109225146
p299
aVhttp://dbpedia.org/class/yago/Lake109328904
p300
aVhttp://dbpedia.org/class/yago/Thing100002452
p301
aVhttp://dbpedia.org/class/yago/YagoGeoEntity
p302
aVhttp://dbpedia.org/class/yago/PhysicalEntity100001930
p303
aVhttp://dbpedia.org/class/yago/YagoPermanentlyLocatedEntity
p304
aVhttp://dbpedia.org/class/yago/LakesOfQueensland
p305
aVhttp://dbpedia.org/resource/Kinchant_Dam
tp306
aa(lp307
a(lp308
aa(lp309
(lp310
a(lp311
a(lp312
aa(lp313
(lp314
a(lp315
a(lp316
aa(lp317
(lp318
a(lp319
a(lp320
aa(lp321
(lp322
a(lp323
a(lp324
aa(lp325
(lp326
((lp327
Vhttp://www.w3.org/2002/07/owl#Thing
p328
aVhttp://dbpedia.org/ontology/Place
p329
aVhttp://dbpedia.org/ontology/Location
p330
aVhttp://www.wikidata.org/entity/Q23397
p331
aVhttp://dbpedia.org/ontology/BodyOfWater
p332
aVhttp://dbpedia.org/ontology/Lake
p333
aVhttp://dbpedia.org/ontology/NaturalPlace
p334
aVhttp://schema.org/BodyOfWater
p335
aVhttp://schema.org/LakeBodyOfWater
p336
aVhttp://schema.org/Place
p337
aVhttp://umbel.org/umbel/rc/Lake
p338
aVhttp://dbpedia.org/class/yago/BodyOfWater109225146
p339
aVhttp://dbpedia.org/class/yago/Lake109328904
p340
aVhttp://dbpedia.org/class/yago/Thing100002452
p341
aVhttp://dbpedia.org/class/yago/YagoGeoEntity
p342
aVhttp://dbpedia.org/class/yago/PhysicalEntity100001930
p343
aVhttp://dbpedia.org/class/yago/YagoPermanentlyLocatedEntity
p344
aVhttp://dbpedia.org/class/yago/LakesOfQueensland
p345
aVhttp://dbpedia.org/resource/Peter_Faust_Dam
tp346
aa(lp347
a(lp348
aa(lp349
(lp350
a(lp351
a(lp352
aa(lp353
(lp354
((lp355
Vhttp://www.w3.org/2002/07/owl#Thing
p356
aVhttp://dbpedia.org/ontology/Place
p357
aVhttp://dbpedia.org/ontology/Location
p358
aVhttp://www.wikidata.org/entity/Q12323
p359
aVhttp://dbpedia.org/ontology/ArchitecturalStructure
p360
aVhttp://dbpedia.org/ontology/Dam
p361
aVhttp://dbpedia.org/ontology/Infrastructure
p362
aVhttp://www.w3.org/2003/01/geo/wgs84_pos#SpatialThing
p363
aVhttp://schema.org/Place
p364
aVhttp://umbel.org/umbel/rc/BodyOfWater
p365
aVhttp://umbel.org/umbel/rc/Lake
p366
aVhttp://dbpedia.org/class/yago/Artifact100021939
p367
aVhttp://dbpedia.org/class/yago/Barrier102796623
p368
aVhttp://dbpedia.org/class/yago/BodyOfWater109225146
p369
aVhttp://dbpedia.org/class/yago/Dam103160309
p370
aVhttp://dbpedia.org/class/yago/Lake109328904
p371
aVhttp://dbpedia.org/class/yago/Object100002684
p372
aVhttp://dbpedia.org/class/yago/Obstruction103839993
p373
aVhttp://dbpedia.org/class/yago/Structure104341686
p374
aVhttp://dbpedia.org/class/yago/Thing100002452
p375
aVhttp://dbpedia.org/class/yago/Whole100003553
p376
aVhttp://dbpedia.org/class/yago/YagoGeoEntity
p377
aVhttp://dbpedia.org/class/yago/PhysicalEntity100001930
p378
aVhttp://dbpedia.org/class/yago/YagoPermanentlyLocatedEntity
p379
aVhttp://dbpedia.org/class/yago/LakesOfQueensland
p380
aVhttp://dbpedia.org/resource/Wivenhoe_Dam
p381
tp382
aa(lp383
a(lp384
aa.