(lp1
(lp2
(dp3
Vstart
p4
I0
sS'classes'
p5
(lp6
Vhttp://www.w3.org/2002/07/owl#Thing
p7
aVhttp://dbpedia.org/ontology/Place
p8
aVhttp://dbpedia.org/ontology/Location
p9
aVhttp://www.wikidata.org/entity/Q12323
p10
aVhttp://dbpedia.org/ontology/ArchitecturalStructure
p11
aVhttp://dbpedia.org/ontology/Dam
p12
aVhttp://dbpedia.org/ontology/Infrastructure
p13
aVhttp://www.w3.org/2003/01/geo/wgs84_pos#SpatialThing
p14
aVhttp://schema.org/Place
p15
aVhttp://umbel.org/umbel/rc/Lake
p16
aVhttp://dbpedia.org/class/yago/BodyOfWater109225146
p17
aVhttp://dbpedia.org/class/yago/Lake109328904
p18
aVhttp://dbpedia.org/class/yago/Thing100002452
p19
aVhttp://dbpedia.org/class/yago/YagoGeoEntity
p20
aVhttp://dbpedia.org/class/yago/PhysicalEntity100001930
p21
aVhttp://dbpedia.org/class/yago/YagoPermanentlyLocatedEntity
p22
aVhttp://dbpedia.org/class/yago/LakesOfQueensland
p23
asVdisambiguatedURL
p24
Vhttp://dbpedia.org/resource/Atkinson_Dam
p25
sVnamedEntity
p26
Vatkinson dam
p27
sVoffset
p28
I12
saa(lp29
(dp30
Vstart
p31
I0
sg5
(lp32
Vhttp://www.w3.org/2002/07/owl#Thing
p33
aVhttp://dbpedia.org/ontology/Place
p34
aVhttp://dbpedia.org/ontology/Location
p35
aVhttp://www.wikidata.org/entity/Q12323
p36
aVhttp://dbpedia.org/ontology/ArchitecturalStructure
p37
aVhttp://dbpedia.org/ontology/Dam
p38
aVhttp://dbpedia.org/ontology/Infrastructure
p39
aVhttp://www.w3.org/2003/01/geo/wgs84_pos#SpatialThing
p40
aVhttp://schema.org/Place
p41
aVhttp://umbel.org/umbel/rc/BodyOfWater
p42
aVhttp://umbel.org/umbel/rc/Lake
p43
aVhttp://dbpedia.org/class/yago/BodyOfWater109225146
p44
aVhttp://dbpedia.org/class/yago/Lake109328904
p45
aVhttp://dbpedia.org/class/yago/Thing100002452
p46
aVhttp://dbpedia.org/class/yago/YagoGeoEntity
p47
aVhttp://dbpedia.org/class/yago/PhysicalEntity100001930
p48
aVhttp://dbpedia.org/class/yago/YagoPermanentlyLocatedEntity
p49
aVhttp://dbpedia.org/class/yago/LakesOfQueensland
p50
asVdisambiguatedURL
p51
Vhttp://dbpedia.org/resource/Bill_Gunn_Dam
p52
sVnamedEntity
p53
Vbill gunn dam
p54
sVoffset
p55
I13
saa(lp56
(dp57
Vstart
p58
I0
sg5
(lp59
Vhttp://www.w3.org/2002/07/owl#Thing
p60
aVhttp://dbpedia.org/ontology/Place
p61
aVhttp://dbpedia.org/ontology/Location
p62
aVhttp://www.wikidata.org/entity/Q23397
p63
aVhttp://dbpedia.org/ontology/BodyOfWater
p64
aVhttp://dbpedia.org/ontology/Lake
p65
aVhttp://dbpedia.org/ontology/NaturalPlace
p66
aVhttp://schema.org/BodyOfWater
p67
aVhttp://schema.org/LakeBodyOfWater
p68
aVhttp://schema.org/Place
p69
aVhttp://umbel.org/umbel/rc/BodyOfWater
p70
aVhttp://umbel.org/umbel/rc/Lake
p71
aVhttp://dbpedia.org/class/yago/BodyOfWater109225146
p72
aVhttp://dbpedia.org/class/yago/Lake109328904
p73
aVhttp://dbpedia.org/class/yago/Thing100002452
p74
aVhttp://dbpedia.org/class/yago/YagoGeoEntity
p75
aVhttp://dbpedia.org/class/yago/PhysicalEntity100001930
p76
aVhttp://dbpedia.org/class/yago/YagoPermanentlyLocatedEntity
p77
aVhttp://dbpedia.org/class/yago/LakesOfQueensland
p78
asVdisambiguatedURL
p79
Vhttp://dbpedia.org/resource/Bjelke-Petersen_Dam
p80
sVnamedEntity
p81
Vbjelke petersen dam
p82
sVoffset
p83
I19
saa(lp84
a(lp85
a(lp86
(dp87
Vstart
p88
I0
sg5
(lp89
Vhttp://www.w3.org/2002/07/owl#Thing
p90
aVhttp://dbpedia.org/ontology/Place
p91
aVhttp://dbpedia.org/ontology/Location
p92
aVhttp://www.wikidata.org/entity/Q23397
p93
aVhttp://dbpedia.org/ontology/BodyOfWater
p94
aVhttp://dbpedia.org/ontology/Lake
p95
aVhttp://dbpedia.org/ontology/NaturalPlace
p96
aVhttp://schema.org/BodyOfWater
p97
aVhttp://schema.org/LakeBodyOfWater
p98
aVhttp://schema.org/Place
p99
aVhttp://umbel.org/umbel/rc/Lake
p100
aVhttp://dbpedia.org/class/yago/BodyOfWater109225146
p101
aVhttp://dbpedia.org/class/yago/Lake109328904
p102
aVhttp://dbpedia.org/class/yago/Thing100002452
p103
aVhttp://dbpedia.org/class/yago/YagoGeoEntity
p104
aVhttp://dbpedia.org/class/yago/PhysicalEntity100001930
p105
aVhttp://dbpedia.org/class/yago/YagoPermanentlyLocatedEntity
p106
aVhttp://dbpedia.org/class/yago/LakesOfQueensland
p107
asVdisambiguatedURL
p108
Vhttp://dbpedia.org/resource/Callide_Dam
p109
sVnamedEntity
p110
Vcallide dam
p111
sVoffset
p112
I11
saa(lp113
(dp114
Vstart
p115
I0
sg5
(lp116
Vhttp://www.w3.org/2002/07/owl#Thing
p117
aVhttp://dbpedia.org/ontology/Place
p118
aVhttp://dbpedia.org/ontology/Location
p119
aVhttp://www.wikidata.org/entity/Q12323
p120
aVhttp://dbpedia.org/ontology/ArchitecturalStructure
p121
aVhttp://dbpedia.org/ontology/Dam
p122
aVhttp://dbpedia.org/ontology/Infrastructure
p123
aVhttp://www.w3.org/2003/01/geo/wgs84_pos#SpatialThing
p124
aVhttp://schema.org/Place
p125
aVhttp://umbel.org/umbel/rc/BodyOfWater
p126
aVhttp://umbel.org/umbel/rc/Lake
p127
aVhttp://dbpedia.org/class/yago/BodyOfWater109225146
p128
aVhttp://dbpedia.org/class/yago/Lake109328904
p129
aVhttp://dbpedia.org/class/yago/Thing100002452
p130
aVhttp://dbpedia.org/class/yago/YagoGeoEntity
p131
aVhttp://dbpedia.org/class/yago/PhysicalEntity100001930
p132
aVhttp://dbpedia.org/class/yago/YagoPermanentlyLocatedEntity
p133
aVhttp://dbpedia.org/class/yago/LakesOfQueensland
p134
asVdisambiguatedURL
p135
Vhttp://dbpedia.org/resource/Cedar_Pocket_Dam
p136
sVnamedEntity
p137
Vcedar pocket dam
p138
sVoffset
p139
I16
saa(lp140
(dp141
Vstart
p142
I0
sg5
(lp143
Vhttp://www.w3.org/2002/07/owl#Thing
p144
aVhttp://dbpedia.org/ontology/Place
p145
aVhttp://dbpedia.org/ontology/Location
p146
aVhttp://www.wikidata.org/entity/Q12323
p147
aVhttp://dbpedia.org/ontology/ArchitecturalStructure
p148
aVhttp://dbpedia.org/ontology/Dam
p149
aVhttp://dbpedia.org/ontology/Infrastructure
p150
aVhttp://www.w3.org/2003/01/geo/wgs84_pos#SpatialThing
p151
aVhttp://schema.org/Place
p152
aVhttp://umbel.org/umbel/rc/Lake
p153
aVhttp://dbpedia.org/class/yago/BodyOfWater109225146
p154
aVhttp://dbpedia.org/class/yago/Lake109328904
p155
aVhttp://dbpedia.org/class/yago/Thing100002452
p156
aVhttp://dbpedia.org/class/yago/YagoGeoEntity
p157
aVhttp://dbpedia.org/class/yago/PhysicalEntity100001930
p158
aVhttp://dbpedia.org/class/yago/YagoPermanentlyLocatedEntity
p159
aVhttp://dbpedia.org/class/yago/LakesOfQueensland
p160
asVdisambiguatedURL
p161
Vhttp://dbpedia.org/resource/Coolmunda_Dam
p162
sVnamedEntity
p163
Vcoolmunda dam
p164
sVoffset
p165
I13
saa(lp166
(dp167
Vstart
p168
I0
sg5
(lp169
Vhttp://www.w3.org/2002/07/owl#Thing
p170
aVhttp://dbpedia.org/ontology/Place
p171
aVhttp://dbpedia.org/ontology/Location
p172
aVhttp://www.wikidata.org/entity/Q23397
p173
aVhttp://dbpedia.org/ontology/BodyOfWater
p174
aVhttp://dbpedia.org/ontology/Lake
p175
aVhttp://dbpedia.org/ontology/NaturalPlace
p176
aVhttp://schema.org/BodyOfWater
p177
aVhttp://schema.org/LakeBodyOfWater
p178
aVhttp://schema.org/Place
p179
aVhttp://umbel.org/umbel/rc/Lake
p180
aVhttp://dbpedia.org/class/yago/BodyOfWater109225146
p181
aVhttp://dbpedia.org/class/yago/Lake109328904
p182
aVhttp://dbpedia.org/class/yago/Thing100002452
p183
aVhttp://dbpedia.org/class/yago/YagoGeoEntity
p184
aVhttp://dbpedia.org/class/yago/PhysicalEntity100001930
p185
aVhttp://dbpedia.org/class/yago/YagoPermanentlyLocatedEntity
p186
aVhttp://dbpedia.org/class/yago/LakesOfQueensland
p187
asVdisambiguatedURL
p188
Vhttp://dbpedia.org/resource/Eungella_Dam
p189
sVnamedEntity
p190
Veungella dam
p191
sVoffset
p192
I12
saa(lp193
(dp194
Vstart
p195
I0
sg5
(lp196
Vhttp://www.w3.org/2002/07/owl#Thing
p197
aVhttp://dbpedia.org/ontology/Place
p198
aVhttp://dbpedia.org/ontology/Location
p199
aVhttp://www.wikidata.org/entity/Q23397
p200
aVhttp://dbpedia.org/ontology/BodyOfWater
p201
aVhttp://dbpedia.org/ontology/Lake
p202
aVhttp://dbpedia.org/ontology/NaturalPlace
p203
aVhttp://schema.org/BodyOfWater
p204
aVhttp://schema.org/LakeBodyOfWater
p205
aVhttp://schema.org/Place
p206
aVhttp://umbel.org/umbel/rc/BodyOfWater
p207
aVhttp://umbel.org/umbel/rc/Lake
p208
aVhttp://dbpedia.org/class/yago/BodyOfWater109225146
p209
aVhttp://dbpedia.org/class/yago/Lake109328904
p210
aVhttp://dbpedia.org/class/yago/Thing100002452
p211
aVhttp://dbpedia.org/class/yago/YagoGeoEntity
p212
aVhttp://dbpedia.org/class/yago/PhysicalEntity100001930
p213
aVhttp://dbpedia.org/class/yago/YagoPermanentlyLocatedEntity
p214
aVhttp://dbpedia.org/class/yago/LakesOfQueensland
p215
asVdisambiguatedURL
p216
Vhttp://dbpedia.org/resource/Fairbairn_Dam
p217
sVnamedEntity
p218
Vfairbairn dam
p219
sVoffset
p220
I13
saa(lp221
(dp222
Vstart
p223
I0
sg5
(lp224
Vhttp://www.w3.org/2002/07/owl#Thing
p225
aVhttp://dbpedia.org/ontology/Place
p226
aVhttp://dbpedia.org/ontology/Location
p227
aVhttp://www.wikidata.org/entity/Q23397
p228
aVhttp://dbpedia.org/ontology/BodyOfWater
p229
aVhttp://dbpedia.org/ontology/Lake
p230
aVhttp://dbpedia.org/ontology/NaturalPlace
p231
aVhttp://schema.org/BodyOfWater
p232
aVhttp://schema.org/LakeBodyOfWater
p233
aVhttp://schema.org/Place
p234
aVhttp://umbel.org/umbel/rc/Lake
p235
aVhttp://dbpedia.org/class/yago/BodyOfWater109225146
p236
aVhttp://dbpedia.org/class/yago/Lake109328904
p237
aVhttp://dbpedia.org/class/yago/Thing100002452
p238
aVhttp://dbpedia.org/class/yago/YagoGeoEntity
p239
aVhttp://dbpedia.org/class/yago/PhysicalEntity100001930
p240
aVhttp://dbpedia.org/class/yago/YagoPermanentlyLocatedEntity
p241
aVhttp://dbpedia.org/class/yago/LakesOfQueensland
p242
asVdisambiguatedURL
p243
Vhttp://dbpedia.org/resource/Fred_Haigh_Dam
p244
sVnamedEntity
p245
Vfred haigh dam
p246
sVoffset
p247
I14
saa(lp248
(dp249
Vstart
p250
I0
sg5
(lp251
Vhttp://www.w3.org/2002/07/owl#Thing
p252
aVhttp://dbpedia.org/ontology/Place
p253
aVhttp://dbpedia.org/ontology/Location
p254
aVhttp://www.wikidata.org/entity/Q23397
p255
aVhttp://dbpedia.org/ontology/BodyOfWater
p256
aVhttp://dbpedia.org/ontology/Lake
p257
aVhttp://dbpedia.org/ontology/NaturalPlace
p258
aVhttp://schema.org/BodyOfWater
p259
aVhttp://schema.org/LakeBodyOfWater
p260
aVhttp://schema.org/Place
p261
aVhttp://umbel.org/umbel/rc/BodyOfWater
p262
aVhttp://umbel.org/umbel/rc/Lake
p263
aVhttp://dbpedia.org/class/yago/BodyOfWater109225146
p264
aVhttp://dbpedia.org/class/yago/Lake109328904
p265
aVhttp://dbpedia.org/class/yago/Thing100002452
p266
aVhttp://dbpedia.org/class/yago/YagoGeoEntity
p267
aVhttp://dbpedia.org/class/yago/PhysicalEntity100001930
p268
aVhttp://dbpedia.org/class/yago/YagoPermanentlyLocatedEntity
p269
aVhttp://dbpedia.org/class/yago/LakesOfQueensland
p270
asVdisambiguatedURL
p271
Vhttp://dbpedia.org/resource/Glenlyon_Dam
p272
sVnamedEntity
p273
Vglenlyon dam
p274
sVoffset
p275
I12
saa(lp276
(dp277
Vstart
p278
I0
sg5
(lp279
Vhttp://www.w3.org/2002/07/owl#Thing
p280
aVhttp://dbpedia.org/ontology/Place
p281
aVhttp://dbpedia.org/ontology/Location
p282
aVhttp://www.wikidata.org/entity/Q23397
p283
aVhttp://dbpedia.org/ontology/BodyOfWater
p284
aVhttp://dbpedia.org/ontology/Lake
p285
aVhttp://dbpedia.org/ontology/NaturalPlace
p286
aVhttp://schema.org/BodyOfWater
p287
aVhttp://schema.org/LakeBodyOfWater
p288
aVhttp://schema.org/Place
p289
aVhttp://umbel.org/umbel/rc/Lake
p290
aVhttp://dbpedia.org/class/yago/BodyOfWater109225146
p291
aVhttp://dbpedia.org/class/yago/Lake109328904
p292
aVhttp://dbpedia.org/class/yago/Thing100002452
p293
aVhttp://dbpedia.org/class/yago/YagoGeoEntity
p294
aVhttp://dbpedia.org/class/yago/PhysicalEntity100001930
p295
aVhttp://dbpedia.org/class/yago/YagoPermanentlyLocatedEntity
p296
aVhttp://dbpedia.org/class/yago/LakesOfQueensland
p297
asVdisambiguatedURL
p298
Vhttp://dbpedia.org/resource/Kinchant_Dam
p299
sVnamedEntity
p300
Vkinchant dam
p301
sVoffset
p302
I12
saa(lp303
a(lp304
a(lp305
a(lp306
a(lp307
(dp308
Vstart
p309
I0
sg5
(lp310
Vhttp://www.w3.org/2002/07/owl#Thing
p311
aVhttp://dbpedia.org/ontology/Place
p312
aVhttp://dbpedia.org/ontology/Location
p313
aVhttp://www.wikidata.org/entity/Q23397
p314
aVhttp://dbpedia.org/ontology/BodyOfWater
p315
aVhttp://dbpedia.org/ontology/Lake
p316
aVhttp://dbpedia.org/ontology/NaturalPlace
p317
aVhttp://schema.org/BodyOfWater
p318
aVhttp://schema.org/LakeBodyOfWater
p319
aVhttp://schema.org/Place
p320
aVhttp://umbel.org/umbel/rc/Lake
p321
aVhttp://dbpedia.org/class/yago/BodyOfWater109225146
p322
aVhttp://dbpedia.org/class/yago/Lake109328904
p323
aVhttp://dbpedia.org/class/yago/Thing100002452
p324
aVhttp://dbpedia.org/class/yago/YagoGeoEntity
p325
aVhttp://dbpedia.org/class/yago/PhysicalEntity100001930
p326
aVhttp://dbpedia.org/class/yago/YagoPermanentlyLocatedEntity
p327
aVhttp://dbpedia.org/class/yago/LakesOfQueensland
p328
asVdisambiguatedURL
p329
Vhttp://dbpedia.org/resource/Peter_Faust_Dam
p330
sVnamedEntity
p331
Vpeter faust dam
p332
sVoffset
p333
I15
saa(lp334
a(lp335
(dp336
Vstart
p337
I0
sg5
(lp338
Vhttp://www.w3.org/2002/07/owl#Thing
p339
aVhttp://dbpedia.org/ontology/Place
p340
aVhttp://dbpedia.org/ontology/Location
p341
aVhttp://www.wikidata.org/entity/Q12323
p342
aVhttp://dbpedia.org/ontology/ArchitecturalStructure
p343
aVhttp://dbpedia.org/ontology/Dam
p344
aVhttp://dbpedia.org/ontology/Infrastructure
p345
aVhttp://www.w3.org/2003/01/geo/wgs84_pos#SpatialThing
p346
aVhttp://schema.org/Place
p347
aVhttp://umbel.org/umbel/rc/BodyOfWater
p348
aVhttp://umbel.org/umbel/rc/Lake
p349
aVhttp://dbpedia.org/class/yago/Artifact100021939
p350
aVhttp://dbpedia.org/class/yago/Barrier102796623
p351
aVhttp://dbpedia.org/class/yago/BodyOfWater109225146
p352
aVhttp://dbpedia.org/class/yago/Dam103160309
p353
aVhttp://dbpedia.org/class/yago/Lake109328904
p354
aVhttp://dbpedia.org/class/yago/Object100002684
p355
aVhttp://dbpedia.org/class/yago/Obstruction103839993
p356
aVhttp://dbpedia.org/class/yago/Structure104341686
p357
aVhttp://dbpedia.org/class/yago/Thing100002452
p358
aVhttp://dbpedia.org/class/yago/Whole100003553
p359
aVhttp://dbpedia.org/class/yago/YagoGeoEntity
p360
aVhttp://dbpedia.org/class/yago/PhysicalEntity100001930
p361
aVhttp://dbpedia.org/class/yago/YagoPermanentlyLocatedEntity
p362
aVhttp://dbpedia.org/class/yago/LakesOfQueensland
p363
asVdisambiguatedURL
p364
Vhttp://dbpedia.org/resource/Wivenhoe_Dam
p365
sVnamedEntity
p366
Vwivenhoe dam
p367
sVoffset
p368
I12
saa.