(lp1
(lp2
(lp3
a(lp4
Vhttp://dbpedia.org/resource/Vogtlandbahn
p5
aa(lp6
Vhttp://dbpedia.org/resource/Ship_transport
p7
aaa(lp8
(lp9
Vhttp://dbpedia.org/resource/Alaska_Air_Group
p10
aa(lp11
Vhttp://dbpedia.org/resource/Automated_lamellar_keratoplasty
p12
aa(lp13
aa(lp14
(lp15
Vhttp://dbpedia.org/resource/C._H._Robinson_Worldwide
p16
aa(lp17
Vhttp://dbpedia.org/resource/CHRW-FM
p18
aa(lp19
aa(lp20
(lp21
Vhttp://dbpedia.org/resource/Con-way
p22
aa(lp23
Vhttp://dbpedia.org/resource/Chicago_and_North_Western_Transportation_Company
p24
aa(lp25
aa(lp26
(lp27
Vhttp://dbpedia.org/resource/CSX_Corporation
p28
aa(lp29
Vhttp://dbpedia.org/resource/CSX_Transportation
p30
aa(lp31
aa(lp32
(lp33
Vhttp://dbpedia.org/resource/Delta_Air_Lines
p34
aa(lp35
Vhttp://dbpedia.org/resource/Dal_(disambiguation)
p36
aa(lp37
aa(lp38
(lp39
Vhttp://dbpedia.org/resource/Expeditors_International
p40
aa(lp41
a(lp42
Vhttp://dbpedia.org/resource/Delivery_service
p43
aaa(lp44
(lp45
Vhttp://dbpedia.org/resource/FedEx
p46
aa(lp47
a(lp48
Vhttp://dbpedia.org/resource/Delivery_service
p49
aaa(lp50
(lp51
Vhttp://dbpedia.org/resource/General_American_Transportation_Corporation
p52
aa(lp53
Vhttp://dbpedia.org/resource/Greenwich_Mean_Time
p54
aa(lp55
aa(lp56
(lp57
Vhttp://dbpedia.org/resource/J._B._Hunt
p58
aa(lp59
a(lp60
aa(lp61
(lp62
Vhttp://dbpedia.org/resource/JetBlue
p63
aa(lp64
Vhttp://dbpedia.org/resource/JetBlue
p65
aa(lp66
aa(lp67
(lp68
Vhttp://dbpedia.org/resource/Kansas_City_Southern_Railway
p69
aa(lp70
Vhttp://dbpedia.org/resource/Kennesaw_State_University
p71
aa(lp72
aa(lp73
(lp74
Vhttp://dbpedia.org/resource/Landstar_System
p75
aa(lp76
a(lp77
aa(lp78
(lp79
Vhttp://dbpedia.org/resource/Norfolk_Southern_Tower
p80
aa(lp81
Vhttp://dbpedia.org/resource/Nomura_Securities
p82
aa(lp83
aa(lp84
(lp85
Vhttp://dbpedia.org/resource/Overseas_Shipholding_Group
p86
aa(lp87
Vhttp://dbpedia.org/resource/Open_Science_Grid_Consortium
p88
aa(lp89
Vhttp://dbpedia.org/resource/Ship_transport
p90
aaa(lp91
(lp92
Vhttp://dbpedia.org/resource/Ryder
p93
aa(lp94
Vhttp://dbpedia.org/resource/Refrigerant
p95
aa(lp96
aa(lp97
(lp98
Vhttp://dbpedia.org/resource/Southwest_Airlines
p99
aa(lp100
Vhttp://dbpedia.org/resource/Luv
p101
aa(lp102
aa(lp103
(lp104
Vhttp://dbpedia.org/resource/United_Continental_Holdings
p105
aa(lp106
Vhttp://dbpedia.org/resource/University_of_the_Arts_London
p107
aa(lp108
aa(lp109
(lp110
Vhttp://dbpedia.org/resource/Union_Pacific_/_North_Line
p111
aa(lp112
Vhttp://dbpedia.org/resource/United_National_Party
p113
aa(lp114
aa(lp115
(lp116
Vhttp://dbpedia.org/resource/United_Parcel_Service
p117
aa(lp118
Vhttp://dbpedia.org/resource/University_of_Phoenix_Stadium
p119
aa(lp120
Vhttp://dbpedia.org/resource/Delivery_service
p121
aaa.