(lp1
(lp2
(lp3
a(lp4
a(lp5
a(lp6
aa(lp7
(lp8
a(lp9
a(lp10
a(lp11
aa(lp12
(lp13
a(lp14
((lVhttp://dbpedia.org/resource/Kiss_Kiss
tp15
aa(lp16
a(lp17
aa(lp18
(lp19
a(lp20
a(lp21
a(lp22
aa(lp23
(lp24
a(lp25
a(lp26
a(lp27
aa(lp28
(lp29
a(lp30
((lp31
Vhttp://dbpedia.org/class/yago/Abstraction100002137
p32
aVhttp://dbpedia.org/class/yago/AgriculturalGoddesses
p33
aVhttp://dbpedia.org/class/yago/Attribute100024264
p34
aVhttp://dbpedia.org/class/yago/Belief105941423
p35
aVhttp://dbpedia.org/class/yago/CardinalVirtue104847600
p36
aVhttp://dbpedia.org/class/yago/Cognition100023271
p37
aVhttp://dbpedia.org/class/yago/Content105809192
p38
aVhttp://dbpedia.org/class/yago/Deity109505418
p39
aVhttp://dbpedia.org/class/yago/Goddess109535622
p40
aVhttp://dbpedia.org/class/yago/Good104849241
p41
aVhttp://dbpedia.org/class/yago/Quality104723816
p42
aVhttp://dbpedia.org/class/yago/Religion105946687
p43
aVhttp://dbpedia.org/class/yago/SpiritualBeing109504135
p44
aVhttp://dbpedia.org/class/yago/Virtue104847482
p45
aVhttp://dbpedia.org/class/yago/EgyptianGoddesses
p46
aVhttp://dbpedia.org/class/yago/FertilityGoddesses
p47
aVhttp://dbpedia.org/class/yago/Morality104846770
p48
aVhttp://dbpedia.org/class/yago/PsychologicalFeature100023100
p49
aVhttp://dbpedia.org/class/yago/TheologicalVirtue104847991
p50
aVhttp://dbpedia.org/class/yago/HellenisticEgyptianDeities
p51
aVhttp://dbpedia.org/class/yago/Life-death-rebirthGoddesses
p52
aVhttp://dbpedia.org/class/yago/MagicGoddesses
p53
aVhttp://dbpedia.org/class/yago/MotherGoddesses
p54
aVhttp://dbpedia.org/class/yago/MysteryReligions
p55
aVhttp://dbpedia.org/resource/Isis
p56
tp57
aa(lp58
a(lp59
aa(lp60
(lp61
a(lp62
a(lp63
a(lp64
aa.