(lp1
(lp2
(dp3
Vstart
p4
I0
sVdisambiguatedURL
p5
NsVnamedEntity
p6
VTwo Story
p7
sVoffset
p8
I9
saa(lp9
(dp10
Vstart
p11
I0
sVdisambiguatedURL
p12
Vhttp://dbpedia.org/resource/Tide_pool
p13
sVnamedEntity
p14
VPool
p15
sVoffset
p16
I4
saa(lp17
(dp18
Vstart
p19
I0
sVdisambiguatedURL
p20
NsVnamedEntity
p21
VSingle Story
p22
sVoffset
p23
I12
saa(lp24
(dp25
Vstart
p26
I0
sVdisambiguatedURL
p27
Vhttp://dbpedia.org/resource/Tennis_court
p28
sVnamedEntity
p29
VTennis Court
p30
sVoffset
p31
I12
saa(lp32
(dp33
Vstart
p34
I0
sVdisambiguatedURL
p35
NsVnamedEntity
p36
VNew Listings
p37
sVoffset
p38
I12
saa(lp39
(dp40
Vstart
p41
I0
sVdisambiguatedURL
p42
Vhttp://dbpedia.org/resource/Custom_Builder
p43
sVnamedEntity
p44
VCustom Built
p45
sVoffset
p46
I12
saa(lp47
(dp48
Vstart
p49
I0
sVdisambiguatedURL
p50
Vhttp://dbpedia.org/resource/Cul-de-sac_(disambiguation)
p51
sVnamedEntity
p52
VCul De Sac
p53
sVoffset
p54
I10
saa(lp55
(dp56
Vstart
p57
I0
sVdisambiguatedURL
p58
NsVnamedEntity
p59
VPrice Reduced
p60
sVoffset
p61
I13
saa(lp62
(dp63
Vstart
p64
I0
sVdisambiguatedURL
p65
NsVnamedEntity
p66
VGated
p67
sVoffset
p68
I5
saa(lp69
(dp70
Vstart
p71
I0
sVdisambiguatedURL
p72
Vhttp://dbpedia.org/resource/Golf_course
p73
sVnamedEntity
p74
VGolf Course
p75
sVoffset
p76
I11
saa(lp77
(dp78
Vstart
p79
I0
sVdisambiguatedURL
p80
Vhttp://dbpedia.org/resource/Guest_House
p81
sVnamedEntity
p82
VGuest House
p83
sVoffset
p84
I11
saa(lp85
(dp86
Vstart
p87
I0
sVdisambiguatedURL
p88
Vhttp://dbpedia.org/resource/Loft
p89
sVnamedEntity
p90
VLoft
p91
sVoffset
p92
I4
saa(lp93
(dp94
Vstart
p95
I0
sVdisambiguatedURL
p96
Vhttp://dbpedia.org/resource/Foreclosure
p97
sVnamedEntity
p98
VForeclosure
p99
sVoffset
p100
I11
saa(lp101
(dp102
Vstart
p103
I0
sVdisambiguatedURL
p104
Vhttp://dbpedia.org/resource/Ranch1
p105
sVnamedEntity
p106
VRanch
p107
sVoffset
p108
I5
saa(lp109
(dp110
Vstart
p111
I0
sVdisambiguatedURL
p112
Vhttp://dbpedia.org/resource/Short_sale_(real_estate)
p113
sVnamedEntity
p114
VShort Sale
p115
sVoffset
p116
I10
saa.