ccollections
defaultdict
p1
(c__builtin__
dict
p2
tRp3
I0
(dp4
I1
(lp5
sI2
(lp6
sI3
(lp7
ssI1
(dp8
I1
(lp9
sI2
(lp10
sI3
(lp11
ssI2
(dp12
I1
(lp13
sI2
(lp14
Vhttp://dbpedia.org/ontology/nationality
p15
aVhttp://dbpedia.org/property/country
p16
asI3
(lp17
Vhttp://www.w3.org/2000/01/rdf-schema#seeAlso
p18
aVhttp://dbpedia.org/ontology/country
p19
aVhttp://www.w3.org/1999/02/22-rdf-syntax-ns#type
p20
aVhttp://purl.org/dc/terms/subject
p21
aVhttp://dbpedia.org/property/officialLanguages
p22
aVhttp://dbpedia.org/property/origin
p23
aVhttp://dbpedia.org/ontology/nationality
p24
aVhttp://dbpedia.org/ontology/birthPlace
p25
aVhttp://dbpedia.org/property/locationCountry
p26
aVhttp://dbpedia.org/property/location
p27
aVhttp://dbpedia.org/ontology/hometown
p28
aVhttp://dbpedia.org/property/birthPlace
p29
aVhttp://dbpedia.org/property/placeOfBirth
p30
aVhttp://dbpedia.org/property/popplace
p31
aVhttp://dbpedia.org/property/country
p32
aVhttp://dbpedia.org/ontology/officialLanguage
p33
aVhttp://dbpedia.org/ontology/language
p34
aVhttp://dbpedia.org/ontology/populationPlace
p35
assI3
(dp36
I1
(lp37
sI2
(lp38
Vhttp://dbpedia.org/ontology/nationality
p39
aVhttp://dbpedia.org/property/country
p40
asI3
(lp41
Vhttp://www.w3.org/2000/01/rdf-schema#seeAlso
p42
aVhttp://dbpedia.org/ontology/country
p43
aVhttp://www.w3.org/1999/02/22-rdf-syntax-ns#type
p44
aVhttp://purl.org/dc/terms/subject
p45
aVhttp://dbpedia.org/property/officialLanguages
p46
aVhttp://dbpedia.org/property/origin
p47
aVhttp://dbpedia.org/ontology/nationality
p48
aVhttp://dbpedia.org/ontology/birthPlace
p49
aVhttp://dbpedia.org/property/locationCountry
p50
aVhttp://dbpedia.org/property/location
p51
aVhttp://dbpedia.org/ontology/hometown
p52
aVhttp://dbpedia.org/property/birthPlace
p53
aVhttp://dbpedia.org/property/placeOfBirth
p54
aVhttp://dbpedia.org/property/popplace
p55
aVhttp://dbpedia.org/property/country
p56
aVhttp://dbpedia.org/ontology/officialLanguage
p57
aVhttp://dbpedia.org/ontology/language
p58
aVhttp://dbpedia.org/ontology/populationPlace
p59
assI4
(dp60
I1
(lp61
sI2
(lp62
Vhttp://dbpedia.org/ontology/nationality
p63
aVhttp://dbpedia.org/property/country
p64
asI3
(lp65
ssI5
(dp66
I1
(lp67
sI2
(lp68
Vhttp://dbpedia.org/ontology/nationality
p69
aVhttp://dbpedia.org/property/country
p70
asI3
(lp71
Vhttp://www.w3.org/2000/01/rdf-schema#seeAlso
p72
aVhttp://dbpedia.org/ontology/country
p73
aVhttp://www.w3.org/1999/02/22-rdf-syntax-ns#type
p74
aVhttp://purl.org/dc/terms/subject
p75
aVhttp://dbpedia.org/property/officialLanguages
p76
aVhttp://dbpedia.org/property/origin
p77
aVhttp://dbpedia.org/ontology/abstract
p78
aVhttp://dbpedia.org/property/location
p79
aVhttp://dbpedia.org/property/states
p80
aVhttp://dbpedia.org/ontology/hometown
p81
aVhttp://dbpedia.org/property/birthPlace
p82
aVhttp://dbpedia.org/ontology/deathPlace
p83
aVhttp://dbpedia.org/ontology/spokenIn
p84
aVhttp://dbpedia.org/property/country
p85
aVhttp://dbpedia.org/ontology/birthPlace
p86
aVhttp://dbpedia.org/ontology/populationPlace
p87
assI6
(dp88
I1
(lp89
sI2
(lp90
sI3
(lp91
ssI7
(dp92
I1
(lp93
sI2
(lp94
Vhttp://www.w3.org/2000/01/rdf-schema#seeAlso
p95
aVhttp://dbpedia.org/ontology/country
p96
aVhttp://dbpedia.org/ontology/location
p97
aVhttp://dbpedia.org/property/origin
p98
aVhttp://dbpedia.org/property/location
p99
aVhttp://dbpedia.org/property/launchSite
p100
aVhttp://dbpedia.org/property/area
p101
aVhttp://dbpedia.org/ontology/hometown
p102
aVhttp://dbpedia.org/ontology/locationCountry
p103
aVhttp://dbpedia.org/property/country
p104
aVhttp://dbpedia.org/property/locationCountry
p105
aVhttp://dbpedia.org/ontology/broadcastArea
p106
asI3
(lp107
ssI8
(dp108
I1
(lp109
sI2
(lp110
Vhttp://www.w3.org/2000/01/rdf-schema#seeAlso
p111
aVhttp://dbpedia.org/ontology/country
p112
aVhttp://dbpedia.org/property/subdivisionName
p113
aVhttp://dbpedia.org/ontology/location
p114
aVhttp://dbpedia.org/property/origin
p115
aVhttp://dbpedia.org/ontology/hometown
p116
aVhttp://dbpedia.org/ontology/birthPlace
p117
aVhttp://dbpedia.org/property/birthPlace
p118
aVhttp://dbpedia.org/property/deathPlace
p119
aVhttp://dbpedia.org/property/allegiance
p120
aVhttp://dbpedia.org/ontology/nationality
p121
aVhttp://dbpedia.org/ontology/locationCountry
p122
aVhttp://dbpedia.org/property/shortDescription
p123
aVhttp://dbpedia.org/ontology/deathPlace
p124
aVhttp://dbpedia.org/property/placeOfDeath
p125
aVhttp://dbpedia.org/property/location
p126
aVhttp://dbpedia.org/property/country
p127
aVhttp://dbpedia.org/property/locationCountry
p128
aVhttp://dbpedia.org/property/placeOfBirth
p129
asI3
(lp130
Vhttp://dbpedia.org/property/origin
p131
aVhttp://dbpedia.org/property/placeOfDeath
p132
aVhttp://dbpedia.org/property/footnoteA
p133
aVhttp://dbpedia.org/property/footnoteB
p134
aVhttp://dbpedia.org/ontology/country
p135
aVhttp://dbpedia.org/property/region
p136
aVhttp://www.w3.org/1999/02/22-rdf-syntax-ns#type
p137
aVhttp://dbpedia.org/property/allegiance
p138
aVhttp://dbpedia.org/ontology/nationality
p139
aVhttp://dbpedia.org/property/birthPlace
p140
aVhttp://dbpedia.org/ontology/language
p141
aVhttp://dbpedia.org/property/nationality
p142
aVhttp://dbpedia.org/property/country
p143
aVhttp://dbpedia.org/property/regionalLanguages
p144
aVhttp://dbpedia.org/property/placeOfBirth
p145
aVhttp://purl.org/dc/terms/subject
p146
aVhttp://dbpedia.org/ontology/populationPlace
p147
aVhttp://dbpedia.org/ontology/residence
p148
aVhttp://dbpedia.org/property/deathPlace
p149
aVhttp://dbpedia.org/property/location
p150
aVhttp://dbpedia.org/ontology/deathPlace
p151
aVhttp://dbpedia.org/property/subdivisionName
p152
aVhttp://dbpedia.org/ontology/sourceCountry
p153
aVhttp://dbpedia.org/ontology/location
p154
aVhttp://dbpedia.org/property/languages
p155
aVhttp://dbpedia.org/property/basinCountries
p156
aVhttp://dbpedia.org/ontology/regionalLanguage
p157
aVhttp://dbpedia.org/ontology/birthPlace
p158
aVhttp://dbpedia.org/ontology/hometown
p159
aVhttp://dbpedia.org/property/locationCity
p160
aVhttp://dbpedia.org/ontology/spokenIn
p161
aVhttp://dbpedia.org/ontology/stateOfOrigin
p162
aVhttp://dbpedia.org/ontology/locationCity
p163
ass.