(lp1
(lp2
(lp3
a(lp4
a(lp5
a(lp6
a(lp7
a(lp8
a(lp9
a(lp10
a(lp11
a(lp12
a(lp13
a(lp14
a(lp15
a(lp16
aa(lp17
(lp18
a(lp19
a(lp20
a(lp21
a(lp22
a(lp23
a(lp24
a(lp25
a(lp26
a(lp27
a(lp28
a(lp29
Vhttp://dbpedia.org/resource/X86_virtualization
p30
aa(lp31
a(lp32
aa(lp33
(lp34
a(lp35
a(lp36
a(lp37
a(lp38
a(lp39
a(lp40
a(lp41
a(lp42
a(lp43
a(lp44
a(lp45
a(lp46
a(lp47
aa(lp48
(lp49
a(lp50
a(lp51
a(lp52
a(lp53
a(lp54
a(lp55
a(lp56
a(lp57
a(lp58
a(lp59
a(lp60
a(lp61
a(lp62
aa(lp63
(lp64
a(lp65
a(lp66
a(lp67
a(lp68
a(lp69
a(lp70
a(lp71
a(lp72
a(lp73
a(lp74
a(lp75
Vhttp://dbpedia.org/resource/X86_virtualization
p76
aa(lp77
a(lp78
aa(lp79
(lp80
a(lp81
a(lp82
a(lp83
a(lp84
a(lp85
a(lp86
a(lp87
Vhttp://dbpedia.org/resource/Karyopherin
p88
aa(lp89
a(lp90
a(lp91
a(lp92
a(lp93
Vhttp://dbpedia.org/resource/Karyopherin
p94
aa(lp95
aa(lp96
(lp97
a(lp98
a(lp99
a(lp100
a(lp101
a(lp102
a(lp103
a(lp104
a(lp105
a(lp106
a(lp107
a(lp108
a(lp109
a(lp110
aa(lp111
(lp112
a(lp113
a(lp114
a(lp115
a(lp116
a(lp117
a(lp118
a(lp119
a(lp120
a(lp121
a(lp122
a(lp123
Vhttp://dbpedia.org/resource/X86_virtualization
p124
aa(lp125
a(lp126
aa(lp127
(lp128
a(lp129
a(lp130
a(lp131
a(lp132
a(lp133
a(lp134
a(lp135
a(lp136
a(lp137
a(lp138
a(lp139
Vhttp://dbpedia.org/resource/X86_virtualization
p140
aa(lp141
a(lp142
aa(lp143
(lp144
a(lp145
a(lp146
a(lp147
a(lp148
a(lp149
a(lp150
a(lp151
a(lp152
a(lp153
a(lp154
a(lp155
a(lp156
a(lp157
aa(lp158
(lp159
a(lp160
a(lp161
a(lp162
Vhttp://dbpedia.org/resource/Down_to_Earth
p163
aa(lp164
a(lp165
a(lp166
a(lp167
a(lp168
a(lp169
a(lp170
a(lp171
a(lp172
a(lp173
aa(lp174
(lp175
a(lp176
a(lp177
a(lp178
a(lp179
a(lp180
a(lp181
a(lp182
Vhttp://dbpedia.org/resource/Barrel_(unit)
p183
aa(lp184
a(lp185
a(lp186
a(lp187
a(lp188
Vhttp://dbpedia.org/resource/Barrel_(unit)
p189
aa(lp190
aa(lp191
(lp192
a(lp193
a(lp194
a(lp195
a(lp196
a(lp197
a(lp198
a(lp199
a(lp200
a(lp201
a(lp202
a(lp203
a(lp204
a(lp205
aa(lp206
(lp207
a(lp208
a(lp209
a(lp210
a(lp211
a(lp212
a(lp213
a(lp214
a(lp215
a(lp216
a(lp217
a(lp218
a(lp219
a(lp220
aa(lp221
(lp222
a(lp223
a(lp224
a(lp225
Vhttp://dbpedia.org/resource/The_Count_of_Monte_Cristo
p226
aa(lp227
a(lp228
a(lp229
a(lp230
a(lp231
a(lp232
a(lp233
a(lp234
a(lp235
Vhttp://dbpedia.org/resource/Quantum_1/f_noise
p236
aa(lp237
aa(lp238
(lp239
a(lp240
a(lp241
a(lp242
Vhttp://dbpedia.org/resource/Orange_County
p243
aa(lp244
a(lp245
a(lp246
a(lp247
a(lp248
a(lp249
a(lp250
a(lp251
a(lp252
a(lp253
aa(lp254
(lp255
a(lp256
a(lp257
a(lp258
Vhttp://dbpedia.org/resource/Pay_it_forward
p259
aa(lp260
a(lp261
a(lp262
a(lp263
a(lp264
a(lp265
a(lp266
a(lp267
a(lp268
a(lp269
Vhttp://dbpedia.org/resource/X86_virtualization
p270
aaa(lp271
(lp272
a(lp273
a(lp274
a(lp275
a(lp276
a(lp277
a(lp278
a(lp279
a(lp280
a(lp281
a(lp282
a(lp283
a(lp284
a(lp285
aa(lp286
(lp287
a(lp288
a(lp289
a(lp290
Vhttp://dbpedia.org/resource/Black_Hawk_Down
p291
aa(lp292
a(lp293
a(lp294
a(lp295
a(lp296
a(lp297
a(lp298
a(lp299
a(lp300
a(lp301
aa(lp302
(lp303
a(lp304
a(lp305
a(lp306
a(lp307
Vhttp://dbpedia.org/resource/New_Zealand
p308
aa(lp309
a(lp310
a(lp311
a(lp312
a(lp313
a(lp314
a(lp315
a(lp316
a(lp317
aa.