(lp1
(dp2
I0
(dp3
I0
(lp4
sI1
(lp5
sI2
(lp6
sI3
(lp7
sI4
(lp8
sI5
(lp9
sI6
(lp10
sI7
(lp11
sI8
(lp12
sI9
(lp13
sI10
(lp14
sI11
(lp15
sI12
(lp16
sI13
(lp17
ssI1
(dp18
I1
(lp19
sI2
(lp20
sI3
(lp21
sI4
(lp22
sI5
(lp23
sI6
(lp24
sI7
(lp25
sI8
(lp26
sI9
(lp27
sI10
(lp28
sI11
(lp29
sI12
(lp30
sI13
(lp31
ssI2
(dp32
I0
g6
sI1
g20
sI2
(lp33
sI3
(lp34
sI4
(lp35
sI5
(lp36
sI6
(lp37
sI7
(lp38
sI8
(lp39
sI9
(lp40
sI10
(lp41
sI11
(lp42
sI12
(lp43
sI13
(lp44
ssI3
(dp45
I2
g34
sI3
(lp46
sI4
(lp47
sI5
(lp48
sI6
(lp49
sI7
(lp50
sI8
(lp51
sI9
(lp52
sI10
(lp53
sI11
(lp54
sI12
(lp55
sI13
(lp56
ssI4
(dp57
I2
g35
sI4
(lp58
sI5
(lp59
sI6
(lp60
sI7
(lp61
sI8
(lp62
sI9
(lp63
sI10
(lp64
sI11
(lp65
sI12
(lp66
sI13
(lp67
ssI5
(dp68
I2
g36
sI5
(lp69
sI6
(lp70
sI7
(lp71
sI8
(lp72
sI9
(lp73
sI10
(lp74
sI11
(lp75
sI12
(lp76
sI13
(lp77
ssI6
(dp78
I0
g10
sI1
g24
sI2
g37
sI3
g49
sI4
g60
sI5
g70
sI6
(lp79
sI7
(lp80
sI8
(lp81
sI9
(lp82
sI10
(lp83
sI11
(lp84
sI12
(lp85
sI13
(lp86
ssI7
(dp87
I0
g11
sI1
g25
sI2
g38
sI3
g50
sI4
g61
sI5
g71
sI6
g80
sI7
(lp88
sI8
(lp89
sI9
(lp90
sI10
(lp91
sI11
(lp92
sI12
(lp93
sI13
(lp94
ssI8
(dp95
I0
g12
sI1
g26
sI2
g39
sI3
g51
sI4
g62
sI5
g72
sI6
g81
sI7
g89
sI8
(lp96
sI9
(lp97
sI10
(lp98
sI11
(lp99
sI12
(lp100
sI13
(lp101
ssI9
(dp102
I0
g13
sI1
g27
sI2
g40
sI3
g52
sI4
g63
sI5
g73
sI6
g82
sI7
g90
sI8
g97
sI9
(lp103
sI10
(lp104
sI11
(lp105
sI12
(lp106
sI13
(lp107
ssI10
(dp108
I2
g41
sI6
g83
sI7
g91
sI8
g98
sI9
g104
sI10
(lp109
sI11
(lp110
sI12
(lp111
sI13
(lp112
ssI11
(dp113
I2
g42
sI6
g84
sI7
g92
sI8
g99
sI9
g105
sI11
(lp114
sI12
(lp115
sI13
(lp116
ssI12
(dp117
I2
g43
sI6
g85
sI7
g93
sI8
g100
sI9
g106
sI12
(lp118
sI13
(lp119
ssI13
(dp120
I2
g44
sI6
g86
sI7
g94
sI8
g101
sI9
g107
sI13
(lp121
ssa(dp122
I0
(dp123
I0
(lp124
sI1
(lp125
sI2
(lp126
sI3
(lp127
sI4
(lp128
sI5
(lp129
sI6
(lp130
sI7
(lp131
sI8
(lp132
sI9
(lp133
sI10
(lp134
sI11
(lp135
Vhttp://dbpedia.org/ontology/wikiPageExternalLink
p136
aVhttp://www.w3.org/2000/01/rdf-schema#comment
p137
aVhttp://dbpedia.org/ontology/abstract
p138
aVhttp://purl.org/voc/vrank#hasRank
p139
aVhttp://www.w3.org/ns/prov#wasDerivedFrom
p140
aVhttp://www.w3.org/2002/07/owl#sameAs
p141
asI12
(lp142
sI13
(lp143
ssI1
(dp144
I0
g125
sI1
(lp145
sI2
(lp146
sI3
(lp147
sI4
(lp148
sI5
(lp149
sI6
(lp150
sI7
(lp151
sI8
(lp152
sI9
(lp153
sI10
(lp154
sI11
(lp155
sI12
(lp156
sI13
(lp157
ssI2
(dp158
I1
g146
sI2
(lp159
sI3
(lp160
sI4
(lp161
sI5
(lp162
sI6
(lp163
sI7
(lp164
sI8
(lp165
sI9
(lp166
sI10
(lp167
sI11
(lp168
Vhttp://dbpedia.org/ontology/wikiPageExternalLink
p169
aVhttp://www.w3.org/2000/01/rdf-schema#comment
p170
aVhttp://dbpedia.org/ontology/abstract
p171
aVhttp://purl.org/voc/vrank#hasRank
p172
aVhttp://www.w3.org/ns/prov#wasDerivedFrom
p173
aVhttp://www.w3.org/2002/07/owl#sameAs
p174
asI12
(lp175
sI13
(lp176
ssI3
(dp177
I0
g127
sI1
g147
sI2
g160
sI3
(lp178
sI4
(lp179
sI5
(lp180
sI6
(lp181
sI7
(lp182
sI8
(lp183
sI9
(lp184
sI10
(lp185
sI11
(lp186
sI12
(lp187
sI13
(lp188
ssI4
(dp189
I0
g128
sI1
g148
sI2
g161
sI3
g179
sI4
(lp190
sI5
(lp191
sI6
(lp192
sI7
(lp193
sI8
(lp194
sI9
(lp195
sI10
(lp196
sI11
(lp197
Vhttp://dbpedia.org/ontology/abstract
p198
asI12
(lp199
sI13
(lp200
ssI5
(dp201
I0
g129
sI1
g149
sI2
g162
sI3
g180
sI4
g191
sI5
(lp202
sI6
(lp203
sI7
(lp204
sI8
(lp205
sI9
(lp206
sI10
(lp207
sI11
(lp208
sI12
(lp209
sI13
(lp210
ssI6
(dp211
I0
g130
sI1
g150
sI2
g163
sI3
g181
sI4
g192
sI5
g203
sI6
(lp212
sI7
(lp213
sI8
(lp214
sI9
(lp215
sI10
(lp216
sI11
(lp217
Vhttp://dbpedia.org/ontology/abstract
p218
asI12
(lp219
sI13
(lp220
ssI7
(dp221
I0
g131
sI1
g151
sI2
g164
sI3
g182
sI4
g193
sI5
g204
sI6
g213
sI7
(lp222
sI8
(lp223
sI9
(lp224
sI10
(lp225
sI11
(lp226
sI12
(lp227
sI13
(lp228
ssI8
(dp229
I0
g132
sI1
g152
sI2
g165
sI3
g183
sI4
g194
sI5
g205
sI6
g214
sI8
(lp230
sI9
(lp231
sI10
(lp232
sI11
(lp233
sI12
(lp234
sI13
(lp235
ssI9
(dp236
I0
g133
sI1
g153
sI2
g166
sI3
g184
sI4
g195
sI5
g206
sI6
g215
sI9
(lp237
sI10
(lp238
sI11
(lp239
sI12
(lp240
sI13
(lp241
ssI10
(dp242
I0
g134
sI1
g154
sI2
g167
sI3
g185
sI4
g196
sI5
g207
sI6
g216
sI10
(lp243
sI11
(lp244
sI12
(lp245
sI13
(lp246
ssI11
(dp247
I0
g135
sI1
g155
sI2
g168
sI3
g186
sI4
g197
sI5
g208
sI6
g217
sI7
g226
sI8
g233
sI9
g239
sI10
g244
sI11
(lp248
sI12
(lp249
Vhttp://www.w3.org/2000/01/rdf-schema#seeAlso
p250
aVhttp://dbpedia.org/ontology/wikiPageExternalLink
p251
aVhttp://xmlns.com/foaf/0.1/primaryTopic
p252
aVhttp://purl.org/dc/terms/subject
p253
aVhttp://www.w3.org/2000/01/rdf-schema#comment
p254
aVhttp://dbpedia.org/ontology/wikiPageDisambiguates
p255
aVhttp://dbpedia.org/ontology/abstract
p256
aVhttp://dbpedia.org/ontology/wikiPageRedirects
p257
aVhttp://www.w3.org/2002/07/owl#differentFrom
p258
aVhttp://xmlns.com/foaf/0.1/isPrimaryTopicOf
p259
aVhttp://www.w3.org/ns/prov#wasDerivedFrom
p260
aVhttp://dbpedia.org/property/extensions
p261
aVhttp://dbpedia.org/property/hasPhotoCollection
p262
aVhttp://www.w3.org/2000/01/rdf-schema#label
p263
aVhttp://www.w3.org/2002/07/owl#sameAs
p264
asI13
(lp265
ssI12
(dp266
I0
g142
sI1
g156
sI2
g175
sI3
g187
sI4
g199
sI5
g209
sI6
g219
sI7
g227
sI8
g234
sI9
g240
sI10
g245
sI11
g249
sI12
(lp267
sI13
(lp268
ssI13
(dp269
I0
g143
sI1
g157
sI2
g176
sI3
g188
sI4
g200
sI5
g210
sI6
g220
sI7
g228
sI8
g235
sI9
g241
sI10
g246
sI11
g265
sI12
g268
sI13
(lp270
ssa(dp271
I0
(dp272
I0
(lp273
sI1
(lp274
sI2
(lp275
sI3
(lp276
sI4
(lp277
sI5
(lp278
sI6
(lp279
sI7
(lp280
sI8
(lp281
sI9
(lp282
sI10
(lp283
sI11
(lp284
sI12
(lp285
sI13
(lp286
ssI1
(dp287
I0
g274
sI1
(lp288
sI2
(lp289
sI3
(lp290
sI4
(lp291
sI5
(lp292
sI6
(lp293
sI7
(lp294
sI8
(lp295
sI9
(lp296
sI10
(lp297
sI11
(lp298
sI12
(lp299
sI13
(lp300
ssI2
(dp301
I0
g275
sI1
g289
sI2
(lp302
sI3
(lp303
sI4
(lp304
sI5
(lp305
sI6
(lp306
sI7
(lp307
sI8
(lp308
sI9
(lp309
sI10
(lp310
sI11
(lp311
sI12
(lp312
sI13
(lp313
ssI3
(dp314
I0
g276
sI1
g290
sI2
g303
sI3
(lp315
sI4
(lp316
sI5
(lp317
sI6
(lp318
sI7
(lp319
sI8
(lp320
sI9
(lp321
sI10
(lp322
sI11
(lp323
sI12
(lp324
sI13
(lp325
ssI4
(dp326
I0
g277
sI1
g291
sI2
g304
sI3
g316
sI4
(lp327
sI5
(lp328
sI6
(lp329
sI7
(lp330
sI8
(lp331
sI9
(lp332
sI10
(lp333
sI11
(lp334
sI12
(lp335
sI13
(lp336
ssI5
(dp337
I0
g278
sI1
g292
sI2
g305
sI3
g317
sI4
g328
sI5
(lp338
sI6
(lp339
sI7
(lp340
sI8
(lp341
sI9
(lp342
sI10
(lp343
sI11
(lp344
sI12
(lp345
sI13
(lp346
ssI6
(dp347
I0
g279
sI1
g293
sI2
g306
sI3
g318
sI4
g329
sI5
g339
sI6
(lp348
sI7
(lp349
sI8
(lp350
sI9
(lp351
sI10
(lp352
sI11
(lp353
sI12
(lp354
sI13
(lp355
ssI7
(dp356
I0
g280
sI1
g294
sI2
g307
sI3
g319
sI4
g330
sI5
g340
sI6
g349
sI7
(lp357
sI8
(lp358
sI9
(lp359
sI10
(lp360
sI11
(lp361
sI12
(lp362
sI13
(lp363
ssI8
(dp364
I0
g281
sI1
g295
sI3
g320
sI4
g331
sI5
g341
sI6
g350
sI7
g358
sI8
(lp365
sI9
(lp366
sI10
(lp367
sI11
(lp368
sI12
(lp369
sI13
(lp370
ssI9
(dp371
I0
g282
sI1
g296
sI3
g321
sI4
g332
sI5
g342
sI6
g351
sI7
g359
sI9
(lp372
sI10
(lp373
sI11
(lp374
sI12
(lp375
sI13
(lp376
ssI10
(dp377
I0
g283
sI1
g297
sI3
g322
sI4
g333
sI5
g343
sI6
g352
sI7
g360
sI10
(lp378
sI11
(lp379
sI12
(lp380
sI13
(lp381
ssI11
(dp382
I0
g284
sI1
g298
sI2
g311
sI3
g323
sI4
g334
sI5
g344
sI6
g353
sI7
g361
sI8
g368
sI9
g374
sI10
g379
sI11
(lp383
sI12
(lp384
sI13
(lp385
ssI12
(dp386
I0
g285
sI1
g299
sI2
g312
sI3
g324
sI4
g335
sI5
g345
sI6
g354
sI8
g369
sI9
g375
sI10
g380
sI11
g384
sI12
(lp387
sI13
(lp388
ssI13
(dp389
I0
g286
sI1
g300
sI2
g313
sI3
g325
sI4
g336
sI5
g346
sI6
g355
sI7
g363
sI8
g370
sI9
g376
sI10
g381
sI12
g388
sI13
(lp390
ssa(dp391
I0
(dp392
I0
(lp393
sI1
(lp394
sI2
(lp395
sI3
(lp396
sI4
(lp397
sI5
(lp398
sI6
(lp399
sI7
(lp400
sI8
(lp401
sI9
(lp402
sI10
(lp403
sI11
(lp404
sI12
(lp405
sI13
(lp406
ssI1
(dp407
I0
g394
sI1
(lp408
sI2
(lp409
sI3
(lp410
sI4
(lp411
sI5
(lp412
sI6
(lp413
sI7
(lp414
sI8
(lp415
sI9
(lp416
sI10
(lp417
sI11
(lp418
sI12
(lp419
sI13
(lp420
ssI2
(dp421
I0
g395
sI1
g409
sI2
(lp422
sI3
(lp423
sI4
(lp424
sI5
(lp425
sI6
(lp426
sI7
(lp427
sI8
(lp428
sI9
(lp429
sI10
(lp430
sI11
(lp431
sI12
(lp432
sI13
(lp433
ssI3
(dp434
I0
g396
sI1
g410
sI2
g423
sI3
(lp435
sI4
(lp436
sI5
(lp437
sI6
(lp438
sI7
(lp439
sI8
(lp440
sI9
(lp441
sI10
(lp442
sI11
(lp443
sI12
(lp444
sI13
(lp445
ssI4
(dp446
I0
g397
sI1
g411
sI2
g424
sI3
g436
sI4
(lp447
sI5
(lp448
sI6
(lp449
sI7
(lp450
sI8
(lp451
sI9
(lp452
sI10
(lp453
sI11
(lp454
sI12
(lp455
sI13
(lp456
ssI5
(dp457
I0
g398
sI1
g412
sI2
g425
sI3
g437
sI4
g448
sI5
(lp458
sI6
(lp459
sI7
(lp460
sI8
(lp461
sI9
(lp462
sI10
(lp463
sI11
(lp464
sI12
(lp465
sI13
(lp466
ssI6
(dp467
I0
g399
sI1
g413
sI2
g426
sI3
g438
sI4
g449
sI5
g459
sI6
(lp468
sI7
(lp469
sI8
(lp470
sI9
(lp471
sI10
(lp472
sI11
(lp473
sI12
(lp474
sI13
(lp475
ssI7
(dp476
I0
g400
sI1
g414
sI2
g427
sI3
g439
sI4
g450
sI5
g460
sI6
g469
sI7
(lp477
sI8
(lp478
sI9
(lp479
sI10
(lp480
sI11
(lp481
sI12
(lp482
sI13
(lp483
ssI8
(dp484
I0
g401
sI1
g415
sI3
g440
sI4
g451
sI5
g461
sI6
g470
sI7
g478
sI8
(lp485
sI9
(lp486
sI10
(lp487
sI11
(lp488
sI12
(lp489
sI13
(lp490
ssI9
(dp491
I0
g402
sI1
g416
sI3
g441
sI4
g452
sI5
g462
sI6
g471
sI7
g479
sI9
(lp492
sI10
(lp493
sI11
(lp494
sI12
(lp495
sI13
(lp496
ssI10
(dp497
I0
g403
sI1
g417
sI3
g442
sI4
g453
sI5
g463
sI6
g472
sI7
g480
sI10
(lp498
sI11
(lp499
sI12
(lp500
sI13
(lp501
ssI11
(dp502
I0
g404
sI1
g418
sI2
g431
sI3
g443
sI4
g454
sI5
g464
sI6
g473
sI7
g481
sI8
g488
sI9
g494
sI10
g499
sI11
(lp503
sI12
(lp504
sI13
(lp505
ssI12
(dp506
I0
g405
sI1
g419
sI2
g432
sI3
g444
sI4
g455
sI5
g465
sI6
g474
sI8
g489
sI9
g495
sI10
g500
sI11
g504
sI12
(lp507
sI13
(lp508
ssI13
(dp509
I0
g406
sI1
g420
sI2
g433
sI3
g445
sI4
g456
sI5
g466
sI6
g475
sI7
g483
sI8
g490
sI9
g496
sI10
g501
sI12
g508
sI13
(lp510
ssa(dp511
I0
(dp512
I0
(lp513
sI1
(lp514
sI2
(lp515
sI3
(lp516
sI4
(lp517
sI5
(lp518
sI6
(lp519
sI7
(lp520
sI8
(lp521
sI9
(lp522
sI10
(lp523
sI11
(lp524
Vhttp://www.w3.org/ns/prov#wasDerivedFrom
p525
aVhttp://purl.org/voc/vrank#hasRank
p526
aVhttp://www.w3.org/2002/07/owl#differentFrom
p527
aVhttp://www.w3.org/2002/07/owl#sameAs
p528
asI12
(lp529
sI13
(lp530
ssI1
(dp531
I0
g514
sI1
(lp532
sI2
(lp533
sI3
(lp534
sI4
(lp535
sI5
(lp536
sI6
(lp537
sI7
(lp538
sI8
(lp539
sI9
(lp540
sI10
(lp541
sI11
(lp542
sI12
(lp543
sI13
(lp544
ssI2
(dp545
I0
g515
sI1
g533
sI2
(lp546
sI3
(lp547
sI4
(lp548
sI5
(lp549
sI6
(lp550
sI7
(lp551
sI8
(lp552
sI9
(lp553
sI10
(lp554
sI11
(lp555
Vhttp://dbpedia.org/ontology/wikiPageExternalLink
p556
aVhttp://www.w3.org/1999/02/22-rdf-syntax-ns#type
p557
aVhttp://www.w3.org/2000/01/rdf-schema#comment
p558
aVhttp://dbpedia.org/ontology/abstract
p559
aVhttp://purl.org/voc/vrank#hasRank
p560
aVhttp://www.w3.org/ns/prov#wasDerivedFrom
p561
aVhttp://www.w3.org/2002/07/owl#sameAs
p562
asI12
(lp563
sI13
(lp564
ssI3
(dp565
I0
g516
sI1
g534
sI2
g547
sI3
(lp566
sI4
(lp567
sI5
(lp568
sI6
(lp569
sI7
(lp570
sI8
(lp571
sI9
(lp572
sI10
(lp573
sI11
(lp574
sI12
(lp575
sI13
(lp576
ssI4
(dp577
I0
g517
sI1
g535
sI2
g548
sI3
g567
sI4
(lp578
sI5
(lp579
sI6
(lp580
sI7
(lp581
sI8
(lp582
sI9
(lp583
sI10
(lp584
sI11
(lp585
Vhttp://dbpedia.org/ontology/abstract
p586
asI12
(lp587
sI13
(lp588
ssI5
(dp589
I0
g518
sI1
g536
sI2
g549
sI3
g568
sI4
g579
sI5
(lp590
sI6
(lp591
sI7
(lp592
sI8
(lp593
sI9
(lp594
sI10
(lp595
sI11
(lp596
sI12
(lp597
sI13
(lp598
ssI6
(dp599
I0
g519
sI1
g537
sI2
g550
sI3
g569
sI4
g580
sI5
g591
sI6
(lp600
sI7
(lp601
sI8
(lp602
sI9
(lp603
sI10
(lp604
sI11
(lp605
Vhttp://dbpedia.org/ontology/abstract
p606
asI12
(lp607
sI13
(lp608
ssI7
(dp609
I0
g520
sI1
g538
sI2
g551
sI3
g570
sI4
g581
sI5
g592
sI6
g601
sI7
(lp610
sI8
(lp611
sI9
(lp612
sI10
(lp613
sI11
(lp614
sI12
(lp615
sI13
(lp616
ssI8
(dp617
I0
g521
sI1
g539
sI2
g552
sI3
g571
sI4
g582
sI5
g593
sI6
g602
sI8
(lp618
sI9
(lp619
sI10
(lp620
sI11
(lp621
sI12
(lp622
sI13
(lp623
ssI9
(dp624
I0
g522
sI1
g540
sI2
g553
sI3
g572
sI4
g583
sI5
g594
sI6
g603
sI9
(lp625
sI10
(lp626
sI11
(lp627
sI12
(lp628
sI13
(lp629
ssI10
(dp630
I0
g523
sI1
g541
sI2
g554
sI3
g573
sI4
g584
sI5
g595
sI6
g604
sI10
(lp631
sI11
(lp632
sI12
(lp633
sI13
(lp634
ssI11
(dp635
I0
g524
sI1
g542
sI2
g555
sI3
g574
sI4
g585
sI5
g596
sI6
g605
sI7
g614
sI8
g621
sI9
g627
sI10
g632
sI11
(lp636
sI12
(lp637
Vhttp://www.w3.org/2000/01/rdf-schema#seeAlso
p638
aVhttp://dbpedia.org/ontology/wikiPageExternalLink
p639
aVhttp://purl.org/dc/terms/subject
p640
aVhttp://www.w3.org/2000/01/rdf-schema#comment
p641
aVhttp://www.w3.org/2002/07/owl#differentFrom
p642
aVhttp://dbpedia.org/ontology/abstract
p643
aVhttp://dbpedia.org/ontology/wikiPageRedirects
p644
aVhttp://purl.org/voc/vrank#hasRank
p645
aVhttp://dbpedia.org/property/extensions
p646
aVhttp://dbpedia.org/ontology/wikiPageDisambiguates
p647
aVhttp://www.w3.org/2002/07/owl#sameAs
p648
asI13
(lp649
Vhttp://dbpedia.org/ontology/abstract
p650
assI12
(dp651
I0
g529
sI1
g543
sI2
g563
sI3
g575
sI4
g587
sI5
g597
sI6
g607
sI7
g615
sI8
g622
sI9
g628
sI10
g633
sI11
g637
sI12
(lp652
sI13
(lp653
ssI13
(dp654
I0
g530
sI1
g544
sI2
g564
sI3
g576
sI4
g588
sI5
g598
sI6
g608
sI7
g616
sI8
g623
sI9
g629
sI10
g634
sI11
g649
sI12
g653
sI13
(lp655
ssa(dp656
I0
(dp657
I0
(lp658
sI1
(lp659
sI2
(lp660
sI3
(lp661
sI4
(lp662
sI5
(lp663
sI6
(lp664
sI7
(lp665
Vhttp://purl.org/voc/vrank#hasRank
p666
aVhttp://dbpedia.org/property/hasPhotoCollection
p667
aVhttp://www.w3.org/1999/02/22-rdf-syntax-ns#type
p668
asI8
(lp669
sI9
(lp670
sI10
(lp671
sI11
(lp672
sI12
(lp673
Vhttp://purl.org/voc/vrank#hasRank
p674
aVhttp://dbpedia.org/property/hasPhotoCollection
p675
aVhttp://www.w3.org/1999/02/22-rdf-syntax-ns#type
p676
asI13
(lp677
ssI1
(dp678
I0
g659
sI1
(lp679
sI2
(lp680
sI3
(lp681
sI4
(lp682
sI5
(lp683
sI6
(lp684
sI7
(lp685
sI8
(lp686
sI9
(lp687
sI10
(lp688
sI11
(lp689
sI12
(lp690
sI13
(lp691
ssI2
(dp692
I0
g660
sI1
g680
sI2
(lp693
sI3
(lp694
sI4
(lp695
sI5
(lp696
sI6
(lp697
sI7
(lp698
Vhttp://www.w3.org/ns/prov#wasDerivedFrom
p699
aVhttp://dbpedia.org/property/hasPhotoCollection
p700
aVhttp://www.w3.org/1999/02/22-rdf-syntax-ns#type
p701
aVhttp://www.w3.org/2002/07/owl#sameAs
p702
asI8
(lp703
sI9
(lp704
sI10
(lp705
sI11
(lp706
sI12
(lp707
Vhttp://www.w3.org/ns/prov#wasDerivedFrom
p708
aVhttp://dbpedia.org/property/hasPhotoCollection
p709
aVhttp://www.w3.org/1999/02/22-rdf-syntax-ns#type
p710
aVhttp://www.w3.org/2002/07/owl#sameAs
p711
asI13
(lp712
ssI3
(dp713
I0
g661
sI1
g681
sI2
g694
sI3
(lp714
sI4
(lp715
sI5
(lp716
sI6
(lp717
sI7
(lp718
sI8
(lp719
sI9
(lp720
sI10
(lp721
sI11
(lp722
sI12
(lp723
sI13
(lp724
ssI4
(dp725
I0
g662
sI1
g682
sI2
g695
sI3
g715
sI4
(lp726
sI5
(lp727
sI6
(lp728
sI7
(lp729
sI8
(lp730
sI9
(lp731
sI10
(lp732
sI11
(lp733
sI12
(lp734
sI13
(lp735
ssI5
(dp736
I0
g663
sI1
g683
sI2
g696
sI3
g716
sI4
g727
sI5
(lp737
sI6
(lp738
sI7
(lp739
sI8
(lp740
sI9
(lp741
sI10
(lp742
sI11
(lp743
sI12
(lp744
sI13
(lp745
ssI6
(dp746
I0
g664
sI1
g684
sI2
g697
sI3
g717
sI4
g728
sI5
g738
sI6
(lp747
sI7
(lp748
sI8
(lp749
sI9
(lp750
sI10
(lp751
sI11
(lp752
sI12
(lp753
sI13
(lp754
ssI7
(dp755
I0
g665
sI1
g685
sI2
g698
sI3
g718
sI4
g729
sI5
g739
sI6
g748
sI7
(lp756
sI8
(lp757
sI9
(lp758
sI10
(lp759
sI11
(lp760
Vhttp://www.w3.org/ns/prov#wasDerivedFrom
p761
aVhttp://dbpedia.org/property/hasPhotoCollection
p762
aVhttp://www.w3.org/1999/02/22-rdf-syntax-ns#type
p763
aVhttp://www.w3.org/2002/07/owl#sameAs
p764
asI12
(lp765
sI13
(lp766
Vhttp://www.w3.org/ns/prov#wasDerivedFrom
p767
aVhttp://dbpedia.org/property/hasPhotoCollection
p768
aVhttp://www.w3.org/1999/02/22-rdf-syntax-ns#type
p769
aVhttp://www.w3.org/2002/07/owl#sameAs
p770
assI8
(dp771
I0
g669
sI1
g686
sI2
g703
sI3
g719
sI4
g730
sI5
g740
sI6
g749
sI7
g757
sI8
(lp772
sI9
(lp773
sI10
(lp774
sI11
(lp775
sI12
(lp776
sI13
(lp777
ssI9
(dp778
I0
g670
sI1
g687
sI2
g704
sI3
g720
sI4
g731
sI5
g741
sI6
g750
sI7
g758
sI9
(lp779
sI10
(lp780
sI11
(lp781
sI12
(lp782
sI13
(lp783
ssI10
(dp784
I0
g671
sI1
g688
sI2
g705
sI3
g721
sI4
g732
sI5
g742
sI6
g751
sI7
g759
sI10
(lp785
sI11
(lp786
sI12
(lp787
sI13
(lp788
ssI11
(dp789
I0
g672
sI1
g689
sI3
g722
sI4
g733
sI5
g743
sI6
g752
sI7
g760
sI8
g775
sI9
g781
sI10
g786
sI11
(lp790
sI12
(lp791
Vhttp://www.w3.org/ns/prov#wasDerivedFrom
p792
aVhttp://dbpedia.org/property/hasPhotoCollection
p793
aVhttp://www.w3.org/1999/02/22-rdf-syntax-ns#type
p794
aVhttp://www.w3.org/2002/07/owl#sameAs
p795
asI13
(lp796
ssI12
(dp797
I0
g673
sI1
g690
sI2
g707
sI3
g723
sI4
g734
sI5
g744
sI6
g753
sI8
g776
sI9
g782
sI10
g787
sI11
g791
sI12
(lp798
sI13
(lp799
Vhttp://www.w3.org/ns/prov#wasDerivedFrom
p800
aVhttp://dbpedia.org/property/hasPhotoCollection
p801
aVhttp://www.w3.org/1999/02/22-rdf-syntax-ns#type
p802
aVhttp://www.w3.org/2002/07/owl#sameAs
p803
assI13
(dp804
I0
g677
sI1
g691
sI3
g724
sI4
g735
sI5
g745
sI6
g754
sI7
g766
sI8
g777
sI9
g783
sI10
g788
sI12
g799
sI13
(lp805
ssa(dp806
I0
(dp807
I0
(lp808
sI1
(lp809
sI2
(lp810
sI3
(lp811
sI4
(lp812
sI5
(lp813
sI6
(lp814
sI7
(lp815
sI8
(lp816
sI9
(lp817
sI10
(lp818
sI11
(lp819
sI12
(lp820
sI13
(lp821
ssI1
(dp822
I0
g809
sI1
(lp823
sI2
(lp824
sI3
(lp825
sI4
(lp826
sI5
(lp827
sI6
(lp828
sI7
(lp829
sI8
(lp830
sI9
(lp831
sI10
(lp832
sI11
(lp833
sI12
(lp834
sI13
(lp835
ssI2
(dp836
I0
g810
sI1
g824
sI2
(lp837
sI3
(lp838
sI4
(lp839
sI5
(lp840
sI6
(lp841
sI7
(lp842
sI8
(lp843
sI9
(lp844
sI10
(lp845
sI11
(lp846
sI12
(lp847
sI13
(lp848
ssI3
(dp849
I0
g811
sI1
g825
sI2
g838
sI3
(lp850
sI4
(lp851
sI5
(lp852
sI6
(lp853
sI7
(lp854
sI8
(lp855
sI9
(lp856
sI10
(lp857
sI11
(lp858
sI12
(lp859
sI13
(lp860
ssI4
(dp861
I0
g812
sI1
g826
sI2
g839
sI3
g851
sI4
(lp862
sI5
(lp863
sI6
(lp864
sI7
(lp865
sI8
(lp866
sI9
(lp867
sI10
(lp868
sI11
(lp869
sI12
(lp870
sI13
(lp871
ssI5
(dp872
I0
g813
sI1
g827
sI2
g840
sI3
g852
sI4
g863
sI5
(lp873
sI6
(lp874
sI7
(lp875
sI8
(lp876
sI9
(lp877
sI10
(lp878
sI11
(lp879
sI12
(lp880
sI13
(lp881
ssI6
(dp882
I0
g814
sI1
g828
sI2
g841
sI3
g853
sI4
g864
sI5
g874
sI6
(lp883
sI7
(lp884
sI8
(lp885
sI9
(lp886
sI10
(lp887
sI11
(lp888
sI12
(lp889
sI13
(lp890
ssI7
(dp891
I0
g815
sI1
g829
sI2
g842
sI3
g854
sI4
g865
sI5
g875
sI6
g884
sI7
(lp892
sI8
(lp893
sI9
(lp894
sI10
(lp895
sI11
(lp896
sI12
(lp897
sI13
(lp898
ssI8
(dp899
I0
g816
sI1
g830
sI3
g855
sI4
g866
sI5
g876
sI6
g885
sI7
g893
sI8
(lp900
sI9
(lp901
sI10
(lp902
sI11
(lp903
sI12
(lp904
sI13
(lp905
ssI9
(dp906
I0
g817
sI1
g831
sI3
g856
sI4
g867
sI5
g877
sI6
g886
sI7
g894
sI9
(lp907
sI10
(lp908
sI11
(lp909
sI12
(lp910
sI13
(lp911
ssI10
(dp912
I0
g818
sI1
g832
sI3
g857
sI4
g868
sI5
g878
sI6
g887
sI7
g895
sI10
(lp913
sI11
(lp914
sI12
(lp915
sI13
(lp916
ssI11
(dp917
I0
g819
sI1
g833
sI2
g846
sI3
g858
sI4
g869
sI5
g879
sI6
g888
sI7
g896
sI8
g903
sI9
g909
sI10
g914
sI11
(lp918
sI12
(lp919
sI13
(lp920
ssI12
(dp921
I0
g820
sI1
g834
sI2
g847
sI3
g859
sI4
g870
sI5
g880
sI6
g889
sI7
g897
sI8
g904
sI9
g910
sI10
g915
sI11
g919
sI12
(lp922
sI13
(lp923
ssI13
(dp924
I0
g821
sI1
g835
sI2
g848
sI3
g860
sI4
g871
sI5
g881
sI6
g890
sI7
g898
sI8
g905
sI9
g911
sI10
g916
sI11
g920
sI12
g923
sI13
(lp925
ssa(dp926
I0
(dp927
I0
(lp928
sI1
(lp929
sI2
(lp930
sI3
(lp931
sI4
(lp932
sI5
(lp933
sI6
(lp934
sI7
(lp935
sI8
(lp936
sI9
(lp937
sI10
(lp938
sI11
(lp939
Vhttp://www.w3.org/ns/prov#wasDerivedFrom
p940
aVhttp://dbpedia.org/ontology/wikiPageExternalLink
p941
aVhttp://www.w3.org/1999/02/22-rdf-syntax-ns#type
p942
aVhttp://www.w3.org/2002/07/owl#sameAs
p943
aVhttp://purl.org/voc/vrank#hasRank
p944
asI12
(lp945
sI13
(lp946
ssI1
(dp947
I0
g929
sI1
(lp948
sI2
(lp949
sI3
(lp950
sI4
(lp951
sI5
(lp952
sI6
(lp953
sI7
(lp954
sI8
(lp955
sI9
(lp956
sI10
(lp957
sI11
(lp958
sI12
(lp959
sI13
(lp960
ssI2
(dp961
I0
g930
sI1
g949
sI2
(lp962
sI3
(lp963
sI4
(lp964
sI5
(lp965
sI6
(lp966
sI7
(lp967
sI8
(lp968
sI9
(lp969
sI10
(lp970
sI11
(lp971
Vhttp://www.w3.org/ns/prov#wasDerivedFrom
p972
aVhttp://purl.org/voc/vrank#hasRank
p973
aVhttp://www.w3.org/2002/07/owl#differentFrom
p974
aVhttp://www.w3.org/2002/07/owl#sameAs
p975
asI12
(lp976
sI13
(lp977
ssI3
(dp978
I0
g931
sI1
g950
sI2
g963
sI3
(lp979
sI4
(lp980
sI5
(lp981
sI6
(lp982
sI7
(lp983
sI8
(lp984
sI9
(lp985
sI10
(lp986
sI11
(lp987
sI12
(lp988
sI13
(lp989
ssI4
(dp990
I0
g932
sI1
g951
sI2
g964
sI3
g980
sI4
(lp991
sI5
(lp992
sI6
(lp993
sI7
(lp994
sI8
(lp995
sI9
(lp996
sI10
(lp997
sI11
(lp998
Vhttp://dbpedia.org/ontology/abstract
p999
asI12
(lp1000
sI13
(lp1001
ssI5
(dp1002
I0
g933
sI1
g952
sI2
g965
sI3
g981
sI4
g992
sI5
(lp1003
sI6
(lp1004
sI7
(lp1005
sI8
(lp1006
sI9
(lp1007
sI10
(lp1008
sI11
(lp1009
sI12
(lp1010
sI13
(lp1011
ssI6
(dp1012
I0
g934
sI1
g953
sI2
g966
sI3
g982
sI4
g993
sI5
g1004
sI6
(lp1013
sI7
(lp1014
sI8
(lp1015
sI9
(lp1016
sI10
(lp1017
sI11
(lp1018
Vhttp://dbpedia.org/ontology/abstract
p1019
aVhttp://www.w3.org/2000/01/rdf-schema#comment
p1020
asI12
(lp1021
sI13
(lp1022
ssI7
(dp1023
I0
g935
sI1
g954
sI2
g967
sI3
g983
sI4
g994
sI5
g1005
sI6
g1014
sI7
(lp1024
sI8
(lp1025
sI9
(lp1026
sI10
(lp1027
sI11
(lp1028
sI12
(lp1029
sI13
(lp1030
ssI8
(dp1031
I0
g936
sI1
g955
sI2
g968
sI3
g984
sI4
g995
sI5
g1006
sI6
g1015
sI8
(lp1032
sI9
(lp1033
sI10
(lp1034
sI11
(lp1035
sI12
(lp1036
sI13
(lp1037
ssI9
(dp1038
I0
g937
sI1
g956
sI2
g969
sI3
g985
sI4
g996
sI5
g1007
sI6
g1016
sI9
(lp1039
sI10
(lp1040
sI11
(lp1041
sI12
(lp1042
sI13
(lp1043
ssI10
(dp1044
I0
g938
sI1
g957
sI2
g970
sI3
g986
sI4
g997
sI5
g1008
sI6
g1017
sI10
(lp1045
sI11
(lp1046
sI12
(lp1047
sI13
(lp1048
ssI11
(dp1049
I0
g939
sI1
g958
sI2
g971
sI3
g987
sI4
g998
sI5
g1009
sI6
g1018
sI7
g1028
sI8
g1035
sI9
g1041
sI10
g1046
sI11
(lp1050
sI12
(lp1051
Vhttp://www.w3.org/2000/01/rdf-schema#seeAlso
p1052
aVhttp://dbpedia.org/ontology/wikiPageExternalLink
p1053
aVhttp://purl.org/dc/terms/subject
p1054
aVhttp://www.w3.org/2000/01/rdf-schema#comment
p1055
aVhttp://dbpedia.org/ontology/wikiPageDisambiguates
p1056
aVhttp://dbpedia.org/ontology/abstract
p1057
aVhttp://dbpedia.org/ontology/wikiPageRedirects
p1058
aVhttp://www.w3.org/2002/07/owl#differentFrom
p1059
aVhttp://dbpedia.org/property/extensions
p1060
aVhttp://dbpedia.org/property/hasPhotoCollection
p1061
aVhttp://www.w3.org/2000/01/rdf-schema#label
p1062
aVhttp://www.w3.org/2002/07/owl#sameAs
p1063
asI13
(lp1064
Vhttp://dbpedia.org/ontology/wikiPageExternalLink
p1065
assI12
(dp1066
I0
g945
sI1
g959
sI2
g976
sI3
g988
sI4
g1000
sI5
g1010
sI6
g1021
sI7
g1029
sI8
g1036
sI9
g1042
sI10
g1047
sI11
g1051
sI12
(lp1067
sI13
(lp1068
ssI13
(dp1069
I0
g946
sI1
g960
sI2
g977
sI3
g989
sI4
g1001
sI5
g1011
sI6
g1022
sI7
g1030
sI8
g1037
sI9
g1043
sI10
g1048
sI11
g1064
sI12
g1068
sI13
(lp1070
ssa(dp1071
I0
(dp1072
I0
(lp1073
sI1
(lp1074
sI2
(lp1075
sI3
(lp1076
sI4
(lp1077
sI5
(lp1078
sI6
(lp1079
sI7
(lp1080
sI8
(lp1081
sI9
(lp1082
sI10
(lp1083
sI11
(lp1084
Vhttp://dbpedia.org/ontology/wikiPageExternalLink
p1085
aVhttp://xmlns.com/foaf/0.1/primaryTopic
p1086
aVhttp://purl.org/dc/terms/subject
p1087
aVhttp://www.w3.org/2000/01/rdf-schema#comment
p1088
aVhttp://dbpedia.org/ontology/abstract
p1089
aVhttp://dbpedia.org/ontology/wikiPageRedirects
p1090
aVhttp://xmlns.com/foaf/0.1/isPrimaryTopicOf
p1091
aVhttp://www.w3.org/ns/prov#wasDerivedFrom
p1092
aVhttp://dbpedia.org/property/hasPhotoCollection
p1093
aVhttp://www.w3.org/2000/01/rdf-schema#label
p1094
aVhttp://www.w3.org/2002/07/owl#sameAs
p1095
asI12
(lp1096
sI13
(lp1097
ssI1
(dp1098
I0
g1074
sI1
(lp1099
sI2
(lp1100
sI3
(lp1101
sI4
(lp1102
sI5
(lp1103
sI6
(lp1104
sI7
(lp1105
sI8
(lp1106
sI9
(lp1107
sI10
(lp1108
sI11
(lp1109
sI12
(lp1110
sI13
(lp1111
ssI2
(dp1112
I0
g1075
sI1
g1100
sI2
(lp1113
sI3
(lp1114
sI4
(lp1115
sI5
(lp1116
sI6
(lp1117
sI7
(lp1118
sI8
(lp1119
sI9
(lp1120
sI10
(lp1121
sI11
(lp1122
Vhttp://www.w3.org/2000/01/rdf-schema#comment
p1123
aVhttp://dbpedia.org/ontology/abstract
p1124
aVhttp://purl.org/voc/vrank#hasRank
p1125
aVhttp://www.w3.org/ns/prov#wasDerivedFrom
p1126
aVhttp://dbpedia.org/property/hasPhotoCollection
p1127
aVhttp://www.w3.org/2002/07/owl#sameAs
p1128
asI12
(lp1129
sI13
(lp1130
ssI3
(dp1131
I0
g1076
sI1
g1101
sI2
g1114
sI3
(lp1132
sI4
(lp1133
sI5
(lp1134
sI6
(lp1135
sI7
(lp1136
sI8
(lp1137
sI9
(lp1138
sI10
(lp1139
sI11
(lp1140
sI12
(lp1141
sI13
(lp1142
ssI4
(dp1143
I0
g1077
sI1
g1102
sI2
g1115
sI3
g1133
sI4
(lp1144
sI5
(lp1145
sI6
(lp1146
sI7
(lp1147
sI8
(lp1148
sI9
(lp1149
sI10
(lp1150
sI11
(lp1151
Vhttp://dbpedia.org/ontology/abstract
p1152
asI12
(lp1153
sI13
(lp1154
ssI5
(dp1155
I0
g1078
sI1
g1103
sI2
g1116
sI3
g1134
sI4
g1145
sI5
(lp1156
sI6
(lp1157
sI7
(lp1158
sI8
(lp1159
sI9
(lp1160
sI10
(lp1161
sI11
(lp1162
sI12
(lp1163
sI13
(lp1164
ssI6
(dp1165
I0
g1079
sI1
g1104
sI2
g1117
sI3
g1135
sI4
g1146
sI5
g1157
sI6
(lp1166
sI7
(lp1167
sI8
(lp1168
sI9
(lp1169
sI10
(lp1170
sI11
(lp1171
Vhttp://dbpedia.org/ontology/abstract
p1172
asI12
(lp1173
sI13
(lp1174
ssI7
(dp1175
I0
g1080
sI1
g1105
sI2
g1118
sI3
g1136
sI4
g1147
sI5
g1158
sI6
g1167
sI7
(lp1176
sI8
(lp1177
sI9
(lp1178
sI10
(lp1179
sI11
(lp1180
sI12
(lp1181
sI13
(lp1182
ssI8
(dp1183
I0
g1081
sI1
g1106
sI2
g1119
sI3
g1137
sI4
g1148
sI5
g1159
sI6
g1168
sI8
(lp1184
sI9
(lp1185
sI10
(lp1186
sI11
(lp1187
sI12
(lp1188
sI13
(lp1189
ssI9
(dp1190
I0
g1082
sI1
g1107
sI2
g1120
sI3
g1138
sI4
g1149
sI5
g1160
sI6
g1169
sI9
(lp1191
sI10
(lp1192
sI11
(lp1193
sI12
(lp1194
sI13
(lp1195
ssI10
(dp1196
I0
g1083
sI1
g1108
sI2
g1121
sI3
g1139
sI4
g1150
sI5
g1161
sI6
g1170
sI10
(lp1197
sI11
(lp1198
sI12
(lp1199
sI13
(lp1200
ssI11
(dp1201
I0
g1084
sI1
g1109
sI2
g1122
sI3
g1140
sI4
g1151
sI5
g1162
sI6
g1171
sI7
g1180
sI8
g1187
sI9
g1193
sI10
g1198
sI11
(lp1202
sI12
(lp1203
Vhttp://www.w3.org/2000/01/rdf-schema#seeAlso
p1204
aVhttp://dbpedia.org/ontology/wikiPageExternalLink
p1205
aVhttp://purl.org/dc/terms/subject
p1206
aVhttp://www.w3.org/2000/01/rdf-schema#comment
p1207
aVhttp://dbpedia.org/ontology/wikiPageDisambiguates
p1208
aVhttp://dbpedia.org/ontology/abstract
p1209
aVhttp://dbpedia.org/ontology/wikiPageRedirects
p1210
aVhttp://www.w3.org/2002/07/owl#differentFrom
p1211
aVhttp://dbpedia.org/property/extensions
p1212
aVhttp://dbpedia.org/property/hasPhotoCollection
p1213
aVhttp://www.w3.org/2000/01/rdf-schema#label
p1214
aVhttp://www.w3.org/2002/07/owl#sameAs
p1215
asI13
(lp1216
Vhttp://dbpedia.org/ontology/wikiPageExternalLink
p1217
aVhttp://www.w3.org/1999/02/22-rdf-syntax-ns#type
p1218
aVhttp://www.w3.org/2000/01/rdf-schema#comment
p1219
aVhttp://dbpedia.org/ontology/abstract
p1220
aVhttp://purl.org/voc/vrank#hasRank
p1221
aVhttp://www.w3.org/ns/prov#wasDerivedFrom
p1222
aVhttp://www.w3.org/2002/07/owl#sameAs
p1223
assI12
(dp1224
I0
g1096
sI1
g1110
sI2
g1129
sI3
g1141
sI4
g1153
sI5
g1163
sI6
g1173
sI7
g1181
sI8
g1188
sI9
g1194
sI10
g1199
sI11
g1203
sI12
(lp1225
sI13
(lp1226
ssI13
(dp1227
I0
g1097
sI1
g1111
sI2
g1130
sI3
g1142
sI4
g1154
sI5
g1164
sI6
g1174
sI7
g1182
sI8
g1189
sI9
g1195
sI10
g1200
sI11
g1216
sI12
g1226
sI13
(lp1228
ssa(dp1229
I0
(dp1230
I0
(lp1231
sI1
(lp1232
sI2
(lp1233
sI3
(lp1234
sI4
(lp1235
sI5
(lp1236
sI6
(lp1237
sI7
(lp1238
sI8
(lp1239
sI9
(lp1240
sI10
(lp1241
sI11
(lp1242
sI12
(lp1243
sI13
(lp1244
ssI1
(dp1245
I0
g1232
sI1
(lp1246
sI2
(lp1247
sI3
(lp1248
sI4
(lp1249
sI5
(lp1250
sI6
(lp1251
sI7
(lp1252
sI8
(lp1253
sI9
(lp1254
sI10
(lp1255
sI11
(lp1256
sI12
(lp1257
sI13
(lp1258
ssI2
(dp1259
I0
g1233
sI1
g1247
sI2
(lp1260
sI3
(lp1261
sI4
(lp1262
sI5
(lp1263
sI6
(lp1264
sI7
(lp1265
sI8
(lp1266
sI9
(lp1267
sI10
(lp1268
sI11
(lp1269
sI12
(lp1270
sI13
(lp1271
ssI3
(dp1272
I0
g1234
sI1
g1248
sI2
g1261
sI3
(lp1273
sI4
(lp1274
sI5
(lp1275
sI6
(lp1276
sI7
(lp1277
sI8
(lp1278
sI9
(lp1279
sI10
(lp1280
sI11
(lp1281
sI12
(lp1282
sI13
(lp1283
ssI4
(dp1284
I0
g1235
sI1
g1249
sI2
g1262
sI3
g1274
sI4
(lp1285
sI5
(lp1286
sI6
(lp1287
sI7
(lp1288
sI8
(lp1289
sI9
(lp1290
sI10
(lp1291
sI11
(lp1292
sI12
(lp1293
sI13
(lp1294
ssI5
(dp1295
I0
g1236
sI1
g1250
sI2
g1263
sI3
g1275
sI4
g1286
sI5
(lp1296
sI6
(lp1297
sI7
(lp1298
sI8
(lp1299
sI9
(lp1300
sI10
(lp1301
sI11
(lp1302
sI12
(lp1303
sI13
(lp1304
ssI6
(dp1305
I0
g1237
sI1
g1251
sI2
g1264
sI3
g1276
sI4
g1287
sI5
g1297
sI6
(lp1306
sI7
(lp1307
sI8
(lp1308
sI9
(lp1309
sI10
(lp1310
sI11
(lp1311
sI12
(lp1312
sI13
(lp1313
ssI7
(dp1314
I0
g1238
sI1
g1252
sI2
g1265
sI3
g1277
sI4
g1288
sI5
g1298
sI6
g1307
sI7
(lp1315
sI8
(lp1316
sI9
(lp1317
sI10
(lp1318
sI11
(lp1319
sI12
(lp1320
sI13
(lp1321
ssI8
(dp1322
I0
g1239
sI1
g1253
sI3
g1278
sI4
g1289
sI5
g1299
sI6
g1308
sI7
g1316
sI8
(lp1323
sI9
(lp1324
sI10
(lp1325
sI11
(lp1326
sI12
(lp1327
sI13
(lp1328
ssI9
(dp1329
I0
g1240
sI1
g1254
sI3
g1279
sI4
g1290
sI5
g1300
sI6
g1309
sI7
g1317
sI9
(lp1330
sI10
(lp1331
sI11
(lp1332
sI12
(lp1333
sI13
(lp1334
ssI10
(dp1335
I0
g1241
sI1
g1255
sI3
g1280
sI4
g1291
sI5
g1301
sI6
g1310
sI7
g1318
sI10
(lp1336
sI11
(lp1337
sI12
(lp1338
sI13
(lp1339
ssI11
(dp1340
I0
g1242
sI1
g1256
sI2
g1269
sI3
g1281
sI4
g1292
sI5
g1302
sI6
g1311
sI7
g1319
sI8
g1326
sI9
g1332
sI10
g1337
sI11
(lp1341
sI12
(lp1342
sI13
(lp1343
ssI12
(dp1344
I0
g1243
sI1
g1257
sI2
g1270
sI3
g1282
sI4
g1293
sI5
g1303
sI6
g1312
sI7
g1320
sI8
g1327
sI9
g1333
sI10
g1338
sI11
g1342
sI12
(lp1345
sI13
(lp1346
ssI13
(dp1347
I0
g1244
sI1
g1258
sI2
g1271
sI3
g1283
sI4
g1294
sI5
g1304
sI6
g1313
sI7
g1321
sI8
g1328
sI9
g1334
sI10
g1339
sI11
g1343
sI12
g1346
sI13
(lp1348
ssa(dp1349
I0
(dp1350
I0
(lp1351
sI1
(lp1352
sI2
(lp1353
sI3
(lp1354
sI4
(lp1355
sI5
(lp1356
sI6
(lp1357
sI7
(lp1358
sI8
(lp1359
sI9
(lp1360
sI10
(lp1361
sI11
(lp1362
sI12
(lp1363
sI13
(lp1364
ssI1
(dp1365
I0
g1352
sI1
(lp1366
sI2
(lp1367
sI3
(lp1368
sI4
(lp1369
sI5
(lp1370
sI6
(lp1371
sI7
(lp1372
sI8
(lp1373
sI9
(lp1374
sI10
(lp1375
sI11
(lp1376
sI12
(lp1377
sI13
(lp1378
ssI2
(dp1379
I0
g1353
sI1
g1367
sI2
(lp1380
sI3
(lp1381
Vhttp://www.w3.org/ns/prov#wasDerivedFrom
p1382
aVhttp://www.w3.org/2002/07/owl#sameAs
p1383
asI4
(lp1384
sI5
(lp1385
sI6
(lp1386
sI7
(lp1387
sI8
(lp1388
sI9
(lp1389
sI10
(lp1390
sI11
(lp1391
sI12
(lp1392
sI13
(lp1393
ssI3
(dp1394
I0
g1354
sI1
g1368
sI2
g1381
sI3
(lp1395
sI4
(lp1396
sI5
(lp1397
sI6
(lp1398
Vhttp://dbpedia.org/ontology/wikiPageDisambiguates
p1399
asI7
(lp1400
Vhttp://www.w3.org/2000/01/rdf-schema#label
p1401
aVhttp://dbpedia.org/ontology/wikiPageDisambiguates
p1402
aVhttp://dbpedia.org/ontology/wikiPageRedirects
p1403
aVhttp://www.w3.org/2002/07/owl#sameAs
p1404
asI8
(lp1405
sI9
(lp1406
sI10
(lp1407
sI11
(lp1408
sI12
(lp1409
Vhttp://xmlns.com/foaf/0.1/primaryTopic
p1410
aVhttp://dbpedia.org/ontology/wikiPageDisambiguates
p1411
aVhttp://dbpedia.org/ontology/wikiPageRedirects
p1412
aVhttp://purl.org/voc/vrank#hasRank
p1413
aVhttp://xmlns.com/foaf/0.1/isPrimaryTopicOf
p1414
aVhttp://www.w3.org/ns/prov#wasDerivedFrom
p1415
aVhttp://www.w3.org/2000/01/rdf-schema#label
p1416
aVhttp://www.w3.org/2002/07/owl#sameAs
p1417
asI13
(lp1418
Vhttp://dbpedia.org/ontology/wikiPageDisambiguates
p1419
assI4
(dp1420
I0
g1355
sI1
g1369
sI2
g1384
sI3
g1396
sI4
(lp1421
sI5
(lp1422
sI6
(lp1423
sI7
(lp1424
sI8
(lp1425
sI9
(lp1426
sI10
(lp1427
sI11
(lp1428
sI12
(lp1429
sI13
(lp1430
ssI5
(dp1431
I0
g1356
sI1
g1370
sI2
g1385
sI3
g1397
sI4
g1422
sI5
(lp1432
sI6
(lp1433
sI7
(lp1434
sI8
(lp1435
sI9
(lp1436
sI10
(lp1437
sI11
(lp1438
sI12
(lp1439
sI13
(lp1440
ssI6
(dp1441
I0
g1357
sI1
g1371
sI2
g1386
sI3
g1398
sI4
g1423
sI5
g1433
sI6
(lp1442
sI7
(lp1443
sI8
(lp1444
sI9
(lp1445
sI10
(lp1446
sI11
(lp1447
sI12
(lp1448
sI13
(lp1449
ssI7
(dp1450
I0
g1358
sI1
g1372
sI2
g1387
sI3
g1400
sI4
g1424
sI5
g1434
sI6
g1443
sI7
(lp1451
sI8
(lp1452
sI9
(lp1453
sI10
(lp1454
sI11
(lp1455
sI12
(lp1456
sI13
(lp1457
ssI8
(dp1458
I0
g1359
sI1
g1373
sI2
g1388
sI3
g1405
sI4
g1425
sI5
g1435
sI6
g1444
sI7
g1452
sI8
(lp1459
sI9
(lp1460
sI10
(lp1461
sI11
(lp1462
sI12
(lp1463
sI13
(lp1464
ssI9
(dp1465
I0
g1360
sI1
g1374
sI2
g1389
sI3
g1406
sI4
g1426
sI5
g1436
sI6
g1445
sI7
g1453
sI9
(lp1466
sI10
(lp1467
sI11
(lp1468
sI12
(lp1469
sI13
(lp1470
ssI10
(dp1471
I0
g1361
sI1
g1375
sI2
g1390
sI3
g1407
sI4
g1427
sI5
g1437
sI6
g1446
sI7
g1454
sI10
(lp1472
sI11
(lp1473
sI12
(lp1474
sI13
(lp1475
ssI11
(dp1476
I0
g1362
sI1
g1376
sI2
g1391
sI3
g1408
sI4
g1428
sI5
g1438
sI6
g1447
sI7
g1455
sI8
g1462
sI9
g1468
sI10
g1473
sI11
(lp1477
sI12
(lp1478
sI13
(lp1479
ssI12
(dp1480
I0
g1363
sI1
g1377
sI2
g1392
sI3
g1409
sI4
g1429
sI5
g1439
sI6
g1448
sI7
g1456
sI8
g1463
sI9
g1469
sI10
g1474
sI11
g1478
sI12
(lp1481
sI13
(lp1482
ssI13
(dp1483
I0
g1364
sI1
g1378
sI2
g1393
sI3
g1418
sI4
g1430
sI5
g1440
sI6
g1449
sI7
g1457
sI8
g1464
sI9
g1470
sI10
g1475
sI11
g1479
sI12
g1482
sI13
(lp1484
ssa(dp1485
I0
(dp1486
I0
(lp1487
sI1
(lp1488
sI2
(lp1489
sI3
(lp1490
sI4
(lp1491
sI5
(lp1492
sI6
(lp1493
sI7
(lp1494
Vhttp://dbpedia.org/ontology/abstract
p1495
aVhttp://www.w3.org/1999/02/22-rdf-syntax-ns#type
p1496
aVhttp://www.w3.org/2000/01/rdf-schema#comment
p1497
asI8
(lp1498
sI9
(lp1499
sI10
(lp1500
sI11
(lp1501
sI12
(lp1502
Vhttp://dbpedia.org/ontology/abstract
p1503
aVhttp://www.w3.org/1999/02/22-rdf-syntax-ns#type
p1504
aVhttp://www.w3.org/2000/01/rdf-schema#comment
p1505
asI13
(lp1506
ssI1
(dp1507
I0
g1488
sI1
(lp1508
sI2
(lp1509
sI3
(lp1510
sI4
(lp1511
sI5
(lp1512
sI6
(lp1513
sI7
(lp1514
sI8
(lp1515
sI9
(lp1516
sI10
(lp1517
sI11
(lp1518
sI12
(lp1519
sI13
(lp1520
ssI2
(dp1521
I0
g1489
sI1
g1509
sI2
(lp1522
sI3
(lp1523
sI4
(lp1524
sI5
(lp1525
sI6
(lp1526
sI7
(lp1527
Vhttp://dbpedia.org/ontology/abstract
p1528
aVhttp://www.w3.org/1999/02/22-rdf-syntax-ns#type
p1529
aVhttp://www.w3.org/2002/07/owl#sameAs
p1530
aVhttp://www.w3.org/2000/01/rdf-schema#comment
p1531
asI8
(lp1532
sI9
(lp1533
sI10
(lp1534
sI11
(lp1535
sI12
(lp1536
Vhttp://dbpedia.org/ontology/abstract
p1537
aVhttp://www.w3.org/1999/02/22-rdf-syntax-ns#type
p1538
aVhttp://www.w3.org/2002/07/owl#sameAs
p1539
aVhttp://www.w3.org/2000/01/rdf-schema#comment
p1540
asI13
(lp1541
ssI3
(dp1542
I0
g1490
sI1
g1510
sI2
g1523
sI3
(lp1543
sI4
(lp1544
sI5
(lp1545
sI6
(lp1546
sI7
(lp1547
sI8
(lp1548
sI9
(lp1549
sI10
(lp1550
sI11
(lp1551
sI12
(lp1552
sI13
(lp1553
ssI4
(dp1554
I0
g1491
sI1
g1511
sI2
g1524
sI3
g1544
sI4
(lp1555
sI5
(lp1556
sI6
(lp1557
sI7
(lp1558
Vhttp://dbpedia.org/ontology/abstract
p1559
aVhttp://www.w3.org/2000/01/rdf-schema#comment
p1560
asI8
(lp1561
sI9
(lp1562
sI10
(lp1563
sI11
(lp1564
sI12
(lp1565
Vhttp://dbpedia.org/ontology/abstract
p1566
aVhttp://www.w3.org/2000/01/rdf-schema#comment
p1567
asI13
(lp1568
ssI5
(dp1569
I0
g1492
sI1
g1512
sI2
g1525
sI3
g1545
sI4
g1556
sI5
(lp1570
sI6
(lp1571
sI7
(lp1572
sI8
(lp1573
sI9
(lp1574
sI10
(lp1575
sI11
(lp1576
sI12
(lp1577
sI13
(lp1578
ssI6
(dp1579
I0
g1493
sI1
g1513
sI2
g1526
sI3
g1546
sI4
g1557
sI5
g1571
sI6
(lp1580
sI7
(lp1581
sI8
(lp1582
sI9
(lp1583
sI10
(lp1584
sI11
(lp1585
sI12
(lp1586
sI13
(lp1587
ssI7
(dp1588
I0
g1494
sI1
g1514
sI2
g1527
sI3
g1547
sI4
g1558
sI5
g1572
sI6
g1581
sI7
(lp1589
sI8
(lp1590
sI9
(lp1591
sI10
(lp1592
sI11
(lp1593
Vhttp://www.w3.org/ns/prov#wasDerivedFrom
p1594
aVhttp://dbpedia.org/ontology/abstract
p1595
aVhttp://www.w3.org/1999/02/22-rdf-syntax-ns#type
p1596
aVhttp://www.w3.org/2002/07/owl#sameAs
p1597
aVhttp://www.w3.org/2000/01/rdf-schema#comment
p1598
asI12
(lp1599
sI13
(lp1600
Vhttp://www.w3.org/ns/prov#wasDerivedFrom
p1601
aVhttp://dbpedia.org/ontology/abstract
p1602
aVhttp://www.w3.org/1999/02/22-rdf-syntax-ns#type
p1603
aVhttp://www.w3.org/2002/07/owl#sameAs
p1604
aVhttp://www.w3.org/2000/01/rdf-schema#comment
p1605
assI8
(dp1606
I0
g1498
sI1
g1515
sI2
g1532
sI3
g1548
sI4
g1561
sI5
g1573
sI6
g1582
sI7
g1590
sI8
(lp1607
sI9
(lp1608
sI10
(lp1609
sI11
(lp1610
sI12
(lp1611
sI13
(lp1612
ssI9
(dp1613
I0
g1499
sI1
g1516
sI2
g1533
sI3
g1549
sI4
g1562
sI5
g1574
sI6
g1583
sI7
g1591
sI9
(lp1614
sI10
(lp1615
sI11
(lp1616
sI12
(lp1617
sI13
(lp1618
ssI10
(dp1619
I0
g1500
sI1
g1517
sI2
g1534
sI3
g1550
sI4
g1563
sI5
g1575
sI6
g1584
sI7
g1592
sI10
(lp1620
sI11
(lp1621
sI12
(lp1622
sI13
(lp1623
ssI11
(dp1624
I0
g1501
sI1
g1518
sI2
g1535
sI3
g1551
sI4
g1564
sI5
g1576
sI6
g1585
sI7
g1593
sI8
g1610
sI9
g1616
sI10
g1621
sI11
(lp1625
sI12
(lp1626
Vhttp://www.w3.org/ns/prov#wasDerivedFrom
p1627
aVhttp://dbpedia.org/ontology/abstract
p1628
aVhttp://www.w3.org/1999/02/22-rdf-syntax-ns#type
p1629
aVhttp://www.w3.org/2002/07/owl#sameAs
p1630
aVhttp://www.w3.org/2000/01/rdf-schema#comment
p1631
asI13
(lp1632
ssI12
(dp1633
I0
g1502
sI1
g1519
sI2
g1536
sI3
g1552
sI4
g1565
sI5
g1577
sI6
g1586
sI8
g1611
sI9
g1617
sI10
g1622
sI11
g1626
sI12
(lp1634
sI13
(lp1635
Vhttp://www.w3.org/ns/prov#wasDerivedFrom
p1636
aVhttp://dbpedia.org/ontology/abstract
p1637
aVhttp://www.w3.org/1999/02/22-rdf-syntax-ns#type
p1638
aVhttp://www.w3.org/2002/07/owl#sameAs
p1639
aVhttp://www.w3.org/2000/01/rdf-schema#comment
p1640
assI13
(dp1641
I0
g1506
sI1
g1520
sI2
g1541
sI3
g1553
sI4
g1568
sI5
g1578
sI6
g1587
sI7
g1600
sI8
g1612
sI9
g1618
sI10
g1623
sI12
g1635
sI13
(lp1642
ssa(dp1643
I0
(dp1644
I0
(lp1645
sI1
(lp1646
sI2
(lp1647
sI3
(lp1648
sI4
(lp1649
sI5
(lp1650
sI6
(lp1651
sI7
(lp1652
sI8
(lp1653
sI9
(lp1654
sI10
(lp1655
sI11
(lp1656
sI12
(lp1657
sI13
(lp1658
ssI1
(dp1659
I0
g1646
sI1
(lp1660
sI2
(lp1661
sI3
(lp1662
sI4
(lp1663
sI5
(lp1664
sI6
(lp1665
sI7
(lp1666
sI8
(lp1667
sI9
(lp1668
sI10
(lp1669
sI11
(lp1670
sI12
(lp1671
sI13
(lp1672
ssI2
(dp1673
I0
g1647
sI1
g1661
sI2
(lp1674
sI3
(lp1675
sI4
(lp1676
sI5
(lp1677
sI6
(lp1678
sI7
(lp1679
sI8
(lp1680
sI9
(lp1681
sI10
(lp1682
sI11
(lp1683
sI12
(lp1684
sI13
(lp1685
ssI3
(dp1686
I0
g1648
sI1
g1662
sI2
g1675
sI3
(lp1687
sI4
(lp1688
sI5
(lp1689
sI6
(lp1690
sI7
(lp1691
sI8
(lp1692
sI9
(lp1693
sI10
(lp1694
sI11
(lp1695
sI12
(lp1696
sI13
(lp1697
ssI4
(dp1698
I0
g1649
sI1
g1663
sI2
g1676
sI3
g1688
sI4
(lp1699
sI5
(lp1700
sI6
(lp1701
sI7
(lp1702
sI8
(lp1703
sI9
(lp1704
sI10
(lp1705
sI11
(lp1706
sI12
(lp1707
sI13
(lp1708
ssI5
(dp1709
I0
g1650
sI1
g1664
sI2
g1677
sI3
g1689
sI4
g1700
sI5
(lp1710
sI6
(lp1711
sI7
(lp1712
sI8
(lp1713
sI9
(lp1714
sI10
(lp1715
sI11
(lp1716
sI12
(lp1717
sI13
(lp1718
ssI6
(dp1719
I0
g1651
sI1
g1665
sI2
g1678
sI3
g1690
sI4
g1701
sI5
g1711
sI6
(lp1720
sI7
(lp1721
sI8
(lp1722
sI9
(lp1723
sI10
(lp1724
sI11
(lp1725
sI12
(lp1726
sI13
(lp1727
ssI7
(dp1728
I0
g1652
sI1
g1666
sI2
g1679
sI3
g1691
sI4
g1702
sI5
g1712
sI6
g1721
sI7
(lp1729
sI8
(lp1730
sI9
(lp1731
sI10
(lp1732
sI11
(lp1733
sI12
(lp1734
sI13
(lp1735
ssI8
(dp1736
I0
g1653
sI1
g1667
sI2
g1680
sI3
g1692
sI4
g1703
sI5
g1713
sI6
g1722
sI7
g1730
sI8
(lp1737
sI9
(lp1738
sI10
(lp1739
sI11
(lp1740
sI12
(lp1741
sI13
(lp1742
ssI9
(dp1743
I0
g1654
sI1
g1668
sI2
g1681
sI3
g1693
sI4
g1704
sI5
g1714
sI6
g1723
sI7
g1731
sI9
(lp1744
sI10
(lp1745
sI11
(lp1746
sI12
(lp1747
sI13
(lp1748
ssI10
(dp1749
I0
g1655
sI1
g1669
sI2
g1682
sI3
g1694
sI4
g1705
sI5
g1715
sI6
g1724
sI7
g1732
sI10
(lp1750
sI11
(lp1751
sI12
(lp1752
sI13
(lp1753
ssI11
(dp1754
I0
g1656
sI1
g1670
sI2
g1683
sI3
g1695
sI4
g1706
sI5
g1716
sI6
g1725
sI7
g1733
sI8
g1740
sI9
g1746
sI10
g1751
sI11
(lp1755
sI12
(lp1756
sI13
(lp1757
ssI12
(dp1758
I0
g1657
sI1
g1671
sI2
g1684
sI3
g1696
sI4
g1707
sI5
g1717
sI6
g1726
sI7
g1734
sI8
g1741
sI9
g1747
sI10
g1752
sI11
g1756
sI12
(lp1759
sI13
(lp1760
ssI13
(dp1761
I0
g1658
sI1
g1672
sI2
g1685
sI3
g1697
sI4
g1708
sI5
g1718
sI6
g1727
sI7
g1735
sI8
g1742
sI9
g1748
sI10
g1753
sI11
g1757
sI12
g1760
sI13
(lp1762
ssa(dp1763
I0
(dp1764
I0
(lp1765
sI1
(lp1766
sI2
(lp1767
sI3
(lp1768
sI4
(lp1769
sI5
(lp1770
sI6
(lp1771
sI7
(lp1772
sI8
(lp1773
sI9
(lp1774
sI10
(lp1775
sI11
(lp1776
sI12
(lp1777
sI13
(lp1778
ssI1
(dp1779
I0
g1766
sI1
(lp1780
sI2
(lp1781
sI3
(lp1782
sI4
(lp1783
sI5
(lp1784
sI6
(lp1785
sI7
(lp1786
sI8
(lp1787
sI9
(lp1788
sI10
(lp1789
sI11
(lp1790
sI12
(lp1791
sI13
(lp1792
ssI2
(dp1793
I0
g1767
sI1
g1781
sI2
(lp1794
sI3
(lp1795
sI4
(lp1796
sI5
(lp1797
sI6
(lp1798
sI7
(lp1799
sI8
(lp1800
sI9
(lp1801
sI10
(lp1802
sI11
(lp1803
sI12
(lp1804
sI13
(lp1805
ssI3
(dp1806
I0
g1768
sI1
g1782
sI2
g1795
sI3
(lp1807
sI4
(lp1808
sI5
(lp1809
sI6
(lp1810
sI7
(lp1811
sI8
(lp1812
sI9
(lp1813
sI10
(lp1814
sI11
(lp1815
sI12
(lp1816
sI13
(lp1817
ssI4
(dp1818
I0
g1769
sI1
g1783
sI2
g1796
sI3
g1808
sI4
(lp1819
sI5
(lp1820
sI6
(lp1821
sI7
(lp1822
sI8
(lp1823
sI9
(lp1824
sI10
(lp1825
sI11
(lp1826
sI12
(lp1827
sI13
(lp1828
ssI5
(dp1829
I0
g1770
sI1
g1784
sI2
g1797
sI3
g1809
sI4
g1820
sI5
(lp1830
sI6
(lp1831
sI7
(lp1832
sI8
(lp1833
sI9
(lp1834
sI10
(lp1835
sI11
(lp1836
sI12
(lp1837
sI13
(lp1838
ssI6
(dp1839
I0
g1771
sI1
g1785
sI2
g1798
sI3
g1810
sI4
g1821
sI5
g1831
sI6
(lp1840
sI7
(lp1841
sI8
(lp1842
sI9
(lp1843
sI10
(lp1844
sI11
(lp1845
sI12
(lp1846
sI13
(lp1847
ssI7
(dp1848
I0
g1772
sI1
g1786
sI2
g1799
sI3
g1811
sI4
g1822
sI5
g1832
sI6
g1841
sI7
(lp1849
sI8
(lp1850
sI9
(lp1851
sI10
(lp1852
sI11
(lp1853
sI12
(lp1854
sI13
(lp1855
ssI8
(dp1856
I0
g1773
sI1
g1787
sI3
g1812
sI4
g1823
sI5
g1833
sI6
g1842
sI7
g1850
sI8
(lp1857
sI9
(lp1858
sI10
(lp1859
sI11
(lp1860
sI12
(lp1861
sI13
(lp1862
ssI9
(dp1863
I0
g1774
sI1
g1788
sI3
g1813
sI4
g1824
sI5
g1834
sI6
g1843
sI7
g1851
sI9
(lp1864
sI10
(lp1865
sI11
(lp1866
sI12
(lp1867
sI13
(lp1868
ssI10
(dp1869
I0
g1775
sI1
g1789
sI3
g1814
sI4
g1825
sI5
g1835
sI6
g1844
sI7
g1852
sI10
(lp1870
sI11
(lp1871
sI12
(lp1872
sI13
(lp1873
ssI11
(dp1874
I0
g1776
sI1
g1790
sI2
g1803
sI3
g1815
sI4
g1826
sI5
g1836
sI6
g1845
sI7
g1853
sI8
g1860
sI9
g1866
sI10
g1871
sI11
(lp1875
sI12
(lp1876
sI13
(lp1877
ssI12
(dp1878
I0
g1777
sI1
g1791
sI2
g1804
sI3
g1816
sI4
g1827
sI5
g1837
sI6
g1846
sI7
g1854
sI8
g1861
sI9
g1867
sI10
g1872
sI11
g1876
sI12
(lp1879
sI13
(lp1880
ssI13
(dp1881
I0
g1778
sI1
g1792
sI2
g1805
sI3
g1817
sI4
g1828
sI5
g1838
sI6
g1847
sI7
g1855
sI8
g1862
sI9
g1868
sI10
g1873
sI11
g1877
sI12
g1880
sI13
(lp1882
ssa(dp1883
I0
(dp1884
I0
(lp1885
sI1
(lp1886
sI2
(lp1887
sI3
(lp1888
Vhttp://dbpedia.org/ontology/wikiPageExternalLink
p1889
aVhttp://dbpedia.org/ontology/abstract
p1890
aVhttp://dbpedia.org/ontology/wikiPageRedirects
p1891
aVhttp://www.w3.org/2000/01/rdf-schema#comment
p1892
asI4
(lp1893
sI5
(lp1894
sI6
(lp1895
sI7
(lp1896
sI8
(lp1897
sI9
(lp1898
sI10
(lp1899
sI11
(lp1900
sI12
(lp1901
sI13
(lp1902
ssI1
(dp1903
I0
g1886
sI1
(lp1904
sI2
(lp1905
sI3
(lp1906
sI4
(lp1907
sI5
(lp1908
sI6
(lp1909
sI7
(lp1910
sI8
(lp1911
sI9
(lp1912
sI10
(lp1913
sI11
(lp1914
sI12
(lp1915
sI13
(lp1916
ssI2
(dp1917
I0
g1887
sI1
g1905
sI2
(lp1918
sI3
(lp1919
Vhttp://dbpedia.org/ontology/wikiPageExternalLink
p1920
aVhttp://www.w3.org/1999/02/22-rdf-syntax-ns#type
p1921
aVhttp://purl.org/dc/terms/subject
p1922
aVhttp://www.w3.org/2000/01/rdf-schema#comment
p1923
aVhttp://dbpedia.org/ontology/abstract
p1924
aVhttp://www.w3.org/2002/07/owl#sameAs
p1925
asI4
(lp1926
sI5
(lp1927
sI6
(lp1928
sI7
(lp1929
sI8
(lp1930
sI9
(lp1931
sI10
(lp1932
sI11
(lp1933
sI12
(lp1934
Vhttp://purl.org/voc/vrank#hasRank
p1935
aVhttp://www.w3.org/2002/07/owl#sameAs
p1936
asI13
(lp1937
ssI3
(dp1938
I0
g1888
sI1
g1906
sI2
g1919
sI3
(lp1939
sI4
(lp1940
Vhttp://dbpedia.org/ontology/abstract
p1941
asI5
(lp1942
sI6
(lp1943
Vhttp://dbpedia.org/ontology/wikiPageExternalLink
p1944
aVhttp://www.w3.org/1999/02/22-rdf-syntax-ns#type
p1945
aVhttp://dbpedia.org/ontology/basedOn
p1946
asI7
(lp1947
sI8
(lp1948
sI9
(lp1949
sI10
(lp1950
sI11
(lp1951
sI12
(lp1952
Vhttp://dbpedia.org/property/name
p1953
aVhttp://dbpedia.org/property/genre
p1954
aVhttp://www.w3.org/ns/prov#wasDerivedFrom
p1955
aVhttp://dbpedia.org/ontology/country
p1956
aVhttp://www.w3.org/1999/02/22-rdf-syntax-ns#type
p1957
aVhttp://xmlns.com/foaf/0.1/isPrimaryTopicOf
p1958
aVhttp://dbpedia.org/property/language
p1959
aVhttp://dbpedia.org/property/country
p1960
aVhttp://dbpedia.org/ontology/wikiPageDisambiguates
p1961
aVhttp://dbpedia.org/ontology/basedOn
p1962
aVhttp://dbpedia.org/ontology/wikiPageExternalLink
p1963
aVhttp://xmlns.com/foaf/0.1/primaryTopic
p1964
aVhttp://purl.org/dc/terms/subject
p1965
aVhttp://dbpedia.org/ontology/abstract
p1966
aVhttp://xmlns.com/foaf/0.1/depiction
p1967
aVhttp://dbpedia.org/ontology/thumbnail
p1968
aVhttp://dbpedia.org/property/hasPhotoCollection
p1969
aVhttp://www.w3.org/2000/01/rdf-schema#label
p1970
aVhttp://dbpedia.org/ontology/language
p1971
aVhttp://www.w3.org/2000/01/rdf-schema#comment
p1972
aVhttp://dbpedia.org/ontology/literaryGenre
p1973
aVhttp://dbpedia.org/ontology/wikiPageRedirects
p1974
aVhttp://xmlns.com/foaf/0.1/name
p1975
aVhttp://www.w3.org/2002/07/owl#sameAs
p1976
asI13
(lp1977
Vhttp://dbpedia.org/ontology/wikiPageExternalLink
p1978
aVhttp://www.w3.org/1999/02/22-rdf-syntax-ns#type
p1979
aVhttp://dbpedia.org/ontology/abstract
p1980
aVhttp://dbpedia.org/ontology/wikiPageRedirects
p1981
aVhttp://purl.org/voc/vrank#hasRank
p1982
aVhttp://dbpedia.org/ontology/thumbnail
p1983
aVhttp://dbpedia.org/property/hasPhotoCollection
p1984
aVhttp://dbpedia.org/ontology/basedOn
p1985
aVhttp://www.w3.org/2002/07/owl#sameAs
p1986
assI4
(dp1987
I0
g1893
sI1
g1907
sI2
g1926
sI3
g1940
sI4
(lp1988
sI5
(lp1989
sI6
(lp1990
sI7
(lp1991
sI8
(lp1992
sI9
(lp1993
sI10
(lp1994
sI11
(lp1995
sI12
(lp1996
sI13
(lp1997
ssI5
(dp1998
I0
g1894
sI1
g1908
sI2
g1927
sI3
g1942
sI4
g1989
sI5
(lp1999
sI6
(lp2000
sI7
(lp2001
sI8
(lp2002
sI9
(lp2003
sI10
(lp2004
sI11
(lp2005
sI12
(lp2006
sI13
(lp2007
ssI6
(dp2008
I0
g1895
sI1
g1909
sI2
g1928
sI3
g1943
sI4
g1990
sI5
g2000
sI6
(lp2009
sI7
(lp2010
sI8
(lp2011
sI9
(lp2012
sI10
(lp2013
sI11
(lp2014
sI12
(lp2015
sI13
(lp2016
ssI7
(dp2017
I0
g1896
sI1
g1910
sI2
g1929
sI3
g1947
sI4
g1991
sI5
g2001
sI6
g2010
sI7
(lp2018
sI8
(lp2019
sI9
(lp2020
sI10
(lp2021
sI11
(lp2022
sI12
(lp2023
sI13
(lp2024
ssI8
(dp2025
I0
g1897
sI1
g1911
sI2
g1930
sI3
g1948
sI4
g1992
sI5
g2002
sI6
g2011
sI7
g2019
sI8
(lp2026
sI9
(lp2027
sI10
(lp2028
sI11
(lp2029
sI12
(lp2030
sI13
(lp2031
ssI9
(dp2032
I0
g1898
sI1
g1912
sI2
g1931
sI3
g1949
sI4
g1993
sI5
g2003
sI6
g2012
sI7
g2020
sI9
(lp2033
sI10
(lp2034
sI11
(lp2035
sI12
(lp2036
sI13
(lp2037
ssI10
(dp2038
I0
g1899
sI1
g1913
sI2
g1932
sI3
g1950
sI4
g1994
sI5
g2004
sI6
g2013
sI7
g2021
sI10
(lp2039
sI11
(lp2040
sI12
(lp2041
sI13
(lp2042
ssI11
(dp2043
I0
g1900
sI1
g1914
sI2
g1933
sI3
g1951
sI4
g1995
sI5
g2005
sI6
g2014
sI7
g2022
sI8
g2029
sI9
g2035
sI10
g2040
sI11
(lp2044
sI12
(lp2045
sI13
(lp2046
ssI12
(dp2047
I0
g1901
sI1
g1915
sI2
g1934
sI3
g1952
sI4
g1996
sI5
g2006
sI6
g2015
sI7
g2023
sI8
g2030
sI9
g2036
sI10
g2041
sI11
g2045
sI12
(lp2048
sI13
(lp2049
Vhttp://www.w3.org/ns/prov#wasDerivedFrom
p2050
aVhttp://dbpedia.org/property/hasPhotoCollection
p2051
aVhttp://www.w3.org/2002/07/owl#sameAs
p2052
assI13
(dp2053
I0
g1902
sI1
g1916
sI2
g1937
sI3
g1977
sI4
g1997
sI5
g2007
sI6
g2016
sI7
g2024
sI8
g2031
sI9
g2037
sI10
g2042
sI11
g2046
sI12
g2049
sI13
(lp2054
ssa(dp2055
I0
(dp2056
I0
(lp2057
sI1
(lp2058
sI2
(lp2059
sI3
(lp2060
sI4
(lp2061
sI5
(lp2062
sI6
(lp2063
sI7
(lp2064
sI8
(lp2065
sI9
(lp2066
sI10
(lp2067
sI11
(lp2068
sI12
(lp2069
sI13
(lp2070
ssI1
(dp2071
I0
g2058
sI1
(lp2072
sI2
(lp2073
sI3
(lp2074
sI4
(lp2075
sI5
(lp2076
sI6
(lp2077
sI7
(lp2078
sI8
(lp2079
sI9
(lp2080
sI10
(lp2081
sI11
(lp2082
sI12
(lp2083
sI13
(lp2084
ssI2
(dp2085
I0
g2059
sI1
g2073
sI2
(lp2086
sI3
(lp2087
Vhttp://www.w3.org/2002/07/owl#sameAs
p2088
asI4
(lp2089
sI5
(lp2090
sI6
(lp2091
sI7
(lp2092
sI8
(lp2093
sI9
(lp2094
sI10
(lp2095
sI11
(lp2096
sI12
(lp2097
sI13
(lp2098
ssI3
(dp2099
I0
g2060
sI1
g2074
sI2
g2087
sI3
(lp2100
sI4
(lp2101
sI5
(lp2102
sI6
(lp2103
sI7
(lp2104
sI8
(lp2105
Vhttp://purl.org/voc/vrank#hasRank
p2106
aVhttp://www.w3.org/2002/07/owl#sameAs
p2107
asI9
(lp2108
sI10
(lp2109
sI11
(lp2110
sI12
(lp2111
sI13
(lp2112
ssI4
(dp2113
I0
g2061
sI1
g2075
sI2
g2089
sI3
g2101
sI4
(lp2114
sI5
(lp2115
sI6
(lp2116
sI7
(lp2117
sI8
(lp2118
sI9
(lp2119
sI10
(lp2120
sI11
(lp2121
sI12
(lp2122
sI13
(lp2123
ssI5
(dp2124
I0
g2062
sI1
g2076
sI2
g2090
sI3
g2102
sI4
g2115
sI5
(lp2125
sI6
(lp2126
sI7
(lp2127
sI8
(lp2128
sI9
(lp2129
sI10
(lp2130
sI11
(lp2131
sI12
(lp2132
sI13
(lp2133
ssI6
(dp2134
I0
g2063
sI1
g2077
sI2
g2091
sI3
g2103
sI4
g2116
sI5
g2126
sI6
(lp2135
sI7
(lp2136
sI8
(lp2137
sI9
(lp2138
sI10
(lp2139
sI11
(lp2140
sI12
(lp2141
sI13
(lp2142
ssI7
(dp2143
I0
g2064
sI1
g2078
sI2
g2092
sI3
g2104
sI4
g2117
sI5
g2127
sI6
g2136
sI7
(lp2144
sI8
(lp2145
sI9
(lp2146
sI10
(lp2147
sI11
(lp2148
sI12
(lp2149
sI13
(lp2150
ssI8
(dp2151
I0
g2065
sI1
g2079
sI2
g2093
sI3
g2105
sI4
g2118
sI5
g2128
sI6
g2137
sI7
g2145
sI8
(lp2152
sI9
(lp2153
sI10
(lp2154
sI11
(lp2155
sI12
(lp2156
sI13
(lp2157
ssI9
(dp2158
I0
g2066
sI1
g2080
sI2
g2094
sI3
g2108
sI4
g2119
sI5
g2129
sI6
g2138
sI7
g2146
sI8
g2153
sI9
(lp2159
sI10
(lp2160
sI11
(lp2161
sI12
(lp2162
sI13
(lp2163
ssI10
(dp2164
I0
g2067
sI1
g2081
sI2
g2095
sI3
g2109
sI4
g2120
sI5
g2130
sI6
g2139
sI7
g2147
sI8
g2154
sI10
(lp2165
sI11
(lp2166
sI12
(lp2167
sI13
(lp2168
ssI11
(dp2169
I0
g2068
sI1
g2082
sI2
g2096
sI3
g2110
sI4
g2121
sI5
g2131
sI6
g2140
sI7
g2148
sI8
g2155
sI9
g2161
sI10
g2166
sI11
(lp2170
sI12
(lp2171
sI13
(lp2172
ssI12
(dp2173
I0
g2069
sI1
g2083
sI2
g2097
sI3
g2111
sI4
g2122
sI5
g2132
sI6
g2141
sI7
g2149
sI8
g2156
sI9
g2162
sI10
g2167
sI11
g2171
sI12
(lp2174
sI13
(lp2175
ssI13
(dp2176
I0
g2070
sI1
g2084
sI2
g2098
sI3
g2112
sI4
g2123
sI5
g2133
sI6
g2142
sI7
g2150
sI8
g2157
sI9
g2163
sI10
g2168
sI11
g2172
sI12
g2175
sI13
(lp2177
ssa(dp2178
I0
(dp2179
I0
(lp2180
sI1
(lp2181
sI2
(lp2182
sI3
(lp2183
Vhttp://dbpedia.org/ontology/abstract
p2184
aVhttp://www.w3.org/2000/01/rdf-schema#comment
p2185
asI4
(lp2186
sI5
(lp2187
sI6
(lp2188
sI7
(lp2189
sI8
(lp2190
sI9
(lp2191
sI10
(lp2192
sI11
(lp2193
sI12
(lp2194
sI13
(lp2195
ssI1
(dp2196
I0
g2181
sI1
(lp2197
sI2
(lp2198
sI3
(lp2199
sI4
(lp2200
sI5
(lp2201
sI6
(lp2202
sI7
(lp2203
sI8
(lp2204
sI9
(lp2205
sI10
(lp2206
sI11
(lp2207
sI12
(lp2208
sI13
(lp2209
ssI2
(dp2210
I0
g2182
sI1
g2198
sI2
(lp2211
sI3
(lp2212
sI4
(lp2213
sI5
(lp2214
sI6
(lp2215
sI7
(lp2216
sI8
(lp2217
sI9
(lp2218
sI10
(lp2219
sI11
(lp2220
sI12
(lp2221
sI13
(lp2222
ssI3
(dp2223
I0
g2183
sI1
g2199
sI2
g2212
sI3
(lp2224
sI4
(lp2225
sI5
(lp2226
sI6
(lp2227
sI7
(lp2228
sI8
(lp2229
sI9
(lp2230
sI10
(lp2231
sI11
(lp2232
sI12
(lp2233
Vhttp://www.w3.org/ns/prov#wasDerivedFrom
p2234
aVhttp://purl.org/voc/vrank#hasRank
p2235
aVhttp://dbpedia.org/property/hasPhotoCollection
p2236
aVhttp://www.w3.org/2002/07/owl#sameAs
p2237
asI13
(lp2238
Vhttp://dbpedia.org/ontology/abstract
p2239
aVhttp://www.w3.org/2000/01/rdf-schema#comment
p2240
assI4
(dp2241
I0
g2186
sI1
g2200
sI2
g2213
sI3
g2225
sI4
(lp2242
sI5
(lp2243
sI6
(lp2244
sI7
(lp2245
sI8
(lp2246
sI9
(lp2247
sI10
(lp2248
sI11
(lp2249
sI12
(lp2250
sI13
(lp2251
Vhttp://dbpedia.org/ontology/abstract
p2252
assI5
(dp2253
I0
g2187
sI1
g2201
sI2
g2214
sI3
g2226
sI4
g2243
sI5
(lp2254
sI6
(lp2255
sI7
(lp2256
sI8
(lp2257
sI9
(lp2258
sI10
(lp2259
sI11
(lp2260
sI12
(lp2261
sI13
(lp2262
ssI6
(dp2263
I0
g2188
sI1
g2202
sI2
g2215
sI3
g2227
sI4
g2244
sI5
g2255
sI6
(lp2264
sI7
(lp2265
sI8
(lp2266
sI9
(lp2267
sI10
(lp2268
sI11
(lp2269
sI12
(lp2270
sI13
(lp2271
Vhttp://dbpedia.org/ontology/abstract
p2272
assI7
(dp2273
I0
g2189
sI1
g2203
sI2
g2216
sI3
g2228
sI4
g2245
sI5
g2256
sI6
g2265
sI7
(lp2274
sI8
(lp2275
sI9
(lp2276
sI10
(lp2277
sI11
(lp2278
sI12
(lp2279
sI13
(lp2280
ssI8
(dp2281
I0
g2190
sI1
g2204
sI2
g2217
sI3
g2229
sI4
g2246
sI5
g2257
sI6
g2266
sI7
g2275
sI8
(lp2282
sI9
(lp2283
sI10
(lp2284
sI11
(lp2285
sI12
(lp2286
sI13
(lp2287
ssI9
(dp2288
I0
g2191
sI1
g2205
sI2
g2218
sI3
g2230
sI4
g2247
sI5
g2258
sI6
g2267
sI7
g2276
sI9
(lp2289
sI10
(lp2290
sI11
(lp2291
sI12
(lp2292
sI13
(lp2293
ssI10
(dp2294
I0
g2192
sI1
g2206
sI2
g2219
sI3
g2231
sI4
g2248
sI5
g2259
sI6
g2268
sI7
g2277
sI10
(lp2295
sI11
(lp2296
sI12
(lp2297
sI13
(lp2298
ssI11
(dp2299
I0
g2193
sI1
g2207
sI2
g2220
sI3
g2232
sI4
g2249
sI5
g2260
sI6
g2269
sI7
g2278
sI8
g2285
sI9
g2291
sI10
g2296
sI11
(lp2300
sI12
(lp2301
sI13
(lp2302
Vhttp://www.w3.org/2002/07/owl#sameAs
p2303
assI12
(dp2304
I0
g2194
sI1
g2208
sI2
g2221
sI3
g2233
sI4
g2250
sI5
g2261
sI6
g2270
sI7
g2279
sI8
g2286
sI9
g2292
sI10
g2297
sI11
g2301
sI12
(lp2305
sI13
(lp2306
Vhttp://dbpedia.org/ontology/wikiPageExternalLink
p2307
aVhttp://www.w3.org/1999/02/22-rdf-syntax-ns#type
p2308
aVhttp://www.w3.org/2000/01/rdf-schema#comment
p2309
aVhttp://dbpedia.org/ontology/abstract
p2310
aVhttp://purl.org/voc/vrank#hasRank
p2311
aVhttp://www.w3.org/ns/prov#wasDerivedFrom
p2312
aVhttp://dbpedia.org/property/hasPhotoCollection
p2313
aVhttp://www.w3.org/2002/07/owl#sameAs
p2314
assI13
(dp2315
I0
g2195
sI1
g2209
sI2
g2222
sI3
g2238
sI4
g2251
sI5
g2262
sI6
g2271
sI7
g2280
sI8
g2287
sI9
g2293
sI10
g2298
sI11
g2302
sI12
g2306
sI13
(lp2316
ssa(dp2317
I0
(dp2318
I0
(lp2319
sI1
(lp2320
sI2
(lp2321
sI3
(lp2322
sI4
(lp2323
sI5
(lp2324
sI6
(lp2325
sI7
(lp2326
sI8
(lp2327
sI9
(lp2328
sI10
(lp2329
sI11
(lp2330
sI12
(lp2331
sI13
(lp2332
ssI1
(dp2333
I0
g2320
sI1
(lp2334
sI2
(lp2335
sI3
(lp2336
sI4
(lp2337
sI5
(lp2338
sI6
(lp2339
sI7
(lp2340
sI8
(lp2341
sI9
(lp2342
sI10
(lp2343
sI11
(lp2344
sI12
(lp2345
sI13
(lp2346
ssI2
(dp2347
I0
g2321
sI1
g2335
sI2
(lp2348
sI3
(lp2349
sI4
(lp2350
sI5
(lp2351
sI6
(lp2352
sI7
(lp2353
sI8
(lp2354
sI9
(lp2355
sI10
(lp2356
sI11
(lp2357
sI12
(lp2358
sI13
(lp2359
ssI3
(dp2360
I0
g2322
sI1
g2336
sI2
g2349
sI3
(lp2361
sI4
(lp2362
sI5
(lp2363
sI6
(lp2364
sI7
(lp2365
sI8
(lp2366
sI9
(lp2367
sI10
(lp2368
sI11
(lp2369
sI12
(lp2370
sI13
(lp2371
ssI4
(dp2372
I0
g2323
sI1
g2337
sI2
g2350
sI3
g2362
sI4
(lp2373
sI5
(lp2374
sI6
(lp2375
sI7
(lp2376
sI8
(lp2377
sI9
(lp2378
sI10
(lp2379
sI11
(lp2380
sI12
(lp2381
sI13
(lp2382
ssI5
(dp2383
I0
g2324
sI1
g2338
sI2
g2351
sI3
g2363
sI4
g2374
sI5
(lp2384
sI6
(lp2385
sI7
(lp2386
sI8
(lp2387
sI9
(lp2388
sI10
(lp2389
sI11
(lp2390
sI12
(lp2391
sI13
(lp2392
ssI6
(dp2393
I0
g2325
sI1
g2339
sI2
g2352
sI3
g2364
sI4
g2375
sI5
g2385
sI6
(lp2394
sI7
(lp2395
sI8
(lp2396
sI9
(lp2397
sI10
(lp2398
sI11
(lp2399
sI12
(lp2400
sI13
(lp2401
ssI7
(dp2402
I0
g2326
sI1
g2340
sI2
g2353
sI3
g2365
sI4
g2376
sI5
g2386
sI6
g2395
sI7
(lp2403
sI8
(lp2404
sI9
(lp2405
sI10
(lp2406
sI11
(lp2407
sI12
(lp2408
sI13
(lp2409
ssI8
(dp2410
I0
g2327
sI1
g2341
sI3
g2366
sI4
g2377
sI5
g2387
sI6
g2396
sI7
g2404
sI8
(lp2411
sI9
(lp2412
sI10
(lp2413
sI11
(lp2414
sI12
(lp2415
sI13
(lp2416
ssI9
(dp2417
I0
g2328
sI1
g2342
sI3
g2367
sI4
g2378
sI5
g2388
sI6
g2397
sI7
g2405
sI9
(lp2418
sI10
(lp2419
sI11
(lp2420
sI12
(lp2421
sI13
(lp2422
ssI10
(dp2423
I0
g2329
sI1
g2343
sI3
g2368
sI4
g2379
sI5
g2389
sI6
g2398
sI7
g2406
sI10
(lp2424
sI11
(lp2425
sI12
(lp2426
sI13
(lp2427
ssI11
(dp2428
I0
g2330
sI1
g2344
sI2
g2357
sI3
g2369
sI4
g2380
sI5
g2390
sI6
g2399
sI7
g2407
sI8
g2414
sI9
g2420
sI10
g2425
sI11
(lp2429
sI12
(lp2430
sI13
(lp2431
ssI12
(dp2432
I0
g2331
sI1
g2345
sI3
g2370
sI4
g2381
sI5
g2391
sI6
g2400
sI7
g2408
sI11
g2430
sI12
(lp2433
sI13
(lp2434
ssI13
(dp2435
I0
g2332
sI1
g2346
sI3
g2371
sI4
g2382
sI5
g2392
sI6
g2401
sI7
g2409
sI11
g2431
sI13
(lp2436
ssa(dp2437
I0
(dp2438
I0
(lp2439
sI1
(lp2440
sI2
(lp2441
sI3
(lp2442
Vhttp://www.w3.org/ns/prov#wasDerivedFrom
p2443
asI4
(lp2444
sI5
(lp2445
sI6
(lp2446
sI7
(lp2447
sI8
(lp2448
sI9
(lp2449
sI10
(lp2450
sI11
(lp2451
sI12
(lp2452
sI13
(lp2453
ssI1
(dp2454
I0
g2440
sI1
(lp2455
sI2
(lp2456
sI3
(lp2457
sI4
(lp2458
sI5
(lp2459
sI6
(lp2460
sI7
(lp2461
sI8
(lp2462
sI9
(lp2463
sI10
(lp2464
sI11
(lp2465
sI12
(lp2466
sI13
(lp2467
ssI2
(dp2468
I0
g2441
sI1
g2456
sI2
(lp2469
sI3
(lp2470
Vhttp://www.w3.org/2002/07/owl#sameAs
p2471
asI4
(lp2472
sI5
(lp2473
sI6
(lp2474
sI7
(lp2475
sI8
(lp2476
sI9
(lp2477
sI10
(lp2478
sI11
(lp2479
sI12
(lp2480
sI13
(lp2481
ssI3
(dp2482
I0
g2442
sI1
g2457
sI2
g2470
sI3
(lp2483
sI4
(lp2484
sI5
(lp2485
sI6
(lp2486
sI7
(lp2487
sI8
(lp2488
Vhttp://www.w3.org/ns/prov#wasDerivedFrom
p2489
aVhttp://purl.org/voc/vrank#hasRank
p2490
aVhttp://www.w3.org/2002/07/owl#differentFrom
p2491
aVhttp://www.w3.org/2002/07/owl#sameAs
p2492
asI9
(lp2493
sI10
(lp2494
sI11
(lp2495
Vhttp://www.w3.org/2002/07/owl#sameAs
p2496
asI12
(lp2497
sI13
(lp2498
ssI4
(dp2499
I0
g2444
sI1
g2458
sI2
g2472
sI3
g2484
sI4
(lp2500
sI5
(lp2501
sI6
(lp2502
sI7
(lp2503
sI8
(lp2504
sI9
(lp2505
sI10
(lp2506
sI11
(lp2507
sI12
(lp2508
sI13
(lp2509
ssI5
(dp2510
I0
g2445
sI1
g2459
sI2
g2473
sI3
g2485
sI4
g2501
sI5
(lp2511
sI6
(lp2512
sI7
(lp2513
sI8
(lp2514
sI9
(lp2515
sI10
(lp2516
sI11
(lp2517
sI12
(lp2518
sI13
(lp2519
ssI6
(dp2520
I0
g2446
sI1
g2460
sI2
g2474
sI3
g2486
sI4
g2502
sI5
g2512
sI6
(lp2521
sI7
(lp2522
sI8
(lp2523
sI9
(lp2524
sI10
(lp2525
sI11
(lp2526
sI12
(lp2527
sI13
(lp2528
ssI7
(dp2529
I0
g2447
sI1
g2461
sI2
g2475
sI3
g2487
sI4
g2503
sI5
g2513
sI6
g2522
sI7
(lp2530
sI8
(lp2531
sI9
(lp2532
sI10
(lp2533
sI11
(lp2534
sI12
(lp2535
sI13
(lp2536
ssI8
(dp2537
I0
g2448
sI1
g2462
sI2
g2476
sI3
g2488
sI4
g2504
sI5
g2514
sI6
g2523
sI7
g2531
sI8
(lp2538
sI9
(lp2539
sI10
(lp2540
sI11
(lp2541
sI12
(lp2542
sI13
(lp2543
ssI9
(dp2544
I0
g2449
sI1
g2463
sI2
g2477
sI3
g2493
sI4
g2505
sI5
g2515
sI6
g2524
sI7
g2532
sI8
g2539
sI9
(lp2545
sI10
(lp2546
sI11
(lp2547
sI12
(lp2548
sI13
(lp2549
ssI10
(dp2550
I0
g2450
sI1
g2464
sI2
g2478
sI3
g2494
sI4
g2506
sI5
g2516
sI6
g2525
sI7
g2533
sI8
g2540
sI10
(lp2551
sI11
(lp2552
sI12
(lp2553
sI13
(lp2554
ssI11
(dp2555
I0
g2451
sI1
g2465
sI2
g2479
sI3
g2495
sI4
g2507
sI5
g2517
sI6
g2526
sI7
g2534
sI8
g2541
sI9
g2547
sI10
g2552
sI11
(lp2556
sI12
(lp2557
sI13
(lp2558
ssI12
(dp2559
I0
g2452
sI1
g2466
sI2
g2480
sI3
g2497
sI4
g2508
sI5
g2518
sI6
g2527
sI7
g2535
sI8
g2542
sI11
g2557
sI12
(lp2560
sI13
(lp2561
ssI13
(dp2562
I0
g2453
sI1
g2467
sI2
g2481
sI3
g2498
sI4
g2509
sI5
g2519
sI6
g2528
sI7
g2536
sI8
g2543
sI11
g2558
sI13
(lp2563
ssa(dp2564
I0
(dp2565
I0
(lp2566
sI1
(lp2567
sI2
(lp2568
sI3
(lp2569
sI4
(lp2570
Vhttp://www.w3.org/2000/01/rdf-schema#seeAlso
p2571
aVhttp://dbpedia.org/property/placeOfDeath
p2572
aVhttp://dbpedia.org/property/awardedBy
p2573
aVhttp://dbpedia.org/property/hostCity
p2574
aVhttp://dbpedia.org/property/debuts
p2575
aVhttp://dbpedia.org/property/territorialExtent
p2576
aVhttp://dbpedia.org/ontology/PopulatedPlace/areaTotal
p2577
aVhttp://dbpedia.org/ontology/poleDriverCountry
p2578
aVhttp://dbpedia.org/ontology/fastestDriverCountry
p2579
aVhttp://dbpedia.org/ontology/thirdDriverCountry
p2580
aVhttp://dbpedia.org/property/site
p2581
aVhttp://dbpedia.org/property/rd1t7Loc
p2582
aVhttp://dbpedia.org/ontology/country
p2583
aVhttp://dbpedia.org/property/returns
p2584
aVhttp://www.w3.org/1999/02/22-rdf-syntax-ns#type
p2585
aVhttp://dbpedia.org/property/home
p2586
aVhttp://dbpedia.org/ontology/secondDriverCountry
p2587
aVhttp://dbpedia.org/property/rd1t5Loc
p2588
aVhttp://dbpedia.org/property/locations
p2589
aVhttp://dbpedia.org/property/withdraws
p2590
aVhttp://dbpedia.org/ontology/nationality
p2591
aVhttp://dbpedia.org/property/birthPlace
p2592
aVhttp://dbpedia.org/property/placeOfBirth
p2593
aVhttp://dbpedia.org/property/country
p2594
aVhttp://dbpedia.org/property/shipCountry
p2595
aVhttp://dbpedia.org/property/establishedEvent
p2596
aVhttp://dbpedia.org/property/pointsTeam
p2597
aVhttp://dbpedia.org/ontology/firstDriverCountry
p2598
aVhttp://dbpedia.org/ontology/abstract
p2599
aVhttp://dbpedia.org/property/venue
p2600
aVhttp://dbpedia.org/property/deathPlace
p2601
aVhttp://dbpedia.org/property/location
p2602
aVhttp://dbpedia.org/property/rd3t2Loc
p2603
aVhttp://dbpedia.org/ontology/deathPlace
p2604
aVhttp://dbpedia.org/property/rd1t6Loc
p2605
aVhttp://dbpedia.org/property/shipNamesake
p2606
aVhttp://dbpedia.org/ontology/location
p2607
aVhttp://dbpedia.org/property/rd1t3Loc
p2608
aVhttp://dbpedia.org/property/rd2t2Loc
p2609
aVhttp://dbpedia.org/property/rd2t1Loc
p2610
aVhttp://dbpedia.org/property/countriesAffected
p2611
aVhttp://dbpedia.org/ontology/birthPlace
p2612
aVhttp://dbpedia.org/property/rd1t1Loc
p2613
aVhttp://purl.org/voc/vrank#hasRank
p2614
aVhttp://dbpedia.org/property/rd3t1Loc
p2615
aVhttp://dbpedia.org/property/stadium
p2616
aVhttp://dbpedia.org/property/rd5t1Loc
p2617
aVhttp://dbpedia.org/property/rd4t2Loc
p2618
aVhttp://dbpedia.org/property/rd4t1Loc
p2619
asI5
(lp2620
sI6
(lp2621
sI7
(lp2622
sI8
(lp2623
sI9
(lp2624
sI10
(lp2625
sI11
(lp2626
sI12
(lp2627
sI13
(lp2628
ssI1
(dp2629
I0
g2567
sI1
(lp2630
sI2
(lp2631
sI3
(lp2632
sI4
(lp2633
sI5
(lp2634
sI6
(lp2635
sI7
(lp2636
sI8
(lp2637
sI9
(lp2638
sI10
(lp2639
sI11
(lp2640
sI12
(lp2641
sI13
(lp2642
ssI2
(dp2643
I0
g2568
sI1
g2631
sI2
(lp2644
sI3
(lp2645
sI4
(lp2646
Vhttp://dbpedia.org/ontology/country
p2647
aVhttp://dbpedia.org/property/returns
p2648
aVhttp://www.w3.org/1999/02/22-rdf-syntax-ns#type
p2649
aVhttp://dbpedia.org/ontology/assembly
p2650
aVhttp://dbpedia.org/property/countriesAffected
p2651
aVhttp://dbpedia.org/property/home
p2652
aVhttp://dbpedia.org/ontology/abstract
p2653
aVhttp://dbpedia.org/ontology/recordedIn
p2654
aVhttp://dbpedia.org/property/place
p2655
aVhttp://dbpedia.org/property/location
p2656
aVhttp://dbpedia.org/property/venue
p2657
aVhttp://dbpedia.org/property/birthPlace
p2658
aVhttp://dbpedia.org/property/utcOffsetDst
p2659
aVhttp://dbpedia.org/property/rd1t1Loc
p2660
aVhttp://dbpedia.org/property/country
p2661
aVhttp://dbpedia.org/ontology/birthPlace
p2662
aVhttp://dbpedia.org/property/stadium
p2663
asI5
(lp2664
sI6
(lp2665
sI7
(lp2666
sI8
(lp2667
sI9
(lp2668
sI10
(lp2669
sI11
(lp2670
sI12
(lp2671
sI13
(lp2672
ssI3
(dp2673
I0
g2569
sI1
g2632
sI2
g2645
sI3
(lp2674
sI4
(lp2675
sI5
(lp2676
sI6
(lp2677
sI7
(lp2678
sI8
(lp2679
sI9
(lp2680
sI10
(lp2681
sI11
(lp2682
sI12
(lp2683
sI13
(lp2684
ssI4
(dp2685
I0
g2570
sI1
g2633
sI2
g2646
sI3
g2675
sI4
(lp2686
sI5
(lp2687
Vhttp://dbpedia.org/ontology/country
p2688
aVhttp://dbpedia.org/ontology/location
p2689
aVhttp://dbpedia.org/property/basinCountries
p2690
aVhttp://dbpedia.org/ontology/birthPlace
p2691
aVhttp://dbpedia.org/ontology/nationality
p2692
aVhttp://dbpedia.org/property/birthPlace
p2693
aVhttp://dbpedia.org/ontology/deathPlace
p2694
aVhttp://dbpedia.org/property/country
p2695
aVhttp://dbpedia.org/ontology/sourceCountry
p2696
aVhttp://dbpedia.org/property/placeOfBirth
p2697
asI6
(lp2698
Vhttp://dbpedia.org/ontology/country
p2699
aVhttp://dbpedia.org/property/debuts
p2700
asI7
(lp2701
Vhttp://dbpedia.org/property/origin
p2702
aVhttp://dbpedia.org/property/placeOfDeath
p2703
aVhttp://dbpedia.org/ontology/type
p2704
aVhttp://dbpedia.org/property/awardedBy
p2705
aVhttp://dbpedia.org/property/cctld
p2706
aVhttp://dbpedia.org/ontology/mouthCountry
p2707
aVhttp://dbpedia.org/property/allegiance
p2708
aVhttp://dbpedia.org/ontology/wineRegion
p2709
aVhttp://dbpedia.org/ontology/garrison
p2710
aVhttp://dbpedia.org/property/sovereigntyType
p2711
aVhttp://dbpedia.org/ontology/city
p2712
aVhttp://dbpedia.org/property/1rpt2Loc
p2713
aVhttp://dbpedia.org/ontology/fastestDriverCountry
p2714
aVhttp://dbpedia.org/property/territory
p2715
aVhttp://dbpedia.org/ontology/governmentType
p2716
aVhttp://dbpedia.org/property/rd1t7Loc
p2717
aVhttp://dbpedia.org/ontology/regionServed
p2718
aVhttp://dbpedia.org/property/shipNamesake
p2719
aVhttp://dbpedia.org/property/usingCountries
p2720
aVhttp://dbpedia.org/property/firstRun
p2721
aVhttp://dbpedia.org/property/broadcastArea
p2722
aVhttp://dbpedia.org/property/assembly
p2723
aVhttp://dbpedia.org/property/subdivisionName
p2724
aVhttp://dbpedia.org/ontology/isPartOf
p2725
aVhttp://dbpedia.org/ontology/nationality
p2726
aVhttp://dbpedia.org/property/shortDescription
p2727
aVhttp://dbpedia.org/property/placeOfBirth
p2728
aVhttp://dbpedia.org/property/venue
p2729
aVhttp://dbpedia.org/property/hometown
p2730
aVhttp://dbpedia.org/property/rallybase
p2731
aVhttp://dbpedia.org/property/establishedEvent
p2732
aVhttp://dbpedia.org/ontology/targetAirport
p2733
aVhttp://dbpedia.org/property/regionalScenes
p2734
aVhttp://dbpedia.org/property/drivesOn
p2735
aVhttp://dbpedia.org/ontology/residence
p2736
aVhttp://dbpedia.org/ontology/abstract
p2737
aVhttp://dbpedia.org/ontology/recordedIn
p2738
aVhttp://dbpedia.org/property/markets
p2739
aVhttp://dbpedia.org/property/ruNationalteam
p2740
aVhttp://dbpedia.org/property/broadcastAreas
p2741
aVhttp://dbpedia.org/property/usedBy
p2742
aVhttp://dbpedia.org/property/production
p2743
aVhttp://dbpedia.org/property/nationalOrigin
p2744
aVhttp://dbpedia.org/property/shipRoute
p2745
aVhttp://dbpedia.org/property/shipBuilder
p2746
aVhttp://dbpedia.org/ontology/location
p2747
aVhttp://dbpedia.org/property/city
p2748
aVhttp://dbpedia.org/property/governmentType
p2749
aVhttp://dbpedia.org/property/area
p2750
aVhttp://dbpedia.org/ontology/hometown
p2751
aVhttp://dbpedia.org/ontology/award
p2752
aVhttp://dbpedia.org/ontology/restingPlace
p2753
aVhttp://dbpedia.org/ontology/spokenIn
p2754
aVhttp://dbpedia.org/property/setIn
p2755
aVhttp://dbpedia.org/property/jurisdiction
p2756
aVhttp://dbpedia.org/property/leaderTitle
p2757
aVhttp://dbpedia.org/property/rd4t1Loc
p2758
aVhttp://www.w3.org/2000/01/rdf-schema#seeAlso
p2759
aVhttp://dbpedia.org/property/currency
p2760
aVhttp://dbpedia.org/property/school
p2761
aVhttp://dbpedia.org/ontology/wikiPageRedirects
p2762
aVhttp://dbpedia.org/ontology/knownFor
p2763
aVhttp://dbpedia.org/property/birthDate
p2764
aVhttp://dbpedia.org/property/hostCity
p2765
aVhttp://dbpedia.org/property/bases
p2766
aVhttp://dbpedia.org/ontology/foundationPlace
p2767
aVhttp://dbpedia.org/property/countryOfOrigin
p2768
aVhttp://dbpedia.org/property/birthplace
p2769
aVhttp://dbpedia.org/property/base
p2770
aVhttp://dbpedia.org/property/legislature
p2771
aVhttp://dbpedia.org/ontology/locatedInArea
p2772
aVhttp://dbpedia.org/property/placeOfBurial
p2773
aVhttp://dbpedia.org/ontology/officialLanguage
p2774
aVhttp://dbpedia.org/property/rd1t4Loc
p2775
aVhttp://dbpedia.org/ontology/country
p2776
aVhttp://dbpedia.org/property/returns
p2777
aVhttp://dbpedia.org/ontology/countryWithFirstSpaceflight
p2778
aVhttp://dbpedia.org/property/destinations
p2779
aVhttp://dbpedia.org/property/hubs
p2780
aVhttp://dbpedia.org/property/home
p2781
aVhttp://dbpedia.org/property/rd1t5Loc
p2782
aVhttp://dbpedia.org/property/nat
p2783
aVhttp://dbpedia.org/property/birthPlace
p2784
aVhttp://dbpedia.org/property/country/region
p2785
aVhttp://dbpedia.org/ontology/related
p2786
aVhttp://dbpedia.org/property/country
p2787
aVhttp://dbpedia.org/ontology/billed
p2788
aVhttp://dbpedia.org/property/nation
p2789
aVhttp://dbpedia.org/property/teama
p2790
aVhttp://dbpedia.org/property/areaServed
p2791
aVhttp://dbpedia.org/ontology/wikiPageExternalLink
p2792
aVhttp://dbpedia.org/property/runnersUp
p2793
aVhttp://dbpedia.org/ontology/firstDriverCountry
p2794
aVhttp://dbpedia.org/property/location
p2795
aVhttp://dbpedia.org/property/states
p2796
aVhttp://dbpedia.org/ontology/division
p2797
aVhttp://dbpedia.org/ontology/locationCountry
p2798
aVhttp://dbpedia.org/ontology/sportCountry
p2799
aVhttp://dbpedia.org/ontology/deathPlace
p2800
aVhttp://dbpedia.org/property/resides
p2801
aVhttp://dbpedia.org/ontology/hubAirport
p2802
aVhttp://dbpedia.org/ontology/territory
p2803
aVhttp://dbpedia.org/ontology/placeOfBurial
p2804
aVhttp://dbpedia.org/property/headquarters
p2805
aVhttp://dbpedia.org/ontology/anthem
p2806
aVhttp://dbpedia.org/ontology/birthPlace
p2807
aVhttp://dbpedia.org/ontology/citizenship
p2808
aVhttp://purl.org/voc/vrank#hasRank
p2809
aVhttp://dbpedia.org/property/distribution
p2810
aVhttp://dbpedia.org/property/citizenship
p2811
aVhttp://dbpedia.org/property/host
p2812
aVhttp://dbpedia.org/ontology/stateOfOrigin
p2813
aVhttp://www.w3.org/2002/07/owl#sameAs
p2814
aVhttp://dbpedia.org/property/timeZoneDst
p2815
aVhttp://dbpedia.org/property/stadium
p2816
aVhttp://dbpedia.org/property/recorded
p2817
aVhttp://dbpedia.org/ontology/origin
p2818
aVhttp://dbpedia.org/ontology/currency
p2819
aVhttp://dbpedia.org/property/imageCaption
p2820
aVhttp://dbpedia.org/property/residence
p2821
aVhttp://dbpedia.org/property/firstTeam
p2822
aVhttp://dbpedia.org/property/foundation
p2823
aVhttp://dbpedia.org/ontology/ground
p2824
aVhttp://dbpedia.org/ontology/county
p2825
aVhttp://dbpedia.org/property/address
p2826
aVhttp://dbpedia.org/property/a
p2827
aVhttp://dbpedia.org/property/billed
p2828
aVhttp://www.w3.org/1999/02/22-rdf-syntax-ns#type
p2829
aVhttp://dbpedia.org/property/ruSevensnationalteam
p2830
aVhttp://dbpedia.org/property/homecountry
p2831
aVhttp://dbpedia.org/ontology/capital
p2832
aVhttp://dbpedia.org/property/locationCountry
p2833
aVhttp://dbpedia.org/ontology/secondDriverCountry
p2834
aVhttp://dbpedia.org/property/rd1t2Loc
p2835
aVhttp://dbpedia.org/property/largestCity
p2836
aVhttp://dbpedia.org/property/capital
p2837
aVhttp://dbpedia.org/property/withdraws
p2838
aVhttp://dbpedia.org/ontology/education
p2839
aVhttp://dbpedia.org/ontology/ethnicGroup
p2840
aVhttp://dbpedia.org/property/locationSigned
p2841
aVhttp://dbpedia.org/ontology/archipelago
p2842
aVhttp://dbpedia.org/property/countries
p2843
aVhttp://dbpedia.org/property/archipelago
p2844
aVhttp://www.w3.org/2000/01/rdf-schema#comment
p2845
aVhttp://dbpedia.org/property/pointsTeam
p2846
aVhttp://dbpedia.org/ontology/usingCountry
p2847
aVhttp://dbpedia.org/property/fightingOutOf
p2848
aVhttp://dbpedia.org/property/observedby
p2849
aVhttp://dbpedia.org/property/countryofbirth
p2850
aVhttp://dbpedia.org/property/homeTown
p2851
aVhttp://dbpedia.org/property/recordLocation
p2852
aVhttp://dbpedia.org/property/availability
p2853
aVhttp://dbpedia.org/property/rd1t3Loc
p2854
aVhttp://dbpedia.org/property/shipCountry
p2855
aVhttp://dbpedia.org/property/popplace
p2856
aVhttp://dbpedia.org/property/countriesAffected
p2857
aVhttp://dbpedia.org/ontology/assembly
p2858
aVhttp://dbpedia.org/ontology/poleDriverCountry
p2859
aVhttp://www.w3.org/2004/02/skos/core#subject
p2860
aVhttp://dbpedia.org/property/basedAt
p2861
aVhttp://dbpedia.org/ontology/broadcastArea
p2862
aVhttp://dbpedia.org/property/deathPlace
p2863
aVhttp://dbpedia.org/ontology/destination
p2864
aVhttp://dbpedia.org/property/rd5t1Loc
p2865
aVhttp://dbpedia.org/property/disappearedPlace
p2866
aVhttp://dbpedia.org/property/rd4t2Loc
p2867
aVhttp://dbpedia.org/property/col
p2868
aVhttp://dbpedia.org/property/almaMater
p2869
aVhttp://dbpedia.org/property/ground
p2870
aVhttp://dbpedia.org/property/membership
p2871
aVhttp://dbpedia.org/property/notableBroadcasts
p2872
aVhttp://dbpedia.org/property/place
p2873
aVhttp://dbpedia.org/property/debuts
p2874
aVhttp://dbpedia.org/property/territorialExtent
p2875
aVhttp://dbpedia.org/ontology/jurisdiction
p2876
aVhttp://dbpedia.org/property/transCoverage
p2877
aVhttp://dbpedia.org/property/caption
p2878
aVhttp://dbpedia.org/ontology/thirdDriverCountry
p2879
aVhttp://www.w3.org/2002/07/owl#differentFrom
p2880
aVhttp://dbpedia.org/ontology/locationCity
p2881
aVhttp://dbpedia.org/property/team
p2882
aVhttp://dbpedia.org/property/2rpt1Loc
p2883
aVhttp://dbpedia.org/property/aux
p2884
aVhttp://dbpedia.org/property/based
p2885
aVhttp://dbpedia.org/property/locations
p2886
aVhttp://dbpedia.org/property/site
p2887
aVhttp://dbpedia.org/property/available
p2888
aVhttp://dbpedia.org/ontology/place
p2889
aVhttp://dbpedia.org/property/located
p2890
aVhttp://dbpedia.org/property/foundedPlace
p2891
aVhttp://dbpedia.org/property/hqCity
p2892
aVhttp://dbpedia.org/ontology/wikiPageDisambiguates
p2893
aVhttp://dbpedia.org/ontology/sourceCountry
p2894
aVhttp://dbpedia.org/property/nationality
p2895
aVhttp://purl.org/dc/terms/subject
p2896
aVhttp://dbpedia.org/ontology/populationPlace
p2897
aVhttp://dbpedia.org/property/rd2t2Loc
p2898
aVhttp://dbpedia.org/property/leaderName
p2899
aVhttp://dbpedia.org/property/region
p2900
aVhttp://dbpedia.org/property/regions
p2901
aVhttp://dbpedia.org/property/rd3t2Loc
p2902
aVhttp://dbpedia.org/ontology/headquarter
p2903
aVhttp://dbpedia.org/ontology/leader
p2904
aVhttp://dbpedia.org/property/rd1t6Loc
p2905
aVhttp://dbpedia.org/ontology/largestCity
p2906
aVhttp://dbpedia.org/ontology/language
p2907
aVhttp://dbpedia.org/property/title
p2908
aVhttp://dbpedia.org/property/locale
p2909
aVhttp://dbpedia.org/property/basinCountries
p2910
aVhttp://dbpedia.org/property/garrison
p2911
aVhttp://dbpedia.org/property/moreUsers
p2912
aVhttp://dbpedia.org/property/rd2t1Loc
p2913
aVhttp://dbpedia.org/property/opponents
p2914
aVhttp://dbpedia.org/ontology/timeZone
p2915
aVhttp://dbpedia.org/property/baseOfOperations
p2916
aVhttp://dbpedia.org/property/nations
p2917
aVhttp://dbpedia.org/property/rd1t1Loc
p2918
aVhttp://dbpedia.org/property/rd3t1Loc
p2919
aVhttp://dbpedia.org/property/callingCode
p2920
aVhttp://dbpedia.org/property/remit
p2921
aVhttp://dbpedia.org/property/shipHomeport
p2922
aVhttp://dbpedia.org/property/regionServed
p2923
aVhttp://dbpedia.org/property/locationCity
p2924
aVhttp://dbpedia.org/property/areas
p2925
aVhttp://dbpedia.org/property/data
p2926
aVhttp://dbpedia.org/ontology/occupation
p2927
asI8
(lp2928
Vhttp://dbpedia.org/property/origin
p2929
aVhttp://dbpedia.org/property/placeOfDeath
p2930
aVhttp://dbpedia.org/property/awardedBy
p2931
aVhttp://dbpedia.org/property/allegiance
p2932
aVhttp://dbpedia.org/ontology/PopulatedPlace/areaTotal
p2933
aVhttp://www.w3.org/ns/prov#wasDerivedFrom
p2934
aVhttp://dbpedia.org/property/1rpt2Loc
p2935
aVhttp://dbpedia.org/ontology/fastestDriverCountry
p2936
aVhttp://dbpedia.org/property/rd1t7Loc
p2937
aVhttp://dbpedia.org/ontology/regionServed
p2938
aVhttp://dbpedia.org/ontology/nationality
p2939
aVhttp://dbpedia.org/property/placeOfBirth
p2940
aVhttp://dbpedia.org/property/rallybase
p2941
aVhttp://dbpedia.org/property/establishedEvent
p2942
aVhttp://dbpedia.org/ontology/abstract
p2943
aVhttp://dbpedia.org/ontology/recordedIn
p2944
aVhttp://dbpedia.org/property/venue
p2945
aVhttp://dbpedia.org/property/shipNamesake
p2946
aVhttp://dbpedia.org/property/nationalOrigin
p2947
aVhttp://dbpedia.org/property/shipRoute
p2948
aVhttp://www.georss.org/georss/point
p2949
aVhttp://dbpedia.org/ontology/location
p2950
aVhttp://dbpedia.org/property/city
p2951
aVhttp://dbpedia.org/property/countriesAffected
p2952
aVhttp://dbpedia.org/property/area
p2953
aVhttp://dbpedia.org/ontology/hometown
p2954
aVhttp://dbpedia.org/property/rd4t1Loc
p2955
aVhttp://www.w3.org/2000/01/rdf-schema#seeAlso
p2956
aVhttp://dbpedia.org/property/hostCity
p2957
aVhttp://dbpedia.org/ontology/poleDriverCountry
p2958
aVhttp://dbpedia.org/property/utcOffset
p2959
aVhttp://dbpedia.org/ontology/country
p2960
aVhttp://dbpedia.org/property/returns
p2961
aVhttp://dbpedia.org/property/home
p2962
aVhttp://dbpedia.org/property/rd1t5Loc
p2963
aVhttp://dbpedia.org/property/birthPlace
p2964
aVhttp://dbpedia.org/property/country
p2965
aVhttp://dbpedia.org/property/areaServed
p2966
aVhttp://dbpedia.org/ontology/wikiPageExternalLink
p2967
aVhttp://dbpedia.org/property/runnersUp
p2968
aVhttp://dbpedia.org/ontology/firstDriverCountry
p2969
aVhttp://dbpedia.org/property/deathPlace
p2970
aVhttp://dbpedia.org/property/states
p2971
aVhttp://dbpedia.org/ontology/deathPlace
p2972
aVhttp://dbpedia.org/property/headquarters
p2973
aVhttp://dbpedia.org/ontology/birthPlace
p2974
aVhttp://dbpedia.org/ontology/wikiPageRedirects
p2975
aVhttp://purl.org/voc/vrank#hasRank
p2976
aVhttp://dbpedia.org/property/rd4t2Loc
p2977
aVhttp://www.w3.org/2002/07/owl#sameAs
p2978
aVhttp://dbpedia.org/ontology/origin
p2979
aVhttp://dbpedia.org/property/populationEstimateRank
p2980
aVhttp://dbpedia.org/property/firstTeam
p2981
aVhttp://www.w3.org/1999/02/22-rdf-syntax-ns#type
p2982
aVhttp://dbpedia.org/ontology/secondDriverCountry
p2983
aVhttp://dbpedia.org/property/rd1t2Loc
p2984
aVhttp://dbpedia.org/property/withdraws
p2985
aVhttp://dbpedia.org/property/shipCountry
p2986
aVhttp://dbpedia.org/property/pointsTeam
p2987
aVhttp://dbpedia.org/property/gdpNominalPerCapita
p2988
aVhttp://dbpedia.org/ontology/city
p2989
aVhttp://dbpedia.org/property/rd1t3Loc
p2990
aVhttp://dbpedia.org/property/rd5t1Loc
p2991
aVhttp://dbpedia.org/property/stadium
p2992
aVhttp://dbpedia.org/property/place
p2993
aVhttp://dbpedia.org/property/debuts
p2994
aVhttp://dbpedia.org/property/territorialExtent
p2995
aVhttp://dbpedia.org/property/utcOffsetDst
p2996
aVhttp://dbpedia.org/ontology/thirdDriverCountry
p2997
aVhttp://www.w3.org/2002/07/owl#differentFrom
p2998
aVhttp://dbpedia.org/property/2rpt1Loc
p2999
aVhttp://dbpedia.org/property/nations
p3000
aVhttp://dbpedia.org/property/locations
p3001
aVhttp://dbpedia.org/property/site
p3002
aVhttp://dbpedia.org/ontology/place
p3003
aVhttp://purl.org/dc/terms/subject
p3004
aVhttp://dbpedia.org/property/rd2t2Loc
p3005
aVhttp://dbpedia.org/property/location
p3006
aVhttp://dbpedia.org/property/rd3t2Loc
p3007
aVhttp://dbpedia.org/property/rd1t6Loc
p3008
aVhttp://dbpedia.org/property/title
p3009
aVhttp://dbpedia.org/property/basinCountries
p3010
aVhttp://dbpedia.org/ontology/assembly
p3011
aVhttp://dbpedia.org/property/rd2t1Loc
p3012
aVhttp://www.w3.org/2000/01/rdf-schema#comment
p3013
aVhttp://dbpedia.org/property/populationEstimateYear
p3014
aVhttp://dbpedia.org/property/rd1t1Loc
p3015
aVhttp://dbpedia.org/property/rd3t1Loc
p3016
aVhttp://dbpedia.org/ontology/locationCity
p3017
asI9
(lp3018
sI10
(lp3019
sI11
(lp3020
Vhttp://dbpedia.org/property/home
p3021
aVhttp://www.georss.org/georss/point
p3022
aVhttp://dbpedia.org/property/location
p3023
aVhttp://www.w3.org/1999/02/22-rdf-syntax-ns#type
p3024
asI12
(lp3025
sI13
(lp3026
ssI5
(dp3027
I0
g2620
sI1
g2634
sI2
g2664
sI3
g2676
sI4
g2687
sI5
(lp3028
sI6
(lp3029
sI7
(lp3030
sI8
(lp3031
sI9
(lp3032
sI10
(lp3033
sI11
(lp3034
sI12
(lp3035
sI13
(lp3036
ssI6
(dp3037
I0
g2621
sI1
g2635
sI2
g2665
sI3
g2677
sI4
g2698
sI5
g3029
sI6
(lp3038
sI7
(lp3039
sI8
(lp3040
sI9
(lp3041
sI10
(lp3042
sI11
(lp3043
sI12
(lp3044
sI13
(lp3045
ssI7
(dp3046
I0
g2622
sI1
g2636
sI2
g2666
sI3
g2678
sI4
g2701
sI5
g3030
sI6
g3039
sI7
(lp3047
sI8
(lp3048
sI9
(lp3049
sI10
(lp3050
sI11
(lp3051
sI12
(lp3052
sI13
(lp3053
ssI8
(dp3054
I0
g2623
sI1
g2637
sI2
g2667
sI3
g2679
sI4
g2928
sI5
g3031
sI6
g3040
sI7
g3048
sI8
(lp3055
sI9
(lp3056
sI10
(lp3057
sI11
(lp3058
sI12
(lp3059
sI13
(lp3060
ssI9
(dp3061
I0
g2624
sI1
g2638
sI2
g2668
sI3
g2680
sI4
g3018
sI5
g3032
sI6
g3041
sI7
g3049
sI8
g3056
sI9
(lp3062
sI10
(lp3063
sI11
(lp3064
sI12
(lp3065
sI13
(lp3066
ssI10
(dp3067
I0
g2625
sI1
g2639
sI2
g2669
sI3
g2681
sI4
g3019
sI5
g3033
sI6
g3042
sI7
g3050
sI8
g3057
sI10
(lp3068
sI11
(lp3069
sI12
(lp3070
sI13
(lp3071
ssI11
(dp3072
I0
g2626
sI1
g2640
sI2
g2670
sI3
g2682
sI4
g3020
sI5
g3034
sI6
g3043
sI7
g3051
sI8
g3058
sI9
g3064
sI10
g3069
sI11
(lp3073
sI12
(lp3074
sI13
(lp3075
ssI12
(dp3076
I0
g2627
sI1
g2641
sI2
g2671
sI3
g2683
sI4
g3025
sI5
g3035
sI6
g3044
sI7
g3052
sI8
g3059
sI11
g3074
sI12
(lp3077
sI13
(lp3078
ssI13
(dp3079
I0
g2628
sI1
g2642
sI2
g2672
sI3
g2684
sI4
g3026
sI5
g3036
sI6
g3045
sI7
g3053
sI8
g3060
sI11
g3075
sI13
(lp3080
ssa.