(lp1
(lp2
(dp3
Vstart
p4
I0
sVdisambiguatedURL
p5
NsVnamedEntity
p6
Vwarsaw tv mast
p7
sVoffset
p8
I14
saa(lp9
(dp10
Vstart
p11
I0
sVdisambiguatedURL
p12
NsVnamedEntity
p13
Vkvly tower
p14
sVoffset
p15
I10
saa(lp16
(dp17
Vstart
p18
I0
sVdisambiguatedURL
p19
NsVnamedEntity
p20
Vc. n. tower
p21
sVoffset
p22
I11
saa(lp23
(dp24
Vstart
p25
I0
sVdisambiguatedURL
p26
Vhttp://dbpedia.org/resource/Ostankino_Tower
p27
sVnamedEntity
p28
Vostankino tower
p29
sVoffset
p30
I15
saa(lp31
(dp32
Vstart
p33
I0
sVdisambiguatedURL
p34
NsVnamedEntity
p35
Vtaipei 101
p36
sVoffset
p37
I10
saa(lp38
(dp39
Vstart
p40
I0
sVdisambiguatedURL
p41
Vhttp://dbpedia.org/resource/Pearl_of_the_Orient
p42
sVnamedEntity
p43
Vpearl of the orient
p44
sVoffset
p45
I19
saa(lp46
(dp47
Vstart
p48
I0
sVdisambiguatedURL
p49
Vhttp://dbpedia.org/resource/Petronas_Towers
p50
sVnamedEntity
p51
Vpetronas towers
p52
sVoffset
p53
I15
saa(lp54
(dp55
Vstart
p56
I0
sVdisambiguatedURL
p57
Vhttp://dbpedia.org/resource/Willis_Tower
p58
sVnamedEntity
p59
Vsears tower
p60
sVoffset
p61
I11
saa(lp62
(dp63
Vstart
p64
I0
sVdisambiguatedURL
p65
NsVnamedEntity
p66
Vkl tower
p67
sVoffset
p68
I8
saa(lp69
(dp70
Vstart
p71
I0
sVdisambiguatedURL
p72
NsVnamedEntity
p73
Vjin mao tower
p74
sVoffset
p75
I13
saa(lp76
(dp77
Vstart
p78
I0
sVdisambiguatedURL
p79
NsVnamedEntity
p80
Vtianjin radio and tv tower
p81
sVoffset
p82
I26
saa(lp83
(dp84
Vstart
p85
I0
sVdisambiguatedURL
p86
Vhttp://dbpedia.org/resource/World_Trade_Center
p87
sVnamedEntity
p88
Vworld trade center
p89
sVoffset
p90
I18
saa(lp91
(dp92
Vstart
p93
I0
sVdisambiguatedURL
p94
Vhttp://dbpedia.org/resource/International_Finance_Centre
p95
sVnamedEntity
p96
V2 international finance centre
p97
sVoffset
p98
I30
saa(lp99
(dp100
Vstart
p101
I0
sVdisambiguatedURL
p102
NsVnamedEntity
p103
Vcentral radio and tv tower
p104
sVoffset
p105
I26
saa(lp106
(dp107
Vstart
p108
I0
sVdisambiguatedURL
p109
NsVnamedEntity
p110
Vcitic plaza
p111
sVoffset
p112
I11
saa(lp113
(dp114
Vstart
p115
I0
sVdisambiguatedURL
p116
NsVnamedEntity
p117
Vshun hing square
p118
sVoffset
p119
I16
saa(lp120
(dp121
Vstart
p122
I0
sVdisambiguatedURL
p123
NsVnamedEntity
p124
Vplaza rakyat
p125
sVoffset
p126
I12
saa(lp127
(dp128
Vstart
p129
I0
sVdisambiguatedURL
p130
Vhttp://dbpedia.org/resource/Empire_State_Building
p131
sVnamedEntity
p132
Vempire state building
p133
sVoffset
p134
I21
saa(lp135
(dp136
Vstart
p137
I0
sVdisambiguatedURL
p138
NsVnamedEntity
p139
Vtashkent tower
p140
sVoffset
p141
I14
saa(lp142
(dp143
Vstart
p144
I0
sVdisambiguatedURL
p145
Vhttp://dbpedia.org/resource/Liberation_Tower,_Bessarabia
p146
sVnamedEntity
p147
Vliberation tower
p148
sVoffset
p149
I16
saa.