ccollections
defaultdict
p1
(c__builtin__
dict
p2
tRp3
I3
(dp4
I1
(lp5
Vhttp://www.w3.org/1999/02/22-rdf-syntax-ns#type
p6
aVhttp://purl.org/dc/terms/subject
p7
aVhttp://dbpedia.org/ontology/location
p8
aVhttp://www.w3.org/2000/01/rdf-schema#comment
p9
aVhttp://dbpedia.org/ontology/abstract
p10
aVhttp://dbpedia.org/property/location
p11
asI2
(lp12
Vhttp://dbpedia.org/ontology/wikiPageExternalLink
p13
aVhttp://purl.org/dc/terms/subject
p14
aVhttp://dbpedia.org/ontology/location
p15
aVhttp://www.w3.org/2000/01/rdf-schema#comment
p16
aVhttp://dbpedia.org/ontology/abstract
p17
aVhttp://dbpedia.org/property/location
p18
aVhttp://dbpedia.org/ontology/owner
p19
aVhttp://dbpedia.org/property/owner
p20
asI3
(lp21
Vhttp://dbpedia.org/ontology/abstract
p22
aVhttp://www.w3.org/2000/01/rdf-schema#comment
p23
asI4
(lp24
Vhttp://dbpedia.org/ontology/abstract
p25
aVhttp://www.w3.org/2000/01/rdf-schema#comment
p26
asI5
(lp27
ssI6
(dp28
I1
(lp29
Vhttp://dbpedia.org/ontology/abstract
p30
aVhttp://dbpedia.org/property/location
p31
aVhttp://www.w3.org/2000/01/rdf-schema#comment
p32
asI2
(lp33
Vhttp://dbpedia.org/ontology/wikiPageExternalLink
p34
aVhttp://www.w3.org/1999/02/22-rdf-syntax-ns#type
p35
aVhttp://purl.org/dc/terms/subject
p36
aVhttp://dbpedia.org/property/headquarters
p37
aVhttp://www.w3.org/2000/01/rdf-schema#comment
p38
aVhttp://dbpedia.org/ontology/abstract
p39
aVhttp://dbpedia.org/property/location
p40
aVhttp://dbpedia.org/ontology/wikiPageRedirects
p41
asI3
(lp42
Vhttp://dbpedia.org/ontology/abstract
p43
aVhttp://www.w3.org/2000/01/rdf-schema#comment
p44
asI4
(lp45
sI5
(lp46
ssI7
(dp47
I1
(lp48
sI2
(lp49
sI3
(lp50
Vhttp://dbpedia.org/ontology/abstract
p51
aVhttp://www.w3.org/2000/01/rdf-schema#comment
p52
asI4
(lp53
sI5
(lp54
Vhttp://dbpedia.org/ontology/abstract
p55
aVhttp://www.w3.org/1999/02/22-rdf-syntax-ns#type
p56
assI11
(dp57
I1
(lp58
sI2
(lp59
Vhttp://dbpedia.org/ontology/abstract
p60
aVhttp://dbpedia.org/property/space
p61
asI3
(lp62
sI4
(lp63
sI5
(lp64
ssI12
(dp65
I1
(lp66
Vhttp://dbpedia.org/ontology/abstract
p67
aVhttp://www.w3.org/2000/01/rdf-schema#comment
p68
asI2
(lp69
sI3
(lp70
sI4
(lp71
sI5
(lp72
ssI142
(dp73
I1
(lp74
sI2
(lp75
sI3
(lp76
Vhttp://dbpedia.org/ontology/abstract
p77
aVhttp://www.w3.org/1999/02/22-rdf-syntax-ns#type
p78
aVhttp://purl.org/dc/terms/subject
p79
aVhttp://www.w3.org/2000/01/rdf-schema#comment
p80
asI4
(lp81
Vhttp://dbpedia.org/ontology/abstract
p82
aVhttp://www.w3.org/2000/01/rdf-schema#comment
p83
asI5
(lp84
Vhttp://dbpedia.org/ontology/wikiPageExternalLink
p85
aVhttp://xmlns.com/foaf/0.1/primaryTopic
p86
aVhttp://www.w3.org/1999/02/22-rdf-syntax-ns#type
p87
aVhttp://purl.org/dc/terms/subject
p88
aVhttp://www.w3.org/2000/01/rdf-schema#comment
p89
aVhttp://dbpedia.org/ontology/abstract
p90
aVhttp://xmlns.com/foaf/0.1/depiction
p91
aVhttp://dbpedia.org/ontology/wikiPageRedirects
p92
aVhttp://www.w3.org/ns/prov#wasDerivedFrom
p93
aVhttp://xmlns.com/foaf/0.1/isPrimaryTopicOf
p94
aVhttp://xmlns.com/foaf/0.1/name
p95
aVhttp://xmlns.com/foaf/0.1/homepage
p96
aVhttp://dbpedia.org/property/hasPhotoCollection
p97
aVhttp://purl.org/voc/vrank#hasRank
p98
aVhttp://www.w3.org/2000/01/rdf-schema#label
p99
aVhttp://www.w3.org/2002/07/owl#sameAs
p100
aVhttp://dbpedia.org/ontology/thumbnail
p101
assI17
(dp102
I1
(lp103
sI2
(lp104
Vhttp://dbpedia.org/property/space
p105
asI3
(lp106
Vhttp://dbpedia.org/ontology/abstract
p107
aVhttp://www.w3.org/2000/01/rdf-schema#comment
p108
asI4
(lp109
Vhttp://dbpedia.org/ontology/abstract
p110
aVhttp://www.w3.org/2000/01/rdf-schema#comment
p111
asI5
(lp112
Vhttp://dbpedia.org/ontology/wikiPageExternalLink
p113
aVhttp://purl.org/voc/vrank#hasRank
p114
aVhttp://dbpedia.org/ontology/abstract
p115
aVhttp://www.w3.org/1999/02/22-rdf-syntax-ns#type
p116
aVhttp://www.w3.org/2000/01/rdf-schema#comment
p117
assI19
(dp118
I1
(lp119
sI2
(lp120
sI3
(lp121
sI4
(lp122
sI5
(lp123
Vhttp://dbpedia.org/ontology/wikiPageExternalLink
p124
aVhttp://www.georss.org/georss/point
p125
aVhttp://purl.org/dc/terms/subject
p126
aVhttp://www.w3.org/2000/01/rdf-schema#comment
p127
aVhttp://dbpedia.org/ontology/abstract
p128
aVhttp://purl.org/voc/vrank#hasRank
p129
aVhttp://www.w3.org/1999/02/22-rdf-syntax-ns#type
p130
aVhttp://dbpedia.org/property/complete
p131
aVhttp://dbpedia.org/property/begin
p132
aVhttp://www.w3.org/2002/07/owl#sameAs
p133
assI22
(dp134
I1
(lp135
Vhttp://dbpedia.org/ontology/abstract
p136
aVhttp://www.w3.org/2000/01/rdf-schema#comment
p137
asI2
(lp138
sI3
(lp139
sI4
(lp140
sI5
(lp141
Vhttp://www.w3.org/1999/02/22-rdf-syntax-ns#type
p142
aVhttp://purl.org/dc/terms/subject
p143
aVhttp://www.w3.org/2000/01/rdf-schema#comment
p144
aVhttp://dbpedia.org/ontology/abstract
p145
aVhttp://dbpedia.org/ontology/wikiPageRedirects
p146
aVhttp://dbpedia.org/property/wordnet_type
p147
aVhttp://purl.org/voc/vrank#hasRank
p148
aVhttp://www.w3.org/ns/prov#wasDerivedFrom
p149
aVhttp://www.w3.org/2002/07/owl#sameAs
p150
assI153
(dp151
I1
(lp152
sI2
(lp153
sI3
(lp154
Vhttp://dbpedia.org/ontology/abstract
p155
aVhttp://www.w3.org/2000/01/rdf-schema#comment
p156
asI4
(lp157
Vhttp://dbpedia.org/ontology/abstract
p158
aVhttp://www.w3.org/2000/01/rdf-schema#comment
p159
asI5
(lp160
ssI161
(dp161
I1
(lp162
sI2
(lp163
Vhttp://dbpedia.org/ontology/wikiPageExternalLink
p164
asI3
(lp165
Vhttp://dbpedia.org/ontology/abstract
p166
aVhttp://www.w3.org/2000/01/rdf-schema#comment
p167
asI4
(lp168
sI5
(lp169
ssI34
(dp170
I1
(lp171
Vhttp://dbpedia.org/ontology/wikiPageExternalLink
p172
aVhttp://xmlns.com/foaf/0.1/primaryTopic
p173
aVhttp://www.w3.org/1999/02/22-rdf-syntax-ns#type
p174
aVhttp://purl.org/dc/terms/subject
p175
aVhttp://dbpedia.org/ontology/location
p176
aVhttp://www.w3.org/2000/01/rdf-schema#comment
p177
aVhttp://dbpedia.org/ontology/wikiPageDisambiguates
p178
aVhttp://dbpedia.org/ontology/abstract
p179
aVhttp://xmlns.com/foaf/0.1/depiction
p180
aVhttp://dbpedia.org/property/name
p181
aVhttp://dbpedia.org/ontology/wikiPageRedirects
p182
aVhttp://www.w3.org/ns/prov#wasDerivedFrom
p183
aVhttp://xmlns.com/foaf/0.1/isPrimaryTopicOf
p184
aVhttp://xmlns.com/foaf/0.1/name
p185
aVhttp://xmlns.com/foaf/0.1/homepage
p186
aVhttp://dbpedia.org/property/hasPhotoCollection
p187
aVhttp://dbpedia.org/property/title
p188
aVhttp://www.w3.org/2000/01/rdf-schema#label
p189
aVhttp://www.w3.org/2002/07/owl#sameAs
p190
aVhttp://dbpedia.org/ontology/thumbnail
p191
asI2
(lp192
Vhttp://dbpedia.org/ontology/abstract
p193
aVhttp://purl.org/dc/terms/subject
p194
aVhttp://www.w3.org/2000/01/rdf-schema#comment
p195
asI3
(lp196
Vhttp://dbpedia.org/ontology/abstract
p197
aVhttp://www.w3.org/2000/01/rdf-schema#comment
p198
asI4
(lp199
sI5
(lp200
Vhttp://dbpedia.org/ontology/abstract
p201
aVhttp://www.w3.org/2000/01/rdf-schema#comment
p202
assI166
(dp203
I1
(lp204
sI2
(lp205
sI3
(lp206
sI4
(lp207
sI5
(lp208
ssI210
(dp209
I1
(lp210
sI2
(lp211
Vhttp://dbpedia.org/ontology/abstract
p212
aVhttp://www.w3.org/2000/01/rdf-schema#comment
p213
asI3
(lp214
Vhttp://dbpedia.org/ontology/abstract
p215
aVhttp://dbpedia.org/property/years
p216
aVhttp://www.w3.org/2000/01/rdf-schema#comment
p217
asI4
(lp218
sI5
(lp219
Vhttp://dbpedia.org/ontology/abstract
p220
aVhttp://www.georss.org/georss/point
p221
aVhttp://www.w3.org/2000/01/rdf-schema#comment
p222
assI41
(dp223
I1
(lp224
Vhttp://dbpedia.org/ontology/wikiPageExternalLink
p225
aVhttp://www.w3.org/1999/02/22-rdf-syntax-ns#type
p226
aVhttp://purl.org/dc/terms/subject
p227
aVhttp://dbpedia.org/ontology/location
p228
aVhttp://www.w3.org/2000/01/rdf-schema#comment
p229
aVhttp://dbpedia.org/ontology/abstract
p230
aVhttp://dbpedia.org/ontology/wikiPageRedirects
p231
aVhttp://dbpedia.org/property/owner
p232
aVhttp://dbpedia.org/property/caption
p233
aVhttp://dbpedia.org/property/alt
p234
aVhttp://dbpedia.org/property/mapType
p235
asI2
(lp236
Vhttp://dbpedia.org/ontology/wikiPageExternalLink
p237
aVhttp://purl.org/dc/terms/subject
p238
aVhttp://dbpedia.org/ontology/location
p239
aVhttp://www.w3.org/2000/01/rdf-schema#comment
p240
aVhttp://dbpedia.org/ontology/abstract
p241
aVhttp://dbpedia.org/ontology/wikiPageRedirects
p242
aVhttp://dbpedia.org/property/owner
p243
asI3
(lp244
sI4
(lp245
sI5
(lp246
Vhttp://dbpedia.org/ontology/abstract
p247
aVhttp://www.w3.org/1999/02/22-rdf-syntax-ns#type
p248
assI170
(dp249
I1
(lp250
Vhttp://dbpedia.org/ontology/abstract
p251
aVhttp://www.w3.org/2000/01/rdf-schema#comment
p252
asI2
(lp253
Vhttp://www.w3.org/1999/02/22-rdf-syntax-ns#type
p254
aVhttp://purl.org/dc/terms/subject
p255
aVhttp://dbpedia.org/ontology/location
p256
aVhttp://www.w3.org/2000/01/rdf-schema#comment
p257
aVhttp://dbpedia.org/ontology/abstract
p258
aVhttp://xmlns.com/foaf/0.1/depiction
p259
aVhttp://dbpedia.org/property/location
p260
aVhttp://dbpedia.org/ontology/thumbnail
p261
asI3
(lp262
sI4
(lp263
sI5
(lp264
ssI44
(dp265
I1
(lp266
sI2
(lp267
sI3
(lp268
Vhttp://dbpedia.org/ontology/abstract
p269
aVhttp://www.w3.org/2000/01/rdf-schema#comment
p270
asI4
(lp271
sI5
(lp272
Vhttp://dbpedia.org/ontology/wikiPageExternalLink
p273
aVhttp://www.w3.org/1999/02/22-rdf-syntax-ns#type
p274
aVhttp://purl.org/dc/terms/subject
p275
aVhttp://www.w3.org/2000/01/rdf-schema#comment
p276
aVhttp://dbpedia.org/ontology/abstract
p277
aVhttp://dbpedia.org/property/wordnet_type
p278
aVhttp://dbpedia.org/property/owner
p279
aVhttp://www.w3.org/2002/07/owl#sameAs
p280
assI176
(dp281
I1
(lp282
sI2
(lp283
Vhttp://dbpedia.org/ontology/abstract
p284
aVhttp://www.w3.org/2000/01/rdf-schema#comment
p285
asI3
(lp286
Vhttp://dbpedia.org/ontology/abstract
p287
aVhttp://www.w3.org/2000/01/rdf-schema#comment
p288
asI4
(lp289
Vhttp://dbpedia.org/ontology/abstract
p290
aVhttp://www.w3.org/2000/01/rdf-schema#comment
p291
asI5
(lp292
ssI177
(dp293
I1
(lp294
Vhttp://dbpedia.org/property/caption
p295
aVhttp://dbpedia.org/ontology/abstract
p296
aVhttp://www.w3.org/2000/01/rdf-schema#comment
p297
asI2
(lp298
sI3
(lp299
sI4
(lp300
sI5
(lp301
Vhttp://dbpedia.org/property/revenue
p302
aVhttp://www.w3.org/1999/02/22-rdf-syntax-ns#type
p303
aVhttp://purl.org/dc/terms/subject
p304
aVhttp://dbpedia.org/ontology/equity
p305
aVhttp://dbpedia.org/ontology/abstract
p306
aVhttp://www.w3.org/2000/01/rdf-schema#comment
p307
aVhttp://dbpedia.org/ontology/wikiPageRedirects
p308
aVhttp://dbpedia.org/property/equity
p309
aVhttp://dbpedia.org/property/wordnet_type
p310
aVhttp://dbpedia.org/property/netIncome
p311
aVhttp://dbpedia.org/property/image
p312
aVhttp://dbpedia.org/property/assets
p313
aVhttp://dbpedia.org/property/caption
p314
aVhttp://dbpedia.org/property/hoovers
p315
aVhttp://dbpedia.org/ontology/netIncome
p316
aVhttp://dbpedia.org/ontology/operatingIncome
p317
aVhttp://dbpedia.org/ontology/assets
p318
aVhttp://www.w3.org/2002/07/owl#sameAs
p319
aVhttp://dbpedia.org/ontology/revenue
p320
assI179
(dp321
I1
(lp322
Vhttp://purl.org/dc/terms/subject
p323
aVhttp://dbpedia.org/ontology/location
p324
aVhttp://www.w3.org/2000/01/rdf-schema#comment
p325
aVhttp://dbpedia.org/ontology/abstract
p326
aVhttp://xmlns.com/foaf/0.1/depiction
p327
aVhttp://dbpedia.org/property/location
p328
aVhttp://dbpedia.org/ontology/thumbnail
p329
asI2
(lp330
Vhttp://dbpedia.org/ontology/abstract
p331
aVhttp://www.w3.org/2000/01/rdf-schema#comment
p332
asI3
(lp333
sI4
(lp334
sI5
(lp335
ssI54
(dp336
I1
(lp337
Vhttp://www.w3.org/1999/02/22-rdf-syntax-ns#type
p338
aVhttp://purl.org/dc/terms/subject
p339
aVhttp://dbpedia.org/ontology/location
p340
aVhttp://www.w3.org/2000/01/rdf-schema#comment
p341
aVhttp://dbpedia.org/ontology/abstract
p342
aVhttp://dbpedia.org/property/location
p343
asI2
(lp344
Vhttp://www.w3.org/1999/02/22-rdf-syntax-ns#type
p345
aVhttp://purl.org/dc/terms/subject
p346
aVhttp://dbpedia.org/ontology/location
p347
aVhttp://dbpedia.org/property/location
p348
asI3
(lp349
sI4
(lp350
sI5
(lp351
Vhttp://dbpedia.org/ontology/abstract
p352
aVhttp://www.w3.org/1999/02/22-rdf-syntax-ns#type
p353
aVhttp://www.w3.org/2000/01/rdf-schema#comment
p354
assI58
(dp355
I1
(lp356
sI2
(lp357
Vhttp://dbpedia.org/ontology/abstract
p358
aVhttp://www.w3.org/2000/01/rdf-schema#comment
p359
asI3
(lp360
Vhttp://dbpedia.org/ontology/abstract
p361
aVhttp://www.w3.org/2000/01/rdf-schema#comment
p362
asI4
(lp363
Vhttp://dbpedia.org/ontology/abstract
p364
aVhttp://www.w3.org/2000/01/rdf-schema#comment
p365
asI5
(lp366
Vhttp://dbpedia.org/ontology/wikiPageExternalLink
p367
aVhttp://xmlns.com/foaf/0.1/primaryTopic
p368
aVhttp://www.georss.org/georss/point
p369
aVhttp://purl.org/dc/terms/subject
p370
aVhttp://www.w3.org/2000/01/rdf-schema#comment
p371
aVhttp://dbpedia.org/ontology/abstract
p372
aVhttp://xmlns.com/foaf/0.1/depiction
p373
aVhttp://dbpedia.org/ontology/wikiPageRedirects
p374
aVhttp://dbpedia.org/property/wordnet_type
p375
aVhttp://www.w3.org/ns/prov#wasDerivedFrom
p376
aVhttp://www.w3.org/1999/02/22-rdf-syntax-ns#type
p377
aVhttp://xmlns.com/foaf/0.1/isPrimaryTopicOf
p378
aVhttp://xmlns.com/foaf/0.1/name
p379
aVhttp://xmlns.com/foaf/0.1/homepage
p380
aVhttp://dbpedia.org/property/hasPhotoCollection
p381
aVhttp://purl.org/voc/vrank#hasRank
p382
aVhttp://www.w3.org/2000/01/rdf-schema#label
p383
aVhttp://www.w3.org/2002/07/owl#sameAs
p384
aVhttp://dbpedia.org/ontology/thumbnail
p385
assI59
(dp386
I1
(lp387
sI2
(lp388
sI3
(lp389
Vhttp://dbpedia.org/ontology/wikiPageExternalLink
p390
asI4
(lp391
Vhttp://dbpedia.org/ontology/wikiPageExternalLink
p392
asI5
(lp393
ssI60
(dp394
I1
(lp395
sI2
(lp396
Vhttp://dbpedia.org/ontology/wikiPageExternalLink
p397
aVhttp://dbpedia.org/ontology/abstract
p398
aVhttp://www.w3.org/2000/01/rdf-schema#comment
p399
asI3
(lp400
Vhttp://dbpedia.org/ontology/abstract
p401
aVhttp://www.w3.org/2000/01/rdf-schema#comment
p402
asI4
(lp403
Vhttp://dbpedia.org/ontology/abstract
p404
aVhttp://www.w3.org/2000/01/rdf-schema#comment
p405
asI5
(lp406
ssI63
(dp407
I1
(lp408
Vhttp://dbpedia.org/ontology/wikiPageExternalLink
p409
aVhttp://www.w3.org/1999/02/22-rdf-syntax-ns#type
p410
aVhttp://purl.org/dc/terms/subject
p411
aVhttp://dbpedia.org/ontology/location
p412
aVhttp://www.w3.org/2000/01/rdf-schema#comment
p413
aVhttp://dbpedia.org/ontology/abstract
p414
aVhttp://dbpedia.org/property/location
p415
asI2
(lp416
Vhttp://dbpedia.org/property/location
p417
aVhttp://dbpedia.org/ontology/abstract
p418
aVhttp://purl.org/dc/terms/subject
p419
aVhttp://dbpedia.org/ontology/location
p420
aVhttp://www.w3.org/2000/01/rdf-schema#comment
p421
asI3
(lp422
Vhttp://dbpedia.org/ontology/abstract
p423
aVhttp://www.w3.org/2000/01/rdf-schema#comment
p424
asI4
(lp425
sI5
(lp426
Vhttp://www.georss.org/georss/point
p427
aVhttp://purl.org/dc/terms/subject
p428
aVhttp://www.w3.org/2000/01/rdf-schema#comment
p429
aVhttp://dbpedia.org/ontology/abstract
p430
aVhttp://xmlns.com/foaf/0.1/depiction
p431
aVhttp://purl.org/voc/vrank#hasRank
p432
aVhttp://www.w3.org/1999/02/22-rdf-syntax-ns#type
p433
aVhttp://dbpedia.org/ontology/thumbnail
p434
aVhttp://www.w3.org/ns/prov#wasDerivedFrom
p435
aVhttp://www.w3.org/2002/07/owl#sameAs
p436
assI192
(dp437
I1
(lp438
sI2
(lp439
Vhttp://dbpedia.org/ontology/wikiPageExternalLink
p440
asI3
(lp441
Vhttp://dbpedia.org/ontology/abstract
p442
aVhttp://www.w3.org/2000/01/rdf-schema#comment
p443
asI4
(lp444
Vhttp://dbpedia.org/ontology/abstract
p445
aVhttp://www.w3.org/2000/01/rdf-schema#comment
p446
asI5
(lp447
ssI65
(dp448
I1
(lp449
sI2
(lp450
sI3
(lp451
Vhttp://dbpedia.org/ontology/abstract
p452
aVhttp://www.w3.org/2000/01/rdf-schema#comment
p453
asI4
(lp454
sI5
(lp455
ssI196
(dp456
I1
(lp457
Vhttp://www.w3.org/1999/02/22-rdf-syntax-ns#type
p458
aVhttp://purl.org/dc/terms/subject
p459
aVhttp://dbpedia.org/ontology/location
p460
aVhttp://www.w3.org/2000/01/rdf-schema#comment
p461
aVhttp://dbpedia.org/ontology/abstract
p462
aVhttp://dbpedia.org/property/location
p463
asI2
(lp464
Vhttp://www.w3.org/1999/02/22-rdf-syntax-ns#type
p465
aVhttp://purl.org/dc/terms/subject
p466
aVhttp://dbpedia.org/ontology/location
p467
aVhttp://www.w3.org/2000/01/rdf-schema#comment
p468
aVhttp://dbpedia.org/ontology/abstract
p469
aVhttp://dbpedia.org/property/location
p470
asI3
(lp471
sI4
(lp472
sI5
(lp473
Vhttp://dbpedia.org/ontology/wikiPageExternalLink
p474
aVhttp://www.w3.org/1999/02/22-rdf-syntax-ns#type
p475
aVhttp://purl.org/dc/terms/subject
p476
aVhttp://www.w3.org/2000/01/rdf-schema#comment
p477
aVhttp://dbpedia.org/ontology/abstract
p478
aVhttp://www.w3.org/ns/prov#wasDerivedFrom
p479
aVhttp://www.w3.org/2002/07/owl#sameAs
p480
assI212
(dp481
I1
(lp482
Vhttp://xmlns.com/foaf/0.1/primaryTopic
p483
aVhttp://dbpedia.org/ontology/wikiPageRedirects
p484
aVhttp://www.w3.org/ns/prov#wasDerivedFrom
p485
aVhttp://dbpedia.org/property/management
p486
aVhttp://www.w3.org/1999/02/22-rdf-syntax-ns#type
p487
aVhttp://dbpedia.org/property/mapType
p488
aVhttp://xmlns.com/foaf/0.1/isPrimaryTopicOf
p489
aVhttp://dbpedia.org/ontology/wikiPageExternalLink
p490
aVhttp://dbpedia.org/property/mapCaption
p491
aVhttp://purl.org/dc/terms/subject
p492
aVhttp://dbpedia.org/ontology/abstract
p493
aVhttp://xmlns.com/foaf/0.1/depiction
p494
aVhttp://dbpedia.org/property/location
p495
aVhttp://dbpedia.org/ontology/thumbnail
p496
aVhttp://dbpedia.org/property/hasPhotoCollection
p497
aVhttp://www.w3.org/2000/01/rdf-schema#label
p498
aVhttp://dbpedia.org/property/title
p499
aVhttp://dbpedia.org/ontology/location
p500
aVhttp://www.w3.org/2000/01/rdf-schema#comment
p501
aVhttp://dbpedia.org/property/name
p502
aVhttp://xmlns.com/foaf/0.1/name
p503
aVhttp://xmlns.com/foaf/0.1/homepage
p504
aVhttp://www.w3.org/2002/07/owl#sameAs
p505
asI2
(lp506
Vhttp://dbpedia.org/property/mapType
p507
asI3
(lp508
Vhttp://dbpedia.org/ontology/abstract
p509
aVhttp://www.georss.org/georss/point
p510
aVhttp://www.w3.org/2000/01/rdf-schema#comment
p511
asI4
(lp512
Vhttp://dbpedia.org/ontology/abstract
p513
aVhttp://www.w3.org/2000/01/rdf-schema#comment
p514
asI5
(lp515
ssI199
(dp516
I1
(lp517
sI2
(lp518
sI3
(lp519
Vhttp://dbpedia.org/ontology/abstract
p520
aVhttp://www.w3.org/2000/01/rdf-schema#comment
p521
asI4
(lp522
sI5
(lp523
ssI202
(dp524
I1
(lp525
sI2
(lp526
sI3
(lp527
sI4
(lp528
sI5
(lp529
ssI204
(dp530
I1
(lp531
sI2
(lp532
Vhttp://dbpedia.org/ontology/wikiPageExternalLink
p533
asI3
(lp534
Vhttp://dbpedia.org/ontology/abstract
p535
aVhttp://www.w3.org/2000/01/rdf-schema#comment
p536
asI4
(lp537
sI5
(lp538
ssI77
(dp539
I1
(lp540
sI2
(lp541
sI3
(lp542
Vhttp://dbpedia.org/ontology/abstract
p543
aVhttp://www.w3.org/2000/01/rdf-schema#comment
p544
asI4
(lp545
Vhttp://dbpedia.org/ontology/abstract
p546
aVhttp://www.w3.org/2000/01/rdf-schema#comment
p547
asI5
(lp548
Vhttp://dbpedia.org/ontology/wikiPageExternalLink
p549
aVhttp://www.georss.org/georss/point
p550
aVhttp://purl.org/dc/terms/subject
p551
aVhttp://www.w3.org/2000/01/rdf-schema#comment
p552
aVhttp://dbpedia.org/ontology/abstract
p553
aVhttp://xmlns.com/foaf/0.1/depiction
p554
aVhttp://dbpedia.org/property/wordnet_type
p555
aVhttp://dbpedia.org/property/completionDate
p556
aVhttp://www.w3.org/1999/02/22-rdf-syntax-ns#type
p557
aVhttp://dbpedia.org/ontology/thumbnail
p558
aVhttp://www.w3.org/ns/prov#wasDerivedFrom
p559
aVhttp://dbpedia.org/property/startDate
p560
aVhttp://purl.org/voc/vrank#hasRank
p561
aVhttp://www.w3.org/2002/07/owl#sameAs
p562
assI79
(dp563
I1
(lp564
Vhttp://dbpedia.org/ontology/abstract
p565
aVhttp://dbpedia.org/property/locmapin
p566
aVhttp://www.w3.org/2000/01/rdf-schema#comment
p567
asI2
(lp568
sI3
(lp569
Vhttp://dbpedia.org/ontology/abstract
p570
aVhttp://dbpedia.org/ontology/nrhpReferenceNumber
p571
aVhttp://www.w3.org/2000/01/rdf-schema#comment
p572
asI4
(lp573
sI5
(lp574
Vhttp://dbpedia.org/ontology/wikiPageExternalLink
p575
aVhttp://www.georss.org/georss/point
p576
aVhttp://purl.org/dc/terms/subject
p577
aVhttp://dbpedia.org/property/city
p578
aVhttp://www.w3.org/2000/01/rdf-schema#comment
p579
aVhttp://dbpedia.org/ontology/abstract
p580
aVhttp://dbpedia.org/property/location
p581
aVhttp://dbpedia.org/property/wordnet_type
p582
aVhttp://purl.org/voc/vrank#hasRank
p583
aVhttp://www.w3.org/1999/02/22-rdf-syntax-ns#type
p584
aVhttp://www.w3.org/ns/prov#wasDerivedFrom
p585
aVhttp://dbpedia.org/ontology/nrhpReferenceNumber
p586
aVhttp://www.w3.org/2002/07/owl#sameAs
p587
assI209
(dp588
I1
(lp589
sI2
(lp590
Vhttp://dbpedia.org/ontology/abstract
p591
aVhttp://www.w3.org/2000/01/rdf-schema#comment
p592
asI3
(lp593
sI4
(lp594
sI5
(lp595
Vhttp://www.w3.org/1999/02/22-rdf-syntax-ns#type
p596
assI82
(dp597
I1
(lp598
sI2
(lp599
sI3
(lp600
sI4
(lp601
Vhttp://dbpedia.org/ontology/wikiPageExternalLink
p602
asI5
(lp603
ssI84
(dp604
I1
(lp605
sI2
(lp606
sI3
(lp607
sI4
(lp608
sI5
(lp609
ssI85
(dp610
I1
(lp611
sI2
(lp612
sI3
(lp613
sI4
(lp614
sI5
(lp615
ssI215
(dp616
I1
(lp617
Vhttp://dbpedia.org/ontology/abstract
p618
aVhttp://www.w3.org/2000/01/rdf-schema#comment
p619
asI2
(lp620
Vhttp://www.w3.org/1999/02/22-rdf-syntax-ns#type
p621
aVhttp://dbpedia.org/property/architect
p622
aVhttp://dbpedia.org/ontology/location
p623
aVhttp://www.w3.org/2000/01/rdf-schema#comment
p624
aVhttp://dbpedia.org/ontology/abstract
p625
aVhttp://dbpedia.org/property/location
p626
aVhttp://dbpedia.org/ontology/architect
p627
asI3
(lp628
sI4
(lp629
sI5
(lp630
Vhttp://www.w3.org/1999/02/22-rdf-syntax-ns#type
p631
assI218
(dp632
I1
(lp633
Vhttp://www.w3.org/1999/02/22-rdf-syntax-ns#type
p634
aVhttp://purl.org/dc/terms/subject
p635
aVhttp://dbpedia.org/ontology/location
p636
aVhttp://www.w3.org/2000/01/rdf-schema#comment
p637
aVhttp://dbpedia.org/ontology/abstract
p638
aVhttp://xmlns.com/foaf/0.1/depiction
p639
aVhttp://dbpedia.org/property/location
p640
aVhttp://dbpedia.org/ontology/thumbnail
p641
aVhttp://dbpedia.org/property/caption
p642
asI2
(lp643
Vhttp://dbpedia.org/property/location
p644
aVhttp://dbpedia.org/ontology/abstract
p645
aVhttp://www.w3.org/1999/02/22-rdf-syntax-ns#type
p646
aVhttp://dbpedia.org/ontology/location
p647
aVhttp://www.w3.org/2000/01/rdf-schema#comment
p648
asI3
(lp649
Vhttp://dbpedia.org/ontology/abstract
p650
aVhttp://www.w3.org/2000/01/rdf-schema#comment
p651
asI4
(lp652
Vhttp://dbpedia.org/ontology/abstract
p653
aVhttp://www.w3.org/2000/01/rdf-schema#comment
p654
asI5
(lp655
Vhttp://www.georss.org/georss/point
p656
aVhttp://purl.org/dc/terms/subject
p657
aVhttp://www.w3.org/2000/01/rdf-schema#comment
p658
aVhttp://dbpedia.org/ontology/abstract
p659
aVhttp://xmlns.com/foaf/0.1/depiction
p660
aVhttp://dbpedia.org/property/location
p661
aVhttp://dbpedia.org/property/wordnet_type
p662
aVhttp://purl.org/voc/vrank#hasRank
p663
aVhttp://www.w3.org/1999/02/22-rdf-syntax-ns#type
p664
aVhttp://dbpedia.org/ontology/thumbnail
p665
aVhttp://www.w3.org/ns/prov#wasDerivedFrom
p666
aVhttp://www.w3.org/2002/07/owl#sameAs
p667
assI92
(dp668
I1
(lp669
Vhttp://dbpedia.org/ontology/wikiPageExternalLink
p670
aVhttp://xmlns.com/foaf/0.1/primaryTopic
p671
aVhttp://dbpedia.org/ontology/wikiPageRedirects
p672
aVhttp://purl.org/dc/terms/subject
p673
aVhttp://dbpedia.org/ontology/location
p674
aVhttp://www.w3.org/2000/01/rdf-schema#comment
p675
aVhttp://dbpedia.org/ontology/abstract
p676
aVhttp://xmlns.com/foaf/0.1/depiction
p677
aVhttp://dbpedia.org/property/name
p678
aVhttp://dbpedia.org/property/location
p679
aVhttp://dbpedia.org/ontology/owner
p680
aVhttp://www.w3.org/ns/prov#wasDerivedFrom
p681
aVhttp://xmlns.com/foaf/0.1/isPrimaryTopicOf
p682
aVhttp://xmlns.com/foaf/0.1/name
p683
aVhttp://dbpedia.org/property/hasPhotoCollection
p684
aVhttp://dbpedia.org/property/title
p685
aVhttp://www.w3.org/2000/01/rdf-schema#label
p686
aVhttp://dbpedia.org/property/owner
p687
aVhttp://www.w3.org/2002/07/owl#sameAs
p688
aVhttp://dbpedia.org/ontology/thumbnail
p689
asI2
(lp690
Vhttp://dbpedia.org/property/title
p691
aVhttp://purl.org/dc/terms/subject
p692
aVhttp://dbpedia.org/ontology/location
p693
aVhttp://dbpedia.org/property/location
p694
asI3
(lp695
Vhttp://dbpedia.org/ontology/abstract
p696
aVhttp://www.w3.org/2000/01/rdf-schema#comment
p697
asI4
(lp698
sI5
(lp699
Vhttp://dbpedia.org/ontology/abstract
p700
aVhttp://www.w3.org/2000/01/rdf-schema#comment
p701
assI93
(dp702
I1
(lp703
sI2
(lp704
Vhttp://dbpedia.org/ontology/abstract
p705
asI3
(lp706
Vhttp://dbpedia.org/ontology/abstract
p707
aVhttp://dbpedia.org/property/years
p708
aVhttp://www.w3.org/2000/01/rdf-schema#comment
p709
asI4
(lp710
sI5
(lp711
ssI94
(dp712
I1
(lp713
sI2
(lp714
Vhttp://dbpedia.org/ontology/abstract
p715
aVhttp://www.w3.org/2000/01/rdf-schema#comment
p716
asI3
(lp717
Vhttp://dbpedia.org/ontology/abstract
p718
aVhttp://www.w3.org/2000/01/rdf-schema#comment
p719
asI4
(lp720
sI5
(lp721
Vhttp://dbpedia.org/ontology/abstract
p722
aVhttp://www.w3.org/1999/02/22-rdf-syntax-ns#type
p723
aVhttp://dbpedia.org/property/nrhp
p724
assI100
(dp725
I1
(lp726
sI2
(lp727
sI3
(lp728
Vhttp://dbpedia.org/ontology/abstract
p729
aVhttp://www.w3.org/2000/01/rdf-schema#comment
p730
asI4
(lp731
sI5
(lp732
ssI105
(dp733
I1
(lp734
sI2
(lp735
sI3
(lp736
sI4
(lp737
sI5
(lp738
ssI108
(dp739
I1
(lp740
sI2
(lp741
sI3
(lp742
sI4
(lp743
sI5
(lp744
Vhttp://dbpedia.org/ontology/wikiPageExternalLink
p745
aVhttp://www.georss.org/georss/point
p746
aVhttp://purl.org/dc/terms/subject
p747
aVhttp://www.w3.org/2000/01/rdf-schema#comment
p748
aVhttp://dbpedia.org/ontology/abstract
p749
aVhttp://xmlns.com/foaf/0.1/depiction
p750
aVhttp://dbpedia.org/property/years
p751
aVhttp://purl.org/voc/vrank#hasRank
p752
aVhttp://www.w3.org/1999/02/22-rdf-syntax-ns#type
p753
aVhttp://dbpedia.org/ontology/thumbnail
p754
aVhttp://www.w3.org/ns/prov#wasDerivedFrom
p755
aVhttp://www.w3.org/2002/07/owl#sameAs
p756
aVhttp://dbpedia.org/property/id
p757
assI109
(dp758
I1
(lp759
Vhttp://purl.org/dc/terms/subject
p760
aVhttp://dbpedia.org/ontology/location
p761
aVhttp://www.w3.org/2000/01/rdf-schema#comment
p762
aVhttp://dbpedia.org/ontology/abstract
p763
aVhttp://dbpedia.org/property/location
p764
aVhttp://dbpedia.org/property/before
p765
aVhttp://dbpedia.org/property/after
p766
aVhttp://dbpedia.org/property/title
p767
asI2
(lp768
Vhttp://dbpedia.org/property/location
p769
aVhttp://dbpedia.org/ontology/abstract
p770
aVhttp://dbpedia.org/property/title
p771
aVhttp://dbpedia.org/ontology/location
p772
aVhttp://www.w3.org/2000/01/rdf-schema#comment
p773
asI3
(lp774
sI4
(lp775
sI5
(lp776
Vhttp://www.georss.org/georss/point
p777
aVhttp://purl.org/dc/terms/subject
p778
aVhttp://www.w3.org/2000/01/rdf-schema#comment
p779
aVhttp://dbpedia.org/ontology/abstract
p780
aVhttp://dbpedia.org/property/opening
p781
aVhttp://dbpedia.org/property/years
p782
aVhttp://dbpedia.org/property/wordnet_type
p783
aVhttp://www.w3.org/1999/02/22-rdf-syntax-ns#type
p784
aVhttp://www.w3.org/ns/prov#wasDerivedFrom
p785
aVhttp://dbpedia.org/property/startDate
p786
aVhttp://www.w3.org/2002/07/owl#sameAs
p787
assI113
(dp788
I1
(lp789
sI2
(lp790
Vhttp://dbpedia.org/ontology/abstract
p791
aVhttp://www.w3.org/2000/01/rdf-schema#comment
p792
asI3
(lp793
sI4
(lp794
sI5
(lp795
ssI147
(dp796
I1
(lp797
sI2
(lp798
sI3
(lp799
Vhttp://dbpedia.org/ontology/abstract
p800
aVhttp://www.w3.org/2000/01/rdf-schema#comment
p801
asI4
(lp802
sI5
(lp803
Vhttp://dbpedia.org/ontology/wikiPageExternalLink
p804
aVhttp://www.georss.org/georss/point
p805
aVhttp://purl.org/dc/terms/subject
p806
aVhttp://www.w3.org/2000/01/rdf-schema#comment
p807
aVhttp://dbpedia.org/ontology/abstract
p808
aVhttp://purl.org/voc/vrank#hasRank
p809
aVhttp://www.w3.org/1999/02/22-rdf-syntax-ns#type
p810
assI116
(dp811
I1
(lp812
sI2
(lp813
sI3
(lp814
Vhttp://dbpedia.org/ontology/abstract
p815
aVhttp://www.w3.org/2000/01/rdf-schema#comment
p816
asI4
(lp817
Vhttp://dbpedia.org/ontology/abstract
p818
aVhttp://www.w3.org/2000/01/rdf-schema#comment
p819
asI5
(lp820
ssI131
(dp821
I1
(lp822
Vhttp://dbpedia.org/ontology/abstract
p823
aVhttp://www.w3.org/2000/01/rdf-schema#comment
p824
asI2
(lp825
Vhttp://dbpedia.org/ontology/wikiPageExternalLink
p826
aVhttp://dbpedia.org/ontology/abstract
p827
aVhttp://www.w3.org/1999/02/22-rdf-syntax-ns#type
p828
aVhttp://dbpedia.org/ontology/location
p829
aVhttp://www.w3.org/2000/01/rdf-schema#comment
p830
asI3
(lp831
Vhttp://dbpedia.org/ontology/abstract
p832
aVhttp://www.w3.org/2000/01/rdf-schema#comment
p833
asI4
(lp834
sI5
(lp835
ssI121
(dp836
I1
(lp837
Vhttp://dbpedia.org/ontology/wikiPageExternalLink
p838
aVhttp://xmlns.com/foaf/0.1/primaryTopic
p839
aVhttp://purl.org/dc/terms/subject
p840
aVhttp://dbpedia.org/ontology/location
p841
aVhttp://www.w3.org/2000/01/rdf-schema#comment
p842
aVhttp://dbpedia.org/ontology/abstract
p843
aVhttp://xmlns.com/foaf/0.1/depiction
p844
aVhttp://dbpedia.org/property/location
p845
aVhttp://dbpedia.org/ontology/wikiPageRedirects
p846
aVhttp://www.w3.org/ns/prov#wasDerivedFrom
p847
aVhttp://dbpedia.org/property/buildingName
p848
aVhttp://xmlns.com/foaf/0.1/isPrimaryTopicOf
p849
aVhttp://xmlns.com/foaf/0.1/name
p850
aVhttp://dbpedia.org/property/hasPhotoCollection
p851
aVhttp://www.w3.org/2000/01/rdf-schema#label
p852
aVhttp://www.w3.org/2002/07/owl#sameAs
p853
aVhttp://dbpedia.org/ontology/thumbnail
p854
asI2
(lp855
Vhttp://www.w3.org/1999/02/22-rdf-syntax-ns#type
p856
aVhttp://purl.org/dc/terms/subject
p857
aVhttp://dbpedia.org/ontology/location
p858
aVhttp://www.w3.org/2000/01/rdf-schema#comment
p859
aVhttp://dbpedia.org/ontology/abstract
p860
aVhttp://dbpedia.org/property/location
p861
asI3
(lp862
sI4
(lp863
sI5
(lp864
Vhttp://dbpedia.org/ontology/wikiPageExternalLink
p865
aVhttp://www.georss.org/georss/point
p866
aVhttp://purl.org/dc/terms/subject
p867
aVhttp://www.w3.org/2000/01/rdf-schema#comment
p868
aVhttp://dbpedia.org/ontology/abstract
p869
aVhttp://dbpedia.org/property/location
p870
aVhttp://purl.org/voc/vrank#hasRank
p871
aVhttp://www.w3.org/1999/02/22-rdf-syntax-ns#type
p872
aVhttp://www.w3.org/2002/07/owl#sameAs
p873
ass.