(lp1
(lp2
(dp3
Vstart
p4
I0
sVdisambiguatedURL
p5
NsVnamedEntity
p6
Vabies                         alba
p7
sVoffset
p8
I34
saa(lp9
(dp10
Vstart
p11
I0
sVdisambiguatedURL
p12
NsVnamedEntity
p13
Vabies                         balsamea
p14
sVoffset
p15
I38
saa(lp16
(dp17
Vstart
p18
I0
sVdisambiguatedURL
p19
NsVnamedEntity
p20
Vabies                         grandis
p21
sVoffset
p22
I37
saa(lp23
(dp24
Vstart
p25
I0
sVdisambiguatedURL
p26
NsVnamedEntity
p27
Vabies                         koreana
p28
sVoffset
p29
I37
saa(lp30
(dp31
Vstart
p32
I0
sVdisambiguatedURL
p33
NsVnamedEntity
p34
Vabies                         pinsapo 'glauca'
p35
sVoffset
p36
I46
saa(lp37
(dp38
Vstart
p39
I0
sVdisambiguatedURL
p40
NsVnamedEntity
p41
Vabies                         procera
p42
sVoffset
p43
I37
saa(lp44
(dp45
Vstart
p46
I0
sVdisambiguatedURL
p47
NsVnamedEntity
p48
Vabromeitiella                         brevifolia
p49
sVoffset
p50
I48
saa(lp51
(dp52
Vstart
p53
I0
sVdisambiguatedURL
p54
NsVnamedEntity
p55
Vabromeitiella                         lorentziana (= deuterocohnia lorentziana)
p56
sVoffset
p57
I79
saa(lp58
(dp59
Vstart
p60
I0
sVdisambiguatedURL
p61
NsVnamedEntity
p62
Vabutilon                         megapotamicum
p63
sVoffset
p64
I46
saa(lp65
(dp66
Vstart
p67
I0
sVdisambiguatedURL
p68
NsVnamedEntity
p69
Vacalypha                         hispaniolae
p70
sVoffset
p71
I44
saa(lp72
(dp73
Vstart
p74
I0
sVdisambiguatedURL
p75
NsVnamedEntity
p76
Vacalypha                         hispida
p77
sVoffset
p78
I40
saa(lp79
(dp80
Vstart
p81
I0
sVdisambiguatedURL
p82
NsVnamedEntity
p83
Vacacia                         acinacea
p84
sVoffset
p85
I39
saa(lp86
(dp87
Vstart
p88
I0
sVdisambiguatedURL
p89
NsVnamedEntity
p90
Vacacia                         aneura
p91
sVoffset
p92
I37
saa(lp93
(dp94
Vstart
p95
I0
sVdisambiguatedURL
p96
NsVnamedEntity
p97
Vacacia                         baileyana
p98
sVoffset
p99
I40
saa(lp100
(dp101
Vstart
p102
I0
sVdisambiguatedURL
p103
NsVnamedEntity
p104
Vacacia                         brevispica
p105
sVoffset
p106
I41
saa(lp107
(dp108
Vstart
p109
I0
sVdisambiguatedURL
p110
NsVnamedEntity
p111
Vacacia                         cornigera
p112
sVoffset
p113
I40
saa(lp114
(dp115
Vstart
p116
I0
sVdisambiguatedURL
p117
NsVnamedEntity
p118
Vacacia                         iteaphylla
p119
sVoffset
p120
I41
saa(lp121
(dp122
Vstart
p123
I0
sVdisambiguatedURL
p124
NsVnamedEntity
p125
Vacacia                         quornensis
p126
sVoffset
p127
I41
saa(lp128
(dp129
Vstart
p130
I0
sVdisambiguatedURL
p131
NsVnamedEntity
p132
Vacacia                         trigonophylla
p133
sVoffset
p134
I44
saa(lp135
(dp136
Vstart
p137
I0
sVdisambiguatedURL
p138
NsVnamedEntity
p139
Vacacia                         verticillata
p140
sVoffset
p141
I43
saa.