(lp1
(lp2
(lp3
a(lp4
a(lp5
((lp6
Vhttp://www.w3.org/2002/07/owl#Thing
p7
aVhttp://www.ontologydesignpatterns.org/ont/dul/DUL.owl#Event
p8
aVhttp://www.wikidata.org/entity/Q1656682
p9
aVhttp://www.wikidata.org/entity/Q500834
p10
aVhttp://dbpedia.org/ontology/Event
p11
aVhttp://dbpedia.org/ontology/SoccerTournament
p12
aVhttp://dbpedia.org/ontology/SocietalEvent
p13
aVhttp://dbpedia.org/ontology/SportsEvent
p14
aVhttp://dbpedia.org/ontology/Tournament
p15
aVhttp://schema.org/Event
p16
aVhttp://schema.org/SportsEvent
p17
aVhttp://dbpedia.org/resource/2011_Conference_USA_Men's_Soccer_Tournament
tp18
aa(lp19
aa(lp20
(lp21
a(lp22
a(lp23
((lp24
Vhttp://www.w3.org/2002/07/owl#Thing
p25
aVhttp://www.ontologydesignpatterns.org/ont/dul/DUL.owl#Event
p26
aVhttp://www.wikidata.org/entity/Q1656682
p27
aVhttp://www.wikidata.org/entity/Q500834
p28
aVhttp://dbpedia.org/ontology/Event
p29
aVhttp://dbpedia.org/ontology/SocietalEvent
p30
aVhttp://dbpedia.org/ontology/SportsEvent
p31
aVhttp://dbpedia.org/ontology/Tournament
p32
aVhttp://dbpedia.org/ontology/WomensTennisAssociationTournament
p33
aVhttp://www.w3.org/2003/01/geo/wgs84_pos#SpatialThing
p34
aVhttp://schema.org/Event
p35
aVhttp://schema.org/SportsEvent
p36
aVhttp://dbpedia.org/resource/U.S._National_Indoor_Tennis_Championships
tp37
aa(lp38
aa(lp39
(lp40
a(lp41
a(lp42
((lp43
Vhttp://www.w3.org/2002/07/owl#Thing
p44
aVhttp://www.ontologydesignpatterns.org/ont/dul/DUL.owl#Event
p45
aVhttp://www.wikidata.org/entity/Q1656682
p46
aVhttp://www.wikidata.org/entity/Q500834
p47
aVhttp://dbpedia.org/ontology/Event
p48
aVhttp://dbpedia.org/ontology/SoccerTournament
p49
aVhttp://dbpedia.org/ontology/SocietalEvent
p50
aVhttp://dbpedia.org/ontology/SportsEvent
p51
aVhttp://dbpedia.org/ontology/Tournament
p52
aVhttp://schema.org/Event
p53
aVhttp://schema.org/SportsEvent
p54
aVhttp://dbpedia.org/resource/2011_Conference_USA_Men's_Soccer_Tournament
tp55
aa(lp56
aa(lp57
(lp58
a(lp59
a(lp60
((lp61
Vhttp://www.w3.org/2002/07/owl#Thing
p62
aVhttp://www.ontologydesignpatterns.org/ont/dul/DUL.owl#Event
p63
aVhttp://www.wikidata.org/entity/Q1656682
p64
aVhttp://dbpedia.org/ontology/Event
p65
aVhttp://schema.org/Event
p66
aVhttp://dbpedia.org/resource/2007_Toulon_Tournament
tp67
aa(lp68
aa(lp69
(lp70
a(lp71
a(lp72
((lp73
Vhttp://www.w3.org/2002/07/owl#Thing
p74
aVhttp://www.ontologydesignpatterns.org/ont/dul/DUL.owl#Event
p75
aVhttp://www.wikidata.org/entity/Q1656682
p76
aVhttp://www.wikidata.org/entity/Q500834
p77
aVhttp://dbpedia.org/ontology/Event
p78
aVhttp://dbpedia.org/ontology/SoccerTournament
p79
aVhttp://dbpedia.org/ontology/SocietalEvent
p80
aVhttp://dbpedia.org/ontology/SportsEvent
p81
aVhttp://dbpedia.org/ontology/Tournament
p82
aVhttp://schema.org/Event
p83
aVhttp://schema.org/SportsEvent
p84
aVhttp://dbpedia.org/resource/2011_Conference_USA_Men's_Soccer_Tournament
tp85
aa(lp86
aa(lp87
(lp88
a(lp89
a(lp90
a(lp91
aa(lp92
(lp93
a(lp94
a(lp95
((lp96
Vhttp://www.w3.org/2002/07/owl#Thing
p97
aVhttp://www.ontologydesignpatterns.org/ont/dul/DUL.owl#Event
p98
aVhttp://www.wikidata.org/entity/Q1656682
p99
aVhttp://www.wikidata.org/entity/Q500834
p100
aVhttp://dbpedia.org/ontology/Event
p101
aVhttp://dbpedia.org/ontology/SoccerTournament
p102
aVhttp://dbpedia.org/ontology/SocietalEvent
p103
aVhttp://dbpedia.org/ontology/SportsEvent
p104
aVhttp://dbpedia.org/ontology/Tournament
p105
aVhttp://schema.org/Event
p106
aVhttp://schema.org/SportsEvent
p107
aVhttp://dbpedia.org/resource/2011_Conference_USA_Men's_Soccer_Tournament
tp108
aa(lp109
aa(lp110
(lp111
a(lp112
a(lp113
((lp114
Vhttp://www.w3.org/2002/07/owl#Thing
p115
aVhttp://www.ontologydesignpatterns.org/ont/dul/DUL.owl#Event
p116
aVhttp://www.wikidata.org/entity/Q1656682
p117
aVhttp://dbpedia.org/ontology/Event
p118
aVhttp://schema.org/Event
p119
aVhttp://dbpedia.org/resource/2008_Norwegian_Football_Cup_Final
tp120
aa(lp121
aa(lp122
(lp123
a(lp124
a(lp125
a(lp126
aa(lp127
(lp128
a(lp129
a(lp130
((lp131
Vhttp://www.w3.org/2002/07/owl#Thing
p132
aVhttp://www.ontologydesignpatterns.org/ont/dul/DUL.owl#Event
p133
aVhttp://www.wikidata.org/entity/Q1656682
p134
aVhttp://www.wikidata.org/entity/Q500834
p135
aVhttp://dbpedia.org/ontology/Event
p136
aVhttp://dbpedia.org/ontology/SoccerTournament
p137
aVhttp://dbpedia.org/ontology/SocietalEvent
p138
aVhttp://dbpedia.org/ontology/SportsEvent
p139
aVhttp://dbpedia.org/ontology/Tournament
p140
aVhttp://schema.org/Event
p141
aVhttp://schema.org/SportsEvent
p142
aVhttp://dbpedia.org/resource/2011_Conference_USA_Men's_Soccer_Tournament
tp143
aa(lp144
aa(lp145
(lp146
a(lp147
a(lp148
((lp149
Vhttp://www.w3.org/2002/07/owl#Thing
p150
aVhttp://www.ontologydesignpatterns.org/ont/dul/DUL.owl#Event
p151
aVhttp://www.wikidata.org/entity/Q1656682
p152
aVhttp://dbpedia.org/ontology/Event
p153
aVhttp://schema.org/Event
p154
aVhttp://dbpedia.org/resource/2009_Norwegian_Football_Cup_Final
tp155
aa(lp156
aa(lp157
(lp158
a(lp159
a(lp160
((lp161
Vhttp://www.w3.org/2002/07/owl#Thing
p162
aVhttp://www.ontologydesignpatterns.org/ont/dul/DUL.owl#Event
p163
aVhttp://www.wikidata.org/entity/Q1656682
p164
aVhttp://www.wikidata.org/entity/Q500834
p165
aVhttp://dbpedia.org/ontology/Event
p166
aVhttp://dbpedia.org/ontology/SoccerTournament
p167
aVhttp://dbpedia.org/ontology/SocietalEvent
p168
aVhttp://dbpedia.org/ontology/SportsEvent
p169
aVhttp://dbpedia.org/ontology/Tournament
p170
aVhttp://schema.org/Event
p171
aVhttp://schema.org/SportsEvent
p172
aVhttp://dbpedia.org/resource/2011_Conference_USA_Men's_Soccer_Tournament
tp173
aa(lp174
aa(lp175
(lp176
a(lp177
a(lp178
a(lp179
aa(lp180
(lp181
a(lp182
a(lp183
((lp184
Vhttp://www.w3.org/2002/07/owl#Thing
p185
aVhttp://www.ontologydesignpatterns.org/ont/dul/DUL.owl#Event
p186
aVhttp://www.wikidata.org/entity/Q1656682
p187
aVhttp://www.wikidata.org/entity/Q500834
p188
aVhttp://dbpedia.org/ontology/Event
p189
aVhttp://dbpedia.org/ontology/SoccerTournament
p190
aVhttp://dbpedia.org/ontology/SocietalEvent
p191
aVhttp://dbpedia.org/ontology/SportsEvent
p192
aVhttp://dbpedia.org/ontology/Tournament
p193
aVhttp://schema.org/Event
p194
aVhttp://schema.org/SportsEvent
p195
aVhttp://dbpedia.org/resource/2011_Conference_USA_Men's_Soccer_Tournament
tp196
aa(lp197
aa(lp198
(lp199
a(lp200
a(lp201
a(lp202
aa(lp203
(lp204
a(lp205
a(lp206
((lp207
Vhttp://www.w3.org/2002/07/owl#Thing
p208
aVhttp://www.ontologydesignpatterns.org/ont/dul/DUL.owl#Event
p209
aVhttp://www.wikidata.org/entity/Q1656682
p210
aVhttp://www.wikidata.org/entity/Q500834
p211
aVhttp://dbpedia.org/ontology/Event
p212
aVhttp://dbpedia.org/ontology/SoccerTournament
p213
aVhttp://dbpedia.org/ontology/SocietalEvent
p214
aVhttp://dbpedia.org/ontology/SportsEvent
p215
aVhttp://dbpedia.org/ontology/Tournament
p216
aVhttp://schema.org/Event
p217
aVhttp://schema.org/SportsEvent
p218
aVhttp://dbpedia.org/resource/2011_Conference_USA_Men's_Soccer_Tournament
p219
tp220
aa(lp221
aa(lp222
(lp223
a(lp224
a(lp225
a(lp226
aa(lp227
(lp228
a(lp229
a(lp230
a(lp231
aa(lp232
(lp233
a(lp234
a(lp235
a(lp236
aa.