(lp1
(lp2
(lp3
((lp4
Vhttp://www.w3.org/2002/07/owl#Thing
p5
aVhttp://xmlns.com/foaf/0.1/Person
p6
aVhttp://dbpedia.org/ontology/Person
p7
aVhttp://www.ontologydesignpatterns.org/ont/dul/DUL.owl#Agent
p8
aVhttp://www.ontologydesignpatterns.org/ont/dul/DUL.owl#NaturalPerson
p9
aVhttp://www.wikidata.org/entity/Q10871364
p10
aVhttp://www.wikidata.org/entity/Q215627
p11
aVhttp://www.wikidata.org/entity/Q5
p12
aVhttp://dbpedia.org/ontology/Agent
p13
aVhttp://dbpedia.org/ontology/Athlete
p14
aVhttp://dbpedia.org/ontology/BaseballPlayer
p15
aVhttp://schema.org/Person
p16
aVhttp://umbel.org/umbel/rc/BaseballPlayer
p17
aVhttp://dbpedia.org/class/yago/Athlete109820263
p18
aVhttp://dbpedia.org/class/yago/Ballplayer109835506
p19
aVhttp://dbpedia.org/class/yago/BaseballPlayersFromAlabama
p20
aVhttp://dbpedia.org/class/yago/CausalAgent100007347
p21
aVhttp://dbpedia.org/class/yago/Contestant109613191
p22
aVhttp://dbpedia.org/class/yago/LivingThing100004258
p23
aVhttp://dbpedia.org/class/yago/Object100002684
p24
aVhttp://dbpedia.org/class/yago/Organism100004475
p25
aVhttp://dbpedia.org/class/yago/Person100007846
p26
aVhttp://dbpedia.org/class/yago/Player110439851
p27
aVhttp://dbpedia.org/class/yago/Whole100003553
p28
aVhttp://dbpedia.org/class/yago/YagoLegalActorGeo
p29
aVhttp://dbpedia.org/class/yago/DetroitTigersPlayers
p30
aVhttp://dbpedia.org/class/yago/PhysicalEntity100001930
p31
aVhttp://dbpedia.org/class/yago/GarySouthShoreRailCatsPlayers
p32
aVhttp://dbpedia.org/class/yago/GulfCoastMetsPlayers
p33
aVhttp://dbpedia.org/class/yago/HighDesertMavericksPlayers
p34
aVhttp://dbpedia.org/class/yago/JolietJackHammersPlayers
p35
aVhttp://dbpedia.org/class/yago/KansasCityRoyalsPlayers
p36
aVhttp://dbpedia.org/class/yago/LivingPeople
p37
aVhttp://dbpedia.org/class/yago/NashvilleSoundsPlayers
p38
aVhttp://dbpedia.org/class/yago/PeopleFromChiltonCounty,Alabama
p39
aVhttp://dbpedia.org/class/yago/PeopleFromMontgomery,Alabama
p40
aVhttp://dbpedia.org/class/yago/YagoLegalActor
p41
aVhttp://dbpedia.org/class/yago/SchaumburgFlyersPlayers
p42
aVhttp://dbpedia.org/class/yago/St.LucieMetsPlayers
p43
aVhttp://dbpedia.org/class/yago/ToledoMudHensPlayers
p44
aVhttp://dbpedia.org/resource/Jarrod_Patterson
tp45
aa(lp46
((lp47
Vhttp://www.w3.org/2002/07/owl#Thing
p48
aVhttp://dbpedia.org/ontology/Place
p49
aVhttp://dbpedia.org/ontology/Location
p50
aVhttp://www.wikidata.org/entity/Q486972
p51
aVhttp://www.wikidata.org/entity/Q515
p52
aVhttp://dbpedia.org/ontology/City
p53
aVhttp://dbpedia.org/ontology/PopulatedPlace
p54
aVhttp://dbpedia.org/ontology/Settlement
p55
aVhttp://www.w3.org/2003/01/geo/wgs84_pos#SpatialThing
p56
aVhttp://schema.org/City
p57
aVhttp://schema.org/Place
p58
aVhttp://umbel.org/umbel/rc/Location_Underspecified
p59
aVhttp://umbel.org/umbel/rc/PopulatedPlace
p60
aVhttp://umbel.org/umbel/rc/Village
p61
aVhttp://dbpedia.org/class/yago/AdministrativeDistrict108491826
p62
aVhttp://dbpedia.org/class/yago/BusinessDistrict108539072
p63
aVhttp://dbpedia.org/class/yago/City108524735
p64
aVhttp://dbpedia.org/class/yago/CityDistrict108537837
p65
aVhttp://dbpedia.org/class/yago/District108552138
p66
aVhttp://dbpedia.org/class/yago/Location100027167
p67
aVhttp://dbpedia.org/class/yago/Object100002684
p68
aVhttp://dbpedia.org/class/yago/Region108630985
p69
aVhttp://dbpedia.org/class/yago/UrbanArea108675967
p70
aVhttp://dbpedia.org/class/yago/YagoGeoEntity
p71
aVhttp://dbpedia.org/class/yago/YagoLegalActorGeo
p72
aVhttp://dbpedia.org/class/yago/CentralBusinessDistricts
p73
aVhttp://dbpedia.org/class/yago/CentralBusinessDistrictsInTheUnitedKingdom
p74
aVhttp://dbpedia.org/class/yago/CitiesInLondon
p75
aVhttp://dbpedia.org/class/yago/DistrictsOfLondon
p76
aVhttp://dbpedia.org/class/yago/FinancialDistricts
p77
aVhttp://dbpedia.org/class/yago/GeographicalArea108574314
p78
aVhttp://dbpedia.org/class/yago/Municipality108626283
p79
aVhttp://dbpedia.org/class/yago/PhysicalEntity100001930
p80
aVhttp://dbpedia.org/class/yago/YagoPermanentlyLocatedEntity
p81
aVhttp://dbpedia.org/resource/City_of_London
tp82
aa(lp83
aa(lp84
(lp85
((lp86
Vhttp://www.w3.org/2002/07/owl#Thing
p87
aVhttp://xmlns.com/foaf/0.1/Person
p88
aVhttp://dbpedia.org/ontology/Person
p89
aVhttp://www.ontologydesignpatterns.org/ont/dul/DUL.owl#Agent
p90
aVhttp://www.ontologydesignpatterns.org/ont/dul/DUL.owl#NaturalPerson
p91
aVhttp://www.wikidata.org/entity/Q10871364
p92
aVhttp://www.wikidata.org/entity/Q215627
p93
aVhttp://www.wikidata.org/entity/Q5
p94
aVhttp://dbpedia.org/ontology/Agent
p95
aVhttp://dbpedia.org/ontology/Athlete
p96
aVhttp://dbpedia.org/ontology/BaseballPlayer
p97
aVhttp://schema.org/Person
p98
aVhttp://umbel.org/umbel/rc/BaseballPlayer
p99
aVhttp://dbpedia.org/class/yago/Athlete109820263
p100
aVhttp://dbpedia.org/class/yago/Ballplayer109835506
p101
aVhttp://dbpedia.org/class/yago/BaseballPlayersFromCalifornia
p102
aVhttp://dbpedia.org/class/yago/Catcher109901143
p103
aVhttp://dbpedia.org/class/yago/CausalAgent100007347
p104
aVhttp://dbpedia.org/class/yago/Contestant109613191
p105
aVhttp://dbpedia.org/class/yago/Infielder110205457
p106
aVhttp://dbpedia.org/class/yago/LivingThing100004258
p107
aVhttp://dbpedia.org/class/yago/Object100002684
p108
aVhttp://dbpedia.org/class/yago/Organism100004475
p109
aVhttp://dbpedia.org/class/yago/Person100007846
p110
aVhttp://dbpedia.org/class/yago/Player110439851
p111
aVhttp://dbpedia.org/class/yago/Whole100003553
p112
aVhttp://dbpedia.org/class/yago/YagoLegalActorGeo
p113
aVhttp://dbpedia.org/class/yago/ClearwaterPhilliesPlayers
p114
aVhttp://dbpedia.org/class/yago/Fielder110086568
p115
aVhttp://dbpedia.org/class/yago/PhysicalEntity100001930
p116
aVhttp://dbpedia.org/class/yago/JewishMajorLeagueBaseballPlayers
p117
aVhttp://dbpedia.org/class/yago/LivingPeople
p118
aVhttp://dbpedia.org/class/yago/LosAngelesDodgersPlayers
p119
aVhttp://dbpedia.org/class/yago/MajorLeagueBaseballCatchers
p120
aVhttp://dbpedia.org/class/yago/PeopleFromTheGreaterLosAngelesArea
p121
aVhttp://dbpedia.org/class/yago/PhiladelphiaPhilliesPlayers
p122
aVhttp://dbpedia.org/class/yago/YagoLegalActor
p123
aVhttp://dbpedia.org/class/yago/ReadingPhilliesPlayers
p124
aVhttp://dbpedia.org/class/yago/Scranton/Wilkes-BarreRedBaronsPlayers
p125
aVhttp://dbpedia.org/resource/Mike_Lieberthal
tp126
aa(lp127
((lp128
Vhttp://www.w3.org/2002/07/owl#Thing
p129
aVhttp://dbpedia.org/ontology/Place
p130
aVhttp://dbpedia.org/ontology/Location
p131
aVhttp://www.wikidata.org/entity/Q486972
p132
aVhttp://www.wikidata.org/entity/Q515
p133
aVhttp://dbpedia.org/ontology/City
p134
aVhttp://dbpedia.org/ontology/PopulatedPlace
p135
aVhttp://dbpedia.org/ontology/Settlement
p136
aVhttp://www.w3.org/2003/01/geo/wgs84_pos#SpatialThing
p137
aVhttp://schema.org/City
p138
aVhttp://schema.org/Place
p139
aVhttp://umbel.org/umbel/rc/Location_Underspecified
p140
aVhttp://umbel.org/umbel/rc/PopulatedPlace
p141
aVhttp://umbel.org/umbel/rc/Village
p142
aVhttp://dbpedia.org/class/yago/AdministrativeDistrict108491826
p143
aVhttp://dbpedia.org/class/yago/BusinessDistrict108539072
p144
aVhttp://dbpedia.org/class/yago/City108524735
p145
aVhttp://dbpedia.org/class/yago/CityDistrict108537837
p146
aVhttp://dbpedia.org/class/yago/District108552138
p147
aVhttp://dbpedia.org/class/yago/Location100027167
p148
aVhttp://dbpedia.org/class/yago/Object100002684
p149
aVhttp://dbpedia.org/class/yago/Region108630985
p150
aVhttp://dbpedia.org/class/yago/UrbanArea108675967
p151
aVhttp://dbpedia.org/class/yago/YagoGeoEntity
p152
aVhttp://dbpedia.org/class/yago/YagoLegalActorGeo
p153
aVhttp://dbpedia.org/class/yago/CentralBusinessDistricts
p154
aVhttp://dbpedia.org/class/yago/CentralBusinessDistrictsInTheUnitedKingdom
p155
aVhttp://dbpedia.org/class/yago/CitiesInLondon
p156
aVhttp://dbpedia.org/class/yago/DistrictsOfLondon
p157
aVhttp://dbpedia.org/class/yago/FinancialDistricts
p158
aVhttp://dbpedia.org/class/yago/GeographicalArea108574314
p159
aVhttp://dbpedia.org/class/yago/Municipality108626283
p160
aVhttp://dbpedia.org/class/yago/PhysicalEntity100001930
p161
aVhttp://dbpedia.org/class/yago/YagoPermanentlyLocatedEntity
p162
aVhttp://dbpedia.org/resource/City_of_London
tp163
aa(lp164
aa(lp165
(lp166
((lp167
Vhttp://www.w3.org/2002/07/owl#Thing
p168
aVhttp://xmlns.com/foaf/0.1/Person
p169
aVhttp://dbpedia.org/ontology/Person
p170
aVhttp://www.ontologydesignpatterns.org/ont/dul/DUL.owl#Agent
p171
aVhttp://www.ontologydesignpatterns.org/ont/dul/DUL.owl#NaturalPerson
p172
aVhttp://www.wikidata.org/entity/Q10871364
p173
aVhttp://www.wikidata.org/entity/Q215627
p174
aVhttp://www.wikidata.org/entity/Q5
p175
aVhttp://dbpedia.org/ontology/Agent
p176
aVhttp://dbpedia.org/ontology/Athlete
p177
aVhttp://dbpedia.org/ontology/BaseballPlayer
p178
aVhttp://schema.org/Person
p179
aVhttp://umbel.org/umbel/rc/BaseballPlayer
p180
aVhttp://dbpedia.org/class/yago/AmericanPeopleOfCubanDescent
p181
aVhttp://dbpedia.org/class/yago/Athlete109820263
p182
aVhttp://dbpedia.org/class/yago/Ballplayer109835506
p183
aVhttp://dbpedia.org/class/yago/BillingsMustangsPlayers
p184
aVhttp://dbpedia.org/class/yago/CalgaryCannonsPlayers
p185
aVhttp://dbpedia.org/class/yago/CausalAgent100007347
p186
aVhttp://dbpedia.org/class/yago/Contestant109613191
p187
aVhttp://dbpedia.org/class/yago/LivingThing100004258
p188
aVhttp://dbpedia.org/class/yago/Object100002684
p189
aVhttp://dbpedia.org/class/yago/Organism100004475
p190
aVhttp://dbpedia.org/class/yago/Outfielder110386984
p191
aVhttp://dbpedia.org/class/yago/Person100007846
p192
aVhttp://dbpedia.org/class/yago/Player110439851
p193
aVhttp://dbpedia.org/class/yago/Whole100003553
p194
aVhttp://dbpedia.org/class/yago/YagoLegalActorGeo
p195
aVhttp://dbpedia.org/class/yago/ChattanoogaLookoutsPlayers
p196
aVhttp://dbpedia.org/class/yago/ChicagoWhiteSoxPlayers
p197
aVhttp://dbpedia.org/class/yago/Fielder110086568
p198
aVhttp://dbpedia.org/class/yago/PhysicalEntity100001930
p199
aVhttp://dbpedia.org/class/yago/KansasCityRoyalsPlayers
p200
aVhttp://dbpedia.org/class/yago/LivingPeople
p201
aVhttp://dbpedia.org/class/yago/MajorLeagueBaseballPlayersFromPuertoRico
p202
aVhttp://dbpedia.org/class/yago/MajorLeagueBaseballRightFielders
p203
aVhttp://dbpedia.org/class/yago/RightFielder110387196
p204
aVhttp://dbpedia.org/class/yago/NewYorkYankeesPlayers
p205
aVhttp://dbpedia.org/class/yago/OaklandAthleticsPlayers
p206
aVhttp://dbpedia.org/class/yago/PhiladelphiaPhilliesPlayers
p207
aVhttp://dbpedia.org/class/yago/YagoLegalActor
p208
aVhttp://dbpedia.org/class/yago/SaltLakeCityGullsPlayers
p209
aVhttp://dbpedia.org/class/yago/SeattleMarinersPlayers
p210
aVhttp://dbpedia.org/class/yago/TampaTarponsPlayers
p211
aVhttp://dbpedia.org/class/yago/WaterburyRedsPlayers
p212
aVhttp://dbpedia.org/resource/Danny_Tartabull
tp213
aa(lp214
((lp215
Vhttp://www.w3.org/2002/07/owl#Thing
p216
aVhttp://dbpedia.org/ontology/Place
p217
aVhttp://dbpedia.org/ontology/Location
p218
aVhttp://www.wikidata.org/entity/Q486972
p219
aVhttp://www.wikidata.org/entity/Q515
p220
aVhttp://dbpedia.org/ontology/City
p221
aVhttp://dbpedia.org/ontology/PopulatedPlace
p222
aVhttp://dbpedia.org/ontology/Settlement
p223
aVhttp://www.w3.org/2003/01/geo/wgs84_pos#SpatialThing
p224
aVhttp://schema.org/City
p225
aVhttp://schema.org/Place
p226
aVhttp://umbel.org/umbel/rc/Location_Underspecified
p227
aVhttp://umbel.org/umbel/rc/PopulatedPlace
p228
aVhttp://umbel.org/umbel/rc/Village
p229
aVhttp://dbpedia.org/class/yago/AdministrativeDistrict108491826
p230
aVhttp://dbpedia.org/class/yago/BusinessDistrict108539072
p231
aVhttp://dbpedia.org/class/yago/City108524735
p232
aVhttp://dbpedia.org/class/yago/CityDistrict108537837
p233
aVhttp://dbpedia.org/class/yago/District108552138
p234
aVhttp://dbpedia.org/class/yago/Location100027167
p235
aVhttp://dbpedia.org/class/yago/Object100002684
p236
aVhttp://dbpedia.org/class/yago/Region108630985
p237
aVhttp://dbpedia.org/class/yago/UrbanArea108675967
p238
aVhttp://dbpedia.org/class/yago/YagoGeoEntity
p239
aVhttp://dbpedia.org/class/yago/YagoLegalActorGeo
p240
aVhttp://dbpedia.org/class/yago/CentralBusinessDistricts
p241
aVhttp://dbpedia.org/class/yago/CentralBusinessDistrictsInTheUnitedKingdom
p242
aVhttp://dbpedia.org/class/yago/CitiesInLondon
p243
aVhttp://dbpedia.org/class/yago/DistrictsOfLondon
p244
aVhttp://dbpedia.org/class/yago/FinancialDistricts
p245
aVhttp://dbpedia.org/class/yago/GeographicalArea108574314
p246
aVhttp://dbpedia.org/class/yago/Municipality108626283
p247
aVhttp://dbpedia.org/class/yago/PhysicalEntity100001930
p248
aVhttp://dbpedia.org/class/yago/YagoPermanentlyLocatedEntity
p249
aVhttp://dbpedia.org/resource/City_of_London
tp250
aa(lp251
aa(lp252
(lp253
((lp254
Vhttp://www.w3.org/2002/07/owl#Thing
p255
aVhttp://xmlns.com/foaf/0.1/Person
p256
aVhttp://dbpedia.org/ontology/Person
p257
aVhttp://www.ontologydesignpatterns.org/ont/dul/DUL.owl#Agent
p258
aVhttp://www.ontologydesignpatterns.org/ont/dul/DUL.owl#NaturalPerson
p259
aVhttp://www.wikidata.org/entity/Q10871364
p260
aVhttp://www.wikidata.org/entity/Q215627
p261
aVhttp://www.wikidata.org/entity/Q5
p262
aVhttp://dbpedia.org/ontology/Agent
p263
aVhttp://dbpedia.org/ontology/Athlete
p264
aVhttp://dbpedia.org/ontology/BaseballPlayer
p265
aVhttp://schema.org/Person
p266
aVhttp://umbel.org/umbel/rc/Athlete
p267
aVhttp://umbel.org/umbel/rc/BaseballPlayer
p268
aVhttp://dbpedia.org/class/yago/AmericanPeopleOfPolishDescent
p269
aVhttp://dbpedia.org/class/yago/AnaheimAngelsPlayers
p270
aVhttp://dbpedia.org/class/yago/Athlete109820263
p271
aVhttp://dbpedia.org/class/yago/Ballplayer109835506
p272
aVhttp://dbpedia.org/class/yago/BaseballPlayersFromIllinois
p273
aVhttp://dbpedia.org/class/yago/CausalAgent100007347
p274
aVhttp://dbpedia.org/class/yago/Contestant109613191
p275
aVhttp://dbpedia.org/class/yago/LivingThing100004258
p276
aVhttp://dbpedia.org/class/yago/Object100002684
p277
aVhttp://dbpedia.org/class/yago/Organism100004475
p278
aVhttp://dbpedia.org/class/yago/Outfielder110386984
p279
aVhttp://dbpedia.org/class/yago/Person100007846
p280
aVhttp://dbpedia.org/class/yago/Player110439851
p281
aVhttp://dbpedia.org/class/yago/Whole100003553
p282
aVhttp://dbpedia.org/class/yago/YagoLegalActorGeo
p283
aVhttp://dbpedia.org/class/yago/EdmontonTrappersPlayers
p284
aVhttp://dbpedia.org/class/yago/Fielder110086568
p285
aVhttp://dbpedia.org/class/yago/PhysicalEntity100001930
p286
aVhttp://dbpedia.org/class/yago/HuntsvilleStarsPlayers
p287
aVhttp://dbpedia.org/class/yago/LeftFielder110387586
p288
aVhttp://dbpedia.org/class/yago/LivingPeople
p289
aVhttp://dbpedia.org/class/yago/MajorLeagueBaseballLeftFielders
p290
aVhttp://dbpedia.org/class/yago/ModestoA'sPlayers
p291
aVhttp://dbpedia.org/class/yago/OaklandAthleticsPlayers
p292
aVhttp://dbpedia.org/class/yago/OrangeCountyFlyersPlayers
p293
aVhttp://dbpedia.org/class/yago/PeopleFromGrundyCounty,Illinois
p294
aVhttp://dbpedia.org/class/yago/PeopleFromIrvine,California
p295
aVhttp://dbpedia.org/class/yago/PeopleFromJoliet,Illinois
p296
aVhttp://dbpedia.org/class/yago/YagoLegalActor
p297
aVhttp://dbpedia.org/class/yago/RichmondBravesPlayers
p298
aVhttp://dbpedia.org/class/yago/SeattleMarinersPlayers
p299
aVhttp://dbpedia.org/class/yago/SouthernOregonA'sPlayers
p300
aVhttp://dbpedia.org/class/yago/SouthernOregonTimberjacksPlayers
p301
aVhttp://dbpedia.org/class/yago/St.LouisCardinalsPlayers
p302
aVhttp://dbpedia.org/class/yago/TacomaRainiersPlayers
p303
aVhttp://dbpedia.org/class/yago/VancouverCanadiansPlayers
p304
aVhttp://dbpedia.org/resource/Scott_Spiezio
tp305
aa(lp306
((lp307
Vhttp://www.w3.org/2002/07/owl#Thing
p308
aVhttp://dbpedia.org/ontology/Place
p309
aVhttp://dbpedia.org/ontology/Location
p310
aVhttp://www.wikidata.org/entity/Q486972
p311
aVhttp://www.wikidata.org/entity/Q515
p312
aVhttp://dbpedia.org/ontology/City
p313
aVhttp://dbpedia.org/ontology/PopulatedPlace
p314
aVhttp://dbpedia.org/ontology/Settlement
p315
aVhttp://www.w3.org/2003/01/geo/wgs84_pos#SpatialThing
p316
aVhttp://schema.org/City
p317
aVhttp://schema.org/Place
p318
aVhttp://umbel.org/umbel/rc/Location_Underspecified
p319
aVhttp://umbel.org/umbel/rc/PopulatedPlace
p320
aVhttp://umbel.org/umbel/rc/Village
p321
aVhttp://dbpedia.org/class/yago/AdministrativeDistrict108491826
p322
aVhttp://dbpedia.org/class/yago/BusinessDistrict108539072
p323
aVhttp://dbpedia.org/class/yago/City108524735
p324
aVhttp://dbpedia.org/class/yago/CityDistrict108537837
p325
aVhttp://dbpedia.org/class/yago/District108552138
p326
aVhttp://dbpedia.org/class/yago/Location100027167
p327
aVhttp://dbpedia.org/class/yago/Object100002684
p328
aVhttp://dbpedia.org/class/yago/Region108630985
p329
aVhttp://dbpedia.org/class/yago/UrbanArea108675967
p330
aVhttp://dbpedia.org/class/yago/YagoGeoEntity
p331
aVhttp://dbpedia.org/class/yago/YagoLegalActorGeo
p332
aVhttp://dbpedia.org/class/yago/CentralBusinessDistricts
p333
aVhttp://dbpedia.org/class/yago/CentralBusinessDistrictsInTheUnitedKingdom
p334
aVhttp://dbpedia.org/class/yago/CitiesInLondon
p335
aVhttp://dbpedia.org/class/yago/DistrictsOfLondon
p336
aVhttp://dbpedia.org/class/yago/FinancialDistricts
p337
aVhttp://dbpedia.org/class/yago/GeographicalArea108574314
p338
aVhttp://dbpedia.org/class/yago/Municipality108626283
p339
aVhttp://dbpedia.org/class/yago/PhysicalEntity100001930
p340
aVhttp://dbpedia.org/class/yago/YagoPermanentlyLocatedEntity
p341
aVhttp://dbpedia.org/resource/City_of_London
tp342
aa(lp343
aa(lp344
(lp345
((lp346
Vhttp://www.w3.org/2002/07/owl#Thing
p347
aVhttp://xmlns.com/foaf/0.1/Person
p348
aVhttp://dbpedia.org/ontology/Person
p349
aVhttp://www.ontologydesignpatterns.org/ont/dul/DUL.owl#Agent
p350
aVhttp://www.ontologydesignpatterns.org/ont/dul/DUL.owl#NaturalPerson
p351
aVhttp://www.wikidata.org/entity/Q10871364
p352
aVhttp://www.wikidata.org/entity/Q215627
p353
aVhttp://www.wikidata.org/entity/Q5
p354
aVhttp://dbpedia.org/ontology/Agent
p355
aVhttp://dbpedia.org/ontology/Athlete
p356
aVhttp://dbpedia.org/ontology/BaseballPlayer
p357
aVhttp://schema.org/Person
p358
aVhttp://umbel.org/umbel/rc/Athlete
p359
aVhttp://umbel.org/umbel/rc/BaseballPlayer
p360
aVhttp://dbpedia.org/class/yago/AfricanAmericanBaseballPlayers
p361
aVhttp://dbpedia.org/class/yago/AmericanLeagueRBIChampions
p362
aVhttp://dbpedia.org/class/yago/Announcer109795334
p363
aVhttp://dbpedia.org/class/yago/Athlete109820263
p364
aVhttp://dbpedia.org/class/yago/Ballplayer109835506
p365
aVhttp://dbpedia.org/class/yago/BaseballPlayersFromIllinois
p366
aVhttp://dbpedia.org/class/yago/BradleyBravesBaseballPlayers
p367
aVhttp://dbpedia.org/class/yago/CausalAgent100007347
p368
aVhttp://dbpedia.org/class/yago/Champion109906704
p369
aVhttp://dbpedia.org/class/yago/Communicator109610660
p370
aVhttp://dbpedia.org/class/yago/Contestant109613191
p371
aVhttp://dbpedia.org/class/yago/LivingThing100004258
p372
aVhttp://dbpedia.org/class/yago/Object100002684
p373
aVhttp://dbpedia.org/class/yago/Organism100004475
p374
aVhttp://dbpedia.org/class/yago/Outfielder110386984
p375
aVhttp://dbpedia.org/class/yago/Person100007846
p376
aVhttp://dbpedia.org/class/yago/Player110439851
p377
aVhttp://dbpedia.org/class/yago/Rival110533013
p378
aVhttp://dbpedia.org/class/yago/Whole100003553
p379
aVhttp://dbpedia.org/class/yago/YagoLegalActorGeo
p380
aVhttp://dbpedia.org/class/yago/CenterFielder110387476
p381
aVhttp://dbpedia.org/class/yago/ElizabethtonTwinsPlayers
p382
aVhttp://dbpedia.org/class/yago/Fielder110086568
p383
aVhttp://dbpedia.org/class/yago/PhysicalEntity100001930
p384
aVhttp://dbpedia.org/class/yago/MajorLeagueBaseballAnnouncers
p385
aVhttp://dbpedia.org/class/yago/MajorLeagueBaseballCenterFielders
p386
aVhttp://dbpedia.org/class/yago/MajorLeagueBaseballPlayersWithRetiredNumbers
p387
aVhttp://dbpedia.org/class/yago/MinnesotaTwinsPlayers
p388
aVhttp://dbpedia.org/class/yago/PeopleFromScottsdale,Arizona
p389
aVhttp://dbpedia.org/class/yago/YagoLegalActor
p390
aVhttp://dbpedia.org/class/yago/ToledoMudHensPlayers
p391
aVhttp://dbpedia.org/class/yago/VisaliaOaksPlayers
p392
aVhttp://dbpedia.org/resource/Kirby_Puckett
tp393
aa(lp394
((lp395
Vhttp://www.w3.org/2002/07/owl#Thing
p396
aVhttp://dbpedia.org/ontology/Place
p397
aVhttp://dbpedia.org/ontology/Location
p398
aVhttp://www.wikidata.org/entity/Q486972
p399
aVhttp://www.wikidata.org/entity/Q515
p400
aVhttp://dbpedia.org/ontology/City
p401
aVhttp://dbpedia.org/ontology/PopulatedPlace
p402
aVhttp://dbpedia.org/ontology/Settlement
p403
aVhttp://www.w3.org/2003/01/geo/wgs84_pos#SpatialThing
p404
aVhttp://schema.org/City
p405
aVhttp://schema.org/Place
p406
aVhttp://umbel.org/umbel/rc/Location_Underspecified
p407
aVhttp://umbel.org/umbel/rc/PopulatedPlace
p408
aVhttp://umbel.org/umbel/rc/Village
p409
aVhttp://dbpedia.org/class/yago/AdministrativeDistrict108491826
p410
aVhttp://dbpedia.org/class/yago/BusinessDistrict108539072
p411
aVhttp://dbpedia.org/class/yago/City108524735
p412
aVhttp://dbpedia.org/class/yago/CityDistrict108537837
p413
aVhttp://dbpedia.org/class/yago/District108552138
p414
aVhttp://dbpedia.org/class/yago/Location100027167
p415
aVhttp://dbpedia.org/class/yago/Object100002684
p416
aVhttp://dbpedia.org/class/yago/Region108630985
p417
aVhttp://dbpedia.org/class/yago/UrbanArea108675967
p418
aVhttp://dbpedia.org/class/yago/YagoGeoEntity
p419
aVhttp://dbpedia.org/class/yago/YagoLegalActorGeo
p420
aVhttp://dbpedia.org/class/yago/CentralBusinessDistricts
p421
aVhttp://dbpedia.org/class/yago/CentralBusinessDistrictsInTheUnitedKingdom
p422
aVhttp://dbpedia.org/class/yago/CitiesInLondon
p423
aVhttp://dbpedia.org/class/yago/DistrictsOfLondon
p424
aVhttp://dbpedia.org/class/yago/FinancialDistricts
p425
aVhttp://dbpedia.org/class/yago/GeographicalArea108574314
p426
aVhttp://dbpedia.org/class/yago/Municipality108626283
p427
aVhttp://dbpedia.org/class/yago/PhysicalEntity100001930
p428
aVhttp://dbpedia.org/class/yago/YagoPermanentlyLocatedEntity
p429
aVhttp://dbpedia.org/resource/City_of_London
p430
tp431
aa(lp432
aa.