(lp1
(dp2
I0
(dp3
I0
(lp4
sI1
(lp5
sI2
(lp6
sI3
(lp7
sI4
(lp8
ssI1
(dp9
I1
(lp10
sI2
(lp11
sI3
(lp12
sI4
(lp13
ssI2
(dp14
I2
(lp15
sI3
(lp16
sI4
(lp17
ssI3
(dp18
I0
g7
sI1
g12
sI2
g16
sI3
(lp19
sI4
(lp20
ssI4
(dp21
I3
g20
sI4
(lp22
ssa(dp23
I0
(dp24
I0
(lp25
sI1
(lp26
sI2
(lp27
sI3
(lp28
sI4
(lp29
ssI1
(dp30
I1
(lp31
sI2
(lp32
sI3
(lp33
sI4
(lp34
ssI2
(dp35
I2
(lp36
sI3
(lp37
sI4
(lp38
ssI3
(dp39
I3
(lp40
sI4
(lp41
ssI4
(dp42
I4
(lp43
ssa(dp44
I0
(dp45
I0
(lp46
sI1
(lp47
sI2
(lp48
sI3
(lp49
sI4
(lp50
ssI1
(dp51
I1
(lp52
sI2
(lp53
sI3
(lp54
sI4
(lp55
ssI2
(dp56
I2
(lp57
sI3
(lp58
sI4
(lp59
ssI3
(dp60
I0
g49
sI1
g54
sI2
g58
sI3
(lp61
sI4
(lp62
ssI4
(dp63
I3
g62
sI4
(lp64
ssa(dp65
I0
(dp66
I0
(lp67
sI1
(lp68
sI2
(lp69
sI3
(lp70
sI4
(lp71
ssI1
(dp72
I1
(lp73
sI2
(lp74
sI3
(lp75
sI4
(lp76
ssI2
(dp77
I2
(lp78
sI3
(lp79
sI4
(lp80
ssI3
(dp81
I0
g70
sI1
g75
sI2
g79
sI3
(lp82
sI4
(lp83
ssI4
(dp84
I3
g83
sI4
(lp85
ssa(dp86
I0
(dp87
I0
(lp88
sI1
(lp89
sI2
(lp90
sI3
(lp91
sI4
(lp92
ssI1
(dp93
I1
(lp94
sI2
(lp95
sI3
(lp96
sI4
(lp97
ssI2
(dp98
I2
(lp99
sI3
(lp100
sI4
(lp101
ssI3
(dp102
I3
(lp103
sI4
(lp104
ssI4
(dp105
I4
(lp106
ssa(dp107
I0
(dp108
I0
(lp109
sI1
(lp110
sI2
(lp111
sI3
(lp112
sI4
(lp113
ssI1
(dp114
I1
(lp115
sI2
(lp116
sI3
(lp117
sI4
(lp118
ssI2
(dp119
I2
(lp120
sI3
(lp121
sI4
(lp122
ssI3
(dp123
I0
g112
sI1
g117
sI2
g121
sI3
(lp124
sI4
(lp125
ssI4
(dp126
I3
g125
sI4
(lp127
ssa(dp128
I0
(dp129
I0
(lp130
sI1
(lp131
sI2
(lp132
sI3
(lp133
sI4
(lp134
ssI1
(dp135
I1
(lp136
sI2
(lp137
sI3
(lp138
sI4
(lp139
ssI2
(dp140
I2
(lp141
sI3
(lp142
sI4
(lp143
ssI3
(dp144
I0
g133
sI1
g138
sI2
g142
sI3
(lp145
sI4
(lp146
ssI4
(dp147
I3
g146
sI4
(lp148
ssa(dp149
I0
(dp150
I0
(lp151
sI1
(lp152
sI2
(lp153
sI3
(lp154
sI4
(lp155
ssI1
(dp156
I1
(lp157
sI2
(lp158
sI3
(lp159
sI4
(lp160
ssI2
(dp161
I2
(lp162
sI3
(lp163
sI4
(lp164
ssI3
(dp165
I0
g154
sI1
g159
sI2
g163
sI3
(lp166
sI4
(lp167
ssI4
(dp168
I3
g167
sI4
(lp169
ssa(dp170
I0
(dp171
I0
(lp172
sI1
(lp173
sI2
(lp174
sI3
(lp175
sI4
(lp176
ssI1
(dp177
I1
(lp178
sI2
(lp179
sI3
(lp180
sI4
(lp181
ssI2
(dp182
I2
(lp183
sI3
(lp184
sI4
(lp185
ssI3
(dp186
I0
g175
sI1
g180
sI2
g184
sI3
(lp187
sI4
(lp188
ssI4
(dp189
I3
g188
sI4
(lp190
ssa(dp191
I0
(dp192
I0
(lp193
sI1
(lp194
sI2
(lp195
sI3
(lp196
sI4
(lp197
ssI1
(dp198
I1
(lp199
sI2
(lp200
sI3
(lp201
sI4
(lp202
ssI2
(dp203
I2
(lp204
sI3
(lp205
sI4
(lp206
ssI3
(dp207
I0
g196
sI1
g201
sI2
g205
sI3
(lp208
sI4
(lp209
ssI4
(dp210
I3
g209
sI4
(lp211
ssa(dp212
I0
(dp213
I0
(lp214
sI1
(lp215
sI2
(lp216
sI3
(lp217
sI4
(lp218
ssI1
(dp219
I1
(lp220
sI2
(lp221
sI3
(lp222
sI4
(lp223
ssI2
(dp224
I2
(lp225
sI3
(lp226
sI4
(lp227
ssI3
(dp228
I0
g217
sI1
g222
sI2
g226
sI3
(lp229
sI4
(lp230
ssI4
(dp231
I3
g230
sI4
(lp232
ssa(dp233
I0
(dp234
I0
(lp235
sI1
(lp236
sI2
(lp237
sI3
(lp238
sI4
(lp239
ssI1
(dp240
I1
(lp241
sI2
(lp242
sI3
(lp243
sI4
(lp244
ssI2
(dp245
I2
(lp246
sI3
(lp247
sI4
(lp248
ssI3
(dp249
I0
g238
sI1
g243
sI2
g247
sI3
(lp250
sI4
(lp251
ssI4
(dp252
I3
g251
sI4
(lp253
ssa(dp254
I0
(dp255
I0
(lp256
sI1
(lp257
sI2
(lp258
sI3
(lp259
sI4
(lp260
ssI1
(dp261
I1
(lp262
sI2
(lp263
sI3
(lp264
sI4
(lp265
ssI2
(dp266
I2
(lp267
sI3
(lp268
sI4
(lp269
ssI3
(dp270
I0
g259
sI1
g264
sI2
g268
sI3
(lp271
sI4
(lp272
ssI4
(dp273
I3
g272
sI4
(lp274
ssa(dp275
I0
(dp276
I0
(lp277
sI1
(lp278
sI2
(lp279
sI3
(lp280
sI4
(lp281
ssI1
(dp282
I1
(lp283
sI2
(lp284
sI3
(lp285
sI4
(lp286
ssI2
(dp287
I2
(lp288
sI3
(lp289
sI4
(lp290
ssI3
(dp291
I3
(lp292
sI4
(lp293
ssI4
(dp294
I4
(lp295
ssa(dp296
I0
(dp297
I0
(lp298
sI1
(lp299
sI2
(lp300
sI3
(lp301
sI4
(lp302
ssI1
(dp303
I1
(lp304
sI2
(lp305
sI3
(lp306
sI4
(lp307
ssI2
(dp308
I2
(lp309
sI3
(lp310
sI4
(lp311
ssI3
(dp312
I0
g301
sI1
g306
sI2
g310
sI3
(lp313
sI4
(lp314
ssI4
(dp315
I3
g314
sI4
(lp316
ssa(dp317
I0
(dp318
I0
(lp319
sI1
(lp320
sI2
(lp321
sI3
(lp322
sI4
(lp323
ssI1
(dp324
I1
(lp325
sI2
(lp326
sI3
(lp327
sI4
(lp328
ssI2
(dp329
I2
(lp330
sI3
(lp331
sI4
(lp332
ssI3
(dp333
I0
g322
sI1
g327
sI2
g331
sI3
(lp334
sI4
(lp335
ssI4
(dp336
I3
g335
sI4
(lp337
ssa(dp338
I0
(dp339
I0
(lp340
sI1
(lp341
sI2
(lp342
sI3
(lp343
sI4
(lp344
ssI1
(dp345
I1
(lp346
sI2
(lp347
sI3
(lp348
sI4
(lp349
ssI2
(dp350
I2
(lp351
sI3
(lp352
sI4
(lp353
ssI3
(dp354
I3
(lp355
sI4
(lp356
ssI4
(dp357
I4
(lp358
ssa(dp359
I0
(dp360
I0
(lp361
sI1
(lp362
sI2
(lp363
sI3
(lp364
sI4
(lp365
ssI1
(dp366
I1
(lp367
sI2
(lp368
sI3
(lp369
sI4
(lp370
ssI2
(dp371
I2
(lp372
sI3
(lp373
sI4
(lp374
ssI3
(dp375
I0
g364
sI1
g369
sI2
g373
sI3
(lp376
sI4
(lp377
ssI4
(dp378
I3
g377
sI4
(lp379
ssa(dp380
I0
(dp381
I0
(lp382
sI1
(lp383
sI2
(lp384
sI3
(lp385
sI4
(lp386
ssI1
(dp387
I1
(lp388
sI2
(lp389
sI3
(lp390
sI4
(lp391
ssI2
(dp392
I2
(lp393
sI3
(lp394
sI4
(lp395
ssI3
(dp396
I0
g385
sI1
g390
sI2
g394
sI3
(lp397
sI4
(lp398
ssI4
(dp399
I3
g398
sI4
(lp400
ssa(dp401
I0
(dp402
I0
(lp403
sI1
(lp404
sI2
(lp405
sI3
(lp406
sI4
(lp407
ssI1
(dp408
I1
(lp409
sI2
(lp410
sI3
(lp411
sI4
(lp412
ssI2
(dp413
I2
(lp414
sI3
(lp415
sI4
(lp416
ssI3
(dp417
I3
(lp418
sI4
(lp419
ssI4
(dp420
I4
(lp421
ssa.