(lp1
(dp2
I0
(dp3
I0
(lp4
sI1
(lp5
Vhttp://dbpedia.org/ontology/wikiPageExternalLink
p6
aVhttp://purl.org/voc/vrank#hasRank
p7
aVhttp://www.w3.org/1999/02/22-rdf-syntax-ns#type
p8
aVhttp://www.w3.org/2002/07/owl#sameAs
p9
asI2
(lp10
sI3
(lp11
ssI1
(dp12
I0
g5
sI1
(lp13
sI2
(lp14
sI3
(lp15
ssI2
(dp16
I0
g10
sI1
g14
sI2
(lp17
sI3
(lp18
ssI3
(dp19
I0
g11
sI1
g15
sI2
g18
sI3
(lp20
ssa(dp21
I0
(dp22
I0
(lp23
sI1
(lp24
Vhttp://dbpedia.org/ontology/wikiPageExternalLink
p25
aVhttp://www.w3.org/1999/02/22-rdf-syntax-ns#type
p26
aVhttp://dbpedia.org/ontology/type
p27
aVhttp://www.w3.org/2000/01/rdf-schema#comment
p28
aVhttp://dbpedia.org/ontology/abstract
p29
aVhttp://xmlns.com/foaf/0.1/depiction
p30
aVhttp://dbpedia.org/property/type
p31
aVhttp://purl.org/voc/vrank#hasRank
p32
aVhttp://dbpedia.org/ontology/thumbnail
p33
aVhttp://dbpedia.org/property/modes
p34
asI2
(lp35
sI3
(lp36
ssI1
(dp37
I0
g24
sI1
(lp38
sI2
(lp39
sI3
(lp40
ssI2
(dp41
I0
g35
sI1
g39
sI2
(lp42
sI3
(lp43
ssI3
(dp44
I0
g36
sI1
g40
sI2
g43
sI3
(lp45
ssa(dp46
I0
(dp47
I0
(lp48
sI1
(lp49
Vhttp://purl.org/voc/vrank#hasRank
p50
aVhttp://dbpedia.org/property/hasPhotoCollection
p51
aVhttp://www.w3.org/1999/02/22-rdf-syntax-ns#type
p52
aVhttp://www.w3.org/2002/07/owl#sameAs
p53
asI2
(lp54
sI3
(lp55
ssI1
(dp56
I0
g49
sI1
(lp57
sI2
(lp58
sI3
(lp59
ssI2
(dp60
I0
g54
sI1
g58
sI2
(lp61
sI3
(lp62
ssI3
(dp63
I0
g55
sI1
g59
sI2
g62
sI3
(lp64
ssa(dp65
I0
(dp66
I0
(lp67
sI1
(lp68
Vhttp://www.w3.org/1999/02/22-rdf-syntax-ns#type
p69
aVhttp://dbpedia.org/property/netIncome
p70
aVhttp://purl.org/voc/vrank#hasRank
p71
aVhttp://dbpedia.org/property/assets
p72
aVhttp://www.w3.org/ns/prov#wasDerivedFrom
p73
aVhttp://dbpedia.org/ontology/netIncome
p74
aVhttp://dbpedia.org/ontology/assets
p75
aVhttp://www.w3.org/2002/07/owl#sameAs
p76
asI2
(lp77
sI3
(lp78
ssI1
(dp79
I0
g68
sI1
(lp80
sI2
(lp81
sI3
(lp82
ssI2
(dp83
I0
g77
sI1
g81
sI2
(lp84
sI3
(lp85
ssI3
(dp86
I0
g78
sI1
g82
sI2
g85
sI3
(lp87
ssa(dp88
I0
(dp89
I0
(lp90
sI1
(lp91
Vhttp://www.w3.org/1999/02/22-rdf-syntax-ns#type
p92
aVhttp://dbpedia.org/ontology/revenue
p93
aVhttp://dbpedia.org/ontology/abstract
p94
aVhttp://www.w3.org/2000/01/rdf-schema#comment
p95
aVhttp://purl.org/voc/vrank#hasRank
p96
aVhttp://dbpedia.org/property/operatingIncome
p97
aVhttp://dbpedia.org/property/assets
p98
aVhttp://www.w3.org/ns/prov#wasDerivedFrom
p99
aVhttp://dbpedia.org/property/hasPhotoCollection
p100
aVhttp://dbpedia.org/ontology/operatingIncome
p101
aVhttp://dbpedia.org/ontology/assets
p102
aVhttp://www.w3.org/2002/07/owl#sameAs
p103
aVhttp://dbpedia.org/property/revenue
p104
asI2
(lp105
sI3
(lp106
ssI1
(dp107
I0
g91
sI1
(lp108
sI2
(lp109
sI3
(lp110
ssI2
(dp111
I0
g105
sI1
g109
sI2
(lp112
sI3
(lp113
ssI3
(dp114
I0
g106
sI1
g110
sI2
g113
sI3
(lp115
ssa(dp116
I0
(dp117
I0
(lp118
sI1
(lp119
Vhttp://www.w3.org/ns/prov#wasDerivedFrom
p120
aVhttp://purl.org/voc/vrank#hasRank
p121
aVhttp://dbpedia.org/property/wordnet_type
p122
aVhttp://www.w3.org/2002/07/owl#sameAs
p123
aVhttp://www.w3.org/1999/02/22-rdf-syntax-ns#type
p124
asI2
(lp125
sI3
(lp126
ssI1
(dp127
I0
g119
sI1
(lp128
sI2
(lp129
sI3
(lp130
Vhttp://www.w3.org/1999/02/22-rdf-syntax-ns#type
p131
assI2
(dp132
I0
g125
sI1
g129
sI2
(lp133
sI3
(lp134
ssI3
(dp135
I0
g126
sI1
g130
sI2
g134
sI3
(lp136
ssa(dp137
I0
(dp138
I0
(lp139
sI1
(lp140
Vhttp://www.w3.org/1999/02/22-rdf-syntax-ns#type
p141
aVhttp://www.w3.org/2002/07/owl#sameAs
p142
asI2
(lp143
sI3
(lp144
ssI1
(dp145
I0
g140
sI1
(lp146
sI2
(lp147
sI3
(lp148
ssI2
(dp149
I0
g143
sI1
g147
sI2
(lp150
sI3
(lp151
ssI3
(dp152
I0
g144
sI1
g148
sI2
g151
sI3
(lp153
ssa(dp154
I0
(dp155
I0
(lp156
sI1
(lp157
Vhttp://www.w3.org/1999/02/22-rdf-syntax-ns#type
p158
aVhttp://purl.org/dc/terms/subject
p159
aVhttp://www.w3.org/2000/01/rdf-schema#comment
p160
aVhttp://dbpedia.org/ontology/abstract
p161
aVhttp://purl.org/voc/vrank#hasRank
p162
aVhttp://www.w3.org/ns/prov#wasDerivedFrom
p163
asI2
(lp164
sI3
(lp165
ssI1
(dp166
I0
g157
sI1
(lp167
sI2
(lp168
sI3
(lp169
ssI2
(dp170
I0
g164
sI1
g168
sI2
(lp171
sI3
(lp172
ssI3
(dp173
I0
g165
sI1
g169
sI2
g172
sI3
(lp174
ssa(dp175
I0
(dp176
I0
(lp177
sI1
(lp178
Vhttp://www.w3.org/ns/prov#wasDerivedFrom
p179
asI2
(lp180
sI3
(lp181
ssI1
(dp182
I0
g178
sI1
(lp183
sI2
(lp184
sI3
(lp185
ssI2
(dp186
I0
g180
sI1
g184
sI2
(lp187
sI3
(lp188
ssI3
(dp189
I0
g181
sI1
g185
sI2
g188
sI3
(lp190
ssa(dp191
I0
(dp192
I0
(lp193
sI1
(lp194
Vhttp://dbpedia.org/ontology/abstract
p195
aVhttp://www.w3.org/1999/02/22-rdf-syntax-ns#type
p196
aVhttp://www.w3.org/2000/01/rdf-schema#comment
p197
asI2
(lp198
sI3
(lp199
ssI1
(dp200
I0
g194
sI1
(lp201
sI2
(lp202
sI3
(lp203
ssI2
(dp204
I0
g198
sI1
g202
sI2
(lp205
sI3
(lp206
ssI3
(dp207
I0
g199
sI1
g203
sI2
g206
sI3
(lp208
ssa(dp209
I0
(dp210
I0
(lp211
sI1
(lp212
sI2
(lp213
sI3
(lp214
ssI1
(dp215
I0
g212
sI1
(lp216
sI2
(lp217
sI3
(lp218
ssI2
(dp219
I0
g213
sI1
g217
sI2
(lp220
sI3
(lp221
ssI3
(dp222
I0
g214
sI1
g218
sI2
g221
sI3
(lp223
ssa.