(lp1
(lp2
(lp3
a(lp4
a(lp5
a(lp6
a(lp7
aa(lp8
(lp9
Vhttp://dbpedia.org/resource/Con
p10
aa(lp11
a(lp12
a(lp13
a(lp14
aa(lp15
(lp16
Vhttp://dbpedia.org/resource/Nassau_Inter-County_Express
p17
aa(lp18
a(lp19
a(lp20
a(lp21
aa(lp22
(lp23
Vhttp://dbpedia.org/resource/Broadcast_quality
p24
aa(lp25
a(lp26
a(lp27
a(lp28
aa(lp29
(lp30
Vhttp://dbpedia.org/resource/Saskatchewan_New_Democratic_Party
p31
aa(lp32
a(lp33
a(lp34
a(lp35
aa(lp36
(lp37
Vhttp://dbpedia.org/resource/Ind
p38
aa(lp39
a(lp40
a(lp41
a(lp42
aa(lp43
(lp44
Vhttp://dbpedia.org/resource/Government_Radio_Network_(Australia)
p45
aa(lp46
a(lp47
a(lp48
a(lp49
aa(lp50
(lp51
Vhttp://dbpedia.org/resource/Over-the-horizon_radar
p52
aa(lp53
a(lp54
a(lp55
a(lp56
aa.