(lp1
(lp2
(lp3
a(lp4
a(lp5
a(lp6
a(lp7
aa(lp8
(lp9
((lVhttp://dbpedia.org/resource/Con
tp10
aa(lp11
a(lp12
a(lp13
a(lp14
aa(lp15
(lp16
((lp17
Vhttp://dbpedia.org/class/yago/Abstraction100002137
p18
aVhttp://dbpedia.org/class/yago/Attribute100024264
p19
aVhttp://dbpedia.org/class/yago/Authority105196582
p20
aVhttp://dbpedia.org/class/yago/Control105196375
p21
aVhttp://dbpedia.org/class/yago/Power105190804
p22
aVhttp://dbpedia.org/class/yago/Quality104723816
p23
aVhttp://dbpedia.org/class/yago/TransitAuthoritiesWithNaturalGasBuses
p24
aVhttp://dbpedia.org/resource/Nassau_Inter-County_Express
tp25
aa(lp26
a(lp27
a(lp28
a(lp29
aa(lp30
(lp31
((lVhttp://dbpedia.org/resource/Broadcast_quality
tp32
aa(lp33
a(lp34
a(lp35
a(lp36
aa(lp37
(lp38
((lp39
Vhttp://dbpedia.org/class/yago/Abstraction100002137
p40
aVhttp://dbpedia.org/class/yago/Group100031264
p41
aVhttp://dbpedia.org/class/yago/Organization108008335
p42
aVhttp://dbpedia.org/class/yago/Party108256968
p43
aVhttp://dbpedia.org/class/yago/SocialGroup107950920
p44
aVhttp://dbpedia.org/class/yago/YagoLegalActorGeo
p45
aVhttp://dbpedia.org/class/yago/YagoPermanentlyLocatedEntity
p46
aVhttp://dbpedia.org/class/yago/PoliticalPartiesEstablishedIn1932
p47
aVhttp://dbpedia.org/class/yago/YagoLegalActor
p48
aVhttp://dbpedia.org/class/yago/ProvincialPoliticalPartiesInSaskatchewan
p49
aVhttp://dbpedia.org/class/yago/SocialDemocraticPartiesInCanada
p50
aVhttp://dbpedia.org/resource/Saskatchewan_New_Democratic_Party
tp51
aa(lp52
a(lp53
a(lp54
a(lp55
aa(lp56
(lp57
((lVhttp://dbpedia.org/resource/Ind
tp58
aa(lp59
a(lp60
a(lp61
a(lp62
aa(lp63
(lp64
((lVhttp://dbpedia.org/resource/Government_Radio_Network_(Australia)
tp65
aa(lp66
a(lp67
a(lp68
a(lp69
aa(lp70
(lp71
((lVhttp://dbpedia.org/resource/Over-the-horizon_radar
p72
tp73
aa(lp74
a(lp75
a(lp76
a(lp77
aa.