(lp1
(dp2
I0
(dp3
I0
(lp4
sI1
(lp5
sI2
(lp6
sI3
(lp7
sI4
(lp8
sI5
(lp9
ssI1
(dp10
I0
g5
sI1
(lp11
sI2
(lp12
sI3
(lp13
sI4
(lp14
sI5
(lp15
ssI2
(dp16
I0
g6
sI1
g12
sI2
(lp17
sI3
(lp18
sI4
(lp19
sI5
(lp20
ssI3
(dp21
I0
g7
sI1
g13
sI2
g18
sI3
(lp22
sI4
(lp23
sI5
(lp24
ssI4
(dp25
I0
g8
sI1
g14
sI2
g19
sI3
g23
sI4
(lp26
sI5
(lp27
ssI5
(dp28
I0
g9
sI1
g15
sI2
g20
sI3
g24
sI4
g27
sI5
(lp29
ssa(dp30
I0
(dp31
I0
(lp32
sI1
(lp33
sI2
(lp34
sI3
(lp35
sI4
(lp36
sI5
(lp37
ssI1
(dp38
I0
g33
sI1
(lp39
sI2
(lp40
sI3
(lp41
sI4
(lp42
sI5
(lp43
ssI2
(dp44
I0
g34
sI1
g40
sI2
(lp45
sI3
(lp46
sI4
(lp47
sI5
(lp48
ssI3
(dp49
I0
g35
sI1
g41
sI2
g46
sI3
(lp50
sI4
(lp51
sI5
(lp52
ssI4
(dp53
I0
g36
sI1
g42
sI2
g47
sI3
g51
sI4
(lp54
sI5
(lp55
ssI5
(dp56
I0
g37
sI1
g43
sI2
g48
sI3
g52
sI4
g55
sI5
(lp57
ssa(dp58
I0
(dp59
I0
(lp60
sI1
(lp61
sI2
(lp62
sI3
(lp63
sI4
(lp64
sI5
(lp65
ssI1
(dp66
I0
g61
sI1
(lp67
sI2
(lp68
sI3
(lp69
sI4
(lp70
sI5
(lp71
ssI2
(dp72
I0
g62
sI1
g68
sI2
(lp73
sI3
(lp74
sI4
(lp75
sI5
(lp76
ssI3
(dp77
I0
g63
sI1
g69
sI2
g74
sI3
(lp78
sI4
(lp79
sI5
(lp80
ssI4
(dp81
I0
g64
sI1
g70
sI2
g75
sI3
g79
sI4
(lp82
sI5
(lp83
ssI5
(dp84
I0
g65
sI1
g71
sI2
g76
sI3
g80
sI4
g83
sI5
(lp85
ssa(dp86
I0
(dp87
I0
(lp88
sI1
(lp89
sI2
(lp90
sI3
(lp91
sI4
(lp92
sI5
(lp93
ssI1
(dp94
I0
g89
sI1
(lp95
sI2
(lp96
sI3
(lp97
sI4
(lp98
sI5
(lp99
ssI2
(dp100
I0
g90
sI1
g96
sI2
(lp101
sI3
(lp102
sI4
(lp103
sI5
(lp104
ssI3
(dp105
I0
g91
sI1
g97
sI2
g102
sI3
(lp106
sI4
(lp107
sI5
(lp108
ssI4
(dp109
I0
g92
sI1
g98
sI2
g103
sI3
g107
sI4
(lp110
sI5
(lp111
ssI5
(dp112
I0
g93
sI1
g99
sI2
g104
sI3
g108
sI4
g111
sI5
(lp113
ssa(dp114
I0
(dp115
I0
(lp116
sI1
(lp117
sI2
(lp118
Vhttp://dbpedia.org/property/currencyCode
p119
asI3
(lp120
sI4
(lp121
Vhttp://dbpedia.org/ontology/wikiPageDisambiguates
p122
asI5
(lp123
ssI1
(dp124
I0
g117
sI1
(lp125
sI2
(lp126
sI3
(lp127
sI4
(lp128
sI5
(lp129
ssI2
(dp130
I0
g118
sI1
g126
sI2
(lp131
sI3
(lp132
sI4
(lp133
sI5
(lp134
ssI3
(dp135
I0
g120
sI1
g127
sI2
g132
sI3
(lp136
sI4
(lp137
sI5
(lp138
ssI4
(dp139
I0
g121
sI1
g128
sI2
g133
sI3
g137
sI4
(lp140
sI5
(lp141
ssI5
(dp142
I0
g123
sI1
g129
sI2
g134
sI3
g138
sI4
g141
sI5
(lp143
ssa(dp144
I0
(dp145
I0
(lp146
sI1
(lp147
sI2
(lp148
Vhttp://dbpedia.org/property/currencyCode
p149
asI3
(lp150
sI4
(lp151
sI5
(lp152
ssI1
(dp153
I0
g147
sI1
(lp154
sI2
(lp155
sI3
(lp156
sI4
(lp157
sI5
(lp158
ssI2
(dp159
I0
g148
sI1
g155
sI2
(lp160
sI3
(lp161
sI4
(lp162
sI5
(lp163
ssI3
(dp164
I0
g150
sI1
g156
sI2
g161
sI3
(lp165
sI4
(lp166
sI5
(lp167
ssI4
(dp168
I0
g151
sI1
g157
sI2
g162
sI3
g166
sI4
(lp169
sI5
(lp170
ssI5
(dp171
I0
g152
sI1
g158
sI2
g163
sI3
g167
sI4
g170
sI5
(lp172
ssa(dp173
I0
(dp174
I0
(lp175
sI1
(lp176
sI2
(lp177
sI3
(lp178
sI4
(lp179
sI5
(lp180
ssI1
(dp181
I0
g176
sI1
(lp182
sI2
(lp183
sI3
(lp184
sI4
(lp185
sI5
(lp186
ssI2
(dp187
I0
g177
sI1
g183
sI2
(lp188
sI3
(lp189
sI4
(lp190
sI5
(lp191
ssI3
(dp192
I0
g178
sI1
g184
sI2
g189
sI3
(lp193
sI4
(lp194
sI5
(lp195
ssI4
(dp196
I0
g179
sI1
g185
sI2
g190
sI3
g194
sI4
(lp197
sI5
(lp198
ssI5
(dp199
I0
g180
sI1
g186
sI2
g191
sI3
g195
sI4
g198
sI5
(lp200
ssa(dp201
I0
(dp202
I0
(lp203
sI1
(lp204
sI2
(lp205
sI3
(lp206
sI4
(lp207
sI5
(lp208
ssI1
(dp209
I0
g204
sI1
(lp210
sI2
(lp211
sI3
(lp212
sI4
(lp213
sI5
(lp214
ssI2
(dp215
I0
g205
sI1
g211
sI2
(lp216
sI3
(lp217
sI4
(lp218
sI5
(lp219
ssI3
(dp220
I0
g206
sI1
g212
sI2
g217
sI3
(lp221
sI4
(lp222
sI5
(lp223
ssI4
(dp224
I0
g207
sI1
g213
sI2
g218
sI3
g222
sI4
(lp225
sI5
(lp226
ssI5
(dp227
I0
g208
sI1
g214
sI2
g219
sI3
g223
sI4
g226
sI5
(lp228
ssa(dp229
I0
(dp230
I0
(lp231
sI1
(lp232
sI2
(lp233
sI3
(lp234
sI4
(lp235
sI5
(lp236
ssI1
(dp237
I0
g232
sI1
(lp238
sI2
(lp239
sI3
(lp240
sI4
(lp241
sI5
(lp242
ssI2
(dp243
I0
g233
sI1
g239
sI2
(lp244
sI3
(lp245
sI4
(lp246
sI5
(lp247
ssI3
(dp248
I0
g234
sI1
g240
sI2
g245
sI3
(lp249
sI4
(lp250
sI5
(lp251
ssI4
(dp252
I0
g235
sI1
g241
sI2
g246
sI3
g250
sI4
(lp253
sI5
(lp254
ssI5
(dp255
I0
g236
sI1
g242
sI2
g247
sI3
g251
sI4
g254
sI5
(lp256
ssa(dp257
I0
(dp258
I0
(lp259
sI1
(lp260
Vhttp://dbpedia.org/property/currency
p261
asI2
(lp262
Vhttp://dbpedia.org/property/currencyCode
p263
asI3
(lp264
Vhttp://purl.org/voc/vrank#hasRank
p265
aVhttp://dbpedia.org/ontology/abstract
p266
aVhttp://www.w3.org/2000/01/rdf-schema#comment
p267
asI4
(lp268
Vhttp://www.w3.org/1999/02/22-rdf-syntax-ns#type
p269
aVhttp://dbpedia.org/ontology/leaderTitle
p270
aVhttp://dbpedia.org/property/leaderTitle
p271
aVhttp://dbpedia.org/property/populationDensityRank
p272
aVhttp://dbpedia.org/ontology/wikiPageRedirects
p273
aVhttp://dbpedia.org/property/sovereigntyType
p274
aVhttp://purl.org/dc/terms/subject
p275
aVhttp://www.w3.org/2000/01/rdf-schema#label
p276
aVhttp://www.w3.org/2002/07/owl#sameAs
p277
asI5
(lp278
ssI1
(dp279
I0
g260
sI1
(lp280
sI2
(lp281
sI3
(lp282
sI4
(lp283
sI5
(lp284
ssI2
(dp285
I0
g262
sI1
g281
sI2
(lp286
sI3
(lp287
sI4
(lp288
sI5
(lp289
ssI3
(dp290
I0
g264
sI1
g282
sI2
g287
sI3
(lp291
sI4
(lp292
sI5
(lp293
ssI4
(dp294
I0
g268
sI1
g283
sI2
g288
sI3
g292
sI4
(lp295
sI5
(lp296
ssI5
(dp297
I0
g278
sI1
g284
sI2
g289
sI3
g293
sI4
g296
sI5
(lp298
ssa(dp299
I0
(dp300
I0
(lp301
sI1
(lp302
Vhttp://dbpedia.org/property/currency
p303
asI2
(lp304
Vhttp://dbpedia.org/property/currencyCode
p305
asI3
(lp306
Vhttp://dbpedia.org/ontology/PopulatedPlace/areaTotal
p307
aVhttp://dbpedia.org/ontology/abstract
p308
aVhttp://www.w3.org/2002/07/owl#sameAs
p309
asI4
(lp310
Vhttp://www.w3.org/1999/02/22-rdf-syntax-ns#type
p311
aVhttp://dbpedia.org/ontology/leaderTitle
p312
aVhttp://dbpedia.org/property/populationDensityRank
p313
aVhttp://dbpedia.org/ontology/wikiPageRedirects
p314
aVhttp://dbpedia.org/property/sovereigntyType
p315
aVhttp://purl.org/dc/terms/subject
p316
aVhttp://dbpedia.org/property/leaderTitle
p317
aVhttp://www.w3.org/2002/07/owl#sameAs
p318
asI5
(lp319
ssI1
(dp320
I0
g302
sI1
(lp321
sI2
(lp322
sI3
(lp323
sI4
(lp324
sI5
(lp325
ssI2
(dp326
I0
g304
sI1
g322
sI2
(lp327
sI3
(lp328
sI4
(lp329
sI5
(lp330
ssI3
(dp331
I0
g306
sI1
g323
sI2
g328
sI3
(lp332
sI4
(lp333
sI5
(lp334
ssI4
(dp335
I0
g310
sI1
g324
sI2
g329
sI3
g333
sI4
(lp336
sI5
(lp337
ssI5
(dp338
I0
g319
sI1
g325
sI2
g330
sI3
g334
sI4
g337
sI5
(lp339
ssa(dp340
I0
(dp341
I0
(lp342
sI1
(lp343
sI2
(lp344
sI3
(lp345
sI4
(lp346
sI5
(lp347
ssI1
(dp348
I0
g343
sI1
(lp349
sI2
(lp350
sI3
(lp351
sI4
(lp352
sI5
(lp353
ssI2
(dp354
I0
g344
sI1
g350
sI2
(lp355
sI3
(lp356
sI4
(lp357
sI5
(lp358
ssI3
(dp359
I0
g345
sI1
g351
sI2
g356
sI3
(lp360
sI4
(lp361
sI5
(lp362
ssI4
(dp363
I0
g346
sI1
g352
sI2
g357
sI3
g361
sI4
(lp364
sI5
(lp365
ssI5
(dp366
I0
g347
sI1
g353
sI2
g358
sI3
g362
sI4
g365
sI5
(lp367
ssa(dp368
I0
(dp369
I0
(lp370
sI1
(lp371
sI2
(lp372
sI3
(lp373
sI4
(lp374
sI5
(lp375
ssI1
(dp376
I0
g371
sI1
(lp377
sI2
(lp378
sI3
(lp379
sI4
(lp380
sI5
(lp381
ssI2
(dp382
I0
g372
sI1
g378
sI2
(lp383
sI3
(lp384
sI4
(lp385
sI5
(lp386
ssI3
(dp387
I0
g373
sI1
g379
sI2
g384
sI3
(lp388
sI4
(lp389
sI5
(lp390
ssI4
(dp391
I0
g374
sI1
g380
sI2
g385
sI3
g389
sI4
(lp392
sI5
(lp393
ssI5
(dp394
I0
g375
sI1
g381
sI2
g386
sI3
g390
sI4
g393
sI5
(lp395
ssa(dp396
I0
(dp397
I0
(lp398
sI1
(lp399
sI2
(lp400
sI3
(lp401
sI4
(lp402
sI5
(lp403
ssI1
(dp404
I0
g399
sI1
(lp405
sI2
(lp406
sI3
(lp407
sI4
(lp408
sI5
(lp409
ssI2
(dp410
I0
g400
sI1
g406
sI2
(lp411
sI3
(lp412
sI4
(lp413
sI5
(lp414
ssI3
(dp415
I0
g401
sI1
g407
sI2
g412
sI3
(lp416
sI4
(lp417
sI5
(lp418
ssI4
(dp419
I0
g402
sI1
g408
sI2
g413
sI3
g417
sI4
(lp420
sI5
(lp421
ssI5
(dp422
I0
g403
sI1
g409
sI2
g414
sI3
g418
sI4
g421
sI5
(lp423
ssa(dp424
I0
(dp425
I0
(lp426
sI1
(lp427
sI2
(lp428
sI3
(lp429
sI4
(lp430
sI5
(lp431
ssI1
(dp432
I0
g427
sI1
(lp433
sI2
(lp434
sI3
(lp435
sI4
(lp436
sI5
(lp437
ssI2
(dp438
I0
g428
sI1
g434
sI2
(lp439
sI3
(lp440
sI4
(lp441
sI5
(lp442
ssI3
(dp443
I0
g429
sI1
g435
sI2
g440
sI3
(lp444
sI4
(lp445
sI5
(lp446
ssI4
(dp447
I0
g430
sI1
g436
sI2
g441
sI3
g445
sI4
(lp448
sI5
(lp449
ssI5
(dp450
I0
g431
sI1
g437
sI2
g442
sI3
g446
sI4
g449
sI5
(lp451
ssa(dp452
I0
(dp453
I0
(lp454
sI1
(lp455
sI2
(lp456
sI3
(lp457
sI4
(lp458
sI5
(lp459
ssI1
(dp460
I0
g455
sI1
(lp461
sI2
(lp462
sI3
(lp463
sI4
(lp464
sI5
(lp465
ssI2
(dp466
I0
g456
sI1
g462
sI2
(lp467
sI3
(lp468
sI4
(lp469
sI5
(lp470
ssI3
(dp471
I0
g457
sI1
g463
sI2
g468
sI3
(lp472
sI4
(lp473
sI5
(lp474
ssI4
(dp475
I0
g458
sI1
g464
sI2
g469
sI3
g473
sI4
(lp476
sI5
(lp477
ssI5
(dp478
I0
g459
sI1
g465
sI2
g470
sI3
g474
sI4
g477
sI5
(lp479
ssa(dp480
I0
(dp481
I0
(lp482
sI1
(lp483
Vhttp://dbpedia.org/ontology/abstract
p484
aVhttp://www.w3.org/2000/01/rdf-schema#label
p485
aVhttp://dbpedia.org/property/image
p486
aVhttp://www.w3.org/2000/01/rdf-schema#comment
p487
asI2
(lp488
sI3
(lp489
sI4
(lp490
sI5
(lp491
ssI1
(dp492
I0
g483
sI1
(lp493
sI2
(lp494
Vhttp://dbpedia.org/ontology/abstract
p495
aVhttp://dbpedia.org/property/isoCode
p496
aVhttp://dbpedia.org/ontology/wikiPageDisambiguates
p497
aVhttp://www.w3.org/2000/01/rdf-schema#comment
p498
asI3
(lp499
sI4
(lp500
sI5
(lp501
ssI2
(dp502
I0
g488
sI1
g494
sI2
(lp503
sI3
(lp504
sI4
(lp505
sI5
(lp506
ssI3
(dp507
I0
g489
sI1
g499
sI2
g504
sI3
(lp508
sI4
(lp509
sI5
(lp510
ssI4
(dp511
I0
g490
sI1
g500
sI2
g505
sI3
g509
sI4
(lp512
sI5
(lp513
ssI5
(dp514
I0
g491
sI1
g501
sI2
g506
sI3
g510
sI4
g513
sI5
(lp515
ssa(dp516
I0
(dp517
I0
(lp518
sI1
(lp519
sI2
(lp520
sI3
(lp521
sI4
(lp522
sI5
(lp523
ssI1
(dp524
I0
g519
sI1
(lp525
sI2
(lp526
sI3
(lp527
sI4
(lp528
sI5
(lp529
ssI2
(dp530
I0
g520
sI1
g526
sI2
(lp531
sI3
(lp532
sI4
(lp533
sI5
(lp534
ssI3
(dp535
I0
g521
sI1
g527
sI2
g532
sI3
(lp536
sI4
(lp537
sI5
(lp538
ssI4
(dp539
I0
g522
sI1
g528
sI2
g533
sI3
g537
sI4
(lp540
sI5
(lp541
ssI5
(dp542
I0
g523
sI1
g529
sI2
g534
sI3
g538
sI4
g541
sI5
(lp543
ssa(dp544
I0
(dp545
I0
(lp546
sI1
(lp547
sI2
(lp548
sI3
(lp549
sI4
(lp550
sI5
(lp551
ssI1
(dp552
I0
g547
sI1
(lp553
sI2
(lp554
sI3
(lp555
sI4
(lp556
sI5
(lp557
ssI2
(dp558
I0
g548
sI1
g554
sI2
(lp559
sI3
(lp560
sI4
(lp561
sI5
(lp562
ssI3
(dp563
I0
g549
sI1
g555
sI2
g560
sI3
(lp564
sI4
(lp565
sI5
(lp566
ssI4
(dp567
I0
g550
sI1
g556
sI3
g565
sI4
(lp568
sI5
(lp569
ssI5
(dp570
I0
g551
sI1
g557
sI2
g562
sI3
g566
sI4
g569
sI5
(lp571
ssa(dp572
I0
(dp573
I0
(lp574
sI1
(lp575
sI2
(lp576
sI3
(lp577
sI4
(lp578
sI5
(lp579
ssI1
(dp580
I0
g575
sI1
(lp581
sI2
(lp582
sI3
(lp583
sI4
(lp584
sI5
(lp585
ssI2
(dp586
I0
g576
sI1
g582
sI2
(lp587
sI3
(lp588
sI4
(lp589
sI5
(lp590
ssI3
(dp591
I0
g577
sI1
g583
sI2
g588
sI3
(lp592
sI4
(lp593
sI5
(lp594
ssI4
(dp595
I0
g578
sI1
g584
sI2
g589
sI3
g593
sI4
(lp596
sI5
(lp597
ssI5
(dp598
I0
g579
sI1
g585
sI2
g590
sI3
g594
sI4
g597
sI5
(lp599
ssa(dp600
I0
(dp601
I0
(lp602
sI1
(lp603
sI2
(lp604
sI3
(lp605
sI4
(lp606
sI5
(lp607
ssI1
(dp608
I0
g603
sI1
(lp609
sI2
(lp610
sI3
(lp611
sI4
(lp612
sI5
(lp613
ssI2
(dp614
I0
g604
sI1
g610
sI2
(lp615
sI3
(lp616
sI4
(lp617
sI5
(lp618
ssI3
(dp619
I0
g605
sI1
g611
sI2
g616
sI3
(lp620
sI4
(lp621
sI5
(lp622
ssI4
(dp623
I0
g606
sI1
g612
sI2
g617
sI3
g621
sI4
(lp624
sI5
(lp625
ssI5
(dp626
I0
g607
sI1
g613
sI2
g618
sI3
g622
sI4
g625
sI5
(lp627
ssa(dp628
I0
(dp629
I0
(lp630
sI1
(lp631
sI2
(lp632
sI3
(lp633
sI4
(lp634
sI5
(lp635
ssI1
(dp636
I0
g631
sI1
(lp637
sI2
(lp638
sI3
(lp639
sI4
(lp640
sI5
(lp641
ssI2
(dp642
I0
g632
sI1
g638
sI2
(lp643
sI3
(lp644
sI4
(lp645
sI5
(lp646
ssI3
(dp647
I0
g633
sI1
g639
sI2
g644
sI3
(lp648
sI4
(lp649
sI5
(lp650
ssI4
(dp651
I0
g634
sI1
g640
sI2
g645
sI3
g649
sI4
(lp652
sI5
(lp653
ssI5
(dp654
I0
g635
sI1
g641
sI2
g646
sI3
g650
sI4
g653
sI5
(lp655
ssa(dp656
I0
(dp657
I0
(lp658
sI1
(lp659
sI2
(lp660
Vhttp://dbpedia.org/property/currencyCode
p661
asI3
(lp662
sI4
(lp663
sI5
(lp664
ssI1
(dp665
I0
g659
sI1
(lp666
sI2
(lp667
sI3
(lp668
sI4
(lp669
sI5
(lp670
ssI2
(dp671
I0
g660
sI1
g667
sI2
(lp672
sI3
(lp673
sI4
(lp674
sI5
(lp675
ssI3
(dp676
I0
g662
sI1
g668
sI2
g673
sI3
(lp677
sI4
(lp678
sI5
(lp679
ssI4
(dp680
I0
g663
sI1
g669
sI2
g674
sI3
g678
sI4
(lp681
sI5
(lp682
ssI5
(dp683
I0
g664
sI1
g670
sI2
g675
sI3
g679
sI4
g682
sI5
(lp684
ssa(dp685
I0
(dp686
I0
(lp687
sI1
(lp688
sI2
(lp689
sI3
(lp690
sI4
(lp691
sI5
(lp692
ssI1
(dp693
I0
g688
sI1
(lp694
sI2
(lp695
sI3
(lp696
sI4
(lp697
sI5
(lp698
ssI2
(dp699
I0
g689
sI1
g695
sI2
(lp700
sI3
(lp701
sI4
(lp702
sI5
(lp703
ssI3
(dp704
I0
g690
sI1
g696
sI2
g701
sI3
(lp705
sI4
(lp706
sI5
(lp707
ssI4
(dp708
I0
g691
sI1
g697
sI2
g702
sI3
g706
sI4
(lp709
sI5
(lp710
ssI5
(dp711
I0
g692
sI1
g698
sI2
g703
sI3
g707
sI4
g710
sI5
(lp712
ssa(dp713
I0
(dp714
I0
(lp715
sI1
(lp716
sI2
(lp717
sI3
(lp718
sI4
(lp719
sI5
(lp720
ssI1
(dp721
I0
g716
sI1
(lp722
sI2
(lp723
sI3
(lp724
sI4
(lp725
sI5
(lp726
ssI2
(dp727
I0
g717
sI1
g723
sI2
(lp728
sI3
(lp729
sI4
(lp730
sI5
(lp731
ssI3
(dp732
I0
g718
sI1
g724
sI2
g729
sI3
(lp733
sI4
(lp734
sI5
(lp735
ssI4
(dp736
I0
g719
sI1
g725
sI2
g730
sI3
g734
sI4
(lp737
sI5
(lp738
ssI5
(dp739
I0
g720
sI1
g726
sI2
g731
sI3
g735
sI4
g738
sI5
(lp740
ssa(dp741
I0
(dp742
I0
(lp743
sI1
(lp744
sI2
(lp745
sI3
(lp746
sI4
(lp747
sI5
(lp748
ssI1
(dp749
I0
g744
sI1
(lp750
sI2
(lp751
sI3
(lp752
sI4
(lp753
sI5
(lp754
ssI2
(dp755
I0
g745
sI1
g751
sI2
(lp756
sI3
(lp757
sI4
(lp758
sI5
(lp759
ssI3
(dp760
I0
g746
sI1
g752
sI2
g757
sI3
(lp761
sI4
(lp762
sI5
(lp763
ssI4
(dp764
I0
g747
sI1
g753
sI2
g758
sI3
g762
sI4
(lp765
sI5
(lp766
ssI5
(dp767
I0
g748
sI1
g754
sI2
g759
sI3
g763
sI4
g766
sI5
(lp768
ssa(dp769
I0
(dp770
I0
(lp771
sI1
(lp772
sI2
(lp773
Vhttp://dbpedia.org/property/currencyCode
p774
asI3
(lp775
sI4
(lp776
Vhttp://dbpedia.org/ontology/nationality
p777
aVhttp://dbpedia.org/ontology/birthPlace
p778
aVhttp://dbpedia.org/ontology/stateOfOrigin
p779
aVhttp://dbpedia.org/property/birthPlace
p780
aVhttp://dbpedia.org/property/placeOfBirth
p781
asI5
(lp782
ssI1
(dp783
I0
g772
sI1
(lp784
sI2
(lp785
sI3
(lp786
sI4
(lp787
sI5
(lp788
ssI2
(dp789
I0
g773
sI1
g785
sI2
(lp790
sI3
(lp791
sI4
(lp792
sI5
(lp793
ssI3
(dp794
I0
g775
sI1
g786
sI2
g791
sI3
(lp795
sI4
(lp796
sI5
(lp797
ssI4
(dp798
I0
g776
sI1
g787
sI2
g792
sI3
g796
sI4
(lp799
sI5
(lp800
ssI5
(dp801
I0
g782
sI1
g788
sI2
g793
sI3
g797
sI4
g800
sI5
(lp802
ssa(dp803
I0
(dp804
I0
(lp805
sI1
(lp806
sI2
(lp807
sI3
(lp808
sI4
(lp809
sI5
(lp810
ssI1
(dp811
I0
g806
sI1
(lp812
sI2
(lp813
sI3
(lp814
sI4
(lp815
sI5
(lp816
ssI2
(dp817
I0
g807
sI1
g813
sI2
(lp818
sI3
(lp819
sI4
(lp820
sI5
(lp821
ssI3
(dp822
I0
g808
sI1
g814
sI2
g819
sI3
(lp823
sI4
(lp824
sI5
(lp825
ssI4
(dp826
I0
g809
sI1
g815
sI2
g820
sI3
g824
sI4
(lp827
sI5
(lp828
Vhttp://xmlns.com/foaf/0.1/primaryTopic
p829
aVhttp://dbpedia.org/ontology/wikiPageDisambiguates
p830
aVhttp://dbpedia.org/ontology/wikiPageRedirects
p831
aVhttp://purl.org/voc/vrank#hasRank
p832
aVhttp://xmlns.com/foaf/0.1/isPrimaryTopicOf
p833
aVhttp://www.w3.org/ns/prov#wasDerivedFrom
p834
aVhttp://www.w3.org/2000/01/rdf-schema#label
p835
aVhttp://www.w3.org/2002/07/owl#sameAs
p836
assI5
(dp837
I0
g810
sI1
g816
sI2
g821
sI3
g825
sI4
g828
sI5
(lp838
ssa(dp839
I0
(dp840
I0
(lp841
sI1
(lp842
sI2
(lp843
sI3
(lp844
sI4
(lp845
sI5
(lp846
ssI1
(dp847
I0
g842
sI1
(lp848
sI2
(lp849
sI3
(lp850
sI4
(lp851
sI5
(lp852
ssI2
(dp853
I0
g843
sI1
g849
sI2
(lp854
sI3
(lp855
sI4
(lp856
sI5
(lp857
ssI3
(dp858
I0
g844
sI1
g850
sI2
g855
sI3
(lp859
sI4
(lp860
sI5
(lp861
ssI4
(dp862
I0
g845
sI1
g851
sI2
g856
sI3
g860
sI4
(lp863
sI5
(lp864
Vhttp://xmlns.com/foaf/0.1/primaryTopic
p865
aVhttp://dbpedia.org/ontology/wikiPageDisambiguates
p866
aVhttp://dbpedia.org/ontology/wikiPageRedirects
p867
aVhttp://purl.org/voc/vrank#hasRank
p868
aVhttp://xmlns.com/foaf/0.1/isPrimaryTopicOf
p869
aVhttp://www.w3.org/ns/prov#wasDerivedFrom
p870
aVhttp://www.w3.org/2000/01/rdf-schema#label
p871
aVhttp://www.w3.org/2002/07/owl#sameAs
p872
assI5
(dp873
I0
g846
sI1
g852
sI2
g857
sI3
g861
sI4
g864
sI5
(lp874
ssa(dp875
I0
(dp876
I0
(lp877
sI1
(lp878
sI2
(lp879
sI3
(lp880
sI4
(lp881
sI5
(lp882
ssI1
(dp883
I0
g878
sI1
(lp884
sI2
(lp885
sI3
(lp886
sI4
(lp887
sI5
(lp888
ssI2
(dp889
I0
g879
sI1
g885
sI2
(lp890
sI3
(lp891
sI4
(lp892
sI5
(lp893
ssI3
(dp894
I0
g880
sI1
g886
sI2
g891
sI3
(lp895
sI4
(lp896
sI5
(lp897
ssI4
(dp898
I0
g881
sI1
g887
sI2
g892
sI3
g896
sI4
(lp899
sI5
(lp900
ssI5
(dp901
I0
g882
sI1
g888
sI2
g893
sI3
g897
sI4
g900
sI5
(lp902
ssa(dp903
I0
(dp904
I0
(lp905
sI1
(lp906
sI2
(lp907
sI3
(lp908
sI4
(lp909
sI5
(lp910
ssI1
(dp911
I0
g906
sI1
(lp912
sI2
(lp913
sI3
(lp914
sI4
(lp915
sI5
(lp916
ssI2
(dp917
I0
g907
sI1
g913
sI2
(lp918
sI3
(lp919
sI4
(lp920
sI5
(lp921
ssI3
(dp922
I0
g908
sI1
g914
sI2
g919
sI3
(lp923
sI4
(lp924
sI5
(lp925
ssI4
(dp926
I0
g909
sI1
g915
sI2
g920
sI3
g924
sI4
(lp927
sI5
(lp928
ssI5
(dp929
I0
g910
sI1
g916
sI2
g921
sI3
g925
sI4
g928
sI5
(lp930
ssa(dp931
I0
(dp932
I0
(lp933
sI1
(lp934
sI2
(lp935
Vhttp://dbpedia.org/property/currencyCode
p936
asI3
(lp937
sI4
(lp938
sI5
(lp939
ssI1
(dp940
I0
g934
sI1
(lp941
sI2
(lp942
sI3
(lp943
sI4
(lp944
sI5
(lp945
ssI2
(dp946
I0
g935
sI1
g942
sI2
(lp947
sI3
(lp948
sI4
(lp949
sI5
(lp950
ssI3
(dp951
I0
g937
sI1
g943
sI2
g948
sI3
(lp952
sI4
(lp953
sI5
(lp954
ssI4
(dp955
I0
g938
sI1
g944
sI2
g949
sI3
g953
sI4
(lp956
sI5
(lp957
ssI5
(dp958
I0
g939
sI1
g945
sI2
g950
sI3
g954
sI4
g957
sI5
(lp959
ssa(dp960
I0
(dp961
I0
(lp962
sI1
(lp963
sI2
(lp964
sI3
(lp965
sI4
(lp966
sI5
(lp967
ssI1
(dp968
I0
g963
sI1
(lp969
sI2
(lp970
sI3
(lp971
sI4
(lp972
sI5
(lp973
ssI2
(dp974
I0
g964
sI1
g970
sI2
(lp975
sI3
(lp976
sI4
(lp977
sI5
(lp978
ssI3
(dp979
I0
g965
sI1
g971
sI2
g976
sI3
(lp980
sI4
(lp981
sI5
(lp982
ssI4
(dp983
I0
g966
sI1
g972
sI2
g977
sI3
g981
sI4
(lp984
sI5
(lp985
ssI5
(dp986
I0
g967
sI1
g973
sI2
g978
sI3
g982
sI4
g985
sI5
(lp987
ssa(dp988
I0
(dp989
I0
(lp990
sI1
(lp991
sI2
(lp992
sI3
(lp993
sI4
(lp994
sI5
(lp995
ssI1
(dp996
I0
g991
sI1
(lp997
sI2
(lp998
sI3
(lp999
sI4
(lp1000
sI5
(lp1001
ssI2
(dp1002
I0
g992
sI1
g998
sI2
(lp1003
sI3
(lp1004
sI4
(lp1005
sI5
(lp1006
ssI3
(dp1007
I0
g993
sI1
g999
sI2
g1004
sI3
(lp1008
sI4
(lp1009
sI5
(lp1010
ssI4
(dp1011
I0
g994
sI1
g1000
sI2
g1005
sI3
g1009
sI4
(lp1012
sI5
(lp1013
ssI5
(dp1014
I0
g995
sI1
g1001
sI2
g1006
sI3
g1010
sI4
g1013
sI5
(lp1015
ssa(dp1016
I0
(dp1017
I0
(lp1018
sI1
(lp1019
sI2
(lp1020
sI3
(lp1021
sI4
(lp1022
sI5
(lp1023
ssI1
(dp1024
I0
g1019
sI1
(lp1025
sI2
(lp1026
sI3
(lp1027
sI4
(lp1028
sI5
(lp1029
ssI2
(dp1030
I0
g1020
sI1
g1026
sI2
(lp1031
sI3
(lp1032
sI4
(lp1033
sI5
(lp1034
ssI3
(dp1035
I0
g1021
sI1
g1027
sI2
g1032
sI3
(lp1036
sI4
(lp1037
sI5
(lp1038
ssI4
(dp1039
I0
g1022
sI1
g1028
sI2
g1033
sI3
g1037
sI4
(lp1040
sI5
(lp1041
ssI5
(dp1042
I0
g1023
sI1
g1029
sI2
g1034
sI3
g1038
sI4
g1041
sI5
(lp1043
ssa(dp1044
I0
(dp1045
I0
(lp1046
sI1
(lp1047
Vhttp://www.w3.org/2000/01/rdf-schema#seeAlso
p1048
aVhttp://dbpedia.org/property/currency
p1049
aVhttp://dbpedia.org/property/mapCaption
p1050
aVhttp://dbpedia.org/property/name
p1051
aVhttp://dbpedia.org/ontology/jurisdiction
p1052
aVhttp://dbpedia.org/property/sovereigntyType
p1053
aVhttp://www.w3.org/ns/prov#wasDerivedFrom
p1054
aVhttp://dbpedia.org/property/caption
p1055
aVhttp://dbpedia.org/property/territory
p1056
aVhttp://www.w3.org/2002/07/owl#differentFrom
p1057
aVhttp://dbpedia.org/property/demonym
p1058
aVhttp://dbpedia.org/ontology/regionServed
p1059
aVhttp://dbpedia.org/ontology/country
p1060
aVhttp://dbpedia.org/property/region
p1061
aVhttp://www.w3.org/1999/02/22-rdf-syntax-ns#type
p1062
aVhttp://dbpedia.org/property/copyright
p1063
aVhttp://dbpedia.org/property/timeZone
p1064
aVhttp://dbpedia.org/property/image
p1065
aVhttp://xmlns.com/foaf/0.1/isPrimaryTopicOf
p1066
aVhttp://dbpedia.org/property/owner
p1067
aVhttp://dbpedia.org/property/country
p1068
aVhttp://dbpedia.org/property/linkingName
p1069
aVhttp://dbpedia.org/property/footer
p1070
aVhttp://dbpedia.org/ontology/wikiPageDisambiguates
p1071
aVhttp://dbpedia.org/property/areaServed
p1072
aVhttp://dbpedia.org/ontology/wikiPageExternalLink
p1073
aVhttp://xmlns.com/foaf/0.1/primaryTopic
p1074
aVhttp://purl.org/dc/terms/subject
p1075
aVhttp://dbpedia.org/property/officialWebsite
p1076
aVhttp://dbpedia.org/property/free
p1077
aVhttp://dbpedia.org/ontology/abstract
p1078
aVhttp://xmlns.com/foaf/0.1/depiction
p1079
aVhttp://dbpedia.org/property/location
p1080
aVhttp://dbpedia.org/property/id
p1081
aVhttp://dbpedia.org/ontology/thumbnail
p1082
aVhttp://dbpedia.org/property/author
p1083
aVhttp://dbpedia.org/property/edition
p1084
aVhttp://dbpedia.org/property/hasPhotoCollection
p1085
aVhttp://www.w3.org/2000/01/rdf-schema#label
p1086
aVhttp://dbpedia.org/property/title
p1087
aVhttp://dbpedia.org/property/imageMap
p1088
aVhttp://www.w3.org/2000/01/rdf-schema#comment
p1089
aVhttp://dbpedia.org/property/leaderTitle
p1090
aVhttp://dbpedia.org/ontology/nonFictionSubject
p1091
aVhttp://dbpedia.org/ontology/wikiPageRedirects
p1092
aVhttp://dbpedia.org/property/founder
p1093
aVhttp://dbpedia.org/property/parentOrganization
p1094
aVhttp://dbpedia.org/ontology/owner
p1095
aVhttp://dbpedia.org/property/timeZoneDst
p1096
aVhttp://dbpedia.org/property/imageFlag
p1097
aVhttp://dbpedia.org/property/regionServed
p1098
aVhttp://dbpedia.org/property/jurisdiction
p1099
aVhttp://dbpedia.org/property/data
p1100
aVhttp://www.w3.org/2002/07/owl#sameAs
p1101
aVhttp://dbpedia.org/property/observedby
p1102
asI2
(lp1103
Vhttp://www.w3.org/2000/01/rdf-schema#seeAlso
p1104
aVhttp://dbpedia.org/property/currency
p1105
aVhttp://dbpedia.org/property/mapCaption
p1106
aVhttp://dbpedia.org/property/name
p1107
aVhttp://dbpedia.org/ontology/jurisdiction
p1108
aVhttp://dbpedia.org/property/sovereigntyType
p1109
aVhttp://www.w3.org/ns/prov#wasDerivedFrom
p1110
aVhttp://dbpedia.org/property/caption
p1111
aVhttp://dbpedia.org/property/territory
p1112
aVhttp://www.w3.org/2002/07/owl#differentFrom
p1113
aVhttp://dbpedia.org/property/demonym
p1114
aVhttp://dbpedia.org/ontology/regionServed
p1115
aVhttp://dbpedia.org/ontology/country
p1116
aVhttp://dbpedia.org/property/region
p1117
aVhttp://www.w3.org/1999/02/22-rdf-syntax-ns#type
p1118
aVhttp://dbpedia.org/property/copyright
p1119
aVhttp://dbpedia.org/property/timeZone
p1120
aVhttp://dbpedia.org/property/image
p1121
aVhttp://xmlns.com/foaf/0.1/isPrimaryTopicOf
p1122
aVhttp://dbpedia.org/property/owner
p1123
aVhttp://dbpedia.org/property/country
p1124
aVhttp://dbpedia.org/property/linkingName
p1125
aVhttp://dbpedia.org/property/footer
p1126
aVhttp://dbpedia.org/ontology/wikiPageDisambiguates
p1127
aVhttp://dbpedia.org/property/areaServed
p1128
aVhttp://dbpedia.org/ontology/wikiPageExternalLink
p1129
aVhttp://xmlns.com/foaf/0.1/primaryTopic
p1130
aVhttp://purl.org/dc/terms/subject
p1131
aVhttp://dbpedia.org/property/officialWebsite
p1132
aVhttp://dbpedia.org/property/free
p1133
aVhttp://dbpedia.org/ontology/abstract
p1134
aVhttp://xmlns.com/foaf/0.1/depiction
p1135
aVhttp://dbpedia.org/property/location
p1136
aVhttp://dbpedia.org/property/id
p1137
aVhttp://dbpedia.org/ontology/thumbnail
p1138
aVhttp://dbpedia.org/property/author
p1139
aVhttp://dbpedia.org/property/edition
p1140
aVhttp://dbpedia.org/property/hasPhotoCollection
p1141
aVhttp://www.w3.org/2000/01/rdf-schema#label
p1142
aVhttp://dbpedia.org/property/title
p1143
aVhttp://dbpedia.org/property/imageMap
p1144
aVhttp://dbpedia.org/ontology/location
p1145
aVhttp://www.w3.org/2000/01/rdf-schema#comment
p1146
aVhttp://dbpedia.org/property/leaderTitle
p1147
aVhttp://dbpedia.org/ontology/nonFictionSubject
p1148
aVhttp://dbpedia.org/ontology/wikiPageRedirects
p1149
aVhttp://dbpedia.org/property/founder
p1150
aVhttp://dbpedia.org/property/parentOrganization
p1151
aVhttp://dbpedia.org/ontology/owner
p1152
aVhttp://dbpedia.org/property/timeZoneDst
p1153
aVhttp://dbpedia.org/property/imageFlag
p1154
aVhttp://dbpedia.org/property/regionServed
p1155
aVhttp://dbpedia.org/property/jurisdiction
p1156
aVhttp://dbpedia.org/property/data
p1157
aVhttp://www.w3.org/2002/07/owl#sameAs
p1158
aVhttp://dbpedia.org/property/observedby
p1159
asI3
(lp1160
Vhttp://www.w3.org/1999/02/22-rdf-syntax-ns#type
p1161
asI4
(lp1162
sI5
(lp1163
ssI1
(dp1164
I0
g1047
sI1
(lp1165
sI2
(lp1166
sI3
(lp1167
sI4
(lp1168
sI5
(lp1169
ssI2
(dp1170
I0
g1103
sI1
g1166
sI2
(lp1171
sI3
(lp1172
sI4
(lp1173
sI5
(lp1174
ssI3
(dp1175
I0
g1160
sI1
g1167
sI2
g1172
sI3
(lp1176
sI4
(lp1177
sI5
(lp1178
ssI4
(dp1179
I0
g1162
sI1
g1168
sI2
g1173
sI3
g1177
sI4
(lp1180
sI5
(lp1181
ssI5
(dp1182
I0
g1163
sI1
g1169
sI2
g1174
sI3
g1178
sI4
g1181
sI5
(lp1183
ssa(dp1184
I0
(dp1185
I0
(lp1186
sI1
(lp1187
sI2
(lp1188
sI3
(lp1189
sI4
(lp1190
sI5
(lp1191
ssI1
(dp1192
I0
g1187
sI1
(lp1193
sI2
(lp1194
sI3
(lp1195
sI4
(lp1196
sI5
(lp1197
ssI2
(dp1198
I0
g1188
sI1
g1194
sI2
(lp1199
sI3
(lp1200
sI4
(lp1201
sI5
(lp1202
ssI3
(dp1203
I0
g1189
sI1
g1195
sI2
g1200
sI3
(lp1204
sI4
(lp1205
sI5
(lp1206
ssI4
(dp1207
I0
g1190
sI1
g1196
sI2
g1201
sI3
g1205
sI4
(lp1208
sI5
(lp1209
ssI5
(dp1210
I0
g1191
sI1
g1197
sI2
g1202
sI3
g1206
sI4
g1209
sI5
(lp1211
ssa(dp1212
I0
(dp1213
I0
(lp1214
sI1
(lp1215
Vhttp://dbpedia.org/ontology/currency
p1216
aVhttp://dbpedia.org/property/footnoteC
p1217
aVhttp://dbpedia.org/ontology/usingCountry
p1218
aVhttp://dbpedia.org/property/currency
p1219
asI2
(lp1220
Vhttp://dbpedia.org/property/currencyCode
p1221
asI3
(lp1222
Vhttp://www.w3.org/1999/02/22-rdf-syntax-ns#type
p1223
asI4
(lp1224
sI5
(lp1225
ssI1
(dp1226
I0
g1215
sI1
(lp1227
sI2
(lp1228
sI3
(lp1229
sI4
(lp1230
sI5
(lp1231
ssI2
(dp1232
I0
g1220
sI1
g1228
sI2
(lp1233
sI3
(lp1234
sI4
(lp1235
sI5
(lp1236
ssI3
(dp1237
I0
g1222
sI1
g1229
sI2
g1234
sI3
(lp1238
sI4
(lp1239
sI5
(lp1240
ssI4
(dp1241
I0
g1224
sI1
g1230
sI2
g1235
sI3
g1239
sI4
(lp1242
sI5
(lp1243
ssI5
(dp1244
I0
g1225
sI1
g1231
sI2
g1236
sI3
g1240
sI4
g1243
sI5
(lp1245
ssa(dp1246
I0
(dp1247
I0
(lp1248
sI1
(lp1249
sI2
(lp1250
sI3
(lp1251
sI4
(lp1252
sI5
(lp1253
ssI1
(dp1254
I0
g1249
sI1
(lp1255
sI2
(lp1256
sI3
(lp1257
sI4
(lp1258
sI5
(lp1259
ssI2
(dp1260
I0
g1250
sI1
g1256
sI2
(lp1261
sI3
(lp1262
sI4
(lp1263
sI5
(lp1264
ssI3
(dp1265
I0
g1251
sI1
g1257
sI2
g1262
sI3
(lp1266
sI4
(lp1267
sI5
(lp1268
ssI4
(dp1269
I0
g1252
sI1
g1258
sI2
g1263
sI3
g1267
sI4
(lp1270
sI5
(lp1271
ssI5
(dp1272
I0
g1253
sI1
g1259
sI2
g1264
sI3
g1268
sI4
g1271
sI5
(lp1273
ssa(dp1274
I0
(dp1275
I0
(lp1276
sI1
(lp1277
sI2
(lp1278
sI3
(lp1279
sI4
(lp1280
sI5
(lp1281
ssI1
(dp1282
I0
g1277
sI1
(lp1283
sI2
(lp1284
sI3
(lp1285
sI4
(lp1286
sI5
(lp1287
ssI2
(dp1288
I0
g1278
sI1
g1284
sI2
(lp1289
sI3
(lp1290
sI4
(lp1291
sI5
(lp1292
ssI3
(dp1293
I0
g1279
sI1
g1285
sI2
g1290
sI3
(lp1294
sI4
(lp1295
sI5
(lp1296
ssI4
(dp1297
I0
g1280
sI1
g1286
sI2
g1291
sI3
g1295
sI4
(lp1298
sI5
(lp1299
ssI5
(dp1300
I0
g1281
sI1
g1287
sI2
g1292
sI3
g1296
sI4
g1299
sI5
(lp1301
ssa(dp1302
I0
(dp1303
I0
(lp1304
sI1
(lp1305
sI2
(lp1306
sI3
(lp1307
sI4
(lp1308
sI5
(lp1309
ssI1
(dp1310
I0
g1305
sI1
(lp1311
sI2
(lp1312
sI3
(lp1313
sI4
(lp1314
sI5
(lp1315
ssI2
(dp1316
I0
g1306
sI1
g1312
sI2
(lp1317
sI3
(lp1318
sI4
(lp1319
sI5
(lp1320
ssI3
(dp1321
I0
g1307
sI1
g1313
sI2
g1318
sI3
(lp1322
sI4
(lp1323
sI5
(lp1324
ssI4
(dp1325
I0
g1308
sI1
g1314
sI2
g1319
sI3
g1323
sI4
(lp1326
sI5
(lp1327
ssI5
(dp1328
I0
g1309
sI1
g1315
sI2
g1320
sI3
g1324
sI4
g1327
sI5
(lp1329
ssa(dp1330
I0
(dp1331
I0
(lp1332
sI1
(lp1333
Vhttp://dbpedia.org/ontology/wikiPageExternalLink
p1334
aVhttp://www.w3.org/1999/02/22-rdf-syntax-ns#type
p1335
aVhttp://purl.org/dc/terms/subject
p1336
aVhttp://www.w3.org/2000/01/rdf-schema#comment
p1337
aVhttp://dbpedia.org/ontology/abstract
p1338
aVhttp://www.w3.org/2004/02/skos/core#exactMatch
p1339
asI2
(lp1340
Vhttp://dbpedia.org/ontology/wikiPageExternalLink
p1341
aVhttp://www.w3.org/1999/02/22-rdf-syntax-ns#type
p1342
aVhttp://purl.org/dc/terms/subject
p1343
aVhttp://www.w3.org/2000/01/rdf-schema#comment
p1344
aVhttp://dbpedia.org/ontology/abstract
p1345
aVhttp://dbpedia.org/property/birthPlace
p1346
aVhttp://www.w3.org/2004/02/skos/core#exactMatch
p1347
aVhttp://dbpedia.org/property/placeOfBirth
p1348
aVhttp://dbpedia.org/ontology/birthPlace
p1349
asI3
(lp1350
Vhttp://dbpedia.org/property/stadium
p1351
asI4
(lp1352
sI5
(lp1353
ssI1
(dp1354
I0
g1333
sI1
(lp1355
sI2
(lp1356
sI3
(lp1357
sI4
(lp1358
sI5
(lp1359
ssI2
(dp1360
I0
g1340
sI1
g1356
sI2
(lp1361
sI3
(lp1362
sI4
(lp1363
sI5
(lp1364
ssI3
(dp1365
I0
g1350
sI1
g1357
sI2
g1362
sI3
(lp1366
sI4
(lp1367
sI5
(lp1368
ssI4
(dp1369
I0
g1352
sI1
g1358
sI2
g1363
sI3
g1367
sI4
(lp1370
sI5
(lp1371
ssI5
(dp1372
I0
g1353
sI1
g1359
sI2
g1364
sI3
g1368
sI4
g1371
sI5
(lp1373
ssa(dp1374
I0
(dp1375
I0
(lp1376
sI1
(lp1377
sI2
(lp1378
Vhttp://dbpedia.org/property/currencyCode
p1379
asI3
(lp1380
Vhttp://dbpedia.org/ontology/PopulatedPlace/areaTotal
p1381
asI4
(lp1382
sI5
(lp1383
ssI1
(dp1384
I0
g1377
sI1
(lp1385
sI2
(lp1386
sI3
(lp1387
sI4
(lp1388
sI5
(lp1389
ssI2
(dp1390
I0
g1378
sI1
g1386
sI2
(lp1391
sI3
(lp1392
sI4
(lp1393
sI5
(lp1394
ssI3
(dp1395
I0
g1380
sI1
g1387
sI2
g1392
sI3
(lp1396
sI4
(lp1397
sI5
(lp1398
ssI4
(dp1399
I0
g1382
sI1
g1388
sI2
g1393
sI3
g1397
sI4
(lp1400
sI5
(lp1401
ssI5
(dp1402
I0
g1383
sI1
g1389
sI2
g1394
sI3
g1398
sI4
g1401
sI5
(lp1403
ssa(dp1404
I0
(dp1405
I0
(lp1406
sI1
(lp1407
Vhttp://dbpedia.org/ontology/currency
p1408
aVhttp://dbpedia.org/ontology/abstract
p1409
aVhttp://dbpedia.org/property/currency
p1410
asI2
(lp1411
Vhttp://dbpedia.org/ontology/currency
p1412
aVhttp://dbpedia.org/ontology/abstract
p1413
aVhttp://dbpedia.org/property/currencyCode
p1414
aVhttp://dbpedia.org/property/currency
p1415
asI3
(lp1416
Vhttp://dbpedia.org/ontology/PopulatedPlace/areaTotal
p1417
asI4
(lp1418
sI5
(lp1419
ssI1
(dp1420
I0
g1407
sI1
(lp1421
sI2
(lp1422
sI3
(lp1423
sI4
(lp1424
sI5
(lp1425
ssI2
(dp1426
I0
g1411
sI1
g1422
sI2
(lp1427
sI3
(lp1428
sI4
(lp1429
sI5
(lp1430
ssI3
(dp1431
I0
g1416
sI1
g1423
sI2
g1428
sI3
(lp1432
sI4
(lp1433
sI5
(lp1434
ssI4
(dp1435
I0
g1418
sI1
g1424
sI2
g1429
sI3
g1433
sI4
(lp1436
sI5
(lp1437
ssI5
(dp1438
I0
g1419
sI1
g1425
sI2
g1430
sI3
g1434
sI4
g1437
sI5
(lp1439
ssa.