(lp1
(dp2
I0
(dp3
I0
(lp4
sI1
(lp5
Vhttp://dbpedia.org/property/hasPhotoCollection
p6
aVhttp://purl.org/dc/terms/subject
p7
aVhttp://dbpedia.org/ontology/industry
p8
aVhttp://dbpedia.org/property/industry
p9
aVhttp://dbpedia.org/property/keyPeople
p10
asI2
(lp11
Vhttp://dbpedia.org/property/hasPhotoCollection
p12
aVhttp://purl.org/dc/terms/subject
p13
aVhttp://dbpedia.org/ontology/industry
p14
aVhttp://dbpedia.org/property/industry
p15
aVhttp://dbpedia.org/property/keyPeople
p16
asI3
(lp17
Vhttp://dbpedia.org/property/hasPhotoCollection
p18
aVhttp://purl.org/dc/terms/subject
p19
aVhttp://dbpedia.org/ontology/industry
p20
aVhttp://dbpedia.org/property/industry
p21
aVhttp://dbpedia.org/property/keyPeople
p22
asI4
(lp23
Vhttp://dbpedia.org/property/hasPhotoCollection
p24
aVhttp://purl.org/dc/terms/subject
p25
aVhttp://dbpedia.org/ontology/industry
p26
aVhttp://dbpedia.org/property/industry
p27
aVhttp://dbpedia.org/property/keyPeople
p28
assI1
(dp29
I0
g5
sI1
(lp30
sI2
(lp31
sI3
(lp32
sI4
(lp33
ssI2
(dp34
I0
g11
sI2
(lp35
sI3
(lp36
sI4
(lp37
ssI3
(dp38
I0
g17
sI3
(lp39
sI4
(lp40
ssI4
(dp41
I0
g23
sI4
(lp42
ssa(dp43
I0
(dp44
I0
(lp45
sI1
(lp46
sI2
(lp47
sI3
(lp48
sI4
(lp49
ssI1
(dp50
I0
g46
sI1
(lp51
sI2
(lp52
sI3
(lp53
sI4
(lp54
ssI2
(dp55
I0
g47
sI2
(lp56
sI3
(lp57
sI4
(lp58
ssI3
(dp59
I0
g48
sI1
g53
sI2
g57
sI3
(lp60
sI4
(lp61
ssI4
(dp62
I0
g49
sI3
g61
sI4
(lp63
ssa(dp64
I0
(dp65
I0
(lp66
sI1
(lp67
sI2
(lp68
sI3
(lp69
sI4
(lp70
ssI1
(dp71
I0
g67
sI1
(lp72
sI2
(lp73
sI3
(lp74
sI4
(lp75
ssI2
(dp76
I0
g68
sI2
(lp77
sI3
(lp78
sI4
(lp79
ssI3
(dp80
I0
g69
sI3
(lp81
sI4
(lp82
ssI4
(dp83
I0
g70
sI4
(lp84
ssa(dp85
I0
(dp86
I0
(lp87
sI1
(lp88
sI2
(lp89
sI3
(lp90
sI4
(lp91
Vhttp://dbpedia.org/property/hasPhotoCollection
p92
aVhttp://dbpedia.org/ontology/abstract
p93
aVhttp://dbpedia.org/ontology/wikiPageRedirects
p94
aVhttp://www.w3.org/2000/01/rdf-schema#comment
p95
assI1
(dp96
I0
g88
sI1
(lp97
sI2
(lp98
sI3
(lp99
sI4
(lp100
ssI2
(dp101
I0
g89
sI2
(lp102
sI3
(lp103
sI4
(lp104
ssI3
(dp105
I0
g90
sI3
(lp106
sI4
(lp107
ssI4
(dp108
I0
g91
sI1
g100
sI2
g104
sI3
g107
sI4
(lp109
ssa(dp110
I0
(dp111
I0
(lp112
sI1
(lp113
sI2
(lp114
Vhttp://purl.org/voc/vrank#hasRank
p115
aVhttp://www.w3.org/2002/07/owl#sameAs
p116
asI3
(lp117
sI4
(lp118
Vhttp://purl.org/dc/terms/subject
p119
assI1
(dp120
I0
g113
sI1
(lp121
sI2
(lp122
Vhttp://www.w3.org/1999/02/22-rdf-syntax-ns#type
p123
aVhttp://www.georss.org/georss/point
p124
aVhttp://www.w3.org/2002/07/owl#sameAs
p125
asI3
(lp126
sI4
(lp127
ssI2
(dp128
I0
g114
sI1
g122
sI2
(lp129
sI3
(lp130
Vhttp://dbpedia.org/property/gender
p131
asI4
(lp132
ssI3
(dp133
I0
g117
sI1
g126
sI2
g130
sI3
(lp134
sI4
(lp135
Vhttp://www.w3.org/2000/01/rdf-schema#comment
p136
aVhttp://dbpedia.org/ontology/abstract
p137
aVhttp://dbpedia.org/ontology/child
p138
aVhttp://dbpedia.org/ontology/gender
p139
aVhttp://dbpedia.org/property/gender
p140
aVhttp://dbpedia.org/property/hasPhotoCollection
p141
assI4
(dp142
I0
g118
sI1
g127
sI2
g132
sI3
g135
sI4
(lp143
ssa(dp144
I0
(dp145
I0
(lp146
sI1
(lp147
sI2
(lp148
sI3
(lp149
sI4
(lp150
ssI1
(dp151
I0
g147
sI1
(lp152
sI2
(lp153
sI3
(lp154
sI4
(lp155
ssI2
(dp156
I0
g148
sI2
(lp157
sI3
(lp158
sI4
(lp159
ssI3
(dp160
I0
g149
sI3
(lp161
sI4
(lp162
ssI4
(dp163
I0
g150
sI4
(lp164
ssa(dp165
I0
(dp166
I0
(lp167
sI1
(lp168
Vhttp://dbpedia.org/ontology/wikiPageExternalLink
p169
aVhttp://dbpedia.org/ontology/abstract
p170
aVhttp://dbpedia.org/property/hasPhotoCollection
p171
aVhttp://www.w3.org/2000/01/rdf-schema#comment
p172
asI2
(lp173
Vhttp://dbpedia.org/ontology/wikiPageExternalLink
p174
aVhttp://dbpedia.org/ontology/abstract
p175
aVhttp://dbpedia.org/property/hasPhotoCollection
p176
aVhttp://www.w3.org/2000/01/rdf-schema#comment
p177
asI3
(lp178
Vhttp://dbpedia.org/ontology/wikiPageExternalLink
p179
aVhttp://dbpedia.org/ontology/abstract
p180
aVhttp://dbpedia.org/property/hasPhotoCollection
p181
aVhttp://www.w3.org/2000/01/rdf-schema#comment
p182
asI4
(lp183
Vhttp://dbpedia.org/ontology/wikiPageExternalLink
p184
aVhttp://dbpedia.org/ontology/abstract
p185
aVhttp://dbpedia.org/property/hasPhotoCollection
p186
aVhttp://www.w3.org/2000/01/rdf-schema#comment
p187
assI1
(dp188
I0
g168
sI1
(lp189
sI2
(lp190
sI3
(lp191
sI4
(lp192
ssI2
(dp193
I0
g173
sI2
(lp194
sI3
(lp195
sI4
(lp196
ssI3
(dp197
I0
g178
sI3
(lp198
sI4
(lp199
ssI4
(dp200
I0
g183
sI4
(lp201
ssa(dp202
I0
(dp203
I0
(lp204
sI1
(lp205
Vhttp://dbpedia.org/ontology/abstract
p206
aVhttp://purl.org/dc/terms/subject
p207
aVhttp://dbpedia.org/property/hasPhotoCollection
p208
aVhttp://www.w3.org/2002/07/owl#sameAs
p209
aVhttp://www.w3.org/2000/01/rdf-schema#comment
p210
asI2
(lp211
Vhttp://dbpedia.org/ontology/abstract
p212
aVhttp://purl.org/dc/terms/subject
p213
aVhttp://dbpedia.org/property/hasPhotoCollection
p214
aVhttp://www.w3.org/2002/07/owl#sameAs
p215
aVhttp://www.w3.org/2000/01/rdf-schema#comment
p216
asI3
(lp217
Vhttp://dbpedia.org/ontology/abstract
p218
aVhttp://purl.org/dc/terms/subject
p219
aVhttp://dbpedia.org/property/hasPhotoCollection
p220
aVhttp://www.w3.org/2002/07/owl#sameAs
p221
aVhttp://www.w3.org/2000/01/rdf-schema#comment
p222
asI4
(lp223
Vhttp://dbpedia.org/ontology/abstract
p224
aVhttp://purl.org/dc/terms/subject
p225
aVhttp://dbpedia.org/property/hasPhotoCollection
p226
aVhttp://www.w3.org/2002/07/owl#sameAs
p227
aVhttp://www.w3.org/2000/01/rdf-schema#comment
p228
assI1
(dp229
I0
g205
sI1
(lp230
sI2
(lp231
sI3
(lp232
sI4
(lp233
ssI2
(dp234
I0
g211
sI2
(lp235
sI3
(lp236
sI4
(lp237
ssI3
(dp238
I0
g217
sI3
(lp239
sI4
(lp240
ssI4
(dp241
I0
g223
sI4
(lp242
ssa.