ccollections
defaultdict
p1
(c__builtin__
dict
p2
tRp3
I2
(dp4
I1
(lp5
Vhttp://dbpedia.org/ontology/team
p6
aVhttp://www.w3.org/ns/prov#wasDerivedFrom
p7
aVhttp://dbpedia.org/property/other
p8
aVhttp://dbpedia.org/property/team
p9
aVhttp://www.w3.org/1999/02/22-rdf-syntax-ns#type
p10
aVhttp://dbpedia.org/property/home
p11
aVhttp://dbpedia.org/property/runnerUp
p12
aVhttp://dbpedia.org/property/wordnet_type
p13
aVhttp://dbpedia.org/property/netIncome
p14
aVhttp://dbpedia.org/property/assets
p15
aVhttp://dbpedia.org/property/away
p16
aVhttp://dbpedia.org/property/club
p17
aVhttp://dbpedia.org/property/operatingIncome
p18
aVhttp://dbpedia.org/property/rd2Team
p19
aVhttp://dbpedia.org/ontology/abstract
p20
aVhttp://dbpedia.org/property/continentalcup1Qualifiers
p21
aVhttp://dbpedia.org/property/managerclubs
p22
aVhttp://dbpedia.org/property/youthclubs
p23
aVhttp://dbpedia.org/property/fcl
p24
aVhttp://www.w3.org/2000/01/rdf-schema#comment
p25
aVhttp://purl.org/voc/vrank#hasRank
p26
aVhttp://dbpedia.org/property/clubs
p27
aVhttp://dbpedia.org/property/winners
p28
aVhttp://www.w3.org/2002/07/owl#sameAs
p29
asI2
(lp30
Vhttp://dbpedia.org/property/club
p31
aVhttp://dbpedia.org/property/rd1Team
p32
aVhttp://dbpedia.org/property/longestUnbeaten
p33
aVhttp://dbpedia.org/property/longestWins
p34
aVhttp://dbpedia.org/property/continentalcup2Qualifiers
p35
aVhttp://dbpedia.org/property/currentChampions
p36
aVhttp://dbpedia.org/property/managerclubs
p37
aVhttp://dbpedia.org/ontology/team
p38
aVhttp://www.w3.org/ns/prov#wasDerivedFrom
p39
aVhttp://dbpedia.org/property/other
p40
aVhttp://dbpedia.org/property/team
p41
aVhttp://www.w3.org/1999/02/22-rdf-syntax-ns#type
p42
aVhttp://dbpedia.org/property/t
p43
aVhttp://purl.org/voc/vrank#hasRank
p44
aVhttp://dbpedia.org/ontology/position
p45
aVhttp://dbpedia.org/property/runnerUp
p46
aVhttp://dbpedia.org/property/patternSo
p47
aVhttp://dbpedia.org/property/wordnet_type
p48
aVhttp://dbpedia.org/property/assets
p49
aVhttp://dbpedia.org/property/owner
p50
aVhttp://dbpedia.org/property/m
p51
aVhttp://dbpedia.org/property/away
p52
aVhttp://dbpedia.org/ontology/wikiPageExternalLink
p53
aVhttp://dbpedia.org/property/operatingIncome
p54
aVhttp://dbpedia.org/property/rd2Team
p55
aVhttp://dbpedia.org/ontology/abstract
p56
aVhttp://dbpedia.org/property/continentalcup1Qualifiers
p57
aVhttp://dbpedia.org/ontology/operator
p58
aVhttp://dbpedia.org/property/rd4Team
p59
aVhttp://dbpedia.org/property/champions
p60
aVhttp://dbpedia.org/property/youthclubs
p61
aVhttp://dbpedia.org/property/fcl
p62
aVhttp://www.w3.org/2000/01/rdf-schema#comment
p63
aVhttp://dbpedia.org/ontology/owner
p64
aVhttp://dbpedia.org/ontology/season
p65
aVhttp://dbpedia.org/property/clubs
p66
aVhttp://dbpedia.org/property/winners
p67
aVhttp://dbpedia.org/property/championOther
p68
aVhttp://dbpedia.org/property/home
p69
aVhttp://dbpedia.org/property/date
p70
aVhttp://www.w3.org/2002/07/owl#sameAs
p71
asI3
(lp72
Vhttp://dbpedia.org/property/club
p73
aVhttp://dbpedia.org/property/rd1Team
p74
aVhttp://dbpedia.org/property/longestUnbeaten
p75
aVhttp://dbpedia.org/property/longestWins
p76
aVhttp://dbpedia.org/property/continentalcup2Qualifiers
p77
aVhttp://dbpedia.org/property/patternRa
p78
aVhttp://dbpedia.org/property/titlestyle
p79
aVhttp://dbpedia.org/ontology/team
p80
aVhttp://dbpedia.org/property/other
p81
aVhttp://dbpedia.org/property/hasPhotoCollection
p82
aVhttp://dbpedia.org/property/team
p83
aVhttp://www.w3.org/1999/02/22-rdf-syntax-ns#type
p84
aVhttp://dbpedia.org/property/t
p85
aVhttp://purl.org/voc/vrank#hasRank
p86
aVhttp://dbpedia.org/property/patternB
p87
aVhttp://dbpedia.org/ontology/position
p88
aVhttp://dbpedia.org/property/runnerUp
p89
aVhttp://dbpedia.org/property/socks
p90
aVhttp://dbpedia.org/property/wordnet_type
p91
aVhttp://dbpedia.org/property/assets
p92
aVhttp://dbpedia.org/property/m
p93
aVhttp://dbpedia.org/property/away
p94
aVhttp://dbpedia.org/ontology/wikiPageExternalLink
p95
aVhttp://dbpedia.org/property/patternLa
p96
aVhttp://purl.org/dc/terms/subject
p97
aVhttp://dbpedia.org/property/rd2Team
p98
aVhttp://dbpedia.org/ontology/abstract
p99
aVhttp://dbpedia.org/property/position
p100
aVhttp://dbpedia.org/property/continentalcup1Qualifiers
p101
aVhttp://dbpedia.org/ontology/thumbnail
p102
aVhttp://dbpedia.org/property/patternSh
p103
aVhttp://dbpedia.org/property/rd4Team
p104
aVhttp://dbpedia.org/property/champions
p105
aVhttp://dbpedia.org/property/youthclubs
p106
aVhttp://dbpedia.org/property/revenue
p107
aVhttp://dbpedia.org/property/fcl
p108
aVhttp://www.w3.org/2000/01/rdf-schema#comment
p109
aVhttp://dbpedia.org/property/name
p110
aVhttp://dbpedia.org/ontology/season
p111
aVhttp://dbpedia.org/property/clubs
p112
aVhttp://dbpedia.org/property/winners
p113
aVhttp://dbpedia.org/property/championOther
p114
aVhttp://dbpedia.org/property/home
p115
aVhttp://dbpedia.org/property/date
p116
aVhttp://www.w3.org/2002/07/owl#sameAs
p117
asI4
(lp118
Vhttp://dbpedia.org/property/club
p119
aVhttp://dbpedia.org/property/longestUnbeaten
p120
aVhttp://dbpedia.org/property/longestWins
p121
aVhttp://dbpedia.org/property/tenants
p122
aVhttp://dbpedia.org/property/patternRa
p123
aVhttp://dbpedia.org/property/managerclubs
p124
aVhttp://dbpedia.org/ontology/team
p125
aVhttp://www.w3.org/ns/prov#wasDerivedFrom
p126
aVhttp://dbpedia.org/property/rd4Team
p127
aVhttp://dbpedia.org/property/team
p128
aVhttp://www.w3.org/1999/02/22-rdf-syntax-ns#type
p129
aVhttp://dbpedia.org/property/youthclubs
p130
aVhttp://dbpedia.org/property/t
p131
aVhttp://purl.org/voc/vrank#hasRank
p132
aVhttp://dbpedia.org/property/patternB
p133
aVhttp://dbpedia.org/ontology/position
p134
aVhttp://dbpedia.org/property/runnerUp
p135
aVhttp://dbpedia.org/property/champions
p136
aVhttp://dbpedia.org/property/netIncome
p137
aVhttp://dbpedia.org/property/assets
p138
aVhttp://dbpedia.org/ontology/wikiPageExternalLink
p139
aVhttp://dbpedia.org/property/patternLa
p140
aVhttp://purl.org/dc/terms/subject
p141
aVhttp://dbpedia.org/ontology/abstract
p142
aVhttp://dbpedia.org/ontology/managerClub
p143
aVhttp://dbpedia.org/property/continentalcup1Qualifiers
p144
aVhttp://dbpedia.org/ontology/operator
p145
aVhttp://dbpedia.org/property/patternSh
p146
aVhttp://dbpedia.org/property/patternSo
p147
aVhttp://dbpedia.org/ontology/tenant
p148
aVhttp://www.w3.org/2000/01/rdf-schema#comment
p149
aVhttp://dbpedia.org/property/name
p150
aVhttp://dbpedia.org/ontology/owner
p151
aVhttp://dbpedia.org/ontology/season
p152
aVhttp://dbpedia.org/property/clubs
p153
aVhttp://dbpedia.org/property/winners
p154
aVhttp://dbpedia.org/property/championOther
p155
aVhttp://www.w3.org/2002/07/owl#sameAs
p156
asI5
(lp157
sI6
(lp158
sI7
(lp159
Vhttp://dbpedia.org/ontology/team
p160
aVhttp://www.w3.org/ns/prov#wasDerivedFrom
p161
aVhttp://dbpedia.org/property/other
p162
aVhttp://dbpedia.org/property/team
p163
aVhttp://www.w3.org/1999/02/22-rdf-syntax-ns#type
p164
aVhttp://dbpedia.org/property/home
p165
aVhttp://dbpedia.org/property/runnerUp
p166
aVhttp://dbpedia.org/property/wordnet_type
p167
aVhttp://dbpedia.org/property/netIncome
p168
aVhttp://dbpedia.org/property/assets
p169
aVhttp://dbpedia.org/property/away
p170
aVhttp://dbpedia.org/property/club
p171
aVhttp://dbpedia.org/property/operatingIncome
p172
aVhttp://dbpedia.org/property/rd2Team
p173
aVhttp://dbpedia.org/ontology/abstract
p174
aVhttp://dbpedia.org/property/continentalcup1Qualifiers
p175
aVhttp://dbpedia.org/property/managerclubs
p176
aVhttp://dbpedia.org/property/youthclubs
p177
aVhttp://dbpedia.org/property/fcl
p178
aVhttp://www.w3.org/2000/01/rdf-schema#comment
p179
aVhttp://purl.org/voc/vrank#hasRank
p180
aVhttp://dbpedia.org/property/clubs
p181
aVhttp://dbpedia.org/property/winners
p182
aVhttp://www.w3.org/2002/07/owl#sameAs
p183
assI3
(dp184
I1
(lp185
Vhttp://www.w3.org/ns/prov#wasDerivedFrom
p186
aVhttp://www.w3.org/1999/02/22-rdf-syntax-ns#type
p187
aVhttp://dbpedia.org/ontology/team
p188
asI2
(lp189
Vhttp://www.w3.org/1999/02/22-rdf-syntax-ns#type
p190
aVhttp://www.w3.org/2000/01/rdf-schema#comment
p191
aVhttp://dbpedia.org/ontology/abstract
p192
aVhttp://purl.org/voc/vrank#hasRank
p193
aVhttp://dbpedia.org/ontology/team
p194
aVhttp://www.w3.org/ns/prov#wasDerivedFrom
p195
aVhttp://dbpedia.org/property/foundation
p196
aVhttp://www.w3.org/2002/07/owl#sameAs
p197
asI3
(lp198
Vhttp://www.w3.org/1999/02/22-rdf-syntax-ns#type
p199
aVhttp://www.w3.org/2000/01/rdf-schema#comment
p200
aVhttp://dbpedia.org/ontology/abstract
p201
aVhttp://purl.org/voc/vrank#hasRank
p202
aVhttp://dbpedia.org/ontology/team
p203
aVhttp://www.w3.org/ns/prov#wasDerivedFrom
p204
aVhttp://dbpedia.org/property/foundation
p205
aVhttp://www.w3.org/2002/07/owl#sameAs
p206
asI4
(lp207
Vhttp://www.w3.org/1999/02/22-rdf-syntax-ns#type
p208
aVhttp://www.w3.org/2000/01/rdf-schema#comment
p209
aVhttp://dbpedia.org/ontology/abstract
p210
aVhttp://dbpedia.org/ontology/team
p211
aVhttp://www.w3.org/ns/prov#wasDerivedFrom
p212
aVhttp://dbpedia.org/property/hasPhotoCollection
p213
asI5
(lp214
sI6
(lp215
sI7
(lp216
Vhttp://www.w3.org/1999/02/22-rdf-syntax-ns#type
p217
aVhttp://dbpedia.org/ontology/abstract
p218
aVhttp://purl.org/voc/vrank#hasRank
p219
aVhttp://dbpedia.org/ontology/team
p220
aVhttp://dbpedia.org/property/hasPhotoCollection
p221
aVhttp://www.w3.org/2002/07/owl#sameAs
p222
ass.