(lp1
(lp2
a(lp3
(dp4
Vstart
p5
I0
sS'classes'
p6
(lp7
Vhttp://www.w3.org/2002/07/owl#Thing
p8
aVhttp://xmlns.com/foaf/0.1/Person
p9
aVhttp://dbpedia.org/ontology/Person
p10
aVhttp://www.ontologydesignpatterns.org/ont/dul/DUL.owl#Agent
p11
aVhttp://www.ontologydesignpatterns.org/ont/dul/DUL.owl#NaturalPerson
p12
aVhttp://www.wikidata.org/entity/Q215627
p13
aVhttp://www.wikidata.org/entity/Q5
p14
aVhttp://dbpedia.org/ontology/Agent
p15
aVhttp://dbpedia.org/ontology/OfficeHolder
p16
aVhttp://schema.org/Person
p17
aVhttp://dbpedia.org/class/yago/Admiral109771204
p18
aVhttp://dbpedia.org/class/yago/Alumnus109786338
p19
aVhttp://dbpedia.org/class/yago/Aristocrat109807754
p20
aVhttp://dbpedia.org/class/yago/AustralianKnights
p21
aVhttp://dbpedia.org/class/yago/CausalAgent100007347
p22
aVhttp://dbpedia.org/class/yago/CommissionedNavalOfficer109943541
p23
aVhttp://dbpedia.org/class/yago/FlagOfficer110094584
p24
aVhttp://dbpedia.org/class/yago/Governor110140314
p25
aVhttp://dbpedia.org/class/yago/Holder110180178
p26
aVhttp://dbpedia.org/class/yago/Intellectual109621545
p27
aVhttp://dbpedia.org/class/yago/Knight110238375
p28
aVhttp://dbpedia.org/class/yago/Leader109623038
p29
aVhttp://dbpedia.org/class/yago/LivingThing100004258
p30
aVhttp://dbpedia.org/class/yago/MilitaryOfficer110317007
p31
aVhttp://dbpedia.org/class/yago/Object100002684
p32
aVhttp://dbpedia.org/class/yago/Official110372373
p33
aVhttp://dbpedia.org/class/yago/Organism100004475
p34
aVhttp://dbpedia.org/class/yago/Person100007846
p35
aVhttp://dbpedia.org/class/yago/Politician110451263
p36
aVhttp://dbpedia.org/class/yago/Scholar110557854
p37
aVhttp://dbpedia.org/class/yago/Serviceman110582746
p38
aVhttp://dbpedia.org/class/yago/SkilledWorker110605985
p39
aVhttp://dbpedia.org/class/yago/Whole100003553
p40
aVhttp://dbpedia.org/class/yago/Worker109632518
p41
aVhttp://dbpedia.org/class/yago/YagoLegalActorGeo
p42
aVhttp://dbpedia.org/class/yago/CommissionedOfficer109942970
p43
aVhttp://dbpedia.org/class/yago/MaleAristocrat110285135
p44
aVhttp://dbpedia.org/class/yago/PhysicalEntity100001930
p45
aVhttp://dbpedia.org/class/yago/GovernorsOfVictoria(Australia)
p46
aVhttp://dbpedia.org/class/yago/GraduatesOfBritanniaRoyalNavalCollege
p47
aVhttp://dbpedia.org/class/yago/Officeholder110371450
p48
aVhttp://dbpedia.org/class/yago/Owner110389398
p49
aVhttp://dbpedia.org/class/yago/OfficersOfTheOrderOfAustralia
p50
aVhttp://dbpedia.org/class/yago/YagoLegalActor
p51
aVhttp://dbpedia.org/class/yago/RoyalAustralianNavyAdmirals
p52
asVdisambiguatedURL
p53
Vhttp://dbpedia.org/resource/Brian_Murray_(governor)
p54
sVnamedEntity
p55
VBrian Murray
p56
sVoffset
p57
I12
saa(lp58
a(lp59
a(lp60
(dp61
Vstart
p62
I0
sg6
(lp63
Vhttp://www.w3.org/2002/07/owl#Thing
p64
aVhttp://dbpedia.org/ontology/Place
p65
aVhttp://dbpedia.org/ontology/Location
p66
aVhttp://www.wikidata.org/entity/Q23442
p67
aVhttp://www.wikidata.org/entity/Q486972
p68
aVhttp://dbpedia.org/ontology/Island
p69
aVhttp://dbpedia.org/ontology/PopulatedPlace
p70
aVhttp://schema.org/Place
p71
aVhttp://umbel.org/umbel/rc/Island
p72
aVhttp://dbpedia.org/class/yago/Island109316454
p73
aVhttp://dbpedia.org/class/yago/Land109334396
p74
aVhttp://dbpedia.org/class/yago/Object100002684
p75
aVhttp://dbpedia.org/class/yago/YagoGeoEntity
p76
aVhttp://dbpedia.org/class/yago/PhysicalEntity100001930
p77
aVhttp://dbpedia.org/class/yago/YagoPermanentlyLocatedEntity
p78
aVhttp://dbpedia.org/class/yago/IslandsOfCroatia
p79
aVhttp://dbpedia.org/class/yago/IslandsOfTheAdriaticSea
p80
asVdisambiguatedURL
p81
Vhttp://dbpedia.org/resource/Cres
p82
sVnamedEntity
p83
VCresco
p84
sVoffset
p85
I6
saa(lp86
(dp87
Vstart
p88
I0
sg6
(lp89
Vhttp://www.w3.org/2002/07/owl#Thing
p90
aVhttp://xmlns.com/foaf/0.1/Person
p91
aVhttp://dbpedia.org/ontology/Person
p92
aVhttp://www.ontologydesignpatterns.org/ont/dul/DUL.owl#Agent
p93
aVhttp://www.ontologydesignpatterns.org/ont/dul/DUL.owl#NaturalPerson
p94
aVhttp://www.wikidata.org/entity/Q215627
p95
aVhttp://www.wikidata.org/entity/Q5
p96
aVhttp://www.wikidata.org/entity/Q937857
p97
aVhttp://dbpedia.org/ontology/Agent
p98
aVhttp://dbpedia.org/ontology/Athlete
p99
aVhttp://dbpedia.org/ontology/SoccerPlayer
p100
aVhttp://schema.org/Person
p101
aVhttp://umbel.org/umbel/rc/Athlete
p102
aVhttp://umbel.org/umbel/rc/SoccerPlayer
p103
aVhttp://dbpedia.org/class/yago/2009FIFAConfederationsCupPlayers
p104
aVhttp://dbpedia.org/class/yago/2010FIFAWorldCupPlayers
p105
aVhttp://dbpedia.org/class/yago/Athlete109820263
p106
aVhttp://dbpedia.org/class/yago/CanarianFootballers
p107
aVhttp://dbpedia.org/class/yago/CausalAgent100007347
p108
aVhttp://dbpedia.org/class/yago/Contestant109613191
p109
aVhttp://dbpedia.org/class/yago/FootballPlayer110101634
p110
aVhttp://dbpedia.org/class/yago/LivingThing100004258
p111
aVhttp://dbpedia.org/class/yago/Object100002684
p112
aVhttp://dbpedia.org/class/yago/Organism100004475
p113
aVhttp://dbpedia.org/class/yago/Person100007846
p114
aVhttp://dbpedia.org/class/yago/Player110439851
p115
aVhttp://dbpedia.org/class/yago/Whole100003553
p116
aVhttp://dbpedia.org/class/yago/YagoLegalActorGeo
p117
aVhttp://dbpedia.org/class/yago/CeltaDeVigoFootballers
p118
aVhttp://dbpedia.org/class/yago/ExpatriateFootballersInEngland
p119
aVhttp://dbpedia.org/class/yago/PhysicalEntity100001930
p120
aVhttp://dbpedia.org/class/yago/LaLigaFootballers
p121
aVhttp://dbpedia.org/class/yago/LivingPeople
p122
aVhttp://dbpedia.org/class/yago/ManchesterCityF.C.Players
p123
aVhttp://dbpedia.org/class/yago/PeopleFromMog%C3%A1n,LasPalmas
p124
aVhttp://dbpedia.org/class/yago/YagoLegalActor
p125
aVhttp://dbpedia.org/class/yago/PremierLeaguePlayers
p126
aVhttp://dbpedia.org/class/yago/SDEibarFootballers
p127
aVhttp://dbpedia.org/class/yago/SpainInternationalFootballers
p128
aVhttp://dbpedia.org/class/yago/SpainUnder-21InternationalFootballers
p129
aVhttp://dbpedia.org/class/yago/SpainYouthInternationalFootballers
p130
aVhttp://dbpedia.org/class/yago/SpanishExpatriateFootballers
p131
aVhttp://dbpedia.org/class/yago/SpanishFootballers
p132
aVhttp://dbpedia.org/class/yago/SpanishPeopleOfJapaneseDescent
p133
aVhttp://dbpedia.org/class/yago/UEFAEuro2008Players
p134
aVhttp://dbpedia.org/class/yago/ValenciaCFFootballers
p135
aVhttp://dbpedia.org/class/yago/ValenciaCFMestallaFootballers
p136
asVdisambiguatedURL
p137
Vhttp://dbpedia.org/resource/David_Silva
p138
sVnamedEntity
p139
VDavid Silva
p140
sVoffset
p141
I11
saa(lp142
a(lp143
a(lp144
(dp145
Vstart
p146
I0
sg6
(lp147
Vhttp://www.w3.org/2002/07/owl#Thing
p148
aVhttp://xmlns.com/foaf/0.1/Person
p149
aVhttp://dbpedia.org/ontology/Person
p150
aVhttp://www.ontologydesignpatterns.org/ont/dul/DUL.owl#Agent
p151
aVhttp://www.ontologydesignpatterns.org/ont/dul/DUL.owl#NaturalPerson
p152
aVhttp://www.wikidata.org/entity/Q215627
p153
aVhttp://www.wikidata.org/entity/Q4964182
p154
aVhttp://www.wikidata.org/entity/Q5
p155
aVhttp://dbpedia.org/ontology/Agent
p156
aVhttp://dbpedia.org/ontology/Philosopher
p157
aVhttp://schema.org/Person
p158
aVhttp://umbel.org/umbel/rc/Philosopher
p159
aVhttp://dbpedia.org/class/yago/19th-centuryPhilosophers
p160
aVhttp://dbpedia.org/class/yago/20th-centuryArchitects
p161
aVhttp://dbpedia.org/class/yago/20th-centuryPainters
p162
aVhttp://dbpedia.org/class/yago/20th-centuryPhilosophers
p163
aVhttp://dbpedia.org/class/yago/20th-centuryPoets
p164
aVhttp://dbpedia.org/class/yago/20th-centurySculptors
p165
aVhttp://dbpedia.org/class/yago/Adult109605289
p166
aVhttp://dbpedia.org/class/yago/Architect109805475
p167
aVhttp://dbpedia.org/class/yago/Artist109812338
p168
aVhttp://dbpedia.org/class/yago/AustrianArchitects
p169
aVhttp://dbpedia.org/class/yago/AustrianAutobiographers
p170
aVhttp://dbpedia.org/class/yago/AustrianChoreographers
p171
aVhttp://dbpedia.org/class/yago/AustrianDramatistsAndPlaywrights
p172
aVhttp://dbpedia.org/class/yago/AustrianPhilosophers
p173
aVhttp://dbpedia.org/class/yago/AustrianSpiritualWriters
p174
aVhttp://dbpedia.org/class/yago/AustrianTheosophists
p175
aVhttp://dbpedia.org/class/yago/Austro-HungarianPeople
p176
aVhttp://dbpedia.org/class/yago/Autobiographer109825296
p177
aVhttp://dbpedia.org/class/yago/Believer109847727
p178
aVhttp://dbpedia.org/class/yago/Biographer109855433
p179
aVhttp://dbpedia.org/class/yago/CausalAgent100007347
p180
aVhttp://dbpedia.org/class/yago/Choreographer109920283
p181
aVhttp://dbpedia.org/class/yago/Communicator109610660
p182
aVhttp://dbpedia.org/class/yago/Creator109614315
p183
aVhttp://dbpedia.org/class/yago/Dramatist110030277
p184
aVhttp://dbpedia.org/class/yago/Educationist110045454
p185
aVhttp://dbpedia.org/class/yago/Educator110045713
p186
aVhttp://dbpedia.org/class/yago/Expert109617867
p187
aVhttp://dbpedia.org/class/yago/Intellectual109621545
p188
aVhttp://dbpedia.org/class/yago/LivingThing100004258
p189
aVhttp://dbpedia.org/class/yago/Object100002684
p190
aVhttp://dbpedia.org/class/yago/Organism100004475
p191
aVhttp://dbpedia.org/class/yago/Painter110391653
p192
aVhttp://dbpedia.org/class/yago/Person100007846
p193
aVhttp://dbpedia.org/class/yago/Philosopher110423589
p194
aVhttp://dbpedia.org/class/yago/Poet110444194
p195
aVhttp://dbpedia.org/class/yago/Professional110480253
p196
aVhttp://dbpedia.org/class/yago/ReligiousPerson109628382
p197
aVhttp://dbpedia.org/class/yago/Scholar110557854
p198
aVhttp://dbpedia.org/class/yago/Sculptor110566072
p199
aVhttp://dbpedia.org/class/yago/Specialist110631941
p200
aVhttp://dbpedia.org/class/yago/Teacher110694258
p201
aVhttp://dbpedia.org/class/yago/Theosophist110707134
p202
aVhttp://dbpedia.org/class/yago/Whole100003553
p203
aVhttp://dbpedia.org/class/yago/Writer110794014
p204
aVhttp://dbpedia.org/class/yago/YagoLegalActorGeo
p205
aVhttp://dbpedia.org/class/yago/Educationists
p206
aVhttp://dbpedia.org/class/yago/ExpressionistArchitects
p207
aVhttp://dbpedia.org/class/yago/FormerTheosophists
p208
aVhttp://dbpedia.org/class/yago/PhysicalEntity100001930
p209
aVhttp://dbpedia.org/class/yago/ModernistArchitects
p210
aVhttp://dbpedia.org/class/yago/PeopleFromDonjiKraljevec
p211
aVhttp://dbpedia.org/class/yago/YagoLegalActor
p212
aVhttp://dbpedia.org/class/yago/SpiritualTeachers
p213
asVdisambiguatedURL
p214
Vhttp://dbpedia.org/resource/Rudolf_Steiner
p215
sVnamedEntity
p216
VSteiner
p217
sVoffset
p218
I7
saa(lp219
a(lp220
(dp221
Vstart
p222
I0
sg6
(lp223
Vhttp://www.w3.org/2002/07/owl#Thing
p224
aVhttp://dbpedia.org/ontology/Company
p225
aVhttp://www.ontologydesignpatterns.org/ont/dul/DUL.owl#Agent
p226
aVhttp://www.ontologydesignpatterns.org/ont/dul/DUL.owl#SocialPerson
p227
aVhttp://www.wikidata.org/entity/Q43229
p228
aVhttp://dbpedia.org/ontology/Agent
p229
aVhttp://dbpedia.org/ontology/Organisation
p230
aVhttp://schema.org/Organization
p231
aVhttp://umbel.org/umbel/rc/Business
p232
aVhttp://umbel.org/umbel/rc/Organization
p233
aVhttp://dbpedia.org/class/yago/Abstraction100002137
p234
aVhttp://dbpedia.org/class/yago/Business108061042
p235
aVhttp://dbpedia.org/class/yago/Company108058098
p236
aVhttp://dbpedia.org/class/yago/Enterprise108056231
p237
aVhttp://dbpedia.org/class/yago/Firm108059870
p238
aVhttp://dbpedia.org/class/yago/Group100031264
p239
aVhttp://dbpedia.org/class/yago/Institution108053576
p240
aVhttp://dbpedia.org/class/yago/Organization108008335
p241
aVhttp://dbpedia.org/class/yago/Publisher108062623
p242
aVhttp://dbpedia.org/class/yago/SocialGroup107950920
p243
aVhttp://dbpedia.org/class/yago/YagoLegalActorGeo
p244
aVhttp://dbpedia.org/class/yago/CompaniesBasedInParis
p245
aVhttp://dbpedia.org/class/yago/CompaniesEstablishedIn1986
p246
aVhttp://dbpedia.org/class/yago/YagoPermanentlyLocatedEntity
p247
aVhttp://dbpedia.org/class/yago/YagoLegalActor
p248
aVhttp://dbpedia.org/class/yago/VideoGameCompaniesOfFrance
p249
aVhttp://dbpedia.org/class/yago/VideoGamePublishers
p250
asVdisambiguatedURL
p251
Vhttp://dbpedia.org/resource/Ubisoft
p252
sVnamedEntity
p253
VUbisoft
p254
sVoffset
p255
I7
saa(lp256
a(lp257
a.