(lp1
(lp2
(lp3
a(lp4
a(lp5
a(lp6
a(lp7
a(lp8
a(lp9
aa(lp10
(lp11
a(lp12
a(lp13
a(lp14
a(lp15
a(lp16
a(lp17
aa(lp18
(lp19
a(lp20
a(lp21
a(lp22
a(lp23
a(lp24
a(lp25
aa(lp26
(lp27
a(lp28
a(lp29
a(lp30
a(lp31
a(lp32
a(lp33
aa(lp34
(lp35
a(lp36
a(lp37
a(lp38
a(lp39
a(lp40
a(lp41
aa(lp42
(lp43
a(lp44
a(lp45
a(lp46
a(lp47
a(lp48
a(lp49
aa(lp50
(lp51
a(lp52
a(lp53
a(lp54
a(lp55
a(lp56
a(lp57
aa(lp58
(lp59
a(lp60
a(lp61
((lVhttp://dbpedia.org/resource/9:30_Club
tp62
aa(lp63
a(lp64
a(lp65
a(lp66
aa(lp67
(lp68
a(lp69
a(lp70
a(lp71
a(lp72
a(lp73
a(lp74
aa(lp75
(lp76
a(lp77
a(lp78
a(lp79
a(lp80
a(lp81
a(lp82
aa(lp83
(lp84
a(lp85
a(lp86
((lp87
Vhttp://dbpedia.org/class/yago/Area108497294
p88
aVhttp://dbpedia.org/class/yago/Location100027167
p89
aVhttp://dbpedia.org/class/yago/Object100002684
p90
aVhttp://dbpedia.org/class/yago/Region108630985
p91
aVhttp://dbpedia.org/class/yago/Venue108677628
p92
aVhttp://dbpedia.org/class/yago/YagoGeoEntity
p93
aVhttp://dbpedia.org/class/yago/YagoLegalActorGeo
p94
aVhttp://dbpedia.org/class/yago/PhysicalEntity100001930
p95
aVhttp://dbpedia.org/class/yago/Scene108645963
p96
aVhttp://dbpedia.org/class/yago/YagoPermanentlyLocatedEntity
p97
aVhttp://dbpedia.org/class/yago/MusicVenuesInNewYorkCity
p98
aVhttp://dbpedia.org/resource/Music_Hall_of_Williamsburg
p99
tp100
aa(lp101
a(lp102
a(lp103
a(lp104
aa(lp105
(lp106
a(lp107
a(lp108
a(lp109
a(lp110
a(lp111
a(lp112
aa.