ccollections
defaultdict
p1
(c__builtin__
dict
p2
tRp3
I5
(dp4
I1
(lp5
Vhttp://dbpedia.org/ontology/abstract
p6
aVhttp://www.w3.org/1999/02/22-rdf-syntax-ns#type
p7
aVhttp://purl.org/dc/terms/subject
p8
aVhttp://www.w3.org/2000/01/rdf-schema#comment
p9
asI2
(lp10
ss.