(lp1
(lp2
(lp3
((lp4
Vhttp://www.w3.org/2002/07/owl#Thing
p5
aVhttp://dbpedia.org/ontology/Place
p6
aVhttp://dbpedia.org/ontology/Location
p7
aVhttp://www.wikidata.org/entity/Q486972
p8
aVhttp://www.wikidata.org/entity/Q515
p9
aVhttp://dbpedia.org/ontology/City
p10
aVhttp://dbpedia.org/ontology/PopulatedPlace
p11
aVhttp://dbpedia.org/ontology/Settlement
p12
aVhttp://www.w3.org/2003/01/geo/wgs84_pos#SpatialThing
p13
aVhttp://schema.org/City
p14
aVhttp://schema.org/Place
p15
aVhttp://umbel.org/umbel/rc/City
p16
aVhttp://dbpedia.org/class/yago/AdministrativeDistrict108491826
p17
aVhttp://dbpedia.org/class/yago/Area108497294
p18
aVhttp://dbpedia.org/class/yago/Center108523483
p19
aVhttp://dbpedia.org/class/yago/City108524735
p20
aVhttp://dbpedia.org/class/yago/District108552138
p21
aVhttp://dbpedia.org/class/yago/Location100027167
p22
aVhttp://dbpedia.org/class/yago/Object100002684
p23
aVhttp://dbpedia.org/class/yago/Region108630985
p24
aVhttp://dbpedia.org/class/yago/Seat108647945
p25
aVhttp://dbpedia.org/class/yago/Site108651247
p26
aVhttp://dbpedia.org/class/yago/Tract108673395
p27
aVhttp://dbpedia.org/class/yago/UrbanArea108675967
p28
aVhttp://dbpedia.org/class/yago/YagoGeoEntity
p29
aVhttp://dbpedia.org/class/yago/YagoLegalActorGeo
p30
aVhttp://dbpedia.org/class/yago/CitiesInGeorgia(U.S.State)
p31
aVhttp://dbpedia.org/class/yago/CountySeat108547143
p32
aVhttp://dbpedia.org/class/yago/CountySeatsInGeorgia(U.S.State)
p33
aVhttp://dbpedia.org/class/yago/GeographicalArea108574314
p34
aVhttp://dbpedia.org/class/yago/Municipality108626283
p35
aVhttp://dbpedia.org/class/yago/PhysicalEntity100001930
p36
aVhttp://dbpedia.org/class/yago/YagoPermanentlyLocatedEntity
p37
aVhttp://dbpedia.org/class/yago/PopulatedPlacesInGeorgia(U.S.State)WithAfricanAmericanMajorityPopulations
p38
aVhttp://dbpedia.org/class/yago/PopulatedPlacesInTwiggsCounty,Georgia
p39
aVhttp://dbpedia.org/resource/Jeffersonville,_Georgia
tp40
aa(lp41
a(lp42
a(lp43
a(lp44
a(lp45
a(lp46
aa(lp47
(lp48
a(lp49
a(lp50
a(lp51
a(lp52
a(lp53
a(lp54
aa(lp55
(lp56
a(lp57
a(lp58
a(lp59
a(lp60
a(lp61
a(lp62
aa(lp63
(lp64
a(lp65
a(lp66
a(lp67
a(lp68
a(lp69
a(lp70
aa(lp71
(lp72
a(lp73
a(lp74
a(lp75
a(lp76
a(lp77
a(lp78
aa(lp79
(lp80
a(lp81
a(lp82
a(lp83
a(lp84
a(lp85
a(lp86
aa(lp87
(lp88
a(lp89
a(lp90
a(lp91
a(lp92
a(lp93
a(lp94
aa(lp95
(lp96
a(lp97
a(lp98
a(lp99
a(lp100
a(lp101
a(lp102
aa(lp103
(lp104
a(lp105
a(lp106
a(lp107
a(lp108
a(lp109
a(lp110
aa(lp111
(lp112
a(lp113
a(lp114
a(lp115
a(lp116
a(lp117
a(lp118
aa(lp119
(lp120
a(lp121
a(lp122
a(lp123
a(lp124
a(lp125
a(lp126
aa(lp127
(lp128
((lp129
Vhttp://dbpedia.org/class/yago/Artifact100021939
p130
aVhttp://dbpedia.org/class/yago/Bowl102881193
p131
aVhttp://dbpedia.org/class/yago/Bowls
p132
aVhttp://dbpedia.org/class/yago/Container103094503
p133
aVhttp://dbpedia.org/class/yago/Object100002684
p134
aVhttp://dbpedia.org/class/yago/Vessel104531098
p135
aVhttp://dbpedia.org/class/yago/Whole100003553
p136
aVhttp://dbpedia.org/class/yago/Instrumentality103575240
p137
aVhttp://dbpedia.org/class/yago/PhysicalEntity100001930
p138
aVhttp://dbpedia.org/resource/Bowling_green
p139
tp140
aa(lp141
a(lp142
a(lp143
a(lp144
a(lp145
a(lp146
aa(lp147
(lp148
a(lp149
a(lp150
a(lp151
a(lp152
a(lp153
a(lp154
aa(lp155
(lp156
a(lp157
a(lp158
a(lp159
a(lp160
a(lp161
a(lp162
aa(lp163
(lp164
a(lp165
a(lp166
a(lp167
a(lp168
a(lp169
a(lp170
aa.