(lp1
(lp2
(lp3
a(lp4
aa(lp5
(lp6
a(lp7
aa(lp8
(lp9
a(lp10
aa(lp11
(lp12
((lVhttp://dbpedia.org/resource/Adaptive_behaviors
tp13
aa(lp14
aa(lp15
(lp16
a(lp17
aa(lp18
(lp19
a(lp20
aa(lp21
(lp22
a(lp23
aa(lp24
(lp25
a(lp26
aa(lp27
(lp28
a(lp29
aa(lp30
(lp31
a(lp32
aa(lp33
(lp34
((lp35
Vhttp://dbpedia.org/class/yago/Abstraction100002137
p36
aVhttp://dbpedia.org/class/yago/Group100031264
p37
aVhttp://dbpedia.org/class/yago/Organization108008335
p38
aVhttp://dbpedia.org/class/yago/SocialGroup107950920
p39
aVhttp://dbpedia.org/class/yago/YagoLegalActorGeo
p40
aVhttp://www.w3.org/2002/07/owl#Thing
p41
aVhttp://www.ontologydesignpatterns.org/ont/dul/DUL.owl#Agent
p42
aVhttp://www.ontologydesignpatterns.org/ont/dul/DUL.owl#SocialPerson
p43
aVhttp://www.wikidata.org/entity/Q43229
p44
aVhttp://dbpedia.org/ontology/Agent
p45
aVhttp://dbpedia.org/ontology/Organisation
p46
aVhttp://schema.org/Organization
p47
aVhttp://dbpedia.org/class/yago/YagoPermanentlyLocatedEntity
p48
aVhttp://dbpedia.org/class/yago/OrganizationsEstablishedIn1954
p49
aVhttp://dbpedia.org/class/yago/YagoLegalActor
p50
aVhttp://dbpedia.org/resource/Ivy_League
p51
tp52
aa(lp53
aa(lp54
(lp55
a(lp56
aa(lp57
(lp58
a(lp59
aa(lp60
(lp61
a(lp62
aa(lp63
(lp64
a(lp65
aa(lp66
(lp67
a(lp68
aa(lp69
(lp70
a(lp71
aa(lp72
(lp73
a(lp74
aa(lp75
(lp76
a(lp77
aa.