(lp1
(lp2
(lp3
a(lp4
Vhttp://dbpedia.org/resource/One_Source_Networks
p5
aa(lp6
a(lp7
a(lp8
Vhttp://dbpedia.org/resource/Texas
p9
aaa(lp10
(lp11
a(lp12
Vhttp://dbpedia.org/resource/Phone_Power
p13
aa(lp14
a(lp15
a(lp16
aa(lp17
(lp18
a(lp19
a(lp20
a(lp21
a(lp22
Vhttp://dbpedia.org/resource/Texas
p23
aaa(lp24
(lp25
a(lp26
Vhttp://dbpedia.org/resource/Star_Song_Communications
p27
aa(lp28
a(lp29
a(lp30
Vhttp://dbpedia.org/resource/The_Flaming_Lips
p31
aaa(lp32
(lp33
a(lp34
a(lp35
a(lp36
a(lp37
Vhttp://dbpedia.org/resource/Virginia
p38
aaa(lp39
(lp40
a(lp41
a(lp42
a(lp43
a(lp44
Vhttp://dbpedia.org/resource/The_Flaming_Lips
p45
aaa(lp46
(lp47
a(lp48
a(lp49
a(lp50
a(lp51
Vhttp://dbpedia.org/resource/Texas
p52
aaa(lp53
(lp54
a(lp55
a(lp56
a(lp57
a(lp58
aa(lp59
(lp60
a(lp61
Vhttp://dbpedia.org/resource/Access_Media_3
p62
aa(lp63
a(lp64
a(lp65
Vhttp://dbpedia.org/resource/Image-Line
p66
aaa(lp67
(lp68
a(lp69
a(lp70
a(lp71
a(lp72
aa.