(lp1
(lp2
(lp3
a(lp4
a(lp5
aa(lp6
(lp7
a(lp8
a(lp9
aa(lp10
(lp11
a(lp12
a(lp13
aa(lp14
(lp15
a(lp16
a(lp17
aa(lp18
(lp19
a(lp20
a(lp21
Vhttp://dbpedia.org/resource/Inventory
p22
aaa(lp23
(lp24
a(lp25
a(lp26
aa(lp27
(lp28
a(lp29
a(lp30
aa.