(lp1
(dp2
I0
(dp3
I0
(lp4
sI1
(lp5
Vhttp://dbpedia.org/property/origin
p6
aVhttp://dbpedia.org/ontology/country
p7
aVhttp://dbpedia.org/ontology/location
p8
aVhttp://dbpedia.org/property/currency
p9
aVhttp://dbpedia.org/ontology/currency
p10
aVhttp://dbpedia.org/ontology/birthPlace
p11
aVhttp://dbpedia.org/property/locationCountry
p12
aVhttp://dbpedia.org/ontology/locationCountry
p13
aVhttp://dbpedia.org/ontology/usingCountry
p14
aVhttp://dbpedia.org/ontology/foundationPlace
p15
aVhttp://dbpedia.org/ontology/hometown
p16
aVhttp://dbpedia.org/property/birthPlace
p17
aVhttp://dbpedia.org/property/placeOfBirth
p18
aVhttp://dbpedia.org/property/allegiance
p19
aVhttp://dbpedia.org/property/location
p20
aVhttp://dbpedia.org/property/country
p21
aVhttp://dbpedia.org/property/subdivisionName
p22
aVhttp://dbpedia.org/property/areaServed
p23
aVhttp://dbpedia.org/ontology/regionServed
p24
asI2
(lp25
ssI1
(dp26
I0
g5
sI1
(lp27
sI2
(lp28
ssI2
(dp29
I0
g25
sI1
g28
sI2
(lp30
ssa(dp31
I0
(dp32
I0
(lp33
sI1
(lp34
Vhttp://dbpedia.org/property/placeOfDeath
p35
aVhttp://dbpedia.org/property/currency
p36
aVhttp://dbpedia.org/ontology/currency
p37
aVhttp://dbpedia.org/ontology/abstract
p38
aVhttp://dbpedia.org/ontology/usingCountry
p39
aVhttp://dbpedia.org/ontology/deathPlace
p40
aVhttp://dbpedia.org/property/country
p41
aVhttp://dbpedia.org/ontology/birthPlace
p42
aVhttp://dbpedia.org/property/placeOfBirth
p43
asI2
(lp44
ssI1
(dp45
I0
g34
sI1
(lp46
sI2
(lp47
ssI2
(dp48
I0
g44
sI1
g47
sI2
(lp49
ssa(dp50
I0
(dp51
I0
(lp52
sI1
(lp53
Vhttp://dbpedia.org/ontology/wikiPageExternalLink
p54
aVhttp://dbpedia.org/property/website
p55
aVhttp://xmlns.com/foaf/0.1/primaryTopic
p56
aVhttp://purl.org/dc/terms/subject
p57
aVhttp://www.w3.org/2000/01/rdf-schema#comment
p58
aVhttp://dbpedia.org/property/formerCallsigns
p59
aVhttp://www.w3.org/2000/01/rdf-schema#label
p60
aVhttp://dbpedia.org/ontology/abstract
p61
aVhttp://xmlns.com/foaf/0.1/depiction
p62
aVhttp://dbpedia.org/property/name
p63
aVhttp://dbpedia.org/ontology/wikiPageRedirects
p64
aVhttp://xmlns.com/foaf/0.1/name
p65
aVhttp://dbpedia.org/ontology/formerCallsign
p66
aVhttp://xmlns.com/foaf/0.1/isPrimaryTopicOf
p67
aVhttp://www.w3.org/ns/prov#wasDerivedFrom
p68
aVhttp://xmlns.com/foaf/0.1/homepage
p69
aVhttp://dbpedia.org/property/hasPhotoCollection
p70
aVhttp://dbpedia.org/ontology/slogan
p71
aVhttp://dbpedia.org/property/slogan
p72
aVhttp://www.w3.org/2002/07/owl#sameAs
p73
aVhttp://dbpedia.org/ontology/thumbnail
p74
asI2
(lp75
ssI1
(dp76
I0
g53
sI1
(lp77
sI2
(lp78
ssI2
(dp79
I0
g75
sI1
g78
sI2
(lp80
ssa(dp81
I0
(dp82
I0
(lp83
sI1
(lp84
Vhttp://dbpedia.org/ontology/currency
p85
aVhttp://dbpedia.org/ontology/abstract
p86
aVhttp://dbpedia.org/ontology/usingCountry
p87
aVhttp://dbpedia.org/property/currency
p88
asI2
(lp89
ssI1
(dp90
I0
g84
sI1
(lp91
sI2
(lp92
ssI2
(dp93
I0
g89
sI1
g92
sI2
(lp94
ssa(dp95
I0
(dp96
I0
(lp97
sI1
(lp98
Vhttp://dbpedia.org/ontology/wikiPageExternalLink
p99
aVhttp://dbpedia.org/property/currency
p100
aVhttp://dbpedia.org/ontology/leaderTitle
p101
aVhttp://www.w3.org/2000/01/rdf-schema#comment
p102
aVhttp://dbpedia.org/property/largestSettlement
p103
aVhttp://dbpedia.org/ontology/currency
p104
aVhttp://dbpedia.org/ontology/abstract
p105
aVhttp://xmlns.com/foaf/0.1/depiction
p106
aVhttp://dbpedia.org/ontology/wikiPageRedirects
p107
aVhttp://dbpedia.org/ontology/largestSettlement
p108
aVhttp://www.w3.org/2002/07/owl#sameAs
p109
aVhttp://dbpedia.org/property/imageFlag
p110
aVhttp://dbpedia.org/ontology/thumbnail
p111
aVhttp://dbpedia.org/property/sovereigntyType
p112
aVhttp://dbpedia.org/property/altFlag
p113
aVhttp://purl.org/dc/terms/subject
p114
aVhttp://dbpedia.org/ontology/flag
p115
aVhttp://www.w3.org/2000/01/rdf-schema#label
p116
aVhttp://dbpedia.org/property/leaderTitle
p117
aVhttp://dbpedia.org/property/establishedEvent
p118
asI2
(lp119
ssI1
(dp120
I0
g98
sI1
(lp121
sI2
(lp122
ssI2
(dp123
I0
g119
sI1
g122
sI2
(lp124
ssa(dp125
I0
(dp126
I0
(lp127
sI1
(lp128
Vhttp://dbpedia.org/ontology/country
p129
aVhttp://dbpedia.org/ontology/location
p130
aVhttp://dbpedia.org/property/currency
p131
aVhttp://dbpedia.org/ontology/currency
p132
aVhttp://dbpedia.org/ontology/abstract
p133
aVhttp://dbpedia.org/property/location
p134
aVhttp://dbpedia.org/ontology/usingCountry
p135
aVhttp://dbpedia.org/property/country
p136
asI2
(lp137
ssI1
(dp138
I0
g128
sI1
(lp139
sI2
(lp140
ssI2
(dp141
I0
g137
sI1
g140
sI2
(lp142
ssa(dp143
I0
(dp144
I0
(lp145
sI1
(lp146
Vhttp://dbpedia.org/ontology/currency
p147
aVhttp://dbpedia.org/property/location
p148
aVhttp://dbpedia.org/ontology/usingCountry
p149
aVhttp://dbpedia.org/property/currency
p150
asI2
(lp151
ssI1
(dp152
I0
g146
sI1
(lp153
sI2
(lp154
ssI2
(dp155
I0
g151
sI1
g154
sI2
(lp156
ssa(dp157
I0
(dp158
I0
(lp159
sI1
(lp160
Vhttp://dbpedia.org/property/placeOfDeath
p161
aVhttp://dbpedia.org/property/currency
p162
aVhttp://dbpedia.org/ontology/currency
p163
aVhttp://dbpedia.org/ontology/birthPlace
p164
aVhttp://dbpedia.org/property/deathPlace
p165
aVhttp://dbpedia.org/ontology/usingCountry
p166
aVhttp://dbpedia.org/property/location
p167
aVhttp://dbpedia.org/ontology/nationality
p168
aVhttp://dbpedia.org/property/birthPlace
p169
aVhttp://dbpedia.org/ontology/deathPlace
p170
aVhttp://dbpedia.org/property/nationality
p171
aVhttp://dbpedia.org/property/country
p172
aVhttp://dbpedia.org/property/placeOfBirth
p173
asI2
(lp174
ssI1
(dp175
I0
g160
sI1
(lp176
sI2
(lp177
ssI2
(dp178
I0
g174
sI1
g177
sI2
(lp179
ssa(dp180
I0
(dp181
I0
(lp182
sI1
(lp183
Vhttp://dbpedia.org/ontology/currency
p184
aVhttp://dbpedia.org/property/location
p185
aVhttp://dbpedia.org/ontology/usingCountry
p186
aVhttp://dbpedia.org/property/currency
p187
asI2
(lp188
ssI1
(dp189
I0
g183
sI1
(lp190
sI2
(lp191
ssI2
(dp192
I0
g188
sI1
g191
sI2
(lp193
ssa(dp194
I0
(dp195
I0
(lp196
sI1
(lp197
Vhttp://dbpedia.org/ontology/usingCountry
p198
asI2
(lp199
ssI1
(dp200
I0
g197
sI1
(lp201
sI2
(lp202
ssI2
(dp203
I0
g199
sI1
g202
sI2
(lp204
ssa(dp205
I0
(dp206
I0
(lp207
sI1
(lp208
sI2
(lp209
ssI1
(dp210
I0
g208
sI1
(lp211
sI2
(lp212
ssI2
(dp213
I0
g209
sI1
g212
sI2
(lp214
ssa(dp215
I0
(dp216
I0
(lp217
sI1
(lp218
sI2
(lp219
ssI1
(dp220
I0
g218
sI1
(lp221
sI2
(lp222
ssI2
(dp223
I0
g219
sI1
g222
sI2
(lp224
ssa(dp225
I0
(dp226
I0
(lp227
sI1
(lp228
Vhttp://dbpedia.org/property/currency
p229
aVhttp://dbpedia.org/ontology/currency
p230
aVhttp://dbpedia.org/property/location
p231
aVhttp://dbpedia.org/ontology/usingCountry
p232
aVhttp://dbpedia.org/property/states
p233
aVhttp://dbpedia.org/ontology/spokenIn
p234
asI2
(lp235
ssI1
(dp236
I0
g228
sI1
(lp237
sI2
(lp238
ssI2
(dp239
I0
g235
sI1
g238
sI2
(lp240
ssa(dp241
I0
(dp242
I0
(lp243
sI1
(lp244
Vhttp://dbpedia.org/ontology/currency
p245
aVhttp://dbpedia.org/ontology/country
p246
aVhttp://dbpedia.org/ontology/usingCountry
p247
aVhttp://dbpedia.org/property/country
p248
asI2
(lp249
ssI1
(dp250
I0
g244
sI1
(lp251
sI2
(lp252
ssI2
(dp253
I0
g249
sI1
g252
sI2
(lp254
ssa(dp255
I0
(dp256
I0
(lp257
sI1
(lp258
sI2
(lp259
ssI1
(dp260
I0
g258
sI1
(lp261
sI2
(lp262
ssI2
(dp263
I0
g259
sI1
g262
sI2
(lp264
ssa(dp265
I0
(dp266
I0
(lp267
sI1
(lp268
Vhttp://www.w3.org/2000/01/rdf-schema#seeAlso
p269
aVhttp://dbpedia.org/ontology/country
p270
aVhttp://dbpedia.org/ontology/stateOfOrigin
p271
aVhttp://dbpedia.org/ontology/location
p272
aVhttp://dbpedia.org/ontology/residence
p273
aVhttp://dbpedia.org/property/currency
p274
aVhttp://dbpedia.org/ontology/currency
p275
aVhttp://dbpedia.org/ontology/birthPlace
p276
aVhttp://dbpedia.org/ontology/secondDriverCountry
p277
aVhttp://dbpedia.org/property/deathPlace
p278
aVhttp://dbpedia.org/property/location
p279
aVhttp://dbpedia.org/property/residence
p280
aVhttp://dbpedia.org/property/birthPlace
p281
aVhttp://dbpedia.org/ontology/restingPlace
p282
aVhttp://dbpedia.org/ontology/deathPlace
p283
aVhttp://dbpedia.org/property/nationality
p284
aVhttp://dbpedia.org/property/country
p285
aVhttp://dbpedia.org/ontology/thirdDriverCountry
p286
aVhttp://dbpedia.org/ontology/nationality
p287
aVhttp://dbpedia.org/property/placeofburial
p288
aVhttp://dbpedia.org/property/placeOfBirth
p289
asI2
(lp290
ssI1
(dp291
I0
g268
sI1
(lp292
sI2
(lp293
ssI2
(dp294
I0
g290
sI1
g293
sI2
(lp295
ssa(dp296
I0
(dp297
I0
(lp298
sI1
(lp299
Vhttp://www.w3.org/2000/01/rdf-schema#seeAlso
p300
aVhttp://dbpedia.org/property/origin
p301
aVhttp://dbpedia.org/ontology/currency
p302
aVhttp://dbpedia.org/ontology/leader
p303
aVhttp://dbpedia.org/property/residence
p304
aVhttp://dbpedia.org/property/placeOfDeath
p305
aVhttp://dbpedia.org/ontology/locatedInArea
p306
aVhttp://dbpedia.org/ontology/regionServed
p307
aVhttp://dbpedia.org/ontology/country
p308
aVhttp://dbpedia.org/property/usingCountries
p309
aVhttp://dbpedia.org/property/locationCountry
p310
aVhttp://dbpedia.org/property/allegiance
p311
aVhttp://dbpedia.org/ontology/nationality
p312
aVhttp://dbpedia.org/property/birthPlace
p313
aVhttp://dbpedia.org/ontology/place
p314
aVhttp://dbpedia.org/property/placeOfBirth
p315
aVhttp://dbpedia.org/property/nationality
p316
aVhttp://dbpedia.org/property/country
p317
aVhttp://dbpedia.org/property/areaServed
p318
aVhttp://dbpedia.org/ontology/residence
p319
aVhttp://dbpedia.org/ontology/abstract
p320
aVhttp://dbpedia.org/ontology/recordedIn
p321
aVhttp://dbpedia.org/property/leaderName
p322
aVhttp://dbpedia.org/property/deathPlace
p323
aVhttp://dbpedia.org/ontology/usingCountry
p324
aVhttp://dbpedia.org/property/location
p325
aVhttp://dbpedia.org/property/fightingOutOf
p326
aVhttp://dbpedia.org/ontology/deathPlace
p327
aVhttp://dbpedia.org/property/subdivisionName
p328
aVhttp://dbpedia.org/ontology/location
p329
aVhttp://dbpedia.org/ontology/birthPlace
p330
aVhttp://dbpedia.org/ontology/citizenship
p331
aVhttp://dbpedia.org/property/area
p332
aVhttp://dbpedia.org/ontology/hometown
p333
aVhttp://dbpedia.org/property/citizenship
p334
aVhttp://dbpedia.org/ontology/stateOfOrigin
p335
aVhttp://dbpedia.org/property/data
p336
aVhttp://dbpedia.org/ontology/award
p337
aVhttp://dbpedia.org/property/areas
p338
asI2
(lp339
ssI1
(dp340
I0
g299
sI1
(lp341
sI2
(lp342
ssI2
(dp343
I0
g339
sI1
g342
sI2
(lp344
ssa(dp345
I0
(dp346
I0
(lp347
sI1
(lp348
Vhttp://www.w3.org/2000/01/rdf-schema#seeAlso
p349
aVhttp://dbpedia.org/ontology/country
p350
aVhttp://dbpedia.org/ontology/location
p351
aVhttp://dbpedia.org/property/currency
p352
aVhttp://dbpedia.org/ontology/currency
p353
aVhttp://dbpedia.org/property/locationCountry
p354
aVhttp://dbpedia.org/property/place
p355
aVhttp://dbpedia.org/property/location
p356
aVhttp://dbpedia.org/ontology/ground
p357
aVhttp://dbpedia.org/property/stateParty
p358
aVhttp://dbpedia.org/property/subdivisionName
p359
asI2
(lp360
ssI1
(dp361
I0
g348
sI1
(lp362
sI2
(lp363
ssI2
(dp364
I0
g360
sI1
g363
sI2
(lp365
ssa(dp366
I0
(dp367
I0
(lp368
sI1
(lp369
Vhttp://dbpedia.org/ontology/currency
p370
aVhttp://dbpedia.org/property/usingCountries
p371
aVhttp://dbpedia.org/property/location
p372
aVhttp://dbpedia.org/ontology/usingCountry
p373
aVhttp://dbpedia.org/property/currency
p374
asI2
(lp375
ssI1
(dp376
I0
g369
sI1
(lp377
sI2
(lp378
ssI2
(dp379
I0
g375
sI1
g378
sI2
(lp380
ssa(dp381
I0
(dp382
I0
(lp383
sI1
(lp384
Vhttp://dbpedia.org/ontology/currency
p385
aVhttp://dbpedia.org/ontology/abstract
p386
aVhttp://dbpedia.org/property/currency
p387
asI2
(lp388
ssI1
(dp389
I0
g384
sI1
(lp390
sI2
(lp391
ssI2
(dp392
I0
g388
sI1
g391
sI2
(lp393
ssa.