ccollections
defaultdict
p1
(c__builtin__
dict
p2
tRp3
I0
(dp4
I1
(lp5
Vhttp://dbpedia.org/property/origin
p6
aVhttp://dbpedia.org/ontology/country
p7
aVhttp://dbpedia.org/ontology/location
p8
aVhttp://dbpedia.org/property/subdivisionName
p9
aVhttp://dbpedia.org/property/currency
p10
aVhttp://dbpedia.org/ontology/currency
p11
aVhttp://dbpedia.org/ontology/birthPlace
p12
aVhttp://dbpedia.org/property/birthPlace
p13
aVhttp://dbpedia.org/ontology/usingCountry
p14
aVhttp://dbpedia.org/ontology/foundationPlace
p15
aVhttp://dbpedia.org/ontology/hometown
p16
aVhttp://dbpedia.org/ontology/locationCountry
p17
aVhttp://dbpedia.org/property/placeOfBirth
p18
aVhttp://dbpedia.org/property/allegiance
p19
aVhttp://dbpedia.org/property/location
p20
aVhttp://dbpedia.org/property/country
p21
aVhttp://dbpedia.org/property/locationCountry
p22
aVhttp://dbpedia.org/property/areaServed
p23
aVhttp://dbpedia.org/ontology/regionServed
p24
asI2
(lp25
ssI1
(dp26
I1
(lp27
Vhttp://dbpedia.org/property/placeOfDeath
p28
aVhttp://dbpedia.org/property/currency
p29
aVhttp://dbpedia.org/ontology/currency
p30
aVhttp://dbpedia.org/ontology/abstract
p31
aVhttp://dbpedia.org/ontology/usingCountry
p32
aVhttp://dbpedia.org/ontology/deathPlace
p33
aVhttp://dbpedia.org/property/country
p34
aVhttp://dbpedia.org/ontology/birthPlace
p35
aVhttp://dbpedia.org/property/placeOfBirth
p36
asI2
(lp37
ssI2
(dp38
I1
(lp39
Vhttp://dbpedia.org/ontology/wikiPageExternalLink
p40
aVhttp://dbpedia.org/property/website
p41
aVhttp://xmlns.com/foaf/0.1/primaryTopic
p42
aVhttp://purl.org/dc/terms/subject
p43
aVhttp://www.w3.org/2000/01/rdf-schema#comment
p44
aVhttp://dbpedia.org/property/formerCallsigns
p45
aVhttp://dbpedia.org/ontology/slogan
p46
aVhttp://dbpedia.org/ontology/abstract
p47
aVhttp://xmlns.com/foaf/0.1/depiction
p48
aVhttp://dbpedia.org/property/name
p49
aVhttp://dbpedia.org/ontology/wikiPageRedirects
p50
aVhttp://www.w3.org/ns/prov#wasDerivedFrom
p51
aVhttp://dbpedia.org/ontology/formerCallsign
p52
aVhttp://xmlns.com/foaf/0.1/isPrimaryTopicOf
p53
aVhttp://xmlns.com/foaf/0.1/name
p54
aVhttp://xmlns.com/foaf/0.1/homepage
p55
aVhttp://dbpedia.org/property/hasPhotoCollection
p56
aVhttp://www.w3.org/2000/01/rdf-schema#label
p57
aVhttp://dbpedia.org/property/slogan
p58
aVhttp://www.w3.org/2002/07/owl#sameAs
p59
aVhttp://dbpedia.org/ontology/thumbnail
p60
asI2
(lp61
ssI3
(dp62
I1
(lp63
Vhttp://dbpedia.org/ontology/currency
p64
aVhttp://dbpedia.org/ontology/abstract
p65
aVhttp://dbpedia.org/ontology/usingCountry
p66
aVhttp://dbpedia.org/property/currency
p67
asI2
(lp68
ssI4
(dp69
I1
(lp70
Vhttp://dbpedia.org/ontology/wikiPageExternalLink
p71
aVhttp://dbpedia.org/property/currency
p72
aVhttp://dbpedia.org/ontology/leaderTitle
p73
aVhttp://www.w3.org/2000/01/rdf-schema#comment
p74
aVhttp://dbpedia.org/property/largestSettlement
p75
aVhttp://dbpedia.org/ontology/currency
p76
aVhttp://dbpedia.org/ontology/abstract
p77
aVhttp://xmlns.com/foaf/0.1/depiction
p78
aVhttp://dbpedia.org/ontology/wikiPageRedirects
p79
aVhttp://dbpedia.org/property/leaderTitle
p80
aVhttp://dbpedia.org/ontology/largestSettlement
p81
aVhttp://dbpedia.org/property/imageFlag
p82
aVhttp://dbpedia.org/ontology/thumbnail
p83
aVhttp://dbpedia.org/property/sovereigntyType
p84
aVhttp://dbpedia.org/property/altFlag
p85
aVhttp://purl.org/dc/terms/subject
p86
aVhttp://dbpedia.org/ontology/flag
p87
aVhttp://dbpedia.org/property/establishedEvent
p88
aVhttp://www.w3.org/2000/01/rdf-schema#label
p89
aVhttp://www.w3.org/2002/07/owl#sameAs
p90
asI2
(lp91
ssI5
(dp92
I1
(lp93
Vhttp://dbpedia.org/ontology/country
p94
aVhttp://dbpedia.org/ontology/location
p95
aVhttp://dbpedia.org/property/currency
p96
aVhttp://dbpedia.org/ontology/currency
p97
aVhttp://dbpedia.org/ontology/abstract
p98
aVhttp://dbpedia.org/property/location
p99
aVhttp://dbpedia.org/ontology/usingCountry
p100
aVhttp://dbpedia.org/property/country
p101
asI2
(lp102
ssI6
(dp103
I1
(lp104
Vhttp://dbpedia.org/ontology/currency
p105
aVhttp://dbpedia.org/property/location
p106
aVhttp://dbpedia.org/ontology/usingCountry
p107
aVhttp://dbpedia.org/property/currency
p108
asI2
(lp109
ssI7
(dp110
I1
(lp111
Vhttp://dbpedia.org/property/placeOfDeath
p112
aVhttp://dbpedia.org/property/currency
p113
aVhttp://dbpedia.org/ontology/currency
p114
aVhttp://dbpedia.org/ontology/birthPlace
p115
aVhttp://dbpedia.org/property/deathPlace
p116
aVhttp://dbpedia.org/ontology/usingCountry
p117
aVhttp://dbpedia.org/property/location
p118
aVhttp://dbpedia.org/ontology/nationality
p119
aVhttp://dbpedia.org/property/birthPlace
p120
aVhttp://dbpedia.org/ontology/deathPlace
p121
aVhttp://dbpedia.org/property/nationality
p122
aVhttp://dbpedia.org/property/country
p123
aVhttp://dbpedia.org/property/placeOfBirth
p124
asI2
(lp125
ssI8
(dp126
I1
(lp127
Vhttp://dbpedia.org/ontology/currency
p128
aVhttp://dbpedia.org/property/location
p129
aVhttp://dbpedia.org/ontology/usingCountry
p130
aVhttp://dbpedia.org/property/currency
p131
asI2
(lp132
ssI9
(dp133
I1
(lp134
Vhttp://dbpedia.org/ontology/usingCountry
p135
asI2
(lp136
ssI10
(dp137
I1
(lp138
sI2
(lp139
ssI11
(dp140
I1
(lp141
sI2
(lp142
ssI12
(dp143
I1
(lp144
Vhttp://dbpedia.org/property/currency
p145
aVhttp://dbpedia.org/ontology/currency
p146
aVhttp://dbpedia.org/property/location
p147
aVhttp://dbpedia.org/ontology/usingCountry
p148
aVhttp://dbpedia.org/property/states
p149
aVhttp://dbpedia.org/ontology/spokenIn
p150
asI2
(lp151
ssI13
(dp152
I1
(lp153
Vhttp://dbpedia.org/ontology/currency
p154
aVhttp://dbpedia.org/property/country
p155
aVhttp://dbpedia.org/ontology/usingCountry
p156
aVhttp://dbpedia.org/ontology/country
p157
asI2
(lp158
ssI14
(dp159
I1
(lp160
sI2
(lp161
ssI15
(dp162
I1
(lp163
Vhttp://www.w3.org/2000/01/rdf-schema#seeAlso
p164
aVhttp://dbpedia.org/ontology/country
p165
aVhttp://dbpedia.org/ontology/thirdDriverCountry
p166
aVhttp://dbpedia.org/property/residence
p167
aVhttp://dbpedia.org/ontology/location
p168
aVhttp://dbpedia.org/property/currency
p169
aVhttp://dbpedia.org/ontology/currency
p170
aVhttp://dbpedia.org/ontology/birthPlace
p171
aVhttp://dbpedia.org/ontology/secondDriverCountry
p172
aVhttp://dbpedia.org/property/deathPlace
p173
aVhttp://dbpedia.org/property/location
p174
aVhttp://dbpedia.org/ontology/nationality
p175
aVhttp://dbpedia.org/property/birthPlace
p176
aVhttp://dbpedia.org/ontology/restingPlace
p177
aVhttp://dbpedia.org/ontology/deathPlace
p178
aVhttp://dbpedia.org/property/nationality
p179
aVhttp://dbpedia.org/ontology/residence
p180
aVhttp://dbpedia.org/property/country
p181
aVhttp://dbpedia.org/ontology/stateOfOrigin
p182
aVhttp://dbpedia.org/property/placeofburial
p183
aVhttp://dbpedia.org/property/placeOfBirth
p184
asI2
(lp185
ssI16
(dp186
I1
(lp187
Vhttp://www.w3.org/2000/01/rdf-schema#seeAlso
p188
aVhttp://dbpedia.org/property/origin
p189
aVhttp://dbpedia.org/ontology/currency
p190
aVhttp://dbpedia.org/property/areas
p191
aVhttp://dbpedia.org/property/residence
p192
aVhttp://dbpedia.org/property/placeOfDeath
p193
aVhttp://dbpedia.org/ontology/locatedInArea
p194
aVhttp://dbpedia.org/ontology/regionServed
p195
aVhttp://dbpedia.org/ontology/country
p196
aVhttp://dbpedia.org/property/usingCountries
p197
aVhttp://dbpedia.org/property/locationCountry
p198
aVhttp://dbpedia.org/property/allegiance
p199
aVhttp://dbpedia.org/ontology/nationality
p200
aVhttp://dbpedia.org/property/birthPlace
p201
aVhttp://dbpedia.org/ontology/place
p202
aVhttp://dbpedia.org/property/placeOfBirth
p203
aVhttp://dbpedia.org/property/nationality
p204
aVhttp://dbpedia.org/property/country
p205
aVhttp://dbpedia.org/property/areaServed
p206
aVhttp://dbpedia.org/ontology/residence
p207
aVhttp://dbpedia.org/ontology/abstract
p208
aVhttp://dbpedia.org/ontology/recordedIn
p209
aVhttp://dbpedia.org/property/leaderName
p210
aVhttp://dbpedia.org/property/deathPlace
p211
aVhttp://dbpedia.org/ontology/usingCountry
p212
aVhttp://dbpedia.org/property/location
p213
aVhttp://dbpedia.org/property/fightingOutOf
p214
aVhttp://dbpedia.org/ontology/deathPlace
p215
aVhttp://dbpedia.org/property/subdivisionName
p216
aVhttp://dbpedia.org/ontology/location
p217
aVhttp://dbpedia.org/ontology/birthPlace
p218
aVhttp://dbpedia.org/ontology/citizenship
p219
aVhttp://dbpedia.org/property/area
p220
aVhttp://dbpedia.org/ontology/hometown
p221
aVhttp://dbpedia.org/property/citizenship
p222
aVhttp://dbpedia.org/ontology/stateOfOrigin
p223
aVhttp://dbpedia.org/property/data
p224
aVhttp://dbpedia.org/ontology/award
p225
aVhttp://dbpedia.org/ontology/leader
p226
asI2
(lp227
ssI17
(dp228
I1
(lp229
Vhttp://www.w3.org/2000/01/rdf-schema#seeAlso
p230
aVhttp://dbpedia.org/ontology/country
p231
aVhttp://dbpedia.org/ontology/location
p232
aVhttp://dbpedia.org/property/currency
p233
aVhttp://dbpedia.org/ontology/currency
p234
aVhttp://dbpedia.org/property/locationCountry
p235
aVhttp://dbpedia.org/property/place
p236
aVhttp://dbpedia.org/property/location
p237
aVhttp://dbpedia.org/ontology/ground
p238
aVhttp://dbpedia.org/property/stateParty
p239
aVhttp://dbpedia.org/property/subdivisionName
p240
asI2
(lp241
ssI18
(dp242
I1
(lp243
Vhttp://dbpedia.org/ontology/currency
p244
aVhttp://dbpedia.org/property/usingCountries
p245
aVhttp://dbpedia.org/property/location
p246
aVhttp://dbpedia.org/ontology/usingCountry
p247
aVhttp://dbpedia.org/property/currency
p248
asI2
(lp249
ssI19
(dp250
I1
(lp251
Vhttp://dbpedia.org/ontology/currency
p252
aVhttp://dbpedia.org/ontology/abstract
p253
aVhttp://dbpedia.org/property/currency
p254
asI2
(lp255
ss.