(lp1
(lp2
(lp3
a(lp4
a(lp5
aa(lp6
(lp7
((lVhttp://dbpedia.org/resource/Curve_(disambiguation)
tp8
aa(lp9
a(lp10
aa(lp11
(lp12
((lVhttp://dbpedia.org/resource/Dogwood_Creek
tp13
aa(lp14
a(lp15
aa(lp16
(lp17
a(lp18
a(lp19
aa(lp20
(lp21
a(lp22
a(lp23
aa(lp24
(lp25
a(lp26
a(lp27
aa(lp28
(lp29
a(lp30
a(lp31
aa(lp32
(lp33
a(lp34
a(lp35
((lp36
Vhttp://www.w3.org/2002/07/owl#Thing
p37
aVhttp://dbpedia.org/resource/Clothing
tp38
aaa(lp39
(lp40
a(lp41
a(lp42
aa(lp43
(lp44
a(lp45
a(lp46
((lp47
Vhttp://www.w3.org/2002/07/owl#Thing
p48
aVhttp://dbpedia.org/resource/Photography
tp49
aaa(lp50
(lp51
((lp52
Vhttp://www.w3.org/2002/07/owl#Thing
p53
aVhttp://dbpedia.org/ontology/Place
p54
aVhttp://dbpedia.org/ontology/Location
p55
aVhttp://www.wikidata.org/entity/Q486972
p56
aVhttp://dbpedia.org/ontology/PopulatedPlace
p57
aVhttp://dbpedia.org/ontology/Settlement
p58
aVhttp://www.w3.org/2003/01/geo/wgs84_pos#SpatialThing
p59
aVhttp://schema.org/Place
p60
aVhttp://dbpedia.org/class/yago/District108552138
p61
aVhttp://dbpedia.org/class/yago/Location100027167
p62
aVhttp://dbpedia.org/class/yago/Object100002684
p63
aVhttp://dbpedia.org/class/yago/Region108630985
p64
aVhttp://dbpedia.org/class/yago/YagoGeoEntity
p65
aVhttp://dbpedia.org/class/yago/YagoLegalActorGeo
p66
aVhttp://dbpedia.org/class/yago/DistrictsOfCamden
p67
aVhttp://dbpedia.org/class/yago/DistrictsOfLondon
p68
aVhttp://dbpedia.org/class/yago/PhysicalEntity100001930
p69
aVhttp://dbpedia.org/class/yago/YagoPermanentlyLocatedEntity
p70
aVhttp://dbpedia.org/resource/West_Hampstead
p71
tp72
aa(lp73
a(lp74
aa.