(lp1
(lp2
(lp3
a(lp4
Vhttp://dbpedia.org/resource/Spanish,_Ontario
p5
aa(lp6
a(lp7
a(lp8
aa(lp9
(lp10
a(lp11
Vhttp://dbpedia.org/resource/Spanish,_Ontario
p12
aa(lp13
a(lp14
a(lp15
aa(lp16
(lp17
a(lp18
Vhttp://dbpedia.org/resource/English,_Indiana
p19
aa(lp20
a(lp21
a(lp22
aa(lp23
(lp24
a(lp25
Vhttp://dbpedia.org/resource/French_River_(Ontario)
p26
aa(lp27
a(lp28
a(lp29
aa(lp30
(lp31
a(lp32
Vhttp://dbpedia.org/resource/English,_Indiana
p33
aa(lp34
a(lp35
a(lp36
aa(lp37
(lp38
a(lp39
Vhttp://dbpedia.org/resource/The_Hawaiians
p40
aa(lp41
Vhttp://dbpedia.org/resource/Hawaiian_Islands
p42
aa(lp43
a(lp44
aa(lp45
(lp46
a(lp47
Vhttp://dbpedia.org/resource/Spanish,_Ontario
p48
aa(lp49
a(lp50
a(lp51
aa(lp52
(lp53
a(lp54
Vhttp://dbpedia.org/resource/French_River_(Ontario)
p55
aa(lp56
a(lp57
a(lp58
aa.