(lp1
(lp2
(lp3
a(lp4
a(lp5
((lp6
Vhttp://www.w3.org/2002/07/owl#Thing
p7
aVhttp://dbpedia.org/ontology/Company
p8
aVhttp://www.ontologydesignpatterns.org/ont/dul/DUL.owl#Agent
p9
aVhttp://www.ontologydesignpatterns.org/ont/dul/DUL.owl#SocialPerson
p10
aVhttp://www.wikidata.org/entity/Q43229
p11
aVhttp://dbpedia.org/ontology/Agent
p12
aVhttp://dbpedia.org/ontology/Organisation
p13
aVhttp://schema.org/Organization
p14
aVhttp://umbel.org/umbel/rc/Business
p15
aVhttp://umbel.org/umbel/rc/Organization
p16
aVhttp://dbpedia.org/class/yago/Abstraction100002137
p17
aVhttp://dbpedia.org/class/yago/Company108058098
p18
aVhttp://dbpedia.org/class/yago/Group100031264
p19
aVhttp://dbpedia.org/class/yago/Institution108053576
p20
aVhttp://dbpedia.org/class/yago/Organization108008335
p21
aVhttp://dbpedia.org/class/yago/SocialGroup107950920
p22
aVhttp://dbpedia.org/class/yago/YagoLegalActorGeo
p23
aVhttp://dbpedia.org/class/yago/CompaniesBasedInSlough
p24
aVhttp://dbpedia.org/class/yago/CompaniesEstablishedIn1999
p25
aVhttp://dbpedia.org/class/yago/CompaniesListedOnTheLondonStockExchange
p26
aVhttp://dbpedia.org/class/yago/FoodCompany108003427
p27
aVhttp://dbpedia.org/class/yago/YagoPermanentlyLocatedEntity
p28
aVhttp://dbpedia.org/class/yago/MultinationalFoodCompanies
p29
aVhttp://dbpedia.org/class/yago/YagoLegalActor
p30
aVhttp://dbpedia.org/resource/Reckitt_Benckiser
tp31
aaa(lp32
(lp33
a(lp34
a(lp35
((lp36
Vhttp://www.w3.org/2002/07/owl#Thing
p37
aVhttp://dbpedia.org/ontology/Company
p38
aVhttp://www.ontologydesignpatterns.org/ont/dul/DUL.owl#Agent
p39
aVhttp://www.ontologydesignpatterns.org/ont/dul/DUL.owl#SocialPerson
p40
aVhttp://www.wikidata.org/entity/Q43229
p41
aVhttp://dbpedia.org/ontology/Agent
p42
aVhttp://dbpedia.org/ontology/Organisation
p43
aVhttp://schema.org/Organization
p44
aVhttp://umbel.org/umbel/rc/Business
p45
aVhttp://umbel.org/umbel/rc/Organization
p46
aVhttp://dbpedia.org/class/yago/Abstraction100002137
p47
aVhttp://dbpedia.org/class/yago/Company108058098
p48
aVhttp://dbpedia.org/class/yago/Group100031264
p49
aVhttp://dbpedia.org/class/yago/Institution108053576
p50
aVhttp://dbpedia.org/class/yago/Organization108008335
p51
aVhttp://dbpedia.org/class/yago/SocialGroup107950920
p52
aVhttp://dbpedia.org/class/yago/YagoLegalActorGeo
p53
aVhttp://dbpedia.org/class/yago/CompaniesBasedInSlough
p54
aVhttp://dbpedia.org/class/yago/CompaniesEstablishedIn1999
p55
aVhttp://dbpedia.org/class/yago/CompaniesListedOnTheLondonStockExchange
p56
aVhttp://dbpedia.org/class/yago/FoodCompany108003427
p57
aVhttp://dbpedia.org/class/yago/YagoPermanentlyLocatedEntity
p58
aVhttp://dbpedia.org/class/yago/MultinationalFoodCompanies
p59
aVhttp://dbpedia.org/class/yago/YagoLegalActor
p60
aVhttp://dbpedia.org/resource/Reckitt_Benckiser
tp61
aaa(lp62
(lp63
a(lp64
a(lp65
((lp66
Vhttp://www.w3.org/2002/07/owl#Thing
p67
aVhttp://dbpedia.org/ontology/Company
p68
aVhttp://www.ontologydesignpatterns.org/ont/dul/DUL.owl#Agent
p69
aVhttp://www.ontologydesignpatterns.org/ont/dul/DUL.owl#SocialPerson
p70
aVhttp://www.wikidata.org/entity/Q43229
p71
aVhttp://dbpedia.org/ontology/Agent
p72
aVhttp://dbpedia.org/ontology/Organisation
p73
aVhttp://schema.org/Organization
p74
aVhttp://umbel.org/umbel/rc/Business
p75
aVhttp://umbel.org/umbel/rc/Organization
p76
aVhttp://dbpedia.org/class/yago/Abstraction100002137
p77
aVhttp://dbpedia.org/class/yago/Company108058098
p78
aVhttp://dbpedia.org/class/yago/Group100031264
p79
aVhttp://dbpedia.org/class/yago/Institution108053576
p80
aVhttp://dbpedia.org/class/yago/Organization108008335
p81
aVhttp://dbpedia.org/class/yago/SocialGroup107950920
p82
aVhttp://dbpedia.org/class/yago/YagoLegalActorGeo
p83
aVhttp://dbpedia.org/class/yago/CompaniesBasedInSlough
p84
aVhttp://dbpedia.org/class/yago/CompaniesEstablishedIn1999
p85
aVhttp://dbpedia.org/class/yago/CompaniesListedOnTheLondonStockExchange
p86
aVhttp://dbpedia.org/class/yago/FoodCompany108003427
p87
aVhttp://dbpedia.org/class/yago/YagoPermanentlyLocatedEntity
p88
aVhttp://dbpedia.org/class/yago/MultinationalFoodCompanies
p89
aVhttp://dbpedia.org/class/yago/YagoLegalActor
p90
aVhttp://dbpedia.org/resource/Reckitt_Benckiser
tp91
aaa(lp92
(lp93
a(lp94
a(lp95
((lp96
Vhttp://www.w3.org/2002/07/owl#Thing
p97
aVhttp://dbpedia.org/ontology/Company
p98
aVhttp://www.ontologydesignpatterns.org/ont/dul/DUL.owl#Agent
p99
aVhttp://www.ontologydesignpatterns.org/ont/dul/DUL.owl#SocialPerson
p100
aVhttp://www.wikidata.org/entity/Q43229
p101
aVhttp://dbpedia.org/ontology/Agent
p102
aVhttp://dbpedia.org/ontology/Organisation
p103
aVhttp://schema.org/Organization
p104
aVhttp://umbel.org/umbel/rc/Business
p105
aVhttp://umbel.org/umbel/rc/Organization
p106
aVhttp://dbpedia.org/class/yago/Abstraction100002137
p107
aVhttp://dbpedia.org/class/yago/Company108058098
p108
aVhttp://dbpedia.org/class/yago/Group100031264
p109
aVhttp://dbpedia.org/class/yago/Institution108053576
p110
aVhttp://dbpedia.org/class/yago/Organization108008335
p111
aVhttp://dbpedia.org/class/yago/SocialGroup107950920
p112
aVhttp://dbpedia.org/class/yago/YagoLegalActorGeo
p113
aVhttp://dbpedia.org/class/yago/CompaniesBasedInSlough
p114
aVhttp://dbpedia.org/class/yago/CompaniesEstablishedIn1999
p115
aVhttp://dbpedia.org/class/yago/CompaniesListedOnTheLondonStockExchange
p116
aVhttp://dbpedia.org/class/yago/FoodCompany108003427
p117
aVhttp://dbpedia.org/class/yago/YagoPermanentlyLocatedEntity
p118
aVhttp://dbpedia.org/class/yago/MultinationalFoodCompanies
p119
aVhttp://dbpedia.org/class/yago/YagoLegalActor
p120
aVhttp://dbpedia.org/resource/Reckitt_Benckiser
tp121
aaa(lp122
(lp123
a(lp124
a(lp125
((lp126
Vhttp://www.w3.org/2002/07/owl#Thing
p127
aVhttp://dbpedia.org/ontology/Company
p128
aVhttp://www.ontologydesignpatterns.org/ont/dul/DUL.owl#Agent
p129
aVhttp://www.ontologydesignpatterns.org/ont/dul/DUL.owl#SocialPerson
p130
aVhttp://www.wikidata.org/entity/Q43229
p131
aVhttp://dbpedia.org/ontology/Agent
p132
aVhttp://dbpedia.org/ontology/Organisation
p133
aVhttp://schema.org/Organization
p134
aVhttp://umbel.org/umbel/rc/Business
p135
aVhttp://umbel.org/umbel/rc/Organization
p136
aVhttp://dbpedia.org/class/yago/Abstraction100002137
p137
aVhttp://dbpedia.org/class/yago/Company108058098
p138
aVhttp://dbpedia.org/class/yago/Group100031264
p139
aVhttp://dbpedia.org/class/yago/Institution108053576
p140
aVhttp://dbpedia.org/class/yago/Organization108008335
p141
aVhttp://dbpedia.org/class/yago/SocialGroup107950920
p142
aVhttp://dbpedia.org/class/yago/YagoLegalActorGeo
p143
aVhttp://dbpedia.org/class/yago/CompaniesBasedInSlough
p144
aVhttp://dbpedia.org/class/yago/CompaniesEstablishedIn1999
p145
aVhttp://dbpedia.org/class/yago/CompaniesListedOnTheLondonStockExchange
p146
aVhttp://dbpedia.org/class/yago/FoodCompany108003427
p147
aVhttp://dbpedia.org/class/yago/YagoPermanentlyLocatedEntity
p148
aVhttp://dbpedia.org/class/yago/MultinationalFoodCompanies
p149
aVhttp://dbpedia.org/class/yago/YagoLegalActor
p150
aVhttp://dbpedia.org/resource/Reckitt_Benckiser
tp151
aaa(lp152
(lp153
((lp154
Vhttp://dbpedia.org/class/yago/Agent114778436
p155
aVhttp://dbpedia.org/class/yago/Antipyretic102723595
p156
aVhttp://dbpedia.org/class/yago/Antipyretics
p157
aVhttp://dbpedia.org/class/yago/CausalAgent100007347
p158
aVhttp://dbpedia.org/class/yago/Drug103247620
p159
aVhttp://dbpedia.org/class/yago/Matter100020827
p160
aVhttp://dbpedia.org/class/yago/Medicine103740161
p161
aVhttp://dbpedia.org/class/yago/Substance100020090
p162
aVhttp://dbpedia.org/class/yago/Decongestant103169271
p163
aVhttp://dbpedia.org/class/yago/Decongestants
p164
aVhttp://dbpedia.org/class/yago/PhysicalEntity100001930
p165
aVhttp://dbpedia.org/resource/Lemsip
tp166
aa(lp167
a(lp168
aa(lp169
(lp170
a(lp171
a(lp172
((lp173
Vhttp://www.w3.org/2002/07/owl#Thing
p174
aVhttp://dbpedia.org/ontology/Company
p175
aVhttp://www.ontologydesignpatterns.org/ont/dul/DUL.owl#Agent
p176
aVhttp://www.ontologydesignpatterns.org/ont/dul/DUL.owl#SocialPerson
p177
aVhttp://www.wikidata.org/entity/Q43229
p178
aVhttp://dbpedia.org/ontology/Agent
p179
aVhttp://dbpedia.org/ontology/Organisation
p180
aVhttp://schema.org/Organization
p181
aVhttp://umbel.org/umbel/rc/Business
p182
aVhttp://umbel.org/umbel/rc/Organization
p183
aVhttp://dbpedia.org/class/yago/Abstraction100002137
p184
aVhttp://dbpedia.org/class/yago/Company108058098
p185
aVhttp://dbpedia.org/class/yago/Group100031264
p186
aVhttp://dbpedia.org/class/yago/Institution108053576
p187
aVhttp://dbpedia.org/class/yago/Organization108008335
p188
aVhttp://dbpedia.org/class/yago/SocialGroup107950920
p189
aVhttp://dbpedia.org/class/yago/YagoLegalActorGeo
p190
aVhttp://dbpedia.org/class/yago/CompaniesBasedInSlough
p191
aVhttp://dbpedia.org/class/yago/CompaniesEstablishedIn1999
p192
aVhttp://dbpedia.org/class/yago/CompaniesListedOnTheLondonStockExchange
p193
aVhttp://dbpedia.org/class/yago/FoodCompany108003427
p194
aVhttp://dbpedia.org/class/yago/YagoPermanentlyLocatedEntity
p195
aVhttp://dbpedia.org/class/yago/MultinationalFoodCompanies
p196
aVhttp://dbpedia.org/class/yago/YagoLegalActor
p197
aVhttp://dbpedia.org/resource/Reckitt_Benckiser
tp198
aaa(lp199
(lp200
a(lp201
a(lp202
((lp203
Vhttp://www.w3.org/2002/07/owl#Thing
p204
aVhttp://dbpedia.org/ontology/Company
p205
aVhttp://www.ontologydesignpatterns.org/ont/dul/DUL.owl#Agent
p206
aVhttp://www.ontologydesignpatterns.org/ont/dul/DUL.owl#SocialPerson
p207
aVhttp://www.wikidata.org/entity/Q43229
p208
aVhttp://dbpedia.org/ontology/Agent
p209
aVhttp://dbpedia.org/ontology/Organisation
p210
aVhttp://schema.org/Organization
p211
aVhttp://umbel.org/umbel/rc/Business
p212
aVhttp://umbel.org/umbel/rc/Organization
p213
aVhttp://dbpedia.org/class/yago/Abstraction100002137
p214
aVhttp://dbpedia.org/class/yago/Company108058098
p215
aVhttp://dbpedia.org/class/yago/Group100031264
p216
aVhttp://dbpedia.org/class/yago/Institution108053576
p217
aVhttp://dbpedia.org/class/yago/Organization108008335
p218
aVhttp://dbpedia.org/class/yago/SocialGroup107950920
p219
aVhttp://dbpedia.org/class/yago/YagoLegalActorGeo
p220
aVhttp://dbpedia.org/class/yago/CompaniesBasedInSlough
p221
aVhttp://dbpedia.org/class/yago/CompaniesEstablishedIn1999
p222
aVhttp://dbpedia.org/class/yago/CompaniesListedOnTheLondonStockExchange
p223
aVhttp://dbpedia.org/class/yago/FoodCompany108003427
p224
aVhttp://dbpedia.org/class/yago/YagoPermanentlyLocatedEntity
p225
aVhttp://dbpedia.org/class/yago/MultinationalFoodCompanies
p226
aVhttp://dbpedia.org/class/yago/YagoLegalActor
p227
aVhttp://dbpedia.org/resource/Reckitt_Benckiser
tp228
aaa(lp229
(lp230
a(lp231
a(lp232
((lp233
Vhttp://www.w3.org/2002/07/owl#Thing
p234
aVhttp://dbpedia.org/ontology/Company
p235
aVhttp://www.ontologydesignpatterns.org/ont/dul/DUL.owl#Agent
p236
aVhttp://www.ontologydesignpatterns.org/ont/dul/DUL.owl#SocialPerson
p237
aVhttp://www.wikidata.org/entity/Q43229
p238
aVhttp://dbpedia.org/ontology/Agent
p239
aVhttp://dbpedia.org/ontology/Organisation
p240
aVhttp://schema.org/Organization
p241
aVhttp://umbel.org/umbel/rc/Business
p242
aVhttp://umbel.org/umbel/rc/Organization
p243
aVhttp://dbpedia.org/class/yago/Abstraction100002137
p244
aVhttp://dbpedia.org/class/yago/Company108058098
p245
aVhttp://dbpedia.org/class/yago/Group100031264
p246
aVhttp://dbpedia.org/class/yago/Institution108053576
p247
aVhttp://dbpedia.org/class/yago/Organization108008335
p248
aVhttp://dbpedia.org/class/yago/SocialGroup107950920
p249
aVhttp://dbpedia.org/class/yago/YagoLegalActorGeo
p250
aVhttp://dbpedia.org/class/yago/CompaniesBasedInSlough
p251
aVhttp://dbpedia.org/class/yago/CompaniesEstablishedIn1999
p252
aVhttp://dbpedia.org/class/yago/CompaniesListedOnTheLondonStockExchange
p253
aVhttp://dbpedia.org/class/yago/FoodCompany108003427
p254
aVhttp://dbpedia.org/class/yago/YagoPermanentlyLocatedEntity
p255
aVhttp://dbpedia.org/class/yago/MultinationalFoodCompanies
p256
aVhttp://dbpedia.org/class/yago/YagoLegalActor
p257
aVhttp://dbpedia.org/resource/Reckitt_Benckiser
tp258
aaa(lp259
(lp260
a(lp261
a(lp262
((lp263
Vhttp://www.w3.org/2002/07/owl#Thing
p264
aVhttp://dbpedia.org/ontology/Company
p265
aVhttp://www.ontologydesignpatterns.org/ont/dul/DUL.owl#Agent
p266
aVhttp://www.ontologydesignpatterns.org/ont/dul/DUL.owl#SocialPerson
p267
aVhttp://www.wikidata.org/entity/Q43229
p268
aVhttp://dbpedia.org/ontology/Agent
p269
aVhttp://dbpedia.org/ontology/Organisation
p270
aVhttp://schema.org/Organization
p271
aVhttp://umbel.org/umbel/rc/Business
p272
aVhttp://umbel.org/umbel/rc/Organization
p273
aVhttp://dbpedia.org/class/yago/Abstraction100002137
p274
aVhttp://dbpedia.org/class/yago/Company108058098
p275
aVhttp://dbpedia.org/class/yago/Group100031264
p276
aVhttp://dbpedia.org/class/yago/Institution108053576
p277
aVhttp://dbpedia.org/class/yago/Organization108008335
p278
aVhttp://dbpedia.org/class/yago/SocialGroup107950920
p279
aVhttp://dbpedia.org/class/yago/YagoLegalActorGeo
p280
aVhttp://dbpedia.org/class/yago/CompaniesBasedInSlough
p281
aVhttp://dbpedia.org/class/yago/CompaniesEstablishedIn1999
p282
aVhttp://dbpedia.org/class/yago/CompaniesListedOnTheLondonStockExchange
p283
aVhttp://dbpedia.org/class/yago/FoodCompany108003427
p284
aVhttp://dbpedia.org/class/yago/YagoPermanentlyLocatedEntity
p285
aVhttp://dbpedia.org/class/yago/MultinationalFoodCompanies
p286
aVhttp://dbpedia.org/class/yago/YagoLegalActor
p287
aVhttp://dbpedia.org/resource/Reckitt_Benckiser
p288
tp289
aaa.