(lp1
(lp2
(lp3
a(lp4
a(lp5
a(lp6
((lVhttp://dbpedia.org/resource/Null
tp7
aa(lp8
a(lp9
a(lp10
aa(lp11
(lp12
a(lp13
a(lp14
a(lp15
((lVhttp://dbpedia.org/resource/Null
tp16
aa(lp17
a(lp18
a(lp19
aa(lp20
(lp21
a(lp22
a(lp23
a(lp24
((lVhttp://dbpedia.org/resource/Null
tp25
aa(lp26
a(lp27
a(lp28
aa(lp29
(lp30
a(lp31
a(lp32
a(lp33
((lVhttp://dbpedia.org/resource/Null
tp34
aa(lp35
a(lp36
a(lp37
aa(lp38
(lp39
a(lp40
a(lp41
a(lp42
((lVhttp://dbpedia.org/resource/Null
tp43
aa(lp44
a(lp45
a(lp46
aa(lp47
(lp48
a(lp49
a(lp50
a(lp51
((lVhttp://dbpedia.org/resource/Null
tp52
aa(lp53
a(lp54
a(lp55
aa(lp56
(lp57
a(lp58
a(lp59
a(lp60
((lVhttp://dbpedia.org/resource/Null
tp61
aa(lp62
a(lp63
a(lp64
aa(lp65
(lp66
a(lp67
a(lp68
a(lp69
((lVhttp://dbpedia.org/resource/Null
tp70
aa(lp71
a(lp72
a(lp73
aa(lp74
(lp75
a(lp76
a(lp77
a(lp78
a(lp79
a(lp80
a(lp81
((lVhttp://dbpedia.org/resource/Null
tp82
aaa(lp83
(lp84
a(lp85
a(lp86
a(lp87
a(lp88
a(lp89
a(lp90
((lVhttp://dbpedia.org/resource/Null
tp91
aaa(lp92
(lp93
a(lp94
a(lp95
a(lp96
a(lp97
a(lp98
a(lp99
((lVhttp://dbpedia.org/resource/Null
tp100
aaa(lp101
(lp102
a(lp103
a(lp104
a(lp105
((lVhttp://dbpedia.org/resource/Null
tp106
aa(lp107
a(lp108
((lVhttp://dbpedia.org/resource/Pay_per_click
tp109
aa(lp110
((lVhttp://dbpedia.org/resource/Null
p111
tp112
aaa.