(lp1
(lp2
(lp3
Vhttp://dbpedia.org/resource/China
p4
aa(lp5
Vhttp://dbpedia.org/resource/Simplified_Chinese_characters
p6
aa(lp7
a(lp8
a(lp9
aa(lp10
(lp11
Vhttp://dbpedia.org/resource/Japan
p12
aa(lp13
Vhttp://dbpedia.org/resource/Japonic_languages
p14
aa(lp15
a(lp16
a(lp17
aa(lp18
(lp19
Vhttp://dbpedia.org/resource/Korea
p20
aa(lp21
Vhttp://dbpedia.org/resource/Hangul
p22
aa(lp23
a(lp24
a(lp25
aa(lp26
(lp27
Vhttp://dbpedia.org/resource/Taiwan
p28
aa(lp29
Vhttp://dbpedia.org/resource/Traditional_Chinese_law
p30
aa(lp31
a(lp32
a(lp33
aa(lp34
(lp35
Vhttp://dbpedia.org/resource/Brazil
p36
aa(lp37
Vhttp://dbpedia.org/resource/Sonnets_from_the_Portuguese
p38
aa(lp39
a(lp40
a(lp41
aa(lp42
(lp43
Vhttp://dbpedia.org/resource/France_2
p44
aa(lp45
Vhttp://dbpedia.org/resource/French_River_(Ontario)
p46
aa(lp47
a(lp48
a(lp49
aa(lp50
(lp51
Vhttp://dbpedia.org/resource/Germany
p52
aa(lp53
Vhttp://dbpedia.org/resource/Germany
p54
aa(lp55
a(lp56
a(lp57
aa(lp58
(lp59
Vhttp://dbpedia.org/resource/Italy
p60
aa(lp61
Vhttp://dbpedia.org/resource/Italy
p62
aa(lp63
a(lp64
a(lp65
aa(lp66
(lp67
Vhttp://dbpedia.org/resource/Russia
p68
aa(lp69
Vhttp://dbpedia.org/resource/Russia
p70
aa(lp71
a(lp72
a(lp73
aa(lp74
(lp75
Vhttp://dbpedia.org/resource/Spain
p76
aa(lp77
Vhttp://dbpedia.org/resource/Spanish,_Ontario
p78
aa(lp79
a(lp80
a(lp81
aa(lp82
(lp83
Vhttp://dbpedia.org/resource/India
p84
aa(lp85
Vhttp://dbpedia.org/resource/Culture_of_Assam
p86
aa(lp87
a(lp88
a(lp89
aa(lp90
(lp91
Vhttp://dbpedia.org/resource/India
p92
aa(lp93
Vhttp://dbpedia.org/resource/Bengali_alphabet
p94
aa(lp95
a(lp96
a(lp97
aa(lp98
(lp99
Vhttp://dbpedia.org/resource/India
p100
aa(lp101
Vhttp://dbpedia.org/resource/Gujarati
p102
aa(lp103
a(lp104
a(lp105
aa(lp106
(lp107
Vhttp://dbpedia.org/resource/India
p108
aa(lp109
Vhttp://dbpedia.org/resource/Hindi_Belt
p110
aa(lp111
a(lp112
a(lp113
aa(lp114
(lp115
Vhttp://dbpedia.org/resource/India
p116
aa(lp117
Vhttp://dbpedia.org/resource/Kannada_alphabet
p118
aa(lp119
a(lp120
a(lp121
aa(lp122
(lp123
Vhttp://dbpedia.org/resource/India
p124
aa(lp125
a(lp126
a(lp127
a(lp128
aa(lp129
(lp130
Vhttp://dbpedia.org/resource/India
p131
aa(lp132
Vhttp://dbpedia.org/resource/Marathi_literature
p133
aa(lp134
a(lp135
a(lp136
aa(lp137
(lp138
Vhttp://dbpedia.org/resource/India
p139
aa(lp140
Vhttp://dbpedia.org/resource/Oriya_alphabet
p141
aa(lp142
a(lp143
a(lp144
aa(lp145
(lp146
Vhttp://dbpedia.org/resource/India
p147
aa(lp148
Vhttp://dbpedia.org/resource/Punjabi_University
p149
aa(lp150
a(lp151
a(lp152
aa(lp153
(lp154
Vhttp://dbpedia.org/resource/India
p155
aa(lp156
Vhttp://dbpedia.org/resource/Tamil_Case_(Denmark)
p157
aa(lp158
a(lp159
a(lp160
aa.