(lp1
(lp2
(dp3
Vstart
p4
I0
sVdisambiguatedURL
p5
NsVnamedEntity
p6
Vcambodia
p7
sVoffset
p8
I8
saa(lp9
(dp10
Vstart
p11
I0
sVdisambiguatedURL
p12
NsVnamedEntity
p13
Vcameroon
p14
sVoffset
p15
I8
saa(lp16
(dp17
Vstart
p18
I0
sVdisambiguatedURL
p19
NsVnamedEntity
p20
Vcanada
p21
sVoffset
p22
I6
saa(lp23
(dp24
Vstart
p25
I0
sVdisambiguatedURL
p26
NsVnamedEntity
p27
Vcapeverde
p28
sVoffset
p29
I9
saa(lp30
(dp31
Vstart
p32
I0
sVdisambiguatedURL
p33
NsVnamedEntity
p34
Vcaymanislands
p35
sVoffset
p36
I13
saa(lp37
(dp38
Vstart
p39
I0
sVdisambiguatedURL
p40
NsVnamedEntity
p41
Vcentralafrican republic
p42
sVoffset
p43
I23
saa(lp44
(dp45
Vstart
p46
I0
sVdisambiguatedURL
p47
NsVnamedEntity
p48
Vchad
p49
sVoffset
p50
I4
saa(lp51
(dp52
Vstart
p53
I0
sVdisambiguatedURL
p54
NsVnamedEntity
p55
Vchile
p56
sVoffset
p57
I5
saa(lp58
(dp59
Vstart
p60
I0
sVdisambiguatedURL
p61
NsVnamedEntity
p62
Vchina
p63
sVoffset
p64
I5
saa(lp65
(dp66
Vstart
p67
I0
sVdisambiguatedURL
p68
NsVnamedEntity
p69
Vchristmasisland
p70
sVoffset
p71
I15
saa(lp72
(dp73
Vstart
p74
I0
sVdisambiguatedURL
p75
NsVnamedEntity
p76
Vclippertonisland
p77
sVoffset
p78
I16
saa(lp79
(dp80
Vstart
p81
I0
sVdisambiguatedURL
p82
NsVnamedEntity
p83
Vcocos(keeling) islands
p84
sVoffset
p85
I22
saa(lp86
(dp87
Vstart
p88
I0
sVdisambiguatedURL
p89
NsVnamedEntity
p90
Vcolombia
p91
sVoffset
p92
I8
saa(lp93
(dp94
Vstart
p95
I0
sVdisambiguatedURL
p96
NsVnamedEntity
p97
Vcomoros
p98
sVoffset
p99
I7
saa(lp100
(dp101
Vstart
p102
I0
sVdisambiguatedURL
p103
NsVnamedEntity
p104
Vcongodemocratic republic of the
p105
sVoffset
p106
I31
saa(lp107
(dp108
Vstart
p109
I0
sVdisambiguatedURL
p110
NsVnamedEntity
p111
Vcongorepublic of the
p112
sVoffset
p113
I20
saa(lp114
(dp115
Vstart
p116
I0
sVdisambiguatedURL
p117
NsVnamedEntity
p118
Vcookislands
p119
sVoffset
p120
I11
saa(lp121
(dp122
Vstart
p123
I0
sVdisambiguatedURL
p124
NsVnamedEntity
p125
Vcoralsea islands
p126
sVoffset
p127
I16
saa(lp128
(dp129
Vstart
p130
I0
sVdisambiguatedURL
p131
NsVnamedEntity
p132
Vcostarica
p133
sVoffset
p134
I9
saa(lp135
(dp136
Vstart
p137
I0
sVdisambiguatedURL
p138
NsVnamedEntity
p139
Vcoted'ivoire
p140
sVoffset
p141
I12
saa.