(lp1
(lp2
(lp3
Vhttp://dbpedia.org/resource/Aleksander_Doba
p4
aa(lp5
aa(lp6
(lp7
a(lp8
aa(lp9
(lp10
a(lp11
aa(lp12
(lp13
a(lp14
aa(lp15
(lp16
a(lp17
aa(lp18
(lp19
Vhttp://dbpedia.org/resource/Declan_John
p20
aa(lp21
aa(lp22
(lp23
a(lp24
aa(lp25
(lp26
a(lp27
aa(lp28
(lp29
a(lp30
aa(lp31
(lp32
a(lp33
aa(lp34
(lp35
a(lp36
aa(lp37
(lp38
a(lp39
aa(lp40
(lp41
a(lp42
aa(lp43
(lp44
a(lp45
aa(lp46
(lp47
a(lp48
aa(lp49
(lp50
a(lp51
aa(lp52
(lp53
a(lp54
aa(lp55
(lp56
a(lp57
aa(lp58
(lp59
Vhttp://dbpedia.org/resource/Brittany_York
p60
aa(lp61
aa.