(lp1
(lp2
(lp3
a(lp4
a(lp5
((lVhttp://dbpedia.org/resource/Null
tp6
aa(lp7
aa(lp8
(lp9
a(lp10
a(lp11
((lVhttp://dbpedia.org/resource/Null
tp12
aa(lp13
aa(lp14
(lp15
a(lp16
a(lp17
((lVhttp://dbpedia.org/resource/Null
tp18
aa(lp19
aa(lp20
(lp21
a(lp22
a(lp23
((lVhttp://dbpedia.org/resource/Null
tp24
aa(lp25
aa(lp26
(lp27
a(lp28
a(lp29
((lVhttp://dbpedia.org/resource/Null
tp30
aa(lp31
aa(lp32
(lp33
a(lp34
a(lp35
((lVhttp://dbpedia.org/resource/Null
tp36
aa(lp37
aa(lp38
(lp39
a(lp40
a(lp41
((lVhttp://dbpedia.org/resource/Null
tp42
aa(lp43
aa(lp44
(lp45
a(lp46
a(lp47
((lVhttp://dbpedia.org/resource/Null
tp48
aa(lp49
aa(lp50
(lp51
a(lp52
a(lp53
((lVhttp://dbpedia.org/resource/Null
tp54
aa(lp55
aa(lp56
(lp57
a(lp58
((lp59
Vhttp://www.w3.org/2002/07/owl#Thing
p60
aVhttp://dbpedia.org/ontology/Place
p61
aVhttp://dbpedia.org/ontology/Location
p62
aVhttp://www.wikidata.org/entity/Q23397
p63
aVhttp://dbpedia.org/ontology/BodyOfWater
p64
aVhttp://dbpedia.org/ontology/Lake
p65
aVhttp://dbpedia.org/ontology/NaturalPlace
p66
aVhttp://schema.org/BodyOfWater
p67
aVhttp://schema.org/LakeBodyOfWater
p68
aVhttp://schema.org/Place
p69
aVhttp://umbel.org/umbel/rc/BodyOfWater
p70
aVhttp://umbel.org/umbel/rc/Lake
p71
aVhttp://dbpedia.org/class/yago/BodyOfWater109225146
p72
aVhttp://dbpedia.org/class/yago/Lake109328904
p73
aVhttp://dbpedia.org/class/yago/Thing100002452
p74
aVhttp://dbpedia.org/class/yago/YagoGeoEntity
p75
aVhttp://dbpedia.org/class/yago/PhysicalEntity100001930
p76
aVhttp://dbpedia.org/class/yago/YagoPermanentlyLocatedEntity
p77
aVhttp://dbpedia.org/class/yago/LakesOfBritishColumbia
p78
aVhttp://dbpedia.org/resource/Anderson_Lake_(British_Columbia)
tp79
aa(lp80
((lVhttp://dbpedia.org/resource/Null
tp81
aa(lp82
aa(lp83
(lp84
a(lp85
a(lp86
((lVhttp://dbpedia.org/resource/Null
tp87
aa(lp88
aa(lp89
(lp90
a(lp91
a(lp92
((lVhttp://dbpedia.org/resource/Null
tp93
aa(lp94
aa(lp95
(lp96
a(lp97
a(lp98
((lVhttp://dbpedia.org/resource/Null
tp99
aa(lp100
aa(lp101
(lp102
a(lp103
a(lp104
((lVhttp://dbpedia.org/resource/Null
tp105
aa(lp106
aa(lp107
(lp108
a(lp109
((lp110
Vhttp://www.w3.org/2002/07/owl#Thing
p111
aVhttp://dbpedia.org/ontology/Place
p112
aVhttp://dbpedia.org/ontology/Location
p113
aVhttp://www.wikidata.org/entity/Q23397
p114
aVhttp://dbpedia.org/ontology/BodyOfWater
p115
aVhttp://dbpedia.org/ontology/Lake
p116
aVhttp://dbpedia.org/ontology/NaturalPlace
p117
aVhttp://schema.org/BodyOfWater
p118
aVhttp://schema.org/LakeBodyOfWater
p119
aVhttp://schema.org/Place
p120
aVhttp://umbel.org/umbel/rc/BodyOfWater
p121
aVhttp://umbel.org/umbel/rc/Lake
p122
aVhttp://dbpedia.org/class/yago/BodyOfWater109225146
p123
aVhttp://dbpedia.org/class/yago/Lake109328904
p124
aVhttp://dbpedia.org/class/yago/Thing100002452
p125
aVhttp://dbpedia.org/class/yago/YagoGeoEntity
p126
aVhttp://dbpedia.org/class/yago/PhysicalEntity100001930
p127
aVhttp://dbpedia.org/class/yago/YagoPermanentlyLocatedEntity
p128
aVhttp://dbpedia.org/resource/Apache_Lake_(Arizona)
tp129
aa(lp130
((lVhttp://dbpedia.org/resource/Null
tp131
aa(lp132
aa(lp133
(lp134
a(lp135
a(lp136
((lVhttp://dbpedia.org/resource/Null
tp137
aa(lp138
aa(lp139
(lp140
a(lp141
a(lp142
a(lp143
aa(lp144
(lp145
a(lp146
((lp147
Vhttp://www.w3.org/2002/07/owl#Thing
p148
aVhttp://dbpedia.org/ontology/Place
p149
aVhttp://dbpedia.org/ontology/Location
p150
aVhttp://www.wikidata.org/entity/Q23397
p151
aVhttp://dbpedia.org/ontology/BodyOfWater
p152
aVhttp://dbpedia.org/ontology/Lake
p153
aVhttp://dbpedia.org/ontology/NaturalPlace
p154
aVhttp://schema.org/BodyOfWater
p155
aVhttp://schema.org/LakeBodyOfWater
p156
aVhttp://schema.org/Place
p157
aVhttp://umbel.org/umbel/rc/BodyOfWater
p158
aVhttp://umbel.org/umbel/rc/Lake
p159
aVhttp://dbpedia.org/class/yago/Area108497294
p160
aVhttp://dbpedia.org/class/yago/BodyOfWater109225146
p161
aVhttp://dbpedia.org/class/yago/Lake109328904
p162
aVhttp://dbpedia.org/class/yago/Location100027167
p163
aVhttp://dbpedia.org/class/yago/Object100002684
p164
aVhttp://dbpedia.org/class/yago/Region108630985
p165
aVhttp://dbpedia.org/class/yago/Thing100002452
p166
aVhttp://dbpedia.org/class/yago/YagoGeoEntity
p167
aVhttp://dbpedia.org/class/yago/YagoLegalActorGeo
p168
aVhttp://dbpedia.org/class/yago/PhysicalEntity100001930
p169
aVhttp://dbpedia.org/class/yago/YagoPermanentlyLocatedEntity
p170
aVhttp://dbpedia.org/class/yago/ProtectedAreasOfOklahomaCounty,Oklahoma
p171
aVhttp://dbpedia.org/resource/Arcadia_Lake_(Oklahoma)
tp172
aa(lp173
((lVhttp://dbpedia.org/resource/Null
tp174
aa(lp175
aa(lp176
(lp177
a(lp178
a(lp179
((lVhttp://dbpedia.org/resource/Null
tp180
aa(lp181
aa(lp182
(lp183
a(lp184
a(lp185
((lVhttp://dbpedia.org/resource/Null
p186
tp187
aa(lp188
aa.