(lp1
(lp2
(lp3
((lp4
Vhttp://www.w3.org/2002/07/owl#Thing
p5
aVhttp://dbpedia.org/ontology/Place
p6
aVhttp://dbpedia.org/ontology/Location
p7
aVhttp://www.wikidata.org/entity/Q486972
p8
aVhttp://dbpedia.org/ontology/Continent
p9
aVhttp://dbpedia.org/ontology/PopulatedPlace
p10
aVhttp://schema.org/Continent
p11
aVhttp://schema.org/Place
p12
aVhttp://dbpedia.org/class/yago/Abstraction100002137
p13
aVhttp://dbpedia.org/class/yago/Economy108366753
p14
aVhttp://dbpedia.org/class/yago/Group100031264
p15
aVhttp://dbpedia.org/class/yago/Land109334396
p16
aVhttp://dbpedia.org/class/yago/Object100002684
p17
aVhttp://dbpedia.org/class/yago/System108435388
p18
aVhttp://dbpedia.org/class/yago/YagoGeoEntity
p19
aVhttp://dbpedia.org/class/yago/Continent109254614
p20
aVhttp://dbpedia.org/class/yago/Continents
p21
aVhttp://dbpedia.org/class/yago/EconomiesByRegion
p22
aVhttp://dbpedia.org/class/yago/Landmass109335916
p23
aVhttp://dbpedia.org/class/yago/PhysicalEntity100001930
p24
aVhttp://dbpedia.org/class/yago/YagoPermanentlyLocatedEntity
p25
aVhttp://dbpedia.org/resource/Oceania
p26
tp27
aa(lp28
a(lp29
a(lp30
aa(lp31
(lp32
a(lp33
a(lp34
a(lp35
aa(lp36
(lp37
a(lp38
a(lp39
a(lp40
aa(lp41
(lp42
a(lp43
a(lp44
a(lp45
aa(lp46
(lp47
a(lp48
a(lp49
a(lp50
aa(lp51
(lp52
a(lp53
a(lp54
a(lp55
aa(lp56
(lp57
a(lp58
a(lp59
a(lp60
aa(lp61
(lp62
a(lp63
a(lp64
a(lp65
aa(lp66
(lp67
a(lp68
a(lp69
a(lp70
aa(lp71
(lp72
a(lp73
a(lp74
a(lp75
aa(lp76
(lp77
a(lp78
a(lp79
a(lp80
aa(lp81
(lp82
a(lp83
a(lp84
a(lp85
aa(lp86
(lp87
a(lp88
a(lp89
a(lp90
aa(lp91
(lp92
a(lp93
a(lp94
a(lp95
aa(lp96
(lp97
a(lp98
a(lp99
a(lp100
aa(lp101
(lp102
a(lp103
a(lp104
a(lp105
aa(lp106
(lp107
a(lp108
a(lp109
a(lp110
aa(lp111
(lp112
a(lp113
a(lp114
a(lp115
aa(lp116
(lp117
a(lp118
a(lp119
a(lp120
aa(lp121
(lp122
a(lp123
a(lp124
a(lp125
aa.