(lp1
(lp2
(lp3
a(lp4
aa(lp5
(lp6
a(lp7
((lVhttp://dbpedia.org/resource/Null
tp8
aaa(lp9
(lp10
a(lp11
aa(lp12
(lp13
a(lp14
aa(lp15
(lp16
a(lp17
((lVhttp://dbpedia.org/resource/Null
tp18
aaa(lp19
(lp20
a(lp21
((lVhttp://dbpedia.org/resource/Null
tp22
aaa(lp23
(lp24
a(lp25
((lVhttp://dbpedia.org/resource/Null
tp26
aaa(lp27
(lp28
a(lp29
((lVhttp://dbpedia.org/resource/Null
p30
tp31
aaa(lp32
(lp33
a(lp34
aa(lp35
(lp36
a(lp37
aa(lp38
(lp39
a(lp40
aa.