(lp1
(dp2
I0
(dp3
I0
(lp4
sI1
(lp5
sI2
(lp6
sI3
(lp7
ssI1
(dp8
I0
g5
sI1
(lp9
sI2
(lp10
sI3
(lp11
Vhttp://dbpedia.org/property/placeOfDeath
p12
aVhttp://dbpedia.org/property/region
p13
aVhttp://dbpedia.org/property/recorded
p14
aVhttp://dbpedia.org/ontology/hometown
p15
aVhttp://dbpedia.org/property/stadium
p16
aVhttp://dbpedia.org/ontology/birthPlace
p17
aVhttp://dbpedia.org/ontology/recordedIn
p18
aVhttp://dbpedia.org/property/deathPlace
p19
aVhttp://dbpedia.org/property/location
p20
aVhttp://dbpedia.org/property/city
p21
aVhttp://dbpedia.org/property/birthPlace
p22
aVhttp://dbpedia.org/ontology/deathPlace
p23
aVhttp://dbpedia.org/ontology/spokenIn
p24
aVhttp://purl.org/dc/terms/subject
p25
aVhttp://dbpedia.org/property/nowBased
p26
aVhttp://dbpedia.org/property/data
p27
aVhttp://dbpedia.org/ontology/city
p28
aVhttp://dbpedia.org/property/placeOfBirth
p29
assI2
(dp30
I0
g6
sI1
g10
sI2
(lp31
sI3
(lp32
ssI3
(dp33
I0
g7
sI1
g11
sI2
g32
sI3
(lp34
ssa(dp35
I0
(dp36
I0
(lp37
sI1
(lp38
Vhttp://www.w3.org/2000/01/rdf-schema#seeAlso
p39
aVhttp://dbpedia.org/ontology/country
p40
aVhttp://dbpedia.org/property/headquarters
p41
aVhttp://dbpedia.org/property/origin
p42
aVhttp://www.w3.org/2000/01/rdf-schema#comment
p43
aVhttp://dbpedia.org/ontology/locationCountry
p44
aVhttp://dbpedia.org/ontology/birthPlace
p45
aVhttp://dbpedia.org/property/locationCountry
p46
aVhttp://dbpedia.org/property/location
p47
aVhttp://dbpedia.org/property/countryLargestCity
p48
aVhttp://dbpedia.org/ontology/hometown
p49
aVhttp://dbpedia.org/property/birthPlace
p50
aVhttp://dbpedia.org/ontology/headquarter
p51
aVhttp://dbpedia.org/ontology/largestCity
p52
aVhttp://dbpedia.org/property/country
p53
aVhttp://dbpedia.org/ontology/abstract
p54
aVhttp://dbpedia.org/property/placeOfBirth
p55
asI2
(lp56
sI3
(lp57
ssI1
(dp58
I0
g38
sI1
(lp59
sI2
(lp60
sI3
(lp61
ssI2
(dp62
I0
g56
sI1
g60
sI2
(lp63
sI3
(lp64
ssI3
(dp65
I0
g57
sI1
g61
sI2
g64
sI3
(lp66
ssa(dp67
I0
(dp68
I0
(lp69
sI1
(lp70
sI2
(lp71
sI3
(lp72
Vhttp://dbpedia.org/ontology/abstract
p73
aVhttp://purl.org/dc/terms/subject
p74
aVhttp://www.w3.org/2000/01/rdf-schema#comment
p75
assI1
(dp76
I0
g70
sI1
(lp77
sI2
(lp78
sI3
(lp79
Vhttp://www.w3.org/2000/01/rdf-schema#seeAlso
p80
aVhttp://dbpedia.org/property/origin
p81
aVhttp://dbpedia.org/property/place
p82
aVhttp://dbpedia.org/property/city
p83
aVhttp://dbpedia.org/property/placeOfDeath
p84
aVhttp://dbpedia.org/ontology/capital
p85
aVhttp://dbpedia.org/property/capital
p86
aVhttp://dbpedia.org/property/birthPlace
p87
aVhttp://dbpedia.org/ontology/place
p88
aVhttp://dbpedia.org/property/placeOfBirth
p89
aVhttp://dbpedia.org/property/office
p90
aVhttp://purl.org/dc/terms/subject
p91
aVhttp://dbpedia.org/ontology/populationPlace
p92
aVhttp://dbpedia.org/property/location
p93
aVhttp://dbpedia.org/property/deathPlace
p94
aVhttp://dbpedia.org/ontology/deathPlace
p95
aVhttp://dbpedia.org/ontology/city
p96
aVhttp://dbpedia.org/property/shipNamesake
p97
aVhttp://dbpedia.org/ontology/location
p98
aVhttp://dbpedia.org/property/headquarters
p99
aVhttp://dbpedia.org/property/residence
p100
aVhttp://dbpedia.org/ontology/birthPlace
p101
aVhttp://dbpedia.org/property/seat
p102
aVhttp://dbpedia.org/ontology/hometown
p103
aVhttp://dbpedia.org/property/popplace
p104
aVhttp://dbpedia.org/property/stadium
p105
aVhttp://dbpedia.org/ontology/headquarter
p106
assI2
(dp107
I0
g71
sI1
g78
sI2
(lp108
sI3
(lp109
ssI3
(dp110
I0
g72
sI1
g79
sI2
g109
sI3
(lp111
ssa(dp112
I0
(dp113
I0
(lp114
sI1
(lp115
Vhttp://www.w3.org/2000/01/rdf-schema#seeAlso
p116
aVhttp://dbpedia.org/property/origin
p117
aVhttp://dbpedia.org/ontology/origin
p118
aVhttp://dbpedia.org/property/restingPlace
p119
aVhttp://dbpedia.org/property/place
p120
aVhttp://dbpedia.org/ontology/foundationPlace
p121
aVhttp://dbpedia.org/property/namedFor
p122
aVhttp://dbpedia.org/property/city
p123
aVhttp://dbpedia.org/property/caption
p124
aVhttp://dbpedia.org/property/capital
p125
aVhttp://dbpedia.org/ontology/country
p126
aVhttp://dbpedia.org/property/region
p127
aVhttp://dbpedia.org/ontology/capital
p128
aVhttp://dbpedia.org/property/endowment
p129
aVhttp://dbpedia.org/property/locationCountry
p130
aVhttp://dbpedia.org/property/image
p131
aVhttp://dbpedia.org/ontology/ground
p132
aVhttp://dbpedia.org/ontology/nationality
p133
aVhttp://dbpedia.org/property/birthPlace
p134
aVhttp://dbpedia.org/ontology/place
p135
aVhttp://dbpedia.org/property/placeOfBirth
p136
aVhttp://dbpedia.org/property/stateParty
p137
aVhttp://dbpedia.org/property/country
p138
aVhttp://dbpedia.org/property/dateOfBirth
p139
aVhttp://dbpedia.org/property/nationality
p140
aVhttp://dbpedia.org/ontology/abstract
p141
aVhttp://dbpedia.org/ontology/recordedIn
p142
aVhttp://dbpedia.org/property/venue
p143
aVhttp://dbpedia.org/property/location
p144
aVhttp://dbpedia.org/property/cityServed
p145
aVhttp://dbpedia.org/ontology/locationCountry
p146
aVhttp://dbpedia.org/ontology/headquarter
p147
aVhttp://dbpedia.org/ontology/city
p148
aVhttp://dbpedia.org/property/nationalOrigin
p149
aVhttp://dbpedia.org/ontology/location
p150
aVhttp://dbpedia.org/property/locale
p151
aVhttp://dbpedia.org/property/states
p152
aVhttp://dbpedia.org/ontology/stateOfOrigin
p153
aVhttp://dbpedia.org/property/headquarters
p154
aVhttp://dbpedia.org/ontology/residence
p155
aVhttp://dbpedia.org/property/residence
p156
aVhttp://dbpedia.org/ontology/birthPlace
p157
aVhttp://www.w3.org/2000/01/rdf-schema#comment
p158
aVhttp://dbpedia.org/ontology/hometown
p159
aVhttp://www.w3.org/2002/07/owl#sameAs
p160
aVhttp://dbpedia.org/property/basedIn
p161
aVhttp://dbpedia.org/ontology/spokenIn
p162
aVhttp://dbpedia.org/ontology/language
p163
aVhttp://dbpedia.org/property/dateOfDeath
p164
aVhttp://dbpedia.org/property/stadium
p165
aVhttp://dbpedia.org/ontology/homeStadium
p166
asI2
(lp167
sI3
(lp168
Vhttp://dbpedia.org/property/origin
p169
aVhttp://dbpedia.org/property/placeOfDeath
p170
aVhttp://dbpedia.org/property/broadcastArea
p171
aVhttp://dbpedia.org/property/sovereigntyType
p172
aVhttp://www.w3.org/ns/prov#wasDerivedFrom
p173
aVhttp://dbpedia.org/ontology/fastestDriverCountry
p174
aVhttp://dbpedia.org/ontology/demonym
p175
aVhttp://dbpedia.org/ontology/regionServed
p176
aVhttp://dbpedia.org/ontology/nationality
p177
aVhttp://xmlns.com/foaf/0.1/isPrimaryTopicOf
p178
aVhttp://dbpedia.org/property/byCountry
p179
aVhttp://dbpedia.org/property/establishedEvent
p180
aVhttp://dbpedia.org/property/nationality
p181
aVhttp://dbpedia.org/ontology/abstract
p182
aVhttp://dbpedia.org/ontology/recordedIn
p183
aVhttp://dbpedia.org/ontology/architecturalStyle
p184
aVhttp://dbpedia.org/ontology/location
p185
aVhttp://dbpedia.org/property/imageMap
p186
aVhttp://dbpedia.org/property/officialLanguages
p187
aVhttp://dbpedia.org/property/area
p188
aVhttp://dbpedia.org/ontology/hometown
p189
aVhttp://dbpedia.org/ontology/spokenIn
p190
aVhttp://dbpedia.org/property/leaderTitle
p191
aVhttp://www.w3.org/2000/01/rdf-schema#seeAlso
p192
aVhttp://dbpedia.org/ontology/wikiPageExternalLink
p193
aVhttp://dbpedia.org/property/hostCity
p194
aVhttp://dbpedia.org/property/conventionalLongName
p195
aVhttp://dbpedia.org/ontology/foundationPlace
p196
aVhttp://dbpedia.org/ontology/poleDriverCountry
p197
aVhttp://dbpedia.org/ontology/locatedInArea
p198
aVhttp://dbpedia.org/ontology/officialLanguage
p199
aVhttp://dbpedia.org/ontology/country
p200
aVhttp://dbpedia.org/property/birthPlace
p201
aVhttp://dbpedia.org/property/country/region
p202
aVhttp://dbpedia.org/property/country
p203
aVhttp://dbpedia.org/ontology/county
p204
aVhttp://xmlns.com/foaf/0.1/primaryTopic
p205
aVhttp://dbpedia.org/ontology/campus
p206
aVhttp://dbpedia.org/ontology/firstDriverCountry
p207
aVhttp://dbpedia.org/property/states
p208
aVhttp://dbpedia.org/ontology/locationCountry
p209
aVhttp://dbpedia.org/ontology/deathPlace
p210
aVhttp://dbpedia.org/property/hasPhotoCollection
p211
aVhttp://dbpedia.org/property/locationSigned
p212
aVhttp://dbpedia.org/property/headquarters
p213
aVhttp://dbpedia.org/ontology/birthPlace
p214
aVhttp://dbpedia.org/ontology/wikiPageRedirects
p215
aVhttp://dbpedia.org/property/citizenship
p216
aVhttp://dbpedia.org/property/imageCoat
p217
aVhttp://dbpedia.org/ontology/stateOfOrigin
p218
aVhttp://www.w3.org/2002/07/owl#sameAs
p219
aVhttp://dbpedia.org/property/recorded
p220
aVhttp://dbpedia.org/ontology/longName
p221
aVhttp://www.w3.org/1999/02/22-rdf-syntax-ns#type
p222
aVhttp://dbpedia.org/property/locationCountry
p223
aVhttp://dbpedia.org/ontology/secondDriverCountry
p224
aVhttp://dbpedia.org/property/winnerOrigin
p225
aVhttp://dbpedia.org/property/namedAfter
p226
aVhttp://dbpedia.org/property/shipCountry
p227
aVhttp://dbpedia.org/property/placeOfBirth
p228
aVhttp://xmlns.com/foaf/0.1/depiction
p229
aVhttp://dbpedia.org/property/observedby
p230
aVhttp://dbpedia.org/ontology/flag
p231
aVhttp://dbpedia.org/property/commonName
p232
aVhttp://dbpedia.org/property/subdivisionName
p233
aVhttp://dbpedia.org/property/locationCity
p234
aVhttp://dbpedia.org/property/nat
p235
aVhttp://dbpedia.org/ontology/broadcastArea
p236
aVhttp://dbpedia.org/property/stadium
p237
aVhttp://dbpedia.org/property/place
p238
aVhttp://dbpedia.org/property/footnoteA
p239
aVhttp://dbpedia.org/property/caption
p240
aVhttp://dbpedia.org/ontology/thirdDriverCountry
p241
aVhttp://www.w3.org/2002/07/owl#differentFrom
p242
aVhttp://dbpedia.org/property/upperHouse
p243
aVhttp://dbpedia.org/property/locations
p244
aVhttp://dbpedia.org/ontology/place
p245
aVhttp://dbpedia.org/property/language
p246
aVhttp://dbpedia.org/property/imageFlag
p247
aVhttp://dbpedia.org/ontology/wikiPageDisambiguates
p248
aVhttp://purl.org/dc/terms/subject
p249
aVhttp://dbpedia.org/ontology/populationPlace
p250
aVhttp://dbpedia.org/property/location
p251
aVhttp://dbpedia.org/property/armiger
p252
aVhttp://dbpedia.org/ontology/headquarter
p253
aVhttp://dbpedia.org/property/foundation
p254
aVhttp://www.w3.org/2000/01/rdf-schema#label
p255
aVhttp://dbpedia.org/ontology/language
p256
aVhttp://dbpedia.org/property/title
p257
aVhttp://dbpedia.org/property/basinCountries
p258
aVhttp://www.w3.org/2000/01/rdf-schema#comment
p259
aVhttp://dbpedia.org/property/seat
p260
aVhttp://dbpedia.org/property/demonym
p261
aVhttp://dbpedia.org/property/regionServed
p262
aVhttp://xmlns.com/foaf/0.1/name
p263
aVhttp://dbpedia.org/ontology/locationCity
p264
aVhttp://dbpedia.org/property/buried
p265
aVhttp://dbpedia.org/ontology/thumbnail
p266
assI1
(dp267
I0
g115
sI1
(lp268
sI2
(lp269
sI3
(lp270
Vhttp://www.w3.org/2000/01/rdf-schema#seeAlso
p271
aVhttp://dbpedia.org/property/origin
p272
aVhttp://dbpedia.org/property/hostCity
p273
aVhttp://dbpedia.org/property/homeStadium
p274
aVhttp://dbpedia.org/property/mapText
p275
aVhttp://dbpedia.org/property/city
p276
aVhttp://dbpedia.org/ontology/garrison
p277
aVhttp://dbpedia.org/ontology/leaderParty
p278
aVhttp://dbpedia.org/ontology/campus
p279
aVhttp://dbpedia.org/ontology/country
p280
aVhttp://dbpedia.org/property/region
p281
aVhttp://www.w3.org/1999/02/22-rdf-syntax-ns#type
p282
aVhttp://dbpedia.org/ontology/capital
p283
aVhttp://dbpedia.org/property/map
p284
aVhttp://dbpedia.org/property/leadersSeat
p285
aVhttp://dbpedia.org/property/capital
p286
aVhttp://dbpedia.org/property/birthPlace
p287
aVhttp://dbpedia.org/property/placeOfBirth
p288
aVhttp://dbpedia.org/property/office
p289
aVhttp://dbpedia.org/property/locationSigned
p290
aVhttp://dbpedia.org/property/rulingParty
p291
aVhttp://dbpedia.org/property/meetingPlace
p292
aVhttp://purl.org/dc/terms/subject
p293
aVhttp://dbpedia.org/ontology/populationPlace
p294
aVhttp://dbpedia.org/ontology/abstract
p295
aVhttp://dbpedia.org/property/winnerOrigin
p296
aVhttp://dbpedia.org/property/location
p297
aVhttp://dbpedia.org/property/regions
p298
aVhttp://dbpedia.org/ontology/deathPlace
p299
aVhttp://dbpedia.org/ontology/city
p300
aVhttp://dbpedia.org/ontology/location
p301
aVhttp://dbpedia.org/property/headquarters
p302
aVhttp://www.w3.org/2000/01/rdf-schema#comment
p303
aVhttp://dbpedia.org/ontology/birthPlace
p304
aVhttp://dbpedia.org/ontology/wikiPageRedirects
p305
aVhttp://dbpedia.org/property/seat
p306
aVhttp://dbpedia.org/ontology/hometown
p307
aVhttp://dbpedia.org/ontology/restingPlace
p308
aVhttp://dbpedia.org/ontology/spokenIn
p309
aVhttp://dbpedia.org/property/garrison
p310
aVhttp://dbpedia.org/property/residence
p311
aVhttp://dbpedia.org/property/popplace
p312
aVhttp://dbpedia.org/property/stadium
p313
aVhttp://dbpedia.org/ontology/headquarter
p314
assI2
(dp315
I0
g167
sI1
g269
sI2
(lp316
sI3
(lp317
ssI3
(dp318
I0
g168
sI1
g270
sI2
g317
sI3
(lp319
ssa(dp320
I0
(dp321
I0
(lp322
sI1
(lp323
Vhttp://www.w3.org/2000/01/rdf-schema#seeAlso
p324
aVhttp://dbpedia.org/ontology/country
p325
aVhttp://dbpedia.org/ontology/state
p326
aVhttp://dbpedia.org/property/locale
p327
aVhttp://www.w3.org/2000/01/rdf-schema#comment
p328
aVhttp://dbpedia.org/ontology/abstract
p329
aVhttp://dbpedia.org/ontology/recordedIn
p330
aVhttp://dbpedia.org/property/location
p331
aVhttp://dbpedia.org/property/discoverySite
p332
aVhttp://dbpedia.org/ontology/ground
p333
aVhttp://dbpedia.org/property/state
p334
aVhttp://dbpedia.org/property/city
p335
aVhttp://dbpedia.org/ontology/garrison
p336
aVhttp://dbpedia.org/property/ground
p337
aVhttp://dbpedia.org/property/headquarters
p338
aVhttp://dbpedia.org/ontology/city
p339
aVhttp://dbpedia.org/property/country
p340
aVhttp://dbpedia.org/property/fullname
p341
aVhttp://dbpedia.org/property/garrison
p342
aVhttp://dbpedia.org/property/subdivisionName
p343
aVhttp://dbpedia.org/ontology/location
p344
asI2
(lp345
sI3
(lp346
Vhttp://www.w3.org/2000/01/rdf-schema#seeAlso
p347
aVhttp://dbpedia.org/property/origin
p348
aVhttp://dbpedia.org/ontology/poleDriverCountry
p349
aVhttp://dbpedia.org/ontology/demonym
p350
aVhttp://dbpedia.org/property/demonym
p351
aVhttp://dbpedia.org/ontology/country
p352
aVhttp://www.w3.org/1999/02/22-rdf-syntax-ns#type
p353
aVhttp://dbpedia.org/property/locationCountry
p354
aVhttp://dbpedia.org/ontology/secondDriverCountry
p355
aVhttp://dbpedia.org/property/allegiance
p356
aVhttp://dbpedia.org/property/birthPlace
p357
aVhttp://dbpedia.org/ontology/place
p358
aVhttp://dbpedia.org/ontology/ethnicGroup
p359
aVhttp://dbpedia.org/property/office
p360
aVhttp://dbpedia.org/property/garrison
p361
aVhttp://dbpedia.org/property/country
p362
aVhttp://dbpedia.org/property/shipCountry
p363
aVhttp://dbpedia.org/property/areaServed
p364
aVhttp://dbpedia.org/property/placeOfBirth
p365
aVhttp://dbpedia.org/ontology/ideology
p366
aVhttp://purl.org/dc/terms/subject
p367
aVhttp://dbpedia.org/property/ideology
p368
aVhttp://dbpedia.org/ontology/abstract
p369
aVhttp://dbpedia.org/ontology/firstDriverCountry
p370
aVhttp://dbpedia.org/property/location
p371
aVhttp://dbpedia.org/property/states
p372
aVhttp://dbpedia.org/ontology/locationCountry
p373
aVhttp://dbpedia.org/ontology/headquarter
p374
aVhttp://dbpedia.org/ontology/language
p375
aVhttp://dbpedia.org/ontology/location
p376
aVhttp://dbpedia.org/property/languages
p377
aVhttp://dbpedia.org/ontology/territory
p378
aVhttp://dbpedia.org/property/shipBuilder
p379
aVhttp://dbpedia.org/property/headquarters
p380
aVhttp://www.w3.org/2000/01/rdf-schema#comment
p381
aVhttp://dbpedia.org/ontology/birthPlace
p382
aVhttp://dbpedia.org/ontology/wikiPageRedirects
p383
aVhttp://dbpedia.org/ontology/hometown
p384
aVhttp://dbpedia.org/ontology/garrison
p385
aVhttp://dbpedia.org/property/locationCity
p386
aVhttp://dbpedia.org/ontology/spokenIn
p387
aVhttp://dbpedia.org/ontology/builder
p388
aVhttp://dbpedia.org/property/jurisdiction
p389
aVhttp://dbpedia.org/ontology/locationCity
p390
aVhttp://dbpedia.org/ontology/deathPlace
p391
assI1
(dp392
I0
g323
sI1
(lp393
sI2
(lp394
sI3
(lp395
Vhttp://dbpedia.org/ontology/alias
p396
aVhttp://dbpedia.org/ontology/abstract
p397
aVhttp://www.w3.org/2000/01/rdf-schema#comment
p398
assI2
(dp399
I0
g345
sI1
g394
sI2
(lp400
sI3
(lp401
ssI3
(dp402
I0
g346
sI1
g395
sI2
g401
sI3
(lp403
ssa(dp404
I0
(dp405
I0
(lp406
sI1
(lp407
Vhttp://www.w3.org/2000/01/rdf-schema#seeAlso
p408
aVhttp://dbpedia.org/property/placeOfDeath
p409
aVhttp://dbpedia.org/ontology/majorShrine
p410
aVhttp://dbpedia.org/ontology/language
p411
aVhttp://dbpedia.org/property/place
p412
aVhttp://dbpedia.org/ontology/poleDriverCountry
p413
aVhttp://dbpedia.org/ontology/country
p414
aVhttp://dbpedia.org/property/assembly
p415
aVhttp://dbpedia.org/property/majorShrine
p416
aVhttp://dbpedia.org/property/parties
p417
aVhttp://dbpedia.org/ontology/nationality
p418
aVhttp://dbpedia.org/property/birthPlace
p419
aVhttp://dbpedia.org/ontology/place
p420
aVhttp://dbpedia.org/property/placeOfBirth
p421
aVhttp://dbpedia.org/property/locationSigned
p422
aVhttp://dbpedia.org/property/country
p423
aVhttp://dbpedia.org/property/nationality
p424
aVhttp://dbpedia.org/ontology/abstract
p425
aVhttp://dbpedia.org/ontology/firstDriverCountry
p426
aVhttp://dbpedia.org/property/location
p427
aVhttp://dbpedia.org/property/deathPlace
p428
aVhttp://dbpedia.org/ontology/deathPlace
p429
aVhttp://dbpedia.org/property/fullname
p430
aVhttp://dbpedia.org/property/nationalOrigin
p431
aVhttp://dbpedia.org/property/locale
p432
aVhttp://dbpedia.org/ontology/assembly
p433
aVhttp://dbpedia.org/ontology/location
p434
aVhttp://dbpedia.org/ontology/birthPlace
p435
asI2
(lp436
sI3
(lp437
Vhttp://www.w3.org/2000/01/rdf-schema#seeAlso
p438
aVhttp://dbpedia.org/property/origin
p439
aVhttp://dbpedia.org/property/stadium
p440
aVhttp://dbpedia.org/property/recorded
p441
aVhttp://dbpedia.org/property/broadcastArea
p442
aVhttp://dbpedia.org/ontology/origin
p443
aVhttp://dbpedia.org/property/conventionalLongName
p444
aVhttp://dbpedia.org/property/bases
p445
aVhttp://dbpedia.org/property/place
p446
aVhttp://dbpedia.org/ontology/jurisdiction
p447
aVhttp://dbpedia.org/ontology/foundationPlace
p448
aVhttp://dbpedia.org/property/city
p449
aVhttp://dbpedia.org/ontology/garrison
p450
aVhttp://dbpedia.org/ontology/longName
p451
aVhttp://dbpedia.org/property/legislature
p452
aVhttp://dbpedia.org/ontology/fastestDriverCountry
p453
aVhttp://dbpedia.org/property/footnoteB
p454
aVhttp://dbpedia.org/ontology/demonym
p455
aVhttp://dbpedia.org/ontology/officialLanguage
p456
aVhttp://dbpedia.org/ontology/regionServed
p457
aVhttp://dbpedia.org/ontology/country
p458
aVhttp://www.w3.org/1999/02/22-rdf-syntax-ns#type
p459
aVhttp://www.w3.org/2002/07/owl#differentFrom
p460
aVhttp://dbpedia.org/property/locationCountry
p461
aVhttp://dbpedia.org/ontology/secondDriverCountry
p462
aVhttp://dbpedia.org/property/allegiance
p463
aVhttp://dbpedia.org/property/site
p464
aVhttp://dbpedia.org/property/combatant
p465
aVhttp://dbpedia.org/property/country/region
p466
aVhttp://dbpedia.org/ontology/place
p467
aVhttp://dbpedia.org/property/placeOfBirth
p468
aVhttp://dbpedia.org/property/country
p469
aVhttp://dbpedia.org/property/shipCountry
p470
aVhttp://dbpedia.org/property/establishedEvent
p471
aVhttp://dbpedia.org/ontology/targetAirport
p472
aVhttp://purl.org/dc/terms/subject
p473
aVhttp://dbpedia.org/ontology/populationPlace
p474
aVhttp://dbpedia.org/ontology/abstract
p475
aVhttp://dbpedia.org/ontology/recordedIn
p476
aVhttp://dbpedia.org/ontology/firstDriverCountry
p477
aVhttp://dbpedia.org/property/location
p478
aVhttp://dbpedia.org/ontology/usingCountry
p479
aVhttp://dbpedia.org/property/states
p480
aVhttp://dbpedia.org/ontology/locationCountry
p481
aVhttp://dbpedia.org/ontology/headquarter
p482
aVhttp://dbpedia.org/ontology/city
p483
aVhttp://dbpedia.org/property/shipNamesake
p484
aVhttp://dbpedia.org/ontology/language
p485
aVhttp://dbpedia.org/property/officialLanguages
p486
aVhttp://dbpedia.org/property/basinCountries
p487
aVhttp://dbpedia.org/property/garrison
p488
aVhttp://dbpedia.org/ontology/location
p489
aVhttp://dbpedia.org/property/birthPlace
p490
aVhttp://dbpedia.org/ontology/birthPlace
p491
aVhttp://www.w3.org/2000/01/rdf-schema#comment
p492
aVhttp://dbpedia.org/ontology/wikiPageRedirects
p493
aVhttp://dbpedia.org/property/area
p494
aVhttp://dbpedia.org/ontology/hometown
p495
aVhttp://dbpedia.org/ontology/poleDriverCountry
p496
aVhttp://dbpedia.org/property/demonym
p497
aVhttp://dbpedia.org/property/areaServed
p498
aVhttp://dbpedia.org/property/headquarters
p499
aVhttp://dbpedia.org/property/regionServed
p500
aVhttp://dbpedia.org/ontology/spokenIn
p501
aVhttp://dbpedia.org/property/jurisdiction
p502
aVhttp://dbpedia.org/ontology/thirdDriverCountry
p503
aVhttp://dbpedia.org/property/remit
p504
aVhttp://dbpedia.org/property/observedby
p505
assI1
(dp506
I0
g407
sI1
(lp507
sI2
(lp508
sI3
(lp509
Vhttp://www.w3.org/2000/01/rdf-schema#seeAlso
p510
aVhttp://dbpedia.org/property/region
p511
aVhttp://dbpedia.org/ontology/location
p512
aVhttp://www.w3.org/2000/01/rdf-schema#comment
p513
aVhttp://dbpedia.org/ontology/abstract
p514
aVhttp://dbpedia.org/ontology/capital
p515
aVhttp://dbpedia.org/ontology/wikiPageRedirects
p516
aVhttp://dbpedia.org/property/location
p517
aVhttp://dbpedia.org/property/city
p518
aVhttp://dbpedia.org/ontology/garrison
p519
aVhttp://dbpedia.org/property/locationCity
p520
aVhttp://dbpedia.org/ontology/headquarter
p521
aVhttp://dbpedia.org/ontology/spokenIn
p522
aVhttp://dbpedia.org/ontology/city
p523
aVhttp://dbpedia.org/property/shipNamesake
p524
aVhttp://dbpedia.org/ontology/locationCity
p525
aVhttp://dbpedia.org/property/countryLargestCity
p526
aVhttp://dbpedia.org/property/stadium
p527
aVhttp://dbpedia.org/property/headquarters
p528
assI2
(dp529
I0
g436
sI1
g508
sI2
(lp530
sI3
(lp531
ssI3
(dp532
I0
g437
sI1
g509
sI2
g531
sI3
(lp533
ssa(dp534
I0
(dp535
I0
(lp536
sI1
(lp537
sI2
(lp538
sI3
(lp539
ssI1
(dp540
I0
g537
sI1
(lp541
sI2
(lp542
sI3
(lp543
Vhttp://www.w3.org/1999/02/22-rdf-syntax-ns#type
p544
aVhttp://purl.org/dc/terms/subject
p545
aVhttp://www.w3.org/2000/01/rdf-schema#comment
p546
aVhttp://dbpedia.org/ontology/abstract
p547
aVhttp://dbpedia.org/property/country2LargestCity
p548
aVhttp://dbpedia.org/ontology/spokenIn
p549
aVhttp://dbpedia.org/property/country
p550
aVhttp://dbpedia.org/ontology/officialLanguage
p551
aVhttp://dbpedia.org/ontology/language
p552
assI2
(dp553
I0
g538
sI1
g542
sI2
(lp554
sI3
(lp555
ssI3
(dp556
I0
g539
sI1
g543
sI2
g555
sI3
(lp557
ssa(dp558
I0
(dp559
I0
(lp560
sI1
(lp561
Vhttp://www.w3.org/2000/01/rdf-schema#seeAlso
p562
aVhttp://dbpedia.org/property/recorded
p563
aVhttp://dbpedia.org/property/footnoteB
p564
aVhttp://dbpedia.org/property/city
p565
aVhttp://dbpedia.org/property/capital
p566
aVhttp://dbpedia.org/ontology/country
p567
aVhttp://dbpedia.org/property/region
p568
aVhttp://dbpedia.org/property/territory
p569
aVhttp://dbpedia.org/ontology/capital
p570
aVhttp://dbpedia.org/property/locationCountry
p571
aVhttp://dbpedia.org/ontology/ground
p572
aVhttp://dbpedia.org/property/headquarters
p573
aVhttp://dbpedia.org/property/locationSigned
p574
aVhttp://dbpedia.org/property/country
p575
aVhttp://dbpedia.org/property/shipCountry
p576
aVhttp://dbpedia.org/ontology/recordedIn
p577
aVhttp://dbpedia.org/ontology/abstract
p578
aVhttp://dbpedia.org/property/stateParty
p579
aVhttp://dbpedia.org/property/location
p580
aVhttp://dbpedia.org/property/cityServed
p581
aVhttp://dbpedia.org/ontology/city
p582
aVhttp://dbpedia.org/property/subdivisionName
p583
aVhttp://dbpedia.org/ontology/language
p584
aVhttp://dbpedia.org/property/shipRegistry
p585
aVhttp://dbpedia.org/property/locale
p586
aVhttp://dbpedia.org/ontology/location
p587
aVhttp://www.w3.org/2000/01/rdf-schema#comment
p588
asI2
(lp589
sI3
(lp590
Vhttp://www.w3.org/2000/01/rdf-schema#seeAlso
p591
aVhttp://dbpedia.org/property/origin
p592
aVhttp://dbpedia.org/ontology/origin
p593
aVhttp://dbpedia.org/property/place
p594
aVhttp://dbpedia.org/property/adminCenter
p595
aVhttp://dbpedia.org/property/footnoteC
p596
aVhttp://dbpedia.org/ontology/demonym
p597
aVhttp://dbpedia.org/ontology/officialLanguage
p598
aVhttp://dbpedia.org/ontology/country
p599
aVhttp://dbpedia.org/property/region
p600
aVhttp://www.w3.org/1999/02/22-rdf-syntax-ns#type
p601
aVhttp://www.w3.org/2002/07/owl#differentFrom
p602
aVhttp://dbpedia.org/property/footnoteD
p603
aVhttp://dbpedia.org/ontology/nationality
p604
aVhttp://dbpedia.org/property/birthPlace
p605
aVhttp://dbpedia.org/property/country/region
p606
aVhttp://dbpedia.org/ontology/place
p607
aVhttp://dbpedia.org/ontology/ethnicGroup
p608
aVhttp://dbpedia.org/property/locationSigned
p609
aVhttp://dbpedia.org/property/depositor
p610
aVhttp://dbpedia.org/property/country
p611
aVhttp://dbpedia.org/property/regionalLanguages
p612
aVhttp://dbpedia.org/ontology/regionalLanguage
p613
aVhttp://purl.org/dc/terms/subject
p614
aVhttp://dbpedia.org/ontology/populationPlace
p615
aVhttp://dbpedia.org/property/ideology
p616
aVhttp://dbpedia.org/ontology/abstract
p617
aVhttp://dbpedia.org/ontology/recordedIn
p618
aVhttp://dbpedia.org/property/venue
p619
aVhttp://dbpedia.org/property/location
p620
aVhttp://dbpedia.org/property/states
p621
aVhttp://dbpedia.org/ontology/headquarter
p622
aVhttp://dbpedia.org/property/usedBy
p623
aVhttp://dbpedia.org/ontology/language
p624
aVhttp://dbpedia.org/ontology/location
p625
aVhttp://dbpedia.org/property/officialLanguages
p626
aVhttp://www.w3.org/2000/01/rdf-schema#comment
p627
aVhttp://dbpedia.org/ontology/birthPlace
p628
aVhttp://dbpedia.org/ontology/wikiPageRedirects
p629
aVhttp://dbpedia.org/ontology/hometown
p630
aVhttp://dbpedia.org/property/demonym
p631
aVhttp://dbpedia.org/property/headquarters
p632
aVhttp://dbpedia.org/ontology/spokenIn
p633
aVhttp://dbpedia.org/ontology/stateOfOrigin
p634
aVhttp://dbpedia.org/property/stadium
p635
assI1
(dp636
I0
g561
sI1
(lp637
sI2
(lp638
sI3
(lp639
Vhttp://dbpedia.org/property/origin
p640
aVhttp://www.w3.org/2000/01/rdf-schema#comment
p641
aVhttp://dbpedia.org/ontology/populationPlace
p642
aVhttp://dbpedia.org/ontology/location
p643
aVhttp://dbpedia.org/ontology/capital
p644
aVhttp://dbpedia.org/ontology/abstract
p645
aVhttp://dbpedia.org/ontology/recordedIn
p646
aVhttp://dbpedia.org/property/deathPlace
p647
aVhttp://dbpedia.org/property/capital
p648
aVhttp://dbpedia.org/property/city
p649
aVhttp://dbpedia.org/property/locationCity
p650
aVhttp://dbpedia.org/ontology/deathPlace
p651
aVhttp://dbpedia.org/ontology/hometown
p652
aVhttp://dbpedia.org/property/location
p653
aVhttp://dbpedia.org/ontology/city
p654
aVhttp://dbpedia.org/ontology/headquarter
p655
aVhttp://dbpedia.org/ontology/locationCity
p656
aVhttp://dbpedia.org/property/stadium
p657
aVhttp://dbpedia.org/property/headquarters
p658
assI2
(dp659
I0
g589
sI1
g638
sI2
(lp660
sI3
(lp661
ssI3
(dp662
I0
g590
sI1
g639
sI2
g661
sI3
(lp663
ssa(dp664
I0
(dp665
I0
(lp666
sI1
(lp667
Vhttp://www.w3.org/2000/01/rdf-schema#seeAlso
p668
aVhttp://dbpedia.org/property/place
p669
aVhttp://dbpedia.org/property/footnoteB
p670
aVhttp://dbpedia.org/ontology/country
p671
aVhttp://dbpedia.org/property/region
p672
aVhttp://dbpedia.org/property/locationCountry
p673
aVhttp://dbpedia.org/property/nearestTown
p674
aVhttp://dbpedia.org/property/birthPlace
p675
aVhttp://dbpedia.org/property/locationSigned
p676
aVhttp://dbpedia.org/property/country
p677
aVhttp://dbpedia.org/property/signatories
p678
aVhttp://dbpedia.org/ontology/abstract
p679
aVhttp://dbpedia.org/property/stateParty
p680
aVhttp://dbpedia.org/property/deathPlace
p681
aVhttp://dbpedia.org/property/location
p682
aVhttp://dbpedia.org/ontology/headquarter
p683
aVhttp://dbpedia.org/ontology/city
p684
aVhttp://dbpedia.org/property/subdivisionName
p685
aVhttp://dbpedia.org/property/headquarters
p686
aVhttp://dbpedia.org/property/locale
p687
aVhttp://dbpedia.org/ontology/location
p688
aVhttp://dbpedia.org/ontology/birthPlace
p689
aVhttp://dbpedia.org/ontology/deathPlace
p690
asI2
(lp691
sI3
(lp692
ssI1
(dp693
I0
g667
sI1
(lp694
sI2
(lp695
sI3
(lp696
ssI2
(dp697
I0
g691
sI1
g695
sI2
(lp698
sI3
(lp699
ssI3
(dp700
I0
g692
sI1
g696
sI2
g699
sI3
(lp701
ssa(dp702
I0
(dp703
I0
(lp704
sI1
(lp705
Vhttp://www.w3.org/2000/01/rdf-schema#seeAlso
p706
aVhttp://dbpedia.org/property/placeOfDeath
p707
aVhttp://dbpedia.org/property/hostCity
p708
aVhttp://dbpedia.org/ontology/origin
p709
aVhttp://dbpedia.org/ontology/routeStart
p710
aVhttp://dbpedia.org/property/city
p711
aVhttp://dbpedia.org/ontology/locatedInArea
p712
aVhttp://www.w3.org/2002/07/owl#differentFrom
p713
aVhttp://dbpedia.org/ontology/country
p714
aVhttp://dbpedia.org/property/locationCountry
p715
aVhttp://dbpedia.org/ontology/nationality
p716
aVhttp://dbpedia.org/property/birthPlace
p717
aVhttp://dbpedia.org/ontology/education
p718
aVhttp://dbpedia.org/property/placeOfBirth
p719
aVhttp://dbpedia.org/property/stateParty
p720
aVhttp://dbpedia.org/property/country
p721
aVhttp://dbpedia.org/property/start
p722
aVhttp://dbpedia.org/ontology/residence
p723
aVhttp://dbpedia.org/ontology/abstract
p724
aVhttp://dbpedia.org/property/location
p725
aVhttp://dbpedia.org/property/deathPlace
p726
aVhttp://dbpedia.org/property/cityServed
p727
aVhttp://dbpedia.org/ontology/locationCountry
p728
aVhttp://dbpedia.org/ontology/headquarter
p729
aVhttp://dbpedia.org/property/nationality
p730
aVhttp://dbpedia.org/ontology/city
p731
aVhttp://dbpedia.org/property/usedBy
p732
aVhttp://dbpedia.org/ontology/location
p733
aVhttp://dbpedia.org/property/locale
p734
aVhttp://dbpedia.org/property/headquarters
p735
aVhttp://dbpedia.org/property/residence
p736
aVhttp://dbpedia.org/ontology/birthPlace
p737
aVhttp://www.w3.org/2000/01/rdf-schema#comment
p738
aVhttp://dbpedia.org/ontology/citizenship
p739
aVhttp://dbpedia.org/property/locationCity
p740
aVhttp://dbpedia.org/property/citizenship
p741
aVhttp://dbpedia.org/ontology/stateOfOrigin
p742
aVhttp://dbpedia.org/ontology/locationCity
p743
aVhttp://dbpedia.org/ontology/deathPlace
p744
asI2
(lp745
sI3
(lp746
ssI1
(dp747
I0
g705
sI1
(lp748
sI2
(lp749
sI3
(lp750
ssI2
(dp751
I0
g745
sI1
g749
sI2
(lp752
sI3
(lp753
ssI3
(dp754
I0
g746
sI1
g750
sI2
g753
sI3
(lp755
ssa(dp756
I0
(dp757
I0
(lp758
sI1
(lp759
Vhttp://www.w3.org/2000/01/rdf-schema#seeAlso
p760
aVhttp://dbpedia.org/property/origin
p761
aVhttp://dbpedia.org/ontology/origin
p762
aVhttp://dbpedia.org/property/place
p763
aVhttp://dbpedia.org/property/namedFor
p764
aVhttp://dbpedia.org/property/city
p765
aVhttp://dbpedia.org/property/div
p766
aVhttp://dbpedia.org/ontology/country
p767
aVhttp://dbpedia.org/property/region
p768
aVhttp://dbpedia.org/property/locationCountry
p769
aVhttp://dbpedia.org/ontology/ground
p770
aVhttp://dbpedia.org/ontology/place
p771
aVhttp://dbpedia.org/property/stateParty
p772
aVhttp://dbpedia.org/property/country
p773
aVhttp://dbpedia.org/ontology/abstract
p774
aVhttp://dbpedia.org/property/img
p775
aVhttp://dbpedia.org/ontology/campus
p776
aVhttp://dbpedia.org/property/state
p777
aVhttp://dbpedia.org/property/location
p778
aVhttp://dbpedia.org/property/district
p779
aVhttp://dbpedia.org/ontology/homeStadium
p780
aVhttp://dbpedia.org/ontology/city
p781
aVhttp://dbpedia.org/property/locale
p782
aVhttp://dbpedia.org/ontology/state
p783
aVhttp://dbpedia.org/ontology/location
p784
aVhttp://dbpedia.org/ontology/hometown
p785
aVhttp://dbpedia.org/property/stadium
p786
asI2
(lp787
sI3
(lp788
Vhttp://dbpedia.org/property/placeOfDeath
p789
aVhttp://dbpedia.org/property/broadcastArea
p790
aVhttp://dbpedia.org/property/burial
p791
aVhttp://dbpedia.org/ontology/officialLanguage
p792
aVhttp://dbpedia.org/ontology/regionServed
p793
aVhttp://dbpedia.org/ontology/country
p794
aVhttp://www.w3.org/1999/02/22-rdf-syntax-ns#type
p795
aVhttp://dbpedia.org/ontology/place
p796
aVhttp://dbpedia.org/ontology/ethnicGroup
p797
aVhttp://dbpedia.org/property/country
p798
aVhttp://purl.org/dc/terms/subject
p799
aVhttp://dbpedia.org/ontology/abstract
p800
aVhttp://dbpedia.org/property/regionServed
p801
aVhttp://dbpedia.org/property/deathPlace
p802
aVhttp://dbpedia.org/property/location
p803
aVhttp://dbpedia.org/property/states
p804
aVhttp://dbpedia.org/ontology/locationCountry
p805
aVhttp://dbpedia.org/ontology/deathPlace
p806
aVhttp://dbpedia.org/ontology/language
p807
aVhttp://dbpedia.org/ontology/broadcastArea
p808
aVhttp://dbpedia.org/property/basinCountries
p809
aVhttp://dbpedia.org/property/officialLanguages
p810
aVhttp://www.w3.org/2000/01/rdf-schema#comment
p811
aVhttp://dbpedia.org/ontology/spokenIn
p812
assI1
(dp813
I0
g759
sI1
(lp814
sI2
(lp815
sI3
(lp816
Vhttp://dbpedia.org/property/placeOfDeath
p817
aVhttp://www.w3.org/2000/01/rdf-schema#comment
p818
aVhttp://dbpedia.org/property/burial
p819
aVhttp://dbpedia.org/ontology/birthPlace
p820
aVhttp://dbpedia.org/property/location
p821
aVhttp://dbpedia.org/property/deathPlace
p822
aVhttp://dbpedia.org/property/birthPlace
p823
aVhttp://dbpedia.org/ontology/deathPlace
p824
aVhttp://dbpedia.org/ontology/abstract
p825
aVhttp://dbpedia.org/property/stadium
p826
aVhttp://dbpedia.org/property/placeOfBirth
p827
assI2
(dp828
I0
g787
sI1
g815
sI2
(lp829
sI3
(lp830
ssI3
(dp831
I0
g788
sI1
g816
sI2
g830
sI3
(lp832
ssa(dp833
I0
(dp834
I0
(lp835
sI1
(lp836
Vhttp://www.w3.org/2000/01/rdf-schema#seeAlso
p837
aVhttp://dbpedia.org/property/placeOfDeath
p838
aVhttp://dbpedia.org/ontology/type
p839
aVhttp://dbpedia.org/property/ground
p840
aVhttp://dbpedia.org/property/place
p841
aVhttp://dbpedia.org/property/namedFor
p842
aVhttp://dbpedia.org/property/city
p843
aVhttp://dbpedia.org/property/capital
p844
aVhttp://dbpedia.org/ontology/country
p845
aVhttp://dbpedia.org/ontology/capital
p846
aVhttp://dbpedia.org/property/locationCountry
p847
aVhttp://dbpedia.org/ontology/ground
p848
aVhttp://dbpedia.org/property/birthPlace
p849
aVhttp://dbpedia.org/ontology/place
p850
aVhttp://dbpedia.org/property/placeOfBirth
p851
aVhttp://dbpedia.org/property/stateParty
p852
aVhttp://dbpedia.org/property/owner
p853
aVhttp://dbpedia.org/property/country
p854
aVhttp://dbpedia.org/ontology/abstract
p855
aVhttp://dbpedia.org/property/deathPlace
p856
aVhttp://dbpedia.org/property/location
p857
aVhttp://dbpedia.org/ontology/locationCountry
p858
aVhttp://dbpedia.org/ontology/deathPlace
p859
aVhttp://dbpedia.org/ontology/city
p860
aVhttp://dbpedia.org/property/subdivisionName
p861
aVhttp://dbpedia.org/ontology/location
p862
aVhttp://dbpedia.org/property/locale
p863
aVhttp://dbpedia.org/property/headquarters
p864
aVhttp://www.w3.org/2000/01/rdf-schema#comment
p865
aVhttp://dbpedia.org/ontology/birthPlace
p866
aVhttp://dbpedia.org/property/countriesAffected
p867
asI2
(lp868
sI3
(lp869
Vhttp://www.w3.org/2000/01/rdf-schema#seeAlso
p870
aVhttp://dbpedia.org/property/origin
p871
aVhttp://dbpedia.org/ontology/origin
p872
aVhttp://dbpedia.org/property/place
p873
aVhttp://dbpedia.org/property/footnoteA
p874
aVhttp://dbpedia.org/ontology/demonym
p875
aVhttp://dbpedia.org/ontology/officialLanguage
p876
aVhttp://dbpedia.org/ontology/country
p877
aVhttp://dbpedia.org/property/usingCountries
p878
aVhttp://dbpedia.org/property/officialLanguages
p879
aVhttp://dbpedia.org/property/winnerOrigin
p880
aVhttp://dbpedia.org/property/foundedPlace
p881
aVhttp://dbpedia.org/property/country
p882
aVhttp://dbpedia.org/ontology/wikiPageExternalLink
p883
aVhttp://dbpedia.org/ontology/populationPlace
p884
aVhttp://dbpedia.org/ontology/abstract
p885
aVhttp://dbpedia.org/property/location
p886
aVhttp://dbpedia.org/ontology/usingCountry
p887
aVhttp://dbpedia.org/property/regions
p888
aVhttp://dbpedia.org/ontology/headquarter
p889
aVhttp://dbpedia.org/property/shipNamesake
p890
aVhttp://dbpedia.org/ontology/language
p891
aVhttp://dbpedia.org/ontology/location
p892
aVhttp://dbpedia.org/property/states
p893
aVhttp://dbpedia.org/property/headquarters
p894
aVhttp://www.w3.org/2000/01/rdf-schema#comment
p895
aVhttp://dbpedia.org/ontology/birthPlace
p896
aVhttp://dbpedia.org/ontology/wikiPageRedirects
p897
aVhttp://dbpedia.org/property/area
p898
aVhttp://dbpedia.org/ontology/hometown
p899
aVhttp://dbpedia.org/property/demonym
p900
aVhttp://dbpedia.org/ontology/spokenIn
p901
aVhttp://dbpedia.org/property/foundingLocation
p902
aVhttp://dbpedia.org/property/jurisdiction
p903
aVhttp://dbpedia.org/property/popplace
p904
assI1
(dp905
I0
g836
sI1
(lp906
sI2
(lp907
sI3
(lp908
Vhttp://dbpedia.org/property/origin
p909
aVhttp://dbpedia.org/property/terminusA
p910
aVhttp://www.w3.org/1999/02/22-rdf-syntax-ns#type
p911
aVhttp://purl.org/dc/terms/subject
p912
aVhttp://dbpedia.org/ontology/location
p913
aVhttp://dbpedia.org/ontology/capital
p914
aVhttp://dbpedia.org/ontology/abstract
p915
aVhttp://www.w3.org/2000/01/rdf-schema#comment
p916
aVhttp://dbpedia.org/property/place
p917
aVhttp://dbpedia.org/property/location
p918
aVhttp://dbpedia.org/ontology/routeStart
p919
aVhttp://dbpedia.org/property/city
p920
aVhttp://dbpedia.org/property/cities
p921
aVhttp://dbpedia.org/ontology/headquarter
p922
aVhttp://dbpedia.org/ontology/hometown
p923
aVhttp://dbpedia.org/property/foundedPlace
p924
aVhttp://dbpedia.org/ontology/city
p925
aVhttp://dbpedia.org/property/capital
p926
aVhttp://dbpedia.org/property/stadium
p927
aVhttp://dbpedia.org/property/headquarters
p928
assI2
(dp929
I0
g868
sI1
g907
sI2
(lp930
sI3
(lp931
ssI3
(dp932
I0
g869
sI1
g908
sI2
g931
sI3
(lp933
ssa(dp934
I0
(dp935
I0
(lp936
sI1
(lp937
sI2
(lp938
sI3
(lp939
ssI1
(dp940
I0
g937
sI1
(lp941
sI2
(lp942
sI3
(lp943
Vhttp://dbpedia.org/ontology/abstract
p944
aVhttp://www.w3.org/2000/01/rdf-schema#comment
p945
assI2
(dp946
I0
g938
sI1
g942
sI2
(lp947
sI3
(lp948
ssI3
(dp949
I0
g939
sI1
g943
sI2
g948
sI3
(lp950
ssa(dp951
I0
(dp952
I0
(lp953
sI1
(lp954
Vhttp://www.w3.org/2000/01/rdf-schema#seeAlso
p955
aVhttp://dbpedia.org/property/origin
p956
aVhttp://dbpedia.org/property/hostCity
p957
aVhttp://dbpedia.org/property/place
p958
aVhttp://dbpedia.org/property/cityOrRegion
p959
aVhttp://dbpedia.org/ontology/regionServed
p960
aVhttp://dbpedia.org/ontology/country
p961
aVhttp://dbpedia.org/property/locationCountry
p962
aVhttp://dbpedia.org/property/country
p963
aVhttp://dbpedia.org/ontology/abstract
p964
aVhttp://dbpedia.org/property/location
p965
aVhttp://dbpedia.org/property/cityServed
p966
aVhttp://dbpedia.org/ontology/locationCountry
p967
aVhttp://dbpedia.org/ontology/headquarter
p968
aVhttp://dbpedia.org/ontology/city
p969
aVhttp://dbpedia.org/property/fullname
p970
aVhttp://dbpedia.org/property/subdivisionName
p971
aVhttp://dbpedia.org/property/locale
p972
aVhttp://dbpedia.org/property/shipBuilder
p973
aVhttp://dbpedia.org/ontology/location
p974
aVhttp://www.w3.org/2000/01/rdf-schema#comment
p975
aVhttp://dbpedia.org/ontology/builder
p976
aVhttp://dbpedia.org/ontology/hometown
p977
asI2
(lp978
sI3
(lp979
Vhttp://www.w3.org/2000/01/rdf-schema#seeAlso
p980
aVhttp://dbpedia.org/property/origin
p981
aVhttp://dbpedia.org/ontology/wikiPageRedirects
p982
aVhttp://dbpedia.org/property/awardedBy
p983
aVhttp://dbpedia.org/property/place
p984
aVhttp://dbpedia.org/ontology/foundationPlace
p985
aVhttp://dbpedia.org/property/placeOfDeath
p986
aVhttp://dbpedia.org/ontology/regionServed
p987
aVhttp://dbpedia.org/ontology/country
p988
aVhttp://dbpedia.org/property/region
p989
aVhttp://dbpedia.org/property/locationCountry
p990
aVhttp://dbpedia.org/property/allegiance
p991
aVhttp://dbpedia.org/property/combatant
p992
aVhttp://dbpedia.org/ontology/place
p993
aVhttp://dbpedia.org/property/placeOfBirth
p994
aVhttp://dbpedia.org/property/office
p995
aVhttp://dbpedia.org/property/owner
p996
aVhttp://dbpedia.org/property/country
p997
aVhttp://dbpedia.org/property/areaServed
p998
aVhttp://dbpedia.org/ontology/abstract
p999
aVhttp://dbpedia.org/ontology/spokenIn
p1000
aVhttp://dbpedia.org/property/location
p1001
aVhttp://dbpedia.org/ontology/usingCountry
p1002
aVhttp://dbpedia.org/property/states
p1003
aVhttp://dbpedia.org/ontology/locationCountry
p1004
aVhttp://dbpedia.org/ontology/deathPlace
p1005
aVhttp://dbpedia.org/property/foundation
p1006
aVhttp://dbpedia.org/ontology/location
p1007
aVhttp://dbpedia.org/property/basinCountries
p1008
aVhttp://dbpedia.org/property/headquarters
p1009
aVhttp://www.w3.org/2000/01/rdf-schema#comment
p1010
aVhttp://dbpedia.org/ontology/birthPlace
p1011
aVhttp://dbpedia.org/property/northwest
p1012
aVhttp://dbpedia.org/ontology/hometown
p1013
aVhttp://dbpedia.org/property/regionServed
p1014
aVhttp://dbpedia.org/ontology/headquarter
p1015
aVhttp://dbpedia.org/property/observedby
p1016
assI1
(dp1017
I0
g954
sI1
(lp1018
sI2
(lp1019
sI3
(lp1020
Vhttp://dbpedia.org/property/origin
p1021
aVhttp://dbpedia.org/property/placeOfDeath
p1022
aVhttp://dbpedia.org/property/terminusB
p1023
aVhttp://dbpedia.org/ontology/foundationPlace
p1024
aVhttp://dbpedia.org/property/city
p1025
aVhttp://dbpedia.org/ontology/garrison
p1026
aVhttp://dbpedia.org/ontology/city
p1027
aVhttp://dbpedia.org/property/based
p1028
aVhttp://dbpedia.org/ontology/routeEnd
p1029
aVhttp://www.w3.org/2002/07/owl#differentFrom
p1030
aVhttp://dbpedia.org/property/placeOfBirth
p1031
aVhttp://dbpedia.org/property/office
p1032
aVhttp://dbpedia.org/ontology/populationPlace
p1033
aVhttp://dbpedia.org/ontology/abstract
p1034
aVhttp://dbpedia.org/property/demographics1Title
p1035
aVhttp://dbpedia.org/property/location
p1036
aVhttp://dbpedia.org/ontology/deathPlace
p1037
aVhttp://dbpedia.org/property/foundation
p1038
aVhttp://dbpedia.org/ontology/location
p1039
aVhttp://dbpedia.org/property/headquarters
p1040
aVhttp://www.w3.org/2000/01/rdf-schema#comment
p1041
aVhttp://dbpedia.org/ontology/birthPlace
p1042
aVhttp://dbpedia.org/ontology/hometown
p1043
aVhttp://dbpedia.org/property/locationCity
p1044
aVhttp://dbpedia.org/property/garrison
p1045
aVhttp://dbpedia.org/ontology/locationCity
p1046
aVhttp://dbpedia.org/property/popplace
p1047
aVhttp://dbpedia.org/property/stadium
p1048
aVhttp://dbpedia.org/ontology/headquarter
p1049
assI2
(dp1050
I0
g978
sI1
g1019
sI2
(lp1051
sI3
(lp1052
ssI3
(dp1053
I0
g979
sI1
g1020
sI2
g1052
sI3
(lp1054
ssa(dp1055
I0
(dp1056
I0
(lp1057
sI1
(lp1058
Vhttp://dbpedia.org/property/locale
p1059
aVhttp://dbpedia.org/ontology/country
p1060
aVhttp://dbpedia.org/ontology/location
p1061
aVhttp://dbpedia.org/property/origin
p1062
aVhttp://dbpedia.org/property/hostCity
p1063
aVhttp://dbpedia.org/ontology/abstract
p1064
aVhttp://dbpedia.org/property/locationCountry
p1065
aVhttp://dbpedia.org/property/place
p1066
aVhttp://dbpedia.org/property/location
p1067
aVhttp://dbpedia.org/property/currentHostCity
p1068
aVhttp://dbpedia.org/property/cityServed
p1069
aVhttp://dbpedia.org/property/city
p1070
aVhttp://dbpedia.org/property/headquarters
p1071
aVhttp://dbpedia.org/property/curlingClub
p1072
aVhttp://dbpedia.org/ontology/hometown
p1073
aVhttp://dbpedia.org/ontology/city
p1074
aVhttp://dbpedia.org/property/country
p1075
aVhttp://dbpedia.org/property/namedFor
p1076
aVhttp://dbpedia.org/property/subdivisionName
p1077
aVhttp://dbpedia.org/ontology/language
p1078
aVhttp://dbpedia.org/property/nation
p1079
asI2
(lp1080
sI3
(lp1081
Vhttp://www.w3.org/2000/01/rdf-schema#seeAlso
p1082
aVhttp://dbpedia.org/property/currency
p1083
aVhttp://dbpedia.org/ontology/language
p1084
aVhttp://dbpedia.org/ontology/currency
p1085
aVhttp://dbpedia.org/property/place
p1086
aVhttp://dbpedia.org/ontology/foundationPlace
p1087
aVhttp://dbpedia.org/property/territorialExtent
p1088
aVhttp://dbpedia.org/ontology/poleDriverCountry
p1089
aVhttp://dbpedia.org/ontology/city
p1090
aVhttp://dbpedia.org/ontology/thirdDriverCountry
p1091
aVhttp://dbpedia.org/ontology/demonym
p1092
aVhttp://dbpedia.org/property/site
p1093
aVhttp://dbpedia.org/ontology/regionServed
p1094
aVhttp://dbpedia.org/ontology/country
p1095
aVhttp://dbpedia.org/property/locationCountry
p1096
aVhttp://dbpedia.org/ontology/secondDriverCountry
p1097
aVhttp://dbpedia.org/property/allegiance
p1098
aVhttp://dbpedia.org/ontology/officialLanguage
p1099
aVhttp://dbpedia.org/ontology/nationality
p1100
aVhttp://dbpedia.org/property/birthPlace
p1101
aVhttp://dbpedia.org/ontology/place
p1102
aVhttp://dbpedia.org/property/placeOfBirth
p1103
aVhttp://dbpedia.org/property/office
p1104
aVhttp://dbpedia.org/property/country
p1105
aVhttp://dbpedia.org/property/areaServed
p1106
aVhttp://purl.org/dc/terms/subject
p1107
aVhttp://dbpedia.org/ontology/populationPlace
p1108
aVhttp://dbpedia.org/property/origin
p1109
aVhttp://dbpedia.org/ontology/abstract
p1110
aVhttp://dbpedia.org/ontology/spokenIn
p1111
aVhttp://dbpedia.org/property/location
p1112
aVhttp://dbpedia.org/property/states
p1113
aVhttp://dbpedia.org/ontology/locationCountry
p1114
aVhttp://dbpedia.org/ontology/headquarter
p1115
aVhttp://dbpedia.org/property/foundation
p1116
aVhttp://dbpedia.org/property/officialLanguages
p1117
aVhttp://dbpedia.org/property/nationalOrigin
p1118
aVhttp://dbpedia.org/ontology/location
p1119
aVhttp://dbpedia.org/property/headquarters
p1120
aVhttp://www.w3.org/2000/01/rdf-schema#comment
p1121
aVhttp://dbpedia.org/ontology/birthPlace
p1122
aVhttp://dbpedia.org/property/hostcity
p1123
aVhttp://dbpedia.org/ontology/wikiPageRedirects
p1124
aVhttp://dbpedia.org/ontology/hometown
p1125
aVhttp://dbpedia.org/property/bankOf
p1126
aVhttp://dbpedia.org/property/locationCity
p1127
aVhttp://dbpedia.org/property/regionServed
p1128
aVhttp://dbpedia.org/property/jurisdiction
p1129
aVhttp://dbpedia.org/ontology/locationCity
p1130
aVhttp://dbpedia.org/ontology/deathPlace
p1131
assI1
(dp1132
I0
g1058
sI1
(lp1133
sI2
(lp1134
sI3
(lp1135
Vhttp://dbpedia.org/property/origin
p1136
aVhttp://dbpedia.org/property/city
p1137
aVhttp://dbpedia.org/property/based
p1138
aVhttp://www.w3.org/1999/02/22-rdf-syntax-ns#type
p1139
aVhttp://dbpedia.org/ontology/capital
p1140
aVhttp://dbpedia.org/property/capital
p1141
aVhttp://dbpedia.org/property/locationTown
p1142
aVhttp://dbpedia.org/property/office
p1143
aVhttp://purl.org/dc/terms/subject
p1144
aVhttp://dbpedia.org/ontology/populationPlace
p1145
aVhttp://dbpedia.org/ontology/abstract
p1146
aVhttp://dbpedia.org/property/location
p1147
aVhttp://dbpedia.org/ontology/deathPlace
p1148
aVhttp://dbpedia.org/ontology/city
p1149
aVhttp://dbpedia.org/ontology/location
p1150
aVhttp://dbpedia.org/property/headquarters
p1151
aVhttp://www.w3.org/2000/01/rdf-schema#comment
p1152
aVhttp://dbpedia.org/property/popplace
p1153
aVhttp://dbpedia.org/property/hostcity
p1154
aVhttp://dbpedia.org/ontology/hometown
p1155
aVhttp://dbpedia.org/property/locationCity
p1156
aVhttp://dbpedia.org/ontology/locationCity
p1157
aVhttp://dbpedia.org/property/stadium
p1158
aVhttp://dbpedia.org/ontology/headquarter
p1159
assI2
(dp1160
I0
g1080
sI1
g1134
sI2
(lp1161
sI3
(lp1162
ssI3
(dp1163
I0
g1081
sI1
g1135
sI2
g1162
sI3
(lp1164
ssa(dp1165
I0
(dp1166
I0
(lp1167
sI1
(lp1168
Vhttp://www.w3.org/2000/01/rdf-schema#seeAlso
p1169
aVhttp://dbpedia.org/ontology/country
p1170
aVhttp://dbpedia.org/property/recorded
p1171
aVhttp://dbpedia.org/property/locale
p1172
aVhttp://dbpedia.org/property/basinCountries
p1173
aVhttp://dbpedia.org/ontology/abstract
p1174
aVhttp://dbpedia.org/property/locationCountry
p1175
aVhttp://dbpedia.org/property/location
p1176
aVhttp://dbpedia.org/property/cityServed
p1177
aVhttp://dbpedia.org/property/city
p1178
aVhttp://dbpedia.org/ontology/locationCountry
p1179
aVhttp://dbpedia.org/property/headquarters
p1180
aVhttp://dbpedia.org/ontology/headquarter
p1181
aVhttp://dbpedia.org/ontology/city
p1182
aVhttp://dbpedia.org/property/country
p1183
aVhttp://dbpedia.org/property/data
p1184
aVhttp://dbpedia.org/property/subdivisionName
p1185
aVhttp://dbpedia.org/ontology/location
p1186
asI2
(lp1187
sI3
(lp1188
Vhttp://dbpedia.org/property/origin
p1189
aVhttp://dbpedia.org/property/currency
p1190
aVhttp://dbpedia.org/ontology/origin
p1191
aVhttp://dbpedia.org/ontology/currency
p1192
aVhttp://dbpedia.org/ontology/foundationPlace
p1193
aVhttp://dbpedia.org/property/placeOfDeath
p1194
aVhttp://dbpedia.org/property/caption
p1195
aVhttp://dbpedia.org/property/imageMap2Caption
p1196
aVhttp://dbpedia.org/ontology/demonym
p1197
aVhttp://dbpedia.org/ontology/officialLanguage
p1198
aVhttp://dbpedia.org/property/label
p1199
aVhttp://dbpedia.org/ontology/country
p1200
aVhttp://dbpedia.org/property/region
p1201
aVhttp://www.w3.org/1999/02/22-rdf-syntax-ns#type
p1202
aVhttp://dbpedia.org/property/locationCountry
p1203
aVhttp://dbpedia.org/property/allegiance
p1204
aVhttp://dbpedia.org/property/officialLanguages
p1205
aVhttp://dbpedia.org/property/birthPlace
p1206
aVhttp://dbpedia.org/property/placeOfBirth
p1207
aVhttp://dbpedia.org/property/country
p1208
aVhttp://dbpedia.org/property/imageMapCaption
p1209
aVhttp://dbpedia.org/property/establishedEvent
p1210
aVhttp://dbpedia.org/ontology/wikiPageExternalLink
p1211
aVhttp://purl.org/dc/terms/subject
p1212
aVhttp://dbpedia.org/ontology/abstract
p1213
aVhttp://dbpedia.org/property/deathPlace
p1214
aVhttp://dbpedia.org/ontology/usingCountry
p1215
aVhttp://dbpedia.org/property/location
p1216
aVhttp://dbpedia.org/ontology/locationCountry
p1217
aVhttp://dbpedia.org/ontology/headquarter
p1218
aVhttp://dbpedia.org/property/foundation
p1219
aVhttp://dbpedia.org/property/shipNamesake
p1220
aVhttp://dbpedia.org/ontology/language
p1221
aVhttp://dbpedia.org/ontology/location
p1222
aVhttp://dbpedia.org/property/headquarters
p1223
aVhttp://www.w3.org/2000/01/rdf-schema#comment
p1224
aVhttp://dbpedia.org/ontology/birthPlace
p1225
aVhttp://dbpedia.org/ontology/wikiPageRedirects
p1226
aVhttp://dbpedia.org/ontology/hometown
p1227
aVhttp://dbpedia.org/ontology/spokenIn
p1228
aVhttp://dbpedia.org/property/jurisdiction
p1229
aVhttp://dbpedia.org/ontology/deathPlace
p1230
assI1
(dp1231
I0
g1168
sI1
(lp1232
sI2
(lp1233
sI3
(lp1234
Vhttp://dbpedia.org/property/origin
p1235
aVhttp://dbpedia.org/property/region
p1236
aVhttp://dbpedia.org/property/shipBuilder
p1237
aVhttp://dbpedia.org/ontology/location
p1238
aVhttp://www.w3.org/2000/01/rdf-schema#comment
p1239
aVhttp://dbpedia.org/ontology/origin
p1240
aVhttp://dbpedia.org/ontology/abstract
p1241
aVhttp://dbpedia.org/property/address
p1242
aVhttp://dbpedia.org/property/location
p1243
aVhttp://dbpedia.org/ontology/foundationPlace
p1244
aVhttp://dbpedia.org/property/city
p1245
aVhttp://dbpedia.org/ontology/garrison
p1246
aVhttp://dbpedia.org/ontology/headquarter
p1247
aVhttp://dbpedia.org/ontology/hometown
p1248
aVhttp://dbpedia.org/ontology/city
p1249
aVhttp://dbpedia.org/property/foundation
p1250
aVhttp://dbpedia.org/property/garrison
p1251
aVhttp://dbpedia.org/property/stadium
p1252
aVhttp://dbpedia.org/property/headquarters
p1253
assI2
(dp1254
I0
g1187
sI1
g1233
sI2
(lp1255
sI3
(lp1256
ssI3
(dp1257
I0
g1188
sI1
g1234
sI2
g1256
sI3
(lp1258
ssa(dp1259
I0
(dp1260
I0
(lp1261
sI1
(lp1262
Vhttp://www.w3.org/2000/01/rdf-schema#seeAlso
p1263
aVhttp://dbpedia.org/ontology/country
p1264
aVhttp://dbpedia.org/property/locale
p1265
aVhttp://dbpedia.org/property/origin
p1266
aVhttp://www.w3.org/2000/01/rdf-schema#comment
p1267
aVhttp://dbpedia.org/ontology/abstract
p1268
aVhttp://dbpedia.org/property/location
p1269
aVhttp://dbpedia.org/ontology/ground
p1270
aVhttp://dbpedia.org/property/cityServed
p1271
aVhttp://dbpedia.org/ontology/hometown
p1272
aVhttp://dbpedia.org/ontology/locationCountry
p1273
aVhttp://dbpedia.org/ontology/city
p1274
aVhttp://dbpedia.org/property/country
p1275
aVhttp://dbpedia.org/property/locationCountry
p1276
aVhttp://dbpedia.org/ontology/location
p1277
asI2
(lp1278
sI3
(lp1279
Vhttp://www.w3.org/2000/01/rdf-schema#seeAlso
p1280
aVhttp://dbpedia.org/ontology/county
p1281
aVhttp://dbpedia.org/ontology/origin
p1282
aVhttp://dbpedia.org/property/place
p1283
aVhttp://dbpedia.org/ontology/jurisdiction
p1284
aVhttp://dbpedia.org/property/territory
p1285
aVhttp://dbpedia.org/ontology/demonym
p1286
aVhttp://dbpedia.org/property/site
p1287
aVhttp://dbpedia.org/property/religion
p1288
aVhttp://dbpedia.org/property/reason
p1289
aVhttp://dbpedia.org/property/empire
p1290
aVhttp://dbpedia.org/ontology/officialLanguage
p1291
aVhttp://dbpedia.org/property/birthPlace
p1292
aVhttp://dbpedia.org/ontology/place
p1293
aVhttp://dbpedia.org/property/placeOfBirth
p1294
aVhttp://dbpedia.org/property/counties
p1295
aVhttp://dbpedia.org/property/country
p1296
aVhttp://dbpedia.org/property/establishedEvent
p1297
aVhttp://dbpedia.org/ontology/ideology
p1298
aVhttp://dbpedia.org/ontology/homeport
p1299
aVhttp://purl.org/dc/terms/subject
p1300
aVhttp://dbpedia.org/ontology/populationPlace
p1301
aVhttp://dbpedia.org/property/origin
p1302
aVhttp://dbpedia.org/ontology/country
p1303
aVhttp://dbpedia.org/property/ideology
p1304
aVhttp://dbpedia.org/ontology/abstract
p1305
aVhttp://dbpedia.org/property/region
p1306
aVhttp://dbpedia.org/ontology/usingCountry
p1307
aVhttp://dbpedia.org/property/location
p1308
aVhttp://dbpedia.org/property/states
p1309
aVhttp://dbpedia.org/ontology/locationCountry
p1310
aVhttp://dbpedia.org/ontology/headquarter
p1311
aVhttp://dbpedia.org/property/observedby
p1312
aVhttp://dbpedia.org/ontology/similar
p1313
aVhttp://dbpedia.org/ontology/language
p1314
aVhttp://dbpedia.org/property/officialLanguages
p1315
aVhttp://dbpedia.org/property/locale
p1316
aVhttp://dbpedia.org/property/garrison
p1317
aVhttp://dbpedia.org/property/headquarters
p1318
aVhttp://www.w3.org/2000/01/rdf-schema#comment
p1319
aVhttp://dbpedia.org/ontology/birthPlace
p1320
aVhttp://dbpedia.org/ontology/builder
p1321
aVhttp://dbpedia.org/ontology/hometown
p1322
aVhttp://dbpedia.org/ontology/garrison
p1323
aVhttp://dbpedia.org/property/areaServed
p1324
aVhttp://dbpedia.org/ontology/spokenIn
p1325
aVhttp://dbpedia.org/property/jurisdiction
p1326
aVhttp://dbpedia.org/property/locationCountry
p1327
aVhttp://dbpedia.org/ontology/location
p1328
assI1
(dp1329
I0
g1262
sI1
(lp1330
sI2
(lp1331
sI3
(lp1332
Vhttp://dbpedia.org/property/origin
p1333
aVhttp://dbpedia.org/property/terminusA
p1334
aVhttp://dbpedia.org/property/shipBuilder
p1335
aVhttp://dbpedia.org/ontology/location
p1336
aVhttp://www.w3.org/2000/01/rdf-schema#comment
p1337
aVhttp://dbpedia.org/ontology/abstract
p1338
aVhttp://dbpedia.org/property/location
p1339
aVhttp://dbpedia.org/ontology/routeStart
p1340
aVhttp://dbpedia.org/ontology/hometown
p1341
aVhttp://dbpedia.org/ontology/builder
p1342
aVhttp://dbpedia.org/property/locationCity
p1343
aVhttp://dbpedia.org/ontology/headquarter
p1344
aVhttp://dbpedia.org/property/hqCity
p1345
aVhttp://dbpedia.org/property/capital
p1346
aVhttp://dbpedia.org/property/builders
p1347
aVhttp://dbpedia.org/property/stadium
p1348
aVhttp://dbpedia.org/property/headquarters
p1349
assI2
(dp1350
I0
g1278
sI1
g1331
sI2
(lp1351
sI3
(lp1352
ssI3
(dp1353
I0
g1279
sI1
g1332
sI2
g1352
sI3
(lp1354
ssa(dp1355
I0
(dp1356
I0
(lp1357
sI1
(lp1358
Vhttp://www.w3.org/2000/01/rdf-schema#seeAlso
p1359
aVhttp://dbpedia.org/property/origin
p1360
aVhttp://dbpedia.org/property/place
p1361
aVhttp://dbpedia.org/property/territory
p1362
aVhttp://dbpedia.org/ontology/country
p1363
aVhttp://dbpedia.org/property/locationCountry
p1364
aVhttp://dbpedia.org/ontology/ground
p1365
aVhttp://dbpedia.org/ontology/place
p1366
aVhttp://dbpedia.org/property/locationSigned
p1367
aVhttp://dbpedia.org/property/country
p1368
aVhttp://dbpedia.org/property/establishedEvent
p1369
aVhttp://dbpedia.org/property/stateParty
p1370
aVhttp://dbpedia.org/property/location
p1371
aVhttp://dbpedia.org/property/district
p1372
aVhttp://dbpedia.org/property/cityServed
p1373
aVhttp://dbpedia.org/ontology/locationCountry
p1374
aVhttp://dbpedia.org/ontology/district
p1375
aVhttp://dbpedia.org/ontology/city
p1376
aVhttp://dbpedia.org/property/subdivisionName
p1377
aVhttp://dbpedia.org/property/locale
p1378
aVhttp://dbpedia.org/ontology/location
p1379
aVhttp://dbpedia.org/ontology/hometown
p1380
aVhttp://dbpedia.org/ontology/spokenIn
p1381
asI2
(lp1382
sI3
(lp1383
Vhttp://www.w3.org/2000/01/rdf-schema#seeAlso
p1384
aVhttp://dbpedia.org/property/origin
p1385
aVhttp://dbpedia.org/ontology/type
p1386
aVhttp://dbpedia.org/ontology/currency
p1387
aVhttp://dbpedia.org/property/place
p1388
aVhttp://dbpedia.org/property/city
p1389
aVhttp://dbpedia.org/ontology/garrison
p1390
aVhttp://dbpedia.org/property/territory
p1391
aVhttp://dbpedia.org/ontology/demonym
p1392
aVhttp://dbpedia.org/ontology/regionServed
p1393
aVhttp://dbpedia.org/ontology/country
p1394
aVhttp://dbpedia.org/property/locationCountry
p1395
aVhttp://dbpedia.org/ontology/place
p1396
aVhttp://dbpedia.org/property/locationSigned
p1397
aVhttp://dbpedia.org/property/owner
p1398
aVhttp://dbpedia.org/property/country
p1399
aVhttp://dbpedia.org/property/establishedEvent
p1400
aVhttp://dbpedia.org/ontology/populationPlace
p1401
aVhttp://dbpedia.org/ontology/abstract
p1402
aVhttp://dbpedia.org/ontology/spokenIn
p1403
aVhttp://dbpedia.org/property/location
p1404
aVhttp://dbpedia.org/ontology/usingCountry
p1405
aVhttp://dbpedia.org/ontology/locationCountry
p1406
aVhttp://dbpedia.org/ontology/headquarter
p1407
aVhttp://dbpedia.org/ontology/language
p1408
aVhttp://dbpedia.org/ontology/location
p1409
aVhttp://dbpedia.org/property/languages
p1410
aVhttp://dbpedia.org/property/headquarters
p1411
aVhttp://www.w3.org/2000/01/rdf-schema#comment
p1412
aVhttp://dbpedia.org/ontology/wikiPageRedirects
p1413
aVhttp://dbpedia.org/property/area
p1414
aVhttp://dbpedia.org/ontology/hometown
p1415
aVhttp://dbpedia.org/property/demonym
p1416
aVhttp://dbpedia.org/property/areaServed
p1417
aVhttp://dbpedia.org/property/regionServed
p1418
aVhttp://dbpedia.org/property/foundingLocation
p1419
assI1
(dp1420
I0
g1358
sI1
(lp1421
sI2
(lp1422
sI3
(lp1423
Vhttp://www.w3.org/2000/01/rdf-schema#seeAlso
p1424
aVhttp://dbpedia.org/property/origin
p1425
aVhttp://dbpedia.org/property/place
p1426
aVhttp://dbpedia.org/ontology/foundationPlace
p1427
aVhttp://dbpedia.org/property/city
p1428
aVhttp://dbpedia.org/ontology/garrison
p1429
aVhttp://dbpedia.org/property/focusCities
p1430
aVhttp://dbpedia.org/property/capital
p1431
aVhttp://dbpedia.org/property/leadersSeat
p1432
aVhttp://dbpedia.org/ontology/place
p1433
aVhttp://dbpedia.org/property/locationSigned
p1434
aVhttp://dbpedia.org/ontology/abstract
p1435
aVhttp://dbpedia.org/property/location
p1436
aVhttp://dbpedia.org/property/headquarter
p1437
aVhttp://dbpedia.org/ontology/headquarter
p1438
aVhttp://dbpedia.org/property/foundation
p1439
aVhttp://dbpedia.org/ontology/location
p1440
aVhttp://dbpedia.org/property/headquarters
p1441
aVhttp://www.w3.org/2000/01/rdf-schema#comment
p1442
aVhttp://dbpedia.org/property/content
p1443
aVhttp://dbpedia.org/ontology/hometown
p1444
aVhttp://dbpedia.org/property/locationCity
p1445
aVhttp://dbpedia.org/property/garrison
p1446
aVhttp://dbpedia.org/ontology/locationCity
p1447
aVhttp://dbpedia.org/property/stadium
p1448
assI2
(dp1449
I0
g1382
sI1
g1422
sI2
(lp1450
sI3
(lp1451
ssI3
(dp1452
I0
g1383
sI1
g1423
sI2
g1451
sI3
(lp1453
ssa(dp1454
I0
(dp1455
I0
(lp1456
sI1
(lp1457
Vhttp://dbpedia.org/ontology/wikiPageExternalLink
p1458
aVhttp://www.w3.org/2000/01/rdf-schema#seeAlso
p1459
aVhttp://dbpedia.org/property/locationCountry
p1460
aVhttp://dbpedia.org/property/locale
p1461
aVhttp://dbpedia.org/ontology/country
p1462
aVhttp://dbpedia.org/ontology/birthPlace
p1463
aVhttp://dbpedia.org/ontology/abstract
p1464
aVhttp://www.w3.org/2000/01/rdf-schema#comment
p1465
aVhttp://dbpedia.org/ontology/locationCountry
p1466
aVhttp://dbpedia.org/ontology/ground
p1467
aVhttp://dbpedia.org/property/cityServed
p1468
aVhttp://dbpedia.org/property/city
p1469
aVhttp://dbpedia.org/property/birthPlace
p1470
aVhttp://dbpedia.org/property/ground
p1471
aVhttp://dbpedia.org/property/placeOfBirth
p1472
aVhttp://dbpedia.org/property/basedIn
p1473
aVhttp://dbpedia.org/property/location
p1474
aVhttp://dbpedia.org/property/country
p1475
aVhttp://dbpedia.org/property/subdivisionName
p1476
aVhttp://dbpedia.org/ontology/city
p1477
aVhttp://dbpedia.org/ontology/location
p1478
asI2
(lp1479
sI3
(lp1480
ssI1
(dp1481
I0
g1457
sI1
(lp1482
sI2
(lp1483
sI3
(lp1484
ssI2
(dp1485
I0
g1479
sI1
g1483
sI2
(lp1486
sI3
(lp1487
ssI3
(dp1488
I0
g1480
sI1
g1484
sI2
g1487
sI3
(lp1489
ssa(dp1490
I0
(dp1491
I0
(lp1492
sI1
(lp1493
sI2
(lp1494
sI3
(lp1495
ssI1
(dp1496
I0
g1493
sI1
(lp1497
sI2
(lp1498
sI3
(lp1499
Vhttp://www.w3.org/2000/01/rdf-schema#seeAlso
p1500
aVhttp://dbpedia.org/property/origin
p1501
aVhttp://dbpedia.org/ontology/beltwayCity
p1502
aVhttp://dbpedia.org/ontology/routeStart
p1503
aVhttp://dbpedia.org/property/residence
p1504
aVhttp://dbpedia.org/ontology/garrison
p1505
aVhttp://dbpedia.org/ontology/country
p1506
aVhttp://www.w3.org/1999/02/22-rdf-syntax-ns#type
p1507
aVhttp://dbpedia.org/property/capital
p1508
aVhttp://dbpedia.org/property/country
p1509
aVhttp://dbpedia.org/property/meetingPlace
p1510
aVhttp://purl.org/dc/terms/subject
p1511
aVhttp://dbpedia.org/ontology/populationPlace
p1512
aVhttp://dbpedia.org/ontology/abstract
p1513
aVhttp://dbpedia.org/property/pushpinMap
p1514
aVhttp://dbpedia.org/property/location
p1515
aVhttp://dbpedia.org/property/regions
p1516
aVhttp://dbpedia.org/ontology/headquarter
p1517
aVhttp://dbpedia.org/ontology/city
p1518
aVhttp://dbpedia.org/ontology/foundationPlace
p1519
aVhttp://dbpedia.org/ontology/location
p1520
aVhttp://dbpedia.org/property/headquarters
p1521
aVhttp://dbpedia.org/property/city
p1522
aVhttp://dbpedia.org/property/popplace
p1523
aVhttp://www.w3.org/2000/01/rdf-schema#comment
p1524
aVhttp://dbpedia.org/ontology/wikiPageRedirects
p1525
aVhttp://dbpedia.org/property/seat
p1526
aVhttp://dbpedia.org/ontology/hometown
p1527
aVhttp://dbpedia.org/property/locationCity
p1528
aVhttp://dbpedia.org/ontology/locationCity
p1529
aVhttp://dbpedia.org/property/stadium
p1530
assI2
(dp1531
I0
g1494
sI1
g1498
sI2
(lp1532
sI3
(lp1533
ssI3
(dp1534
I0
g1495
sI1
g1499
sI2
g1533
sI3
(lp1535
ssa.