(lp1
(lp2
(dp3
Vstart
p4
I0
sS'classes'
p5
(lp6
Vhttp://dbpedia.org/class/yago/Abstraction100002137
p7
aVhttp://dbpedia.org/class/yago/Abstraction105854150
p8
aVhttp://dbpedia.org/class/yago/Cognition100023271
p9
aVhttp://dbpedia.org/class/yago/Concept105835747
p10
aVhttp://dbpedia.org/class/yago/Content105809192
p11
aVhttp://dbpedia.org/class/yago/Idea105833840
p12
aVhttp://dbpedia.org/class/yago/Right105174653
p13
aVhttp://dbpedia.org/class/yago/DisabilityRights
p14
aVhttp://dbpedia.org/class/yago/PsychologicalFeature100023100
p15
asVdisambiguatedURL
p16
Vhttp://dbpedia.org/resource/Inclusion_(disability_rights)
p17
sVnamedEntity
p18
Vart
p19
sVoffset
p20
I3
saa(lp21
a(lp22
a(lp23
a(lp24
a(lp25
a(lp26
a(lp27
a(lp28
a(lp29
a(lp30
a(lp31
a.