(lp1
(lp2
(lp3
a(lp4
a(lp5
a(lp6
((lVhttp://dbpedia.org/resource/November_29
tp7
aaa(lp8
(lp9
a(lp10
a(lp11
a(lp12
((lVhttp://dbpedia.org/resource/November_29
tp13
aaa(lp14
(lp15
a(lp16
a(lp17
a(lp18
((lVhttp://dbpedia.org/resource/November_29
tp19
aaa(lp20
(lp21
a(lp22
a(lp23
a(lp24
((lVhttp://dbpedia.org/resource/May_35
tp25
aaa(lp26
(lp27
a(lp28
a(lp29
a(lp30
((lVhttp://dbpedia.org/resource/August_1
tp31
aaa(lp32
(lp33
a(lp34
a(lp35
a(lp36
((lp37
Vhttp://www.w3.org/2002/07/owl#Thing
p38
aVhttp://dbpedia.org/ontology/Place
p39
aVhttp://dbpedia.org/ontology/Location
p40
aVhttp://www.wikidata.org/entity/Q486972
p41
aVhttp://dbpedia.org/ontology/PopulatedPlace
p42
aVhttp://schema.org/Place
p43
aVhttp://dbpedia.org/resource/May_31
tp44
aaa(lp45
(lp46
a(lp47
a(lp48
a(lp49
((lp50
Vhttp://www.w3.org/2002/07/owl#Thing
p51
aVhttp://dbpedia.org/ontology/Place
p52
aVhttp://dbpedia.org/ontology/Location
p53
aVhttp://www.wikidata.org/entity/Q486972
p54
aVhttp://dbpedia.org/ontology/PopulatedPlace
p55
aVhttp://schema.org/Place
p56
aVhttp://dbpedia.org/resource/May_31
tp57
aaa(lp58
(lp59
a(lp60
a(lp61
a(lp62
((lVhttp://dbpedia.org/resource/September_18
tp63
aaa(lp64
(lp65
a(lp66
a(lp67
a(lp68
((lVhttp://dbpedia.org/resource/May_35
tp69
aaa(lp70
(lp71
a(lp72
a(lp73
a(lp74
((lVhttp://dbpedia.org/resource/November_29
tp75
aaa(lp76
(lp77
a(lp78
a(lp79
a(lp80
((lVhttp://dbpedia.org/resource/May_35
tp81
aaa(lp82
(lp83
a(lp84
a(lp85
a(lp86
((lVhttp://dbpedia.org/resource/September_26
tp87
aaa(lp88
(lp89
a(lp90
a(lp91
a(lp92
aa(lp93
(lp94
a(lp95
a(lp96
a(lp97
aa(lp98
(lp99
a(lp100
a(lp101
a(lp102
((lVhttp://dbpedia.org/resource/May_35
p103
tp104
aaa.