(lp1
(lp2
(lp3
a(lp4
a(lp5
((lp6
Vhttp://www.w3.org/2002/07/owl#Thing
p7
aVhttp://xmlns.com/foaf/0.1/Person
p8
aVhttp://dbpedia.org/ontology/Person
p9
aVhttp://www.ontologydesignpatterns.org/ont/dul/DUL.owl#Agent
p10
aVhttp://www.ontologydesignpatterns.org/ont/dul/DUL.owl#NaturalPerson
p11
aVhttp://www.wikidata.org/entity/Q215627
p12
aVhttp://www.wikidata.org/entity/Q5
p13
aVhttp://dbpedia.org/ontology/Agent
p14
aVhttp://schema.org/Person
p15
aVhttp://dbpedia.org/resource/Junaid_Sheikh
tp16
aa(lp17
aa(lp18
(lp19
a(lp20
a(lp21
((lp22
Vhttp://www.w3.org/2002/07/owl#Thing
p23
aVhttp://xmlns.com/foaf/0.1/Person
p24
aVhttp://dbpedia.org/ontology/Person
p25
aVhttp://www.ontologydesignpatterns.org/ont/dul/DUL.owl#Agent
p26
aVhttp://www.ontologydesignpatterns.org/ont/dul/DUL.owl#NaturalPerson
p27
aVhttp://www.wikidata.org/entity/Q215627
p28
aVhttp://www.wikidata.org/entity/Q5
p29
aVhttp://dbpedia.org/ontology/Agent
p30
aVhttp://schema.org/Person
p31
aVhttp://dbpedia.org/resource/June_Harwood
tp32
aa(lp33
aa(lp34
(lp35
a(lp36
a(lp37
a(lp38
aa(lp39
(lp40
a(lp41
a(lp42
a(lp43
aa(lp44
(lp45
a(lp46
a(lp47
((lp48
Vhttp://www.w3.org/2002/07/owl#Thing
p49
aVhttp://xmlns.com/foaf/0.1/Person
p50
aVhttp://dbpedia.org/ontology/Person
p51
aVhttp://www.ontologydesignpatterns.org/ont/dul/DUL.owl#Agent
p52
aVhttp://www.ontologydesignpatterns.org/ont/dul/DUL.owl#NaturalPerson
p53
aVhttp://www.wikidata.org/entity/Q215627
p54
aVhttp://www.wikidata.org/entity/Q5
p55
aVhttp://dbpedia.org/ontology/Agent
p56
aVhttp://schema.org/Person
p57
aVhttp://dbpedia.org/resource/Justin_Newcombe
tp58
aa(lp59
aa(lp60
(lp61
a(lp62
a(lp63
a(lp64
aa(lp65
(lp66
a(lp67
a(lp68
a(lp69
aa(lp70
(lp71
a(lp72
a(lp73
a(lp74
aa(lp75
(lp76
a(lp77
a(lp78
((lp79
Vhttp://www.w3.org/2002/07/owl#Thing
p80
aVhttp://xmlns.com/foaf/0.1/Person
p81
aVhttp://dbpedia.org/ontology/Person
p82
aVhttp://www.ontologydesignpatterns.org/ont/dul/DUL.owl#Agent
p83
aVhttp://www.ontologydesignpatterns.org/ont/dul/DUL.owl#NaturalPerson
p84
aVhttp://www.wikidata.org/entity/Q215627
p85
aVhttp://www.wikidata.org/entity/Q5
p86
aVhttp://dbpedia.org/ontology/Agent
p87
aVhttp://schema.org/Person
p88
aVhttp://dbpedia.org/resource/K.M._Akhtaruzzaman
tp89
aa(lp90
aa(lp91
(lp92
a(lp93
a(lp94
a(lp95
((lVhttp://dbpedia.org/resource/Demographics_of_Hong_Kong
tp96
aaa(lp97
(lp98
a(lp99
a(lp100
((lp101
Vhttp://www.w3.org/2002/07/owl#Thing
p102
aVhttp://xmlns.com/foaf/0.1/Person
p103
aVhttp://dbpedia.org/ontology/Person
p104
aVhttp://www.ontologydesignpatterns.org/ont/dul/DUL.owl#Agent
p105
aVhttp://www.ontologydesignpatterns.org/ont/dul/DUL.owl#NaturalPerson
p106
aVhttp://www.wikidata.org/entity/Q215627
p107
aVhttp://www.wikidata.org/entity/Q5
p108
aVhttp://dbpedia.org/ontology/Agent
p109
aVhttp://schema.org/Person
p110
aVhttp://dbpedia.org/resource/Kai_Schumacher
tp111
aa(lp112
aa(lp113
(lp114
a(lp115
a(lp116
((lp117
Vhttp://www.w3.org/2002/07/owl#Thing
p118
aVhttp://xmlns.com/foaf/0.1/Person
p119
aVhttp://dbpedia.org/ontology/Person
p120
aVhttp://www.ontologydesignpatterns.org/ont/dul/DUL.owl#Agent
p121
aVhttp://www.ontologydesignpatterns.org/ont/dul/DUL.owl#NaturalPerson
p122
aVhttp://www.wikidata.org/entity/Q215627
p123
aVhttp://www.wikidata.org/entity/Q5
p124
aVhttp://dbpedia.org/ontology/Agent
p125
aVhttp://schema.org/Person
p126
aVhttp://dbpedia.org/resource/Kaja_Renkas
p127
tp128
aa(lp129
aa.