(lp1
(lp2
(lp3
a(lp4
Vhttp://dbpedia.org/resource/Itapuca
p5
aa(lp6
aa(lp7
(lp8
a(lp9
a(lp10
aa(lp11
(lp12
a(lp13
Vhttp://dbpedia.org/resource/Itacoatiara
p14
aa(lp15
aa(lp16
(lp17
a(lp18
Vhttp://dbpedia.org/resource/Arpoador,_Rio_de_Janeiro
p19
aa(lp20
aa(lp21
(lp22
a(lp23
Vhttp://dbpedia.org/resource/Piratininga
p24
aa(lp25
aa(lp26
(lp27
a(lp28
a(lp29
aa(lp30
(lp31
a(lp32
a(lp33
aa(lp34
(lp35
a(lp36
Vhttp://dbpedia.org/resource/Mid-Atlantic_Bight
p37
aa(lp38
aa(lp39
(lp40
a(lp41
a(lp42
aa(lp43
(lp44
a(lp45
a(lp46
aa(lp47
(lp48
a(lp49
Vhttp://dbpedia.org/resource/UTC\u221204:00
p50
aa(lp51
aa(lp52
(lp53
a(lp54
a(lp55
aa(lp56
(lp57
a(lp58
Vhttp://dbpedia.org/resource/Rio_de_Janeiro
p59
aa(lp60
aa(lp61
(lp62
a(lp63
a(lp64
aa(lp65
(lp66
a(lp67
a(lp68
aa(lp69
(lp70
a(lp71
Vhttp://dbpedia.org/resource/Angra_dos_Reis
p72
aa(lp73
aa(lp74
(lp75
a(lp76
a(lp77
aa(lp78
(lp79
a(lp80
a(lp81
aa(lp82
(lp83
a(lp84
a(lp85
aa(lp86
(lp87
a(lp88
a(lp89
aa.