(lp1
(dp2
I0
(dp3
I0
(lp4
sI1
(lp5
sI2
(lp6
sI3
(lp7
sI4
(lp8
sI5
(lp9
sI6
(lp10
sI7
(lp11
ssI1
(dp12
I1
(lp13
sI2
(lp14
sI3
(lp15
sI4
(lp16
sI5
(lp17
sI6
(lp18
sI7
(lp19
ssI2
(dp20
I2
(lp21
sI3
(lp22
sI4
(lp23
sI5
(lp24
sI6
(lp25
sI7
(lp26
ssI3
(dp27
I3
(lp28
sI4
(lp29
sI5
(lp30
sI6
(lp31
sI7
(lp32
ssI4
(dp33
I4
(lp34
sI5
(lp35
sI6
(lp36
sI7
(lp37
ssI5
(dp38
I5
(lp39
sI6
(lp40
sI7
(lp41
ssI6
(dp42
I6
(lp43
sI7
(lp44
ssI7
(dp45
I7
(lp46
ssa(dp47
I0
(dp48
I0
(lp49
sI1
(lp50
sI2
(lp51
sI3
(lp52
sI4
(lp53
sI5
(lp54
sI6
(lp55
sI7
(lp56
ssI1
(dp57
I0
g50
sI1
(lp58
sI2
(lp59
sI3
(lp60
sI4
(lp61
sI5
(lp62
sI6
(lp63
sI7
(lp64
ssI2
(dp65
I0
g51
sI1
g59
sI2
(lp66
sI3
(lp67
sI4
(lp68
sI5
(lp69
sI6
(lp70
sI7
(lp71
ssI3
(dp72
I0
g52
sI1
g60
sI2
g67
sI3
(lp73
sI4
(lp74
sI5
(lp75
sI6
(lp76
sI7
(lp77
ssI4
(dp78
I0
g53
sI1
g61
sI2
g68
sI3
g74
sI4
(lp79
sI5
(lp80
sI6
(lp81
sI7
(lp82
ssI5
(dp83
I0
g54
sI1
g62
sI2
g69
sI3
g75
sI4
g80
sI5
(lp84
sI6
(lp85
sI7
(lp86
ssI6
(dp87
I0
g55
sI1
g63
sI2
g70
sI3
g76
sI4
g81
sI5
g85
sI6
(lp88
sI7
(lp89
ssI7
(dp90
I0
g56
sI1
g64
sI2
g71
sI3
g77
sI4
g82
sI5
g86
sI6
g89
sI7
(lp91
ssa(dp92
I0
(dp93
I0
(lp94
sI1
(lp95
sI2
(lp96
sI3
(lp97
sI4
(lp98
sI5
(lp99
sI6
(lp100
sI7
(lp101
ssI1
(dp102
I0
g95
sI1
(lp103
sI2
(lp104
sI3
(lp105
sI4
(lp106
sI5
(lp107
sI6
(lp108
sI7
(lp109
ssI2
(dp110
I0
g96
sI1
g104
sI2
(lp111
sI3
(lp112
sI4
(lp113
sI5
(lp114
sI6
(lp115
sI7
(lp116
ssI3
(dp117
I0
g97
sI1
g105
sI2
g112
sI3
(lp118
sI4
(lp119
sI5
(lp120
sI6
(lp121
sI7
(lp122
ssI4
(dp123
I0
g98
sI1
g106
sI2
g113
sI3
g119
sI4
(lp124
sI5
(lp125
sI6
(lp126
sI7
(lp127
ssI5
(dp128
I0
g99
sI1
g107
sI2
g114
sI3
g120
sI4
g125
sI5
(lp129
sI6
(lp130
sI7
(lp131
ssI6
(dp132
I0
g100
sI1
g108
sI2
g115
sI3
g121
sI4
g126
sI5
g130
sI6
(lp133
sI7
(lp134
ssI7
(dp135
I0
g101
sI1
g109
sI2
g116
sI3
g122
sI4
g127
sI5
g131
sI6
g134
sI7
(lp136
ssa(dp137
I0
(dp138
I0
(lp139
sI1
(lp140
sI2
(lp141
sI3
(lp142
sI4
(lp143
sI5
(lp144
sI6
(lp145
sI7
(lp146
ssI1
(dp147
I0
g140
sI1
(lp148
sI2
(lp149
sI3
(lp150
sI4
(lp151
sI5
(lp152
sI6
(lp153
sI7
(lp154
ssI2
(dp155
I0
g141
sI1
g149
sI2
(lp156
sI3
(lp157
sI4
(lp158
sI5
(lp159
sI6
(lp160
sI7
(lp161
ssI3
(dp162
I0
g142
sI1
g150
sI2
g157
sI3
(lp163
sI4
(lp164
sI5
(lp165
sI6
(lp166
sI7
(lp167
ssI4
(dp168
I0
g143
sI1
g151
sI2
g158
sI3
g164
sI4
(lp169
sI5
(lp170
sI6
(lp171
sI7
(lp172
ssI5
(dp173
I0
g144
sI1
g152
sI2
g159
sI3
g165
sI4
g170
sI5
(lp174
sI6
(lp175
sI7
(lp176
ssI6
(dp177
I0
g145
sI1
g153
sI2
g160
sI3
g166
sI4
g171
sI5
g175
sI6
(lp178
sI7
(lp179
ssI7
(dp180
I0
g146
sI1
g154
sI2
g161
sI3
g167
sI4
g172
sI5
g176
sI6
g179
sI7
(lp181
ssa(dp182
I0
(dp183
I0
(lp184
sI1
(lp185
sI2
(lp186
sI3
(lp187
sI4
(lp188
sI5
(lp189
sI6
(lp190
sI7
(lp191
ssI1
(dp192
I0
g185
sI1
(lp193
sI2
(lp194
sI3
(lp195
sI4
(lp196
sI5
(lp197
sI6
(lp198
sI7
(lp199
ssI2
(dp200
I0
g186
sI1
g194
sI2
(lp201
sI3
(lp202
sI4
(lp203
sI5
(lp204
sI6
(lp205
sI7
(lp206
Vhttp://www.w3.org/2002/07/owl#sameAs
p207
assI3
(dp208
I0
g187
sI1
g195
sI2
g202
sI3
(lp209
sI4
(lp210
sI5
(lp211
sI6
(lp212
sI7
(lp213
ssI4
(dp214
I0
g188
sI1
g196
sI2
g203
sI3
g210
sI4
(lp215
sI5
(lp216
sI6
(lp217
sI7
(lp218
ssI5
(dp219
I0
g189
sI1
g197
sI2
g204
sI3
g211
sI4
g216
sI5
(lp220
sI6
(lp221
sI7
(lp222
ssI6
(dp223
I0
g190
sI1
g198
sI2
g205
sI3
g212
sI4
g217
sI5
g221
sI6
(lp224
sI7
(lp225
ssI7
(dp226
I0
g191
sI1
g199
sI2
g206
sI3
g213
sI4
g218
sI5
g222
sI6
g225
sI7
(lp227
ssa(dp228
I0
(dp229
I0
(lp230
sI1
(lp231
sI2
(lp232
sI3
(lp233
sI4
(lp234
sI5
(lp235
sI6
(lp236
sI7
(lp237
ssI1
(dp238
I0
g231
sI1
(lp239
sI2
(lp240
sI3
(lp241
sI4
(lp242
sI5
(lp243
sI6
(lp244
sI7
(lp245
ssI2
(dp246
I0
g232
sI1
g240
sI2
(lp247
sI3
(lp248
sI4
(lp249
sI5
(lp250
sI6
(lp251
sI7
(lp252
ssI3
(dp253
I0
g233
sI1
g241
sI2
g248
sI3
(lp254
sI4
(lp255
sI5
(lp256
sI6
(lp257
sI7
(lp258
ssI4
(dp259
I0
g234
sI1
g242
sI2
g249
sI3
g255
sI4
(lp260
sI5
(lp261
sI6
(lp262
sI7
(lp263
ssI5
(dp264
I0
g235
sI1
g243
sI2
g250
sI3
g256
sI4
g261
sI5
(lp265
sI6
(lp266
sI7
(lp267
ssI6
(dp268
I0
g236
sI1
g244
sI2
g251
sI3
g257
sI4
g262
sI5
g266
sI6
(lp269
sI7
(lp270
ssI7
(dp271
I0
g237
sI1
g245
sI2
g252
sI3
g258
sI4
g263
sI5
g267
sI6
g270
sI7
(lp272
ssa(dp273
I0
(dp274
I0
(lp275
sI1
(lp276
sI2
(lp277
sI3
(lp278
sI4
(lp279
sI5
(lp280
sI6
(lp281
sI7
(lp282
ssI1
(dp283
I0
g276
sI1
(lp284
sI2
(lp285
sI3
(lp286
sI4
(lp287
sI5
(lp288
sI6
(lp289
sI7
(lp290
ssI2
(dp291
I0
g277
sI1
g285
sI2
(lp292
sI3
(lp293
sI4
(lp294
sI5
(lp295
sI6
(lp296
sI7
(lp297
ssI3
(dp298
I0
g278
sI1
g286
sI2
g293
sI3
(lp299
sI4
(lp300
sI5
(lp301
sI6
(lp302
sI7
(lp303
ssI4
(dp304
I0
g279
sI1
g287
sI2
g294
sI3
g300
sI4
(lp305
sI5
(lp306
sI6
(lp307
sI7
(lp308
ssI5
(dp309
I0
g280
sI1
g288
sI2
g295
sI3
g301
sI4
g306
sI5
(lp310
sI6
(lp311
sI7
(lp312
ssI6
(dp313
I0
g281
sI1
g289
sI2
g296
sI3
g302
sI4
g307
sI5
g311
sI6
(lp314
sI7
(lp315
ssI7
(dp316
I0
g282
sI1
g290
sI2
g297
sI3
g303
sI4
g308
sI5
g312
sI6
g315
sI7
(lp317
ssa(dp318
I0
(dp319
I0
(lp320
sI1
(lp321
sI2
(lp322
sI3
(lp323
sI4
(lp324
sI5
(lp325
sI6
(lp326
sI7
(lp327
ssI1
(dp328
I0
g321
sI1
(lp329
sI2
(lp330
sI3
(lp331
sI4
(lp332
sI5
(lp333
sI6
(lp334
sI7
(lp335
ssI2
(dp336
I0
g322
sI1
g330
sI2
(lp337
sI3
(lp338
sI4
(lp339
sI5
(lp340
sI6
(lp341
sI7
(lp342
ssI3
(dp343
I0
g323
sI1
g331
sI2
g338
sI3
(lp344
sI4
(lp345
sI5
(lp346
sI6
(lp347
sI7
(lp348
ssI4
(dp349
I0
g324
sI1
g332
sI2
g339
sI3
g345
sI4
(lp350
sI5
(lp351
sI6
(lp352
sI7
(lp353
ssI5
(dp354
I0
g325
sI1
g333
sI2
g340
sI3
g346
sI4
g351
sI5
(lp355
sI6
(lp356
sI7
(lp357
ssI6
(dp358
I0
g326
sI1
g334
sI2
g341
sI3
g347
sI4
g352
sI5
g356
sI6
(lp359
sI7
(lp360
ssI7
(dp361
I0
g327
sI1
g335
sI2
g342
sI3
g348
sI4
g353
sI5
g357
sI6
g360
sI7
(lp362
ssa(dp363
I0
(dp364
I0
(lp365
sI1
(lp366
sI2
(lp367
sI3
(lp368
sI4
(lp369
sI5
(lp370
sI6
(lp371
sI7
(lp372
ssI1
(dp373
I0
g366
sI1
(lp374
sI2
(lp375
Vhttp://www.w3.org/1999/02/22-rdf-syntax-ns#type
p376
asI3
(lp377
sI4
(lp378
sI5
(lp379
sI6
(lp380
sI7
(lp381
ssI2
(dp382
I0
g367
sI1
g375
sI2
(lp383
sI3
(lp384
sI4
(lp385
sI5
(lp386
sI6
(lp387
sI7
(lp388
ssI3
(dp389
I0
g368
sI1
g377
sI2
g384
sI3
(lp390
sI4
(lp391
sI5
(lp392
sI6
(lp393
sI7
(lp394
ssI4
(dp395
I0
g369
sI1
g378
sI2
g385
sI3
g391
sI4
(lp396
sI5
(lp397
sI6
(lp398
sI7
(lp399
ssI5
(dp400
I0
g370
sI1
g379
sI2
g386
sI3
g392
sI4
g397
sI5
(lp401
sI6
(lp402
sI7
(lp403
ssI6
(dp404
I0
g371
sI1
g380
sI2
g387
sI3
g393
sI4
g398
sI5
g402
sI6
(lp405
sI7
(lp406
ssI7
(dp407
I0
g372
sI1
g381
sI2
g388
sI3
g394
sI4
g399
sI5
g403
sI6
g406
sI7
(lp408
ssa(dp409
I0
(dp410
I0
(lp411
sI1
(lp412
sI2
(lp413
sI3
(lp414
sI4
(lp415
sI5
(lp416
sI6
(lp417
sI7
(lp418
ssI1
(dp419
I0
g412
sI1
(lp420
sI2
(lp421
sI3
(lp422
sI4
(lp423
sI5
(lp424
sI6
(lp425
sI7
(lp426
ssI2
(dp427
I0
g413
sI1
g421
sI2
(lp428
sI3
(lp429
sI4
(lp430
sI5
(lp431
Vhttp://www.w3.org/1999/02/22-rdf-syntax-ns#type
p432
asI6
(lp433
sI7
(lp434
ssI3
(dp435
I0
g414
sI1
g422
sI2
g429
sI3
(lp436
sI4
(lp437
sI5
(lp438
sI6
(lp439
sI7
(lp440
ssI4
(dp441
I0
g415
sI1
g423
sI2
g430
sI3
g437
sI4
(lp442
sI5
(lp443
sI6
(lp444
sI7
(lp445
ssI5
(dp446
I0
g416
sI1
g424
sI2
g431
sI3
g438
sI4
g443
sI5
(lp447
sI6
(lp448
sI7
(lp449
ssI6
(dp450
I0
g417
sI1
g425
sI2
g433
sI3
g439
sI4
g444
sI5
g448
sI6
(lp451
sI7
(lp452
ssI7
(dp453
I0
g418
sI1
g426
sI2
g434
sI3
g440
sI4
g445
sI5
g449
sI6
g452
sI7
(lp454
ssa(dp455
I0
(dp456
I0
(lp457
sI1
(lp458
sI2
(lp459
sI3
(lp460
sI4
(lp461
sI5
(lp462
sI6
(lp463
sI7
(lp464
ssI1
(dp465
I0
g458
sI1
(lp466
sI2
(lp467
sI3
(lp468
sI4
(lp469
sI5
(lp470
sI6
(lp471
sI7
(lp472
ssI2
(dp473
I0
g459
sI1
g467
sI2
(lp474
sI3
(lp475
sI4
(lp476
sI5
(lp477
sI6
(lp478
sI7
(lp479
ssI3
(dp480
I0
g460
sI1
g468
sI2
g475
sI3
(lp481
sI4
(lp482
sI5
(lp483
sI6
(lp484
sI7
(lp485
ssI4
(dp486
I0
g461
sI1
g469
sI2
g476
sI3
g482
sI4
(lp487
sI5
(lp488
sI6
(lp489
sI7
(lp490
ssI5
(dp491
I0
g462
sI1
g470
sI2
g477
sI3
g483
sI4
g488
sI5
(lp492
sI6
(lp493
sI7
(lp494
ssI6
(dp495
I0
g463
sI1
g471
sI2
g478
sI3
g484
sI4
g489
sI5
g493
sI6
(lp496
sI7
(lp497
ssI7
(dp498
I0
g464
sI1
g472
sI2
g479
sI3
g485
sI4
g490
sI5
g494
sI6
g497
sI7
(lp499
ssa(dp500
I0
(dp501
I0
(lp502
sI1
(lp503
sI2
(lp504
sI3
(lp505
sI4
(lp506
sI5
(lp507
sI6
(lp508
sI7
(lp509
ssI1
(dp510
I0
g503
sI1
(lp511
sI2
(lp512
sI3
(lp513
sI4
(lp514
sI5
(lp515
sI6
(lp516
sI7
(lp517
ssI2
(dp518
I0
g504
sI1
g512
sI2
(lp519
sI3
(lp520
sI4
(lp521
sI5
(lp522
Vhttp://www.w3.org/1999/02/22-rdf-syntax-ns#type
p523
asI6
(lp524
sI7
(lp525
ssI3
(dp526
I0
g505
sI1
g513
sI2
g520
sI3
(lp527
sI4
(lp528
sI5
(lp529
sI6
(lp530
sI7
(lp531
ssI4
(dp532
I0
g506
sI1
g514
sI2
g521
sI3
g528
sI4
(lp533
sI5
(lp534
sI6
(lp535
sI7
(lp536
ssI5
(dp537
I0
g507
sI1
g515
sI2
g522
sI3
g529
sI4
g534
sI5
(lp538
sI6
(lp539
sI7
(lp540
ssI6
(dp541
I0
g508
sI1
g516
sI2
g524
sI3
g530
sI4
g535
sI5
g539
sI6
(lp542
sI7
(lp543
ssI7
(dp544
I0
g509
sI1
g517
sI2
g525
sI3
g531
sI4
g536
sI5
g540
sI6
g543
sI7
(lp545
ssa(dp546
I0
(dp547
I0
(lp548
sI1
(lp549
sI2
(lp550
sI3
(lp551
sI4
(lp552
sI5
(lp553
sI6
(lp554
sI7
(lp555
ssI1
(dp556
I0
g549
sI1
(lp557
sI2
(lp558
sI3
(lp559
sI4
(lp560
sI5
(lp561
sI6
(lp562
sI7
(lp563
ssI2
(dp564
I0
g550
sI1
g558
sI2
(lp565
sI3
(lp566
sI4
(lp567
sI5
(lp568
sI6
(lp569
sI7
(lp570
ssI3
(dp571
I0
g551
sI1
g559
sI2
g566
sI3
(lp572
sI4
(lp573
sI5
(lp574
sI6
(lp575
sI7
(lp576
ssI4
(dp577
I0
g552
sI1
g560
sI2
g567
sI3
g573
sI4
(lp578
sI5
(lp579
sI6
(lp580
sI7
(lp581
ssI5
(dp582
I0
g553
sI1
g561
sI2
g568
sI3
g574
sI4
g579
sI5
(lp583
sI6
(lp584
sI7
(lp585
ssI6
(dp586
I0
g554
sI1
g562
sI2
g569
sI3
g575
sI4
g580
sI5
g584
sI6
(lp587
sI7
(lp588
ssI7
(dp589
I0
g555
sI1
g563
sI2
g570
sI3
g576
sI4
g581
sI5
g585
sI6
g588
sI7
(lp590
ssa(dp591
I0
(dp592
I0
(lp593
sI1
(lp594
sI2
(lp595
sI3
(lp596
sI4
(lp597
sI5
(lp598
sI6
(lp599
sI7
(lp600
ssI1
(dp601
I0
g594
sI1
(lp602
sI2
(lp603
sI3
(lp604
sI4
(lp605
sI5
(lp606
sI6
(lp607
sI7
(lp608
ssI2
(dp609
I0
g595
sI1
g603
sI2
(lp610
sI3
(lp611
sI4
(lp612
sI5
(lp613
sI6
(lp614
sI7
(lp615
ssI3
(dp616
I0
g596
sI1
g604
sI2
g611
sI3
(lp617
sI4
(lp618
sI5
(lp619
sI6
(lp620
sI7
(lp621
ssI4
(dp622
I0
g597
sI1
g605
sI2
g612
sI3
g618
sI4
(lp623
sI5
(lp624
sI6
(lp625
sI7
(lp626
ssI5
(dp627
I0
g598
sI1
g606
sI2
g613
sI3
g619
sI4
g624
sI5
(lp628
sI6
(lp629
sI7
(lp630
ssI6
(dp631
I0
g599
sI1
g607
sI2
g614
sI3
g620
sI4
g625
sI5
g629
sI6
(lp632
sI7
(lp633
ssI7
(dp634
I0
g600
sI1
g608
sI2
g615
sI3
g621
sI4
g626
sI5
g630
sI6
g633
sI7
(lp635
ssa(dp636
I0
(dp637
I0
(lp638
sI1
(lp639
sI2
(lp640
sI3
(lp641
sI4
(lp642
sI5
(lp643
sI6
(lp644
sI7
(lp645
ssI1
(dp646
I0
g639
sI1
(lp647
sI2
(lp648
sI3
(lp649
sI4
(lp650
sI5
(lp651
sI6
(lp652
sI7
(lp653
ssI2
(dp654
I0
g640
sI1
g648
sI2
(lp655
sI3
(lp656
sI4
(lp657
sI5
(lp658
sI6
(lp659
sI7
(lp660
ssI3
(dp661
I0
g641
sI1
g649
sI2
g656
sI3
(lp662
sI4
(lp663
sI5
(lp664
sI6
(lp665
sI7
(lp666
ssI4
(dp667
I0
g642
sI1
g650
sI2
g657
sI3
g663
sI4
(lp668
sI5
(lp669
sI6
(lp670
sI7
(lp671
ssI5
(dp672
I0
g643
sI1
g651
sI2
g658
sI3
g664
sI4
g669
sI5
(lp673
sI6
(lp674
sI7
(lp675
ssI6
(dp676
I0
g644
sI1
g652
sI2
g659
sI3
g665
sI4
g670
sI5
g674
sI6
(lp677
sI7
(lp678
ssI7
(dp679
I0
g645
sI1
g653
sI2
g660
sI3
g666
sI4
g671
sI5
g675
sI6
g678
sI7
(lp680
ssa(dp681
I0
(dp682
I0
(lp683
sI1
(lp684
sI2
(lp685
sI3
(lp686
sI4
(lp687
sI5
(lp688
sI6
(lp689
sI7
(lp690
ssI1
(dp691
I0
g684
sI1
(lp692
sI2
(lp693
sI3
(lp694
sI4
(lp695
sI5
(lp696
sI6
(lp697
sI7
(lp698
ssI2
(dp699
I0
g685
sI1
g693
sI2
(lp700
sI3
(lp701
sI4
(lp702
sI5
(lp703
Vhttp://www.w3.org/1999/02/22-rdf-syntax-ns#type
p704
asI6
(lp705
sI7
(lp706
Vhttp://www.w3.org/1999/02/22-rdf-syntax-ns#type
p707
assI3
(dp708
I0
g686
sI1
g694
sI2
g701
sI3
(lp709
sI4
(lp710
sI5
(lp711
sI6
(lp712
sI7
(lp713
ssI4
(dp714
I0
g687
sI1
g695
sI2
g702
sI3
g710
sI4
(lp715
sI5
(lp716
sI6
(lp717
sI7
(lp718
ssI5
(dp719
I0
g688
sI1
g696
sI2
g703
sI3
g711
sI4
g716
sI5
(lp720
sI6
(lp721
sI7
(lp722
ssI6
(dp723
I0
g689
sI1
g697
sI2
g705
sI3
g712
sI4
g717
sI5
g721
sI6
(lp724
sI7
(lp725
ssI7
(dp726
I0
g690
sI1
g698
sI2
g706
sI3
g713
sI4
g718
sI5
g722
sI6
g725
sI7
(lp727
ssa(dp728
I0
(dp729
I0
(lp730
sI1
(lp731
sI2
(lp732
sI3
(lp733
sI4
(lp734
sI5
(lp735
sI6
(lp736
sI7
(lp737
ssI1
(dp738
I0
g731
sI1
(lp739
sI2
(lp740
sI3
(lp741
sI4
(lp742
sI5
(lp743
sI6
(lp744
sI7
(lp745
ssI2
(dp746
I0
g732
sI1
g740
sI2
(lp747
sI3
(lp748
sI4
(lp749
sI5
(lp750
sI6
(lp751
sI7
(lp752
ssI3
(dp753
I0
g733
sI1
g741
sI2
g748
sI3
(lp754
sI4
(lp755
sI5
(lp756
sI6
(lp757
sI7
(lp758
ssI4
(dp759
I0
g734
sI1
g742
sI2
g749
sI3
g755
sI4
(lp760
sI5
(lp761
sI6
(lp762
sI7
(lp763
ssI5
(dp764
I0
g735
sI1
g743
sI2
g750
sI3
g756
sI4
g761
sI5
(lp765
sI6
(lp766
sI7
(lp767
ssI6
(dp768
I0
g736
sI1
g744
sI2
g751
sI3
g757
sI4
g762
sI5
g766
sI6
(lp769
sI7
(lp770
ssI7
(dp771
I0
g737
sI1
g745
sI2
g752
sI3
g758
sI4
g763
sI5
g767
sI6
g770
sI7
(lp772
ssa(dp773
I0
(dp774
I0
(lp775
sI1
(lp776
sI2
(lp777
sI3
(lp778
sI4
(lp779
sI5
(lp780
sI6
(lp781
sI7
(lp782
ssI1
(dp783
I0
g776
sI1
(lp784
sI2
(lp785
sI3
(lp786
sI4
(lp787
sI5
(lp788
sI6
(lp789
sI7
(lp790
ssI2
(dp791
I0
g777
sI1
g785
sI2
(lp792
sI3
(lp793
sI4
(lp794
sI5
(lp795
sI6
(lp796
sI7
(lp797
ssI3
(dp798
I0
g778
sI1
g786
sI2
g793
sI3
(lp799
sI4
(lp800
sI5
(lp801
sI6
(lp802
sI7
(lp803
ssI4
(dp804
I0
g779
sI1
g787
sI2
g794
sI3
g800
sI4
(lp805
sI5
(lp806
sI6
(lp807
sI7
(lp808
ssI5
(dp809
I0
g780
sI1
g788
sI2
g795
sI3
g801
sI4
g806
sI5
(lp810
sI6
(lp811
sI7
(lp812
ssI6
(dp813
I0
g781
sI1
g789
sI2
g796
sI3
g802
sI4
g807
sI5
g811
sI6
(lp814
sI7
(lp815
ssI7
(dp816
I0
g782
sI1
g790
sI2
g797
sI3
g803
sI4
g808
sI5
g812
sI6
g815
sI7
(lp817
ssa(dp818
I0
(dp819
I0
(lp820
sI1
(lp821
sI2
(lp822
sI3
(lp823
sI4
(lp824
sI5
(lp825
sI6
(lp826
sI7
(lp827
ssI1
(dp828
I0
g821
sI1
(lp829
sI2
(lp830
sI3
(lp831
sI4
(lp832
sI5
(lp833
sI6
(lp834
sI7
(lp835
ssI2
(dp836
I0
g822
sI1
g830
sI2
(lp837
sI3
(lp838
sI4
(lp839
sI5
(lp840
sI6
(lp841
sI7
(lp842
ssI3
(dp843
I0
g823
sI1
g831
sI2
g838
sI3
(lp844
sI4
(lp845
sI5
(lp846
sI6
(lp847
sI7
(lp848
ssI4
(dp849
I0
g824
sI1
g832
sI2
g839
sI3
g845
sI4
(lp850
sI5
(lp851
sI6
(lp852
sI7
(lp853
ssI5
(dp854
I0
g825
sI1
g833
sI2
g840
sI3
g846
sI4
g851
sI5
(lp855
sI6
(lp856
sI7
(lp857
ssI6
(dp858
I0
g826
sI1
g834
sI2
g841
sI3
g847
sI4
g852
sI5
g856
sI6
(lp859
sI7
(lp860
ssI7
(dp861
I0
g827
sI1
g835
sI2
g842
sI3
g848
sI4
g853
sI5
g857
sI6
g860
sI7
(lp862
ssa(dp863
I0
(dp864
I0
(lp865
sI1
(lp866
sI2
(lp867
sI3
(lp868
sI4
(lp869
sI5
(lp870
sI6
(lp871
sI7
(lp872
ssI1
(dp873
I0
g866
sI1
(lp874
sI2
(lp875
sI3
(lp876
sI4
(lp877
sI5
(lp878
sI6
(lp879
sI7
(lp880
ssI2
(dp881
I0
g867
sI1
g875
sI2
(lp882
sI3
(lp883
sI4
(lp884
sI5
(lp885
sI6
(lp886
sI7
(lp887
Vhttp://www.w3.org/2002/07/owl#sameAs
p888
assI3
(dp889
I0
g868
sI1
g876
sI2
g883
sI3
(lp890
sI4
(lp891
sI5
(lp892
sI6
(lp893
sI7
(lp894
ssI4
(dp895
I0
g869
sI1
g877
sI2
g884
sI3
g891
sI4
(lp896
sI5
(lp897
sI6
(lp898
sI7
(lp899
ssI5
(dp900
I0
g870
sI1
g878
sI2
g885
sI3
g892
sI4
g897
sI5
(lp901
sI6
(lp902
sI7
(lp903
ssI6
(dp904
I0
g871
sI1
g879
sI2
g886
sI3
g893
sI4
g898
sI5
g902
sI6
(lp905
sI7
(lp906
ssI7
(dp907
I0
g872
sI1
g880
sI2
g887
sI3
g894
sI4
g899
sI5
g903
sI6
g906
sI7
(lp908
ssa.