(lp1
(lp2
a(lp3
a(lp4
a(lp5
a(lp6
a(lp7
a(lp8
a(lp9
a(lp10
a(lp11
a(lp12
a(lp13
a(lp14
a(lp15
a(lp16
(dp17
Vstart
p18
I0
sS'classes'
p19
(lp20
Vhttp://www.w3.org/2002/07/owl#Thing
p21
aVhttp://dbpedia.org/ontology/Place
p22
aVhttp://dbpedia.org/ontology/Location
p23
aVhttp://www.wikidata.org/entity/Q8502
p24
aVhttp://dbpedia.org/ontology/Mountain
p25
aVhttp://dbpedia.org/ontology/NaturalPlace
p26
aVhttp://www.w3.org/2003/01/geo/wgs84_pos#SpatialThing
p27
aVhttp://schema.org/Mountain
p28
aVhttp://schema.org/Place
p29
aVhttp://umbel.org/umbel/rc/Mountain
p30
aVhttp://dbpedia.org/class/yago/GeologicalFormation109287968
p31
aVhttp://dbpedia.org/class/yago/Mountain109359803
p32
aVhttp://dbpedia.org/class/yago/Object100002684
p33
aVhttp://dbpedia.org/class/yago/YagoGeoEntity
p34
aVhttp://dbpedia.org/class/yago/PhysicalEntity100001930
p35
aVhttp://dbpedia.org/class/yago/YagoPermanentlyLocatedEntity
p36
aVhttp://dbpedia.org/class/yago/NaturalElevation109366317
p37
aVhttp://dbpedia.org/class/yago/MountainsOfGraub%C3%BCnden
p38
aVhttp://dbpedia.org/class/yago/MountainsOfTheAlps
p39
asVdisambiguatedURL
p40
Vhttp://dbpedia.org/resource/Piz_Morteratsch
p41
sVnamedEntity
p42
Vpiz morteratsch
p43
sVoffset
p44
I15
saa(lp45
a(lp46
a(lp47
a(lp48
a(lp49
a.