(lp1
(lp2
a(lp3
(dp4
Vstart
p5
I0
sS'classes'
p6
(lp7
Vhttp://dbpedia.org/class/yago/Artifact100021939
p8
aVhttp://dbpedia.org/class/yago/BodiesOfWater
p9
aVhttp://dbpedia.org/class/yago/BodyOfWater109225146
p10
aVhttp://dbpedia.org/class/yago/Excavation103302121
p11
aVhttp://dbpedia.org/class/yago/Object100002684
p12
aVhttp://dbpedia.org/class/yago/Thing100002452
p13
aVhttp://dbpedia.org/class/yago/Whole100003553
p14
aVhttp://dbpedia.org/class/yago/YagoGeoEntity
p15
aVhttp://dbpedia.org/class/yago/PhysicalEntity100001930
p16
aVhttp://dbpedia.org/class/yago/Pool103982060
p17
aVhttp://dbpedia.org/class/yago/YagoPermanentlyLocatedEntity
p18
aVhttp://dbpedia.org/class/yago/NaturalPools
p19
asVdisambiguatedURL
p20
Vhttp://dbpedia.org/resource/Tide_pool
p21
sVnamedEntity
p22
VPool
p23
sVoffset
p24
I4
saa(lp25
a(lp26
a(lp27
a(lp28
a(lp29
a(lp30
a(lp31
(dp32
Vstart
p33
I0
sg6
(lp34
Vhttp://www.w3.org/2002/07/owl#Thing
p35
aVhttp://www.ontologydesignpatterns.org/ont/dul/DUL.owl#Agent
p36
aVhttp://www.ontologydesignpatterns.org/ont/dul/DUL.owl#SocialPerson
p37
aVhttp://www.wikidata.org/entity/Q215380
p38
aVhttp://www.wikidata.org/entity/Q43229
p39
aVhttp://dbpedia.org/ontology/Agent
p40
aVhttp://dbpedia.org/ontology/Band
p41
aVhttp://dbpedia.org/ontology/Group
p42
aVhttp://dbpedia.org/ontology/Organisation
p43
aVhttp://schema.org/MusicGroup
p44
aVhttp://schema.org/Organization
p45
aVhttp://umbel.org/umbel/rc/Band_MusicGroup
p46
aVhttp://dbpedia.org/class/yago/Abstraction100002137
p47
aVhttp://dbpedia.org/class/yago/AmericanIndieRockGroups
p48
aVhttp://dbpedia.org/class/yago/DanceBand108249960
p49
aVhttp://dbpedia.org/class/yago/Group100031264
p50
aVhttp://dbpedia.org/class/yago/MusicalOrganization108246613
p51
aVhttp://dbpedia.org/class/yago/Organization108008335
p52
aVhttp://dbpedia.org/class/yago/RockGroup108250501
p53
aVhttp://dbpedia.org/class/yago/SocialGroup107950920
p54
aVhttp://dbpedia.org/class/yago/YagoLegalActorGeo
p55
aVhttp://dbpedia.org/class/yago/YagoPermanentlyLocatedEntity
p56
aVhttp://dbpedia.org/class/yago/MusicalGroupsEstablishedIn2004
p57
aVhttp://dbpedia.org/class/yago/MusicalGroupsFromSeattle,Washington
p58
aVhttp://dbpedia.org/class/yago/MusicalGroupsFromSouthCarolina
p59
aVhttp://dbpedia.org/class/yago/YagoLegalActor
p60
asVdisambiguatedURL
p61
Vhttp://dbpedia.org/resource/Band_of_Horses
p62
sVnamedEntity
p63
VHorse
p64
sVoffset
p65
I5
saa(lp66
a(lp67
(dp68
Vstart
p69
I0
sg6
(lp70
Vhttp://dbpedia.org/class/yago/Abstraction100002137
p71
aVhttp://dbpedia.org/class/yago/Group100031264
p72
aVhttp://dbpedia.org/class/yago/Organization108008335
p73
aVhttp://dbpedia.org/class/yago/SocialGroup107950920
p74
aVhttp://dbpedia.org/class/yago/YagoLegalActorGeo
p75
aVhttp://dbpedia.org/class/yago/YagoPermanentlyLocatedEntity
p76
aVhttp://dbpedia.org/class/yago/Non-profitOrganizationsBasedInMichigan
p77
aVhttp://dbpedia.org/class/yago/YagoLegalActor
p78
asVdisambiguatedURL
p79
Vhttp://dbpedia.org/resource/Guest_House
p80
sVnamedEntity
p81
VGuest House
p82
sVoffset
p83
I11
saa(lp84
a(lp85
a(lp86
a(lp87
(dp88
Vstart
p89
I0
sg6
(lp90
Vhttp://www.w3.org/2002/07/owl#Thing
p91
aVhttp://dbpedia.org/ontology/Place
p92
aVhttp://dbpedia.org/ontology/Location
p93
aVhttp://www.wikidata.org/entity/Q486972
p94
aVhttp://www.wikidata.org/entity/Q515
p95
aVhttp://dbpedia.org/ontology/City
p96
aVhttp://dbpedia.org/ontology/PopulatedPlace
p97
aVhttp://dbpedia.org/ontology/Settlement
p98
aVhttp://www.w3.org/2003/01/geo/wgs84_pos#SpatialThing
p99
aVhttp://schema.org/City
p100
aVhttp://schema.org/Place
p101
aVhttp://umbel.org/umbel/rc/City
p102
aVhttp://umbel.org/umbel/rc/Location_Underspecified
p103
aVhttp://umbel.org/umbel/rc/PopulatedPlace
p104
aVhttp://umbel.org/umbel/rc/Village
p105
aVhttp://dbpedia.org/class/yago/AdministrativeDistrict108491826
p106
aVhttp://dbpedia.org/class/yago/Area108497294
p107
aVhttp://dbpedia.org/class/yago/Center108523483
p108
aVhttp://dbpedia.org/class/yago/City108524735
p109
aVhttp://dbpedia.org/class/yago/CityDistrict108537837
p110
aVhttp://dbpedia.org/class/yago/District108552138
p111
aVhttp://dbpedia.org/class/yago/EnterpriseZone108690665
p112
aVhttp://dbpedia.org/class/yago/Location100027167
p113
aVhttp://dbpedia.org/class/yago/Object100002684
p114
aVhttp://dbpedia.org/class/yago/Region108630985
p115
aVhttp://dbpedia.org/class/yago/Seat108647945
p116
aVhttp://dbpedia.org/class/yago/Site108651247
p117
aVhttp://dbpedia.org/class/yago/Tract108673395
p118
aVhttp://dbpedia.org/class/yago/UrbanArea108675967
p119
aVhttp://dbpedia.org/class/yago/YagoGeoEntity
p120
aVhttp://dbpedia.org/class/yago/YagoLegalActorGeo
p121
aVhttp://dbpedia.org/class/yago/CitiesInCamdenCounty,NewJersey
p122
aVhttp://dbpedia.org/class/yago/CountySeat108547143
p123
aVhttp://dbpedia.org/class/yago/CountySeatsInNewJersey
p124
aVhttp://dbpedia.org/class/yago/FormerTownshipsInNewJersey
p125
aVhttp://dbpedia.org/class/yago/GeographicalArea108574314
p126
aVhttp://dbpedia.org/class/yago/Municipality108626283
p127
aVhttp://dbpedia.org/class/yago/PhysicalEntity100001930
p128
aVhttp://dbpedia.org/class/yago/Township108672199
p129
aVhttp://dbpedia.org/class/yago/YagoPermanentlyLocatedEntity
p130
aVhttp://dbpedia.org/class/yago/NewJerseyUrbanEnterpriseZones
p131
aVhttp://dbpedia.org/class/yago/PopulatedPlacesEstablishedIn1626
p132
aVhttp://dbpedia.org/class/yago/PopulatedPlacesInNewJerseyWithAfricanAmericanMajorityPopulations
p133
aVhttp://dbpedia.org/class/yago/PortSettlementsInTheUnitedStates
p134
asVdisambiguatedURL
p135
Vhttp://dbpedia.org/resource/Camden,_New_Jersey
p136
sVnamedEntity
p137
VWaterfront
p138
sVoffset
p139
I10
saa.