(lp1
(lp2
(dp3
Vstart
p4
I0
sVdisambiguatedURL
p5
NsVnamedEntity
p6
V\u03c5\u03b9\u03bf\u03b9 \u03b4\u03b7\u03bc \u03c3\u03c5\u03bc\u03b2\u03bf\u03c5\u03bb\u03b9\u03b4\u03b7 \u03bf.\u03b5.
p7
sVoffset
p8
I24
saa(lp9
(dp10
Vstart
p11
I0
sVdisambiguatedURL
p12
NsVnamedEntity
p13
V\u03c7\u03c1\u03b7\u03c3\u03c4\u03bf\u03c2 \u03b1\u03c1\u03b2\u03b1\u03bd\u03b9\u03c4\u03b1\u03ba\u03b7\u03c2
p14
sVoffset
p15
I19
saa(lp16
(dp17
Vstart
p18
I0
sVdisambiguatedURL
p19
NsVnamedEntity
p20
V\u03b3\u03bf\u03c5\u03bb\u03b1\u03c2 \u03c0\u03b5\u03c4\u03c1\u03bf\u03c2
p21
sVoffset
p22
I13
saa(lp23
(dp24
Vstart
p25
I0
sVdisambiguatedURL
p26
NsVnamedEntity
p27
V\u03b3\u03bf\u03c5\u03bc\u03b1\u03c4\u03b6\u03b9\u03b4\u03b7\u03c2 \u03ba\u03c9\u03bd\u03c3\u03c4\u03b1\u03bd\u03c4\u03b9\u03bd\u03bf\u03c2
p28
sVoffset
p29
I24
saa(lp30
(dp31
Vstart
p32
I0
sVdisambiguatedURL
p33
NsVnamedEntity
p34
V\u03bb\u03b1\u03bc\u03c0\u03c1\u03bf\u03c5 \u03b5\u03c0\u03b5
p35
sVoffset
p36
I11
saa(lp37
(dp38
Vstart
p39
I0
sVdisambiguatedURL
p40
NsVnamedEntity
p41
V\u03c0\u03bf\u03bd\u03c4\u03b9\u03ba\u03b9\u03b4\u03b7\u03c2 \u03b4 \u03c3\u03b7\u03bc\u03b1\u03b4\u03b7 \u03c3 \u03bf\u03b5
p42
sVoffset
p43
I24
saa(lp44
(dp45
Vstart
p46
I0
sVdisambiguatedURL
p47
NsVnamedEntity
p48
V\u03c3\u03bb\u03b1\u03bc\u03ba\u03b1\u03c2 \u03b9\u03c9\u03b1\u03bd\u03bd\u03b7\u03c2
p49
sVoffset
p50
I15
saa(lp51
(dp52
Vstart
p53
I0
sVdisambiguatedURL
p54
NsVnamedEntity
p55
V\u03c3\u03bf\u03c5\u03b2\u03b1\u03c4\u03b6\u03bf\u03b3\u03bb\u03bf\u03c5 \u03bc\u03b9\u03c7\u03b1\u03b7\u03bb
p56
sVoffset
p57
I19
saa(lp58
(dp59
Vstart
p60
I0
sVdisambiguatedURL
p61
NsVnamedEntity
p62
V\u03b4\u03bf\u03bc\u03b7\u03c3\u03b7 \u03bc.\u03ba.\u03bc. \u03b1\u03b5
p63
sVoffset
p64
I16
saa.