(lp1
(lp2
(lp3
a(lp4
a(lp5
a(lp6
a(lp7
a(lp8
aa(lp9
(lp10
((lp11
Vhttp://www.w3.org/2002/07/owl#Thing
p12
aVhttp://dbpedia.org/ontology/Place
p13
aVhttp://dbpedia.org/ontology/Location
p14
aVhttp://www.wikidata.org/entity/Q486972
p15
aVhttp://www.wikidata.org/entity/Q6256
p16
aVhttp://dbpedia.org/ontology/Country
p17
aVhttp://dbpedia.org/ontology/PopulatedPlace
p18
aVhttp://www.w3.org/2003/01/geo/wgs84_pos#SpatialThing
p19
aVhttp://schema.org/Country
p20
aVhttp://schema.org/Place
p21
aVhttp://umbel.org/umbel/rc/Country
p22
aVhttp://umbel.org/umbel/rc/Location_Underspecified
p23
aVhttp://umbel.org/umbel/rc/PopulatedPlace
p24
aVhttp://dbpedia.org/class/yago/Abstraction100002137
p25
aVhttp://dbpedia.org/class/yago/AdministrativeDistrict108491826
p26
aVhttp://dbpedia.org/class/yago/AlpineCountries
p27
aVhttp://dbpedia.org/class/yago/Country108544813
p28
aVhttp://dbpedia.org/class/yago/District108552138
p29
aVhttp://dbpedia.org/class/yago/Economy108366753
p30
aVhttp://dbpedia.org/class/yago/Group100031264
p31
aVhttp://dbpedia.org/class/yago/Location100027167
p32
aVhttp://dbpedia.org/class/yago/Object100002684
p33
aVhttp://dbpedia.org/class/yago/Point108620061
p34
aVhttp://dbpedia.org/class/yago/Region108630985
p35
aVhttp://dbpedia.org/class/yago/System108435388
p36
aVhttp://dbpedia.org/class/yago/TopographicPoint108664443
p37
aVhttp://dbpedia.org/class/yago/YagoGeoEntity
p38
aVhttp://dbpedia.org/class/yago/YagoLegalActorGeo
p39
aVhttp://dbpedia.org/class/yago/Zone108688247
p40
aVhttp://dbpedia.org/class/yago/EuropeanCountries
p41
aVhttp://dbpedia.org/class/yago/EuropeanUnionMemberEconomies
p42
aVhttp://dbpedia.org/class/yago/FederalCountries
p43
aVhttp://dbpedia.org/class/yago/PhysicalEntity100001930
p44
aVhttp://dbpedia.org/class/yago/YagoPermanentlyLocatedEntity
p45
aVhttp://dbpedia.org/class/yago/German-speakingCountries
p46
aVhttp://dbpedia.org/class/yago/LandlockedCountries
p47
aVhttp://dbpedia.org/class/yago/MemberStatesOfTheCouncilOfEurope
p48
aVhttp://dbpedia.org/class/yago/MemberStatesOfTheEuropeanUnion
p49
aVhttp://dbpedia.org/class/yago/MemberStatesOfTheUnionForTheMediterranean
p50
aVhttp://dbpedia.org/class/yago/MemberStatesOfTheUnitedNations
p51
aVhttp://dbpedia.org/class/yago/Nuclear-freeZones
p52
aVhttp://dbpedia.org/class/yago/StatesAndTerritoriesEstablishedIn1955
p53
aVhttp://dbpedia.org/resource/Austria
tp54
aa(lp55
((lVhttp://dbpedia.org/resource/EUR-Lex
tp56
aa(lp57
((lp58
Vhttp://www.w3.org/2002/07/owl#Thing
p59
aVhttp://dbpedia.org/ontology/Place
p60
aVhttp://dbpedia.org/ontology/Location
p61
aVhttp://www.wikidata.org/entity/Q486972
p62
aVhttp://www.wikidata.org/entity/Q6256
p63
aVhttp://dbpedia.org/ontology/Country
p64
aVhttp://dbpedia.org/ontology/PopulatedPlace
p65
aVhttp://www.w3.org/2003/01/geo/wgs84_pos#SpatialThing
p66
aVhttp://schema.org/Country
p67
aVhttp://schema.org/Place
p68
aVhttp://umbel.org/umbel/rc/Country
p69
aVhttp://umbel.org/umbel/rc/Location_Underspecified
p70
aVhttp://umbel.org/umbel/rc/PopulatedPlace
p71
aVhttp://dbpedia.org/class/yago/Abstraction100002137
p72
aVhttp://dbpedia.org/class/yago/AdministrativeDistrict108491826
p73
aVhttp://dbpedia.org/class/yago/Attribute100024264
p74
aVhttp://dbpedia.org/class/yago/BicontinentalCountries
p75
aVhttp://dbpedia.org/class/yago/Condition113920835
p76
aVhttp://dbpedia.org/class/yago/Country108544813
p77
aVhttp://dbpedia.org/class/yago/Difficulty114408086
p78
aVhttp://dbpedia.org/class/yago/District108552138
p79
aVhttp://dbpedia.org/class/yago/Economy108366753
p80
aVhttp://dbpedia.org/class/yago/Event100029378
p81
aVhttp://dbpedia.org/class/yago/Group100031264
p82
aVhttp://dbpedia.org/class/yago/Happening107283608
p83
aVhttp://dbpedia.org/class/yago/Location100027167
p84
aVhttp://dbpedia.org/class/yago/Noise107387509
p85
aVhttp://dbpedia.org/class/yago/Object100002684
p86
aVhttp://dbpedia.org/class/yago/Region108630985
p87
aVhttp://dbpedia.org/class/yago/Sound107371293
p88
aVhttp://dbpedia.org/class/yago/State100024720
p89
aVhttp://dbpedia.org/class/yago/System108435388
p90
aVhttp://dbpedia.org/class/yago/YagoGeoEntity
p91
aVhttp://dbpedia.org/class/yago/YagoLegalActorGeo
p92
aVhttp://dbpedia.org/class/yago/Clang107380144
p93
aVhttp://dbpedia.org/class/yago/CountriesOfTheMediterraneanSea
p94
aVhttp://dbpedia.org/class/yago/Crisis113933560
p95
aVhttp://dbpedia.org/class/yago/EasternMediterraneanCountries
p96
aVhttp://dbpedia.org/class/yago/EuropeanCountries
p97
aVhttp://dbpedia.org/class/yago/EuropeanUnionMemberEconomies
p98
aVhttp://dbpedia.org/class/yago/FinancialCrises
p99
aVhttp://dbpedia.org/class/yago/PhysicalEntity100001930
p100
aVhttp://dbpedia.org/class/yago/PsychologicalFeature100023100
p101
aVhttp://dbpedia.org/class/yago/Situation114411243
p102
aVhttp://dbpedia.org/class/yago/YagoPermanentlyLocatedEntity
p103
aVhttp://dbpedia.org/class/yago/MemberStatesOfLaFrancophonie
p104
aVhttp://dbpedia.org/class/yago/MemberStatesOfNATO
p105
aVhttp://dbpedia.org/class/yago/MemberStatesOfTheCouncilOfEurope
p106
aVhttp://dbpedia.org/class/yago/MemberStatesOfTheEuropeanUnion
p107
aVhttp://dbpedia.org/class/yago/MemberStatesOfTheUnionForTheMediterranean
p108
aVhttp://dbpedia.org/class/yago/MemberStatesOfTheUnitedNations
p109
aVhttp://dbpedia.org/class/yago/StatesAndTerritoriesEstablishedIn1821
p110
aVhttp://dbpedia.org/class/yago/StockMarketCrashes
p111
aVhttp://dbpedia.org/resource/Greece
tp112
aa(lp113
((lVhttp://dbpedia.org/resource/EUR-Lex
tp114
aa(lp115
((lp116
Vhttp://www.w3.org/2002/07/owl#Thing
p117
aVhttp://dbpedia.org/ontology/Place
p118
aVhttp://dbpedia.org/ontology/Location
p119
aVhttp://www.wikidata.org/entity/Q486972
p120
aVhttp://www.wikidata.org/entity/Q6256
p121
aVhttp://dbpedia.org/ontology/Country
p122
aVhttp://dbpedia.org/ontology/PopulatedPlace
p123
aVhttp://www.w3.org/2003/01/geo/wgs84_pos#SpatialThing
p124
aVhttp://schema.org/Country
p125
aVhttp://schema.org/Place
p126
aVhttp://umbel.org/umbel/rc/Country
p127
aVhttp://umbel.org/umbel/rc/Location_Underspecified
p128
aVhttp://umbel.org/umbel/rc/PopulatedPlace
p129
aVhttp://dbpedia.org/class/yago/Abstraction100002137
p130
aVhttp://dbpedia.org/class/yago/AdministrativeDistrict108491826
p131
aVhttp://dbpedia.org/class/yago/Country108544813
p132
aVhttp://dbpedia.org/class/yago/District108552138
p133
aVhttp://dbpedia.org/class/yago/Economy108366753
p134
aVhttp://dbpedia.org/class/yago/Group100031264
p135
aVhttp://dbpedia.org/class/yago/Location100027167
p136
aVhttp://dbpedia.org/class/yago/Object100002684
p137
aVhttp://dbpedia.org/class/yago/Region108630985
p138
aVhttp://dbpedia.org/class/yago/System108435388
p139
aVhttp://dbpedia.org/class/yago/YagoGeoEntity
p140
aVhttp://dbpedia.org/class/yago/YagoLegalActorGeo
p141
aVhttp://dbpedia.org/class/yago/CountriesBorderingTheAtlanticOcean
p142
aVhttp://dbpedia.org/class/yago/EuropeanCountries
p143
aVhttp://dbpedia.org/class/yago/EuropeanUnionMemberEconomies
p144
aVhttp://dbpedia.org/class/yago/PhysicalEntity100001930
p145
aVhttp://dbpedia.org/class/yago/YagoPermanentlyLocatedEntity
p146
aVhttp://dbpedia.org/class/yago/MemberStatesOfNATO
p147
aVhttp://dbpedia.org/class/yago/MemberStatesOfTheCommunityOfPortugueseLanguageCountries
p148
aVhttp://dbpedia.org/class/yago/MemberStatesOfTheEuropeanUnion
p149
aVhttp://dbpedia.org/class/yago/MemberStatesOfTheUnionForTheMediterranean
p150
aVhttp://dbpedia.org/class/yago/MemberStatesOfTheUnitedNations
p151
aVhttp://dbpedia.org/class/yago/Portuguese-speakingCountries
p152
aVhttp://dbpedia.org/class/yago/WorldTradeOrganizationMemberEconomies
p153
aVhttp://dbpedia.org/resource/Portugal
tp154
aa(lp155
((lVhttp://dbpedia.org/resource/EUR-Lex
tp156
aaa(lp157
(lp158
((lp159
Vhttp://www.w3.org/2002/07/owl#Thing
p160
aVhttp://dbpedia.org/ontology/Place
p161
aVhttp://dbpedia.org/ontology/Location
p162
aVhttp://www.wikidata.org/entity/Q486972
p163
aVhttp://www.wikidata.org/entity/Q6256
p164
aVhttp://dbpedia.org/ontology/Country
p165
aVhttp://dbpedia.org/ontology/PopulatedPlace
p166
aVhttp://www.w3.org/2003/01/geo/wgs84_pos#SpatialThing
p167
aVhttp://schema.org/Country
p168
aVhttp://schema.org/Place
p169
aVhttp://umbel.org/umbel/rc/Country
p170
aVhttp://umbel.org/umbel/rc/Location_Underspecified
p171
aVhttp://umbel.org/umbel/rc/PopulatedPlace
p172
aVhttp://dbpedia.org/class/yago/Abstraction100002137
p173
aVhttp://dbpedia.org/class/yago/AdministrativeDistrict108491826
p174
aVhttp://dbpedia.org/class/yago/Country108544813
p175
aVhttp://dbpedia.org/class/yago/District108552138
p176
aVhttp://dbpedia.org/class/yago/Economy108366753
p177
aVhttp://dbpedia.org/class/yago/Group100031264
p178
aVhttp://dbpedia.org/class/yago/Location100027167
p179
aVhttp://dbpedia.org/class/yago/Object100002684
p180
aVhttp://dbpedia.org/class/yago/Region108630985
p181
aVhttp://dbpedia.org/class/yago/System108435388
p182
aVhttp://dbpedia.org/class/yago/YagoGeoEntity
p183
aVhttp://dbpedia.org/class/yago/YagoLegalActorGeo
p184
aVhttp://dbpedia.org/class/yago/CountriesBorderingTheAtlanticOcean
p185
aVhttp://dbpedia.org/class/yago/Dutch-speakingCountries
p186
aVhttp://dbpedia.org/class/yago/EuropeanCountries
p187
aVhttp://dbpedia.org/class/yago/EuropeanUnionMemberEconomies
p188
aVhttp://dbpedia.org/class/yago/FederalCountries
p189
aVhttp://dbpedia.org/class/yago/French-speakingCountries
p190
aVhttp://dbpedia.org/class/yago/PhysicalEntity100001930
p191
aVhttp://dbpedia.org/class/yago/YagoPermanentlyLocatedEntity
p192
aVhttp://dbpedia.org/class/yago/German-speakingCountries
p193
aVhttp://dbpedia.org/class/yago/MemberStatesOfLaFrancophonie
p194
aVhttp://dbpedia.org/class/yago/MemberStatesOfNATO
p195
aVhttp://dbpedia.org/class/yago/MemberStatesOfTheCouncilOfEurope
p196
aVhttp://dbpedia.org/class/yago/MemberStatesOfTheDutchLanguageUnion
p197
aVhttp://dbpedia.org/class/yago/MemberStatesOfTheEuropeanUnion
p198
aVhttp://dbpedia.org/class/yago/MemberStatesOfTheUnionForTheMediterranean
p199
aVhttp://dbpedia.org/class/yago/MemberStatesOfTheUnitedNations
p200
aVhttp://dbpedia.org/class/yago/StatesAndTerritoriesEstablishedIn1830
p201
aVhttp://dbpedia.org/resource/Belgium
tp202
aa(lp203
((lVhttp://dbpedia.org/resource/EUR-Lex
tp204
aa(lp205
((lp206
Vhttp://www.w3.org/2002/07/owl#Thing
p207
aVhttp://dbpedia.org/ontology/Place
p208
aVhttp://dbpedia.org/ontology/Location
p209
aVhttp://www.wikidata.org/entity/Q486972
p210
aVhttp://www.wikidata.org/entity/Q6256
p211
aVhttp://dbpedia.org/ontology/Country
p212
aVhttp://dbpedia.org/ontology/PopulatedPlace
p213
aVhttp://www.w3.org/2003/01/geo/wgs84_pos#SpatialThing
p214
aVhttp://schema.org/Country
p215
aVhttp://schema.org/Place
p216
aVhttp://umbel.org/umbel/rc/Country
p217
aVhttp://umbel.org/umbel/rc/Location_Underspecified
p218
aVhttp://umbel.org/umbel/rc/PopulatedPlace
p219
aVhttp://dbpedia.org/class/yago/Abstraction100002137
p220
aVhttp://dbpedia.org/class/yago/AdministrativeDistrict108491826
p221
aVhttp://dbpedia.org/class/yago/Country108544813
p222
aVhttp://dbpedia.org/class/yago/District108552138
p223
aVhttp://dbpedia.org/class/yago/Economy108366753
p224
aVhttp://dbpedia.org/class/yago/Group100031264
p225
aVhttp://dbpedia.org/class/yago/Location100027167
p226
aVhttp://dbpedia.org/class/yago/Object100002684
p227
aVhttp://dbpedia.org/class/yago/Region108630985
p228
aVhttp://dbpedia.org/class/yago/System108435388
p229
aVhttp://dbpedia.org/class/yago/YagoGeoEntity
p230
aVhttp://dbpedia.org/class/yago/YagoLegalActorGeo
p231
aVhttp://dbpedia.org/class/yago/EuropeanCountries
p232
aVhttp://dbpedia.org/class/yago/EuropeanUnionMemberEconomies
p233
aVhttp://dbpedia.org/class/yago/PhysicalEntity100001930
p234
aVhttp://dbpedia.org/class/yago/YagoPermanentlyLocatedEntity
p235
aVhttp://dbpedia.org/class/yago/LandlockedCountries
p236
aVhttp://dbpedia.org/class/yago/MemberStatesOfNATO
p237
aVhttp://dbpedia.org/class/yago/MemberStatesOfTheCouncilOfEurope
p238
aVhttp://dbpedia.org/class/yago/MemberStatesOfTheEuropeanUnion
p239
aVhttp://dbpedia.org/class/yago/MemberStatesOfTheUnionForTheMediterranean
p240
aVhttp://dbpedia.org/class/yago/MemberStatesOfTheUnitedNations
p241
aVhttp://dbpedia.org/resource/Hungary
tp242
aa(lp243
a(lp244
((lp245
Vhttp://www.w3.org/2002/07/owl#Thing
p246
aVhttp://dbpedia.org/ontology/Place
p247
aVhttp://dbpedia.org/ontology/Location
p248
aVhttp://www.wikidata.org/entity/Q486972
p249
aVhttp://www.wikidata.org/entity/Q6256
p250
aVhttp://dbpedia.org/ontology/Country
p251
aVhttp://dbpedia.org/ontology/PopulatedPlace
p252
aVhttp://www.w3.org/2003/01/geo/wgs84_pos#SpatialThing
p253
aVhttp://schema.org/Country
p254
aVhttp://schema.org/Place
p255
aVhttp://umbel.org/umbel/rc/Country
p256
aVhttp://umbel.org/umbel/rc/Location_Underspecified
p257
aVhttp://umbel.org/umbel/rc/PopulatedPlace
p258
aVhttp://dbpedia.org/class/yago/Abstraction100002137
p259
aVhttp://dbpedia.org/class/yago/AdministrativeDistrict108491826
p260
aVhttp://dbpedia.org/class/yago/BlackSeaCountries
p261
aVhttp://dbpedia.org/class/yago/Country108544813
p262
aVhttp://dbpedia.org/class/yago/District108552138
p263
aVhttp://dbpedia.org/class/yago/Economy108366753
p264
aVhttp://dbpedia.org/class/yago/Group100031264
p265
aVhttp://dbpedia.org/class/yago/Location100027167
p266
aVhttp://dbpedia.org/class/yago/Object100002684
p267
aVhttp://dbpedia.org/class/yago/Region108630985
p268
aVhttp://dbpedia.org/class/yago/System108435388
p269
aVhttp://dbpedia.org/class/yago/YagoGeoEntity
p270
aVhttp://dbpedia.org/class/yago/YagoLegalActorGeo
p271
aVhttp://dbpedia.org/class/yago/EuropeanCountries
p272
aVhttp://dbpedia.org/class/yago/EuropeanUnionMemberEconomies
p273
aVhttp://dbpedia.org/class/yago/PhysicalEntity100001930
p274
aVhttp://dbpedia.org/class/yago/YagoPermanentlyLocatedEntity
p275
aVhttp://dbpedia.org/class/yago/MemberStatesOfNATO
p276
aVhttp://dbpedia.org/class/yago/MemberStatesOfTheEuropeanUnion
p277
aVhttp://dbpedia.org/class/yago/MemberStatesOfTheUnionForTheMediterranean
p278
aVhttp://dbpedia.org/class/yago/MemberStatesOfTheUnitedNations
p279
aVhttp://dbpedia.org/class/yago/Romanian-speakingCountriesAndTerritories
p280
aVhttp://dbpedia.org/class/yago/StatesAndTerritoriesEstablishedIn1878
p281
aVhttp://dbpedia.org/resource/Romania
tp282
aa(lp283
((lVhttp://dbpedia.org/resource/Ron
tp284
aaa(lp285
(lp286
((lp287
Vhttp://www.w3.org/2002/07/owl#Thing
p288
aVhttp://dbpedia.org/ontology/Place
p289
aVhttp://dbpedia.org/ontology/Location
p290
aVhttp://www.wikidata.org/entity/Q486972
p291
aVhttp://www.wikidata.org/entity/Q6256
p292
aVhttp://dbpedia.org/ontology/Country
p293
aVhttp://dbpedia.org/ontology/PopulatedPlace
p294
aVhttp://www.w3.org/2003/01/geo/wgs84_pos#SpatialThing
p295
aVhttp://schema.org/Country
p296
aVhttp://schema.org/Place
p297
aVhttp://umbel.org/umbel/rc/Country
p298
aVhttp://umbel.org/umbel/rc/Location_Underspecified
p299
aVhttp://umbel.org/umbel/rc/PopulatedPlace
p300
aVhttp://dbpedia.org/class/yago/Abstraction100002137
p301
aVhttp://dbpedia.org/class/yago/AdministrativeDistrict108491826
p302
aVhttp://dbpedia.org/class/yago/BlackSeaCountries
p303
aVhttp://dbpedia.org/class/yago/Country108544813
p304
aVhttp://dbpedia.org/class/yago/District108552138
p305
aVhttp://dbpedia.org/class/yago/Domain108556491
p306
aVhttp://dbpedia.org/class/yago/Economy108366753
p307
aVhttp://dbpedia.org/class/yago/Group100031264
p308
aVhttp://dbpedia.org/class/yago/Location100027167
p309
aVhttp://dbpedia.org/class/yago/Object100002684
p310
aVhttp://dbpedia.org/class/yago/Region108630985
p311
aVhttp://dbpedia.org/class/yago/System108435388
p312
aVhttp://dbpedia.org/class/yago/YagoGeoEntity
p313
aVhttp://dbpedia.org/class/yago/YagoLegalActorGeo
p314
aVhttp://dbpedia.org/class/yago/Empire108557482
p315
aVhttp://dbpedia.org/class/yago/EuropeanCountries
p316
aVhttp://dbpedia.org/class/yago/EuropeanUnionMemberEconomies
p317
aVhttp://dbpedia.org/class/yago/FormerEmpires
p318
aVhttp://dbpedia.org/class/yago/PhysicalEntity100001930
p319
aVhttp://dbpedia.org/class/yago/YagoPermanentlyLocatedEntity
p320
aVhttp://dbpedia.org/class/yago/MemberStatesOfLaFrancophonie
p321
aVhttp://dbpedia.org/class/yago/MemberStatesOfNATO
p322
aVhttp://dbpedia.org/class/yago/MemberStatesOfTheEuropeanUnion
p323
aVhttp://dbpedia.org/class/yago/MemberStatesOfTheUnionForTheMediterranean
p324
aVhttp://dbpedia.org/class/yago/MemberStatesOfTheUnitedNations
p325
aVhttp://dbpedia.org/class/yago/SlavicCountries
p326
aVhttp://dbpedia.org/class/yago/StatesAndTerritoriesEstablishedIn1878
p327
aVhttp://dbpedia.org/class/yago/StatesAndTerritoriesEstablishedIn1908
p328
aVhttp://dbpedia.org/class/yago/StatesAndTerritoriesEstablishedIn681
p329
aVhttp://dbpedia.org/class/yago/WorldTradeOrganizationMemberEconomies
p330
aVhttp://dbpedia.org/resource/Bulgaria
tp331
aa(lp332
((lVhttp://dbpedia.org/resource/Blessed_George_Napier_Roman_Catholic_School_and_Sports_College
tp333
aa(lp334
((lp335
Vhttp://www.w3.org/2002/07/owl#Thing
p336
aVhttp://dbpedia.org/ontology/Place
p337
aVhttp://dbpedia.org/ontology/Location
p338
aVhttp://www.wikidata.org/entity/Q23442
p339
aVhttp://www.wikidata.org/entity/Q486972
p340
aVhttp://dbpedia.org/ontology/Island
p341
aVhttp://dbpedia.org/ontology/PopulatedPlace
p342
aVhttp://schema.org/Place
p343
aVhttp://umbel.org/umbel/rc/Island
p344
aVhttp://umbel.org/umbel/rc/Location_Underspecified
p345
aVhttp://umbel.org/umbel/rc/PopulatedPlace
p346
aVhttp://dbpedia.org/class/yago/Island109316454
p347
aVhttp://dbpedia.org/class/yago/Land109334396
p348
aVhttp://dbpedia.org/class/yago/Location100027167
p349
aVhttp://dbpedia.org/class/yago/Object100002684
p350
aVhttp://dbpedia.org/class/yago/Region108630039
p351
aVhttp://dbpedia.org/class/yago/YagoGeoEntity
p352
aVhttp://dbpedia.org/class/yago/YagoLegalActorGeo
p353
aVhttp://dbpedia.org/class/yago/DividedRegions
p354
aVhttp://dbpedia.org/class/yago/PhysicalEntity100001930
p355
aVhttp://dbpedia.org/class/yago/YagoPermanentlyLocatedEntity
p356
aVhttp://dbpedia.org/class/yago/InternationalIslands
p357
aVhttp://dbpedia.org/resource/Ireland
tp358
aa(lp359
((lVhttp://dbpedia.org/resource/EUR-Lex
tp360
aa(lp361
((lp362
Vhttp://www.w3.org/2002/07/owl#Thing
p363
aVhttp://dbpedia.org/ontology/Place
p364
aVhttp://dbpedia.org/ontology/Location
p365
aVhttp://www.wikidata.org/entity/Q486972
p366
aVhttp://www.wikidata.org/entity/Q6256
p367
aVhttp://dbpedia.org/ontology/Country
p368
aVhttp://dbpedia.org/ontology/PopulatedPlace
p369
aVhttp://www.w3.org/2003/01/geo/wgs84_pos#SpatialThing
p370
aVhttp://schema.org/Country
p371
aVhttp://schema.org/Place
p372
aVhttp://umbel.org/umbel/rc/Country
p373
aVhttp://umbel.org/umbel/rc/Location_Underspecified
p374
aVhttp://umbel.org/umbel/rc/PopulatedPlace
p375
aVhttp://dbpedia.org/class/yago/Abstraction100002137
p376
aVhttp://dbpedia.org/class/yago/AdministrativeDistrict108491826
p377
aVhttp://dbpedia.org/class/yago/Country108544813
p378
aVhttp://dbpedia.org/class/yago/District108552138
p379
aVhttp://dbpedia.org/class/yago/Economy108366753
p380
aVhttp://dbpedia.org/class/yago/Group100031264
p381
aVhttp://dbpedia.org/class/yago/Location100027167
p382
aVhttp://dbpedia.org/class/yago/Object100002684
p383
aVhttp://dbpedia.org/class/yago/Region108630985
p384
aVhttp://dbpedia.org/class/yago/System108435388
p385
aVhttp://dbpedia.org/class/yago/YagoGeoEntity
p386
aVhttp://dbpedia.org/class/yago/YagoLegalActorGeo
p387
aVhttp://dbpedia.org/class/yago/EuropeanCountries
p388
aVhttp://dbpedia.org/class/yago/EuropeanUnionMemberEconomies
p389
aVhttp://dbpedia.org/class/yago/PhysicalEntity100001930
p390
aVhttp://dbpedia.org/class/yago/YagoPermanentlyLocatedEntity
p391
aVhttp://dbpedia.org/class/yago/LandlockedCountries
p392
aVhttp://dbpedia.org/class/yago/MemberStatesOfNATO
p393
aVhttp://dbpedia.org/class/yago/MemberStatesOfTheEuropeanUnion
p394
aVhttp://dbpedia.org/class/yago/MemberStatesOfTheUnionForTheMediterranean
p395
aVhttp://dbpedia.org/class/yago/MemberStatesOfTheUnitedNations
p396
aVhttp://dbpedia.org/class/yago/SlavicCountries
p397
aVhttp://dbpedia.org/class/yago/StatesAndTerritoriesEstablishedIn1993
p398
aVhttp://dbpedia.org/resource/Slovakia
tp399
aa(lp400
((lp401
Vhttp://www.w3.org/2002/07/owl#Thing
p402
aVhttp://xmlns.com/foaf/0.1/Person
p403
aVhttp://dbpedia.org/ontology/Person
p404
aVhttp://www.ontologydesignpatterns.org/ont/dul/DUL.owl#Agent
p405
aVhttp://www.ontologydesignpatterns.org/ont/dul/DUL.owl#NaturalPerson
p406
aVhttp://www.wikidata.org/entity/Q215627
p407
aVhttp://www.wikidata.org/entity/Q5
p408
aVhttp://dbpedia.org/ontology/Agent
p409
aVhttp://schema.org/Person
p410
aVhttp://dbpedia.org/class/yago/AlumniOfTheUniversityOfWestminster
p411
aVhttp://dbpedia.org/class/yago/Alumnus109786338
p412
aVhttp://dbpedia.org/class/yago/Architect109805475
p413
aVhttp://dbpedia.org/class/yago/BritishArchitects
p414
aVhttp://dbpedia.org/class/yago/BritishDesigners
p415
aVhttp://dbpedia.org/class/yago/BritishPeopleOfHongKongDescent
p416
aVhttp://dbpedia.org/class/yago/CausalAgent100007347
p417
aVhttp://dbpedia.org/class/yago/Creator109614315
p418
aVhttp://dbpedia.org/class/yago/Engineer109615807
p419
aVhttp://dbpedia.org/class/yago/Expert109617867
p420
aVhttp://dbpedia.org/class/yago/Intellectual109621545
p421
aVhttp://dbpedia.org/class/yago/InteriorDesigner110210648
p422
aVhttp://dbpedia.org/class/yago/LivingThing100004258
p423
aVhttp://dbpedia.org/class/yago/Object100002684
p424
aVhttp://dbpedia.org/class/yago/Organism100004475
p425
aVhttp://dbpedia.org/class/yago/Person100007846
p426
aVhttp://dbpedia.org/class/yago/Scholar110557854
p427
aVhttp://dbpedia.org/class/yago/Specialist110631941
p428
aVhttp://dbpedia.org/class/yago/Whole100003553
p429
aVhttp://dbpedia.org/class/yago/YagoLegalActorGeo
p430
aVhttp://dbpedia.org/class/yago/PhysicalEntity100001930
p431
aVhttp://dbpedia.org/class/yago/HongKongPeople
p432
aVhttp://dbpedia.org/class/yago/LightingDesigners
p433
aVhttp://dbpedia.org/class/yago/LightingEngineers
p434
aVhttp://dbpedia.org/class/yago/LivingPeople
p435
aVhttp://dbpedia.org/class/yago/YagoLegalActor
p436
aVhttp://dbpedia.org/resource/Shiu-Kay_Kan
tp437
aaa(lp438
(lp439
((lp440
Vhttp://www.w3.org/2002/07/owl#Thing
p441
aVhttp://dbpedia.org/ontology/Place
p442
aVhttp://dbpedia.org/ontology/Location
p443
aVhttp://www.wikidata.org/entity/Q486972
p444
aVhttp://www.wikidata.org/entity/Q6256
p445
aVhttp://dbpedia.org/ontology/Country
p446
aVhttp://dbpedia.org/ontology/PopulatedPlace
p447
aVhttp://www.w3.org/2003/01/geo/wgs84_pos#SpatialThing
p448
aVhttp://schema.org/Country
p449
aVhttp://schema.org/Place
p450
aVhttp://umbel.org/umbel/rc/Country
p451
aVhttp://umbel.org/umbel/rc/Location_Underspecified
p452
aVhttp://umbel.org/umbel/rc/PopulatedPlace
p453
aVhttp://dbpedia.org/class/yago/Abstraction100002137
p454
aVhttp://dbpedia.org/class/yago/AdministrativeDistrict108491826
p455
aVhttp://dbpedia.org/class/yago/BicontinentalCountries
p456
aVhttp://dbpedia.org/class/yago/Country108544813
p457
aVhttp://dbpedia.org/class/yago/District108552138
p458
aVhttp://dbpedia.org/class/yago/Economy108366753
p459
aVhttp://dbpedia.org/class/yago/Group100031264
p460
aVhttp://dbpedia.org/class/yago/Island109316454
p461
aVhttp://dbpedia.org/class/yago/Land109334396
p462
aVhttp://dbpedia.org/class/yago/Location100027167
p463
aVhttp://dbpedia.org/class/yago/Object100002684
p464
aVhttp://dbpedia.org/class/yago/Region108630039
p465
aVhttp://dbpedia.org/class/yago/Region108630985
p466
aVhttp://dbpedia.org/class/yago/System108435388
p467
aVhttp://dbpedia.org/class/yago/YagoGeoEntity
p468
aVhttp://dbpedia.org/class/yago/YagoLegalActorGeo
p469
aVhttp://dbpedia.org/class/yago/CountriesOfTheMediterraneanSea
p470
aVhttp://dbpedia.org/class/yago/DividedRegions
p471
aVhttp://dbpedia.org/class/yago/EasternMediterraneanCountries
p472
aVhttp://dbpedia.org/class/yago/EuropeanCountries
p473
aVhttp://dbpedia.org/class/yago/EuropeanUnionMemberEconomies
p474
aVhttp://dbpedia.org/class/yago/PhysicalEntity100001930
p475
aVhttp://dbpedia.org/class/yago/YagoPermanentlyLocatedEntity
p476
aVhttp://dbpedia.org/class/yago/InternationalIslands
p477
aVhttp://dbpedia.org/class/yago/IslandCountries
p478
aVhttp://dbpedia.org/class/yago/IslandsOfAsia
p479
aVhttp://dbpedia.org/class/yago/MediterraneanIslands
p480
aVhttp://dbpedia.org/class/yago/MemberStatesOfTheCommonwealthOfNations
p481
aVhttp://dbpedia.org/class/yago/MemberStatesOfTheEuropeanUnion
p482
aVhttp://dbpedia.org/class/yago/MemberStatesOfTheUnionForTheMediterranean
p483
aVhttp://dbpedia.org/class/yago/MemberStatesOfTheUnitedNations
p484
aVhttp://dbpedia.org/class/yago/MiddleEasternCountries
p485
aVhttp://dbpedia.org/class/yago/NearEasternCountries
p486
aVhttp://dbpedia.org/class/yago/StatesAndTerritoriesEstablishedIn1960
p487
aVhttp://dbpedia.org/class/yago/WesternAsianCountries
p488
aVhttp://dbpedia.org/resource/Cyprus
tp489
aa(lp490
((lVhttp://dbpedia.org/resource/EUR-Lex
tp491
aa(lp492
((lp493
Vhttp://www.w3.org/2002/07/owl#Thing
p494
aVhttp://dbpedia.org/ontology/Place
p495
aVhttp://dbpedia.org/ontology/Location
p496
aVhttp://www.wikidata.org/entity/Q486972
p497
aVhttp://www.wikidata.org/entity/Q6256
p498
aVhttp://dbpedia.org/ontology/Country
p499
aVhttp://dbpedia.org/ontology/PopulatedPlace
p500
aVhttp://www.w3.org/2003/01/geo/wgs84_pos#SpatialThing
p501
aVhttp://schema.org/Country
p502
aVhttp://schema.org/Place
p503
aVhttp://umbel.org/umbel/rc/Country
p504
aVhttp://umbel.org/umbel/rc/Location_Underspecified
p505
aVhttp://umbel.org/umbel/rc/PopulatedPlace
p506
aVhttp://dbpedia.org/class/yago/Abstraction100002137
p507
aVhttp://dbpedia.org/class/yago/AdministrativeDistrict108491826
p508
aVhttp://dbpedia.org/class/yago/AlpineCountries
p509
aVhttp://dbpedia.org/class/yago/BicontinentalCountries
p510
aVhttp://dbpedia.org/class/yago/Country108544813
p511
aVhttp://dbpedia.org/class/yago/District108552138
p512
aVhttp://dbpedia.org/class/yago/Economy108366753
p513
aVhttp://dbpedia.org/class/yago/Group100031264
p514
aVhttp://dbpedia.org/class/yago/Location100027167
p515
aVhttp://dbpedia.org/class/yago/Object100002684
p516
aVhttp://dbpedia.org/class/yago/Region108630985
p517
aVhttp://dbpedia.org/class/yago/System108435388
p518
aVhttp://dbpedia.org/class/yago/YagoGeoEntity
p519
aVhttp://dbpedia.org/class/yago/YagoLegalActorGeo
p520
aVhttp://dbpedia.org/class/yago/CountriesOfTheMediterraneanSea
p521
aVhttp://dbpedia.org/class/yago/EuropeanCountries
p522
aVhttp://dbpedia.org/class/yago/EuropeanUnionMemberEconomies
p523
aVhttp://dbpedia.org/class/yago/PhysicalEntity100001930
p524
aVhttp://dbpedia.org/class/yago/YagoPermanentlyLocatedEntity
p525
aVhttp://dbpedia.org/class/yago/Italian-speakingCountries
p526
aVhttp://dbpedia.org/class/yago/MemberStatesOfNATO
p527
aVhttp://dbpedia.org/class/yago/MemberStatesOfTheCouncilOfEurope
p528
aVhttp://dbpedia.org/class/yago/MemberStatesOfTheEuropeanUnion
p529
aVhttp://dbpedia.org/class/yago/MemberStatesOfTheUnionForTheMediterranean
p530
aVhttp://dbpedia.org/class/yago/MemberStatesOfTheUnitedNations
p531
aVhttp://dbpedia.org/class/yago/StatesAndTerritoriesEstablishedIn1861
p532
aVhttp://dbpedia.org/resource/Italy
tp533
aa(lp534
((lVhttp://dbpedia.org/resource/EUR-Lex
tp535
aa(lp536
((lp537
Vhttp://www.w3.org/2002/07/owl#Thing
p538
aVhttp://dbpedia.org/ontology/Place
p539
aVhttp://dbpedia.org/ontology/Location
p540
aVhttp://www.wikidata.org/entity/Q486972
p541
aVhttp://www.wikidata.org/entity/Q6256
p542
aVhttp://dbpedia.org/ontology/Country
p543
aVhttp://dbpedia.org/ontology/PopulatedPlace
p544
aVhttp://www.w3.org/2003/01/geo/wgs84_pos#SpatialThing
p545
aVhttp://schema.org/Country
p546
aVhttp://schema.org/Place
p547
aVhttp://umbel.org/umbel/rc/Country
p548
aVhttp://umbel.org/umbel/rc/Location_Underspecified
p549
aVhttp://umbel.org/umbel/rc/PopulatedPlace
p550
aVhttp://dbpedia.org/class/yago/Abstraction100002137
p551
aVhttp://dbpedia.org/class/yago/AdministrativeDistrict108491826
p552
aVhttp://dbpedia.org/class/yago/AlpineCountries
p553
aVhttp://dbpedia.org/class/yago/Country108544813
p554
aVhttp://dbpedia.org/class/yago/District108552138
p555
aVhttp://dbpedia.org/class/yago/Economy108366753
p556
aVhttp://dbpedia.org/class/yago/Group100031264
p557
aVhttp://dbpedia.org/class/yago/Location100027167
p558
aVhttp://dbpedia.org/class/yago/Object100002684
p559
aVhttp://dbpedia.org/class/yago/Region108630985
p560
aVhttp://dbpedia.org/class/yago/System108435388
p561
aVhttp://dbpedia.org/class/yago/YagoGeoEntity
p562
aVhttp://dbpedia.org/class/yago/YagoLegalActorGeo
p563
aVhttp://dbpedia.org/class/yago/CountriesOfTheMediterraneanSea
p564
aVhttp://dbpedia.org/class/yago/EuropeanCountries
p565
aVhttp://dbpedia.org/class/yago/EuropeanUnionMemberEconomies
p566
aVhttp://dbpedia.org/class/yago/PhysicalEntity100001930
p567
aVhttp://dbpedia.org/class/yago/YagoPermanentlyLocatedEntity
p568
aVhttp://dbpedia.org/class/yago/MemberStatesOfNATO
p569
aVhttp://dbpedia.org/class/yago/MemberStatesOfTheEuropeanUnion
p570
aVhttp://dbpedia.org/class/yago/MemberStatesOfTheUnionForTheMediterranean
p571
aVhttp://dbpedia.org/class/yago/MemberStatesOfTheUnitedNations
p572
aVhttp://dbpedia.org/class/yago/SlavicCountries
p573
aVhttp://dbpedia.org/class/yago/StatesAndTerritoriesEstablishedIn1991
p574
aVhttp://dbpedia.org/resource/Slovenia
tp575
aa(lp576
((lVhttp://dbpedia.org/resource/EUR-Lex
tp577
aaa(lp578
(lp579
((lp580
Vhttp://www.w3.org/2002/07/owl#Thing
p581
aVhttp://dbpedia.org/ontology/Place
p582
aVhttp://dbpedia.org/ontology/Location
p583
aVhttp://www.wikidata.org/entity/Q486972
p584
aVhttp://www.wikidata.org/entity/Q6256
p585
aVhttp://dbpedia.org/ontology/Country
p586
aVhttp://dbpedia.org/ontology/PopulatedPlace
p587
aVhttp://www.w3.org/2003/01/geo/wgs84_pos#SpatialThing
p588
aVhttp://schema.org/Country
p589
aVhttp://schema.org/Place
p590
aVhttp://umbel.org/umbel/rc/Country
p591
aVhttp://umbel.org/umbel/rc/Location_Underspecified
p592
aVhttp://umbel.org/umbel/rc/PopulatedPlace
p593
aVhttp://dbpedia.org/class/yago/Abstraction100002137
p594
aVhttp://dbpedia.org/class/yago/AdministrativeDistrict108491826
p595
aVhttp://dbpedia.org/class/yago/Country108544813
p596
aVhttp://dbpedia.org/class/yago/District108552138
p597
aVhttp://dbpedia.org/class/yago/Economy108366753
p598
aVhttp://dbpedia.org/class/yago/Group100031264
p599
aVhttp://dbpedia.org/class/yago/Location100027167
p600
aVhttp://dbpedia.org/class/yago/Object100002684
p601
aVhttp://dbpedia.org/class/yago/Region108630985
p602
aVhttp://dbpedia.org/class/yago/System108435388
p603
aVhttp://dbpedia.org/class/yago/YagoGeoEntity
p604
aVhttp://dbpedia.org/class/yago/YagoLegalActorGeo
p605
aVhttp://dbpedia.org/class/yago/EuropeanCountries
p606
aVhttp://dbpedia.org/class/yago/EuropeanUnionMemberEconomies
p607
aVhttp://dbpedia.org/class/yago/PhysicalEntity100001930
p608
aVhttp://dbpedia.org/class/yago/YagoPermanentlyLocatedEntity
p609
aVhttp://dbpedia.org/class/yago/LandlockedCountries
p610
aVhttp://dbpedia.org/class/yago/MemberStatesOfNATO
p611
aVhttp://dbpedia.org/class/yago/MemberStatesOfTheEuropeanUnion
p612
aVhttp://dbpedia.org/class/yago/MemberStatesOfTheUnitedNations
p613
aVhttp://dbpedia.org/class/yago/SlavicCountries
p614
aVhttp://dbpedia.org/class/yago/StatesAndTerritoriesEstablishedIn1993
p615
aVhttp://dbpedia.org/resource/Czech_Republic
tp616
aa(lp617
((lVhttp://dbpedia.org/resource/CZK_(disambiguation)
tp618
aa(lp619
((lp620
Vhttp://www.w3.org/2002/07/owl#Thing
p621
aVhttp://dbpedia.org/ontology/Place
p622
aVhttp://dbpedia.org/ontology/Location
p623
aVhttp://www.wikidata.org/entity/Q486972
p624
aVhttp://www.wikidata.org/entity/Q6256
p625
aVhttp://dbpedia.org/ontology/Country
p626
aVhttp://dbpedia.org/ontology/PopulatedPlace
p627
aVhttp://www.w3.org/2003/01/geo/wgs84_pos#SpatialThing
p628
aVhttp://schema.org/Country
p629
aVhttp://schema.org/Place
p630
aVhttp://umbel.org/umbel/rc/Country
p631
aVhttp://umbel.org/umbel/rc/Location_Underspecified
p632
aVhttp://umbel.org/umbel/rc/PopulatedPlace
p633
aVhttp://dbpedia.org/class/yago/Abstraction100002137
p634
aVhttp://dbpedia.org/class/yago/AdministrativeDistrict108491826
p635
aVhttp://dbpedia.org/class/yago/BalticStates
p636
aVhttp://dbpedia.org/class/yago/Country108544813
p637
aVhttp://dbpedia.org/class/yago/District108552138
p638
aVhttp://dbpedia.org/class/yago/Economy108366753
p639
aVhttp://dbpedia.org/class/yago/Group100031264
p640
aVhttp://dbpedia.org/class/yago/Location100027167
p641
aVhttp://dbpedia.org/class/yago/Object100002684
p642
aVhttp://dbpedia.org/class/yago/Region108630985
p643
aVhttp://dbpedia.org/class/yago/System108435388
p644
aVhttp://dbpedia.org/class/yago/YagoGeoEntity
p645
aVhttp://dbpedia.org/class/yago/YagoLegalActorGeo
p646
aVhttp://dbpedia.org/class/yago/CountriesBorderingTheBalticSea
p647
aVhttp://dbpedia.org/class/yago/EuropeanCountries
p648
aVhttp://dbpedia.org/class/yago/EuropeanUnionMemberEconomies
p649
aVhttp://dbpedia.org/class/yago/PhysicalEntity100001930
p650
aVhttp://dbpedia.org/class/yago/YagoPermanentlyLocatedEntity
p651
aVhttp://dbpedia.org/class/yago/MemberStatesOfNATO
p652
aVhttp://dbpedia.org/class/yago/MemberStatesOfTheEuropeanUnion
p653
aVhttp://dbpedia.org/class/yago/MemberStatesOfTheUnionForTheMediterranean
p654
aVhttp://dbpedia.org/class/yago/MemberStatesOfTheUnitedNations
p655
aVhttp://dbpedia.org/class/yago/Russian-speakingCountriesAndTerritories
p656
aVhttp://dbpedia.org/class/yago/StatesAndTerritoriesEstablishedIn1918
p657
aVhttp://dbpedia.org/class/yago/StatesAndTerritoriesEstablishedIn1991
p658
aVhttp://dbpedia.org/resource/Latvia
tp659
aa(lp660
((lp661
Vhttp://www.w3.org/2002/07/owl#Thing
p662
aVhttp://www.ontologydesignpatterns.org/ont/dul/DUL.owl#Agent
p663
aVhttp://www.ontologydesignpatterns.org/ont/dul/DUL.owl#SocialPerson
p664
aVhttp://www.wikidata.org/entity/Q215380
p665
aVhttp://www.wikidata.org/entity/Q43229
p666
aVhttp://dbpedia.org/ontology/Agent
p667
aVhttp://dbpedia.org/ontology/Band
p668
aVhttp://dbpedia.org/ontology/Group
p669
aVhttp://dbpedia.org/ontology/Organisation
p670
aVhttp://schema.org/MusicGroup
p671
aVhttp://schema.org/Organization
p672
aVhttp://dbpedia.org/resource/LVL_(musician)
tp673
aa(lp674
((lp675
Vhttp://www.w3.org/2002/07/owl#Thing
p676
aVhttp://dbpedia.org/ontology/Place
p677
aVhttp://dbpedia.org/ontology/Location
p678
aVhttp://www.wikidata.org/entity/Q486972
p679
aVhttp://www.wikidata.org/entity/Q6256
p680
aVhttp://dbpedia.org/ontology/Country
p681
aVhttp://dbpedia.org/ontology/PopulatedPlace
p682
aVhttp://www.w3.org/2003/01/geo/wgs84_pos#SpatialThing
p683
aVhttp://schema.org/Country
p684
aVhttp://schema.org/Place
p685
aVhttp://umbel.org/umbel/rc/Country
p686
aVhttp://umbel.org/umbel/rc/Location_Underspecified
p687
aVhttp://umbel.org/umbel/rc/PopulatedPlace
p688
aVhttp://dbpedia.org/class/yago/Abstraction100002137
p689
aVhttp://dbpedia.org/class/yago/AdministrativeDistrict108491826
p690
aVhttp://dbpedia.org/class/yago/BicontinentalCountries
p691
aVhttp://dbpedia.org/class/yago/Country108544813
p692
aVhttp://dbpedia.org/class/yago/District108552138
p693
aVhttp://dbpedia.org/class/yago/Economy108366753
p694
aVhttp://dbpedia.org/class/yago/Group100031264
p695
aVhttp://dbpedia.org/class/yago/Location100027167
p696
aVhttp://dbpedia.org/class/yago/Object100002684
p697
aVhttp://dbpedia.org/class/yago/Region108630985
p698
aVhttp://dbpedia.org/class/yago/System108435388
p699
aVhttp://dbpedia.org/class/yago/YagoGeoEntity
p700
aVhttp://dbpedia.org/class/yago/YagoLegalActorGeo
p701
aVhttp://dbpedia.org/class/yago/CountriesBorderingTheAtlanticOcean
p702
aVhttp://dbpedia.org/class/yago/CountriesOfTheMediterraneanSea
p703
aVhttp://dbpedia.org/class/yago/EuropeanCountries
p704
aVhttp://dbpedia.org/class/yago/EuropeanUnionMemberEconomies
p705
aVhttp://dbpedia.org/class/yago/PhysicalEntity100001930
p706
aVhttp://dbpedia.org/class/yago/YagoPermanentlyLocatedEntity
p707
aVhttp://dbpedia.org/class/yago/MemberStatesOfNATO
p708
aVhttp://dbpedia.org/class/yago/MemberStatesOfTheEuropeanUnion
p709
aVhttp://dbpedia.org/class/yago/MemberStatesOfTheUnionForTheMediterranean
p710
aVhttp://dbpedia.org/class/yago/MemberStatesOfTheUnitedNations
p711
aVhttp://dbpedia.org/class/yago/Spanish-speakingCountries
p712
aVhttp://dbpedia.org/class/yago/WorldTradeOrganizationMemberEconomies
p713
aVhttp://dbpedia.org/resource/Spain
tp714
aa(lp715
((lVhttp://dbpedia.org/resource/EUR-Lex
tp716
aaa(lp717
(lp718
((lp719
Vhttp://www.w3.org/2002/07/owl#Thing
p720
aVhttp://dbpedia.org/ontology/Place
p721
aVhttp://dbpedia.org/ontology/Location
p722
aVhttp://www.wikidata.org/entity/Q486972
p723
aVhttp://www.wikidata.org/entity/Q6256
p724
aVhttp://dbpedia.org/ontology/Country
p725
aVhttp://dbpedia.org/ontology/PopulatedPlace
p726
aVhttp://www.w3.org/2003/01/geo/wgs84_pos#SpatialThing
p727
aVhttp://schema.org/Country
p728
aVhttp://schema.org/Place
p729
aVhttp://umbel.org/umbel/rc/Country
p730
aVhttp://umbel.org/umbel/rc/Location_Underspecified
p731
aVhttp://umbel.org/umbel/rc/PopulatedPlace
p732
aVhttp://dbpedia.org/class/yago/Abstraction100002137
p733
aVhttp://dbpedia.org/class/yago/AdministrativeDistrict108491826
p734
aVhttp://dbpedia.org/class/yago/Country108544813
p735
aVhttp://dbpedia.org/class/yago/District108552138
p736
aVhttp://dbpedia.org/class/yago/Economy108366753
p737
aVhttp://dbpedia.org/class/yago/Group100031264
p738
aVhttp://dbpedia.org/class/yago/Location100027167
p739
aVhttp://dbpedia.org/class/yago/Object100002684
p740
aVhttp://dbpedia.org/class/yago/Region108630039
p741
aVhttp://dbpedia.org/class/yago/Region108630985
p742
aVhttp://dbpedia.org/class/yago/System108435388
p743
aVhttp://dbpedia.org/class/yago/YagoGeoEntity
p744
aVhttp://dbpedia.org/class/yago/YagoLegalActorGeo
p745
aVhttp://dbpedia.org/class/yago/CountriesBorderingTheAtlanticOcean
p746
aVhttp://dbpedia.org/class/yago/CountriesBorderingTheBalticSea
p747
aVhttp://dbpedia.org/class/yago/Danish-speakingCountries
p748
aVhttp://dbpedia.org/class/yago/EuropeanCountries
p749
aVhttp://dbpedia.org/class/yago/EuropeanUnionMemberEconomies
p750
aVhttp://dbpedia.org/class/yago/PhysicalEntity100001930
p751
aVhttp://dbpedia.org/class/yago/YagoPermanentlyLocatedEntity
p752
aVhttp://dbpedia.org/class/yago/MemberStatesOfNATO
p753
aVhttp://dbpedia.org/class/yago/MemberStatesOfTheEuropeanUnion
p754
aVhttp://dbpedia.org/class/yago/MemberStatesOfTheUnionForTheMediterranean
p755
aVhttp://dbpedia.org/class/yago/MemberStatesOfTheUnitedNations
p756
aVhttp://dbpedia.org/class/yago/NUTS2StatisticalRegionsOfTheEuropeanUnion
p757
aVhttp://dbpedia.org/class/yago/NordicCountries
p758
aVhttp://dbpedia.org/class/yago/StatesAndTerritoriesEstablishedIn1814
p759
aVhttp://dbpedia.org/resource/Denmark
tp760
aa(lp761
((lVhttp://dbpedia.org/resource/DKK
tp762
aa(lp763
((lp764
Vhttp://www.w3.org/2002/07/owl#Thing
p765
aVhttp://dbpedia.org/ontology/Place
p766
aVhttp://dbpedia.org/ontology/Location
p767
aVhttp://www.wikidata.org/entity/Q486972
p768
aVhttp://www.wikidata.org/entity/Q6256
p769
aVhttp://dbpedia.org/ontology/Country
p770
aVhttp://dbpedia.org/ontology/PopulatedPlace
p771
aVhttp://www.w3.org/2003/01/geo/wgs84_pos#SpatialThing
p772
aVhttp://schema.org/Country
p773
aVhttp://schema.org/Place
p774
aVhttp://umbel.org/umbel/rc/Country
p775
aVhttp://umbel.org/umbel/rc/Location_Underspecified
p776
aVhttp://umbel.org/umbel/rc/PopulatedPlace
p777
aVhttp://dbpedia.org/class/yago/Abstraction100002137
p778
aVhttp://dbpedia.org/class/yago/AdministrativeDistrict108491826
p779
aVhttp://dbpedia.org/class/yago/BalticStates
p780
aVhttp://dbpedia.org/class/yago/Country108544813
p781
aVhttp://dbpedia.org/class/yago/District108552138
p782
aVhttp://dbpedia.org/class/yago/Economy108366753
p783
aVhttp://dbpedia.org/class/yago/Group100031264
p784
aVhttp://dbpedia.org/class/yago/Location100027167
p785
aVhttp://dbpedia.org/class/yago/Object100002684
p786
aVhttp://dbpedia.org/class/yago/Region108630985
p787
aVhttp://dbpedia.org/class/yago/System108435388
p788
aVhttp://dbpedia.org/class/yago/YagoGeoEntity
p789
aVhttp://dbpedia.org/class/yago/YagoLegalActorGeo
p790
aVhttp://dbpedia.org/class/yago/CountriesBorderingTheBalticSea
p791
aVhttp://dbpedia.org/class/yago/EuropeanCountries
p792
aVhttp://dbpedia.org/class/yago/EuropeanUnionMemberEconomies
p793
aVhttp://dbpedia.org/class/yago/PhysicalEntity100001930
p794
aVhttp://dbpedia.org/class/yago/YagoPermanentlyLocatedEntity
p795
aVhttp://dbpedia.org/class/yago/MemberStatesOfNATO
p796
aVhttp://dbpedia.org/class/yago/MemberStatesOfTheEuropeanUnion
p797
aVhttp://dbpedia.org/class/yago/MemberStatesOfTheUnionForTheMediterranean
p798
aVhttp://dbpedia.org/class/yago/MemberStatesOfTheUnitedNations
p799
aVhttp://dbpedia.org/class/yago/StatesAndTerritoriesEstablishedIn1918
p800
aVhttp://dbpedia.org/class/yago/StatesAndTerritoriesEstablishedIn1990
p801
aVhttp://dbpedia.org/resource/Lithuania
tp802
aa(lp803
((lVhttp://dbpedia.org/resource/Linear_temporal_logic
tp804
aa(lp805
((lp806
Vhttp://www.w3.org/2002/07/owl#Thing
p807
aVhttp://dbpedia.org/ontology/Place
p808
aVhttp://dbpedia.org/ontology/Location
p809
aVhttp://www.wikidata.org/entity/Q486972
p810
aVhttp://www.wikidata.org/entity/Q6256
p811
aVhttp://dbpedia.org/ontology/Country
p812
aVhttp://dbpedia.org/ontology/PopulatedPlace
p813
aVhttp://www.w3.org/2003/01/geo/wgs84_pos#SpatialThing
p814
aVhttp://schema.org/Country
p815
aVhttp://schema.org/Place
p816
aVhttp://umbel.org/umbel/rc/Country
p817
aVhttp://umbel.org/umbel/rc/Location_Underspecified
p818
aVhttp://umbel.org/umbel/rc/PopulatedPlace
p819
aVhttp://dbpedia.org/class/yago/Abstraction100002137
p820
aVhttp://dbpedia.org/class/yago/AdministrativeDistrict108491826
p821
aVhttp://dbpedia.org/class/yago/Country108544813
p822
aVhttp://dbpedia.org/class/yago/District108552138
p823
aVhttp://dbpedia.org/class/yago/Economy108366753
p824
aVhttp://dbpedia.org/class/yago/Group100031264
p825
aVhttp://dbpedia.org/class/yago/Location100027167
p826
aVhttp://dbpedia.org/class/yago/Object100002684
p827
aVhttp://dbpedia.org/class/yago/Region108630985
p828
aVhttp://dbpedia.org/class/yago/System108435388
p829
aVhttp://dbpedia.org/class/yago/YagoGeoEntity
p830
aVhttp://dbpedia.org/class/yago/YagoLegalActorGeo
p831
aVhttp://dbpedia.org/class/yago/CountriesBorderingTheAtlanticOcean
p832
aVhttp://dbpedia.org/class/yago/CountriesBorderingTheBalticSea
p833
aVhttp://dbpedia.org/class/yago/EuropeanCountries
p834
aVhttp://dbpedia.org/class/yago/EuropeanUnionMemberEconomies
p835
aVhttp://dbpedia.org/class/yago/PhysicalEntity100001930
p836
aVhttp://dbpedia.org/class/yago/YagoPermanentlyLocatedEntity
p837
aVhttp://dbpedia.org/class/yago/MemberStatesOfTheEuropeanUnion
p838
aVhttp://dbpedia.org/class/yago/MemberStatesOfTheUnionForTheMediterranean
p839
aVhttp://dbpedia.org/class/yago/MemberStatesOfTheUnitedNations
p840
aVhttp://dbpedia.org/class/yago/NordicCountries
p841
aVhttp://dbpedia.org/resource/Sweden
tp842
aa(lp843
((lp844
Vhttp://www.w3.org/2002/07/owl#Thing
p845
aVhttp://www.ontologydesignpatterns.org/ont/dul/DUL.owl#Agent
p846
aVhttp://www.ontologydesignpatterns.org/ont/dul/DUL.owl#SocialPerson
p847
aVhttp://www.wikidata.org/entity/Q176799
p848
aVhttp://www.wikidata.org/entity/Q43229
p849
aVhttp://dbpedia.org/ontology/Agent
p850
aVhttp://dbpedia.org/ontology/MilitaryUnit
p851
aVhttp://dbpedia.org/ontology/Organisation
p852
aVhttp://schema.org/Organization
p853
aVhttp://dbpedia.org/class/yago/Abstraction100002137
p854
aVhttp://dbpedia.org/class/yago/Attribute100024264
p855
aVhttp://dbpedia.org/class/yago/DefiniteQuantity113576101
p856
aVhttp://dbpedia.org/class/yago/Force105194578
p857
aVhttp://dbpedia.org/class/yago/Power105190804
p858
aVhttp://dbpedia.org/class/yago/Quality104723816
p859
aVhttp://dbpedia.org/class/yago/UnitOfMeasurement113583724
p860
aVhttp://dbpedia.org/class/yago/Influence105194151
p861
aVhttp://dbpedia.org/class/yago/Measure100033615
p862
aVhttp://dbpedia.org/class/yago/PoliceUnitsOfGermany
p863
aVhttp://dbpedia.org/class/yago/SpecialForcesOfGermany
p864
aVhttp://dbpedia.org/resource/Spezialeinsatzkommando
tp865
aaa(lp866
(lp867
((lp868
Vhttp://www.w3.org/2002/07/owl#Thing
p869
aVhttp://dbpedia.org/ontology/Place
p870
aVhttp://dbpedia.org/ontology/Location
p871
aVhttp://www.wikidata.org/entity/Q486972
p872
aVhttp://www.wikidata.org/entity/Q6256
p873
aVhttp://dbpedia.org/ontology/Country
p874
aVhttp://dbpedia.org/ontology/PopulatedPlace
p875
aVhttp://www.w3.org/2003/01/geo/wgs84_pos#SpatialThing
p876
aVhttp://schema.org/Country
p877
aVhttp://schema.org/Place
p878
aVhttp://umbel.org/umbel/rc/Country
p879
aVhttp://umbel.org/umbel/rc/Location_Underspecified
p880
aVhttp://umbel.org/umbel/rc/PopulatedPlace
p881
aVhttp://dbpedia.org/class/yago/Abstraction100002137
p882
aVhttp://dbpedia.org/class/yago/AdministrativeDistrict108491826
p883
aVhttp://dbpedia.org/class/yago/BalticStates
p884
aVhttp://dbpedia.org/class/yago/Country108544813
p885
aVhttp://dbpedia.org/class/yago/District108552138
p886
aVhttp://dbpedia.org/class/yago/Economy108366753
p887
aVhttp://dbpedia.org/class/yago/Group100031264
p888
aVhttp://dbpedia.org/class/yago/Location100027167
p889
aVhttp://dbpedia.org/class/yago/Object100002684
p890
aVhttp://dbpedia.org/class/yago/Region108630985
p891
aVhttp://dbpedia.org/class/yago/System108435388
p892
aVhttp://dbpedia.org/class/yago/YagoGeoEntity
p893
aVhttp://dbpedia.org/class/yago/YagoLegalActorGeo
p894
aVhttp://dbpedia.org/class/yago/CountriesBorderingTheBalticSea
p895
aVhttp://dbpedia.org/class/yago/EuropeanCountries
p896
aVhttp://dbpedia.org/class/yago/EuropeanUnionMemberEconomies
p897
aVhttp://dbpedia.org/class/yago/PhysicalEntity100001930
p898
aVhttp://dbpedia.org/class/yago/YagoPermanentlyLocatedEntity
p899
aVhttp://dbpedia.org/class/yago/MemberStatesOfNATO
p900
aVhttp://dbpedia.org/class/yago/MemberStatesOfTheEuropeanUnion
p901
aVhttp://dbpedia.org/class/yago/MemberStatesOfTheUnionForTheMediterranean
p902
aVhttp://dbpedia.org/class/yago/MemberStatesOfTheUnitedNations
p903
aVhttp://dbpedia.org/class/yago/StatesAndTerritoriesEstablishedIn1918
p904
aVhttp://dbpedia.org/class/yago/StatesAndTerritoriesEstablishedIn1991
p905
aVhttp://dbpedia.org/resource/Estonia
tp906
aa(lp907
((lVhttp://dbpedia.org/resource/Eek
tp908
aa(lp909
((lp910
Vhttp://www.w3.org/2002/07/owl#Thing
p911
aVhttp://dbpedia.org/ontology/Place
p912
aVhttp://dbpedia.org/ontology/Location
p913
aVhttp://www.wikidata.org/entity/Q486972
p914
aVhttp://www.wikidata.org/entity/Q6256
p915
aVhttp://dbpedia.org/ontology/Country
p916
aVhttp://dbpedia.org/ontology/PopulatedPlace
p917
aVhttp://www.w3.org/2003/01/geo/wgs84_pos#SpatialThing
p918
aVhttp://schema.org/Country
p919
aVhttp://schema.org/Place
p920
aVhttp://umbel.org/umbel/rc/Country
p921
aVhttp://umbel.org/umbel/rc/Location_Underspecified
p922
aVhttp://umbel.org/umbel/rc/PopulatedPlace
p923
aVhttp://dbpedia.org/class/yago/Abstraction100002137
p924
aVhttp://dbpedia.org/class/yago/AdministrativeDistrict108491826
p925
aVhttp://dbpedia.org/class/yago/Country108544813
p926
aVhttp://dbpedia.org/class/yago/District108552138
p927
aVhttp://dbpedia.org/class/yago/Economy108366753
p928
aVhttp://dbpedia.org/class/yago/Group100031264
p929
aVhttp://dbpedia.org/class/yago/Location100027167
p930
aVhttp://dbpedia.org/class/yago/Object100002684
p931
aVhttp://dbpedia.org/class/yago/Region108630039
p932
aVhttp://dbpedia.org/class/yago/Region108630985
p933
aVhttp://dbpedia.org/class/yago/System108435388
p934
aVhttp://dbpedia.org/class/yago/YagoGeoEntity
p935
aVhttp://dbpedia.org/class/yago/YagoLegalActorGeo
p936
aVhttp://dbpedia.org/class/yago/DividedRegions
p937
aVhttp://dbpedia.org/class/yago/EuropeanCountries
p938
aVhttp://dbpedia.org/class/yago/EuropeanUnionMemberEconomies
p939
aVhttp://dbpedia.org/class/yago/French-speakingCountries
p940
aVhttp://dbpedia.org/class/yago/PhysicalEntity100001930
p941
aVhttp://dbpedia.org/class/yago/YagoPermanentlyLocatedEntity
p942
aVhttp://dbpedia.org/class/yago/German-speakingCountries
p943
aVhttp://dbpedia.org/class/yago/LandlockedCountries
p944
aVhttp://dbpedia.org/class/yago/MemberStatesOfLaFrancophonie
p945
aVhttp://dbpedia.org/class/yago/MemberStatesOfNATO
p946
aVhttp://dbpedia.org/class/yago/MemberStatesOfTheEuropeanUnion
p947
aVhttp://dbpedia.org/class/yago/MemberStatesOfTheUnionForTheMediterranean
p948
aVhttp://dbpedia.org/class/yago/MemberStatesOfTheUnitedNations
p949
aVhttp://dbpedia.org/class/yago/NUTS1StatisticalRegionsOfTheEuropeanUnion
p950
aVhttp://dbpedia.org/class/yago/NUTS2StatisticalRegionsOfTheEuropeanUnion
p951
aVhttp://dbpedia.org/class/yago/StatesAndTerritoriesEstablishedIn1815
p952
aVhttp://dbpedia.org/class/yago/StatesOfTheGermanConfederation
p953
aVhttp://dbpedia.org/resource/Luxembourg
tp954
aa(lp955
((lVhttp://dbpedia.org/resource/EUR-Lex
tp956
aa(lp957
((lp958
Vhttp://www.w3.org/2002/07/owl#Thing
p959
aVhttp://umbel.org/umbel/rc/Country
p960
aVhttp://umbel.org/umbel/rc/Location_Underspecified
p961
aVhttp://umbel.org/umbel/rc/PopulatedPlace
p962
aVhttp://dbpedia.org/class/yago/Abstraction100002137
p963
aVhttp://dbpedia.org/class/yago/AdministrativeDistrict108491826
p964
aVhttp://dbpedia.org/class/yago/Country108544813
p965
aVhttp://dbpedia.org/class/yago/District108552138
p966
aVhttp://dbpedia.org/class/yago/Economy108366753
p967
aVhttp://dbpedia.org/class/yago/Group100031264
p968
aVhttp://dbpedia.org/class/yago/Location100027167
p969
aVhttp://dbpedia.org/class/yago/Object100002684
p970
aVhttp://dbpedia.org/class/yago/Region108630985
p971
aVhttp://dbpedia.org/class/yago/System108435388
p972
aVhttp://dbpedia.org/class/yago/YagoGeoEntity
p973
aVhttp://dbpedia.org/class/yago/YagoLegalActorGeo
p974
aVhttp://dbpedia.org/class/yago/CountriesBorderingTheArcticOcean
p975
aVhttp://dbpedia.org/class/yago/CountriesBorderingTheAtlanticOcean
p976
aVhttp://dbpedia.org/class/yago/EuropeanCountries
p977
aVhttp://dbpedia.org/class/yago/PhysicalEntity100001930
p978
aVhttp://dbpedia.org/class/yago/YagoPermanentlyLocatedEntity
p979
aVhttp://dbpedia.org/class/yago/MemberStatesOfNATO
p980
aVhttp://dbpedia.org/class/yago/MemberStatesOfTheUnitedNations
p981
aVhttp://dbpedia.org/class/yago/NordicCountries
p982
aVhttp://dbpedia.org/class/yago/StatesAndTerritoriesEstablishedIn1905
p983
aVhttp://dbpedia.org/class/yago/StatesAndTerritoriesEstablishedIn872
p984
aVhttp://dbpedia.org/class/yago/WorldTradeOrganizationMemberEconomies
p985
aVhttp://dbpedia.org/resource/Norway
tp986
aa(lp987
((lp988
Vhttp://www.w3.org/2002/07/owl#Thing
p989
aVhttp://dbpedia.org/ontology/Company
p990
aVhttp://www.ontologydesignpatterns.org/ont/dul/DUL.owl#Agent
p991
aVhttp://www.ontologydesignpatterns.org/ont/dul/DUL.owl#SocialPerson
p992
aVhttp://www.wikidata.org/entity/Q43229
p993
aVhttp://dbpedia.org/ontology/Agent
p994
aVhttp://dbpedia.org/ontology/Organisation
p995
aVhttp://schema.org/Organization
p996
aVhttp://umbel.org/umbel/rc/Business
p997
aVhttp://dbpedia.org/class/yago/Abstraction100002137
p998
aVhttp://dbpedia.org/class/yago/Business108061042
p999
aVhttp://dbpedia.org/class/yago/Company108058098
p1000
aVhttp://dbpedia.org/class/yago/Enterprise108056231
p1001
aVhttp://dbpedia.org/class/yago/Group100031264
p1002
aVhttp://dbpedia.org/class/yago/Institution108053576
p1003
aVhttp://dbpedia.org/class/yago/Manufacturer108060446
p1004
aVhttp://dbpedia.org/class/yago/Organization108008335
p1005
aVhttp://dbpedia.org/class/yago/SocialGroup107950920
p1006
aVhttp://dbpedia.org/class/yago/TelephoneCompany108186221
p1007
aVhttp://dbpedia.org/class/yago/Utility108185758
p1008
aVhttp://dbpedia.org/class/yago/YagoLegalActorGeo
p1009
aVhttp://dbpedia.org/class/yago/CompaniesBasedInEspoo
p1010
aVhttp://dbpedia.org/class/yago/CompaniesEstablishedIn1865
p1011
aVhttp://dbpedia.org/class/yago/CompaniesListedOnTheHelsinkiStockExchange
p1012
aVhttp://dbpedia.org/class/yago/CompaniesOfFinland
p1013
aVhttp://dbpedia.org/class/yago/DisplayTechnologyCompanies
p1014
aVhttp://dbpedia.org/class/yago/ElectronicsCompaniesOfFinland
p1015
aVhttp://dbpedia.org/class/yago/ElectronicsCompany108003035
p1016
aVhttp://dbpedia.org/class/yago/YagoPermanentlyLocatedEntity
p1017
aVhttp://dbpedia.org/class/yago/MobilePhoneCompaniesOfFinland
p1018
aVhttp://dbpedia.org/class/yago/MobilePhoneManufacturers
p1019
aVhttp://dbpedia.org/class/yago/YagoLegalActor
p1020
aVhttp://dbpedia.org/class/yago/Service108186047
p1021
aVhttp://dbpedia.org/resource/Nokia
tp1022
aaa(lp1023
(lp1024
((lp1025
Vhttp://www.w3.org/2002/07/owl#Thing
p1026
aVhttp://dbpedia.org/ontology/Place
p1027
aVhttp://dbpedia.org/ontology/Location
p1028
aVhttp://www.wikidata.org/entity/Q486972
p1029
aVhttp://www.wikidata.org/entity/Q6256
p1030
aVhttp://dbpedia.org/ontology/Country
p1031
aVhttp://dbpedia.org/ontology/PopulatedPlace
p1032
aVhttp://www.w3.org/2003/01/geo/wgs84_pos#SpatialThing
p1033
aVhttp://schema.org/Country
p1034
aVhttp://schema.org/Place
p1035
aVhttp://umbel.org/umbel/rc/Country
p1036
aVhttp://umbel.org/umbel/rc/Location_Underspecified
p1037
aVhttp://umbel.org/umbel/rc/PopulatedPlace
p1038
aVhttp://dbpedia.org/class/yago/Abstraction100002137
p1039
aVhttp://dbpedia.org/class/yago/AdministrativeDistrict108491826
p1040
aVhttp://dbpedia.org/class/yago/Country108544813
p1041
aVhttp://dbpedia.org/class/yago/District108552138
p1042
aVhttp://dbpedia.org/class/yago/Economy108366753
p1043
aVhttp://dbpedia.org/class/yago/Group100031264
p1044
aVhttp://dbpedia.org/class/yago/Location100027167
p1045
aVhttp://dbpedia.org/class/yago/Object100002684
p1046
aVhttp://dbpedia.org/class/yago/Region108630985
p1047
aVhttp://dbpedia.org/class/yago/System108435388
p1048
aVhttp://dbpedia.org/class/yago/YagoGeoEntity
p1049
aVhttp://dbpedia.org/class/yago/YagoLegalActorGeo
p1050
aVhttp://dbpedia.org/class/yago/CountriesBorderingTheBalticSea
p1051
aVhttp://dbpedia.org/class/yago/EuropeanCountries
p1052
aVhttp://dbpedia.org/class/yago/EuropeanUnionMemberEconomies
p1053
aVhttp://dbpedia.org/class/yago/PhysicalEntity100001930
p1054
aVhttp://dbpedia.org/class/yago/YagoPermanentlyLocatedEntity
p1055
aVhttp://dbpedia.org/class/yago/MemberStatesOfTheCouncilOfEurope
p1056
aVhttp://dbpedia.org/class/yago/MemberStatesOfTheEuropeanUnion
p1057
aVhttp://dbpedia.org/class/yago/MemberStatesOfTheUnionForTheMediterranean
p1058
aVhttp://dbpedia.org/class/yago/MemberStatesOfTheUnitedNations
p1059
aVhttp://dbpedia.org/class/yago/NordicCountries
p1060
aVhttp://dbpedia.org/class/yago/StatesAndTerritoriesEstablishedIn1918
p1061
aVhttp://dbpedia.org/resource/Finland
tp1062
aa(lp1063
((lVhttp://dbpedia.org/resource/EUR-Lex
tp1064
aa(lp1065
((lp1066
Vhttp://www.w3.org/2002/07/owl#Thing
p1067
aVhttp://dbpedia.org/ontology/Place
p1068
aVhttp://dbpedia.org/ontology/Location
p1069
aVhttp://www.wikidata.org/entity/Q486972
p1070
aVhttp://dbpedia.org/ontology/PopulatedPlace
p1071
aVhttp://schema.org/Place
p1072
aVhttp://umbel.org/umbel/rc/Country
p1073
aVhttp://umbel.org/umbel/rc/Location_Underspecified
p1074
aVhttp://umbel.org/umbel/rc/PopulatedPlace
p1075
aVhttp://dbpedia.org/class/yago/Abstraction100002137
p1076
aVhttp://dbpedia.org/class/yago/AdministrativeDistrict108491826
p1077
aVhttp://dbpedia.org/class/yago/Archipelago109203827
p1078
aVhttp://dbpedia.org/class/yago/ArchipelagoesOfTheMediterraneanSea
p1079
aVhttp://dbpedia.org/class/yago/Country108544813
p1080
aVhttp://dbpedia.org/class/yago/District108552138
p1081
aVhttp://dbpedia.org/class/yago/Economy108366753
p1082
aVhttp://dbpedia.org/class/yago/Group100031264
p1083
aVhttp://dbpedia.org/class/yago/Island109316454
p1084
aVhttp://dbpedia.org/class/yago/Land109334396
p1085
aVhttp://dbpedia.org/class/yago/Location100027167
p1086
aVhttp://dbpedia.org/class/yago/Object100002684
p1087
aVhttp://dbpedia.org/class/yago/Region108630039
p1088
aVhttp://dbpedia.org/class/yago/Region108630985
p1089
aVhttp://dbpedia.org/class/yago/System108435388
p1090
aVhttp://dbpedia.org/class/yago/YagoGeoEntity
p1091
aVhttp://dbpedia.org/class/yago/YagoLegalActorGeo
p1092
aVhttp://dbpedia.org/class/yago/CountriesOfTheMediterraneanSea
p1093
aVhttp://dbpedia.org/class/yago/English-speakingCountriesAndTerritories
p1094
aVhttp://dbpedia.org/class/yago/EuropeanCountries
p1095
aVhttp://dbpedia.org/class/yago/EuropeanUnionMemberEconomies
p1096
aVhttp://dbpedia.org/class/yago/PhysicalEntity100001930
p1097
aVhttp://dbpedia.org/class/yago/YagoPermanentlyLocatedEntity
p1098
aVhttp://dbpedia.org/class/yago/IslandCountries
p1099
aVhttp://dbpedia.org/class/yago/Italian-speakingCountries
p1100
aVhttp://dbpedia.org/class/yago/MediterraneanIslands
p1101
aVhttp://dbpedia.org/class/yago/MemberStatesOfTheCommonwealthOfNations
p1102
aVhttp://dbpedia.org/class/yago/MemberStatesOfTheCouncilOfEurope
p1103
aVhttp://dbpedia.org/class/yago/MemberStatesOfTheEuropeanUnion
p1104
aVhttp://dbpedia.org/class/yago/MemberStatesOfTheUnionForTheMediterranean
p1105
aVhttp://dbpedia.org/class/yago/MemberStatesOfTheUnitedNations
p1106
aVhttp://dbpedia.org/class/yago/NUTS1StatisticalRegionsOfTheEuropeanUnion
p1107
aVhttp://dbpedia.org/class/yago/StatesAndTerritoriesEstablishedIn1964
p1108
aVhttp://dbpedia.org/resource/Malta
tp1109
aa(lp1110
((lVhttp://dbpedia.org/resource/EUR-Lex
tp1111
aa(lp1112
((lp1113
Vhttp://www.w3.org/2002/07/owl#Thing
p1114
aVhttp://dbpedia.org/ontology/Place
p1115
aVhttp://dbpedia.org/ontology/Location
p1116
aVhttp://www.wikidata.org/entity/Q486972
p1117
aVhttp://www.wikidata.org/entity/Q6256
p1118
aVhttp://dbpedia.org/ontology/Country
p1119
aVhttp://dbpedia.org/ontology/PopulatedPlace
p1120
aVhttp://www.w3.org/2003/01/geo/wgs84_pos#SpatialThing
p1121
aVhttp://schema.org/Country
p1122
aVhttp://schema.org/Place
p1123
aVhttp://umbel.org/umbel/rc/Country
p1124
aVhttp://umbel.org/umbel/rc/Location_Underspecified
p1125
aVhttp://umbel.org/umbel/rc/PopulatedPlace
p1126
aVhttp://dbpedia.org/class/yago/Abstraction100002137
p1127
aVhttp://dbpedia.org/class/yago/AdministrativeDistrict108491826
p1128
aVhttp://dbpedia.org/class/yago/Country108544813
p1129
aVhttp://dbpedia.org/class/yago/District108552138
p1130
aVhttp://dbpedia.org/class/yago/Economy108366753
p1131
aVhttp://dbpedia.org/class/yago/Group100031264
p1132
aVhttp://dbpedia.org/class/yago/Location100027167
p1133
aVhttp://dbpedia.org/class/yago/Object100002684
p1134
aVhttp://dbpedia.org/class/yago/Region108630985
p1135
aVhttp://dbpedia.org/class/yago/System108435388
p1136
aVhttp://dbpedia.org/class/yago/YagoGeoEntity
p1137
aVhttp://dbpedia.org/class/yago/YagoLegalActorGeo
p1138
aVhttp://dbpedia.org/class/yago/CountriesBorderingTheAtlanticOcean
p1139
aVhttp://dbpedia.org/class/yago/English-speakingCountriesAndTerritories
p1140
aVhttp://dbpedia.org/class/yago/EuropeanCountries
p1141
aVhttp://dbpedia.org/class/yago/EuropeanUnionMemberEconomies
p1142
aVhttp://dbpedia.org/class/yago/PhysicalEntity100001930
p1143
aVhttp://dbpedia.org/class/yago/YagoPermanentlyLocatedEntity
p1144
aVhttp://dbpedia.org/class/yago/IslandCountries
p1145
aVhttp://dbpedia.org/class/yago/MemberStatesOfNATO
p1146
aVhttp://dbpedia.org/class/yago/MemberStatesOfTheCommonwealthOfNations
p1147
aVhttp://dbpedia.org/class/yago/MemberStatesOfTheCouncilOfEurope
p1148
aVhttp://dbpedia.org/class/yago/MemberStatesOfTheEuropeanUnion
p1149
aVhttp://dbpedia.org/class/yago/MemberStatesOfTheUnionForTheMediterranean
p1150
aVhttp://dbpedia.org/class/yago/MemberStatesOfTheUnitedNations
p1151
aVhttp://dbpedia.org/resource/United_Kingdom
tp1152
aa(lp1153
((lp1154
Vhttp://www.w3.org/2002/07/owl#Thing
p1155
aVhttp://www.ontologydesignpatterns.org/ont/dul/DUL.owl#Agent
p1156
aVhttp://www.ontologydesignpatterns.org/ont/dul/DUL.owl#SocialPerson
p1157
aVhttp://www.wikidata.org/entity/Q43229
p1158
aVhttp://dbpedia.org/ontology/Agent
p1159
aVhttp://dbpedia.org/ontology/Organisation
p1160
aVhttp://dbpedia.org/ontology/SportsTeam
p1161
aVhttp://schema.org/Organization
p1162
aVhttp://schema.org/SportsTeam
p1163
aVhttp://umbel.org/umbel/rc/Club_Organization
p1164
aVhttp://umbel.org/umbel/rc/Organization
p1165
aVhttp://umbel.org/umbel/rc/OrganizationOfOrganizations
p1166
aVhttp://dbpedia.org/class/yago/Abstraction100002137
p1167
aVhttp://dbpedia.org/class/yago/Association108049401
p1168
aVhttp://dbpedia.org/class/yago/Club108227214
p1169
aVhttp://dbpedia.org/class/yago/Company108058098
p1170
aVhttp://dbpedia.org/class/yago/Group100031264
p1171
aVhttp://dbpedia.org/class/yago/Institution108053576
p1172
aVhttp://dbpedia.org/class/yago/Organization108008335
p1173
aVhttp://dbpedia.org/class/yago/SocialGroup107950920
p1174
aVhttp://dbpedia.org/class/yago/Team108208560
p1175
aVhttp://dbpedia.org/class/yago/Unit108189659
p1176
aVhttp://dbpedia.org/class/yago/YagoLegalActorGeo
p1177
aVhttp://dbpedia.org/class/yago/YagoPermanentlyLocatedEntity
p1178
aVhttp://dbpedia.org/class/yago/NationalFootballLeagueTeams
p1179
aVhttp://dbpedia.org/class/yago/YagoLegalActor
p1180
aVhttp://dbpedia.org/class/yago/PubliclyTradedSportsCompanies
p1181
aVhttp://dbpedia.org/class/yago/SportsClubsEstablishedIn1919
p1182
aVhttp://dbpedia.org/resource/Green_Bay_Packers
tp1183
aaa(lp1184
(lp1185
((lp1186
Vhttp://www.w3.org/2002/07/owl#Thing
p1187
aVhttp://umbel.org/umbel/rc/Business
p1188
aVhttp://umbel.org/umbel/rc/Organization
p1189
aVhttp://dbpedia.org/resource/France_2
tp1190
aa(lp1191
((lVhttp://dbpedia.org/resource/EUR-Lex
tp1192
aa(lp1193
((lp1194
Vhttp://www.w3.org/2002/07/owl#Thing
p1195
aVhttp://dbpedia.org/ontology/Place
p1196
aVhttp://dbpedia.org/ontology/Location
p1197
aVhttp://www.wikidata.org/entity/Q486972
p1198
aVhttp://www.wikidata.org/entity/Q6256
p1199
aVhttp://dbpedia.org/ontology/Country
p1200
aVhttp://dbpedia.org/ontology/PopulatedPlace
p1201
aVhttp://www.w3.org/2003/01/geo/wgs84_pos#SpatialThing
p1202
aVhttp://schema.org/Country
p1203
aVhttp://schema.org/Place
p1204
aVhttp://umbel.org/umbel/rc/Country
p1205
aVhttp://umbel.org/umbel/rc/Location_Underspecified
p1206
aVhttp://umbel.org/umbel/rc/PopulatedPlace
p1207
aVhttp://dbpedia.org/class/yago/Abstraction100002137
p1208
aVhttp://dbpedia.org/class/yago/AdministrativeDistrict108491826
p1209
aVhttp://dbpedia.org/class/yago/BicontinentalCountries
p1210
aVhttp://dbpedia.org/class/yago/CaribbeanCountries
p1211
aVhttp://dbpedia.org/class/yago/Country108544813
p1212
aVhttp://dbpedia.org/class/yago/District108552138
p1213
aVhttp://dbpedia.org/class/yago/Economy108366753
p1214
aVhttp://dbpedia.org/class/yago/Group100031264
p1215
aVhttp://dbpedia.org/class/yago/Location100027167
p1216
aVhttp://dbpedia.org/class/yago/Object100002684
p1217
aVhttp://dbpedia.org/class/yago/Region108630985
p1218
aVhttp://dbpedia.org/class/yago/System108435388
p1219
aVhttp://dbpedia.org/class/yago/YagoGeoEntity
p1220
aVhttp://dbpedia.org/class/yago/YagoLegalActorGeo
p1221
aVhttp://dbpedia.org/class/yago/CountriesBorderingTheAtlanticOcean
p1222
aVhttp://dbpedia.org/class/yago/Dutch-speakingCountries
p1223
aVhttp://dbpedia.org/class/yago/EuropeanCountries
p1224
aVhttp://dbpedia.org/class/yago/EuropeanUnionMemberEconomies
p1225
aVhttp://dbpedia.org/class/yago/PhysicalEntity100001930
p1226
aVhttp://dbpedia.org/class/yago/YagoPermanentlyLocatedEntity
p1227
aVhttp://dbpedia.org/class/yago/MemberStatesOfNATO
p1228
aVhttp://dbpedia.org/class/yago/MemberStatesOfTheDutchLanguageUnion
p1229
aVhttp://dbpedia.org/class/yago/MemberStatesOfTheEuropeanUnion
p1230
aVhttp://dbpedia.org/class/yago/MemberStatesOfTheUnionForTheMediterranean
p1231
aVhttp://dbpedia.org/resource/Netherlands
tp1232
aa(lp1233
((lVhttp://dbpedia.org/resource/EUR-Lex
tp1234
aa(lp1235
((lp1236
Vhttp://www.w3.org/2002/07/owl#Thing
p1237
aVhttp://dbpedia.org/ontology/Place
p1238
aVhttp://dbpedia.org/ontology/Location
p1239
aVhttp://www.wikidata.org/entity/Q486972
p1240
aVhttp://www.wikidata.org/entity/Q6256
p1241
aVhttp://dbpedia.org/ontology/Country
p1242
aVhttp://dbpedia.org/ontology/PopulatedPlace
p1243
aVhttp://www.w3.org/2003/01/geo/wgs84_pos#SpatialThing
p1244
aVhttp://schema.org/Country
p1245
aVhttp://schema.org/Place
p1246
aVhttp://umbel.org/umbel/rc/Country
p1247
aVhttp://umbel.org/umbel/rc/Location_Underspecified
p1248
aVhttp://umbel.org/umbel/rc/PopulatedPlace
p1249
aVhttp://dbpedia.org/class/yago/Abstraction100002137
p1250
aVhttp://dbpedia.org/class/yago/AdministrativeDistrict108491826
p1251
aVhttp://dbpedia.org/class/yago/Country108544813
p1252
aVhttp://dbpedia.org/class/yago/District108552138
p1253
aVhttp://dbpedia.org/class/yago/Economy108366753
p1254
aVhttp://dbpedia.org/class/yago/Group100031264
p1255
aVhttp://dbpedia.org/class/yago/Island109316454
p1256
aVhttp://dbpedia.org/class/yago/Land109334396
p1257
aVhttp://dbpedia.org/class/yago/Location100027167
p1258
aVhttp://dbpedia.org/class/yago/Object100002684
p1259
aVhttp://dbpedia.org/class/yago/Region108630985
p1260
aVhttp://dbpedia.org/class/yago/System108435388
p1261
aVhttp://dbpedia.org/class/yago/YagoGeoEntity
p1262
aVhttp://dbpedia.org/class/yago/YagoLegalActorGeo
p1263
aVhttp://dbpedia.org/class/yago/CountriesBorderingTheArcticOcean
p1264
aVhttp://dbpedia.org/class/yago/CountriesBorderingTheAtlanticOcean
p1265
aVhttp://dbpedia.org/class/yago/EuropeanCountries
p1266
aVhttp://dbpedia.org/class/yago/PhysicalEntity100001930
p1267
aVhttp://dbpedia.org/class/yago/YagoPermanentlyLocatedEntity
p1268
aVhttp://dbpedia.org/class/yago/IslandCountries
p1269
aVhttp://dbpedia.org/class/yago/IslandsOfIceland
p1270
aVhttp://dbpedia.org/class/yago/MemberStatesOfNATO
p1271
aVhttp://dbpedia.org/class/yago/MemberStatesOfTheUnitedNations
p1272
aVhttp://dbpedia.org/class/yago/NordicCountries
p1273
aVhttp://dbpedia.org/class/yago/StatesAndTerritoriesEstablishedIn1944
p1274
aVhttp://dbpedia.org/class/yago/WorldTradeOrganizationMemberEconomies
p1275
aVhttp://dbpedia.org/resource/Iceland
tp1276
aa(lp1277
aa(lp1278
(lp1279
((lp1280
Vhttp://www.w3.org/2002/07/owl#Thing
p1281
aVhttp://dbpedia.org/ontology/Place
p1282
aVhttp://dbpedia.org/ontology/Location
p1283
aVhttp://www.wikidata.org/entity/Q486972
p1284
aVhttp://www.wikidata.org/entity/Q6256
p1285
aVhttp://dbpedia.org/ontology/Country
p1286
aVhttp://dbpedia.org/ontology/PopulatedPlace
p1287
aVhttp://www.w3.org/2003/01/geo/wgs84_pos#SpatialThing
p1288
aVhttp://schema.org/Country
p1289
aVhttp://schema.org/Place
p1290
aVhttp://umbel.org/umbel/rc/Country
p1291
aVhttp://umbel.org/umbel/rc/Location_Underspecified
p1292
aVhttp://umbel.org/umbel/rc/PopulatedPlace
p1293
aVhttp://dbpedia.org/class/yago/Abstraction100002137
p1294
aVhttp://dbpedia.org/class/yago/AdministrativeDistrict108491826
p1295
aVhttp://dbpedia.org/class/yago/AlpineCountries
p1296
aVhttp://dbpedia.org/class/yago/Country108544813
p1297
aVhttp://dbpedia.org/class/yago/District108552138
p1298
aVhttp://dbpedia.org/class/yago/Economy108366753
p1299
aVhttp://dbpedia.org/class/yago/Group100031264
p1300
aVhttp://dbpedia.org/class/yago/Location100027167
p1301
aVhttp://dbpedia.org/class/yago/Object100002684
p1302
aVhttp://dbpedia.org/class/yago/Region108630985
p1303
aVhttp://dbpedia.org/class/yago/System108435388
p1304
aVhttp://dbpedia.org/class/yago/YagoGeoEntity
p1305
aVhttp://dbpedia.org/class/yago/YagoLegalActorGeo
p1306
aVhttp://dbpedia.org/class/yago/CountriesBorderingTheAtlanticOcean
p1307
aVhttp://dbpedia.org/class/yago/CountriesBorderingTheBalticSea
p1308
aVhttp://dbpedia.org/class/yago/EuropeanCountries
p1309
aVhttp://dbpedia.org/class/yago/EuropeanUnionMemberEconomies
p1310
aVhttp://dbpedia.org/class/yago/FederalCountries
p1311
aVhttp://dbpedia.org/class/yago/PhysicalEntity100001930
p1312
aVhttp://dbpedia.org/class/yago/YagoPermanentlyLocatedEntity
p1313
aVhttp://dbpedia.org/class/yago/German-speakingCountries
p1314
aVhttp://dbpedia.org/class/yago/MemberStatesOfNATO
p1315
aVhttp://dbpedia.org/class/yago/MemberStatesOfTheEuropeanUnion
p1316
aVhttp://dbpedia.org/class/yago/MemberStatesOfTheUnionForTheMediterranean
p1317
aVhttp://dbpedia.org/class/yago/MemberStatesOfTheUnitedNations
p1318
aVhttp://dbpedia.org/class/yago/StatesAndTerritoriesEstablishedIn1871
p1319
aVhttp://dbpedia.org/resource/Germany
tp1320
aa(lp1321
((lVhttp://dbpedia.org/resource/EUR-Lex
tp1322
aa(lp1323
((lp1324
Vhttp://www.w3.org/2002/07/owl#Thing
p1325
aVhttp://dbpedia.org/ontology/Place
p1326
aVhttp://dbpedia.org/ontology/Location
p1327
aVhttp://www.wikidata.org/entity/Q486972
p1328
aVhttp://www.wikidata.org/entity/Q6256
p1329
aVhttp://dbpedia.org/ontology/Country
p1330
aVhttp://dbpedia.org/ontology/PopulatedPlace
p1331
aVhttp://www.w3.org/2003/01/geo/wgs84_pos#SpatialThing
p1332
aVhttp://schema.org/Country
p1333
aVhttp://schema.org/Place
p1334
aVhttp://umbel.org/umbel/rc/Country
p1335
aVhttp://umbel.org/umbel/rc/Location_Underspecified
p1336
aVhttp://umbel.org/umbel/rc/PopulatedPlace
p1337
aVhttp://dbpedia.org/class/yago/Abstraction100002137
p1338
aVhttp://dbpedia.org/class/yago/AdministrativeDistrict108491826
p1339
aVhttp://dbpedia.org/class/yago/Country108544813
p1340
aVhttp://dbpedia.org/class/yago/District108552138
p1341
aVhttp://dbpedia.org/class/yago/Economy108366753
p1342
aVhttp://dbpedia.org/class/yago/Group100031264
p1343
aVhttp://dbpedia.org/class/yago/Location100027167
p1344
aVhttp://dbpedia.org/class/yago/Object100002684
p1345
aVhttp://dbpedia.org/class/yago/Region108630985
p1346
aVhttp://dbpedia.org/class/yago/System108435388
p1347
aVhttp://dbpedia.org/class/yago/YagoGeoEntity
p1348
aVhttp://dbpedia.org/class/yago/YagoLegalActorGeo
p1349
aVhttp://dbpedia.org/class/yago/CountriesBorderingTheBalticSea
p1350
aVhttp://dbpedia.org/class/yago/EuropeanCountries
p1351
aVhttp://dbpedia.org/class/yago/EuropeanUnionMemberEconomies
p1352
aVhttp://dbpedia.org/class/yago/PhysicalEntity100001930
p1353
aVhttp://dbpedia.org/class/yago/YagoPermanentlyLocatedEntity
p1354
aVhttp://dbpedia.org/class/yago/MemberStatesOfNATO
p1355
aVhttp://dbpedia.org/class/yago/MemberStatesOfTheEuropeanUnion
p1356
aVhttp://dbpedia.org/class/yago/MemberStatesOfTheUnionForTheMediterranean
p1357
aVhttp://dbpedia.org/class/yago/MemberStatesOfTheUnitedNations
p1358
aVhttp://dbpedia.org/class/yago/SlavicCountries
p1359
aVhttp://dbpedia.org/class/yago/StatesAndTerritoriesEstablishedIn1918
p1360
aVhttp://dbpedia.org/class/yago/WorldTradeOrganizationMemberEconomies
p1361
aVhttp://dbpedia.org/resource/Poland
tp1362
aa(lp1363
((lp1364
Vhttp://www.w3.org/2002/07/owl#Thing
p1365
aVhttp://dbpedia.org/ontology/Company
p1366
aVhttp://www.ontologydesignpatterns.org/ont/dul/DUL.owl#Agent
p1367
aVhttp://www.ontologydesignpatterns.org/ont/dul/DUL.owl#SocialPerson
p1368
aVhttp://www.wikidata.org/entity/Q43229
p1369
aVhttp://dbpedia.org/ontology/Agent
p1370
aVhttp://dbpedia.org/ontology/Organisation
p1371
aVhttp://schema.org/Organization
p1372
aVhttp://dbpedia.org/class/yago/Abstraction100002137
p1373
aVhttp://dbpedia.org/class/yago/Company108058098
p1374
aVhttp://dbpedia.org/class/yago/Group100031264
p1375
aVhttp://dbpedia.org/class/yago/Institution108053576
p1376
aVhttp://dbpedia.org/class/yago/Organization108008335
p1377
aVhttp://dbpedia.org/class/yago/SocialGroup107950920
p1378
aVhttp://dbpedia.org/class/yago/Utility108185758
p1379
aVhttp://dbpedia.org/class/yago/YagoLegalActorGeo
p1380
aVhttp://dbpedia.org/class/yago/PowerCompany108186393
p1381
aVhttp://dbpedia.org/class/yago/YagoPermanentlyLocatedEntity
p1382
aVhttp://dbpedia.org/class/yago/YagoLegalActor
p1383
aVhttp://dbpedia.org/class/yago/PowerCompaniesOfIndonesia
p1384
aVhttp://dbpedia.org/class/yago/Service108186047
p1385
aVhttp://dbpedia.org/resource/Perusahaan_Listrik_Negara
tp1386
aa(lp1387
((lp1388
Vhttp://www.w3.org/2002/07/owl#Thing
p1389
aVhttp://dbpedia.org/ontology/Place
p1390
aVhttp://dbpedia.org/ontology/Location
p1391
aVhttp://www.wikidata.org/entity/Q486972
p1392
aVhttp://www.wikidata.org/entity/Q6256
p1393
aVhttp://dbpedia.org/ontology/Country
p1394
aVhttp://dbpedia.org/ontology/PopulatedPlace
p1395
aVhttp://www.w3.org/2003/01/geo/wgs84_pos#SpatialThing
p1396
aVhttp://schema.org/Country
p1397
aVhttp://schema.org/Place
p1398
aVhttp://umbel.org/umbel/rc/Country
p1399
aVhttp://umbel.org/umbel/rc/Location_Underspecified
p1400
aVhttp://umbel.org/umbel/rc/PopulatedPlace
p1401
aVhttp://dbpedia.org/class/yago/Abstraction100002137
p1402
aVhttp://dbpedia.org/class/yago/AdministrativeDistrict108491826
p1403
aVhttp://dbpedia.org/class/yago/AlpineCountries
p1404
aVhttp://dbpedia.org/class/yago/Country108544813
p1405
aVhttp://dbpedia.org/class/yago/District108552138
p1406
aVhttp://dbpedia.org/class/yago/Domain108556491
p1407
aVhttp://dbpedia.org/class/yago/Economy108366753
p1408
aVhttp://dbpedia.org/class/yago/Group100031264
p1409
aVhttp://dbpedia.org/class/yago/Location100027167
p1410
aVhttp://dbpedia.org/class/yago/Object100002684
p1411
aVhttp://dbpedia.org/class/yago/Region108630039
p1412
aVhttp://dbpedia.org/class/yago/Region108630985
p1413
aVhttp://dbpedia.org/class/yago/System108435388
p1414
aVhttp://dbpedia.org/class/yago/YagoGeoEntity
p1415
aVhttp://dbpedia.org/class/yago/YagoLegalActorGeo
p1416
aVhttp://dbpedia.org/class/yago/EuropeanCountries
p1417
aVhttp://dbpedia.org/class/yago/PhysicalEntity100001930
p1418
aVhttp://dbpedia.org/class/yago/Principality108558488
p1419
aVhttp://dbpedia.org/class/yago/YagoPermanentlyLocatedEntity
p1420
aVhttp://dbpedia.org/class/yago/German-speakingCountries
p1421
aVhttp://dbpedia.org/class/yago/LandlockedCountries
p1422
aVhttp://dbpedia.org/class/yago/MemberStatesOfTheUnitedNations
p1423
aVhttp://dbpedia.org/class/yago/NUTS1StatisticalRegionsOfTheEuropeanUnion
p1424
aVhttp://dbpedia.org/class/yago/NUTS2StatisticalRegionsOfTheEuropeanUnion
p1425
aVhttp://dbpedia.org/class/yago/NUTS3StatisticalRegionsOfTheEuropeanUnion
p1426
aVhttp://dbpedia.org/class/yago/Principalities
p1427
aVhttp://dbpedia.org/class/yago/StatesAndTerritoriesEstablishedIn1866
p1428
aVhttp://dbpedia.org/class/yago/StatesOfTheConfederationOfTheRhine
p1429
aVhttp://dbpedia.org/class/yago/StatesOfTheGermanConfederation
p1430
aVhttp://dbpedia.org/class/yago/StatesOfTheHolyRomanEmpire
p1431
aVhttp://dbpedia.org/resource/Liechtenstein
tp1432
aa(lp1433
((lp1434
Vhttp://www.w3.org/2002/07/owl#Thing
p1435
aVhttp://xmlns.com/foaf/0.1/Person
p1436
aVhttp://dbpedia.org/ontology/Person
p1437
aVhttp://www.ontologydesignpatterns.org/ont/dul/DUL.owl#Agent
p1438
aVhttp://www.ontologydesignpatterns.org/ont/dul/DUL.owl#NaturalPerson
p1439
aVhttp://www.wikidata.org/entity/Q215627
p1440
aVhttp://www.wikidata.org/entity/Q5
p1441
aVhttp://dbpedia.org/ontology/Agent
p1442
aVhttp://schema.org/Person
p1443
aVhttp://dbpedia.org/class/yago/AlumniOfBalliolCollege,Oxford
p1444
aVhttp://dbpedia.org/class/yago/Alumnus109786338
p1445
aVhttp://dbpedia.org/class/yago/Associate109816771
p1446
aVhttp://dbpedia.org/class/yago/BritishHistorians
p1447
aVhttp://dbpedia.org/class/yago/CausalAgent100007347
p1448
aVhttp://dbpedia.org/class/yago/Colleague109935990
p1449
aVhttp://dbpedia.org/class/yago/Historian110177150
p1450
aVhttp://dbpedia.org/class/yago/Intellectual109621545
p1451
aVhttp://dbpedia.org/class/yago/LivingThing100004258
p1452
aVhttp://dbpedia.org/class/yago/Object100002684
p1453
aVhttp://dbpedia.org/class/yago/Organism100004475
p1454
aVhttp://dbpedia.org/class/yago/Peer109626238
p1455
aVhttp://dbpedia.org/class/yago/Person100007846
p1456
aVhttp://dbpedia.org/class/yago/Scholar110557854
p1457
aVhttp://dbpedia.org/class/yago/Whole100003553
p1458
aVhttp://dbpedia.org/class/yago/YagoLegalActorGeo
p1459
aVhttp://dbpedia.org/class/yago/FellowsOfAllSoulsCollege,Oxford
p1460
aVhttp://dbpedia.org/class/yago/FellowsOfPembrokeCollege,Oxford
p1461
aVhttp://dbpedia.org/class/yago/PhysicalEntity100001930
p1462
aVhttp://dbpedia.org/class/yago/PeopleFromSheffield
p1463
aVhttp://dbpedia.org/class/yago/YagoLegalActor
p1464
aVhttp://dbpedia.org/resource/Charles_Harding_Firth
p1465
tp1466
aaa.