(lp1
(dp2
I0
(dp3
I0
(lp4
sI1
(lp5
sI2
(lp6
sI3
(lp7
sI4
(lp8
sI5
(lp9
ssI1
(dp10
I1
(lp11
sI2
(lp12
sI3
(lp13
sI4
(lp14
sI5
(lp15
ssI2
(dp16
I2
(lp17
sI3
(lp18
sI4
(lp19
sI5
(lp20
ssI3
(dp21
I3
(lp22
sI4
(lp23
sI5
(lp24
ssI4
(dp25
I4
(lp26
sI5
(lp27
ssI5
(dp28
I5
(lp29
ssa(dp30
I0
(dp31
I0
(lp32
sI1
(lp33
Vhttp://dbpedia.org/property/placeOfDeath
p34
aVhttp://dbpedia.org/property/currency
p35
aVhttp://dbpedia.org/property/rd2t6Loc
p36
aVhttp://dbpedia.org/property/hostCity
p37
aVhttp://dbpedia.org/property/2rpt2Loc
p38
aVhttp://dbpedia.org/ontology/currency
p39
aVhttp://dbpedia.org/property/membership
p40
aVhttp://dbpedia.org/property/place
p41
aVhttp://dbpedia.org/ontology/wineRegion
p42
aVhttp://dbpedia.org/property/footnoteA
p43
aVhttp://dbpedia.org/ontology/locatedInArea
p44
aVhttp://dbpedia.org/property/footnoteC
p45
aVhttp://dbpedia.org/ontology/regionServed
p46
aVhttp://dbpedia.org/ontology/country
p47
aVhttp://dbpedia.org/property/returns
p48
aVhttp://www.w3.org/1999/02/22-rdf-syntax-ns#type
p49
aVhttp://dbpedia.org/property/rd3t3Loc
p50
aVhttp://dbpedia.org/property/locationCountry
p51
aVhttp://dbpedia.org/property/withdraws
p52
aVhttp://dbpedia.org/property/timeZone
p53
aVhttp://dbpedia.org/property/birthPlace
p54
aVhttp://dbpedia.org/ontology/place
p55
aVhttp://dbpedia.org/property/text
p56
aVhttp://dbpedia.org/property/country
p57
aVhttp://dbpedia.org/ontology/headquarter
p58
aVhttp://dbpedia.org/property/rd1t4Loc
p59
aVhttp://dbpedia.org/property/areaServed
p60
aVhttp://dbpedia.org/property/areasAffected
p61
aVhttp://dbpedia.org/ontology/wikiPageExternalLink
p62
aVhttp://purl.org/dc/terms/subject
p63
aVhttp://dbpedia.org/property/rd2t2Loc
p64
aVhttp://dbpedia.org/ontology/abstract
p65
aVhttp://dbpedia.org/property/venue
p66
aVhttp://dbpedia.org/property/deathPlace
p67
aVhttp://dbpedia.org/property/location
p68
aVhttp://dbpedia.org/ontology/locationCountry
p69
aVhttp://dbpedia.org/ontology/deathPlace
p70
aVhttp://dbpedia.org/property/rd2t4Loc
p71
aVhttp://dbpedia.org/ontology/city
p72
aVhttp://dbpedia.org/property/nationalOrigin
p73
aVhttp://dbpedia.org/property/headquarters
p74
aVhttp://dbpedia.org/property/locale
p75
aVhttp://dbpedia.org/property/currencyCode
p76
aVhttp://dbpedia.org/ontology/territory
p77
aVhttp://dbpedia.org/property/rd2t1Loc
p78
aVhttp://www.w3.org/2000/01/rdf-schema#comment
p79
aVhttp://dbpedia.org/ontology/timeZone
p80
aVhttp://dbpedia.org/ontology/birthPlace
p81
aVhttp://dbpedia.org/property/finish
p82
aVhttp://dbpedia.org/property/rd1t1Loc
p83
aVhttp://www.w3.org/2004/02/skos/core#exactMatch
p84
aVhttp://www.w3.org/2002/07/owl#sameAs
p85
aVhttp://dbpedia.org/property/countries
p86
aVhttp://dbpedia.org/property/host
p87
aVhttp://dbpedia.org/ontology/location
p88
aVhttp://dbpedia.org/property/stadium
p89
aVhttp://dbpedia.org/property/timeZoneDst
p90
asI2
(lp91
sI3
(lp92
Vhttp://dbpedia.org/property/placeOfDeath
p93
aVhttp://dbpedia.org/property/currency
p94
aVhttp://dbpedia.org/property/rd2t6Loc
p95
aVhttp://dbpedia.org/property/hostCity
p96
aVhttp://dbpedia.org/property/2rpt2Loc
p97
aVhttp://dbpedia.org/ontology/currency
p98
aVhttp://dbpedia.org/property/membership
p99
aVhttp://dbpedia.org/property/place
p100
aVhttp://dbpedia.org/ontology/wineRegion
p101
aVhttp://dbpedia.org/property/footnoteA
p102
aVhttp://dbpedia.org/ontology/locatedInArea
p103
aVhttp://dbpedia.org/property/footnoteC
p104
aVhttp://dbpedia.org/ontology/regionServed
p105
aVhttp://dbpedia.org/ontology/country
p106
aVhttp://dbpedia.org/property/returns
p107
aVhttp://www.w3.org/1999/02/22-rdf-syntax-ns#type
p108
aVhttp://dbpedia.org/property/rd3t3Loc
p109
aVhttp://dbpedia.org/property/locationCountry
p110
aVhttp://dbpedia.org/property/withdraws
p111
aVhttp://dbpedia.org/property/timeZone
p112
aVhttp://dbpedia.org/property/birthPlace
p113
aVhttp://dbpedia.org/ontology/place
p114
aVhttp://dbpedia.org/property/text
p115
aVhttp://dbpedia.org/property/country
p116
aVhttp://dbpedia.org/ontology/headquarter
p117
aVhttp://dbpedia.org/property/rd1t4Loc
p118
aVhttp://dbpedia.org/property/areaServed
p119
aVhttp://dbpedia.org/property/areasAffected
p120
aVhttp://dbpedia.org/ontology/wikiPageExternalLink
p121
aVhttp://purl.org/dc/terms/subject
p122
aVhttp://dbpedia.org/property/rd2t2Loc
p123
aVhttp://dbpedia.org/ontology/abstract
p124
aVhttp://dbpedia.org/property/venue
p125
aVhttp://dbpedia.org/property/deathPlace
p126
aVhttp://dbpedia.org/property/location
p127
aVhttp://dbpedia.org/ontology/locationCountry
p128
aVhttp://dbpedia.org/ontology/deathPlace
p129
aVhttp://dbpedia.org/property/rd2t4Loc
p130
aVhttp://dbpedia.org/ontology/city
p131
aVhttp://dbpedia.org/property/nationalOrigin
p132
aVhttp://dbpedia.org/property/headquarters
p133
aVhttp://dbpedia.org/property/locale
p134
aVhttp://dbpedia.org/property/currencyCode
p135
aVhttp://dbpedia.org/ontology/territory
p136
aVhttp://dbpedia.org/property/rd2t1Loc
p137
aVhttp://www.w3.org/2000/01/rdf-schema#comment
p138
aVhttp://dbpedia.org/ontology/timeZone
p139
aVhttp://dbpedia.org/ontology/birthPlace
p140
aVhttp://dbpedia.org/property/finish
p141
aVhttp://dbpedia.org/property/rd1t1Loc
p142
aVhttp://www.w3.org/2004/02/skos/core#exactMatch
p143
aVhttp://www.w3.org/2002/07/owl#sameAs
p144
aVhttp://dbpedia.org/property/countries
p145
aVhttp://dbpedia.org/property/host
p146
aVhttp://dbpedia.org/ontology/location
p147
aVhttp://dbpedia.org/property/stadium
p148
aVhttp://dbpedia.org/property/timeZoneDst
p149
asI4
(lp150
Vhttp://dbpedia.org/property/placeOfDeath
p151
aVhttp://dbpedia.org/ontology/deathPlace
p152
aVhttp://dbpedia.org/property/deathPlace
p153
asI5
(lp154
Vhttp://dbpedia.org/property/placeOfDeath
p155
aVhttp://dbpedia.org/property/currency
p156
aVhttp://dbpedia.org/property/rd2t6Loc
p157
aVhttp://dbpedia.org/property/hostCity
p158
aVhttp://dbpedia.org/property/2rpt2Loc
p159
aVhttp://dbpedia.org/ontology/currency
p160
aVhttp://dbpedia.org/property/membership
p161
aVhttp://dbpedia.org/property/place
p162
aVhttp://dbpedia.org/ontology/wineRegion
p163
aVhttp://dbpedia.org/property/footnoteA
p164
aVhttp://dbpedia.org/ontology/locatedInArea
p165
aVhttp://dbpedia.org/property/footnoteC
p166
aVhttp://dbpedia.org/ontology/regionServed
p167
aVhttp://dbpedia.org/ontology/country
p168
aVhttp://dbpedia.org/property/returns
p169
aVhttp://www.w3.org/1999/02/22-rdf-syntax-ns#type
p170
aVhttp://dbpedia.org/property/rd3t3Loc
p171
aVhttp://dbpedia.org/property/locationCountry
p172
aVhttp://dbpedia.org/property/withdraws
p173
aVhttp://dbpedia.org/property/timeZone
p174
aVhttp://dbpedia.org/property/birthPlace
p175
aVhttp://dbpedia.org/ontology/place
p176
aVhttp://dbpedia.org/property/text
p177
aVhttp://dbpedia.org/property/country
p178
aVhttp://dbpedia.org/ontology/headquarter
p179
aVhttp://dbpedia.org/property/rd1t4Loc
p180
aVhttp://dbpedia.org/property/areaServed
p181
aVhttp://dbpedia.org/property/areasAffected
p182
aVhttp://dbpedia.org/ontology/wikiPageExternalLink
p183
aVhttp://purl.org/dc/terms/subject
p184
aVhttp://dbpedia.org/property/rd2t2Loc
p185
aVhttp://dbpedia.org/ontology/abstract
p186
aVhttp://dbpedia.org/property/venue
p187
aVhttp://dbpedia.org/property/deathPlace
p188
aVhttp://dbpedia.org/property/location
p189
aVhttp://dbpedia.org/ontology/locationCountry
p190
aVhttp://dbpedia.org/ontology/deathPlace
p191
aVhttp://dbpedia.org/property/rd2t4Loc
p192
aVhttp://dbpedia.org/ontology/city
p193
aVhttp://dbpedia.org/property/nationalOrigin
p194
aVhttp://dbpedia.org/property/headquarters
p195
aVhttp://dbpedia.org/property/locale
p196
aVhttp://dbpedia.org/property/currencyCode
p197
aVhttp://dbpedia.org/ontology/territory
p198
aVhttp://dbpedia.org/property/rd2t1Loc
p199
aVhttp://www.w3.org/2000/01/rdf-schema#comment
p200
aVhttp://dbpedia.org/ontology/timeZone
p201
aVhttp://dbpedia.org/ontology/birthPlace
p202
aVhttp://dbpedia.org/property/finish
p203
aVhttp://dbpedia.org/property/rd1t1Loc
p204
aVhttp://www.w3.org/2004/02/skos/core#exactMatch
p205
aVhttp://www.w3.org/2002/07/owl#sameAs
p206
aVhttp://dbpedia.org/property/countries
p207
aVhttp://dbpedia.org/property/host
p208
aVhttp://dbpedia.org/ontology/location
p209
aVhttp://dbpedia.org/property/stadium
p210
aVhttp://dbpedia.org/property/timeZoneDst
p211
assI1
(dp212
I0
g33
sI1
(lp213
sI2
(lp214
sI3
(lp215
sI4
(lp216
sI5
(lp217
ssI2
(dp218
I0
g91
sI1
g214
sI2
(lp219
sI3
(lp220
Vhttp://dbpedia.org/property/currency
p221
aVhttp://dbpedia.org/property/broadcastArea
p222
aVhttp://dbpedia.org/ontology/currency
p223
aVhttp://dbpedia.org/property/place
p224
aVhttp://dbpedia.org/property/rd2t3Loc
p225
aVhttp://dbpedia.org/ontology/regionServed
p226
aVhttp://dbpedia.org/ontology/country
p227
aVhttp://dbpedia.org/property/rd0t2Loc
p228
aVhttp://www.w3.org/1999/02/22-rdf-syntax-ns#type
p229
aVhttp://dbpedia.org/property/hostCity
p230
aVhttp://dbpedia.org/property/rd1t2Loc
p231
aVhttp://dbpedia.org/property/withdraws
p232
aVhttp://dbpedia.org/property/timeZone
p233
aVhttp://dbpedia.org/property/text
p234
aVhttp://dbpedia.org/property/country
p235
aVhttp://dbpedia.org/ontology/headquarter
p236
aVhttp://dbpedia.org/ontology/wikiPageExternalLink
p237
aVhttp://dbpedia.org/property/rd0t1Loc
p238
aVhttp://purl.org/dc/terms/subject
p239
aVhttp://dbpedia.org/property/rd2t2Loc
p240
aVhttp://dbpedia.org/ontology/abstract
p241
aVhttp://dbpedia.org/property/footnoteB
p242
aVhttp://dbpedia.org/property/venue
p243
aVhttp://dbpedia.org/property/location
p244
aVhttp://dbpedia.org/property/rd3t2Loc
p245
aVhttp://dbpedia.org/property/timeZoneDst
p246
aVhttp://dbpedia.org/property/rd2t4Loc
p247
aVhttp://dbpedia.org/property/host
p248
aVhttp://dbpedia.org/property/shipRegistry
p249
aVhttp://dbpedia.org/property/basinCountries
p250
aVhttp://dbpedia.org/property/currencyCode
p251
aVhttp://dbpedia.org/property/headquarters
p252
aVhttp://www.w3.org/2000/01/rdf-schema#comment
p253
aVhttp://dbpedia.org/ontology/timeZone
p254
aVhttp://dbpedia.org/ontology/birthPlace
p255
aVhttp://dbpedia.org/property/countries
p256
aVhttp://dbpedia.org/property/rd0t4Loc
p257
aVhttp://dbpedia.org/property/rd1t3Loc
p258
aVhttp://www.w3.org/2004/02/skos/core#exactMatch
p259
aVhttp://www.w3.org/2002/07/owl#sameAs
p260
aVhttp://dbpedia.org/property/regionServed
p261
aVhttp://dbpedia.org/property/rd1t8Loc
p262
aVhttp://dbpedia.org/property/stadium
p263
aVhttp://dbpedia.org/ontology/location
p264
asI4
(lp265
sI5
(lp266
Vhttp://dbpedia.org/property/currency
p267
aVhttp://dbpedia.org/property/broadcastArea
p268
aVhttp://dbpedia.org/ontology/currency
p269
aVhttp://dbpedia.org/property/place
p270
aVhttp://dbpedia.org/property/rd2t3Loc
p271
aVhttp://dbpedia.org/ontology/regionServed
p272
aVhttp://dbpedia.org/ontology/country
p273
aVhttp://dbpedia.org/property/rd0t2Loc
p274
aVhttp://www.w3.org/1999/02/22-rdf-syntax-ns#type
p275
aVhttp://dbpedia.org/property/hostCity
p276
aVhttp://dbpedia.org/property/rd1t2Loc
p277
aVhttp://dbpedia.org/property/withdraws
p278
aVhttp://dbpedia.org/property/timeZone
p279
aVhttp://dbpedia.org/property/text
p280
aVhttp://dbpedia.org/property/country
p281
aVhttp://dbpedia.org/ontology/headquarter
p282
aVhttp://dbpedia.org/ontology/wikiPageExternalLink
p283
aVhttp://dbpedia.org/property/rd0t1Loc
p284
aVhttp://purl.org/dc/terms/subject
p285
aVhttp://dbpedia.org/property/rd2t2Loc
p286
aVhttp://dbpedia.org/ontology/abstract
p287
aVhttp://dbpedia.org/property/footnoteB
p288
aVhttp://dbpedia.org/property/venue
p289
aVhttp://dbpedia.org/property/location
p290
aVhttp://dbpedia.org/property/rd3t2Loc
p291
aVhttp://dbpedia.org/property/timeZoneDst
p292
aVhttp://dbpedia.org/property/rd2t4Loc
p293
aVhttp://dbpedia.org/property/host
p294
aVhttp://dbpedia.org/property/shipRegistry
p295
aVhttp://dbpedia.org/property/basinCountries
p296
aVhttp://dbpedia.org/property/currencyCode
p297
aVhttp://dbpedia.org/property/headquarters
p298
aVhttp://www.w3.org/2000/01/rdf-schema#comment
p299
aVhttp://dbpedia.org/ontology/timeZone
p300
aVhttp://dbpedia.org/ontology/birthPlace
p301
aVhttp://dbpedia.org/property/countries
p302
aVhttp://dbpedia.org/property/rd0t4Loc
p303
aVhttp://dbpedia.org/property/rd1t3Loc
p304
aVhttp://www.w3.org/2004/02/skos/core#exactMatch
p305
aVhttp://www.w3.org/2002/07/owl#sameAs
p306
aVhttp://dbpedia.org/property/regionServed
p307
aVhttp://dbpedia.org/property/rd1t8Loc
p308
aVhttp://dbpedia.org/property/stadium
p309
aVhttp://dbpedia.org/ontology/location
p310
assI3
(dp311
I0
g92
sI2
g220
sI3
(lp312
sI4
(lp313
sI5
(lp314
ssI4
(dp315
I0
g150
sI1
g216
sI2
g265
sI3
g313
sI4
(lp316
sI5
(lp317
Vhttp://www.w3.org/2000/01/rdf-schema#seeAlso
p318
aVhttp://dbpedia.org/property/currency
p319
aVhttp://dbpedia.org/property/hostCity
p320
aVhttp://dbpedia.org/ontology/currency
p321
aVhttp://dbpedia.org/property/membership
p322
aVhttp://dbpedia.org/property/city
p323
aVhttp://dbpedia.org/property/ethnicity
p324
aVhttp://dbpedia.org/ontology/city
p325
aVhttp://dbpedia.org/property/rd2t3Loc
p326
aVhttp://dbpedia.org/property/rd1t7Loc
p327
aVhttp://dbpedia.org/property/rd1t4Loc
p328
aVhttp://www.w3.org/1999/02/22-rdf-syntax-ns#type
p329
aVhttp://dbpedia.org/property/2rpt1Loc
p330
aVhttp://dbpedia.org/property/withdraws
p331
aVhttp://dbpedia.org/property/timeZone
p332
aVhttp://dbpedia.org/property/birthPlace
p333
aVhttp://dbpedia.org/property/placeOfBirth
p334
aVhttp://dbpedia.org/property/text
p335
aVhttp://dbpedia.org/property/country
p336
aVhttp://dbpedia.org/ontology/regionServed
p337
aVhttp://dbpedia.org/property/areaServed
p338
aVhttp://dbpedia.org/ontology/wikiPageExternalLink
p339
aVhttp://dbpedia.org/property/timeZoneDst
p340
aVhttp://purl.org/dc/terms/subject
p341
aVhttp://dbpedia.org/property/rd2t2Loc
p342
aVhttp://dbpedia.org/ontology/abstract
p343
aVhttp://dbpedia.org/property/rd1t8Loc
p344
aVhttp://dbpedia.org/property/venue
p345
aVhttp://dbpedia.org/property/location
p346
aVhttp://dbpedia.org/property/states
p347
aVhttp://dbpedia.org/property/rd3t2Loc
p348
aVhttp://dbpedia.org/ontology/deathPlace
p349
aVhttp://dbpedia.org/property/rd2t4Loc
p350
aVhttp://dbpedia.org/property/rd1t6Loc
p351
aVhttp://dbpedia.org/ontology/location
p352
aVhttp://dbpedia.org/property/currencyCode
p353
aVhttp://dbpedia.org/property/headquarters
p354
aVhttp://dbpedia.org/property/hostcity
p355
aVhttp://dbpedia.org/ontology/timeZone
p356
aVhttp://dbpedia.org/ontology/birthPlace
p357
aVhttp://www.w3.org/2000/01/rdf-schema#comment
p358
aVhttp://dbpedia.org/property/rd1t1Loc
p359
aVhttp://dbpedia.org/property/rd3t1Loc
p360
aVhttp://www.w3.org/2004/02/skos/core#exactMatch
p361
aVhttp://www.w3.org/2002/07/owl#sameAs
p362
aVhttp://dbpedia.org/property/countries
p363
aVhttp://dbpedia.org/ontology/spokenIn
p364
aVhttp://dbpedia.org/property/host
p365
aVhttp://dbpedia.org/property/stadium
p366
aVhttp://dbpedia.org/ontology/headquarter
p367
assI5
(dp368
I0
g154
sI2
g266
sI4
g317
sI5
(lp369
ssa(dp370
I0
(dp371
I0
(lp372
sI1
(lp373
Vhttp://www.w3.org/2000/01/rdf-schema#seeAlso
p374
aVhttp://dbpedia.org/property/currency
p375
aVhttp://dbpedia.org/property/rd2t6Loc
p376
aVhttp://dbpedia.org/property/hostCity
p377
aVhttp://dbpedia.org/ontology/currency
p378
aVhttp://dbpedia.org/property/membership
p379
aVhttp://dbpedia.org/property/place
p380
aVhttp://dbpedia.org/property/debuts
p381
aVhttp://dbpedia.org/property/city
p382
aVhttp://dbpedia.org/ontology/garrison
p383
aVhttp://dbpedia.org/property/adminCenter
p384
aVhttp://dbpedia.org/property/rd2t3Loc
p385
aVhttp://dbpedia.org/property/footnoteD
p386
aVhttp://dbpedia.org/ontology/routeEnd
p387
aVhttp://dbpedia.org/ontology/regionServed
p388
aVhttp://dbpedia.org/ontology/country
p389
aVhttp://dbpedia.org/property/region
p390
aVhttp://www.w3.org/1999/02/22-rdf-syntax-ns#type
p391
aVhttp://dbpedia.org/property/timeZone
p392
aVhttp://dbpedia.org/property/address
p393
aVhttp://dbpedia.org/property/locationCountry
p394
aVhttp://dbpedia.org/ontology/nationality
p395
aVhttp://dbpedia.org/property/birthPlace
p396
aVhttp://dbpedia.org/ontology/place
p397
aVhttp://dbpedia.org/property/placeOfBirth
p398
aVhttp://dbpedia.org/property/office
p399
aVhttp://dbpedia.org/property/locationSigned
p400
aVhttp://dbpedia.org/property/country
p401
aVhttp://dbpedia.org/ontology/headquarter
p402
aVhttp://dbpedia.org/property/areaServed
p403
aVhttp://dbpedia.org/ontology/wikiPageExternalLink
p404
aVhttp://purl.org/dc/terms/subject
p405
aVhttp://dbpedia.org/property/origin
p406
aVhttp://dbpedia.org/property/nationality
p407
aVhttp://dbpedia.org/ontology/abstract
p408
aVhttp://dbpedia.org/property/rd1t8Loc
p409
aVhttp://dbpedia.org/property/venue
p410
aVhttp://dbpedia.org/property/deathPlace
p411
aVhttp://dbpedia.org/property/location
p412
aVhttp://dbpedia.org/property/currencyCode
p413
aVhttp://dbpedia.org/ontology/locationCountry
p414
aVhttp://dbpedia.org/ontology/deathPlace
p415
aVhttp://dbpedia.org/property/rd2t4Loc
p416
aVhttp://dbpedia.org/ontology/city
p417
aVhttp://dbpedia.org/property/headquarter
p418
aVhttp://dbpedia.org/property/headquarters
p419
aVhttp://dbpedia.org/property/basinCountries
p420
aVhttp://dbpedia.org/property/text
p421
aVhttp://dbpedia.org/ontology/stateOfOrigin
p422
aVhttp://dbpedia.org/property/rd2t1Loc
p423
aVhttp://dbpedia.org/property/countries
p424
aVhttp://dbpedia.org/ontology/timeZone
p425
aVhttp://dbpedia.org/ontology/birthPlace
p426
aVhttp://www.w3.org/2000/01/rdf-schema#comment
p427
aVhttp://dbpedia.org/ontology/wikiPageRedirects
p428
aVhttp://dbpedia.org/property/seat
p429
aVhttp://dbpedia.org/property/rd2t5Loc
p430
aVhttp://www.w3.org/2004/02/skos/core#exactMatch
p431
aVhttp://www.w3.org/2002/07/owl#sameAs
p432
aVhttp://dbpedia.org/ontology/hometown
p433
aVhttp://dbpedia.org/property/regionServed
p434
aVhttp://dbpedia.org/property/host
p435
aVhttp://dbpedia.org/property/garrison
p436
aVhttp://dbpedia.org/ontology/location
p437
aVhttp://dbpedia.org/property/stadium
p438
aVhttp://dbpedia.org/property/timeZoneDst
p439
asI2
(lp440
sI3
(lp441
Vhttp://dbpedia.org/ontology/birthPlace
p442
asI4
(lp443
Vhttp://dbpedia.org/property/location
p444
aVhttp://dbpedia.org/property/stadium
p445
asI5
(lp446
Vhttp://dbpedia.org/property/origin
p447
aVhttp://dbpedia.org/property/placeOfDeath
p448
aVhttp://dbpedia.org/property/residence
p449
aVhttp://dbpedia.org/ontology/country
p450
aVhttp://dbpedia.org/property/region
p451
aVhttp://dbpedia.org/property/allegiance
p452
aVhttp://dbpedia.org/ontology/nationality
p453
aVhttp://dbpedia.org/property/birthPlace
p454
aVhttp://dbpedia.org/ontology/place
p455
aVhttp://dbpedia.org/property/placeOfBirth
p456
aVhttp://dbpedia.org/property/office
p457
aVhttp://dbpedia.org/ontology/residence
p458
aVhttp://dbpedia.org/property/country
p459
aVhttp://dbpedia.org/property/nationality
p460
aVhttp://dbpedia.org/ontology/abstract
p461
aVhttp://dbpedia.org/property/deathPlace
p462
aVhttp://dbpedia.org/property/location
p463
aVhttp://dbpedia.org/ontology/headquarter
p464
aVhttp://dbpedia.org/property/subdivisionName
p465
aVhttp://dbpedia.org/property/nationalOrigin
p466
aVhttp://dbpedia.org/property/headquarters
p467
aVhttp://dbpedia.org/ontology/location
p468
aVhttp://dbpedia.org/ontology/birthPlace
p469
aVhttp://dbpedia.org/ontology/citizenship
p470
aVhttp://dbpedia.org/ontology/hometown
p471
aVhttp://dbpedia.org/property/citizenship
p472
aVhttp://dbpedia.org/ontology/stateOfOrigin
p473
aVhttp://dbpedia.org/ontology/deathPlace
p474
assI1
(dp475
I0
g373
sI1
(lp476
sI2
(lp477
sI3
(lp478
sI4
(lp479
sI5
(lp480
Vhttp://dbpedia.org/ontology/abstract
p481
assI2
(dp482
I0
g440
sI1
g477
sI2
(lp483
sI3
(lp484
Vhttp://dbpedia.org/property/currencyCode
p485
asI4
(lp486
Vhttp://dbpedia.org/ontology/twinCountry
p487
aVhttp://www.w3.org/2000/01/rdf-schema#comment
p488
aVhttp://dbpedia.org/ontology/abstract
p489
aVhttp://dbpedia.org/property/place
p490
aVhttp://dbpedia.org/property/location
p491
aVhttp://dbpedia.org/ontology/place
p492
aVhttp://dbpedia.org/ontology/spokenIn
p493
asI5
(lp494
Vhttp://www.w3.org/2000/01/rdf-schema#seeAlso
p495
aVhttp://dbpedia.org/property/placeOfDeath
p496
aVhttp://dbpedia.org/property/place
p497
aVhttp://dbpedia.org/property/today
p498
aVhttp://dbpedia.org/ontology/country
p499
aVhttp://dbpedia.org/ontology/nationality
p500
aVhttp://dbpedia.org/property/birthPlace
p501
aVhttp://dbpedia.org/ontology/place
p502
aVhttp://dbpedia.org/property/placeOfBirth
p503
aVhttp://dbpedia.org/property/country
p504
aVhttp://dbpedia.org/ontology/residence
p505
aVhttp://dbpedia.org/ontology/abstract
p506
aVhttp://dbpedia.org/property/deathPlace
p507
aVhttp://dbpedia.org/property/location
p508
aVhttp://dbpedia.org/ontology/deathPlace
p509
aVhttp://dbpedia.org/property/namedAfter
p510
aVhttp://dbpedia.org/property/subdivisionName
p511
aVhttp://dbpedia.org/property/nationalOrigin
p512
aVhttp://dbpedia.org/property/moreUsers
p513
aVhttp://dbpedia.org/ontology/location
p514
aVhttp://www.w3.org/2000/01/rdf-schema#comment
p515
aVhttp://dbpedia.org/ontology/birthPlace
p516
assI3
(dp517
I0
g441
sI1
g478
sI2
g484
sI3
(lp518
sI4
(lp519
sI5
(lp520
ssI4
(dp521
I0
g443
sI1
g479
sI2
g486
sI3
g519
sI4
(lp522
sI5
(lp523
Vhttp://dbpedia.org/property/origin
p524
aVhttp://dbpedia.org/property/placeOfDeath
p525
aVhttp://dbpedia.org/property/today
p526
aVhttp://dbpedia.org/ontology/country
p527
aVhttp://dbpedia.org/property/home
p528
aVhttp://dbpedia.org/property/locationCountry
p529
aVhttp://dbpedia.org/ontology/nationality
p530
aVhttp://dbpedia.org/property/birthPlace
p531
aVhttp://dbpedia.org/property/placeOfBirth
p532
aVhttp://dbpedia.org/property/country
p533
aVhttp://dbpedia.org/ontology/abstract
p534
aVhttp://dbpedia.org/property/deathPlace
p535
aVhttp://dbpedia.org/property/location
p536
aVhttp://dbpedia.org/ontology/locationCountry
p537
aVhttp://dbpedia.org/ontology/deathPlace
p538
aVhttp://dbpedia.org/property/currencyCode
p539
aVhttp://dbpedia.org/ontology/location
p540
aVhttp://www.w3.org/2000/01/rdf-schema#comment
p541
aVhttp://dbpedia.org/ontology/birthPlace
p542
aVhttp://dbpedia.org/ontology/citizenship
p543
aVhttp://dbpedia.org/ontology/hometown
p544
aVhttp://dbpedia.org/ontology/stateOfOrigin
p545
assI5
(dp546
I0
g446
sI1
g480
sI2
g494
sI3
g520
sI4
g523
sI5
(lp547
ssa(dp548
I0
(dp549
I0
(lp550
sI1
(lp551
Vhttp://dbpedia.org/property/currencyCode
p552
asI2
(lp553
Vhttp://dbpedia.org/property/stadium
p554
asI3
(lp555
Vhttp://www.w3.org/2000/01/rdf-schema#seeAlso
p556
aVhttp://dbpedia.org/property/rd2t6Loc
p557
aVhttp://dbpedia.org/property/broadcastArea
p558
aVhttp://dbpedia.org/property/text
p559
aVhttp://dbpedia.org/property/membership
p560
aVhttp://dbpedia.org/ontology/locatedInArea
p561
aVhttp://dbpedia.org/property/rd2t3Loc
p562
aVhttp://dbpedia.org/property/rd1t4Loc
p563
aVhttp://dbpedia.org/ontology/country
p564
aVhttp://dbpedia.org/property/rd0t2Loc
p565
aVhttp://www.w3.org/1999/02/22-rdf-syntax-ns#type
p566
aVhttp://dbpedia.org/property/hostCity
p567
aVhttp://dbpedia.org/property/rd1t5Loc
p568
aVhttp://dbpedia.org/property/rd1t2Loc
p569
aVhttp://dbpedia.org/property/withdraws
p570
aVhttp://dbpedia.org/property/timeZone
p571
aVhttp://dbpedia.org/ontology/place
p572
aVhttp://dbpedia.org/property/country
p573
aVhttp://dbpedia.org/ontology/regionServed
p574
aVhttp://dbpedia.org/property/rd0t1Loc
p575
aVhttp://purl.org/dc/terms/subject
p576
aVhttp://dbpedia.org/property/rd2t2Loc
p577
aVhttp://dbpedia.org/ontology/abstract
p578
aVhttp://dbpedia.org/property/venue
p579
aVhttp://dbpedia.org/property/returns
p580
aVhttp://dbpedia.org/property/location
p581
aVhttp://dbpedia.org/ontology/locationCountry
p582
aVhttp://dbpedia.org/property/timeZoneDst
p583
aVhttp://dbpedia.org/property/rd1t6Loc
p584
aVhttp://dbpedia.org/ontology/location
p585
aVhttp://dbpedia.org/property/rd1t3Loc
p586
aVhttp://dbpedia.org/property/headquarters
p587
aVhttp://www.w3.org/2000/01/rdf-schema#comment
p588
aVhttp://dbpedia.org/ontology/timeZone
p589
aVhttp://dbpedia.org/property/countries
p590
aVhttp://dbpedia.org/property/rd1t1Loc
p591
aVhttp://www.w3.org/2004/02/skos/core#exactMatch
p592
aVhttp://www.w3.org/2002/07/owl#sameAs
p593
aVhttp://dbpedia.org/property/regionServed
p594
aVhttp://dbpedia.org/property/host
p595
aVhttp://dbpedia.org/property/stadium
p596
aVhttp://dbpedia.org/ontology/headquarter
p597
asI4
(lp598
Vhttp://dbpedia.org/property/location
p599
asI5
(lp600
ssI1
(dp601
I0
g551
sI1
(lp602
sI2
(lp603
sI3
(lp604
sI4
(lp605
sI5
(lp606
ssI2
(dp607
I0
g553
sI1
g603
sI2
(lp608
sI3
(lp609
Vhttp://www.w3.org/2000/01/rdf-schema#seeAlso
p610
aVhttp://dbpedia.org/property/membership
p611
aVhttp://dbpedia.org/property/place
p612
aVhttp://dbpedia.org/property/locatorMap
p613
aVhttp://dbpedia.org/property/timezone1Dst
p614
aVhttp://dbpedia.org/property/rd2t3Loc
p615
aVhttp://dbpedia.org/property/rd1t7Loc
p616
aVhttp://dbpedia.org/ontology/regionServed
p617
aVhttp://dbpedia.org/ontology/country
p618
aVhttp://dbpedia.org/property/rd0t2Loc
p619
aVhttp://dbpedia.org/property/locationCountry
p620
aVhttp://dbpedia.org/property/rd1t2Loc
p621
aVhttp://dbpedia.org/property/withdraws
p622
aVhttp://dbpedia.org/property/birthPlace
p623
aVhttp://dbpedia.org/property/placeOfBirth
p624
aVhttp://dbpedia.org/property/country
p625
aVhttp://dbpedia.org/property/areaServed
p626
aVhttp://dbpedia.org/property/rd0t1Loc
p627
aVhttp://purl.org/dc/terms/subject
p628
aVhttp://dbpedia.org/ontology/abstract
p629
aVhttp://xmlns.com/foaf/0.1/depiction
p630
aVhttp://dbpedia.org/property/returns
p631
aVhttp://dbpedia.org/property/location
p632
aVhttp://dbpedia.org/ontology/locationCountry
p633
aVhttp://dbpedia.org/ontology/thumbnail
p634
aVhttp://dbpedia.org/property/rd1t6Loc
p635
aVhttp://dbpedia.org/property/headquarters
p636
aVhttp://dbpedia.org/property/rd2t1Loc
p637
aVhttp://www.w3.org/2000/01/rdf-schema#comment
p638
aVhttp://dbpedia.org/ontology/birthPlace
p639
aVhttp://dbpedia.org/property/countries
p640
aVhttp://dbpedia.org/property/rd0t4Loc
p641
aVhttp://dbpedia.org/property/rd0t3Loc
p642
aVhttp://www.w3.org/2004/02/skos/core#exactMatch
p643
aVhttp://www.w3.org/2002/07/owl#sameAs
p644
aVhttp://dbpedia.org/ontology/headquarter
p645
aVhttp://dbpedia.org/property/stadium
p646
aVhttp://dbpedia.org/ontology/location
p647
asI4
(lp648
Vhttp://dbpedia.org/property/location
p649
asI5
(lp650
ssI3
(dp651
I0
g555
sI1
g604
sI2
g609
sI3
(lp652
sI4
(lp653
sI5
(lp654
ssI4
(dp655
I0
g598
sI1
g605
sI2
g648
sI3
g653
sI4
(lp656
sI5
(lp657
ssI5
(dp658
I0
g600
sI1
g606
sI2
g650
sI3
g654
sI4
g657
sI5
(lp659
ssa(dp660
I0
(dp661
I0
(lp662
sI1
(lp663
Vhttp://www.w3.org/2000/01/rdf-schema#seeAlso
p664
aVhttp://dbpedia.org/property/currency
p665
aVhttp://dbpedia.org/property/broadcastArea
p666
aVhttp://dbpedia.org/ontology/currency
p667
aVhttp://dbpedia.org/property/membership
p668
aVhttp://dbpedia.org/property/place
p669
aVhttp://dbpedia.org/property/rd1t7Loc
p670
aVhttp://dbpedia.org/property/rd1t4Loc
p671
aVhttp://dbpedia.org/ontology/country
p672
aVhttp://www.w3.org/1999/02/22-rdf-syntax-ns#type
p673
aVhttp://dbpedia.org/property/hostCity
p674
aVhttp://dbpedia.org/property/rd1t2Loc
p675
aVhttp://dbpedia.org/property/timeZone
p676
aVhttp://dbpedia.org/property/birthPlace
p677
aVhttp://dbpedia.org/ontology/place
p678
aVhttp://dbpedia.org/property/placeOfBirth
p679
aVhttp://dbpedia.org/property/text
p680
aVhttp://dbpedia.org/property/country
p681
aVhttp://dbpedia.org/ontology/regionServed
p682
aVhttp://dbpedia.org/ontology/wikiPageExternalLink
p683
aVhttp://dbpedia.org/property/mapCaption
p684
aVhttp://purl.org/dc/terms/subject
p685
aVhttp://dbpedia.org/ontology/abstract
p686
aVhttp://dbpedia.org/property/rd1t8Loc
p687
aVhttp://dbpedia.org/property/venue
p688
aVhttp://dbpedia.org/property/location
p689
aVhttp://dbpedia.org/property/timeZoneDst
p690
aVhttp://dbpedia.org/property/rd2t4Loc
p691
aVhttp://dbpedia.org/property/rd1t6Loc
p692
aVhttp://dbpedia.org/ontology/location
p693
aVhttp://dbpedia.org/ontology/genre
p694
aVhttp://dbpedia.org/property/currencyCode
p695
aVhttp://dbpedia.org/property/headquarters
p696
aVhttp://www.w3.org/2000/01/rdf-schema#comment
p697
aVhttp://dbpedia.org/ontology/timeZone
p698
aVhttp://dbpedia.org/ontology/birthPlace
p699
aVhttp://dbpedia.org/property/rd0t4Loc
p700
aVhttp://dbpedia.org/property/rd0t3Loc
p701
aVhttp://dbpedia.org/ontology/hometown
p702
aVhttp://www.w3.org/2004/02/skos/core#exactMatch
p703
aVhttp://www.w3.org/2002/07/owl#sameAs
p704
aVhttp://dbpedia.org/property/stadium
p705
asI2
(lp706
sI3
(lp707
Vhttp://www.w3.org/2000/01/rdf-schema#seeAlso
p708
aVhttp://dbpedia.org/property/currency
p709
aVhttp://dbpedia.org/property/broadcastArea
p710
aVhttp://dbpedia.org/ontology/currency
p711
aVhttp://dbpedia.org/property/membership
p712
aVhttp://dbpedia.org/property/place
p713
aVhttp://dbpedia.org/property/rd1t7Loc
p714
aVhttp://dbpedia.org/property/rd1t4Loc
p715
aVhttp://dbpedia.org/ontology/country
p716
aVhttp://www.w3.org/1999/02/22-rdf-syntax-ns#type
p717
aVhttp://dbpedia.org/property/hostCity
p718
aVhttp://dbpedia.org/property/rd1t2Loc
p719
aVhttp://dbpedia.org/property/timeZone
p720
aVhttp://dbpedia.org/property/birthPlace
p721
aVhttp://dbpedia.org/ontology/place
p722
aVhttp://dbpedia.org/property/placeOfBirth
p723
aVhttp://dbpedia.org/property/text
p724
aVhttp://dbpedia.org/property/country
p725
aVhttp://dbpedia.org/ontology/regionServed
p726
aVhttp://dbpedia.org/ontology/wikiPageExternalLink
p727
aVhttp://dbpedia.org/property/mapCaption
p728
aVhttp://purl.org/dc/terms/subject
p729
aVhttp://dbpedia.org/ontology/abstract
p730
aVhttp://dbpedia.org/property/rd1t8Loc
p731
aVhttp://dbpedia.org/property/venue
p732
aVhttp://dbpedia.org/property/location
p733
aVhttp://dbpedia.org/property/timeZoneDst
p734
aVhttp://dbpedia.org/property/rd2t4Loc
p735
aVhttp://dbpedia.org/property/rd1t6Loc
p736
aVhttp://dbpedia.org/ontology/location
p737
aVhttp://dbpedia.org/ontology/genre
p738
aVhttp://dbpedia.org/property/currencyCode
p739
aVhttp://dbpedia.org/property/headquarters
p740
aVhttp://www.w3.org/2000/01/rdf-schema#comment
p741
aVhttp://dbpedia.org/ontology/timeZone
p742
aVhttp://dbpedia.org/ontology/birthPlace
p743
aVhttp://dbpedia.org/property/rd0t4Loc
p744
aVhttp://dbpedia.org/property/rd0t3Loc
p745
aVhttp://dbpedia.org/ontology/hometown
p746
aVhttp://www.w3.org/2004/02/skos/core#exactMatch
p747
aVhttp://www.w3.org/2002/07/owl#sameAs
p748
aVhttp://dbpedia.org/property/stadium
p749
asI4
(lp750
sI5
(lp751
Vhttp://www.w3.org/2000/01/rdf-schema#seeAlso
p752
aVhttp://dbpedia.org/property/currency
p753
aVhttp://dbpedia.org/property/broadcastArea
p754
aVhttp://dbpedia.org/ontology/currency
p755
aVhttp://dbpedia.org/property/membership
p756
aVhttp://dbpedia.org/property/place
p757
aVhttp://dbpedia.org/property/rd1t7Loc
p758
aVhttp://dbpedia.org/property/rd1t4Loc
p759
aVhttp://dbpedia.org/ontology/country
p760
aVhttp://www.w3.org/1999/02/22-rdf-syntax-ns#type
p761
aVhttp://dbpedia.org/property/hostCity
p762
aVhttp://dbpedia.org/property/rd1t2Loc
p763
aVhttp://dbpedia.org/property/timeZone
p764
aVhttp://dbpedia.org/property/birthPlace
p765
aVhttp://dbpedia.org/ontology/place
p766
aVhttp://dbpedia.org/property/placeOfBirth
p767
aVhttp://dbpedia.org/property/text
p768
aVhttp://dbpedia.org/property/country
p769
aVhttp://dbpedia.org/ontology/regionServed
p770
aVhttp://dbpedia.org/ontology/wikiPageExternalLink
p771
aVhttp://dbpedia.org/property/mapCaption
p772
aVhttp://purl.org/dc/terms/subject
p773
aVhttp://dbpedia.org/ontology/abstract
p774
aVhttp://dbpedia.org/property/rd1t8Loc
p775
aVhttp://dbpedia.org/property/venue
p776
aVhttp://dbpedia.org/property/location
p777
aVhttp://dbpedia.org/property/timeZoneDst
p778
aVhttp://dbpedia.org/property/rd2t4Loc
p779
aVhttp://dbpedia.org/property/rd1t6Loc
p780
aVhttp://dbpedia.org/ontology/location
p781
aVhttp://dbpedia.org/ontology/genre
p782
aVhttp://dbpedia.org/property/currencyCode
p783
aVhttp://dbpedia.org/property/headquarters
p784
aVhttp://www.w3.org/2000/01/rdf-schema#comment
p785
aVhttp://dbpedia.org/ontology/timeZone
p786
aVhttp://dbpedia.org/ontology/birthPlace
p787
aVhttp://dbpedia.org/property/rd0t4Loc
p788
aVhttp://dbpedia.org/property/rd0t3Loc
p789
aVhttp://dbpedia.org/ontology/hometown
p790
aVhttp://www.w3.org/2004/02/skos/core#exactMatch
p791
aVhttp://www.w3.org/2002/07/owl#sameAs
p792
aVhttp://dbpedia.org/property/stadium
p793
assI1
(dp794
I0
g663
sI1
(lp795
sI2
(lp796
sI3
(lp797
sI4
(lp798
sI5
(lp799
ssI2
(dp800
I0
g706
sI1
g796
sI2
(lp801
sI3
(lp802
Vhttp://www.w3.org/2000/01/rdf-schema#seeAlso
p803
aVhttp://dbpedia.org/property/currency
p804
aVhttp://dbpedia.org/property/broadcastArea
p805
aVhttp://dbpedia.org/ontology/origin
p806
aVhttp://dbpedia.org/ontology/currency
p807
aVhttp://dbpedia.org/property/membership
p808
aVhttp://dbpedia.org/property/place
p809
aVhttp://dbpedia.org/ontology/citizenship
p810
aVhttp://dbpedia.org/property/city
p811
aVhttp://dbpedia.org/property/base
p812
aVhttp://dbpedia.org/property/placeOfDeath
p813
aVhttp://dbpedia.org/property/1rpt2Loc
p814
aVhttp://dbpedia.org/ontology/locatedInArea
p815
aVhttp://dbpedia.org/property/footnoteB
p816
aVhttp://dbpedia.org/property/footnoteD
p817
aVhttp://dbpedia.org/ontology/routeEnd
p818
aVhttp://dbpedia.org/property/label
p819
aVhttp://dbpedia.org/ontology/country
p820
aVhttp://www.w3.org/1999/02/22-rdf-syntax-ns#type
p821
aVhttp://dbpedia.org/ontology/beatifiedPlace
p822
aVhttp://dbpedia.org/property/2rpt1Loc
p823
aVhttp://dbpedia.org/property/rd3t3Loc
p824
aVhttp://dbpedia.org/property/timeZone
p825
aVhttp://dbpedia.org/property/rd2t3Loc
p826
aVhttp://dbpedia.org/property/locationCountry
p827
aVhttp://dbpedia.org/property/hostCity
p828
aVhttp://dbpedia.org/property/rd4t2Loc
p829
aVhttp://dbpedia.org/ontology/ground
p830
aVhttp://dbpedia.org/property/site
p831
aVhttp://dbpedia.org/ontology/nationality
p832
aVhttp://dbpedia.org/property/birthPlace
p833
aVhttp://dbpedia.org/property/placeOfBirth
p834
aVhttp://dbpedia.org/property/text
p835
aVhttp://dbpedia.org/property/country
p836
aVhttp://dbpedia.org/ontology/headquarter
p837
aVhttp://dbpedia.org/ontology/regionServed
p838
aVhttp://www.w3.org/2002/07/owl#sameAs
p839
aVhttp://dbpedia.org/property/areaServed
p840
aVhttp://purl.org/dc/terms/subject
p841
aVhttp://dbpedia.org/property/origin
p842
aVhttp://dbpedia.org/property/rd2t2Loc
p843
aVhttp://dbpedia.org/ontology/residence
p844
aVhttp://dbpedia.org/ontology/abstract
p845
aVhttp://dbpedia.org/property/locationSigned
p846
aVhttp://dbpedia.org/property/venue
p847
aVhttp://dbpedia.org/property/deathPlace
p848
aVhttp://dbpedia.org/property/location
p849
aVhttp://dbpedia.org/ontology/locationCountry
p850
aVhttp://dbpedia.org/property/rd3t2Loc
p851
aVhttp://dbpedia.org/ontology/deathPlace
p852
aVhttp://dbpedia.org/property/nationality
p853
aVhttp://dbpedia.org/ontology/city
p854
aVhttp://dbpedia.org/property/beatifiedPlace
p855
aVhttp://dbpedia.org/property/nationalOrigin
p856
aVhttp://dbpedia.org/property/headquarters
p857
aVhttp://dbpedia.org/property/rd4t1Loc
p858
aVhttp://dbpedia.org/property/currencyCode
p859
aVhttp://dbpedia.org/ontology/territory
p860
aVhttp://dbpedia.org/property/residence
p861
aVhttp://dbpedia.org/property/rd2t1Loc
p862
aVhttp://www.w3.org/2000/01/rdf-schema#comment
p863
aVhttp://dbpedia.org/ontology/timeZone
p864
aVhttp://dbpedia.org/ontology/birthPlace
p865
aVhttp://dbpedia.org/property/countries
p866
aVhttp://dbpedia.org/ontology/builder
p867
aVhttp://dbpedia.org/property/rd1t1Loc
p868
aVhttp://dbpedia.org/property/rd2t5Loc
p869
aVhttp://dbpedia.org/property/rd3t1Loc
p870
aVhttp://www.w3.org/2004/02/skos/core#exactMatch
p871
aVhttp://dbpedia.org/property/ground
p872
aVhttp://dbpedia.org/property/citizenship
p873
aVhttp://dbpedia.org/ontology/hometown
p874
aVhttp://dbpedia.org/property/host
p875
aVhttp://dbpedia.org/ontology/language
p876
aVhttp://dbpedia.org/property/rd5t1Loc
p877
aVhttp://dbpedia.org/ontology/location
p878
aVhttp://dbpedia.org/property/stadium
p879
aVhttp://dbpedia.org/property/timeZoneDst
p880
asI4
(lp881
Vhttp://dbpedia.org/property/origin
p882
aVhttp://dbpedia.org/ontology/country
p883
aVhttp://www.w3.org/2000/01/rdf-schema#comment
p884
aVhttp://dbpedia.org/ontology/abstract
p885
aVhttp://dbpedia.org/property/location
p886
aVhttp://dbpedia.org/ontology/hometown
p887
aVhttp://dbpedia.org/property/country
p888
asI5
(lp889
Vhttp://www.w3.org/2000/01/rdf-schema#seeAlso
p890
aVhttp://dbpedia.org/property/currency
p891
aVhttp://dbpedia.org/property/broadcastArea
p892
aVhttp://dbpedia.org/ontology/origin
p893
aVhttp://dbpedia.org/ontology/currency
p894
aVhttp://dbpedia.org/property/membership
p895
aVhttp://dbpedia.org/property/place
p896
aVhttp://dbpedia.org/ontology/citizenship
p897
aVhttp://dbpedia.org/property/city
p898
aVhttp://dbpedia.org/property/base
p899
aVhttp://dbpedia.org/property/placeOfDeath
p900
aVhttp://dbpedia.org/property/1rpt2Loc
p901
aVhttp://dbpedia.org/ontology/locatedInArea
p902
aVhttp://dbpedia.org/property/footnoteB
p903
aVhttp://dbpedia.org/property/footnoteD
p904
aVhttp://dbpedia.org/ontology/routeEnd
p905
aVhttp://dbpedia.org/property/label
p906
aVhttp://dbpedia.org/ontology/country
p907
aVhttp://www.w3.org/1999/02/22-rdf-syntax-ns#type
p908
aVhttp://dbpedia.org/ontology/beatifiedPlace
p909
aVhttp://dbpedia.org/property/2rpt1Loc
p910
aVhttp://dbpedia.org/property/rd3t3Loc
p911
aVhttp://dbpedia.org/property/timeZone
p912
aVhttp://dbpedia.org/property/rd2t3Loc
p913
aVhttp://dbpedia.org/property/locationCountry
p914
aVhttp://dbpedia.org/property/hostCity
p915
aVhttp://dbpedia.org/property/rd4t2Loc
p916
aVhttp://dbpedia.org/ontology/ground
p917
aVhttp://dbpedia.org/property/site
p918
aVhttp://dbpedia.org/ontology/nationality
p919
aVhttp://dbpedia.org/property/birthPlace
p920
aVhttp://dbpedia.org/property/placeOfBirth
p921
aVhttp://dbpedia.org/property/text
p922
aVhttp://dbpedia.org/property/country
p923
aVhttp://dbpedia.org/ontology/headquarter
p924
aVhttp://dbpedia.org/ontology/regionServed
p925
aVhttp://www.w3.org/2002/07/owl#sameAs
p926
aVhttp://dbpedia.org/property/areaServed
p927
aVhttp://purl.org/dc/terms/subject
p928
aVhttp://dbpedia.org/property/origin
p929
aVhttp://dbpedia.org/property/rd2t2Loc
p930
aVhttp://dbpedia.org/ontology/residence
p931
aVhttp://dbpedia.org/ontology/abstract
p932
aVhttp://dbpedia.org/property/locationSigned
p933
aVhttp://dbpedia.org/property/venue
p934
aVhttp://dbpedia.org/property/deathPlace
p935
aVhttp://dbpedia.org/property/location
p936
aVhttp://dbpedia.org/ontology/locationCountry
p937
aVhttp://dbpedia.org/property/rd3t2Loc
p938
aVhttp://dbpedia.org/ontology/deathPlace
p939
aVhttp://dbpedia.org/property/nationality
p940
aVhttp://dbpedia.org/ontology/city
p941
aVhttp://dbpedia.org/property/beatifiedPlace
p942
aVhttp://dbpedia.org/property/nationalOrigin
p943
aVhttp://dbpedia.org/property/headquarters
p944
aVhttp://dbpedia.org/property/rd4t1Loc
p945
aVhttp://dbpedia.org/property/currencyCode
p946
aVhttp://dbpedia.org/ontology/territory
p947
aVhttp://dbpedia.org/property/residence
p948
aVhttp://dbpedia.org/property/rd2t1Loc
p949
aVhttp://www.w3.org/2000/01/rdf-schema#comment
p950
aVhttp://dbpedia.org/ontology/timeZone
p951
aVhttp://dbpedia.org/ontology/birthPlace
p952
aVhttp://dbpedia.org/property/countries
p953
aVhttp://dbpedia.org/ontology/builder
p954
aVhttp://dbpedia.org/property/rd1t1Loc
p955
aVhttp://dbpedia.org/property/rd2t5Loc
p956
aVhttp://dbpedia.org/property/rd3t1Loc
p957
aVhttp://www.w3.org/2004/02/skos/core#exactMatch
p958
aVhttp://dbpedia.org/property/ground
p959
aVhttp://dbpedia.org/property/citizenship
p960
aVhttp://dbpedia.org/ontology/hometown
p961
aVhttp://dbpedia.org/property/host
p962
aVhttp://dbpedia.org/ontology/language
p963
aVhttp://dbpedia.org/property/rd5t1Loc
p964
aVhttp://dbpedia.org/ontology/location
p965
aVhttp://dbpedia.org/property/stadium
p966
aVhttp://dbpedia.org/property/timeZoneDst
p967
assI3
(dp968
I0
g707
sI2
g802
sI3
(lp969
sI4
(lp970
sI5
(lp971
ssI4
(dp972
I0
g750
sI1
g798
sI2
g881
sI3
g970
sI4
(lp973
sI5
(lp974
Vhttp://www.w3.org/2000/01/rdf-schema#seeAlso
p975
aVhttp://dbpedia.org/property/currency
p976
aVhttp://dbpedia.org/property/hostCity
p977
aVhttp://dbpedia.org/ontology/currency
p978
aVhttp://dbpedia.org/property/membership
p979
aVhttp://dbpedia.org/property/place
p980
aVhttp://dbpedia.org/property/1rpt2Loc
p981
aVhttp://dbpedia.org/property/rd2t3Loc
p982
aVhttp://dbpedia.org/property/rd1t7Loc
p983
aVhttp://dbpedia.org/property/rd1t4Loc
p984
aVhttp://dbpedia.org/ontology/country
p985
aVhttp://dbpedia.org/property/rd0t2Loc
p986
aVhttp://www.w3.org/1999/02/22-rdf-syntax-ns#type
p987
aVhttp://dbpedia.org/property/locationCountry
p988
aVhttp://dbpedia.org/property/rd1t2Loc
p989
aVhttp://dbpedia.org/property/withdraws
p990
aVhttp://dbpedia.org/property/timeZone
p991
aVhttp://dbpedia.org/ontology/place
p992
aVhttp://dbpedia.org/property/text
p993
aVhttp://dbpedia.org/ontology/regionServed
p994
aVhttp://dbpedia.org/property/rd0t1Loc
p995
aVhttp://purl.org/dc/terms/subject
p996
aVhttp://dbpedia.org/ontology/campus
p997
aVhttp://dbpedia.org/property/rd2t2Loc
p998
aVhttp://dbpedia.org/ontology/abstract
p999
aVhttp://dbpedia.org/property/venue
p1000
aVhttp://dbpedia.org/property/location
p1001
aVhttp://dbpedia.org/ontology/locationCountry
p1002
aVhttp://dbpedia.org/property/timeZoneDst
p1003
aVhttp://dbpedia.org/property/rd2t4Loc
p1004
aVhttp://dbpedia.org/property/headquarters
p1005
aVhttp://dbpedia.org/property/currencyCode
p1006
aVhttp://dbpedia.org/ontology/territory
p1007
aVhttp://dbpedia.org/property/rd2t1Loc
p1008
aVhttp://www.w3.org/2000/01/rdf-schema#comment
p1009
aVhttp://dbpedia.org/ontology/timeZone
p1010
aVhttp://dbpedia.org/property/countries
p1011
aVhttp://www.w3.org/2004/02/skos/core#exactMatch
p1012
aVhttp://www.w3.org/2002/07/owl#sameAs
p1013
aVhttp://dbpedia.org/property/host
p1014
aVhttp://dbpedia.org/property/stadium
p1015
assI5
(dp1016
I0
g751
sI2
g889
sI4
g974
sI5
(lp1017
ssa(dp1018
I0
(dp1019
I0
(lp1020
sI1
(lp1021
Vhttp://dbpedia.org/property/currencyCode
p1022
asI2
(lp1023
sI3
(lp1024
sI4
(lp1025
sI5
(lp1026
Vhttp://www.w3.org/2000/01/rdf-schema#seeAlso
p1027
aVhttp://dbpedia.org/property/broadcastArea
p1028
aVhttp://dbpedia.org/property/text
p1029
aVhttp://dbpedia.org/property/membership
p1030
aVhttp://dbpedia.org/property/caption
p1031
aVhttp://dbpedia.org/property/footnoteC
p1032
aVhttp://dbpedia.org/ontology/regionServed
p1033
aVhttp://dbpedia.org/ontology/country
p1034
aVhttp://www.w3.org/1999/02/22-rdf-syntax-ns#type
p1035
aVhttp://dbpedia.org/property/hostCity
p1036
aVhttp://dbpedia.org/property/assembly
p1037
aVhttp://dbpedia.org/property/timeZone
p1038
aVhttp://dbpedia.org/property/birthPlace
p1039
aVhttp://dbpedia.org/property/country
p1040
aVhttp://dbpedia.org/property/areasAffected
p1041
aVhttp://dbpedia.org/ontology/wikiPageExternalLink
p1042
aVhttp://purl.org/dc/terms/subject
p1043
aVhttp://dbpedia.org/ontology/abstract
p1044
aVhttp://dbpedia.org/property/venue
p1045
aVhttp://dbpedia.org/property/location
p1046
aVhttp://dbpedia.org/ontology/locationCountry
p1047
aVhttp://dbpedia.org/property/timeZoneDst
p1048
aVhttp://dbpedia.org/property/nationalOrigin
p1049
aVhttp://dbpedia.org/ontology/location
p1050
aVhttp://dbpedia.org/ontology/assembly
p1051
aVhttp://dbpedia.org/property/headquarters
p1052
aVhttp://www.w3.org/2000/01/rdf-schema#comment
p1053
aVhttp://dbpedia.org/ontology/timeZone
p1054
aVhttp://dbpedia.org/ontology/birthPlace
p1055
aVhttp://dbpedia.org/property/countries
p1056
aVhttp://www.w3.org/2004/02/skos/core#exactMatch
p1057
aVhttp://www.w3.org/2002/07/owl#sameAs
p1058
aVhttp://dbpedia.org/property/host
p1059
aVhttp://dbpedia.org/property/data
p1060
aVhttp://dbpedia.org/property/stadium
p1061
aVhttp://dbpedia.org/ontology/headquarter
p1062
assI1
(dp1063
I0
g1021
sI1
(lp1064
sI2
(lp1065
sI3
(lp1066
sI4
(lp1067
sI5
(lp1068
ssI2
(dp1069
I0
g1023
sI1
g1065
sI2
(lp1070
sI3
(lp1071
sI4
(lp1072
sI5
(lp1073
Vhttp://dbpedia.org/property/currency
p1074
aVhttp://dbpedia.org/property/2rpt2Loc
p1075
aVhttp://dbpedia.org/ontology/currency
p1076
aVhttp://dbpedia.org/property/membership
p1077
aVhttp://dbpedia.org/property/place
p1078
aVhttp://dbpedia.org/property/footnoteC
p1079
aVhttp://dbpedia.org/property/rd2t3Loc
p1080
aVhttp://dbpedia.org/property/site
p1081
aVhttp://dbpedia.org/property/rd1t4Loc
p1082
aVhttp://dbpedia.org/ontology/country
p1083
aVhttp://www.w3.org/1999/02/22-rdf-syntax-ns#type
p1084
aVhttp://dbpedia.org/property/rd1t5Loc
p1085
aVhttp://dbpedia.org/property/withdraws
p1086
aVhttp://dbpedia.org/property/timeZone
p1087
aVhttp://dbpedia.org/property/text
p1088
aVhttp://dbpedia.org/property/country
p1089
aVhttp://dbpedia.org/ontology/regionServed
p1090
aVhttp://dbpedia.org/ontology/wikiPageExternalLink
p1091
aVhttp://dbpedia.org/property/1rpt4Loc
p1092
aVhttp://purl.org/dc/terms/subject
p1093
aVhttp://dbpedia.org/ontology/abstract
p1094
aVhttp://dbpedia.org/property/rd1t8Loc
p1095
aVhttp://dbpedia.org/property/venue
p1096
aVhttp://dbpedia.org/property/location
p1097
aVhttp://dbpedia.org/property/rd3t2Loc
p1098
aVhttp://dbpedia.org/property/timeZoneDst
p1099
aVhttp://dbpedia.org/property/currencyCode
p1100
aVhttp://dbpedia.org/property/rd1t3Loc
p1101
aVhttp://dbpedia.org/property/rd2t1Loc
p1102
aVhttp://www.w3.org/2000/01/rdf-schema#comment
p1103
aVhttp://dbpedia.org/ontology/timeZone
p1104
aVhttp://dbpedia.org/property/countries
p1105
aVhttp://dbpedia.org/property/rd0t4Loc
p1106
aVhttp://dbpedia.org/property/rd0t3Loc
p1107
aVhttp://dbpedia.org/property/rd3t1Loc
p1108
aVhttp://www.w3.org/2004/02/skos/core#exactMatch
p1109
aVhttp://www.w3.org/2002/07/owl#sameAs
p1110
aVhttp://dbpedia.org/property/host
p1111
aVhttp://dbpedia.org/property/stadium
p1112
assI3
(dp1113
I0
g1024
sI1
g1066
sI2
g1071
sI3
(lp1114
sI4
(lp1115
sI5
(lp1116
ssI4
(dp1117
I0
g1025
sI1
g1067
sI2
g1072
sI3
g1115
sI4
(lp1118
sI5
(lp1119
Vhttp://www.w3.org/2000/01/rdf-schema#seeAlso
p1120
aVhttp://dbpedia.org/property/currency
p1121
aVhttp://dbpedia.org/property/ground
p1122
aVhttp://dbpedia.org/ontology/origin
p1123
aVhttp://dbpedia.org/ontology/currency
p1124
aVhttp://dbpedia.org/property/membership
p1125
aVhttp://dbpedia.org/property/place
p1126
aVhttp://dbpedia.org/ontology/ground
p1127
aVhttp://www.w3.org/2002/07/owl#differentFrom
p1128
aVhttp://dbpedia.org/ontology/regionServed
p1129
aVhttp://dbpedia.org/ontology/country
p1130
aVhttp://www.w3.org/1999/02/22-rdf-syntax-ns#type
p1131
aVhttp://dbpedia.org/ontology/hometown
p1132
aVhttp://dbpedia.org/property/locationCountry
p1133
aVhttp://dbpedia.org/property/hostCity
p1134
aVhttp://dbpedia.org/property/assembly
p1135
aVhttp://dbpedia.org/property/locationOfDocument
p1136
aVhttp://dbpedia.org/property/text
p1137
aVhttp://dbpedia.org/property/country
p1138
aVhttp://dbpedia.org/property/countries
p1139
aVhttp://dbpedia.org/property/areaServed
p1140
aVhttp://dbpedia.org/ontology/wikiPageExternalLink
p1141
aVhttp://purl.org/dc/terms/subject
p1142
aVhttp://dbpedia.org/property/origin
p1143
aVhttp://dbpedia.org/property/rd2t2Loc
p1144
aVhttp://dbpedia.org/ontology/abstract
p1145
aVhttp://dbpedia.org/property/locationSigned
p1146
aVhttp://dbpedia.org/property/venue
p1147
aVhttp://dbpedia.org/property/location
p1148
aVhttp://dbpedia.org/ontology/locationCountry
p1149
aVhttp://dbpedia.org/property/rd3t2Loc
p1150
aVhttp://dbpedia.org/ontology/headquarter
p1151
aVhttp://dbpedia.org/property/rd2t4Loc
p1152
aVhttp://dbpedia.org/property/nationalOrigin
p1153
aVhttp://dbpedia.org/ontology/location
p1154
aVhttp://dbpedia.org/property/currencyCode
p1155
aVhttp://dbpedia.org/property/rd1t3Loc
p1156
aVhttp://dbpedia.org/ontology/assembly
p1157
aVhttp://dbpedia.org/property/headquarters
p1158
aVhttp://www.w3.org/2000/01/rdf-schema#comment
p1159
aVhttp://dbpedia.org/ontology/timeZone
p1160
aVhttp://dbpedia.org/property/finish
p1161
aVhttp://dbpedia.org/property/successor
p1162
aVhttp://dbpedia.org/property/rd2t5Loc
p1163
aVhttp://dbpedia.org/property/rd3t1Loc
p1164
aVhttp://www.w3.org/2004/02/skos/core#exactMatch
p1165
aVhttp://www.w3.org/2002/07/owl#sameAs
p1166
aVhttp://dbpedia.org/ontology/successor
p1167
aVhttp://dbpedia.org/property/host
p1168
aVhttp://dbpedia.org/property/rd5t1Loc
p1169
aVhttp://dbpedia.org/property/stadium
p1170
aVhttp://dbpedia.org/property/rd4t1Loc
p1171
assI5
(dp1172
I0
g1026
sI1
g1068
sI2
g1073
sI3
g1116
sI4
g1119
sI5
(lp1173
ssa(dp1174
I0
(dp1175
I0
(lp1176
sI1
(lp1177
Vhttp://dbpedia.org/property/currencyCode
p1178
asI2
(lp1179
sI3
(lp1180
sI4
(lp1181
Vhttp://dbpedia.org/property/placeOfDeath
p1182
aVhttp://dbpedia.org/property/headquarters
p1183
aVhttp://www.w3.org/2000/01/rdf-schema#comment
p1184
aVhttp://dbpedia.org/ontology/birthPlace
p1185
aVhttp://dbpedia.org/property/location
p1186
aVhttp://dbpedia.org/property/deathPlace
p1187
aVhttp://dbpedia.org/ontology/deathPlace
p1188
aVhttp://dbpedia.org/ontology/abstract
p1189
asI5
(lp1190
Vhttp://dbpedia.org/ontology/origin
p1191
aVhttp://dbpedia.org/property/location
p1192
assI1
(dp1193
I0
g1177
sI1
(lp1194
sI2
(lp1195
sI3
(lp1196
sI4
(lp1197
sI5
(lp1198
ssI2
(dp1199
I0
g1179
sI1
g1195
sI2
(lp1200
sI3
(lp1201
sI4
(lp1202
Vhttp://dbpedia.org/ontology/abstract
p1203
aVhttp://www.w3.org/2000/01/rdf-schema#comment
p1204
asI5
(lp1205
Vhttp://dbpedia.org/ontology/country
p1206
assI3
(dp1207
I0
g1180
sI1
g1196
sI2
g1201
sI3
(lp1208
sI4
(lp1209
sI5
(lp1210
ssI4
(dp1211
I0
g1181
sI1
g1197
sI2
g1202
sI3
g1209
sI4
(lp1212
sI5
(lp1213
Vhttp://dbpedia.org/ontology/country
p1214
aVhttp://dbpedia.org/property/currencyCode
p1215
aVhttp://dbpedia.org/ontology/birthPlace
p1216
aVhttp://dbpedia.org/property/birthPlace
p1217
aVhttp://dbpedia.org/property/placeOfBirth
p1218
aVhttp://dbpedia.org/property/country
p1219
aVhttp://dbpedia.org/property/subdivisionName
p1220
assI5
(dp1221
I0
g1190
sI1
g1198
sI2
g1205
sI3
g1210
sI4
g1213
sI5
(lp1222
ssa(dp1223
I0
(dp1224
I0
(lp1225
sI1
(lp1226
Vhttp://dbpedia.org/ontology/country
p1227
aVhttp://dbpedia.org/ontology/birthPlace
p1228
aVhttp://dbpedia.org/property/location
p1229
aVhttp://dbpedia.org/property/birthPlace
p1230
aVhttp://dbpedia.org/ontology/deathPlace
p1231
aVhttp://dbpedia.org/property/placeOfBirth
p1232
asI2
(lp1233
sI3
(lp1234
Vhttp://dbpedia.org/property/currency
p1235
aVhttp://dbpedia.org/property/hostCity
p1236
aVhttp://dbpedia.org/ontology/currency
p1237
aVhttp://dbpedia.org/property/place
p1238
aVhttp://dbpedia.org/property/debuts
p1239
aVhttp://dbpedia.org/property/rd1t7Loc
p1240
aVhttp://dbpedia.org/property/footnoteF
p1241
aVhttp://dbpedia.org/ontology/country
p1242
aVhttp://www.w3.org/1999/02/22-rdf-syntax-ns#type
p1243
aVhttp://dbpedia.org/property/rd1t5Loc
p1244
aVhttp://dbpedia.org/property/rd1t2Loc
p1245
aVhttp://dbpedia.org/property/withdraws
p1246
aVhttp://dbpedia.org/property/timeZone
p1247
aVhttp://dbpedia.org/property/birthPlace
p1248
aVhttp://dbpedia.org/property/text
p1249
aVhttp://dbpedia.org/property/country
p1250
aVhttp://dbpedia.org/ontology/regionServed
p1251
aVhttp://dbpedia.org/ontology/wikiPageExternalLink
p1252
aVhttp://purl.org/dc/terms/subject
p1253
aVhttp://dbpedia.org/ontology/abstract
p1254
aVhttp://dbpedia.org/property/venue
p1255
aVhttp://dbpedia.org/property/location
p1256
aVhttp://dbpedia.org/property/timeZoneDst
p1257
aVhttp://dbpedia.org/property/rd2t4Loc
p1258
aVhttp://dbpedia.org/property/rd1t6Loc
p1259
aVhttp://dbpedia.org/property/title
p1260
aVhttp://dbpedia.org/property/currencyCode
p1261
aVhttp://www.w3.org/2000/01/rdf-schema#comment
p1262
aVhttp://dbpedia.org/ontology/timeZone
p1263
aVhttp://dbpedia.org/ontology/birthPlace
p1264
aVhttp://dbpedia.org/property/countries
p1265
aVhttp://www.w3.org/2004/02/skos/core#exactMatch
p1266
aVhttp://www.w3.org/2002/07/owl#sameAs
p1267
aVhttp://dbpedia.org/property/host
p1268
aVhttp://dbpedia.org/property/stadium
p1269
asI4
(lp1270
sI5
(lp1271
ssI1
(dp1272
I0
g1226
sI1
(lp1273
sI2
(lp1274
sI3
(lp1275
sI4
(lp1276
sI5
(lp1277
ssI2
(dp1278
I0
g1233
sI1
g1274
sI2
(lp1279
sI3
(lp1280
Vhttp://dbpedia.org/property/currency
p1281
aVhttp://dbpedia.org/property/terminusB
p1282
aVhttp://dbpedia.org/property/hostCity
p1283
aVhttp://dbpedia.org/ontology/currency
p1284
aVhttp://dbpedia.org/property/membership
p1285
aVhttp://dbpedia.org/property/place
p1286
aVhttp://dbpedia.org/property/footnoteC
p1287
aVhttp://dbpedia.org/ontology/routeEnd
p1288
aVhttp://dbpedia.org/property/rd1t4Loc
p1289
aVhttp://dbpedia.org/ontology/country
p1290
aVhttp://www.w3.org/1999/02/22-rdf-syntax-ns#type
p1291
aVhttp://dbpedia.org/property/2rpt1Loc
p1292
aVhttp://dbpedia.org/property/rd1t5Loc
p1293
aVhttp://dbpedia.org/property/timeZone
p1294
aVhttp://dbpedia.org/property/text
p1295
aVhttp://dbpedia.org/property/office
p1296
aVhttp://dbpedia.org/property/locationSigned
p1297
aVhttp://dbpedia.org/property/country
p1298
aVhttp://dbpedia.org/ontology/headquarter
p1299
aVhttp://dbpedia.org/ontology/regionServed
p1300
aVhttp://dbpedia.org/property/areaServed
p1301
aVhttp://dbpedia.org/ontology/wikiPageExternalLink
p1302
aVhttp://purl.org/dc/terms/subject
p1303
aVhttp://dbpedia.org/property/rd2t2Loc
p1304
aVhttp://dbpedia.org/ontology/abstract
p1305
aVhttp://dbpedia.org/property/venue
p1306
aVhttp://dbpedia.org/property/location
p1307
aVhttp://dbpedia.org/property/timeZoneDst
p1308
aVhttp://dbpedia.org/property/space
p1309
aVhttp://dbpedia.org/property/rd1t6Loc
p1310
aVhttp://dbpedia.org/property/1rpt3Loc
p1311
aVhttp://dbpedia.org/property/headquarters
p1312
aVhttp://dbpedia.org/property/currencyCode
p1313
aVhttp://dbpedia.org/property/rd2t1Loc
p1314
aVhttp://www.w3.org/2000/01/rdf-schema#comment
p1315
aVhttp://dbpedia.org/ontology/timeZone
p1316
aVhttp://dbpedia.org/ontology/birthPlace
p1317
aVhttp://dbpedia.org/property/countries
p1318
aVhttp://dbpedia.org/property/rd1t1Loc
p1319
aVhttp://www.w3.org/2004/02/skos/core#exactMatch
p1320
aVhttp://www.w3.org/2002/07/owl#sameAs
p1321
aVhttp://dbpedia.org/property/regionServed
p1322
aVhttp://dbpedia.org/property/host
p1323
aVhttp://dbpedia.org/property/stadium
p1324
aVhttp://dbpedia.org/ontology/location
p1325
asI4
(lp1326
sI5
(lp1327
ssI3
(dp1328
I0
g1234
sI1
g1275
sI2
g1280
sI3
(lp1329
sI4
(lp1330
sI5
(lp1331
ssI4
(dp1332
I0
g1270
sI1
g1276
sI2
g1326
sI3
g1330
sI4
(lp1333
sI5
(lp1334
Vhttp://dbpedia.org/ontology/country
p1335
aVhttp://dbpedia.org/ontology/location
p1336
aVhttp://dbpedia.org/property/basinCountries
p1337
aVhttp://dbpedia.org/ontology/birthPlace
p1338
aVhttp://dbpedia.org/property/location
p1339
aVhttp://dbpedia.org/ontology/nationality
p1340
aVhttp://dbpedia.org/property/birthPlace
p1341
aVhttp://dbpedia.org/property/placeOfBirth
p1342
aVhttp://dbpedia.org/property/areaServed
p1343
aVhttp://dbpedia.org/ontology/regionServed
p1344
assI5
(dp1345
I0
g1271
sI1
g1277
sI2
g1327
sI3
g1331
sI4
g1334
sI5
(lp1346
ssa(dp1347
I0
(dp1348
I0
(lp1349
sI1
(lp1350
Vhttp://www.w3.org/2000/01/rdf-schema#seeAlso
p1351
aVhttp://dbpedia.org/property/currency
p1352
aVhttp://dbpedia.org/property/rd2t6Loc
p1353
aVhttp://dbpedia.org/property/ground
p1354
aVhttp://dbpedia.org/property/2rpt2Loc
p1355
aVhttp://dbpedia.org/ontology/currency
p1356
aVhttp://dbpedia.org/property/membership
p1357
aVhttp://dbpedia.org/property/place
p1358
aVhttp://dbpedia.org/property/footnoteA
p1359
aVhttp://dbpedia.org/property/rd2t3Loc
p1360
aVhttp://dbpedia.org/ontology/regionServed
p1361
aVhttp://dbpedia.org/ontology/country
p1362
aVhttp://dbpedia.org/property/returns
p1363
aVhttp://www.w3.org/1999/02/22-rdf-syntax-ns#type
p1364
aVhttp://dbpedia.org/property/2rpt1Loc
p1365
aVhttp://dbpedia.org/property/hostCity
p1366
aVhttp://dbpedia.org/property/rd1t2Loc
p1367
aVhttp://dbpedia.org/ontology/ground
p1368
aVhttp://dbpedia.org/property/timeZone
p1369
aVhttp://dbpedia.org/property/birthPlace
p1370
aVhttp://dbpedia.org/property/placeOfBirth
p1371
aVhttp://dbpedia.org/property/text
p1372
aVhttp://dbpedia.org/property/country
p1373
aVhttp://dbpedia.org/property/countries
p1374
aVhttp://dbpedia.org/property/areaServed
p1375
aVhttp://dbpedia.org/ontology/wikiPageExternalLink
p1376
aVhttp://dbpedia.org/property/rd0t1Loc
p1377
aVhttp://purl.org/dc/terms/subject
p1378
aVhttp://dbpedia.org/property/origin
p1379
aVhttp://dbpedia.org/property/rd2t2Loc
p1380
aVhttp://dbpedia.org/ontology/abstract
p1381
aVhttp://dbpedia.org/property/rd1t8Loc
p1382
aVhttp://dbpedia.org/property/venue
p1383
aVhttp://dbpedia.org/property/location
p1384
aVhttp://dbpedia.org/ontology/builder
p1385
aVhttp://dbpedia.org/property/rd3t2Loc
p1386
aVhttp://dbpedia.org/property/timeZoneDst
p1387
aVhttp://dbpedia.org/property/rd2t4Loc
p1388
aVhttp://dbpedia.org/ontology/city
p1389
aVhttp://dbpedia.org/ontology/sourceCountry
p1390
aVhttp://dbpedia.org/property/headquarters
p1391
aVhttp://dbpedia.org/property/basinCountries
p1392
aVhttp://dbpedia.org/property/currencyCode
p1393
aVhttp://dbpedia.org/property/shipBuilder
p1394
aVhttp://dbpedia.org/property/rd2t1Loc
p1395
aVhttp://dbpedia.org/property/hostcity
p1396
aVhttp://dbpedia.org/ontology/timeZone
p1397
aVhttp://dbpedia.org/ontology/birthPlace
p1398
aVhttp://www.w3.org/2000/01/rdf-schema#comment
p1399
aVhttp://dbpedia.org/property/rd1t3Loc
p1400
aVhttp://dbpedia.org/ontology/hometown
p1401
aVhttp://dbpedia.org/property/rd3t1Loc
p1402
aVhttp://www.w3.org/2004/02/skos/core#exactMatch
p1403
aVhttp://www.w3.org/2002/07/owl#sameAs
p1404
aVhttp://dbpedia.org/ontology/headquarter
p1405
aVhttp://dbpedia.org/property/stadium
p1406
aVhttp://dbpedia.org/ontology/location
p1407
asI2
(lp1408
sI3
(lp1409
Vhttp://www.w3.org/2000/01/rdf-schema#seeAlso
p1410
aVhttp://dbpedia.org/property/currency
p1411
aVhttp://dbpedia.org/property/rd2t6Loc
p1412
aVhttp://dbpedia.org/property/ground
p1413
aVhttp://dbpedia.org/property/2rpt2Loc
p1414
aVhttp://dbpedia.org/ontology/currency
p1415
aVhttp://dbpedia.org/property/membership
p1416
aVhttp://dbpedia.org/property/place
p1417
aVhttp://dbpedia.org/property/footnoteA
p1418
aVhttp://dbpedia.org/property/rd2t3Loc
p1419
aVhttp://dbpedia.org/ontology/regionServed
p1420
aVhttp://dbpedia.org/ontology/country
p1421
aVhttp://dbpedia.org/property/returns
p1422
aVhttp://www.w3.org/1999/02/22-rdf-syntax-ns#type
p1423
aVhttp://dbpedia.org/property/2rpt1Loc
p1424
aVhttp://dbpedia.org/property/hostCity
p1425
aVhttp://dbpedia.org/property/rd1t2Loc
p1426
aVhttp://dbpedia.org/ontology/ground
p1427
aVhttp://dbpedia.org/property/timeZone
p1428
aVhttp://dbpedia.org/property/birthPlace
p1429
aVhttp://dbpedia.org/property/placeOfBirth
p1430
aVhttp://dbpedia.org/property/text
p1431
aVhttp://dbpedia.org/property/country
p1432
aVhttp://dbpedia.org/property/countries
p1433
aVhttp://dbpedia.org/property/areaServed
p1434
aVhttp://dbpedia.org/ontology/wikiPageExternalLink
p1435
aVhttp://dbpedia.org/property/rd0t1Loc
p1436
aVhttp://purl.org/dc/terms/subject
p1437
aVhttp://dbpedia.org/property/origin
p1438
aVhttp://dbpedia.org/property/rd2t2Loc
p1439
aVhttp://dbpedia.org/ontology/abstract
p1440
aVhttp://dbpedia.org/property/rd1t8Loc
p1441
aVhttp://dbpedia.org/property/venue
p1442
aVhttp://dbpedia.org/property/location
p1443
aVhttp://dbpedia.org/ontology/builder
p1444
aVhttp://dbpedia.org/property/rd3t2Loc
p1445
aVhttp://dbpedia.org/property/timeZoneDst
p1446
aVhttp://dbpedia.org/property/rd2t4Loc
p1447
aVhttp://dbpedia.org/ontology/city
p1448
aVhttp://dbpedia.org/ontology/sourceCountry
p1449
aVhttp://dbpedia.org/property/headquarters
p1450
aVhttp://dbpedia.org/property/basinCountries
p1451
aVhttp://dbpedia.org/property/currencyCode
p1452
aVhttp://dbpedia.org/property/shipBuilder
p1453
aVhttp://dbpedia.org/property/rd2t1Loc
p1454
aVhttp://dbpedia.org/property/hostcity
p1455
aVhttp://dbpedia.org/ontology/timeZone
p1456
aVhttp://dbpedia.org/ontology/birthPlace
p1457
aVhttp://www.w3.org/2000/01/rdf-schema#comment
p1458
aVhttp://dbpedia.org/property/rd1t3Loc
p1459
aVhttp://dbpedia.org/ontology/hometown
p1460
aVhttp://dbpedia.org/property/rd3t1Loc
p1461
aVhttp://www.w3.org/2004/02/skos/core#exactMatch
p1462
aVhttp://www.w3.org/2002/07/owl#sameAs
p1463
aVhttp://dbpedia.org/ontology/headquarter
p1464
aVhttp://dbpedia.org/property/stadium
p1465
aVhttp://dbpedia.org/ontology/location
p1466
asI4
(lp1467
sI5
(lp1468
ssI1
(dp1469
I0
g1350
sI1
(lp1470
sI2
(lp1471
sI3
(lp1472
sI4
(lp1473
sI5
(lp1474
ssI2
(dp1475
I0
g1408
sI1
g1471
sI2
(lp1476
sI3
(lp1477
Vhttp://dbpedia.org/ontology/country
p1478
aVhttp://www.w3.org/1999/02/22-rdf-syntax-ns#type
p1479
aVhttp://dbpedia.org/property/headquarters
p1480
aVhttp://www.w3.org/2000/01/rdf-schema#comment
p1481
aVhttp://www.w3.org/2002/07/owl#sameAs
p1482
aVhttp://dbpedia.org/property/text
p1483
aVhttp://dbpedia.org/ontology/abstract
p1484
aVhttp://dbpedia.org/property/hostCity
p1485
aVhttp://dbpedia.org/property/venue
p1486
aVhttp://dbpedia.org/ontology/nationality
p1487
aVhttp://dbpedia.org/ontology/locationCountry
p1488
aVhttp://www.w3.org/2004/02/skos/core#exactMatch
p1489
aVhttp://dbpedia.org/ontology/place
p1490
aVhttp://dbpedia.org/ontology/headquarter
p1491
aVhttp://dbpedia.org/property/regionServed
p1492
aVhttp://dbpedia.org/property/country
p1493
aVhttp://dbpedia.org/ontology/stateOfOrigin
p1494
aVhttp://dbpedia.org/property/stadium
p1495
aVhttp://dbpedia.org/ontology/regionServed
p1496
asI4
(lp1497
Vhttp://dbpedia.org/ontology/abstract
p1498
asI5
(lp1499
ssI3
(dp1500
I0
g1409
sI2
g1477
sI3
(lp1501
sI4
(lp1502
sI5
(lp1503
ssI4
(dp1504
I0
g1467
sI1
g1473
sI2
g1497
sI3
g1502
sI4
(lp1505
sI5
(lp1506
Vhttp://dbpedia.org/property/currencyCode
p1507
assI5
(dp1508
I0
g1468
sI1
g1474
sI2
g1499
sI3
g1503
sI4
g1506
sI5
(lp1509
ssa(dp1510
I0
(dp1511
I0
(lp1512
sI1
(lp1513
Vhttp://dbpedia.org/ontology/abstract
p1514
aVhttp://www.w3.org/2000/01/rdf-schema#comment
p1515
aVhttp://dbpedia.org/property/network
p1516
aVhttp://dbpedia.org/ontology/network
p1517
asI2
(lp1518
sI3
(lp1519
Vhttp://dbpedia.org/ontology/abstract
p1520
aVhttp://www.w3.org/2000/01/rdf-schema#comment
p1521
aVhttp://dbpedia.org/property/network
p1522
aVhttp://dbpedia.org/ontology/network
p1523
asI4
(lp1524
sI5
(lp1525
ssI1
(dp1526
I0
g1513
sI1
(lp1527
sI2
(lp1528
sI3
(lp1529
sI4
(lp1530
sI5
(lp1531
ssI2
(dp1532
I0
g1518
sI1
g1528
sI2
(lp1533
sI3
(lp1534
Vhttp://www.w3.org/2000/01/rdf-schema#seeAlso
p1535
aVhttp://dbpedia.org/property/currency
p1536
aVhttp://dbpedia.org/property/ground
p1537
aVhttp://dbpedia.org/property/2rpt2Loc
p1538
aVhttp://dbpedia.org/ontology/currency
p1539
aVhttp://dbpedia.org/property/membership
p1540
aVhttp://dbpedia.org/ontology/foundationPlace
p1541
aVhttp://dbpedia.org/property/residence
p1542
aVhttp://dbpedia.org/property/placeOfDeath
p1543
aVhttp://dbpedia.org/ontology/city
p1544
aVhttp://dbpedia.org/property/footnoteC
p1545
aVhttp://dbpedia.org/property/rd2t3Loc
p1546
aVhttp://dbpedia.org/property/footnoteE
p1547
aVhttp://dbpedia.org/property/footnoteD
p1548
aVhttp://dbpedia.org/property/footnoteG
p1549
aVhttp://dbpedia.org/ontology/regionServed
p1550
aVhttp://dbpedia.org/ontology/country
p1551
aVhttp://dbpedia.org/property/returns
p1552
aVhttp://www.w3.org/1999/02/22-rdf-syntax-ns#type
p1553
aVhttp://dbpedia.org/property/address
p1554
aVhttp://dbpedia.org/property/locationCountry
p1555
aVhttp://dbpedia.org/property/hostCity
p1556
aVhttp://dbpedia.org/property/rd1t5Loc
p1557
aVhttp://dbpedia.org/property/allegiance
p1558
aVhttp://dbpedia.org/ontology/ground
p1559
aVhttp://dbpedia.org/property/withdraws
p1560
aVhttp://dbpedia.org/ontology/nationality
p1561
aVhttp://dbpedia.org/property/birthPlace
p1562
aVhttp://dbpedia.org/ontology/ethnicGroup
p1563
aVhttp://dbpedia.org/property/text
p1564
aVhttp://dbpedia.org/property/country
p1565
aVhttp://dbpedia.org/property/areaServed
p1566
aVhttp://dbpedia.org/property/placeOfBirth
p1567
aVhttp://dbpedia.org/ontology/wikiPageExternalLink
p1568
aVhttp://dbpedia.org/property/nationality
p1569
aVhttp://dbpedia.org/property/timeZoneDst
p1570
aVhttp://purl.org/dc/terms/subject
p1571
aVhttp://dbpedia.org/ontology/populationPlace
p1572
aVhttp://dbpedia.org/property/origin
p1573
aVhttp://www.w3.org/2000/01/rdf-schema#comment
p1574
aVhttp://dbpedia.org/property/foundedDate
p1575
aVhttp://dbpedia.org/ontology/residence
p1576
aVhttp://dbpedia.org/ontology/abstract
p1577
aVhttp://dbpedia.org/property/locationSigned
p1578
aVhttp://dbpedia.org/property/venue
p1579
aVhttp://dbpedia.org/property/location
p1580
aVhttp://dbpedia.org/ontology/locationCountry
p1581
aVhttp://dbpedia.org/property/windance
p1582
aVhttp://dbpedia.org/ontology/deathPlace
p1583
aVhttp://dbpedia.org/property/rd2t4Loc
p1584
aVhttp://dbpedia.org/property/foundation
p1585
aVhttp://dbpedia.org/ontology/routeStart
p1586
aVhttp://dbpedia.org/property/subdivisionName
p1587
aVhttp://dbpedia.org/property/headquarters
p1588
aVhttp://dbpedia.org/property/rd2t1Loc
p1589
aVhttp://dbpedia.org/property/hostcity
p1590
aVhttp://dbpedia.org/ontology/timeZone
p1591
aVhttp://dbpedia.org/ontology/birthPlace
p1592
aVhttp://dbpedia.org/property/countries
p1593
aVhttp://dbpedia.org/ontology/wikiPageRedirects
p1594
aVhttp://dbpedia.org/ontology/hometown
p1595
aVhttp://www.w3.org/2004/02/skos/core#exactMatch
p1596
aVhttp://www.w3.org/2002/07/owl#sameAs
p1597
aVhttp://dbpedia.org/property/host
p1598
aVhttp://dbpedia.org/ontology/stateOfOrigin
p1599
aVhttp://dbpedia.org/ontology/location
p1600
aVhttp://dbpedia.org/property/stadium
p1601
aVhttp://dbpedia.org/ontology/headquarter
p1602
asI4
(lp1603
Vhttp://dbpedia.org/property/location
p1604
asI5
(lp1605
Vhttp://dbpedia.org/ontology/country
p1606
aVhttp://dbpedia.org/ontology/recordedIn
p1607
aVhttp://dbpedia.org/property/nationality
p1608
aVhttp://dbpedia.org/ontology/birthPlace
p1609
aVhttp://dbpedia.org/property/deathDate
p1610
aVhttp://dbpedia.org/property/deathPlace
p1611
aVhttp://dbpedia.org/ontology/nationality
p1612
aVhttp://dbpedia.org/property/birthPlace
p1613
aVhttp://dbpedia.org/property/placeOfBirth
p1614
aVhttp://dbpedia.org/property/country
p1615
aVhttp://dbpedia.org/property/subdivisionName
p1616
assI3
(dp1617
I0
g1519
sI2
g1534
sI3
(lp1618
sI4
(lp1619
sI5
(lp1620
ssI4
(dp1621
I0
g1524
sI1
g1530
sI2
g1603
sI3
g1619
sI4
(lp1622
sI5
(lp1623
Vhttp://dbpedia.org/property/currencyCode
p1624
aVhttp://dbpedia.org/ontology/location
p1625
aVhttp://dbpedia.org/property/countryCode
p1626
aVhttp://dbpedia.org/property/location
p1627
assI5
(dp1628
I0
g1525
sI1
g1531
sI2
g1605
sI3
g1620
sI4
g1623
sI5
(lp1629
ssa(dp1630
I0
(dp1631
I0
(lp1632
sI1
(lp1633
Vhttp://www.w3.org/2000/01/rdf-schema#seeAlso
p1634
aVhttp://dbpedia.org/property/currency
p1635
aVhttp://dbpedia.org/property/broadcastArea
p1636
aVhttp://dbpedia.org/ontology/origin
p1637
aVhttp://dbpedia.org/ontology/currency
p1638
aVhttp://dbpedia.org/property/membership
p1639
aVhttp://dbpedia.org/property/place
p1640
aVhttp://dbpedia.org/ontology/foundationPlace
p1641
aVhttp://dbpedia.org/property/city
p1642
aVhttp://dbpedia.org/ontology/campus
p1643
aVhttp://dbpedia.org/ontology/garrison
p1644
aVhttp://dbpedia.org/ontology/deathPlace
p1645
aVhttp://dbpedia.org/property/caption
p1646
aVhttp://dbpedia.org/property/footnoteA
p1647
aVhttp://dbpedia.org/ontology/locatedInArea
p1648
aVhttp://dbpedia.org/property/footnoteC
p1649
aVhttp://dbpedia.org/ontology/fastestDriverCountry
p1650
aVhttp://dbpedia.org/ontology/routeEnd
p1651
aVhttp://dbpedia.org/ontology/regionServed
p1652
aVhttp://dbpedia.org/ontology/country
p1653
aVhttp://www.w3.org/1999/02/22-rdf-syntax-ns#type
p1654
aVhttp://dbpedia.org/property/locationCountry
p1655
aVhttp://dbpedia.org/ontology/secondDriverCountry
p1656
aVhttp://dbpedia.org/property/assembly
p1657
aVhttp://dbpedia.org/property/garrison
p1658
aVhttp://dbpedia.org/property/site
p1659
aVhttp://dbpedia.org/ontology/nationality
p1660
aVhttp://dbpedia.org/property/birthPlace
p1661
aVhttp://dbpedia.org/ontology/city
p1662
aVhttp://dbpedia.org/ontology/place
p1663
aVhttp://dbpedia.org/property/placeOfBirth
p1664
aVhttp://dbpedia.org/property/office
p1665
aVhttp://dbpedia.org/property/text
p1666
aVhttp://dbpedia.org/property/country
p1667
aVhttp://dbpedia.org/property/shipCountry
p1668
aVhttp://dbpedia.org/ontology/assembly
p1669
aVhttp://dbpedia.org/property/areaServed
p1670
aVhttp://dbpedia.org/property/areasAffected
p1671
aVhttp://dbpedia.org/ontology/wikiPageExternalLink
p1672
aVhttp://dbpedia.org/ontology/firstDriverCountry
p1673
aVhttp://purl.org/dc/terms/subject
p1674
aVhttp://dbpedia.org/ontology/populationPlace
p1675
aVhttp://dbpedia.org/property/origin
p1676
aVhttp://www.w3.org/2000/01/rdf-schema#comment
p1677
aVhttp://dbpedia.org/property/nationality
p1678
aVhttp://dbpedia.org/ontology/abstract
p1679
aVhttp://dbpedia.org/ontology/recordedIn
p1680
aVhttp://dbpedia.org/property/venue
p1681
aVhttp://dbpedia.org/property/location
p1682
aVhttp://dbpedia.org/ontology/builder
p1683
aVhttp://dbpedia.org/ontology/headquarter
p1684
aVhttp://dbpedia.org/property/foundation
p1685
aVhttp://dbpedia.org/ontology/routeStart
p1686
aVhttp://dbpedia.org/property/hostCity
p1687
aVhttp://dbpedia.org/ontology/sourceCountry
p1688
aVhttp://dbpedia.org/property/headquarters
p1689
aVhttp://dbpedia.org/property/basinCountries
p1690
aVhttp://dbpedia.org/property/currencyCode
p1691
aVhttp://dbpedia.org/ontology/territory
p1692
aVhttp://dbpedia.org/property/shipBuilder
p1693
aVhttp://dbpedia.org/property/rd2t1Loc
p1694
aVhttp://dbpedia.org/ontology/wineRegion
p1695
aVhttp://dbpedia.org/ontology/birthPlace
p1696
aVhttp://dbpedia.org/property/finish
p1697
aVhttp://dbpedia.org/property/nationalOrigin
p1698
aVhttp://dbpedia.org/ontology/locationCountry
p1699
aVhttp://dbpedia.org/ontology/hometown
p1700
aVhttp://www.w3.org/2004/02/skos/core#exactMatch
p1701
aVhttp://dbpedia.org/ontology/poleDriverCountry
p1702
aVhttp://www.w3.org/2002/07/owl#sameAs
p1703
aVhttp://dbpedia.org/property/countries
p1704
aVhttp://dbpedia.org/property/regionServed
p1705
aVhttp://dbpedia.org/property/locationCity
p1706
aVhttp://dbpedia.org/property/host
p1707
aVhttp://dbpedia.org/ontology/language
p1708
aVhttp://dbpedia.org/ontology/locationCity
p1709
aVhttp://dbpedia.org/property/stadium
p1710
aVhttp://dbpedia.org/ontology/location
p1711
asI2
(lp1712
Vhttp://dbpedia.org/ontology/birthPlace
p1713
aVhttp://dbpedia.org/ontology/recordedIn
p1714
aVhttp://dbpedia.org/property/birthPlace
p1715
aVhttp://dbpedia.org/property/placeOfBirth
p1716
asI3
(lp1717
sI4
(lp1718
Vhttp://dbpedia.org/ontology/birthPlace
p1719
aVhttp://dbpedia.org/property/placeOfBirth
p1720
asI5
(lp1721
Vhttp://dbpedia.org/property/locale
p1722
aVhttp://dbpedia.org/ontology/country
p1723
aVhttp://dbpedia.org/ontology/location
p1724
aVhttp://dbpedia.org/property/origin
p1725
aVhttp://dbpedia.org/ontology/birthPlace
p1726
aVhttp://dbpedia.org/property/deathPlace
p1727
aVhttp://dbpedia.org/property/location
p1728
aVhttp://dbpedia.org/ontology/hometown
p1729
aVhttp://dbpedia.org/ontology/deathPlace
p1730
aVhttp://dbpedia.org/property/placeOfDeath
p1731
aVhttp://dbpedia.org/ontology/locatedInArea
p1732
aVhttp://dbpedia.org/property/country
p1733
aVhttp://dbpedia.org/property/placeOfBirth
p1734
assI1
(dp1735
I0
g1633
sI1
(lp1736
sI2
(lp1737
sI3
(lp1738
sI4
(lp1739
sI5
(lp1740
ssI2
(dp1741
I0
g1712
sI1
g1737
sI2
(lp1742
sI3
(lp1743
Vhttp://dbpedia.org/property/currencyCode
p1744
asI4
(lp1745
sI5
(lp1746
ssI3
(dp1747
I0
g1717
sI1
g1738
sI2
g1743
sI3
(lp1748
sI4
(lp1749
sI5
(lp1750
ssI4
(dp1751
I0
g1718
sI1
g1739
sI2
g1745
sI3
g1749
sI4
(lp1752
sI5
(lp1753
Vhttp://dbpedia.org/property/currencyCode
p1754
assI5
(dp1755
I0
g1721
sI1
g1740
sI2
g1746
sI3
g1750
sI4
g1753
sI5
(lp1756
ssa.