(lp1
(lp2
(dp3
Vstart
p4
I0
sVdisambiguatedURL
p5
NsVnamedEntity
p6
V5
sVoffset
p7
I1
saa(lp8
(dp9
Vstart
p10
I0
sVdisambiguatedURL
p11
NsVnamedEntity
p12
V5
sVoffset
p13
I1
saa(lp14
(dp15
Vstart
p16
I0
sVdisambiguatedURL
p17
NsVnamedEntity
p18
V5
sVoffset
p19
I1
saa(lp20
(dp21
Vstart
p22
I0
sVdisambiguatedURL
p23
NsVnamedEntity
p24
V10
p25
sVoffset
p26
I2
saa(lp27
(dp28
Vstart
p29
I0
sVdisambiguatedURL
p30
NsVnamedEntity
p31
V5
sVoffset
p32
I1
saa(lp33
(dp34
Vstart
p35
I0
sVdisambiguatedURL
p36
NsVnamedEntity
p37
V5
sVoffset
p38
I1
saa(lp39
(dp40
Vstart
p41
I0
sVdisambiguatedURL
p42
NsVnamedEntity
p43
V5
sVoffset
p44
I1
saa(lp45
(dp46
Vstart
p47
I0
sVdisambiguatedURL
p48
NsVnamedEntity
p49
V5
sVoffset
p50
I1
saa(lp51
(dp52
Vstart
p53
I0
sVdisambiguatedURL
p54
NsVnamedEntity
p55
V5
sVoffset
p56
I1
saa(lp57
(dp58
Vstart
p59
I0
sVdisambiguatedURL
p60
NsVnamedEntity
p61
V5
sVoffset
p62
I1
saa(lp63
(dp64
Vstart
p65
I0
sVdisambiguatedURL
p66
NsVnamedEntity
p67
V5
sVoffset
p68
I1
saa(lp69
(dp70
Vstart
p71
I0
sVdisambiguatedURL
p72
NsVnamedEntity
p73
V5
sVoffset
p74
I1
saa(lp75
(dp76
Vstart
p77
I0
sVdisambiguatedURL
p78
NsVnamedEntity
p79
V5
sVoffset
p80
I1
saa(lp81
(dp82
Vstart
p83
I0
sVdisambiguatedURL
p84
NsVnamedEntity
p85
V5
sVoffset
p86
I1
saa(lp87
(dp88
Vstart
p89
I0
sVdisambiguatedURL
p90
NsVnamedEntity
p91
V5
sVoffset
p92
I1
saa.