(lp1
(lp2
(lp3
a(lp4
a(lp5
a(lp6
aa(lp7
(lp8
a(lp9
a(lp10
a(lp11
aa(lp12
(lp13
a(lp14
a(lp15
a(lp16
aa(lp17
(lp18
Vhttp://dbpedia.org/resource/SDLP_Youth
p19
aa(lp20
a(lp21
a(lp22
aa(lp23
(lp24
a(lp25
a(lp26
a(lp27
aa(lp28
(lp29
Vhttp://dbpedia.org/resource/Green_party
p30
aa(lp31
a(lp32
a(lp33
aa(lp34
(lp35
a(lp36
a(lp37
a(lp38
aa(lp39
(lp40
a(lp41
a(lp42
a(lp43
aa(lp44
(lp45
Vhttp://dbpedia.org/resource/Newtownabbey_Ratepayers'_Association
p46
aa(lp47
a(lp48
a(lp49
aa(lp50
(lp51
a(lp52
a(lp53
a(lp54
aa(lp55
(lp56
Vhttp://dbpedia.org/resource/Conservative_Party
p57
aa(lp58
a(lp59
a(lp60
aa(lp61
(lp62
a(lp63
a(lp64
a(lp65
aa(lp66
(lp67
Vhttp://dbpedia.org/resource/Socialist_Party
p68
aa(lp69
a(lp70
a(lp71
aa(lp72
(lp73
a(lp74
a(lp75
a(lp76
aa(lp77
(lp78
a(lp79
a(lp80
a(lp81
aa(lp82
(lp83
Vhttp://dbpedia.org/resource/Independent_(politician)
p84
aa(lp85
a(lp86
a(lp87
aa(lp88
(lp89
a(lp90
a(lp91
a(lp92
aa.