(lp1
(lp2
(lp3
((lp4
Vhttp://www.w3.org/2002/07/owl#Thing
p5
aVhttp://dbpedia.org/ontology/Place
p6
aVhttp://dbpedia.org/ontology/Location
p7
aVhttp://www.wikidata.org/entity/Q486972
p8
aVhttp://www.wikidata.org/entity/Q6256
p9
aVhttp://dbpedia.org/ontology/Country
p10
aVhttp://dbpedia.org/ontology/PopulatedPlace
p11
aVhttp://www.w3.org/2003/01/geo/wgs84_pos#SpatialThing
p12
aVhttp://schema.org/Country
p13
aVhttp://schema.org/Place
p14
aVhttp://umbel.org/umbel/rc/Country
p15
aVhttp://umbel.org/umbel/rc/Location_Underspecified
p16
aVhttp://umbel.org/umbel/rc/PopulatedPlace
p17
aVhttp://dbpedia.org/class/yago/Abstraction100002137
p18
aVhttp://dbpedia.org/class/yago/AdministrativeDistrict108491826
p19
aVhttp://dbpedia.org/class/yago/Archipelago109203827
p20
aVhttp://dbpedia.org/class/yago/ArchipelagoesOfThePacificOcean
p21
aVhttp://dbpedia.org/class/yago/Country108544813
p22
aVhttp://dbpedia.org/class/yago/District108552138
p23
aVhttp://dbpedia.org/class/yago/Economy108366753
p24
aVhttp://dbpedia.org/class/yago/Group100031264
p25
aVhttp://dbpedia.org/class/yago/Land109334396
p26
aVhttp://dbpedia.org/class/yago/Location100027167
p27
aVhttp://dbpedia.org/class/yago/Object100002684
p28
aVhttp://dbpedia.org/class/yago/Region108630985
p29
aVhttp://dbpedia.org/class/yago/System108435388
p30
aVhttp://dbpedia.org/class/yago/YagoGeoEntity
p31
aVhttp://dbpedia.org/class/yago/YagoLegalActorGeo
p32
aVhttp://dbpedia.org/class/yago/English-speakingCountriesAndTerritories
p33
aVhttp://dbpedia.org/class/yago/PhysicalEntity100001930
p34
aVhttp://dbpedia.org/class/yago/YagoPermanentlyLocatedEntity
p35
aVhttp://dbpedia.org/class/yago/IslandCountries
p36
aVhttp://dbpedia.org/class/yago/MemberStatesOfTheCommonwealthOfNations
p37
aVhttp://dbpedia.org/class/yago/MemberStatesOfTheUnitedNations
p38
aVhttp://dbpedia.org/class/yago/OceanianCountries
p39
aVhttp://dbpedia.org/class/yago/StatesAndTerritoriesEstablishedIn1840
p40
aVhttp://dbpedia.org/class/yago/WorldTradeOrganizationMemberEconomies
p41
aVhttp://dbpedia.org/resource/New_Zealand
tp42
aa(lp43
a(lp44
((lp45
Vhttp://www.w3.org/2002/07/owl#Thing
p46
aVhttp://dbpedia.org/ontology/Place
p47
aVhttp://dbpedia.org/ontology/Location
p48
aVhttp://www.wikidata.org/entity/Q3957
p49
aVhttp://www.wikidata.org/entity/Q486972
p50
aVhttp://dbpedia.org/ontology/PopulatedPlace
p51
aVhttp://dbpedia.org/ontology/Settlement
p52
aVhttp://dbpedia.org/ontology/Town
p53
aVhttp://www.w3.org/2003/01/geo/wgs84_pos#SpatialThing
p54
aVhttp://schema.org/Place
p55
aVhttp://umbel.org/umbel/rc/Town
p56
aVhttp://dbpedia.org/class/yago/AdministrativeDistrict108491826
p57
aVhttp://dbpedia.org/class/yago/Area108497294
p58
aVhttp://dbpedia.org/class/yago/Center108523483
p59
aVhttp://dbpedia.org/class/yago/District108552138
p60
aVhttp://dbpedia.org/class/yago/Location100027167
p61
aVhttp://dbpedia.org/class/yago/Object100002684
p62
aVhttp://dbpedia.org/class/yago/Region108630985
p63
aVhttp://dbpedia.org/class/yago/Seat108647945
p64
aVhttp://dbpedia.org/class/yago/Site108651247
p65
aVhttp://dbpedia.org/class/yago/Town108665504
p66
aVhttp://dbpedia.org/class/yago/Tract108673395
p67
aVhttp://dbpedia.org/class/yago/UrbanArea108675967
p68
aVhttp://dbpedia.org/class/yago/YagoGeoEntity
p69
aVhttp://dbpedia.org/class/yago/YagoLegalActorGeo
p70
aVhttp://dbpedia.org/class/yago/CountySeat108547143
p71
aVhttp://dbpedia.org/class/yago/CountySeatsInIndiana
p72
aVhttp://dbpedia.org/class/yago/GeographicalArea108574314
p73
aVhttp://dbpedia.org/class/yago/Municipality108626283
p74
aVhttp://dbpedia.org/class/yago/PhysicalEntity100001930
p75
aVhttp://dbpedia.org/class/yago/YagoPermanentlyLocatedEntity
p76
aVhttp://dbpedia.org/class/yago/PopulatedPlacesInCrawfordCounty,Indiana
p77
aVhttp://dbpedia.org/class/yago/TownsInIndiana
p78
aVhttp://dbpedia.org/resource/English,_Indiana
tp79
aa(lp80
a(lp81
a(lp82
aa(lp83
(lp84
((lp85
Vhttp://www.w3.org/2002/07/owl#Thing
p86
aVhttp://dbpedia.org/ontology/Place
p87
aVhttp://dbpedia.org/ontology/Location
p88
aVhttp://www.wikidata.org/entity/Q486972
p89
aVhttp://www.wikidata.org/entity/Q6256
p90
aVhttp://dbpedia.org/ontology/Country
p91
aVhttp://dbpedia.org/ontology/PopulatedPlace
p92
aVhttp://www.w3.org/2003/01/geo/wgs84_pos#SpatialThing
p93
aVhttp://schema.org/Country
p94
aVhttp://schema.org/Place
p95
aVhttp://umbel.org/umbel/rc/Country
p96
aVhttp://umbel.org/umbel/rc/Location_Underspecified
p97
aVhttp://umbel.org/umbel/rc/PopulatedPlace
p98
aVhttp://dbpedia.org/class/yago/Abstraction100002137
p99
aVhttp://dbpedia.org/class/yago/AdministrativeDistrict108491826
p100
aVhttp://dbpedia.org/class/yago/Country108544813
p101
aVhttp://dbpedia.org/class/yago/District108552138
p102
aVhttp://dbpedia.org/class/yago/Economy108366753
p103
aVhttp://dbpedia.org/class/yago/Group100031264
p104
aVhttp://dbpedia.org/class/yago/Island109316454
p105
aVhttp://dbpedia.org/class/yago/Land109334396
p106
aVhttp://dbpedia.org/class/yago/Location100027167
p107
aVhttp://dbpedia.org/class/yago/Object100002684
p108
aVhttp://dbpedia.org/class/yago/Region108630985
p109
aVhttp://dbpedia.org/class/yago/System108435388
p110
aVhttp://dbpedia.org/class/yago/YagoGeoEntity
p111
aVhttp://dbpedia.org/class/yago/YagoLegalActorGeo
p112
aVhttp://dbpedia.org/class/yago/CountriesBorderingThePacificOcean
p113
aVhttp://dbpedia.org/class/yago/CountriesOfTheIndianOcean
p114
aVhttp://dbpedia.org/class/yago/English-speakingCountriesAndTerritories
p115
aVhttp://dbpedia.org/class/yago/FederalCountries
p116
aVhttp://dbpedia.org/class/yago/PhysicalEntity100001930
p117
aVhttp://dbpedia.org/class/yago/YagoPermanentlyLocatedEntity
p118
aVhttp://dbpedia.org/class/yago/Islands
p119
aVhttp://dbpedia.org/class/yago/MemberStatesOfTheCommonwealthOfNations
p120
aVhttp://dbpedia.org/class/yago/MemberStatesOfTheUnitedNations
p121
aVhttp://dbpedia.org/class/yago/OceanianCountries
p122
aVhttp://dbpedia.org/class/yago/StatesAndTerritoriesEstablishedIn1901
p123
aVhttp://dbpedia.org/class/yago/WorldTradeOrganizationMemberEconomies
p124
aVhttp://dbpedia.org/resource/Australia
tp125
aa(lp126
a(lp127
((lp128
Vhttp://www.w3.org/2002/07/owl#Thing
p129
aVhttp://dbpedia.org/ontology/Place
p130
aVhttp://dbpedia.org/ontology/Location
p131
aVhttp://www.wikidata.org/entity/Q3957
p132
aVhttp://www.wikidata.org/entity/Q486972
p133
aVhttp://dbpedia.org/ontology/PopulatedPlace
p134
aVhttp://dbpedia.org/ontology/Settlement
p135
aVhttp://dbpedia.org/ontology/Town
p136
aVhttp://www.w3.org/2003/01/geo/wgs84_pos#SpatialThing
p137
aVhttp://schema.org/Place
p138
aVhttp://umbel.org/umbel/rc/Town
p139
aVhttp://dbpedia.org/class/yago/AdministrativeDistrict108491826
p140
aVhttp://dbpedia.org/class/yago/Area108497294
p141
aVhttp://dbpedia.org/class/yago/Center108523483
p142
aVhttp://dbpedia.org/class/yago/District108552138
p143
aVhttp://dbpedia.org/class/yago/Location100027167
p144
aVhttp://dbpedia.org/class/yago/Object100002684
p145
aVhttp://dbpedia.org/class/yago/Region108630985
p146
aVhttp://dbpedia.org/class/yago/Seat108647945
p147
aVhttp://dbpedia.org/class/yago/Site108651247
p148
aVhttp://dbpedia.org/class/yago/Town108665504
p149
aVhttp://dbpedia.org/class/yago/Tract108673395
p150
aVhttp://dbpedia.org/class/yago/UrbanArea108675967
p151
aVhttp://dbpedia.org/class/yago/YagoGeoEntity
p152
aVhttp://dbpedia.org/class/yago/YagoLegalActorGeo
p153
aVhttp://dbpedia.org/class/yago/CountySeat108547143
p154
aVhttp://dbpedia.org/class/yago/CountySeatsInIndiana
p155
aVhttp://dbpedia.org/class/yago/GeographicalArea108574314
p156
aVhttp://dbpedia.org/class/yago/Municipality108626283
p157
aVhttp://dbpedia.org/class/yago/PhysicalEntity100001930
p158
aVhttp://dbpedia.org/class/yago/YagoPermanentlyLocatedEntity
p159
aVhttp://dbpedia.org/class/yago/PopulatedPlacesInCrawfordCounty,Indiana
p160
aVhttp://dbpedia.org/class/yago/TownsInIndiana
p161
aVhttp://dbpedia.org/resource/English,_Indiana
tp162
aa(lp163
a(lp164
a(lp165
aa(lp166
(lp167
((lp168
Vhttp://www.w3.org/2002/07/owl#Thing
p169
aVhttp://dbpedia.org/ontology/Place
p170
aVhttp://dbpedia.org/ontology/Location
p171
aVhttp://www.wikidata.org/entity/Q486972
p172
aVhttp://www.wikidata.org/entity/Q6256
p173
aVhttp://dbpedia.org/ontology/Country
p174
aVhttp://dbpedia.org/ontology/PopulatedPlace
p175
aVhttp://www.w3.org/2003/01/geo/wgs84_pos#SpatialThing
p176
aVhttp://schema.org/Country
p177
aVhttp://schema.org/Place
p178
aVhttp://umbel.org/umbel/rc/Country
p179
aVhttp://umbel.org/umbel/rc/Location_Underspecified
p180
aVhttp://umbel.org/umbel/rc/PopulatedPlace
p181
aVhttp://dbpedia.org/class/yago/Abstraction100002137
p182
aVhttp://dbpedia.org/class/yago/AdministrativeDistrict108491826
p183
aVhttp://dbpedia.org/class/yago/Country108544813
p184
aVhttp://dbpedia.org/class/yago/District108552138
p185
aVhttp://dbpedia.org/class/yago/Economy108366753
p186
aVhttp://dbpedia.org/class/yago/Group100031264
p187
aVhttp://dbpedia.org/class/yago/Location100027167
p188
aVhttp://dbpedia.org/class/yago/Object100002684
p189
aVhttp://dbpedia.org/class/yago/Region108630985
p190
aVhttp://dbpedia.org/class/yago/Site108651247
p191
aVhttp://dbpedia.org/class/yago/System108435388
p192
aVhttp://dbpedia.org/class/yago/Tract108673395
p193
aVhttp://dbpedia.org/class/yago/YagoGeoEntity
p194
aVhttp://dbpedia.org/class/yago/YagoLegalActorGeo
p195
aVhttp://dbpedia.org/class/yago/Chinese-speakingCountriesAndTerritories
p196
aVhttp://dbpedia.org/class/yago/CountriesBorderingTheSouthChinaSea
p197
aVhttp://dbpedia.org/class/yago/CountriesOfTheIndianOcean
p198
aVhttp://dbpedia.org/class/yago/Developing8CountriesMemberStates
p199
aVhttp://dbpedia.org/class/yago/English-speakingCountriesAndTerritories
p200
aVhttp://dbpedia.org/class/yago/FederalCountries
p201
aVhttp://dbpedia.org/class/yago/GeographicalArea108574314
p202
aVhttp://dbpedia.org/class/yago/PhysicalEntity100001930
p203
aVhttp://dbpedia.org/class/yago/YagoPermanentlyLocatedEntity
p204
aVhttp://dbpedia.org/class/yago/Malay-speakingCountriesAndTerritories
p205
aVhttp://dbpedia.org/class/yago/MemberStatesOfTheAssociationOfSoutheastAsianNations
p206
aVhttp://dbpedia.org/class/yago/MemberStatesOfTheCommonwealthOfNations
p207
aVhttp://dbpedia.org/class/yago/MemberStatesOfTheOrganisationOfIslamicCooperation
p208
aVhttp://dbpedia.org/class/yago/MemberStatesOfTheUnitedNations
p209
aVhttp://dbpedia.org/class/yago/SoutheastAsianCountries
p210
aVhttp://dbpedia.org/class/yago/StatesAndTerritoriesEstablishedIn1963
p211
aVhttp://dbpedia.org/class/yago/WorldTradeOrganizationMemberEconomies
p212
aVhttp://dbpedia.org/class/yago/WorldWarIISites
p213
aVhttp://dbpedia.org/resource/Malaysia
tp214
aa(lp215
a(lp216
((lp217
Vhttp://www.w3.org/2002/07/owl#Thing
p218
aVhttp://dbpedia.org/ontology/Place
p219
aVhttp://dbpedia.org/ontology/Location
p220
aVhttp://www.wikidata.org/entity/Q3957
p221
aVhttp://www.wikidata.org/entity/Q486972
p222
aVhttp://dbpedia.org/ontology/PopulatedPlace
p223
aVhttp://dbpedia.org/ontology/Settlement
p224
aVhttp://dbpedia.org/ontology/Town
p225
aVhttp://www.w3.org/2003/01/geo/wgs84_pos#SpatialThing
p226
aVhttp://schema.org/Place
p227
aVhttp://umbel.org/umbel/rc/Town
p228
aVhttp://dbpedia.org/class/yago/AdministrativeDistrict108491826
p229
aVhttp://dbpedia.org/class/yago/Area108497294
p230
aVhttp://dbpedia.org/class/yago/Center108523483
p231
aVhttp://dbpedia.org/class/yago/District108552138
p232
aVhttp://dbpedia.org/class/yago/Location100027167
p233
aVhttp://dbpedia.org/class/yago/Object100002684
p234
aVhttp://dbpedia.org/class/yago/Region108630985
p235
aVhttp://dbpedia.org/class/yago/Seat108647945
p236
aVhttp://dbpedia.org/class/yago/Site108651247
p237
aVhttp://dbpedia.org/class/yago/Town108665504
p238
aVhttp://dbpedia.org/class/yago/Tract108673395
p239
aVhttp://dbpedia.org/class/yago/UrbanArea108675967
p240
aVhttp://dbpedia.org/class/yago/YagoGeoEntity
p241
aVhttp://dbpedia.org/class/yago/YagoLegalActorGeo
p242
aVhttp://dbpedia.org/class/yago/CountySeat108547143
p243
aVhttp://dbpedia.org/class/yago/CountySeatsInIndiana
p244
aVhttp://dbpedia.org/class/yago/GeographicalArea108574314
p245
aVhttp://dbpedia.org/class/yago/Municipality108626283
p246
aVhttp://dbpedia.org/class/yago/PhysicalEntity100001930
p247
aVhttp://dbpedia.org/class/yago/YagoPermanentlyLocatedEntity
p248
aVhttp://dbpedia.org/class/yago/PopulatedPlacesInCrawfordCounty,Indiana
p249
aVhttp://dbpedia.org/class/yago/TownsInIndiana
p250
aVhttp://dbpedia.org/resource/English,_Indiana
tp251
aa(lp252
a(lp253
a(lp254
aa(lp255
(lp256
((lp257
Vhttp://www.w3.org/2002/07/owl#Thing
p258
aVhttp://dbpedia.org/ontology/Place
p259
aVhttp://dbpedia.org/ontology/Location
p260
aVhttp://www.wikidata.org/entity/Q486972
p261
aVhttp://www.wikidata.org/entity/Q6256
p262
aVhttp://dbpedia.org/ontology/Country
p263
aVhttp://dbpedia.org/ontology/PopulatedPlace
p264
aVhttp://www.w3.org/2003/01/geo/wgs84_pos#SpatialThing
p265
aVhttp://schema.org/Country
p266
aVhttp://schema.org/Place
p267
aVhttp://umbel.org/umbel/rc/Country
p268
aVhttp://umbel.org/umbel/rc/Location_Underspecified
p269
aVhttp://umbel.org/umbel/rc/PopulatedPlace
p270
aVhttp://dbpedia.org/class/yago/Abstraction100002137
p271
aVhttp://dbpedia.org/class/yago/AdministrativeDistrict108491826
p272
aVhttp://dbpedia.org/class/yago/Area108497294
p273
aVhttp://dbpedia.org/class/yago/Capital108518505
p274
aVhttp://dbpedia.org/class/yago/CapitalsInAsia
p275
aVhttp://dbpedia.org/class/yago/Center108523483
p276
aVhttp://dbpedia.org/class/yago/City108524735
p277
aVhttp://dbpedia.org/class/yago/Country108544813
p278
aVhttp://dbpedia.org/class/yago/District108552138
p279
aVhttp://dbpedia.org/class/yago/Economy108366753
p280
aVhttp://dbpedia.org/class/yago/Group100031264
p281
aVhttp://dbpedia.org/class/yago/Location100027167
p282
aVhttp://dbpedia.org/class/yago/Object100002684
p283
aVhttp://dbpedia.org/class/yago/Region108630985
p284
aVhttp://dbpedia.org/class/yago/Seat108647945
p285
aVhttp://dbpedia.org/class/yago/Site108651247
p286
aVhttp://dbpedia.org/class/yago/System108435388
p287
aVhttp://dbpedia.org/class/yago/Tract108673395
p288
aVhttp://dbpedia.org/class/yago/UrbanArea108675967
p289
aVhttp://dbpedia.org/class/yago/YagoGeoEntity
p290
aVhttp://dbpedia.org/class/yago/YagoLegalActorGeo
p291
aVhttp://dbpedia.org/class/yago/Chinese-speakingCountriesAndTerritories
p292
aVhttp://dbpedia.org/class/yago/CountriesBorderingTheSouthChinaSea
p293
aVhttp://dbpedia.org/class/yago/English-speakingCountriesAndTerritories
p294
aVhttp://dbpedia.org/class/yago/GeographicalArea108574314
p295
aVhttp://dbpedia.org/class/yago/Municipality108626283
p296
aVhttp://dbpedia.org/class/yago/PhysicalEntity100001930
p297
aVhttp://dbpedia.org/class/yago/YagoPermanentlyLocatedEntity
p298
aVhttp://dbpedia.org/class/yago/IslandCountries
p299
aVhttp://dbpedia.org/class/yago/Malay-speakingCountriesAndTerritories
p300
aVhttp://dbpedia.org/class/yago/MemberStatesOfTheAssociationOfSoutheastAsianNations
p301
aVhttp://dbpedia.org/class/yago/MemberStatesOfTheCommonwealthOfNations
p302
aVhttp://dbpedia.org/class/yago/MemberStatesOfTheUnitedNations
p303
aVhttp://dbpedia.org/class/yago/PopulatedCoastalPlaces
p304
aVhttp://dbpedia.org/class/yago/SoutheastAsianCountries
p305
aVhttp://dbpedia.org/class/yago/StatesAndTerritoriesEstablishedIn1965
p306
aVhttp://dbpedia.org/class/yago/Tamil-speakingCountriesAndTerritories
p307
aVhttp://dbpedia.org/class/yago/WorldTradeOrganizationMemberEconomies
p308
aVhttp://dbpedia.org/class/yago/YouthOlympicGamesHostCities
p309
aVhttp://dbpedia.org/resource/Singapore
tp310
aa(lp311
a(lp312
((lp313
Vhttp://www.w3.org/2002/07/owl#Thing
p314
aVhttp://dbpedia.org/ontology/Place
p315
aVhttp://dbpedia.org/ontology/Location
p316
aVhttp://www.wikidata.org/entity/Q3957
p317
aVhttp://www.wikidata.org/entity/Q486972
p318
aVhttp://dbpedia.org/ontology/PopulatedPlace
p319
aVhttp://dbpedia.org/ontology/Settlement
p320
aVhttp://dbpedia.org/ontology/Town
p321
aVhttp://www.w3.org/2003/01/geo/wgs84_pos#SpatialThing
p322
aVhttp://schema.org/Place
p323
aVhttp://umbel.org/umbel/rc/Town
p324
aVhttp://dbpedia.org/class/yago/AdministrativeDistrict108491826
p325
aVhttp://dbpedia.org/class/yago/Area108497294
p326
aVhttp://dbpedia.org/class/yago/Center108523483
p327
aVhttp://dbpedia.org/class/yago/District108552138
p328
aVhttp://dbpedia.org/class/yago/Location100027167
p329
aVhttp://dbpedia.org/class/yago/Object100002684
p330
aVhttp://dbpedia.org/class/yago/Region108630985
p331
aVhttp://dbpedia.org/class/yago/Seat108647945
p332
aVhttp://dbpedia.org/class/yago/Site108651247
p333
aVhttp://dbpedia.org/class/yago/Town108665504
p334
aVhttp://dbpedia.org/class/yago/Tract108673395
p335
aVhttp://dbpedia.org/class/yago/UrbanArea108675967
p336
aVhttp://dbpedia.org/class/yago/YagoGeoEntity
p337
aVhttp://dbpedia.org/class/yago/YagoLegalActorGeo
p338
aVhttp://dbpedia.org/class/yago/CountySeat108547143
p339
aVhttp://dbpedia.org/class/yago/CountySeatsInIndiana
p340
aVhttp://dbpedia.org/class/yago/GeographicalArea108574314
p341
aVhttp://dbpedia.org/class/yago/Municipality108626283
p342
aVhttp://dbpedia.org/class/yago/PhysicalEntity100001930
p343
aVhttp://dbpedia.org/class/yago/YagoPermanentlyLocatedEntity
p344
aVhttp://dbpedia.org/class/yago/PopulatedPlacesInCrawfordCounty,Indiana
p345
aVhttp://dbpedia.org/class/yago/TownsInIndiana
p346
aVhttp://dbpedia.org/resource/English,_Indiana
tp347
aa(lp348
a(lp349
a(lp350
aa(lp351
(lp352
((lp353
Vhttp://www.w3.org/2002/07/owl#Thing
p354
aVhttp://dbpedia.org/ontology/Place
p355
aVhttp://dbpedia.org/ontology/Location
p356
aVhttp://www.wikidata.org/entity/Q486972
p357
aVhttp://www.wikidata.org/entity/Q6256
p358
aVhttp://dbpedia.org/ontology/Country
p359
aVhttp://dbpedia.org/ontology/PopulatedPlace
p360
aVhttp://www.w3.org/2003/01/geo/wgs84_pos#SpatialThing
p361
aVhttp://schema.org/Country
p362
aVhttp://schema.org/Place
p363
aVhttp://umbel.org/umbel/rc/Country
p364
aVhttp://umbel.org/umbel/rc/Location_Underspecified
p365
aVhttp://umbel.org/umbel/rc/PopulatedPlace
p366
aVhttp://dbpedia.org/class/yago/Abstraction100002137
p367
aVhttp://dbpedia.org/class/yago/AdministrativeDistrict108491826
p368
aVhttp://dbpedia.org/class/yago/Country108544813
p369
aVhttp://dbpedia.org/class/yago/District108552138
p370
aVhttp://dbpedia.org/class/yago/Economy108366753
p371
aVhttp://dbpedia.org/class/yago/Group100031264
p372
aVhttp://dbpedia.org/class/yago/Location100027167
p373
aVhttp://dbpedia.org/class/yago/Object100002684
p374
aVhttp://dbpedia.org/class/yago/Region108630985
p375
aVhttp://dbpedia.org/class/yago/System108435388
p376
aVhttp://dbpedia.org/class/yago/YagoGeoEntity
p377
aVhttp://dbpedia.org/class/yago/YagoLegalActorGeo
p378
aVhttp://dbpedia.org/class/yago/CountriesBorderingTheSouthChinaSea
p379
aVhttp://dbpedia.org/class/yago/CountriesOfTheIndianOcean
p380
aVhttp://dbpedia.org/class/yago/PhysicalEntity100001930
p381
aVhttp://dbpedia.org/class/yago/YagoPermanentlyLocatedEntity
p382
aVhttp://dbpedia.org/class/yago/MemberStatesOfTheAssociationOfSoutheastAsianNations
p383
aVhttp://dbpedia.org/class/yago/MemberStatesOfTheUnitedNations
p384
aVhttp://dbpedia.org/class/yago/SoutheastAsianCountries
p385
aVhttp://dbpedia.org/class/yago/WorldTradeOrganizationMemberEconomies
p386
aVhttp://dbpedia.org/resource/Thailand
tp387
aa(lp388
a(lp389
((lp390
Vhttp://www.w3.org/2002/07/owl#Thing
p391
aVhttp://dbpedia.org/ontology/Place
p392
aVhttp://dbpedia.org/ontology/Location
p393
aVhttp://www.wikidata.org/entity/Q3957
p394
aVhttp://www.wikidata.org/entity/Q486972
p395
aVhttp://dbpedia.org/ontology/PopulatedPlace
p396
aVhttp://dbpedia.org/ontology/Settlement
p397
aVhttp://dbpedia.org/ontology/Town
p398
aVhttp://www.w3.org/2003/01/geo/wgs84_pos#SpatialThing
p399
aVhttp://schema.org/Place
p400
aVhttp://umbel.org/umbel/rc/Town
p401
aVhttp://dbpedia.org/class/yago/AdministrativeDistrict108491826
p402
aVhttp://dbpedia.org/class/yago/Area108497294
p403
aVhttp://dbpedia.org/class/yago/Center108523483
p404
aVhttp://dbpedia.org/class/yago/District108552138
p405
aVhttp://dbpedia.org/class/yago/Location100027167
p406
aVhttp://dbpedia.org/class/yago/Object100002684
p407
aVhttp://dbpedia.org/class/yago/Region108630985
p408
aVhttp://dbpedia.org/class/yago/Seat108647945
p409
aVhttp://dbpedia.org/class/yago/Site108651247
p410
aVhttp://dbpedia.org/class/yago/Town108665504
p411
aVhttp://dbpedia.org/class/yago/Tract108673395
p412
aVhttp://dbpedia.org/class/yago/UrbanArea108675967
p413
aVhttp://dbpedia.org/class/yago/YagoGeoEntity
p414
aVhttp://dbpedia.org/class/yago/YagoLegalActorGeo
p415
aVhttp://dbpedia.org/class/yago/CountySeat108547143
p416
aVhttp://dbpedia.org/class/yago/CountySeatsInIndiana
p417
aVhttp://dbpedia.org/class/yago/GeographicalArea108574314
p418
aVhttp://dbpedia.org/class/yago/Municipality108626283
p419
aVhttp://dbpedia.org/class/yago/PhysicalEntity100001930
p420
aVhttp://dbpedia.org/class/yago/YagoPermanentlyLocatedEntity
p421
aVhttp://dbpedia.org/class/yago/PopulatedPlacesInCrawfordCounty,Indiana
p422
aVhttp://dbpedia.org/class/yago/TownsInIndiana
p423
aVhttp://dbpedia.org/resource/English,_Indiana
tp424
aa(lp425
a(lp426
a(lp427
aa(lp428
(lp429
((lp430
Vhttp://www.w3.org/2002/07/owl#Thing
p431
aVhttp://dbpedia.org/ontology/Place
p432
aVhttp://dbpedia.org/ontology/Location
p433
aVhttp://www.wikidata.org/entity/Q486972
p434
aVhttp://www.wikidata.org/entity/Q6256
p435
aVhttp://dbpedia.org/ontology/Country
p436
aVhttp://dbpedia.org/ontology/PopulatedPlace
p437
aVhttp://www.w3.org/2003/01/geo/wgs84_pos#SpatialThing
p438
aVhttp://schema.org/Country
p439
aVhttp://schema.org/Place
p440
aVhttp://umbel.org/umbel/rc/Island
p441
aVhttp://umbel.org/umbel/rc/Location_Underspecified
p442
aVhttp://umbel.org/umbel/rc/PopulatedPlace
p443
aVhttp://dbpedia.org/class/yago/Abstraction100002137
p444
aVhttp://dbpedia.org/class/yago/AdministrativeDistrict108491826
p445
aVhttp://dbpedia.org/class/yago/Country108544813
p446
aVhttp://dbpedia.org/class/yago/District108552138
p447
aVhttp://dbpedia.org/class/yago/Economy108366753
p448
aVhttp://dbpedia.org/class/yago/Group100031264
p449
aVhttp://dbpedia.org/class/yago/Location100027167
p450
aVhttp://dbpedia.org/class/yago/Object100002684
p451
aVhttp://dbpedia.org/class/yago/Region108630985
p452
aVhttp://dbpedia.org/class/yago/System108435388
p453
aVhttp://dbpedia.org/class/yago/YagoGeoEntity
p454
aVhttp://dbpedia.org/class/yago/YagoLegalActorGeo
p455
aVhttp://dbpedia.org/class/yago/Chinese-speakingCountriesAndTerritories
p456
aVhttp://dbpedia.org/class/yago/CountriesBorderingThePacificOcean
p457
aVhttp://dbpedia.org/class/yago/CountriesBorderingThePhilippineSea
p458
aVhttp://dbpedia.org/class/yago/CountriesBorderingTheSouthChinaSea
p459
aVhttp://dbpedia.org/class/yago/EastAsianCountries
p460
aVhttp://dbpedia.org/class/yago/FormerMemberStatesOfTheUnitedNations
p461
aVhttp://dbpedia.org/class/yago/PhysicalEntity100001930
p462
aVhttp://dbpedia.org/class/yago/YagoPermanentlyLocatedEntity
p463
aVhttp://dbpedia.org/class/yago/IslandCountries
p464
aVhttp://dbpedia.org/class/yago/StatesAndTerritoriesEstablishedIn1912
p465
aVhttp://dbpedia.org/class/yago/UnrecognizedOrLargelyUnrecognizedStates
p466
aVhttp://dbpedia.org/class/yago/WorldTradeOrganizationMemberEconomies
p467
aVhttp://dbpedia.org/resource/Taiwan
tp468
aa(lp469
a(lp470
((lp471
Vhttp://dbpedia.org/class/yago/Abstraction100002137
p472
aVhttp://dbpedia.org/class/yago/Code106667317
p473
aVhttp://dbpedia.org/class/yago/Communication100033020
p474
aVhttp://dbpedia.org/class/yago/LegalCode106667792
p475
aVhttp://dbpedia.org/class/yago/WrittenCommunication106349220
p476
aVhttp://dbpedia.org/class/yago/LegalCodes
p477
aVhttp://dbpedia.org/resource/Traditional_Chinese_law
tp478
aa(lp479
a(lp480
a(lp481
aa(lp482
(lp483
((lp484
Vhttp://www.w3.org/2002/07/owl#Thing
p485
aVhttp://dbpedia.org/ontology/Place
p486
aVhttp://dbpedia.org/ontology/Location
p487
aVhttp://www.wikidata.org/entity/Q486972
p488
aVhttp://www.wikidata.org/entity/Q6256
p489
aVhttp://dbpedia.org/ontology/Country
p490
aVhttp://dbpedia.org/ontology/PopulatedPlace
p491
aVhttp://www.w3.org/2003/01/geo/wgs84_pos#SpatialThing
p492
aVhttp://schema.org/Country
p493
aVhttp://schema.org/Place
p494
aVhttp://umbel.org/umbel/rc/Country
p495
aVhttp://umbel.org/umbel/rc/Location_Underspecified
p496
aVhttp://umbel.org/umbel/rc/PopulatedPlace
p497
aVhttp://dbpedia.org/class/yago/Abstraction100002137
p498
aVhttp://dbpedia.org/class/yago/AdministrativeDistrict108491826
p499
aVhttp://dbpedia.org/class/yago/Country108544813
p500
aVhttp://dbpedia.org/class/yago/District108552138
p501
aVhttp://dbpedia.org/class/yago/Economy108366753
p502
aVhttp://dbpedia.org/class/yago/Group100031264
p503
aVhttp://dbpedia.org/class/yago/Island109316454
p504
aVhttp://dbpedia.org/class/yago/Land109334396
p505
aVhttp://dbpedia.org/class/yago/Location100027167
p506
aVhttp://dbpedia.org/class/yago/Object100002684
p507
aVhttp://dbpedia.org/class/yago/Region108630985
p508
aVhttp://dbpedia.org/class/yago/System108435388
p509
aVhttp://dbpedia.org/class/yago/YagoGeoEntity
p510
aVhttp://dbpedia.org/class/yago/YagoLegalActorGeo
p511
aVhttp://dbpedia.org/class/yago/CountriesBorderingThePacificOcean
p512
aVhttp://dbpedia.org/class/yago/CountriesBorderingThePhilippineSea
p513
aVhttp://dbpedia.org/class/yago/CountriesBorderingTheSouthChinaSea
p514
aVhttp://dbpedia.org/class/yago/English-speakingCountriesAndTerritories
p515
aVhttp://dbpedia.org/class/yago/PhysicalEntity100001930
p516
aVhttp://dbpedia.org/class/yago/YagoPermanentlyLocatedEntity
p517
aVhttp://dbpedia.org/class/yago/IslandCountries
p518
aVhttp://dbpedia.org/class/yago/MemberStatesOfTheAssociationOfSoutheastAsianNations
p519
aVhttp://dbpedia.org/class/yago/MemberStatesOfTheUnitedNations
p520
aVhttp://dbpedia.org/class/yago/SoutheastAsianCountries
p521
aVhttp://dbpedia.org/class/yago/StatesAndTerritoriesEstablishedIn1565
p522
aVhttp://dbpedia.org/class/yago/StatesAndTerritoriesEstablishedIn1898
p523
aVhttp://dbpedia.org/class/yago/StatesAndTerritoriesEstablishedIn1946
p524
aVhttp://dbpedia.org/class/yago/VolcanicArcIslands
p525
aVhttp://dbpedia.org/class/yago/WorldTradeOrganizationMemberEconomies
p526
aVhttp://dbpedia.org/resource/Philippines
tp527
aa(lp528
a(lp529
((lp530
Vhttp://www.w3.org/2002/07/owl#Thing
p531
aVhttp://dbpedia.org/ontology/Place
p532
aVhttp://dbpedia.org/ontology/Location
p533
aVhttp://www.wikidata.org/entity/Q3957
p534
aVhttp://www.wikidata.org/entity/Q486972
p535
aVhttp://dbpedia.org/ontology/PopulatedPlace
p536
aVhttp://dbpedia.org/ontology/Settlement
p537
aVhttp://dbpedia.org/ontology/Town
p538
aVhttp://www.w3.org/2003/01/geo/wgs84_pos#SpatialThing
p539
aVhttp://schema.org/Place
p540
aVhttp://umbel.org/umbel/rc/Town
p541
aVhttp://dbpedia.org/class/yago/AdministrativeDistrict108491826
p542
aVhttp://dbpedia.org/class/yago/Area108497294
p543
aVhttp://dbpedia.org/class/yago/Center108523483
p544
aVhttp://dbpedia.org/class/yago/District108552138
p545
aVhttp://dbpedia.org/class/yago/Location100027167
p546
aVhttp://dbpedia.org/class/yago/Object100002684
p547
aVhttp://dbpedia.org/class/yago/Region108630985
p548
aVhttp://dbpedia.org/class/yago/Seat108647945
p549
aVhttp://dbpedia.org/class/yago/Site108651247
p550
aVhttp://dbpedia.org/class/yago/Town108665504
p551
aVhttp://dbpedia.org/class/yago/Tract108673395
p552
aVhttp://dbpedia.org/class/yago/UrbanArea108675967
p553
aVhttp://dbpedia.org/class/yago/YagoGeoEntity
p554
aVhttp://dbpedia.org/class/yago/YagoLegalActorGeo
p555
aVhttp://dbpedia.org/class/yago/CountySeat108547143
p556
aVhttp://dbpedia.org/class/yago/CountySeatsInIndiana
p557
aVhttp://dbpedia.org/class/yago/GeographicalArea108574314
p558
aVhttp://dbpedia.org/class/yago/Municipality108626283
p559
aVhttp://dbpedia.org/class/yago/PhysicalEntity100001930
p560
aVhttp://dbpedia.org/class/yago/YagoPermanentlyLocatedEntity
p561
aVhttp://dbpedia.org/class/yago/PopulatedPlacesInCrawfordCounty,Indiana
p562
aVhttp://dbpedia.org/class/yago/TownsInIndiana
p563
aVhttp://dbpedia.org/resource/English,_Indiana
tp564
aa(lp565
a(lp566
a(lp567
aa(lp568
(lp569
((lp570
Vhttp://www.w3.org/2002/07/owl#Thing
p571
aVhttp://dbpedia.org/ontology/Place
p572
aVhttp://dbpedia.org/ontology/Location
p573
aVhttp://www.wikidata.org/entity/Q486972
p574
aVhttp://www.wikidata.org/entity/Q6256
p575
aVhttp://dbpedia.org/ontology/Country
p576
aVhttp://dbpedia.org/ontology/PopulatedPlace
p577
aVhttp://www.w3.org/2003/01/geo/wgs84_pos#SpatialThing
p578
aVhttp://schema.org/Country
p579
aVhttp://schema.org/Place
p580
aVhttp://umbel.org/umbel/rc/Country
p581
aVhttp://umbel.org/umbel/rc/Location_Underspecified
p582
aVhttp://umbel.org/umbel/rc/PopulatedPlace
p583
aVhttp://dbpedia.org/class/yago/Abstraction100002137
p584
aVhttp://dbpedia.org/class/yago/AdministrativeDistrict108491826
p585
aVhttp://dbpedia.org/class/yago/Country108544813
p586
aVhttp://dbpedia.org/class/yago/District108552138
p587
aVhttp://dbpedia.org/class/yago/Economy108366753
p588
aVhttp://dbpedia.org/class/yago/Group100031264
p589
aVhttp://dbpedia.org/class/yago/Location100027167
p590
aVhttp://dbpedia.org/class/yago/Object100002684
p591
aVhttp://dbpedia.org/class/yago/Region108630985
p592
aVhttp://dbpedia.org/class/yago/System108435388
p593
aVhttp://dbpedia.org/class/yago/YagoGeoEntity
p594
aVhttp://dbpedia.org/class/yago/YagoLegalActorGeo
p595
aVhttp://dbpedia.org/class/yago/CountriesOfTheIndianOcean
p596
aVhttp://dbpedia.org/class/yago/FederalCountries
p597
aVhttp://dbpedia.org/class/yago/PhysicalEntity100001930
p598
aVhttp://dbpedia.org/class/yago/YagoPermanentlyLocatedEntity
p599
aVhttp://dbpedia.org/class/yago/MemberStatesOfTheCommonwealthOfNations
p600
aVhttp://dbpedia.org/class/yago/MemberStatesOfTheSouthAsianAssociationForRegionalCooperation
p601
aVhttp://dbpedia.org/class/yago/MemberStatesOfTheUnitedNations
p602
aVhttp://dbpedia.org/class/yago/SouthAsianCountries
p603
aVhttp://dbpedia.org/class/yago/StatesAndTerritoriesEstablishedIn1947
p604
aVhttp://dbpedia.org/class/yago/WorldTradeOrganizationMemberEconomies
p605
aVhttp://dbpedia.org/resource/India
tp606
aa(lp607
a(lp608
((lp609
Vhttp://www.w3.org/2002/07/owl#Thing
p610
aVhttp://dbpedia.org/ontology/Place
p611
aVhttp://dbpedia.org/ontology/Location
p612
aVhttp://www.wikidata.org/entity/Q3957
p613
aVhttp://www.wikidata.org/entity/Q486972
p614
aVhttp://dbpedia.org/ontology/PopulatedPlace
p615
aVhttp://dbpedia.org/ontology/Settlement
p616
aVhttp://dbpedia.org/ontology/Town
p617
aVhttp://www.w3.org/2003/01/geo/wgs84_pos#SpatialThing
p618
aVhttp://schema.org/Place
p619
aVhttp://umbel.org/umbel/rc/Town
p620
aVhttp://dbpedia.org/class/yago/AdministrativeDistrict108491826
p621
aVhttp://dbpedia.org/class/yago/Area108497294
p622
aVhttp://dbpedia.org/class/yago/Center108523483
p623
aVhttp://dbpedia.org/class/yago/District108552138
p624
aVhttp://dbpedia.org/class/yago/Location100027167
p625
aVhttp://dbpedia.org/class/yago/Object100002684
p626
aVhttp://dbpedia.org/class/yago/Region108630985
p627
aVhttp://dbpedia.org/class/yago/Seat108647945
p628
aVhttp://dbpedia.org/class/yago/Site108651247
p629
aVhttp://dbpedia.org/class/yago/Town108665504
p630
aVhttp://dbpedia.org/class/yago/Tract108673395
p631
aVhttp://dbpedia.org/class/yago/UrbanArea108675967
p632
aVhttp://dbpedia.org/class/yago/YagoGeoEntity
p633
aVhttp://dbpedia.org/class/yago/YagoLegalActorGeo
p634
aVhttp://dbpedia.org/class/yago/CountySeat108547143
p635
aVhttp://dbpedia.org/class/yago/CountySeatsInIndiana
p636
aVhttp://dbpedia.org/class/yago/GeographicalArea108574314
p637
aVhttp://dbpedia.org/class/yago/Municipality108626283
p638
aVhttp://dbpedia.org/class/yago/PhysicalEntity100001930
p639
aVhttp://dbpedia.org/class/yago/YagoPermanentlyLocatedEntity
p640
aVhttp://dbpedia.org/class/yago/PopulatedPlacesInCrawfordCounty,Indiana
p641
aVhttp://dbpedia.org/class/yago/TownsInIndiana
p642
aVhttp://dbpedia.org/resource/English,_Indiana
p643
tp644
aa(lp645
a(lp646
a(lp647
aa.