(lp1
(lp2
a(lp3
a(lp4
a(lp5
a(lp6
a(lp7
a(lp8
a(lp9
(dp10
Vstart
p11
I0
sS'classes'
p12
(lp13
Vhttp://www.w3.org/2002/07/owl#Thing
p14
aVhttp://dbpedia.org/ontology/Place
p15
aVhttp://dbpedia.org/ontology/Location
p16
aVhttp://www.wikidata.org/entity/Q34442
p17
aVhttp://dbpedia.org/ontology/ArchitecturalStructure
p18
aVhttp://dbpedia.org/ontology/Infrastructure
p19
aVhttp://dbpedia.org/ontology/Road
p20
aVhttp://dbpedia.org/ontology/RouteOfTransportation
p21
aVhttp://schema.org/Place
p22
aVhttp://umbel.org/umbel/rc/Facility_Construct
p23
aVhttp://umbel.org/umbel/rc/Street_Generic
p24
asVdisambiguatedURL
p25
Vhttp://dbpedia.org/resource/U.S._Route_11_in_Maryland
p26
sVnamedEntity
p27
VMaryland(1)
p28
sVoffset
p29
I11
saa.