(lp1
(dp2
I0
(dp3
I0
(lp4
sI1
(lp5
sI2
(lp6
sI3
(lp7
ssI1
(dp8
I0
g5
sI1
(lp9
sI2
(lp10
sI3
(lp11
Vhttp://www.w3.org/ns/prov#wasDerivedFrom
p12
aVhttp://dbpedia.org/property/hasPhotoCollection
p13
aVhttp://dbpedia.org/ontology/thumbnail
p14
assI2
(dp15
I0
g6
sI1
g10
sI2
(lp16
sI3
(lp17
ssI3
(dp18
I0
g7
sI1
g11
sI2
g17
sI3
(lp19
ssa(dp20
I0
(dp21
I0
(lp22
sI1
(lp23
sI2
(lp24
sI3
(lp25
Vhttp://dbpedia.org/ontology/wikiPageExternalLink
p26
aVhttp://dbpedia.org/property/constructionCost
p27
aVhttp://dbpedia.org/ontology/cost
p28
aVhttp://www.w3.org/2000/01/rdf-schema#comment
p29
aVhttp://dbpedia.org/ontology/abstract
p30
aVhttp://dbpedia.org/property/ballpark
p31
aVhttp://www.w3.org/ns/prov#wasDerivedFrom
p32
aVhttp://www.w3.org/1999/02/22-rdf-syntax-ns#type
p33
aVhttp://www.w3.org/2002/07/owl#sameAs
p34
assI1
(dp35
I0
g23
sI1
(lp36
sI2
(lp37
sI3
(lp38
ssI2
(dp39
I0
g24
sI1
g37
sI2
(lp40
sI3
(lp41
ssI3
(dp42
I0
g25
sI1
g38
sI2
g41
sI3
(lp43
ssa(dp44
I0
(dp45
I0
(lp46
sI1
(lp47
sI2
(lp48
sI3
(lp49
ssI1
(dp50
I0
g47
sI1
(lp51
sI2
(lp52
sI3
(lp53
ssI2
(dp54
I0
g48
sI1
g52
sI2
(lp55
sI3
(lp56
ssI3
(dp57
I0
g49
sI1
g53
sI2
g56
sI3
(lp58
ssa(dp59
I0
(dp60
I0
(lp61
sI1
(lp62
sI2
(lp63
sI3
(lp64
ssI1
(dp65
I0
g62
sI1
(lp66
sI2
(lp67
sI3
(lp68
ssI2
(dp69
I0
g63
sI1
g67
sI2
(lp70
sI3
(lp71
ssI3
(dp72
I0
g64
sI1
g68
sI2
g71
sI3
(lp73
ssa(dp74
I0
(dp75
I0
(lp76
sI1
(lp77
sI2
(lp78
sI3
(lp79
Vhttp://dbpedia.org/ontology/wikiPageExternalLink
p80
aVhttp://www.w3.org/1999/02/22-rdf-syntax-ns#type
p81
aVhttp://www.w3.org/2000/01/rdf-schema#comment
p82
aVhttp://dbpedia.org/ontology/revenue
p83
aVhttp://dbpedia.org/ontology/abstract
p84
aVhttp://xmlns.com/foaf/0.1/depiction
p85
aVhttp://dbpedia.org/property/wordnet_type
p86
aVhttp://purl.org/voc/vrank#hasRank
p87
aVhttp://dbpedia.org/ontology/thumbnail
p88
aVhttp://www.w3.org/ns/prov#wasDerivedFrom
p89
aVhttp://www.w3.org/2002/07/owl#sameAs
p90
aVhttp://dbpedia.org/property/revenue
p91
assI1
(dp92
I0
g77
sI1
(lp93
sI2
(lp94
sI3
(lp95
ssI2
(dp96
I0
g78
sI1
g94
sI2
(lp97
sI3
(lp98
ssI3
(dp99
I0
g79
sI1
g95
sI2
g98
sI3
(lp100
ssa(dp101
I0
(dp102
I0
(lp103
sI1
(lp104
sI2
(lp105
sI3
(lp106
ssI1
(dp107
I0
g104
sI1
(lp108
sI2
(lp109
sI3
(lp110
ssI2
(dp111
I0
g105
sI1
g109
sI2
(lp112
sI3
(lp113
ssI3
(dp114
I0
g106
sI1
g110
sI2
g113
sI3
(lp115
ssa(dp116
I0
(dp117
I0
(lp118
sI1
(lp119
sI2
(lp120
sI3
(lp121
Vhttp://www.w3.org/1999/02/22-rdf-syntax-ns#type
p122
aVhttp://purl.org/dc/terms/subject
p123
aVhttp://www.w3.org/2000/01/rdf-schema#comment
p124
aVhttp://dbpedia.org/ontology/abstract
p125
aVhttp://purl.org/voc/vrank#hasRank
p126
aVhttp://www.w3.org/2002/07/owl#sameAs
p127
assI1
(dp128
I0
g119
sI1
(lp129
sI2
(lp130
sI3
(lp131
ssI2
(dp132
I0
g120
sI1
g130
sI2
(lp133
sI3
(lp134
ssI3
(dp135
I0
g121
sI1
g131
sI2
g134
sI3
(lp136
ssa(dp137
I0
(dp138
I0
(lp139
sI1
(lp140
sI2
(lp141
sI3
(lp142
ssI1
(dp143
I0
g140
sI1
(lp144
sI2
(lp145
sI3
(lp146
ssI2
(dp147
I0
g141
sI1
g145
sI2
(lp148
sI3
(lp149
ssI3
(dp150
I0
g142
sI1
g146
sI2
g149
sI3
(lp151
ssa(dp152
I0
(dp153
I0
(lp154
sI1
(lp155
Vhttp://dbpedia.org/ontology/abstract
p156
asI2
(lp157
sI3
(lp158
Vhttp://www.w3.org/1999/02/22-rdf-syntax-ns#type
p159
aVhttp://www.w3.org/2000/01/rdf-schema#comment
p160
aVhttp://dbpedia.org/ontology/abstract
p161
aVhttp://dbpedia.org/property/hoovers
p162
aVhttp://purl.org/voc/vrank#hasRank
p163
aVhttp://www.w3.org/ns/prov#wasDerivedFrom
p164
aVhttp://dbpedia.org/ontology/viafId
p165
aVhttp://www.w3.org/2002/07/owl#sameAs
p166
assI1
(dp167
I0
g155
sI1
(lp168
sI2
(lp169
sI3
(lp170
Vhttp://dbpedia.org/ontology/wikiPageExternalLink
p171
aVhttp://dbpedia.org/property/available
p172
aVhttp://purl.org/voc/vrank#hasRank
p173
aVhttp://www.w3.org/ns/prov#wasDerivedFrom
p174
aVhttp://www.w3.org/2002/07/owl#sameAs
p175
aVhttp://dbpedia.org/ontology/broadcastArea
p176
assI2
(dp177
I0
g157
sI1
g169
sI2
(lp178
sI3
(lp179
ssI3
(dp180
I0
g158
sI1
g170
sI2
g179
sI3
(lp181
ssa(dp182
I0
(dp183
I0
(lp184
sI1
(lp185
sI2
(lp186
sI3
(lp187
ssI1
(dp188
I0
g185
sI1
(lp189
sI2
(lp190
sI3
(lp191
ssI2
(dp192
I0
g186
sI1
g190
sI2
(lp193
sI3
(lp194
ssI3
(dp195
I0
g187
sI1
g191
sI2
g194
sI3
(lp196
ssa(dp197
I0
(dp198
I0
(lp199
sI1
(lp200
sI2
(lp201
sI3
(lp202
ssI1
(dp203
I0
g200
sI1
(lp204
sI2
(lp205
sI3
(lp206
ssI2
(dp207
I0
g201
sI1
g205
sI2
(lp208
sI3
(lp209
ssI3
(dp210
I0
g202
sI1
g206
sI2
g209
sI3
(lp211
ssa(dp212
I0
(dp213
I0
(lp214
sI1
(lp215
sI2
(lp216
sI3
(lp217
ssI1
(dp218
I0
g215
sI1
(lp219
sI2
(lp220
sI3
(lp221
ssI2
(dp222
I0
g216
sI1
g220
sI2
(lp223
sI3
(lp224
ssI3
(dp225
I0
g217
sI1
g221
sI2
g224
sI3
(lp226
ssa(dp227
I0
(dp228
I0
(lp229
sI1
(lp230
sI2
(lp231
sI3
(lp232
Vhttp://www.w3.org/1999/02/22-rdf-syntax-ns#type
p233
aVhttp://purl.org/dc/terms/subject
p234
aVhttp://www.w3.org/2000/01/rdf-schema#comment
p235
aVhttp://dbpedia.org/ontology/abstract
p236
aVhttp://dbpedia.org/property/wordnet_type
p237
aVhttp://purl.org/voc/vrank#hasRank
p238
aVhttp://www.w3.org/ns/prov#wasDerivedFrom
p239
aVhttp://www.w3.org/2002/07/owl#sameAs
p240
assI1
(dp241
I0
g230
sI1
(lp242
sI2
(lp243
sI3
(lp244
ssI2
(dp245
I0
g231
sI1
g243
sI2
(lp246
sI3
(lp247
ssI3
(dp248
I0
g232
sI1
g244
sI2
g247
sI3
(lp249
ssa(dp250
I0
(dp251
I0
(lp252
sI1
(lp253
sI2
(lp254
sI3
(lp255
ssI1
(dp256
I0
g253
sI1
(lp257
sI2
(lp258
sI3
(lp259
ssI2
(dp260
I0
g254
sI2
(lp261
sI3
(lp262
ssI3
(dp263
I0
g255
sI3
(lp264
ssa.