(lp1
(dp2
I0
(dp3
I0
(lp4
sI1
(lp5
sI2
(lp6
sI3
(lp7
ssI1
(dp8
I0
g5
sI1
(lp9
sI2
(lp10
sI3
(lp11
ssI2
(dp12
I0
g6
sI1
g10
sI2
(lp13
sI3
(lp14
ssI3
(dp15
I0
g7
sI1
g11
sI2
g14
sI3
(lp16
ssa(dp17
I0
(dp18
I0
(lp19
sI1
(lp20
sI2
(lp21
sI3
(lp22
ssI1
(dp23
I0
g20
sI1
(lp24
sI2
(lp25
sI3
(lp26
ssI2
(dp27
I0
g21
sI1
g25
sI2
(lp28
sI3
(lp29
ssI3
(dp30
I0
g22
sI1
g26
sI2
g29
sI3
(lp31
ssa(dp32
I0
(dp33
I0
(lp34
sI1
(lp35
sI2
(lp36
sI3
(lp37
ssI1
(dp38
I0
g35
sI1
(lp39
sI2
(lp40
sI3
(lp41
ssI2
(dp42
I0
g36
sI1
g40
sI2
(lp43
sI3
(lp44
ssI3
(dp45
I0
g37
sI1
g41
sI2
g44
sI3
(lp46
ssa(dp47
I0
(dp48
I0
(lp49
sI1
(lp50
sI2
(lp51
sI3
(lp52
ssI1
(dp53
I0
g50
sI1
(lp54
sI2
(lp55
sI3
(lp56
ssI2
(dp57
I0
g51
sI1
g55
sI2
(lp58
sI3
(lp59
ssI3
(dp60
I0
g52
sI1
g56
sI2
g59
sI3
(lp61
ssa(dp62
I0
(dp63
I0
(lp64
sI1
(lp65
sI2
(lp66
sI3
(lp67
ssI1
(dp68
I0
g65
sI1
(lp69
sI2
(lp70
sI3
(lp71
ssI2
(dp72
I0
g66
sI1
g70
sI2
(lp73
sI3
(lp74
ssI3
(dp75
I0
g67
sI1
g71
sI2
g74
sI3
(lp76
ssa(dp77
I0
(dp78
I0
(lp79
sI1
(lp80
sI2
(lp81
sI3
(lp82
ssI1
(dp83
I0
g80
sI1
(lp84
sI2
(lp85
sI3
(lp86
ssI2
(dp87
I0
g81
sI1
g85
sI2
(lp88
sI3
(lp89
ssI3
(dp90
I0
g82
sI1
g86
sI2
g89
sI3
(lp91
ssa(dp92
I0
(dp93
I0
(lp94
sI1
(lp95
sI2
(lp96
sI3
(lp97
ssI1
(dp98
I0
g95
sI1
(lp99
sI2
(lp100
sI3
(lp101
ssI2
(dp102
I0
g96
sI1
g100
sI2
(lp103
sI3
(lp104
ssI3
(dp105
I0
g97
sI1
g101
sI2
g104
sI3
(lp106
ssa(dp107
I0
(dp108
I0
(lp109
sI1
(lp110
sI2
(lp111
sI3
(lp112
ssI1
(dp113
I0
g110
sI1
(lp114
sI2
(lp115
sI3
(lp116
ssI2
(dp117
I0
g111
sI1
g115
sI2
(lp118
sI3
(lp119
ssI3
(dp120
I0
g112
sI1
g116
sI2
g119
sI3
(lp121
ssa(dp122
I0
(dp123
I0
(lp124
sI1
(lp125
sI2
(lp126
sI3
(lp127
ssI1
(dp128
I0
g125
sI1
(lp129
sI2
(lp130
sI3
(lp131
ssI2
(dp132
I0
g126
sI1
g130
sI2
(lp133
sI3
(lp134
ssI3
(dp135
I0
g127
sI1
g131
sI2
g134
sI3
(lp136
ssa(dp137
I0
(dp138
I0
(lp139
sI1
(lp140
sI2
(lp141
sI3
(lp142
ssI1
(dp143
I0
g140
sI1
(lp144
sI2
(lp145
sI3
(lp146
ssI2
(dp147
I0
g141
sI1
g145
sI2
(lp148
sI3
(lp149
ssI3
(dp150
I0
g142
sI1
g146
sI2
g149
sI3
(lp151
ssa(dp152
I0
(dp153
I0
(lp154
sI1
(lp155
sI2
(lp156
sI3
(lp157
ssI1
(dp158
I0
g155
sI1
(lp159
sI2
(lp160
sI3
(lp161
ssI2
(dp162
I0
g156
sI1
g160
sI2
(lp163
sI3
(lp164
ssI3
(dp165
I0
g157
sI1
g161
sI2
g164
sI3
(lp166
ssa(dp167
I0
(dp168
I0
(lp169
sI1
(lp170
Vhttp://dbpedia.org/ontology/wikiPageExternalLink
p171
aVhttp://dbpedia.org/property/website
p172
aVhttp://xmlns.com/foaf/0.1/homepage
p173
asI2
(lp174
sI3
(lp175
Vhttp://www.w3.org/ns/prov#wasDerivedFrom
p176
assI1
(dp177
I0
g170
sI1
(lp178
sI2
(lp179
sI3
(lp180
ssI2
(dp181
I0
g174
sI1
g179
sI2
(lp182
sI3
(lp183
ssI3
(dp184
I0
g175
sI1
g180
sI2
g183
sI3
(lp185
ssa(dp186
I0
(dp187
I0
(lp188
sI1
(lp189
sI2
(lp190
sI3
(lp191
ssI1
(dp192
I0
g189
sI1
(lp193
sI2
(lp194
sI3
(lp195
ssI2
(dp196
I0
g190
sI2
(lp197
sI3
(lp198
ssI3
(dp199
I0
g191
sI3
(lp200
ssa(dp201
I0
(dp202
I0
(lp203
sI1
(lp204
sI2
(lp205
sI3
(lp206
Vhttp://www.w3.org/ns/prov#wasDerivedFrom
p207
assI1
(dp208
I0
g204
sI1
(lp209
sI2
(lp210
sI3
(lp211
ssI2
(dp212
I0
g205
sI1
g210
sI2
(lp213
sI3
(lp214
ssI3
(dp215
I0
g206
sI1
g211
sI2
g214
sI3
(lp216
ssa(dp217
I0
(dp218
I0
(lp219
sI1
(lp220
sI2
(lp221
sI3
(lp222
ssI1
(dp223
I0
g220
sI1
(lp224
sI2
(lp225
sI3
(lp226
ssI2
(dp227
I0
g221
sI2
(lp228
sI3
(lp229
ssI3
(dp230
I0
g222
sI3
(lp231
ssa(dp232
I0
(dp233
I0
(lp234
sI1
(lp235
sI2
(lp236
sI3
(lp237
ssI1
(dp238
I0
g235
sI1
(lp239
sI2
(lp240
sI3
(lp241
ssI2
(dp242
I0
g236
sI1
g240
sI2
(lp243
sI3
(lp244
ssI3
(dp245
I0
g237
sI1
g241
sI2
g244
sI3
(lp246
ssa(dp247
I0
(dp248
I0
(lp249
sI1
(lp250
sI2
(lp251
sI3
(lp252
ssI1
(dp253
I0
g250
sI1
(lp254
sI2
(lp255
sI3
(lp256
ssI2
(dp257
I0
g251
sI1
g255
sI2
(lp258
sI3
(lp259
ssI3
(dp260
I0
g252
sI1
g256
sI2
g259
sI3
(lp261
ssa(dp262
I0
(dp263
I0
(lp264
sI1
(lp265
sI2
(lp266
sI3
(lp267
ssI1
(dp268
I0
g265
sI1
(lp269
sI2
(lp270
sI3
(lp271
ssI2
(dp272
I0
g266
sI1
g270
sI2
(lp273
sI3
(lp274
ssI3
(dp275
I0
g267
sI2
g274
sI3
(lp276
ssa(dp277
I0
(dp278
I0
(lp279
sI1
(lp280
sI2
(lp281
sI3
(lp282
ssI1
(dp283
I0
g280
sI1
(lp284
sI2
(lp285
sI3
(lp286
ssI2
(dp287
I0
g281
sI2
(lp288
sI3
(lp289
ssI3
(dp290
I0
g282
sI3
(lp291
ssa.