(lp1
(lp2
(lp3
a(lp4
a(lp5
a(lp6
a(lp7
Vhttp://dbpedia.org/resource/Massive_Attack
p8
aaa(lp9
(lp10
a(lp11
a(lp12
a(lp13
a(lp14
Vhttp://dbpedia.org/resource/North_Yorkshire
p15
aaa(lp16
(lp17
a(lp18
a(lp19
a(lp20
a(lp21
aa(lp22
(lp23
a(lp24
Vhttp://dbpedia.org/resource/Smashburger
p25
aa(lp26
a(lp27
a(lp28
Vhttp://dbpedia.org/resource/Colombia
p29
aaa(lp30
(lp31
a(lp32
Vhttp://dbpedia.org/resource/Card_security_code
p33
aa(lp34
a(lp35
a(lp36
Vhttp://dbpedia.org/resource/Takeoff/Go-around_switch
p37
aaa(lp38
(lp39
a(lp40
a(lp41
a(lp42
a(lp43
Vhttp://dbpedia.org/resource/Colombia
p44
aaa(lp45
(lp46
a(lp47
a(lp48
a(lp49
a(lp50
aa(lp51
(lp52
a(lp53
a(lp54
a(lp55
a(lp56
Vhttp://dbpedia.org/resource/Image-Line
p57
aaa(lp58
(lp59
a(lp60
a(lp61
a(lp62
a(lp63
aa(lp64
(lp65
a(lp66
a(lp67
a(lp68
a(lp69
Vhttp://dbpedia.org/resource/The_Flaming_Lips
p70
aaa.