(lp1
(lp2
(lp3
a(lp4
a(lp5
aa(lp6
(lp7
a(lp8
Vhttp://dbpedia.org/resource/Magnet
p9
aa(lp10
Vhttp://dbpedia.org/resource/Magnet
p11
aaa(lp12
(lp13
a(lp14
a(lp15
aa(lp16
(lp17
a(lp18
a(lp19
aa(lp20
(lp21
a(lp22
a(lp23
aa(lp24
(lp25
a(lp26
a(lp27
aa(lp28
(lp29
Vhttp://dbpedia.org/resource/Harmonic
p30
aa(lp31
a(lp32
aa(lp33
(lp34
Vhttp://dbpedia.org/resource/Weight
p35
aa(lp36
a(lp37
aa(lp38
(lp39
a(lp40
a(lp41
aa(lp42
(lp43
a(lp44
a(lp45
aa(lp46
(lp47
a(lp48
a(lp49
aa(lp50
(lp51
a(lp52
a(lp53
aa(lp54
(lp55
a(lp56
a(lp57
aa(lp58
(lp59
a(lp60
a(lp61
aa(lp62
(lp63
Vhttp://dbpedia.org/resource/Weight
p64
aa(lp65
a(lp66
aa(lp67
(lp68
a(lp69
a(lp70
aa(lp71
(lp72
Vhttp://dbpedia.org/resource/Radiation_angle
p73
aa(lp74
a(lp75
aa(lp76
(lp77
a(lp78
a(lp79
aa(lp80
(lp81
a(lp82
a(lp83
aa(lp84
(lp85
Vhttp://dbpedia.org/resource/Electricity
p86
aa(lp87
a(lp88
aa.