(lp1
(dp2
I0
(dp3
I0
(lp4
sI1
(lp5
Vhttp://dbpedia.org/property/origin
p6
aVhttp://dbpedia.org/ontology/country
p7
aVhttp://dbpedia.org/property/currencyCode
p8
aVhttp://dbpedia.org/property/shipBuilder
p9
aVhttp://dbpedia.org/ontology/nationality
p10
aVhttp://dbpedia.org/ontology/birthPlace
p11
aVhttp://dbpedia.org/property/deathPlace
p12
aVhttp://dbpedia.org/ontology/hometown
p13
aVhttp://dbpedia.org/property/birthPlace
p14
aVhttp://dbpedia.org/ontology/deathPlace
p15
aVhttp://dbpedia.org/property/placeOfDeath
p16
aVhttp://dbpedia.org/ontology/builder
p17
aVhttp://dbpedia.org/property/placeOfBirth
p18
asI2
(lp19
sI3
(lp20
sI4
(lp21
ssI1
(dp22
I0
g5
sI1
(lp23
sI2
(lp24
sI3
(lp25
sI4
(lp26
ssI2
(dp27
I0
g19
sI1
g24
sI2
(lp28
sI3
(lp29
sI4
(lp30
ssI3
(dp31
I0
g20
sI1
g25
sI2
g29
sI3
(lp32
sI4
(lp33
ssI4
(dp34
I0
g21
sI1
g26
sI2
g30
sI3
g33
sI4
(lp35
ssa(dp36
I0
(dp37
I0
(lp38
sI1
(lp39
Vhttp://www.w3.org/2000/01/rdf-schema#seeAlso
p40
aVhttp://dbpedia.org/property/placeOfDeath
p41
aVhttp://dbpedia.org/property/ground
p42
aVhttp://dbpedia.org/ontology/origin
p43
aVhttp://dbpedia.org/ontology/citizenship
p44
aVhttp://dbpedia.org/property/residence
p45
aVhttp://dbpedia.org/ontology/regionServed
p46
aVhttp://dbpedia.org/ontology/country
p47
aVhttp://dbpedia.org/property/locationCountry
p48
aVhttp://dbpedia.org/property/allegiance
p49
aVhttp://dbpedia.org/ontology/ground
p50
aVhttp://dbpedia.org/ontology/nationality
p51
aVhttp://dbpedia.org/property/birthPlace
p52
aVhttp://dbpedia.org/ontology/place
p53
aVhttp://dbpedia.org/property/placeOfBirth
p54
aVhttp://dbpedia.org/ontology/residence
p55
aVhttp://dbpedia.org/property/country
p56
aVhttp://dbpedia.org/property/shipCountry
p57
aVhttp://dbpedia.org/property/areaServed
p58
aVhttp://dbpedia.org/ontology/sourceCountry
p59
aVhttp://dbpedia.org/property/regionalScenes
p60
aVhttp://dbpedia.org/ontology/populationPlace
p61
aVhttp://dbpedia.org/property/nationality
p62
aVhttp://dbpedia.org/ontology/abstract
p63
aVhttp://dbpedia.org/ontology/recordedIn
p64
aVhttp://dbpedia.org/property/deathPlace
p65
aVhttp://dbpedia.org/property/location
p66
aVhttp://dbpedia.org/property/states
p67
aVhttp://dbpedia.org/property/otherCountries
p68
aVhttp://dbpedia.org/ontology/deathPlace
p69
aVhttp://dbpedia.org/ontology/city
p70
aVhttp://dbpedia.org/property/subdivisionName
p71
aVhttp://dbpedia.org/property/nationalOrigin
p72
aVhttp://dbpedia.org/ontology/location
p73
aVhttp://dbpedia.org/property/basinCountries
p74
aVhttp://dbpedia.org/property/currencyCode
p75
aVhttp://dbpedia.org/property/headquarters
p76
aVhttp://dbpedia.org/ontology/birthPlace
p77
aVhttp://dbpedia.org/ontology/locationCountry
p78
aVhttp://dbpedia.org/ontology/hometown
p79
aVhttp://dbpedia.org/ontology/spokenIn
p80
aVhttp://dbpedia.org/property/regionServed
p81
aVhttp://dbpedia.org/ontology/headquarter
p82
aVhttp://dbpedia.org/ontology/stateOfOrigin
p83
aVhttp://dbpedia.org/property/shortDescription
p84
asI2
(lp85
sI3
(lp86
Vhttp://dbpedia.org/property/gdpNominalPerCapita
p87
asI4
(lp88
ssI1
(dp89
I0
g39
sI1
(lp90
sI2
(lp91
sI3
(lp92
sI4
(lp93
ssI2
(dp94
I0
g85
sI1
g91
sI2
(lp95
sI3
(lp96
sI4
(lp97
ssI3
(dp98
I0
g86
sI1
g92
sI2
g96
sI3
(lp99
sI4
(lp100
ssI4
(dp101
I0
g88
sI1
g93
sI2
g97
sI3
g100
sI4
(lp102
ssa(dp103
I0
(dp104
I0
(lp105
sI1
(lp106
Vhttp://dbpedia.org/property/currencyCode
p107
asI2
(lp108
sI3
(lp109
sI4
(lp110
ssI1
(dp111
I0
g106
sI1
(lp112
sI2
(lp113
sI3
(lp114
sI4
(lp115
ssI2
(dp116
I0
g108
sI1
g113
sI2
(lp117
sI3
(lp118
sI4
(lp119
ssI3
(dp120
I0
g109
sI1
g114
sI2
g118
sI3
(lp121
sI4
(lp122
ssI4
(dp123
I0
g110
sI1
g115
sI2
g119
sI3
g122
sI4
(lp124
ssa(dp125
I0
(dp126
I0
(lp127
sI1
(lp128
sI2
(lp129
sI3
(lp130
sI4
(lp131
ssI1
(dp132
I0
g128
sI1
(lp133
sI2
(lp134
sI3
(lp135
sI4
(lp136
Vhttp://dbpedia.org/property/hasPhotoCollection
p137
assI2
(dp138
I0
g129
sI1
g134
sI2
(lp139
sI3
(lp140
sI4
(lp141
ssI3
(dp142
I0
g130
sI1
g135
sI2
g140
sI3
(lp143
sI4
(lp144
ssI4
(dp145
I0
g131
sI1
g136
sI2
g141
sI3
g144
sI4
(lp146
ssa(dp147
I0
(dp148
I0
(lp149
sI1
(lp150
Vhttp://dbpedia.org/property/currencyCode
p151
asI2
(lp152
sI3
(lp153
sI4
(lp154
ssI1
(dp155
I0
g150
sI1
(lp156
sI2
(lp157
sI3
(lp158
sI4
(lp159
ssI2
(dp160
I0
g152
sI1
g157
sI2
(lp161
sI3
(lp162
sI4
(lp163
ssI3
(dp164
I0
g153
sI1
g158
sI2
g162
sI3
(lp165
sI4
(lp166
ssI4
(dp167
I0
g154
sI1
g159
sI2
g163
sI3
g166
sI4
(lp168
ssa(dp169
I0
(dp170
I0
(lp171
sI1
(lp172
Vhttp://dbpedia.org/property/currencyCode
p173
asI2
(lp174
sI3
(lp175
sI4
(lp176
ssI1
(dp177
I0
g172
sI1
(lp178
sI2
(lp179
sI3
(lp180
sI4
(lp181
ssI2
(dp182
I0
g174
sI1
g179
sI2
(lp183
sI3
(lp184
sI4
(lp185
ssI3
(dp186
I0
g175
sI1
g180
sI2
g184
sI3
(lp187
sI4
(lp188
ssI4
(dp189
I0
g176
sI1
g181
sI2
g185
sI3
g188
sI4
(lp190
ssa(dp191
I0
(dp192
I0
(lp193
sI1
(lp194
Vhttp://www.w3.org/2000/01/rdf-schema#seeAlso
p195
aVhttp://dbpedia.org/property/currency
p196
aVhttp://dbpedia.org/property/mapCaption
p197
aVhttp://dbpedia.org/property/name
p198
aVhttp://dbpedia.org/ontology/jurisdiction
p199
aVhttp://dbpedia.org/property/sovereigntyType
p200
aVhttp://www.w3.org/ns/prov#wasDerivedFrom
p201
aVhttp://dbpedia.org/property/caption
p202
aVhttp://dbpedia.org/property/territory
p203
aVhttp://www.w3.org/2002/07/owl#differentFrom
p204
aVhttp://dbpedia.org/property/demonym
p205
aVhttp://dbpedia.org/ontology/regionServed
p206
aVhttp://dbpedia.org/ontology/country
p207
aVhttp://dbpedia.org/property/region
p208
aVhttp://www.w3.org/1999/02/22-rdf-syntax-ns#type
p209
aVhttp://dbpedia.org/property/copyright
p210
aVhttp://dbpedia.org/property/timeZone
p211
aVhttp://dbpedia.org/property/image
p212
aVhttp://xmlns.com/foaf/0.1/isPrimaryTopicOf
p213
aVhttp://dbpedia.org/property/owner
p214
aVhttp://dbpedia.org/property/country
p215
aVhttp://dbpedia.org/property/linkingName
p216
aVhttp://dbpedia.org/property/footer
p217
aVhttp://dbpedia.org/ontology/wikiPageDisambiguates
p218
aVhttp://dbpedia.org/property/areaServed
p219
aVhttp://dbpedia.org/ontology/wikiPageExternalLink
p220
aVhttp://xmlns.com/foaf/0.1/primaryTopic
p221
aVhttp://purl.org/dc/terms/subject
p222
aVhttp://dbpedia.org/property/officialWebsite
p223
aVhttp://dbpedia.org/property/free
p224
aVhttp://dbpedia.org/ontology/abstract
p225
aVhttp://xmlns.com/foaf/0.1/depiction
p226
aVhttp://dbpedia.org/property/location
p227
aVhttp://dbpedia.org/property/id
p228
aVhttp://dbpedia.org/ontology/thumbnail
p229
aVhttp://dbpedia.org/property/author
p230
aVhttp://dbpedia.org/property/edition
p231
aVhttp://dbpedia.org/property/hasPhotoCollection
p232
aVhttp://www.w3.org/2000/01/rdf-schema#label
p233
aVhttp://dbpedia.org/property/title
p234
aVhttp://dbpedia.org/property/imageMap
p235
aVhttp://dbpedia.org/ontology/location
p236
aVhttp://www.w3.org/2000/01/rdf-schema#comment
p237
aVhttp://dbpedia.org/property/leaderTitle
p238
aVhttp://dbpedia.org/ontology/nonFictionSubject
p239
aVhttp://dbpedia.org/ontology/wikiPageRedirects
p240
aVhttp://dbpedia.org/property/founder
p241
aVhttp://dbpedia.org/property/parentOrganization
p242
aVhttp://dbpedia.org/ontology/owner
p243
aVhttp://dbpedia.org/property/timeZoneDst
p244
aVhttp://dbpedia.org/property/imageFlag
p245
aVhttp://dbpedia.org/property/regionServed
p246
aVhttp://dbpedia.org/property/jurisdiction
p247
aVhttp://dbpedia.org/property/data
p248
aVhttp://www.w3.org/2002/07/owl#sameAs
p249
aVhttp://dbpedia.org/property/observedby
p250
asI2
(lp251
Vhttp://www.w3.org/2000/01/rdf-schema#seeAlso
p252
aVhttp://dbpedia.org/property/currency
p253
aVhttp://dbpedia.org/property/mapCaption
p254
aVhttp://dbpedia.org/property/name
p255
aVhttp://dbpedia.org/ontology/jurisdiction
p256
aVhttp://dbpedia.org/property/sovereigntyType
p257
aVhttp://www.w3.org/ns/prov#wasDerivedFrom
p258
aVhttp://dbpedia.org/property/caption
p259
aVhttp://dbpedia.org/property/territory
p260
aVhttp://www.w3.org/2002/07/owl#differentFrom
p261
aVhttp://dbpedia.org/property/demonym
p262
aVhttp://dbpedia.org/ontology/regionServed
p263
aVhttp://dbpedia.org/ontology/country
p264
aVhttp://dbpedia.org/property/region
p265
aVhttp://www.w3.org/1999/02/22-rdf-syntax-ns#type
p266
aVhttp://dbpedia.org/property/copyright
p267
aVhttp://dbpedia.org/property/timeZone
p268
aVhttp://dbpedia.org/property/image
p269
aVhttp://xmlns.com/foaf/0.1/isPrimaryTopicOf
p270
aVhttp://dbpedia.org/property/owner
p271
aVhttp://dbpedia.org/property/country
p272
aVhttp://dbpedia.org/property/linkingName
p273
aVhttp://dbpedia.org/property/footer
p274
aVhttp://dbpedia.org/ontology/wikiPageDisambiguates
p275
aVhttp://dbpedia.org/property/areaServed
p276
aVhttp://dbpedia.org/ontology/wikiPageExternalLink
p277
aVhttp://xmlns.com/foaf/0.1/primaryTopic
p278
aVhttp://purl.org/dc/terms/subject
p279
aVhttp://dbpedia.org/property/officialWebsite
p280
aVhttp://dbpedia.org/property/free
p281
aVhttp://dbpedia.org/ontology/abstract
p282
aVhttp://xmlns.com/foaf/0.1/depiction
p283
aVhttp://dbpedia.org/property/location
p284
aVhttp://dbpedia.org/property/id
p285
aVhttp://dbpedia.org/ontology/thumbnail
p286
aVhttp://dbpedia.org/property/author
p287
aVhttp://dbpedia.org/property/edition
p288
aVhttp://dbpedia.org/property/hasPhotoCollection
p289
aVhttp://www.w3.org/2000/01/rdf-schema#label
p290
aVhttp://dbpedia.org/property/title
p291
aVhttp://dbpedia.org/property/imageMap
p292
aVhttp://www.w3.org/2000/01/rdf-schema#comment
p293
aVhttp://dbpedia.org/property/leaderTitle
p294
aVhttp://dbpedia.org/ontology/nonFictionSubject
p295
aVhttp://dbpedia.org/ontology/wikiPageRedirects
p296
aVhttp://dbpedia.org/property/founder
p297
aVhttp://dbpedia.org/property/parentOrganization
p298
aVhttp://dbpedia.org/ontology/owner
p299
aVhttp://dbpedia.org/property/timeZoneDst
p300
aVhttp://dbpedia.org/property/imageFlag
p301
aVhttp://dbpedia.org/property/regionServed
p302
aVhttp://dbpedia.org/property/jurisdiction
p303
aVhttp://dbpedia.org/property/data
p304
aVhttp://www.w3.org/2002/07/owl#sameAs
p305
aVhttp://dbpedia.org/property/observedby
p306
asI3
(lp307
sI4
(lp308
Vhttp://www.w3.org/2002/07/owl#sameAs
p309
assI1
(dp310
I0
g194
sI1
(lp311
sI2
(lp312
Vhttp://dbpedia.org/ontology/wikiPageExternalLink
p313
aVhttp://xmlns.com/foaf/0.1/homepage
p314
aVhttp://dbpedia.org/ontology/abstract
p315
aVhttp://purl.org/dc/terms/subject
p316
aVhttp://www.w3.org/2000/01/rdf-schema#comment
p317
asI3
(lp318
sI4
(lp319
ssI2
(dp320
I0
g251
sI1
g312
sI2
(lp321
sI3
(lp322
Vhttp://www.w3.org/1999/02/22-rdf-syntax-ns#type
p323
asI4
(lp324
Vhttp://www.w3.org/ns/prov#wasDerivedFrom
p325
assI3
(dp326
I0
g307
sI1
g318
sI2
g322
sI3
(lp327
sI4
(lp328
ssI4
(dp329
I0
g308
sI1
g319
sI2
g324
sI3
g328
sI4
(lp330
ssa(dp331
I0
(dp332
I0
(lp333
sI1
(lp334
Vhttp://dbpedia.org/property/currencyCode
p335
asI2
(lp336
sI3
(lp337
sI4
(lp338
ssI1
(dp339
I0
g334
sI1
(lp340
sI2
(lp341
sI3
(lp342
sI4
(lp343
ssI2
(dp344
I0
g336
sI1
g341
sI2
(lp345
sI3
(lp346
sI4
(lp347
ssI3
(dp348
I0
g337
sI1
g342
sI2
g346
sI3
(lp349
sI4
(lp350
ssI4
(dp351
I0
g338
sI1
g343
sI2
g347
sI3
g350
sI4
(lp352
ssa(dp353
I0
(dp354
I0
(lp355
sI1
(lp356
Vhttp://dbpedia.org/property/currencyCode
p357
asI2
(lp358
sI3
(lp359
sI4
(lp360
ssI1
(dp361
I0
g356
sI1
(lp362
sI2
(lp363
sI3
(lp364
sI4
(lp365
ssI2
(dp366
I0
g358
sI1
g363
sI2
(lp367
sI3
(lp368
sI4
(lp369
ssI3
(dp370
I0
g359
sI1
g364
sI2
g368
sI3
(lp371
sI4
(lp372
ssI4
(dp373
I0
g360
sI1
g365
sI2
g369
sI3
g372
sI4
(lp374
ssa(dp375
I0
(dp376
I0
(lp377
sI1
(lp378
sI2
(lp379
sI3
(lp380
sI4
(lp381
ssI1
(dp382
I0
g378
sI1
(lp383
sI2
(lp384
sI3
(lp385
sI4
(lp386
ssI2
(dp387
I0
g379
sI1
g384
sI2
(lp388
sI3
(lp389
sI4
(lp390
ssI3
(dp391
I0
g380
sI1
g385
sI2
g389
sI3
(lp392
sI4
(lp393
ssI4
(dp394
I0
g381
sI1
g386
sI2
g390
sI3
g393
sI4
(lp395
ssa(dp396
I0
(dp397
I0
(lp398
sI1
(lp399
Vhttp://dbpedia.org/ontology/country
p400
aVhttp://dbpedia.org/property/currencyCode
p401
aVhttp://dbpedia.org/property/address
p402
aVhttp://dbpedia.org/property/locations
p403
aVhttp://dbpedia.org/property/country
p404
asI2
(lp405
sI3
(lp406
sI4
(lp407
ssI1
(dp408
I0
g399
sI1
(lp409
sI2
(lp410
sI3
(lp411
sI4
(lp412
ssI2
(dp413
I0
g405
sI1
g410
sI2
(lp414
sI3
(lp415
sI4
(lp416
ssI3
(dp417
I0
g406
sI1
g411
sI2
g415
sI3
(lp418
sI4
(lp419
ssI4
(dp420
I0
g407
sI1
g412
sI2
g416
sI3
g419
sI4
(lp421
ssa(dp422
I0
(dp423
I0
(lp424
sI1
(lp425
Vhttp://dbpedia.org/property/currencyCode
p426
aVhttp://dbpedia.org/property/city
p427
aVhttp://dbpedia.org/property/nationality
p428
aVhttp://dbpedia.org/property/talk
p429
aVhttp://dbpedia.org/ontology/nationality
p430
aVhttp://dbpedia.org/ontology/city
p431
asI2
(lp432
sI3
(lp433
sI4
(lp434
ssI1
(dp435
I0
g425
sI1
(lp436
sI2
(lp437
sI3
(lp438
sI4
(lp439
ssI2
(dp440
I0
g432
sI1
g437
sI2
(lp441
sI3
(lp442
sI4
(lp443
ssI3
(dp444
I0
g433
sI1
g438
sI2
g442
sI3
(lp445
sI4
(lp446
ssI4
(dp447
I0
g434
sI1
g439
sI2
g443
sI3
g446
sI4
(lp448
ssa(dp449
I0
(dp450
I0
(lp451
sI1
(lp452
Vhttp://dbpedia.org/property/currencyCode
p453
asI2
(lp454
sI3
(lp455
sI4
(lp456
ssI1
(dp457
I0
g452
sI1
(lp458
sI2
(lp459
sI3
(lp460
sI4
(lp461
ssI2
(dp462
I0
g454
sI1
g459
sI2
(lp463
sI3
(lp464
sI4
(lp465
ssI3
(dp466
I0
g455
sI1
g460
sI2
g464
sI3
(lp467
sI4
(lp468
ssI4
(dp469
I0
g456
sI1
g461
sI2
g465
sI3
g468
sI4
(lp470
ssa(dp471
I0
(dp472
I0
(lp473
sI1
(lp474
Vhttp://dbpedia.org/property/hasPhotoCollection
p475
asI2
(lp476
sI3
(lp477
sI4
(lp478
ssI1
(dp479
I0
g474
sI1
(lp480
sI2
(lp481
sI3
(lp482
sI4
(lp483
ssI2
(dp484
I0
g476
sI1
g481
sI2
(lp485
sI3
(lp486
sI4
(lp487
ssI3
(dp488
I0
g477
sI1
g482
sI2
g486
sI3
(lp489
sI4
(lp490
ssI4
(dp491
I0
g478
sI1
g483
sI2
g487
sI3
g490
sI4
(lp492
ssa(dp493
I0
(dp494
I0
(lp495
sI1
(lp496
sI2
(lp497
sI3
(lp498
sI4
(lp499
ssI1
(dp500
I0
g496
sI1
(lp501
sI2
(lp502
sI3
(lp503
sI4
(lp504
ssI2
(dp505
I0
g497
sI1
g502
sI2
(lp506
sI3
(lp507
sI4
(lp508
ssI3
(dp509
I0
g498
sI1
g503
sI2
g507
sI3
(lp510
sI4
(lp511
ssI4
(dp512
I0
g499
sI1
g504
sI2
g508
sI3
g511
sI4
(lp513
ssa(dp514
I0
(dp515
I0
(lp516
sI1
(lp517
Vhttp://dbpedia.org/ontology/country
p518
aVhttp://dbpedia.org/ontology/location
p519
aVhttp://dbpedia.org/property/basinCountries
p520
aVhttp://dbpedia.org/ontology/birthPlace
p521
aVhttp://dbpedia.org/property/location
p522
aVhttp://dbpedia.org/ontology/nationality
p523
aVhttp://dbpedia.org/property/birthPlace
p524
aVhttp://dbpedia.org/property/placeOfBirth
p525
aVhttp://dbpedia.org/property/areaServed
p526
aVhttp://dbpedia.org/ontology/regionServed
p527
asI2
(lp528
sI3
(lp529
sI4
(lp530
ssI1
(dp531
I0
g517
sI1
(lp532
sI2
(lp533
sI3
(lp534
Vhttp://purl.org/voc/vrank#hasRank
p535
asI4
(lp536
ssI2
(dp537
I0
g528
sI1
g533
sI2
(lp538
sI3
(lp539
sI4
(lp540
ssI3
(dp541
I0
g529
sI1
g534
sI2
g539
sI3
(lp542
sI4
(lp543
ssI4
(dp544
I0
g530
sI1
g536
sI2
g540
sI3
g543
sI4
(lp545
ssa(dp546
I0
(dp547
I0
(lp548
sI1
(lp549
Vhttp://dbpedia.org/property/currencyCode
p550
asI2
(lp551
sI3
(lp552
sI4
(lp553
ssI1
(dp554
I0
g549
sI1
(lp555
sI2
(lp556
sI3
(lp557
sI4
(lp558
ssI2
(dp559
I0
g551
sI1
g556
sI2
(lp560
sI3
(lp561
sI4
(lp562
ssI3
(dp563
I0
g552
sI1
g557
sI2
g561
sI3
(lp564
sI4
(lp565
ssI4
(dp566
I0
g553
sI1
g558
sI2
g562
sI3
g565
sI4
(lp567
ssa(dp568
I0
(dp569
I0
(lp570
sI1
(lp571
Vhttp://dbpedia.org/property/currencyCode
p572
asI2
(lp573
sI3
(lp574
sI4
(lp575
Vhttp://www.w3.org/1999/02/22-rdf-syntax-ns#type
p576
assI1
(dp577
I0
g571
sI1
(lp578
sI2
(lp579
sI3
(lp580
Vhttp://www.w3.org/1999/02/22-rdf-syntax-ns#type
p581
asI4
(lp582
Vhttp://www.w3.org/1999/02/22-rdf-syntax-ns#type
p583
assI2
(dp584
I0
g573
sI1
g579
sI2
(lp585
sI3
(lp586
sI4
(lp587
ssI3
(dp588
I0
g574
sI1
g580
sI2
g586
sI3
(lp589
sI4
(lp590
ssI4
(dp591
I0
g575
sI1
g582
sI2
g587
sI3
g590
sI4
(lp592
ssa(dp593
I0
(dp594
I0
(lp595
sI1
(lp596
Vhttp://dbpedia.org/property/currencyCode
p597
asI2
(lp598
sI3
(lp599
sI4
(lp600
ssI1
(dp601
I0
g596
sI1
(lp602
sI2
(lp603
sI3
(lp604
sI4
(lp605
ssI2
(dp606
I0
g598
sI1
g603
sI2
(lp607
sI3
(lp608
sI4
(lp609
ssI3
(dp610
I0
g599
sI1
g604
sI2
g608
sI3
(lp611
sI4
(lp612
ssI4
(dp613
I0
g600
sI1
g605
sI2
g609
sI3
g612
sI4
(lp614
ssa(dp615
I0
(dp616
I0
(lp617
sI1
(lp618
Vhttp://dbpedia.org/property/currencyCode
p619
asI2
(lp620
sI3
(lp621
sI4
(lp622
ssI1
(dp623
I0
g618
sI1
(lp624
sI2
(lp625
sI3
(lp626
sI4
(lp627
ssI2
(dp628
I0
g620
sI1
g625
sI2
(lp629
sI3
(lp630
sI4
(lp631
ssI3
(dp632
I0
g621
sI1
g626
sI2
g630
sI3
(lp633
sI4
(lp634
ssI4
(dp635
I0
g622
sI1
g627
sI2
g631
sI3
g634
sI4
(lp636
ssa.