(lp1
(dp2
I0
(dp3
I0
(lp4
sI1
(lp5
sI2
(lp6
sI3
(lp7
sI4
(lp8
ssI1
(dp9
I0
g5
sI1
(lp10
sI2
(lp11
sI3
(lp12
sI4
(lp13
ssI2
(dp14
I0
g6
sI1
g11
sI2
(lp15
sI3
(lp16
sI4
(lp17
ssI3
(dp18
I0
g7
sI1
g12
sI2
g16
sI3
(lp19
sI4
(lp20
ssI4
(dp21
I0
g8
sI1
g13
sI2
g17
sI3
g20
sI4
(lp22
ssa(dp23
I0
(dp24
I0
(lp25
sI1
(lp26
Vhttp://dbpedia.org/ontology/wikiPageExternalLink
p27
aVhttp://dbpedia.org/property/website
p28
aVhttp://www.w3.org/1999/02/22-rdf-syntax-ns#type
p29
aVhttp://purl.org/dc/terms/subject
p30
aVhttp://www.w3.org/2000/01/rdf-schema#comment
p31
aVhttp://dbpedia.org/ontology/abstract
p32
aVhttp://purl.org/voc/vrank#hasRank
p33
aVhttp://www.w3.org/ns/prov#wasDerivedFrom
p34
aVhttp://dbpedia.org/property/nowAt
p35
aVhttp://www.w3.org/2002/07/owl#sameAs
p36
asI2
(lp37
sI3
(lp38
sI4
(lp39
ssI1
(dp40
I0
g26
sI1
(lp41
sI2
(lp42
Vhttp://dbpedia.org/ontology/abstract
p43
aVhttp://www.w3.org/2000/01/rdf-schema#comment
p44
asI3
(lp45
sI4
(lp46
Vhttp://dbpedia.org/ontology/wikiPageExternalLink
p47
aVhttp://dbpedia.org/property/website
p48
aVhttp://www.georss.org/georss/point
p49
aVhttp://www.w3.org/2000/01/rdf-schema#comment
p50
aVhttp://www.w3.org/2000/01/rdf-schema#label
p51
aVhttp://dbpedia.org/ontology/abstract
p52
aVhttp://dbpedia.org/ontology/architecturalStyle
p53
aVhttp://dbpedia.org/ontology/museum
p54
aVhttp://dbpedia.org/property/owner
p55
aVhttp://dbpedia.org/property/hasPhotoCollection
p56
aVhttp://www.w3.org/2002/07/owl#differentFrom
p57
aVhttp://dbpedia.org/property/museum
p58
aVhttp://www.w3.org/2002/07/owl#sameAs
p59
assI2
(dp60
I0
g37
sI1
g42
sI2
(lp61
sI3
(lp62
sI4
(lp63
ssI3
(dp64
I0
g38
sI1
g45
sI2
g62
sI3
(lp65
sI4
(lp66
ssI4
(dp67
I0
g39
sI1
g46
sI2
g63
sI3
g66
sI4
(lp68
ssa(dp69
I0
(dp70
I0
(lp71
sI1
(lp72
Vhttp://dbpedia.org/ontology/wikiPageExternalLink
p73
aVhttp://www.w3.org/1999/02/22-rdf-syntax-ns#type
p74
aVhttp://www.w3.org/2000/01/rdf-schema#comment
p75
aVhttp://dbpedia.org/ontology/abstract
p76
aVhttp://dbpedia.org/ontology/thumbnail
p77
aVhttp://www.w3.org/ns/prov#wasDerivedFrom
p78
aVhttp://dbpedia.org/property/hasPhotoCollection
p79
asI2
(lp80
sI3
(lp81
sI4
(lp82
ssI1
(dp83
I0
g72
sI1
(lp84
sI2
(lp85
Vhttp://dbpedia.org/ontology/wikiPageExternalLink
p86
aVhttp://www.w3.org/1999/02/22-rdf-syntax-ns#type
p87
aVhttp://purl.org/dc/terms/subject
p88
aVhttp://dbpedia.org/property/mapType
p89
aVhttp://www.w3.org/2000/01/rdf-schema#comment
p90
aVhttp://dbpedia.org/ontology/abstract
p91
aVhttp://xmlns.com/foaf/0.1/depiction
p92
aVhttp://dbpedia.org/property/location
p93
aVhttp://dbpedia.org/ontology/thumbnail
p94
aVhttp://dbpedia.org/property/pushpinMap
p95
aVhttp://dbpedia.org/property/alt
p96
asI3
(lp97
sI4
(lp98
Vhttp://dbpedia.org/ontology/wikiPageExternalLink
p99
aVhttp://dbpedia.org/ontology/abstract
p100
aVhttp://dbpedia.org/property/hasPhotoCollection
p101
aVhttp://www.w3.org/2002/07/owl#sameAs
p102
aVhttp://www.w3.org/2000/01/rdf-schema#comment
p103
assI2
(dp104
I0
g80
sI1
g85
sI2
(lp105
sI3
(lp106
sI4
(lp107
ssI3
(dp108
I0
g81
sI1
g97
sI2
g106
sI3
(lp109
sI4
(lp110
ssI4
(dp111
I0
g82
sI1
g98
sI2
g107
sI3
g110
sI4
(lp112
ssa(dp113
I0
(dp114
I0
(lp115
sI1
(lp116
sI2
(lp117
sI3
(lp118
sI4
(lp119
ssI1
(dp120
I0
g116
sI1
(lp121
sI2
(lp122
sI3
(lp123
sI4
(lp124
ssI2
(dp125
I0
g117
sI1
g122
sI2
(lp126
sI3
(lp127
sI4
(lp128
ssI3
(dp129
I0
g118
sI1
g123
sI2
g127
sI3
(lp130
sI4
(lp131
ssI4
(dp132
I0
g119
sI1
g124
sI2
g128
sI3
g131
sI4
(lp133
ssa(dp134
I0
(dp135
I0
(lp136
sI1
(lp137
Vhttp://dbpedia.org/ontology/wikiPageExternalLink
p138
aVhttp://www.w3.org/1999/02/22-rdf-syntax-ns#type
p139
aVhttp://www.w3.org/2000/01/rdf-schema#comment
p140
aVhttp://dbpedia.org/ontology/abstract
p141
aVhttp://xmlns.com/foaf/0.1/depiction
p142
aVhttp://www.georss.org/georss/point
p143
aVhttp://dbpedia.org/ontology/thumbnail
p144
aVhttp://dbpedia.org/property/hasPhotoCollection
p145
aVhttp://www.w3.org/2002/07/owl#sameAs
p146
asI2
(lp147
sI3
(lp148
sI4
(lp149
ssI1
(dp150
I0
g137
sI1
(lp151
sI2
(lp152
Vhttp://dbpedia.org/ontology/abstract
p153
aVhttp://www.w3.org/2000/01/rdf-schema#comment
p154
asI3
(lp155
sI4
(lp156
Vhttp://dbpedia.org/ontology/wikiPageExternalLink
p157
aVhttp://dbpedia.org/property/website
p158
aVhttp://www.georss.org/georss/point
p159
aVhttp://www.w3.org/2000/01/rdf-schema#comment
p160
aVhttp://dbpedia.org/ontology/abstract
p161
aVhttp://xmlns.com/foaf/0.1/depiction
p162
aVhttp://dbpedia.org/ontology/thumbnail
p163
aVhttp://xmlns.com/foaf/0.1/homepage
p164
aVhttp://dbpedia.org/property/hasPhotoCollection
p165
aVhttp://www.w3.org/2000/01/rdf-schema#label
p166
aVhttp://www.w3.org/2002/07/owl#sameAs
p167
assI2
(dp168
I0
g147
sI1
g152
sI2
(lp169
sI3
(lp170
sI4
(lp171
ssI3
(dp172
I0
g148
sI1
g155
sI2
g170
sI3
(lp173
sI4
(lp174
ssI4
(dp175
I0
g149
sI1
g156
sI2
g171
sI3
g174
sI4
(lp176
ssa(dp177
I0
(dp178
I0
(lp179
sI1
(lp180
sI2
(lp181
sI3
(lp182
sI4
(lp183
ssI1
(dp184
I0
g180
sI1
(lp185
sI2
(lp186
sI3
(lp187
sI4
(lp188
ssI2
(dp189
I0
g181
sI1
g186
sI2
(lp190
sI3
(lp191
sI4
(lp192
ssI3
(dp193
I0
g182
sI1
g187
sI2
g191
sI3
(lp194
sI4
(lp195
ssI4
(dp196
I0
g183
sI1
g188
sI2
g192
sI3
g195
sI4
(lp197
ssa(dp198
I0
(dp199
I0
(lp200
sI1
(lp201
Vhttp://www.w3.org/ns/prov#wasDerivedFrom
p202
aVhttp://www.w3.org/1999/02/22-rdf-syntax-ns#type
p203
aVhttp://www.w3.org/2002/07/owl#sameAs
p204
asI2
(lp205
sI3
(lp206
sI4
(lp207
ssI1
(dp208
I0
g201
sI1
(lp209
sI2
(lp210
Vhttp://dbpedia.org/ontology/abstract
p211
aVhttp://www.w3.org/2000/01/rdf-schema#comment
p212
asI3
(lp213
sI4
(lp214
Vhttp://dbpedia.org/ontology/wikiPageExternalLink
p215
aVhttp://dbpedia.org/ontology/abstract
p216
aVhttp://dbpedia.org/property/hasPhotoCollection
p217
aVhttp://www.w3.org/2002/07/owl#sameAs
p218
aVhttp://www.w3.org/2000/01/rdf-schema#comment
p219
assI2
(dp220
I0
g205
sI1
g210
sI2
(lp221
sI3
(lp222
sI4
(lp223
ssI3
(dp224
I0
g206
sI1
g213
sI2
g222
sI3
(lp225
sI4
(lp226
ssI4
(dp227
I0
g207
sI1
g214
sI2
g223
sI3
g226
sI4
(lp228
ssa(dp229
I0
(dp230
I0
(lp231
sI1
(lp232
sI2
(lp233
sI3
(lp234
sI4
(lp235
ssI1
(dp236
I0
g232
sI1
(lp237
sI2
(lp238
sI3
(lp239
sI4
(lp240
ssI2
(dp241
I0
g233
sI1
g238
sI2
(lp242
sI3
(lp243
sI4
(lp244
ssI3
(dp245
I0
g234
sI1
g239
sI2
g243
sI3
(lp246
sI4
(lp247
ssI4
(dp248
I0
g235
sI1
g240
sI2
g244
sI3
g247
sI4
(lp249
ssa(dp250
I0
(dp251
I0
(lp252
sI1
(lp253
Vhttp://dbpedia.org/ontology/wikiPageExternalLink
p254
aVhttp://www.georss.org/georss/point
p255
aVhttp://purl.org/dc/terms/subject
p256
aVhttp://dbpedia.org/ontology/abstract
p257
aVhttp://purl.org/voc/vrank#hasRank
p258
aVhttp://www.w3.org/1999/02/22-rdf-syntax-ns#type
p259
aVhttp://www.w3.org/ns/prov#wasDerivedFrom
p260
asI2
(lp261
sI3
(lp262
sI4
(lp263
ssI1
(dp264
I0
g253
sI1
(lp265
sI2
(lp266
sI3
(lp267
sI4
(lp268
Vhttp://dbpedia.org/property/season
p269
aVhttp://dbpedia.org/ontology/abstract
p270
aVhttp://www.georss.org/georss/point
p271
aVhttp://dbpedia.org/property/hasPhotoCollection
p272
aVhttp://www.w3.org/2002/07/owl#sameAs
p273
assI2
(dp274
I0
g261
sI1
g266
sI2
(lp275
sI3
(lp276
sI4
(lp277
ssI3
(dp278
I0
g262
sI1
g267
sI2
g276
sI3
(lp279
sI4
(lp280
ssI4
(dp281
I0
g263
sI1
g268
sI2
g277
sI3
g280
sI4
(lp282
ssa(dp283
I0
(dp284
I0
(lp285
sI1
(lp286
sI2
(lp287
sI3
(lp288
sI4
(lp289
ssI1
(dp290
I0
g286
sI1
(lp291
sI2
(lp292
sI3
(lp293
sI4
(lp294
ssI2
(dp295
I0
g287
sI1
g292
sI2
(lp296
sI3
(lp297
sI4
(lp298
ssI3
(dp299
I0
g288
sI1
g293
sI2
g297
sI3
(lp300
sI4
(lp301
ssI4
(dp302
I0
g289
sI1
g294
sI2
g298
sI3
g301
sI4
(lp303
ssa(dp304
I0
(dp305
I0
(lp306
sI1
(lp307
sI2
(lp308
sI3
(lp309
sI4
(lp310
ssI1
(dp311
I0
g307
sI1
(lp312
sI2
(lp313
sI3
(lp314
sI4
(lp315
ssI2
(dp316
I0
g308
sI1
g313
sI2
(lp317
sI3
(lp318
sI4
(lp319
ssI3
(dp320
I0
g309
sI1
g314
sI2
g318
sI3
(lp321
sI4
(lp322
ssI4
(dp323
I0
g310
sI1
g315
sI2
g319
sI3
g322
sI4
(lp324
ssa(dp325
I0
(dp326
I0
(lp327
sI1
(lp328
Vhttp://dbpedia.org/ontology/abstract
p329
aVhttp://www.w3.org/2000/01/rdf-schema#comment
p330
asI2
(lp331
sI3
(lp332
sI4
(lp333
ssI1
(dp334
I0
g328
sI1
(lp335
sI2
(lp336
Vhttp://dbpedia.org/property/mapCaption
p337
aVhttp://www.w3.org/1999/02/22-rdf-syntax-ns#type
p338
aVhttp://purl.org/dc/terms/subject
p339
aVhttp://dbpedia.org/property/mapType
p340
aVhttp://www.w3.org/2000/01/rdf-schema#comment
p341
aVhttp://dbpedia.org/ontology/abstract
p342
aVhttp://dbpedia.org/property/location
p343
aVhttp://dbpedia.org/ontology/wikiPageRedirects
p344
aVhttp://dbpedia.org/property/publictransit
p345
asI3
(lp346
sI4
(lp347
ssI2
(dp348
I0
g331
sI1
g336
sI2
(lp349
sI3
(lp350
sI4
(lp351
ssI3
(dp352
I0
g332
sI1
g346
sI2
g350
sI3
(lp353
sI4
(lp354
ssI4
(dp355
I0
g333
sI1
g347
sI2
g351
sI3
g354
sI4
(lp356
ssa(dp357
I0
(dp358
I0
(lp359
sI1
(lp360
Vhttp://dbpedia.org/ontology/abstract
p361
aVhttp://www.w3.org/2002/07/owl#sameAs
p362
asI2
(lp363
sI3
(lp364
sI4
(lp365
ssI1
(dp366
I0
g360
sI1
(lp367
sI2
(lp368
Vhttp://dbpedia.org/ontology/abstract
p369
aVhttp://www.w3.org/2000/01/rdf-schema#comment
p370
aVhttp://dbpedia.org/property/location
p371
aVhttp://dbpedia.org/ontology/location
p372
asI3
(lp373
sI4
(lp374
ssI2
(dp375
I0
g363
sI1
g368
sI2
(lp376
sI3
(lp377
sI4
(lp378
ssI3
(dp379
I0
g364
sI1
g373
sI2
g377
sI3
(lp380
sI4
(lp381
ssI4
(dp382
I0
g365
sI1
g374
sI2
g378
sI3
g381
sI4
(lp383
ssa(dp384
I0
(dp385
I0
(lp386
sI1
(lp387
sI2
(lp388
sI3
(lp389
sI4
(lp390
ssI1
(dp391
I0
g387
sI1
(lp392
sI2
(lp393
sI3
(lp394
sI4
(lp395
ssI2
(dp396
I0
g388
sI1
g393
sI2
(lp397
sI3
(lp398
sI4
(lp399
ssI3
(dp400
I0
g389
sI1
g394
sI2
g398
sI3
(lp401
sI4
(lp402
ssI4
(dp403
I0
g390
sI1
g395
sI2
g399
sI3
g402
sI4
(lp404
ssa(dp405
I0
(dp406
I0
(lp407
sI1
(lp408
sI2
(lp409
Vhttp://www.w3.org/2000/01/rdf-schema#seeAlso
p410
aVhttp://www.w3.org/1999/02/22-rdf-syntax-ns#type
p411
aVhttp://dbpedia.org/property/shipBuilder
p412
aVhttp://dbpedia.org/ontology/location
p413
aVhttp://dbpedia.org/property/hostCity
p414
aVhttp://dbpedia.org/property/home
p415
aVhttp://dbpedia.org/ontology/abstract
p416
aVhttp://dbpedia.org/ontology/recordedIn
p417
aVhttp://dbpedia.org/property/place
p418
aVhttp://dbpedia.org/property/location
p419
aVhttp://dbpedia.org/property/destination
p420
aVhttp://dbpedia.org/property/city
p421
aVhttp://dbpedia.org/property/siteCityst
p422
aVhttp://dbpedia.org/property/hometown
p423
aVhttp://dbpedia.org/property/stadium
p424
asI3
(lp425
sI4
(lp426
ssI1
(dp427
I0
g408
sI1
(lp428
sI2
(lp429
sI3
(lp430
sI4
(lp431
ssI2
(dp432
I0
g409
sI1
g429
sI2
(lp433
sI3
(lp434
sI4
(lp435
Vhttp://dbpedia.org/property/origin
p436
aVhttp://dbpedia.org/property/placeOfDeath
p437
aVhttp://dbpedia.org/property/coordinatesRegion
p438
aVhttp://dbpedia.org/property/hostCity
p439
aVhttp://dbpedia.org/property/place
p440
aVhttp://dbpedia.org/ontology/foundationPlace
p441
aVhttp://dbpedia.org/property/city
p442
aVhttp://dbpedia.org/ontology/city
p443
aVhttp://dbpedia.org/property/recorded
p444
aVhttp://dbpedia.org/property/nickname
p445
aVhttp://dbpedia.org/ontology/utcOffset
p446
aVhttp://www.w3.org/2002/07/owl#differentFrom
p447
aVhttp://dbpedia.org/property/assembly
p448
aVhttp://dbpedia.org/ontology/homeport
p449
aVhttp://dbpedia.org/property/birthPlace
p450
aVhttp://dbpedia.org/property/placeOfBirth
p451
aVhttp://dbpedia.org/property/office
p452
aVhttp://dbpedia.org/ontology/assembly
p453
aVhttp://xmlns.com/foaf/0.1/nick
p454
aVhttp://dbpedia.org/property/divisions
p455
aVhttp://dbpedia.org/property/siteCityst
p456
aVhttp://purl.org/dc/terms/subject
p457
aVhttp://dbpedia.org/ontology/residence
p458
aVhttp://dbpedia.org/ontology/abstract
p459
aVhttp://dbpedia.org/ontology/recordedIn
p460
aVhttp://dbpedia.org/property/region
p461
aVhttp://dbpedia.org/property/deathPlace
p462
aVhttp://dbpedia.org/ontology/division
p463
aVhttp://dbpedia.org/ontology/builder
p464
aVhttp://dbpedia.org/ontology/headquarter
p465
aVhttp://dbpedia.org/property/foundation
p466
aVhttp://dbpedia.org/property/hasPhotoCollection
p467
aVhttp://dbpedia.org/property/shipNamesake
p468
aVhttp://www.w3.org/2000/01/rdf-schema#label
p469
aVhttp://dbpedia.org/property/subdivisionName
p470
aVhttp://dbpedia.org/ontology/location
p471
aVhttp://dbpedia.org/property/shipRoute
p472
aVhttp://www.georss.org/georss/point
p473
aVhttp://dbpedia.org/property/shipBuilder
p474
aVhttp://dbpedia.org/property/headquarters
p475
aVhttp://dbpedia.org/property/residence
p476
aVhttp://dbpedia.org/ontology/locationCity
p477
aVhttp://dbpedia.org/property/location
p478
aVhttp://www.w3.org/2000/01/rdf-schema#comment
p479
aVhttp://dbpedia.org/ontology/wikiPageRedirects
p480
aVhttp://dbpedia.org/property/area
p481
aVhttp://dbpedia.org/ontology/hometown
p482
aVhttp://dbpedia.org/property/locationCity
p483
aVhttp://www.w3.org/2002/07/owl#sameAs
p484
aVhttp://dbpedia.org/property/data
p485
aVhttp://dbpedia.org/ontology/birthPlace
p486
aVhttp://dbpedia.org/property/stadium
p487
aVhttp://dbpedia.org/ontology/deathPlace
p488
assI3
(dp489
I0
g425
sI1
g430
sI2
g434
sI3
(lp490
sI4
(lp491
ssI4
(dp492
I0
g426
sI1
g431
sI2
g435
sI3
g491
sI4
(lp493
ssa(dp494
I0
(dp495
I0
(lp496
sI1
(lp497
sI2
(lp498
sI3
(lp499
sI4
(lp500
ssI1
(dp501
I0
g497
sI1
(lp502
sI2
(lp503
sI3
(lp504
sI4
(lp505
ssI2
(dp506
I0
g498
sI1
g503
sI2
(lp507
sI3
(lp508
sI4
(lp509
ssI3
(dp510
I0
g499
sI1
g504
sI2
g508
sI3
(lp511
sI4
(lp512
ssI4
(dp513
I0
g500
sI1
g505
sI2
g509
sI3
g512
sI4
(lp514
ssa(dp515
I0
(dp516
I0
(lp517
sI1
(lp518
sI2
(lp519
Vhttp://dbpedia.org/property/placeOfDeath
p520
aVhttp://www.w3.org/1999/02/22-rdf-syntax-ns#type
p521
aVhttp://purl.org/dc/terms/subject
p522
aVhttp://dbpedia.org/property/headquarters
p523
aVhttp://www.w3.org/2000/01/rdf-schema#comment
p524
aVhttp://dbpedia.org/ontology/abstract
p525
aVhttp://dbpedia.org/property/deathPlace
p526
aVhttp://dbpedia.org/property/birthPlace
p527
aVhttp://dbpedia.org/ontology/deathPlace
p528
aVhttp://dbpedia.org/property/placeOfBirth
p529
aVhttp://dbpedia.org/property/stopover
p530
aVhttp://dbpedia.org/ontology/birthPlace
p531
aVhttp://www.w3.org/2002/07/owl#sameAs
p532
aVhttp://dbpedia.org/ontology/headquarter
p533
asI3
(lp534
sI4
(lp535
ssI1
(dp536
I0
g518
sI1
(lp537
sI2
(lp538
sI3
(lp539
sI4
(lp540
ssI2
(dp541
I0
g519
sI1
g538
sI2
(lp542
sI3
(lp543
sI4
(lp544
Vhttp://dbpedia.org/property/placeOfDeath
p545
aVhttp://dbpedia.org/property/cities
p546
aVhttp://dbpedia.org/property/ground
p547
aVhttp://dbpedia.org/property/deathDate
p548
aVhttp://dbpedia.org/property/place
p549
aVhttp://dbpedia.org/ontology/wikiPageRedirects
p550
aVhttp://dbpedia.org/property/city
p551
aVhttp://dbpedia.org/ontology/locatedInArea
p552
aVhttp://dbpedia.org/property/site
p553
aVhttp://dbpedia.org/ontology/regionServed
p554
aVhttp://dbpedia.org/property/region
p555
aVhttp://dbpedia.org/property/hubs
p556
aVhttp://dbpedia.org/property/birthPlace
p557
aVhttp://dbpedia.org/ontology/ground
p558
aVhttp://dbpedia.org/property/image
p559
aVhttp://dbpedia.org/property/placeOfBirth
p560
aVhttp://dbpedia.org/property/areaServed
p561
aVhttp://dbpedia.org/property/locationTown
p562
aVhttp://dbpedia.org/ontology/wikiPageExternalLink
p563
aVhttp://dbpedia.org/ontology/locationCity
p564
aVhttp://purl.org/dc/terms/subject
p565
aVhttp://dbpedia.org/ontology/populationPlace
p566
aVhttp://dbpedia.org/property/burialPlace
p567
aVhttp://dbpedia.org/property/imageSkyline
p568
aVhttp://dbpedia.org/ontology/abstract
p569
aVhttp://xmlns.com/foaf/0.1/depiction
p570
aVhttp://dbpedia.org/property/venue
p571
aVhttp://dbpedia.org/property/deathPlace
p572
aVhttp://dbpedia.org/property/location
p573
aVhttp://dbpedia.org/ontology/builder
p574
aVhttp://dbpedia.org/property/holiday
p575
aVhttp://dbpedia.org/ontology/deathPlace
p576
aVhttp://dbpedia.org/property/ruName
p577
aVhttp://dbpedia.org/ontology/city
p578
aVhttp://dbpedia.org/property/hasPhotoCollection
p579
aVhttp://www.w3.org/2000/01/rdf-schema#label
p580
aVhttp://dbpedia.org/ontology/location
p581
aVhttp://dbpedia.org/property/locale
p582
aVhttp://dbpedia.org/ontology/assembly
p583
aVhttp://dbpedia.org/property/headquarters
p584
aVhttp://www.w3.org/2000/01/rdf-schema#comment
p585
aVhttp://dbpedia.org/property/builders
p586
aVhttp://dbpedia.org/ontology/birthPlace
p587
aVhttp://dbpedia.org/property/iso
p588
aVhttp://dbpedia.org/property/shipBuilder
p589
aVhttp://dbpedia.org/property/locationCity
p590
aVhttp://www.w3.org/2002/07/owl#sameAs
p591
aVhttp://xmlns.com/foaf/0.1/homepage
p592
aVhttp://dbpedia.org/ontology/headquarter
p593
aVhttp://dbpedia.org/property/data
p594
aVhttp://dbpedia.org/property/popplace
p595
aVhttp://dbpedia.org/property/stadium
p596
aVhttp://dbpedia.org/ontology/thumbnail
p597
assI3
(dp598
I0
g534
sI1
g539
sI2
g543
sI3
(lp599
sI4
(lp600
ssI4
(dp601
I0
g535
sI1
g540
sI2
g544
sI3
g600
sI4
(lp602
ssa(dp603
I0
(dp604
I0
(lp605
sI1
(lp606
sI2
(lp607
sI3
(lp608
sI4
(lp609
ssI1
(dp610
I0
g606
sI1
(lp611
sI2
(lp612
Vhttp://xmlns.com/foaf/0.1/depiction
p613
aVhttp://dbpedia.org/ontology/thumbnail
p614
asI3
(lp615
sI4
(lp616
Vhttp://dbpedia.org/ontology/abstract
p617
aVhttp://xmlns.com/foaf/0.1/depiction
p618
aVhttp://dbpedia.org/ontology/thumbnail
p619
aVhttp://www.w3.org/2000/01/rdf-schema#comment
p620
assI2
(dp621
I0
g607
sI1
g612
sI2
(lp622
sI3
(lp623
sI4
(lp624
ssI3
(dp625
I0
g608
sI1
g615
sI2
g623
sI3
(lp626
sI4
(lp627
ssI4
(dp628
I0
g609
sI1
g616
sI2
g624
sI3
g627
sI4
(lp629
ssa(dp630
I0
(dp631
I0
(lp632
sI1
(lp633
Vhttp://www.w3.org/1999/02/22-rdf-syntax-ns#type
p634
asI2
(lp635
sI3
(lp636
sI4
(lp637
ssI1
(dp638
I0
g633
sI1
(lp639
sI2
(lp640
Vhttp://dbpedia.org/ontology/abstract
p641
aVhttp://www.w3.org/2000/01/rdf-schema#comment
p642
aVhttp://dbpedia.org/property/publictransit
p643
aVhttp://dbpedia.org/property/location
p644
asI3
(lp645
sI4
(lp646
Vhttp://dbpedia.org/property/website
p647
aVhttp://www.georss.org/georss/point
p648
aVhttp://purl.org/dc/terms/subject
p649
aVhttp://www.w3.org/2000/01/rdf-schema#comment
p650
aVhttp://dbpedia.org/ontology/abstract
p651
aVhttp://xmlns.com/foaf/0.1/depiction
p652
aVhttp://www.w3.org/1999/02/22-rdf-syntax-ns#type
p653
aVhttp://dbpedia.org/ontology/thumbnail
p654
aVhttp://dbpedia.org/property/hasPhotoCollection
p655
aVhttp://www.w3.org/2002/07/owl#sameAs
p656
assI2
(dp657
I0
g635
sI1
g640
sI2
(lp658
sI3
(lp659
sI4
(lp660
ssI3
(dp661
I0
g636
sI1
g645
sI2
g659
sI3
(lp662
sI4
(lp663
ssI4
(dp664
I0
g637
sI1
g646
sI2
g660
sI3
g663
sI4
(lp665
ssa.