(lp1
(lp2
(lp3
a(lp4
aa(lp5
(lp6
a(lp7
aa(lp8
(lp9
a(lp10
((lVhttp://dbpedia.org/resource/Null
tp11
aaa(lp12
(lp13
a(lp14
aa(lp15
(lp16
a(lp17
aa(lp18
(lp19
a(lp20
aa(lp21
(lp22
a(lp23
aa(lp24
(lp25
a(lp26
aa(lp27
(lp28
a(lp29
aa(lp30
(lp31
a(lp32
aa(lp33
(lp34
a(lp35
((lVhttp://dbpedia.org/resource/Null
p36
tp37
aaa(lp38
(lp39
a(lp40
aa(lp41
(lp42
a(lp43
aa(lp44
(lp45
a(lp46
aa(lp47
(lp48
a(lp49
aa.