(lp1
(lp2
(lp3
Vhttp://dbpedia.org/resource/AES_Corporation
p4
aa(lp5
a(lp6
aa(lp7
(lp8
Vhttp://dbpedia.org/resource/Booz_Allen_Hamilton
p9
aa(lp10
a(lp11
aa(lp12
(lp13
Vhttp://dbpedia.org/resource/Coventry_Health_Care
p14
aa(lp15
a(lp16
aa(lp17
(lp18
Vhttp://dbpedia.org/resource/Capital_One
p19
aa(lp20
a(lp21
aa(lp22
(lp23
Vhttp://dbpedia.org/resource/Computer_Sciences_Corporation
p24
aa(lp25
a(lp26
aa(lp27
(lp28
Vhttp://dbpedia.org/resource/Danaher_Corporation
p29
aa(lp30
Vhttp://dbpedia.org/resource/Washington,_D.C.
p31
aa(lp32
aa(lp33
(lp34
Vhttp://dbpedia.org/resource/Fannie_Mae
p35
aa(lp36
Vhttp://dbpedia.org/resource/Washington,_D.C.
p37
aa(lp38
aa(lp39
(lp40
Vhttp://dbpedia.org/resource/Freddie_Mac
p41
aa(lp42
a(lp43
aa(lp44
(lp45
Vhttp://dbpedia.org/resource/Gannett_Company
p46
aa(lp47
a(lp48
aa(lp49
(lp50
Vhttp://dbpedia.org/resource/General_Dynamics
p51
aa(lp52
a(lp53
aa(lp54
(lp55
Vhttp://dbpedia.org/resource/GEI
p56
aa(lp57
a(lp58
aa(lp59
(lp60
Vhttp://dbpedia.org/resource/Hilton_Worldwide
p61
aa(lp62
a(lp63
aa(lp64
(lp65
Vhttp://dbpedia.org/resource/Lockheed_Martin
p66
aa(lp67
a(lp68
aa(lp69
(lp70
Vhttp://dbpedia.org/resource/Marriott_International
p71
aa(lp72
a(lp73
aa(lp74
(lp75
Vhttp://dbpedia.org/resource/Mars,_Incorporated
p76
aa(lp77
a(lp78
aa(lp79
(lp80
Vhttp://dbpedia.org/resource/Northrop_Grumman
p81
aa(lp82
a(lp83
aa(lp84
(lp85
Vhttp://dbpedia.org/resource/NII_Holdings
p86
aa(lp87
a(lp88
aa(lp89
(lp90
Vhttp://dbpedia.org/resource/Pepco_Holdings
p91
aa(lp92
Vhttp://dbpedia.org/resource/Washington,_D.C.
p93
aa(lp94
aa(lp95
(lp96
Vhttp://dbpedia.org/resource/SAIC_Motor
p97
aa(lp98
a(lp99
aa(lp100
(lp101
a(lp102
Vhttp://dbpedia.org/resource/Washington,_D.C.
p103
aa(lp104
aa.