(lp1
(lp2
(lp3
Vhttp://dbpedia.org/resource/English,_Indiana
p4
aa(lp5
a(lp6
Vhttp://dbpedia.org/resource/ASCII
p7
aa(lp8
aa(lp9
(lp10
Vhttp://dbpedia.org/resource/English,_Indiana
p11
aa(lp12
Vhttp://dbpedia.org/resource/United_Kingdom
p13
aa(lp14
a(lp15
aa(lp16
(lp17
Vhttp://dbpedia.org/resource/English,_Indiana
p18
aa(lp19
Vhttp://dbpedia.org/resource/United_States
p20
aa(lp21
Vhttp://dbpedia.org/resource/ASCII
p22
aa(lp23
aa(lp24
(lp25
Vhttp://dbpedia.org/resource/French_River_(Ontario)
p26
aa(lp27
Vhttp://dbpedia.org/resource/Canada
p28
aa(lp29
a(lp30
aa(lp31
(lp32
Vhttp://dbpedia.org/resource/French_River_(Ontario)
p33
aa(lp34
Vhttp://dbpedia.org/resource/France_2
p35
aa(lp36
a(lp37
aa(lp38
(lp39
Vhttp://dbpedia.org/resource/Germany
p40
aa(lp41
Vhttp://dbpedia.org/resource/Germany
p42
aa(lp43
Vhttp://dbpedia.org/resource/ISO_6438
p44
aa(lp45
aa(lp46
(lp47
Vhttp://dbpedia.org/resource/Germany
p48
aa(lp49
Vhttp://dbpedia.org/resource/Germany
p50
aa(lp51
Vhttp://dbpedia.org/resource/ISO_6438
p52
aa(lp53
aa(lp54
(lp55
Vhttp://dbpedia.org/resource/Germany
p56
aa(lp57
Vhttp://dbpedia.org/resource/Germany
p58
aa(lp59
a(lp60
aa(lp61
(lp62
Vhttp://dbpedia.org/resource/Germany
p63
aa(lp64
Vhttp://dbpedia.org/resource/Switzerland
p65
aa(lp66
Vhttp://dbpedia.org/resource/ISO_6438
p67
aa(lp68
aa(lp69
(lp70
Vhttp://dbpedia.org/resource/Japonic_languages
p71
aa(lp72
Vhttp://dbpedia.org/resource/Japan
p73
aa(lp74
Vhttp://dbpedia.org/resource/Jabriya_Indian_School
p75
aa(lp76
aa(lp77
(lp78
Vhttp://dbpedia.org/resource/Japonic_languages
p79
aa(lp80
Vhttp://dbpedia.org/resource/Japan
p81
aa(lp82
Vhttp://dbpedia.org/resource/St._John's_International_School
p83
aa(lp84
aa(lp85
(lp86
Vhttp://dbpedia.org/resource/Japonic_languages
p87
aa(lp88
Vhttp://dbpedia.org/resource/Japan
p89
aa(lp90
a(lp91
aa.