(lp1
(lp2
a(lp3
(dp4
Vstart
p5
I0
sS'classes'
p6
(lp7
Vhttp://www.w3.org/2002/07/owl#Thing
p8
aVhttp://dbpedia.org/ontology/Place
p9
aVhttp://dbpedia.org/ontology/Location
p10
aVhttp://www.wikidata.org/entity/Q486972
p11
aVhttp://www.wikidata.org/entity/Q6256
p12
aVhttp://dbpedia.org/ontology/Country
p13
aVhttp://dbpedia.org/ontology/PopulatedPlace
p14
aVhttp://www.w3.org/2003/01/geo/wgs84_pos#SpatialThing
p15
aVhttp://schema.org/Country
p16
aVhttp://schema.org/Place
p17
aVhttp://umbel.org/umbel/rc/Country
p18
aVhttp://umbel.org/umbel/rc/Location_Underspecified
p19
aVhttp://umbel.org/umbel/rc/PopulatedPlace
p20
aVhttp://dbpedia.org/class/yago/Abstraction100002137
p21
aVhttp://dbpedia.org/class/yago/AdministrativeDistrict108491826
p22
aVhttp://dbpedia.org/class/yago/Country108544813
p23
aVhttp://dbpedia.org/class/yago/District108552138
p24
aVhttp://dbpedia.org/class/yago/Economy108366753
p25
aVhttp://dbpedia.org/class/yago/Group100031264
p26
aVhttp://dbpedia.org/class/yago/Location100027167
p27
aVhttp://dbpedia.org/class/yago/Object100002684
p28
aVhttp://dbpedia.org/class/yago/Region108630985
p29
aVhttp://dbpedia.org/class/yago/System108435388
p30
aVhttp://dbpedia.org/class/yago/YagoGeoEntity
p31
aVhttp://dbpedia.org/class/yago/YagoLegalActorGeo
p32
aVhttp://dbpedia.org/class/yago/EuropeanCountries
p33
aVhttp://dbpedia.org/class/yago/PhysicalEntity100001930
p34
aVhttp://dbpedia.org/class/yago/YagoPermanentlyLocatedEntity
p35
aVhttp://dbpedia.org/class/yago/LandlockedCountries
p36
aVhttp://dbpedia.org/class/yago/MemberStatesOfLaFrancophonie
p37
aVhttp://dbpedia.org/class/yago/MemberStatesOfTheUnitedNations
p38
aVhttp://dbpedia.org/class/yago/SlavicCountries
p39
aVhttp://dbpedia.org/class/yago/StatesAndTerritoriesEstablishedIn1991
p40
asVdisambiguatedURL
p41
Vhttp://dbpedia.org/resource/Republic_of_Macedonia
p42
sVnamedEntity
p43
Vmacedoniathe former yugoslav republic of
p44
sVoffset
p45
I40
saa(lp46
a(lp47
a(lp48
a(lp49
a(lp50
a(lp51
a(lp52
a(lp53
a(lp54
a(lp55
a(lp56
a(lp57
a(lp58
a(lp59
a(lp60
a(lp61
a(lp62
a(lp63
a.