(lp1
(lp2
(lp3
a(lp4
((lp5
Vhttp://www.w3.org/2002/07/owl#Thing
p6
aVhttp://xmlns.com/foaf/0.1/Person
p7
aVhttp://dbpedia.org/ontology/Person
p8
aVhttp://www.ontologydesignpatterns.org/ont/dul/DUL.owl#Agent
p9
aVhttp://www.ontologydesignpatterns.org/ont/dul/DUL.owl#NaturalPerson
p10
aVhttp://www.wikidata.org/entity/Q215627
p11
aVhttp://www.wikidata.org/entity/Q5
p12
aVhttp://dbpedia.org/ontology/Agent
p13
aVhttp://schema.org/Person
p14
aVhttp://dbpedia.org/class/yago/Administrator109770949
p15
aVhttp://dbpedia.org/class/yago/Athlete109820263
p16
aVhttp://dbpedia.org/class/yago/BristolRoversF.C.Players
p17
aVhttp://dbpedia.org/class/yago/CausalAgent100007347
p18
aVhttp://dbpedia.org/class/yago/Contestant109613191
p19
aVhttp://dbpedia.org/class/yago/Director110014939
p20
aVhttp://dbpedia.org/class/yago/FootballPlayer110101634
p21
aVhttp://dbpedia.org/class/yago/Head110162991
p22
aVhttp://dbpedia.org/class/yago/Leader109623038
p23
aVhttp://dbpedia.org/class/yago/LivingThing100004258
p24
aVhttp://dbpedia.org/class/yago/Object100002684
p25
aVhttp://dbpedia.org/class/yago/Organism100004475
p26
aVhttp://dbpedia.org/class/yago/Person100007846
p27
aVhttp://dbpedia.org/class/yago/Player110439851
p28
aVhttp://dbpedia.org/class/yago/Whole100003553
p29
aVhttp://dbpedia.org/class/yago/YagoLegalActorGeo
p30
aVhttp://dbpedia.org/class/yago/PhysicalEntity100001930
p31
aVhttp://dbpedia.org/class/yago/HalifaxTownA.F.C.Players
p32
aVhttp://dbpedia.org/class/yago/HerefordUnitedF.C.Players
p33
aVhttp://dbpedia.org/class/yago/LivingPeople
p34
aVhttp://dbpedia.org/class/yago/YagoLegalActor
p35
aVhttp://dbpedia.org/class/yago/TheFootballLeaguePlayers
p36
aVhttp://dbpedia.org/class/yago/WelshFootballManagers
p37
aVhttp://dbpedia.org/class/yago/WelshFootballers
p38
aVhttp://dbpedia.org/resource/Wayne_Powell
tp39
aa(lp40
aa(lp41
(lp42
a(lp43
a(lp44
aa(lp45
(lp46
a(lp47
a(lp48
aa(lp49
(lp50
((lp51
Vhttp://dbpedia.org/class/yago/CausalAgent100007347
p52
aVhttp://dbpedia.org/class/yago/Engineer109615807
p53
aVhttp://dbpedia.org/class/yago/LivingThing100004258
p54
aVhttp://dbpedia.org/class/yago/Object100002684
p55
aVhttp://dbpedia.org/class/yago/Organism100004475
p56
aVhttp://dbpedia.org/class/yago/Person100007846
p57
aVhttp://dbpedia.org/class/yago/Whole100003553
p58
aVhttp://dbpedia.org/class/yago/YagoLegalActorGeo
p59
aVhttp://dbpedia.org/class/yago/Engineers
p60
aVhttp://dbpedia.org/class/yago/PhysicalEntity100001930
p61
aVhttp://dbpedia.org/class/yago/YagoLegalActor
p62
aVhttp://dbpedia.org/resource/Design_engineer
tp63
aa(lp64
a(lp65
aa(lp66
(lp67
((lp68
Vhttp://dbpedia.org/class/yago/CausalAgent100007347
p69
aVhttp://dbpedia.org/class/yago/Engineer109615807
p70
aVhttp://dbpedia.org/class/yago/LivingThing100004258
p71
aVhttp://dbpedia.org/class/yago/Object100002684
p72
aVhttp://dbpedia.org/class/yago/Organism100004475
p73
aVhttp://dbpedia.org/class/yago/Person100007846
p74
aVhttp://dbpedia.org/class/yago/Whole100003553
p75
aVhttp://dbpedia.org/class/yago/YagoLegalActorGeo
p76
aVhttp://dbpedia.org/class/yago/Engineers
p77
aVhttp://dbpedia.org/class/yago/PhysicalEntity100001930
p78
aVhttp://dbpedia.org/class/yago/YagoLegalActor
p79
aVhttp://dbpedia.org/resource/Design_engineer
tp80
aa(lp81
a(lp82
aa(lp83
(lp84
((lp85
Vhttp://dbpedia.org/class/yago/CausalAgent100007347
p86
aVhttp://dbpedia.org/class/yago/Engineer109615807
p87
aVhttp://dbpedia.org/class/yago/LivingThing100004258
p88
aVhttp://dbpedia.org/class/yago/Object100002684
p89
aVhttp://dbpedia.org/class/yago/Organism100004475
p90
aVhttp://dbpedia.org/class/yago/Person100007846
p91
aVhttp://dbpedia.org/class/yago/Whole100003553
p92
aVhttp://dbpedia.org/class/yago/YagoLegalActorGeo
p93
aVhttp://dbpedia.org/class/yago/Engineers
p94
aVhttp://dbpedia.org/class/yago/PhysicalEntity100001930
p95
aVhttp://dbpedia.org/class/yago/YagoLegalActor
p96
aVhttp://dbpedia.org/resource/Design_engineer
tp97
aa(lp98
a(lp99
aa(lp100
(lp101
((lVhttp://dbpedia.org/resource/Product_engineering
tp102
aa(lp103
a(lp104
aa(lp105
(lp106
((lVhttp://dbpedia.org/resource/Electrical_engineering
tp107
aa(lp108
a(lp109
aa(lp110
(lp111
a(lp112
a(lp113
aa(lp114
(lp115
((lVhttp://dbpedia.org/resource/Order_management_system
tp116
aa(lp117
a(lp118
aa(lp119
(lp120
((lVhttp://dbpedia.org/resource/Order_management_system
p121
tp122
aa(lp123
a(lp124
aa.