(lp1
(lp2
(dp3
Vstart
p4
I0
sVdisambiguatedURL
p5
Vhttp://dbpedia.org/resource/Null
p6
sVnamedEntity
p7
VNULL
p8
sVoffset
p9
I4
saa(lp10
(dp11
Vstart
p12
I0
sVdisambiguatedURL
p13
NsVnamedEntity
p14
Vget driving directions
p15
sVoffset
p16
I22
saa.