(lp1
(lp2
(dp3
Vstart
p4
I0
sVdisambiguatedURL
p5
NsVnamedEntity
p6
V40
p7
sVoffset
p8
I2
saa(lp9
(dp10
Vstart
p11
I0
sVdisambiguatedURL
p12
NsVnamedEntity
p13
V6
sVoffset
p14
I1
saa(lp15
(dp16
Vstart
p17
I0
sVdisambiguatedURL
p18
NsVnamedEntity
p19
V22
p20
sVoffset
p21
I2
saa(lp22
(dp23
Vstart
p24
I0
sVdisambiguatedURL
p25
NsVnamedEntity
p26
V37
p27
sVoffset
p28
I2
saa(lp29
(dp30
Vstart
p31
I0
sVdisambiguatedURL
p32
NsVnamedEntity
p33
V40
p34
sVoffset
p35
I2
saa(lp36
(dp37
Vstart
p38
I0
sVdisambiguatedURL
p39
NsVnamedEntity
p40
V45
p41
sVoffset
p42
I2
saa(lp43
(dp44
Vstart
p45
I0
sVdisambiguatedURL
p46
NsVnamedEntity
p47
V22
p48
sVoffset
p49
I2
saa(lp50
(dp51
Vstart
p52
I0
sVdisambiguatedURL
p53
NsVnamedEntity
p54
V34
p55
sVoffset
p56
I2
saa(lp57
(dp58
Vstart
p59
I0
sVdisambiguatedURL
p60
NsVnamedEntity
p61
V38
p62
sVoffset
p63
I2
saa(lp64
(dp65
Vstart
p66
I0
sVdisambiguatedURL
p67
NsVnamedEntity
p68
V27
p69
sVoffset
p70
I2
saa(lp71
(dp72
Vstart
p73
I0
sVdisambiguatedURL
p74
NsVnamedEntity
p75
V53
p76
sVoffset
p77
I2
saa.