(lp1
(lp2
(dp3
Vstart
p4
I0
sVdisambiguatedURL
p5
Vhttp://dbpedia.org/resource/Carnegie_Mellon_University
p6
sVnamedEntity
p7
Vcarnegie mellon university
p8
sVoffset
p9
I26
saa(lp10
(dp11
Vstart
p12
I0
sVdisambiguatedURL
p13
Vhttp://dbpedia.org/resource/Massachusetts_Institute_of_Technology
p14
sVnamedEntity
p15
Vmassachusetts institute of technology
p16
sVoffset
p17
I37
saa(lp18
(dp19
Vstart
p20
I0
sVdisambiguatedURL
p21
Vhttp://dbpedia.org/resource/Georgia_Institute_of_Technology
p22
sVnamedEntity
p23
Vgeorgia institute of technology
p24
sVoffset
p25
I31
saa(lp26
(dp27
Vstart
p28
I0
sVdisambiguatedURL
p29
NsVnamedEntity
p30
Vibm research watson research center
p31
sVoffset
p32
I35
saa(lp33
(dp34
Vstart
p35
I0
sVdisambiguatedURL
p36
NsVnamedEntity
p37
Vmicrosoft
p38
sVoffset
p39
I9
saa(lp40
(dp41
Vstart
p42
I0
sVdisambiguatedURL
p43
NsVnamedEntity
p44
Vpalo alto research center
p45
sVoffset
p46
I25
saa(lp47
(dp48
Vstart
p49
I0
sVdisambiguatedURL
p50
Vhttp://dbpedia.org/resource/University_of_Michigan
p51
sVnamedEntity
p52
Vuniversity of michigan
p53
sVoffset
p54
I22
saa(lp55
(dp56
Vstart
p57
I0
sVdisambiguatedURL
p58
Vhttp://dbpedia.org/resource/University_of_Toronto
p59
sVnamedEntity
p60
Vuniversity of toronto
p61
sVoffset
p62
I21
saa(lp63
(dp64
Vstart
p65
I0
sVdisambiguatedURL
p66
Vhttp://dbpedia.org/resource/Stanford_University
p67
sVnamedEntity
p68
Vstanford university
p69
sVoffset
p70
I19
saa(lp71
(dp72
Vstart
p73
I0
sVdisambiguatedURL
p74
Vhttp://dbpedia.org/resource/University_of_California,_Berkeley
p75
sVnamedEntity
p76
Vuniversity of california berkeley
p77
sVoffset
p78
I33
saa(lp79
(dp80
Vstart
p81
I0
sVdisambiguatedURL
p82
Vhttp://dbpedia.org/resource/University_of_Colorado_Boulder
p83
sVnamedEntity
p84
Vuniversity of colorado boulder
p85
sVoffset
p86
I30
saa(lp87
(dp88
Vstart
p89
I0
sVdisambiguatedURL
p90
Vhttp://dbpedia.org/resource/University_of_Maryland,_College_Park
p91
sVnamedEntity
p92
Vuniversity of maryland
p93
sVoffset
p94
I22
saa(lp95
(dp96
Vstart
p97
I0
sVdisambiguatedURL
p98
Vhttp://dbpedia.org/resource/University_of_Washington
p99
sVnamedEntity
p100
Vuniversity of washington
p101
sVoffset
p102
I24
saa(lp103
(dp104
Vstart
p105
I0
sVdisambiguatedURL
p106
NsVnamedEntity
p107
Vhewlett packard labs
p108
sVoffset
p109
I20
saa(lp110
(dp111
Vstart
p112
I0
sVdisambiguatedURL
p113
Vhttp://dbpedia.org/resource/Virginia_Tech
p114
sVnamedEntity
p115
Vvirginia polytechnic institute and state university
p116
sVoffset
p117
I51
saa(lp118
(dp119
Vstart
p120
I0
sVdisambiguatedURL
p121
Vhttp://dbpedia.org/resource/University_of_Glasgow
p122
sVnamedEntity
p123
Vuniversity of glasgow
p124
sVoffset
p125
I21
saa(lp126
(dp127
Vstart
p128
I0
sVdisambiguatedURL
p129
Vhttp://dbpedia.org/resource/Indiana_University
p130
sVnamedEntity
p131
Vindiana university
p132
sVoffset
p133
I18
saa(lp134
(dp135
Vstart
p136
I0
sVdisambiguatedURL
p137
Vhttp://dbpedia.org/resource/Apple_Inc.
p138
sVnamedEntity
p139
Vapple computer
p140
sVoffset
p141
I14
saa(lp142
(dp143
Vstart
p144
I0
sVdisambiguatedURL
p145
NsVnamedEntity
p146
Vat&amp;t bell laboratories
p147
sVoffset
p148
I26
saa(lp149
(dp150
Vstart
p151
I0
sVdisambiguatedURL
p152
Vhttp://dbpedia.org/resource/University_of_York
p153
sVnamedEntity
p154
Vuniversity of york
p155
sVoffset
p156
I18
saa.