(lp1
(lp2
(lp3
a(lp4
((lp5
Vhttp://www.w3.org/2002/07/owl#Thing
p6
aVhttp://dbpedia.org/ontology/Place
p7
aVhttp://dbpedia.org/ontology/Location
p8
aVhttp://www.wikidata.org/entity/Q486972
p9
aVhttp://www.wikidata.org/entity/Q6256
p10
aVhttp://dbpedia.org/ontology/Country
p11
aVhttp://dbpedia.org/ontology/PopulatedPlace
p12
aVhttp://www.w3.org/2003/01/geo/wgs84_pos#SpatialThing
p13
aVhttp://schema.org/Country
p14
aVhttp://schema.org/Place
p15
aVhttp://umbel.org/umbel/rc/Country
p16
aVhttp://umbel.org/umbel/rc/Location_Underspecified
p17
aVhttp://umbel.org/umbel/rc/PopulatedPlace
p18
aVhttp://dbpedia.org/class/yago/Abstraction100002137
p19
aVhttp://dbpedia.org/class/yago/AdministrativeDistrict108491826
p20
aVhttp://dbpedia.org/class/yago/Country108544813
p21
aVhttp://dbpedia.org/class/yago/District108552138
p22
aVhttp://dbpedia.org/class/yago/Economy108366753
p23
aVhttp://dbpedia.org/class/yago/Group100031264
p24
aVhttp://dbpedia.org/class/yago/Location100027167
p25
aVhttp://dbpedia.org/class/yago/Object100002684
p26
aVhttp://dbpedia.org/class/yago/Region108630039
p27
aVhttp://dbpedia.org/class/yago/Region108630985
p28
aVhttp://dbpedia.org/class/yago/System108435388
p29
aVhttp://dbpedia.org/class/yago/YagoGeoEntity
p30
aVhttp://dbpedia.org/class/yago/YagoLegalActorGeo
p31
aVhttp://dbpedia.org/class/yago/DividedRegions
p32
aVhttp://dbpedia.org/class/yago/EastAsianCountries
p33
aVhttp://dbpedia.org/class/yago/PhysicalEntity100001930
p34
aVhttp://dbpedia.org/class/yago/YagoPermanentlyLocatedEntity
p35
aVhttp://dbpedia.org/class/yago/MemberStatesOfTheUnitedNations
p36
aVhttp://dbpedia.org/class/yago/StatesAndTerritoriesEstablishedIn1948
p37
aVhttp://dbpedia.org/class/yago/WorldTradeOrganizationMemberEconomies
p38
aVhttp://dbpedia.org/resource/South_Korea
tp39
aa(lp40
a(lp41
a(lp42
a(lp43
aa(lp44
(lp45
a(lp46
((lp47
Vhttp://www.w3.org/2002/07/owl#Thing
p48
aVhttp://dbpedia.org/ontology/Place
p49
aVhttp://dbpedia.org/ontology/Location
p50
aVhttp://www.wikidata.org/entity/Q486972
p51
aVhttp://www.wikidata.org/entity/Q6256
p52
aVhttp://dbpedia.org/ontology/Country
p53
aVhttp://dbpedia.org/ontology/PopulatedPlace
p54
aVhttp://www.w3.org/2003/01/geo/wgs84_pos#SpatialThing
p55
aVhttp://schema.org/Country
p56
aVhttp://schema.org/Place
p57
aVhttp://umbel.org/umbel/rc/Country
p58
aVhttp://umbel.org/umbel/rc/Location_Underspecified
p59
aVhttp://umbel.org/umbel/rc/PopulatedPlace
p60
aVhttp://dbpedia.org/class/yago/Abstraction100002137
p61
aVhttp://dbpedia.org/class/yago/AdministrativeDistrict108491826
p62
aVhttp://dbpedia.org/class/yago/Country108544813
p63
aVhttp://dbpedia.org/class/yago/District108552138
p64
aVhttp://dbpedia.org/class/yago/Economy108366753
p65
aVhttp://dbpedia.org/class/yago/Group100031264
p66
aVhttp://dbpedia.org/class/yago/Location100027167
p67
aVhttp://dbpedia.org/class/yago/Object100002684
p68
aVhttp://dbpedia.org/class/yago/Region108630039
p69
aVhttp://dbpedia.org/class/yago/Region108630985
p70
aVhttp://dbpedia.org/class/yago/System108435388
p71
aVhttp://dbpedia.org/class/yago/YagoGeoEntity
p72
aVhttp://dbpedia.org/class/yago/YagoLegalActorGeo
p73
aVhttp://dbpedia.org/class/yago/DividedRegions
p74
aVhttp://dbpedia.org/class/yago/EastAsianCountries
p75
aVhttp://dbpedia.org/class/yago/PhysicalEntity100001930
p76
aVhttp://dbpedia.org/class/yago/YagoPermanentlyLocatedEntity
p77
aVhttp://dbpedia.org/class/yago/MemberStatesOfTheUnitedNations
p78
aVhttp://dbpedia.org/class/yago/StatesAndTerritoriesEstablishedIn1948
p79
aVhttp://dbpedia.org/class/yago/WorldTradeOrganizationMemberEconomies
p80
aVhttp://dbpedia.org/resource/South_Korea
tp81
aa(lp82
a(lp83
a(lp84
a(lp85
aa(lp86
(lp87
a(lp88
((lp89
Vhttp://www.w3.org/2002/07/owl#Thing
p90
aVhttp://dbpedia.org/ontology/Place
p91
aVhttp://dbpedia.org/ontology/Location
p92
aVhttp://www.wikidata.org/entity/Q486972
p93
aVhttp://www.wikidata.org/entity/Q6256
p94
aVhttp://dbpedia.org/ontology/Country
p95
aVhttp://dbpedia.org/ontology/PopulatedPlace
p96
aVhttp://www.w3.org/2003/01/geo/wgs84_pos#SpatialThing
p97
aVhttp://schema.org/Country
p98
aVhttp://schema.org/Place
p99
aVhttp://umbel.org/umbel/rc/Country
p100
aVhttp://umbel.org/umbel/rc/Location_Underspecified
p101
aVhttp://umbel.org/umbel/rc/PopulatedPlace
p102
aVhttp://dbpedia.org/class/yago/Abstraction100002137
p103
aVhttp://dbpedia.org/class/yago/AdministrativeDistrict108491826
p104
aVhttp://dbpedia.org/class/yago/Country108544813
p105
aVhttp://dbpedia.org/class/yago/District108552138
p106
aVhttp://dbpedia.org/class/yago/Economy108366753
p107
aVhttp://dbpedia.org/class/yago/Group100031264
p108
aVhttp://dbpedia.org/class/yago/Location100027167
p109
aVhttp://dbpedia.org/class/yago/Object100002684
p110
aVhttp://dbpedia.org/class/yago/Region108630039
p111
aVhttp://dbpedia.org/class/yago/Region108630985
p112
aVhttp://dbpedia.org/class/yago/System108435388
p113
aVhttp://dbpedia.org/class/yago/YagoGeoEntity
p114
aVhttp://dbpedia.org/class/yago/YagoLegalActorGeo
p115
aVhttp://dbpedia.org/class/yago/DividedRegions
p116
aVhttp://dbpedia.org/class/yago/EastAsianCountries
p117
aVhttp://dbpedia.org/class/yago/PhysicalEntity100001930
p118
aVhttp://dbpedia.org/class/yago/YagoPermanentlyLocatedEntity
p119
aVhttp://dbpedia.org/class/yago/MemberStatesOfTheUnitedNations
p120
aVhttp://dbpedia.org/class/yago/StatesAndTerritoriesEstablishedIn1948
p121
aVhttp://dbpedia.org/class/yago/WorldTradeOrganizationMemberEconomies
p122
aVhttp://dbpedia.org/resource/South_Korea
tp123
aa(lp124
a(lp125
a(lp126
a(lp127
((lp128
Vhttp://dbpedia.org/class/yago/Artifact100021939
p129
aVhttp://dbpedia.org/class/yago/Circuit103033362
p130
aVhttp://dbpedia.org/class/yago/Device103183080
p131
aVhttp://dbpedia.org/class/yago/ElectricalDevice103269401
p132
aVhttp://dbpedia.org/class/yago/Object100002684
p133
aVhttp://dbpedia.org/class/yago/Whole100003553
p134
aVhttp://dbpedia.org/class/yago/ElectronicCircuits
p135
aVhttp://dbpedia.org/class/yago/Instrumentality103575240
p136
aVhttp://dbpedia.org/class/yago/PhysicalEntity100001930
p137
aVhttp://dbpedia.org/resource/Electronic_component
tp138
aaa(lp139
(lp140
a(lp141
((lp142
Vhttp://www.w3.org/2002/07/owl#Thing
p143
aVhttp://dbpedia.org/ontology/Place
p144
aVhttp://dbpedia.org/ontology/Location
p145
aVhttp://www.wikidata.org/entity/Q486972
p146
aVhttp://www.wikidata.org/entity/Q6256
p147
aVhttp://dbpedia.org/ontology/Country
p148
aVhttp://dbpedia.org/ontology/PopulatedPlace
p149
aVhttp://www.w3.org/2003/01/geo/wgs84_pos#SpatialThing
p150
aVhttp://schema.org/Country
p151
aVhttp://schema.org/Place
p152
aVhttp://umbel.org/umbel/rc/Country
p153
aVhttp://umbel.org/umbel/rc/Location_Underspecified
p154
aVhttp://umbel.org/umbel/rc/PopulatedPlace
p155
aVhttp://dbpedia.org/class/yago/Abstraction100002137
p156
aVhttp://dbpedia.org/class/yago/AdministrativeDistrict108491826
p157
aVhttp://dbpedia.org/class/yago/Country108544813
p158
aVhttp://dbpedia.org/class/yago/District108552138
p159
aVhttp://dbpedia.org/class/yago/Economy108366753
p160
aVhttp://dbpedia.org/class/yago/Group100031264
p161
aVhttp://dbpedia.org/class/yago/Location100027167
p162
aVhttp://dbpedia.org/class/yago/Object100002684
p163
aVhttp://dbpedia.org/class/yago/Region108630039
p164
aVhttp://dbpedia.org/class/yago/Region108630985
p165
aVhttp://dbpedia.org/class/yago/System108435388
p166
aVhttp://dbpedia.org/class/yago/YagoGeoEntity
p167
aVhttp://dbpedia.org/class/yago/YagoLegalActorGeo
p168
aVhttp://dbpedia.org/class/yago/DividedRegions
p169
aVhttp://dbpedia.org/class/yago/EastAsianCountries
p170
aVhttp://dbpedia.org/class/yago/PhysicalEntity100001930
p171
aVhttp://dbpedia.org/class/yago/YagoPermanentlyLocatedEntity
p172
aVhttp://dbpedia.org/class/yago/MemberStatesOfTheUnitedNations
p173
aVhttp://dbpedia.org/class/yago/StatesAndTerritoriesEstablishedIn1948
p174
aVhttp://dbpedia.org/class/yago/WorldTradeOrganizationMemberEconomies
p175
aVhttp://dbpedia.org/resource/South_Korea
tp176
aa(lp177
a(lp178
a(lp179
a(lp180
aa(lp181
(lp182
a(lp183
((lp184
Vhttp://www.w3.org/2002/07/owl#Thing
p185
aVhttp://dbpedia.org/ontology/Place
p186
aVhttp://dbpedia.org/ontology/Location
p187
aVhttp://www.wikidata.org/entity/Q486972
p188
aVhttp://www.wikidata.org/entity/Q6256
p189
aVhttp://dbpedia.org/ontology/Country
p190
aVhttp://dbpedia.org/ontology/PopulatedPlace
p191
aVhttp://www.w3.org/2003/01/geo/wgs84_pos#SpatialThing
p192
aVhttp://schema.org/Country
p193
aVhttp://schema.org/Place
p194
aVhttp://umbel.org/umbel/rc/Country
p195
aVhttp://umbel.org/umbel/rc/Location_Underspecified
p196
aVhttp://umbel.org/umbel/rc/PopulatedPlace
p197
aVhttp://dbpedia.org/class/yago/Abstraction100002137
p198
aVhttp://dbpedia.org/class/yago/AdministrativeDistrict108491826
p199
aVhttp://dbpedia.org/class/yago/Country108544813
p200
aVhttp://dbpedia.org/class/yago/District108552138
p201
aVhttp://dbpedia.org/class/yago/Economy108366753
p202
aVhttp://dbpedia.org/class/yago/Group100031264
p203
aVhttp://dbpedia.org/class/yago/Location100027167
p204
aVhttp://dbpedia.org/class/yago/Object100002684
p205
aVhttp://dbpedia.org/class/yago/Region108630039
p206
aVhttp://dbpedia.org/class/yago/Region108630985
p207
aVhttp://dbpedia.org/class/yago/System108435388
p208
aVhttp://dbpedia.org/class/yago/YagoGeoEntity
p209
aVhttp://dbpedia.org/class/yago/YagoLegalActorGeo
p210
aVhttp://dbpedia.org/class/yago/DividedRegions
p211
aVhttp://dbpedia.org/class/yago/EastAsianCountries
p212
aVhttp://dbpedia.org/class/yago/PhysicalEntity100001930
p213
aVhttp://dbpedia.org/class/yago/YagoPermanentlyLocatedEntity
p214
aVhttp://dbpedia.org/class/yago/MemberStatesOfTheUnitedNations
p215
aVhttp://dbpedia.org/class/yago/StatesAndTerritoriesEstablishedIn1948
p216
aVhttp://dbpedia.org/class/yago/WorldTradeOrganizationMemberEconomies
p217
aVhttp://dbpedia.org/resource/South_Korea
tp218
aa(lp219
a(lp220
a(lp221
a(lp222
((lp223
Vhttp://dbpedia.org/class/yago/Businessperson109882716
p224
aVhttp://dbpedia.org/class/yago/Capitalist109609232
p225
aVhttp://dbpedia.org/class/yago/CausalAgent100007347
p226
aVhttp://dbpedia.org/class/yago/LivingThing100004258
p227
aVhttp://dbpedia.org/class/yago/Object100002684
p228
aVhttp://dbpedia.org/class/yago/Organism100004475
p229
aVhttp://dbpedia.org/class/yago/Person100007846
p230
aVhttp://dbpedia.org/class/yago/Supplier110677271
p231
aVhttp://dbpedia.org/class/yago/Whole100003553
p232
aVhttp://dbpedia.org/class/yago/YagoLegalActorGeo
p233
aVhttp://dbpedia.org/class/yago/PhysicalEntity100001930
p234
aVhttp://dbpedia.org/class/yago/OnlineServiceProviders
p235
aVhttp://dbpedia.org/class/yago/YagoLegalActor
p236
aVhttp://dbpedia.org/resource/Online_service_provider
tp237
aaa(lp238
(lp239
a(lp240
((lp241
Vhttp://www.w3.org/2002/07/owl#Thing
p242
aVhttp://dbpedia.org/ontology/Place
p243
aVhttp://dbpedia.org/ontology/Location
p244
aVhttp://www.wikidata.org/entity/Q486972
p245
aVhttp://www.wikidata.org/entity/Q6256
p246
aVhttp://dbpedia.org/ontology/Country
p247
aVhttp://dbpedia.org/ontology/PopulatedPlace
p248
aVhttp://www.w3.org/2003/01/geo/wgs84_pos#SpatialThing
p249
aVhttp://schema.org/Country
p250
aVhttp://schema.org/Place
p251
aVhttp://umbel.org/umbel/rc/Country
p252
aVhttp://umbel.org/umbel/rc/Location_Underspecified
p253
aVhttp://umbel.org/umbel/rc/PopulatedPlace
p254
aVhttp://dbpedia.org/class/yago/Abstraction100002137
p255
aVhttp://dbpedia.org/class/yago/AdministrativeDistrict108491826
p256
aVhttp://dbpedia.org/class/yago/Country108544813
p257
aVhttp://dbpedia.org/class/yago/District108552138
p258
aVhttp://dbpedia.org/class/yago/Economy108366753
p259
aVhttp://dbpedia.org/class/yago/Group100031264
p260
aVhttp://dbpedia.org/class/yago/Location100027167
p261
aVhttp://dbpedia.org/class/yago/Object100002684
p262
aVhttp://dbpedia.org/class/yago/Region108630039
p263
aVhttp://dbpedia.org/class/yago/Region108630985
p264
aVhttp://dbpedia.org/class/yago/System108435388
p265
aVhttp://dbpedia.org/class/yago/YagoGeoEntity
p266
aVhttp://dbpedia.org/class/yago/YagoLegalActorGeo
p267
aVhttp://dbpedia.org/class/yago/DividedRegions
p268
aVhttp://dbpedia.org/class/yago/EastAsianCountries
p269
aVhttp://dbpedia.org/class/yago/PhysicalEntity100001930
p270
aVhttp://dbpedia.org/class/yago/YagoPermanentlyLocatedEntity
p271
aVhttp://dbpedia.org/class/yago/MemberStatesOfTheUnitedNations
p272
aVhttp://dbpedia.org/class/yago/StatesAndTerritoriesEstablishedIn1948
p273
aVhttp://dbpedia.org/class/yago/WorldTradeOrganizationMemberEconomies
p274
aVhttp://dbpedia.org/resource/South_Korea
tp275
aa(lp276
a(lp277
a(lp278
a(lp279
((lVhttp://dbpedia.org/resource/Travel_agency
tp280
aaa(lp281
(lp282
((lp283
Vhttp://dbpedia.org/class/yago/Abstraction100002137
p284
aVhttp://dbpedia.org/class/yago/Company108058098
p285
aVhttp://dbpedia.org/class/yago/Group100031264
p286
aVhttp://dbpedia.org/class/yago/Institution108053576
p287
aVhttp://dbpedia.org/class/yago/Organization108008335
p288
aVhttp://dbpedia.org/class/yago/SocialGroup107950920
p289
aVhttp://dbpedia.org/class/yago/YagoLegalActorGeo
p290
aVhttp://dbpedia.org/class/yago/CompaniesBasedInLiaoning
p291
aVhttp://dbpedia.org/class/yago/DrugCompany108002578
p292
aVhttp://dbpedia.org/class/yago/YagoPermanentlyLocatedEntity
p293
aVhttp://dbpedia.org/class/yago/PharmaceuticalCompaniesOfChina
p294
aVhttp://dbpedia.org/class/yago/YagoLegalActor
p295
aVhttp://dbpedia.org/resource/Harbin_Pharmaceutical_Group_Co.,_Ltd.
tp296
aa(lp297
((lp298
Vhttp://www.w3.org/2002/07/owl#Thing
p299
aVhttp://dbpedia.org/ontology/Place
p300
aVhttp://dbpedia.org/ontology/Location
p301
aVhttp://www.wikidata.org/entity/Q486972
p302
aVhttp://www.wikidata.org/entity/Q6256
p303
aVhttp://dbpedia.org/ontology/Country
p304
aVhttp://dbpedia.org/ontology/PopulatedPlace
p305
aVhttp://www.w3.org/2003/01/geo/wgs84_pos#SpatialThing
p306
aVhttp://schema.org/Country
p307
aVhttp://schema.org/Place
p308
aVhttp://umbel.org/umbel/rc/Country
p309
aVhttp://umbel.org/umbel/rc/Location_Underspecified
p310
aVhttp://umbel.org/umbel/rc/PopulatedPlace
p311
aVhttp://dbpedia.org/class/yago/Abstraction100002137
p312
aVhttp://dbpedia.org/class/yago/AdministrativeDistrict108491826
p313
aVhttp://dbpedia.org/class/yago/Country108544813
p314
aVhttp://dbpedia.org/class/yago/District108552138
p315
aVhttp://dbpedia.org/class/yago/Economy108366753
p316
aVhttp://dbpedia.org/class/yago/Group100031264
p317
aVhttp://dbpedia.org/class/yago/Location100027167
p318
aVhttp://dbpedia.org/class/yago/Object100002684
p319
aVhttp://dbpedia.org/class/yago/Region108630039
p320
aVhttp://dbpedia.org/class/yago/Region108630985
p321
aVhttp://dbpedia.org/class/yago/System108435388
p322
aVhttp://dbpedia.org/class/yago/YagoGeoEntity
p323
aVhttp://dbpedia.org/class/yago/YagoLegalActorGeo
p324
aVhttp://dbpedia.org/class/yago/DividedRegions
p325
aVhttp://dbpedia.org/class/yago/EastAsianCountries
p326
aVhttp://dbpedia.org/class/yago/PhysicalEntity100001930
p327
aVhttp://dbpedia.org/class/yago/YagoPermanentlyLocatedEntity
p328
aVhttp://dbpedia.org/class/yago/MemberStatesOfTheUnitedNations
p329
aVhttp://dbpedia.org/class/yago/StatesAndTerritoriesEstablishedIn1948
p330
aVhttp://dbpedia.org/class/yago/WorldTradeOrganizationMemberEconomies
p331
aVhttp://dbpedia.org/resource/South_Korea
tp332
aa(lp333
a(lp334
a(lp335
a(lp336
aa(lp337
(lp338
((lp339
Vhttp://www.w3.org/2002/07/owl#Thing
p340
aVhttp://dbpedia.org/ontology/Company
p341
aVhttp://www.ontologydesignpatterns.org/ont/dul/DUL.owl#Agent
p342
aVhttp://www.ontologydesignpatterns.org/ont/dul/DUL.owl#SocialPerson
p343
aVhttp://www.wikidata.org/entity/Q43229
p344
aVhttp://dbpedia.org/ontology/Agent
p345
aVhttp://dbpedia.org/ontology/Organisation
p346
aVhttp://schema.org/Organization
p347
aVhttp://dbpedia.org/class/yago/Abstraction100002137
p348
aVhttp://dbpedia.org/class/yago/Company108058098
p349
aVhttp://dbpedia.org/class/yago/Group100031264
p350
aVhttp://dbpedia.org/class/yago/Institution108053576
p351
aVhttp://dbpedia.org/class/yago/Organization108008335
p352
aVhttp://dbpedia.org/class/yago/SocialGroup107950920
p353
aVhttp://dbpedia.org/class/yago/YagoLegalActorGeo
p354
aVhttp://dbpedia.org/class/yago/ComputerMemoryCompanies
p355
aVhttp://dbpedia.org/class/yago/ElectronicsCompaniesOfSouthKorea
p356
aVhttp://dbpedia.org/class/yago/ElectronicsCompany108003035
p357
aVhttp://dbpedia.org/class/yago/YagoPermanentlyLocatedEntity
p358
aVhttp://dbpedia.org/class/yago/YagoLegalActor
p359
aVhttp://dbpedia.org/class/yago/SemiconductorCompanies
p360
aVhttp://dbpedia.org/resource/SK_Hynix
tp361
aa(lp362
((lp363
Vhttp://www.w3.org/2002/07/owl#Thing
p364
aVhttp://dbpedia.org/ontology/Place
p365
aVhttp://dbpedia.org/ontology/Location
p366
aVhttp://www.wikidata.org/entity/Q486972
p367
aVhttp://www.wikidata.org/entity/Q6256
p368
aVhttp://dbpedia.org/ontology/Country
p369
aVhttp://dbpedia.org/ontology/PopulatedPlace
p370
aVhttp://www.w3.org/2003/01/geo/wgs84_pos#SpatialThing
p371
aVhttp://schema.org/Country
p372
aVhttp://schema.org/Place
p373
aVhttp://umbel.org/umbel/rc/Country
p374
aVhttp://umbel.org/umbel/rc/Location_Underspecified
p375
aVhttp://umbel.org/umbel/rc/PopulatedPlace
p376
aVhttp://dbpedia.org/class/yago/Abstraction100002137
p377
aVhttp://dbpedia.org/class/yago/AdministrativeDistrict108491826
p378
aVhttp://dbpedia.org/class/yago/Country108544813
p379
aVhttp://dbpedia.org/class/yago/District108552138
p380
aVhttp://dbpedia.org/class/yago/Economy108366753
p381
aVhttp://dbpedia.org/class/yago/Group100031264
p382
aVhttp://dbpedia.org/class/yago/Location100027167
p383
aVhttp://dbpedia.org/class/yago/Object100002684
p384
aVhttp://dbpedia.org/class/yago/Region108630039
p385
aVhttp://dbpedia.org/class/yago/Region108630985
p386
aVhttp://dbpedia.org/class/yago/System108435388
p387
aVhttp://dbpedia.org/class/yago/YagoGeoEntity
p388
aVhttp://dbpedia.org/class/yago/YagoLegalActorGeo
p389
aVhttp://dbpedia.org/class/yago/DividedRegions
p390
aVhttp://dbpedia.org/class/yago/EastAsianCountries
p391
aVhttp://dbpedia.org/class/yago/PhysicalEntity100001930
p392
aVhttp://dbpedia.org/class/yago/YagoPermanentlyLocatedEntity
p393
aVhttp://dbpedia.org/class/yago/MemberStatesOfTheUnitedNations
p394
aVhttp://dbpedia.org/class/yago/StatesAndTerritoriesEstablishedIn1948
p395
aVhttp://dbpedia.org/class/yago/WorldTradeOrganizationMemberEconomies
p396
aVhttp://dbpedia.org/resource/South_Korea
tp397
aa(lp398
a(lp399
a(lp400
a(lp401
((lVhttp://dbpedia.org/resource/Semiconductor
tp402
aaa(lp403
(lp404
a(lp405
((lp406
Vhttp://www.w3.org/2002/07/owl#Thing
p407
aVhttp://dbpedia.org/ontology/Place
p408
aVhttp://dbpedia.org/ontology/Location
p409
aVhttp://www.wikidata.org/entity/Q486972
p410
aVhttp://www.wikidata.org/entity/Q6256
p411
aVhttp://dbpedia.org/ontology/Country
p412
aVhttp://dbpedia.org/ontology/PopulatedPlace
p413
aVhttp://www.w3.org/2003/01/geo/wgs84_pos#SpatialThing
p414
aVhttp://schema.org/Country
p415
aVhttp://schema.org/Place
p416
aVhttp://umbel.org/umbel/rc/Country
p417
aVhttp://umbel.org/umbel/rc/Location_Underspecified
p418
aVhttp://umbel.org/umbel/rc/PopulatedPlace
p419
aVhttp://dbpedia.org/class/yago/Abstraction100002137
p420
aVhttp://dbpedia.org/class/yago/AdministrativeDistrict108491826
p421
aVhttp://dbpedia.org/class/yago/Country108544813
p422
aVhttp://dbpedia.org/class/yago/District108552138
p423
aVhttp://dbpedia.org/class/yago/Economy108366753
p424
aVhttp://dbpedia.org/class/yago/Group100031264
p425
aVhttp://dbpedia.org/class/yago/Location100027167
p426
aVhttp://dbpedia.org/class/yago/Object100002684
p427
aVhttp://dbpedia.org/class/yago/Region108630039
p428
aVhttp://dbpedia.org/class/yago/Region108630985
p429
aVhttp://dbpedia.org/class/yago/System108435388
p430
aVhttp://dbpedia.org/class/yago/YagoGeoEntity
p431
aVhttp://dbpedia.org/class/yago/YagoLegalActorGeo
p432
aVhttp://dbpedia.org/class/yago/DividedRegions
p433
aVhttp://dbpedia.org/class/yago/EastAsianCountries
p434
aVhttp://dbpedia.org/class/yago/PhysicalEntity100001930
p435
aVhttp://dbpedia.org/class/yago/YagoPermanentlyLocatedEntity
p436
aVhttp://dbpedia.org/class/yago/MemberStatesOfTheUnitedNations
p437
aVhttp://dbpedia.org/class/yago/StatesAndTerritoriesEstablishedIn1948
p438
aVhttp://dbpedia.org/class/yago/WorldTradeOrganizationMemberEconomies
p439
aVhttp://dbpedia.org/resource/South_Korea
tp440
aa(lp441
a(lp442
a(lp443
a(lp444
aa(lp445
(lp446
((lp447
Vhttp://www.w3.org/2002/07/owl#Thing
p448
aVhttp://dbpedia.org/ontology/Company
p449
aVhttp://www.ontologydesignpatterns.org/ont/dul/DUL.owl#Agent
p450
aVhttp://www.ontologydesignpatterns.org/ont/dul/DUL.owl#SocialPerson
p451
aVhttp://www.wikidata.org/entity/Q43229
p452
aVhttp://dbpedia.org/ontology/Agent
p453
aVhttp://dbpedia.org/ontology/Organisation
p454
aVhttp://schema.org/Organization
p455
aVhttp://dbpedia.org/class/yago/Abstraction100002137
p456
aVhttp://dbpedia.org/class/yago/Company108058098
p457
aVhttp://dbpedia.org/class/yago/Group100031264
p458
aVhttp://dbpedia.org/class/yago/Institution108053576
p459
aVhttp://dbpedia.org/class/yago/Organization108008335
p460
aVhttp://dbpedia.org/class/yago/SocialGroup107950920
p461
aVhttp://dbpedia.org/class/yago/YagoLegalActorGeo
p462
aVhttp://dbpedia.org/class/yago/CompaniesBasedInIndiana
p463
aVhttp://dbpedia.org/class/yago/YagoPermanentlyLocatedEntity
p464
aVhttp://dbpedia.org/class/yago/YagoLegalActor
p465
aVhttp://dbpedia.org/class/yago/SoftwareCompaniesBasedInIndiana
p466
aVhttp://dbpedia.org/resource/InfraWare
tp467
aa(lp468
((lp469
Vhttp://www.w3.org/2002/07/owl#Thing
p470
aVhttp://dbpedia.org/ontology/Place
p471
aVhttp://dbpedia.org/ontology/Location
p472
aVhttp://www.wikidata.org/entity/Q486972
p473
aVhttp://www.wikidata.org/entity/Q6256
p474
aVhttp://dbpedia.org/ontology/Country
p475
aVhttp://dbpedia.org/ontology/PopulatedPlace
p476
aVhttp://www.w3.org/2003/01/geo/wgs84_pos#SpatialThing
p477
aVhttp://schema.org/Country
p478
aVhttp://schema.org/Place
p479
aVhttp://umbel.org/umbel/rc/Country
p480
aVhttp://umbel.org/umbel/rc/Location_Underspecified
p481
aVhttp://umbel.org/umbel/rc/PopulatedPlace
p482
aVhttp://dbpedia.org/class/yago/Abstraction100002137
p483
aVhttp://dbpedia.org/class/yago/AdministrativeDistrict108491826
p484
aVhttp://dbpedia.org/class/yago/Country108544813
p485
aVhttp://dbpedia.org/class/yago/District108552138
p486
aVhttp://dbpedia.org/class/yago/Economy108366753
p487
aVhttp://dbpedia.org/class/yago/Group100031264
p488
aVhttp://dbpedia.org/class/yago/Location100027167
p489
aVhttp://dbpedia.org/class/yago/Object100002684
p490
aVhttp://dbpedia.org/class/yago/Region108630039
p491
aVhttp://dbpedia.org/class/yago/Region108630985
p492
aVhttp://dbpedia.org/class/yago/System108435388
p493
aVhttp://dbpedia.org/class/yago/YagoGeoEntity
p494
aVhttp://dbpedia.org/class/yago/YagoLegalActorGeo
p495
aVhttp://dbpedia.org/class/yago/DividedRegions
p496
aVhttp://dbpedia.org/class/yago/EastAsianCountries
p497
aVhttp://dbpedia.org/class/yago/PhysicalEntity100001930
p498
aVhttp://dbpedia.org/class/yago/YagoPermanentlyLocatedEntity
p499
aVhttp://dbpedia.org/class/yago/MemberStatesOfTheUnitedNations
p500
aVhttp://dbpedia.org/class/yago/StatesAndTerritoriesEstablishedIn1948
p501
aVhttp://dbpedia.org/class/yago/WorldTradeOrganizationMemberEconomies
p502
aVhttp://dbpedia.org/resource/South_Korea
tp503
aa(lp504
a(lp505
a(lp506
a(lp507
aa(lp508
(lp509
a(lp510
((lp511
Vhttp://www.w3.org/2002/07/owl#Thing
p512
aVhttp://dbpedia.org/ontology/Place
p513
aVhttp://dbpedia.org/ontology/Location
p514
aVhttp://www.wikidata.org/entity/Q486972
p515
aVhttp://www.wikidata.org/entity/Q6256
p516
aVhttp://dbpedia.org/ontology/Country
p517
aVhttp://dbpedia.org/ontology/PopulatedPlace
p518
aVhttp://www.w3.org/2003/01/geo/wgs84_pos#SpatialThing
p519
aVhttp://schema.org/Country
p520
aVhttp://schema.org/Place
p521
aVhttp://umbel.org/umbel/rc/Country
p522
aVhttp://umbel.org/umbel/rc/Location_Underspecified
p523
aVhttp://umbel.org/umbel/rc/PopulatedPlace
p524
aVhttp://dbpedia.org/class/yago/Abstraction100002137
p525
aVhttp://dbpedia.org/class/yago/AdministrativeDistrict108491826
p526
aVhttp://dbpedia.org/class/yago/Country108544813
p527
aVhttp://dbpedia.org/class/yago/District108552138
p528
aVhttp://dbpedia.org/class/yago/Economy108366753
p529
aVhttp://dbpedia.org/class/yago/Group100031264
p530
aVhttp://dbpedia.org/class/yago/Location100027167
p531
aVhttp://dbpedia.org/class/yago/Object100002684
p532
aVhttp://dbpedia.org/class/yago/Region108630039
p533
aVhttp://dbpedia.org/class/yago/Region108630985
p534
aVhttp://dbpedia.org/class/yago/System108435388
p535
aVhttp://dbpedia.org/class/yago/YagoGeoEntity
p536
aVhttp://dbpedia.org/class/yago/YagoLegalActorGeo
p537
aVhttp://dbpedia.org/class/yago/DividedRegions
p538
aVhttp://dbpedia.org/class/yago/EastAsianCountries
p539
aVhttp://dbpedia.org/class/yago/PhysicalEntity100001930
p540
aVhttp://dbpedia.org/class/yago/YagoPermanentlyLocatedEntity
p541
aVhttp://dbpedia.org/class/yago/MemberStatesOfTheUnitedNations
p542
aVhttp://dbpedia.org/class/yago/StatesAndTerritoriesEstablishedIn1948
p543
aVhttp://dbpedia.org/class/yago/WorldTradeOrganizationMemberEconomies
p544
aVhttp://dbpedia.org/resource/South_Korea
tp545
aa(lp546
a(lp547
a(lp548
a(lp549
aa(lp550
(lp551
((lp552
Vhttp://www.w3.org/2002/07/owl#Thing
p553
aVhttp://dbpedia.org/class/yago/Artifact100021939
p554
aVhttp://dbpedia.org/class/yago/Device103183080
p555
aVhttp://dbpedia.org/class/yago/Machine103699975
p556
aVhttp://dbpedia.org/class/yago/Object100002684
p557
aVhttp://dbpedia.org/class/yago/Whole100003553
p558
aVhttp://dbpedia.org/class/yago/Instrumentality103575240
p559
aVhttp://dbpedia.org/class/yago/PhysicalEntity100001930
p560
aVhttp://dbpedia.org/class/yago/Stack-basedVirtualMachines
p561
aVhttp://dbpedia.org/resource/Java_virtual_machine
tp562
aa(lp563
((lp564
Vhttp://www.w3.org/2002/07/owl#Thing
p565
aVhttp://dbpedia.org/ontology/Place
p566
aVhttp://dbpedia.org/ontology/Location
p567
aVhttp://www.wikidata.org/entity/Q486972
p568
aVhttp://www.wikidata.org/entity/Q6256
p569
aVhttp://dbpedia.org/ontology/Country
p570
aVhttp://dbpedia.org/ontology/PopulatedPlace
p571
aVhttp://www.w3.org/2003/01/geo/wgs84_pos#SpatialThing
p572
aVhttp://schema.org/Country
p573
aVhttp://schema.org/Place
p574
aVhttp://umbel.org/umbel/rc/Country
p575
aVhttp://umbel.org/umbel/rc/Location_Underspecified
p576
aVhttp://umbel.org/umbel/rc/PopulatedPlace
p577
aVhttp://dbpedia.org/class/yago/Abstraction100002137
p578
aVhttp://dbpedia.org/class/yago/AdministrativeDistrict108491826
p579
aVhttp://dbpedia.org/class/yago/Country108544813
p580
aVhttp://dbpedia.org/class/yago/District108552138
p581
aVhttp://dbpedia.org/class/yago/Economy108366753
p582
aVhttp://dbpedia.org/class/yago/Group100031264
p583
aVhttp://dbpedia.org/class/yago/Location100027167
p584
aVhttp://dbpedia.org/class/yago/Object100002684
p585
aVhttp://dbpedia.org/class/yago/Region108630039
p586
aVhttp://dbpedia.org/class/yago/Region108630985
p587
aVhttp://dbpedia.org/class/yago/System108435388
p588
aVhttp://dbpedia.org/class/yago/YagoGeoEntity
p589
aVhttp://dbpedia.org/class/yago/YagoLegalActorGeo
p590
aVhttp://dbpedia.org/class/yago/DividedRegions
p591
aVhttp://dbpedia.org/class/yago/EastAsianCountries
p592
aVhttp://dbpedia.org/class/yago/PhysicalEntity100001930
p593
aVhttp://dbpedia.org/class/yago/YagoPermanentlyLocatedEntity
p594
aVhttp://dbpedia.org/class/yago/MemberStatesOfTheUnitedNations
p595
aVhttp://dbpedia.org/class/yago/StatesAndTerritoriesEstablishedIn1948
p596
aVhttp://dbpedia.org/class/yago/WorldTradeOrganizationMemberEconomies
p597
aVhttp://dbpedia.org/resource/South_Korea
tp598
aa(lp599
a(lp600
a(lp601
a(lp602
((lp603
Vhttp://dbpedia.org/class/yago/Boundary108512259
p604
aVhttp://dbpedia.org/class/yago/Extremity108568978
p605
aVhttp://dbpedia.org/class/yago/Location100027167
p606
aVhttp://dbpedia.org/class/yago/Object100002684
p607
aVhttp://dbpedia.org/class/yago/Region108630039
p608
aVhttp://dbpedia.org/class/yago/YagoGeoEntity
p609
aVhttp://dbpedia.org/class/yago/YagoLegalActorGeo
p610
aVhttp://dbpedia.org/class/yago/Outline108612786
p611
aVhttp://dbpedia.org/class/yago/PhysicalEntity100001930
p612
aVhttp://dbpedia.org/class/yago/YagoPermanentlyLocatedEntity
p613
aVhttp://dbpedia.org/class/yago/Outlines
p614
aVhttp://dbpedia.org/resource/Outline_of_industrial_machinery
tp615
aaa(lp616
(lp617
a(lp618
((lp619
Vhttp://www.w3.org/2002/07/owl#Thing
p620
aVhttp://dbpedia.org/ontology/Place
p621
aVhttp://dbpedia.org/ontology/Location
p622
aVhttp://www.wikidata.org/entity/Q486972
p623
aVhttp://www.wikidata.org/entity/Q6256
p624
aVhttp://dbpedia.org/ontology/Country
p625
aVhttp://dbpedia.org/ontology/PopulatedPlace
p626
aVhttp://www.w3.org/2003/01/geo/wgs84_pos#SpatialThing
p627
aVhttp://schema.org/Country
p628
aVhttp://schema.org/Place
p629
aVhttp://umbel.org/umbel/rc/Country
p630
aVhttp://umbel.org/umbel/rc/Location_Underspecified
p631
aVhttp://umbel.org/umbel/rc/PopulatedPlace
p632
aVhttp://dbpedia.org/class/yago/Abstraction100002137
p633
aVhttp://dbpedia.org/class/yago/AdministrativeDistrict108491826
p634
aVhttp://dbpedia.org/class/yago/Country108544813
p635
aVhttp://dbpedia.org/class/yago/District108552138
p636
aVhttp://dbpedia.org/class/yago/Economy108366753
p637
aVhttp://dbpedia.org/class/yago/Group100031264
p638
aVhttp://dbpedia.org/class/yago/Location100027167
p639
aVhttp://dbpedia.org/class/yago/Object100002684
p640
aVhttp://dbpedia.org/class/yago/Region108630039
p641
aVhttp://dbpedia.org/class/yago/Region108630985
p642
aVhttp://dbpedia.org/class/yago/System108435388
p643
aVhttp://dbpedia.org/class/yago/YagoGeoEntity
p644
aVhttp://dbpedia.org/class/yago/YagoLegalActorGeo
p645
aVhttp://dbpedia.org/class/yago/DividedRegions
p646
aVhttp://dbpedia.org/class/yago/EastAsianCountries
p647
aVhttp://dbpedia.org/class/yago/PhysicalEntity100001930
p648
aVhttp://dbpedia.org/class/yago/YagoPermanentlyLocatedEntity
p649
aVhttp://dbpedia.org/class/yago/MemberStatesOfTheUnitedNations
p650
aVhttp://dbpedia.org/class/yago/StatesAndTerritoriesEstablishedIn1948
p651
aVhttp://dbpedia.org/class/yago/WorldTradeOrganizationMemberEconomies
p652
aVhttp://dbpedia.org/resource/South_Korea
tp653
aa(lp654
a(lp655
a(lp656
a(lp657
((lp658
Vhttp://dbpedia.org/class/yago/Artifact100021939
p659
aVhttp://dbpedia.org/class/yago/Circuit103033362
p660
aVhttp://dbpedia.org/class/yago/Device103183080
p661
aVhttp://dbpedia.org/class/yago/ElectricalDevice103269401
p662
aVhttp://dbpedia.org/class/yago/Object100002684
p663
aVhttp://dbpedia.org/class/yago/Whole100003553
p664
aVhttp://dbpedia.org/class/yago/ElectronicCircuits
p665
aVhttp://dbpedia.org/class/yago/Instrumentality103575240
p666
aVhttp://dbpedia.org/class/yago/PhysicalEntity100001930
p667
aVhttp://dbpedia.org/resource/Electronic_component
tp668
aaa(lp669
(lp670
a(lp671
((lp672
Vhttp://www.w3.org/2002/07/owl#Thing
p673
aVhttp://dbpedia.org/ontology/Place
p674
aVhttp://dbpedia.org/ontology/Location
p675
aVhttp://www.wikidata.org/entity/Q486972
p676
aVhttp://www.wikidata.org/entity/Q6256
p677
aVhttp://dbpedia.org/ontology/Country
p678
aVhttp://dbpedia.org/ontology/PopulatedPlace
p679
aVhttp://www.w3.org/2003/01/geo/wgs84_pos#SpatialThing
p680
aVhttp://schema.org/Country
p681
aVhttp://schema.org/Place
p682
aVhttp://umbel.org/umbel/rc/Country
p683
aVhttp://umbel.org/umbel/rc/Location_Underspecified
p684
aVhttp://umbel.org/umbel/rc/PopulatedPlace
p685
aVhttp://dbpedia.org/class/yago/Abstraction100002137
p686
aVhttp://dbpedia.org/class/yago/AdministrativeDistrict108491826
p687
aVhttp://dbpedia.org/class/yago/Country108544813
p688
aVhttp://dbpedia.org/class/yago/District108552138
p689
aVhttp://dbpedia.org/class/yago/Economy108366753
p690
aVhttp://dbpedia.org/class/yago/Group100031264
p691
aVhttp://dbpedia.org/class/yago/Location100027167
p692
aVhttp://dbpedia.org/class/yago/Object100002684
p693
aVhttp://dbpedia.org/class/yago/Region108630039
p694
aVhttp://dbpedia.org/class/yago/Region108630985
p695
aVhttp://dbpedia.org/class/yago/System108435388
p696
aVhttp://dbpedia.org/class/yago/YagoGeoEntity
p697
aVhttp://dbpedia.org/class/yago/YagoLegalActorGeo
p698
aVhttp://dbpedia.org/class/yago/DividedRegions
p699
aVhttp://dbpedia.org/class/yago/EastAsianCountries
p700
aVhttp://dbpedia.org/class/yago/PhysicalEntity100001930
p701
aVhttp://dbpedia.org/class/yago/YagoPermanentlyLocatedEntity
p702
aVhttp://dbpedia.org/class/yago/MemberStatesOfTheUnitedNations
p703
aVhttp://dbpedia.org/class/yago/StatesAndTerritoriesEstablishedIn1948
p704
aVhttp://dbpedia.org/class/yago/WorldTradeOrganizationMemberEconomies
p705
aVhttp://dbpedia.org/resource/South_Korea
tp706
aa(lp707
a(lp708
a(lp709
a(lp710
((lp711
Vhttp://dbpedia.org/class/yago/Abstraction100002137
p712
aVhttp://dbpedia.org/class/yago/EducationalInstitution108276342
p713
aVhttp://dbpedia.org/class/yago/Group100031264
p714
aVhttp://dbpedia.org/class/yago/Institution108053576
p715
aVhttp://dbpedia.org/class/yago/Organization108008335
p716
aVhttp://dbpedia.org/class/yago/SocialGroup107950920
p717
aVhttp://dbpedia.org/class/yago/University108286569
p718
aVhttp://dbpedia.org/class/yago/YagoLegalActorGeo
p719
aVhttp://dbpedia.org/class/yago/For-profitUniversitiesAndColleges
p720
aVhttp://dbpedia.org/class/yago/For-profitUniversitiesAndCollegesInTheUnitedStates
p721
aVhttp://dbpedia.org/class/yago/YagoPermanentlyLocatedEntity
p722
aVhttp://dbpedia.org/class/yago/YagoLegalActor
p723
aVhttp://dbpedia.org/resource/For-profit_education
tp724
aaa(lp725
(lp726
((lp727
Vhttp://www.w3.org/2002/07/owl#Thing
p728
aVhttp://dbpedia.org/ontology/Company
p729
aVhttp://www.ontologydesignpatterns.org/ont/dul/DUL.owl#Agent
p730
aVhttp://www.ontologydesignpatterns.org/ont/dul/DUL.owl#SocialPerson
p731
aVhttp://www.wikidata.org/entity/Q43229
p732
aVhttp://dbpedia.org/ontology/Agent
p733
aVhttp://dbpedia.org/ontology/Organisation
p734
aVhttp://schema.org/Organization
p735
aVhttp://dbpedia.org/resource/Naver_Corporation
tp736
aa(lp737
((lp738
Vhttp://www.w3.org/2002/07/owl#Thing
p739
aVhttp://dbpedia.org/ontology/Place
p740
aVhttp://dbpedia.org/ontology/Location
p741
aVhttp://www.wikidata.org/entity/Q486972
p742
aVhttp://www.wikidata.org/entity/Q6256
p743
aVhttp://dbpedia.org/ontology/Country
p744
aVhttp://dbpedia.org/ontology/PopulatedPlace
p745
aVhttp://www.w3.org/2003/01/geo/wgs84_pos#SpatialThing
p746
aVhttp://schema.org/Country
p747
aVhttp://schema.org/Place
p748
aVhttp://umbel.org/umbel/rc/Country
p749
aVhttp://umbel.org/umbel/rc/Location_Underspecified
p750
aVhttp://umbel.org/umbel/rc/PopulatedPlace
p751
aVhttp://dbpedia.org/class/yago/Abstraction100002137
p752
aVhttp://dbpedia.org/class/yago/AdministrativeDistrict108491826
p753
aVhttp://dbpedia.org/class/yago/Country108544813
p754
aVhttp://dbpedia.org/class/yago/District108552138
p755
aVhttp://dbpedia.org/class/yago/Economy108366753
p756
aVhttp://dbpedia.org/class/yago/Group100031264
p757
aVhttp://dbpedia.org/class/yago/Location100027167
p758
aVhttp://dbpedia.org/class/yago/Object100002684
p759
aVhttp://dbpedia.org/class/yago/Region108630039
p760
aVhttp://dbpedia.org/class/yago/Region108630985
p761
aVhttp://dbpedia.org/class/yago/System108435388
p762
aVhttp://dbpedia.org/class/yago/YagoGeoEntity
p763
aVhttp://dbpedia.org/class/yago/YagoLegalActorGeo
p764
aVhttp://dbpedia.org/class/yago/DividedRegions
p765
aVhttp://dbpedia.org/class/yago/EastAsianCountries
p766
aVhttp://dbpedia.org/class/yago/PhysicalEntity100001930
p767
aVhttp://dbpedia.org/class/yago/YagoPermanentlyLocatedEntity
p768
aVhttp://dbpedia.org/class/yago/MemberStatesOfTheUnitedNations
p769
aVhttp://dbpedia.org/class/yago/StatesAndTerritoriesEstablishedIn1948
p770
aVhttp://dbpedia.org/class/yago/WorldTradeOrganizationMemberEconomies
p771
aVhttp://dbpedia.org/resource/South_Korea
tp772
aa(lp773
a(lp774
a(lp775
a(lp776
((lp777
Vhttp://www.w3.org/2002/07/owl#Thing
p778
aVhttp://dbpedia.org/ontology/Company
p779
aVhttp://www.ontologydesignpatterns.org/ont/dul/DUL.owl#Agent
p780
aVhttp://www.ontologydesignpatterns.org/ont/dul/DUL.owl#SocialPerson
p781
aVhttp://www.wikidata.org/entity/Q43229
p782
aVhttp://dbpedia.org/ontology/Agent
p783
aVhttp://dbpedia.org/ontology/Organisation
p784
aVhttp://schema.org/Organization
p785
aVhttp://dbpedia.org/resource/Internet_Broadcasting_(company)
tp786
aaa(lp787
(lp788
((lp789
Vhttp://dbpedia.org/class/yago/Abstraction100002137
p790
aVhttp://dbpedia.org/class/yago/Attribute100024264
p791
aVhttp://dbpedia.org/class/yago/Manner104928903
p792
aVhttp://dbpedia.org/class/yago/Property104916342
p793
aVhttp://dbpedia.org/class/yago/QuantizedRadioModulationModes
p794
aVhttp://dbpedia.org/resource/Phase-shift_keying
tp795
aa(lp796
((lp797
Vhttp://www.w3.org/2002/07/owl#Thing
p798
aVhttp://dbpedia.org/ontology/Place
p799
aVhttp://dbpedia.org/ontology/Location
p800
aVhttp://www.wikidata.org/entity/Q486972
p801
aVhttp://www.wikidata.org/entity/Q6256
p802
aVhttp://dbpedia.org/ontology/Country
p803
aVhttp://dbpedia.org/ontology/PopulatedPlace
p804
aVhttp://www.w3.org/2003/01/geo/wgs84_pos#SpatialThing
p805
aVhttp://schema.org/Country
p806
aVhttp://schema.org/Place
p807
aVhttp://umbel.org/umbel/rc/Country
p808
aVhttp://umbel.org/umbel/rc/Location_Underspecified
p809
aVhttp://umbel.org/umbel/rc/PopulatedPlace
p810
aVhttp://dbpedia.org/class/yago/Abstraction100002137
p811
aVhttp://dbpedia.org/class/yago/AdministrativeDistrict108491826
p812
aVhttp://dbpedia.org/class/yago/Country108544813
p813
aVhttp://dbpedia.org/class/yago/District108552138
p814
aVhttp://dbpedia.org/class/yago/Economy108366753
p815
aVhttp://dbpedia.org/class/yago/Group100031264
p816
aVhttp://dbpedia.org/class/yago/Location100027167
p817
aVhttp://dbpedia.org/class/yago/Object100002684
p818
aVhttp://dbpedia.org/class/yago/Region108630039
p819
aVhttp://dbpedia.org/class/yago/Region108630985
p820
aVhttp://dbpedia.org/class/yago/System108435388
p821
aVhttp://dbpedia.org/class/yago/YagoGeoEntity
p822
aVhttp://dbpedia.org/class/yago/YagoLegalActorGeo
p823
aVhttp://dbpedia.org/class/yago/DividedRegions
p824
aVhttp://dbpedia.org/class/yago/EastAsianCountries
p825
aVhttp://dbpedia.org/class/yago/PhysicalEntity100001930
p826
aVhttp://dbpedia.org/class/yago/YagoPermanentlyLocatedEntity
p827
aVhttp://dbpedia.org/class/yago/MemberStatesOfTheUnitedNations
p828
aVhttp://dbpedia.org/class/yago/StatesAndTerritoriesEstablishedIn1948
p829
aVhttp://dbpedia.org/class/yago/WorldTradeOrganizationMemberEconomies
p830
aVhttp://dbpedia.org/resource/South_Korea
tp831
aa(lp832
a(lp833
a(lp834
a(lp835
((lVhttp://dbpedia.org/resource/Semiconductor
tp836
aaa(lp837
(lp838
a(lp839
((lp840
Vhttp://www.w3.org/2002/07/owl#Thing
p841
aVhttp://dbpedia.org/ontology/Place
p842
aVhttp://dbpedia.org/ontology/Location
p843
aVhttp://www.wikidata.org/entity/Q486972
p844
aVhttp://www.wikidata.org/entity/Q6256
p845
aVhttp://dbpedia.org/ontology/Country
p846
aVhttp://dbpedia.org/ontology/PopulatedPlace
p847
aVhttp://www.w3.org/2003/01/geo/wgs84_pos#SpatialThing
p848
aVhttp://schema.org/Country
p849
aVhttp://schema.org/Place
p850
aVhttp://umbel.org/umbel/rc/Country
p851
aVhttp://umbel.org/umbel/rc/Location_Underspecified
p852
aVhttp://umbel.org/umbel/rc/PopulatedPlace
p853
aVhttp://dbpedia.org/class/yago/Abstraction100002137
p854
aVhttp://dbpedia.org/class/yago/AdministrativeDistrict108491826
p855
aVhttp://dbpedia.org/class/yago/Country108544813
p856
aVhttp://dbpedia.org/class/yago/District108552138
p857
aVhttp://dbpedia.org/class/yago/Economy108366753
p858
aVhttp://dbpedia.org/class/yago/Group100031264
p859
aVhttp://dbpedia.org/class/yago/Location100027167
p860
aVhttp://dbpedia.org/class/yago/Object100002684
p861
aVhttp://dbpedia.org/class/yago/Region108630039
p862
aVhttp://dbpedia.org/class/yago/Region108630985
p863
aVhttp://dbpedia.org/class/yago/System108435388
p864
aVhttp://dbpedia.org/class/yago/YagoGeoEntity
p865
aVhttp://dbpedia.org/class/yago/YagoLegalActorGeo
p866
aVhttp://dbpedia.org/class/yago/DividedRegions
p867
aVhttp://dbpedia.org/class/yago/EastAsianCountries
p868
aVhttp://dbpedia.org/class/yago/PhysicalEntity100001930
p869
aVhttp://dbpedia.org/class/yago/YagoPermanentlyLocatedEntity
p870
aVhttp://dbpedia.org/class/yago/MemberStatesOfTheUnitedNations
p871
aVhttp://dbpedia.org/class/yago/StatesAndTerritoriesEstablishedIn1948
p872
aVhttp://dbpedia.org/class/yago/WorldTradeOrganizationMemberEconomies
p873
aVhttp://dbpedia.org/resource/South_Korea
tp874
aa(lp875
a(lp876
a(lp877
a(lp878
aa(lp879
(lp880
((lVhttp://dbpedia.org/resource/TK
tp881
aa(lp882
((lp883
Vhttp://www.w3.org/2002/07/owl#Thing
p884
aVhttp://dbpedia.org/ontology/Place
p885
aVhttp://dbpedia.org/ontology/Location
p886
aVhttp://www.wikidata.org/entity/Q486972
p887
aVhttp://www.wikidata.org/entity/Q6256
p888
aVhttp://dbpedia.org/ontology/Country
p889
aVhttp://dbpedia.org/ontology/PopulatedPlace
p890
aVhttp://www.w3.org/2003/01/geo/wgs84_pos#SpatialThing
p891
aVhttp://schema.org/Country
p892
aVhttp://schema.org/Place
p893
aVhttp://umbel.org/umbel/rc/Country
p894
aVhttp://umbel.org/umbel/rc/Location_Underspecified
p895
aVhttp://umbel.org/umbel/rc/PopulatedPlace
p896
aVhttp://dbpedia.org/class/yago/Abstraction100002137
p897
aVhttp://dbpedia.org/class/yago/AdministrativeDistrict108491826
p898
aVhttp://dbpedia.org/class/yago/Country108544813
p899
aVhttp://dbpedia.org/class/yago/District108552138
p900
aVhttp://dbpedia.org/class/yago/Economy108366753
p901
aVhttp://dbpedia.org/class/yago/Group100031264
p902
aVhttp://dbpedia.org/class/yago/Location100027167
p903
aVhttp://dbpedia.org/class/yago/Object100002684
p904
aVhttp://dbpedia.org/class/yago/Region108630039
p905
aVhttp://dbpedia.org/class/yago/Region108630985
p906
aVhttp://dbpedia.org/class/yago/System108435388
p907
aVhttp://dbpedia.org/class/yago/YagoGeoEntity
p908
aVhttp://dbpedia.org/class/yago/YagoLegalActorGeo
p909
aVhttp://dbpedia.org/class/yago/DividedRegions
p910
aVhttp://dbpedia.org/class/yago/EastAsianCountries
p911
aVhttp://dbpedia.org/class/yago/PhysicalEntity100001930
p912
aVhttp://dbpedia.org/class/yago/YagoPermanentlyLocatedEntity
p913
aVhttp://dbpedia.org/class/yago/MemberStatesOfTheUnitedNations
p914
aVhttp://dbpedia.org/class/yago/StatesAndTerritoriesEstablishedIn1948
p915
aVhttp://dbpedia.org/class/yago/WorldTradeOrganizationMemberEconomies
p916
aVhttp://dbpedia.org/resource/South_Korea
tp917
aa(lp918
a(lp919
a(lp920
a(lp921
((lp922
Vhttp://www.w3.org/2002/07/owl#Thing
p923
aVhttp://dbpedia.org/resource/Metalworking
tp924
aaa(lp925
(lp926
a(lp927
((lp928
Vhttp://www.w3.org/2002/07/owl#Thing
p929
aVhttp://dbpedia.org/ontology/Place
p930
aVhttp://dbpedia.org/ontology/Location
p931
aVhttp://www.wikidata.org/entity/Q486972
p932
aVhttp://www.wikidata.org/entity/Q6256
p933
aVhttp://dbpedia.org/ontology/Country
p934
aVhttp://dbpedia.org/ontology/PopulatedPlace
p935
aVhttp://www.w3.org/2003/01/geo/wgs84_pos#SpatialThing
p936
aVhttp://schema.org/Country
p937
aVhttp://schema.org/Place
p938
aVhttp://umbel.org/umbel/rc/Country
p939
aVhttp://umbel.org/umbel/rc/Location_Underspecified
p940
aVhttp://umbel.org/umbel/rc/PopulatedPlace
p941
aVhttp://dbpedia.org/class/yago/Abstraction100002137
p942
aVhttp://dbpedia.org/class/yago/AdministrativeDistrict108491826
p943
aVhttp://dbpedia.org/class/yago/Country108544813
p944
aVhttp://dbpedia.org/class/yago/District108552138
p945
aVhttp://dbpedia.org/class/yago/Economy108366753
p946
aVhttp://dbpedia.org/class/yago/Group100031264
p947
aVhttp://dbpedia.org/class/yago/Location100027167
p948
aVhttp://dbpedia.org/class/yago/Object100002684
p949
aVhttp://dbpedia.org/class/yago/Region108630039
p950
aVhttp://dbpedia.org/class/yago/Region108630985
p951
aVhttp://dbpedia.org/class/yago/System108435388
p952
aVhttp://dbpedia.org/class/yago/YagoGeoEntity
p953
aVhttp://dbpedia.org/class/yago/YagoLegalActorGeo
p954
aVhttp://dbpedia.org/class/yago/DividedRegions
p955
aVhttp://dbpedia.org/class/yago/EastAsianCountries
p956
aVhttp://dbpedia.org/class/yago/PhysicalEntity100001930
p957
aVhttp://dbpedia.org/class/yago/YagoPermanentlyLocatedEntity
p958
aVhttp://dbpedia.org/class/yago/MemberStatesOfTheUnitedNations
p959
aVhttp://dbpedia.org/class/yago/StatesAndTerritoriesEstablishedIn1948
p960
aVhttp://dbpedia.org/class/yago/WorldTradeOrganizationMemberEconomies
p961
aVhttp://dbpedia.org/resource/South_Korea
tp962
aa(lp963
a(lp964
a(lp965
a(lp966
((lp967
Vhttp://www.w3.org/2002/07/owl#Thing
p968
aVhttp://dbpedia.org/resource/Metalworking
tp969
aaa(lp970
(lp971
a(lp972
((lp973
Vhttp://www.w3.org/2002/07/owl#Thing
p974
aVhttp://dbpedia.org/ontology/Place
p975
aVhttp://dbpedia.org/ontology/Location
p976
aVhttp://www.wikidata.org/entity/Q486972
p977
aVhttp://www.wikidata.org/entity/Q6256
p978
aVhttp://dbpedia.org/ontology/Country
p979
aVhttp://dbpedia.org/ontology/PopulatedPlace
p980
aVhttp://www.w3.org/2003/01/geo/wgs84_pos#SpatialThing
p981
aVhttp://schema.org/Country
p982
aVhttp://schema.org/Place
p983
aVhttp://umbel.org/umbel/rc/Country
p984
aVhttp://umbel.org/umbel/rc/Location_Underspecified
p985
aVhttp://umbel.org/umbel/rc/PopulatedPlace
p986
aVhttp://dbpedia.org/class/yago/Abstraction100002137
p987
aVhttp://dbpedia.org/class/yago/AdministrativeDistrict108491826
p988
aVhttp://dbpedia.org/class/yago/Country108544813
p989
aVhttp://dbpedia.org/class/yago/District108552138
p990
aVhttp://dbpedia.org/class/yago/Economy108366753
p991
aVhttp://dbpedia.org/class/yago/Group100031264
p992
aVhttp://dbpedia.org/class/yago/Location100027167
p993
aVhttp://dbpedia.org/class/yago/Object100002684
p994
aVhttp://dbpedia.org/class/yago/Region108630039
p995
aVhttp://dbpedia.org/class/yago/Region108630985
p996
aVhttp://dbpedia.org/class/yago/System108435388
p997
aVhttp://dbpedia.org/class/yago/YagoGeoEntity
p998
aVhttp://dbpedia.org/class/yago/YagoLegalActorGeo
p999
aVhttp://dbpedia.org/class/yago/DividedRegions
p1000
aVhttp://dbpedia.org/class/yago/EastAsianCountries
p1001
aVhttp://dbpedia.org/class/yago/PhysicalEntity100001930
p1002
aVhttp://dbpedia.org/class/yago/YagoPermanentlyLocatedEntity
p1003
aVhttp://dbpedia.org/class/yago/MemberStatesOfTheUnitedNations
p1004
aVhttp://dbpedia.org/class/yago/StatesAndTerritoriesEstablishedIn1948
p1005
aVhttp://dbpedia.org/class/yago/WorldTradeOrganizationMemberEconomies
p1006
aVhttp://dbpedia.org/resource/South_Korea
p1007
tp1008
aa(lp1009
a(lp1010
a(lp1011
a(lp1012
aa.