(lp1
(lp2
(lp3
a(lp4
aa(lp5
(lp6
a(lp7
aa(lp8
(lp9
((lVhttp://dbpedia.org/resource/Age/sex/location
tp10
aa(lp11
aa(lp12
(lp13
a(lp14
((lVhttp://dbpedia.org/resource/Null
tp15
aaa(lp16
(lp17
a(lp18
((lVhttp://dbpedia.org/resource/Broker-dealer
p19
tp20
aaa(lp21
(lp22
a(lp23
aa.