(lp1
(lp2
(dp3
Vstart
p4
I0
sVdisambiguatedURL
p5
NsVnamedEntity
p6
Vfrauen\ufffdrzte
p7
sVoffset
p8
I11
saa(lp9
(dp10
Vstart
p11
I0
sVdisambiguatedURL
p12
NsVnamedEntity
p13
Vfrauenkliniken
p14
sVoffset
p15
I14
saa(lp16
(dp17
Vstart
p18
I0
sVdisambiguatedURL
p19
NsVnamedEntity
p20
Vgeburtsh\ufffduser
p21
sVoffset
p22
I13
saa(lp23
(dp24
Vstart
p25
I0
sVdisambiguatedURL
p26
NsVnamedEntity
p27
Vhebammen
p28
sVoffset
p29
I8
saa.