ccollections
defaultdict
p1
(c__builtin__
dict
p2
tRp3
I0
(dp4
I0
(lp5
sI2
(lp6
sI3
(lp7
sI4
(lp8
ssI1
(dp9
I0
(lp10
sI2
(lp11
sI3
(lp12
sI4
(lp13
ssI2
(dp14
I0
(lp15
sI2
(lp16
sI3
(lp17
sI4
(lp18
ssI3
(dp19
I0
(lp20
sI2
(lp21
sI3
(lp22
sI4
(lp23
ssI4
(dp24
I0
(lp25
sI2
(lp26
sI3
(lp27
sI4
(lp28
ssI5
(dp29
I0
(lp30
sI2
(lp31
sI3
(lp32
sI4
(lp33
ssI6
(dp34
I0
(lp35
sI2
(lp36
sI3
(lp37
sI4
(lp38
ssI7
(dp39
I0
(lp40
sI2
(lp41
sI3
(lp42
sI4
(lp43
ssI8
(dp44
I0
(lp45
sI2
(lp46
sI3
(lp47
sI4
(lp48
ssI9
(dp49
I0
(lp50
sI2
(lp51
sI3
(lp52
sI4
(lp53
ssI10
(dp54
I0
(lp55
sI2
(lp56
sI3
(lp57
sI4
(lp58
ssI11
(dp59
I0
(lp60
sI2
(lp61
sI3
(lp62
sI4
(lp63
ssI12
(dp64
I0
(lp65
sI2
(lp66
sI3
(lp67
sI4
(lp68
ssI13
(dp69
I0
(lp70
sI2
(lp71
sI3
(lp72
sI4
(lp73
ssI14
(dp74
I0
(lp75
sI2
(lp76
sI3
(lp77
sI4
(lp78
ssI15
(dp79
I0
(lp80
sI2
(lp81
sI3
(lp82
sI4
(lp83
ssI16
(dp84
I0
(lp85
sI2
(lp86
sI3
(lp87
sI4
(lp88
ssI17
(dp89
I0
(lp90
sI2
(lp91
sI3
(lp92
sI4
(lp93
ssI18
(dp94
I0
(lp95
sI2
(lp96
sI3
(lp97
sI4
(lp98
ssI19
(dp99
I0
(lp100
sI2
(lp101
sI3
(lp102
sI4
(lp103
ss.