(lp1
(dp2
I0
(dp3
I0
(lp4
sI1
(lp5
sI2
(lp6
sI3
(lp7
ssI1
(dp8
I0
g5
sI1
(lp9
sI2
(lp10
sI3
(lp11
ssI2
(dp12
I0
g6
sI1
g10
sI2
(lp13
sI3
(lp14
ssI3
(dp15
I0
g7
sI1
g11
sI2
g14
sI3
(lp16
ssa(dp17
I0
(dp18
I0
(lp19
sI1
(lp20
Vhttp://www.w3.org/1999/02/22-rdf-syntax-ns#type
p21
aVhttp://purl.org/dc/terms/subject
p22
aVhttp://dbpedia.org/ontology/abstract
p23
aVhttp://dbpedia.org/ontology/wikiPageRedirects
p24
aVhttp://dbpedia.org/property/products
p25
aVhttp://dbpedia.org/ontology/product
p26
asI2
(lp27
sI3
(lp28
ssI1
(dp29
I0
g20
sI1
(lp30
sI2
(lp31
sI3
(lp32
ssI2
(dp33
I0
g27
sI1
g31
sI2
(lp34
sI3
(lp35
ssI3
(dp36
I0
g28
sI1
g32
sI2
g35
sI3
(lp37
ssa(dp38
I0
(dp39
I0
(lp40
sI1
(lp41
sI2
(lp42
sI3
(lp43
ssI1
(dp44
I0
g41
sI1
(lp45
sI2
(lp46
sI3
(lp47
ssI2
(dp48
I0
g42
sI1
g46
sI2
(lp49
sI3
(lp50
ssI3
(dp51
I0
g43
sI1
g47
sI2
g50
sI3
(lp52
ssa(dp53
I0
(dp54
I0
(lp55
sI1
(lp56
sI2
(lp57
sI3
(lp58
ssI1
(dp59
I0
g56
sI1
(lp60
sI2
(lp61
sI3
(lp62
ssI2
(dp63
I0
g57
sI1
g61
sI2
(lp64
sI3
(lp65
ssI3
(dp66
I0
g58
sI1
g62
sI2
g65
sI3
(lp67
ssa(dp68
I0
(dp69
I0
(lp70
sI1
(lp71
sI2
(lp72
sI3
(lp73
ssI1
(dp74
I0
g71
sI1
(lp75
sI2
(lp76
sI3
(lp77
ssI2
(dp78
I0
g72
sI1
g76
sI2
(lp79
sI3
(lp80
ssI3
(dp81
I0
g73
sI1
g77
sI2
g80
sI3
(lp82
ssa(dp83
I0
(dp84
I0
(lp85
sI1
(lp86
sI2
(lp87
sI3
(lp88
ssI1
(dp89
I0
g86
sI1
(lp90
sI2
(lp91
sI3
(lp92
ssI2
(dp93
I0
g87
sI1
g91
sI2
(lp94
sI3
(lp95
ssI3
(dp96
I0
g88
sI1
g92
sI2
g95
sI3
(lp97
ssa(dp98
I0
(dp99
I0
(lp100
sI1
(lp101
sI2
(lp102
sI3
(lp103
ssI1
(dp104
I0
g101
sI1
(lp105
sI2
(lp106
sI3
(lp107
ssI2
(dp108
I0
g102
sI1
g106
sI2
(lp109
sI3
(lp110
ssI3
(dp111
I0
g103
sI1
g107
sI2
g110
sI3
(lp112
ssa(dp113
I0
(dp114
I0
(lp115
sI1
(lp116
sI2
(lp117
sI3
(lp118
ssI1
(dp119
I0
g116
sI1
(lp120
sI2
(lp121
sI3
(lp122
ssI2
(dp123
I0
g117
sI1
g121
sI2
(lp124
sI3
(lp125
ssI3
(dp126
I0
g118
sI1
g122
sI2
g125
sI3
(lp127
ssa(dp128
I0
(dp129
I0
(lp130
sI1
(lp131
sI2
(lp132
sI3
(lp133
ssI1
(dp134
I0
g131
sI1
(lp135
sI2
(lp136
sI3
(lp137
ssI2
(dp138
I0
g132
sI1
g136
sI2
(lp139
sI3
(lp140
ssI3
(dp141
I0
g133
sI1
g137
sI2
g140
sI3
(lp142
ssa(dp143
I0
(dp144
I0
(lp145
sI1
(lp146
Vhttp://dbpedia.org/ontology/wikiPageExternalLink
p147
aVhttp://dbpedia.org/property/industry
p148
aVhttp://www.w3.org/1999/02/22-rdf-syntax-ns#type
p149
aVhttp://purl.org/dc/terms/subject
p150
aVhttp://xmlns.com/foaf/0.1/name
p151
aVhttp://www.w3.org/2000/01/rdf-schema#comment
p152
aVhttp://www.w3.org/2000/01/rdf-schema#label
p153
aVhttp://dbpedia.org/ontology/abstract
p154
aVhttp://xmlns.com/foaf/0.1/primaryTopic
p155
aVhttp://dbpedia.org/property/name
p156
aVhttp://dbpedia.org/property/logo
p157
aVhttp://dbpedia.org/ontology/wikiPageRedirects
p158
aVhttp://www.w3.org/ns/prov#wasDerivedFrom
p159
aVhttp://dbpedia.org/ontology/industry
p160
aVhttp://dbpedia.org/ontology/wikiPageDisambiguates
p161
aVhttp://dbpedia.org/property/hasPhotoCollection
p162
aVhttp://www.w3.org/2002/07/owl#sameAs
p163
aVhttp://xmlns.com/foaf/0.1/isPrimaryTopicOf
p164
asI2
(lp165
sI3
(lp166
ssI1
(dp167
I0
g146
sI1
(lp168
sI2
(lp169
sI3
(lp170
ssI2
(dp171
I0
g165
sI1
g169
sI2
(lp172
sI3
(lp173
ssI3
(dp174
I0
g166
sI1
g170
sI2
g173
sI3
(lp175
ssa(dp176
I0
(dp177
I0
(lp178
sI1
(lp179
Vhttp://dbpedia.org/ontology/wikiPageRedirects
p180
aVhttp://dbpedia.org/property/homepage
p181
aVhttp://www.w3.org/ns/prov#wasDerivedFrom
p182
aVhttp://www.w3.org/1999/02/22-rdf-syntax-ns#type
p183
aVhttp://dbpedia.org/property/parent
p184
aVhttp://dbpedia.org/property/keyPeople
p185
aVhttp://xmlns.com/foaf/0.1/isPrimaryTopicOf
p186
aVhttp://dbpedia.org/ontology/wikiPageExternalLink
p187
aVhttp://xmlns.com/foaf/0.1/primaryTopic
p188
aVhttp://purl.org/dc/terms/subject
p189
aVhttp://dbpedia.org/ontology/abstract
p190
aVhttp://xmlns.com/foaf/0.1/depiction
p191
aVhttp://dbpedia.org/ontology/thumbnail
p192
aVhttp://dbpedia.org/ontology/parentCompany
p193
aVhttp://dbpedia.org/property/hasPhotoCollection
p194
aVhttp://www.w3.org/2000/01/rdf-schema#label
p195
aVhttp://www.w3.org/2000/01/rdf-schema#comment
p196
aVhttp://dbpedia.org/property/name
p197
aVhttp://dbpedia.org/ontology/keyPerson
p198
aVhttp://xmlns.com/foaf/0.1/name
p199
aVhttp://xmlns.com/foaf/0.1/homepage
p200
aVhttp://dbpedia.org/property/tradingName
p201
aVhttp://www.w3.org/2002/07/owl#sameAs
p202
asI2
(lp203
sI3
(lp204
ssI1
(dp205
I0
g179
sI1
(lp206
sI2
(lp207
sI3
(lp208
ssI2
(dp209
I0
g203
sI1
g207
sI2
(lp210
sI3
(lp211
ssI3
(dp212
I0
g204
sI1
g208
sI2
g211
sI3
(lp213
ssa(dp214
I0
(dp215
I0
(lp216
sI1
(lp217
sI2
(lp218
sI3
(lp219
ssI1
(dp220
I0
g217
sI1
(lp221
sI2
(lp222
sI3
(lp223
ssI2
(dp224
I0
g218
sI1
g222
sI2
(lp225
sI3
(lp226
ssI3
(dp227
I0
g219
sI1
g223
sI2
g226
sI3
(lp228
ssa.