(lp1
(lp2
(lp3
a(lp4
((lp5
Vhttp://dbpedia.org/class/yago/Abstraction100002137
p6
aVhttp://dbpedia.org/class/yago/Company108058098
p7
aVhttp://dbpedia.org/class/yago/Group100031264
p8
aVhttp://dbpedia.org/class/yago/Institution108053576
p9
aVhttp://dbpedia.org/class/yago/Organization108008335
p10
aVhttp://dbpedia.org/class/yago/SocialGroup107950920
p11
aVhttp://dbpedia.org/class/yago/Utility108185758
p12
aVhttp://dbpedia.org/class/yago/YagoLegalActorGeo
p13
aVhttp://dbpedia.org/class/yago/ElectricUtilities
p14
aVhttp://dbpedia.org/class/yago/YagoPermanentlyLocatedEntity
p15
aVhttp://dbpedia.org/class/yago/YagoLegalActor
p16
aVhttp://dbpedia.org/class/yago/PublicUtilities
p17
aVhttp://dbpedia.org/class/yago/Service108186047
p18
aVhttp://dbpedia.org/resource/Electric_utility
tp19
aa(lp20
a(lp21
aa(lp22
(lp23
((lp24
Vhttp://www.w3.org/2002/07/owl#Thing
p25
aVhttp://dbpedia.org/ontology/Company
p26
aVhttp://www.ontologydesignpatterns.org/ont/dul/DUL.owl#Agent
p27
aVhttp://www.ontologydesignpatterns.org/ont/dul/DUL.owl#SocialPerson
p28
aVhttp://www.wikidata.org/entity/Q43229
p29
aVhttp://dbpedia.org/ontology/Agent
p30
aVhttp://dbpedia.org/ontology/Bank
p31
aVhttp://dbpedia.org/ontology/Organisation
p32
aVhttp://schema.org/BankOrCreditUnion
p33
aVhttp://schema.org/Organization
p34
aVhttp://umbel.org/umbel/rc/Business
p35
aVhttp://umbel.org/umbel/rc/Organization
p36
aVhttp://dbpedia.org/class/yago/Abstraction100002137
p37
aVhttp://dbpedia.org/class/yago/Company108058098
p38
aVhttp://dbpedia.org/class/yago/FinancialInstitution108054721
p39
aVhttp://dbpedia.org/class/yago/Group100031264
p40
aVhttp://dbpedia.org/class/yago/Institution108053576
p41
aVhttp://dbpedia.org/class/yago/NondepositoryFinancialInstitution108419984
p42
aVhttp://dbpedia.org/class/yago/Organization108008335
p43
aVhttp://dbpedia.org/class/yago/SocialGroup107950920
p44
aVhttp://dbpedia.org/class/yago/YagoLegalActorGeo
p45
aVhttp://dbpedia.org/class/yago/FinancialServicesCompaniesOfIndia
p46
aVhttp://dbpedia.org/class/yago/FinancialServicesCompaniesOfThePeople'sRepublicOfChina
p47
aVhttp://dbpedia.org/class/yago/FinancialServicesCompaniesOfTheUnitedKingdom
p48
aVhttp://dbpedia.org/class/yago/FinancialServicesCompaniesOfTheUnitedStates
p49
aVhttp://dbpedia.org/class/yago/FormerMutualInsuranceCompanies
p50
aVhttp://dbpedia.org/class/yago/InsuranceCompany108070465
p51
aVhttp://dbpedia.org/class/yago/YagoPermanentlyLocatedEntity
p52
aVhttp://dbpedia.org/class/yago/InsuranceCompanies
p53
aVhttp://dbpedia.org/class/yago/InsuranceCompaniesOfBermuda
p54
aVhttp://dbpedia.org/class/yago/InsuranceCompaniesOfCanada
p55
aVhttp://dbpedia.org/class/yago/InsuranceCompaniesOfChina
p56
aVhttp://dbpedia.org/class/yago/InsuranceCompaniesOfIreland
p57
aVhttp://dbpedia.org/class/yago/InsuranceCompaniesOfTheUnitedKingdom
p58
aVhttp://dbpedia.org/class/yago/InsuranceCompaniesOfTheUnitedStates
p59
aVhttp://dbpedia.org/class/yago/InvestmentManagementCompaniesOfTheUnitedKingdom
p60
aVhttp://dbpedia.org/class/yago/LifeInsuranceCompanies
p61
aVhttp://dbpedia.org/class/yago/LifeInsuranceCompaniesOfIndia
p62
aVhttp://dbpedia.org/class/yago/YagoLegalActor
p63
aVhttp://dbpedia.org/resource/Sun_Life_Financial
tp64
aa(lp65
((lVhttp://dbpedia.org/resource/Insurance
tp66
aa(lp67
a(lp68
aa(lp69
(lp70
a(lp71
((lp72
Vhttp://www.w3.org/2002/07/owl#Thing
p73
aVhttp://dbpedia.org/resource/Bank
tp74
aa(lp75
a(lp76
aa(lp77
(lp78
a(lp79
((lVhttp://dbpedia.org/resource/Telecommunication
tp80
aa(lp81
a(lp82
aa(lp83
(lp84
a(lp85
a(lp86
a(lp87
aa(lp88
(lp89
a(lp90
((lp91
Vhttp://www.w3.org/2002/07/owl#Thing
p92
aVhttp://dbpedia.org/resource/Bank
tp93
aa(lp94
a(lp95
aa(lp96
(lp97
a(lp98
a(lp99
a(lp100
aa(lp101
(lp102
a(lp103
((lVhttp://dbpedia.org/resource/Cable
tp104
aa(lp105
a(lp106
aa(lp107
(lp108
a(lp109
((lp110
Vhttp://www.w3.org/2002/07/owl#Thing
p111
aVhttp://dbpedia.org/ontology/Company
p112
aVhttp://www.ontologydesignpatterns.org/ont/dul/DUL.owl#Agent
p113
aVhttp://www.ontologydesignpatterns.org/ont/dul/DUL.owl#SocialPerson
p114
aVhttp://www.wikidata.org/entity/Q18127
p115
aVhttp://www.wikidata.org/entity/Q43229
p116
aVhttp://dbpedia.org/ontology/Agent
p117
aVhttp://dbpedia.org/ontology/Organisation
p118
aVhttp://dbpedia.org/ontology/RecordLabel
p119
aVhttp://schema.org/Organization
p120
aVhttp://dbpedia.org/class/yago/Abstraction100002137
p121
aVhttp://dbpedia.org/class/yago/AmericanRecordLabels
p122
aVhttp://dbpedia.org/class/yago/Company108058098
p123
aVhttp://dbpedia.org/class/yago/Group100031264
p124
aVhttp://dbpedia.org/class/yago/Institution108053576
p125
aVhttp://dbpedia.org/class/yago/Organization108008335
p126
aVhttp://dbpedia.org/class/yago/SocialGroup107950920
p127
aVhttp://dbpedia.org/class/yago/YagoLegalActorGeo
p128
aVhttp://dbpedia.org/class/yago/YagoPermanentlyLocatedEntity
p129
aVhttp://dbpedia.org/class/yago/HipHopRecordLabels
p130
aVhttp://dbpedia.org/class/yago/YagoLegalActor
p131
aVhttp://dbpedia.org/class/yago/RecordLabelsEstablishedIn1994
p132
aVhttp://dbpedia.org/resource/Conglomerate_(record_label)
tp133
aa(lp134
a(lp135
aa(lp136
(lp137
((lp138
Vhttp://www.w3.org/2002/07/owl#Thing
p139
aVhttp://dbpedia.org/ontology/Company
p140
aVhttp://www.ontologydesignpatterns.org/ont/dul/DUL.owl#Agent
p141
aVhttp://www.ontologydesignpatterns.org/ont/dul/DUL.owl#SocialPerson
p142
aVhttp://www.wikidata.org/entity/Q43229
p143
aVhttp://dbpedia.org/ontology/Agent
p144
aVhttp://dbpedia.org/ontology/Organisation
p145
aVhttp://schema.org/Organization
p146
aVhttp://umbel.org/umbel/rc/Business
p147
aVhttp://dbpedia.org/class/yago/Abstraction100002137
p148
aVhttp://dbpedia.org/class/yago/BanksEstablishedIn1979
p149
aVhttp://dbpedia.org/class/yago/BanksOfCanada
p150
aVhttp://dbpedia.org/class/yago/Company108058098
p151
aVhttp://dbpedia.org/class/yago/DepositoryFinancialInstitution108420278
p152
aVhttp://dbpedia.org/class/yago/FinancialInstitution108054721
p153
aVhttp://dbpedia.org/class/yago/Group100031264
p154
aVhttp://dbpedia.org/class/yago/Institution108053576
p155
aVhttp://dbpedia.org/class/yago/NondepositoryFinancialInstitution108419984
p156
aVhttp://dbpedia.org/class/yago/Organization108008335
p157
aVhttp://dbpedia.org/class/yago/SocialGroup107950920
p158
aVhttp://dbpedia.org/class/yago/YagoLegalActorGeo
p159
aVhttp://dbpedia.org/class/yago/CompaniesBasedInMontreal
p160
aVhttp://dbpedia.org/class/yago/InsuranceCompany108070465
p161
aVhttp://dbpedia.org/class/yago/YagoPermanentlyLocatedEntity
p162
aVhttp://dbpedia.org/class/yago/InsuranceCompaniesOfCanada
p163
aVhttp://dbpedia.org/class/yago/YagoLegalActor
p164
aVhttp://dbpedia.org/resource/National_Bank_of_Canada
tp165
aa(lp166
((lp167
Vhttp://www.w3.org/2002/07/owl#Thing
p168
aVhttp://dbpedia.org/resource/Bank
tp169
aa(lp170
a(lp171
aa(lp172
(lp173
((lp174
Vhttp://www.w3.org/2002/07/owl#Thing
p175
aVhttp://dbpedia.org/ontology/Company
p176
aVhttp://www.ontologydesignpatterns.org/ont/dul/DUL.owl#Agent
p177
aVhttp://www.ontologydesignpatterns.org/ont/dul/DUL.owl#SocialPerson
p178
aVhttp://www.wikidata.org/entity/Q43229
p179
aVhttp://dbpedia.org/ontology/Agent
p180
aVhttp://dbpedia.org/ontology/Bank
p181
aVhttp://dbpedia.org/ontology/Organisation
p182
aVhttp://schema.org/BankOrCreditUnion
p183
aVhttp://schema.org/Organization
p184
aVhttp://dbpedia.org/class/yago/Abstraction100002137
p185
aVhttp://dbpedia.org/class/yago/BanksEstablishedIn1832
p186
aVhttp://dbpedia.org/class/yago/BanksOfCanada
p187
aVhttp://dbpedia.org/class/yago/BanksOfTheCaribbean
p188
aVhttp://dbpedia.org/class/yago/Company108058098
p189
aVhttp://dbpedia.org/class/yago/DepositoryFinancialInstitution108420278
p190
aVhttp://dbpedia.org/class/yago/FinancialInstitution108054721
p191
aVhttp://dbpedia.org/class/yago/Group100031264
p192
aVhttp://dbpedia.org/class/yago/Institution108053576
p193
aVhttp://dbpedia.org/class/yago/Organization108008335
p194
aVhttp://dbpedia.org/class/yago/SocialGroup107950920
p195
aVhttp://dbpedia.org/class/yago/YagoLegalActorGeo
p196
aVhttp://dbpedia.org/class/yago/CompaniesBasedInToronto
p197
aVhttp://dbpedia.org/class/yago/YagoPermanentlyLocatedEntity
p198
aVhttp://dbpedia.org/class/yago/YagoLegalActor
p199
aVhttp://dbpedia.org/resource/Scotiabank
tp200
aa(lp201
((lp202
Vhttp://www.w3.org/2002/07/owl#Thing
p203
aVhttp://dbpedia.org/resource/Bank
tp204
aa(lp205
a(lp206
aa(lp207
(lp208
a(lp209
((lp210
Vhttp://dbpedia.org/class/yago/Abstraction100002137
p211
aVhttp://dbpedia.org/class/yago/Company108058098
p212
aVhttp://dbpedia.org/class/yago/Group100031264
p213
aVhttp://dbpedia.org/class/yago/Institution108053576
p214
aVhttp://dbpedia.org/class/yago/Organization108008335
p215
aVhttp://dbpedia.org/class/yago/SocialGroup107950920
p216
aVhttp://dbpedia.org/class/yago/Utility108185758
p217
aVhttp://dbpedia.org/class/yago/YagoLegalActorGeo
p218
aVhttp://dbpedia.org/class/yago/ElectricUtilities
p219
aVhttp://dbpedia.org/class/yago/YagoPermanentlyLocatedEntity
p220
aVhttp://dbpedia.org/class/yago/YagoLegalActor
p221
aVhttp://dbpedia.org/class/yago/PublicUtilities
p222
aVhttp://dbpedia.org/class/yago/Service108186047
p223
aVhttp://dbpedia.org/resource/Electric_utility
p224
tp225
aa(lp226
a(lp227
aa.