(lp1
(lp2
(dp3
Vstart
p4
I0
sVdisambiguatedURL
p5
Vhttp://dbpedia.org/resource/Current_asset
p6
sVnamedEntity
p7
VCurrent Assets
p8
sVoffset
p9
I14
saa(lp10
(dp11
Vstart
p12
I0
sVdisambiguatedURL
p13
Vhttp://dbpedia.org/resource/Cash
p14
sVnamedEntity
p15
VCash
p16
sVoffset
p17
I4
saa(lp18
(dp19
Vstart
p20
I0
sVdisambiguatedURL
p21
NsVnamedEntity
p22
VNet Receivables
p23
sVoffset
p24
I15
saa(lp25
(dp26
Vstart
p27
I0
sVdisambiguatedURL
p28
Vhttp://dbpedia.org/resource/Inventory
p29
sVnamedEntity
p30
VInventories
p31
sVoffset
p32
I11
saa(lp33
(dp34
Vstart
p35
I0
sVdisambiguatedURL
p36
NsVnamedEntity
p37
VOther Current Assets
p38
sVoffset
p39
I20
saa(lp40
(dp41
Vstart
p42
I0
sVdisambiguatedURL
p43
NsVnamedEntity
p44
VTotal Current Assets
p45
sVoffset
p46
I20
saa(lp47
(dp48
Vstart
p49
I0
sVdisambiguatedURL
p50
NsVnamedEntity
p51
VNet Fixed Assets
p52
sVoffset
p53
I16
saa(lp54
(dp55
Vstart
p56
I0
sVdisambiguatedURL
p57
NsVnamedEntity
p58
VOther Noncurrent Assets
p59
sVoffset
p60
I23
saa(lp61
(dp62
Vstart
p63
I0
sVdisambiguatedURL
p64
Vhttp://dbpedia.org/resource/Asset
p65
sVnamedEntity
p66
VTotal Assets
p67
sVoffset
p68
I12
saa(lp69
(dp70
Vstart
p71
I0
sVdisambiguatedURL
p72
Vhttp://dbpedia.org/resource/Liability_(financial_accounting)
p73
sVnamedEntity
p74
VLiabilities
p75
sVoffset
p76
I11
saa(lp77
(dp78
Vstart
p79
I0
sVdisambiguatedURL
p80
Vhttp://dbpedia.org/resource/Current_liability
p81
sVnamedEntity
p82
VCurrent Liabilities
p83
sVoffset
p84
I19
saa(lp85
(dp86
Vstart
p87
I0
sVdisambiguatedURL
p88
Vhttp://dbpedia.org/resource/Accounts_payable
p89
sVnamedEntity
p90
VAccounts Payable
p91
sVoffset
p92
I16
saa(lp93
(dp94
Vstart
p95
I0
sVdisambiguatedURL
p96
Vhttp://dbpedia.org/resource/Money_market
p97
sVnamedEntity
p98
VShort-Term Debt
p99
sVoffset
p100
I15
saa(lp101
(dp102
Vstart
p103
I0
sVdisambiguatedURL
p104
NsVnamedEntity
p105
VOther Current Liabilities
p106
sVoffset
p107
I25
saa(lp108
(dp109
Vstart
p110
I0
sVdisambiguatedURL
p111
NsVnamedEntity
p112
VTotal Current Liabilities
p113
sVoffset
p114
I25
saa(lp115
(dp116
Vstart
p117
I0
sVdisambiguatedURL
p118
NsVnamedEntity
p119
VLong-Term Debt
p120
sVoffset
p121
I14
saa(lp122
(dp123
Vstart
p124
I0
sVdisambiguatedURL
p125
NsVnamedEntity
p126
VOther Noncurrent Liabilities
p127
sVoffset
p128
I28
saa(lp129
(dp130
Vstart
p131
I0
sVdisambiguatedURL
p132
Vhttp://dbpedia.org/resource/Liability_(financial_accounting)
p133
sVnamedEntity
p134
VTotal Liabilities
p135
sVoffset
p136
I17
saa(lp137
(dp138
Vstart
p139
I0
sVdisambiguatedURL
p140
Vhttp://dbpedia.org/resource/Equity_(finance)
p141
sVnamedEntity
p142
VShareholder's Equity
p143
sVoffset
p144
I20
saa(lp145
(dp146
Vstart
p147
I0
sVdisambiguatedURL
p148
NsVnamedEntity
p149
VPreferred Stock Equity
p150
sVoffset
p151
I22
saa.