(lp1
(lp2
(lp3
((lVhttp://dbpedia.org/resource/Comparison
tp4
aa(lp5
a(lp6
aa(lp7
(lp8
((lVhttp://dbpedia.org/resource/Comparison
tp9
aa(lp10
a(lp11
aa(lp12
(lp13
((lVhttp://dbpedia.org/resource/Comparison
tp14
aa(lp15
a(lp16
aa(lp17
(lp18
((lVhttp://dbpedia.org/resource/Comparison
tp19
aa(lp20
a(lp21
aa(lp22
(lp23
((lVhttp://dbpedia.org/resource/Comparison
tp24
aa(lp25
a(lp26
aa(lp27
(lp28
((lVhttp://dbpedia.org/resource/Comparison
tp29
aa(lp30
a(lp31
aa(lp32
(lp33
((lVhttp://dbpedia.org/resource/Comparison
tp34
aa(lp35
a(lp36
aa(lp37
(lp38
((lVhttp://dbpedia.org/resource/Comparison
tp39
aa(lp40
a(lp41
aa(lp42
(lp43
((lVhttp://dbpedia.org/resource/Comparison
tp44
aa(lp45
a(lp46
aa(lp47
(lp48
((lVhttp://dbpedia.org/resource/Comparison
tp49
aa(lp50
a(lp51
aa(lp52
(lp53
((lVhttp://dbpedia.org/resource/Comparison
tp54
aa(lp55
a(lp56
aa(lp57
(lp58
((lVhttp://dbpedia.org/resource/Comparison
tp59
aa(lp60
a(lp61
aa(lp62
(lp63
((lVhttp://dbpedia.org/resource/Comparison
tp64
aa(lp65
a(lp66
aa(lp67
(lp68
((lVhttp://dbpedia.org/resource/Comparison
tp69
aa(lp70
a(lp71
aa(lp72
(lp73
((lVhttp://dbpedia.org/resource/Comparison
p74
tp75
aa(lp76
a(lp77
aa.