(lp1
(lp2
(lp3
Vhttp://dbpedia.org/resource/Comparison
p4
aa(lp5
a(lp6
aa(lp7
(lp8
Vhttp://dbpedia.org/resource/Comparison
p9
aa(lp10
a(lp11
aa(lp12
(lp13
Vhttp://dbpedia.org/resource/Comparison
p14
aa(lp15
a(lp16
aa(lp17
(lp18
Vhttp://dbpedia.org/resource/Comparison
p19
aa(lp20
a(lp21
aa(lp22
(lp23
Vhttp://dbpedia.org/resource/Comparison
p24
aa(lp25
a(lp26
aa(lp27
(lp28
Vhttp://dbpedia.org/resource/Comparison
p29
aa(lp30
a(lp31
aa(lp32
(lp33
Vhttp://dbpedia.org/resource/Comparison
p34
aa(lp35
a(lp36
aa(lp37
(lp38
Vhttp://dbpedia.org/resource/Comparison
p39
aa(lp40
a(lp41
aa(lp42
(lp43
Vhttp://dbpedia.org/resource/Comparison
p44
aa(lp45
a(lp46
aa(lp47
(lp48
Vhttp://dbpedia.org/resource/Comparison
p49
aa(lp50
a(lp51
aa(lp52
(lp53
Vhttp://dbpedia.org/resource/Comparison
p54
aa(lp55
a(lp56
aa(lp57
(lp58
Vhttp://dbpedia.org/resource/Comparison
p59
aa(lp60
a(lp61
aa(lp62
(lp63
Vhttp://dbpedia.org/resource/Comparison
p64
aa(lp65
a(lp66
aa(lp67
(lp68
Vhttp://dbpedia.org/resource/Comparison
p69
aa(lp70
a(lp71
aa(lp72
(lp73
Vhttp://dbpedia.org/resource/Comparison
p74
aa(lp75
a(lp76
aa.