(lp1
(lp2
(dp3
Vstart
p4
I0
sS'classes'
p5
(lp6
Vhttp://umbel.org/umbel/rc/Business
p7
asVdisambiguatedURL
p8
Vhttp://dbpedia.org/resource/37signals
p9
sVnamedEntity
p10
V37signals
p11
sVoffset
p12
I9
saa(lp13
a(lp14
a(lp15
a(lp16
a(lp17
a(lp18
a(lp19
a(lp20
a(lp21
a(lp22
a(lp23
a(lp24
a(lp25
a(lp26
a(lp27
a(lp28
a(lp29
a(lp30
a(lp31
a.