(lp1
(dp2
I0
(dp3
I0
(lp4
sI1
(lp5
sI2
(lp6
Vhttp://www.w3.org/1999/02/22-rdf-syntax-ns#type
p7
asI3
(lp8
ssI1
(dp9
I0
g5
sI1
(lp10
sI2
(lp11
Vhttp://dbpedia.org/ontology/abstract
p12
aVhttp://www.w3.org/2000/01/rdf-schema#comment
p13
asI3
(lp14
ssI2
(dp15
I0
g6
sI1
g11
sI2
(lp16
sI3
(lp17
ssI3
(dp18
I0
g8
sI1
g14
sI2
g17
sI3
(lp19
ssa(dp20
I0
(dp21
I0
(lp22
sI1
(lp23
sI2
(lp24
sI3
(lp25
ssI1
(dp26
I0
g23
sI1
(lp27
sI2
(lp28
Vhttp://dbpedia.org/ontology/genre
p29
aVhttp://dbpedia.org/property/industry
p30
aVhttp://www.w3.org/2000/01/rdf-schema#comment
p31
aVhttp://dbpedia.org/property/category
p32
aVhttp://dbpedia.org/ontology/abstract
p33
aVhttp://dbpedia.org/ontology/wikiPageRedirects
p34
aVhttp://dbpedia.org/ontology/service
p35
aVhttp://dbpedia.org/ontology/keyPerson
p36
aVhttp://dbpedia.org/property/fields
p37
aVhttp://dbpedia.org/property/products
p38
aVhttp://dbpedia.org/property/services
p39
aVhttp://dbpedia.org/ontology/field
p40
aVhttp://dbpedia.org/ontology/industry
p41
aVhttp://dbpedia.org/ontology/product
p42
asI3
(lp43
ssI2
(dp44
I0
g24
sI1
g28
sI2
(lp45
sI3
(lp46
ssI3
(dp47
I0
g25
sI1
g43
sI2
g46
sI3
(lp48
ssa(dp49
I0
(dp50
I0
(lp51
sI1
(lp52
sI2
(lp53
sI3
(lp54
ssI1
(dp55
I0
g52
sI1
(lp56
sI2
(lp57
sI3
(lp58
ssI2
(dp59
I0
g53
sI1
g57
sI2
(lp60
sI3
(lp61
ssI3
(dp62
I0
g54
sI1
g58
sI2
g61
sI3
(lp63
ssa(dp64
I0
(dp65
I0
(lp66
sI1
(lp67
sI2
(lp68
sI3
(lp69
ssI1
(dp70
I0
g67
sI1
(lp71
sI2
(lp72
sI3
(lp73
ssI2
(dp74
I0
g68
sI1
g72
sI2
(lp75
sI3
(lp76
ssI3
(dp77
I0
g69
sI1
g73
sI2
g76
sI3
(lp78
ssa(dp79
I0
(dp80
I0
(lp81
sI1
(lp82
sI2
(lp83
sI3
(lp84
ssI1
(dp85
I0
g82
sI1
(lp86
sI2
(lp87
sI3
(lp88
ssI2
(dp89
I0
g83
sI1
g87
sI2
(lp90
sI3
(lp91
ssI3
(dp92
I0
g84
sI1
g88
sI2
g91
sI3
(lp93
ssa(dp94
I0
(dp95
I0
(lp96
sI1
(lp97
sI2
(lp98
sI3
(lp99
ssI1
(dp100
I0
g97
sI1
(lp101
sI2
(lp102
Vhttp://dbpedia.org/ontology/industry
p103
aVhttp://dbpedia.org/property/industry
p104
asI3
(lp105
ssI2
(dp106
I0
g98
sI1
g102
sI2
(lp107
sI3
(lp108
ssI3
(dp109
I0
g99
sI1
g105
sI2
g108
sI3
(lp110
ssa(dp111
I0
(dp112
I0
(lp113
sI1
(lp114
sI2
(lp115
sI3
(lp116
ssI1
(dp117
I0
g114
sI1
(lp118
sI2
(lp119
Vhttp://dbpedia.org/ontology/abstract
p120
aVhttp://www.w3.org/2000/01/rdf-schema#comment
p121
asI3
(lp122
ssI2
(dp123
I0
g115
sI1
g119
sI2
(lp124
sI3
(lp125
ssI3
(dp126
I0
g116
sI1
g122
sI2
g125
sI3
(lp127
ssa(dp128
I0
(dp129
I0
(lp130
sI1
(lp131
sI2
(lp132
sI3
(lp133
ssI1
(dp134
I0
g131
sI1
(lp135
sI2
(lp136
sI3
(lp137
ssI2
(dp138
I0
g132
sI1
g136
sI2
(lp139
sI3
(lp140
ssI3
(dp141
I0
g133
sI1
g137
sI2
g140
sI3
(lp142
ssa(dp143
I0
(dp144
I0
(lp145
sI1
(lp146
sI2
(lp147
sI3
(lp148
ssI1
(dp149
I0
g146
sI1
(lp150
sI2
(lp151
sI3
(lp152
ssI2
(dp153
I0
g147
sI1
g151
sI2
(lp154
sI3
(lp155
ssI3
(dp156
I0
g148
sI1
g152
sI2
g155
sI3
(lp157
ssa(dp158
I0
(dp159
I0
(lp160
sI1
(lp161
sI2
(lp162
sI3
(lp163
ssI1
(dp164
I0
g161
sI1
(lp165
sI2
(lp166
Vhttp://dbpedia.org/ontology/abstract
p167
aVhttp://www.w3.org/2000/01/rdf-schema#comment
p168
asI3
(lp169
ssI2
(dp170
I0
g162
sI1
g166
sI2
(lp171
sI3
(lp172
ssI3
(dp173
I0
g163
sI1
g169
sI2
g172
sI3
(lp174
ssa(dp175
I0
(dp176
I0
(lp177
sI1
(lp178
sI2
(lp179
sI3
(lp180
ssI1
(dp181
I0
g178
sI1
(lp182
sI2
(lp183
sI3
(lp184
ssI2
(dp185
I0
g179
sI1
g183
sI2
(lp186
sI3
(lp187
ssI3
(dp188
I0
g180
sI1
g184
sI2
g187
sI3
(lp189
ssa(dp190
I0
(dp191
I0
(lp192
sI1
(lp193
sI2
(lp194
sI3
(lp195
ssI1
(dp196
I0
g193
sI1
(lp197
sI2
(lp198
Vhttp://dbpedia.org/ontology/abstract
p199
aVhttp://www.w3.org/2000/01/rdf-schema#comment
p200
asI3
(lp201
ssI2
(dp202
I0
g194
sI1
g198
sI2
(lp203
sI3
(lp204
ssI3
(dp205
I0
g195
sI1
g201
sI2
g204
sI3
(lp206
ssa(dp207
I0
(dp208
I0
(lp209
sI1
(lp210
sI2
(lp211
sI3
(lp212
ssI1
(dp213
I0
g210
sI1
(lp214
sI2
(lp215
Vhttp://dbpedia.org/ontology/genre
p216
aVhttp://dbpedia.org/property/industry
p217
aVhttp://www.w3.org/2000/01/rdf-schema#comment
p218
aVhttp://dbpedia.org/property/category
p219
aVhttp://dbpedia.org/ontology/abstract
p220
aVhttp://dbpedia.org/ontology/wikiPageRedirects
p221
aVhttp://dbpedia.org/ontology/service
p222
aVhttp://dbpedia.org/ontology/keyPerson
p223
aVhttp://dbpedia.org/property/fields
p224
aVhttp://dbpedia.org/property/products
p225
aVhttp://dbpedia.org/property/services
p226
aVhttp://dbpedia.org/ontology/field
p227
aVhttp://dbpedia.org/ontology/industry
p228
aVhttp://dbpedia.org/ontology/product
p229
asI3
(lp230
ssI2
(dp231
I0
g211
sI1
g215
sI2
(lp232
sI3
(lp233
ssI3
(dp234
I0
g212
sI1
g230
sI2
g233
sI3
(lp235
ssa(dp236
I0
(dp237
I0
(lp238
sI1
(lp239
sI2
(lp240
sI3
(lp241
ssI1
(dp242
I0
g239
sI1
(lp243
sI2
(lp244
Vhttp://dbpedia.org/ontology/wikiPageExternalLink
p245
aVhttp://xmlns.com/foaf/0.1/primaryTopic
p246
aVhttp://purl.org/dc/terms/subject
p247
aVhttp://www.w3.org/2000/01/rdf-schema#comment
p248
aVhttp://dbpedia.org/ontology/abstract
p249
aVhttp://dbpedia.org/ontology/wikiPageRedirects
p250
aVhttp://www.w3.org/ns/prov#wasDerivedFrom
p251
aVhttp://dbpedia.org/property/products
p252
aVhttp://xmlns.com/foaf/0.1/isPrimaryTopicOf
p253
aVhttp://dbpedia.org/property/genre
p254
aVhttp://dbpedia.org/property/hasPhotoCollection
p255
aVhttp://www.w3.org/2000/01/rdf-schema#label
p256
aVhttp://dbpedia.org/ontology/product
p257
aVhttp://www.w3.org/2002/07/owl#sameAs
p258
asI3
(lp259
ssI2
(dp260
I0
g240
sI1
g244
sI2
(lp261
sI3
(lp262
ssI3
(dp263
I0
g241
sI1
g259
sI2
g262
sI3
(lp264
ssa(dp265
I0
(dp266
I0
(lp267
sI1
(lp268
sI2
(lp269
sI3
(lp270
ssI1
(dp271
I0
g268
sI1
(lp272
sI2
(lp273
Vhttp://dbpedia.org/ontology/abstract
p274
aVhttp://www.w3.org/2000/01/rdf-schema#comment
p275
asI3
(lp276
ssI2
(dp277
I0
g269
sI1
g273
sI2
(lp278
sI3
(lp279
ssI3
(dp280
I0
g270
sI1
g276
sI2
g279
sI3
(lp281
ssa(dp282
I0
(dp283
I0
(lp284
sI1
(lp285
sI2
(lp286
sI3
(lp287
ssI1
(dp288
I0
g285
sI1
(lp289
sI2
(lp290
sI3
(lp291
ssI2
(dp292
I0
g286
sI1
g290
sI2
(lp293
sI3
(lp294
ssI3
(dp295
I0
g287
sI1
g291
sI2
g294
sI3
(lp296
ssa(dp297
I0
(dp298
I0
(lp299
sI1
(lp300
sI2
(lp301
sI3
(lp302
ssI1
(dp303
I0
g300
sI1
(lp304
sI2
(lp305
sI3
(lp306
ssI2
(dp307
I0
g301
sI1
g305
sI2
(lp308
sI3
(lp309
ssI3
(dp310
I0
g302
sI1
g306
sI2
g309
sI3
(lp311
ssa(dp312
I0
(dp313
I0
(lp314
sI1
(lp315
sI2
(lp316
sI3
(lp317
ssI1
(dp318
I0
g315
sI1
(lp319
sI2
(lp320
Vhttp://dbpedia.org/ontology/abstract
p321
aVhttp://www.w3.org/2000/01/rdf-schema#comment
p322
asI3
(lp323
ssI2
(dp324
I0
g316
sI1
g320
sI2
(lp325
sI3
(lp326
ssI3
(dp327
I0
g317
sI1
g323
sI2
g326
sI3
(lp328
ssa(dp329
I0
(dp330
I0
(lp331
sI1
(lp332
sI2
(lp333
sI3
(lp334
ssI1
(dp335
I0
g332
sI1
(lp336
sI2
(lp337
sI3
(lp338
ssI2
(dp339
I0
g333
sI1
g337
sI2
(lp340
sI3
(lp341
ssI3
(dp342
I0
g334
sI1
g338
sI2
g341
sI3
(lp343
ssa(dp344
I0
(dp345
I0
(lp346
sI1
(lp347
sI2
(lp348
sI3
(lp349
ssI1
(dp350
I0
g347
sI1
(lp351
sI2
(lp352
sI3
(lp353
ssI2
(dp354
I0
g348
sI1
g352
sI2
(lp355
sI3
(lp356
Vhttp://dbpedia.org/ontology/abstract
p357
aVhttp://www.w3.org/2000/01/rdf-schema#comment
p358
assI3
(dp359
I0
g349
sI1
g353
sI2
g356
sI3
(lp360
ssa.