(lp1
(lp2
a(lp3
a(lp4
a(lp5
a(lp6
a(lp7
a(lp8
a(lp9
(dp10
Vstart
p11
I0
sS'classes'
p12
(lp13
Vhttp://www.w3.org/2002/07/owl#Thing
p14
aVhttp://dbpedia.org/ontology/Company
p15
aVhttp://www.ontologydesignpatterns.org/ont/dul/DUL.owl#Agent
p16
aVhttp://www.ontologydesignpatterns.org/ont/dul/DUL.owl#SocialPerson
p17
aVhttp://www.wikidata.org/entity/Q43229
p18
aVhttp://dbpedia.org/ontology/Agent
p19
aVhttp://dbpedia.org/ontology/Organisation
p20
aVhttp://schema.org/Organization
p21
aVhttp://umbel.org/umbel/rc/Business
p22
aVhttp://dbpedia.org/class/yago/Abstraction100002137
p23
aVhttp://dbpedia.org/class/yago/Company108058098
p24
aVhttp://dbpedia.org/class/yago/Group100031264
p25
aVhttp://dbpedia.org/class/yago/Institution108053576
p26
aVhttp://dbpedia.org/class/yago/Organization108008335
p27
aVhttp://dbpedia.org/class/yago/SocialGroup107950920
p28
aVhttp://dbpedia.org/class/yago/YagoLegalActorGeo
p29
aVhttp://dbpedia.org/class/yago/ChemicalCompaniesOfTheUnitedStates
p30
aVhttp://dbpedia.org/class/yago/CompaniesBasedInSt.Louis,Missouri
p31
aVhttp://dbpedia.org/class/yago/YagoPermanentlyLocatedEntity
p32
aVhttp://dbpedia.org/class/yago/YagoLegalActor
p33
aVhttp://dbpedia.org/class/yago/ResearchSupportCompanies
p34
asVdisambiguatedURL
p35
Vhttp://dbpedia.org/resource/Sigma-Aldrich
p36
sVnamedEntity
p37
Vsigma aldrich
p38
sVoffset
p39
I13
saa(lp40
a(lp41
a(lp42
a(lp43
a(lp44
(dp45
Vstart
p46
I0
sg12
(lp47
Vhttp://www.w3.org/2002/07/owl#Thing
p48
aVhttp://dbpedia.org/ontology/Company
p49
aVhttp://www.ontologydesignpatterns.org/ont/dul/DUL.owl#Agent
p50
aVhttp://www.ontologydesignpatterns.org/ont/dul/DUL.owl#SocialPerson
p51
aVhttp://www.wikidata.org/entity/Q43229
p52
aVhttp://dbpedia.org/ontology/Agent
p53
aVhttp://dbpedia.org/ontology/Organisation
p54
aVhttp://schema.org/Organization
p55
aVhttp://umbel.org/umbel/rc/Business
p56
aVhttp://umbel.org/umbel/rc/Organization
p57
asVdisambiguatedURL
p58
Vhttp://dbpedia.org/resource/Dell
p59
sVnamedEntity
p60
Vdell computer
p61
sVoffset
p62
I13
saa(lp63
a(lp64
a(lp65
(dp66
Vstart
p67
I0
sg12
(lp68
Vhttp://www.w3.org/2002/07/owl#Thing
p69
aVhttp://dbpedia.org/ontology/Company
p70
aVhttp://www.ontologydesignpatterns.org/ont/dul/DUL.owl#Agent
p71
aVhttp://www.ontologydesignpatterns.org/ont/dul/DUL.owl#SocialPerson
p72
aVhttp://www.wikidata.org/entity/Q43229
p73
aVhttp://dbpedia.org/ontology/Agent
p74
aVhttp://dbpedia.org/ontology/Organisation
p75
aVhttp://schema.org/Organization
p76
aVhttp://umbel.org/umbel/rc/Business
p77
aVhttp://umbel.org/umbel/rc/Organization
p78
aVhttp://dbpedia.org/class/yago/Abstraction100002137
p79
aVhttp://dbpedia.org/class/yago/Company108058098
p80
aVhttp://dbpedia.org/class/yago/Group100031264
p81
aVhttp://dbpedia.org/class/yago/Institution108053576
p82
aVhttp://dbpedia.org/class/yago/Organization108008335
p83
aVhttp://dbpedia.org/class/yago/SocialGroup107950920
p84
aVhttp://dbpedia.org/class/yago/YagoLegalActorGeo
p85
aVhttp://dbpedia.org/class/yago/CompaniesBasedInSanJose,California
p86
aVhttp://dbpedia.org/class/yago/CompaniesEstablishedIn1984
p87
aVhttp://dbpedia.org/class/yago/CompaniesListedOnNASDAQ
p88
aVhttp://dbpedia.org/class/yago/YagoPermanentlyLocatedEntity
p89
aVhttp://dbpedia.org/class/yago/MultinationalCompaniesHeadquarteredInTheUnitedStates
p90
aVhttp://dbpedia.org/class/yago/NetworkingCompaniesOfTheUnitedStates
p91
aVhttp://dbpedia.org/class/yago/NetworkingHardwareCompanies
p92
aVhttp://dbpedia.org/class/yago/YagoLegalActor
p93
aVhttp://dbpedia.org/class/yago/PubliclyTradedCompaniesOfTheUnitedStates
p94
asVdisambiguatedURL
p95
Vhttp://dbpedia.org/resource/Cisco_Systems
p96
sVnamedEntity
p97
Vcisco systems
p98
sVoffset
p99
I13
saa(lp100
a(lp101
a(lp102
a(lp103
a.