ccollections
defaultdict
p1
(c__builtin__
dict
p2
tRp3
I1
(dp4
I1
(lp5
Vhttp://dbpedia.org/ontology/wikiPageExternalLink
p6
aVhttp://xmlns.com/foaf/0.1/homepage
p7
aVhttp://dbpedia.org/property/website
p8
asI2
(lp9
ssI2
(dp10
I1
(lp11
Vhttp://dbpedia.org/ontology/country
p12
aVhttp://www.w3.org/1999/02/22-rdf-syntax-ns#type
p13
aVhttp://purl.org/dc/terms/subject
p14
aVhttp://www.w3.org/2000/01/rdf-schema#comment
p15
aVhttp://dbpedia.org/ontology/abstract
p16
aVhttp://dbpedia.org/property/country
p17
asI2
(lp18
Vhttp://dbpedia.org/ontology/abstract
p19
aVhttp://www.w3.org/1999/02/22-rdf-syntax-ns#type
p20
aVhttp://www.w3.org/2000/01/rdf-schema#comment
p21
assI3
(dp22
I1
(lp23
sI2
(lp24
ssI4
(dp25
I1
(lp26
Vhttp://dbpedia.org/ontology/wikiPageExternalLink
p27
aVhttp://xmlns.com/foaf/0.1/homepage
p28
aVhttp://dbpedia.org/property/website
p29
asI2
(lp30
ssI7
(dp31
I1
(lp32
sI2
(lp33
Vhttp://www.w3.org/ns/prov#wasDerivedFrom
p34
assI11
(dp35
I1
(lp36
Vhttp://dbpedia.org/property/country
p37
aVhttp://www.w3.org/1999/02/22-rdf-syntax-ns#type
p38
asI2
(lp39
ssI12
(dp40
I1
(lp41
Vhttp://dbpedia.org/ontology/wikiPageExternalLink
p42
aVhttp://dbpedia.org/property/country
p43
aVhttp://dbpedia.org/ontology/abstract
p44
asI2
(lp45
Vhttp://www.w3.org/ns/prov#wasDerivedFrom
p46
aVhttp://www.w3.org/2002/07/owl#sameAs
p47
assI19
(dp48
I1
(lp49
Vhttp://dbpedia.org/ontology/wikiPageExternalLink
p50
aVhttp://dbpedia.org/property/website
p51
aVhttp://www.w3.org/2000/01/rdf-schema#comment
p52
aVhttp://dbpedia.org/ontology/abstract
p53
aVhttp://dbpedia.org/property/country
p54
aVhttp://xmlns.com/foaf/0.1/homepage
p55
asI2
(lp56
ss.