ccollections
defaultdict
p1
(c__builtin__
dict
p2
tRp3
I0
(dp4
I1
(lp5
sI2
(lp6
ssI1
(dp7
I1
(lp8
Vhttp://dbpedia.org/property/currency
p9
aVhttp://dbpedia.org/property/broadcastArea
p10
aVhttp://dbpedia.org/ontology/currency
p11
aVhttp://dbpedia.org/property/membership
p12
aVhttp://dbpedia.org/property/place
p13
aVhttp://dbpedia.org/property/rd2t3Loc
p14
aVhttp://dbpedia.org/property/footnoteD
p15
aVhttp://dbpedia.org/property/rd1t7Loc
p16
aVhttp://dbpedia.org/ontology/regionServed
p17
aVhttp://dbpedia.org/ontology/country
p18
aVhttp://www.w3.org/1999/02/22-rdf-syntax-ns#type
p19
aVhttp://dbpedia.org/property/2rpt1Loc
p20
aVhttp://dbpedia.org/property/timeZone
p21
aVhttp://dbpedia.org/ontology/place
p22
aVhttp://dbpedia.org/property/text
p23
aVhttp://dbpedia.org/property/country
p24
aVhttp://dbpedia.org/property/areasAffected
p25
aVhttp://dbpedia.org/ontology/wikiPageExternalLink
p26
aVhttp://dbpedia.org/property/1rpt4Loc
p27
aVhttp://purl.org/dc/terms/subject
p28
aVhttp://dbpedia.org/ontology/abstract
p29
aVhttp://dbpedia.org/property/rd1t8Loc
p30
aVhttp://dbpedia.org/property/venue
p31
aVhttp://dbpedia.org/property/location
p32
aVhttp://dbpedia.org/property/rd3t2Loc
p33
aVhttp://dbpedia.org/property/timeZoneDst
p34
aVhttp://dbpedia.org/property/rd2t4Loc
p35
aVhttp://dbpedia.org/property/headquarters
p36
aVhttp://www.w3.org/2000/01/rdf-schema#comment
p37
aVhttp://dbpedia.org/ontology/timeZone
p38
aVhttp://dbpedia.org/property/countries
p39
aVhttp://www.w3.org/2004/02/skos/core#exactMatch
p40
aVhttp://dbpedia.org/property/stadium
p41
aVhttp://www.w3.org/2002/07/owl#sameAs
p42
aVhttp://dbpedia.org/ontology/headquarter
p43
asI2
(lp44
ssI2
(dp45
I1
(lp46
Vhttp://www.w3.org/2000/01/rdf-schema#seeAlso
p47
aVhttp://dbpedia.org/property/currency
p48
aVhttp://dbpedia.org/property/finish
p49
aVhttp://dbpedia.org/property/ground
p50
aVhttp://dbpedia.org/ontology/origin
p51
aVhttp://dbpedia.org/ontology/currency
p52
aVhttp://dbpedia.org/property/membership
p53
aVhttp://dbpedia.org/property/place
p54
aVhttp://dbpedia.org/property/locationOfDocument
p55
aVhttp://www.w3.org/2002/07/owl#differentFrom
p56
aVhttp://dbpedia.org/ontology/regionServed
p57
aVhttp://dbpedia.org/ontology/country
p58
aVhttp://www.w3.org/1999/02/22-rdf-syntax-ns#type
p59
aVhttp://dbpedia.org/property/rd2t5Loc
p60
aVhttp://dbpedia.org/property/locationCountry
p61
aVhttp://dbpedia.org/property/hostCity
p62
aVhttp://dbpedia.org/property/assembly
p63
aVhttp://dbpedia.org/ontology/ground
p64
aVhttp://dbpedia.org/property/text
p65
aVhttp://dbpedia.org/property/locationSigned
p66
aVhttp://dbpedia.org/property/country
p67
aVhttp://dbpedia.org/property/areaServed
p68
aVhttp://dbpedia.org/ontology/wikiPageExternalLink
p69
aVhttp://purl.org/dc/terms/subject
p70
aVhttp://dbpedia.org/property/origin
p71
aVhttp://dbpedia.org/property/rd2t2Loc
p72
aVhttp://dbpedia.org/ontology/abstract
p73
aVhttp://dbpedia.org/property/venue
p74
aVhttp://dbpedia.org/property/location
p75
aVhttp://dbpedia.org/ontology/locationCountry
p76
aVhttp://dbpedia.org/property/rd3t2Loc
p77
aVhttp://dbpedia.org/ontology/headquarter
p78
aVhttp://dbpedia.org/property/rd2t4Loc
p79
aVhttp://dbpedia.org/property/nationalOrigin
p80
aVhttp://dbpedia.org/property/headquarters
p81
aVhttp://dbpedia.org/property/rd1t3Loc
p82
aVhttp://dbpedia.org/ontology/assembly
p83
aVhttp://dbpedia.org/ontology/location
p84
aVhttp://www.w3.org/2000/01/rdf-schema#comment
p85
aVhttp://dbpedia.org/ontology/timeZone
p86
aVhttp://dbpedia.org/property/countries
p87
aVhttp://dbpedia.org/property/successor
p88
aVhttp://dbpedia.org/ontology/hometown
p89
aVhttp://dbpedia.org/property/rd3t1Loc
p90
aVhttp://www.w3.org/2004/02/skos/core#exactMatch
p91
aVhttp://dbpedia.org/property/stadium
p92
aVhttp://dbpedia.org/ontology/successor
p93
aVhttp://dbpedia.org/property/host
p94
aVhttp://dbpedia.org/property/rd5t1Loc
p95
aVhttp://www.w3.org/2002/07/owl#sameAs
p96
aVhttp://dbpedia.org/property/rd4t1Loc
p97
asI2
(lp98
ssI3
(dp99
I1
(lp100
Vhttp://dbpedia.org/property/currency
p101
aVhttp://dbpedia.org/property/terminusB
p102
aVhttp://dbpedia.org/property/hostCity
p103
aVhttp://dbpedia.org/ontology/currency
p104
aVhttp://dbpedia.org/property/membership
p105
aVhttp://dbpedia.org/property/place
p106
aVhttp://dbpedia.org/property/footnoteC
p107
aVhttp://dbpedia.org/ontology/routeEnd
p108
aVhttp://dbpedia.org/ontology/regionServed
p109
aVhttp://dbpedia.org/ontology/country
p110
aVhttp://www.w3.org/1999/02/22-rdf-syntax-ns#type
p111
aVhttp://dbpedia.org/property/2rpt1Loc
p112
aVhttp://dbpedia.org/property/rd1t5Loc
p113
aVhttp://dbpedia.org/property/timeZone
p114
aVhttp://dbpedia.org/property/text
p115
aVhttp://dbpedia.org/property/office
p116
aVhttp://dbpedia.org/property/locationSigned
p117
aVhttp://dbpedia.org/property/country
p118
aVhttp://dbpedia.org/property/rd1t4Loc
p119
aVhttp://dbpedia.org/property/areaServed
p120
aVhttp://dbpedia.org/ontology/wikiPageExternalLink
p121
aVhttp://purl.org/dc/terms/subject
p122
aVhttp://dbpedia.org/property/rd2t2Loc
p123
aVhttp://dbpedia.org/ontology/abstract
p124
aVhttp://dbpedia.org/property/venue
p125
aVhttp://dbpedia.org/property/location
p126
aVhttp://dbpedia.org/property/timeZoneDst
p127
aVhttp://dbpedia.org/property/space
p128
aVhttp://dbpedia.org/property/rd1t6Loc
p129
aVhttp://dbpedia.org/property/rd2t1Loc
p130
aVhttp://dbpedia.org/property/1rpt3Loc
p131
aVhttp://dbpedia.org/property/headquarters
p132
aVhttp://dbpedia.org/ontology/location
p133
aVhttp://www.w3.org/2000/01/rdf-schema#comment
p134
aVhttp://dbpedia.org/ontology/timeZone
p135
aVhttp://dbpedia.org/property/countries
p136
aVhttp://dbpedia.org/property/rd1t1Loc
p137
aVhttp://www.w3.org/2004/02/skos/core#exactMatch
p138
aVhttp://dbpedia.org/property/stadium
p139
aVhttp://dbpedia.org/property/host
p140
aVhttp://www.w3.org/2002/07/owl#sameAs
p141
aVhttp://dbpedia.org/ontology/headquarter
p142
asI2
(lp143
ssI4
(dp144
I1
(lp145
Vhttp://www.w3.org/2000/01/rdf-schema#seeAlso
p146
aVhttp://dbpedia.org/property/currency
p147
aVhttp://dbpedia.org/property/finish
p148
aVhttp://dbpedia.org/property/broadcastArea
p149
aVhttp://dbpedia.org/ontology/origin
p150
aVhttp://dbpedia.org/ontology/currency
p151
aVhttp://dbpedia.org/property/membership
p152
aVhttp://dbpedia.org/property/place
p153
aVhttp://dbpedia.org/ontology/routeStart
p154
aVhttp://dbpedia.org/ontology/garrison
p155
aVhttp://dbpedia.org/property/footnoteA
p156
aVhttp://dbpedia.org/property/caption
p157
aVhttp://dbpedia.org/property/footnoteC
p158
aVhttp://dbpedia.org/ontology/fastestDriverCountry
p159
aVhttp://dbpedia.org/ontology/routeEnd
p160
aVhttp://dbpedia.org/ontology/populationPlace
p161
aVhttp://dbpedia.org/ontology/country
p162
aVhttp://www.w3.org/1999/02/22-rdf-syntax-ns#type
p163
aVhttp://dbpedia.org/property/shipBuilder
p164
aVhttp://dbpedia.org/property/locationCountry
p165
aVhttp://dbpedia.org/ontology/secondDriverCountry
p166
aVhttp://dbpedia.org/property/assembly
p167
aVhttp://dbpedia.org/property/site
p168
aVhttp://dbpedia.org/property/venue
p169
aVhttp://dbpedia.org/ontology/nationality
p170
aVhttp://dbpedia.org/property/nationalOrigin
p171
aVhttp://dbpedia.org/property/office
p172
aVhttp://dbpedia.org/property/text
p173
aVhttp://dbpedia.org/property/country
p174
aVhttp://dbpedia.org/ontology/regionServed
p175
aVhttp://dbpedia.org/property/areaServed
p176
aVhttp://dbpedia.org/property/areasAffected
p177
aVhttp://dbpedia.org/ontology/wikiPageExternalLink
p178
aVhttp://purl.org/dc/terms/subject
p179
aVhttp://dbpedia.org/ontology/campus
p180
aVhttp://dbpedia.org/property/origin
p181
aVhttp://dbpedia.org/property/nationality
p182
aVhttp://dbpedia.org/ontology/abstract
p183
aVhttp://dbpedia.org/ontology/recordedIn
p184
aVhttp://dbpedia.org/ontology/firstDriverCountry
p185
aVhttp://dbpedia.org/property/location
p186
aVhttp://dbpedia.org/ontology/builder
p187
aVhttp://dbpedia.org/ontology/headquarter
p188
aVhttp://dbpedia.org/ontology/city
p189
aVhttp://dbpedia.org/property/rd2t1Loc
p190
aVhttp://dbpedia.org/property/hostCity
p191
aVhttp://dbpedia.org/ontology/language
p192
aVhttp://dbpedia.org/property/headquarters
p193
aVhttp://dbpedia.org/ontology/territory
p194
aVhttp://dbpedia.org/ontology/assembly
p195
aVhttp://dbpedia.org/ontology/location
p196
aVhttp://www.w3.org/2000/01/rdf-schema#comment
p197
aVhttp://dbpedia.org/property/countries
p198
aVhttp://dbpedia.org/property/shipCountry
p199
aVhttp://dbpedia.org/ontology/locationCountry
p200
aVhttp://dbpedia.org/ontology/hometown
p201
aVhttp://www.w3.org/2004/02/skos/core#exactMatch
p202
aVhttp://dbpedia.org/ontology/poleDriverCountry
p203
aVhttp://dbpedia.org/property/stadium
p204
aVhttp://dbpedia.org/property/host
p205
aVhttp://dbpedia.org/property/garrison
p206
aVhttp://www.w3.org/2002/07/owl#sameAs
p207
asI2
(lp208
ssI5
(dp209
I1
(lp210
Vhttp://dbpedia.org/ontology/currency
p211
aVhttp://purl.org/dc/terms/subject
p212
aVhttp://dbpedia.org/property/currency
p213
asI2
(lp214
ssI6
(dp215
I1
(lp216
Vhttp://dbpedia.org/property/currency
p217
aVhttp://www.w3.org/1999/02/22-rdf-syntax-ns#type
p218
aVhttp://purl.org/dc/terms/subject
p219
aVhttp://www.w3.org/2000/01/rdf-schema#comment
p220
aVhttp://dbpedia.org/ontology/currency
p221
aVhttp://dbpedia.org/ontology/abstract
p222
aVhttp://dbpedia.org/property/establishedEvent
p223
asI2
(lp224
ssI7
(dp225
I1
(lp226
Vhttp://www.w3.org/2000/01/rdf-schema#seeAlso
p227
aVhttp://dbpedia.org/property/currency
p228
aVhttp://dbpedia.org/property/rd2t6Loc
p229
aVhttp://dbpedia.org/property/hostCity
p230
aVhttp://dbpedia.org/ontology/currency
p231
aVhttp://dbpedia.org/property/membership
p232
aVhttp://dbpedia.org/property/place
p233
aVhttp://dbpedia.org/property/debuts
p234
aVhttp://dbpedia.org/property/city
p235
aVhttp://dbpedia.org/ontology/garrison
p236
aVhttp://dbpedia.org/property/adminCenter
p237
aVhttp://dbpedia.org/property/rd2t3Loc
p238
aVhttp://dbpedia.org/property/footnoteD
p239
aVhttp://dbpedia.org/ontology/routeEnd
p240
aVhttp://dbpedia.org/ontology/regionServed
p241
aVhttp://dbpedia.org/ontology/country
p242
aVhttp://dbpedia.org/property/region
p243
aVhttp://www.w3.org/1999/02/22-rdf-syntax-ns#type
p244
aVhttp://dbpedia.org/property/locationCountry
p245
aVhttp://dbpedia.org/property/timeZone
p246
aVhttp://dbpedia.org/property/text
p247
aVhttp://dbpedia.org/property/office
p248
aVhttp://dbpedia.org/property/locationSigned
p249
aVhttp://dbpedia.org/property/country
p250
aVhttp://dbpedia.org/property/areaServed
p251
aVhttp://dbpedia.org/ontology/wikiPageExternalLink
p252
aVhttp://purl.org/dc/terms/subject
p253
aVhttp://dbpedia.org/ontology/abstract
p254
aVhttp://dbpedia.org/property/rd1t8Loc
p255
aVhttp://dbpedia.org/property/venue
p256
aVhttp://dbpedia.org/property/location
p257
aVhttp://dbpedia.org/property/headquarter
p258
aVhttp://dbpedia.org/ontology/locationCountry
p259
aVhttp://dbpedia.org/property/timeZoneDst
p260
aVhttp://dbpedia.org/property/rd2t4Loc
p261
aVhttp://dbpedia.org/ontology/city
p262
aVhttp://dbpedia.org/property/rd2t1Loc
p263
aVhttp://dbpedia.org/property/headquarters
p264
aVhttp://dbpedia.org/ontology/location
p265
aVhttp://www.w3.org/2000/01/rdf-schema#comment
p266
aVhttp://dbpedia.org/ontology/timeZone
p267
aVhttp://dbpedia.org/property/countries
p268
aVhttp://dbpedia.org/ontology/wikiPageRedirects
p269
aVhttp://dbpedia.org/property/seat
p270
aVhttp://dbpedia.org/property/rd2t5Loc
p271
aVhttp://www.w3.org/2004/02/skos/core#exactMatch
p272
aVhttp://dbpedia.org/property/stadium
p273
aVhttp://dbpedia.org/property/host
p274
aVhttp://dbpedia.org/property/garrison
p275
aVhttp://www.w3.org/2002/07/owl#sameAs
p276
aVhttp://dbpedia.org/ontology/headquarter
p277
asI2
(lp278
ssI8
(dp279
I1
(lp280
Vhttp://dbpedia.org/property/rd3t3Loc
p281
aVhttp://dbpedia.org/property/currency
p282
aVhttp://dbpedia.org/property/finish
p283
aVhttp://dbpedia.org/property/rd2t6Loc
p284
aVhttp://dbpedia.org/property/hostCity
p285
aVhttp://dbpedia.org/property/2rpt2Loc
p286
aVhttp://dbpedia.org/ontology/currency
p287
aVhttp://dbpedia.org/property/membership
p288
aVhttp://dbpedia.org/property/place
p289
aVhttp://dbpedia.org/property/footnoteA
p290
aVhttp://dbpedia.org/ontology/locatedInArea
p291
aVhttp://dbpedia.org/property/footnoteC
p292
aVhttp://dbpedia.org/ontology/regionServed
p293
aVhttp://dbpedia.org/ontology/country
p294
aVhttp://dbpedia.org/property/returns
p295
aVhttp://www.w3.org/1999/02/22-rdf-syntax-ns#type
p296
aVhttp://dbpedia.org/property/locationCountry
p297
aVhttp://dbpedia.org/property/withdraws
p298
aVhttp://dbpedia.org/property/timeZone
p299
aVhttp://dbpedia.org/ontology/place
p300
aVhttp://dbpedia.org/property/text
p301
aVhttp://dbpedia.org/property/country
p302
aVhttp://dbpedia.org/property/rd1t4Loc
p303
aVhttp://dbpedia.org/property/areaServed
p304
aVhttp://dbpedia.org/property/areasAffected
p305
aVhttp://dbpedia.org/ontology/wikiPageExternalLink
p306
aVhttp://purl.org/dc/terms/subject
p307
aVhttp://dbpedia.org/property/rd2t2Loc
p308
aVhttp://dbpedia.org/ontology/abstract
p309
aVhttp://dbpedia.org/property/venue
p310
aVhttp://dbpedia.org/property/location
p311
aVhttp://dbpedia.org/ontology/locationCountry
p312
aVhttp://dbpedia.org/property/timeZoneDst
p313
aVhttp://dbpedia.org/property/rd2t4Loc
p314
aVhttp://dbpedia.org/ontology/city
p315
aVhttp://dbpedia.org/property/rd2t1Loc
p316
aVhttp://dbpedia.org/property/nationalOrigin
p317
aVhttp://dbpedia.org/property/headquarters
p318
aVhttp://dbpedia.org/property/locale
p319
aVhttp://dbpedia.org/ontology/territory
p320
aVhttp://dbpedia.org/ontology/location
p321
aVhttp://www.w3.org/2000/01/rdf-schema#comment
p322
aVhttp://dbpedia.org/ontology/timeZone
p323
aVhttp://dbpedia.org/property/countries
p324
aVhttp://dbpedia.org/property/rd1t1Loc
p325
aVhttp://www.w3.org/2004/02/skos/core#exactMatch
p326
aVhttp://dbpedia.org/property/stadium
p327
aVhttp://dbpedia.org/property/host
p328
aVhttp://www.w3.org/2002/07/owl#sameAs
p329
aVhttp://dbpedia.org/ontology/headquarter
p330
asI2
(lp331
ssI9
(dp332
I1
(lp333
Vhttp://dbpedia.org/ontology/wikiPageExternalLink
p334
aVhttp://dbpedia.org/property/currency
p335
aVhttp://www.w3.org/1999/02/22-rdf-syntax-ns#type
p336
aVhttp://purl.org/dc/terms/subject
p337
aVhttp://www.w3.org/2000/01/rdf-schema#comment
p338
aVhttp://dbpedia.org/ontology/currency
p339
aVhttp://dbpedia.org/ontology/abstract
p340
aVhttp://dbpedia.org/property/altMap
p341
aVhttp://dbpedia.org/property/place
p342
aVhttp://dbpedia.org/ontology/wikiPageRedirects
p343
aVhttp://dbpedia.org/property/areaServed
p344
aVhttp://dbpedia.org/property/timeZone
p345
aVhttp://dbpedia.org/property/imageMap
p346
aVhttp://dbpedia.org/property/text
p347
aVhttp://dbpedia.org/property/timeZoneDst
p348
aVhttp://dbpedia.org/ontology/timeZone
p349
aVhttp://www.w3.org/2000/01/rdf-schema#seeAlso
p350
aVhttp://dbpedia.org/ontology/regionServed
p351
aVhttp://www.w3.org/2002/07/owl#sameAs
p352
aVhttp://dbpedia.org/ontology/country
p353
asI2
(lp354
ssI10
(dp355
I1
(lp356
Vhttp://www.w3.org/2000/01/rdf-schema#seeAlso
p357
aVhttp://dbpedia.org/property/currency
p358
aVhttp://dbpedia.org/property/rd2t6Loc
p359
aVhttp://dbpedia.org/property/hostCity
p360
aVhttp://dbpedia.org/property/2rpt2Loc
p361
aVhttp://dbpedia.org/ontology/currency
p362
aVhttp://dbpedia.org/property/membership
p363
aVhttp://dbpedia.org/property/place
p364
aVhttp://dbpedia.org/property/hostcity
p365
aVhttp://dbpedia.org/property/footnoteA
p366
aVhttp://dbpedia.org/property/rd2t3Loc
p367
aVhttp://dbpedia.org/ontology/regionServed
p368
aVhttp://dbpedia.org/ontology/country
p369
aVhttp://dbpedia.org/property/returns
p370
aVhttp://www.w3.org/1999/02/22-rdf-syntax-ns#type
p371
aVhttp://dbpedia.org/property/2rpt1Loc
p372
aVhttp://dbpedia.org/property/rd1t2Loc
p373
aVhttp://dbpedia.org/property/timeZone
p374
aVhttp://dbpedia.org/property/birthPlace
p375
aVhttp://dbpedia.org/property/placeOfBirth
p376
aVhttp://dbpedia.org/property/text
p377
aVhttp://dbpedia.org/property/country
p378
aVhttp://dbpedia.org/property/areaServed
p379
aVhttp://dbpedia.org/ontology/wikiPageExternalLink
p380
aVhttp://dbpedia.org/property/rd0t1Loc
p381
aVhttp://purl.org/dc/terms/subject
p382
aVhttp://dbpedia.org/property/origin
p383
aVhttp://dbpedia.org/property/rd2t2Loc
p384
aVhttp://dbpedia.org/ontology/abstract
p385
aVhttp://dbpedia.org/property/rd1t8Loc
p386
aVhttp://dbpedia.org/property/venue
p387
aVhttp://dbpedia.org/property/location
p388
aVhttp://dbpedia.org/property/rd3t2Loc
p389
aVhttp://dbpedia.org/property/timeZoneDst
p390
aVhttp://dbpedia.org/property/rd2t4Loc
p391
aVhttp://dbpedia.org/ontology/city
p392
aVhttp://dbpedia.org/property/rd2t1Loc
p393
aVhttp://dbpedia.org/property/headquarters
p394
aVhttp://dbpedia.org/property/rd1t3Loc
p395
aVhttp://dbpedia.org/ontology/location
p396
aVhttp://www.w3.org/2000/01/rdf-schema#comment
p397
aVhttp://dbpedia.org/ontology/timeZone
p398
aVhttp://dbpedia.org/ontology/birthPlace
p399
aVhttp://dbpedia.org/property/countries
p400
aVhttp://dbpedia.org/ontology/hometown
p401
aVhttp://dbpedia.org/property/rd3t1Loc
p402
aVhttp://www.w3.org/2004/02/skos/core#exactMatch
p403
aVhttp://dbpedia.org/property/stadium
p404
aVhttp://www.w3.org/2002/07/owl#sameAs
p405
aVhttp://dbpedia.org/ontology/headquarter
p406
asI2
(lp407
ssI11
(dp408
I1
(lp409
Vhttp://dbpedia.org/ontology/wikiPageExternalLink
p410
aVhttp://www.w3.org/1999/02/22-rdf-syntax-ns#type
p411
aVhttp://purl.org/dc/terms/subject
p412
aVhttp://www.w3.org/2000/01/rdf-schema#comment
p413
aVhttp://dbpedia.org/ontology/abstract
p414
aVhttp://www.w3.org/2004/02/skos/core#exactMatch
p415
asI2
(lp416
ssI12
(dp417
I1
(lp418
Vhttp://dbpedia.org/ontology/abstract
p419
asI2
(lp420
ssI13
(dp421
I1
(lp422
Vhttp://www.w3.org/2000/01/rdf-schema#seeAlso
p423
aVhttp://dbpedia.org/property/currency
p424
aVhttp://dbpedia.org/property/broadcastArea
p425
aVhttp://dbpedia.org/ontology/origin
p426
aVhttp://dbpedia.org/ontology/currency
p427
aVhttp://dbpedia.org/property/membership
p428
aVhttp://dbpedia.org/property/place
p429
aVhttp://dbpedia.org/property/city
p430
aVhttp://dbpedia.org/property/base
p431
aVhttp://dbpedia.org/property/placeOfDeath
p432
aVhttp://dbpedia.org/property/1rpt2Loc
p433
aVhttp://dbpedia.org/property/footnoteB
p434
aVhttp://dbpedia.org/property/footnoteD
p435
aVhttp://dbpedia.org/ontology/routeEnd
p436
aVhttp://dbpedia.org/property/label
p437
aVhttp://dbpedia.org/ontology/country
p438
aVhttp://www.w3.org/1999/02/22-rdf-syntax-ns#type
p439
aVhttp://dbpedia.org/ontology/beatifiedPlace
p440
aVhttp://dbpedia.org/property/2rpt1Loc
p441
aVhttp://dbpedia.org/property/rd3t3Loc
p442
aVhttp://dbpedia.org/property/rd2t5Loc
p443
aVhttp://dbpedia.org/property/rd2t3Loc
p444
aVhttp://dbpedia.org/property/hostCity
p445
aVhttp://dbpedia.org/property/locationCountry
p446
aVhttp://dbpedia.org/property/ground
p447
aVhttp://dbpedia.org/ontology/ground
p448
aVhttp://dbpedia.org/property/site
p449
aVhttp://dbpedia.org/property/timeZone
p450
aVhttp://dbpedia.org/ontology/deathPlace
p451
aVhttp://dbpedia.org/property/text
p452
aVhttp://dbpedia.org/property/nationalOrigin
p453
aVhttp://dbpedia.org/property/locationSigned
p454
aVhttp://dbpedia.org/property/country
p455
aVhttp://dbpedia.org/ontology/regionServed
p456
aVhttp://dbpedia.org/property/areaServed
p457
aVhttp://purl.org/dc/terms/subject
p458
aVhttp://dbpedia.org/property/origin
p459
aVhttp://dbpedia.org/property/rd2t2Loc
p460
aVhttp://dbpedia.org/ontology/abstract
p461
aVhttp://dbpedia.org/property/venue
p462
aVhttp://dbpedia.org/property/deathPlace
p463
aVhttp://dbpedia.org/property/location
p464
aVhttp://dbpedia.org/ontology/builder
p465
aVhttp://dbpedia.org/property/rd3t2Loc
p466
aVhttp://dbpedia.org/property/timeZoneDst
p467
aVhttp://dbpedia.org/ontology/city
p468
aVhttp://dbpedia.org/property/rd2t1Loc
p469
aVhttp://dbpedia.org/property/beatifiedPlace
p470
aVhttp://dbpedia.org/ontology/language
p471
aVhttp://dbpedia.org/property/headquarters
p472
aVhttp://dbpedia.org/ontology/territory
p473
aVhttp://dbpedia.org/ontology/location
p474
aVhttp://www.w3.org/2000/01/rdf-schema#comment
p475
aVhttp://dbpedia.org/ontology/timeZone
p476
aVhttp://dbpedia.org/ontology/birthPlace
p477
aVhttp://dbpedia.org/property/countries
p478
aVhttp://dbpedia.org/ontology/locationCountry
p479
aVhttp://dbpedia.org/property/rd1t1Loc
p480
aVhttp://dbpedia.org/ontology/hometown
p481
aVhttp://dbpedia.org/property/rd3t1Loc
p482
aVhttp://www.w3.org/2004/02/skos/core#exactMatch
p483
aVhttp://dbpedia.org/property/stadium
p484
aVhttp://dbpedia.org/property/rd4t2Loc
p485
aVhttp://dbpedia.org/property/host
p486
aVhttp://dbpedia.org/property/rd4t1Loc
p487
aVhttp://dbpedia.org/property/rd5t1Loc
p488
aVhttp://www.w3.org/2002/07/owl#sameAs
p489
aVhttp://dbpedia.org/ontology/headquarter
p490
asI2
(lp491
ssI14
(dp492
I1
(lp493
Vhttp://www.w3.org/2000/01/rdf-schema#seeAlso
p494
aVhttp://dbpedia.org/property/currency
p495
aVhttp://dbpedia.org/property/hostCity
p496
aVhttp://dbpedia.org/ontology/currency
p497
aVhttp://dbpedia.org/property/membership
p498
aVhttp://dbpedia.org/property/place
p499
aVhttp://dbpedia.org/property/1rpt2Loc
p500
aVhttp://dbpedia.org/property/rd2t3Loc
p501
aVhttp://dbpedia.org/property/rd1t7Loc
p502
aVhttp://dbpedia.org/ontology/regionServed
p503
aVhttp://dbpedia.org/ontology/country
p504
aVhttp://dbpedia.org/property/rd0t2Loc
p505
aVhttp://www.w3.org/1999/02/22-rdf-syntax-ns#type
p506
aVhttp://dbpedia.org/property/locationCountry
p507
aVhttp://dbpedia.org/property/rd1t2Loc
p508
aVhttp://dbpedia.org/property/withdraws
p509
aVhttp://dbpedia.org/property/timeZone
p510
aVhttp://dbpedia.org/ontology/place
p511
aVhttp://dbpedia.org/property/text
p512
aVhttp://dbpedia.org/property/rd1t4Loc
p513
aVhttp://dbpedia.org/property/rd0t1Loc
p514
aVhttp://purl.org/dc/terms/subject
p515
aVhttp://dbpedia.org/ontology/campus
p516
aVhttp://dbpedia.org/property/rd2t2Loc
p517
aVhttp://dbpedia.org/ontology/abstract
p518
aVhttp://dbpedia.org/property/venue
p519
aVhttp://dbpedia.org/property/location
p520
aVhttp://dbpedia.org/ontology/locationCountry
p521
aVhttp://dbpedia.org/property/timeZoneDst
p522
aVhttp://dbpedia.org/property/rd2t4Loc
p523
aVhttp://dbpedia.org/property/rd2t1Loc
p524
aVhttp://dbpedia.org/ontology/territory
p525
aVhttp://dbpedia.org/property/headquarters
p526
aVhttp://www.w3.org/2000/01/rdf-schema#comment
p527
aVhttp://dbpedia.org/ontology/timeZone
p528
aVhttp://dbpedia.org/property/countries
p529
aVhttp://www.w3.org/2004/02/skos/core#exactMatch
p530
aVhttp://dbpedia.org/property/stadium
p531
aVhttp://dbpedia.org/property/host
p532
aVhttp://www.w3.org/2002/07/owl#sameAs
p533
asI2
(lp534
ssI15
(dp535
I1
(lp536
Vhttp://dbpedia.org/ontology/wikiPageExternalLink
p537
aVhttp://dbpedia.org/property/currency
p538
aVhttp://www.w3.org/1999/02/22-rdf-syntax-ns#type
p539
aVhttp://www.w3.org/2000/01/rdf-schema#comment
p540
aVhttp://dbpedia.org/ontology/currency
p541
aVhttp://dbpedia.org/ontology/abstract
p542
aVhttp://dbpedia.org/property/countries
p543
aVhttp://dbpedia.org/property/timeZone
p544
aVhttp://dbpedia.org/ontology/locationCountry
p545
aVhttp://dbpedia.org/property/imageMap
p546
aVhttp://dbpedia.org/property/text
p547
aVhttp://dbpedia.org/property/timeZoneDst
p548
aVhttp://dbpedia.org/ontology/timeZone
p549
aVhttp://www.w3.org/2000/01/rdf-schema#seeAlso
p550
aVhttp://dbpedia.org/property/footnoteB
p551
aVhttp://www.w3.org/2002/07/owl#sameAs
p552
aVhttp://dbpedia.org/ontology/country
p553
asI2
(lp554
ssI16
(dp555
I1
(lp556
Vhttp://www.w3.org/1999/02/22-rdf-syntax-ns#type
p557
aVhttp://purl.org/dc/terms/subject
p558
aVhttp://www.w3.org/2000/01/rdf-schema#comment
p559
aVhttp://dbpedia.org/ontology/abstract
p560
aVhttp://www.w3.org/2004/02/skos/core#exactMatch
p561
aVhttp://www.w3.org/2002/07/owl#sameAs
p562
asI2
(lp563
ssI17
(dp564
I1
(lp565
Vhttp://www.w3.org/2000/01/rdf-schema#seeAlso
p566
aVhttp://dbpedia.org/property/currency
p567
aVhttp://dbpedia.org/property/broadcastArea
p568
aVhttp://dbpedia.org/ontology/currency
p569
aVhttp://dbpedia.org/property/membership
p570
aVhttp://dbpedia.org/property/place
p571
aVhttp://dbpedia.org/property/rd1t7Loc
p572
aVhttp://dbpedia.org/ontology/regionServed
p573
aVhttp://dbpedia.org/ontology/country
p574
aVhttp://www.w3.org/1999/02/22-rdf-syntax-ns#type
p575
aVhttp://dbpedia.org/property/hostCity
p576
aVhttp://dbpedia.org/property/rd1t2Loc
p577
aVhttp://dbpedia.org/property/timeZone
p578
aVhttp://dbpedia.org/ontology/place
p579
aVhttp://dbpedia.org/property/text
p580
aVhttp://dbpedia.org/property/country
p581
aVhttp://dbpedia.org/property/rd1t4Loc
p582
aVhttp://dbpedia.org/ontology/wikiPageExternalLink
p583
aVhttp://dbpedia.org/property/mapCaption
p584
aVhttp://purl.org/dc/terms/subject
p585
aVhttp://dbpedia.org/ontology/abstract
p586
aVhttp://dbpedia.org/property/rd1t8Loc
p587
aVhttp://dbpedia.org/property/venue
p588
aVhttp://dbpedia.org/property/location
p589
aVhttp://dbpedia.org/property/timeZoneDst
p590
aVhttp://dbpedia.org/property/rd2t4Loc
p591
aVhttp://dbpedia.org/property/rd1t6Loc
p592
aVhttp://dbpedia.org/property/headquarters
p593
aVhttp://dbpedia.org/ontology/location
p594
aVhttp://www.w3.org/2000/01/rdf-schema#comment
p595
aVhttp://dbpedia.org/ontology/timeZone
p596
aVhttp://dbpedia.org/property/rd0t4Loc
p597
aVhttp://dbpedia.org/property/rd0t3Loc
p598
aVhttp://www.w3.org/2004/02/skos/core#exactMatch
p599
aVhttp://dbpedia.org/property/stadium
p600
aVhttp://www.w3.org/2002/07/owl#sameAs
p601
asI2
(lp602
ssI18
(dp603
I1
(lp604
Vhttp://www.w3.org/2000/01/rdf-schema#seeAlso
p605
aVhttp://dbpedia.org/property/membership
p606
aVhttp://dbpedia.org/property/place
p607
aVhttp://dbpedia.org/property/locatorMap
p608
aVhttp://dbpedia.org/property/timezone1Dst
p609
aVhttp://dbpedia.org/property/rd2t3Loc
p610
aVhttp://dbpedia.org/property/rd1t7Loc
p611
aVhttp://dbpedia.org/ontology/regionServed
p612
aVhttp://dbpedia.org/ontology/country
p613
aVhttp://dbpedia.org/property/rd0t2Loc
p614
aVhttp://dbpedia.org/property/locationCountry
p615
aVhttp://dbpedia.org/property/rd1t2Loc
p616
aVhttp://dbpedia.org/property/withdraws
p617
aVhttp://dbpedia.org/property/returns
p618
aVhttp://dbpedia.org/property/country
p619
aVhttp://dbpedia.org/property/areaServed
p620
aVhttp://dbpedia.org/property/rd0t1Loc
p621
aVhttp://purl.org/dc/terms/subject
p622
aVhttp://dbpedia.org/ontology/abstract
p623
aVhttp://xmlns.com/foaf/0.1/depiction
p624
aVhttp://dbpedia.org/property/location
p625
aVhttp://dbpedia.org/ontology/locationCountry
p626
aVhttp://dbpedia.org/ontology/thumbnail
p627
aVhttp://dbpedia.org/property/rd1t6Loc
p628
aVhttp://dbpedia.org/property/rd2t1Loc
p629
aVhttp://dbpedia.org/property/headquarters
p630
aVhttp://dbpedia.org/ontology/location
p631
aVhttp://www.w3.org/2000/01/rdf-schema#comment
p632
aVhttp://dbpedia.org/property/countries
p633
aVhttp://dbpedia.org/property/rd0t4Loc
p634
aVhttp://dbpedia.org/property/rd0t3Loc
p635
aVhttp://www.w3.org/2004/02/skos/core#exactMatch
p636
aVhttp://dbpedia.org/property/stadium
p637
aVhttp://www.w3.org/2002/07/owl#sameAs
p638
aVhttp://dbpedia.org/ontology/headquarter
p639
asI2
(lp640
ssI19
(dp641
I1
(lp642
Vhttp://dbpedia.org/ontology/wikiPageExternalLink
p643
aVhttp://dbpedia.org/property/currency
p644
aVhttp://dbpedia.org/property/stadium
p645
aVhttp://www.w3.org/1999/02/22-rdf-syntax-ns#type
p646
aVhttp://purl.org/dc/terms/subject
p647
aVhttp://www.w3.org/2000/01/rdf-schema#comment
p648
aVhttp://dbpedia.org/ontology/timeZone
p649
aVhttp://dbpedia.org/ontology/abstract
p650
aVhttp://dbpedia.org/property/hostCity
p651
aVhttp://dbpedia.org/property/rd0t4Loc
p652
aVhttp://dbpedia.org/property/areaServed
p653
aVhttp://dbpedia.org/property/rd1t8Loc
p654
aVhttp://dbpedia.org/property/timeZone
p655
aVhttp://dbpedia.org/property/imageMap
p656
aVhttp://dbpedia.org/property/timeZoneDst
p657
aVhttp://dbpedia.org/property/text
p658
aVhttp://www.w3.org/2000/01/rdf-schema#seeAlso
p659
aVhttp://www.w3.org/2002/07/owl#sameAs
p660
aVhttp://dbpedia.org/ontology/regionServed
p661
asI2
(lp662
ss.