(lp1
(lp2
(lp3
a(lp4
((lp5
Vhttp://www.w3.org/2002/07/owl#Thing
p6
aVhttp://dbpedia.org/ontology/Place
p7
aVhttp://dbpedia.org/ontology/Location
p8
aVhttp://www.wikidata.org/entity/Q486972
p9
aVhttp://www.wikidata.org/entity/Q6256
p10
aVhttp://dbpedia.org/ontology/Country
p11
aVhttp://dbpedia.org/ontology/PopulatedPlace
p12
aVhttp://schema.org/Country
p13
aVhttp://schema.org/Place
p14
aVhttp://umbel.org/umbel/rc/Country
p15
aVhttp://umbel.org/umbel/rc/Location_Underspecified
p16
aVhttp://umbel.org/umbel/rc/PopulatedPlace
p17
aVhttp://dbpedia.org/class/yago/Abstraction100002137
p18
aVhttp://dbpedia.org/class/yago/AdministrativeDistrict108491826
p19
aVhttp://dbpedia.org/class/yago/AfricanCountries
p20
aVhttp://dbpedia.org/class/yago/AfricanUnionMemberEconomies
p21
aVhttp://dbpedia.org/class/yago/Country108544813
p22
aVhttp://dbpedia.org/class/yago/District108552138
p23
aVhttp://dbpedia.org/class/yago/Economy108366753
p24
aVhttp://dbpedia.org/class/yago/Group100031264
p25
aVhttp://dbpedia.org/class/yago/Location100027167
p26
aVhttp://dbpedia.org/class/yago/Object100002684
p27
aVhttp://dbpedia.org/class/yago/Region108630985
p28
aVhttp://dbpedia.org/class/yago/System108435388
p29
aVhttp://dbpedia.org/class/yago/YagoGeoEntity
p30
aVhttp://dbpedia.org/class/yago/YagoLegalActorGeo
p31
aVhttp://dbpedia.org/class/yago/CountriesBorderingTheAtlanticOcean
p32
aVhttp://dbpedia.org/class/yago/CountriesOfTheIndianOcean
p33
aVhttp://dbpedia.org/class/yago/English-speakingCountriesAndTerritories
p34
aVhttp://dbpedia.org/class/yago/PhysicalEntity100001930
p35
aVhttp://dbpedia.org/class/yago/YagoPermanentlyLocatedEntity
p36
aVhttp://dbpedia.org/class/yago/MemberStatesOfTheAfricanUnion
p37
aVhttp://dbpedia.org/class/yago/MemberStatesOfTheCommonwealthOfNations
p38
aVhttp://dbpedia.org/class/yago/MemberStatesOfTheUnitedNations
p39
aVhttp://dbpedia.org/class/yago/StatesAndTerritoriesEstablishedIn1910
p40
aVhttp://dbpedia.org/class/yago/WorldTradeOrganizationMemberEconomies
p41
aVhttp://dbpedia.org/resource/South_Africa
tp42
aa(lp43
((lp44
Vhttp://www.w3.org/2002/07/owl#Thing
p45
aVhttp://dbpedia.org/ontology/Place
p46
aVhttp://dbpedia.org/ontology/Location
p47
aVhttp://www.wikidata.org/entity/Q486972
p48
aVhttp://www.wikidata.org/entity/Q6256
p49
aVhttp://dbpedia.org/ontology/Country
p50
aVhttp://dbpedia.org/ontology/PopulatedPlace
p51
aVhttp://schema.org/Country
p52
aVhttp://schema.org/Place
p53
aVhttp://umbel.org/umbel/rc/Country
p54
aVhttp://umbel.org/umbel/rc/Location_Underspecified
p55
aVhttp://umbel.org/umbel/rc/PopulatedPlace
p56
aVhttp://dbpedia.org/class/yago/Abstraction100002137
p57
aVhttp://dbpedia.org/class/yago/AdministrativeDistrict108491826
p58
aVhttp://dbpedia.org/class/yago/AfricanCountries
p59
aVhttp://dbpedia.org/class/yago/AfricanUnionMemberEconomies
p60
aVhttp://dbpedia.org/class/yago/Country108544813
p61
aVhttp://dbpedia.org/class/yago/District108552138
p62
aVhttp://dbpedia.org/class/yago/Economy108366753
p63
aVhttp://dbpedia.org/class/yago/Group100031264
p64
aVhttp://dbpedia.org/class/yago/Location100027167
p65
aVhttp://dbpedia.org/class/yago/Object100002684
p66
aVhttp://dbpedia.org/class/yago/Region108630985
p67
aVhttp://dbpedia.org/class/yago/System108435388
p68
aVhttp://dbpedia.org/class/yago/YagoGeoEntity
p69
aVhttp://dbpedia.org/class/yago/YagoLegalActorGeo
p70
aVhttp://dbpedia.org/class/yago/CountriesBorderingTheAtlanticOcean
p71
aVhttp://dbpedia.org/class/yago/CountriesOfTheIndianOcean
p72
aVhttp://dbpedia.org/class/yago/English-speakingCountriesAndTerritories
p73
aVhttp://dbpedia.org/class/yago/PhysicalEntity100001930
p74
aVhttp://dbpedia.org/class/yago/YagoPermanentlyLocatedEntity
p75
aVhttp://dbpedia.org/class/yago/MemberStatesOfTheAfricanUnion
p76
aVhttp://dbpedia.org/class/yago/MemberStatesOfTheCommonwealthOfNations
p77
aVhttp://dbpedia.org/class/yago/MemberStatesOfTheUnitedNations
p78
aVhttp://dbpedia.org/class/yago/StatesAndTerritoriesEstablishedIn1910
p79
aVhttp://dbpedia.org/class/yago/WorldTradeOrganizationMemberEconomies
p80
aVhttp://dbpedia.org/resource/South_Africa
tp81
aa(lp82
((lVhttp://dbpedia.org/resource/Null
tp83
aa(lp84
aa(lp85
(lp86
a(lp87
((lp88
Vhttp://www.w3.org/2002/07/owl#Thing
p89
aVhttp://dbpedia.org/ontology/Place
p90
aVhttp://dbpedia.org/ontology/Location
p91
aVhttp://www.wikidata.org/entity/Q486972
p92
aVhttp://www.wikidata.org/entity/Q6256
p93
aVhttp://dbpedia.org/ontology/Country
p94
aVhttp://dbpedia.org/ontology/PopulatedPlace
p95
aVhttp://www.w3.org/2003/01/geo/wgs84_pos#SpatialThing
p96
aVhttp://schema.org/Country
p97
aVhttp://schema.org/Place
p98
aVhttp://umbel.org/umbel/rc/Country
p99
aVhttp://umbel.org/umbel/rc/Location_Underspecified
p100
aVhttp://umbel.org/umbel/rc/PopulatedPlace
p101
aVhttp://dbpedia.org/class/yago/Abstraction100002137
p102
aVhttp://dbpedia.org/class/yago/AdministrativeDistrict108491826
p103
aVhttp://dbpedia.org/class/yago/BicontinentalCountries
p104
aVhttp://dbpedia.org/class/yago/Country108544813
p105
aVhttp://dbpedia.org/class/yago/District108552138
p106
aVhttp://dbpedia.org/class/yago/Economy108366753
p107
aVhttp://dbpedia.org/class/yago/Group100031264
p108
aVhttp://dbpedia.org/class/yago/Location100027167
p109
aVhttp://dbpedia.org/class/yago/Object100002684
p110
aVhttp://dbpedia.org/class/yago/Region108630985
p111
aVhttp://dbpedia.org/class/yago/System108435388
p112
aVhttp://dbpedia.org/class/yago/YagoGeoEntity
p113
aVhttp://dbpedia.org/class/yago/YagoLegalActorGeo
p114
aVhttp://dbpedia.org/class/yago/CountriesBorderingTheAtlanticOcean
p115
aVhttp://dbpedia.org/class/yago/CountriesOfTheMediterraneanSea
p116
aVhttp://dbpedia.org/class/yago/EuropeanCountries
p117
aVhttp://dbpedia.org/class/yago/EuropeanUnionMemberEconomies
p118
aVhttp://dbpedia.org/class/yago/PhysicalEntity100001930
p119
aVhttp://dbpedia.org/class/yago/YagoPermanentlyLocatedEntity
p120
aVhttp://dbpedia.org/class/yago/MemberStatesOfNATO
p121
aVhttp://dbpedia.org/class/yago/MemberStatesOfTheEuropeanUnion
p122
aVhttp://dbpedia.org/class/yago/MemberStatesOfTheUnionForTheMediterranean
p123
aVhttp://dbpedia.org/class/yago/MemberStatesOfTheUnitedNations
p124
aVhttp://dbpedia.org/class/yago/Spanish-speakingCountries
p125
aVhttp://dbpedia.org/class/yago/WorldTradeOrganizationMemberEconomies
p126
aVhttp://dbpedia.org/resource/Spain
tp127
aa(lp128
a(lp129
((lVhttp://dbpedia.org/resource/Null
tp130
aa(lp131
((lVhttp://dbpedia.org/resource/Null
tp132
aaa(lp133
(lp134
a(lp135
((lp136
Vhttp://www.w3.org/2002/07/owl#Thing
p137
aVhttp://dbpedia.org/ontology/Place
p138
aVhttp://dbpedia.org/ontology/Location
p139
aVhttp://www.wikidata.org/entity/Q486972
p140
aVhttp://www.wikidata.org/entity/Q6256
p141
aVhttp://dbpedia.org/ontology/Country
p142
aVhttp://dbpedia.org/ontology/PopulatedPlace
p143
aVhttp://www.w3.org/2003/01/geo/wgs84_pos#SpatialThing
p144
aVhttp://schema.org/Country
p145
aVhttp://schema.org/Place
p146
aVhttp://umbel.org/umbel/rc/Country
p147
aVhttp://umbel.org/umbel/rc/Location_Underspecified
p148
aVhttp://umbel.org/umbel/rc/PopulatedPlace
p149
aVhttp://dbpedia.org/class/yago/Abstraction100002137
p150
aVhttp://dbpedia.org/class/yago/AdministrativeDistrict108491826
p151
aVhttp://dbpedia.org/class/yago/Country108544813
p152
aVhttp://dbpedia.org/class/yago/District108552138
p153
aVhttp://dbpedia.org/class/yago/Economy108366753
p154
aVhttp://dbpedia.org/class/yago/Group100031264
p155
aVhttp://dbpedia.org/class/yago/Location100027167
p156
aVhttp://dbpedia.org/class/yago/Object100002684
p157
aVhttp://dbpedia.org/class/yago/Region108630039
p158
aVhttp://dbpedia.org/class/yago/Region108630985
p159
aVhttp://dbpedia.org/class/yago/System108435388
p160
aVhttp://dbpedia.org/class/yago/YagoGeoEntity
p161
aVhttp://dbpedia.org/class/yago/YagoLegalActorGeo
p162
aVhttp://dbpedia.org/class/yago/DividedRegions
p163
aVhttp://dbpedia.org/class/yago/EuropeanCountries
p164
aVhttp://dbpedia.org/class/yago/EuropeanUnionMemberEconomies
p165
aVhttp://dbpedia.org/class/yago/French-speakingCountries
p166
aVhttp://dbpedia.org/class/yago/PhysicalEntity100001930
p167
aVhttp://dbpedia.org/class/yago/YagoPermanentlyLocatedEntity
p168
aVhttp://dbpedia.org/class/yago/German-speakingCountries
p169
aVhttp://dbpedia.org/class/yago/LandlockedCountries
p170
aVhttp://dbpedia.org/class/yago/MemberStatesOfLaFrancophonie
p171
aVhttp://dbpedia.org/class/yago/MemberStatesOfNATO
p172
aVhttp://dbpedia.org/class/yago/MemberStatesOfTheEuropeanUnion
p173
aVhttp://dbpedia.org/class/yago/MemberStatesOfTheUnionForTheMediterranean
p174
aVhttp://dbpedia.org/class/yago/MemberStatesOfTheUnitedNations
p175
aVhttp://dbpedia.org/class/yago/NUTS1StatisticalRegionsOfTheEuropeanUnion
p176
aVhttp://dbpedia.org/class/yago/NUTS2StatisticalRegionsOfTheEuropeanUnion
p177
aVhttp://dbpedia.org/class/yago/StatesAndTerritoriesEstablishedIn1815
p178
aVhttp://dbpedia.org/class/yago/StatesOfTheGermanConfederation
p179
aVhttp://dbpedia.org/resource/Luxembourg
tp180
aa(lp181
((lp182
Vhttp://www.w3.org/2002/07/owl#Thing
p183
aVhttp://dbpedia.org/ontology/Place
p184
aVhttp://dbpedia.org/ontology/Location
p185
aVhttp://www.wikidata.org/entity/Q486972
p186
aVhttp://www.wikidata.org/entity/Q6256
p187
aVhttp://dbpedia.org/ontology/Country
p188
aVhttp://dbpedia.org/ontology/PopulatedPlace
p189
aVhttp://www.w3.org/2003/01/geo/wgs84_pos#SpatialThing
p190
aVhttp://schema.org/Country
p191
aVhttp://schema.org/Place
p192
aVhttp://umbel.org/umbel/rc/Country
p193
aVhttp://umbel.org/umbel/rc/Location_Underspecified
p194
aVhttp://umbel.org/umbel/rc/PopulatedPlace
p195
aVhttp://dbpedia.org/class/yago/Abstraction100002137
p196
aVhttp://dbpedia.org/class/yago/AdministrativeDistrict108491826
p197
aVhttp://dbpedia.org/class/yago/Country108544813
p198
aVhttp://dbpedia.org/class/yago/District108552138
p199
aVhttp://dbpedia.org/class/yago/Economy108366753
p200
aVhttp://dbpedia.org/class/yago/Group100031264
p201
aVhttp://dbpedia.org/class/yago/Location100027167
p202
aVhttp://dbpedia.org/class/yago/Object100002684
p203
aVhttp://dbpedia.org/class/yago/Region108630039
p204
aVhttp://dbpedia.org/class/yago/Region108630985
p205
aVhttp://dbpedia.org/class/yago/System108435388
p206
aVhttp://dbpedia.org/class/yago/YagoGeoEntity
p207
aVhttp://dbpedia.org/class/yago/YagoLegalActorGeo
p208
aVhttp://dbpedia.org/class/yago/DividedRegions
p209
aVhttp://dbpedia.org/class/yago/EuropeanCountries
p210
aVhttp://dbpedia.org/class/yago/EuropeanUnionMemberEconomies
p211
aVhttp://dbpedia.org/class/yago/French-speakingCountries
p212
aVhttp://dbpedia.org/class/yago/PhysicalEntity100001930
p213
aVhttp://dbpedia.org/class/yago/YagoPermanentlyLocatedEntity
p214
aVhttp://dbpedia.org/class/yago/German-speakingCountries
p215
aVhttp://dbpedia.org/class/yago/LandlockedCountries
p216
aVhttp://dbpedia.org/class/yago/MemberStatesOfLaFrancophonie
p217
aVhttp://dbpedia.org/class/yago/MemberStatesOfNATO
p218
aVhttp://dbpedia.org/class/yago/MemberStatesOfTheEuropeanUnion
p219
aVhttp://dbpedia.org/class/yago/MemberStatesOfTheUnionForTheMediterranean
p220
aVhttp://dbpedia.org/class/yago/MemberStatesOfTheUnitedNations
p221
aVhttp://dbpedia.org/class/yago/NUTS1StatisticalRegionsOfTheEuropeanUnion
p222
aVhttp://dbpedia.org/class/yago/NUTS2StatisticalRegionsOfTheEuropeanUnion
p223
aVhttp://dbpedia.org/class/yago/StatesAndTerritoriesEstablishedIn1815
p224
aVhttp://dbpedia.org/class/yago/StatesOfTheGermanConfederation
p225
aVhttp://dbpedia.org/resource/Luxembourg
tp226
aa(lp227
((lVhttp://dbpedia.org/resource/Null
tp228
aa(lp229
((lp230
Vhttp://dbpedia.org/class/yago/Ability105616246
p231
aVhttp://dbpedia.org/class/yago/Abstraction100002137
p232
aVhttp://dbpedia.org/class/yago/Cognition100023271
p233
aVhttp://dbpedia.org/class/yago/LegendaryCreature109487022
p234
aVhttp://dbpedia.org/class/yago/Monster109491966
p235
aVhttp://dbpedia.org/class/yago/MythicalMonster109492123
p236
aVhttp://dbpedia.org/class/yago/Creativity105624700
p237
aVhttp://dbpedia.org/class/yago/ImaginaryBeing109483738
p238
aVhttp://dbpedia.org/class/yago/Imagination105625465
p239
aVhttp://dbpedia.org/class/yago/PsychologicalFeature100023100
p240
aVhttp://dbpedia.org/class/yago/GreekLegendaryCreatures
p241
aVhttp://dbpedia.org/class/yago/MythicalBeing109484664
p242
aVhttp://dbpedia.org/resource/Anemoi
tp243
aaa(lp244
(lp245
a(lp246
a(lp247
((lp248
Vhttp://www.w3.org/2002/07/owl#Thing
p249
aVhttp://dbpedia.org/ontology/Place
p250
aVhttp://dbpedia.org/ontology/Location
p251
aVhttp://www.wikidata.org/entity/Q486972
p252
aVhttp://www.wikidata.org/entity/Q6256
p253
aVhttp://dbpedia.org/ontology/Country
p254
aVhttp://dbpedia.org/ontology/PopulatedPlace
p255
aVhttp://www.w3.org/2003/01/geo/wgs84_pos#SpatialThing
p256
aVhttp://schema.org/Country
p257
aVhttp://schema.org/Place
p258
aVhttp://umbel.org/umbel/rc/Country
p259
aVhttp://umbel.org/umbel/rc/Location_Underspecified
p260
aVhttp://umbel.org/umbel/rc/PopulatedPlace
p261
aVhttp://dbpedia.org/class/yago/Abstraction100002137
p262
aVhttp://dbpedia.org/class/yago/AdministrativeDistrict108491826
p263
aVhttp://dbpedia.org/class/yago/Country108544813
p264
aVhttp://dbpedia.org/class/yago/District108552138
p265
aVhttp://dbpedia.org/class/yago/Economy108366753
p266
aVhttp://dbpedia.org/class/yago/Group100031264
p267
aVhttp://dbpedia.org/class/yago/Location100027167
p268
aVhttp://dbpedia.org/class/yago/Object100002684
p269
aVhttp://dbpedia.org/class/yago/Region108630985
p270
aVhttp://dbpedia.org/class/yago/System108435388
p271
aVhttp://dbpedia.org/class/yago/YagoGeoEntity
p272
aVhttp://dbpedia.org/class/yago/YagoLegalActorGeo
p273
aVhttp://dbpedia.org/class/yago/CountriesOfTheIndianOcean
p274
aVhttp://dbpedia.org/class/yago/FederalCountries
p275
aVhttp://dbpedia.org/class/yago/PhysicalEntity100001930
p276
aVhttp://dbpedia.org/class/yago/YagoPermanentlyLocatedEntity
p277
aVhttp://dbpedia.org/class/yago/MemberStatesOfTheCommonwealthOfNations
p278
aVhttp://dbpedia.org/class/yago/MemberStatesOfTheSouthAsianAssociationForRegionalCooperation
p279
aVhttp://dbpedia.org/class/yago/MemberStatesOfTheUnitedNations
p280
aVhttp://dbpedia.org/class/yago/SouthAsianCountries
p281
aVhttp://dbpedia.org/class/yago/StatesAndTerritoriesEstablishedIn1947
p282
aVhttp://dbpedia.org/class/yago/WorldTradeOrganizationMemberEconomies
p283
aVhttp://dbpedia.org/resource/India
tp284
aa(lp285
((lVhttp://dbpedia.org/resource/Null
tp286
aa(lp287
aa(lp288
(lp289
a(lp290
((lp291
Vhttp://www.w3.org/2002/07/owl#Thing
p292
aVhttp://umbel.org/umbel/rc/Country
p293
aVhttp://umbel.org/umbel/rc/Location_Underspecified
p294
aVhttp://umbel.org/umbel/rc/PopulatedPlace
p295
aVhttp://dbpedia.org/class/yago/Abstraction100002137
p296
aVhttp://dbpedia.org/class/yago/AdministrativeDistrict108491826
p297
aVhttp://dbpedia.org/class/yago/Country108544813
p298
aVhttp://dbpedia.org/class/yago/District108552138
p299
aVhttp://dbpedia.org/class/yago/Economy108366753
p300
aVhttp://dbpedia.org/class/yago/Group100031264
p301
aVhttp://dbpedia.org/class/yago/Location100027167
p302
aVhttp://dbpedia.org/class/yago/Object100002684
p303
aVhttp://dbpedia.org/class/yago/Region108630985
p304
aVhttp://dbpedia.org/class/yago/System108435388
p305
aVhttp://dbpedia.org/class/yago/YagoGeoEntity
p306
aVhttp://dbpedia.org/class/yago/YagoLegalActorGeo
p307
aVhttp://dbpedia.org/class/yago/CountriesBorderingTheArcticOcean
p308
aVhttp://dbpedia.org/class/yago/CountriesBorderingTheAtlanticOcean
p309
aVhttp://dbpedia.org/class/yago/EuropeanCountries
p310
aVhttp://dbpedia.org/class/yago/PhysicalEntity100001930
p311
aVhttp://dbpedia.org/class/yago/YagoPermanentlyLocatedEntity
p312
aVhttp://dbpedia.org/class/yago/MemberStatesOfNATO
p313
aVhttp://dbpedia.org/class/yago/MemberStatesOfTheUnitedNations
p314
aVhttp://dbpedia.org/class/yago/NordicCountries
p315
aVhttp://dbpedia.org/class/yago/StatesAndTerritoriesEstablishedIn1905
p316
aVhttp://dbpedia.org/class/yago/StatesAndTerritoriesEstablishedIn872
p317
aVhttp://dbpedia.org/class/yago/WorldTradeOrganizationMemberEconomies
p318
aVhttp://dbpedia.org/resource/Norway
tp319
aa(lp320
((lp321
Vhttp://dbpedia.org/class/yago/Aircraft102686568
p322
aVhttp://dbpedia.org/class/yago/Airship102692877
p323
aVhttp://dbpedia.org/class/yago/AirshipsOfItaly
p324
aVhttp://dbpedia.org/class/yago/Artifact100021939
p325
aVhttp://dbpedia.org/class/yago/Conveyance103100490
p326
aVhttp://dbpedia.org/class/yago/Craft103125870
p327
aVhttp://dbpedia.org/class/yago/Lighter-than-airCraft103666917
p328
aVhttp://dbpedia.org/class/yago/Object100002684
p329
aVhttp://dbpedia.org/class/yago/Vehicle104524313
p330
aVhttp://dbpedia.org/class/yago/Whole100003553
p331
aVhttp://dbpedia.org/class/yago/Instrumentality103575240
p332
aVhttp://dbpedia.org/class/yago/PhysicalEntity100001930
p333
aVhttp://dbpedia.org/class/yago/HydrogenAirships
p334
aVhttp://dbpedia.org/resource/Norge_(airship)
tp335
aa(lp336
((lp337
Vhttp://www.w3.org/2002/07/owl#Thing
p338
aVhttp://dbpedia.org/ontology/Place
p339
aVhttp://dbpedia.org/ontology/Location
p340
aVhttp://www.wikidata.org/entity/Q486972
p341
aVhttp://dbpedia.org/ontology/PopulatedPlace
p342
aVhttp://dbpedia.org/ontology/Settlement
p343
aVhttp://www.w3.org/2003/01/geo/wgs84_pos#SpatialThing
p344
aVhttp://schema.org/Place
p345
aVhttp://umbel.org/umbel/rc/Location_Underspecified
p346
aVhttp://umbel.org/umbel/rc/PopulatedPlace
p347
aVhttp://umbel.org/umbel/rc/Village
p348
aVhttp://dbpedia.org/class/yago/AdministrativeDistrict108491826
p349
aVhttp://dbpedia.org/class/yago/Area108497294
p350
aVhttp://dbpedia.org/class/yago/Capital108518505
p351
aVhttp://dbpedia.org/class/yago/CapitalsInEurope
p352
aVhttp://dbpedia.org/class/yago/Center108523483
p353
aVhttp://dbpedia.org/class/yago/City108524735
p354
aVhttp://dbpedia.org/class/yago/County108546183
p355
aVhttp://dbpedia.org/class/yago/District108552138
p356
aVhttp://dbpedia.org/class/yago/Location100027167
p357
aVhttp://dbpedia.org/class/yago/Object100002684
p358
aVhttp://dbpedia.org/class/yago/Region108630039
p359
aVhttp://dbpedia.org/class/yago/Region108630985
p360
aVhttp://dbpedia.org/class/yago/Seat108647945
p361
aVhttp://dbpedia.org/class/yago/Site108651247
p362
aVhttp://dbpedia.org/class/yago/Tract108673395
p363
aVhttp://dbpedia.org/class/yago/UrbanArea108675967
p364
aVhttp://dbpedia.org/class/yago/YagoGeoEntity
p365
aVhttp://dbpedia.org/class/yago/YagoLegalActorGeo
p366
aVhttp://dbpedia.org/class/yago/CitiesAndTownsInNorway
p367
aVhttp://dbpedia.org/class/yago/CountiesOfNorway
p368
aVhttp://dbpedia.org/class/yago/GeographicalArea108574314
p369
aVhttp://dbpedia.org/class/yago/Municipality108626283
p370
aVhttp://dbpedia.org/class/yago/PhysicalEntity100001930
p371
aVhttp://dbpedia.org/class/yago/YagoPermanentlyLocatedEntity
p372
aVhttp://dbpedia.org/class/yago/HostCitiesOfTheWinterOlympicGames
p373
aVhttp://dbpedia.org/class/yago/MunicipalitiesOfOslo
p374
aVhttp://dbpedia.org/class/yago/PopulatedCoastalPlacesInNorway
p375
aVhttp://dbpedia.org/class/yago/PopulatedPlacesEstablishedInThe11thCentury
p376
aVhttp://dbpedia.org/class/yago/PortCitiesAndTownsInNorway
p377
aVhttp://dbpedia.org/class/yago/PortCitiesAndTownsOfTheNorthSea
p378
aVhttp://dbpedia.org/class/yago/VikingAgePopulatedPlaces
p379
aVhttp://dbpedia.org/resource/Oslo
tp380
aa(lp381
aa(lp382
(lp383
a(lp384
((lp385
Vhttp://www.w3.org/2002/07/owl#Thing
p386
aVhttp://umbel.org/umbel/rc/Business
p387
aVhttp://umbel.org/umbel/rc/Organization
p388
aVhttp://dbpedia.org/resource/France_2
tp389
aa(lp390
((lp391
Vhttp://www.w3.org/2002/07/owl#Thing
p392
aVhttp://umbel.org/umbel/rc/Business
p393
aVhttp://umbel.org/umbel/rc/Organization
p394
aVhttp://dbpedia.org/resource/France_2
tp395
aa(lp396
((lp397
Vhttp://www.w3.org/2002/07/owl#Thing
p398
aVhttp://dbpedia.org/ontology/Place
p399
aVhttp://dbpedia.org/ontology/Location
p400
aVhttp://www.wikidata.org/entity/Q486972
p401
aVhttp://dbpedia.org/ontology/PopulatedPlace
p402
aVhttp://dbpedia.org/ontology/Settlement
p403
aVhttp://www.w3.org/2003/01/geo/wgs84_pos#SpatialThing
p404
aVhttp://schema.org/Place
p405
aVhttp://umbel.org/umbel/rc/Location_Underspecified
p406
aVhttp://umbel.org/umbel/rc/PopulatedPlace
p407
aVhttp://dbpedia.org/class/yago/AdministrativeDistrict108491826
p408
aVhttp://dbpedia.org/class/yago/Area108497294
p409
aVhttp://dbpedia.org/class/yago/Capital108518505
p410
aVhttp://dbpedia.org/class/yago/CapitalsInEurope
p411
aVhttp://dbpedia.org/class/yago/Center108523483
p412
aVhttp://dbpedia.org/class/yago/City108524735
p413
aVhttp://dbpedia.org/class/yago/District108552138
p414
aVhttp://dbpedia.org/class/yago/Location100027167
p415
aVhttp://dbpedia.org/class/yago/Object100002684
p416
aVhttp://dbpedia.org/class/yago/Region108630985
p417
aVhttp://dbpedia.org/class/yago/Seat108647945
p418
aVhttp://dbpedia.org/class/yago/Site108651247
p419
aVhttp://dbpedia.org/class/yago/Tract108673395
p420
aVhttp://dbpedia.org/class/yago/UrbanArea108675967
p421
aVhttp://dbpedia.org/class/yago/YagoGeoEntity
p422
aVhttp://dbpedia.org/class/yago/YagoLegalActorGeo
p423
aVhttp://dbpedia.org/class/yago/EuropeanCapitalsOfCulture
p424
aVhttp://dbpedia.org/class/yago/GeographicalArea108574314
p425
aVhttp://dbpedia.org/class/yago/Municipality108626283
p426
aVhttp://dbpedia.org/class/yago/PhysicalEntity100001930
p427
aVhttp://dbpedia.org/class/yago/YagoPermanentlyLocatedEntity
p428
aVhttp://dbpedia.org/class/yago/HostCitiesOfTheSummerOlympicGames
p429
aVhttp://dbpedia.org/class/yago/WorldHeritageSitesInFrance
p430
aVhttp://dbpedia.org/resource/Paris
tp431
aa(lp432
aa(lp433
(lp434
a(lp435
((lp436
Vhttp://www.w3.org/2002/07/owl#Thing
p437
aVhttp://dbpedia.org/ontology/Place
p438
aVhttp://dbpedia.org/ontology/Location
p439
aVhttp://www.wikidata.org/entity/Q486972
p440
aVhttp://www.wikidata.org/entity/Q6256
p441
aVhttp://dbpedia.org/ontology/Country
p442
aVhttp://dbpedia.org/ontology/PopulatedPlace
p443
aVhttp://www.w3.org/2003/01/geo/wgs84_pos#SpatialThing
p444
aVhttp://schema.org/Country
p445
aVhttp://schema.org/Place
p446
aVhttp://umbel.org/umbel/rc/Country
p447
aVhttp://umbel.org/umbel/rc/Location_Underspecified
p448
aVhttp://umbel.org/umbel/rc/PopulatedPlace
p449
aVhttp://dbpedia.org/class/yago/Abstraction100002137
p450
aVhttp://dbpedia.org/class/yago/AdministrativeDistrict108491826
p451
aVhttp://dbpedia.org/class/yago/BicontinentalCountries
p452
aVhttp://dbpedia.org/class/yago/Country108544813
p453
aVhttp://dbpedia.org/class/yago/District108552138
p454
aVhttp://dbpedia.org/class/yago/Economy108366753
p455
aVhttp://dbpedia.org/class/yago/Group100031264
p456
aVhttp://dbpedia.org/class/yago/Location100027167
p457
aVhttp://dbpedia.org/class/yago/Object100002684
p458
aVhttp://dbpedia.org/class/yago/Region108630985
p459
aVhttp://dbpedia.org/class/yago/System108435388
p460
aVhttp://dbpedia.org/class/yago/YagoGeoEntity
p461
aVhttp://dbpedia.org/class/yago/YagoLegalActorGeo
p462
aVhttp://dbpedia.org/class/yago/CountriesBorderingTheArcticOcean
p463
aVhttp://dbpedia.org/class/yago/CountriesBorderingTheAtlanticOcean
p464
aVhttp://dbpedia.org/class/yago/CountriesBorderingThePacificOcean
p465
aVhttp://dbpedia.org/class/yago/English-speakingCountriesAndTerritories
p466
aVhttp://dbpedia.org/class/yago/FederalCountries
p467
aVhttp://dbpedia.org/class/yago/PhysicalEntity100001930
p468
aVhttp://dbpedia.org/class/yago/YagoPermanentlyLocatedEntity
p469
aVhttp://dbpedia.org/class/yago/MemberStatesOfNATO
p470
aVhttp://dbpedia.org/class/yago/MemberStatesOfTheUnitedNations
p471
aVhttp://dbpedia.org/class/yago/NorthernAmericanCountries
p472
aVhttp://dbpedia.org/class/yago/StatesAndTerritoriesEstablishedIn1776
p473
aVhttp://dbpedia.org/class/yago/UnitedStates
p474
aVhttp://dbpedia.org/resource/United_States
tp475
aa(lp476
((lp477
Vhttp://www.w3.org/2002/07/owl#Thing
p478
aVhttp://dbpedia.org/ontology/Place
p479
aVhttp://dbpedia.org/ontology/Location
p480
aVhttp://www.wikidata.org/entity/Q486972
p481
aVhttp://www.wikidata.org/entity/Q6256
p482
aVhttp://dbpedia.org/ontology/Country
p483
aVhttp://dbpedia.org/ontology/PopulatedPlace
p484
aVhttp://www.w3.org/2003/01/geo/wgs84_pos#SpatialThing
p485
aVhttp://schema.org/Country
p486
aVhttp://schema.org/Place
p487
aVhttp://umbel.org/umbel/rc/Country
p488
aVhttp://umbel.org/umbel/rc/Location_Underspecified
p489
aVhttp://umbel.org/umbel/rc/PopulatedPlace
p490
aVhttp://dbpedia.org/class/yago/Abstraction100002137
p491
aVhttp://dbpedia.org/class/yago/AdministrativeDistrict108491826
p492
aVhttp://dbpedia.org/class/yago/BicontinentalCountries
p493
aVhttp://dbpedia.org/class/yago/Country108544813
p494
aVhttp://dbpedia.org/class/yago/District108552138
p495
aVhttp://dbpedia.org/class/yago/Economy108366753
p496
aVhttp://dbpedia.org/class/yago/Group100031264
p497
aVhttp://dbpedia.org/class/yago/Location100027167
p498
aVhttp://dbpedia.org/class/yago/Object100002684
p499
aVhttp://dbpedia.org/class/yago/Region108630985
p500
aVhttp://dbpedia.org/class/yago/System108435388
p501
aVhttp://dbpedia.org/class/yago/YagoGeoEntity
p502
aVhttp://dbpedia.org/class/yago/YagoLegalActorGeo
p503
aVhttp://dbpedia.org/class/yago/CountriesBorderingTheArcticOcean
p504
aVhttp://dbpedia.org/class/yago/CountriesBorderingTheAtlanticOcean
p505
aVhttp://dbpedia.org/class/yago/CountriesBorderingThePacificOcean
p506
aVhttp://dbpedia.org/class/yago/English-speakingCountriesAndTerritories
p507
aVhttp://dbpedia.org/class/yago/FederalCountries
p508
aVhttp://dbpedia.org/class/yago/PhysicalEntity100001930
p509
aVhttp://dbpedia.org/class/yago/YagoPermanentlyLocatedEntity
p510
aVhttp://dbpedia.org/class/yago/MemberStatesOfNATO
p511
aVhttp://dbpedia.org/class/yago/MemberStatesOfTheUnitedNations
p512
aVhttp://dbpedia.org/class/yago/NorthernAmericanCountries
p513
aVhttp://dbpedia.org/class/yago/StatesAndTerritoriesEstablishedIn1776
p514
aVhttp://dbpedia.org/class/yago/UnitedStates
p515
aVhttp://dbpedia.org/resource/United_States
tp516
aa(lp517
((lp518
Vhttp://www.w3.org/2002/07/owl#Thing
p519
aVhttp://dbpedia.org/ontology/Place
p520
aVhttp://dbpedia.org/ontology/Location
p521
aVhttp://www.wikidata.org/entity/Q486972
p522
aVhttp://dbpedia.org/ontology/PopulatedPlace
p523
aVhttp://dbpedia.org/ontology/Settlement
p524
aVhttp://www.w3.org/2003/01/geo/wgs84_pos#SpatialThing
p525
aVhttp://schema.org/Place
p526
aVhttp://umbel.org/umbel/rc/Location_Underspecified
p527
aVhttp://umbel.org/umbel/rc/PopulatedPlace
p528
aVhttp://umbel.org/umbel/rc/Village
p529
aVhttp://dbpedia.org/class/yago/AdministrativeDistrict108491826
p530
aVhttp://dbpedia.org/class/yago/Area108497294
p531
aVhttp://dbpedia.org/class/yago/Capital108518505
p532
aVhttp://dbpedia.org/class/yago/CapitalDistrictsAndTerritories
p533
aVhttp://dbpedia.org/class/yago/CapitalsInNorthAmerica
p534
aVhttp://dbpedia.org/class/yago/Center108523483
p535
aVhttp://dbpedia.org/class/yago/City108524735
p536
aVhttp://dbpedia.org/class/yago/Country108544813
p537
aVhttp://dbpedia.org/class/yago/District108552138
p538
aVhttp://dbpedia.org/class/yago/Location100027167
p539
aVhttp://dbpedia.org/class/yago/Object100002684
p540
aVhttp://dbpedia.org/class/yago/Region108630985
p541
aVhttp://dbpedia.org/class/yago/Seat108647945
p542
aVhttp://dbpedia.org/class/yago/Site108651247
p543
aVhttp://dbpedia.org/class/yago/Tract108673395
p544
aVhttp://dbpedia.org/class/yago/UrbanArea108675967
p545
aVhttp://dbpedia.org/class/yago/YagoGeoEntity
p546
aVhttp://dbpedia.org/class/yago/YagoLegalActorGeo
p547
aVhttp://dbpedia.org/class/yago/GeographicalArea108574314
p548
aVhttp://dbpedia.org/class/yago/Municipality108626283
p549
aVhttp://dbpedia.org/class/yago/PhysicalEntity100001930
p550
aVhttp://dbpedia.org/class/yago/YagoPermanentlyLocatedEntity
p551
aVhttp://dbpedia.org/class/yago/PlannedCapitals
p552
aVhttp://dbpedia.org/class/yago/PlannedCitiesInTheUnitedStates
p553
aVhttp://dbpedia.org/class/yago/PopulatedPlacesEstablishedIn1790
p554
aVhttp://dbpedia.org/class/yago/PopulatedPlacesInWashington,D.C.WithAfricanAmericanMajorityPopulations
p555
aVhttp://dbpedia.org/class/yago/PopulatedPlacesOnThePotomacRiver
p556
aVhttp://dbpedia.org/class/yago/StatesAndTerritoriesEstablishedIn1790
p557
aVhttp://dbpedia.org/resource/Washington,_D.C.
tp558
aa(lp559
aa(lp560
(lp561
a(lp562
((lp563
Vhttp://www.w3.org/2002/07/owl#Thing
p564
aVhttp://dbpedia.org/ontology/Place
p565
aVhttp://dbpedia.org/ontology/Location
p566
aVhttp://www.wikidata.org/entity/Q486972
p567
aVhttp://www.wikidata.org/entity/Q6256
p568
aVhttp://dbpedia.org/ontology/Country
p569
aVhttp://dbpedia.org/ontology/PopulatedPlace
p570
aVhttp://www.w3.org/2003/01/geo/wgs84_pos#SpatialThing
p571
aVhttp://schema.org/Country
p572
aVhttp://schema.org/Place
p573
aVhttp://umbel.org/umbel/rc/Country
p574
aVhttp://umbel.org/umbel/rc/Location_Underspecified
p575
aVhttp://umbel.org/umbel/rc/PopulatedPlace
p576
aVhttp://dbpedia.org/class/yago/Abstraction100002137
p577
aVhttp://dbpedia.org/class/yago/AdministrativeDistrict108491826
p578
aVhttp://dbpedia.org/class/yago/AlpineCountries
p579
aVhttp://dbpedia.org/class/yago/BicontinentalCountries
p580
aVhttp://dbpedia.org/class/yago/Country108544813
p581
aVhttp://dbpedia.org/class/yago/District108552138
p582
aVhttp://dbpedia.org/class/yago/Economy108366753
p583
aVhttp://dbpedia.org/class/yago/Group100031264
p584
aVhttp://dbpedia.org/class/yago/Location100027167
p585
aVhttp://dbpedia.org/class/yago/Object100002684
p586
aVhttp://dbpedia.org/class/yago/Region108630985
p587
aVhttp://dbpedia.org/class/yago/System108435388
p588
aVhttp://dbpedia.org/class/yago/YagoGeoEntity
p589
aVhttp://dbpedia.org/class/yago/YagoLegalActorGeo
p590
aVhttp://dbpedia.org/class/yago/CountriesOfTheMediterraneanSea
p591
aVhttp://dbpedia.org/class/yago/EuropeanCountries
p592
aVhttp://dbpedia.org/class/yago/EuropeanUnionMemberEconomies
p593
aVhttp://dbpedia.org/class/yago/PhysicalEntity100001930
p594
aVhttp://dbpedia.org/class/yago/YagoPermanentlyLocatedEntity
p595
aVhttp://dbpedia.org/class/yago/Italian-speakingCountries
p596
aVhttp://dbpedia.org/class/yago/MemberStatesOfNATO
p597
aVhttp://dbpedia.org/class/yago/MemberStatesOfTheCouncilOfEurope
p598
aVhttp://dbpedia.org/class/yago/MemberStatesOfTheEuropeanUnion
p599
aVhttp://dbpedia.org/class/yago/MemberStatesOfTheUnionForTheMediterranean
p600
aVhttp://dbpedia.org/class/yago/MemberStatesOfTheUnitedNations
p601
aVhttp://dbpedia.org/class/yago/StatesAndTerritoriesEstablishedIn1861
p602
aVhttp://dbpedia.org/resource/Italy
tp603
aa(lp604
((lp605
Vhttp://www.w3.org/2002/07/owl#Thing
p606
aVhttp://dbpedia.org/ontology/Place
p607
aVhttp://dbpedia.org/ontology/Location
p608
aVhttp://www.wikidata.org/entity/Q486972
p609
aVhttp://www.wikidata.org/entity/Q6256
p610
aVhttp://dbpedia.org/ontology/Country
p611
aVhttp://dbpedia.org/ontology/PopulatedPlace
p612
aVhttp://www.w3.org/2003/01/geo/wgs84_pos#SpatialThing
p613
aVhttp://schema.org/Country
p614
aVhttp://schema.org/Place
p615
aVhttp://umbel.org/umbel/rc/Country
p616
aVhttp://umbel.org/umbel/rc/Location_Underspecified
p617
aVhttp://umbel.org/umbel/rc/PopulatedPlace
p618
aVhttp://dbpedia.org/class/yago/Abstraction100002137
p619
aVhttp://dbpedia.org/class/yago/AdministrativeDistrict108491826
p620
aVhttp://dbpedia.org/class/yago/AlpineCountries
p621
aVhttp://dbpedia.org/class/yago/BicontinentalCountries
p622
aVhttp://dbpedia.org/class/yago/Country108544813
p623
aVhttp://dbpedia.org/class/yago/District108552138
p624
aVhttp://dbpedia.org/class/yago/Economy108366753
p625
aVhttp://dbpedia.org/class/yago/Group100031264
p626
aVhttp://dbpedia.org/class/yago/Location100027167
p627
aVhttp://dbpedia.org/class/yago/Object100002684
p628
aVhttp://dbpedia.org/class/yago/Region108630985
p629
aVhttp://dbpedia.org/class/yago/System108435388
p630
aVhttp://dbpedia.org/class/yago/YagoGeoEntity
p631
aVhttp://dbpedia.org/class/yago/YagoLegalActorGeo
p632
aVhttp://dbpedia.org/class/yago/CountriesOfTheMediterraneanSea
p633
aVhttp://dbpedia.org/class/yago/EuropeanCountries
p634
aVhttp://dbpedia.org/class/yago/EuropeanUnionMemberEconomies
p635
aVhttp://dbpedia.org/class/yago/PhysicalEntity100001930
p636
aVhttp://dbpedia.org/class/yago/YagoPermanentlyLocatedEntity
p637
aVhttp://dbpedia.org/class/yago/Italian-speakingCountries
p638
aVhttp://dbpedia.org/class/yago/MemberStatesOfNATO
p639
aVhttp://dbpedia.org/class/yago/MemberStatesOfTheCouncilOfEurope
p640
aVhttp://dbpedia.org/class/yago/MemberStatesOfTheEuropeanUnion
p641
aVhttp://dbpedia.org/class/yago/MemberStatesOfTheUnionForTheMediterranean
p642
aVhttp://dbpedia.org/class/yago/MemberStatesOfTheUnitedNations
p643
aVhttp://dbpedia.org/class/yago/StatesAndTerritoriesEstablishedIn1861
p644
aVhttp://dbpedia.org/resource/Italy
tp645
aa(lp646
a(lp647
aa(lp648
(lp649
a(lp650
((lp651
Vhttp://www.w3.org/2002/07/owl#Thing
p652
aVhttp://dbpedia.org/ontology/Place
p653
aVhttp://dbpedia.org/ontology/Location
p654
aVhttp://www.wikidata.org/entity/Q486972
p655
aVhttp://www.wikidata.org/entity/Q6256
p656
aVhttp://dbpedia.org/ontology/Country
p657
aVhttp://dbpedia.org/ontology/PopulatedPlace
p658
aVhttp://www.w3.org/2003/01/geo/wgs84_pos#SpatialThing
p659
aVhttp://schema.org/Country
p660
aVhttp://schema.org/Place
p661
aVhttp://umbel.org/umbel/rc/Country
p662
aVhttp://umbel.org/umbel/rc/Location_Underspecified
p663
aVhttp://umbel.org/umbel/rc/PopulatedPlace
p664
aVhttp://dbpedia.org/class/yago/Abstraction100002137
p665
aVhttp://dbpedia.org/class/yago/AdministrativeDistrict108491826
p666
aVhttp://dbpedia.org/class/yago/Country108544813
p667
aVhttp://dbpedia.org/class/yago/District108552138
p668
aVhttp://dbpedia.org/class/yago/Economy108366753
p669
aVhttp://dbpedia.org/class/yago/Group100031264
p670
aVhttp://dbpedia.org/class/yago/Location100027167
p671
aVhttp://dbpedia.org/class/yago/Object100002684
p672
aVhttp://dbpedia.org/class/yago/Region108630985
p673
aVhttp://dbpedia.org/class/yago/System108435388
p674
aVhttp://dbpedia.org/class/yago/YagoGeoEntity
p675
aVhttp://dbpedia.org/class/yago/YagoLegalActorGeo
p676
aVhttp://dbpedia.org/class/yago/CountriesBorderingTheAtlanticOcean
p677
aVhttp://dbpedia.org/class/yago/Dutch-speakingCountries
p678
aVhttp://dbpedia.org/class/yago/EuropeanCountries
p679
aVhttp://dbpedia.org/class/yago/EuropeanUnionMemberEconomies
p680
aVhttp://dbpedia.org/class/yago/FederalCountries
p681
aVhttp://dbpedia.org/class/yago/French-speakingCountries
p682
aVhttp://dbpedia.org/class/yago/PhysicalEntity100001930
p683
aVhttp://dbpedia.org/class/yago/YagoPermanentlyLocatedEntity
p684
aVhttp://dbpedia.org/class/yago/German-speakingCountries
p685
aVhttp://dbpedia.org/class/yago/MemberStatesOfLaFrancophonie
p686
aVhttp://dbpedia.org/class/yago/MemberStatesOfNATO
p687
aVhttp://dbpedia.org/class/yago/MemberStatesOfTheCouncilOfEurope
p688
aVhttp://dbpedia.org/class/yago/MemberStatesOfTheDutchLanguageUnion
p689
aVhttp://dbpedia.org/class/yago/MemberStatesOfTheEuropeanUnion
p690
aVhttp://dbpedia.org/class/yago/MemberStatesOfTheUnionForTheMediterranean
p691
aVhttp://dbpedia.org/class/yago/MemberStatesOfTheUnitedNations
p692
aVhttp://dbpedia.org/class/yago/StatesAndTerritoriesEstablishedIn1830
p693
aVhttp://dbpedia.org/resource/Belgium
p694
tp695
aa(lp696
a(lp697
a(lp698
aa.