(lp1
(lp2
(lp3
a(lp4
Vhttp://dbpedia.org/resource/Arctic_Slope_Regional_Corporation
p5
aa(lp6
Vhttp://dbpedia.org/resource/P$C
p7
aa(lp8
a(lp9
a(lp10
aa(lp11
(lp12
a(lp13
Vhttp://dbpedia.org/resource/O'Neal_Steel
p14
aa(lp15
Vhttp://dbpedia.org/resource/Abraham_Lincoln
p16
aa(lp17
a(lp18
a(lp19
aa(lp20
(lp21
a(lp22
a(lp23
Vhttp://dbpedia.org/resource/Abraham_Lincoln
p24
aa(lp25
Vhttp://dbpedia.org/resource/Conglomerate
p26
aa(lp27
a(lp28
aa(lp29
(lp30
a(lp31
a(lp32
Vhttp://dbpedia.org/resource/Abraham_Lincoln
p33
aa(lp34
a(lp35
a(lp36
aa(lp37
(lp38
a(lp39
Vhttp://dbpedia.org/resource/Brasfield_&_Gorrie
p40
aa(lp41
Vhttp://dbpedia.org/resource/Abraham_Lincoln
p42
aa(lp43
Vhttp://dbpedia.org/resource/General_contractor
p44
aa(lp45
a(lp46
aa(lp47
(lp48
a(lp49
Vhttp://dbpedia.org/resource/Drummond,_Montana
p50
aa(lp51
Vhttp://dbpedia.org/resource/Abraham_Lincoln
p52
aa(lp53
a(lp54
a(lp55
aa(lp56
(lp57
a(lp58
Vhttp://dbpedia.org/resource/McWane
p59
aa(lp60
Vhttp://dbpedia.org/resource/Abraham_Lincoln
p61
aa(lp62
a(lp63
a(lp64
aa(lp65
(lp66
a(lp67
a(lp68
Vhttp://dbpedia.org/resource/Argentina
p69
aa(lp70
Vhttp://dbpedia.org/resource/Home_care
p71
aa(lp72
a(lp73
aa(lp74
(lp75
a(lp76
Vhttp://dbpedia.org/resource/Swift_Transportation
p77
aa(lp78
Vhttp://dbpedia.org/resource/AZ_(rapper)
p79
aa(lp80
a(lp81
a(lp82
aa(lp83
(lp84
a(lp85
a(lp86
Vhttp://dbpedia.org/resource/AZ_(rapper)
p87
aa(lp88
a(lp89
a(lp90
aa(lp91
(lp92
a(lp93
Vhttp://dbpedia.org/resource/Walmart
p94
aa(lp95
Vhttp://dbpedia.org/resource/AZ_(rapper)
p96
aa(lp97
a(lp98
a(lp99
aa(lp100
(lp101
a(lp102
Vhttp://dbpedia.org/resource/Bashas'
p103
aa(lp104
Vhttp://dbpedia.org/resource/AZ_(rapper)
p105
aa(lp106
Vhttp://dbpedia.org/resource/Grocery_store
p107
aa(lp108
a(lp109
aa(lp110
(lp111
a(lp112
Vhttp://dbpedia.org/resource/Hunt_Construction_Group
p113
aa(lp114
Vhttp://dbpedia.org/resource/AZ_(rapper)
p115
aa(lp116
Vhttp://dbpedia.org/resource/Henan_Jianye_F.C.
p117
aa(lp118
a(lp119
aa(lp120
(lp121
a(lp122
Vhttp://dbpedia.org/resource/Shamrock_Foods
p123
aa(lp124
Vhttp://dbpedia.org/resource/AZ_(rapper)
p125
aa(lp126
a(lp127
a(lp128
aa(lp129
(lp130
a(lp131
Vhttp://dbpedia.org/resource/Bechtel
p132
aa(lp133
a(lp134
Vhttp://dbpedia.org/resource/Henan_Jianye_F.C.
p135
aa(lp136
a(lp137
aa(lp138
(lp139
a(lp140
Vhttp://dbpedia.org/resource/Platinum_Equity
p141
aa(lp142
a(lp143
Vhttp://dbpedia.org/resource/Conglomerate
p144
aa(lp145
a(lp146
aa(lp147
(lp148
a(lp149
Vhttp://dbpedia.org/resource/Capital_Group_Companies
p150
aa(lp151
a(lp152
Vhttp://dbpedia.org/resource/Asset_management
p153
aa(lp154
a(lp155
aa(lp156
(lp157
a(lp158
Vhttp://dbpedia.org/resource/Hilton_Hotels_&_Resorts
p159
aa(lp160
a(lp161
Vhttp://dbpedia.org/resource/Lodging
p162
aa(lp163
a(lp164
aa(lp165
(lp166
a(lp167
a(lp168
a(lp169
Vhttp://dbpedia.org/resource/Crop
p170
aa(lp171
a(lp172
aa(lp173
(lp174
a(lp175
Vhttp://dbpedia.org/resource/Save_Mart_Supermarkets
p176
aa(lp177
a(lp178
Vhttp://dbpedia.org/resource/Grocery_store
p179
aa(lp180
a(lp181
aa.