(lp1
(lp2
(dp3
Vstart
p4
I0
sVdisambiguatedURL
p5
NsVnamedEntity
p6
V
sVoffset
p7
I0
saa(lp8
(dp9
Vstart
p10
I0
sVdisambiguatedURL
p11
NsVnamedEntity
p12
VAshley puntang in public from All About Ashley
p13
sVoffset
p14
I46
saa(lp15
(dp16
Vstart
p17
I0
sVdisambiguatedURL
p18
NsVnamedEntity
p19
VAsian beaver in a sexy cheong sam gives a fantastic blow...
p20
sVoffset
p21
I59
saa(lp22
(dp23
Vstart
p24
I0
sVdisambiguatedURL
p25
NsVnamedEntity
p26
VBig tit Far East slut gets fucked doggie before taking a...
p27
sVoffset
p28
I59
saa(lp29
(dp30
Vstart
p31
I0
sVdisambiguatedURL
p32
NsVnamedEntity
p33
VDirty Asian slut sucks and fucks from Oriental Orgy
p34
sVoffset
p35
I51
saa.