(lp1
(lp2
(dp3
Vstart
p4
I0
sS'classes'
p5
(lp6
Vhttp://www.w3.org/2002/07/owl#Thing
p7
aVhttp://dbpedia.org/ontology/Place
p8
aVhttp://dbpedia.org/ontology/Location
p9
aVhttp://www.wikidata.org/entity/Q3957
p10
aVhttp://www.wikidata.org/entity/Q486972
p11
aVhttp://dbpedia.org/ontology/PopulatedPlace
p12
aVhttp://dbpedia.org/ontology/Settlement
p13
aVhttp://dbpedia.org/ontology/Town
p14
aVhttp://www.w3.org/2003/01/geo/wgs84_pos#SpatialThing
p15
aVhttp://schema.org/Place
p16
aVhttp://umbel.org/umbel/rc/Town
p17
aVhttp://dbpedia.org/class/yago/AdministrativeDistrict108491826
p18
aVhttp://dbpedia.org/class/yago/Area108497294
p19
aVhttp://dbpedia.org/class/yago/Center108523483
p20
aVhttp://dbpedia.org/class/yago/District108552138
p21
aVhttp://dbpedia.org/class/yago/Location100027167
p22
aVhttp://dbpedia.org/class/yago/Object100002684
p23
aVhttp://dbpedia.org/class/yago/Region108630985
p24
aVhttp://dbpedia.org/class/yago/Seat108647945
p25
aVhttp://dbpedia.org/class/yago/Site108651247
p26
aVhttp://dbpedia.org/class/yago/Town108665504
p27
aVhttp://dbpedia.org/class/yago/Tract108673395
p28
aVhttp://dbpedia.org/class/yago/UrbanArea108675967
p29
aVhttp://dbpedia.org/class/yago/YagoGeoEntity
p30
aVhttp://dbpedia.org/class/yago/YagoLegalActorGeo
p31
aVhttp://dbpedia.org/class/yago/CountySeat108547143
p32
aVhttp://dbpedia.org/class/yago/CountySeatsInIndiana
p33
aVhttp://dbpedia.org/class/yago/GeographicalArea108574314
p34
aVhttp://dbpedia.org/class/yago/Municipality108626283
p35
aVhttp://dbpedia.org/class/yago/PhysicalEntity100001930
p36
aVhttp://dbpedia.org/class/yago/YagoPermanentlyLocatedEntity
p37
aVhttp://dbpedia.org/class/yago/PopulatedPlacesInCrawfordCounty,Indiana
p38
aVhttp://dbpedia.org/class/yago/TownsInIndiana
p39
asVdisambiguatedURL
p40
Vhttp://dbpedia.org/resource/English,_Indiana
p41
sVnamedEntity
p42
VEnglish
p43
sVoffset
p44
I7
saa(lp45
(dp46
Vstart
p47
I0
sg5
(lp48
Vhttp://www.w3.org/2002/07/owl#Thing
p49
aVhttp://dbpedia.org/ontology/Place
p50
aVhttp://dbpedia.org/ontology/Location
p51
aVhttp://www.wikidata.org/entity/Q3957
p52
aVhttp://www.wikidata.org/entity/Q486972
p53
aVhttp://dbpedia.org/ontology/PopulatedPlace
p54
aVhttp://dbpedia.org/ontology/Settlement
p55
aVhttp://dbpedia.org/ontology/Town
p56
aVhttp://www.w3.org/2003/01/geo/wgs84_pos#SpatialThing
p57
aVhttp://schema.org/Place
p58
aVhttp://umbel.org/umbel/rc/Town
p59
aVhttp://dbpedia.org/class/yago/AdministrativeDistrict108491826
p60
aVhttp://dbpedia.org/class/yago/Area108497294
p61
aVhttp://dbpedia.org/class/yago/Center108523483
p62
aVhttp://dbpedia.org/class/yago/District108552138
p63
aVhttp://dbpedia.org/class/yago/Location100027167
p64
aVhttp://dbpedia.org/class/yago/Object100002684
p65
aVhttp://dbpedia.org/class/yago/Region108630985
p66
aVhttp://dbpedia.org/class/yago/Seat108647945
p67
aVhttp://dbpedia.org/class/yago/Site108651247
p68
aVhttp://dbpedia.org/class/yago/Town108665504
p69
aVhttp://dbpedia.org/class/yago/Tract108673395
p70
aVhttp://dbpedia.org/class/yago/UrbanArea108675967
p71
aVhttp://dbpedia.org/class/yago/YagoGeoEntity
p72
aVhttp://dbpedia.org/class/yago/YagoLegalActorGeo
p73
aVhttp://dbpedia.org/class/yago/CountySeat108547143
p74
aVhttp://dbpedia.org/class/yago/CountySeatsInIndiana
p75
aVhttp://dbpedia.org/class/yago/GeographicalArea108574314
p76
aVhttp://dbpedia.org/class/yago/Municipality108626283
p77
aVhttp://dbpedia.org/class/yago/PhysicalEntity100001930
p78
aVhttp://dbpedia.org/class/yago/YagoPermanentlyLocatedEntity
p79
aVhttp://dbpedia.org/class/yago/PopulatedPlacesInCrawfordCounty,Indiana
p80
aVhttp://dbpedia.org/class/yago/TownsInIndiana
p81
asVdisambiguatedURL
p82
Vhttp://dbpedia.org/resource/English,_Indiana
p83
sVnamedEntity
p84
VEnglish
p85
sVoffset
p86
I7
saa(lp87
(dp88
Vstart
p89
I0
sg5
(lp90
Vhttp://www.w3.org/2002/07/owl#Thing
p91
aVhttp://dbpedia.org/ontology/Place
p92
aVhttp://dbpedia.org/ontology/Location
p93
aVhttp://www.wikidata.org/entity/Q3957
p94
aVhttp://www.wikidata.org/entity/Q486972
p95
aVhttp://dbpedia.org/ontology/PopulatedPlace
p96
aVhttp://dbpedia.org/ontology/Settlement
p97
aVhttp://dbpedia.org/ontology/Town
p98
aVhttp://www.w3.org/2003/01/geo/wgs84_pos#SpatialThing
p99
aVhttp://schema.org/Place
p100
aVhttp://umbel.org/umbel/rc/Town
p101
aVhttp://dbpedia.org/class/yago/AdministrativeDistrict108491826
p102
aVhttp://dbpedia.org/class/yago/Area108497294
p103
aVhttp://dbpedia.org/class/yago/Center108523483
p104
aVhttp://dbpedia.org/class/yago/District108552138
p105
aVhttp://dbpedia.org/class/yago/Location100027167
p106
aVhttp://dbpedia.org/class/yago/Object100002684
p107
aVhttp://dbpedia.org/class/yago/Region108630985
p108
aVhttp://dbpedia.org/class/yago/Seat108647945
p109
aVhttp://dbpedia.org/class/yago/Site108651247
p110
aVhttp://dbpedia.org/class/yago/Town108665504
p111
aVhttp://dbpedia.org/class/yago/Tract108673395
p112
aVhttp://dbpedia.org/class/yago/UrbanArea108675967
p113
aVhttp://dbpedia.org/class/yago/YagoGeoEntity
p114
aVhttp://dbpedia.org/class/yago/YagoLegalActorGeo
p115
aVhttp://dbpedia.org/class/yago/CountySeat108547143
p116
aVhttp://dbpedia.org/class/yago/CountySeatsInIndiana
p117
aVhttp://dbpedia.org/class/yago/GeographicalArea108574314
p118
aVhttp://dbpedia.org/class/yago/Municipality108626283
p119
aVhttp://dbpedia.org/class/yago/PhysicalEntity100001930
p120
aVhttp://dbpedia.org/class/yago/YagoPermanentlyLocatedEntity
p121
aVhttp://dbpedia.org/class/yago/PopulatedPlacesInCrawfordCounty,Indiana
p122
aVhttp://dbpedia.org/class/yago/TownsInIndiana
p123
asVdisambiguatedURL
p124
Vhttp://dbpedia.org/resource/English,_Indiana
p125
sVnamedEntity
p126
VEnglish
p127
sVoffset
p128
I7
saa(lp129
(dp130
Vstart
p131
I0
sg5
(lp132
Vhttp://www.w3.org/2002/07/owl#Thing
p133
aVhttp://dbpedia.org/ontology/Place
p134
aVhttp://dbpedia.org/ontology/Location
p135
aVhttp://www.wikidata.org/entity/Q4022
p136
aVhttp://www.wikidata.org/entity/Q47521
p137
aVhttp://dbpedia.org/ontology/BodyOfWater
p138
aVhttp://dbpedia.org/ontology/NaturalPlace
p139
aVhttp://dbpedia.org/ontology/River
p140
aVhttp://dbpedia.org/ontology/Stream
p141
aVhttp://schema.org/BodyOfWater
p142
aVhttp://schema.org/Place
p143
aVhttp://schema.org/RiverBodyOfWater
p144
aVhttp://umbel.org/umbel/rc/BodyOfWater
p145
aVhttp://umbel.org/umbel/rc/River
p146
aVhttp://umbel.org/umbel/rc/Stream
p147
aVhttp://dbpedia.org/class/yago/BodyOfWater109225146
p148
aVhttp://dbpedia.org/class/yago/Branch109228324
p149
aVhttp://dbpedia.org/class/yago/CanadianHeritageRivers
p150
aVhttp://dbpedia.org/class/yago/River109411430
p151
aVhttp://dbpedia.org/class/yago/Stream109448361
p152
aVhttp://dbpedia.org/class/yago/Thing100002452
p153
aVhttp://dbpedia.org/class/yago/YagoGeoEntity
p154
aVhttp://dbpedia.org/class/yago/Feeder109278997
p155
aVhttp://dbpedia.org/class/yago/PhysicalEntity100001930
p156
aVhttp://dbpedia.org/class/yago/YagoPermanentlyLocatedEntity
p157
aVhttp://dbpedia.org/class/yago/RiversOfOntario
p158
aVhttp://dbpedia.org/class/yago/TributariesOfLakeHuron
p159
asVdisambiguatedURL
p160
Vhttp://dbpedia.org/resource/French_River_(Ontario)
p161
sVnamedEntity
p162
VFrench
p163
sVoffset
p164
I6
saa(lp165
(dp166
Vstart
p167
I0
sg5
(lp168
Vhttp://www.w3.org/2002/07/owl#Thing
p169
aVhttp://dbpedia.org/ontology/Place
p170
aVhttp://dbpedia.org/ontology/Location
p171
aVhttp://www.wikidata.org/entity/Q4022
p172
aVhttp://www.wikidata.org/entity/Q47521
p173
aVhttp://dbpedia.org/ontology/BodyOfWater
p174
aVhttp://dbpedia.org/ontology/NaturalPlace
p175
aVhttp://dbpedia.org/ontology/River
p176
aVhttp://dbpedia.org/ontology/Stream
p177
aVhttp://schema.org/BodyOfWater
p178
aVhttp://schema.org/Place
p179
aVhttp://schema.org/RiverBodyOfWater
p180
aVhttp://umbel.org/umbel/rc/BodyOfWater
p181
aVhttp://umbel.org/umbel/rc/River
p182
aVhttp://umbel.org/umbel/rc/Stream
p183
aVhttp://dbpedia.org/class/yago/BodyOfWater109225146
p184
aVhttp://dbpedia.org/class/yago/Branch109228324
p185
aVhttp://dbpedia.org/class/yago/CanadianHeritageRivers
p186
aVhttp://dbpedia.org/class/yago/River109411430
p187
aVhttp://dbpedia.org/class/yago/Stream109448361
p188
aVhttp://dbpedia.org/class/yago/Thing100002452
p189
aVhttp://dbpedia.org/class/yago/YagoGeoEntity
p190
aVhttp://dbpedia.org/class/yago/Feeder109278997
p191
aVhttp://dbpedia.org/class/yago/PhysicalEntity100001930
p192
aVhttp://dbpedia.org/class/yago/YagoPermanentlyLocatedEntity
p193
aVhttp://dbpedia.org/class/yago/RiversOfOntario
p194
aVhttp://dbpedia.org/class/yago/TributariesOfLakeHuron
p195
asVdisambiguatedURL
p196
Vhttp://dbpedia.org/resource/French_River_(Ontario)
p197
sVnamedEntity
p198
VFrench
p199
sVoffset
p200
I6
saa(lp201
(dp202
Vstart
p203
I0
sg5
(lp204
Vhttp://www.w3.org/2002/07/owl#Thing
p205
aVhttp://dbpedia.org/ontology/Place
p206
aVhttp://dbpedia.org/ontology/Location
p207
aVhttp://www.wikidata.org/entity/Q486972
p208
aVhttp://www.wikidata.org/entity/Q6256
p209
aVhttp://dbpedia.org/ontology/Country
p210
aVhttp://dbpedia.org/ontology/PopulatedPlace
p211
aVhttp://www.w3.org/2003/01/geo/wgs84_pos#SpatialThing
p212
aVhttp://schema.org/Country
p213
aVhttp://schema.org/Place
p214
aVhttp://umbel.org/umbel/rc/Country
p215
aVhttp://umbel.org/umbel/rc/Location_Underspecified
p216
aVhttp://umbel.org/umbel/rc/PopulatedPlace
p217
aVhttp://dbpedia.org/class/yago/Abstraction100002137
p218
aVhttp://dbpedia.org/class/yago/AdministrativeDistrict108491826
p219
aVhttp://dbpedia.org/class/yago/AlpineCountries
p220
aVhttp://dbpedia.org/class/yago/Country108544813
p221
aVhttp://dbpedia.org/class/yago/District108552138
p222
aVhttp://dbpedia.org/class/yago/Economy108366753
p223
aVhttp://dbpedia.org/class/yago/Group100031264
p224
aVhttp://dbpedia.org/class/yago/Location100027167
p225
aVhttp://dbpedia.org/class/yago/Object100002684
p226
aVhttp://dbpedia.org/class/yago/Region108630985
p227
aVhttp://dbpedia.org/class/yago/System108435388
p228
aVhttp://dbpedia.org/class/yago/YagoGeoEntity
p229
aVhttp://dbpedia.org/class/yago/YagoLegalActorGeo
p230
aVhttp://dbpedia.org/class/yago/CountriesBorderingTheAtlanticOcean
p231
aVhttp://dbpedia.org/class/yago/CountriesBorderingTheBalticSea
p232
aVhttp://dbpedia.org/class/yago/EuropeanCountries
p233
aVhttp://dbpedia.org/class/yago/EuropeanUnionMemberEconomies
p234
aVhttp://dbpedia.org/class/yago/FederalCountries
p235
aVhttp://dbpedia.org/class/yago/PhysicalEntity100001930
p236
aVhttp://dbpedia.org/class/yago/YagoPermanentlyLocatedEntity
p237
aVhttp://dbpedia.org/class/yago/German-speakingCountries
p238
aVhttp://dbpedia.org/class/yago/MemberStatesOfNATO
p239
aVhttp://dbpedia.org/class/yago/MemberStatesOfTheEuropeanUnion
p240
aVhttp://dbpedia.org/class/yago/MemberStatesOfTheUnionForTheMediterranean
p241
aVhttp://dbpedia.org/class/yago/MemberStatesOfTheUnitedNations
p242
aVhttp://dbpedia.org/class/yago/StatesAndTerritoriesEstablishedIn1871
p243
asVdisambiguatedURL
p244
Vhttp://dbpedia.org/resource/Germany
p245
sVnamedEntity
p246
VGerman
p247
sVoffset
p248
I6
saa(lp249
(dp250
Vstart
p251
I0
sg5
(lp252
Vhttp://www.w3.org/2002/07/owl#Thing
p253
aVhttp://dbpedia.org/ontology/Place
p254
aVhttp://dbpedia.org/ontology/Location
p255
aVhttp://www.wikidata.org/entity/Q486972
p256
aVhttp://www.wikidata.org/entity/Q6256
p257
aVhttp://dbpedia.org/ontology/Country
p258
aVhttp://dbpedia.org/ontology/PopulatedPlace
p259
aVhttp://www.w3.org/2003/01/geo/wgs84_pos#SpatialThing
p260
aVhttp://schema.org/Country
p261
aVhttp://schema.org/Place
p262
aVhttp://umbel.org/umbel/rc/Country
p263
aVhttp://umbel.org/umbel/rc/Location_Underspecified
p264
aVhttp://umbel.org/umbel/rc/PopulatedPlace
p265
aVhttp://dbpedia.org/class/yago/Abstraction100002137
p266
aVhttp://dbpedia.org/class/yago/AdministrativeDistrict108491826
p267
aVhttp://dbpedia.org/class/yago/AlpineCountries
p268
aVhttp://dbpedia.org/class/yago/Country108544813
p269
aVhttp://dbpedia.org/class/yago/District108552138
p270
aVhttp://dbpedia.org/class/yago/Economy108366753
p271
aVhttp://dbpedia.org/class/yago/Group100031264
p272
aVhttp://dbpedia.org/class/yago/Location100027167
p273
aVhttp://dbpedia.org/class/yago/Object100002684
p274
aVhttp://dbpedia.org/class/yago/Region108630985
p275
aVhttp://dbpedia.org/class/yago/System108435388
p276
aVhttp://dbpedia.org/class/yago/YagoGeoEntity
p277
aVhttp://dbpedia.org/class/yago/YagoLegalActorGeo
p278
aVhttp://dbpedia.org/class/yago/CountriesBorderingTheAtlanticOcean
p279
aVhttp://dbpedia.org/class/yago/CountriesBorderingTheBalticSea
p280
aVhttp://dbpedia.org/class/yago/EuropeanCountries
p281
aVhttp://dbpedia.org/class/yago/EuropeanUnionMemberEconomies
p282
aVhttp://dbpedia.org/class/yago/FederalCountries
p283
aVhttp://dbpedia.org/class/yago/PhysicalEntity100001930
p284
aVhttp://dbpedia.org/class/yago/YagoPermanentlyLocatedEntity
p285
aVhttp://dbpedia.org/class/yago/German-speakingCountries
p286
aVhttp://dbpedia.org/class/yago/MemberStatesOfNATO
p287
aVhttp://dbpedia.org/class/yago/MemberStatesOfTheEuropeanUnion
p288
aVhttp://dbpedia.org/class/yago/MemberStatesOfTheUnionForTheMediterranean
p289
aVhttp://dbpedia.org/class/yago/MemberStatesOfTheUnitedNations
p290
aVhttp://dbpedia.org/class/yago/StatesAndTerritoriesEstablishedIn1871
p291
asVdisambiguatedURL
p292
Vhttp://dbpedia.org/resource/Germany
p293
sVnamedEntity
p294
VGerman
p295
sVoffset
p296
I6
saa(lp297
(dp298
Vstart
p299
I0
sg5
(lp300
Vhttp://www.w3.org/2002/07/owl#Thing
p301
aVhttp://dbpedia.org/ontology/Place
p302
aVhttp://dbpedia.org/ontology/Location
p303
aVhttp://www.wikidata.org/entity/Q486972
p304
aVhttp://www.wikidata.org/entity/Q6256
p305
aVhttp://dbpedia.org/ontology/Country
p306
aVhttp://dbpedia.org/ontology/PopulatedPlace
p307
aVhttp://www.w3.org/2003/01/geo/wgs84_pos#SpatialThing
p308
aVhttp://schema.org/Country
p309
aVhttp://schema.org/Place
p310
aVhttp://umbel.org/umbel/rc/Country
p311
aVhttp://umbel.org/umbel/rc/Location_Underspecified
p312
aVhttp://umbel.org/umbel/rc/PopulatedPlace
p313
aVhttp://dbpedia.org/class/yago/Abstraction100002137
p314
aVhttp://dbpedia.org/class/yago/AdministrativeDistrict108491826
p315
aVhttp://dbpedia.org/class/yago/AlpineCountries
p316
aVhttp://dbpedia.org/class/yago/Country108544813
p317
aVhttp://dbpedia.org/class/yago/District108552138
p318
aVhttp://dbpedia.org/class/yago/Economy108366753
p319
aVhttp://dbpedia.org/class/yago/Group100031264
p320
aVhttp://dbpedia.org/class/yago/Location100027167
p321
aVhttp://dbpedia.org/class/yago/Object100002684
p322
aVhttp://dbpedia.org/class/yago/Region108630985
p323
aVhttp://dbpedia.org/class/yago/System108435388
p324
aVhttp://dbpedia.org/class/yago/YagoGeoEntity
p325
aVhttp://dbpedia.org/class/yago/YagoLegalActorGeo
p326
aVhttp://dbpedia.org/class/yago/CountriesBorderingTheAtlanticOcean
p327
aVhttp://dbpedia.org/class/yago/CountriesBorderingTheBalticSea
p328
aVhttp://dbpedia.org/class/yago/EuropeanCountries
p329
aVhttp://dbpedia.org/class/yago/EuropeanUnionMemberEconomies
p330
aVhttp://dbpedia.org/class/yago/FederalCountries
p331
aVhttp://dbpedia.org/class/yago/PhysicalEntity100001930
p332
aVhttp://dbpedia.org/class/yago/YagoPermanentlyLocatedEntity
p333
aVhttp://dbpedia.org/class/yago/German-speakingCountries
p334
aVhttp://dbpedia.org/class/yago/MemberStatesOfNATO
p335
aVhttp://dbpedia.org/class/yago/MemberStatesOfTheEuropeanUnion
p336
aVhttp://dbpedia.org/class/yago/MemberStatesOfTheUnionForTheMediterranean
p337
aVhttp://dbpedia.org/class/yago/MemberStatesOfTheUnitedNations
p338
aVhttp://dbpedia.org/class/yago/StatesAndTerritoriesEstablishedIn1871
p339
asVdisambiguatedURL
p340
Vhttp://dbpedia.org/resource/Germany
p341
sVnamedEntity
p342
VGerman
p343
sVoffset
p344
I6
saa(lp345
(dp346
Vstart
p347
I0
sg5
(lp348
Vhttp://www.w3.org/2002/07/owl#Thing
p349
aVhttp://dbpedia.org/ontology/Place
p350
aVhttp://dbpedia.org/ontology/Location
p351
aVhttp://www.wikidata.org/entity/Q486972
p352
aVhttp://www.wikidata.org/entity/Q6256
p353
aVhttp://dbpedia.org/ontology/Country
p354
aVhttp://dbpedia.org/ontology/PopulatedPlace
p355
aVhttp://www.w3.org/2003/01/geo/wgs84_pos#SpatialThing
p356
aVhttp://schema.org/Country
p357
aVhttp://schema.org/Place
p358
aVhttp://umbel.org/umbel/rc/Country
p359
aVhttp://umbel.org/umbel/rc/Location_Underspecified
p360
aVhttp://umbel.org/umbel/rc/PopulatedPlace
p361
aVhttp://dbpedia.org/class/yago/Abstraction100002137
p362
aVhttp://dbpedia.org/class/yago/AdministrativeDistrict108491826
p363
aVhttp://dbpedia.org/class/yago/AlpineCountries
p364
aVhttp://dbpedia.org/class/yago/Country108544813
p365
aVhttp://dbpedia.org/class/yago/District108552138
p366
aVhttp://dbpedia.org/class/yago/Economy108366753
p367
aVhttp://dbpedia.org/class/yago/Group100031264
p368
aVhttp://dbpedia.org/class/yago/Location100027167
p369
aVhttp://dbpedia.org/class/yago/Object100002684
p370
aVhttp://dbpedia.org/class/yago/Region108630985
p371
aVhttp://dbpedia.org/class/yago/System108435388
p372
aVhttp://dbpedia.org/class/yago/YagoGeoEntity
p373
aVhttp://dbpedia.org/class/yago/YagoLegalActorGeo
p374
aVhttp://dbpedia.org/class/yago/CountriesBorderingTheAtlanticOcean
p375
aVhttp://dbpedia.org/class/yago/CountriesBorderingTheBalticSea
p376
aVhttp://dbpedia.org/class/yago/EuropeanCountries
p377
aVhttp://dbpedia.org/class/yago/EuropeanUnionMemberEconomies
p378
aVhttp://dbpedia.org/class/yago/FederalCountries
p379
aVhttp://dbpedia.org/class/yago/PhysicalEntity100001930
p380
aVhttp://dbpedia.org/class/yago/YagoPermanentlyLocatedEntity
p381
aVhttp://dbpedia.org/class/yago/German-speakingCountries
p382
aVhttp://dbpedia.org/class/yago/MemberStatesOfNATO
p383
aVhttp://dbpedia.org/class/yago/MemberStatesOfTheEuropeanUnion
p384
aVhttp://dbpedia.org/class/yago/MemberStatesOfTheUnionForTheMediterranean
p385
aVhttp://dbpedia.org/class/yago/MemberStatesOfTheUnitedNations
p386
aVhttp://dbpedia.org/class/yago/StatesAndTerritoriesEstablishedIn1871
p387
asVdisambiguatedURL
p388
Vhttp://dbpedia.org/resource/Germany
p389
sVnamedEntity
p390
VGerman
p391
sVoffset
p392
I6
saa(lp393
a(lp394
a(lp395
a.