(lp1
(lp2
(lp3
a(lp4
a(lp5
a(lp6
a(lp7
a(lp8
aa(lp9
(lp10
a(lp11
a(lp12
a(lp13
a(lp14
a(lp15
aa(lp16
(lp17
a(lp18
a(lp19
a(lp20
a(lp21
a(lp22
aa(lp23
(lp24
a(lp25
a(lp26
a(lp27
a(lp28
a(lp29
aa(lp30
(lp31
a(lp32
a(lp33
((lVhttp://dbpedia.org/resource/Null
tp34
aa(lp35
a(lp36
a(lp37
aa(lp38
(lp39
a(lp40
a(lp41
((lVhttp://dbpedia.org/resource/Null
tp42
aa(lp43
a(lp44
a(lp45
aa(lp46
(lp47
a(lp48
a(lp49
((lVhttp://dbpedia.org/resource/Null
tp50
aa(lp51
a(lp52
a(lp53
aa(lp54
(lp55
a(lp56
a(lp57
((lVhttp://dbpedia.org/resource/Null
tp58
aa(lp59
a(lp60
a(lp61
aa(lp62
(lp63
a(lp64
a(lp65
((lVhttp://dbpedia.org/resource/Null
tp66
aa(lp67
a(lp68
a(lp69
aa(lp70
(lp71
a(lp72
a(lp73
((lVhttp://dbpedia.org/resource/Null
tp74
aa(lp75
a(lp76
a(lp77
aa(lp78
(lp79
a(lp80
a(lp81
((lVhttp://dbpedia.org/resource/Null
p82
tp83
aa(lp84
a(lp85
a(lp86
aa(lp87
(lp88
a(lp89
a(lp90
a(lp91
a(lp92
a(lp93
aa(lp94
(lp95
a(lp96
a(lp97
a(lp98
a(lp99
a(lp100
aa(lp101
(lp102
a(lp103
a(lp104
a(lp105
a(lp106
a(lp107
aa(lp108
(lp109
a(lp110
a(lp111
a(lp112
a(lp113
a(lp114
aa(lp115
(lp116
a(lp117
a(lp118
a(lp119
a(lp120
a(lp121
aa(lp122
(lp123
a(lp124
a(lp125
a(lp126
a(lp127
a(lp128
aa(lp129
(lp130
a(lp131
a(lp132
a(lp133
a(lp134
a(lp135
aa(lp136
(lp137
a(lp138
a(lp139
a(lp140
a(lp141
a(lp142
aa(lp143
(lp144
a(lp145
a(lp146
a(lp147
a(lp148
a(lp149
aa.