(lp1
(lp2
(lp3
a(lp4
a(lp5
a(lp6
a(lp7
a(lp8
a(lp9
a(lp10
a(lp11
a(lp12
a(lp13
a(lp14
a(lp15
aa(lp16
(lp17
a(lp18
a(lp19
a(lp20
a(lp21
a(lp22
a(lp23
a(lp24
a(lp25
a(lp26
a(lp27
a(lp28
a(lp29
aa(lp30
(lp31
a(lp32
a(lp33
a(lp34
a(lp35
a(lp36
a(lp37
a(lp38
a(lp39
a(lp40
a(lp41
a(lp42
a(lp43
aa(lp44
(lp45
a(lp46
a(lp47
a(lp48
a(lp49
a(lp50
a(lp51
a(lp52
a(lp53
a(lp54
a(lp55
a(lp56
a(lp57
aa(lp58
(lp59
a(lp60
a(lp61
a(lp62
a(lp63
a(lp64
a(lp65
a(lp66
a(lp67
a(lp68
a(lp69
a(lp70
a(lp71
aa.