(lp1
(lp2
(lp3
a(lp4
a(lp5
aa(lp6
(lp7
((lVhttp://dbpedia.org/resource/Danish_(name)
tp8
aa(lp9
((lVhttp://dbpedia.org/resource/Danish_(name)
tp10
aa(lp11
aa(lp12
(lp13
((lp14
Vhttp://www.w3.org/2002/07/owl#Thing
p15
aVhttp://xmlns.com/foaf/0.1/Person
p16
aVhttp://dbpedia.org/ontology/Person
p17
aVhttp://www.ontologydesignpatterns.org/ont/dul/DUL.owl#Agent
p18
aVhttp://www.ontologydesignpatterns.org/ont/dul/DUL.owl#NaturalPerson
p19
aVhttp://www.wikidata.org/entity/Q215627
p20
aVhttp://www.wikidata.org/entity/Q5
p21
aVhttp://dbpedia.org/ontology/Agent
p22
aVhttp://dbpedia.org/ontology/Athlete
p23
aVhttp://dbpedia.org/ontology/PokerPlayer
p24
aVhttp://schema.org/Person
p25
aVhttp://umbel.org/umbel/rc/PersonWithOccupation
p26
aVhttp://dbpedia.org/class/yago/AmericanPokerPlayers
p27
aVhttp://dbpedia.org/class/yago/CausalAgent100007347
p28
aVhttp://dbpedia.org/class/yago/Contestant109613191
p29
aVhttp://dbpedia.org/class/yago/LivingThing100004258
p30
aVhttp://dbpedia.org/class/yago/Object100002684
p31
aVhttp://dbpedia.org/class/yago/Organism100004475
p32
aVhttp://dbpedia.org/class/yago/Person100007846
p33
aVhttp://dbpedia.org/class/yago/Player110439851
p34
aVhttp://dbpedia.org/class/yago/Whole100003553
p35
aVhttp://dbpedia.org/class/yago/YagoLegalActorGeo
p36
aVhttp://dbpedia.org/class/yago/PhysicalEntity100001930
p37
aVhttp://dbpedia.org/class/yago/LivingPeople
p38
aVhttp://dbpedia.org/class/yago/PeopleWithBipolarDisorder
p39
aVhttp://dbpedia.org/class/yago/YagoLegalActor
p40
aVhttp://dbpedia.org/resource/Dutch_Boyd
tp41
aa(lp42
((lp43
Vhttp://www.w3.org/2002/07/owl#Thing
p44
aVhttp://xmlns.com/foaf/0.1/Person
p45
aVhttp://dbpedia.org/ontology/Person
p46
aVhttp://www.ontologydesignpatterns.org/ont/dul/DUL.owl#Agent
p47
aVhttp://www.ontologydesignpatterns.org/ont/dul/DUL.owl#NaturalPerson
p48
aVhttp://www.wikidata.org/entity/Q215627
p49
aVhttp://www.wikidata.org/entity/Q5
p50
aVhttp://dbpedia.org/ontology/Agent
p51
aVhttp://dbpedia.org/ontology/Athlete
p52
aVhttp://dbpedia.org/ontology/PokerPlayer
p53
aVhttp://schema.org/Person
p54
aVhttp://umbel.org/umbel/rc/PersonWithOccupation
p55
aVhttp://dbpedia.org/class/yago/AmericanPokerPlayers
p56
aVhttp://dbpedia.org/class/yago/CausalAgent100007347
p57
aVhttp://dbpedia.org/class/yago/Contestant109613191
p58
aVhttp://dbpedia.org/class/yago/LivingThing100004258
p59
aVhttp://dbpedia.org/class/yago/Object100002684
p60
aVhttp://dbpedia.org/class/yago/Organism100004475
p61
aVhttp://dbpedia.org/class/yago/Person100007846
p62
aVhttp://dbpedia.org/class/yago/Player110439851
p63
aVhttp://dbpedia.org/class/yago/Whole100003553
p64
aVhttp://dbpedia.org/class/yago/YagoLegalActorGeo
p65
aVhttp://dbpedia.org/class/yago/PhysicalEntity100001930
p66
aVhttp://dbpedia.org/class/yago/LivingPeople
p67
aVhttp://dbpedia.org/class/yago/PeopleWithBipolarDisorder
p68
aVhttp://dbpedia.org/class/yago/YagoLegalActor
p69
aVhttp://dbpedia.org/resource/Dutch_Boyd
tp70
aa(lp71
aa(lp72
(lp73
((lVhttp://dbpedia.org/resource/Finnish_cuisine
tp74
aa(lp75
((lVhttp://dbpedia.org/resource/Finnish_cuisine
tp76
aa(lp77
aa(lp78
(lp79
((lp80
Vhttp://www.w3.org/2002/07/owl#Thing
p81
aVhttp://dbpedia.org/ontology/Place
p82
aVhttp://dbpedia.org/ontology/Location
p83
aVhttp://www.wikidata.org/entity/Q4022
p84
aVhttp://www.wikidata.org/entity/Q47521
p85
aVhttp://dbpedia.org/ontology/BodyOfWater
p86
aVhttp://dbpedia.org/ontology/NaturalPlace
p87
aVhttp://dbpedia.org/ontology/River
p88
aVhttp://dbpedia.org/ontology/Stream
p89
aVhttp://schema.org/BodyOfWater
p90
aVhttp://schema.org/Place
p91
aVhttp://schema.org/RiverBodyOfWater
p92
aVhttp://umbel.org/umbel/rc/BodyOfWater
p93
aVhttp://umbel.org/umbel/rc/River
p94
aVhttp://umbel.org/umbel/rc/Stream
p95
aVhttp://dbpedia.org/class/yago/BodyOfWater109225146
p96
aVhttp://dbpedia.org/class/yago/Branch109228324
p97
aVhttp://dbpedia.org/class/yago/CanadianHeritageRivers
p98
aVhttp://dbpedia.org/class/yago/River109411430
p99
aVhttp://dbpedia.org/class/yago/Stream109448361
p100
aVhttp://dbpedia.org/class/yago/Thing100002452
p101
aVhttp://dbpedia.org/class/yago/YagoGeoEntity
p102
aVhttp://dbpedia.org/class/yago/Feeder109278997
p103
aVhttp://dbpedia.org/class/yago/PhysicalEntity100001930
p104
aVhttp://dbpedia.org/class/yago/YagoPermanentlyLocatedEntity
p105
aVhttp://dbpedia.org/class/yago/RiversOfOntario
p106
aVhttp://dbpedia.org/class/yago/TributariesOfLakeHuron
p107
aVhttp://dbpedia.org/resource/French_River_(Ontario)
tp108
aa(lp109
((lp110
Vhttp://www.w3.org/2002/07/owl#Thing
p111
aVhttp://dbpedia.org/ontology/Place
p112
aVhttp://dbpedia.org/ontology/Location
p113
aVhttp://www.wikidata.org/entity/Q4022
p114
aVhttp://www.wikidata.org/entity/Q47521
p115
aVhttp://dbpedia.org/ontology/BodyOfWater
p116
aVhttp://dbpedia.org/ontology/NaturalPlace
p117
aVhttp://dbpedia.org/ontology/River
p118
aVhttp://dbpedia.org/ontology/Stream
p119
aVhttp://schema.org/BodyOfWater
p120
aVhttp://schema.org/Place
p121
aVhttp://schema.org/RiverBodyOfWater
p122
aVhttp://umbel.org/umbel/rc/BodyOfWater
p123
aVhttp://umbel.org/umbel/rc/River
p124
aVhttp://umbel.org/umbel/rc/Stream
p125
aVhttp://dbpedia.org/class/yago/BodyOfWater109225146
p126
aVhttp://dbpedia.org/class/yago/Branch109228324
p127
aVhttp://dbpedia.org/class/yago/CanadianHeritageRivers
p128
aVhttp://dbpedia.org/class/yago/River109411430
p129
aVhttp://dbpedia.org/class/yago/Stream109448361
p130
aVhttp://dbpedia.org/class/yago/Thing100002452
p131
aVhttp://dbpedia.org/class/yago/YagoGeoEntity
p132
aVhttp://dbpedia.org/class/yago/Feeder109278997
p133
aVhttp://dbpedia.org/class/yago/PhysicalEntity100001930
p134
aVhttp://dbpedia.org/class/yago/YagoPermanentlyLocatedEntity
p135
aVhttp://dbpedia.org/class/yago/RiversOfOntario
p136
aVhttp://dbpedia.org/class/yago/TributariesOfLakeHuron
p137
aVhttp://dbpedia.org/resource/French_River_(Ontario)
tp138
aa(lp139
aa(lp140
(lp141
((lp142
Vhttp://www.w3.org/2002/07/owl#Thing
p143
aVhttp://dbpedia.org/ontology/Place
p144
aVhttp://dbpedia.org/ontology/Location
p145
aVhttp://www.wikidata.org/entity/Q486972
p146
aVhttp://www.wikidata.org/entity/Q6256
p147
aVhttp://dbpedia.org/ontology/Country
p148
aVhttp://dbpedia.org/ontology/PopulatedPlace
p149
aVhttp://www.w3.org/2003/01/geo/wgs84_pos#SpatialThing
p150
aVhttp://schema.org/Country
p151
aVhttp://schema.org/Place
p152
aVhttp://umbel.org/umbel/rc/Country
p153
aVhttp://umbel.org/umbel/rc/Location_Underspecified
p154
aVhttp://umbel.org/umbel/rc/PopulatedPlace
p155
aVhttp://dbpedia.org/class/yago/Abstraction100002137
p156
aVhttp://dbpedia.org/class/yago/AdministrativeDistrict108491826
p157
aVhttp://dbpedia.org/class/yago/AlpineCountries
p158
aVhttp://dbpedia.org/class/yago/Country108544813
p159
aVhttp://dbpedia.org/class/yago/District108552138
p160
aVhttp://dbpedia.org/class/yago/Economy108366753
p161
aVhttp://dbpedia.org/class/yago/Group100031264
p162
aVhttp://dbpedia.org/class/yago/Location100027167
p163
aVhttp://dbpedia.org/class/yago/Object100002684
p164
aVhttp://dbpedia.org/class/yago/Region108630985
p165
aVhttp://dbpedia.org/class/yago/System108435388
p166
aVhttp://dbpedia.org/class/yago/YagoGeoEntity
p167
aVhttp://dbpedia.org/class/yago/YagoLegalActorGeo
p168
aVhttp://dbpedia.org/class/yago/CountriesBorderingTheAtlanticOcean
p169
aVhttp://dbpedia.org/class/yago/CountriesBorderingTheBalticSea
p170
aVhttp://dbpedia.org/class/yago/EuropeanCountries
p171
aVhttp://dbpedia.org/class/yago/EuropeanUnionMemberEconomies
p172
aVhttp://dbpedia.org/class/yago/FederalCountries
p173
aVhttp://dbpedia.org/class/yago/PhysicalEntity100001930
p174
aVhttp://dbpedia.org/class/yago/YagoPermanentlyLocatedEntity
p175
aVhttp://dbpedia.org/class/yago/German-speakingCountries
p176
aVhttp://dbpedia.org/class/yago/MemberStatesOfNATO
p177
aVhttp://dbpedia.org/class/yago/MemberStatesOfTheEuropeanUnion
p178
aVhttp://dbpedia.org/class/yago/MemberStatesOfTheUnionForTheMediterranean
p179
aVhttp://dbpedia.org/class/yago/MemberStatesOfTheUnitedNations
p180
aVhttp://dbpedia.org/class/yago/StatesAndTerritoriesEstablishedIn1871
p181
aVhttp://dbpedia.org/resource/Germany
tp182
aa(lp183
((lp184
Vhttp://www.w3.org/2002/07/owl#Thing
p185
aVhttp://dbpedia.org/ontology/Place
p186
aVhttp://dbpedia.org/ontology/Location
p187
aVhttp://www.wikidata.org/entity/Q486972
p188
aVhttp://www.wikidata.org/entity/Q6256
p189
aVhttp://dbpedia.org/ontology/Country
p190
aVhttp://dbpedia.org/ontology/PopulatedPlace
p191
aVhttp://www.w3.org/2003/01/geo/wgs84_pos#SpatialThing
p192
aVhttp://schema.org/Country
p193
aVhttp://schema.org/Place
p194
aVhttp://umbel.org/umbel/rc/Country
p195
aVhttp://umbel.org/umbel/rc/Location_Underspecified
p196
aVhttp://umbel.org/umbel/rc/PopulatedPlace
p197
aVhttp://dbpedia.org/class/yago/Abstraction100002137
p198
aVhttp://dbpedia.org/class/yago/AdministrativeDistrict108491826
p199
aVhttp://dbpedia.org/class/yago/AlpineCountries
p200
aVhttp://dbpedia.org/class/yago/Country108544813
p201
aVhttp://dbpedia.org/class/yago/District108552138
p202
aVhttp://dbpedia.org/class/yago/Economy108366753
p203
aVhttp://dbpedia.org/class/yago/Group100031264
p204
aVhttp://dbpedia.org/class/yago/Location100027167
p205
aVhttp://dbpedia.org/class/yago/Object100002684
p206
aVhttp://dbpedia.org/class/yago/Region108630985
p207
aVhttp://dbpedia.org/class/yago/System108435388
p208
aVhttp://dbpedia.org/class/yago/YagoGeoEntity
p209
aVhttp://dbpedia.org/class/yago/YagoLegalActorGeo
p210
aVhttp://dbpedia.org/class/yago/CountriesBorderingTheAtlanticOcean
p211
aVhttp://dbpedia.org/class/yago/CountriesBorderingTheBalticSea
p212
aVhttp://dbpedia.org/class/yago/EuropeanCountries
p213
aVhttp://dbpedia.org/class/yago/EuropeanUnionMemberEconomies
p214
aVhttp://dbpedia.org/class/yago/FederalCountries
p215
aVhttp://dbpedia.org/class/yago/PhysicalEntity100001930
p216
aVhttp://dbpedia.org/class/yago/YagoPermanentlyLocatedEntity
p217
aVhttp://dbpedia.org/class/yago/German-speakingCountries
p218
aVhttp://dbpedia.org/class/yago/MemberStatesOfNATO
p219
aVhttp://dbpedia.org/class/yago/MemberStatesOfTheEuropeanUnion
p220
aVhttp://dbpedia.org/class/yago/MemberStatesOfTheUnionForTheMediterranean
p221
aVhttp://dbpedia.org/class/yago/MemberStatesOfTheUnitedNations
p222
aVhttp://dbpedia.org/class/yago/StatesAndTerritoriesEstablishedIn1871
p223
aVhttp://dbpedia.org/resource/Germany
tp224
aa(lp225
aa(lp226
(lp227
((lVhttp://dbpedia.org/resource/Greek
tp228
aa(lp229
((lVhttp://dbpedia.org/resource/Greek
tp230
aa(lp231
((lVhttp://dbpedia.org/resource/Null
tp232
aaa(lp233
(lp234
((lp235
Vhttp://dbpedia.org/class/yago/BeltRegions
p236
aVhttp://dbpedia.org/class/yago/Location100027167
p237
aVhttp://dbpedia.org/class/yago/Object100002684
p238
aVhttp://dbpedia.org/class/yago/Region108630039
p239
aVhttp://dbpedia.org/class/yago/YagoGeoEntity
p240
aVhttp://dbpedia.org/class/yago/YagoLegalActorGeo
p241
aVhttp://dbpedia.org/class/yago/PhysicalEntity100001930
p242
aVhttp://dbpedia.org/class/yago/YagoPermanentlyLocatedEntity
p243
aVhttp://dbpedia.org/class/yago/RegionsOfIndia
p244
aVhttp://dbpedia.org/resource/Hindi_Belt
tp245
aa(lp246
((lp247
Vhttp://dbpedia.org/class/yago/BeltRegions
p248
aVhttp://dbpedia.org/class/yago/Location100027167
p249
aVhttp://dbpedia.org/class/yago/Object100002684
p250
aVhttp://dbpedia.org/class/yago/Region108630039
p251
aVhttp://dbpedia.org/class/yago/YagoGeoEntity
p252
aVhttp://dbpedia.org/class/yago/YagoLegalActorGeo
p253
aVhttp://dbpedia.org/class/yago/PhysicalEntity100001930
p254
aVhttp://dbpedia.org/class/yago/YagoPermanentlyLocatedEntity
p255
aVhttp://dbpedia.org/class/yago/RegionsOfIndia
p256
aVhttp://dbpedia.org/resource/Hindi_Belt
tp257
aa(lp258
aa(lp259
(lp260
((lp261
Vhttp://www.w3.org/2002/07/owl#Thing
p262
aVhttp://dbpedia.org/resource/Indonesian_cuisine
tp263
aa(lp264
((lp265
Vhttp://www.w3.org/2002/07/owl#Thing
p266
aVhttp://dbpedia.org/resource/Indonesian_cuisine
tp267
aa(lp268
aa(lp269
(lp270
((lp271
Vhttp://dbpedia.org/class/yago/Abstraction100002137
p272
aVhttp://dbpedia.org/class/yago/Act100030358
p273
aVhttp://dbpedia.org/class/yago/Activity100407535
p274
aVhttp://dbpedia.org/class/yago/Event100029378
p275
aVhttp://dbpedia.org/class/yago/Order101009871
p276
aVhttp://dbpedia.org/class/yago/Succession101010458
p277
aVhttp://dbpedia.org/class/yago/ChessOpenings
p278
aVhttp://dbpedia.org/class/yago/Opening100457890
p279
aVhttp://dbpedia.org/class/yago/PsychologicalFeature100023100
p280
aVhttp://dbpedia.org/class/yago/YagoPermanentlyLocatedEntity
p281
aVhttp://dbpedia.org/class/yago/Organization101008378
p282
aVhttp://dbpedia.org/resource/Italian_Gambit
tp283
aa(lp284
((lp285
Vhttp://dbpedia.org/class/yago/Abstraction100002137
p286
aVhttp://dbpedia.org/class/yago/Act100030358
p287
aVhttp://dbpedia.org/class/yago/Activity100407535
p288
aVhttp://dbpedia.org/class/yago/Event100029378
p289
aVhttp://dbpedia.org/class/yago/Order101009871
p290
aVhttp://dbpedia.org/class/yago/Succession101010458
p291
aVhttp://dbpedia.org/class/yago/ChessOpenings
p292
aVhttp://dbpedia.org/class/yago/Opening100457890
p293
aVhttp://dbpedia.org/class/yago/PsychologicalFeature100023100
p294
aVhttp://dbpedia.org/class/yago/YagoPermanentlyLocatedEntity
p295
aVhttp://dbpedia.org/class/yago/Organization101008378
p296
aVhttp://dbpedia.org/resource/Italian_Gambit
tp297
aa(lp298
aa(lp299
(lp300
((lp301
Vhttp://www.w3.org/2002/07/owl#Thing
p302
aVhttp://dbpedia.org/ontology/Place
p303
aVhttp://dbpedia.org/ontology/Location
p304
aVhttp://schema.org/Place
p305
aVhttp://dbpedia.org/class/yago/Land109334396
p306
aVhttp://dbpedia.org/class/yago/Object100002684
p307
aVhttp://dbpedia.org/class/yago/Peninsula109388848
p308
aVhttp://dbpedia.org/class/yago/YagoGeoEntity
p309
aVhttp://dbpedia.org/class/yago/PhysicalEntity100001930
p310
aVhttp://dbpedia.org/class/yago/YagoPermanentlyLocatedEntity
p311
aVhttp://dbpedia.org/class/yago/PeninsulasOfAsia
p312
aVhttp://dbpedia.org/resource/Korean_Peninsula
tp313
aa(lp314
((lp315
Vhttp://www.w3.org/2002/07/owl#Thing
p316
aVhttp://dbpedia.org/ontology/Place
p317
aVhttp://dbpedia.org/ontology/Location
p318
aVhttp://schema.org/Place
p319
aVhttp://dbpedia.org/class/yago/Land109334396
p320
aVhttp://dbpedia.org/class/yago/Object100002684
p321
aVhttp://dbpedia.org/class/yago/Peninsula109388848
p322
aVhttp://dbpedia.org/class/yago/YagoGeoEntity
p323
aVhttp://dbpedia.org/class/yago/PhysicalEntity100001930
p324
aVhttp://dbpedia.org/class/yago/YagoPermanentlyLocatedEntity
p325
aVhttp://dbpedia.org/class/yago/PeninsulasOfAsia
p326
aVhttp://dbpedia.org/resource/Korean_Peninsula
tp327
aa(lp328
aa(lp329
(lp330
((lp331
Vhttp://www.w3.org/2002/07/owl#Thing
p332
aVhttp://dbpedia.org/ontology/Company
p333
aVhttp://www.ontologydesignpatterns.org/ont/dul/DUL.owl#Agent
p334
aVhttp://www.ontologydesignpatterns.org/ont/dul/DUL.owl#SocialPerson
p335
aVhttp://www.wikidata.org/entity/Q43229
p336
aVhttp://www.wikidata.org/entity/Q46970
p337
aVhttp://dbpedia.org/ontology/Agent
p338
aVhttp://dbpedia.org/ontology/Airline
p339
aVhttp://dbpedia.org/ontology/Organisation
p340
aVhttp://schema.org/Organization
p341
aVhttp://umbel.org/umbel/rc/AirlineCompany
p342
aVhttp://umbel.org/umbel/rc/Business
p343
aVhttp://umbel.org/umbel/rc/Organization
p344
aVhttp://dbpedia.org/class/yago/Abstraction100002137
p345
aVhttp://dbpedia.org/class/yago/Airline102690081
p346
aVhttp://dbpedia.org/class/yago/AirlinesEstablishedIn1993
p347
aVhttp://dbpedia.org/class/yago/AirlinesOfNorway
p348
aVhttp://dbpedia.org/class/yago/Business108061042
p349
aVhttp://dbpedia.org/class/yago/Carrier108057633
p350
aVhttp://dbpedia.org/class/yago/Company108058098
p351
aVhttp://dbpedia.org/class/yago/Enterprise108056231
p352
aVhttp://dbpedia.org/class/yago/Group100031264
p353
aVhttp://dbpedia.org/class/yago/Institution108053576
p354
aVhttp://dbpedia.org/class/yago/Line103671473
p355
aVhttp://dbpedia.org/class/yago/Organization108008335
p356
aVhttp://dbpedia.org/class/yago/SocialGroup107950920
p357
aVhttp://dbpedia.org/class/yago/YagoLegalActorGeo
p358
aVhttp://dbpedia.org/class/yago/CompaniesBasedInB%C3%A6rum
p359
aVhttp://dbpedia.org/class/yago/CompaniesListedOnTheOsloStockExchange
p360
aVhttp://dbpedia.org/class/yago/YagoPermanentlyLocatedEntity
p361
aVhttp://dbpedia.org/class/yago/Low-costAirlines
p362
aVhttp://dbpedia.org/class/yago/YagoLegalActor
p363
aVhttp://dbpedia.org/resource/Norwegian_Air_Shuttle
tp364
aa(lp365
((lp366
Vhttp://www.w3.org/2002/07/owl#Thing
p367
aVhttp://dbpedia.org/ontology/Company
p368
aVhttp://www.ontologydesignpatterns.org/ont/dul/DUL.owl#Agent
p369
aVhttp://www.ontologydesignpatterns.org/ont/dul/DUL.owl#SocialPerson
p370
aVhttp://www.wikidata.org/entity/Q43229
p371
aVhttp://www.wikidata.org/entity/Q46970
p372
aVhttp://dbpedia.org/ontology/Agent
p373
aVhttp://dbpedia.org/ontology/Airline
p374
aVhttp://dbpedia.org/ontology/Organisation
p375
aVhttp://schema.org/Organization
p376
aVhttp://umbel.org/umbel/rc/AirlineCompany
p377
aVhttp://umbel.org/umbel/rc/Business
p378
aVhttp://umbel.org/umbel/rc/Organization
p379
aVhttp://dbpedia.org/class/yago/Abstraction100002137
p380
aVhttp://dbpedia.org/class/yago/Airline102690081
p381
aVhttp://dbpedia.org/class/yago/AirlinesEstablishedIn1993
p382
aVhttp://dbpedia.org/class/yago/AirlinesOfNorway
p383
aVhttp://dbpedia.org/class/yago/Business108061042
p384
aVhttp://dbpedia.org/class/yago/Carrier108057633
p385
aVhttp://dbpedia.org/class/yago/Company108058098
p386
aVhttp://dbpedia.org/class/yago/Enterprise108056231
p387
aVhttp://dbpedia.org/class/yago/Group100031264
p388
aVhttp://dbpedia.org/class/yago/Institution108053576
p389
aVhttp://dbpedia.org/class/yago/Line103671473
p390
aVhttp://dbpedia.org/class/yago/Organization108008335
p391
aVhttp://dbpedia.org/class/yago/SocialGroup107950920
p392
aVhttp://dbpedia.org/class/yago/YagoLegalActorGeo
p393
aVhttp://dbpedia.org/class/yago/CompaniesBasedInB%C3%A6rum
p394
aVhttp://dbpedia.org/class/yago/CompaniesListedOnTheOsloStockExchange
p395
aVhttp://dbpedia.org/class/yago/YagoPermanentlyLocatedEntity
p396
aVhttp://dbpedia.org/class/yago/Low-costAirlines
p397
aVhttp://dbpedia.org/class/yago/YagoLegalActor
p398
aVhttp://dbpedia.org/resource/Norwegian_Air_Shuttle
tp399
aa(lp400
aa(lp401
(lp402
((lp403
Vhttp://www.w3.org/2002/07/owl#Thing
p404
aVhttp://www.wikidata.org/entity/Q386724
p405
aVhttp://www.wikidata.org/entity/Q5185279
p406
aVhttp://dbpedia.org/ontology/Poem
p407
aVhttp://dbpedia.org/ontology/Work
p408
aVhttp://dbpedia.org/ontology/WrittenWork
p409
aVhttp://schema.org/CreativeWork
p410
aVhttp://dbpedia.org/class/yago/1850Poems
p411
aVhttp://dbpedia.org/class/yago/Abstraction100002137
p412
aVhttp://dbpedia.org/class/yago/BritishPoems
p413
aVhttp://dbpedia.org/class/yago/Communication100033020
p414
aVhttp://dbpedia.org/class/yago/LiteraryComposition106364329
p415
aVhttp://dbpedia.org/class/yago/Poem106377442
p416
aVhttp://dbpedia.org/class/yago/Writing106362953
p417
aVhttp://dbpedia.org/class/yago/WrittenCommunication106349220
p418
aVhttp://dbpedia.org/class/yago/Sonnet106381372
p419
aVhttp://dbpedia.org/class/yago/Sonnets
p420
aVhttp://dbpedia.org/resource/Sonnets_from_the_Portuguese
tp421
aa(lp422
((lp423
Vhttp://www.w3.org/2002/07/owl#Thing
p424
aVhttp://dbpedia.org/ontology/Place
p425
aVhttp://dbpedia.org/ontology/Location
p426
aVhttp://www.wikidata.org/entity/Q486972
p427
aVhttp://www.wikidata.org/entity/Q6256
p428
aVhttp://dbpedia.org/ontology/Country
p429
aVhttp://dbpedia.org/ontology/PopulatedPlace
p430
aVhttp://www.w3.org/2003/01/geo/wgs84_pos#SpatialThing
p431
aVhttp://schema.org/Country
p432
aVhttp://schema.org/Place
p433
aVhttp://umbel.org/umbel/rc/Country
p434
aVhttp://umbel.org/umbel/rc/Location_Underspecified
p435
aVhttp://umbel.org/umbel/rc/PopulatedPlace
p436
aVhttp://dbpedia.org/class/yago/Abstraction100002137
p437
aVhttp://dbpedia.org/class/yago/AdministrativeDistrict108491826
p438
aVhttp://dbpedia.org/class/yago/Country108544813
p439
aVhttp://dbpedia.org/class/yago/District108552138
p440
aVhttp://dbpedia.org/class/yago/Economy108366753
p441
aVhttp://dbpedia.org/class/yago/Group100031264
p442
aVhttp://dbpedia.org/class/yago/Location100027167
p443
aVhttp://dbpedia.org/class/yago/Object100002684
p444
aVhttp://dbpedia.org/class/yago/Region108630985
p445
aVhttp://dbpedia.org/class/yago/System108435388
p446
aVhttp://dbpedia.org/class/yago/YagoGeoEntity
p447
aVhttp://dbpedia.org/class/yago/YagoLegalActorGeo
p448
aVhttp://dbpedia.org/class/yago/CountriesBorderingTheAtlanticOcean
p449
aVhttp://dbpedia.org/class/yago/FederalCountries
p450
aVhttp://dbpedia.org/class/yago/PhysicalEntity100001930
p451
aVhttp://dbpedia.org/class/yago/YagoPermanentlyLocatedEntity
p452
aVhttp://dbpedia.org/class/yago/LatinAmericanCountries
p453
aVhttp://dbpedia.org/class/yago/MemberStatesOfMercosur
p454
aVhttp://dbpedia.org/class/yago/MemberStatesOfTheCommunityOfPortugueseLanguageCountries
p455
aVhttp://dbpedia.org/class/yago/MemberStatesOfTheUnionOfSouthAmericanNations
p456
aVhttp://dbpedia.org/class/yago/MemberStatesOfTheUnitedNations
p457
aVhttp://dbpedia.org/class/yago/Portuguese-speakingCountries
p458
aVhttp://dbpedia.org/class/yago/SouthAmericanCountries
p459
aVhttp://dbpedia.org/class/yago/StatesAndTerritoriesEstablishedIn1822
p460
aVhttp://dbpedia.org/class/yago/WorldTradeOrganizationMemberEconomies
p461
aVhttp://dbpedia.org/resource/Brazil
tp462
aa(lp463
aa(lp464
(lp465
((lp466
Vhttp://www.w3.org/2002/07/owl#Thing
p467
aVhttp://www.wikidata.org/entity/Q386724
p468
aVhttp://www.wikidata.org/entity/Q5185279
p469
aVhttp://dbpedia.org/ontology/Poem
p470
aVhttp://dbpedia.org/ontology/Work
p471
aVhttp://dbpedia.org/ontology/WrittenWork
p472
aVhttp://schema.org/CreativeWork
p473
aVhttp://dbpedia.org/class/yago/1850Poems
p474
aVhttp://dbpedia.org/class/yago/Abstraction100002137
p475
aVhttp://dbpedia.org/class/yago/BritishPoems
p476
aVhttp://dbpedia.org/class/yago/Communication100033020
p477
aVhttp://dbpedia.org/class/yago/LiteraryComposition106364329
p478
aVhttp://dbpedia.org/class/yago/Poem106377442
p479
aVhttp://dbpedia.org/class/yago/Writing106362953
p480
aVhttp://dbpedia.org/class/yago/WrittenCommunication106349220
p481
aVhttp://dbpedia.org/class/yago/Sonnet106381372
p482
aVhttp://dbpedia.org/class/yago/Sonnets
p483
aVhttp://dbpedia.org/resource/Sonnets_from_the_Portuguese
tp484
aa(lp485
((lp486
Vhttp://www.w3.org/2002/07/owl#Thing
p487
aVhttp://dbpedia.org/ontology/Place
p488
aVhttp://dbpedia.org/ontology/Location
p489
aVhttp://www.wikidata.org/entity/Q486972
p490
aVhttp://www.wikidata.org/entity/Q6256
p491
aVhttp://dbpedia.org/ontology/Country
p492
aVhttp://dbpedia.org/ontology/PopulatedPlace
p493
aVhttp://www.w3.org/2003/01/geo/wgs84_pos#SpatialThing
p494
aVhttp://schema.org/Country
p495
aVhttp://schema.org/Place
p496
aVhttp://umbel.org/umbel/rc/Country
p497
aVhttp://umbel.org/umbel/rc/Location_Underspecified
p498
aVhttp://umbel.org/umbel/rc/PopulatedPlace
p499
aVhttp://dbpedia.org/class/yago/Abstraction100002137
p500
aVhttp://dbpedia.org/class/yago/AdministrativeDistrict108491826
p501
aVhttp://dbpedia.org/class/yago/Country108544813
p502
aVhttp://dbpedia.org/class/yago/District108552138
p503
aVhttp://dbpedia.org/class/yago/Economy108366753
p504
aVhttp://dbpedia.org/class/yago/Group100031264
p505
aVhttp://dbpedia.org/class/yago/Location100027167
p506
aVhttp://dbpedia.org/class/yago/Object100002684
p507
aVhttp://dbpedia.org/class/yago/Region108630985
p508
aVhttp://dbpedia.org/class/yago/System108435388
p509
aVhttp://dbpedia.org/class/yago/YagoGeoEntity
p510
aVhttp://dbpedia.org/class/yago/YagoLegalActorGeo
p511
aVhttp://dbpedia.org/class/yago/CountriesBorderingTheAtlanticOcean
p512
aVhttp://dbpedia.org/class/yago/EuropeanCountries
p513
aVhttp://dbpedia.org/class/yago/EuropeanUnionMemberEconomies
p514
aVhttp://dbpedia.org/class/yago/PhysicalEntity100001930
p515
aVhttp://dbpedia.org/class/yago/YagoPermanentlyLocatedEntity
p516
aVhttp://dbpedia.org/class/yago/MemberStatesOfNATO
p517
aVhttp://dbpedia.org/class/yago/MemberStatesOfTheCommunityOfPortugueseLanguageCountries
p518
aVhttp://dbpedia.org/class/yago/MemberStatesOfTheEuropeanUnion
p519
aVhttp://dbpedia.org/class/yago/MemberStatesOfTheUnionForTheMediterranean
p520
aVhttp://dbpedia.org/class/yago/MemberStatesOfTheUnitedNations
p521
aVhttp://dbpedia.org/class/yago/Portuguese-speakingCountries
p522
aVhttp://dbpedia.org/class/yago/WorldTradeOrganizationMemberEconomies
p523
aVhttp://dbpedia.org/resource/Portugal
tp524
aa(lp525
aa(lp526
(lp527
((lp528
Vhttp://www.w3.org/2002/07/owl#Thing
p529
aVhttp://dbpedia.org/class/yago/CausalAgent100007347
p530
aVhttp://dbpedia.org/class/yago/LivingThing100004258
p531
aVhttp://dbpedia.org/class/yago/Object100002684
p532
aVhttp://dbpedia.org/class/yago/Organism100004475
p533
aVhttp://dbpedia.org/class/yago/Person100007846
p534
aVhttp://dbpedia.org/class/yago/Whole100003553
p535
aVhttp://dbpedia.org/class/yago/YagoLegalActorGeo
p536
aVhttp://dbpedia.org/class/yago/PhysicalEntity100001930
p537
aVhttp://dbpedia.org/class/yago/YagoLegalActor
p538
aVhttp://dbpedia.org/class/yago/SerbianPeople
p539
aVhttp://dbpedia.org/resource/Serbians
tp540
aa(lp541
((lp542
Vhttp://www.w3.org/2002/07/owl#Thing
p543
aVhttp://dbpedia.org/class/yago/CausalAgent100007347
p544
aVhttp://dbpedia.org/class/yago/LivingThing100004258
p545
aVhttp://dbpedia.org/class/yago/Object100002684
p546
aVhttp://dbpedia.org/class/yago/Organism100004475
p547
aVhttp://dbpedia.org/class/yago/Person100007846
p548
aVhttp://dbpedia.org/class/yago/Whole100003553
p549
aVhttp://dbpedia.org/class/yago/YagoLegalActorGeo
p550
aVhttp://dbpedia.org/class/yago/PhysicalEntity100001930
p551
aVhttp://dbpedia.org/class/yago/YagoLegalActor
p552
aVhttp://dbpedia.org/class/yago/SerbianPeople
p553
aVhttp://dbpedia.org/resource/Serbians
tp554
aa(lp555
aa(lp556
(lp557
((lp558
Vhttp://www.w3.org/2002/07/owl#Thing
p559
aVhttp://dbpedia.org/ontology/Place
p560
aVhttp://dbpedia.org/ontology/Location
p561
aVhttp://www.wikidata.org/entity/Q3957
p562
aVhttp://www.wikidata.org/entity/Q486972
p563
aVhttp://dbpedia.org/ontology/PopulatedPlace
p564
aVhttp://dbpedia.org/ontology/Settlement
p565
aVhttp://dbpedia.org/ontology/Town
p566
aVhttp://www.w3.org/2003/01/geo/wgs84_pos#SpatialThing
p567
aVhttp://schema.org/Place
p568
aVhttp://dbpedia.org/class/yago/AdministrativeDistrict108491826
p569
aVhttp://dbpedia.org/class/yago/District108552138
p570
aVhttp://dbpedia.org/class/yago/Location100027167
p571
aVhttp://dbpedia.org/class/yago/Object100002684
p572
aVhttp://dbpedia.org/class/yago/Region108630985
p573
aVhttp://dbpedia.org/class/yago/Town108665504
p574
aVhttp://dbpedia.org/class/yago/UrbanArea108675967
p575
aVhttp://dbpedia.org/class/yago/YagoGeoEntity
p576
aVhttp://dbpedia.org/class/yago/YagoLegalActorGeo
p577
aVhttp://dbpedia.org/class/yago/GeographicalArea108574314
p578
aVhttp://dbpedia.org/class/yago/Municipality108626283
p579
aVhttp://dbpedia.org/class/yago/PhysicalEntity100001930
p580
aVhttp://dbpedia.org/class/yago/YagoPermanentlyLocatedEntity
p581
aVhttp://dbpedia.org/class/yago/MunicipalitiesInAlgomaDistrict
p582
aVhttp://dbpedia.org/class/yago/TownsInOntario
p583
aVhttp://dbpedia.org/resource/Spanish,_Ontario
tp584
aa(lp585
((lp586
Vhttp://www.w3.org/2002/07/owl#Thing
p587
aVhttp://dbpedia.org/ontology/Place
p588
aVhttp://dbpedia.org/ontology/Location
p589
aVhttp://www.wikidata.org/entity/Q3957
p590
aVhttp://www.wikidata.org/entity/Q486972
p591
aVhttp://dbpedia.org/ontology/PopulatedPlace
p592
aVhttp://dbpedia.org/ontology/Settlement
p593
aVhttp://dbpedia.org/ontology/Town
p594
aVhttp://www.w3.org/2003/01/geo/wgs84_pos#SpatialThing
p595
aVhttp://schema.org/Place
p596
aVhttp://dbpedia.org/class/yago/AdministrativeDistrict108491826
p597
aVhttp://dbpedia.org/class/yago/District108552138
p598
aVhttp://dbpedia.org/class/yago/Location100027167
p599
aVhttp://dbpedia.org/class/yago/Object100002684
p600
aVhttp://dbpedia.org/class/yago/Region108630985
p601
aVhttp://dbpedia.org/class/yago/Town108665504
p602
aVhttp://dbpedia.org/class/yago/UrbanArea108675967
p603
aVhttp://dbpedia.org/class/yago/YagoGeoEntity
p604
aVhttp://dbpedia.org/class/yago/YagoLegalActorGeo
p605
aVhttp://dbpedia.org/class/yago/GeographicalArea108574314
p606
aVhttp://dbpedia.org/class/yago/Municipality108626283
p607
aVhttp://dbpedia.org/class/yago/PhysicalEntity100001930
p608
aVhttp://dbpedia.org/class/yago/YagoPermanentlyLocatedEntity
p609
aVhttp://dbpedia.org/class/yago/MunicipalitiesInAlgomaDistrict
p610
aVhttp://dbpedia.org/class/yago/TownsInOntario
p611
aVhttp://dbpedia.org/resource/Spanish,_Ontario
p612
tp613
aa(lp614
aa.