(lp1
(lp2
(lp3
a(lp4
a(lp5
a(lp6
aa(lp7
(lp8
a(lp9
a(lp10
a(lp11
aa(lp12
(lp13
a(lp14
a(lp15
a(lp16
aa(lp17
(lp18
a(lp19
a(lp20
a(lp21
aa(lp22
(lp23
a(lp24
a(lp25
a(lp26
aa(lp27
(lp28
a(lp29
a(lp30
a(lp31
aa(lp32
(lp33
a(lp34
a(lp35
a(lp36
aa(lp37
(lp38
a(lp39
a(lp40
a(lp41
aa(lp42
(lp43
a(lp44
a(lp45
a(lp46
aa(lp47
(lp48
a(lp49
a(lp50
a(lp51
aa(lp52
(lp53
a(lp54
a(lp55
a(lp56
aa(lp57
(lp58
a(lp59
a(lp60
a(lp61
aa(lp62
(lp63
a(lp64
a(lp65
a(lp66
aa(lp67
(lp68
a(lp69
a(lp70
a(lp71
aa(lp72
(lp73
a(lp74
a(lp75
a(lp76
aa(lp77
(lp78
a(lp79
a(lp80
a(lp81
aa(lp82
(lp83
a(lp84
a(lp85
a(lp86
aa(lp87
(lp88
a(lp89
a(lp90
a(lp91
aa(lp92
(lp93
a(lp94
a(lp95
((lp96
Vhttp://dbpedia.org/class/yago/Abstraction100002137
p97
aVhttp://dbpedia.org/class/yago/AmericanFolkSongs
p98
aVhttp://dbpedia.org/class/yago/AuditoryCommunication107109019
p99
aVhttp://dbpedia.org/class/yago/BurlIvesSongs
p100
aVhttp://dbpedia.org/class/yago/Communication100033020
p101
aVhttp://dbpedia.org/class/yago/ExpressiveStyle107066659
p102
aVhttp://dbpedia.org/class/yago/FolkSong107050952
p103
aVhttp://dbpedia.org/class/yago/Music107020895
p104
aVhttp://dbpedia.org/class/yago/MusicGenre107071942
p105
aVhttp://dbpedia.org/class/yago/MusicalComposition107037465
p106
aVhttp://dbpedia.org/class/yago/Song107048000
p107
aVhttp://dbpedia.org/class/yago/SongsAboutTexas
p108
aVhttp://dbpedia.org/class/yago/SongsAboutTheUnitedStates
p109
aVhttp://dbpedia.org/class/yago/FolkMusic107060167
p110
aVhttp://dbpedia.org/class/yago/JohnnyCashSongs
p111
aVhttp://dbpedia.org/class/yago/PopularMusic107059255
p112
aVhttp://dbpedia.org/resource/Streets_of_Laredo_(song)
p113
tp114
aa(lp115
aa.