(lp1
(lp2
(lp3
a(lp4
a(lp5
a(lp6
a(lp7
aa(lp8
(lp9
a(lp10
a(lp11
a(lp12
a(lp13
aa(lp14
(lp15
a(lp16
a(lp17
a(lp18
a(lp19
aa(lp20
(lp21
a(lp22
a(lp23
a(lp24
a(lp25
aa(lp26
(lp27
a(lp28
a(lp29
a(lp30
a(lp31
aa(lp32
(lp33
a(lp34
a(lp35
a(lp36
a(lp37
aa(lp38
(lp39
a(lp40
a(lp41
a(lp42
a(lp43
aa(lp44
(lp45
a(lp46
a(lp47
a(lp48
a(lp49
aa(lp50
(lp51
a(lp52
((lVhttp://dbpedia.org/resource/ISO_639:w
tp53
aa(lp54
a(lp55
a(lp56
aa(lp57
(lp58
a(lp59
a(lp60
a(lp61
a(lp62
aa(lp63
(lp64
a(lp65
((lVhttp://dbpedia.org/resource/ISO_639:w
tp66
aa(lp67
a(lp68
a(lp69
aa(lp70
(lp71
a(lp72
a(lp73
a(lp74
a(lp75
aa(lp76
(lp77
a(lp78
a(lp79
a(lp80
a(lp81
aa(lp82
(lp83
a(lp84
a(lp85
a(lp86
a(lp87
aa(lp88
(lp89
a(lp90
((lVhttp://dbpedia.org/resource/ISO_639:w
tp91
aa(lp92
a(lp93
a(lp94
aa(lp95
(lp96
a(lp97
((lVhttp://dbpedia.org/resource/ISO_639:w
tp98
aa(lp99
a(lp100
a(lp101
aa(lp102
(lp103
a(lp104
((lVhttp://dbpedia.org/resource/ISO_639:w
tp105
aa(lp106
a(lp107
a(lp108
aa(lp109
(lp110
a(lp111
a(lp112
a(lp113
a(lp114
aa(lp115
(lp116
a(lp117
((lVhttp://dbpedia.org/resource/ISO_639:w
tp118
aa(lp119
a(lp120
a(lp121
aa(lp122
(lp123
a(lp124
((lVhttp://dbpedia.org/resource/ISO_639:w
tp125
aa(lp126
a(lp127
a(lp128
aa(lp129
(lp130
a(lp131
((lVhttp://dbpedia.org/resource/ISO_639:w
tp132
aa(lp133
a(lp134
a(lp135
aa(lp136
(lp137
a(lp138
a(lp139
a(lp140
a(lp141
aa(lp142
(lp143
a(lp144
a(lp145
a(lp146
a(lp147
aa(lp148
(lp149
a(lp150
a(lp151
a(lp152
a(lp153
aa(lp154
(lp155
a(lp156
a(lp157
a(lp158
a(lp159
aa(lp160
(lp161
a(lp162
a(lp163
a(lp164
a(lp165
aa(lp166
(lp167
a(lp168
a(lp169
a(lp170
a(lp171
aa(lp172
(lp173
a(lp174
a(lp175
a(lp176
a(lp177
aa(lp178
(lp179
a(lp180
a(lp181
a(lp182
a(lp183
aa(lp184
(lp185
a(lp186
((lVhttp://dbpedia.org/resource/ISO_639:w
tp187
aa(lp188
a(lp189
a(lp190
aa(lp191
(lp192
a(lp193
a(lp194
a(lp195
a(lp196
aa(lp197
(lp198
a(lp199
a(lp200
a(lp201
a(lp202
aa(lp203
(lp204
a(lp205
a(lp206
a(lp207
a(lp208
aa(lp209
(lp210
a(lp211
a(lp212
a(lp213
a(lp214
aa(lp215
(lp216
a(lp217
((lVhttp://dbpedia.org/resource/ISO_639:w
tp218
aa(lp219
a(lp220
a(lp221
aa(lp222
(lp223
a(lp224
a(lp225
a(lp226
a(lp227
aa(lp228
(lp229
a(lp230
a(lp231
a(lp232
a(lp233
aa(lp234
(lp235
a(lp236
a(lp237
a(lp238
a(lp239
aa(lp240
(lp241
a(lp242
a(lp243
a(lp244
a(lp245
aa(lp246
(lp247
a(lp248
((lVhttp://dbpedia.org/resource/ISO_639:w
tp249
aa(lp250
a(lp251
a(lp252
aa(lp253
(lp254
a(lp255
a(lp256
a(lp257
a(lp258
aa(lp259
(lp260
a(lp261
a(lp262
a(lp263
a(lp264
aa(lp265
(lp266
a(lp267
((lVhttp://dbpedia.org/resource/ISO_639:w
tp268
aa(lp269
a(lp270
a(lp271
aa(lp272
(lp273
a(lp274
((lVhttp://dbpedia.org/resource/ISO_639:w
tp275
aa(lp276
a(lp277
a(lp278
aa(lp279
(lp280
a(lp281
((lVhttp://dbpedia.org/resource/ISO_639:w
tp282
aa(lp283
a(lp284
a(lp285
aa(lp286
(lp287
a(lp288
((lVhttp://dbpedia.org/resource/ISO_639:w
tp289
aa(lp290
a(lp291
a(lp292
aa(lp293
(lp294
a(lp295
a(lp296
a(lp297
a(lp298
aa(lp299
(lp300
a(lp301
((lVhttp://dbpedia.org/resource/ISO_639:w
tp302
aa(lp303
a(lp304
a(lp305
aa(lp306
(lp307
a(lp308
((lVhttp://dbpedia.org/resource/ISO_639:w
tp309
aa(lp310
a(lp311
a(lp312
aa(lp313
(lp314
a(lp315
a(lp316
a(lp317
a(lp318
aa(lp319
(lp320
a(lp321
((lVhttp://dbpedia.org/resource/ISO_639:w
tp322
aa(lp323
a(lp324
a(lp325
aa(lp326
(lp327
a(lp328
a(lp329
a(lp330
a(lp331
aa(lp332
(lp333
((lp334
Vhttp://www.w3.org/2002/07/owl#Thing
p335
aVhttp://xmlns.com/foaf/0.1/Person
p336
aVhttp://dbpedia.org/ontology/Person
p337
aVhttp://www.ontologydesignpatterns.org/ont/dul/DUL.owl#Agent
p338
aVhttp://www.ontologydesignpatterns.org/ont/dul/DUL.owl#NaturalPerson
p339
aVhttp://www.wikidata.org/entity/Q215627
p340
aVhttp://www.wikidata.org/entity/Q4964182
p341
aVhttp://www.wikidata.org/entity/Q5
p342
aVhttp://dbpedia.org/ontology/Agent
p343
aVhttp://dbpedia.org/ontology/Philosopher
p344
aVhttp://schema.org/Person
p345
aVhttp://umbel.org/umbel/rc/Philosopher
p346
aVhttp://dbpedia.org/class/yago/6th-centuryBCGreekPeople
p347
aVhttp://dbpedia.org/class/yago/6th-centuryBCPhilosophers
p348
aVhttp://dbpedia.org/class/yago/AncientGreekAstronomers
p349
aVhttp://dbpedia.org/class/yago/AncientGreekCartographers
p350
aVhttp://dbpedia.org/class/yago/AncientGreekPhilosophers
p351
aVhttp://dbpedia.org/class/yago/AncientGreekPhysicists
p352
aVhttp://dbpedia.org/class/yago/AncientGreeksAccusedOrListedAsAtheists
p353
aVhttp://dbpedia.org/class/yago/Astronomer109818343
p354
aVhttp://dbpedia.org/class/yago/Atheist109820044
p355
aVhttp://dbpedia.org/class/yago/Cartographer109898215
p356
aVhttp://dbpedia.org/class/yago/CausalAgent100007347
p357
aVhttp://dbpedia.org/class/yago/Disbeliever110015897
p358
aVhttp://dbpedia.org/class/yago/Expert109617867
p359
aVhttp://dbpedia.org/class/yago/Geographer110127555
p360
aVhttp://dbpedia.org/class/yago/Intellectual109621545
p361
aVhttp://dbpedia.org/class/yago/LivingThing100004258
p362
aVhttp://dbpedia.org/class/yago/NonreligiousPerson109625789
p363
aVhttp://dbpedia.org/class/yago/Object100002684
p364
aVhttp://dbpedia.org/class/yago/Organism100004475
p365
aVhttp://dbpedia.org/class/yago/Person100007846
p366
aVhttp://dbpedia.org/class/yago/Philosopher110423589
p367
aVhttp://dbpedia.org/class/yago/Physicist110428004
p368
aVhttp://dbpedia.org/class/yago/Scholar110557854
p369
aVhttp://dbpedia.org/class/yago/Scientist110560637
p370
aVhttp://dbpedia.org/class/yago/Whole100003553
p371
aVhttp://dbpedia.org/class/yago/YagoLegalActorGeo
p372
aVhttp://dbpedia.org/class/yago/PhysicalEntity100001930
p373
aVhttp://dbpedia.org/class/yago/NaturalPhilosophers
p374
aVhttp://dbpedia.org/class/yago/PhilosophersOfAncientIonia
p375
aVhttp://dbpedia.org/class/yago/YagoLegalActor
p376
aVhttp://dbpedia.org/class/yago/PresocraticPhilosophers
p377
aVhttp://dbpedia.org/resource/Anaximander
tp378
aa(lp379
a(lp380
a(lp381
a(lp382
aa(lp383
(lp384
a(lp385
a(lp386
a(lp387
a(lp388
aa(lp389
(lp390
a(lp391
a(lp392
a(lp393
a(lp394
aa(lp395
(lp396
a(lp397
((lVhttp://dbpedia.org/resource/ISO_639:w
tp398
aa(lp399
a(lp400
a(lp401
aa(lp402
(lp403
a(lp404
a(lp405
a(lp406
a(lp407
aa(lp408
(lp409
a(lp410
((lVhttp://dbpedia.org/resource/ISO_639:w
tp411
aa(lp412
a(lp413
a(lp414
aa(lp415
(lp416
a(lp417
((lVhttp://dbpedia.org/resource/ISO_639:w
tp418
aa(lp419
a(lp420
a(lp421
aa(lp422
(lp423
a(lp424
a(lp425
a(lp426
a(lp427
aa(lp428
(lp429
a(lp430
((lVhttp://dbpedia.org/resource/ISO_639:w
tp431
aa(lp432
a(lp433
a(lp434
aa(lp435
(lp436
a(lp437
a(lp438
a(lp439
a(lp440
aa(lp441
(lp442
a(lp443
((lVhttp://dbpedia.org/resource/ISO_639:w
tp444
aa(lp445
a(lp446
a(lp447
aa(lp448
(lp449
a(lp450
a(lp451
a(lp452
a(lp453
aa(lp454
(lp455
a(lp456
((lVhttp://dbpedia.org/resource/ISO_639:w
tp457
aa(lp458
a(lp459
a(lp460
aa(lp461
(lp462
a(lp463
a(lp464
a(lp465
a(lp466
aa(lp467
(lp468
a(lp469
((lVhttp://dbpedia.org/resource/ISO_639:w
tp470
aa(lp471
a(lp472
a(lp473
aa(lp474
(lp475
a(lp476
a(lp477
a(lp478
a(lp479
aa(lp480
(lp481
a(lp482
((lVhttp://dbpedia.org/resource/ISO_639:w
tp483
aa(lp484
a(lp485
a(lp486
aa(lp487
(lp488
a(lp489
((lVhttp://dbpedia.org/resource/ISO_639:w
tp490
aa(lp491
a(lp492
a(lp493
aa(lp494
(lp495
a(lp496
((lVhttp://dbpedia.org/resource/ISO_639:w
tp497
aa(lp498
a(lp499
a(lp500
aa(lp501
(lp502
a(lp503
a(lp504
a(lp505
a(lp506
aa(lp507
(lp508
a(lp509
((lVhttp://dbpedia.org/resource/ISO_639:w
tp510
aa(lp511
a(lp512
a(lp513
aa(lp514
(lp515
a(lp516
a(lp517
a(lp518
a(lp519
aa(lp520
(lp521
a(lp522
a(lp523
a(lp524
a(lp525
aa(lp526
(lp527
a(lp528
a(lp529
a(lp530
a(lp531
aa(lp532
(lp533
a(lp534
((lVhttp://dbpedia.org/resource/ISO_639:w
tp535
aa(lp536
a(lp537
a(lp538
aa(lp539
(lp540
a(lp541
a(lp542
a(lp543
a(lp544
aa(lp545
(lp546
a(lp547
a(lp548
a(lp549
a(lp550
aa(lp551
(lp552
a(lp553
((lVhttp://dbpedia.org/resource/ISO_639:w
tp554
aa(lp555
a(lp556
a(lp557
aa(lp558
(lp559
a(lp560
((lVhttp://dbpedia.org/resource/ISO_639:w
tp561
aa(lp562
a(lp563
a(lp564
aa(lp565
(lp566
a(lp567
((lVhttp://dbpedia.org/resource/ISO_639:w
tp568
aa(lp569
a(lp570
a(lp571
aa(lp572
(lp573
a(lp574
((lVhttp://dbpedia.org/resource/ISO_639:w
tp575
aa(lp576
a(lp577
a(lp578
aa(lp579
(lp580
a(lp581
((lVhttp://dbpedia.org/resource/ISO_639:w
tp582
aa(lp583
a(lp584
a(lp585
aa(lp586
(lp587
a(lp588
a(lp589
a(lp590
a(lp591
aa(lp592
(lp593
a(lp594
a(lp595
a(lp596
a(lp597
aa(lp598
(lp599
a(lp600
a(lp601
a(lp602
a(lp603
aa(lp604
(lp605
a(lp606
((lVhttp://dbpedia.org/resource/ISO_639:w
tp607
aa(lp608
a(lp609
a(lp610
aa(lp611
(lp612
a(lp613
a(lp614
a(lp615
a(lp616
aa(lp617
(lp618
a(lp619
a(lp620
a(lp621
a(lp622
aa(lp623
(lp624
a(lp625
((lVhttp://dbpedia.org/resource/ISO_639:w
tp626
aa(lp627
a(lp628
a(lp629
aa(lp630
(lp631
a(lp632
a(lp633
a(lp634
((lp635
Vhttp://www.w3.org/2002/07/owl#Thing
p636
aVhttp://dbpedia.org/class/yago/Abstraction100002137
p637
aVhttp://dbpedia.org/class/yago/Class107997703
p638
aVhttp://dbpedia.org/class/yago/Collection107951464
p639
aVhttp://dbpedia.org/class/yago/Communication100033020
p640
aVhttp://dbpedia.org/class/yago/Group100031264
p641
aVhttp://dbpedia.org/class/yago/Language106282651
p642
aVhttp://dbpedia.org/class/yago/NorthGermanicLanguages
p643
aVhttp://dbpedia.org/resource/North_Germanic_languages
tp644
aa(lp645
aa(lp646
(lp647
a(lp648
a(lp649
a(lp650
a(lp651
aa(lp652
(lp653
a(lp654
((lVhttp://dbpedia.org/resource/ISO_639:w
tp655
aa(lp656
a(lp657
a(lp658
aa(lp659
(lp660
a(lp661
a(lp662
a(lp663
a(lp664
aa(lp665
(lp666
a(lp667
a(lp668
a(lp669
a(lp670
aa(lp671
(lp672
a(lp673
a(lp674
a(lp675
a(lp676
aa(lp677
(lp678
a(lp679
a(lp680
a(lp681
a(lp682
aa(lp683
(lp684
a(lp685
((lVhttp://dbpedia.org/resource/ISO_639:w
tp686
aa(lp687
a(lp688
a(lp689
aa(lp690
(lp691
a(lp692
((lVhttp://dbpedia.org/resource/ISO_639:w
tp693
aa(lp694
a(lp695
a(lp696
aa(lp697
(lp698
a(lp699
a(lp700
a(lp701
a(lp702
aa(lp703
(lp704
a(lp705
a(lp706
a(lp707
a(lp708
aa(lp709
(lp710
a(lp711
a(lp712
a(lp713
a(lp714
aa(lp715
(lp716
a(lp717
a(lp718
a(lp719
a(lp720
aa(lp721
(lp722
a(lp723
a(lp724
a(lp725
a(lp726
aa(lp727
(lp728
a(lp729
((lVhttp://dbpedia.org/resource/ISO_639:w
tp730
aa(lp731
a(lp732
a(lp733
aa(lp734
(lp735
a(lp736
((lVhttp://dbpedia.org/resource/ISO_639:w
tp737
aa(lp738
a(lp739
a(lp740
aa(lp741
(lp742
a(lp743
a(lp744
a(lp745
a(lp746
aa(lp747
(lp748
a(lp749
((lVhttp://dbpedia.org/resource/ISO_639:w
tp750
aa(lp751
a(lp752
a(lp753
aa(lp754
(lp755
a(lp756
a(lp757
a(lp758
a(lp759
aa(lp760
(lp761
a(lp762
a(lp763
a(lp764
a(lp765
aa(lp766
(lp767
a(lp768
((lVhttp://dbpedia.org/resource/ISO_639:w
tp769
aa(lp770
a(lp771
a(lp772
aa(lp773
(lp774
a(lp775
((lVhttp://dbpedia.org/resource/ISO_639:w
tp776
aa(lp777
a(lp778
a(lp779
aa(lp780
(lp781
a(lp782
a(lp783
a(lp784
a(lp785
aa(lp786
(lp787
a(lp788
a(lp789
a(lp790
a(lp791
aa(lp792
(lp793
a(lp794
a(lp795
a(lp796
a(lp797
aa(lp798
(lp799
a(lp800
a(lp801
a(lp802
a(lp803
aa(lp804
(lp805
a(lp806
((lVhttp://dbpedia.org/resource/ISO_639:w
tp807
aa(lp808
a(lp809
a(lp810
aa(lp811
(lp812
a(lp813
a(lp814
a(lp815
a(lp816
aa(lp817
(lp818
a(lp819
a(lp820
a(lp821
a(lp822
aa(lp823
(lp824
a(lp825
a(lp826
a(lp827
a(lp828
aa(lp829
(lp830
a(lp831
((lVhttp://dbpedia.org/resource/ISO_639:w
tp832
aa(lp833
a(lp834
a(lp835
aa(lp836
(lp837
a(lp838
a(lp839
a(lp840
a(lp841
aa(lp842
(lp843
a(lp844
a(lp845
a(lp846
a(lp847
aa(lp848
(lp849
a(lp850
((lVhttp://dbpedia.org/resource/ISO_639:w
tp851
aa(lp852
a(lp853
a(lp854
aa(lp855
(lp856
a(lp857
((lVhttp://dbpedia.org/resource/ISO_639:w
tp858
aa(lp859
a(lp860
a(lp861
aa(lp862
(lp863
a(lp864
a(lp865
a(lp866
a(lp867
aa(lp868
(lp869
a(lp870
a(lp871
a(lp872
a(lp873
aa(lp874
(lp875
a(lp876
a(lp877
a(lp878
a(lp879
aa(lp880
(lp881
a(lp882
a(lp883
a(lp884
a(lp885
aa(lp886
(lp887
a(lp888
a(lp889
a(lp890
a(lp891
aa(lp892
(lp893
a(lp894
a(lp895
a(lp896
a(lp897
aa(lp898
(lp899
a(lp900
a(lp901
a(lp902
a(lp903
aa(lp904
(lp905
a(lp906
a(lp907
a(lp908
a(lp909
aa(lp910
(lp911
a(lp912
a(lp913
a(lp914
a(lp915
aa(lp916
(lp917
a(lp918
a(lp919
a(lp920
a(lp921
aa(lp922
(lp923
a(lp924
((lVhttp://dbpedia.org/resource/ISO_639:w
tp925
aa(lp926
a(lp927
a(lp928
aa(lp929
(lp930
a(lp931
a(lp932
a(lp933
a(lp934
aa(lp935
(lp936
a(lp937
a(lp938
a(lp939
a(lp940
aa(lp941
(lp942
a(lp943
((lVhttp://dbpedia.org/resource/ISO_639:w
tp944
aa(lp945
a(lp946
a(lp947
aa(lp948
(lp949
a(lp950
((lVhttp://dbpedia.org/resource/ISO_639:w
tp951
aa(lp952
a(lp953
a(lp954
aa(lp955
(lp956
a(lp957
a(lp958
a(lp959
a(lp960
aa(lp961
(lp962
a(lp963
a(lp964
a(lp965
a(lp966
aa(lp967
(lp968
a(lp969
((lVhttp://dbpedia.org/resource/ISO_639:w
tp970
aa(lp971
a(lp972
a(lp973
aa(lp974
(lp975
a(lp976
a(lp977
a(lp978
a(lp979
aa(lp980
(lp981
a(lp982
a(lp983
a(lp984
a(lp985
aa(lp986
(lp987
a(lp988
a(lp989
a(lp990
a(lp991
aa(lp992
(lp993
a(lp994
((lVhttp://dbpedia.org/resource/ISO_639:w
tp995
aa(lp996
a(lp997
a(lp998
aa(lp999
(lp1000
a(lp1001
a(lp1002
a(lp1003
a(lp1004
aa(lp1005
(lp1006
a(lp1007
a(lp1008
a(lp1009
a(lp1010
aa(lp1011
(lp1012
a(lp1013
a(lp1014
a(lp1015
a(lp1016
aa(lp1017
(lp1018
a(lp1019
((lVhttp://dbpedia.org/resource/ISO_639:w
tp1020
aa(lp1021
a(lp1022
a(lp1023
aa(lp1024
(lp1025
a(lp1026
a(lp1027
a(lp1028
a(lp1029
aa(lp1030
(lp1031
a(lp1032
a(lp1033
a(lp1034
a(lp1035
aa(lp1036
(lp1037
a(lp1038
((lVhttp://dbpedia.org/resource/ISO_639:w
tp1039
aa(lp1040
a(lp1041
a(lp1042
aa(lp1043
(lp1044
a(lp1045
a(lp1046
a(lp1047
a(lp1048
aa(lp1049
(lp1050
a(lp1051
a(lp1052
a(lp1053
a(lp1054
aa(lp1055
(lp1056
a(lp1057
a(lp1058
a(lp1059
a(lp1060
aa(lp1061
(lp1062
a(lp1063
a(lp1064
a(lp1065
a(lp1066
aa(lp1067
(lp1068
a(lp1069
a(lp1070
a(lp1071
a(lp1072
aa(lp1073
(lp1074
a(lp1075
a(lp1076
a(lp1077
a(lp1078
aa(lp1079
(lp1080
a(lp1081
a(lp1082
a(lp1083
a(lp1084
aa(lp1085
(lp1086
a(lp1087
((lVhttp://dbpedia.org/resource/ISO_639:w
tp1088
aa(lp1089
a(lp1090
a(lp1091
aa(lp1092
(lp1093
a(lp1094
a(lp1095
a(lp1096
a(lp1097
aa(lp1098
(lp1099
a(lp1100
a(lp1101
a(lp1102
a(lp1103
aa(lp1104
(lp1105
a(lp1106
((lVhttp://dbpedia.org/resource/ISO_639:w
tp1107
aa(lp1108
a(lp1109
a(lp1110
aa(lp1111
(lp1112
a(lp1113
a(lp1114
a(lp1115
a(lp1116
aa(lp1117
(lp1118
a(lp1119
((lVhttp://dbpedia.org/resource/ISO_639:w
tp1120
aa(lp1121
a(lp1122
a(lp1123
aa(lp1124
(lp1125
a(lp1126
((lVhttp://dbpedia.org/resource/ISO_639:w
tp1127
aa(lp1128
a(lp1129
a(lp1130
aa(lp1131
(lp1132
a(lp1133
a(lp1134
a(lp1135
a(lp1136
aa(lp1137
(lp1138
a(lp1139
a(lp1140
a(lp1141
a(lp1142
aa(lp1143
(lp1144
a(lp1145
((lVhttp://dbpedia.org/resource/ISO_639:w
tp1146
aa(lp1147
a(lp1148
a(lp1149
aa(lp1150
(lp1151
a(lp1152
a(lp1153
a(lp1154
a(lp1155
aa(lp1156
(lp1157
a(lp1158
((lVhttp://dbpedia.org/resource/ISO_639:w
tp1159
aa(lp1160
a(lp1161
a(lp1162
aa(lp1163
(lp1164
a(lp1165
a(lp1166
a(lp1167
a(lp1168
aa(lp1169
(lp1170
a(lp1171
((lVhttp://dbpedia.org/resource/ISO_639:w
tp1172
aa(lp1173
a(lp1174
a(lp1175
aa(lp1176
(lp1177
a(lp1178
a(lp1179
a(lp1180
a(lp1181
aa(lp1182
(lp1183
a(lp1184
((lVhttp://dbpedia.org/resource/ISO_639:w
tp1185
aa(lp1186
a(lp1187
a(lp1188
aa(lp1189
(lp1190
a(lp1191
a(lp1192
a(lp1193
a(lp1194
aa(lp1195
(lp1196
a(lp1197
a(lp1198
a(lp1199
a(lp1200
aa(lp1201
(lp1202
a(lp1203
a(lp1204
a(lp1205
a(lp1206
aa(lp1207
(lp1208
a(lp1209
a(lp1210
a(lp1211
a(lp1212
aa(lp1213
(lp1214
a(lp1215
((lVhttp://dbpedia.org/resource/ISO_639:w
tp1216
aa(lp1217
a(lp1218
a(lp1219
aa(lp1220
(lp1221
a(lp1222
((lVhttp://dbpedia.org/resource/ISO_639:w
tp1223
aa(lp1224
a(lp1225
a(lp1226
aa(lp1227
(lp1228
a(lp1229
((lVhttp://dbpedia.org/resource/ISO_639:w
tp1230
aa(lp1231
a(lp1232
a(lp1233
aa(lp1234
(lp1235
a(lp1236
a(lp1237
a(lp1238
a(lp1239
aa(lp1240
(lp1241
a(lp1242
a(lp1243
a(lp1244
a(lp1245
aa(lp1246
(lp1247
a(lp1248
a(lp1249
a(lp1250
a(lp1251
aa(lp1252
(lp1253
a(lp1254
a(lp1255
a(lp1256
a(lp1257
aa(lp1258
(lp1259
a(lp1260
a(lp1261
a(lp1262
a(lp1263
aa(lp1264
(lp1265
a(lp1266
((lVhttp://dbpedia.org/resource/ISO_639:w
tp1267
aa(lp1268
a(lp1269
a(lp1270
aa(lp1271
(lp1272
a(lp1273
((lVhttp://dbpedia.org/resource/ISO_639:w
tp1274
aa(lp1275
a(lp1276
a(lp1277
aa(lp1278
(lp1279
a(lp1280
((lVhttp://dbpedia.org/resource/ISO_639:w
tp1281
aa(lp1282
a(lp1283
a(lp1284
aa(lp1285
(lp1286
a(lp1287
a(lp1288
a(lp1289
a(lp1290
aa(lp1291
(lp1292
a(lp1293
a(lp1294
a(lp1295
a(lp1296
aa(lp1297
(lp1298
a(lp1299
((lVhttp://dbpedia.org/resource/ISO_639:w
tp1300
aa(lp1301
a(lp1302
a(lp1303
aa(lp1304
(lp1305
a(lp1306
a(lp1307
a(lp1308
a(lp1309
aa(lp1310
(lp1311
a(lp1312
((lVhttp://dbpedia.org/resource/ISO_639:w
tp1313
aa(lp1314
a(lp1315
a(lp1316
aa(lp1317
(lp1318
a(lp1319
a(lp1320
a(lp1321
a(lp1322
aa(lp1323
(lp1324
a(lp1325
((lVhttp://dbpedia.org/resource/ISO_639:w
tp1326
aa(lp1327
a(lp1328
a(lp1329
aa(lp1330
(lp1331
a(lp1332
a(lp1333
a(lp1334
a(lp1335
aa(lp1336
(lp1337
a(lp1338
a(lp1339
a(lp1340
a(lp1341
aa(lp1342
(lp1343
a(lp1344
((lVhttp://dbpedia.org/resource/ISO_639:w
tp1345
aa(lp1346
a(lp1347
a(lp1348
aa(lp1349
(lp1350
a(lp1351
a(lp1352
a(lp1353
a(lp1354
aa(lp1355
(lp1356
a(lp1357
((lVhttp://dbpedia.org/resource/ISO_639:w
tp1358
aa(lp1359
a(lp1360
a(lp1361
aa(lp1362
(lp1363
a(lp1364
((lVhttp://dbpedia.org/resource/ISO_639:w
tp1365
aa(lp1366
a(lp1367
a(lp1368
aa(lp1369
(lp1370
a(lp1371
((lVhttp://dbpedia.org/resource/ISO_639:w
tp1372
aa(lp1373
a(lp1374
a(lp1375
aa(lp1376
(lp1377
a(lp1378
a(lp1379
a(lp1380
a(lp1381
aa(lp1382
(lp1383
a(lp1384
a(lp1385
a(lp1386
a(lp1387
aa(lp1388
(lp1389
a(lp1390
a(lp1391
a(lp1392
a(lp1393
aa(lp1394
(lp1395
a(lp1396
((lVhttp://dbpedia.org/resource/ISO_639:w
tp1397
aa(lp1398
a(lp1399
a(lp1400
aa(lp1401
(lp1402
a(lp1403
a(lp1404
a(lp1405
a(lp1406
aa(lp1407
(lp1408
a(lp1409
((lVhttp://dbpedia.org/resource/ISO_639:w
tp1410
aa(lp1411
a(lp1412
a(lp1413
aa(lp1414
(lp1415
a(lp1416
((lVhttp://dbpedia.org/resource/ISO_639:w
tp1417
aa(lp1418
a(lp1419
a(lp1420
aa(lp1421
(lp1422
a(lp1423
((lVhttp://dbpedia.org/resource/ISO_639:w
tp1424
aa(lp1425
a(lp1426
a(lp1427
aa(lp1428
(lp1429
a(lp1430
a(lp1431
a(lp1432
a(lp1433
aa(lp1434
(lp1435
a(lp1436
((lVhttp://dbpedia.org/resource/ISO_639:w
tp1437
aa(lp1438
a(lp1439
a(lp1440
aa(lp1441
(lp1442
a(lp1443
((lVhttp://dbpedia.org/resource/ISO_639:w
tp1444
aa(lp1445
a(lp1446
a(lp1447
aa(lp1448
(lp1449
a(lp1450
((lVhttp://dbpedia.org/resource/ISO_639:w
tp1451
aa(lp1452
a(lp1453
a(lp1454
aa(lp1455
(lp1456
a(lp1457
a(lp1458
a(lp1459
a(lp1460
aa(lp1461
(lp1462
a(lp1463
a(lp1464
a(lp1465
a(lp1466
aa(lp1467
(lp1468
a(lp1469
((lVhttp://dbpedia.org/resource/ISO_639:w
tp1470
aa(lp1471
a(lp1472
a(lp1473
aa(lp1474
(lp1475
a(lp1476
a(lp1477
a(lp1478
a(lp1479
aa(lp1480
(lp1481
a(lp1482
a(lp1483
a(lp1484
a(lp1485
aa(lp1486
(lp1487
a(lp1488
a(lp1489
a(lp1490
a(lp1491
aa(lp1492
(lp1493
a(lp1494
a(lp1495
a(lp1496
a(lp1497
aa(lp1498
(lp1499
a(lp1500
a(lp1501
a(lp1502
a(lp1503
aa(lp1504
(lp1505
a(lp1506
a(lp1507
a(lp1508
a(lp1509
aa(lp1510
(lp1511
a(lp1512
((lVhttp://dbpedia.org/resource/ISO_639:w
tp1513
aa(lp1514
a(lp1515
a(lp1516
aa(lp1517
(lp1518
a(lp1519
((lVhttp://dbpedia.org/resource/ISO_639:w
tp1520
aa(lp1521
a(lp1522
a(lp1523
aa(lp1524
(lp1525
a(lp1526
a(lp1527
a(lp1528
a(lp1529
aa(lp1530
(lp1531
a(lp1532
a(lp1533
a(lp1534
a(lp1535
aa(lp1536
(lp1537
a(lp1538
a(lp1539
a(lp1540
a(lp1541
aa(lp1542
(lp1543
a(lp1544
a(lp1545
a(lp1546
a(lp1547
aa(lp1548
(lp1549
a(lp1550
a(lp1551
a(lp1552
a(lp1553
aa(lp1554
(lp1555
a(lp1556
((lVhttp://dbpedia.org/resource/ISO_639:w
tp1557
aa(lp1558
a(lp1559
a(lp1560
aa(lp1561
(lp1562
a(lp1563
a(lp1564
a(lp1565
a(lp1566
aa(lp1567
(lp1568
a(lp1569
((lVhttp://dbpedia.org/resource/ISO_639:w
tp1570
aa(lp1571
a(lp1572
a(lp1573
aa(lp1574
(lp1575
a(lp1576
a(lp1577
a(lp1578
a(lp1579
aa(lp1580
(lp1581
a(lp1582
a(lp1583
a(lp1584
a(lp1585
aa(lp1586
(lp1587
a(lp1588
a(lp1589
a(lp1590
a(lp1591
aa(lp1592
(lp1593
a(lp1594
((lVhttp://dbpedia.org/resource/ISO_639:w
tp1595
aa(lp1596
a(lp1597
a(lp1598
aa(lp1599
(lp1600
a(lp1601
a(lp1602
a(lp1603
a(lp1604
aa(lp1605
(lp1606
a(lp1607
((lVhttp://dbpedia.org/resource/ISO_639:w
tp1608
aa(lp1609
a(lp1610
a(lp1611
aa(lp1612
(lp1613
a(lp1614
((lVhttp://dbpedia.org/resource/ISO_639:w
tp1615
aa(lp1616
a(lp1617
a(lp1618
aa(lp1619
(lp1620
a(lp1621
a(lp1622
a(lp1623
a(lp1624
aa(lp1625
(lp1626
a(lp1627
((lVhttp://dbpedia.org/resource/ISO_639:w
tp1628
aa(lp1629
a(lp1630
a(lp1631
aa(lp1632
(lp1633
((lp1634
Vhttp://www.w3.org/2002/07/owl#Thing
p1635
aVhttp://dbpedia.org/ontology/Place
p1636
aVhttp://dbpedia.org/ontology/Location
p1637
aVhttp://www.wikidata.org/entity/Q1248784
p1638
aVhttp://dbpedia.org/ontology/Airport
p1639
aVhttp://dbpedia.org/ontology/ArchitecturalStructure
p1640
aVhttp://dbpedia.org/ontology/Infrastructure
p1641
aVhttp://www.w3.org/2003/01/geo/wgs84_pos#SpatialThing
p1642
aVhttp://schema.org/Airport
p1643
aVhttp://schema.org/Place
p1644
aVhttp://dbpedia.org/resource/Charlotte_Douglas_International_Airport
tp1645
aa(lp1646
a(lp1647
a(lp1648
a(lp1649
aa(lp1650
(lp1651
a(lp1652
a(lp1653
a(lp1654
a(lp1655
aa(lp1656
(lp1657
a(lp1658
((lVhttp://dbpedia.org/resource/ISO_639:w
tp1659
aa(lp1660
a(lp1661
a(lp1662
aa(lp1663
(lp1664
a(lp1665
a(lp1666
a(lp1667
a(lp1668
aa(lp1669
(lp1670
a(lp1671
a(lp1672
a(lp1673
a(lp1674
aa(lp1675
(lp1676
a(lp1677
a(lp1678
a(lp1679
a(lp1680
aa(lp1681
(lp1682
a(lp1683
((lVhttp://dbpedia.org/resource/ISO_639:w
tp1684
aa(lp1685
a(lp1686
a(lp1687
aa(lp1688
(lp1689
a(lp1690
a(lp1691
a(lp1692
a(lp1693
aa(lp1694
(lp1695
a(lp1696
a(lp1697
a(lp1698
a(lp1699
aa(lp1700
(lp1701
a(lp1702
a(lp1703
a(lp1704
a(lp1705
aa(lp1706
(lp1707
a(lp1708
a(lp1709
a(lp1710
a(lp1711
aa(lp1712
(lp1713
a(lp1714
a(lp1715
a(lp1716
a(lp1717
aa(lp1718
(lp1719
a(lp1720
a(lp1721
a(lp1722
a(lp1723
aa(lp1724
(lp1725
a(lp1726
a(lp1727
a(lp1728
a(lp1729
aa(lp1730
(lp1731
a(lp1732
a(lp1733
a(lp1734
a(lp1735
aa(lp1736
(lp1737
a(lp1738
((lVhttp://dbpedia.org/resource/ISO_639:w
tp1739
aa(lp1740
a(lp1741
a(lp1742
aa(lp1743
(lp1744
a(lp1745
((lVhttp://dbpedia.org/resource/ISO_639:w
tp1746
aa(lp1747
a(lp1748
a(lp1749
aa(lp1750
(lp1751
a(lp1752
a(lp1753
a(lp1754
a(lp1755
aa(lp1756
(lp1757
a(lp1758
a(lp1759
a(lp1760
a(lp1761
aa(lp1762
(lp1763
a(lp1764
((lVhttp://dbpedia.org/resource/ISO_639:w
tp1765
aa(lp1766
a(lp1767
a(lp1768
aa(lp1769
(lp1770
a(lp1771
((lVhttp://dbpedia.org/resource/ISO_639:w
tp1772
aa(lp1773
a(lp1774
a(lp1775
aa(lp1776
(lp1777
a(lp1778
a(lp1779
a(lp1780
a(lp1781
aa(lp1782
(lp1783
a(lp1784
((lVhttp://dbpedia.org/resource/ISO_639:w
tp1785
aa(lp1786
a(lp1787
a(lp1788
aa(lp1789
(lp1790
a(lp1791
((lVhttp://dbpedia.org/resource/ISO_639:w
tp1792
aa(lp1793
a(lp1794
a(lp1795
aa(lp1796
(lp1797
a(lp1798
a(lp1799
a(lp1800
a(lp1801
aa(lp1802
(lp1803
a(lp1804
((lVhttp://dbpedia.org/resource/ISO_639:w
tp1805
aa(lp1806
a(lp1807
a(lp1808
aa(lp1809
(lp1810
a(lp1811
a(lp1812
a(lp1813
a(lp1814
aa(lp1815
(lp1816
a(lp1817
((lVhttp://dbpedia.org/resource/ISO_639:w
tp1818
aa(lp1819
a(lp1820
a(lp1821
aa(lp1822
(lp1823
a(lp1824
((lVhttp://dbpedia.org/resource/ISO_639:w
tp1825
aa(lp1826
a(lp1827
a(lp1828
aa(lp1829
(lp1830
a(lp1831
a(lp1832
a(lp1833
a(lp1834
aa(lp1835
(lp1836
a(lp1837
((lVhttp://dbpedia.org/resource/ISO_639:w
tp1838
aa(lp1839
a(lp1840
a(lp1841
aa(lp1842
(lp1843
a(lp1844
a(lp1845
a(lp1846
a(lp1847
aa(lp1848
(lp1849
a(lp1850
((lVhttp://dbpedia.org/resource/ISO_639:w
tp1851
aa(lp1852
a(lp1853
a(lp1854
aa(lp1855
(lp1856
a(lp1857
a(lp1858
a(lp1859
a(lp1860
aa(lp1861
(lp1862
a(lp1863
((lVhttp://dbpedia.org/resource/ISO_639:w
tp1864
aa(lp1865
a(lp1866
a(lp1867
aa(lp1868
(lp1869
a(lp1870
a(lp1871
a(lp1872
a(lp1873
((lVhttp://dbpedia.org/resource/Gott_mit_uns
tp1874
aaa(lp1875
(lp1876
a(lp1877
((lVhttp://dbpedia.org/resource/ISO_639:w
tp1878
aa(lp1879
a(lp1880
a(lp1881
((lVhttp://dbpedia.org/resource/Gott_mit_uns
tp1882
aaa(lp1883
(lp1884
a(lp1885
a(lp1886
a(lp1887
a(lp1888
aa(lp1889
(lp1890
a(lp1891
((lVhttp://dbpedia.org/resource/ISO_639:w
tp1892
aa(lp1893
a(lp1894
a(lp1895
aa(lp1896
(lp1897
a(lp1898
a(lp1899
a(lp1900
a(lp1901
aa(lp1902
(lp1903
a(lp1904
a(lp1905
a(lp1906
a(lp1907
aa(lp1908
(lp1909
a(lp1910
a(lp1911
a(lp1912
a(lp1913
aa(lp1914
(lp1915
a(lp1916
((lVhttp://dbpedia.org/resource/ISO_639:w
tp1917
aa(lp1918
a(lp1919
a(lp1920
aa(lp1921
(lp1922
a(lp1923
a(lp1924
a(lp1925
a(lp1926
aa(lp1927
(lp1928
a(lp1929
a(lp1930
a(lp1931
a(lp1932
aa(lp1933
(lp1934
a(lp1935
a(lp1936
a(lp1937
a(lp1938
aa(lp1939
(lp1940
a(lp1941
a(lp1942
a(lp1943
a(lp1944
aa(lp1945
(lp1946
a(lp1947
a(lp1948
a(lp1949
a(lp1950
aa(lp1951
(lp1952
a(lp1953
a(lp1954
a(lp1955
a(lp1956
aa(lp1957
(lp1958
a(lp1959
a(lp1960
a(lp1961
a(lp1962
aa(lp1963
(lp1964
a(lp1965
((lVhttp://dbpedia.org/resource/ISO_639:w
tp1966
aa(lp1967
a(lp1968
a(lp1969
aa(lp1970
(lp1971
a(lp1972
a(lp1973
a(lp1974
a(lp1975
aa(lp1976
(lp1977
a(lp1978
((lVhttp://dbpedia.org/resource/ISO_639:w
tp1979
aa(lp1980
a(lp1981
a(lp1982
aa(lp1983
(lp1984
a(lp1985
a(lp1986
a(lp1987
a(lp1988
aa(lp1989
(lp1990
a(lp1991
a(lp1992
a(lp1993
a(lp1994
aa(lp1995
(lp1996
a(lp1997
a(lp1998
a(lp1999
a(lp2000
aa(lp2001
(lp2002
a(lp2003
a(lp2004
a(lp2005
a(lp2006
aa(lp2007
(lp2008
a(lp2009
((lVhttp://dbpedia.org/resource/ISO_639:w
tp2010
aa(lp2011
a(lp2012
a(lp2013
aa(lp2014
(lp2015
a(lp2016
a(lp2017
a(lp2018
a(lp2019
aa(lp2020
(lp2021
a(lp2022
a(lp2023
a(lp2024
a(lp2025
aa(lp2026
(lp2027
a(lp2028
a(lp2029
a(lp2030
a(lp2031
aa(lp2032
(lp2033
a(lp2034
a(lp2035
a(lp2036
a(lp2037
aa(lp2038
(lp2039
a(lp2040
((lVhttp://dbpedia.org/resource/ISO_639:w
tp2041
aa(lp2042
a(lp2043
a(lp2044
aa(lp2045
(lp2046
a(lp2047
((lVhttp://dbpedia.org/resource/ISO_639:w
tp2048
aa(lp2049
a(lp2050
a(lp2051
aa(lp2052
(lp2053
a(lp2054
a(lp2055
a(lp2056
a(lp2057
aa(lp2058
(lp2059
a(lp2060
a(lp2061
a(lp2062
a(lp2063
aa(lp2064
(lp2065
a(lp2066
a(lp2067
a(lp2068
a(lp2069
aa(lp2070
(lp2071
a(lp2072
a(lp2073
a(lp2074
a(lp2075
aa(lp2076
(lp2077
a(lp2078
((lVhttp://dbpedia.org/resource/ISO_639:w
tp2079
aa(lp2080
a(lp2081
a(lp2082
aa(lp2083
(lp2084
a(lp2085
a(lp2086
a(lp2087
a(lp2088
aa(lp2089
(lp2090
a(lp2091
((lVhttp://dbpedia.org/resource/ISO_639:w
tp2092
aa(lp2093
a(lp2094
a(lp2095
aa(lp2096
(lp2097
a(lp2098
a(lp2099
a(lp2100
a(lp2101
aa(lp2102
(lp2103
a(lp2104
((lVhttp://dbpedia.org/resource/ISO_639:w
tp2105
aa(lp2106
a(lp2107
a(lp2108
aa(lp2109
(lp2110
a(lp2111
((lVhttp://dbpedia.org/resource/ISO_639:w
tp2112
aa(lp2113
a(lp2114
a(lp2115
aa(lp2116
(lp2117
a(lp2118
a(lp2119
a(lp2120
a(lp2121
aa(lp2122
(lp2123
a(lp2124
((lVhttp://dbpedia.org/resource/ISO_639:w
tp2125
aa(lp2126
a(lp2127
a(lp2128
aa(lp2129
(lp2130
a(lp2131
((lVhttp://dbpedia.org/resource/ISO_639:w
tp2132
aa(lp2133
a(lp2134
a(lp2135
aa(lp2136
(lp2137
a(lp2138
((lVhttp://dbpedia.org/resource/ISO_639:w
tp2139
aa(lp2140
a(lp2141
a(lp2142
aa(lp2143
(lp2144
a(lp2145
((lVhttp://dbpedia.org/resource/ISO_639:w
tp2146
aa(lp2147
a(lp2148
a(lp2149
aa(lp2150
(lp2151
a(lp2152
((lVhttp://dbpedia.org/resource/ISO_639:w
tp2153
aa(lp2154
a(lp2155
a(lp2156
aa(lp2157
(lp2158
a(lp2159
a(lp2160
a(lp2161
a(lp2162
aa(lp2163
(lp2164
a(lp2165
a(lp2166
a(lp2167
a(lp2168
aa(lp2169
(lp2170
a(lp2171
((lVhttp://dbpedia.org/resource/ISO_639:w
tp2172
aa(lp2173
a(lp2174
a(lp2175
aa(lp2176
(lp2177
a(lp2178
a(lp2179
a(lp2180
a(lp2181
aa(lp2182
(lp2183
a(lp2184
a(lp2185
a(lp2186
a(lp2187
aa(lp2188
(lp2189
a(lp2190
a(lp2191
a(lp2192
a(lp2193
aa(lp2194
(lp2195
a(lp2196
a(lp2197
a(lp2198
a(lp2199
aa(lp2200
(lp2201
a(lp2202
((lVhttp://dbpedia.org/resource/ISO_639:w
tp2203
aa(lp2204
a(lp2205
a(lp2206
aa(lp2207
(lp2208
a(lp2209
a(lp2210
a(lp2211
a(lp2212
aa(lp2213
(lp2214
a(lp2215
a(lp2216
a(lp2217
a(lp2218
aa(lp2219
(lp2220
a(lp2221
((lVhttp://dbpedia.org/resource/ISO_639:w
tp2222
aa(lp2223
a(lp2224
a(lp2225
aa(lp2226
(lp2227
a(lp2228
a(lp2229
a(lp2230
a(lp2231
aa(lp2232
(lp2233
a(lp2234
((lVhttp://dbpedia.org/resource/ISO_639:w
tp2235
aa(lp2236
a(lp2237
a(lp2238
aa(lp2239
(lp2240
a(lp2241
a(lp2242
a(lp2243
a(lp2244
aa(lp2245
(lp2246
a(lp2247
((lVhttp://dbpedia.org/resource/ISO_639:w
tp2248
aa(lp2249
a(lp2250
a(lp2251
aa(lp2252
(lp2253
a(lp2254
a(lp2255
a(lp2256
a(lp2257
aa(lp2258
(lp2259
a(lp2260
a(lp2261
a(lp2262
a(lp2263
aa(lp2264
(lp2265
a(lp2266
a(lp2267
a(lp2268
a(lp2269
aa(lp2270
(lp2271
a(lp2272
((lVhttp://dbpedia.org/resource/ISO_639:w
tp2273
aa(lp2274
a(lp2275
a(lp2276
aa(lp2277
(lp2278
a(lp2279
a(lp2280
a(lp2281
a(lp2282
aa(lp2283
(lp2284
a(lp2285
((lVhttp://dbpedia.org/resource/ISO_639:w
tp2286
aa(lp2287
a(lp2288
a(lp2289
aa(lp2290
(lp2291
a(lp2292
a(lp2293
a(lp2294
a(lp2295
aa(lp2296
(lp2297
a(lp2298
a(lp2299
a(lp2300
a(lp2301
aa(lp2302
(lp2303
a(lp2304
((lVhttp://dbpedia.org/resource/ISO_639:w
tp2305
aa(lp2306
a(lp2307
a(lp2308
aa(lp2309
(lp2310
a(lp2311
a(lp2312
a(lp2313
a(lp2314
aa(lp2315
(lp2316
a(lp2317
a(lp2318
a(lp2319
a(lp2320
aa(lp2321
(lp2322
a(lp2323
((lVhttp://dbpedia.org/resource/ISO_639:w
tp2324
aa(lp2325
a(lp2326
a(lp2327
aa(lp2328
(lp2329
a(lp2330
a(lp2331
a(lp2332
a(lp2333
aa(lp2334
(lp2335
a(lp2336
((lVhttp://dbpedia.org/resource/ISO_639:w
tp2337
aa(lp2338
a(lp2339
a(lp2340
aa(lp2341
(lp2342
a(lp2343
((lVhttp://dbpedia.org/resource/ISO_639:w
tp2344
aa(lp2345
a(lp2346
a(lp2347
aa(lp2348
(lp2349
a(lp2350
((lVhttp://dbpedia.org/resource/ISO_639:w
tp2351
aa(lp2352
a(lp2353
a(lp2354
aa(lp2355
(lp2356
a(lp2357
a(lp2358
a(lp2359
a(lp2360
aa(lp2361
(lp2362
a(lp2363
a(lp2364
a(lp2365
a(lp2366
aa(lp2367
(lp2368
a(lp2369
a(lp2370
a(lp2371
a(lp2372
aa(lp2373
(lp2374
a(lp2375
((lVhttp://dbpedia.org/resource/ISO_639:w
tp2376
aa(lp2377
a(lp2378
a(lp2379
aa(lp2380
(lp2381
a(lp2382
((lVhttp://dbpedia.org/resource/ISO_639:w
tp2383
aa(lp2384
a(lp2385
a(lp2386
aa(lp2387
(lp2388
a(lp2389
a(lp2390
a(lp2391
a(lp2392
aa(lp2393
(lp2394
a(lp2395
a(lp2396
a(lp2397
a(lp2398
aa(lp2399
(lp2400
a(lp2401
a(lp2402
a(lp2403
a(lp2404
aa(lp2405
(lp2406
a(lp2407
a(lp2408
a(lp2409
a(lp2410
aa(lp2411
(lp2412
a(lp2413
((lVhttp://dbpedia.org/resource/ISO_639:w
tp2414
aa(lp2415
a(lp2416
a(lp2417
aa(lp2418
(lp2419
a(lp2420
a(lp2421
a(lp2422
a(lp2423
aa(lp2424
(lp2425
a(lp2426
a(lp2427
a(lp2428
a(lp2429
aa(lp2430
(lp2431
a(lp2432
((lVhttp://dbpedia.org/resource/ISO_639:w
tp2433
aa(lp2434
a(lp2435
a(lp2436
aa(lp2437
(lp2438
a(lp2439
a(lp2440
a(lp2441
a(lp2442
aa(lp2443
(lp2444
a(lp2445
a(lp2446
a(lp2447
a(lp2448
aa(lp2449
(lp2450
a(lp2451
((lVhttp://dbpedia.org/resource/ISO_639:w
tp2452
aa(lp2453
a(lp2454
a(lp2455
aa(lp2456
(lp2457
a(lp2458
a(lp2459
a(lp2460
a(lp2461
aa(lp2462
(lp2463
a(lp2464
a(lp2465
a(lp2466
a(lp2467
aa(lp2468
(lp2469
a(lp2470
a(lp2471
a(lp2472
a(lp2473
aa(lp2474
(lp2475
a(lp2476
a(lp2477
a(lp2478
a(lp2479
aa(lp2480
(lp2481
a(lp2482
a(lp2483
a(lp2484
a(lp2485
aa(lp2486
(lp2487
a(lp2488
a(lp2489
a(lp2490
a(lp2491
aa(lp2492
(lp2493
a(lp2494
((lVhttp://dbpedia.org/resource/ISO_639:w
tp2495
aa(lp2496
a(lp2497
a(lp2498
aa(lp2499
(lp2500
a(lp2501
a(lp2502
a(lp2503
a(lp2504
aa(lp2505
(lp2506
a(lp2507
a(lp2508
a(lp2509
a(lp2510
aa(lp2511
(lp2512
a(lp2513
a(lp2514
a(lp2515
a(lp2516
aa(lp2517
(lp2518
a(lp2519
a(lp2520
a(lp2521
a(lp2522
aa(lp2523
(lp2524
a(lp2525
a(lp2526
a(lp2527
a(lp2528
aa(lp2529
(lp2530
a(lp2531
((lVhttp://dbpedia.org/resource/ISO_639:w
tp2532
aa(lp2533
a(lp2534
a(lp2535
aa(lp2536
(lp2537
a(lp2538
((lVhttp://dbpedia.org/resource/ISO_639:w
tp2539
aa(lp2540
a(lp2541
a(lp2542
aa(lp2543
(lp2544
a(lp2545
((lVhttp://dbpedia.org/resource/ISO_639:w
tp2546
aa(lp2547
a(lp2548
a(lp2549
aa(lp2550
(lp2551
a(lp2552
a(lp2553
a(lp2554
a(lp2555
aa(lp2556
(lp2557
a(lp2558
a(lp2559
a(lp2560
a(lp2561
aa(lp2562
(lp2563
a(lp2564
a(lp2565
a(lp2566
a(lp2567
aa(lp2568
(lp2569
a(lp2570
((lVhttp://dbpedia.org/resource/ISO_639:w
tp2571
aa(lp2572
a(lp2573
a(lp2574
aa(lp2575
(lp2576
a(lp2577
a(lp2578
a(lp2579
a(lp2580
aa(lp2581
(lp2582
a(lp2583
a(lp2584
a(lp2585
a(lp2586
aa(lp2587
(lp2588
a(lp2589
a(lp2590
a(lp2591
a(lp2592
aa(lp2593
(lp2594
a(lp2595
a(lp2596
a(lp2597
a(lp2598
aa(lp2599
(lp2600
a(lp2601
((lVhttp://dbpedia.org/resource/ISO_639:w
tp2602
aa(lp2603
a(lp2604
a(lp2605
aa(lp2606
(lp2607
a(lp2608
a(lp2609
a(lp2610
a(lp2611
aa(lp2612
(lp2613
a(lp2614
a(lp2615
a(lp2616
a(lp2617
aa(lp2618
(lp2619
a(lp2620
a(lp2621
a(lp2622
a(lp2623
aa(lp2624
(lp2625
a(lp2626
((lVhttp://dbpedia.org/resource/ISO_639:w
tp2627
aa(lp2628
a(lp2629
a(lp2630
aa(lp2631
(lp2632
a(lp2633
a(lp2634
a(lp2635
a(lp2636
aa(lp2637
(lp2638
a(lp2639
((lVhttp://dbpedia.org/resource/ISO_639:w
tp2640
aa(lp2641
a(lp2642
a(lp2643
aa(lp2644
(lp2645
a(lp2646
a(lp2647
a(lp2648
a(lp2649
aa(lp2650
(lp2651
a(lp2652
a(lp2653
a(lp2654
a(lp2655
aa(lp2656
(lp2657
a(lp2658
((lVhttp://dbpedia.org/resource/ISO_639:w
tp2659
aa(lp2660
a(lp2661
a(lp2662
aa(lp2663
(lp2664
a(lp2665
a(lp2666
a(lp2667
a(lp2668
aa(lp2669
(lp2670
a(lp2671
a(lp2672
a(lp2673
a(lp2674
aa(lp2675
(lp2676
a(lp2677
((lVhttp://dbpedia.org/resource/ISO_639:w
tp2678
aa(lp2679
a(lp2680
a(lp2681
aa(lp2682
(lp2683
a(lp2684
a(lp2685
a(lp2686
a(lp2687
aa(lp2688
(lp2689
a(lp2690
a(lp2691
a(lp2692
a(lp2693
aa(lp2694
(lp2695
a(lp2696
a(lp2697
a(lp2698
a(lp2699
aa(lp2700
(lp2701
a(lp2702
((lVhttp://dbpedia.org/resource/ISO_639:w
tp2703
aa(lp2704
a(lp2705
a(lp2706
aa(lp2707
(lp2708
a(lp2709
((lVhttp://dbpedia.org/resource/ISO_639:w
tp2710
aa(lp2711
a(lp2712
a(lp2713
aa(lp2714
(lp2715
a(lp2716
a(lp2717
a(lp2718
a(lp2719
aa(lp2720
(lp2721
a(lp2722
((lVhttp://dbpedia.org/resource/ISO_639:w
tp2723
aa(lp2724
a(lp2725
a(lp2726
aa(lp2727
(lp2728
a(lp2729
a(lp2730
a(lp2731
a(lp2732
aa(lp2733
(lp2734
a(lp2735
((lVhttp://dbpedia.org/resource/ISO_639:w
tp2736
aa(lp2737
a(lp2738
a(lp2739
aa(lp2740
(lp2741
a(lp2742
a(lp2743
a(lp2744
a(lp2745
aa(lp2746
(lp2747
a(lp2748
a(lp2749
a(lp2750
a(lp2751
aa(lp2752
(lp2753
a(lp2754
a(lp2755
a(lp2756
a(lp2757
aa(lp2758
(lp2759
a(lp2760
a(lp2761
a(lp2762
a(lp2763
aa(lp2764
(lp2765
a(lp2766
a(lp2767
a(lp2768
a(lp2769
aa(lp2770
(lp2771
a(lp2772
a(lp2773
a(lp2774
a(lp2775
aa(lp2776
(lp2777
a(lp2778
((lVhttp://dbpedia.org/resource/ISO_639:w
tp2779
aa(lp2780
a(lp2781
a(lp2782
aa(lp2783
(lp2784
a(lp2785
a(lp2786
a(lp2787
a(lp2788
aa(lp2789
(lp2790
a(lp2791
a(lp2792
a(lp2793
a(lp2794
aa(lp2795
(lp2796
a(lp2797
a(lp2798
a(lp2799
a(lp2800
aa(lp2801
(lp2802
a(lp2803
a(lp2804
a(lp2805
a(lp2806
aa(lp2807
(lp2808
a(lp2809
a(lp2810
a(lp2811
a(lp2812
aa(lp2813
(lp2814
a(lp2815
a(lp2816
a(lp2817
a(lp2818
aa(lp2819
(lp2820
a(lp2821
((lVhttp://dbpedia.org/resource/ISO_639:w
tp2822
aa(lp2823
a(lp2824
a(lp2825
aa(lp2826
(lp2827
a(lp2828
a(lp2829
a(lp2830
a(lp2831
aa(lp2832
(lp2833
a(lp2834
a(lp2835
a(lp2836
a(lp2837
aa(lp2838
(lp2839
a(lp2840
a(lp2841
a(lp2842
a(lp2843
aa(lp2844
(lp2845
a(lp2846
((lVhttp://dbpedia.org/resource/ISO_639:w
tp2847
aa(lp2848
a(lp2849
a(lp2850
aa(lp2851
(lp2852
a(lp2853
a(lp2854
a(lp2855
a(lp2856
aa(lp2857
(lp2858
a(lp2859
((lVhttp://dbpedia.org/resource/ISO_639:w
tp2860
aa(lp2861
a(lp2862
a(lp2863
aa(lp2864
(lp2865
a(lp2866
a(lp2867
a(lp2868
a(lp2869
aa(lp2870
(lp2871
a(lp2872
((lVhttp://dbpedia.org/resource/ISO_639:w
tp2873
aa(lp2874
a(lp2875
a(lp2876
aa(lp2877
(lp2878
a(lp2879
a(lp2880
a(lp2881
a(lp2882
aa(lp2883
(lp2884
a(lp2885
a(lp2886
a(lp2887
a(lp2888
aa(lp2889
(lp2890
a(lp2891
a(lp2892
a(lp2893
a(lp2894
aa(lp2895
(lp2896
a(lp2897
a(lp2898
a(lp2899
a(lp2900
aa(lp2901
(lp2902
a(lp2903
((lVhttp://dbpedia.org/resource/ISO_639:w
tp2904
aa(lp2905
a(lp2906
a(lp2907
aa(lp2908
(lp2909
a(lp2910
a(lp2911
a(lp2912
a(lp2913
aa(lp2914
(lp2915
a(lp2916
((lVhttp://dbpedia.org/resource/ISO_639:w
tp2917
aa(lp2918
a(lp2919
a(lp2920
aa(lp2921
(lp2922
a(lp2923
a(lp2924
a(lp2925
a(lp2926
aa(lp2927
(lp2928
a(lp2929
a(lp2930
a(lp2931
a(lp2932
aa(lp2933
(lp2934
a(lp2935
((lVhttp://dbpedia.org/resource/ISO_639:w
tp2936
aa(lp2937
a(lp2938
a(lp2939
aa(lp2940
(lp2941
a(lp2942
a(lp2943
a(lp2944
a(lp2945
aa(lp2946
(lp2947
a(lp2948
a(lp2949
a(lp2950
a(lp2951
aa(lp2952
(lp2953
a(lp2954
a(lp2955
a(lp2956
a(lp2957
aa(lp2958
(lp2959
a(lp2960
a(lp2961
a(lp2962
a(lp2963
aa(lp2964
(lp2965
a(lp2966
a(lp2967
a(lp2968
a(lp2969
aa(lp2970
(lp2971
a(lp2972
a(lp2973
a(lp2974
a(lp2975
aa(lp2976
(lp2977
a(lp2978
a(lp2979
a(lp2980
a(lp2981
aa(lp2982
(lp2983
a(lp2984
a(lp2985
a(lp2986
a(lp2987
aa(lp2988
(lp2989
a(lp2990
a(lp2991
a(lp2992
a(lp2993
aa(lp2994
(lp2995
a(lp2996
a(lp2997
a(lp2998
a(lp2999
aa(lp3000
(lp3001
a(lp3002
((lVhttp://dbpedia.org/resource/ISO_639:w
tp3003
aa(lp3004
a(lp3005
a(lp3006
aa(lp3007
(lp3008
a(lp3009
((lVhttp://dbpedia.org/resource/ISO_639:w
tp3010
aa(lp3011
a(lp3012
a(lp3013
aa(lp3014
(lp3015
a(lp3016
a(lp3017
a(lp3018
a(lp3019
aa(lp3020
(lp3021
a(lp3022
a(lp3023
a(lp3024
a(lp3025
aa(lp3026
(lp3027
a(lp3028
a(lp3029
a(lp3030
a(lp3031
aa(lp3032
(lp3033
a(lp3034
((lVhttp://dbpedia.org/resource/ISO_639:w
tp3035
aa(lp3036
a(lp3037
a(lp3038
aa(lp3039
(lp3040
a(lp3041
a(lp3042
a(lp3043
a(lp3044
aa(lp3045
(lp3046
a(lp3047
a(lp3048
a(lp3049
a(lp3050
aa(lp3051
(lp3052
a(lp3053
a(lp3054
a(lp3055
a(lp3056
aa(lp3057
(lp3058
a(lp3059
a(lp3060
a(lp3061
a(lp3062
aa(lp3063
(lp3064
a(lp3065
((lVhttp://dbpedia.org/resource/ISO_639:w
tp3066
aa(lp3067
a(lp3068
a(lp3069
aa(lp3070
(lp3071
a(lp3072
((lVhttp://dbpedia.org/resource/ISO_639:w
tp3073
aa(lp3074
a(lp3075
a(lp3076
aa(lp3077
(lp3078
a(lp3079
a(lp3080
a(lp3081
((lp3082
Vhttp://www.w3.org/2002/07/owl#Thing
p3083
aVhttp://dbpedia.org/class/yago/Abstraction100002137
p3084
aVhttp://dbpedia.org/class/yago/Class107997703
p3085
aVhttp://dbpedia.org/class/yago/Collection107951464
p3086
aVhttp://dbpedia.org/class/yago/Communication100033020
p3087
aVhttp://dbpedia.org/class/yago/Group100031264
p3088
aVhttp://dbpedia.org/class/yago/Language106282651
p3089
aVhttp://dbpedia.org/class/yago/NorthGermanicLanguages
p3090
aVhttp://dbpedia.org/resource/North_Germanic_languages
tp3091
aa(lp3092
aa(lp3093
(lp3094
a(lp3095
a(lp3096
a(lp3097
a(lp3098
aa(lp3099
(lp3100
a(lp3101
a(lp3102
a(lp3103
a(lp3104
aa(lp3105
(lp3106
a(lp3107
a(lp3108
a(lp3109
a(lp3110
aa(lp3111
(lp3112
a(lp3113
a(lp3114
a(lp3115
a(lp3116
aa(lp3117
(lp3118
a(lp3119
a(lp3120
a(lp3121
a(lp3122
aa(lp3123
(lp3124
a(lp3125
((lVhttp://dbpedia.org/resource/ISO_639:w
tp3126
aa(lp3127
a(lp3128
a(lp3129
aa(lp3130
(lp3131
a(lp3132
a(lp3133
a(lp3134
a(lp3135
aa(lp3136
(lp3137
a(lp3138
a(lp3139
a(lp3140
a(lp3141
aa(lp3142
(lp3143
a(lp3144
((lVhttp://dbpedia.org/resource/ISO_639:w
tp3145
aa(lp3146
a(lp3147
a(lp3148
aa(lp3149
(lp3150
a(lp3151
a(lp3152
a(lp3153
a(lp3154
aa(lp3155
(lp3156
a(lp3157
((lVhttp://dbpedia.org/resource/ISO_639:w
tp3158
aa(lp3159
a(lp3160
a(lp3161
aa(lp3162
(lp3163
a(lp3164
a(lp3165
a(lp3166
a(lp3167
aa(lp3168
(lp3169
a(lp3170
a(lp3171
a(lp3172
a(lp3173
aa(lp3174
(lp3175
a(lp3176
((lVhttp://dbpedia.org/resource/ISO_639:w
tp3177
aa(lp3178
a(lp3179
a(lp3180
aa(lp3181
(lp3182
a(lp3183
a(lp3184
a(lp3185
a(lp3186
aa(lp3187
(lp3188
a(lp3189
a(lp3190
a(lp3191
a(lp3192
aa(lp3193
(lp3194
a(lp3195
((lVhttp://dbpedia.org/resource/ISO_639:w
tp3196
aa(lp3197
a(lp3198
a(lp3199
aa(lp3200
(lp3201
((lp3202
Vhttp://www.w3.org/2002/07/owl#Thing
p3203
aVhttp://xmlns.com/foaf/0.1/Person
p3204
aVhttp://dbpedia.org/ontology/Person
p3205
aVhttp://www.ontologydesignpatterns.org/ont/dul/DUL.owl#Agent
p3206
aVhttp://www.ontologydesignpatterns.org/ont/dul/DUL.owl#NaturalPerson
p3207
aVhttp://www.wikidata.org/entity/Q215627
p3208
aVhttp://www.wikidata.org/entity/Q5
p3209
aVhttp://dbpedia.org/ontology/Agent
p3210
aVhttp://schema.org/Person
p3211
aVhttp://dbpedia.org/class/Book
p3212
aVhttp://umbel.org/umbel/rc/PersonWithOccupation
p3213
aVhttp://dbpedia.org/class/yago/4th-centuryBCGreekPeople
p3214
aVhttp://dbpedia.org/class/yago/5th-centuryBCGreekPeople
p3215
aVhttp://dbpedia.org/class/yago/Adult109605289
p3216
aVhttp://dbpedia.org/class/yago/AncientGreekPhysicians
p3217
aVhttp://dbpedia.org/class/yago/AncientGreekScienceWriters
p3218
aVhttp://dbpedia.org/class/yago/CausalAgent100007347
p3219
aVhttp://dbpedia.org/class/yago/Communicator109610660
p3220
aVhttp://dbpedia.org/class/yago/Doctor110020890
p3221
aVhttp://dbpedia.org/class/yago/HealthProfessional110165109
p3222
aVhttp://dbpedia.org/class/yago/Humanist110191192
p3223
aVhttp://dbpedia.org/class/yago/Intellectual109621545
p3224
aVhttp://dbpedia.org/class/yago/LivingThing100004258
p3225
aVhttp://dbpedia.org/class/yago/Object100002684
p3226
aVhttp://dbpedia.org/class/yago/Organism100004475
p3227
aVhttp://dbpedia.org/class/yago/Person100007846
p3228
aVhttp://dbpedia.org/class/yago/Professional110480253
p3229
aVhttp://dbpedia.org/class/yago/Scholar110557854
p3230
aVhttp://dbpedia.org/class/yago/Whole100003553
p3231
aVhttp://dbpedia.org/class/yago/Writer110794014
p3232
aVhttp://dbpedia.org/class/yago/YagoLegalActorGeo
p3233
aVhttp://dbpedia.org/class/yago/ClassicalHumanists
p3234
aVhttp://dbpedia.org/class/yago/MedicalPractitioner110305802
p3235
aVhttp://dbpedia.org/class/yago/PhysicalEntity100001930
p3236
aVhttp://dbpedia.org/class/yago/IonicGreekWriters
p3237
aVhttp://dbpedia.org/class/yago/YagoLegalActor
p3238
aVhttp://dbpedia.org/resource/Hippocrates
tp3239
aa(lp3240
a(lp3241
a(lp3242
a(lp3243
aa(lp3244
(lp3245
a(lp3246
a(lp3247
a(lp3248
a(lp3249
aa(lp3250
(lp3251
a(lp3252
a(lp3253
a(lp3254
a(lp3255
aa(lp3256
(lp3257
a(lp3258
a(lp3259
a(lp3260
a(lp3261
aa(lp3262
(lp3263
a(lp3264
((lVhttp://dbpedia.org/resource/ISO_639:w
tp3265
aa(lp3266
a(lp3267
a(lp3268
aa(lp3269
(lp3270
a(lp3271
a(lp3272
a(lp3273
a(lp3274
aa(lp3275
(lp3276
a(lp3277
((lVhttp://dbpedia.org/resource/ISO_639:w
tp3278
aa(lp3279
a(lp3280
a(lp3281
aa(lp3282
(lp3283
a(lp3284
((lVhttp://dbpedia.org/resource/ISO_639:w
tp3285
aa(lp3286
a(lp3287
a(lp3288
aa(lp3289
(lp3290
a(lp3291
a(lp3292
a(lp3293
a(lp3294
aa(lp3295
(lp3296
a(lp3297
a(lp3298
a(lp3299
a(lp3300
aa(lp3301
(lp3302
a(lp3303
a(lp3304
a(lp3305
a(lp3306
aa(lp3307
(lp3308
a(lp3309
a(lp3310
a(lp3311
a(lp3312
aa(lp3313
(lp3314
a(lp3315
((lVhttp://dbpedia.org/resource/ISO_639:w
tp3316
aa(lp3317
a(lp3318
a(lp3319
aa(lp3320
(lp3321
a(lp3322
a(lp3323
a(lp3324
a(lp3325
aa(lp3326
(lp3327
a(lp3328
((lVhttp://dbpedia.org/resource/ISO_639:w
tp3329
aa(lp3330
a(lp3331
a(lp3332
aa(lp3333
(lp3334
a(lp3335
a(lp3336
a(lp3337
a(lp3338
aa(lp3339
(lp3340
a(lp3341
((lVhttp://dbpedia.org/resource/ISO_639:w
tp3342
aa(lp3343
a(lp3344
a(lp3345
aa(lp3346
(lp3347
a(lp3348
a(lp3349
a(lp3350
a(lp3351
aa(lp3352
(lp3353
a(lp3354
((lVhttp://dbpedia.org/resource/ISO_639:w
tp3355
aa(lp3356
a(lp3357
a(lp3358
aa(lp3359
(lp3360
a(lp3361
a(lp3362
a(lp3363
a(lp3364
((lVhttp://dbpedia.org/resource/Gott_mit_uns
tp3365
aaa(lp3366
(lp3367
a(lp3368
((lVhttp://dbpedia.org/resource/ISO_639:w
tp3369
aa(lp3370
a(lp3371
a(lp3372
aa(lp3373
(lp3374
a(lp3375
((lVhttp://dbpedia.org/resource/ISO_639:w
tp3376
aa(lp3377
a(lp3378
a(lp3379
aa(lp3380
(lp3381
a(lp3382
a(lp3383
a(lp3384
a(lp3385
aa(lp3386
(lp3387
a(lp3388
((lVhttp://dbpedia.org/resource/ISO_639:w
tp3389
aa(lp3390
a(lp3391
a(lp3392
aa(lp3393
(lp3394
a(lp3395
((lVhttp://dbpedia.org/resource/ISO_639:w
tp3396
aa(lp3397
a(lp3398
a(lp3399
aa(lp3400
(lp3401
a(lp3402
((lVhttp://dbpedia.org/resource/ISO_639:w
tp3403
aa(lp3404
a(lp3405
a(lp3406
aa(lp3407
(lp3408
a(lp3409
a(lp3410
a(lp3411
a(lp3412
aa(lp3413
(lp3414
a(lp3415
((lVhttp://dbpedia.org/resource/ISO_639:w
tp3416
aa(lp3417
a(lp3418
a(lp3419
aa(lp3420
(lp3421
a(lp3422
a(lp3423
a(lp3424
a(lp3425
aa(lp3426
(lp3427
a(lp3428
((lVhttp://dbpedia.org/resource/ISO_639:w
tp3429
aa(lp3430
a(lp3431
a(lp3432
aa(lp3433
(lp3434
a(lp3435
((lVhttp://dbpedia.org/resource/ISO_639:w
tp3436
aa(lp3437
a(lp3438
a(lp3439
aa(lp3440
(lp3441
a(lp3442
((lVhttp://dbpedia.org/resource/ISO_639:w
tp3443
aa(lp3444
a(lp3445
a(lp3446
aa(lp3447
(lp3448
a(lp3449
a(lp3450
a(lp3451
a(lp3452
aa(lp3453
(lp3454
a(lp3455
a(lp3456
a(lp3457
a(lp3458
aa(lp3459
(lp3460
a(lp3461
((lVhttp://dbpedia.org/resource/ISO_639:w
tp3462
aa(lp3463
a(lp3464
a(lp3465
aa(lp3466
(lp3467
a(lp3468
a(lp3469
a(lp3470
a(lp3471
aa(lp3472
(lp3473
a(lp3474
a(lp3475
a(lp3476
a(lp3477
aa(lp3478
(lp3479
a(lp3480
a(lp3481
a(lp3482
a(lp3483
aa(lp3484
(lp3485
a(lp3486
((lVhttp://dbpedia.org/resource/ISO_639:w
tp3487
aa(lp3488
a(lp3489
a(lp3490
aa(lp3491
(lp3492
a(lp3493
a(lp3494
a(lp3495
a(lp3496
aa(lp3497
(lp3498
a(lp3499
((lVhttp://dbpedia.org/resource/ISO_639:w
tp3500
aa(lp3501
a(lp3502
a(lp3503
aa(lp3504
(lp3505
a(lp3506
a(lp3507
a(lp3508
a(lp3509
aa(lp3510
(lp3511
a(lp3512
a(lp3513
a(lp3514
a(lp3515
aa(lp3516
(lp3517
a(lp3518
a(lp3519
a(lp3520
a(lp3521
aa(lp3522
(lp3523
a(lp3524
a(lp3525
a(lp3526
a(lp3527
aa(lp3528
(lp3529
a(lp3530
a(lp3531
a(lp3532
a(lp3533
aa(lp3534
(lp3535
a(lp3536
((lVhttp://dbpedia.org/resource/ISO_639:w
tp3537
aa(lp3538
a(lp3539
a(lp3540
aa(lp3541
(lp3542
a(lp3543
a(lp3544
a(lp3545
a(lp3546
aa(lp3547
(lp3548
a(lp3549
a(lp3550
a(lp3551
a(lp3552
aa(lp3553
(lp3554
a(lp3555
a(lp3556
a(lp3557
a(lp3558
aa(lp3559
(lp3560
a(lp3561
a(lp3562
a(lp3563
a(lp3564
aa(lp3565
(lp3566
a(lp3567
a(lp3568
a(lp3569
a(lp3570
aa(lp3571
(lp3572
a(lp3573
a(lp3574
a(lp3575
a(lp3576
aa(lp3577
(lp3578
a(lp3579
((lVhttp://dbpedia.org/resource/ISO_639:w
tp3580
aa(lp3581
a(lp3582
a(lp3583
aa(lp3584
(lp3585
a(lp3586
a(lp3587
a(lp3588
a(lp3589
aa(lp3590
(lp3591
a(lp3592
a(lp3593
a(lp3594
a(lp3595
aa(lp3596
(lp3597
a(lp3598
a(lp3599
a(lp3600
a(lp3601
aa(lp3602
(lp3603
a(lp3604
a(lp3605
a(lp3606
a(lp3607
aa(lp3608
(lp3609
a(lp3610
((lVhttp://dbpedia.org/resource/ISO_639:w
tp3611
aa(lp3612
a(lp3613
a(lp3614
aa(lp3615
(lp3616
a(lp3617
a(lp3618
a(lp3619
a(lp3620
aa(lp3621
(lp3622
a(lp3623
a(lp3624
a(lp3625
a(lp3626
aa(lp3627
(lp3628
a(lp3629
((lVhttp://dbpedia.org/resource/ISO_639:w
tp3630
aa(lp3631
a(lp3632
a(lp3633
aa(lp3634
(lp3635
a(lp3636
a(lp3637
a(lp3638
a(lp3639
aa(lp3640
(lp3641
a(lp3642
((lVhttp://dbpedia.org/resource/ISO_639:w
tp3643
aa(lp3644
a(lp3645
a(lp3646
aa(lp3647
(lp3648
a(lp3649
a(lp3650
a(lp3651
a(lp3652
aa(lp3653
(lp3654
a(lp3655
a(lp3656
a(lp3657
a(lp3658
aa(lp3659
(lp3660
a(lp3661
a(lp3662
a(lp3663
a(lp3664
aa(lp3665
(lp3666
a(lp3667
((lVhttp://dbpedia.org/resource/ISO_639:w
tp3668
aa(lp3669
a(lp3670
a(lp3671
aa(lp3672
(lp3673
a(lp3674
((lVhttp://dbpedia.org/resource/ISO_639:w
tp3675
aa(lp3676
a(lp3677
a(lp3678
aa(lp3679
(lp3680
a(lp3681
a(lp3682
a(lp3683
a(lp3684
aa(lp3685
(lp3686
a(lp3687
a(lp3688
a(lp3689
a(lp3690
aa(lp3691
(lp3692
a(lp3693
a(lp3694
a(lp3695
a(lp3696
aa(lp3697
(lp3698
a(lp3699
a(lp3700
a(lp3701
a(lp3702
aa(lp3703
(lp3704
a(lp3705
a(lp3706
a(lp3707
a(lp3708
aa(lp3709
(lp3710
a(lp3711
((lVhttp://dbpedia.org/resource/ISO_639:w
tp3712
aa(lp3713
a(lp3714
a(lp3715
aa(lp3716
(lp3717
a(lp3718
a(lp3719
a(lp3720
a(lp3721
aa(lp3722
(lp3723
a(lp3724
a(lp3725
a(lp3726
a(lp3727
aa(lp3728
(lp3729
a(lp3730
a(lp3731
a(lp3732
a(lp3733
aa(lp3734
(lp3735
a(lp3736
a(lp3737
a(lp3738
a(lp3739
aa(lp3740
(lp3741
a(lp3742
((lVhttp://dbpedia.org/resource/ISO_639:w
tp3743
aa(lp3744
a(lp3745
a(lp3746
aa(lp3747
(lp3748
a(lp3749
a(lp3750
a(lp3751
a(lp3752
aa(lp3753
(lp3754
a(lp3755
a(lp3756
a(lp3757
a(lp3758
aa(lp3759
(lp3760
a(lp3761
a(lp3762
a(lp3763
a(lp3764
aa(lp3765
(lp3766
a(lp3767
a(lp3768
a(lp3769
a(lp3770
aa(lp3771
(lp3772
a(lp3773
((lVhttp://dbpedia.org/resource/ISO_639:w
tp3774
aa(lp3775
a(lp3776
a(lp3777
aa(lp3778
(lp3779
a(lp3780
a(lp3781
a(lp3782
a(lp3783
aa(lp3784
(lp3785
a(lp3786
a(lp3787
a(lp3788
a(lp3789
aa(lp3790
(lp3791
a(lp3792
a(lp3793
a(lp3794
a(lp3795
aa(lp3796
(lp3797
a(lp3798
a(lp3799
a(lp3800
a(lp3801
aa(lp3802
(lp3803
a(lp3804
a(lp3805
a(lp3806
a(lp3807
aa(lp3808
(lp3809
a(lp3810
((lVhttp://dbpedia.org/resource/ISO_639:w
tp3811
aa(lp3812
a(lp3813
a(lp3814
aa(lp3815
(lp3816
a(lp3817
a(lp3818
a(lp3819
a(lp3820
aa(lp3821
(lp3822
a(lp3823
a(lp3824
a(lp3825
a(lp3826
aa(lp3827
(lp3828
a(lp3829
((lVhttp://dbpedia.org/resource/ISO_639:w
tp3830
aa(lp3831
a(lp3832
a(lp3833
aa(lp3834
(lp3835
a(lp3836
a(lp3837
a(lp3838
a(lp3839
aa(lp3840
(lp3841
a(lp3842
a(lp3843
a(lp3844
a(lp3845
aa(lp3846
(lp3847
a(lp3848
a(lp3849
a(lp3850
a(lp3851
aa(lp3852
(lp3853
a(lp3854
((lVhttp://dbpedia.org/resource/ISO_639:w
tp3855
aa(lp3856
a(lp3857
a(lp3858
aa(lp3859
(lp3860
a(lp3861
a(lp3862
a(lp3863
a(lp3864
aa(lp3865
(lp3866
a(lp3867
((lVhttp://dbpedia.org/resource/ISO_639:w
tp3868
aa(lp3869
a(lp3870
a(lp3871
aa(lp3872
(lp3873
a(lp3874
((lVhttp://dbpedia.org/resource/ISO_639:w
tp3875
aa(lp3876
a(lp3877
a(lp3878
aa(lp3879
(lp3880
a(lp3881
a(lp3882
a(lp3883
a(lp3884
aa(lp3885
(lp3886
a(lp3887
a(lp3888
a(lp3889
a(lp3890
aa(lp3891
(lp3892
a(lp3893
a(lp3894
a(lp3895
a(lp3896
aa(lp3897
(lp3898
a(lp3899
a(lp3900
a(lp3901
a(lp3902
aa(lp3903
(lp3904
a(lp3905
a(lp3906
a(lp3907
a(lp3908
aa(lp3909
(lp3910
a(lp3911
a(lp3912
a(lp3913
a(lp3914
aa(lp3915
(lp3916
a(lp3917
a(lp3918
a(lp3919
a(lp3920
aa(lp3921
(lp3922
a(lp3923
a(lp3924
a(lp3925
a(lp3926
aa(lp3927
(lp3928
a(lp3929
a(lp3930
a(lp3931
a(lp3932
aa(lp3933
(lp3934
a(lp3935
((lVhttp://dbpedia.org/resource/ISO_639:w
tp3936
aa(lp3937
a(lp3938
a(lp3939
aa(lp3940
(lp3941
a(lp3942
a(lp3943
a(lp3944
a(lp3945
aa(lp3946
(lp3947
a(lp3948
a(lp3949
a(lp3950
a(lp3951
aa(lp3952
(lp3953
a(lp3954
((lVhttp://dbpedia.org/resource/ISO_639:w
tp3955
aa(lp3956
a(lp3957
a(lp3958
aa(lp3959
(lp3960
a(lp3961
a(lp3962
a(lp3963
a(lp3964
aa(lp3965
(lp3966
a(lp3967
a(lp3968
a(lp3969
a(lp3970
aa(lp3971
(lp3972
a(lp3973
a(lp3974
a(lp3975
a(lp3976
aa(lp3977
(lp3978
a(lp3979
a(lp3980
a(lp3981
a(lp3982
aa(lp3983
(lp3984
a(lp3985
((lVhttp://dbpedia.org/resource/ISO_639:w
tp3986
aa(lp3987
a(lp3988
a(lp3989
aa(lp3990
(lp3991
a(lp3992
a(lp3993
a(lp3994
a(lp3995
aa(lp3996
(lp3997
a(lp3998
a(lp3999
a(lp4000
a(lp4001
aa(lp4002
(lp4003
a(lp4004
((lVhttp://dbpedia.org/resource/ISO_639:w
tp4005
aa(lp4006
a(lp4007
a(lp4008
aa(lp4009
(lp4010
a(lp4011
a(lp4012
a(lp4013
a(lp4014
aa(lp4015
(lp4016
a(lp4017
((lVhttp://dbpedia.org/resource/ISO_639:w
tp4018
aa(lp4019
a(lp4020
a(lp4021
aa(lp4022
(lp4023
a(lp4024
a(lp4025
a(lp4026
a(lp4027
aa(lp4028
(lp4029
a(lp4030
a(lp4031
a(lp4032
a(lp4033
aa(lp4034
(lp4035
a(lp4036
a(lp4037
a(lp4038
a(lp4039
aa(lp4040
(lp4041
a(lp4042
a(lp4043
a(lp4044
a(lp4045
aa(lp4046
(lp4047
a(lp4048
a(lp4049
a(lp4050
a(lp4051
aa(lp4052
(lp4053
a(lp4054
((lVhttp://dbpedia.org/resource/ISO_639:w
tp4055
aa(lp4056
a(lp4057
a(lp4058
aa(lp4059
(lp4060
a(lp4061
a(lp4062
a(lp4063
a(lp4064
aa(lp4065
(lp4066
a(lp4067
((lVhttp://dbpedia.org/resource/ISO_639:w
tp4068
aa(lp4069
a(lp4070
a(lp4071
aa(lp4072
(lp4073
a(lp4074
((lVhttp://dbpedia.org/resource/ISO_639:w
tp4075
aa(lp4076
a(lp4077
a(lp4078
aa(lp4079
(lp4080
a(lp4081
a(lp4082
a(lp4083
a(lp4084
aa(lp4085
(lp4086
a(lp4087
((lVhttp://dbpedia.org/resource/ISO_639:w
tp4088
aa(lp4089
a(lp4090
a(lp4091
aa(lp4092
(lp4093
a(lp4094
a(lp4095
a(lp4096
a(lp4097
aa(lp4098
(lp4099
a(lp4100
a(lp4101
a(lp4102
a(lp4103
aa(lp4104
(lp4105
a(lp4106
a(lp4107
a(lp4108
a(lp4109
aa(lp4110
(lp4111
a(lp4112
a(lp4113
a(lp4114
a(lp4115
aa(lp4116
(lp4117
a(lp4118
a(lp4119
a(lp4120
a(lp4121
aa(lp4122
(lp4123
a(lp4124
((lVhttp://dbpedia.org/resource/ISO_639:w
tp4125
aa(lp4126
a(lp4127
a(lp4128
aa(lp4129
(lp4130
a(lp4131
a(lp4132
a(lp4133
a(lp4134
aa(lp4135
(lp4136
a(lp4137
a(lp4138
a(lp4139
a(lp4140
aa(lp4141
(lp4142
a(lp4143
a(lp4144
a(lp4145
a(lp4146
aa(lp4147
(lp4148
a(lp4149
((lVhttp://dbpedia.org/resource/ISO_639:w
tp4150
aa(lp4151
a(lp4152
a(lp4153
aa(lp4154
(lp4155
a(lp4156
a(lp4157
a(lp4158
a(lp4159
aa(lp4160
(lp4161
a(lp4162
((lVhttp://dbpedia.org/resource/ISO_639:w
tp4163
aa(lp4164
a(lp4165
a(lp4166
aa(lp4167
(lp4168
a(lp4169
a(lp4170
a(lp4171
a(lp4172
aa(lp4173
(lp4174
a(lp4175
a(lp4176
a(lp4177
a(lp4178
aa(lp4179
(lp4180
a(lp4181
a(lp4182
a(lp4183
a(lp4184
aa(lp4185
(lp4186
a(lp4187
a(lp4188
a(lp4189
a(lp4190
aa(lp4191
(lp4192
a(lp4193
a(lp4194
a(lp4195
a(lp4196
aa(lp4197
(lp4198
a(lp4199
((lVhttp://dbpedia.org/resource/ISO_639:w
tp4200
aa(lp4201
a(lp4202
a(lp4203
aa(lp4204
(lp4205
a(lp4206
((lVhttp://dbpedia.org/resource/ISO_639:w
tp4207
aa(lp4208
a(lp4209
a(lp4210
aa(lp4211
(lp4212
a(lp4213
a(lp4214
a(lp4215
a(lp4216
aa(lp4217
(lp4218
a(lp4219
a(lp4220
a(lp4221
a(lp4222
aa(lp4223
(lp4224
a(lp4225
a(lp4226
a(lp4227
a(lp4228
aa(lp4229
(lp4230
a(lp4231
a(lp4232
a(lp4233
a(lp4234
aa(lp4235
(lp4236
a(lp4237
a(lp4238
a(lp4239
a(lp4240
aa(lp4241
(lp4242
a(lp4243
((lVhttp://dbpedia.org/resource/ISO_639:w
tp4244
aa(lp4245
a(lp4246
a(lp4247
aa(lp4248
(lp4249
a(lp4250
((lVhttp://dbpedia.org/resource/ISO_639:w
tp4251
aa(lp4252
a(lp4253
a(lp4254
aa(lp4255
(lp4256
a(lp4257
a(lp4258
a(lp4259
a(lp4260
aa(lp4261
(lp4262
a(lp4263
((lVhttp://dbpedia.org/resource/ISO_639:w
tp4264
aa(lp4265
a(lp4266
a(lp4267
aa(lp4268
(lp4269
a(lp4270
a(lp4271
a(lp4272
a(lp4273
aa(lp4274
(lp4275
a(lp4276
((lVhttp://dbpedia.org/resource/ISO_639:w
tp4277
aa(lp4278
a(lp4279
a(lp4280
aa(lp4281
(lp4282
a(lp4283
a(lp4284
a(lp4285
a(lp4286
aa(lp4287
(lp4288
a(lp4289
a(lp4290
a(lp4291
a(lp4292
aa(lp4293
(lp4294
a(lp4295
a(lp4296
a(lp4297
a(lp4298
aa(lp4299
(lp4300
a(lp4301
a(lp4302
a(lp4303
a(lp4304
aa(lp4305
(lp4306
a(lp4307
((lVhttp://dbpedia.org/resource/ISO_639:w
tp4308
aa(lp4309
a(lp4310
a(lp4311
aa(lp4312
(lp4313
a(lp4314
a(lp4315
a(lp4316
a(lp4317
aa(lp4318
(lp4319
a(lp4320
((lVhttp://dbpedia.org/resource/ISO_639:w
tp4321
aa(lp4322
a(lp4323
a(lp4324
aa(lp4325
(lp4326
a(lp4327
a(lp4328
a(lp4329
a(lp4330
aa(lp4331
(lp4332
a(lp4333
a(lp4334
a(lp4335
a(lp4336
aa(lp4337
(lp4338
a(lp4339
a(lp4340
a(lp4341
a(lp4342
aa(lp4343
(lp4344
a(lp4345
((lVhttp://dbpedia.org/resource/ISO_639:w
tp4346
aa(lp4347
a(lp4348
a(lp4349
aa(lp4350
(lp4351
a(lp4352
((lVhttp://dbpedia.org/resource/ISO_639:w
tp4353
aa(lp4354
a(lp4355
a(lp4356
aa(lp4357
(lp4358
a(lp4359
a(lp4360
a(lp4361
a(lp4362
aa(lp4363
(lp4364
a(lp4365
((lVhttp://dbpedia.org/resource/ISO_639:w
tp4366
aa(lp4367
a(lp4368
a(lp4369
aa(lp4370
(lp4371
a(lp4372
a(lp4373
a(lp4374
a(lp4375
aa(lp4376
(lp4377
a(lp4378
a(lp4379
a(lp4380
a(lp4381
aa(lp4382
(lp4383
a(lp4384
a(lp4385
a(lp4386
a(lp4387
aa(lp4388
(lp4389
a(lp4390
((lVhttp://dbpedia.org/resource/ISO_639:w
tp4391
aa(lp4392
a(lp4393
a(lp4394
aa(lp4395
(lp4396
a(lp4397
((lVhttp://dbpedia.org/resource/ISO_639:w
tp4398
aa(lp4399
a(lp4400
a(lp4401
aa(lp4402
(lp4403
a(lp4404
a(lp4405
a(lp4406
a(lp4407
aa(lp4408
(lp4409
a(lp4410
a(lp4411
a(lp4412
a(lp4413
aa(lp4414
(lp4415
a(lp4416
((lVhttp://dbpedia.org/resource/ISO_639:w
tp4417
aa(lp4418
a(lp4419
a(lp4420
aa(lp4421
(lp4422
a(lp4423
a(lp4424
a(lp4425
a(lp4426
aa(lp4427
(lp4428
a(lp4429
a(lp4430
a(lp4431
a(lp4432
aa(lp4433
(lp4434
a(lp4435
a(lp4436
a(lp4437
a(lp4438
aa(lp4439
(lp4440
a(lp4441
a(lp4442
a(lp4443
a(lp4444
aa(lp4445
(lp4446
a(lp4447
a(lp4448
a(lp4449
a(lp4450
aa(lp4451
(lp4452
a(lp4453
((lVhttp://dbpedia.org/resource/ISO_639:w
tp4454
aa(lp4455
a(lp4456
a(lp4457
aa(lp4458
(lp4459
a(lp4460
a(lp4461
a(lp4462
a(lp4463
aa(lp4464
(lp4465
a(lp4466
a(lp4467
a(lp4468
a(lp4469
aa(lp4470
(lp4471
a(lp4472
a(lp4473
a(lp4474
a(lp4475
aa(lp4476
(lp4477
a(lp4478
((lVhttp://dbpedia.org/resource/ISO_639:w
tp4479
aa(lp4480
a(lp4481
a(lp4482
aa(lp4483
(lp4484
a(lp4485
a(lp4486
a(lp4487
a(lp4488
aa(lp4489
(lp4490
a(lp4491
a(lp4492
a(lp4493
a(lp4494
aa(lp4495
(lp4496
a(lp4497
((lVhttp://dbpedia.org/resource/ISO_639:w
tp4498
aa(lp4499
a(lp4500
a(lp4501
aa(lp4502
(lp4503
a(lp4504
a(lp4505
a(lp4506
a(lp4507
aa(lp4508
(lp4509
a(lp4510
a(lp4511
a(lp4512
a(lp4513
aa(lp4514
(lp4515
a(lp4516
a(lp4517
a(lp4518
a(lp4519
aa(lp4520
(lp4521
a(lp4522
((lVhttp://dbpedia.org/resource/ISO_639:w
tp4523
aa(lp4524
a(lp4525
a(lp4526
aa(lp4527
(lp4528
a(lp4529
a(lp4530
a(lp4531
a(lp4532
aa(lp4533
(lp4534
a(lp4535
a(lp4536
a(lp4537
a(lp4538
aa(lp4539
(lp4540
a(lp4541
((lVhttp://dbpedia.org/resource/ISO_639:w
tp4542
aa(lp4543
a(lp4544
a(lp4545
aa(lp4546
(lp4547
a(lp4548
a(lp4549
a(lp4550
a(lp4551
aa(lp4552
(lp4553
a(lp4554
a(lp4555
a(lp4556
a(lp4557
aa(lp4558
(lp4559
a(lp4560
a(lp4561
a(lp4562
a(lp4563
aa(lp4564
(lp4565
a(lp4566
((lVhttp://dbpedia.org/resource/ISO_639:w
tp4567
aa(lp4568
a(lp4569
a(lp4570
aa(lp4571
(lp4572
a(lp4573
a(lp4574
a(lp4575
a(lp4576
aa(lp4577
(lp4578
a(lp4579
a(lp4580
a(lp4581
a(lp4582
aa(lp4583
(lp4584
a(lp4585
a(lp4586
a(lp4587
a(lp4588
aa(lp4589
(lp4590
a(lp4591
((lVhttp://dbpedia.org/resource/ISO_639:w
tp4592
aa(lp4593
a(lp4594
a(lp4595
aa(lp4596
(lp4597
a(lp4598
((lVhttp://dbpedia.org/resource/ISO_639:w
tp4599
aa(lp4600
a(lp4601
a(lp4602
aa(lp4603
(lp4604
a(lp4605
a(lp4606
a(lp4607
a(lp4608
aa(lp4609
(lp4610
a(lp4611
a(lp4612
a(lp4613
a(lp4614
aa(lp4615
(lp4616
a(lp4617
a(lp4618
a(lp4619
a(lp4620
aa(lp4621
(lp4622
a(lp4623
((lVhttp://dbpedia.org/resource/ISO_639:w
tp4624
aa(lp4625
a(lp4626
a(lp4627
aa(lp4628
(lp4629
a(lp4630
a(lp4631
a(lp4632
a(lp4633
aa(lp4634
(lp4635
a(lp4636
a(lp4637
a(lp4638
a(lp4639
aa(lp4640
(lp4641
a(lp4642
((lVhttp://dbpedia.org/resource/ISO_639:w
tp4643
aa(lp4644
a(lp4645
a(lp4646
aa(lp4647
(lp4648
a(lp4649
a(lp4650
a(lp4651
a(lp4652
aa(lp4653
(lp4654
a(lp4655
a(lp4656
a(lp4657
a(lp4658
aa(lp4659
(lp4660
a(lp4661
((lVhttp://dbpedia.org/resource/ISO_639:w
tp4662
aa(lp4663
a(lp4664
a(lp4665
aa(lp4666
(lp4667
a(lp4668
a(lp4669
a(lp4670
a(lp4671
aa(lp4672
(lp4673
a(lp4674
((lVhttp://dbpedia.org/resource/ISO_639:w
tp4675
aa(lp4676
a(lp4677
a(lp4678
aa(lp4679
(lp4680
a(lp4681
a(lp4682
a(lp4683
a(lp4684
aa(lp4685
(lp4686
a(lp4687
((lVhttp://dbpedia.org/resource/ISO_639:w
tp4688
aa(lp4689
a(lp4690
a(lp4691
aa(lp4692
(lp4693
a(lp4694
a(lp4695
a(lp4696
a(lp4697
aa(lp4698
(lp4699
a(lp4700
((lVhttp://dbpedia.org/resource/ISO_639:w
tp4701
aa(lp4702
a(lp4703
a(lp4704
aa(lp4705
(lp4706
a(lp4707
a(lp4708
a(lp4709
a(lp4710
aa(lp4711
(lp4712
a(lp4713
((lVhttp://dbpedia.org/resource/ISO_639:w
tp4714
aa(lp4715
a(lp4716
a(lp4717
aa(lp4718
(lp4719
a(lp4720
a(lp4721
a(lp4722
a(lp4723
aa(lp4724
(lp4725
a(lp4726
a(lp4727
a(lp4728
a(lp4729
aa(lp4730
(lp4731
a(lp4732
((lVhttp://dbpedia.org/resource/ISO_639:w
tp4733
aa(lp4734
a(lp4735
a(lp4736
aa(lp4737
(lp4738
a(lp4739
a(lp4740
a(lp4741
a(lp4742
aa(lp4743
(lp4744
a(lp4745
a(lp4746
a(lp4747
a(lp4748
aa(lp4749
(lp4750
a(lp4751
a(lp4752
a(lp4753
a(lp4754
aa(lp4755
(lp4756
a(lp4757
a(lp4758
a(lp4759
a(lp4760
aa(lp4761
(lp4762
a(lp4763
a(lp4764
a(lp4765
a(lp4766
aa(lp4767
(lp4768
a(lp4769
a(lp4770
a(lp4771
a(lp4772
aa(lp4773
(lp4774
a(lp4775
a(lp4776
a(lp4777
a(lp4778
aa(lp4779
(lp4780
a(lp4781
((lVhttp://dbpedia.org/resource/ISO_639:w
tp4782
aa(lp4783
a(lp4784
a(lp4785
aa(lp4786
(lp4787
a(lp4788
a(lp4789
a(lp4790
a(lp4791
aa(lp4792
(lp4793
a(lp4794
a(lp4795
a(lp4796
a(lp4797
aa(lp4798
(lp4799
a(lp4800
a(lp4801
a(lp4802
a(lp4803
aa(lp4804
(lp4805
a(lp4806
((lVhttp://dbpedia.org/resource/ISO_639:w
tp4807
aa(lp4808
a(lp4809
a(lp4810
aa(lp4811
(lp4812
a(lp4813
a(lp4814
a(lp4815
a(lp4816
aa(lp4817
(lp4818
a(lp4819
a(lp4820
a(lp4821
a(lp4822
aa(lp4823
(lp4824
a(lp4825
a(lp4826
a(lp4827
a(lp4828
aa(lp4829
(lp4830
a(lp4831
a(lp4832
a(lp4833
a(lp4834
aa(lp4835
(lp4836
a(lp4837
a(lp4838
a(lp4839
a(lp4840
aa(lp4841
(lp4842
a(lp4843
((lVhttp://dbpedia.org/resource/ISO_639:w
tp4844
aa(lp4845
a(lp4846
a(lp4847
aa(lp4848
(lp4849
a(lp4850
a(lp4851
a(lp4852
a(lp4853
aa(lp4854
(lp4855
a(lp4856
a(lp4857
a(lp4858
a(lp4859
aa(lp4860
(lp4861
a(lp4862
a(lp4863
a(lp4864
a(lp4865
aa(lp4866
(lp4867
a(lp4868
((lVhttp://dbpedia.org/resource/ISO_639:w
tp4869
aa(lp4870
a(lp4871
a(lp4872
aa(lp4873
(lp4874
a(lp4875
a(lp4876
a(lp4877
a(lp4878
aa(lp4879
(lp4880
a(lp4881
((lVhttp://dbpedia.org/resource/ISO_639:w
tp4882
aa(lp4883
a(lp4884
a(lp4885
aa(lp4886
(lp4887
a(lp4888
((lVhttp://dbpedia.org/resource/ISO_639:w
tp4889
aa(lp4890
a(lp4891
a(lp4892
aa(lp4893
(lp4894
a(lp4895
((lVhttp://dbpedia.org/resource/ISO_639:w
tp4896
aa(lp4897
a(lp4898
a(lp4899
aa(lp4900
(lp4901
a(lp4902
a(lp4903
a(lp4904
a(lp4905
aa(lp4906
(lp4907
a(lp4908
((lVhttp://dbpedia.org/resource/ISO_639:w
tp4909
aa(lp4910
a(lp4911
a(lp4912
aa(lp4913
(lp4914
a(lp4915
a(lp4916
a(lp4917
a(lp4918
aa(lp4919
(lp4920
a(lp4921
a(lp4922
a(lp4923
a(lp4924
aa(lp4925
(lp4926
a(lp4927
a(lp4928
a(lp4929
a(lp4930
aa(lp4931
(lp4932
a(lp4933
a(lp4934
a(lp4935
a(lp4936
aa(lp4937
(lp4938
a(lp4939
((lVhttp://dbpedia.org/resource/ISO_639:w
tp4940
aa(lp4941
a(lp4942
a(lp4943
aa(lp4944
(lp4945
a(lp4946
a(lp4947
a(lp4948
a(lp4949
aa(lp4950
(lp4951
a(lp4952
a(lp4953
a(lp4954
a(lp4955
aa(lp4956
(lp4957
a(lp4958
a(lp4959
a(lp4960
a(lp4961
aa(lp4962
(lp4963
a(lp4964
a(lp4965
a(lp4966
a(lp4967
aa(lp4968
(lp4969
a(lp4970
a(lp4971
a(lp4972
a(lp4973
aa(lp4974
(lp4975
a(lp4976
((lVhttp://dbpedia.org/resource/ISO_639:w
tp4977
aa(lp4978
a(lp4979
a(lp4980
aa(lp4981
(lp4982
a(lp4983
a(lp4984
a(lp4985
a(lp4986
aa(lp4987
(lp4988
a(lp4989
((lVhttp://dbpedia.org/resource/ISO_639:w
tp4990
aa(lp4991
a(lp4992
a(lp4993
aa(lp4994
(lp4995
a(lp4996
a(lp4997
a(lp4998
a(lp4999
aa(lp5000
(lp5001
a(lp5002
a(lp5003
a(lp5004
a(lp5005
aa(lp5006
(lp5007
a(lp5008
((lVhttp://dbpedia.org/resource/ISO_639:w
tp5009
aa(lp5010
a(lp5011
a(lp5012
aa(lp5013
(lp5014
a(lp5015
a(lp5016
a(lp5017
a(lp5018
aa(lp5019
(lp5020
a(lp5021
((lVhttp://dbpedia.org/resource/ISO_639:w
tp5022
aa(lp5023
a(lp5024
a(lp5025
aa(lp5026
(lp5027
a(lp5028
a(lp5029
a(lp5030
a(lp5031
aa(lp5032
(lp5033
a(lp5034
a(lp5035
a(lp5036
a(lp5037
aa(lp5038
(lp5039
a(lp5040
a(lp5041
a(lp5042
a(lp5043
aa(lp5044
(lp5045
a(lp5046
a(lp5047
a(lp5048
a(lp5049
aa(lp5050
(lp5051
a(lp5052
a(lp5053
a(lp5054
a(lp5055
aa(lp5056
(lp5057
((lVhttp://dbpedia.org/resource/Min-maxing
tp5058
aa(lp5059
a(lp5060
a(lp5061
a(lp5062
aa(lp5063
(lp5064
a(lp5065
a(lp5066
a(lp5067
a(lp5068
aa(lp5069
(lp5070
a(lp5071
a(lp5072
((lVhttp://dbpedia.org/resource/Min-maxing
tp5073
aa(lp5074
a(lp5075
aa(lp5076
(lp5077
a(lp5078
((lVhttp://dbpedia.org/resource/ISO_639:w
tp5079
aa(lp5080
a(lp5081
a(lp5082
aa(lp5083
(lp5084
a(lp5085
a(lp5086
a(lp5087
a(lp5088
aa(lp5089
(lp5090
a(lp5091
((lVhttp://dbpedia.org/resource/ISO_639:w
tp5092
aa(lp5093
a(lp5094
a(lp5095
aa(lp5096
(lp5097
a(lp5098
a(lp5099
a(lp5100
a(lp5101
aa(lp5102
(lp5103
a(lp5104
((lVhttp://dbpedia.org/resource/ISO_639:w
tp5105
aa(lp5106
a(lp5107
a(lp5108
aa(lp5109
(lp5110
a(lp5111
((lVhttp://dbpedia.org/resource/ISO_639:w
tp5112
aa(lp5113
a(lp5114
a(lp5115
aa(lp5116
(lp5117
a(lp5118
a(lp5119
a(lp5120
a(lp5121
aa(lp5122
(lp5123
a(lp5124
a(lp5125
a(lp5126
a(lp5127
aa(lp5128
(lp5129
a(lp5130
((lVhttp://dbpedia.org/resource/ISO_639:w
tp5131
aa(lp5132
a(lp5133
a(lp5134
aa(lp5135
(lp5136
a(lp5137
a(lp5138
a(lp5139
a(lp5140
aa(lp5141
(lp5142
a(lp5143
((lVhttp://dbpedia.org/resource/ISO_639:w
tp5144
aa(lp5145
a(lp5146
a(lp5147
aa(lp5148
(lp5149
a(lp5150
((lVhttp://dbpedia.org/resource/ISO_639:w
tp5151
aa(lp5152
a(lp5153
a(lp5154
aa(lp5155
(lp5156
a(lp5157
((lVhttp://dbpedia.org/resource/ISO_639:w
tp5158
aa(lp5159
a(lp5160
a(lp5161
aa(lp5162
(lp5163
a(lp5164
((lVhttp://dbpedia.org/resource/ISO_639:w
tp5165
aa(lp5166
a(lp5167
a(lp5168
aa(lp5169
(lp5170
a(lp5171
((lVhttp://dbpedia.org/resource/ISO_639:w
tp5172
aa(lp5173
a(lp5174
a(lp5175
aa(lp5176
(lp5177
a(lp5178
((lVhttp://dbpedia.org/resource/ISO_639:w
tp5179
aa(lp5180
a(lp5181
a(lp5182
aa(lp5183
(lp5184
a(lp5185
a(lp5186
a(lp5187
a(lp5188
aa(lp5189
(lp5190
a(lp5191
a(lp5192
a(lp5193
a(lp5194
aa(lp5195
(lp5196
a(lp5197
((lVhttp://dbpedia.org/resource/ISO_639:w
tp5198
aa(lp5199
a(lp5200
a(lp5201
aa(lp5202
(lp5203
a(lp5204
((lVhttp://dbpedia.org/resource/ISO_639:w
tp5205
aa(lp5206
a(lp5207
a(lp5208
aa(lp5209
(lp5210
a(lp5211
((lVhttp://dbpedia.org/resource/ISO_639:w
tp5212
aa(lp5213
a(lp5214
a(lp5215
aa(lp5216
(lp5217
a(lp5218
a(lp5219
a(lp5220
a(lp5221
aa(lp5222
(lp5223
a(lp5224
((lVhttp://dbpedia.org/resource/ISO_639:w
tp5225
aa(lp5226
a(lp5227
a(lp5228
aa(lp5229
(lp5230
a(lp5231
a(lp5232
a(lp5233
a(lp5234
aa(lp5235
(lp5236
a(lp5237
a(lp5238
a(lp5239
a(lp5240
aa(lp5241
(lp5242
a(lp5243
a(lp5244
a(lp5245
a(lp5246
aa(lp5247
(lp5248
a(lp5249
a(lp5250
a(lp5251
a(lp5252
aa(lp5253
(lp5254
a(lp5255
((lVhttp://dbpedia.org/resource/ISO_639:w
tp5256
aa(lp5257
a(lp5258
a(lp5259
aa(lp5260
(lp5261
a(lp5262
a(lp5263
a(lp5264
a(lp5265
aa(lp5266
(lp5267
a(lp5268
a(lp5269
a(lp5270
a(lp5271
aa(lp5272
(lp5273
a(lp5274
a(lp5275
a(lp5276
a(lp5277
aa(lp5278
(lp5279
a(lp5280
a(lp5281
a(lp5282
a(lp5283
aa(lp5284
(lp5285
a(lp5286
a(lp5287
a(lp5288
a(lp5289
aa(lp5290
(lp5291
a(lp5292
a(lp5293
a(lp5294
a(lp5295
aa(lp5296
(lp5297
a(lp5298
a(lp5299
a(lp5300
a(lp5301
aa(lp5302
(lp5303
a(lp5304
a(lp5305
a(lp5306
a(lp5307
aa(lp5308
(lp5309
a(lp5310
a(lp5311
a(lp5312
a(lp5313
aa(lp5314
(lp5315
a(lp5316
a(lp5317
a(lp5318
a(lp5319
aa(lp5320
(lp5321
a(lp5322
a(lp5323
a(lp5324
a(lp5325
aa(lp5326
(lp5327
a(lp5328
a(lp5329
a(lp5330
a(lp5331
aa(lp5332
(lp5333
a(lp5334
a(lp5335
a(lp5336
a(lp5337
aa(lp5338
(lp5339
a(lp5340
((lVhttp://dbpedia.org/resource/ISO_639:w
tp5341
aa(lp5342
a(lp5343
a(lp5344
aa(lp5345
(lp5346
a(lp5347
a(lp5348
a(lp5349
a(lp5350
aa(lp5351
(lp5352
a(lp5353
a(lp5354
a(lp5355
a(lp5356
aa(lp5357
(lp5358
a(lp5359
a(lp5360
a(lp5361
a(lp5362
aa(lp5363
(lp5364
a(lp5365
a(lp5366
a(lp5367
a(lp5368
aa(lp5369
(lp5370
a(lp5371
((lVhttp://dbpedia.org/resource/ISO_639:w
tp5372
aa(lp5373
a(lp5374
a(lp5375
aa(lp5376
(lp5377
a(lp5378
a(lp5379
a(lp5380
a(lp5381
aa(lp5382
(lp5383
a(lp5384
((lVhttp://dbpedia.org/resource/ISO_639:w
tp5385
aa(lp5386
a(lp5387
a(lp5388
aa(lp5389
(lp5390
a(lp5391
((lVhttp://dbpedia.org/resource/ISO_639:w
tp5392
aa(lp5393
a(lp5394
a(lp5395
aa(lp5396
(lp5397
a(lp5398
a(lp5399
a(lp5400
a(lp5401
aa(lp5402
(lp5403
a(lp5404
a(lp5405
a(lp5406
a(lp5407
aa(lp5408
(lp5409
a(lp5410
((lVhttp://dbpedia.org/resource/ISO_639:w
tp5411
aa(lp5412
a(lp5413
a(lp5414
aa(lp5415
(lp5416
a(lp5417
a(lp5418
a(lp5419
a(lp5420
aa(lp5421
(lp5422
a(lp5423
((lVhttp://dbpedia.org/resource/ISO_639:w
tp5424
aa(lp5425
a(lp5426
a(lp5427
aa(lp5428
(lp5429
a(lp5430
a(lp5431
a(lp5432
a(lp5433
aa(lp5434
(lp5435
a(lp5436
a(lp5437
a(lp5438
a(lp5439
aa(lp5440
(lp5441
a(lp5442
a(lp5443
a(lp5444
a(lp5445
aa(lp5446
(lp5447
a(lp5448
a(lp5449
a(lp5450
a(lp5451
aa(lp5452
(lp5453
a(lp5454
a(lp5455
a(lp5456
a(lp5457
aa(lp5458
(lp5459
a(lp5460
((lVhttp://dbpedia.org/resource/ISO_639:w
tp5461
aa(lp5462
a(lp5463
a(lp5464
aa(lp5465
(lp5466
a(lp5467
a(lp5468
a(lp5469
a(lp5470
aa(lp5471
(lp5472
a(lp5473
a(lp5474
a(lp5475
a(lp5476
aa(lp5477
(lp5478
a(lp5479
a(lp5480
a(lp5481
a(lp5482
aa(lp5483
(lp5484
a(lp5485
((lVhttp://dbpedia.org/resource/ISO_639:w
tp5486
aa(lp5487
a(lp5488
a(lp5489
aa(lp5490
(lp5491
a(lp5492
a(lp5493
a(lp5494
a(lp5495
aa(lp5496
(lp5497
a(lp5498
a(lp5499
a(lp5500
a(lp5501
aa(lp5502
(lp5503
a(lp5504
((lVhttp://dbpedia.org/resource/ISO_639:w
tp5505
aa(lp5506
a(lp5507
a(lp5508
aa(lp5509
(lp5510
a(lp5511
((lVhttp://dbpedia.org/resource/ISO_639:w
tp5512
aa(lp5513
a(lp5514
a(lp5515
aa(lp5516
(lp5517
a(lp5518
((lVhttp://dbpedia.org/resource/ISO_639:w
tp5519
aa(lp5520
a(lp5521
a(lp5522
aa(lp5523
(lp5524
a(lp5525
a(lp5526
a(lp5527
a(lp5528
aa(lp5529
(lp5530
a(lp5531
((lVhttp://dbpedia.org/resource/ISO_639:w
tp5532
aa(lp5533
a(lp5534
a(lp5535
aa(lp5536
(lp5537
a(lp5538
a(lp5539
a(lp5540
a(lp5541
aa(lp5542
(lp5543
a(lp5544
a(lp5545
a(lp5546
a(lp5547
aa(lp5548
(lp5549
a(lp5550
a(lp5551
a(lp5552
a(lp5553
aa(lp5554
(lp5555
a(lp5556
a(lp5557
a(lp5558
a(lp5559
aa(lp5560
(lp5561
a(lp5562
((lVhttp://dbpedia.org/resource/ISO_639:w
tp5563
aa(lp5564
a(lp5565
a(lp5566
aa(lp5567
(lp5568
a(lp5569
a(lp5570
a(lp5571
a(lp5572
aa(lp5573
(lp5574
a(lp5575
a(lp5576
a(lp5577
a(lp5578
aa(lp5579
(lp5580
a(lp5581
((lVhttp://dbpedia.org/resource/ISO_639:w
tp5582
aa(lp5583
a(lp5584
a(lp5585
aa(lp5586
(lp5587
a(lp5588
a(lp5589
a(lp5590
a(lp5591
aa(lp5592
(lp5593
a(lp5594
((lVhttp://dbpedia.org/resource/ISO_639:w
tp5595
aa(lp5596
a(lp5597
a(lp5598
aa(lp5599
(lp5600
a(lp5601
a(lp5602
a(lp5603
a(lp5604
aa(lp5605
(lp5606
a(lp5607
((lVhttp://dbpedia.org/resource/ISO_639:w
tp5608
aa(lp5609
a(lp5610
a(lp5611
aa(lp5612
(lp5613
a(lp5614
a(lp5615
a(lp5616
a(lp5617
aa(lp5618
(lp5619
a(lp5620
((lVhttp://dbpedia.org/resource/ISO_639:w
tp5621
aa(lp5622
a(lp5623
a(lp5624
aa(lp5625
(lp5626
a(lp5627
a(lp5628
a(lp5629
a(lp5630
aa(lp5631
(lp5632
a(lp5633
((lVhttp://dbpedia.org/resource/ISO_639:w
tp5634
aa(lp5635
a(lp5636
a(lp5637
aa(lp5638
(lp5639
a(lp5640
a(lp5641
a(lp5642
a(lp5643
aa(lp5644
(lp5645
a(lp5646
((lVhttp://dbpedia.org/resource/ISO_639:w
tp5647
aa(lp5648
a(lp5649
a(lp5650
aa(lp5651
(lp5652
a(lp5653
a(lp5654
a(lp5655
a(lp5656
aa(lp5657
(lp5658
a(lp5659
a(lp5660
a(lp5661
a(lp5662
aa(lp5663
(lp5664
a(lp5665
a(lp5666
a(lp5667
a(lp5668
aa(lp5669
(lp5670
a(lp5671
a(lp5672
a(lp5673
a(lp5674
aa(lp5675
(lp5676
a(lp5677
((lVhttp://dbpedia.org/resource/ISO_639:w
tp5678
aa(lp5679
a(lp5680
a(lp5681
aa(lp5682
(lp5683
a(lp5684
a(lp5685
a(lp5686
a(lp5687
aa(lp5688
(lp5689
a(lp5690
a(lp5691
a(lp5692
a(lp5693
aa(lp5694
(lp5695
a(lp5696
((lVhttp://dbpedia.org/resource/ISO_639:w
tp5697
aa(lp5698
a(lp5699
a(lp5700
aa(lp5701
(lp5702
a(lp5703
((lVhttp://dbpedia.org/resource/ISO_639:w
tp5704
aa(lp5705
a(lp5706
a(lp5707
aa(lp5708
(lp5709
a(lp5710
a(lp5711
a(lp5712
a(lp5713
aa(lp5714
(lp5715
a(lp5716
((lVhttp://dbpedia.org/resource/ISO_639:w
tp5717
aa(lp5718
a(lp5719
a(lp5720
aa(lp5721
(lp5722
a(lp5723
a(lp5724
a(lp5725
a(lp5726
aa(lp5727
(lp5728
a(lp5729
a(lp5730
a(lp5731
a(lp5732
aa(lp5733
(lp5734
a(lp5735
a(lp5736
a(lp5737
a(lp5738
aa(lp5739
(lp5740
a(lp5741
a(lp5742
a(lp5743
a(lp5744
aa(lp5745
(lp5746
a(lp5747
a(lp5748
a(lp5749
a(lp5750
aa(lp5751
(lp5752
a(lp5753
a(lp5754
a(lp5755
a(lp5756
aa(lp5757
(lp5758
a(lp5759
((lVhttp://dbpedia.org/resource/ISO_639:w
tp5760
aa(lp5761
a(lp5762
a(lp5763
aa(lp5764
(lp5765
a(lp5766
a(lp5767
a(lp5768
a(lp5769
aa(lp5770
(lp5771
a(lp5772
((lVhttp://dbpedia.org/resource/ISO_639:w
tp5773
aa(lp5774
a(lp5775
a(lp5776
aa(lp5777
(lp5778
a(lp5779
((lVhttp://dbpedia.org/resource/ISO_639:w
tp5780
aa(lp5781
a(lp5782
a(lp5783
aa(lp5784
(lp5785
a(lp5786
a(lp5787
a(lp5788
a(lp5789
aa(lp5790
(lp5791
a(lp5792
a(lp5793
a(lp5794
a(lp5795
aa(lp5796
(lp5797
a(lp5798
((lVhttp://dbpedia.org/resource/ISO_639:w
tp5799
aa(lp5800
a(lp5801
a(lp5802
aa(lp5803
(lp5804
a(lp5805
a(lp5806
a(lp5807
a(lp5808
aa(lp5809
(lp5810
a(lp5811
a(lp5812
a(lp5813
a(lp5814
aa(lp5815
(lp5816
a(lp5817
a(lp5818
a(lp5819
a(lp5820
aa(lp5821
(lp5822
a(lp5823
((lVhttp://dbpedia.org/resource/ISO_639:w
tp5824
aa(lp5825
a(lp5826
a(lp5827
aa(lp5828
(lp5829
a(lp5830
a(lp5831
a(lp5832
a(lp5833
aa(lp5834
(lp5835
a(lp5836
a(lp5837
a(lp5838
a(lp5839
aa(lp5840
(lp5841
a(lp5842
a(lp5843
a(lp5844
a(lp5845
aa(lp5846
(lp5847
a(lp5848
a(lp5849
a(lp5850
a(lp5851
aa(lp5852
(lp5853
a(lp5854
a(lp5855
a(lp5856
a(lp5857
aa(lp5858
(lp5859
a(lp5860
a(lp5861
a(lp5862
a(lp5863
aa(lp5864
(lp5865
a(lp5866
a(lp5867
a(lp5868
a(lp5869
aa(lp5870
(lp5871
a(lp5872
((lVhttp://dbpedia.org/resource/ISO_639:w
tp5873
aa(lp5874
a(lp5875
a(lp5876
aa(lp5877
(lp5878
a(lp5879
a(lp5880
a(lp5881
a(lp5882
aa(lp5883
(lp5884
a(lp5885
((lVhttp://dbpedia.org/resource/ISO_639:w
tp5886
aa(lp5887
a(lp5888
a(lp5889
aa(lp5890
(lp5891
a(lp5892
((lVhttp://dbpedia.org/resource/ISO_639:w
tp5893
aa(lp5894
a(lp5895
a(lp5896
aa(lp5897
(lp5898
a(lp5899
((lVhttp://dbpedia.org/resource/ISO_639:w
tp5900
aa(lp5901
a(lp5902
a(lp5903
aa(lp5904
(lp5905
a(lp5906
((lVhttp://dbpedia.org/resource/ISO_639:w
tp5907
aa(lp5908
a(lp5909
a(lp5910
aa(lp5911
(lp5912
a(lp5913
a(lp5914
a(lp5915
a(lp5916
aa(lp5917
(lp5918
a(lp5919
a(lp5920
a(lp5921
a(lp5922
aa(lp5923
(lp5924
a(lp5925
a(lp5926
a(lp5927
a(lp5928
aa(lp5929
(lp5930
a(lp5931
a(lp5932
a(lp5933
a(lp5934
aa(lp5935
(lp5936
a(lp5937
a(lp5938
a(lp5939
a(lp5940
aa(lp5941
(lp5942
a(lp5943
((lVhttp://dbpedia.org/resource/ISO_639:w
tp5944
aa(lp5945
a(lp5946
a(lp5947
aa(lp5948
(lp5949
a(lp5950
((lVhttp://dbpedia.org/resource/ISO_639:w
tp5951
aa(lp5952
a(lp5953
a(lp5954
aa(lp5955
(lp5956
a(lp5957
((lVhttp://dbpedia.org/resource/ISO_639:w
tp5958
aa(lp5959
a(lp5960
a(lp5961
aa(lp5962
(lp5963
a(lp5964
a(lp5965
a(lp5966
a(lp5967
aa(lp5968
(lp5969
a(lp5970
a(lp5971
a(lp5972
a(lp5973
aa(lp5974
(lp5975
a(lp5976
a(lp5977
a(lp5978
a(lp5979
aa(lp5980
(lp5981
a(lp5982
((lVhttp://dbpedia.org/resource/ISO_639:w
tp5983
aa(lp5984
a(lp5985
a(lp5986
aa(lp5987
(lp5988
a(lp5989
a(lp5990
a(lp5991
a(lp5992
aa(lp5993
(lp5994
a(lp5995
a(lp5996
a(lp5997
a(lp5998
aa(lp5999
(lp6000
a(lp6001
((lVhttp://dbpedia.org/resource/ISO_639:w
tp6002
aa(lp6003
a(lp6004
a(lp6005
aa(lp6006
(lp6007
a(lp6008
a(lp6009
a(lp6010
a(lp6011
aa(lp6012
(lp6013
a(lp6014
a(lp6015
a(lp6016
a(lp6017
aa(lp6018
(lp6019
a(lp6020
((lVhttp://dbpedia.org/resource/ISO_639:w
tp6021
aa(lp6022
a(lp6023
a(lp6024
aa(lp6025
(lp6026
a(lp6027
((lVhttp://dbpedia.org/resource/ISO_639:w
tp6028
aa(lp6029
a(lp6030
a(lp6031
aa(lp6032
(lp6033
a(lp6034
a(lp6035
a(lp6036
a(lp6037
aa(lp6038
(lp6039
a(lp6040
((lVhttp://dbpedia.org/resource/ISO_639:w
tp6041
aa(lp6042
a(lp6043
a(lp6044
aa(lp6045
(lp6046
a(lp6047
a(lp6048
a(lp6049
a(lp6050
aa(lp6051
(lp6052
a(lp6053
a(lp6054
a(lp6055
a(lp6056
aa(lp6057
(lp6058
a(lp6059
a(lp6060
a(lp6061
a(lp6062
aa(lp6063
(lp6064
a(lp6065
a(lp6066
a(lp6067
a(lp6068
aa(lp6069
(lp6070
a(lp6071
a(lp6072
a(lp6073
a(lp6074
aa(lp6075
(lp6076
a(lp6077
((lVhttp://dbpedia.org/resource/ISO_639:w
tp6078
aa(lp6079
a(lp6080
a(lp6081
aa(lp6082
(lp6083
a(lp6084
((lVhttp://dbpedia.org/resource/ISO_639:w
tp6085
aa(lp6086
a(lp6087
a(lp6088
aa(lp6089
(lp6090
a(lp6091
a(lp6092
a(lp6093
a(lp6094
aa(lp6095
(lp6096
a(lp6097
a(lp6098
a(lp6099
a(lp6100
aa(lp6101
(lp6102
a(lp6103
a(lp6104
a(lp6105
a(lp6106
aa(lp6107
(lp6108
a(lp6109
((lVhttp://dbpedia.org/resource/ISO_639:w
tp6110
aa(lp6111
a(lp6112
a(lp6113
aa(lp6114
(lp6115
a(lp6116
a(lp6117
a(lp6118
a(lp6119
aa(lp6120
(lp6121
a(lp6122
a(lp6123
a(lp6124
a(lp6125
aa(lp6126
(lp6127
a(lp6128
((lVhttp://dbpedia.org/resource/ISO_639:w
tp6129
aa(lp6130
a(lp6131
a(lp6132
aa(lp6133
(lp6134
a(lp6135
a(lp6136
a(lp6137
a(lp6138
aa(lp6139
(lp6140
a(lp6141
a(lp6142
a(lp6143
a(lp6144
aa(lp6145
(lp6146
a(lp6147
a(lp6148
a(lp6149
a(lp6150
aa(lp6151
(lp6152
a(lp6153
a(lp6154
a(lp6155
a(lp6156
aa(lp6157
(lp6158
a(lp6159
((lVhttp://dbpedia.org/resource/ISO_639:w
tp6160
aa(lp6161
a(lp6162
a(lp6163
aa(lp6164
(lp6165
a(lp6166
a(lp6167
a(lp6168
a(lp6169
aa(lp6170
(lp6171
a(lp6172
a(lp6173
a(lp6174
a(lp6175
aa(lp6176
(lp6177
a(lp6178
((lVhttp://dbpedia.org/resource/ISO_639:w
tp6179
aa(lp6180
a(lp6181
a(lp6182
aa(lp6183
(lp6184
a(lp6185
((lVhttp://dbpedia.org/resource/ISO_639:w
tp6186
aa(lp6187
a(lp6188
a(lp6189
aa(lp6190
(lp6191
a(lp6192
((lVhttp://dbpedia.org/resource/ISO_639:w
tp6193
aa(lp6194
a(lp6195
a(lp6196
aa(lp6197
(lp6198
a(lp6199
a(lp6200
a(lp6201
a(lp6202
aa(lp6203
(lp6204
a(lp6205
a(lp6206
a(lp6207
a(lp6208
aa(lp6209
(lp6210
a(lp6211
((lVhttp://dbpedia.org/resource/ISO_639:w
tp6212
aa(lp6213
a(lp6214
a(lp6215
aa(lp6216
(lp6217
a(lp6218
a(lp6219
a(lp6220
a(lp6221
aa(lp6222
(lp6223
a(lp6224
((lVhttp://dbpedia.org/resource/ISO_639:w
tp6225
aa(lp6226
a(lp6227
a(lp6228
aa(lp6229
(lp6230
a(lp6231
a(lp6232
a(lp6233
a(lp6234
aa(lp6235
(lp6236
a(lp6237
((lVhttp://dbpedia.org/resource/ISO_639:w
tp6238
aa(lp6239
a(lp6240
a(lp6241
aa(lp6242
(lp6243
a(lp6244
a(lp6245
a(lp6246
a(lp6247
aa(lp6248
(lp6249
a(lp6250
a(lp6251
a(lp6252
a(lp6253
aa(lp6254
(lp6255
a(lp6256
((lVhttp://dbpedia.org/resource/ISO_639:w
tp6257
aa(lp6258
a(lp6259
a(lp6260
aa(lp6261
(lp6262
a(lp6263
a(lp6264
a(lp6265
a(lp6266
aa(lp6267
(lp6268
a(lp6269
a(lp6270
a(lp6271
a(lp6272
aa(lp6273
(lp6274
a(lp6275
((lVhttp://dbpedia.org/resource/ISO_639:w
tp6276
aa(lp6277
a(lp6278
a(lp6279
aa(lp6280
(lp6281
a(lp6282
a(lp6283
a(lp6284
a(lp6285
aa(lp6286
(lp6287
a(lp6288
((lVhttp://dbpedia.org/resource/ISO_639:w
tp6289
aa(lp6290
a(lp6291
a(lp6292
aa(lp6293
(lp6294
a(lp6295
a(lp6296
a(lp6297
a(lp6298
aa(lp6299
(lp6300
a(lp6301
a(lp6302
a(lp6303
a(lp6304
aa(lp6305
(lp6306
a(lp6307
((lVhttp://dbpedia.org/resource/ISO_639:w
tp6308
aa(lp6309
a(lp6310
a(lp6311
aa(lp6312
(lp6313
a(lp6314
a(lp6315
a(lp6316
a(lp6317
aa(lp6318
(lp6319
a(lp6320
((lVhttp://dbpedia.org/resource/ISO_639:w
tp6321
aa(lp6322
a(lp6323
a(lp6324
aa(lp6325
(lp6326
a(lp6327
a(lp6328
a(lp6329
a(lp6330
aa(lp6331
(lp6332
a(lp6333
((lVhttp://dbpedia.org/resource/ISO_639:w
tp6334
aa(lp6335
a(lp6336
a(lp6337
aa(lp6338
(lp6339
a(lp6340
((lVhttp://dbpedia.org/resource/ISO_639:w
tp6341
aa(lp6342
a(lp6343
a(lp6344
aa(lp6345
(lp6346
a(lp6347
a(lp6348
a(lp6349
a(lp6350
aa(lp6351
(lp6352
a(lp6353
a(lp6354
a(lp6355
a(lp6356
aa(lp6357
(lp6358
a(lp6359
a(lp6360
a(lp6361
a(lp6362
aa(lp6363
(lp6364
a(lp6365
((lVhttp://dbpedia.org/resource/ISO_639:w
tp6366
aa(lp6367
a(lp6368
a(lp6369
aa(lp6370
(lp6371
a(lp6372
a(lp6373
a(lp6374
a(lp6375
aa(lp6376
(lp6377
a(lp6378
a(lp6379
a(lp6380
a(lp6381
aa(lp6382
(lp6383
a(lp6384
((lVhttp://dbpedia.org/resource/ISO_639:w
tp6385
aa(lp6386
a(lp6387
a(lp6388
aa(lp6389
(lp6390
a(lp6391
a(lp6392
a(lp6393
a(lp6394
aa(lp6395
(lp6396
a(lp6397
((lVhttp://dbpedia.org/resource/ISO_639:w
tp6398
aa(lp6399
a(lp6400
a(lp6401
aa(lp6402
(lp6403
a(lp6404
a(lp6405
a(lp6406
a(lp6407
aa(lp6408
(lp6409
a(lp6410
a(lp6411
a(lp6412
((lp6413
Vhttp://www.w3.org/2002/07/owl#Thing
p6414
aVhttp://dbpedia.org/class/yago/Abstraction100002137
p6415
aVhttp://dbpedia.org/class/yago/Class107997703
p6416
aVhttp://dbpedia.org/class/yago/Collection107951464
p6417
aVhttp://dbpedia.org/class/yago/Communication100033020
p6418
aVhttp://dbpedia.org/class/yago/Group100031264
p6419
aVhttp://dbpedia.org/class/yago/Language106282651
p6420
aVhttp://dbpedia.org/class/yago/NorthGermanicLanguages
p6421
aVhttp://dbpedia.org/resource/North_Germanic_languages
tp6422
aa(lp6423
aa(lp6424
(lp6425
a(lp6426
a(lp6427
a(lp6428
a(lp6429
aa(lp6430
(lp6431
a(lp6432
a(lp6433
a(lp6434
a(lp6435
aa(lp6436
(lp6437
a(lp6438
a(lp6439
a(lp6440
a(lp6441
aa(lp6442
(lp6443
a(lp6444
a(lp6445
a(lp6446
a(lp6447
aa(lp6448
(lp6449
a(lp6450
a(lp6451
a(lp6452
a(lp6453
aa(lp6454
(lp6455
a(lp6456
a(lp6457
a(lp6458
a(lp6459
aa(lp6460
(lp6461
a(lp6462
((lVhttp://dbpedia.org/resource/ISO_639:w
tp6463
aa(lp6464
a(lp6465
a(lp6466
aa(lp6467
(lp6468
a(lp6469
a(lp6470
a(lp6471
a(lp6472
aa(lp6473
(lp6474
a(lp6475
a(lp6476
a(lp6477
a(lp6478
aa(lp6479
(lp6480
a(lp6481
((lVhttp://dbpedia.org/resource/ISO_639:w
tp6482
aa(lp6483
a(lp6484
a(lp6485
aa(lp6486
(lp6487
a(lp6488
a(lp6489
a(lp6490
a(lp6491
aa(lp6492
(lp6493
a(lp6494
((lVhttp://dbpedia.org/resource/ISO_639:w
tp6495
aa(lp6496
a(lp6497
a(lp6498
aa(lp6499
(lp6500
a(lp6501
a(lp6502
a(lp6503
a(lp6504
aa(lp6505
(lp6506
a(lp6507
a(lp6508
a(lp6509
a(lp6510
aa(lp6511
(lp6512
a(lp6513
a(lp6514
a(lp6515
a(lp6516
aa(lp6517
(lp6518
a(lp6519
a(lp6520
a(lp6521
a(lp6522
aa(lp6523
(lp6524
a(lp6525
((lVhttp://dbpedia.org/resource/ISO_639:w
tp6526
aa(lp6527
a(lp6528
a(lp6529
aa(lp6530
(lp6531
a(lp6532
a(lp6533
a(lp6534
a(lp6535
aa(lp6536
(lp6537
a(lp6538
a(lp6539
a(lp6540
a(lp6541
aa(lp6542
(lp6543
a(lp6544
((lVhttp://dbpedia.org/resource/ISO_639:w
tp6545
aa(lp6546
a(lp6547
a(lp6548
aa(lp6549
(lp6550
a(lp6551
a(lp6552
a(lp6553
a(lp6554
aa(lp6555
(lp6556
a(lp6557
a(lp6558
a(lp6559
a(lp6560
aa(lp6561
(lp6562
a(lp6563
a(lp6564
a(lp6565
a(lp6566
aa(lp6567
(lp6568
a(lp6569
((lVhttp://dbpedia.org/resource/ISO_639:w
tp6570
aa(lp6571
a(lp6572
a(lp6573
aa(lp6574
(lp6575
a(lp6576
((lVhttp://dbpedia.org/resource/ISO_639:w
tp6577
aa(lp6578
a(lp6579
a(lp6580
aa(lp6581
(lp6582
a(lp6583
a(lp6584
a(lp6585
a(lp6586
aa(lp6587
(lp6588
a(lp6589
a(lp6590
a(lp6591
a(lp6592
aa(lp6593
(lp6594
a(lp6595
a(lp6596
a(lp6597
a(lp6598
aa(lp6599
(lp6600
a(lp6601
((lVhttp://dbpedia.org/resource/ISO_639:w
tp6602
aa(lp6603
a(lp6604
a(lp6605
aa(lp6606
(lp6607
a(lp6608
a(lp6609
a(lp6610
a(lp6611
aa(lp6612
(lp6613
a(lp6614
a(lp6615
a(lp6616
a(lp6617
aa(lp6618
(lp6619
a(lp6620
a(lp6621
a(lp6622
a(lp6623
aa(lp6624
(lp6625
a(lp6626
((lVhttp://dbpedia.org/resource/ISO_639:w
tp6627
aa(lp6628
a(lp6629
a(lp6630
aa(lp6631
(lp6632
a(lp6633
a(lp6634
a(lp6635
a(lp6636
aa(lp6637
(lp6638
a(lp6639
((lVhttp://dbpedia.org/resource/ISO_639:w
tp6640
aa(lp6641
a(lp6642
a(lp6643
aa(lp6644
(lp6645
a(lp6646
a(lp6647
a(lp6648
a(lp6649
aa(lp6650
(lp6651
a(lp6652
a(lp6653
a(lp6654
a(lp6655
aa(lp6656
(lp6657
a(lp6658
((lVhttp://dbpedia.org/resource/ISO_639:w
tp6659
aa(lp6660
a(lp6661
a(lp6662
aa(lp6663
(lp6664
a(lp6665
((lVhttp://dbpedia.org/resource/ISO_639:w
tp6666
aa(lp6667
a(lp6668
a(lp6669
aa(lp6670
(lp6671
a(lp6672
((lVhttp://dbpedia.org/resource/ISO_639:w
tp6673
aa(lp6674
a(lp6675
a(lp6676
aa(lp6677
(lp6678
a(lp6679
a(lp6680
a(lp6681
a(lp6682
aa(lp6683
(lp6684
a(lp6685
((lVhttp://dbpedia.org/resource/ISO_639:w
tp6686
aa(lp6687
a(lp6688
a(lp6689
aa(lp6690
(lp6691
a(lp6692
a(lp6693
a(lp6694
a(lp6695
aa(lp6696
(lp6697
a(lp6698
a(lp6699
a(lp6700
a(lp6701
aa(lp6702
(lp6703
a(lp6704
((lVhttp://dbpedia.org/resource/ISO_639:w
tp6705
aa(lp6706
a(lp6707
a(lp6708
aa(lp6709
(lp6710
a(lp6711
((lVhttp://dbpedia.org/resource/ISO_639:w
tp6712
aa(lp6713
a(lp6714
a(lp6715
aa(lp6716
(lp6717
a(lp6718
((lVhttp://dbpedia.org/resource/ISO_639:w
tp6719
aa(lp6720
a(lp6721
a(lp6722
aa(lp6723
(lp6724
a(lp6725
((lVhttp://dbpedia.org/resource/ISO_639:w
tp6726
aa(lp6727
a(lp6728
a(lp6729
aa(lp6730
(lp6731
a(lp6732
a(lp6733
a(lp6734
a(lp6735
aa(lp6736
(lp6737
a(lp6738
((lVhttp://dbpedia.org/resource/ISO_639:w
tp6739
aa(lp6740
a(lp6741
a(lp6742
aa(lp6743
(lp6744
a(lp6745
a(lp6746
a(lp6747
a(lp6748
aa(lp6749
(lp6750
a(lp6751
a(lp6752
a(lp6753
a(lp6754
aa(lp6755
(lp6756
a(lp6757
a(lp6758
a(lp6759
a(lp6760
aa(lp6761
(lp6762
a(lp6763
a(lp6764
a(lp6765
a(lp6766
aa(lp6767
(lp6768
a(lp6769
a(lp6770
a(lp6771
a(lp6772
aa(lp6773
(lp6774
a(lp6775
a(lp6776
a(lp6777
a(lp6778
aa(lp6779
(lp6780
a(lp6781
((lVhttp://dbpedia.org/resource/ISO_639:w
tp6782
aa(lp6783
a(lp6784
a(lp6785
aa(lp6786
(lp6787
a(lp6788
a(lp6789
a(lp6790
a(lp6791
aa(lp6792
(lp6793
a(lp6794
a(lp6795
a(lp6796
a(lp6797
aa(lp6798
(lp6799
a(lp6800
((lVhttp://dbpedia.org/resource/ISO_639:w
tp6801
aa(lp6802
a(lp6803
a(lp6804
aa(lp6805
(lp6806
a(lp6807
a(lp6808
a(lp6809
a(lp6810
aa(lp6811
(lp6812
a(lp6813
a(lp6814
a(lp6815
a(lp6816
aa(lp6817
(lp6818
a(lp6819
a(lp6820
a(lp6821
a(lp6822
aa(lp6823
(lp6824
a(lp6825
((lVhttp://dbpedia.org/resource/ISO_639:w
tp6826
aa(lp6827
a(lp6828
a(lp6829
aa(lp6830
(lp6831
a(lp6832
a(lp6833
a(lp6834
a(lp6835
aa(lp6836
(lp6837
a(lp6838
a(lp6839
a(lp6840
a(lp6841
aa(lp6842
(lp6843
a(lp6844
a(lp6845
a(lp6846
a(lp6847
aa(lp6848
(lp6849
a(lp6850
((lVhttp://dbpedia.org/resource/ISO_639:w
tp6851
aa(lp6852
a(lp6853
a(lp6854
aa(lp6855
(lp6856
a(lp6857
a(lp6858
a(lp6859
a(lp6860
aa(lp6861
(lp6862
a(lp6863
a(lp6864
a(lp6865
a(lp6866
aa(lp6867
(lp6868
a(lp6869
((lVhttp://dbpedia.org/resource/ISO_639:w
tp6870
aa(lp6871
a(lp6872
a(lp6873
aa(lp6874
(lp6875
a(lp6876
a(lp6877
a(lp6878
a(lp6879
aa(lp6880
(lp6881
a(lp6882
a(lp6883
a(lp6884
a(lp6885
aa(lp6886
(lp6887
a(lp6888
((lVhttp://dbpedia.org/resource/ISO_639:w
tp6889
aa(lp6890
a(lp6891
a(lp6892
aa(lp6893
(lp6894
a(lp6895
a(lp6896
a(lp6897
a(lp6898
aa(lp6899
(lp6900
a(lp6901
a(lp6902
a(lp6903
a(lp6904
aa(lp6905
(lp6906
a(lp6907
a(lp6908
a(lp6909
a(lp6910
aa(lp6911
(lp6912
a(lp6913
a(lp6914
a(lp6915
a(lp6916
aa(lp6917
(lp6918
a(lp6919
a(lp6920
a(lp6921
a(lp6922
aa(lp6923
(lp6924
a(lp6925
a(lp6926
a(lp6927
a(lp6928
aa(lp6929
(lp6930
a(lp6931
a(lp6932
a(lp6933
a(lp6934
aa(lp6935
(lp6936
a(lp6937
a(lp6938
a(lp6939
a(lp6940
aa(lp6941
(lp6942
a(lp6943
a(lp6944
((lp6945
Vhttp://www.w3.org/2002/07/owl#Thing
p6946
aVhttp://dbpedia.org/resource/X86_virtualization
tp6947
aa(lp6948
a(lp6949
aa(lp6950
(lp6951
a(lp6952
a(lp6953
a(lp6954
a(lp6955
aa(lp6956
(lp6957
a(lp6958
((lVhttp://dbpedia.org/resource/ISO_639:w
tp6959
aa(lp6960
a(lp6961
a(lp6962
aa(lp6963
(lp6964
a(lp6965
a(lp6966
a(lp6967
a(lp6968
aa(lp6969
(lp6970
a(lp6971
((lVhttp://dbpedia.org/resource/ISO_639:w
tp6972
aa(lp6973
a(lp6974
a(lp6975
aa(lp6976
(lp6977
a(lp6978
a(lp6979
a(lp6980
a(lp6981
aa(lp6982
(lp6983
a(lp6984
a(lp6985
a(lp6986
a(lp6987
aa(lp6988
(lp6989
a(lp6990
a(lp6991
a(lp6992
a(lp6993
aa(lp6994
(lp6995
a(lp6996
a(lp6997
a(lp6998
a(lp6999
aa(lp7000
(lp7001
a(lp7002
a(lp7003
a(lp7004
a(lp7005
aa(lp7006
(lp7007
a(lp7008
a(lp7009
a(lp7010
a(lp7011
((lVhttp://dbpedia.org/resource/Weihnachten
tp7012
aaa(lp7013
(lp7014
a(lp7015
a(lp7016
a(lp7017
a(lp7018
aa(lp7019
(lp7020
a(lp7021
a(lp7022
a(lp7023
a(lp7024
aa(lp7025
(lp7026
a(lp7027
a(lp7028
a(lp7029
a(lp7030
aa(lp7031
(lp7032
a(lp7033
((lVhttp://dbpedia.org/resource/ISO_639:w
tp7034
aa(lp7035
a(lp7036
a(lp7037
aa(lp7038
(lp7039
a(lp7040
((lVhttp://dbpedia.org/resource/ISO_639:w
p7041
tp7042
aa(lp7043
a(lp7044
a(lp7045
aa(lp7046
(lp7047
a(lp7048
a(lp7049
a(lp7050
a(lp7051
aa(lp7052
(lp7053
a(lp7054
a(lp7055
a(lp7056
a(lp7057
aa(lp7058
(lp7059
a(lp7060
a(lp7061
a(lp7062
a(lp7063
aa(lp7064
(lp7065
a(lp7066
a(lp7067
a(lp7068
a(lp7069
aa(lp7070
(lp7071
a(lp7072
a(lp7073
a(lp7074
a(lp7075
aa.