(lp1
(lp2
(dp3
Vstart
p4
I0
sVdisambiguatedURL
p5
NsVnamedEntity
p6
VVideo Views:
p7
sVoffset
p8
I12
saa(lp9
(dp10
Vstart
p11
I0
sVdisambiguatedURL
p12
NsVnamedEntity
p13
VChannel Views:
p14
sVoffset
p15
I14
saa(lp16
(dp17
Vstart
p18
I0
sVdisambiguatedURL
p19
Vhttp://dbpedia.org/resource/Download
p20
sVnamedEntity
p21
VUploads:
p22
sVoffset
p23
I8
saa(lp24
(dp25
Vstart
p26
I0
sVdisambiguatedURL
p27
Vhttp://dbpedia.org/resource/Contact_lens
p28
sVnamedEntity
p29
VContacts:
p30
sVoffset
p31
I9
saa(lp32
(dp33
Vstart
p34
I0
sVdisambiguatedURL
p35
Vhttp://dbpedia.org/resource/Subscription_business_model
p36
sVnamedEntity
p37
VSubscriptions:
p38
sVoffset
p39
I14
saa(lp40
(dp41
Vstart
p42
I0
sVdisambiguatedURL
p43
Vhttp://dbpedia.org/resource/Bookmark_(World_Wide_Web)
p44
sVnamedEntity
p45
VFavorites:
p46
sVoffset
p47
I10
saa.