(lp1
(lp2
(lp3
((lVhttp://dbpedia.org/resource/Null
tp4
aa(lp5
a(lp6
a(lp7
aa(lp8
(lp9
((lVhttp://dbpedia.org/resource/Null
tp10
aa(lp11
a(lp12
a(lp13
aa(lp14
(lp15
((lVhttp://dbpedia.org/resource/Null
tp16
aa(lp17
a(lp18
a(lp19
aa(lp20
(lp21
((lVhttp://dbpedia.org/resource/Null
tp22
aa(lp23
a(lp24
a(lp25
aa(lp26
(lp27
((lVhttp://dbpedia.org/resource/Null
tp28
aa(lp29
a(lp30
a(lp31
aa(lp32
(lp33
((lVhttp://dbpedia.org/resource/Null
tp34
aa(lp35
a(lp36
a(lp37
aa(lp38
(lp39
((lVhttp://dbpedia.org/resource/Null
tp40
aa(lp41
a(lp42
a(lp43
aa(lp44
(lp45
((lVhttp://dbpedia.org/resource/Null
tp46
aa(lp47
a(lp48
a(lp49
aa(lp50
(lp51
((lVhttp://dbpedia.org/resource/Null
tp52
aa(lp53
a(lp54
a(lp55
aa(lp56
(lp57
((lVhttp://dbpedia.org/resource/Null
tp58
aa(lp59
a(lp60
a(lp61
aa(lp62
(lp63
((lVhttp://dbpedia.org/resource/Null
tp64
aa(lp65
a(lp66
a(lp67
aa(lp68
(lp69
((lVhttp://dbpedia.org/resource/Null
tp70
aa(lp71
a(lp72
a(lp73
aa(lp74
(lp75
((lVhttp://dbpedia.org/resource/Null
tp76
aa(lp77
a(lp78
a(lp79
aa(lp80
(lp81
((lVhttp://dbpedia.org/resource/Null
tp82
aa(lp83
a(lp84
a(lp85
aa(lp86
(lp87
((lVhttp://dbpedia.org/resource/Null
tp88
aa(lp89
a(lp90
a(lp91
aa(lp92
(lp93
((lVhttp://dbpedia.org/resource/Null
tp94
aa(lp95
a(lp96
a(lp97
aa(lp98
(lp99
((lVhttp://dbpedia.org/resource/Null
tp100
aa(lp101
a(lp102
a(lp103
aa(lp104
(lp105
((lVhttp://dbpedia.org/resource/Null
tp106
aa(lp107
a(lp108
a(lp109
aa(lp110
(lp111
((lVhttp://dbpedia.org/resource/Null
tp112
aa(lp113
a(lp114
a(lp115
aa(lp116
(lp117
((lVhttp://dbpedia.org/resource/Null
p118
tp119
aa(lp120
a(lp121
a(lp122
aa.