(lp1
(lp2
(lp3
a(lp4
a(lp5
((lp6
Vhttp://www.w3.org/2002/07/owl#Thing
p7
aVhttp://dbpedia.org/ontology/Place
p8
aVhttp://dbpedia.org/ontology/Location
p9
aVhttp://www.wikidata.org/entity/Q34442
p10
aVhttp://dbpedia.org/ontology/ArchitecturalStructure
p11
aVhttp://dbpedia.org/ontology/Infrastructure
p12
aVhttp://dbpedia.org/ontology/Road
p13
aVhttp://dbpedia.org/ontology/RouteOfTransportation
p14
aVhttp://schema.org/Place
p15
aVhttp://umbel.org/umbel/rc/Facility_Construct
p16
aVhttp://umbel.org/umbel/rc/Street_Generic
p17
aVhttp://dbpedia.org/resource/West_Virginia_Route_270
tp18
aa(lp19
((lp20
Vhttp://www.w3.org/2002/07/owl#Thing
p21
aVhttp://dbpedia.org/ontology/Place
p22
aVhttp://dbpedia.org/ontology/Location
p23
aVhttp://www.wikidata.org/entity/Q3455524
p24
aVhttp://www.wikidata.org/entity/Q486972
p25
aVhttp://dbpedia.org/ontology/AdministrativeRegion
p26
aVhttp://dbpedia.org/ontology/PopulatedPlace
p27
aVhttp://dbpedia.org/ontology/Region
p28
aVhttp://schema.org/AdministrativeArea
p29
aVhttp://schema.org/Place
p30
aVhttp://umbel.org/umbel/rc/PopulatedPlace
p31
aVhttp://dbpedia.org/class/yago/Abstraction100002137
p32
aVhttp://dbpedia.org/class/yago/Company108058098
p33
aVhttp://dbpedia.org/class/yago/Group100031264
p34
aVhttp://dbpedia.org/class/yago/Institution108053576
p35
aVhttp://dbpedia.org/class/yago/Organization108008335
p36
aVhttp://dbpedia.org/class/yago/SocialGroup107950920
p37
aVhttp://dbpedia.org/class/yago/YagoLegalActorGeo
p38
aVhttp://dbpedia.org/class/yago/YagoPermanentlyLocatedEntity
p39
aVhttp://dbpedia.org/class/yago/MediaAndCommunicationsInCamden
p40
aVhttp://dbpedia.org/class/yago/MediaAndCommunicationsInEaling
p41
aVhttp://dbpedia.org/class/yago/MediaAndCommunicationsInHammersmithAndFulham
p42
aVhttp://dbpedia.org/class/yago/MediaAndCommunicationsInHounslow
p43
aVhttp://dbpedia.org/class/yago/MediaAndCommunicationsInKensingtonAndChelsea
p44
aVhttp://dbpedia.org/class/yago/MediaAndCommunicationsInWestminster
p45
aVhttp://dbpedia.org/class/yago/YagoLegalActor
p46
aVhttp://dbpedia.org/resource/W_postcode_area
tp47
aa(lp48
a(lp49
aa(lp50
(lp51
a(lp52
a(lp53
a(lp54
((lp55
Vhttp://dbpedia.org/class/yago/Artifact100021939
p56
aVhttp://dbpedia.org/class/yago/CanonL-SeriesLenses
p57
aVhttp://dbpedia.org/class/yago/Device103183080
p58
aVhttp://dbpedia.org/class/yago/Lens103656484
p59
aVhttp://dbpedia.org/class/yago/Object100002684
p60
aVhttp://dbpedia.org/class/yago/OpticalDevice103851341
p61
aVhttp://dbpedia.org/class/yago/Whole100003553
p62
aVhttp://dbpedia.org/class/yago/Instrumentality103575240
p63
aVhttp://dbpedia.org/class/yago/PhysicalEntity100001930
p64
aVhttp://dbpedia.org/resource/Canon_L_lens
tp65
aa(lp66
a(lp67
aa(lp68
(lp69
a(lp70
a(lp71
a(lp72
((lp73
Vhttp://www.w3.org/2002/07/owl#Thing
p74
aVhttp://dbpedia.org/ontology/Place
p75
aVhttp://dbpedia.org/ontology/Location
p76
aVhttp://www.wikidata.org/entity/Q3455524
p77
aVhttp://www.wikidata.org/entity/Q486972
p78
aVhttp://dbpedia.org/ontology/AdministrativeRegion
p79
aVhttp://dbpedia.org/ontology/PopulatedPlace
p80
aVhttp://dbpedia.org/ontology/Region
p81
aVhttp://schema.org/AdministrativeArea
p82
aVhttp://schema.org/Place
p83
aVhttp://umbel.org/umbel/rc/PopulatedPlace
p84
aVhttp://dbpedia.org/class/yago/Abstraction100002137
p85
aVhttp://dbpedia.org/class/yago/Company108058098
p86
aVhttp://dbpedia.org/class/yago/Group100031264
p87
aVhttp://dbpedia.org/class/yago/Institution108053576
p88
aVhttp://dbpedia.org/class/yago/Organization108008335
p89
aVhttp://dbpedia.org/class/yago/SocialGroup107950920
p90
aVhttp://dbpedia.org/class/yago/YagoLegalActorGeo
p91
aVhttp://dbpedia.org/class/yago/YagoPermanentlyLocatedEntity
p92
aVhttp://dbpedia.org/class/yago/MediaAndCommunicationsInCamden
p93
aVhttp://dbpedia.org/class/yago/MediaAndCommunicationsInEaling
p94
aVhttp://dbpedia.org/class/yago/MediaAndCommunicationsInHammersmithAndFulham
p95
aVhttp://dbpedia.org/class/yago/MediaAndCommunicationsInHounslow
p96
aVhttp://dbpedia.org/class/yago/MediaAndCommunicationsInKensingtonAndChelsea
p97
aVhttp://dbpedia.org/class/yago/MediaAndCommunicationsInWestminster
p98
aVhttp://dbpedia.org/class/yago/YagoLegalActor
p99
aVhttp://dbpedia.org/resource/W_postcode_area
tp100
aa(lp101
a(lp102
aa(lp103
(lp104
a(lp105
a(lp106
a(lp107
((lp108
Vhttp://dbpedia.org/class/yago/Artifact100021939
p109
aVhttp://dbpedia.org/class/yago/CanonL-SeriesLenses
p110
aVhttp://dbpedia.org/class/yago/Device103183080
p111
aVhttp://dbpedia.org/class/yago/Lens103656484
p112
aVhttp://dbpedia.org/class/yago/Object100002684
p113
aVhttp://dbpedia.org/class/yago/OpticalDevice103851341
p114
aVhttp://dbpedia.org/class/yago/Whole100003553
p115
aVhttp://dbpedia.org/class/yago/Instrumentality103575240
p116
aVhttp://dbpedia.org/class/yago/PhysicalEntity100001930
p117
aVhttp://dbpedia.org/resource/Canon_L_lens
tp118
aa(lp119
a(lp120
aa(lp121
(lp122
a(lp123
a(lp124
a(lp125
((lp126
Vhttp://www.w3.org/2002/07/owl#Thing
p127
aVhttp://dbpedia.org/ontology/Company
p128
aVhttp://www.ontologydesignpatterns.org/ont/dul/DUL.owl#Agent
p129
aVhttp://www.ontologydesignpatterns.org/ont/dul/DUL.owl#SocialPerson
p130
aVhttp://www.wikidata.org/entity/Q43229
p131
aVhttp://dbpedia.org/ontology/Agent
p132
aVhttp://dbpedia.org/ontology/Organisation
p133
aVhttp://schema.org/Organization
p134
aVhttp://umbel.org/umbel/rc/Business
p135
aVhttp://umbel.org/umbel/rc/Organization
p136
aVhttp://dbpedia.org/class/yago/Abstraction100002137
p137
aVhttp://dbpedia.org/class/yago/Company108058098
p138
aVhttp://dbpedia.org/class/yago/Group100031264
p139
aVhttp://dbpedia.org/class/yago/Institution108053576
p140
aVhttp://dbpedia.org/class/yago/Organization108008335
p141
aVhttp://dbpedia.org/class/yago/SocialGroup107950920
p142
aVhttp://dbpedia.org/class/yago/TelephoneCompany108186221
p143
aVhttp://dbpedia.org/class/yago/Utility108185758
p144
aVhttp://dbpedia.org/class/yago/YagoLegalActorGeo
p145
aVhttp://dbpedia.org/class/yago/CompaniesBasedInBonn
p146
aVhttp://dbpedia.org/class/yago/CompaniesEstablishedIn1990
p147
aVhttp://dbpedia.org/class/yago/YagoPermanentlyLocatedEntity
p148
aVhttp://dbpedia.org/class/yago/MobilePhoneCompaniesOfAustria
p149
aVhttp://dbpedia.org/class/yago/MobilePhoneCompaniesOfGermany
p150
aVhttp://dbpedia.org/class/yago/MobilePhoneCompaniesOfMontenegro
p151
aVhttp://dbpedia.org/class/yago/YagoLegalActor
p152
aVhttp://dbpedia.org/class/yago/Service108186047
p153
aVhttp://dbpedia.org/class/yago/TelecommunicationsCompaniesOfTheUnitedKingdom
p154
aVhttp://dbpedia.org/resource/T-Mobile
tp155
aa(lp156
a(lp157
aa(lp158
(lp159
a(lp160
a(lp161
a(lp162
((lp163
Vhttp://dbpedia.org/class/yago/Artifact100021939
p164
aVhttp://dbpedia.org/class/yago/CanonL-SeriesLenses
p165
aVhttp://dbpedia.org/class/yago/Device103183080
p166
aVhttp://dbpedia.org/class/yago/Lens103656484
p167
aVhttp://dbpedia.org/class/yago/Object100002684
p168
aVhttp://dbpedia.org/class/yago/OpticalDevice103851341
p169
aVhttp://dbpedia.org/class/yago/Whole100003553
p170
aVhttp://dbpedia.org/class/yago/Instrumentality103575240
p171
aVhttp://dbpedia.org/class/yago/PhysicalEntity100001930
p172
aVhttp://dbpedia.org/resource/Canon_L_lens
tp173
aa(lp174
a(lp175
aa(lp176
(lp177
a(lp178
a(lp179
a(lp180
((lp181
Vhttp://www.w3.org/2002/07/owl#Thing
p182
aVhttp://dbpedia.org/ontology/Place
p183
aVhttp://dbpedia.org/ontology/Location
p184
aVhttp://www.wikidata.org/entity/Q3455524
p185
aVhttp://www.wikidata.org/entity/Q486972
p186
aVhttp://dbpedia.org/ontology/AdministrativeRegion
p187
aVhttp://dbpedia.org/ontology/PopulatedPlace
p188
aVhttp://dbpedia.org/ontology/Region
p189
aVhttp://schema.org/AdministrativeArea
p190
aVhttp://schema.org/Place
p191
aVhttp://umbel.org/umbel/rc/PopulatedPlace
p192
aVhttp://dbpedia.org/class/yago/Abstraction100002137
p193
aVhttp://dbpedia.org/class/yago/Company108058098
p194
aVhttp://dbpedia.org/class/yago/Group100031264
p195
aVhttp://dbpedia.org/class/yago/Institution108053576
p196
aVhttp://dbpedia.org/class/yago/Organization108008335
p197
aVhttp://dbpedia.org/class/yago/SocialGroup107950920
p198
aVhttp://dbpedia.org/class/yago/YagoLegalActorGeo
p199
aVhttp://dbpedia.org/class/yago/YagoPermanentlyLocatedEntity
p200
aVhttp://dbpedia.org/class/yago/MediaAndCommunicationsInCamden
p201
aVhttp://dbpedia.org/class/yago/MediaAndCommunicationsInEaling
p202
aVhttp://dbpedia.org/class/yago/MediaAndCommunicationsInHammersmithAndFulham
p203
aVhttp://dbpedia.org/class/yago/MediaAndCommunicationsInHounslow
p204
aVhttp://dbpedia.org/class/yago/MediaAndCommunicationsInKensingtonAndChelsea
p205
aVhttp://dbpedia.org/class/yago/MediaAndCommunicationsInWestminster
p206
aVhttp://dbpedia.org/class/yago/YagoLegalActor
p207
aVhttp://dbpedia.org/resource/W_postcode_area
tp208
aa(lp209
a(lp210
aa(lp211
(lp212
a(lp213
a(lp214
a(lp215
((lp216
Vhttp://www.w3.org/2002/07/owl#Thing
p217
aVhttp://dbpedia.org/ontology/Place
p218
aVhttp://dbpedia.org/ontology/Location
p219
aVhttp://www.wikidata.org/entity/Q3455524
p220
aVhttp://www.wikidata.org/entity/Q486972
p221
aVhttp://dbpedia.org/ontology/AdministrativeRegion
p222
aVhttp://dbpedia.org/ontology/PopulatedPlace
p223
aVhttp://dbpedia.org/ontology/Region
p224
aVhttp://schema.org/AdministrativeArea
p225
aVhttp://schema.org/Place
p226
aVhttp://umbel.org/umbel/rc/PopulatedPlace
p227
aVhttp://dbpedia.org/class/yago/Abstraction100002137
p228
aVhttp://dbpedia.org/class/yago/Company108058098
p229
aVhttp://dbpedia.org/class/yago/Group100031264
p230
aVhttp://dbpedia.org/class/yago/Institution108053576
p231
aVhttp://dbpedia.org/class/yago/Organization108008335
p232
aVhttp://dbpedia.org/class/yago/SocialGroup107950920
p233
aVhttp://dbpedia.org/class/yago/YagoLegalActorGeo
p234
aVhttp://dbpedia.org/class/yago/YagoPermanentlyLocatedEntity
p235
aVhttp://dbpedia.org/class/yago/MediaAndCommunicationsInCamden
p236
aVhttp://dbpedia.org/class/yago/MediaAndCommunicationsInEaling
p237
aVhttp://dbpedia.org/class/yago/MediaAndCommunicationsInHammersmithAndFulham
p238
aVhttp://dbpedia.org/class/yago/MediaAndCommunicationsInHounslow
p239
aVhttp://dbpedia.org/class/yago/MediaAndCommunicationsInKensingtonAndChelsea
p240
aVhttp://dbpedia.org/class/yago/MediaAndCommunicationsInWestminster
p241
aVhttp://dbpedia.org/class/yago/YagoLegalActor
p242
aVhttp://dbpedia.org/resource/W_postcode_area
tp243
aa(lp244
a(lp245
aa(lp246
(lp247
a(lp248
a(lp249
a(lp250
((lp251
Vhttp://dbpedia.org/class/yago/Artifact100021939
p252
aVhttp://dbpedia.org/class/yago/CanonL-SeriesLenses
p253
aVhttp://dbpedia.org/class/yago/Device103183080
p254
aVhttp://dbpedia.org/class/yago/Lens103656484
p255
aVhttp://dbpedia.org/class/yago/Object100002684
p256
aVhttp://dbpedia.org/class/yago/OpticalDevice103851341
p257
aVhttp://dbpedia.org/class/yago/Whole100003553
p258
aVhttp://dbpedia.org/class/yago/Instrumentality103575240
p259
aVhttp://dbpedia.org/class/yago/PhysicalEntity100001930
p260
aVhttp://dbpedia.org/resource/Canon_L_lens
p261
tp262
aa(lp263
a(lp264
aa(lp265
(lp266
a(lp267
a(lp268
a(lp269
a(lp270
a(lp271
aa.