(lp1
(lp2
(lp3
a(lp4
a(lp5
a(lp6
((lVhttp://dbpedia.org/resource/Null
tp7
aa(lp8
aa(lp9
(lp10
a(lp11
a(lp12
a(lp13
((lVhttp://dbpedia.org/resource/Verification
tp14
aa(lp15
aa(lp16
(lp17
a(lp18
a(lp19
a(lp20
((lVhttp://dbpedia.org/resource/Verification
tp21
aa(lp22
aa(lp23
(lp24
a(lp25
a(lp26
a(lp27
((lVhttp://dbpedia.org/resource/Verification
tp28
aa(lp29
aa(lp30
(lp31
a(lp32
a(lp33
a(lp34
((lVhttp://dbpedia.org/resource/Verification
p35
tp36
aa(lp37
aa.