(lp1
(lp2
(lp3
a(lp4
a(lp5
((lp6
Vhttp://www.w3.org/2002/07/owl#Thing
p7
aVhttp://dbpedia.org/resource/Compass
tp8
aa(lp9
((lp10
Vhttp://dbpedia.org/class/yago/Artifact100021939
p11
aVhttp://dbpedia.org/class/yago/Object100002684
p12
aVhttp://dbpedia.org/class/yago/System104377057
p13
aVhttp://dbpedia.org/class/yago/Whole100003553
p14
aVhttp://www.w3.org/2002/07/owl#Thing
p15
aVhttp://dbpedia.org/ontology/Genre
p16
aVhttp://www.ontologydesignpatterns.org/ont/dul/DUL.owl#Concept
p17
aVhttp://www.wikidata.org/entity/Q188451
p18
aVhttp://dbpedia.org/ontology/TopicalConcept
p19
aVhttp://dbpedia.org/class/yago/DataSystem103164344
p20
aVhttp://dbpedia.org/class/yago/InformationSystems
p21
aVhttp://dbpedia.org/class/yago/Instrumentality103575240
p22
aVhttp://dbpedia.org/class/yago/PhysicalEntity100001930
p23
aVhttp://dbpedia.org/resource/Complex_event_processing
tp24
aa(lp25
((lp26
Vhttp://www.w3.org/2002/07/owl#Thing
p27
aVhttp://dbpedia.org/ontology/Genre
p28
aVhttp://www.ontologydesignpatterns.org/ont/dul/DUL.owl#Concept
p29
aVhttp://www.wikidata.org/entity/Q188451
p30
aVhttp://dbpedia.org/ontology/TopicalConcept
p31
aVhttp://dbpedia.org/resource/Computer-assisted_translation
tp32
aa(lp33
((lp34
Vhttp://dbpedia.org/class/yago/Ability105616246
p35
aVhttp://dbpedia.org/class/yago/Abstraction100002137
p36
aVhttp://dbpedia.org/class/yago/Cognition100023271
p37
aVhttp://dbpedia.org/class/yago/Know-how105616786
p38
aVhttp://dbpedia.org/class/yago/Method105660268
p39
aVhttp://www.w3.org/2002/07/owl#Thing
p40
aVhttp://dbpedia.org/ontology/Genre
p41
aVhttp://www.ontologydesignpatterns.org/ont/dul/DUL.owl#Concept
p42
aVhttp://www.wikidata.org/entity/Q188451
p43
aVhttp://dbpedia.org/ontology/TopicalConcept
p44
aVhttp://dbpedia.org/class/yago/EvaluationMethods
p45
aVhttp://dbpedia.org/class/yago/PsychologicalFeature100023100
p46
aVhttp://dbpedia.org/class/yago/MethodsInSociology
p47
aVhttp://dbpedia.org/resource/Content_analysis
tp48
aa(lp49
((lp50
Vhttp://www.w3.org/2002/07/owl#Thing
p51
aVhttp://dbpedia.org/ontology/Genre
p52
aVhttp://www.ontologydesignpatterns.org/ont/dul/DUL.owl#Concept
p53
aVhttp://www.wikidata.org/entity/Q188451
p54
aVhttp://dbpedia.org/ontology/TopicalConcept
p55
aVhttp://dbpedia.org/resource/Court_(royal)
tp56
aa(lp57
((lp58
Vhttp://dbpedia.org/class/yago/Abstraction100002137
p59
aVhttp://dbpedia.org/class/yago/Cognition100023271
p60
aVhttp://dbpedia.org/class/yago/Communication100033020
p61
aVhttp://dbpedia.org/class/yago/Concept105835747
p62
aVhttp://dbpedia.org/class/yago/Content105809192
p63
aVhttp://dbpedia.org/class/yago/ExpressiveStyle107066659
p64
aVhttp://dbpedia.org/class/yago/Genre105845332
p65
aVhttp://dbpedia.org/class/yago/Idea105833840
p66
aVhttp://dbpedia.org/class/yago/Kind105839024
p67
aVhttp://www.w3.org/2002/07/owl#Thing
p68
aVhttp://dbpedia.org/ontology/Genre
p69
aVhttp://www.ontologydesignpatterns.org/ont/dul/DUL.owl#Concept
p70
aVhttp://www.wikidata.org/entity/Q188451
p71
aVhttp://dbpedia.org/ontology/TopicalConcept
p72
aVhttp://dbpedia.org/class/yago/PsychologicalFeature100023100
p73
aVhttp://dbpedia.org/class/yago/Category105838765
p74
aVhttp://dbpedia.org/class/yago/Genres
p75
aVhttp://dbpedia.org/class/yago/JournalismGenres
p76
aVhttp://dbpedia.org/class/yago/LiteraryGenres
p77
aVhttp://dbpedia.org/class/yago/WritingStyle107092158
p78
aVhttp://dbpedia.org/resource/Creative_nonfiction
tp79
aa(lp80
((lp81
Vhttp://dbpedia.org/class/yago/Abstraction100002137
p82
aVhttp://dbpedia.org/class/yago/Cognition100023271
p83
aVhttp://dbpedia.org/class/yago/Concept105835747
p84
aVhttp://dbpedia.org/class/yago/Content105809192
p85
aVhttp://dbpedia.org/class/yago/Genre105845332
p86
aVhttp://dbpedia.org/class/yago/Idea105833840
p87
aVhttp://dbpedia.org/class/yago/Kind105839024
p88
aVhttp://www.w3.org/2002/07/owl#Thing
p89
aVhttp://dbpedia.org/ontology/Genre
p90
aVhttp://www.ontologydesignpatterns.org/ont/dul/DUL.owl#Concept
p91
aVhttp://www.wikidata.org/entity/Q188451
p92
aVhttp://dbpedia.org/ontology/TopicalConcept
p93
aVhttp://dbpedia.org/class/yago/PsychologicalFeature100023100
p94
aVhttp://dbpedia.org/class/yago/Category105838765
p95
aVhttp://dbpedia.org/class/yago/Genres
p96
aVhttp://dbpedia.org/resource/Cross-genre
tp97
aa(lp98
((lp99
Vhttp://www.w3.org/2002/07/owl#Thing
p100
aVhttp://dbpedia.org/ontology/Genre
p101
aVhttp://www.ontologydesignpatterns.org/ont/dul/DUL.owl#Concept
p102
aVhttp://www.wikidata.org/entity/Q188451
p103
aVhttp://dbpedia.org/ontology/TopicalConcept
p104
aVhttp://dbpedia.org/resource/Crossover_(music)
tp105
aa(lp106
((lp107
Vhttp://dbpedia.org/class/yago/Location100027167
p108
aVhttp://dbpedia.org/class/yago/Object100002684
p109
aVhttp://dbpedia.org/class/yago/YagoGeoEntity
p110
aVhttp://dbpedia.org/class/yago/YagoLegalActorGeo
p111
aVhttp://www.w3.org/2003/01/geo/wgs84_pos#SpatialThing
p112
aVhttp://dbpedia.org/class/yago/YagoPermanentlyLocatedEntity
p113
aVhttp://dbpedia.org/class/yago/MountainPassesOfAntarctica
p114
aVhttp://dbpedia.org/class/yago/Pass109386842
p115
aVhttp://dbpedia.org/class/yago/PhysicalEntity100001930
p116
aVhttp://dbpedia.org/resource/Crossover_Pass
tp117
aa(lp118
a(lp119
((lp120
Vhttp://www.w3.org/2002/07/owl#Thing
p121
aVhttp://dbpedia.org/ontology/Genre
p122
aVhttp://www.ontologydesignpatterns.org/ont/dul/DUL.owl#Concept
p123
aVhttp://www.wikidata.org/entity/Q188451
p124
aVhttp://dbpedia.org/ontology/TopicalConcept
p125
aVhttp://dbpedia.org/resource/Culture
tp126
aa(lp127
((lp128
Vhttp://www.w3.org/2002/07/owl#Thing
p129
aVhttp://dbpedia.org/ontology/Genre
p130
aVhttp://www.ontologydesignpatterns.org/ont/dul/DUL.owl#Concept
p131
aVhttp://www.wikidata.org/entity/Q188451
p132
aVhttp://dbpedia.org/ontology/TopicalConcept
p133
aVhttp://dbpedia.org/resource/Cyberculture
tp134
aa(lp135
((lp136
Vhttp://dbpedia.org/class/yago/Abstraction100002137
p137
aVhttp://dbpedia.org/class/yago/Group100031264
p138
aVhttp://dbpedia.org/class/yago/SocialGroup107950920
p139
aVhttp://www.w3.org/2002/07/owl#Thing
p140
aVhttp://dbpedia.org/ontology/Genre
p141
aVhttp://www.ontologydesignpatterns.org/ont/dul/DUL.owl#Concept
p142
aVhttp://www.wikidata.org/entity/Q188451
p143
aVhttp://dbpedia.org/ontology/TopicalConcept
p144
aVhttp://dbpedia.org/class/yago/MusicalSubcultures
p145
aVhttp://dbpedia.org/class/yago/Subculture108288753
p146
aVhttp://dbpedia.org/resource/Cybergoth
tp147
aa(lp148
a(lp149
((lp150
Vhttp://dbpedia.org/class/yago/Abstraction100002137
p151
aVhttp://dbpedia.org/class/yago/Cognition100023271
p152
aVhttp://dbpedia.org/class/yago/Datum105816622
p153
aVhttp://dbpedia.org/class/yago/Information105816287
p154
aVhttp://www.w3.org/2002/07/owl#Thing
p155
aVhttp://dbpedia.org/ontology/Genre
p156
aVhttp://www.ontologydesignpatterns.org/ont/dul/DUL.owl#Concept
p157
aVhttp://www.wikidata.org/entity/Q188451
p158
aVhttp://dbpedia.org/ontology/TopicalConcept
p159
aVhttp://dbpedia.org/class/yago/ComputerData
p160
aVhttp://dbpedia.org/class/yago/PsychologicalFeature100023100
p161
aVhttp://dbpedia.org/resource/Data_recovery
tp162
aa(lp163
((lp164
Vhttp://dbpedia.org/class/yago/CausalAgent100007347
p165
aVhttp://dbpedia.org/class/yago/Expert109617867
p166
aVhttp://dbpedia.org/class/yago/LivingThing100004258
p167
aVhttp://dbpedia.org/class/yago/Object100002684
p168
aVhttp://dbpedia.org/class/yago/Organism100004475
p169
aVhttp://dbpedia.org/class/yago/Person100007846
p170
aVhttp://dbpedia.org/class/yago/Specialist110631941
p171
aVhttp://dbpedia.org/class/yago/Whole100003553
p172
aVhttp://dbpedia.org/class/yago/YagoLegalActorGeo
p173
aVhttp://www.w3.org/2002/07/owl#Thing
p174
aVhttp://dbpedia.org/ontology/Genre
p175
aVhttp://www.ontologydesignpatterns.org/ont/dul/DUL.owl#Concept
p176
aVhttp://www.wikidata.org/entity/Q188451
p177
aVhttp://dbpedia.org/ontology/TopicalConcept
p178
aVhttp://dbpedia.org/class/yago/DatabaseSpecialists
p179
aVhttp://dbpedia.org/class/yago/YagoLegalActor
p180
aVhttp://dbpedia.org/class/yago/PhysicalEntity100001930
p181
aVhttp://dbpedia.org/resource/Database_administrator
p182
tp183
aa(lp184
aa.