(lp1
(dp2
I0
(dp3
I0
(lp4
sI1
(lp5
sI2
(lp6
ssI1
(dp7
I0
g5
sI1
(lp8
sI2
(lp9
ssI2
(dp10
I0
g6
sI1
g9
sI2
(lp11
ssa(dp12
I0
(dp13
I0
(lp14
sI1
(lp15
sI2
(lp16
Vhttp://purl.org/voc/vrank#hasRank
p17
assI1
(dp18
I0
g15
sI1
(lp19
sI2
(lp20
Vhttp://purl.org/voc/vrank#hasRank
p21
assI2
(dp22
I0
g16
sI1
g20
sI2
(lp23
ssa(dp24
I0
(dp25
I0
(lp26
sI1
(lp27
sI2
(lp28
Vhttp://www.w3.org/ns/prov#wasDerivedFrom
p29
aVhttp://dbpedia.org/ontology/wikiPageRedirects
p30
assI1
(dp31
I0
g27
sI1
(lp32
sI2
(lp33
Vhttp://purl.org/voc/vrank#hasRank
p34
assI2
(dp35
I0
g28
sI1
g33
sI2
(lp36
ssa(dp37
I0
(dp38
I0
(lp39
sI1
(lp40
sI2
(lp41
Vhttp://www.w3.org/ns/prov#wasDerivedFrom
p42
aVhttp://purl.org/voc/vrank#hasRank
p43
aVhttp://dbpedia.org/ontology/wikiPageRedirects
p44
assI1
(dp45
I0
g40
sI1
(lp46
sI2
(lp47
Vhttp://purl.org/voc/vrank#hasRank
p48
aVhttp://www.w3.org/2002/07/owl#sameAs
p49
assI2
(dp50
I0
g41
sI1
g47
sI2
(lp51
ssa(dp52
I0
(dp53
I0
(lp54
sI1
(lp55
sI2
(lp56
ssI1
(dp57
I1
(lp58
sI2
(lp59
ssI2
(dp60
I2
(lp61
ssa.