(lp1
(dp2
I0
(dp3
I0
(lp4
sI1
(lp5
sI2
(lp6
sI3
(lp7
sI4
(lp8
sI5
(lp9
sI6
(lp10
sI7
(lp11
ssI1
(dp12
I0
g5
sI1
(lp13
sI2
(lp14
sI3
(lp15
sI4
(lp16
sI5
(lp17
sI6
(lp18
sI7
(lp19
ssI2
(dp20
I0
g6
sI1
g14
sI2
(lp21
sI3
(lp22
sI4
(lp23
sI5
(lp24
sI6
(lp25
sI7
(lp26
ssI3
(dp27
I0
g7
sI1
g15
sI2
g22
sI3
(lp28
sI4
(lp29
sI5
(lp30
sI6
(lp31
sI7
(lp32
ssI4
(dp33
I0
g8
sI1
g16
sI2
g23
sI3
g29
sI4
(lp34
sI5
(lp35
sI6
(lp36
sI7
(lp37
ssI5
(dp38
I0
g9
sI1
g17
sI2
g24
sI3
g30
sI4
g35
sI5
(lp39
sI6
(lp40
sI7
(lp41
ssI6
(dp42
I0
g10
sI1
g18
sI2
g25
sI3
g31
sI4
g36
sI5
g40
sI6
(lp43
sI7
(lp44
ssI7
(dp45
I0
g11
sI1
g19
sI2
g26
sI3
g32
sI4
g37
sI5
g41
sI6
g44
sI7
(lp46
ssa(dp47
I0
(dp48
I0
(lp49
sI1
(lp50
sI2
(lp51
sI3
(lp52
sI4
(lp53
sI5
(lp54
sI6
(lp55
sI7
(lp56
ssI1
(dp57
I0
g50
sI1
(lp58
sI2
(lp59
sI3
(lp60
sI4
(lp61
sI5
(lp62
sI6
(lp63
sI7
(lp64
ssI2
(dp65
I0
g51
sI1
g59
sI2
(lp66
sI3
(lp67
sI4
(lp68
sI5
(lp69
sI6
(lp70
sI7
(lp71
ssI3
(dp72
I0
g52
sI1
g60
sI2
g67
sI3
(lp73
sI4
(lp74
sI5
(lp75
sI6
(lp76
sI7
(lp77
ssI4
(dp78
I0
g53
sI1
g61
sI2
g68
sI3
g74
sI4
(lp79
sI5
(lp80
sI6
(lp81
sI7
(lp82
ssI5
(dp83
I0
g54
sI1
g62
sI2
g69
sI3
g75
sI4
g80
sI5
(lp84
sI6
(lp85
sI7
(lp86
ssI6
(dp87
I0
g55
sI1
g63
sI2
g70
sI3
g76
sI4
g81
sI5
g85
sI6
(lp88
sI7
(lp89
ssI7
(dp90
I0
g56
sI1
g64
sI2
g71
sI4
g82
sI5
g86
sI6
g89
sI7
(lp91
ssa(dp92
I0
(dp93
I0
(lp94
sI1
(lp95
sI2
(lp96
sI3
(lp97
sI4
(lp98
sI5
(lp99
sI6
(lp100
sI7
(lp101
ssI1
(dp102
I0
g95
sI1
(lp103
sI2
(lp104
sI3
(lp105
sI4
(lp106
sI5
(lp107
sI6
(lp108
sI7
(lp109
ssI2
(dp110
I0
g96
sI1
g104
sI2
(lp111
sI3
(lp112
sI4
(lp113
sI5
(lp114
sI6
(lp115
sI7
(lp116
ssI3
(dp117
I0
g97
sI1
g105
sI2
g112
sI3
(lp118
sI4
(lp119
sI5
(lp120
sI6
(lp121
sI7
(lp122
ssI4
(dp123
I0
g98
sI1
g106
sI2
g113
sI3
g119
sI4
(lp124
sI5
(lp125
sI6
(lp126
sI7
(lp127
ssI5
(dp128
I0
g99
sI1
g107
sI2
g114
sI3
g120
sI4
g125
sI5
(lp129
sI6
(lp130
sI7
(lp131
ssI6
(dp132
I0
g100
sI1
g108
sI2
g115
sI3
g121
sI4
g126
sI5
g130
sI6
(lp133
sI7
(lp134
ssI7
(dp135
I0
g101
sI1
g109
sI2
g116
sI4
g127
sI5
g131
sI6
g134
sI7
(lp136
ssa(dp137
I0
(dp138
I0
(lp139
sI1
(lp140
sI2
(lp141
sI3
(lp142
sI4
(lp143
sI5
(lp144
sI6
(lp145
sI7
(lp146
ssI1
(dp147
I0
g140
sI1
(lp148
sI2
(lp149
sI3
(lp150
sI4
(lp151
sI5
(lp152
sI6
(lp153
sI7
(lp154
ssI2
(dp155
I0
g141
sI1
g149
sI2
(lp156
sI3
(lp157
sI4
(lp158
sI5
(lp159
sI6
(lp160
sI7
(lp161
ssI3
(dp162
I0
g142
sI1
g150
sI2
g157
sI3
(lp163
sI4
(lp164
sI5
(lp165
sI6
(lp166
sI7
(lp167
ssI4
(dp168
I0
g143
sI1
g151
sI2
g158
sI3
g164
sI4
(lp169
sI5
(lp170
sI6
(lp171
sI7
(lp172
ssI5
(dp173
I0
g144
sI1
g152
sI2
g159
sI3
g165
sI4
g170
sI5
(lp174
sI6
(lp175
sI7
(lp176
ssI6
(dp177
I0
g145
sI1
g153
sI2
g160
sI3
g166
sI4
g171
sI5
g175
sI6
(lp178
sI7
(lp179
ssI7
(dp180
I0
g146
sI1
g154
sI2
g161
sI3
g167
sI4
g172
sI5
g176
sI6
g179
sI7
(lp181
ssa(dp182
I0
(dp183
I0
(lp184
sI1
(lp185
sI2
(lp186
sI3
(lp187
sI4
(lp188
sI5
(lp189
sI6
(lp190
sI7
(lp191
ssI1
(dp192
I0
g185
sI1
(lp193
sI2
(lp194
sI3
(lp195
sI4
(lp196
sI5
(lp197
sI6
(lp198
sI7
(lp199
ssI2
(dp200
I0
g186
sI1
g194
sI2
(lp201
sI3
(lp202
sI4
(lp203
sI5
(lp204
sI6
(lp205
sI7
(lp206
ssI3
(dp207
I0
g187
sI1
g195
sI2
g202
sI3
(lp208
sI4
(lp209
sI5
(lp210
sI6
(lp211
sI7
(lp212
ssI4
(dp213
I0
g188
sI1
g196
sI2
g203
sI3
g209
sI4
(lp214
sI5
(lp215
sI6
(lp216
sI7
(lp217
ssI5
(dp218
I0
g189
sI1
g197
sI2
g204
sI3
g210
sI4
g215
sI5
(lp219
sI6
(lp220
sI7
(lp221
ssI6
(dp222
I0
g190
sI1
g198
sI2
g205
sI3
g211
sI4
g216
sI5
g220
sI6
(lp223
sI7
(lp224
ssI7
(dp225
I0
g191
sI1
g199
sI2
g206
sI3
g212
sI4
g217
sI5
g221
sI6
g224
sI7
(lp226
ssa(dp227
I0
(dp228
I0
(lp229
sI1
(lp230
sI2
(lp231
sI3
(lp232
sI4
(lp233
sI5
(lp234
sI6
(lp235
sI7
(lp236
ssI1
(dp237
I0
g230
sI1
(lp238
sI2
(lp239
sI3
(lp240
sI4
(lp241
sI5
(lp242
sI6
(lp243
sI7
(lp244
ssI2
(dp245
I0
g231
sI1
g239
sI2
(lp246
sI3
(lp247
sI4
(lp248
sI5
(lp249
sI6
(lp250
sI7
(lp251
ssI3
(dp252
I0
g232
sI1
g240
sI2
g247
sI3
(lp253
sI4
(lp254
sI5
(lp255
sI6
(lp256
sI7
(lp257
ssI4
(dp258
I0
g233
sI1
g241
sI2
g248
sI3
g254
sI4
(lp259
sI5
(lp260
sI6
(lp261
sI7
(lp262
ssI5
(dp263
I0
g234
sI1
g242
sI2
g249
sI3
g255
sI4
g260
sI5
(lp264
sI6
(lp265
sI7
(lp266
ssI6
(dp267
I0
g235
sI1
g243
sI2
g250
sI3
g256
sI4
g261
sI5
g265
sI6
(lp268
sI7
(lp269
ssI7
(dp270
I0
g236
sI1
g244
sI2
g251
sI4
g262
sI5
g266
sI6
g269
sI7
(lp271
ssa(dp272
I0
(dp273
I0
(lp274
sI1
(lp275
sI2
(lp276
sI3
(lp277
sI4
(lp278
sI5
(lp279
sI6
(lp280
sI7
(lp281
ssI1
(dp282
I0
g275
sI1
(lp283
sI2
(lp284
sI3
(lp285
sI4
(lp286
sI5
(lp287
sI6
(lp288
sI7
(lp289
ssI2
(dp290
I0
g276
sI1
g284
sI2
(lp291
sI3
(lp292
sI4
(lp293
sI5
(lp294
sI6
(lp295
sI7
(lp296
ssI3
(dp297
I0
g277
sI1
g285
sI2
g292
sI3
(lp298
sI4
(lp299
sI5
(lp300
sI6
(lp301
sI7
(lp302
ssI4
(dp303
I0
g278
sI1
g286
sI2
g293
sI3
g299
sI4
(lp304
sI5
(lp305
sI6
(lp306
sI7
(lp307
ssI5
(dp308
I0
g279
sI1
g287
sI2
g294
sI3
g300
sI4
g305
sI5
(lp309
sI6
(lp310
sI7
(lp311
ssI6
(dp312
I0
g280
sI1
g288
sI2
g295
sI3
g301
sI4
g306
sI5
g310
sI6
(lp313
sI7
(lp314
ssI7
(dp315
I0
g281
sI1
g289
sI2
g296
sI4
g307
sI5
g311
sI6
g314
sI7
(lp316
ssa(dp317
I0
(dp318
I0
(lp319
sI1
(lp320
sI2
(lp321
sI3
(lp322
sI4
(lp323
sI5
(lp324
sI6
(lp325
sI7
(lp326
ssI1
(dp327
I0
g320
sI1
(lp328
sI2
(lp329
sI3
(lp330
sI4
(lp331
sI5
(lp332
sI6
(lp333
sI7
(lp334
ssI2
(dp335
I0
g321
sI1
g329
sI2
(lp336
sI3
(lp337
sI4
(lp338
sI5
(lp339
sI6
(lp340
sI7
(lp341
ssI3
(dp342
I0
g322
sI1
g330
sI2
g337
sI3
(lp343
sI4
(lp344
sI5
(lp345
sI6
(lp346
sI7
(lp347
ssI4
(dp348
I0
g323
sI1
g331
sI2
g338
sI3
g344
sI4
(lp349
sI5
(lp350
sI6
(lp351
sI7
(lp352
ssI5
(dp353
I0
g324
sI1
g332
sI2
g339
sI3
g345
sI4
g350
sI5
(lp354
sI6
(lp355
sI7
(lp356
ssI6
(dp357
I0
g325
sI1
g333
sI2
g340
sI3
g346
sI4
g351
sI5
g355
sI6
(lp358
sI7
(lp359
ssI7
(dp360
I0
g326
sI1
g334
sI2
g341
sI3
g347
sI4
g352
sI5
g356
sI6
g359
sI7
(lp361
ssa(dp362
I0
(dp363
I0
(lp364
sI1
(lp365
sI2
(lp366
sI3
(lp367
sI4
(lp368
sI5
(lp369
sI6
(lp370
sI7
(lp371
ssI1
(dp372
I0
g365
sI1
(lp373
sI2
(lp374
sI3
(lp375
sI4
(lp376
sI5
(lp377
sI6
(lp378
sI7
(lp379
ssI2
(dp380
I0
g366
sI1
g374
sI2
(lp381
sI3
(lp382
sI4
(lp383
sI5
(lp384
sI6
(lp385
sI7
(lp386
ssI3
(dp387
I0
g367
sI1
g375
sI2
g382
sI3
(lp388
sI4
(lp389
sI5
(lp390
sI6
(lp391
sI7
(lp392
ssI4
(dp393
I0
g368
sI1
g376
sI2
g383
sI3
g389
sI4
(lp394
sI5
(lp395
sI6
(lp396
sI7
(lp397
ssI5
(dp398
I0
g369
sI1
g377
sI2
g384
sI3
g390
sI4
g395
sI5
(lp399
sI6
(lp400
sI7
(lp401
ssI6
(dp402
I0
g370
sI1
g378
sI2
g385
sI3
g391
sI4
g396
sI5
g400
sI6
(lp403
sI7
(lp404
ssI7
(dp405
I0
g371
sI1
g379
sI2
g386
sI4
g397
sI5
g401
sI6
g404
sI7
(lp406
ssa(dp407
I0
(dp408
I0
(lp409
sI1
(lp410
sI2
(lp411
sI3
(lp412
sI4
(lp413
sI5
(lp414
sI6
(lp415
sI7
(lp416
ssI1
(dp417
I0
g410
sI1
(lp418
sI2
(lp419
sI3
(lp420
sI4
(lp421
sI5
(lp422
sI6
(lp423
sI7
(lp424
ssI2
(dp425
I0
g411
sI1
g419
sI2
(lp426
sI3
(lp427
sI4
(lp428
sI5
(lp429
sI6
(lp430
sI7
(lp431
ssI3
(dp432
I0
g412
sI1
g420
sI2
g427
sI3
(lp433
sI4
(lp434
sI5
(lp435
sI6
(lp436
sI7
(lp437
ssI4
(dp438
I0
g413
sI1
g421
sI2
g428
sI3
g434
sI4
(lp439
sI5
(lp440
sI6
(lp441
sI7
(lp442
ssI5
(dp443
I0
g414
sI1
g422
sI2
g429
sI3
g435
sI4
g440
sI5
(lp444
sI6
(lp445
sI7
(lp446
ssI6
(dp447
I0
g415
sI1
g423
sI2
g430
sI3
g436
sI4
g441
sI5
g445
sI6
(lp448
sI7
(lp449
ssI7
(dp450
I0
g416
sI1
g424
sI2
g431
sI4
g442
sI5
g446
sI6
g449
sI7
(lp451
ssa(dp452
I0
(dp453
I0
(lp454
sI1
(lp455
sI2
(lp456
sI3
(lp457
sI4
(lp458
sI5
(lp459
sI6
(lp460
sI7
(lp461
ssI1
(dp462
I0
g455
sI1
(lp463
sI2
(lp464
sI3
(lp465
sI4
(lp466
sI5
(lp467
sI6
(lp468
sI7
(lp469
ssI2
(dp470
I0
g456
sI1
g464
sI2
(lp471
sI3
(lp472
sI4
(lp473
sI5
(lp474
sI6
(lp475
sI7
(lp476
ssI3
(dp477
I0
g457
sI1
g465
sI2
g472
sI3
(lp478
sI4
(lp479
sI5
(lp480
sI6
(lp481
sI7
(lp482
ssI4
(dp483
I0
g458
sI1
g466
sI2
g473
sI3
g479
sI4
(lp484
sI5
(lp485
sI6
(lp486
sI7
(lp487
ssI5
(dp488
I0
g459
sI1
g467
sI2
g474
sI3
g480
sI4
g485
sI5
(lp489
sI6
(lp490
sI7
(lp491
ssI6
(dp492
I0
g460
sI1
g468
sI2
g475
sI3
g481
sI4
g486
sI5
g490
sI6
(lp493
sI7
(lp494
ssI7
(dp495
I0
g461
sI1
g469
sI2
g476
sI3
g482
sI4
g487
sI5
g491
sI6
g494
sI7
(lp496
ssa(dp497
I0
(dp498
I0
(lp499
sI1
(lp500
sI2
(lp501
sI3
(lp502
sI4
(lp503
sI5
(lp504
sI6
(lp505
sI7
(lp506
ssI1
(dp507
I0
g500
sI1
(lp508
sI2
(lp509
sI3
(lp510
sI4
(lp511
sI5
(lp512
sI6
(lp513
sI7
(lp514
ssI2
(dp515
I0
g501
sI1
g509
sI2
(lp516
sI3
(lp517
sI4
(lp518
sI5
(lp519
sI6
(lp520
sI7
(lp521
ssI3
(dp522
I0
g502
sI1
g510
sI2
g517
sI3
(lp523
sI4
(lp524
sI5
(lp525
sI6
(lp526
sI7
(lp527
ssI4
(dp528
I0
g503
sI1
g511
sI2
g518
sI3
g524
sI4
(lp529
sI5
(lp530
sI6
(lp531
sI7
(lp532
ssI5
(dp533
I0
g504
sI1
g512
sI2
g519
sI3
g525
sI4
g530
sI5
(lp534
sI6
(lp535
sI7
(lp536
ssI6
(dp537
I0
g505
sI1
g513
sI2
g520
sI3
g526
sI4
g531
sI5
g535
sI6
(lp538
sI7
(lp539
ssI7
(dp540
I0
g506
sI1
g514
sI2
g521
sI4
g532
sI5
g536
sI6
g539
sI7
(lp541
ssa(dp542
I0
(dp543
I0
(lp544
sI1
(lp545
sI2
(lp546
sI3
(lp547
sI4
(lp548
sI5
(lp549
sI6
(lp550
sI7
(lp551
ssI1
(dp552
I0
g545
sI1
(lp553
sI2
(lp554
sI3
(lp555
sI4
(lp556
sI5
(lp557
sI6
(lp558
sI7
(lp559
ssI2
(dp560
I0
g546
sI1
g554
sI2
(lp561
sI3
(lp562
sI4
(lp563
sI5
(lp564
sI6
(lp565
sI7
(lp566
ssI3
(dp567
I0
g547
sI1
g555
sI2
g562
sI3
(lp568
sI4
(lp569
sI5
(lp570
sI6
(lp571
sI7
(lp572
ssI4
(dp573
I0
g548
sI1
g556
sI2
g563
sI3
g569
sI4
(lp574
sI5
(lp575
sI6
(lp576
sI7
(lp577
ssI5
(dp578
I0
g549
sI1
g557
sI2
g564
sI3
g570
sI4
g575
sI5
(lp579
sI6
(lp580
sI7
(lp581
ssI6
(dp582
I0
g550
sI1
g558
sI2
g565
sI3
g571
sI4
g576
sI5
g580
sI6
(lp583
sI7
(lp584
ssI7
(dp585
I0
g551
sI1
g559
sI2
g566
sI4
g577
sI5
g581
sI6
g584
sI7
(lp586
ssa(dp587
I0
(dp588
I0
(lp589
sI1
(lp590
sI2
(lp591
sI3
(lp592
sI4
(lp593
sI5
(lp594
sI6
(lp595
sI7
(lp596
ssI1
(dp597
I0
g590
sI1
(lp598
sI2
(lp599
sI3
(lp600
sI4
(lp601
sI5
(lp602
sI6
(lp603
sI7
(lp604
ssI2
(dp605
I0
g591
sI1
g599
sI2
(lp606
sI3
(lp607
sI4
(lp608
sI5
(lp609
sI6
(lp610
sI7
(lp611
ssI3
(dp612
I0
g592
sI1
g600
sI2
g607
sI3
(lp613
sI4
(lp614
sI5
(lp615
sI6
(lp616
sI7
(lp617
ssI4
(dp618
I0
g593
sI1
g601
sI2
g608
sI3
g614
sI4
(lp619
sI5
(lp620
sI6
(lp621
sI7
(lp622
ssI5
(dp623
I0
g594
sI1
g602
sI2
g609
sI3
g615
sI4
g620
sI5
(lp624
sI6
(lp625
sI7
(lp626
ssI6
(dp627
I0
g595
sI1
g603
sI2
g610
sI3
g616
sI4
g621
sI5
g625
sI6
(lp628
sI7
(lp629
ssI7
(dp630
I0
g596
sI1
g604
sI2
g611
sI4
g622
sI5
g626
sI6
g629
sI7
(lp631
ssa(dp632
I0
(dp633
I0
(lp634
sI1
(lp635
sI2
(lp636
sI3
(lp637
sI4
(lp638
sI5
(lp639
sI6
(lp640
sI7
(lp641
ssI1
(dp642
I0
g635
sI1
(lp643
sI2
(lp644
sI3
(lp645
sI4
(lp646
sI5
(lp647
sI6
(lp648
sI7
(lp649
ssI2
(dp650
I0
g636
sI1
g644
sI2
(lp651
sI3
(lp652
sI4
(lp653
sI5
(lp654
sI6
(lp655
sI7
(lp656
ssI3
(dp657
I0
g637
sI1
g645
sI2
g652
sI3
(lp658
sI4
(lp659
sI5
(lp660
sI6
(lp661
sI7
(lp662
ssI4
(dp663
I0
g638
sI1
g646
sI2
g653
sI3
g659
sI4
(lp664
sI5
(lp665
sI6
(lp666
sI7
(lp667
ssI5
(dp668
I0
g639
sI1
g647
sI2
g654
sI3
g660
sI4
g665
sI5
(lp669
sI6
(lp670
sI7
(lp671
ssI6
(dp672
I0
g640
sI1
g648
sI2
g655
sI3
g661
sI4
g666
sI5
g670
sI6
(lp673
sI7
(lp674
ssI7
(dp675
I0
g641
sI1
g649
sI2
g656
sI4
g667
sI5
g671
sI6
g674
sI7
(lp676
ssa(dp677
I0
(dp678
I0
(lp679
sI1
(lp680
sI2
(lp681
sI3
(lp682
sI4
(lp683
sI5
(lp684
sI6
(lp685
sI7
(lp686
ssI1
(dp687
I0
g680
sI1
(lp688
sI2
(lp689
sI3
(lp690
sI4
(lp691
sI5
(lp692
sI6
(lp693
sI7
(lp694
ssI2
(dp695
I0
g681
sI1
g689
sI2
(lp696
sI3
(lp697
sI4
(lp698
sI5
(lp699
sI6
(lp700
sI7
(lp701
ssI3
(dp702
I0
g682
sI1
g690
sI2
g697
sI3
(lp703
sI4
(lp704
sI5
(lp705
sI6
(lp706
sI7
(lp707
ssI4
(dp708
I0
g683
sI1
g691
sI2
g698
sI3
g704
sI4
(lp709
sI5
(lp710
sI6
(lp711
sI7
(lp712
ssI5
(dp713
I0
g684
sI1
g692
sI2
g699
sI3
g705
sI4
g710
sI5
(lp714
sI6
(lp715
sI7
(lp716
ssI6
(dp717
I0
g685
sI1
g693
sI2
g700
sI3
g706
sI4
g711
sI5
g715
sI6
(lp718
sI7
(lp719
ssI7
(dp720
I0
g686
sI1
g694
sI2
g701
sI4
g712
sI5
g716
sI6
g719
sI7
(lp721
ssa(dp722
I0
(dp723
I0
(lp724
sI1
(lp725
sI2
(lp726
sI3
(lp727
sI4
(lp728
sI5
(lp729
sI6
(lp730
sI7
(lp731
ssI1
(dp732
I0
g725
sI1
(lp733
sI2
(lp734
sI3
(lp735
sI4
(lp736
sI5
(lp737
sI6
(lp738
sI7
(lp739
ssI2
(dp740
I0
g726
sI1
g734
sI2
(lp741
sI3
(lp742
sI4
(lp743
sI5
(lp744
sI6
(lp745
sI7
(lp746
ssI3
(dp747
I0
g727
sI1
g735
sI2
g742
sI3
(lp748
sI4
(lp749
sI5
(lp750
sI6
(lp751
sI7
(lp752
ssI4
(dp753
I0
g728
sI1
g736
sI2
g743
sI3
g749
sI4
(lp754
sI5
(lp755
sI6
(lp756
sI7
(lp757
ssI5
(dp758
I0
g729
sI1
g737
sI2
g744
sI3
g750
sI4
g755
sI5
(lp759
sI6
(lp760
sI7
(lp761
ssI6
(dp762
I0
g730
sI1
g738
sI2
g745
sI3
g751
sI4
g756
sI5
g760
sI6
(lp763
sI7
(lp764
ssI7
(dp765
I0
g731
sI1
g739
sI2
g746
sI4
g757
sI5
g761
sI6
g764
sI7
(lp766
ssa(dp767
I0
(dp768
I0
(lp769
sI1
(lp770
sI2
(lp771
sI3
(lp772
sI4
(lp773
sI5
(lp774
sI6
(lp775
sI7
(lp776
ssI1
(dp777
I0
g770
sI1
(lp778
sI2
(lp779
sI3
(lp780
sI4
(lp781
sI5
(lp782
sI6
(lp783
sI7
(lp784
ssI2
(dp785
I0
g771
sI1
g779
sI2
(lp786
sI3
(lp787
sI4
(lp788
sI5
(lp789
sI6
(lp790
sI7
(lp791
ssI3
(dp792
I0
g772
sI1
g780
sI2
g787
sI3
(lp793
sI4
(lp794
sI5
(lp795
sI6
(lp796
sI7
(lp797
ssI4
(dp798
I0
g773
sI1
g781
sI2
g788
sI3
g794
sI4
(lp799
sI5
(lp800
sI6
(lp801
sI7
(lp802
ssI5
(dp803
I0
g774
sI1
g782
sI2
g789
sI3
g795
sI4
g800
sI5
(lp804
sI6
(lp805
sI7
(lp806
ssI6
(dp807
I0
g775
sI1
g783
sI2
g790
sI3
g796
sI4
g801
sI5
g805
sI6
(lp808
sI7
(lp809
ssI7
(dp810
I0
g776
sI1
g784
sI2
g791
sI4
g802
sI5
g806
sI6
g809
sI7
(lp811
ssa(dp812
I0
(dp813
I0
(lp814
sI1
(lp815
sI2
(lp816
sI3
(lp817
sI4
(lp818
sI5
(lp819
sI6
(lp820
sI7
(lp821
ssI1
(dp822
I0
g815
sI1
(lp823
sI2
(lp824
sI3
(lp825
sI4
(lp826
sI5
(lp827
sI6
(lp828
sI7
(lp829
ssI2
(dp830
I0
g816
sI1
g824
sI2
(lp831
sI3
(lp832
sI4
(lp833
sI5
(lp834
sI6
(lp835
sI7
(lp836
ssI3
(dp837
I0
g817
sI1
g825
sI2
g832
sI3
(lp838
sI4
(lp839
sI5
(lp840
sI6
(lp841
sI7
(lp842
ssI4
(dp843
I0
g818
sI1
g826
sI2
g833
sI3
g839
sI4
(lp844
sI5
(lp845
sI6
(lp846
sI7
(lp847
ssI5
(dp848
I0
g819
sI1
g827
sI2
g834
sI3
g840
sI4
g845
sI5
(lp849
sI6
(lp850
sI7
(lp851
ssI6
(dp852
I0
g820
sI1
g828
sI2
g835
sI3
g841
sI4
g846
sI5
g850
sI6
(lp853
sI7
(lp854
ssI7
(dp855
I0
g821
sI1
g829
sI2
g836
sI4
g847
sI5
g851
sI6
g854
sI7
(lp856
ssa(dp857
I0
(dp858
I0
(lp859
sI1
(lp860
sI2
(lp861
sI3
(lp862
sI4
(lp863
sI5
(lp864
sI6
(lp865
sI7
(lp866
ssI1
(dp867
I0
g860
sI1
(lp868
sI2
(lp869
sI3
(lp870
sI4
(lp871
sI5
(lp872
sI6
(lp873
sI7
(lp874
ssI2
(dp875
I0
g861
sI1
g869
sI2
(lp876
sI3
(lp877
sI4
(lp878
sI5
(lp879
sI6
(lp880
sI7
(lp881
ssI3
(dp882
I0
g862
sI1
g870
sI2
g877
sI3
(lp883
sI4
(lp884
sI5
(lp885
sI6
(lp886
sI7
(lp887
ssI4
(dp888
I0
g863
sI1
g871
sI2
g878
sI3
g884
sI4
(lp889
sI5
(lp890
sI6
(lp891
sI7
(lp892
ssI5
(dp893
I0
g864
sI1
g872
sI2
g879
sI3
g885
sI4
g890
sI5
(lp894
sI6
(lp895
sI7
(lp896
ssI6
(dp897
I0
g865
sI1
g873
sI2
g880
sI3
g886
sI4
g891
sI5
g895
sI6
(lp898
sI7
(lp899
ssI7
(dp900
I0
g866
sI1
g874
sI2
g881
sI4
g892
sI5
g896
sI6
g899
sI7
(lp901
ssa.