(lp1
(dp2
I0
(dp3
I0
(lp4
sI1
(lp5
Vhttp://dbpedia.org/property/rd3Team
p6
aVhttp://dbpedia.org/property/hostCity
p7
aVhttp://dbpedia.org/property/2rpt2Loc
p8
aVhttp://dbpedia.org/property/populationDensityRank
p9
aVhttp://dbpedia.org/property/worldPlace
p10
aVhttp://dbpedia.org/property/birthplace
p11
aVhttp://dbpedia.org/ontology/country
p12
aVhttp://dbpedia.org/property/returns
p13
aVhttp://www.w3.org/1999/02/22-rdf-syntax-ns#type
p14
aVhttp://dbpedia.org/property/2rpt1Loc
p15
aVhttp://dbpedia.org/property/bronze
p16
aVhttp://dbpedia.org/property/home
p17
aVhttp://dbpedia.org/property/withdraws
p18
aVhttp://dbpedia.org/property/country
p19
aVhttp://dbpedia.org/property/rallybase
p20
aVhttp://dbpedia.org/property/areasAffected
p21
aVhttp://dbpedia.org/ontology/wikiPageExternalLink
p22
aVhttp://dbpedia.org/property/rd2t2Loc
p23
aVhttp://dbpedia.org/property/place
p24
aVhttp://dbpedia.org/ontology/abstract
p25
aVhttp://dbpedia.org/property/venue
p26
aVhttp://dbpedia.org/property/location
p27
aVhttp://dbpedia.org/property/debuts
p28
aVhttp://dbpedia.org/ontology/language
p29
aVhttp://dbpedia.org/property/title
p30
aVhttp://dbpedia.org/property/rd1t3Loc
p31
aVhttp://dbpedia.org/ontology/location
p32
aVhttp://www.w3.org/2000/01/rdf-schema#comment
p33
aVhttp://dbpedia.org/property/before
p34
aVhttp://dbpedia.org/property/stadium
p35
aVhttp://dbpedia.org/property/date
p36
aVhttp://dbpedia.org/property/asianPlace
p37
aVhttp://www.w3.org/2002/07/owl#sameAs
p38
asI2
(lp39
Vhttp://dbpedia.org/ontology/abstract
p40
aVhttp://www.w3.org/1999/02/22-rdf-syntax-ns#type
p41
aVhttp://www.w3.org/2002/07/owl#sameAs
p42
aVhttp://www.w3.org/2000/01/rdf-schema#comment
p43
asI3
(lp44
sI4
(lp45
sI5
(lp46
sI6
(lp47
sI7
(lp48
ssI1
(dp49
I0
g5
sI1
(lp50
sI2
(lp51
sI3
(lp52
sI4
(lp53
sI5
(lp54
sI6
(lp55
Vhttp://dbpedia.org/property/origin
p56
aVhttp://www.w3.org/1999/02/22-rdf-syntax-ns#type
p57
aVhttp://www.w3.org/2000/01/rdf-schema#comment
p58
aVhttp://dbpedia.org/ontology/origin
p59
aVhttp://dbpedia.org/property/home
p60
aVhttp://dbpedia.org/ontology/abstract
p61
aVhttp://dbpedia.org/property/hostCity
p62
aVhttp://dbpedia.org/property/venue
p63
aVhttp://dbpedia.org/property/location
p64
aVhttp://dbpedia.org/property/withdraws
p65
aVhttp://dbpedia.org/ontology/hometown
p66
aVhttp://dbpedia.org/property/birthplace
p67
aVhttp://dbpedia.org/property/usedBy
p68
aVhttp://dbpedia.org/ontology/PopulatedPlace/populationDensity
p69
aVhttp://www.w3.org/2002/07/owl#sameAs
p70
aVhttp://dbpedia.org/property/areasAffected
p71
asI7
(lp72
Vhttp://dbpedia.org/property/origin
p73
aVhttp://dbpedia.org/property/placeOfDeath
p74
aVhttp://dbpedia.org/property/ground
p75
aVhttp://dbpedia.org/ontology/origin
p76
aVhttp://dbpedia.org/property/place
p77
aVhttp://dbpedia.org/property/stateParty
p78
aVhttp://dbpedia.org/property/worldPlace
p79
aVhttp://dbpedia.org/property/city
p80
aVhttp://dbpedia.org/property/birthplace
p81
aVhttp://dbpedia.org/property/asianPlace
p82
aVhttp://www.w3.org/ns/prov#wasDerivedFrom
p83
aVhttp://dbpedia.org/property/nation
p84
aVhttp://dbpedia.org/ontology/country
p85
aVhttp://dbpedia.org/property/region
p86
aVhttp://www.w3.org/1999/02/22-rdf-syntax-ns#type
p87
aVhttp://www.w3.org/2002/07/owl#sameAs
p88
aVhttp://dbpedia.org/property/home
p89
aVhttp://dbpedia.org/property/locationCountry
p90
aVhttp://dbpedia.org/property/hostCity
p91
aVhttp://dbpedia.org/property/assembly
p92
aVhttp://dbpedia.org/ontology/ground
p93
aVhttp://dbpedia.org/property/nationalteam
p94
aVhttp://dbpedia.org/property/birthPlace
p95
aVhttp://dbpedia.org/ontology/place
p96
aVhttp://dbpedia.org/property/placeOfBirth
p97
aVhttp://dbpedia.org/property/title
p98
aVhttp://dbpedia.org/property/gdpNominalPerCapita
p99
aVhttp://dbpedia.org/property/country
p100
aVhttp://dbpedia.org/property/constituencyMp
p101
aVhttp://dbpedia.org/property/nearestCity
p102
aVhttp://dbpedia.org/property/basinCountries
p103
aVhttp://dbpedia.org/property/rd2t2Loc
p104
aVhttp://dbpedia.org/property/nationality
p105
aVhttp://dbpedia.org/ontology/abstract
p106
aVhttp://dbpedia.org/property/rd1t8Loc
p107
aVhttp://dbpedia.org/property/venue
p108
aVhttp://dbpedia.org/property/deathPlace
p109
aVhttp://dbpedia.org/property/location
p110
aVhttp://dbpedia.org/property/states
p111
aVhttp://dbpedia.org/property/gdpPppPerCapita
p112
aVhttp://dbpedia.org/ontology/locationCountry
p113
aVhttp://dbpedia.org/property/premiereLocation
p114
aVhttp://dbpedia.org/ontology/deathPlace
p115
aVhttp://dbpedia.org/property/namedAfter
p116
aVhttp://dbpedia.org/ontology/assembly
p117
aVhttp://dbpedia.org/property/usedBy
p118
aVhttp://dbpedia.org/property/shipNamesake
p119
aVhttp://dbpedia.org/property/subdivisionName
p120
aVhttp://dbpedia.org/property/nationalOrigin
p121
aVhttp://dbpedia.org/property/shipRegistry
p122
aVhttp://dbpedia.org/property/locale
p123
aVhttp://dbpedia.org/property/cityServed
p124
aVhttp://dbpedia.org/property/rd1t3Loc
p125
aVhttp://www.georss.org/georss/point
p126
aVhttp://dbpedia.org/property/moreUsers
p127
aVhttp://dbpedia.org/property/headquarters
p128
aVhttp://dbpedia.org/ontology/PopulatedPlace/areaTotal
p129
aVhttp://dbpedia.org/ontology/birthPlace
p130
aVhttp://www.w3.org/2000/01/rdf-schema#comment
p131
aVhttp://purl.org/voc/vrank#hasRank
p132
aVhttp://dbpedia.org/property/citizenship
p133
aVhttp://dbpedia.org/property/countries
p134
aVhttp://dbpedia.org/ontology/language
p135
aVhttp://dbpedia.org/property/residence
p136
aVhttp://dbpedia.org/property/stadium
p137
aVhttp://dbpedia.org/ontology/location
p138
assI2
(dp139
I0
g39
sI1
g51
sI2
(lp140
sI3
(lp141
sI4
(lp142
sI5
(lp143
sI6
(lp144
Vhttp://www.w3.org/1999/02/22-rdf-syntax-ns#type
p145
asI7
(lp146
Vhttp://www.georss.org/georss/point
p147
aVhttp://www.w3.org/2000/01/rdf-schema#comment
p148
aVhttp://dbpedia.org/ontology/postalCode
p149
aVhttp://dbpedia.org/ontology/abstract
p150
aVhttp://dbpedia.org/ontology/PopulatedPlace/areaTotal
p151
aVhttp://www.w3.org/1999/02/22-rdf-syntax-ns#type
p152
aVhttp://www.w3.org/ns/prov#wasDerivedFrom
p153
aVhttp://purl.org/voc/vrank#hasRank
p154
aVhttp://dbpedia.org/ontology/PopulatedPlace/populationDensity
p155
aVhttp://www.w3.org/2002/07/owl#sameAs
p156
assI3
(dp157
I0
g44
sI1
g52
sI2
g141
sI3
(lp158
sI4
(lp159
sI5
(lp160
sI6
(lp161
sI7
(lp162
ssI4
(dp163
I0
g45
sI1
g53
sI2
g142
sI3
g159
sI4
(lp164
sI5
(lp165
sI6
(lp166
sI7
(lp167
ssI5
(dp168
I0
g46
sI1
g54
sI2
g143
sI3
g160
sI4
g165
sI5
(lp169
sI6
(lp170
sI7
(lp171
ssI6
(dp172
I0
g47
sI1
g55
sI2
g144
sI3
g161
sI4
g166
sI5
g170
sI6
(lp173
sI7
(lp174
ssI7
(dp175
I0
g48
sI1
g72
sI2
g146
sI3
g162
sI4
g167
sI5
g171
sI6
g174
sI7
(lp176
ssa(dp177
I0
(dp178
I0
(lp179
sI1
(lp180
Vhttp://dbpedia.org/ontology/wikiPageExternalLink
p181
aVhttp://dbpedia.org/ontology/country
p182
aVhttp://www.w3.org/1999/02/22-rdf-syntax-ns#type
p183
aVhttp://dbpedia.org/property/shipCountry
p184
aVhttp://dbpedia.org/property/origin
p185
aVhttp://dbpedia.org/property/countriesAffected
p186
aVhttp://dbpedia.org/property/allegiance
p187
aVhttp://dbpedia.org/property/place
p188
aVhttp://dbpedia.org/property/location
p189
aVhttp://dbpedia.org/property/worldPlace
p190
aVhttp://dbpedia.org/ontology/nationality
p191
aVhttp://dbpedia.org/property/asianPlace
p192
aVhttp://dbpedia.org/property/country
p193
aVhttp://dbpedia.org/property/area
p194
aVhttp://dbpedia.org/property/data
p195
aVhttp://dbpedia.org/ontology/broadcastArea
p196
asI2
(lp197
Vhttp://www.w3.org/1999/02/22-rdf-syntax-ns#type
p198
aVhttp://dbpedia.org/ontology/PopulatedPlace/populationDensity
p199
asI3
(lp200
Vhttp://www.w3.org/1999/02/22-rdf-syntax-ns#type
p201
aVhttp://dbpedia.org/property/id
p202
asI4
(lp203
sI5
(lp204
sI6
(lp205
sI7
(lp206
ssI1
(dp207
I0
g180
sI1
(lp208
sI2
(lp209
Vhttp://dbpedia.org/property/origin
p210
aVhttp://dbpedia.org/property/recorded
p211
aVhttp://dbpedia.org/ontology/origin
p212
aVhttp://dbpedia.org/ontology/regionServed
p213
aVhttp://dbpedia.org/ontology/country
p214
aVhttp://www.w3.org/1999/02/22-rdf-syntax-ns#type
p215
aVhttp://dbpedia.org/property/locationCountry
p216
aVhttp://dbpedia.org/ontology/nationality
p217
aVhttp://dbpedia.org/property/birthPlace
p218
aVhttp://dbpedia.org/property/placeOfBirth
p219
aVhttp://dbpedia.org/property/country
p220
aVhttp://purl.org/dc/terms/subject
p221
aVhttp://dbpedia.org/property/nationality
p222
aVhttp://dbpedia.org/ontology/abstract
p223
aVhttp://dbpedia.org/ontology/recordedIn
p224
aVhttp://dbpedia.org/property/location
p225
aVhttp://dbpedia.org/ontology/locationCountry
p226
aVhttp://dbpedia.org/ontology/deathPlace
p227
aVhttp://dbpedia.org/ontology/language
p228
aVhttp://dbpedia.org/ontology/location
p229
aVhttp://dbpedia.org/property/languages
p230
aVhttp://dbpedia.org/ontology/stateOfOrigin
p231
aVhttp://dbpedia.org/property/headquarters
p232
aVhttp://dbpedia.org/ontology/birthPlace
p233
aVhttp://dbpedia.org/property/nationalOrigin
p234
aVhttp://dbpedia.org/ontology/hometown
p235
aVhttp://dbpedia.org/property/regionServed
p236
aVhttp://dbpedia.org/ontology/spokenIn
p237
aVhttp://dbpedia.org/property/data
p238
aVhttp://dbpedia.org/ontology/headquarter
p239
asI3
(lp240
sI4
(lp241
sI5
(lp242
sI6
(lp243
Vhttp://www.w3.org/2000/01/rdf-schema#seeAlso
p244
aVhttp://dbpedia.org/property/origin
p245
aVhttp://dbpedia.org/ontology/secondDriverCountry
p246
aVhttp://dbpedia.org/property/hostCity
p247
aVhttp://dbpedia.org/ontology/origin
p248
aVhttp://dbpedia.org/property/place
p249
aVhttp://dbpedia.org/property/allegiance
p250
aVhttp://dbpedia.org/property/territorialExtent
p251
aVhttp://dbpedia.org/ontology/PopulatedPlace/areaTotal
p252
aVhttp://dbpedia.org/ontology/garrison
p253
aVhttp://purl.org/voc/vrank#hasRank
p254
aVhttp://dbpedia.org/property/placeOfDeath
p255
aVhttp://www.w3.org/ns/prov#wasDerivedFrom
p256
aVhttp://dbpedia.org/ontology/fastestDriverCountry
p257
aVhttp://dbpedia.org/ontology/thirdDriverCountry
p258
aVhttp://dbpedia.org/ontology/PopulatedPlace/populationDensity
p259
aVhttp://dbpedia.org/ontology/regionServed
p260
aVhttp://dbpedia.org/ontology/country
p261
aVhttp://www.w3.org/1999/02/22-rdf-syntax-ns#type
p262
aVhttp://dbpedia.org/property/shipBuilder
p263
aVhttp://www.w3.org/2002/07/owl#sameAs
p264
aVhttp://dbpedia.org/property/locationCountry
p265
aVhttp://dbpedia.org/property/restingplace
p266
aVhttp://dbpedia.org/property/assembly
p267
aVhttp://dbpedia.org/property/locations
p268
aVhttp://dbpedia.org/property/site
p269
aVhttp://dbpedia.org/property/countryOrigin
p270
aVhttp://dbpedia.org/ontology/nationality
p271
aVhttp://dbpedia.org/property/birthPlace
p272
aVhttp://dbpedia.org/ontology/language
p273
aVhttp://dbpedia.org/ontology/countryOrigin
p274
aVhttp://dbpedia.org/property/country
p275
aVhttp://dbpedia.org/property/byCountry
p276
aVhttp://dbpedia.org/property/shipCountry
p277
aVhttp://dbpedia.org/property/l
p278
aVhttp://dbpedia.org/property/areaServed
p279
aVhttp://dbpedia.org/property/gdpNominal
p280
aVhttp://dbpedia.org/ontology/firstDriverCountry
p281
aVhttp://dbpedia.org/ontology/citizenship
p282
aVhttp://www.w3.org/2000/01/rdf-schema#comment
p283
aVhttp://dbpedia.org/property/gdpNominalPerCapita
p284
aVhttp://dbpedia.org/ontology/abstract
p285
aVhttp://dbpedia.org/ontology/recordedIn
p286
aVhttp://dbpedia.org/property/venue
p287
aVhttp://dbpedia.org/property/deathPlace
p288
aVhttp://dbpedia.org/property/location
p289
aVhttp://dbpedia.org/property/fightingOutOf
p290
aVhttp://dbpedia.org/property/gdpPppPerCapita
p291
aVhttp://dbpedia.org/ontology/locationCountry
p292
aVhttp://dbpedia.org/ontology/deathPlace
p293
aVhttp://dbpedia.org/property/nationality
p294
aVhttp://dbpedia.org/property/gdpPpp
p295
aVhttp://dbpedia.org/ontology/assembly
p296
aVhttp://dbpedia.org/property/builder
p297
aVhttp://dbpedia.org/property/worldPlace
p298
aVhttp://dbpedia.org/property/nationalOrigin
p299
aVhttp://dbpedia.org/property/shipRegistry
p300
aVhttp://dbpedia.org/property/locationSigned
p301
aVhttp://dbpedia.org/property/garrison
p302
aVhttp://dbpedia.org/property/moreUsers
p303
aVhttp://dbpedia.org/property/headquarters
p304
aVhttp://dbpedia.org/ontology/residence
p305
aVhttp://dbpedia.org/property/residence
p306
aVhttp://dbpedia.org/ontology/birthPlace
p307
aVhttp://dbpedia.org/property/countriesAffected
p308
aVhttp://dbpedia.org/ontology/builder
p309
aVhttp://dbpedia.org/property/placeOfBirth
p310
aVhttp://dbpedia.org/property/countries
p311
aVhttp://dbpedia.org/ontology/hometown
p312
aVhttp://dbpedia.org/ontology/restingPlace
p313
aVhttp://dbpedia.org/property/citizenship
p314
aVhttp://dbpedia.org/ontology/broadcastArea
p315
aVhttp://dbpedia.org/property/area
p316
aVhttp://dbpedia.org/property/asianPlace
p317
aVhttp://dbpedia.org/ontology/stateOfOrigin
p318
aVhttp://dbpedia.org/property/stadium
p319
aVhttp://dbpedia.org/ontology/location
p320
asI7
(lp321
Vhttp://www.w3.org/2000/01/rdf-schema#seeAlso
p322
aVhttp://dbpedia.org/property/origin
p323
aVhttp://dbpedia.org/ontology/origin
p324
aVhttp://dbpedia.org/property/place
p325
aVhttp://dbpedia.org/property/worldPlace
p326
aVhttp://dbpedia.org/ontology/PopulatedPlace/areaTotal
p327
aVhttp://dbpedia.org/ontology/fastestDriverCountry
p328
aVhttp://dbpedia.org/ontology/country
p329
aVhttp://dbpedia.org/property/assembly
p330
aVhttp://dbpedia.org/property/allegiance
p331
aVhttp://dbpedia.org/ontology/nationality
p332
aVhttp://dbpedia.org/property/gdpNominalPerCapita
p333
aVhttp://dbpedia.org/property/country
p334
aVhttp://dbpedia.org/property/shipCountry
p335
aVhttp://dbpedia.org/property/l
p336
aVhttp://dbpedia.org/property/venue
p337
aVhttp://dbpedia.org/ontology/abstract
p338
aVhttp://dbpedia.org/ontology/firstDriverCountry
p339
aVhttp://dbpedia.org/property/location
p340
aVhttp://dbpedia.org/ontology/builder
p341
aVhttp://dbpedia.org/property/nationalOrigin
p342
aVhttp://dbpedia.org/property/shipRegistry
p343
aVhttp://dbpedia.org/ontology/location
p344
aVhttp://www.w3.org/2000/01/rdf-schema#comment
p345
aVhttp://www.w3.org/2002/07/owl#sameAs
p346
aVhttp://dbpedia.org/property/asianPlace
p347
aVhttp://dbpedia.org/property/stadium
p348
assI2
(dp349
I0
g197
sI1
g209
sI2
(lp350
sI3
(lp351
sI4
(lp352
sI5
(lp353
sI6
(lp354
Vhttp://www.georss.org/georss/point
p355
aVhttp://www.w3.org/2000/01/rdf-schema#comment
p356
aVhttp://dbpedia.org/ontology/postalCode
p357
aVhttp://dbpedia.org/ontology/abstract
p358
aVhttp://dbpedia.org/ontology/PopulatedPlace/areaTotal
p359
aVhttp://www.w3.org/1999/02/22-rdf-syntax-ns#type
p360
aVhttp://www.w3.org/ns/prov#wasDerivedFrom
p361
aVhttp://purl.org/voc/vrank#hasRank
p362
aVhttp://dbpedia.org/ontology/PopulatedPlace/populationDensity
p363
aVhttp://www.w3.org/2002/07/owl#sameAs
p364
asI7
(lp365
Vhttp://www.w3.org/ns/prov#wasDerivedFrom
p366
aVhttp://dbpedia.org/ontology/PopulatedPlace/areaTotal
p367
aVhttp://www.w3.org/1999/02/22-rdf-syntax-ns#type
p368
assI3
(dp369
I0
g200
sI1
g240
sI2
g351
sI3
(lp370
sI4
(lp371
Vhttp://dbpedia.org/ontology/abstract
p372
aVhttp://www.w3.org/2000/01/rdf-schema#comment
p373
asI5
(lp374
sI6
(lp375
Vhttp://www.w3.org/1999/02/22-rdf-syntax-ns#type
p376
aVhttp://purl.org/dc/terms/subject
p377
aVhttp://dbpedia.org/property/entrant
p378
aVhttp://www.w3.org/2000/01/rdf-schema#comment
p379
aVhttp://dbpedia.org/ontology/abstract
p380
aVhttp://dbpedia.org/property/extra
p381
aVhttp://dbpedia.org/property/anthem
p382
aVhttp://purl.org/voc/vrank#hasRank
p383
aVhttp://dbpedia.org/ontology/viafId
p384
aVhttp://dbpedia.org/property/musicalguests
p385
aVhttp://dbpedia.org/property/artist
p386
aVhttp://www.w3.org/ns/prov#wasDerivedFrom
p387
aVhttp://dbpedia.org/ontology/artist
p388
aVhttp://www.w3.org/2002/07/owl#sameAs
p389
asI7
(lp390
Vhttp://dbpedia.org/property/anthem
p391
aVhttp://dbpedia.org/ontology/abstract
p392
aVhttp://www.w3.org/1999/02/22-rdf-syntax-ns#type
p393
aVhttp://www.w3.org/2002/07/owl#sameAs
p394
aVhttp://www.w3.org/2000/01/rdf-schema#comment
p395
assI4
(dp396
I0
g203
sI1
g241
sI2
g352
sI3
g371
sI4
(lp397
sI5
(lp398
sI6
(lp399
sI7
(lp400
ssI5
(dp401
I0
g204
sI1
g242
sI2
g353
sI3
g374
sI4
g398
sI5
(lp402
sI6
(lp403
sI7
(lp404
ssI6
(dp405
I0
g205
sI1
g243
sI2
g354
sI3
g375
sI4
g399
sI5
g403
sI6
(lp406
sI7
(lp407
ssI7
(dp408
I0
g206
sI1
g321
sI2
g365
sI3
g390
sI4
g400
sI5
g404
sI6
g407
sI7
(lp409
ssa(dp410
I0
(dp411
I0
(lp412
sI1
(lp413
Vhttp://dbpedia.org/ontology/country
p414
aVhttp://www.w3.org/1999/02/22-rdf-syntax-ns#type
p415
aVhttp://dbpedia.org/property/countries
p416
aVhttp://dbpedia.org/ontology/abstract
p417
aVhttp://dbpedia.org/property/venue
p418
aVhttp://dbpedia.org/property/location
p419
aVhttp://dbpedia.org/property/rd3t2Loc
p420
aVhttp://dbpedia.org/property/country
p421
aVhttp://dbpedia.org/property/rd1t6Loc
p422
aVhttp://dbpedia.org/property/hasPhotoCollection
p423
aVhttp://dbpedia.org/property/rd2t3Loc
p424
aVhttp://dbpedia.org/property/usedBy
p425
asI2
(lp426
Vhttp://dbpedia.org/property/wordnet_type
p427
aVhttp://dbpedia.org/property/hasPhotoCollection
p428
aVhttp://www.w3.org/1999/02/22-rdf-syntax-ns#type
p429
asI3
(lp430
Vhttp://dbpedia.org/property/hasPhotoCollection
p431
aVhttp://www.w3.org/1999/02/22-rdf-syntax-ns#type
p432
asI4
(lp433
Vhttp://dbpedia.org/property/hasPhotoCollection
p434
aVhttp://www.w3.org/1999/02/22-rdf-syntax-ns#type
p435
asI5
(lp436
sI6
(lp437
sI7
(lp438
ssI1
(dp439
I0
g413
sI1
(lp440
sI2
(lp441
Vhttp://www.w3.org/2000/01/rdf-schema#seeAlso
p442
aVhttp://dbpedia.org/property/origin
p443
aVhttp://dbpedia.org/ontology/poleDriverCountry
p444
aVhttp://dbpedia.org/ontology/demonym
p445
aVhttp://dbpedia.org/property/demonym
p446
aVhttp://dbpedia.org/ontology/country
p447
aVhttp://www.w3.org/1999/02/22-rdf-syntax-ns#type
p448
aVhttp://dbpedia.org/property/locationCountry
p449
aVhttp://dbpedia.org/ontology/secondDriverCountry
p450
aVhttp://dbpedia.org/property/allegiance
p451
aVhttp://dbpedia.org/property/birthPlace
p452
aVhttp://dbpedia.org/ontology/place
p453
aVhttp://dbpedia.org/ontology/ethnicGroup
p454
aVhttp://dbpedia.org/property/office
p455
aVhttp://dbpedia.org/property/garrison
p456
aVhttp://dbpedia.org/property/country
p457
aVhttp://dbpedia.org/property/shipCountry
p458
aVhttp://dbpedia.org/property/areaServed
p459
aVhttp://dbpedia.org/property/placeOfBirth
p460
aVhttp://dbpedia.org/ontology/ideology
p461
aVhttp://purl.org/dc/terms/subject
p462
aVhttp://dbpedia.org/property/ideology
p463
aVhttp://dbpedia.org/ontology/abstract
p464
aVhttp://dbpedia.org/ontology/firstDriverCountry
p465
aVhttp://dbpedia.org/property/location
p466
aVhttp://dbpedia.org/property/states
p467
aVhttp://dbpedia.org/ontology/locationCountry
p468
aVhttp://dbpedia.org/ontology/headquarter
p469
aVhttp://dbpedia.org/ontology/language
p470
aVhttp://dbpedia.org/ontology/location
p471
aVhttp://dbpedia.org/property/languages
p472
aVhttp://dbpedia.org/ontology/territory
p473
aVhttp://dbpedia.org/property/shipBuilder
p474
aVhttp://dbpedia.org/property/headquarters
p475
aVhttp://www.w3.org/2000/01/rdf-schema#comment
p476
aVhttp://dbpedia.org/ontology/birthPlace
p477
aVhttp://dbpedia.org/ontology/wikiPageRedirects
p478
aVhttp://dbpedia.org/ontology/hometown
p479
aVhttp://dbpedia.org/ontology/garrison
p480
aVhttp://dbpedia.org/property/locationCity
p481
aVhttp://dbpedia.org/ontology/spokenIn
p482
aVhttp://dbpedia.org/ontology/builder
p483
aVhttp://dbpedia.org/property/jurisdiction
p484
aVhttp://dbpedia.org/ontology/locationCity
p485
aVhttp://dbpedia.org/ontology/deathPlace
p486
asI3
(lp487
sI4
(lp488
sI5
(lp489
sI6
(lp490
Vhttp://dbpedia.org/property/placeOfDeath
p491
aVhttp://dbpedia.org/property/origin
p492
aVhttp://dbpedia.org/ontology/PopulatedPlace/areaTotal
p493
aVhttp://dbpedia.org/property/ethnicity
p494
aVhttp://www.w3.org/ns/prov#wasDerivedFrom
p495
aVhttp://dbpedia.org/property/rd1t7Loc
p496
aVhttp://dbpedia.org/property/rd3t4Loc
p497
aVhttp://dbpedia.org/property/assembly
p498
aVhttp://dbpedia.org/ontology/nationality
p499
aVhttp://dbpedia.org/property/placeOfBirth
p500
aVhttp://dbpedia.org/property/siteCityst
p501
aVhttp://dbpedia.org/property/nationality
p502
aVhttp://dbpedia.org/ontology/abstract
p503
aVhttp://dbpedia.org/property/venue
p504
aVhttp://dbpedia.org/property/sourceCountry
p505
aVhttp://dbpedia.org/property/usedBy
p506
aVhttp://dbpedia.org/property/shipNamesake
p507
aVhttp://dbpedia.org/property/nationalOrigin
p508
aVhttp://dbpedia.org/ontology/location
p509
aVhttp://dbpedia.org/property/countries
p510
aVhttp://dbpedia.org/property/finish
p511
aVhttp://dbpedia.org/property/rd2t5Loc
p512
aVhttp://dbpedia.org/ontology/restingPlace
p513
aVhttp://dbpedia.org/property/rd4t2Loc
p514
aVhttp://dbpedia.org/property/fifaTrigramme
p515
aVhttp://dbpedia.org/property/rd4t1Loc
p516
aVhttp://www.w3.org/2000/01/rdf-schema#seeAlso
p517
aVhttp://dbpedia.org/property/school
p518
aVhttp://dbpedia.org/property/rd2t6Loc
p519
aVhttp://dbpedia.org/property/birthDate
p520
aVhttp://dbpedia.org/property/hostCity
p521
aVhttp://dbpedia.org/property/deathDate
p522
aVhttp://dbpedia.org/ontology/poleDriverCountry
p523
aVhttp://dbpedia.org/property/rd2t3Loc
p524
aVhttp://dbpedia.org/property/rd1t4Loc
p525
aVhttp://dbpedia.org/ontology/country
p526
aVhttp://dbpedia.org/property/returns
p527
aVhttp://dbpedia.org/property/home
p528
aVhttp://dbpedia.org/property/rd1t5Loc
p529
aVhttp://dbpedia.org/property/discoverySite
p530
aVhttp://dbpedia.org/property/nationalteam
p531
aVhttp://dbpedia.org/property/birthPlace
p532
aVhttp://dbpedia.org/property/stateParty
p533
aVhttp://dbpedia.org/property/country
p534
aVhttp://dbpedia.org/ontology/wikiPageExternalLink
p535
aVhttp://dbpedia.org/property/deathPlace
p536
aVhttp://dbpedia.org/property/states
p537
aVhttp://dbpedia.org/ontology/deathPlace
p538
aVhttp://dbpedia.org/property/rd2t4Loc
p539
aVhttp://dbpedia.org/property/homecountry
p540
aVhttp://dbpedia.org/ontology/birthPlace
p541
aVhttp://dbpedia.org/property/citizenship
p542
aVhttp://dbpedia.org/property/asianPlace
p543
aVhttp://dbpedia.org/property/south
p544
aVhttp://dbpedia.org/property/recorded
p545
aVhttp://dbpedia.org/ontology/origin
p546
aVhttp://dbpedia.org/property/worldPlace
p547
aVhttp://dbpedia.org/property/residence
p548
aVhttp://dbpedia.org/property/rd1t6Loc
p549
aVhttp://dbpedia.org/property/moreUsers
p550
aVhttp://www.w3.org/1999/02/22-rdf-syntax-ns#type
p551
aVhttp://dbpedia.org/property/rd3t3Loc
p552
aVhttp://dbpedia.org/property/locationCountry
p553
aVhttp://dbpedia.org/property/referee
p554
aVhttp://dbpedia.org/property/rd1t2Loc
p555
aVhttp://dbpedia.org/ontology/ground
p556
aVhttp://dbpedia.org/property/withdraws
p557
aVhttp://dbpedia.org/property/shipCountry
p558
aVhttp://dbpedia.org/property/rd1t8Loc
p559
aVhttp://dbpedia.org/property/fightingOutOf
p560
aVhttp://dbpedia.org/property/gdpPppPerCapita
p561
aVhttp://dbpedia.org/property/rd2t7Loc
p562
aVhttp://dbpedia.org/ontology/city
p563
aVhttp://dbpedia.org/property/worldPlaceQ
p564
aVhttp://dbpedia.org/property/subdivisionName
p565
aVhttp://dbpedia.org/property/headquarters
p566
aVhttp://dbpedia.org/property/rd1t3Loc
p567
aVhttp://dbpedia.org/property/locationCity
p568
aVhttp://dbpedia.org/property/southwest
p569
aVhttp://dbpedia.org/property/rd5t1Loc
p570
aVhttp://dbpedia.org/property/stadium
p571
aVhttp://dbpedia.org/ontology/countryWithFirstAstronaut
p572
aVhttp://dbpedia.org/property/almaMater
p573
aVhttp://dbpedia.org/property/ground
p574
aVhttp://dbpedia.org/property/place
p575
aVhttp://dbpedia.org/property/debuts
p576
aVhttp://dbpedia.org/ontology/PopulatedPlace/populationDensity
p577
aVhttp://dbpedia.org/property/asianPlaceQ
p578
aVhttp://dbpedia.org/property/allegiance
p579
aVhttp://dbpedia.org/property/combatant
p580
aVhttp://dbpedia.org/ontology/place
p581
aVhttp://dbpedia.org/property/asianPlaceF
p582
aVhttp://dbpedia.org/property/minority
p583
aVhttp://dbpedia.org/property/manufacturer
p584
aVhttp://dbpedia.org/property/rd2t2Loc
p585
aVhttp://dbpedia.org/property/region
p586
aVhttp://dbpedia.org/property/cityServed
p587
aVhttp://dbpedia.org/property/rd3t2Loc
p588
aVhttp://dbpedia.org/property/foundation
p589
aVhttp://dbpedia.org/property/worldPlaceF
p590
aVhttp://dbpedia.org/ontology/language
p591
aVhttp://dbpedia.org/property/title
p592
aVhttp://dbpedia.org/property/locale
p593
aVhttp://dbpedia.org/property/basinCountries
p594
aVhttp://dbpedia.org/ontology/assembly
p595
aVhttp://dbpedia.org/property/rd2t1Loc
p596
aVhttp://www.w3.org/2000/01/rdf-schema#comment
p597
aVhttp://dbpedia.org/property/location
p598
aVhttp://dbpedia.org/property/olympicPlace
p599
aVhttp://dbpedia.org/property/rd1t1Loc
p600
aVhttp://dbpedia.org/property/rd3t1Loc
p601
aVhttp://www.w3.org/2002/07/owl#sameAs
p602
asI7
(lp603
Vhttp://dbpedia.org/property/origin
p604
aVhttp://dbpedia.org/property/placeOfDeath
p605
aVhttp://dbpedia.org/property/hostCity
p606
aVhttp://dbpedia.org/property/place
p607
aVhttp://dbpedia.org/property/worldPlace
p608
aVhttp://dbpedia.org/property/usedBy
p609
aVhttp://dbpedia.org/property/worldPlaceQ
p610
aVhttp://dbpedia.org/property/asianPlaceQ
p611
aVhttp://www.w3.org/1999/02/22-rdf-syntax-ns#type
p612
aVhttp://dbpedia.org/ontology/ground
p613
aVhttp://dbpedia.org/property/withdraws
p614
aVhttp://dbpedia.org/ontology/nationality
p615
aVhttp://dbpedia.org/property/birthPlace
p616
aVhttp://dbpedia.org/ontology/place
p617
aVhttp://dbpedia.org/property/placeOfBirth
p618
aVhttp://dbpedia.org/property/country
p619
aVhttp://dbpedia.org/property/shipCountry
p620
aVhttp://dbpedia.org/ontology/country
p621
aVhttp://dbpedia.org/property/venue
p622
aVhttp://dbpedia.org/property/location
p623
aVhttp://dbpedia.org/property/deathPlace
p624
aVhttp://dbpedia.org/ontology/deathPlace
p625
aVhttp://dbpedia.org/property/worldPlaceF
p626
aVhttp://dbpedia.org/property/nationalOrigin
p627
aVhttp://dbpedia.org/ontology/location
p628
aVhttp://dbpedia.org/ontology/birthPlace
p629
aVhttp://dbpedia.org/property/olympicPlace
p630
aVhttp://dbpedia.org/property/rd1t1Loc
p631
aVhttp://dbpedia.org/property/stadium
p632
aVhttp://dbpedia.org/property/asianPlace
p633
aVhttp://www.w3.org/2002/07/owl#sameAs
p634
assI2
(dp635
I0
g426
sI1
g441
sI2
(lp636
sI3
(lp637
sI4
(lp638
sI5
(lp639
sI6
(lp640
Vhttp://purl.org/voc/vrank#hasRank
p641
aVhttp://www.w3.org/1999/02/22-rdf-syntax-ns#type
p642
aVhttp://www.w3.org/2002/07/owl#sameAs
p643
asI7
(lp644
Vhttp://dbpedia.org/ontology/abstract
p645
aVhttp://www.w3.org/1999/02/22-rdf-syntax-ns#type
p646
aVhttp://www.w3.org/2000/01/rdf-schema#comment
p647
assI3
(dp648
I0
g430
sI1
g487
sI2
g637
sI3
(lp649
sI4
(lp650
sI5
(lp651
sI6
(lp652
Vhttp://www.w3.org/1999/02/22-rdf-syntax-ns#type
p653
aVhttp://purl.org/dc/terms/subject
p654
aVhttp://dbpedia.org/property/entrant
p655
aVhttp://dbpedia.org/property/composer
p656
aVhttp://www.w3.org/2000/01/rdf-schema#comment
p657
aVhttp://dbpedia.org/ontology/abstract
p658
aVhttp://xmlns.com/foaf/0.1/depiction
p659
aVhttp://purl.org/voc/vrank#hasRank
p660
aVhttp://dbpedia.org/ontology/thumbnail
p661
aVhttp://dbpedia.org/property/artist
p662
aVhttp://www.w3.org/ns/prov#wasDerivedFrom
p663
aVhttp://dbpedia.org/property/caption
p664
aVhttp://dbpedia.org/ontology/viafId
p665
asI7
(lp666
Vhttp://www.w3.org/1999/02/22-rdf-syntax-ns#type
p667
assI4
(dp668
I0
g433
sI1
g488
sI2
g638
sI3
g650
sI4
(lp669
sI5
(lp670
Vhttp://dbpedia.org/ontology/abstract
p671
aVhttp://www.w3.org/2000/01/rdf-schema#comment
p672
asI6
(lp673
Vhttp://dbpedia.org/ontology/wikiPageExternalLink
p674
aVhttp://www.w3.org/1999/02/22-rdf-syntax-ns#type
p675
aVhttp://purl.org/dc/terms/subject
p676
aVhttp://www.w3.org/2000/01/rdf-schema#comment
p677
aVhttp://dbpedia.org/ontology/abstract
p678
aVhttp://dbpedia.org/property/song
p679
aVhttp://purl.org/voc/vrank#hasRank
p680
aVhttp://dbpedia.org/property/lyrics
p681
asI7
(lp682
Vhttp://dbpedia.org/ontology/abstract
p683
aVhttp://www.w3.org/1999/02/22-rdf-syntax-ns#type
p684
assI5
(dp685
I0
g436
sI1
g489
sI2
g639
sI3
g651
sI4
g670
sI5
(lp686
sI6
(lp687
sI7
(lp688
ssI6
(dp689
I0
g437
sI1
g490
sI2
g640
sI3
g652
sI4
g673
sI5
g687
sI6
(lp690
sI7
(lp691
ssI7
(dp692
I0
g438
sI1
g603
sI2
g644
sI3
g666
sI4
g682
sI5
g688
sI6
g691
sI7
(lp693
ssa(dp694
I0
(dp695
I0
(lp696
sI1
(lp697
Vhttp://dbpedia.org/property/returns
p698
aVhttp://dbpedia.org/property/rd1t8Loc
p699
aVhttp://dbpedia.org/property/venue
p700
aVhttp://dbpedia.org/property/location
p701
aVhttp://dbpedia.org/property/worldPlace
p702
aVhttp://purl.org/voc/vrank#hasRank
p703
aVhttp://dbpedia.org/property/shipCountry
p704
aVhttp://dbpedia.org/property/areas
p705
asI2
(lp706
Vhttp://www.w3.org/1999/02/22-rdf-syntax-ns#type
p707
aVhttp://dbpedia.org/ontology/PopulatedPlace/populationDensity
p708
asI3
(lp709
sI4
(lp710
sI5
(lp711
sI6
(lp712
sI7
(lp713
ssI1
(dp714
I0
g697
sI1
(lp715
sI2
(lp716
Vhttp://dbpedia.org/ontology/wikiPageExternalLink
p717
asI3
(lp718
sI4
(lp719
sI5
(lp720
sI6
(lp721
Vhttp://dbpedia.org/ontology/wikiPageExternalLink
p722
aVhttp://dbpedia.org/ontology/country
p723
aVhttp://dbpedia.org/property/returns
p724
aVhttp://dbpedia.org/property/rd0t1Loc
p725
aVhttp://dbpedia.org/property/origin
p726
aVhttp://www.w3.org/2000/01/rdf-schema#comment
p727
aVhttp://dbpedia.org/property/home
p728
aVhttp://dbpedia.org/ontology/abstract
p729
aVhttp://dbpedia.org/property/venue
p730
aVhttp://dbpedia.org/property/rd1t2Loc
p731
aVhttp://dbpedia.org/property/location
p732
aVhttp://dbpedia.org/property/withdraws
p733
aVhttp://dbpedia.org/property/image
p734
aVhttp://dbpedia.org/ontology/garrison
p735
aVhttp://www.w3.org/2002/07/owl#sameAs
p736
aVhttp://dbpedia.org/property/garrison
p737
aVhttp://dbpedia.org/property/country
p738
aVhttp://dbpedia.org/property/worldPlace
p739
aVhttp://dbpedia.org/property/stadium
p740
asI7
(lp741
Vhttp://dbpedia.org/property/origin
p742
aVhttp://dbpedia.org/property/placeOfDeath
p743
aVhttp://dbpedia.org/property/awardedBy
p744
aVhttp://dbpedia.org/property/city
p745
aVhttp://www.w3.org/ns/prov#wasDerivedFrom
p746
aVhttp://dbpedia.org/property/1rpt2Loc
p747
aVhttp://dbpedia.org/property/rd1t7Loc
p748
aVhttp://dbpedia.org/ontology/regionServed
p749
aVhttp://dbpedia.org/property/placeOfBirth
p750
aVhttp://dbpedia.org/property/nationality
p751
aVhttp://dbpedia.org/ontology/abstract
p752
aVhttp://dbpedia.org/property/venue
p753
aVhttp://dbpedia.org/property/sourceCountry
p754
aVhttp://dbpedia.org/property/usedBy
p755
aVhttp://dbpedia.org/property/shipBuilder
p756
aVhttp://dbpedia.org/ontology/location
p757
aVhttp://dbpedia.org/property/countries
p758
aVhttp://dbpedia.org/ontology/hometown
p759
aVhttp://dbpedia.org/property/silver
p760
aVhttp://www.w3.org/2000/01/rdf-schema#seeAlso
p761
aVhttp://dbpedia.org/property/hostCity
p762
aVhttp://dbpedia.org/property/birthplace
p763
aVhttp://dbpedia.org/property/mouthCountry
p764
aVhttp://dbpedia.org/property/rd2t3Loc
p765
aVhttp://dbpedia.org/property/site
p766
aVhttp://dbpedia.org/property/rd1t4Loc
p767
aVhttp://dbpedia.org/ontology/country
p768
aVhttp://dbpedia.org/property/region
p769
aVhttp://dbpedia.org/property/home
p770
aVhttp://dbpedia.org/property/birthPlace
p771
aVhttp://dbpedia.org/property/stateParty
p772
aVhttp://dbpedia.org/property/country
p773
aVhttp://dbpedia.org/property/nation
p774
aVhttp://dbpedia.org/property/areaServed
p775
aVhttp://dbpedia.org/property/areasAffected
p776
aVhttp://dbpedia.org/ontology/wikiPageExternalLink
p777
aVhttp://dbpedia.org/property/deathPlace
p778
aVhttp://dbpedia.org/property/states
p779
aVhttp://dbpedia.org/ontology/locationCountry
p780
aVhttp://dbpedia.org/ontology/deathPlace
p781
aVhttp://dbpedia.org/property/shipOwner
p782
aVhttp://dbpedia.org/property/born
p783
aVhttp://dbpedia.org/property/hasPhotoCollection
p784
aVhttp://dbpedia.org/property/headquarters
p785
aVhttp://dbpedia.org/ontology/birthPlace
p786
aVhttp://dbpedia.org/ontology/wikiPageRedirects
p787
aVhttp://dbpedia.org/property/rd2t8Loc
p788
aVhttp://dbpedia.org/property/citizenship
p789
aVhttp://www.w3.org/2002/07/owl#sameAs
p790
aVhttp://dbpedia.org/property/recorded
p791
aVhttp://dbpedia.org/property/worldPlace
p792
aVhttp://dbpedia.org/property/residence
p793
aVhttp://www.w3.org/1999/02/22-rdf-syntax-ns#type
p794
aVhttp://dbpedia.org/property/locationCountry
p795
aVhttp://dbpedia.org/property/withdraws
p796
aVhttp://dbpedia.org/property/shipCountry
p797
aVhttp://dbpedia.org/ontology/thumbnail
p798
aVhttp://dbpedia.org/property/rd2t7Loc
p799
aVhttp://dbpedia.org/property/subdivisionName
p800
aVhttp://dbpedia.org/property/rd1t3Loc
p801
aVhttp://dbpedia.org/ontology/owner
p802
aVhttp://dbpedia.org/property/basedIn
p803
aVhttp://dbpedia.org/property/disappearedPlace
p804
aVhttp://dbpedia.org/property/stadium
p805
aVhttp://dbpedia.org/property/curlingClub
p806
aVhttp://dbpedia.org/property/ground
p807
aVhttp://dbpedia.org/property/place
p808
aVhttp://dbpedia.org/property/debuts
p809
aVhttp://dbpedia.org/property/2rpt1Loc
p810
aVhttp://dbpedia.org/property/allegiance
p811
aVhttp://dbpedia.org/property/combatant
p812
aVhttp://dbpedia.org/property/lowestTemperature
p813
aVhttp://dbpedia.org/property/returns
p814
aVhttp://dbpedia.org/property/cityServed
p815
aVhttp://dbpedia.org/property/rd1t6Loc
p816
aVhttp://dbpedia.org/property/countryHeading
p817
aVhttp://dbpedia.org/property/controlledby
p818
aVhttp://dbpedia.org/ontology/language
p819
aVhttp://dbpedia.org/property/shipRegistry
p820
aVhttp://dbpedia.org/property/locale
p821
aVhttp://dbpedia.org/property/basinCountries
p822
aVhttp://dbpedia.org/property/rd2t1Loc
p823
aVhttp://www.w3.org/2000/01/rdf-schema#comment
p824
aVhttp://dbpedia.org/property/location
p825
aVhttp://dbpedia.org/property/olympicPlace
p826
aVhttp://dbpedia.org/property/regionServed
p827
aVhttp://dbpedia.org/ontology/builder
p828
assI2
(dp829
I0
g706
sI1
g716
sI2
(lp830
sI3
(lp831
sI4
(lp832
sI5
(lp833
sI6
(lp834
Vhttp://www.w3.org/ns/prov#wasDerivedFrom
p835
aVhttp://dbpedia.org/ontology/PopulatedPlace/areaTotal
p836
aVhttp://www.w3.org/1999/02/22-rdf-syntax-ns#type
p837
asI7
(lp838
Vhttp://www.georss.org/georss/point
p839
aVhttp://dbpedia.org/ontology/PopulatedPlace/areaTotal
p840
aVhttp://purl.org/voc/vrank#hasRank
p841
aVhttp://www.w3.org/1999/02/22-rdf-syntax-ns#type
p842
aVhttp://dbpedia.org/ontology/thumbnail
p843
aVhttp://dbpedia.org/property/hasPhotoCollection
p844
aVhttp://dbpedia.org/ontology/PopulatedPlace/populationDensity
p845
aVhttp://www.w3.org/2002/07/owl#sameAs
p846
assI3
(dp847
I0
g709
sI1
g718
sI2
g831
sI3
(lp848
sI4
(lp849
sI5
(lp850
sI6
(lp851
sI7
(lp852
ssI4
(dp853
I0
g710
sI1
g719
sI2
g832
sI3
g849
sI4
(lp854
sI5
(lp855
sI6
(lp856
sI7
(lp857
ssI5
(dp858
I0
g711
sI1
g720
sI2
g833
sI3
g850
sI4
g855
sI5
(lp859
sI6
(lp860
sI7
(lp861
ssI6
(dp862
I0
g712
sI1
g721
sI2
g834
sI3
g851
sI4
g856
sI5
g860
sI6
(lp863
sI7
(lp864
ssI7
(dp865
I0
g713
sI1
g741
sI2
g838
sI3
g852
sI4
g857
sI5
g861
sI6
g864
sI7
(lp866
ssa(dp867
I0
(dp868
I0
(lp869
sI1
(lp870
Vhttp://dbpedia.org/ontology/wikiPageExternalLink
p871
aVhttp://dbpedia.org/ontology/country
p872
aVhttp://dbpedia.org/property/place
p873
aVhttp://dbpedia.org/ontology/abstract
p874
aVhttp://dbpedia.org/property/rd0t4Loc
p875
aVhttp://dbpedia.org/property/location
p876
aVhttp://dbpedia.org/property/worldPlace
p877
aVhttp://dbpedia.org/ontology/place
p878
aVhttp://dbpedia.org/property/country
p879
aVhttp://dbpedia.org/property/usedBy
p880
aVhttp://dbpedia.org/property/asianPlace
p881
aVhttp://dbpedia.org/property/stadium
p882
asI2
(lp883
sI3
(lp884
Vhttp://dbpedia.org/ontology/wikiPageExternalLink
p885
aVhttp://www.w3.org/1999/02/22-rdf-syntax-ns#type
p886
asI4
(lp887
sI5
(lp888
sI6
(lp889
sI7
(lp890
ssI1
(dp891
I0
g870
sI1
(lp892
sI2
(lp893
Vhttp://www.w3.org/2000/01/rdf-schema#seeAlso
p894
aVhttp://dbpedia.org/property/origin
p895
aVhttp://dbpedia.org/ontology/origin
p896
aVhttp://dbpedia.org/property/place
p897
aVhttp://dbpedia.org/property/footnoteA
p898
aVhttp://dbpedia.org/ontology/demonym
p899
aVhttp://dbpedia.org/ontology/officialLanguage
p900
aVhttp://dbpedia.org/ontology/country
p901
aVhttp://dbpedia.org/property/usingCountries
p902
aVhttp://dbpedia.org/property/officialLanguages
p903
aVhttp://dbpedia.org/property/winnerOrigin
p904
aVhttp://dbpedia.org/property/foundedPlace
p905
aVhttp://dbpedia.org/property/country
p906
aVhttp://dbpedia.org/ontology/wikiPageExternalLink
p907
aVhttp://dbpedia.org/ontology/populationPlace
p908
aVhttp://dbpedia.org/ontology/abstract
p909
aVhttp://dbpedia.org/property/location
p910
aVhttp://dbpedia.org/ontology/usingCountry
p911
aVhttp://dbpedia.org/property/regions
p912
aVhttp://dbpedia.org/ontology/headquarter
p913
aVhttp://dbpedia.org/property/shipNamesake
p914
aVhttp://dbpedia.org/ontology/language
p915
aVhttp://dbpedia.org/ontology/location
p916
aVhttp://dbpedia.org/property/states
p917
aVhttp://dbpedia.org/property/headquarters
p918
aVhttp://www.w3.org/2000/01/rdf-schema#comment
p919
aVhttp://dbpedia.org/ontology/birthPlace
p920
aVhttp://dbpedia.org/ontology/wikiPageRedirects
p921
aVhttp://dbpedia.org/property/area
p922
aVhttp://dbpedia.org/ontology/hometown
p923
aVhttp://dbpedia.org/property/demonym
p924
aVhttp://dbpedia.org/ontology/spokenIn
p925
aVhttp://dbpedia.org/property/foundingLocation
p926
aVhttp://dbpedia.org/property/jurisdiction
p927
aVhttp://dbpedia.org/property/popplace
p928
asI3
(lp929
Vhttp://dbpedia.org/ontology/birthPlace
p930
asI4
(lp931
sI5
(lp932
sI6
(lp933
Vhttp://dbpedia.org/ontology/wikiPageExternalLink
p934
aVhttp://dbpedia.org/ontology/country
p935
aVhttp://www.w3.org/1999/02/22-rdf-syntax-ns#type
p936
aVhttp://www.w3.org/2000/01/rdf-schema#comment
p937
aVhttp://dbpedia.org/property/place
p938
aVhttp://dbpedia.org/ontology/abstract
p939
aVhttp://dbpedia.org/property/hostCity
p940
aVhttp://dbpedia.org/property/rd0t4Loc
p941
aVhttp://dbpedia.org/property/location
p942
aVhttp://dbpedia.org/property/olympicPlace
p943
aVhttp://dbpedia.org/property/worldPlace
p944
aVhttp://dbpedia.org/property/withdraws
p945
aVhttp://dbpedia.org/property/gdpPpp
p946
aVhttp://dbpedia.org/property/country
p947
aVhttp://dbpedia.org/property/rd1t8Loc
p948
aVhttp://dbpedia.org/property/rallybase
p949
aVhttp://dbpedia.org/property/stadium
p950
aVhttp://dbpedia.org/property/gdpNominal
p951
asI7
(lp952
Vhttp://dbpedia.org/property/placeOfDeath
p953
aVhttp://dbpedia.org/property/hostCity
p954
aVhttp://dbpedia.org/property/place
p955
aVhttp://dbpedia.org/property/worldPlace
p956
aVhttp://dbpedia.org/ontology/PopulatedPlace/areaTotal
p957
aVhttp://dbpedia.org/property/rd2t3Loc
p958
aVhttp://dbpedia.org/property/site
p959
aVhttp://dbpedia.org/ontology/country
p960
aVhttp://dbpedia.org/property/returns
p961
aVhttp://www.w3.org/1999/02/22-rdf-syntax-ns#type
p962
aVhttp://dbpedia.org/ontology/PopulatedPlace/populationDensity
p963
aVhttp://dbpedia.org/property/withdraws
p964
aVhttp://dbpedia.org/property/birthPlace
p965
aVhttp://dbpedia.org/ontology/place
p966
aVhttp://dbpedia.org/property/placeOfBirth
p967
aVhttp://dbpedia.org/property/country
p968
aVhttp://dbpedia.org/ontology/wikiPageExternalLink
p969
aVhttp://dbpedia.org/property/rd2t2Loc
p970
aVhttp://dbpedia.org/ontology/abstract
p971
aVhttp://dbpedia.org/property/rd1t8Loc
p972
aVhttp://dbpedia.org/property/venue
p973
aVhttp://dbpedia.org/property/deathPlace
p974
aVhttp://dbpedia.org/property/location
p975
aVhttp://dbpedia.org/property/gdpPppPerCapita
p976
aVhttp://dbpedia.org/ontology/deathPlace
p977
aVhttp://dbpedia.org/property/gdpPpp
p978
aVhttp://dbpedia.org/property/rd1t3Loc
p979
aVhttp://www.georss.org/georss/point
p980
aVhttp://dbpedia.org/ontology/location
p981
aVhttp://www.w3.org/2000/01/rdf-schema#comment
p982
aVhttp://dbpedia.org/ontology/birthPlace
p983
aVhttp://dbpedia.org/property/countries
p984
aVhttp://dbpedia.org/ontology/wikiPageRedirects
p985
aVhttp://dbpedia.org/property/olympicPlace
p986
aVhttp://www.w3.org/2002/07/owl#sameAs
p987
aVhttp://dbpedia.org/property/asianPlace
p988
aVhttp://dbpedia.org/property/stadium
p989
assI2
(dp990
I0
g883
sI1
g893
sI2
(lp991
sI3
(lp992
sI4
(lp993
sI5
(lp994
sI6
(lp995
sI7
(lp996
Vhttp://www.w3.org/ns/prov#wasDerivedFrom
p997
aVhttp://purl.org/voc/vrank#hasRank
p998
aVhttp://dbpedia.org/ontology/wikiPageRedirects
p999
aVhttp://www.w3.org/2002/07/owl#sameAs
p1000
assI3
(dp1001
I0
g884
sI1
g929
sI2
g992
sI3
(lp1002
sI4
(lp1003
sI5
(lp1004
sI6
(lp1005
Vhttp://dbpedia.org/ontology/abstract
p1006
aVhttp://www.w3.org/1999/02/22-rdf-syntax-ns#type
p1007
aVhttp://www.w3.org/2000/01/rdf-schema#comment
p1008
asI7
(lp1009
Vhttp://dbpedia.org/ontology/wikiPageExternalLink
p1010
aVhttp://www.w3.org/1999/02/22-rdf-syntax-ns#type
p1011
aVhttp://purl.org/dc/terms/subject
p1012
aVhttp://dbpedia.org/property/entrant
p1013
aVhttp://www.w3.org/2000/01/rdf-schema#comment
p1014
aVhttp://dbpedia.org/ontology/abstract
p1015
aVhttp://dbpedia.org/ontology/artist
p1016
aVhttp://purl.org/voc/vrank#hasRank
p1017
aVhttp://dbpedia.org/property/artist
p1018
aVhttp://www.w3.org/2002/07/owl#sameAs
p1019
aVhttp://dbpedia.org/property/title
p1020
assI4
(dp1021
I0
g887
sI1
g931
sI2
g993
sI3
g1003
sI4
(lp1022
sI5
(lp1023
sI6
(lp1024
sI7
(lp1025
ssI5
(dp1026
I0
g888
sI1
g932
sI2
g994
sI3
g1004
sI4
g1023
sI5
(lp1027
sI6
(lp1028
sI7
(lp1029
ssI6
(dp1030
I0
g889
sI1
g933
sI2
g995
sI3
g1005
sI4
g1024
sI5
g1028
sI6
(lp1031
sI7
(lp1032
ssI7
(dp1033
I0
g890
sI1
g952
sI2
g996
sI3
g1009
sI4
g1025
sI5
g1029
sI6
g1032
sI7
(lp1034
ssa(dp1035
I0
(dp1036
I0
(lp1037
sI1
(lp1038
Vhttp://www.w3.org/2000/01/rdf-schema#seeAlso
p1039
aVhttp://dbpedia.org/ontology/country
p1040
aVhttp://dbpedia.org/property/rd1t5Loc
p1041
aVhttp://dbpedia.org/property/worldPlace
p1042
aVhttp://dbpedia.org/property/withdraws
p1043
aVhttp://dbpedia.org/ontology/place
p1044
aVhttp://dbpedia.org/property/asianPlace
p1045
asI2
(lp1046
Vhttp://www.w3.org/1999/02/22-rdf-syntax-ns#type
p1047
asI3
(lp1048
sI4
(lp1049
sI5
(lp1050
sI6
(lp1051
sI7
(lp1052
ssI1
(dp1053
I0
g1038
sI1
(lp1054
sI2
(lp1055
Vhttp://dbpedia.org/ontology/country
p1056
aVhttp://purl.org/dc/terms/subject
p1057
aVhttp://dbpedia.org/property/officialLanguages
p1058
aVhttp://www.w3.org/2000/01/rdf-schema#comment
p1059
aVhttp://dbpedia.org/ontology/abstract
p1060
aVhttp://dbpedia.org/ontology/wikiPageRedirects
p1061
aVhttp://dbpedia.org/property/location
p1062
aVhttp://dbpedia.org/ontology/headquarter
p1063
aVhttp://dbpedia.org/ontology/spokenIn
p1064
aVhttp://dbpedia.org/property/country
p1065
aVhttp://dbpedia.org/ontology/officialLanguage
p1066
aVhttp://dbpedia.org/ontology/language
p1067
aVhttp://dbpedia.org/ontology/location
p1068
asI3
(lp1069
Vhttp://dbpedia.org/property/origin
p1070
aVhttp://dbpedia.org/ontology/hometown
p1071
asI4
(lp1072
sI5
(lp1073
sI6
(lp1074
Vhttp://www.w3.org/2000/01/rdf-schema#seeAlso
p1075
aVhttp://dbpedia.org/property/origin
p1076
aVhttp://dbpedia.org/property/worldPlace
p1077
aVhttp://dbpedia.org/ontology/PopulatedPlace/areaTotal
p1078
aVhttp://dbpedia.org/property/placeOfDeath
p1079
aVhttp://www.w3.org/ns/prov#wasDerivedFrom
p1080
aVhttp://dbpedia.org/property/rd2t3Loc
p1081
aVhttp://dbpedia.org/property/site
p1082
aVhttp://dbpedia.org/property/rd1t4Loc
p1083
aVhttp://dbpedia.org/ontology/country
p1084
aVhttp://dbpedia.org/property/returns
p1085
aVhttp://www.w3.org/1999/02/22-rdf-syntax-ns#type
p1086
aVhttp://dbpedia.org/property/locationCountry
p1087
aVhttp://dbpedia.org/property/rd1t5Loc
p1088
aVhttp://dbpedia.org/property/rd1t2Loc
p1089
aVhttp://dbpedia.org/ontology/PopulatedPlace/populationDensity
p1090
aVhttp://dbpedia.org/property/withdraws
p1091
aVhttp://dbpedia.org/property/country
p1092
aVhttp://dbpedia.org/property/rd2t2Loc
p1093
aVhttp://dbpedia.org/ontology/abstract
p1094
aVhttp://dbpedia.org/property/venue
p1095
aVhttp://dbpedia.org/property/deathPlace
p1096
aVhttp://dbpedia.org/property/location
p1097
aVhttp://dbpedia.org/property/bgcolor
p1098
aVhttp://dbpedia.org/ontology/locationCountry
p1099
aVhttp://dbpedia.org/ontology/deathPlace
p1100
aVhttp://dbpedia.org/property/rd2t4Loc
p1101
aVhttp://dbpedia.org/property/usedBy
p1102
aVhttp://www.georss.org/georss/point
p1103
aVhttp://dbpedia.org/ontology/location
p1104
aVhttp://www.w3.org/2000/01/rdf-schema#comment
p1105
aVhttp://dbpedia.org/ontology/wikiPageRedirects
p1106
aVhttp://dbpedia.org/ontology/hometown
p1107
aVhttp://dbpedia.org/property/destination
p1108
aVhttp://www.w3.org/2002/07/owl#sameAs
p1109
aVhttp://dbpedia.org/property/openingCity
p1110
aVhttp://dbpedia.org/property/asianPlace
p1111
aVhttp://dbpedia.org/property/stadium
p1112
asI7
(lp1113
Vhttp://dbpedia.org/ontology/country
p1114
aVhttp://dbpedia.org/property/returns
p1115
aVhttp://dbpedia.org/property/rd2t1Loc
p1116
aVhttp://www.w3.org/2000/01/rdf-schema#comment
p1117
aVhttp://dbpedia.org/property/place
p1118
aVhttp://dbpedia.org/ontology/abstract
p1119
aVhttp://dbpedia.org/property/venue
p1120
aVhttp://dbpedia.org/property/location
p1121
aVhttp://dbpedia.org/property/worldPlace
p1122
aVhttp://dbpedia.org/ontology/PopulatedPlace/areaTotal
p1123
aVhttp://dbpedia.org/property/country
p1124
aVhttp://www.w3.org/2002/07/owl#sameAs
p1125
assI2
(dp1126
I0
g1046
sI1
g1055
sI2
(lp1127
sI3
(lp1128
sI4
(lp1129
sI5
(lp1130
sI6
(lp1131
Vhttp://www.w3.org/ns/prov#wasDerivedFrom
p1132
aVhttp://purl.org/voc/vrank#hasRank
p1133
aVhttp://www.w3.org/1999/02/22-rdf-syntax-ns#type
p1134
asI7
(lp1135
ssI3
(dp1136
I0
g1048
sI1
g1069
sI2
g1128
sI3
(lp1137
sI4
(lp1138
sI5
(lp1139
sI6
(lp1140
Vhttp://dbpedia.org/ontology/wikiPageExternalLink
p1141
aVhttp://www.w3.org/1999/02/22-rdf-syntax-ns#type
p1142
aVhttp://purl.org/dc/terms/subject
p1143
aVhttp://www.w3.org/2000/01/rdf-schema#comment
p1144
aVhttp://dbpedia.org/ontology/abstract
p1145
aVhttp://www.w3.org/ns/prov#wasDerivedFrom
p1146
aVhttp://www.w3.org/2002/07/owl#sameAs
p1147
asI7
(lp1148
ssI4
(dp1149
I0
g1049
sI1
g1072
sI2
g1129
sI3
g1138
sI4
(lp1150
sI5
(lp1151
sI6
(lp1152
sI7
(lp1153
ssI5
(dp1154
I0
g1050
sI1
g1073
sI2
g1130
sI3
g1139
sI4
g1151
sI5
(lp1155
sI6
(lp1156
sI7
(lp1157
ssI6
(dp1158
I0
g1051
sI1
g1074
sI2
g1131
sI3
g1140
sI4
g1152
sI5
g1156
sI6
(lp1159
sI7
(lp1160
ssI7
(dp1161
I0
g1052
sI1
g1113
sI2
g1135
sI3
g1148
sI4
g1153
sI5
g1157
sI6
g1160
sI7
(lp1162
ssa(dp1163
I0
(dp1164
I0
(lp1165
sI1
(lp1166
Vhttp://www.w3.org/2002/07/owl#sameAs
p1167
asI2
(lp1168
sI3
(lp1169
Vhttp://www.w3.org/1999/02/22-rdf-syntax-ns#type
p1170
asI4
(lp1171
sI5
(lp1172
Vhttp://www.w3.org/1999/02/22-rdf-syntax-ns#type
p1173
aVhttp://xmlns.com/foaf/0.1/depiction
p1174
aVhttp://dbpedia.org/ontology/thumbnail
p1175
asI6
(lp1176
sI7
(lp1177
ssI1
(dp1178
I0
g1166
sI1
(lp1179
sI2
(lp1180
Vhttp://dbpedia.org/ontology/abstract
p1181
aVhttp://www.w3.org/2000/01/rdf-schema#comment
p1182
asI3
(lp1183
sI4
(lp1184
sI5
(lp1185
sI6
(lp1186
Vhttp://dbpedia.org/property/date
p1187
aVhttp://dbpedia.org/ontology/assembly
p1188
aVhttp://dbpedia.org/property/assembly
p1189
asI7
(lp1190
Vhttp://dbpedia.org/property/origin
p1191
aVhttp://dbpedia.org/property/rd2t6Loc
p1192
aVhttp://dbpedia.org/property/hostCity
p1193
aVhttp://dbpedia.org/ontology/origin
p1194
aVhttp://dbpedia.org/property/assembly
p1195
aVhttp://dbpedia.org/property/place
p1196
aVhttp://dbpedia.org/property/debuts
p1197
aVhttp://dbpedia.org/ontology/team
p1198
aVhttp://www.w3.org/ns/prov#wasDerivedFrom
p1199
aVhttp://dbpedia.org/property/rd2t3Loc
p1200
aVhttp://dbpedia.org/property/rd1t7Loc
p1201
aVhttp://dbpedia.org/ontology/country
p1202
aVhttp://dbpedia.org/property/returns
p1203
aVhttp://www.w3.org/1999/02/22-rdf-syntax-ns#type
p1204
aVhttp://dbpedia.org/property/rd1t5Loc
p1205
aVhttp://dbpedia.org/property/rd1t2Loc
p1206
aVhttp://dbpedia.org/property/withdraws
p1207
aVhttp://dbpedia.org/property/birthPlace
p1208
aVhttp://dbpedia.org/property/placeOfBirth
p1209
aVhttp://dbpedia.org/property/country
p1210
aVhttp://dbpedia.org/ontology/wikiPageExternalLink
p1211
aVhttp://dbpedia.org/property/rd2t2Loc
p1212
aVhttp://dbpedia.org/ontology/abstract
p1213
aVhttp://dbpedia.org/property/venue
p1214
aVhttp://dbpedia.org/property/deathPlace
p1215
aVhttp://dbpedia.org/property/location
p1216
aVhttp://dbpedia.org/property/rd2t7Loc
p1217
aVhttp://dbpedia.org/ontology/city
p1218
aVhttp://dbpedia.org/property/nationalOrigin
p1219
aVhttp://dbpedia.org/property/rd1t6Loc
p1220
aVhttp://dbpedia.org/ontology/assembly
p1221
aVhttp://dbpedia.org/property/rd2t1Loc
p1222
aVhttp://www.w3.org/2000/01/rdf-schema#comment
p1223
aVhttp://dbpedia.org/ontology/birthPlace
p1224
aVhttp://dbpedia.org/ontology/wikiPageRedirects
p1225
aVhttp://dbpedia.org/property/rd1t1Loc
p1226
aVhttp://dbpedia.org/property/plane2Origin
p1227
aVhttp://www.w3.org/2002/07/owl#sameAs
p1228
aVhttp://dbpedia.org/property/rd4t1Loc
p1229
assI2
(dp1230
I0
g1168
sI1
g1180
sI2
(lp1231
sI3
(lp1232
sI4
(lp1233
sI5
(lp1234
sI6
(lp1235
Vhttp://www.w3.org/2002/07/owl#sameAs
p1236
asI7
(lp1237
Vhttp://www.w3.org/ns/prov#wasDerivedFrom
p1238
aVhttp://www.w3.org/2002/07/owl#sameAs
p1239
assI3
(dp1240
I0
g1169
sI1
g1183
sI2
g1232
sI3
(lp1241
sI4
(lp1242
sI5
(lp1243
sI6
(lp1244
Vhttp://dbpedia.org/ontology/wikiPageExternalLink
p1245
aVhttp://dbpedia.org/ontology/abstract
p1246
aVhttp://www.w3.org/1999/02/22-rdf-syntax-ns#type
p1247
asI7
(lp1248
Vhttp://dbpedia.org/ontology/wikiPageExternalLink
p1249
aVhttp://www.w3.org/1999/02/22-rdf-syntax-ns#type
p1250
aVhttp://purl.org/dc/terms/subject
p1251
aVhttp://www.w3.org/2000/01/rdf-schema#comment
p1252
aVhttp://dbpedia.org/ontology/abstract
p1253
aVhttp://www.w3.org/ns/prov#wasDerivedFrom
p1254
aVhttp://www.w3.org/2002/07/owl#sameAs
p1255
assI4
(dp1256
I0
g1171
sI1
g1184
sI2
g1233
sI3
g1242
sI4
(lp1257
sI5
(lp1258
sI6
(lp1259
sI7
(lp1260
ssI5
(dp1261
I0
g1172
sI1
g1185
sI2
g1234
sI3
g1243
sI4
g1258
sI5
(lp1262
sI6
(lp1263
Vhttp://www.w3.org/1999/02/22-rdf-syntax-ns#type
p1264
asI7
(lp1265
Vhttp://www.w3.org/ns/prov#wasDerivedFrom
p1266
aVhttp://dbpedia.org/ontology/abstract
p1267
aVhttp://www.w3.org/1999/02/22-rdf-syntax-ns#type
p1268
aVhttp://www.w3.org/2002/07/owl#sameAs
p1269
aVhttp://www.w3.org/2000/01/rdf-schema#comment
p1270
assI6
(dp1271
I0
g1176
sI1
g1186
sI2
g1235
sI3
g1244
sI4
g1259
sI5
g1263
sI6
(lp1272
sI7
(lp1273
ssI7
(dp1274
I0
g1177
sI1
g1190
sI2
g1237
sI3
g1248
sI4
g1260
sI5
g1265
sI6
g1273
sI7
(lp1275
ssa(dp1276
I0
(dp1277
I0
(lp1278
sI1
(lp1279
Vhttp://dbpedia.org/ontology/wikiPageExternalLink
p1280
aVhttp://dbpedia.org/ontology/country
p1281
aVhttp://dbpedia.org/property/returns
p1282
aVhttp://www.w3.org/1999/02/22-rdf-syntax-ns#type
p1283
aVhttp://dbpedia.org/property/origin
p1284
aVhttp://dbpedia.org/property/hostCity
p1285
aVhttp://dbpedia.org/property/place
p1286
aVhttp://dbpedia.org/ontology/abstract
p1287
aVhttp://dbpedia.org/property/countriesAffected
p1288
aVhttp://dbpedia.org/property/venue
p1289
aVhttp://dbpedia.org/property/location
p1290
aVhttp://dbpedia.org/property/worldPlace
p1291
aVhttp://dbpedia.org/property/hostcity
p1292
aVhttp://dbpedia.org/ontology/place
p1293
aVhttp://dbpedia.org/ontology/city
p1294
aVhttp://dbpedia.org/property/populationEstimateYear
p1295
aVhttp://dbpedia.org/property/stadium
p1296
asI2
(lp1297
Vhttp://www.w3.org/1999/02/22-rdf-syntax-ns#type
p1298
aVhttp://dbpedia.org/ontology/PopulatedPlace/populationDensity
p1299
asI3
(lp1300
Vhttp://dbpedia.org/ontology/abstract
p1301
aVhttp://www.w3.org/1999/02/22-rdf-syntax-ns#type
p1302
aVhttp://dbpedia.org/ontology/lccnId
p1303
asI4
(lp1304
Vhttp://www.w3.org/1999/02/22-rdf-syntax-ns#type
p1305
aVhttp://www.w3.org/2002/07/owl#sameAs
p1306
asI5
(lp1307
sI6
(lp1308
sI7
(lp1309
ssI1
(dp1310
I0
g1279
sI1
(lp1311
sI2
(lp1312
Vhttp://dbpedia.org/ontology/place
p1313
asI3
(lp1314
Vhttp://dbpedia.org/property/origin
p1315
aVhttp://dbpedia.org/ontology/country
p1316
aVhttp://dbpedia.org/property/recorded
p1317
aVhttp://dbpedia.org/property/locationCountry
p1318
aVhttp://dbpedia.org/ontology/recordedIn
p1319
aVhttp://dbpedia.org/ontology/hometown
p1320
aVhttp://dbpedia.org/ontology/locationCountry
p1321
aVhttp://dbpedia.org/property/country
p1322
aVhttp://dbpedia.org/property/subdivisionName
p1323
asI4
(lp1324
sI5
(lp1325
sI6
(lp1326
Vhttp://dbpedia.org/property/origin
p1327
aVhttp://dbpedia.org/property/placeOfDeath
p1328
aVhttp://dbpedia.org/property/broadcastArea
p1329
aVhttp://dbpedia.org/ontology/PopulatedPlace/areaTotal
p1330
aVhttp://www.w3.org/ns/prov#wasDerivedFrom
p1331
aVhttp://dbpedia.org/property/utcOffset
p1332
aVhttp://dbpedia.org/ontology/regionServed
p1333
aVhttp://dbpedia.org/property/rd3t4Loc
p1334
aVhttp://dbpedia.org/property/assembly
p1335
aVhttp://dbpedia.org/ontology/nationality
p1336
aVhttp://dbpedia.org/property/placeOfBirth
p1337
aVhttp://dbpedia.org/property/hometown
p1338
aVhttp://dbpedia.org/property/rallybase
p1339
aVhttp://dbpedia.org/property/nationality
p1340
aVhttp://dbpedia.org/ontology/abstract
p1341
aVhttp://dbpedia.org/ontology/recordedIn
p1342
aVhttp://dbpedia.org/property/venue
p1343
aVhttp://dbpedia.org/property/usedBy
p1344
aVhttp://dbpedia.org/property/nationalOrigin
p1345
aVhttp://www.georss.org/georss/point
p1346
aVhttp://dbpedia.org/property/shipBuilder
p1347
aVhttp://dbpedia.org/ontology/location
p1348
aVhttp://dbpedia.org/property/city
p1349
aVhttp://dbpedia.org/property/factory
p1350
aVhttp://dbpedia.org/property/before
p1351
aVhttp://dbpedia.org/property/rd2t5Loc
p1352
aVhttp://dbpedia.org/property/curlingClub
p1353
aVhttp://dbpedia.org/property/rd4t1Loc
p1354
aVhttp://www.w3.org/2000/01/rdf-schema#seeAlso
p1355
aVhttp://dbpedia.org/property/rd2t6Loc
p1356
aVhttp://dbpedia.org/ontology/countryWithFirstSatellite
p1357
aVhttp://dbpedia.org/property/hostCity
p1358
aVhttp://dbpedia.org/property/2rpt2Loc
p1359
aVhttp://dbpedia.org/property/birthplace
p1360
aVhttp://dbpedia.org/ontology/poleDriverCountry
p1361
aVhttp://dbpedia.org/property/rd2t3Loc
p1362
aVhttp://dbpedia.org/property/site
p1363
aVhttp://dbpedia.org/property/label
p1364
aVhttp://dbpedia.org/ontology/country
p1365
aVhttp://dbpedia.org/property/returns
p1366
aVhttp://dbpedia.org/ontology/hometown
p1367
aVhttp://dbpedia.org/property/home
p1368
aVhttp://dbpedia.org/property/rd1t5Loc
p1369
aVhttp://dbpedia.org/property/birthPlace
p1370
aVhttp://dbpedia.org/property/country
p1371
aVhttp://dbpedia.org/property/areaServed
p1372
aVhttp://dbpedia.org/property/areasAffected
p1373
aVhttp://dbpedia.org/ontology/wikiPageExternalLink
p1374
aVhttp://dbpedia.org/property/rd2Team
p1375
aVhttp://dbpedia.org/property/deathPlace
p1376
aVhttp://dbpedia.org/ontology/builder
p1377
aVhttp://dbpedia.org/ontology/deathPlace
p1378
aVhttp://dbpedia.org/property/rd2t4Loc
p1379
aVhttp://dbpedia.org/property/headquarters
p1380
aVhttp://dbpedia.org/ontology/birthPlace
p1381
aVhttp://dbpedia.org/ontology/wikiPageRedirects
p1382
aVhttp://dbpedia.org/property/rd2t8Loc
p1383
aVhttp://dbpedia.org/property/rd4t2Loc
p1384
aVhttp://dbpedia.org/property/gold
p1385
aVhttp://dbpedia.org/property/asianPlace
p1386
aVhttp://www.w3.org/2002/07/owl#sameAs
p1387
aVhttp://dbpedia.org/property/recorded
p1388
aVhttp://dbpedia.org/ontology/origin
p1389
aVhttp://dbpedia.org/property/worldPlace
p1390
aVhttp://dbpedia.org/property/residence
p1391
aVhttp://dbpedia.org/property/moreUsers
p1392
aVhttp://www.w3.org/1999/02/22-rdf-syntax-ns#type
p1393
aVhttp://dbpedia.org/property/affected
p1394
aVhttp://dbpedia.org/property/rd3t3Loc
p1395
aVhttp://dbpedia.org/ontology/secondDriverCountry
p1396
aVhttp://dbpedia.org/property/rd1t2Loc
p1397
aVhttp://dbpedia.org/property/withdraws
p1398
aVhttp://dbpedia.org/property/namedAfter
p1399
aVhttp://dbpedia.org/property/shipCountry
p1400
aVhttp://dbpedia.org/property/rd1t8Loc
p1401
aVhttp://dbpedia.org/property/rd2t7Loc
p1402
aVhttp://dbpedia.org/ontology/city
p1403
aVhttp://dbpedia.org/ontology/homeport
p1404
aVhttp://dbpedia.org/property/rd1t3Loc
p1405
aVhttp://dbpedia.org/property/gdpNominalRank
p1406
aVhttp://dbpedia.org/property/rd5t1Loc
p1407
aVhttp://dbpedia.org/property/stadium
p1408
aVhttp://dbpedia.org/property/place
p1409
aVhttp://dbpedia.org/property/debuts
p1410
aVhttp://dbpedia.org/ontology/thirdDriverCountry
p1411
aVhttp://dbpedia.org/property/footnoteE
p1412
aVhttp://dbpedia.org/ontology/PopulatedPlace/populationDensity
p1413
aVhttp://dbpedia.org/property/footnoteF
p1414
aVhttp://dbpedia.org/property/combatant
p1415
aVhttp://dbpedia.org/property/after
p1416
aVhttp://dbpedia.org/ontology/place
p1417
aVhttp://dbpedia.org/ontology/residence
p1418
aVhttp://dbpedia.org/property/rd1t4Loc
p1419
aVhttp://dbpedia.org/property/citizenship
p1420
aVhttp://dbpedia.org/property/rd2t2Loc
p1421
aVhttp://dbpedia.org/property/location
p1422
aVhttp://dbpedia.org/property/rd3t2Loc
p1423
aVhttp://dbpedia.org/ontology/headquarter
p1424
aVhttp://dbpedia.org/property/rd1t6Loc
p1425
aVhttp://dbpedia.org/ontology/language
p1426
aVhttp://dbpedia.org/property/title
p1427
aVhttp://dbpedia.org/property/basinCountries
p1428
aVhttp://dbpedia.org/ontology/stateOfOrigin
p1429
aVhttp://dbpedia.org/ontology/assembly
p1430
aVhttp://dbpedia.org/property/rd2t1Loc
p1431
aVhttp://www.w3.org/2000/01/rdf-schema#comment
p1432
aVhttp://dbpedia.org/property/populationEstimateYear
p1433
aVhttp://dbpedia.org/ontology/releaseLocation
p1434
aVhttp://dbpedia.org/property/olympicPlace
p1435
aVhttp://dbpedia.org/property/rd1t1Loc
p1436
aVhttp://dbpedia.org/property/rd3t1Loc
p1437
aVhttp://dbpedia.org/property/shipHomeport
p1438
aVhttp://dbpedia.org/ontology/locationCity
p1439
asI7
(lp1440
Vhttp://dbpedia.org/ontology/wikiPageExternalLink
p1441
aVhttp://dbpedia.org/ontology/country
p1442
aVhttp://dbpedia.org/property/origin
p1443
aVhttp://dbpedia.org/property/olympicPlace
p1444
aVhttp://dbpedia.org/property/country
p1445
aVhttp://dbpedia.org/property/usedBy
p1446
aVhttp://www.w3.org/2002/07/owl#sameAs
p1447
assI2
(dp1448
I0
g1297
sI1
g1312
sI2
(lp1449
sI3
(lp1450
sI4
(lp1451
sI5
(lp1452
sI6
(lp1453
Vhttp://www.w3.org/1999/02/22-rdf-syntax-ns#type
p1454
aVhttp://www.w3.org/2000/01/rdf-schema#comment
p1455
aVhttp://dbpedia.org/ontology/postalCode
p1456
aVhttp://dbpedia.org/ontology/abstract
p1457
aVhttp://dbpedia.org/ontology/PopulatedPlace/areaTotal
p1458
aVhttp://www.w3.org/ns/prov#wasDerivedFrom
p1459
aVhttp://dbpedia.org/ontology/areaCode
p1460
aVhttp://dbpedia.org/ontology/PopulatedPlace/populationDensity
p1461
aVhttp://www.w3.org/2002/07/owl#sameAs
p1462
asI7
(lp1463
Vhttp://www.w3.org/1999/02/22-rdf-syntax-ns#type
p1464
assI3
(dp1465
I0
g1300
sI1
g1314
sI2
g1450
sI3
(lp1466
sI4
(lp1467
Vhttp://www.w3.org/2000/01/rdf-schema#comment
p1468
aVhttp://dbpedia.org/ontology/abstract
p1469
aVhttp://dbpedia.org/ontology/musicalArtist
p1470
aVhttp://dbpedia.org/ontology/artist
p1471
aVhttp://dbpedia.org/ontology/musicalBand
p1472
aVhttp://dbpedia.org/property/artist
p1473
aVhttp://dbpedia.org/property/as
p1474
asI5
(lp1475
sI6
(lp1476
Vhttp://www.w3.org/1999/02/22-rdf-syntax-ns#type
p1477
aVhttp://purl.org/dc/terms/subject
p1478
aVhttp://dbpedia.org/property/entrant
p1479
aVhttp://www.w3.org/2000/01/rdf-schema#comment
p1480
aVhttp://dbpedia.org/ontology/abstract
p1481
aVhttp://xmlns.com/foaf/0.1/depiction
p1482
aVhttp://dbpedia.org/ontology/musicalArtist
p1483
aVhttp://dbpedia.org/ontology/artist
p1484
aVhttp://dbpedia.org/property/wordnet_type
p1485
aVhttp://dbpedia.org/property/image
p1486
aVhttp://dbpedia.org/ontology/musicalBand
p1487
aVhttp://dbpedia.org/ontology/thumbnail
p1488
aVhttp://dbpedia.org/property/artist
p1489
aVhttp://www.w3.org/ns/prov#wasDerivedFrom
p1490
aVhttp://dbpedia.org/property/caption
p1491
aVhttp://dbpedia.org/property/extra
p1492
aVhttp://www.w3.org/2002/07/owl#sameAs
p1493
asI7
(lp1494
Vhttp://www.w3.org/1999/02/22-rdf-syntax-ns#type
p1495
assI4
(dp1496
I0
g1304
sI1
g1324
sI2
g1451
sI3
g1467
sI4
(lp1497
sI5
(lp1498
sI6
(lp1499
Vhttp://dbpedia.org/property/hostCity
p1500
aVhttp://dbpedia.org/property/birthplace
p1501
aVhttp://www.w3.org/ns/prov#wasDerivedFrom
p1502
aVhttp://dbpedia.org/ontology/PopulatedPlace/populationDensity
p1503
aVhttp://dbpedia.org/property/febHighC
p1504
aVhttp://dbpedia.org/property/janLowC
p1505
aVhttp://www.w3.org/1999/02/22-rdf-syntax-ns#type
p1506
aVhttp://dbpedia.org/property/marMeanC
p1507
aVhttp://dbpedia.org/property/novLowC
p1508
aVhttp://dbpedia.org/ontology/areaCode
p1509
aVhttp://purl.org/dc/terms/subject
p1510
aVhttp://dbpedia.org/ontology/abstract
p1511
aVhttp://dbpedia.org/property/location
p1512
aVhttp://dbpedia.org/property/aprRecordLowC
p1513
aVhttp://www.georss.org/georss/point
p1514
aVhttp://dbpedia.org/property/janRecordLowC
p1515
aVhttp://dbpedia.org/ontology/location
p1516
aVhttp://www.w3.org/2000/01/rdf-schema#comment
p1517
aVhttp://dbpedia.org/property/novRecordLowC
p1518
aVhttp://dbpedia.org/property/yearRecordLowC
p1519
aVhttp://purl.org/voc/vrank#hasRank
p1520
aVhttp://www.w3.org/2002/07/owl#sameAs
p1521
aVhttp://dbpedia.org/property/date
p1522
aVhttp://dbpedia.org/property/stadium
p1523
asI7
(lp1524
Vhttp://dbpedia.org/ontology/abstract
p1525
aVhttp://www.w3.org/1999/02/22-rdf-syntax-ns#type
p1526
aVhttp://www.w3.org/2000/01/rdf-schema#comment
p1527
assI5
(dp1528
I0
g1307
sI1
g1325
sI2
g1452
sI3
g1475
sI4
g1498
sI5
(lp1529
sI6
(lp1530
sI7
(lp1531
ssI6
(dp1532
I0
g1308
sI1
g1326
sI2
g1453
sI3
g1476
sI4
g1499
sI5
g1530
sI6
(lp1533
sI7
(lp1534
ssI7
(dp1535
I0
g1309
sI1
g1440
sI2
g1463
sI3
g1494
sI4
g1524
sI5
g1531
sI6
g1534
sI7
(lp1536
ssa(dp1537
I0
(dp1538
I0
(lp1539
sI1
(lp1540
Vhttp://dbpedia.org/ontology/wikiPageExternalLink
p1541
aVhttp://dbpedia.org/property/returns
p1542
aVhttp://www.w3.org/1999/02/22-rdf-syntax-ns#type
p1543
aVhttp://dbpedia.org/ontology/abstract
p1544
aVhttp://dbpedia.org/property/location
p1545
aVhttp://dbpedia.org/property/withdraws
p1546
aVhttp://dbpedia.org/property/stadium
p1547
asI2
(lp1548
sI3
(lp1549
Vhttp://www.w3.org/1999/02/22-rdf-syntax-ns#type
p1550
asI4
(lp1551
sI5
(lp1552
sI6
(lp1553
sI7
(lp1554
ssI1
(dp1555
I0
g1540
sI1
(lp1556
sI2
(lp1557
sI3
(lp1558
sI4
(lp1559
sI5
(lp1560
sI6
(lp1561
Vhttp://dbpedia.org/property/terminusB
p1562
aVhttp://dbpedia.org/property/broadcastArea
p1563
aVhttp://dbpedia.org/property/place
p1564
aVhttp://dbpedia.org/ontology/PopulatedPlace/areaTotal
p1565
aVhttp://www.w3.org/ns/prov#wasDerivedFrom
p1566
aVhttp://dbpedia.org/ontology/PopulatedPlace/populationDensity
p1567
aVhttp://dbpedia.org/ontology/routeEnd
p1568
aVhttp://dbpedia.org/property/rd1t4Loc
p1569
aVhttp://dbpedia.org/property/returns
p1570
aVhttp://www.w3.org/1999/02/22-rdf-syntax-ns#type
p1571
aVhttp://dbpedia.org/property/withdraws
p1572
aVhttp://dbpedia.org/ontology/place
p1573
aVhttp://dbpedia.org/property/placeOfBirth
p1574
aVhttp://dbpedia.org/property/country
p1575
aVhttp://dbpedia.org/ontology/wikiPageExternalLink
p1576
aVhttp://dbpedia.org/property/rd2t2Loc
p1577
aVhttp://dbpedia.org/ontology/abstract
p1578
aVhttp://dbpedia.org/property/venue
p1579
aVhttp://dbpedia.org/property/location
p1580
aVhttp://dbpedia.org/property/gdpPppPerCapita
p1581
aVhttp://dbpedia.org/ontology/headquarter
p1582
aVhttp://dbpedia.org/property/gdpPpp
p1583
aVhttp://dbpedia.org/property/headquarters
p1584
aVhttp://www.georss.org/georss/point
p1585
aVhttp://dbpedia.org/property/rd2t1Loc
p1586
aVhttp://dbpedia.org/property/countries
p1587
aVhttp://dbpedia.org/ontology/birthPlace
p1588
aVhttp://purl.org/voc/vrank#hasRank
p1589
aVhttp://www.w3.org/2002/07/owl#sameAs
p1590
aVhttp://dbpedia.org/property/stadium
p1591
asI7
(lp1592
Vhttp://dbpedia.org/property/withdraws
p1593
aVhttp://dbpedia.org/ontology/abstract
p1594
aVhttp://dbpedia.org/property/location
p1595
aVhttp://dbpedia.org/property/stadium
p1596
aVhttp://dbpedia.org/property/returns
p1597
assI2
(dp1598
I0
g1548
sI1
g1557
sI2
(lp1599
sI3
(lp1600
sI4
(lp1601
sI5
(lp1602
sI6
(lp1603
sI7
(lp1604
ssI3
(dp1605
I0
g1549
sI1
g1558
sI2
g1600
sI3
(lp1606
sI4
(lp1607
sI5
(lp1608
sI6
(lp1609
Vhttp://www.w3.org/1999/02/22-rdf-syntax-ns#type
p1610
aVhttp://purl.org/dc/terms/subject
p1611
aVhttp://dbpedia.org/property/entrant
p1612
aVhttp://www.w3.org/2000/01/rdf-schema#comment
p1613
aVhttp://dbpedia.org/ontology/abstract
p1614
aVhttp://www.w3.org/ns/prov#wasDerivedFrom
p1615
aVhttp://dbpedia.org/ontology/viafId
p1616
aVhttp://www.w3.org/2002/07/owl#sameAs
p1617
asI7
(lp1618
Vhttp://www.w3.org/1999/02/22-rdf-syntax-ns#type
p1619
assI4
(dp1620
I0
g1551
sI1
g1559
sI2
g1601
sI3
g1607
sI4
(lp1621
sI5
(lp1622
sI6
(lp1623
sI7
(lp1624
ssI5
(dp1625
I0
g1552
sI1
g1560
sI2
g1602
sI3
g1608
sI4
g1622
sI5
(lp1626
sI6
(lp1627
sI7
(lp1628
ssI6
(dp1629
I0
g1553
sI1
g1561
sI2
g1603
sI3
g1609
sI4
g1623
sI5
g1627
sI6
(lp1630
sI7
(lp1631
ssI7
(dp1632
I0
g1554
sI1
g1592
sI2
g1604
sI3
g1618
sI4
g1624
sI5
g1628
sI6
g1631
sI7
(lp1633
ssa(dp1634
I0
(dp1635
I0
(lp1636
sI1
(lp1637
Vhttp://dbpedia.org/ontology/wikiPageExternalLink
p1638
aVhttp://dbpedia.org/ontology/abstract
p1639
asI2
(lp1640
Vhttp://dbpedia.org/ontology/abstract
p1641
aVhttp://www.w3.org/1999/02/22-rdf-syntax-ns#type
p1642
aVhttp://www.w3.org/2002/07/owl#sameAs
p1643
aVhttp://www.w3.org/2000/01/rdf-schema#comment
p1644
asI3
(lp1645
Vhttp://dbpedia.org/ontology/wikiPageExternalLink
p1646
aVhttp://dbpedia.org/ontology/abstract
p1647
aVhttp://www.w3.org/1999/02/22-rdf-syntax-ns#type
p1648
aVhttp://purl.org/dc/terms/subject
p1649
aVhttp://www.w3.org/2000/01/rdf-schema#comment
p1650
asI4
(lp1651
sI5
(lp1652
sI6
(lp1653
sI7
(lp1654
ssI1
(dp1655
I0
g1637
sI1
(lp1656
sI2
(lp1657
sI3
(lp1658
sI4
(lp1659
sI5
(lp1660
sI6
(lp1661
Vhttp://dbpedia.org/ontology/wikiPageExternalLink
p1662
aVhttp://dbpedia.org/ontology/abstract
p1663
aVhttp://dbpedia.org/ontology/wikiPageRedirects
p1664
aVhttp://purl.org/voc/vrank#hasRank
p1665
aVhttp://dbpedia.org/property/date
p1666
aVhttp://www.w3.org/ns/prov#wasDerivedFrom
p1667
asI7
(lp1668
Vhttp://dbpedia.org/ontology/wikiPageExternalLink
p1669
aVhttp://dbpedia.org/property/date
p1670
assI2
(dp1671
I0
g1640
sI1
g1657
sI2
(lp1672
sI3
(lp1673
sI4
(lp1674
sI5
(lp1675
sI6
(lp1676
Vhttp://www.w3.org/1999/02/22-rdf-syntax-ns#type
p1677
asI7
(lp1678
Vhttp://www.w3.org/1999/02/22-rdf-syntax-ns#type
p1679
assI3
(dp1680
I0
g1645
sI1
g1658
sI2
g1673
sI3
(lp1681
sI4
(lp1682
sI5
(lp1683
sI6
(lp1684
Vhttp://www.w3.org/ns/prov#wasDerivedFrom
p1685
aVhttp://dbpedia.org/ontology/abstract
p1686
aVhttp://www.w3.org/1999/02/22-rdf-syntax-ns#type
p1687
aVhttp://www.w3.org/2002/07/owl#sameAs
p1688
aVhttp://www.w3.org/2000/01/rdf-schema#comment
p1689
asI7
(lp1690
ssI4
(dp1691
I0
g1651
sI1
g1659
sI2
g1674
sI3
g1682
sI4
(lp1692
sI5
(lp1693
sI6
(lp1694
sI7
(lp1695
ssI5
(dp1696
I0
g1652
sI1
g1660
sI2
g1675
sI3
g1683
sI4
g1693
sI5
(lp1697
sI6
(lp1698
sI7
(lp1699
ssI6
(dp1700
I0
g1653
sI1
g1661
sI2
g1676
sI3
g1684
sI4
g1694
sI5
g1698
sI6
(lp1701
sI7
(lp1702
ssI7
(dp1703
I0
g1654
sI1
g1668
sI2
g1678
sI3
g1690
sI4
g1695
sI5
g1699
sI6
g1702
sI7
(lp1704
ssa(dp1705
I0
(dp1706
I0
(lp1707
sI1
(lp1708
Vhttp://dbpedia.org/property/origin
p1709
aVhttp://dbpedia.org/ontology/origin
p1710
aVhttp://dbpedia.org/property/place
p1711
aVhttp://dbpedia.org/property/worldPlace
p1712
aVhttp://dbpedia.org/property/maleIndividualChampionTeam
p1713
aVhttp://dbpedia.org/ontology/country
p1714
aVhttp://dbpedia.org/property/returns
p1715
aVhttp://dbpedia.org/property/withdraws
p1716
aVhttp://dbpedia.org/property/country
p1717
aVhttp://dbpedia.org/property/gdpNominal
p1718
aVhttp://dbpedia.org/ontology/wikiPageExternalLink
p1719
aVhttp://dbpedia.org/property/rd2Team
p1720
aVhttp://dbpedia.org/ontology/abstract
p1721
aVhttp://dbpedia.org/property/venue
p1722
aVhttp://dbpedia.org/property/location
p1723
aVhttp://dbpedia.org/property/gdpPpp
p1724
aVhttp://dbpedia.org/property/rd1t6Loc
p1725
aVhttp://dbpedia.org/property/nationalOrigin
p1726
aVhttp://dbpedia.org/ontology/location
p1727
aVhttp://www.w3.org/2000/01/rdf-schema#comment
p1728
aVhttp://dbpedia.org/property/countries
p1729
aVhttp://dbpedia.org/property/stadium
p1730
asI2
(lp1731
Vhttp://purl.org/voc/vrank#hasRank
p1732
aVhttp://dbpedia.org/ontology/abstract
p1733
aVhttp://www.w3.org/1999/02/22-rdf-syntax-ns#type
p1734
aVhttp://www.w3.org/2000/01/rdf-schema#comment
p1735
asI3
(lp1736
Vhttp://www.w3.org/1999/02/22-rdf-syntax-ns#type
p1737
asI4
(lp1738
Vhttp://dbpedia.org/ontology/abstract
p1739
aVhttp://www.w3.org/2000/01/rdf-schema#comment
p1740
asI5
(lp1741
sI6
(lp1742
sI7
(lp1743
ssI1
(dp1744
I0
g1708
sI1
(lp1745
sI2
(lp1746
Vhttp://dbpedia.org/ontology/officialLanguage
p1747
aVhttp://dbpedia.org/ontology/country
p1748
aVhttp://www.w3.org/1999/02/22-rdf-syntax-ns#type
p1749
aVhttp://purl.org/dc/terms/subject
p1750
aVhttp://dbpedia.org/property/officialLanguages
p1751
aVhttp://www.w3.org/2000/01/rdf-schema#comment
p1752
aVhttp://dbpedia.org/ontology/origin
p1753
aVhttp://dbpedia.org/property/southeast
p1754
aVhttp://dbpedia.org/ontology/abstract
p1755
aVhttp://dbpedia.org/property/country
p1756
aVhttp://dbpedia.org/property/nearestTown
p1757
aVhttp://dbpedia.org/property/location
p1758
aVhttp://dbpedia.org/property/east
p1759
aVhttp://dbpedia.org/ontology/place
p1760
aVhttp://dbpedia.org/ontology/spokenIn
p1761
aVhttp://dbpedia.org/property/north
p1762
aVhttp://dbpedia.org/property/northeast
p1763
aVhttp://dbpedia.org/property/subdivisionName
p1764
aVhttp://dbpedia.org/ontology/language
p1765
aVhttp://dbpedia.org/ontology/populationPlace
p1766
asI3
(lp1767
sI4
(lp1768
sI5
(lp1769
sI6
(lp1770
Vhttp://dbpedia.org/ontology/countryWithFirstAstronaut
p1771
aVhttp://dbpedia.org/property/placeOfDeath
p1772
aVhttp://dbpedia.org/property/rd2t6Loc
p1773
aVhttp://dbpedia.org/property/shipOwner
p1774
aVhttp://dbpedia.org/property/ground
p1775
aVhttp://dbpedia.org/ontology/origin
p1776
aVhttp://dbpedia.org/property/place
p1777
aVhttp://dbpedia.org/property/stateParty
p1778
aVhttp://dbpedia.org/property/worldPlace
p1779
aVhttp://dbpedia.org/ontology/PopulatedPlace/areaTotal
p1780
aVhttp://dbpedia.org/property/base
p1781
aVhttp://dbpedia.org/ontology/city
p1782
aVhttp://dbpedia.org/property/footnoteC
p1783
aVhttp://dbpedia.org/property/rd2t3Loc
p1784
aVhttp://dbpedia.org/property/maleIndividualChampionTeam
p1785
aVhttp://dbpedia.org/property/rd1t7Loc
p1786
aVhttp://dbpedia.org/property/rd1t4Loc
p1787
aVhttp://dbpedia.org/ontology/country
p1788
aVhttp://dbpedia.org/property/region
p1789
aVhttp://www.w3.org/1999/02/22-rdf-syntax-ns#type
p1790
aVhttp://dbpedia.org/property/rd3t3Loc
p1791
aVhttp://dbpedia.org/ontology/capital
p1792
aVhttp://www.w3.org/2002/07/owl#sameAs
p1793
aVhttp://dbpedia.org/property/home
p1794
aVhttp://dbpedia.org/property/locationCountry
p1795
aVhttp://dbpedia.org/property/referee
p1796
aVhttp://dbpedia.org/property/assembly
p1797
aVhttp://dbpedia.org/property/withdraws
p1798
aVhttp://dbpedia.org/property/countries
p1799
aVhttp://dbpedia.org/property/birthPlace
p1800
aVhttp://dbpedia.org/ontology/place
p1801
aVhttp://dbpedia.org/property/placeOfBirth
p1802
aVhttp://dbpedia.org/property/locationSigned
p1803
aVhttp://dbpedia.org/property/country
p1804
aVhttp://dbpedia.org/property/prevSeries
p1805
aVhttp://dbpedia.org/property/shipCountry
p1806
aVhttp://dbpedia.org/property/co
p1807
aVhttp://dbpedia.org/property/establishedEvent
p1808
aVhttp://dbpedia.org/property/signatories
p1809
aVhttp://dbpedia.org/ontology/county
p1810
aVhttp://dbpedia.org/property/origin
p1811
aVhttp://dbpedia.org/property/rd2t2Loc
p1812
aVhttp://dbpedia.org/property/nationality
p1813
aVhttp://dbpedia.org/ontology/abstract
p1814
aVhttp://dbpedia.org/property/rd1t8Loc
p1815
aVhttp://dbpedia.org/property/venue
p1816
aVhttp://dbpedia.org/property/deathPlace
p1817
aVhttp://dbpedia.org/property/location
p1818
aVhttp://dbpedia.org/ontology/builder
p1819
aVhttp://dbpedia.org/property/rd3t2Loc
p1820
aVhttp://dbpedia.org/ontology/deathPlace
p1821
aVhttp://dbpedia.org/property/rd2t4Loc
p1822
aVhttp://dbpedia.org/property/rd2t7Loc
p1823
aVhttp://dbpedia.org/property/rd1t6Loc
p1824
aVhttp://dbpedia.org/property/returns
p1825
aVhttp://dbpedia.org/property/debuts
p1826
aVhttp://dbpedia.org/property/hostCity
p1827
aVhttp://dbpedia.org/property/nationalOrigin
p1828
aVhttp://dbpedia.org/property/headquarters
p1829
aVhttp://dbpedia.org/property/locale
p1830
aVhttp://dbpedia.org/property/rd1t3Loc
p1831
aVhttp://dbpedia.org/ontology/assembly
p1832
aVhttp://dbpedia.org/property/rd2t1Loc
p1833
aVhttp://www.w3.org/2000/01/rdf-schema#comment
p1834
aVhttp://dbpedia.org/property/rd3t4Loc
p1835
aVhttp://dbpedia.org/ontology/birthPlace
p1836
aVhttp://dbpedia.org/property/destinations
p1837
aVhttp://dbpedia.org/ontology/wikiPageExternalLink
p1838
aVhttp://dbpedia.org/property/olympicPlace
p1839
aVhttp://dbpedia.org/property/rd1t1Loc
p1840
aVhttp://dbpedia.org/property/rd2t5Loc
p1841
aVhttp://dbpedia.org/property/rd2t8Loc
p1842
aVhttp://dbpedia.org/property/stadium
p1843
aVhttp://dbpedia.org/property/shipBuilder
p1844
aVhttp://dbpedia.org/property/rd5t1Loc
p1845
aVhttp://dbpedia.org/property/asianPlace
p1846
aVhttp://dbpedia.org/ontology/thirdDriverCountry
p1847
aVhttp://dbpedia.org/property/areasAffected
p1848
aVhttp://dbpedia.org/property/rd4t2Loc
p1849
aVhttp://dbpedia.org/ontology/location
p1850
asI7
(lp1851
Vhttp://dbpedia.org/property/origin
p1852
aVhttp://dbpedia.org/property/placeOfDeath
p1853
aVhttp://dbpedia.org/property/place
p1854
aVhttp://dbpedia.org/property/worldPlace
p1855
aVhttp://dbpedia.org/property/maleIndividualChampionTeam
p1856
aVhttp://dbpedia.org/ontology/country
p1857
aVhttp://www.w3.org/1999/02/22-rdf-syntax-ns#type
p1858
aVhttp://dbpedia.org/property/image
p1859
aVhttp://dbpedia.org/property/country
p1860
aVhttp://dbpedia.org/ontology/wikiPageExternalLink
p1861
aVhttp://dbpedia.org/ontology/abstract
p1862
aVhttp://dbpedia.org/property/rd1t8Loc
p1863
aVhttp://dbpedia.org/property/venue
p1864
aVhttp://dbpedia.org/property/deathPlace
p1865
aVhttp://dbpedia.org/property/location
p1866
aVhttp://dbpedia.org/ontology/deathPlace
p1867
aVhttp://dbpedia.org/property/debuts
p1868
aVhttp://dbpedia.org/property/nationalOrigin
p1869
aVhttp://dbpedia.org/ontology/location
p1870
aVhttp://dbpedia.org/ontology/assembly
p1871
aVhttp://dbpedia.org/property/headquarters
p1872
aVhttp://www.w3.org/2000/01/rdf-schema#comment
p1873
aVhttp://dbpedia.org/property/asianPlace
p1874
aVhttp://dbpedia.org/property/stadium
p1875
assI2
(dp1876
I0
g1731
sI1
g1746
sI2
(lp1877
sI3
(lp1878
sI4
(lp1879
sI5
(lp1880
sI6
(lp1881
Vhttp://www.w3.org/1999/02/22-rdf-syntax-ns#type
p1882
aVhttp://www.w3.org/2000/01/rdf-schema#comment
p1883
aVhttp://dbpedia.org/ontology/abstract
p1884
aVhttp://dbpedia.org/property/imageCaption
p1885
aVhttp://dbpedia.org/ontology/thumbnail
p1886
aVhttp://xmlns.com/foaf/0.1/depiction
p1887
aVhttp://www.w3.org/2002/07/owl#sameAs
p1888
asI7
(lp1889
Vhttp://dbpedia.org/ontology/abstract
p1890
aVhttp://www.w3.org/1999/02/22-rdf-syntax-ns#type
p1891
aVhttp://www.w3.org/2002/07/owl#sameAs
p1892
aVhttp://www.w3.org/2000/01/rdf-schema#comment
p1893
assI3
(dp1894
I0
g1736
sI1
g1767
sI2
g1878
sI3
(lp1895
sI4
(lp1896
Vhttp://dbpedia.org/ontology/abstract
p1897
asI5
(lp1898
sI6
(lp1899
Vhttp://www.w3.org/1999/02/22-rdf-syntax-ns#type
p1900
aVhttp://purl.org/dc/terms/subject
p1901
aVhttp://dbpedia.org/property/entrant
p1902
aVhttp://dbpedia.org/property/composer
p1903
aVhttp://www.w3.org/2000/01/rdf-schema#comment
p1904
aVhttp://dbpedia.org/ontology/abstract
p1905
aVhttp://dbpedia.org/property/artist
p1906
aVhttp://www.w3.org/ns/prov#wasDerivedFrom
p1907
aVhttp://dbpedia.org/ontology/viafId
p1908
aVhttp://www.w3.org/2002/07/owl#sameAs
p1909
asI7
(lp1910
Vhttp://www.w3.org/1999/02/22-rdf-syntax-ns#type
p1911
assI4
(dp1912
I0
g1738
sI1
g1768
sI2
g1879
sI3
g1896
sI4
(lp1913
sI5
(lp1914
sI6
(lp1915
Vhttp://dbpedia.org/ontology/wikiPageExternalLink
p1916
aVhttp://www.w3.org/1999/02/22-rdf-syntax-ns#type
p1917
aVhttp://purl.org/dc/terms/subject
p1918
aVhttp://www.w3.org/2000/01/rdf-schema#comment
p1919
aVhttp://dbpedia.org/ontology/abstract
p1920
aVhttp://dbpedia.org/ontology/wikiPageRedirects
p1921
aVhttp://dbpedia.org/property/song
p1922
aVhttp://purl.org/voc/vrank#hasRank
p1923
aVhttp://www.w3.org/ns/prov#wasDerivedFrom
p1924
aVhttp://dbpedia.org/property/lyrics
p1925
asI7
(lp1926
Vhttp://dbpedia.org/ontology/abstract
p1927
aVhttp://www.w3.org/1999/02/22-rdf-syntax-ns#type
p1928
aVhttp://www.w3.org/2000/01/rdf-schema#comment
p1929
assI5
(dp1930
I0
g1741
sI1
g1769
sI2
g1880
sI3
g1898
sI4
g1914
sI5
(lp1931
sI6
(lp1932
sI7
(lp1933
ssI6
(dp1934
I0
g1742
sI1
g1770
sI2
g1881
sI3
g1899
sI4
g1915
sI5
g1932
sI6
(lp1935
sI7
(lp1936
ssI7
(dp1937
I0
g1743
sI1
g1851
sI2
g1889
sI3
g1910
sI4
g1926
sI5
g1933
sI6
g1936
sI7
(lp1938
ssa(dp1939
I0
(dp1940
I0
(lp1941
sI1
(lp1942
Vhttp://dbpedia.org/property/hostCity
p1943
aVhttp://dbpedia.org/property/debuts
p1944
aVhttp://dbpedia.org/property/sp
p1945
aVhttp://dbpedia.org/property/rd2t3Loc
p1946
aVhttp://dbpedia.org/ontology/country
p1947
aVhttp://www.w3.org/1999/02/22-rdf-syntax-ns#type
p1948
aVhttp://dbpedia.org/property/locationCountry
p1949
aVhttp://dbpedia.org/property/rd1t5Loc
p1950
aVhttp://dbpedia.org/property/withdraws
p1951
aVhttp://dbpedia.org/property/femaleIndividualChampionTeam
p1952
aVhttp://dbpedia.org/property/country
p1953
aVhttp://dbpedia.org/property/shipCountry
p1954
aVhttp://dbpedia.org/ontology/abstract
p1955
aVhttp://dbpedia.org/ontology/recordedIn
p1956
aVhttp://dbpedia.org/property/venue
p1957
aVhttp://dbpedia.org/property/location
p1958
aVhttp://dbpedia.org/ontology/locationCountry
p1959
aVhttp://dbpedia.org/property/nationalOrigin
p1960
aVhttp://dbpedia.org/ontology/location
p1961
aVhttp://dbpedia.org/property/countries
p1962
aVhttp://www.w3.org/2002/07/owl#sameAs
p1963
aVhttp://dbpedia.org/property/stadium
p1964
asI2
(lp1965
Vhttp://www.w3.org/ns/prov#wasDerivedFrom
p1966
aVhttp://dbpedia.org/ontology/areaCode
p1967
aVhttp://www.w3.org/1999/02/22-rdf-syntax-ns#type
p1968
asI3
(lp1969
Vhttp://dbpedia.org/ontology/abstract
p1970
aVhttp://www.w3.org/1999/02/22-rdf-syntax-ns#type
p1971
aVhttp://www.w3.org/2000/01/rdf-schema#comment
p1972
asI4
(lp1973
sI5
(lp1974
sI6
(lp1975
sI7
(lp1976
ssI1
(dp1977
I0
g1942
sI1
(lp1978
sI2
(lp1979
Vhttp://dbpedia.org/ontology/wikiPageExternalLink
p1980
aVhttp://dbpedia.org/ontology/regionalLanguage
p1981
aVhttp://dbpedia.org/property/footnoteA
p1982
aVhttp://xmlns.com/foaf/0.1/homepage
p1983
aVhttp://dbpedia.org/property/footnoteC
p1984
aVhttp://dbpedia.org/property/regionalLanguages
p1985
aVhttp://dbpedia.org/ontology/language
p1986
asI3
(lp1987
sI4
(lp1988
sI5
(lp1989
sI6
(lp1990
Vhttp://dbpedia.org/property/origin
p1991
aVhttp://dbpedia.org/property/placeOfDeath
p1992
aVhttp://dbpedia.org/property/shipRegistry
p1993
aVhttp://dbpedia.org/property/broadcastArea
p1994
aVhttp://dbpedia.org/property/city
p1995
aVhttp://www.w3.org/ns/prov#wasDerivedFrom
p1996
aVhttp://dbpedia.org/property/nation
p1997
aVhttp://dbpedia.org/property/rd3t4Loc
p1998
aVhttp://dbpedia.org/property/assembly
p1999
aVhttp://dbpedia.org/property/shortDescription
p2000
aVhttp://dbpedia.org/property/placeOfBirth
p2001
aVhttp://dbpedia.org/property/establishedEvent
p2002
aVhttp://dbpedia.org/property/nationality
p2003
aVhttp://dbpedia.org/ontology/abstract
p2004
aVhttp://dbpedia.org/ontology/recordedIn
p2005
aVhttp://dbpedia.org/property/venue
p2006
aVhttp://dbpedia.org/property/usedBy
p2007
aVhttp://dbpedia.org/property/nationalOrigin
p2008
aVhttp://www.georss.org/georss/point
p2009
aVhttp://dbpedia.org/property/shipBuilder
p2010
aVhttp://dbpedia.org/ontology/location
p2011
aVhttp://dbpedia.org/ontology/PopulatedPlace/areaTotal
p2012
aVhttp://dbpedia.org/property/countries
p2013
aVhttp://dbpedia.org/property/area
p2014
aVhttp://dbpedia.org/ontology/hometown
p2015
aVhttp://dbpedia.org/property/rd2t6Loc
p2016
aVhttp://dbpedia.org/property/hostCity
p2017
aVhttp://dbpedia.org/ontology/routeStart
p2018
aVhttp://dbpedia.org/property/rd2t3Loc
p2019
aVhttp://dbpedia.org/property/placeOfBurial
p2020
aVhttp://dbpedia.org/property/label
p2021
aVhttp://dbpedia.org/ontology/country
p2022
aVhttp://dbpedia.org/property/returns
p2023
aVhttp://dbpedia.org/property/home
p2024
aVhttp://dbpedia.org/property/rd1t5Loc
p2025
aVhttp://dbpedia.org/property/birthPlace
p2026
aVhttp://dbpedia.org/property/populationDensitySqMi
p2027
aVhttp://dbpedia.org/property/depositor
p2028
aVhttp://dbpedia.org/property/country
p2029
aVhttp://dbpedia.org/property/areasAffected
p2030
aVhttp://dbpedia.org/ontology/wikiPageExternalLink
p2031
aVhttp://dbpedia.org/property/deathPlace
p2032
aVhttp://dbpedia.org/property/states
p2033
aVhttp://dbpedia.org/ontology/builder
p2034
aVhttp://www.w3.org/1999/02/22-rdf-syntax-ns#type
p2035
aVhttp://dbpedia.org/ontology/deathPlace
p2036
aVhttp://dbpedia.org/property/rd2t4Loc
p2037
aVhttp://dbpedia.org/property/hasPhotoCollection
p2038
aVhttp://dbpedia.org/property/locationSigned
p2039
aVhttp://dbpedia.org/ontology/birthPlace
p2040
aVhttp://dbpedia.org/ontology/wikiPageRedirects
p2041
aVhttp://purl.org/voc/vrank#hasRank
p2042
aVhttp://dbpedia.org/property/rd2t8Loc
p2043
aVhttp://www.w3.org/2002/07/owl#sameAs
p2044
aVhttp://dbpedia.org/property/recorded
p2045
aVhttp://dbpedia.org/property/worldPlace
p2046
aVhttp://dbpedia.org/property/residence
p2047
aVhttp://dbpedia.org/property/populationEstimateRank
p2048
aVhttp://dbpedia.org/property/rd1t6Loc
p2049
aVhttp://dbpedia.org/property/maleIndividualChampionTeam
p2050
aVhttp://dbpedia.org/property/windance
p2051
aVhttp://dbpedia.org/property/locationCountry
p2052
aVhttp://dbpedia.org/property/referee
p2053
aVhttp://dbpedia.org/property/rd1t2Loc
p2054
aVhttp://dbpedia.org/ontology/ground
p2055
aVhttp://dbpedia.org/property/withdraws
p2056
aVhttp://dbpedia.org/property/femaleIndividualChampionTeam
p2057
aVhttp://dbpedia.org/property/shipCountry
p2058
aVhttp://dbpedia.org/property/gdpNominal
p2059
aVhttp://dbpedia.org/property/rd1t8Loc
p2060
aVhttp://dbpedia.org/property/fightingOutOf
p2061
aVhttp://dbpedia.org/property/gdpPppPerCapita
p2062
aVhttp://dbpedia.org/ontology/thumbnail
p2063
aVhttp://dbpedia.org/ontology/city
p2064
aVhttp://dbpedia.org/property/subdivisionName
p2065
aVhttp://dbpedia.org/property/rd1t3Loc
p2066
aVhttp://dbpedia.org/property/locationCity
p2067
aVhttp://dbpedia.org/property/stadium
p2068
aVhttp://dbpedia.org/property/ground
p2069
aVhttp://dbpedia.org/property/place
p2070
aVhttp://dbpedia.org/property/debuts
p2071
aVhttp://dbpedia.org/property/placeofburial
p2072
aVhttp://dbpedia.org/ontology/PopulatedPlace/populationDensity
p2073
aVhttp://dbpedia.org/property/allegiance
p2074
aVhttp://dbpedia.org/ontology/place
p2075
aVhttp://dbpedia.org/property/location
p2076
aVhttp://dbpedia.org/property/foundation
p2077
aVhttp://dbpedia.org/ontology/language
p2078
aVhttp://dbpedia.org/ontology/broadcastArea
p2079
aVhttp://dbpedia.org/property/locale
p2080
aVhttp://dbpedia.org/ontology/assembly
p2081
aVhttp://dbpedia.org/property/rd2t1Loc
p2082
aVhttp://www.w3.org/2000/01/rdf-schema#comment
p2083
aVhttp://dbpedia.org/property/callingCode
p2084
aVhttp://dbpedia.org/ontology/locationCity
p2085
asI7
(lp2086
Vhttp://dbpedia.org/ontology/location
p2087
aVhttp://www.w3.org/2000/01/rdf-schema#comment
p2088
aVhttp://dbpedia.org/ontology/PopulatedPlace/populationDensity
p2089
aVhttp://dbpedia.org/property/venue
p2090
aVhttp://dbpedia.org/ontology/birthPlace
p2091
aVhttp://dbpedia.org/property/referee
p2092
aVhttp://dbpedia.org/property/place
p2093
aVhttp://dbpedia.org/property/birthPlace
p2094
aVhttp://dbpedia.org/property/populationDensityKm
p2095
aVhttp://dbpedia.org/ontology/ground
p2096
aVhttp://dbpedia.org/ontology/PopulatedPlace/areaTotal
p2097
aVhttp://dbpedia.org/property/combatant
p2098
aVhttp://dbpedia.org/ontology/place
p2099
aVhttp://dbpedia.org/ontology/homeStadium
p2100
aVhttp://dbpedia.org/property/l
p2101
aVhttp://dbpedia.org/property/home
p2102
aVhttp://dbpedia.org/property/location
p2103
aVhttp://dbpedia.org/property/worldPlace
p2104
aVhttp://dbpedia.org/ontology/abstract
p2105
aVhttp://dbpedia.org/property/stadium
p2106
aVhttp://dbpedia.org/property/placeOfBirth
p2107
assI2
(dp2108
I0
g1965
sI1
g1979
sI2
(lp2109
sI3
(lp2110
sI4
(lp2111
sI5
(lp2112
sI6
(lp2113
Vhttp://www.georss.org/georss/point
p2114
aVhttp://dbpedia.org/ontology/PopulatedPlace/areaTotal
p2115
aVhttp://purl.org/voc/vrank#hasRank
p2116
aVhttp://www.w3.org/1999/02/22-rdf-syntax-ns#type
p2117
aVhttp://dbpedia.org/ontology/thumbnail
p2118
aVhttp://dbpedia.org/property/hasPhotoCollection
p2119
aVhttp://dbpedia.org/ontology/PopulatedPlace/populationDensity
p2120
aVhttp://www.w3.org/2002/07/owl#sameAs
p2121
asI7
(lp2122
Vhttp://dbpedia.org/ontology/abstract
p2123
aVhttp://www.w3.org/2000/01/rdf-schema#comment
p2124
assI3
(dp2125
I0
g1969
sI1
g1987
sI2
g2110
sI3
(lp2126
sI4
(lp2127
Vhttp://dbpedia.org/ontology/abstract
p2128
aVhttp://www.w3.org/2000/01/rdf-schema#comment
p2129
asI5
(lp2130
sI6
(lp2131
Vhttp://www.w3.org/1999/02/22-rdf-syntax-ns#type
p2132
aVhttp://www.w3.org/2000/01/rdf-schema#comment
p2133
aVhttp://dbpedia.org/ontology/abstract
p2134
aVhttp://dbpedia.org/ontology/thumbnail
p2135
aVhttp://dbpedia.org/property/hasPhotoCollection
p2136
aVhttp://www.w3.org/2002/07/owl#sameAs
p2137
asI7
(lp2138
Vhttp://www.w3.org/1999/02/22-rdf-syntax-ns#type
p2139
assI4
(dp2140
I0
g1973
sI1
g1988
sI2
g2111
sI3
g2127
sI4
(lp2141
sI5
(lp2142
sI6
(lp2143
sI7
(lp2144
ssI5
(dp2145
I0
g1974
sI1
g1989
sI2
g2112
sI3
g2130
sI4
g2142
sI5
(lp2146
sI6
(lp2147
sI7
(lp2148
ssI6
(dp2149
I0
g1975
sI1
g1990
sI2
g2113
sI3
g2131
sI4
g2143
sI5
g2147
sI6
(lp2150
sI7
(lp2151
ssI7
(dp2152
I0
g1976
sI1
g2086
sI2
g2122
sI3
g2138
sI4
g2144
sI5
g2148
sI6
g2151
sI7
(lp2153
ssa(dp2154
I0
(dp2155
I0
(lp2156
sI1
(lp2157
Vhttp://dbpedia.org/property/rd2t1Loc
p2158
aVhttp://www.w3.org/2000/01/rdf-schema#comment
p2159
aVhttp://dbpedia.org/ontology/abstract
p2160
aVhttp://dbpedia.org/property/venue
p2161
aVhttp://dbpedia.org/property/location
p2162
aVhttp://dbpedia.org/property/rd1t2Loc
p2163
aVhttp://dbpedia.org/property/withdraws
p2164
asI2
(lp2165
Vhttp://www.w3.org/1999/02/22-rdf-syntax-ns#type
p2166
asI3
(lp2167
sI4
(lp2168
sI5
(lp2169
sI6
(lp2170
sI7
(lp2171
ssI1
(dp2172
I0
g2157
sI1
(lp2173
sI2
(lp2174
Vhttp://dbpedia.org/property/nationality
p2175
aVhttp://dbpedia.org/ontology/abstract
p2176
aVhttp://dbpedia.org/ontology/nationality
p2177
aVhttp://dbpedia.org/property/birthPlace
p2178
aVhttp://dbpedia.org/property/placeOfBirth
p2179
aVhttp://dbpedia.org/ontology/spokenIn
p2180
aVhttp://dbpedia.org/ontology/stateOfOrigin
p2181
aVhttp://dbpedia.org/ontology/birthPlace
p2182
asI3
(lp2183
sI4
(lp2184
sI5
(lp2185
sI6
(lp2186
Vhttp://www.w3.org/2000/01/rdf-schema#seeAlso
p2187
aVhttp://dbpedia.org/property/placeOfDeath
p2188
aVhttp://dbpedia.org/property/restingPlace
p2189
aVhttp://dbpedia.org/property/place
p2190
aVhttp://dbpedia.org/property/residence
p2191
aVhttp://www.w3.org/ns/prov#wasDerivedFrom
p2192
aVhttp://dbpedia.org/property/rd2t3Loc
p2193
aVhttp://dbpedia.org/property/rd1t7Loc
p2194
aVhttp://dbpedia.org/ontology/country
p2195
aVhttp://dbpedia.org/property/returns
p2196
aVhttp://www.w3.org/1999/02/22-rdf-syntax-ns#type
p2197
aVhttp://dbpedia.org/property/assembly
p2198
aVhttp://dbpedia.org/property/withdraws
p2199
aVhttp://dbpedia.org/property/birthPlace
p2200
aVhttp://dbpedia.org/ontology/place
p2201
aVhttp://dbpedia.org/property/placeOfBirth
p2202
aVhttp://dbpedia.org/ontology/wikiPageExternalLink
p2203
aVhttp://dbpedia.org/ontology/abstract
p2204
aVhttp://dbpedia.org/property/venue
p2205
aVhttp://dbpedia.org/property/deathPlace
p2206
aVhttp://dbpedia.org/property/location
p2207
aVhttp://dbpedia.org/ontology/sportCountry
p2208
aVhttp://dbpedia.org/ontology/deathPlace
p2209
aVhttp://dbpedia.org/ontology/assembly
p2210
aVhttp://www.w3.org/2000/01/rdf-schema#comment
p2211
aVhttp://dbpedia.org/ontology/birthPlace
p2212
aVhttp://dbpedia.org/property/rd0t4Loc
p2213
aVhttp://dbpedia.org/ontology/restingPlace
p2214
aVhttp://www.w3.org/2002/07/owl#sameAs
p2215
aVhttp://dbpedia.org/property/stadium
p2216
asI7
(lp2217
Vhttp://www.w3.org/2000/01/rdf-schema#seeAlso
p2218
aVhttp://dbpedia.org/property/rd0t1Loc
p2219
aVhttp://dbpedia.org/property/place
p2220
aVhttp://dbpedia.org/ontology/abstract
p2221
aVhttp://dbpedia.org/property/imageCaption
p2222
aVhttp://dbpedia.org/property/venue
p2223
aVhttp://dbpedia.org/property/location
p2224
aVhttp://dbpedia.org/property/rd1t2Loc
p2225
aVhttp://dbpedia.org/property/withdraws
p2226
aVhttp://dbpedia.org/ontology/builder
p2227
aVhttp://dbpedia.org/ontology/place
p2228
aVhttp://dbpedia.org/property/host
p2229
aVhttp://www.w3.org/2002/07/owl#sameAs
p2230
assI2
(dp2231
I0
g2165
sI1
g2174
sI2
(lp2232
sI3
(lp2233
sI4
(lp2234
sI5
(lp2235
sI6
(lp2236
Vhttp://www.w3.org/1999/02/22-rdf-syntax-ns#type
p2237
aVhttp://www.w3.org/2000/01/rdf-schema#comment
p2238
aVhttp://dbpedia.org/ontology/postalCode
p2239
aVhttp://dbpedia.org/ontology/abstract
p2240
aVhttp://dbpedia.org/ontology/PopulatedPlace/areaTotal
p2241
aVhttp://dbpedia.org/ontology/PopulatedPlace/populationDensity
p2242
aVhttp://www.w3.org/2002/07/owl#sameAs
p2243
asI7
(lp2244
Vhttp://dbpedia.org/ontology/postalCode
p2245
assI3
(dp2246
I0
g2167
sI1
g2183
sI2
g2233
sI3
(lp2247
sI4
(lp2248
Vhttp://dbpedia.org/ontology/abstract
p2249
aVhttp://www.w3.org/2000/01/rdf-schema#comment
p2250
asI5
(lp2251
sI6
(lp2252
Vhttp://www.w3.org/1999/02/22-rdf-syntax-ns#type
p2253
aVhttp://purl.org/dc/terms/subject
p2254
aVhttp://dbpedia.org/property/entrant
p2255
aVhttp://www.w3.org/2000/01/rdf-schema#comment
p2256
aVhttp://dbpedia.org/ontology/abstract
p2257
aVhttp://purl.org/voc/vrank#hasRank
p2258
aVhttp://www.w3.org/ns/prov#wasDerivedFrom
p2259
aVhttp://www.w3.org/2002/07/owl#sameAs
p2260
asI7
(lp2261
Vhttp://www.w3.org/1999/02/22-rdf-syntax-ns#type
p2262
assI4
(dp2263
I0
g2168
sI1
g2184
sI2
g2234
sI3
g2248
sI4
(lp2264
sI5
(lp2265
sI6
(lp2266
sI7
(lp2267
ssI5
(dp2268
I0
g2169
sI1
g2185
sI2
g2235
sI3
g2251
sI4
g2265
sI5
(lp2269
sI6
(lp2270
sI7
(lp2271
ssI6
(dp2272
I0
g2170
sI1
g2186
sI2
g2236
sI3
g2252
sI4
g2266
sI5
g2270
sI6
(lp2273
sI7
(lp2274
ssI7
(dp2275
I0
g2171
sI1
g2217
sI2
g2244
sI3
g2261
sI4
g2267
sI5
g2271
sI6
g2274
sI7
(lp2276
ssa(dp2277
I0
(dp2278
I0
(lp2279
sI1
(lp2280
Vhttp://dbpedia.org/property/hostCity
p2281
aVhttp://dbpedia.org/property/place
p2282
aVhttp://dbpedia.org/property/worldPlace
p2283
aVhttp://dbpedia.org/ontology/poleDriverCountry
p2284
aVhttp://dbpedia.org/property/site
p2285
aVhttp://dbpedia.org/ontology/country
p2286
aVhttp://dbpedia.org/property/home
p2287
aVhttp://dbpedia.org/property/referee
p2288
aVhttp://dbpedia.org/property/assembly
p2289
aVhttp://dbpedia.org/ontology/ground
p2290
aVhttp://dbpedia.org/property/birthPlace
p2291
aVhttp://dbpedia.org/ontology/place
p2292
aVhttp://dbpedia.org/property/placeOfBirth
p2293
aVhttp://dbpedia.org/property/asianPlaceF
p2294
aVhttp://dbpedia.org/property/country
p2295
aVhttp://dbpedia.org/property/shipCountry
p2296
aVhttp://dbpedia.org/property/l
p2297
aVhttp://dbpedia.org/property/asianPlaceQ
p2298
aVhttp://dbpedia.org/property/primaryUser
p2299
aVhttp://dbpedia.org/property/venue
p2300
aVhttp://dbpedia.org/ontology/abstract
p2301
aVhttp://dbpedia.org/ontology/firstDriverCountry
p2302
aVhttp://dbpedia.org/property/location
p2303
aVhttp://dbpedia.org/property/worldPlaceQ
p2304
aVhttp://dbpedia.org/ontology/builder
p2305
aVhttp://dbpedia.org/ontology/homeStadium
p2306
aVhttp://dbpedia.org/ontology/city
p2307
aVhttp://dbpedia.org/property/worldPlaceF
p2308
aVhttp://dbpedia.org/property/nationalOrigin
p2309
aVhttp://dbpedia.org/property/rd1t3Loc
p2310
aVhttp://dbpedia.org/ontology/assembly
p2311
aVhttp://dbpedia.org/ontology/location
p2312
aVhttp://www.w3.org/2000/01/rdf-schema#comment
p2313
aVhttp://dbpedia.org/ontology/birthPlace
p2314
aVhttp://dbpedia.org/property/countries
p2315
aVhttp://dbpedia.org/property/shipBuilder
p2316
aVhttp://dbpedia.org/property/asianPlace
p2317
aVhttp://dbpedia.org/property/stadium
p2318
aVhttp://dbpedia.org/ontology/deathPlace
p2319
asI2
(lp2320
Vhttp://dbpedia.org/property/hostCity
p2321
aVhttp://dbpedia.org/property/place
p2322
aVhttp://dbpedia.org/property/worldPlace
p2323
aVhttp://dbpedia.org/ontology/poleDriverCountry
p2324
aVhttp://dbpedia.org/property/site
p2325
aVhttp://dbpedia.org/ontology/country
p2326
aVhttp://dbpedia.org/property/home
p2327
aVhttp://dbpedia.org/property/referee
p2328
aVhttp://dbpedia.org/property/assembly
p2329
aVhttp://dbpedia.org/ontology/ground
p2330
aVhttp://dbpedia.org/property/birthPlace
p2331
aVhttp://dbpedia.org/ontology/place
p2332
aVhttp://dbpedia.org/property/placeOfBirth
p2333
aVhttp://dbpedia.org/property/asianPlaceF
p2334
aVhttp://dbpedia.org/property/country
p2335
aVhttp://dbpedia.org/property/shipCountry
p2336
aVhttp://dbpedia.org/property/l
p2337
aVhttp://dbpedia.org/property/asianPlaceQ
p2338
aVhttp://dbpedia.org/property/primaryUser
p2339
aVhttp://dbpedia.org/property/venue
p2340
aVhttp://dbpedia.org/ontology/abstract
p2341
aVhttp://dbpedia.org/ontology/firstDriverCountry
p2342
aVhttp://dbpedia.org/property/location
p2343
aVhttp://dbpedia.org/property/worldPlaceQ
p2344
aVhttp://dbpedia.org/ontology/builder
p2345
aVhttp://dbpedia.org/ontology/homeStadium
p2346
aVhttp://dbpedia.org/ontology/city
p2347
aVhttp://dbpedia.org/property/worldPlaceF
p2348
aVhttp://dbpedia.org/property/nationalOrigin
p2349
aVhttp://dbpedia.org/property/rd1t3Loc
p2350
aVhttp://dbpedia.org/ontology/assembly
p2351
aVhttp://dbpedia.org/ontology/location
p2352
aVhttp://www.w3.org/2000/01/rdf-schema#comment
p2353
aVhttp://dbpedia.org/ontology/birthPlace
p2354
aVhttp://dbpedia.org/property/countries
p2355
aVhttp://dbpedia.org/property/shipBuilder
p2356
aVhttp://dbpedia.org/property/asianPlace
p2357
aVhttp://dbpedia.org/property/stadium
p2358
aVhttp://dbpedia.org/ontology/deathPlace
p2359
asI3
(lp2360
sI4
(lp2361
sI5
(lp2362
sI6
(lp2363
sI7
(lp2364
ssI1
(dp2365
I0
g2280
sI1
(lp2366
sI2
(lp2367
Vhttp://dbpedia.org/property/origin
p2368
aVhttp://dbpedia.org/property/placeOfDeath
p2369
aVhttp://dbpedia.org/property/broadcastArea
p2370
aVhttp://dbpedia.org/property/sovereigntyType
p2371
aVhttp://www.w3.org/ns/prov#wasDerivedFrom
p2372
aVhttp://dbpedia.org/ontology/fastestDriverCountry
p2373
aVhttp://dbpedia.org/ontology/demonym
p2374
aVhttp://dbpedia.org/ontology/regionServed
p2375
aVhttp://dbpedia.org/ontology/nationality
p2376
aVhttp://xmlns.com/foaf/0.1/isPrimaryTopicOf
p2377
aVhttp://dbpedia.org/property/byCountry
p2378
aVhttp://dbpedia.org/property/establishedEvent
p2379
aVhttp://dbpedia.org/property/nationality
p2380
aVhttp://dbpedia.org/ontology/abstract
p2381
aVhttp://dbpedia.org/ontology/recordedIn
p2382
aVhttp://dbpedia.org/ontology/architecturalStyle
p2383
aVhttp://dbpedia.org/ontology/location
p2384
aVhttp://dbpedia.org/property/imageMap
p2385
aVhttp://dbpedia.org/property/officialLanguages
p2386
aVhttp://dbpedia.org/property/area
p2387
aVhttp://dbpedia.org/ontology/hometown
p2388
aVhttp://dbpedia.org/ontology/spokenIn
p2389
aVhttp://dbpedia.org/property/leaderTitle
p2390
aVhttp://www.w3.org/2000/01/rdf-schema#seeAlso
p2391
aVhttp://dbpedia.org/ontology/wikiPageExternalLink
p2392
aVhttp://dbpedia.org/property/hostCity
p2393
aVhttp://dbpedia.org/property/conventionalLongName
p2394
aVhttp://dbpedia.org/ontology/foundationPlace
p2395
aVhttp://dbpedia.org/ontology/poleDriverCountry
p2396
aVhttp://dbpedia.org/ontology/locatedInArea
p2397
aVhttp://dbpedia.org/ontology/officialLanguage
p2398
aVhttp://dbpedia.org/ontology/country
p2399
aVhttp://dbpedia.org/property/birthPlace
p2400
aVhttp://dbpedia.org/property/country/region
p2401
aVhttp://dbpedia.org/property/country
p2402
aVhttp://dbpedia.org/ontology/county
p2403
aVhttp://xmlns.com/foaf/0.1/primaryTopic
p2404
aVhttp://dbpedia.org/ontology/campus
p2405
aVhttp://dbpedia.org/ontology/firstDriverCountry
p2406
aVhttp://dbpedia.org/property/states
p2407
aVhttp://dbpedia.org/ontology/locationCountry
p2408
aVhttp://dbpedia.org/ontology/deathPlace
p2409
aVhttp://dbpedia.org/property/hasPhotoCollection
p2410
aVhttp://dbpedia.org/property/locationSigned
p2411
aVhttp://dbpedia.org/property/headquarters
p2412
aVhttp://dbpedia.org/ontology/birthPlace
p2413
aVhttp://dbpedia.org/ontology/wikiPageRedirects
p2414
aVhttp://dbpedia.org/property/citizenship
p2415
aVhttp://dbpedia.org/property/imageCoat
p2416
aVhttp://dbpedia.org/ontology/stateOfOrigin
p2417
aVhttp://www.w3.org/2002/07/owl#sameAs
p2418
aVhttp://dbpedia.org/property/recorded
p2419
aVhttp://dbpedia.org/ontology/longName
p2420
aVhttp://www.w3.org/1999/02/22-rdf-syntax-ns#type
p2421
aVhttp://dbpedia.org/property/locationCountry
p2422
aVhttp://dbpedia.org/ontology/secondDriverCountry
p2423
aVhttp://dbpedia.org/property/winnerOrigin
p2424
aVhttp://dbpedia.org/property/namedAfter
p2425
aVhttp://dbpedia.org/property/shipCountry
p2426
aVhttp://dbpedia.org/property/placeOfBirth
p2427
aVhttp://xmlns.com/foaf/0.1/depiction
p2428
aVhttp://dbpedia.org/property/observedby
p2429
aVhttp://dbpedia.org/ontology/flag
p2430
aVhttp://dbpedia.org/property/commonName
p2431
aVhttp://dbpedia.org/property/subdivisionName
p2432
aVhttp://dbpedia.org/property/locationCity
p2433
aVhttp://dbpedia.org/property/nat
p2434
aVhttp://dbpedia.org/ontology/broadcastArea
p2435
aVhttp://dbpedia.org/property/stadium
p2436
aVhttp://dbpedia.org/property/place
p2437
aVhttp://dbpedia.org/property/footnoteA
p2438
aVhttp://dbpedia.org/property/caption
p2439
aVhttp://dbpedia.org/ontology/thirdDriverCountry
p2440
aVhttp://www.w3.org/2002/07/owl#differentFrom
p2441
aVhttp://dbpedia.org/property/upperHouse
p2442
aVhttp://dbpedia.org/property/locations
p2443
aVhttp://dbpedia.org/ontology/place
p2444
aVhttp://dbpedia.org/property/language
p2445
aVhttp://dbpedia.org/property/imageFlag
p2446
aVhttp://dbpedia.org/ontology/wikiPageDisambiguates
p2447
aVhttp://purl.org/dc/terms/subject
p2448
aVhttp://dbpedia.org/ontology/populationPlace
p2449
aVhttp://dbpedia.org/property/location
p2450
aVhttp://dbpedia.org/property/armiger
p2451
aVhttp://dbpedia.org/ontology/headquarter
p2452
aVhttp://dbpedia.org/property/foundation
p2453
aVhttp://www.w3.org/2000/01/rdf-schema#label
p2454
aVhttp://dbpedia.org/ontology/language
p2455
aVhttp://dbpedia.org/property/title
p2456
aVhttp://dbpedia.org/property/basinCountries
p2457
aVhttp://www.w3.org/2000/01/rdf-schema#comment
p2458
aVhttp://dbpedia.org/property/seat
p2459
aVhttp://dbpedia.org/property/demonym
p2460
aVhttp://dbpedia.org/property/regionServed
p2461
aVhttp://xmlns.com/foaf/0.1/name
p2462
aVhttp://dbpedia.org/ontology/locationCity
p2463
aVhttp://dbpedia.org/property/buried
p2464
aVhttp://dbpedia.org/ontology/thumbnail
p2465
asI3
(lp2466
sI4
(lp2467
sI5
(lp2468
sI6
(lp2469
Vhttp://dbpedia.org/property/hostCity
p2470
aVhttp://dbpedia.org/property/place
p2471
aVhttp://dbpedia.org/property/worldPlace
p2472
aVhttp://dbpedia.org/ontology/poleDriverCountry
p2473
aVhttp://dbpedia.org/property/site
p2474
aVhttp://dbpedia.org/ontology/country
p2475
aVhttp://dbpedia.org/property/home
p2476
aVhttp://dbpedia.org/property/referee
p2477
aVhttp://dbpedia.org/property/assembly
p2478
aVhttp://dbpedia.org/ontology/ground
p2479
aVhttp://dbpedia.org/property/birthPlace
p2480
aVhttp://dbpedia.org/ontology/place
p2481
aVhttp://dbpedia.org/property/placeOfBirth
p2482
aVhttp://dbpedia.org/property/asianPlaceF
p2483
aVhttp://dbpedia.org/property/country
p2484
aVhttp://dbpedia.org/property/shipCountry
p2485
aVhttp://dbpedia.org/property/l
p2486
aVhttp://dbpedia.org/property/asianPlaceQ
p2487
aVhttp://dbpedia.org/property/primaryUser
p2488
aVhttp://dbpedia.org/property/venue
p2489
aVhttp://dbpedia.org/ontology/abstract
p2490
aVhttp://dbpedia.org/ontology/firstDriverCountry
p2491
aVhttp://dbpedia.org/property/location
p2492
aVhttp://dbpedia.org/property/worldPlaceQ
p2493
aVhttp://dbpedia.org/ontology/builder
p2494
aVhttp://dbpedia.org/ontology/homeStadium
p2495
aVhttp://dbpedia.org/ontology/city
p2496
aVhttp://dbpedia.org/property/worldPlaceF
p2497
aVhttp://dbpedia.org/property/nationalOrigin
p2498
aVhttp://dbpedia.org/property/rd1t3Loc
p2499
aVhttp://dbpedia.org/ontology/assembly
p2500
aVhttp://dbpedia.org/ontology/location
p2501
aVhttp://www.w3.org/2000/01/rdf-schema#comment
p2502
aVhttp://dbpedia.org/ontology/birthPlace
p2503
aVhttp://dbpedia.org/property/countries
p2504
aVhttp://dbpedia.org/property/shipBuilder
p2505
aVhttp://dbpedia.org/property/asianPlace
p2506
aVhttp://dbpedia.org/property/stadium
p2507
aVhttp://dbpedia.org/ontology/deathPlace
p2508
asI7
(lp2509
Vhttp://dbpedia.org/property/origin
p2510
aVhttp://dbpedia.org/property/placeOfDeath
p2511
aVhttp://dbpedia.org/property/locations
p2512
aVhttp://dbpedia.org/ontology/PopulatedPlace/areaTotal
p2513
aVhttp://dbpedia.org/ontology/garrison
p2514
aVhttp://dbpedia.org/property/ethnicity
p2515
aVhttp://www.w3.org/ns/prov#wasDerivedFrom
p2516
aVhttp://dbpedia.org/ontology/fastestDriverCountry
p2517
aVhttp://dbpedia.org/ontology/routeEnd
p2518
aVhttp://dbpedia.org/property/dateOfBirth
p2519
aVhttp://dbpedia.org/property/firstRun
p2520
aVhttp://dbpedia.org/property/lage
p2521
aVhttp://dbpedia.org/property/assembly
p2522
aVhttp://dbpedia.org/property/image
p2523
aVhttp://dbpedia.org/property/shortDescription
p2524
aVhttp://dbpedia.org/property/placeOfBirth
p2525
aVhttp://dbpedia.org/property/hometown
p2526
aVhttp://dbpedia.org/property/nationality
p2527
aVhttp://dbpedia.org/ontology/abstract
p2528
aVhttp://dbpedia.org/ontology/recordedIn
p2529
aVhttp://dbpedia.org/property/leaderName
p2530
aVhttp://dbpedia.org/property/gdpPpp
p2531
aVhttp://dbpedia.org/property/usedBy
p2532
aVhttp://dbpedia.org/property/nationalOrigin
p2533
aVhttp://www.georss.org/georss/point
p2534
aVhttp://dbpedia.org/property/shipBuilder
p2535
aVhttp://dbpedia.org/ontology/location
p2536
aVhttp://dbpedia.org/property/city
p2537
aVhttp://dbpedia.org/property/countries
p2538
aVhttp://dbpedia.org/property/factory
p2539
aVhttp://dbpedia.org/ontology/hometown
p2540
aVhttp://dbpedia.org/ontology/restingPlace
p2541
aVhttp://dbpedia.org/property/leaderTitle
p2542
aVhttp://dbpedia.org/property/rd4t1Loc
p2543
aVhttp://dbpedia.org/property/rd2t6Loc
p2544
aVhttp://dbpedia.org/property/hostCity
p2545
aVhttp://dbpedia.org/property/deathDate
p2546
aVhttp://dbpedia.org/ontology/foundationPlace
p2547
aVhttp://dbpedia.org/property/patronage
p2548
aVhttp://dbpedia.org/property/birthplace
p2549
aVhttp://dbpedia.org/ontology/poleDriverCountry
p2550
aVhttp://dbpedia.org/property/placeOfBurial
p2551
aVhttp://dbpedia.org/ontology/country
p2552
aVhttp://dbpedia.org/property/region
p2553
aVhttp://dbpedia.org/property/home
p2554
aVhttp://dbpedia.org/property/discoverySite
p2555
aVhttp://dbpedia.org/property/birthPlace
p2556
aVhttp://dbpedia.org/property/stateParty
p2557
aVhttp://dbpedia.org/property/country
p2558
aVhttp://dbpedia.org/property/areaServed
p2559
aVhttp://dbpedia.org/property/areaRank
p2560
aVhttp://dbpedia.org/ontology/firstDriverCountry
p2561
aVhttp://dbpedia.org/property/worldPlaceQ
p2562
aVhttp://dbpedia.org/property/states
p2563
aVhttp://dbpedia.org/ontology/locationCountry
p2564
aVhttp://dbpedia.org/ontology/homeStadium
p2565
aVhttp://dbpedia.org/property/rd2t4Loc
p2566
aVhttp://dbpedia.org/property/hasPhotoCollection
p2567
aVhttp://dbpedia.org/property/cityServed
p2568
aVhttp://dbpedia.org/property/headquarters
p2569
aVhttp://dbpedia.org/property/dateOfDeath
p2570
aVhttp://dbpedia.org/ontology/birthPlace
p2571
aVhttp://dbpedia.org/ontology/wikiPageRedirects
p2572
aVhttp://purl.org/voc/vrank#hasRank
p2573
aVhttp://dbpedia.org/property/citizenship
p2574
aVhttp://dbpedia.org/property/staat
p2575
aVhttp://dbpedia.org/property/deathPlace
p2576
aVhttp://dbpedia.org/property/garrison
p2577
aVhttp://www.w3.org/2002/07/owl#sameAs
p2578
aVhttp://dbpedia.org/ontology/deathPlace
p2579
aVhttp://dbpedia.org/property/twin1Country
p2580
aVhttp://dbpedia.org/property/recorded
p2581
aVhttp://dbpedia.org/ontology/origin
p2582
aVhttp://dbpedia.org/property/worldPlace
p2583
aVhttp://dbpedia.org/property/residence
p2584
aVhttp://dbpedia.org/property/moreUsers
p2585
aVhttp://www.w3.org/1999/02/22-rdf-syntax-ns#type
p2586
aVhttp://dbpedia.org/property/rd3t3Loc
p2587
aVhttp://dbpedia.org/property/locationCountry
p2588
aVhttp://dbpedia.org/ontology/secondDriverCountry
p2589
aVhttp://dbpedia.org/ontology/ground
p2590
aVhttp://dbpedia.org/property/withdraws
p2591
aVhttp://dbpedia.org/property/c
p2592
aVhttp://dbpedia.org/ontology/sourceCountry
p2593
aVhttp://dbpedia.org/property/locationSigned
p2594
aVhttp://dbpedia.org/property/shipCountry
p2595
aVhttp://dbpedia.org/property/gdpNominal
p2596
aVhttp://dbpedia.org/property/winnerOrigin
p2597
aVhttp://dbpedia.org/property/endowment
p2598
aVhttp://dbpedia.org/ontology/thumbnail
p2599
aVhttp://dbpedia.org/property/homeTown
p2600
aVhttp://dbpedia.org/ontology/routeStart
p2601
aVhttp://dbpedia.org/property/subdivisionName
p2602
aVhttp://dbpedia.org/property/rd1t3Loc
p2603
aVhttp://dbpedia.org/property/referee
p2604
aVhttp://dbpedia.org/property/locationCity
p2605
aVhttp://dbpedia.org/property/basedIn
p2606
aVhttp://dbpedia.org/property/rd5t1Loc
p2607
aVhttp://dbpedia.org/property/rd4t2Loc
p2608
aVhttp://dbpedia.org/property/almaMater
p2609
aVhttp://dbpedia.org/property/place
p2610
aVhttp://dbpedia.org/property/debuts
p2611
aVhttp://dbpedia.org/ontology/thirdDriverCountry
p2612
aVhttp://dbpedia.org/ontology/PopulatedPlace/populationDensity
p2613
aVhttp://dbpedia.org/property/team
p2614
aVhttp://dbpedia.org/property/asianPlaceQ
p2615
aVhttp://dbpedia.org/property/allegiance
p2616
aVhttp://dbpedia.org/property/combatant
p2617
aVhttp://dbpedia.org/ontology/place
p2618
aVhttp://dbpedia.org/property/asianPlaceF
p2619
aVhttp://dbpedia.org/property/lagePolitisch
p2620
aVhttp://dbpedia.org/property/venue
p2621
aVhttp://dbpedia.org/property/state
p2622
aVhttp://dbpedia.org/property/location
p2623
aVhttp://dbpedia.org/property/regions
p2624
aVhttp://dbpedia.org/property/rd3t2Loc
p2625
aVhttp://dbpedia.org/property/stadium
p2626
aVhttp://dbpedia.org/property/worldPlaceF
p2627
aVhttp://dbpedia.org/ontology/language
p2628
aVhttp://dbpedia.org/property/locale
p2629
aVhttp://dbpedia.org/property/basinCountries
p2630
aVhttp://dbpedia.org/property/asianPlace
p2631
aVhttp://dbpedia.org/ontology/assembly
p2632
aVhttp://dbpedia.org/property/rd2t1Loc
p2633
aVhttp://www.w3.org/2000/01/rdf-schema#comment
p2634
aVhttp://dbpedia.org/property/olympicPlace
p2635
aVhttp://dbpedia.org/property/seat
p2636
aVhttp://dbpedia.org/property/regionServed
p2637
aVhttp://dbpedia.org/ontology/builder
p2638
assI2
(dp2639
I0
g2320
sI1
g2367
sI2
(lp2640
sI3
(lp2641
sI4
(lp2642
sI5
(lp2643
sI6
(lp2644
Vhttp://dbpedia.org/property/hostCity
p2645
aVhttp://dbpedia.org/property/place
p2646
aVhttp://dbpedia.org/property/worldPlace
p2647
aVhttp://dbpedia.org/ontology/poleDriverCountry
p2648
aVhttp://dbpedia.org/property/site
p2649
aVhttp://dbpedia.org/ontology/country
p2650
aVhttp://dbpedia.org/property/home
p2651
aVhttp://dbpedia.org/property/referee
p2652
aVhttp://dbpedia.org/property/assembly
p2653
aVhttp://dbpedia.org/ontology/ground
p2654
aVhttp://dbpedia.org/property/birthPlace
p2655
aVhttp://dbpedia.org/ontology/place
p2656
aVhttp://dbpedia.org/property/placeOfBirth
p2657
aVhttp://dbpedia.org/property/asianPlaceF
p2658
aVhttp://dbpedia.org/property/country
p2659
aVhttp://dbpedia.org/property/shipCountry
p2660
aVhttp://dbpedia.org/property/l
p2661
aVhttp://dbpedia.org/property/asianPlaceQ
p2662
aVhttp://dbpedia.org/property/primaryUser
p2663
aVhttp://dbpedia.org/property/venue
p2664
aVhttp://dbpedia.org/ontology/abstract
p2665
aVhttp://dbpedia.org/ontology/firstDriverCountry
p2666
aVhttp://dbpedia.org/property/location
p2667
aVhttp://dbpedia.org/property/worldPlaceQ
p2668
aVhttp://dbpedia.org/ontology/builder
p2669
aVhttp://dbpedia.org/ontology/homeStadium
p2670
aVhttp://dbpedia.org/ontology/city
p2671
aVhttp://dbpedia.org/property/worldPlaceF
p2672
aVhttp://dbpedia.org/property/nationalOrigin
p2673
aVhttp://dbpedia.org/property/rd1t3Loc
p2674
aVhttp://dbpedia.org/ontology/assembly
p2675
aVhttp://dbpedia.org/ontology/location
p2676
aVhttp://www.w3.org/2000/01/rdf-schema#comment
p2677
aVhttp://dbpedia.org/ontology/birthPlace
p2678
aVhttp://dbpedia.org/property/countries
p2679
aVhttp://dbpedia.org/property/shipBuilder
p2680
aVhttp://dbpedia.org/property/asianPlace
p2681
aVhttp://dbpedia.org/property/stadium
p2682
aVhttp://dbpedia.org/ontology/deathPlace
p2683
asI7
(lp2684
Vhttp://dbpedia.org/property/origin
p2685
aVhttp://dbpedia.org/property/placeOfDeath
p2686
aVhttp://dbpedia.org/property/locations
p2687
aVhttp://dbpedia.org/ontology/PopulatedPlace/areaTotal
p2688
aVhttp://dbpedia.org/ontology/garrison
p2689
aVhttp://dbpedia.org/property/ethnicity
p2690
aVhttp://www.w3.org/ns/prov#wasDerivedFrom
p2691
aVhttp://dbpedia.org/ontology/fastestDriverCountry
p2692
aVhttp://dbpedia.org/ontology/routeEnd
p2693
aVhttp://dbpedia.org/property/dateOfBirth
p2694
aVhttp://dbpedia.org/property/firstRun
p2695
aVhttp://dbpedia.org/property/lage
p2696
aVhttp://dbpedia.org/property/assembly
p2697
aVhttp://dbpedia.org/property/image
p2698
aVhttp://dbpedia.org/property/shortDescription
p2699
aVhttp://dbpedia.org/property/placeOfBirth
p2700
aVhttp://dbpedia.org/property/hometown
p2701
aVhttp://dbpedia.org/property/nationality
p2702
aVhttp://dbpedia.org/ontology/abstract
p2703
aVhttp://dbpedia.org/ontology/recordedIn
p2704
aVhttp://dbpedia.org/property/leaderName
p2705
aVhttp://dbpedia.org/property/gdpPpp
p2706
aVhttp://dbpedia.org/property/usedBy
p2707
aVhttp://dbpedia.org/property/nationalOrigin
p2708
aVhttp://www.georss.org/georss/point
p2709
aVhttp://dbpedia.org/property/shipBuilder
p2710
aVhttp://dbpedia.org/ontology/location
p2711
aVhttp://dbpedia.org/property/city
p2712
aVhttp://dbpedia.org/property/countries
p2713
aVhttp://dbpedia.org/property/factory
p2714
aVhttp://dbpedia.org/ontology/hometown
p2715
aVhttp://dbpedia.org/ontology/restingPlace
p2716
aVhttp://dbpedia.org/property/leaderTitle
p2717
aVhttp://dbpedia.org/property/rd4t1Loc
p2718
aVhttp://dbpedia.org/property/rd2t6Loc
p2719
aVhttp://dbpedia.org/property/hostCity
p2720
aVhttp://dbpedia.org/property/deathDate
p2721
aVhttp://dbpedia.org/ontology/foundationPlace
p2722
aVhttp://dbpedia.org/property/patronage
p2723
aVhttp://dbpedia.org/property/birthplace
p2724
aVhttp://dbpedia.org/ontology/poleDriverCountry
p2725
aVhttp://dbpedia.org/property/placeOfBurial
p2726
aVhttp://dbpedia.org/ontology/country
p2727
aVhttp://dbpedia.org/property/region
p2728
aVhttp://dbpedia.org/property/home
p2729
aVhttp://dbpedia.org/property/discoverySite
p2730
aVhttp://dbpedia.org/property/birthPlace
p2731
aVhttp://dbpedia.org/property/stateParty
p2732
aVhttp://dbpedia.org/property/country
p2733
aVhttp://dbpedia.org/property/areaServed
p2734
aVhttp://dbpedia.org/property/areaRank
p2735
aVhttp://dbpedia.org/ontology/firstDriverCountry
p2736
aVhttp://dbpedia.org/property/worldPlaceQ
p2737
aVhttp://dbpedia.org/property/states
p2738
aVhttp://dbpedia.org/ontology/locationCountry
p2739
aVhttp://dbpedia.org/ontology/homeStadium
p2740
aVhttp://dbpedia.org/property/rd2t4Loc
p2741
aVhttp://dbpedia.org/property/hasPhotoCollection
p2742
aVhttp://dbpedia.org/property/cityServed
p2743
aVhttp://dbpedia.org/property/headquarters
p2744
aVhttp://dbpedia.org/property/dateOfDeath
p2745
aVhttp://dbpedia.org/ontology/birthPlace
p2746
aVhttp://dbpedia.org/ontology/wikiPageRedirects
p2747
aVhttp://purl.org/voc/vrank#hasRank
p2748
aVhttp://dbpedia.org/property/citizenship
p2749
aVhttp://dbpedia.org/property/staat
p2750
aVhttp://dbpedia.org/property/deathPlace
p2751
aVhttp://dbpedia.org/property/garrison
p2752
aVhttp://www.w3.org/2002/07/owl#sameAs
p2753
aVhttp://dbpedia.org/ontology/deathPlace
p2754
aVhttp://dbpedia.org/property/twin1Country
p2755
aVhttp://dbpedia.org/property/recorded
p2756
aVhttp://dbpedia.org/ontology/origin
p2757
aVhttp://dbpedia.org/property/worldPlace
p2758
aVhttp://dbpedia.org/property/residence
p2759
aVhttp://dbpedia.org/property/moreUsers
p2760
aVhttp://www.w3.org/1999/02/22-rdf-syntax-ns#type
p2761
aVhttp://dbpedia.org/property/rd3t3Loc
p2762
aVhttp://dbpedia.org/property/locationCountry
p2763
aVhttp://dbpedia.org/ontology/secondDriverCountry
p2764
aVhttp://dbpedia.org/ontology/ground
p2765
aVhttp://dbpedia.org/property/withdraws
p2766
aVhttp://dbpedia.org/property/c
p2767
aVhttp://dbpedia.org/ontology/sourceCountry
p2768
aVhttp://dbpedia.org/property/locationSigned
p2769
aVhttp://dbpedia.org/property/shipCountry
p2770
aVhttp://dbpedia.org/property/gdpNominal
p2771
aVhttp://dbpedia.org/property/winnerOrigin
p2772
aVhttp://dbpedia.org/property/endowment
p2773
aVhttp://dbpedia.org/ontology/thumbnail
p2774
aVhttp://dbpedia.org/property/homeTown
p2775
aVhttp://dbpedia.org/ontology/routeStart
p2776
aVhttp://dbpedia.org/property/subdivisionName
p2777
aVhttp://dbpedia.org/property/rd1t3Loc
p2778
aVhttp://dbpedia.org/property/referee
p2779
aVhttp://dbpedia.org/property/locationCity
p2780
aVhttp://dbpedia.org/property/basedIn
p2781
aVhttp://dbpedia.org/property/rd5t1Loc
p2782
aVhttp://dbpedia.org/property/rd4t2Loc
p2783
aVhttp://dbpedia.org/property/almaMater
p2784
aVhttp://dbpedia.org/property/place
p2785
aVhttp://dbpedia.org/property/debuts
p2786
aVhttp://dbpedia.org/ontology/thirdDriverCountry
p2787
aVhttp://dbpedia.org/ontology/PopulatedPlace/populationDensity
p2788
aVhttp://dbpedia.org/property/team
p2789
aVhttp://dbpedia.org/property/asianPlaceQ
p2790
aVhttp://dbpedia.org/property/allegiance
p2791
aVhttp://dbpedia.org/property/combatant
p2792
aVhttp://dbpedia.org/ontology/place
p2793
aVhttp://dbpedia.org/property/asianPlaceF
p2794
aVhttp://dbpedia.org/property/lagePolitisch
p2795
aVhttp://dbpedia.org/property/venue
p2796
aVhttp://dbpedia.org/property/state
p2797
aVhttp://dbpedia.org/property/location
p2798
aVhttp://dbpedia.org/property/regions
p2799
aVhttp://dbpedia.org/property/rd3t2Loc
p2800
aVhttp://dbpedia.org/property/stadium
p2801
aVhttp://dbpedia.org/property/worldPlaceF
p2802
aVhttp://dbpedia.org/ontology/language
p2803
aVhttp://dbpedia.org/property/locale
p2804
aVhttp://dbpedia.org/property/basinCountries
p2805
aVhttp://dbpedia.org/property/asianPlace
p2806
aVhttp://dbpedia.org/ontology/assembly
p2807
aVhttp://dbpedia.org/property/rd2t1Loc
p2808
aVhttp://www.w3.org/2000/01/rdf-schema#comment
p2809
aVhttp://dbpedia.org/property/olympicPlace
p2810
aVhttp://dbpedia.org/property/seat
p2811
aVhttp://dbpedia.org/property/regionServed
p2812
aVhttp://dbpedia.org/ontology/builder
p2813
assI3
(dp2814
I0
g2360
sI1
g2466
sI2
g2641
sI3
(lp2815
sI4
(lp2816
sI5
(lp2817
sI6
(lp2818
sI7
(lp2819
ssI4
(dp2820
I0
g2361
sI1
g2467
sI2
g2642
sI3
g2816
sI4
(lp2821
sI5
(lp2822
sI6
(lp2823
sI7
(lp2824
ssI5
(dp2825
I0
g2362
sI1
g2468
sI2
g2643
sI3
g2817
sI4
g2822
sI5
(lp2826
sI6
(lp2827
sI7
(lp2828
ssI6
(dp2829
I1
g2469
sI2
g2644
sI3
g2818
sI4
g2823
sI5
g2827
sI6
(lp2830
sI7
(lp2831
ssI7
(dp2832
I0
g2364
sI1
g2509
sI2
g2684
sI3
g2819
sI4
g2824
sI5
g2828
sI6
g2831
sI7
(lp2833
ssa(dp2834
I0
(dp2835
I0
(lp2836
sI1
(lp2837
Vhttp://dbpedia.org/property/locale
p2838
aVhttp://www.w3.org/2002/07/owl#sameAs
p2839
aVhttp://dbpedia.org/property/asianPlace
p2840
aVhttp://dbpedia.org/ontology/location
p2841
aVhttp://www.w3.org/2000/01/rdf-schema#comment
p2842
aVhttp://dbpedia.org/ontology/abstract
p2843
aVhttp://dbpedia.org/property/referee
p2844
aVhttp://dbpedia.org/property/location
p2845
aVhttp://dbpedia.org/property/worldPlace
p2846
aVhttp://purl.org/voc/vrank#hasRank
p2847
aVhttp://dbpedia.org/ontology/homeStadium
p2848
aVhttp://dbpedia.org/property/width
p2849
aVhttp://dbpedia.org/ontology/ground
p2850
aVhttp://dbpedia.org/property/stadium
p2851
asI2
(lp2852
Vhttp://dbpedia.org/property/origin
p2853
aVhttp://dbpedia.org/property/placeOfDeath
p2854
aVhttp://dbpedia.org/ontology/origin
p2855
aVhttp://dbpedia.org/property/place
p2856
aVhttp://dbpedia.org/ontology/country
p2857
aVhttp://dbpedia.org/property/home
p2858
aVhttp://dbpedia.org/property/referee
p2859
aVhttp://dbpedia.org/property/assembly
p2860
aVhttp://dbpedia.org/ontology/ground
p2861
aVhttp://dbpedia.org/property/birthPlace
p2862
aVhttp://dbpedia.org/ontology/place
p2863
aVhttp://dbpedia.org/property/placeOfBirth
p2864
aVhttp://dbpedia.org/property/country
p2865
aVhttp://dbpedia.org/ontology/abstract
p2866
aVhttp://dbpedia.org/property/venue
p2867
aVhttp://dbpedia.org/property/deathPlace
p2868
aVhttp://dbpedia.org/property/location
p2869
aVhttp://dbpedia.org/ontology/builder
p2870
aVhttp://dbpedia.org/ontology/homeStadium
p2871
aVhttp://dbpedia.org/ontology/assembly
p2872
aVhttp://dbpedia.org/property/usedBy
p2873
aVhttp://dbpedia.org/property/nationalOrigin
p2874
aVhttp://dbpedia.org/ontology/homeport
p2875
aVhttp://dbpedia.org/property/shipBuilder
p2876
aVhttp://dbpedia.org/ontology/birthPlace
p2877
aVhttp://dbpedia.org/property/rd1t1Loc
p2878
aVhttp://www.w3.org/2002/07/owl#sameAs
p2879
aVhttp://dbpedia.org/property/stadium
p2880
aVhttp://dbpedia.org/ontology/deathPlace
p2881
asI3
(lp2882
Vhttp://www.w3.org/1999/02/22-rdf-syntax-ns#type
p2883
aVhttp://www.w3.org/2002/07/owl#sameAs
p2884
asI4
(lp2885
sI5
(lp2886
sI6
(lp2887
sI7
(lp2888
ssI1
(dp2889
I0
g2837
sI1
(lp2890
sI2
(lp2891
Vhttp://dbpedia.org/property/languages
p2892
aVhttp://dbpedia.org/ontology/country
p2893
aVhttp://www.w3.org/1999/02/22-rdf-syntax-ns#type
p2894
aVhttp://purl.org/dc/terms/subject
p2895
aVhttp://www.w3.org/2000/01/rdf-schema#comment
p2896
aVhttp://dbpedia.org/ontology/language
p2897
aVhttp://dbpedia.org/ontology/abstract
p2898
aVhttp://dbpedia.org/property/broadcastArea
p2899
aVhttp://dbpedia.org/property/location
p2900
aVhttp://dbpedia.org/property/states
p2901
aVhttp://dbpedia.org/property/birthPlace
p2902
aVhttp://dbpedia.org/ontology/place
p2903
aVhttp://dbpedia.org/property/placeOfBirth
p2904
aVhttp://dbpedia.org/property/winnerOrigin
p2905
aVhttp://dbpedia.org/property/regionServed
p2906
aVhttp://dbpedia.org/ontology/spokenIn
p2907
aVhttp://dbpedia.org/ontology/birthPlace
p2908
aVhttp://dbpedia.org/ontology/routeEnd
p2909
aVhttp://dbpedia.org/ontology/regionServed
p2910
asI3
(lp2911
sI4
(lp2912
sI5
(lp2913
sI6
(lp2914
Vhttp://dbpedia.org/property/placeOfDeath
p2915
aVhttp://dbpedia.org/property/hostCity
p2916
aVhttp://dbpedia.org/property/debuts
p2917
aVhttp://dbpedia.org/property/city
p2918
aVhttp://dbpedia.org/property/referee
p2919
aVhttp://dbpedia.org/ontology/ground
p2920
aVhttp://dbpedia.org/property/l
p2921
aVhttp://dbpedia.org/property/establishedEvent
p2922
aVhttp://dbpedia.org/ontology/abstract
p2923
aVhttp://dbpedia.org/property/venue
p2924
aVhttp://dbpedia.org/property/deathPlace
p2925
aVhttp://dbpedia.org/property/location
p2926
aVhttp://dbpedia.org/property/rd3t2Loc
p2927
aVhttp://dbpedia.org/ontology/homeStadium
p2928
aVhttp://dbpedia.org/property/rd2t4Loc
p2929
aVhttp://dbpedia.org/property/worldPlace
p2930
aVhttp://dbpedia.org/property/locale
p2931
aVhttp://dbpedia.org/ontology/location
p2932
aVhttp://www.w3.org/2000/01/rdf-schema#comment
p2933
aVhttp://dbpedia.org/property/populationEstimateYear
p2934
aVhttp://dbpedia.org/property/asianPlace
p2935
aVhttp://dbpedia.org/property/stadium
p2936
aVhttp://dbpedia.org/ontology/deathPlace
p2937
asI7
(lp2938
Vhttp://dbpedia.org/property/origin
p2939
aVhttp://dbpedia.org/property/placeOfDeath
p2940
aVhttp://dbpedia.org/property/city
p2941
aVhttp://dbpedia.org/property/patronage
p2942
aVhttp://dbpedia.org/ontology/routeEnd
p2943
aVhttp://dbpedia.org/property/patronSaint
p2944
aVhttp://dbpedia.org/property/shortDescription
p2945
aVhttp://dbpedia.org/property/placeOfBirth
p2946
aVhttp://dbpedia.org/property/siteCityst
p2947
aVhttp://dbpedia.org/property/nationality
p2948
aVhttp://dbpedia.org/ontology/abstract
p2949
aVhttp://dbpedia.org/ontology/recordedIn
p2950
aVhttp://dbpedia.org/property/venue
p2951
aVhttp://dbpedia.org/property/usedBy
p2952
aVhttp://dbpedia.org/property/nationalOrigin
p2953
aVhttp://dbpedia.org/ontology/location
p2954
aVhttp://dbpedia.org/property/countriesAffected
p2955
aVhttp://dbpedia.org/property/countries
p2956
aVhttp://dbpedia.org/property/hostCity
p2957
aVhttp://dbpedia.org/ontology/routeStart
p2958
aVhttp://dbpedia.org/property/hdiRank
p2959
aVhttp://www.w3.org/ns/prov#wasDerivedFrom
p2960
aVhttp://dbpedia.org/property/birthplace
p2961
aVhttp://dbpedia.org/ontology/locatedInArea
p2962
aVhttp://dbpedia.org/property/rd2t3Loc
p2963
aVhttp://dbpedia.org/property/site
p2964
aVhttp://dbpedia.org/property/rd1t4Loc
p2965
aVhttp://dbpedia.org/ontology/country
p2966
aVhttp://dbpedia.org/property/returns
p2967
aVhttp://dbpedia.org/property/home
p2968
aVhttp://dbpedia.org/property/rd1t5Loc
p2969
aVhttp://dbpedia.org/property/birthPlace
p2970
aVhttp://dbpedia.org/property/rd1t7Loc
p2971
aVhttp://dbpedia.org/property/stateParty
p2972
aVhttp://dbpedia.org/property/country
p2973
aVhttp://dbpedia.org/property/end
p2974
aVhttp://dbpedia.org/property/location
p2975
aVhttp://dbpedia.org/property/states
p2976
aVhttp://dbpedia.org/ontology/deathPlace
p2977
aVhttp://dbpedia.org/property/rd2t4Loc
p2978
aVhttp://dbpedia.org/property/hasPhotoCollection
p2979
aVhttp://dbpedia.org/property/headquarters
p2980
aVhttp://dbpedia.org/property/placeOfResidence
p2981
aVhttp://dbpedia.org/ontology/birthPlace
p2982
aVhttp://dbpedia.org/ontology/wikiPageRedirects
p2983
aVhttp://purl.org/voc/vrank#hasRank
p2984
aVhttp://dbpedia.org/property/twin2Country
p2985
aVhttp://dbpedia.org/property/citizenship
p2986
aVhttp://dbpedia.org/property/deathPlace
p2987
aVhttp://dbpedia.org/property/asianPlace
p2988
aVhttp://www.w3.org/2002/07/owl#sameAs
p2989
aVhttp://dbpedia.org/ontology/homeStadium
p2990
aVhttp://dbpedia.org/property/recorded
p2991
aVhttp://dbpedia.org/ontology/origin
p2992
aVhttp://dbpedia.org/property/worldPlace
p2993
aVhttp://dbpedia.org/property/residence
p2994
aVhttp://www.w3.org/1999/02/22-rdf-syntax-ns#type
p2995
aVhttp://dbpedia.org/property/bronze
p2996
aVhttp://dbpedia.org/property/locationCountry
p2997
aVhttp://dbpedia.org/property/referee
p2998
aVhttp://dbpedia.org/property/rd1t2Loc
p2999
aVhttp://dbpedia.org/property/largestCity
p3000
aVhttp://dbpedia.org/ontology/ground
p3001
aVhttp://dbpedia.org/property/withdraws
p3002
aVhttp://dbpedia.org/property/shipCountry
p3003
aVhttp://dbpedia.org/property/co
p3004
aVhttp://dbpedia.org/property/gdpNominalPerCapita
p3005
aVhttp://dbpedia.org/property/rd1t8Loc
p3006
aVhttp://dbpedia.org/property/gdpPppPerCapita
p3007
aVhttp://dbpedia.org/ontology/thumbnail
p3008
aVhttp://dbpedia.org/property/rd2t7Loc
p3009
aVhttp://dbpedia.org/property/subdivisionName
p3010
aVhttp://www.w3.org/2000/01/rdf-schema#comment
p3011
aVhttp://dbpedia.org/property/basedIn
p3012
aVhttp://dbpedia.org/property/stadium
p3013
aVhttp://dbpedia.org/property/almaMater
p3014
aVhttp://dbpedia.org/property/ground
p3015
aVhttp://dbpedia.org/property/debuts
p3016
aVhttp://dbpedia.org/property/width
p3017
aVhttp://dbpedia.org/ontology/PopulatedPlace/populationDensity
p3018
aVhttp://dbpedia.org/property/team
p3019
aVhttp://dbpedia.org/property/asianPlaceQ
p3020
aVhttp://dbpedia.org/property/image
p3021
aVhttp://dbpedia.org/ontology/place
p3022
aVhttp://dbpedia.org/property/region
p3023
aVhttp://dbpedia.org/property/cityServed
p3024
aVhttp://dbpedia.org/property/rd3t2Loc
p3025
aVhttp://dbpedia.org/property/foundation
p3026
aVhttp://dbpedia.org/property/host
p3027
aVhttp://dbpedia.org/ontology/broadcastArea
p3028
aVhttp://dbpedia.org/property/locale
p3029
aVhttp://dbpedia.org/property/basinCountries
p3030
aVhttp://dbpedia.org/property/address
p3031
assI2
(dp3032
I0
g2852
sI1
g2891
sI2
(lp3033
sI3
(lp3034
sI4
(lp3035
sI5
(lp3036
sI6
(lp3037
Vhttp://dbpedia.org/property/hostCity
p3038
aVhttp://dbpedia.org/property/place
p3039
aVhttp://dbpedia.org/property/worldPlace
p3040
aVhttp://dbpedia.org/ontology/poleDriverCountry
p3041
aVhttp://dbpedia.org/property/site
p3042
aVhttp://dbpedia.org/ontology/country
p3043
aVhttp://dbpedia.org/property/home
p3044
aVhttp://dbpedia.org/property/referee
p3045
aVhttp://dbpedia.org/property/assembly
p3046
aVhttp://dbpedia.org/ontology/ground
p3047
aVhttp://dbpedia.org/property/birthPlace
p3048
aVhttp://dbpedia.org/ontology/place
p3049
aVhttp://dbpedia.org/property/placeOfBirth
p3050
aVhttp://dbpedia.org/property/asianPlaceF
p3051
aVhttp://dbpedia.org/property/country
p3052
aVhttp://dbpedia.org/property/shipCountry
p3053
aVhttp://dbpedia.org/property/l
p3054
aVhttp://dbpedia.org/property/asianPlaceQ
p3055
aVhttp://dbpedia.org/property/primaryUser
p3056
aVhttp://dbpedia.org/property/venue
p3057
aVhttp://dbpedia.org/ontology/abstract
p3058
aVhttp://dbpedia.org/ontology/firstDriverCountry
p3059
aVhttp://dbpedia.org/property/location
p3060
aVhttp://dbpedia.org/property/worldPlaceQ
p3061
aVhttp://dbpedia.org/ontology/builder
p3062
aVhttp://dbpedia.org/ontology/homeStadium
p3063
aVhttp://dbpedia.org/ontology/city
p3064
aVhttp://dbpedia.org/property/worldPlaceF
p3065
aVhttp://dbpedia.org/property/nationalOrigin
p3066
aVhttp://dbpedia.org/property/rd1t3Loc
p3067
aVhttp://dbpedia.org/ontology/assembly
p3068
aVhttp://dbpedia.org/ontology/location
p3069
aVhttp://www.w3.org/2000/01/rdf-schema#comment
p3070
aVhttp://dbpedia.org/ontology/birthPlace
p3071
aVhttp://dbpedia.org/property/countries
p3072
aVhttp://dbpedia.org/property/shipBuilder
p3073
aVhttp://dbpedia.org/property/asianPlace
p3074
aVhttp://dbpedia.org/property/stadium
p3075
aVhttp://dbpedia.org/ontology/deathPlace
p3076
asI7
(lp3077
Vhttp://dbpedia.org/property/origin
p3078
aVhttp://dbpedia.org/property/placeOfDeath
p3079
aVhttp://dbpedia.org/property/locations
p3080
aVhttp://dbpedia.org/ontology/PopulatedPlace/areaTotal
p3081
aVhttp://dbpedia.org/ontology/garrison
p3082
aVhttp://dbpedia.org/property/ethnicity
p3083
aVhttp://www.w3.org/ns/prov#wasDerivedFrom
p3084
aVhttp://dbpedia.org/ontology/fastestDriverCountry
p3085
aVhttp://dbpedia.org/ontology/routeEnd
p3086
aVhttp://dbpedia.org/property/dateOfBirth
p3087
aVhttp://dbpedia.org/property/firstRun
p3088
aVhttp://dbpedia.org/property/lage
p3089
aVhttp://dbpedia.org/property/assembly
p3090
aVhttp://dbpedia.org/property/image
p3091
aVhttp://dbpedia.org/property/shortDescription
p3092
aVhttp://dbpedia.org/property/placeOfBirth
p3093
aVhttp://dbpedia.org/property/hometown
p3094
aVhttp://dbpedia.org/property/nationality
p3095
aVhttp://dbpedia.org/ontology/abstract
p3096
aVhttp://dbpedia.org/ontology/recordedIn
p3097
aVhttp://dbpedia.org/property/leaderName
p3098
aVhttp://dbpedia.org/property/gdpPpp
p3099
aVhttp://dbpedia.org/property/usedBy
p3100
aVhttp://dbpedia.org/property/nationalOrigin
p3101
aVhttp://www.georss.org/georss/point
p3102
aVhttp://dbpedia.org/property/shipBuilder
p3103
aVhttp://dbpedia.org/ontology/location
p3104
aVhttp://dbpedia.org/property/city
p3105
aVhttp://dbpedia.org/property/countries
p3106
aVhttp://dbpedia.org/property/factory
p3107
aVhttp://dbpedia.org/ontology/hometown
p3108
aVhttp://dbpedia.org/ontology/restingPlace
p3109
aVhttp://dbpedia.org/property/leaderTitle
p3110
aVhttp://dbpedia.org/property/rd4t1Loc
p3111
aVhttp://dbpedia.org/property/rd2t6Loc
p3112
aVhttp://dbpedia.org/property/hostCity
p3113
aVhttp://dbpedia.org/property/deathDate
p3114
aVhttp://dbpedia.org/ontology/foundationPlace
p3115
aVhttp://dbpedia.org/property/patronage
p3116
aVhttp://dbpedia.org/property/birthplace
p3117
aVhttp://dbpedia.org/ontology/poleDriverCountry
p3118
aVhttp://dbpedia.org/property/placeOfBurial
p3119
aVhttp://dbpedia.org/ontology/country
p3120
aVhttp://dbpedia.org/property/region
p3121
aVhttp://dbpedia.org/property/home
p3122
aVhttp://dbpedia.org/property/discoverySite
p3123
aVhttp://dbpedia.org/property/birthPlace
p3124
aVhttp://dbpedia.org/property/stateParty
p3125
aVhttp://dbpedia.org/property/country
p3126
aVhttp://dbpedia.org/property/areaServed
p3127
aVhttp://dbpedia.org/property/areaRank
p3128
aVhttp://dbpedia.org/ontology/firstDriverCountry
p3129
aVhttp://dbpedia.org/property/worldPlaceQ
p3130
aVhttp://dbpedia.org/property/states
p3131
aVhttp://dbpedia.org/ontology/locationCountry
p3132
aVhttp://dbpedia.org/ontology/homeStadium
p3133
aVhttp://dbpedia.org/property/rd2t4Loc
p3134
aVhttp://dbpedia.org/property/hasPhotoCollection
p3135
aVhttp://dbpedia.org/property/cityServed
p3136
aVhttp://dbpedia.org/property/headquarters
p3137
aVhttp://dbpedia.org/property/dateOfDeath
p3138
aVhttp://dbpedia.org/ontology/birthPlace
p3139
aVhttp://dbpedia.org/ontology/wikiPageRedirects
p3140
aVhttp://purl.org/voc/vrank#hasRank
p3141
aVhttp://dbpedia.org/property/citizenship
p3142
aVhttp://dbpedia.org/property/staat
p3143
aVhttp://dbpedia.org/property/deathPlace
p3144
aVhttp://dbpedia.org/property/garrison
p3145
aVhttp://www.w3.org/2002/07/owl#sameAs
p3146
aVhttp://dbpedia.org/ontology/deathPlace
p3147
aVhttp://dbpedia.org/property/twin1Country
p3148
aVhttp://dbpedia.org/property/recorded
p3149
aVhttp://dbpedia.org/ontology/origin
p3150
aVhttp://dbpedia.org/property/worldPlace
p3151
aVhttp://dbpedia.org/property/residence
p3152
aVhttp://dbpedia.org/property/moreUsers
p3153
aVhttp://www.w3.org/1999/02/22-rdf-syntax-ns#type
p3154
aVhttp://dbpedia.org/property/rd3t3Loc
p3155
aVhttp://dbpedia.org/property/locationCountry
p3156
aVhttp://dbpedia.org/ontology/secondDriverCountry
p3157
aVhttp://dbpedia.org/ontology/ground
p3158
aVhttp://dbpedia.org/property/withdraws
p3159
aVhttp://dbpedia.org/property/c
p3160
aVhttp://dbpedia.org/ontology/sourceCountry
p3161
aVhttp://dbpedia.org/property/locationSigned
p3162
aVhttp://dbpedia.org/property/shipCountry
p3163
aVhttp://dbpedia.org/property/gdpNominal
p3164
aVhttp://dbpedia.org/property/winnerOrigin
p3165
aVhttp://dbpedia.org/property/endowment
p3166
aVhttp://dbpedia.org/ontology/thumbnail
p3167
aVhttp://dbpedia.org/property/homeTown
p3168
aVhttp://dbpedia.org/ontology/routeStart
p3169
aVhttp://dbpedia.org/property/subdivisionName
p3170
aVhttp://dbpedia.org/property/rd1t3Loc
p3171
aVhttp://dbpedia.org/property/referee
p3172
aVhttp://dbpedia.org/property/locationCity
p3173
aVhttp://dbpedia.org/property/basedIn
p3174
aVhttp://dbpedia.org/property/rd5t1Loc
p3175
aVhttp://dbpedia.org/property/rd4t2Loc
p3176
aVhttp://dbpedia.org/property/almaMater
p3177
aVhttp://dbpedia.org/property/place
p3178
aVhttp://dbpedia.org/property/debuts
p3179
aVhttp://dbpedia.org/ontology/thirdDriverCountry
p3180
aVhttp://dbpedia.org/ontology/PopulatedPlace/populationDensity
p3181
aVhttp://dbpedia.org/property/team
p3182
aVhttp://dbpedia.org/property/asianPlaceQ
p3183
aVhttp://dbpedia.org/property/allegiance
p3184
aVhttp://dbpedia.org/property/combatant
p3185
aVhttp://dbpedia.org/ontology/place
p3186
aVhttp://dbpedia.org/property/asianPlaceF
p3187
aVhttp://dbpedia.org/property/lagePolitisch
p3188
aVhttp://dbpedia.org/property/venue
p3189
aVhttp://dbpedia.org/property/state
p3190
aVhttp://dbpedia.org/property/location
p3191
aVhttp://dbpedia.org/property/regions
p3192
aVhttp://dbpedia.org/property/rd3t2Loc
p3193
aVhttp://dbpedia.org/property/stadium
p3194
aVhttp://dbpedia.org/property/worldPlaceF
p3195
aVhttp://dbpedia.org/ontology/language
p3196
aVhttp://dbpedia.org/property/locale
p3197
aVhttp://dbpedia.org/property/basinCountries
p3198
aVhttp://dbpedia.org/property/asianPlace
p3199
aVhttp://dbpedia.org/ontology/assembly
p3200
aVhttp://dbpedia.org/property/rd2t1Loc
p3201
aVhttp://www.w3.org/2000/01/rdf-schema#comment
p3202
aVhttp://dbpedia.org/property/olympicPlace
p3203
aVhttp://dbpedia.org/property/seat
p3204
aVhttp://dbpedia.org/property/regionServed
p3205
aVhttp://dbpedia.org/ontology/builder
p3206
assI3
(dp3207
I0
g2882
sI1
g2911
sI2
g3034
sI3
(lp3208
sI4
(lp3209
Vhttp://dbpedia.org/ontology/abstract
p3210
aVhttp://www.w3.org/2000/01/rdf-schema#comment
p3211
asI5
(lp3212
Vhttp://dbpedia.org/ontology/abstract
p3213
aVhttp://www.w3.org/2000/01/rdf-schema#comment
p3214
asI6
(lp3215
Vhttp://dbpedia.org/ontology/abstract
p3216
aVhttp://www.w3.org/1999/02/22-rdf-syntax-ns#type
p3217
aVhttp://www.w3.org/2000/01/rdf-schema#comment
p3218
asI7
(lp3219
Vhttp://www.w3.org/1999/02/22-rdf-syntax-ns#type
p3220
aVhttp://purl.org/dc/terms/subject
p3221
aVhttp://www.w3.org/2000/01/rdf-schema#comment
p3222
aVhttp://dbpedia.org/ontology/abstract
p3223
aVhttp://purl.org/voc/vrank#hasRank
p3224
aVhttp://dbpedia.org/property/hasPhotoCollection
p3225
assI4
(dp3226
I0
g2885
sI1
g2912
sI2
g3035
sI3
g3209
sI4
(lp3227
sI5
(lp3228
sI6
(lp3229
sI7
(lp3230
ssI5
(dp3231
I0
g2886
sI1
g2913
sI2
g3036
sI3
g3212
sI4
g3228
sI5
(lp3232
sI6
(lp3233
sI7
(lp3234
ssI6
(dp3235
I0
g2887
sI1
g2914
sI2
g3037
sI3
g3215
sI4
g3229
sI5
g3233
sI6
(lp3236
sI7
(lp3237
ssI7
(dp3238
I0
g2888
sI1
g2938
sI2
g3077
sI3
g3219
sI4
g3230
sI5
g3234
sI6
g3237
sI7
(lp3239
ssa(dp3240
I0
(dp3241
I0
(lp3242
sI1
(lp3243
Vhttp://www.w3.org/1999/02/22-rdf-syntax-ns#type
p3244
aVhttp://www.w3.org/2000/01/rdf-schema#comment
p3245
aVhttp://dbpedia.org/ontology/abstract
p3246
aVhttp://dbpedia.org/property/place
p3247
aVhttp://dbpedia.org/ontology/wikiPageRedirects
p3248
aVhttp://dbpedia.org/property/deathPlace
p3249
aVhttp://dbpedia.org/property/birthPlace
p3250
aVhttp://dbpedia.org/ontology/place
p3251
aVhttp://dbpedia.org/ontology/deathPlace
p3252
aVhttp://dbpedia.org/property/shipCountry
p3253
aVhttp://dbpedia.org/ontology/birthPlace
p3254
aVhttp://dbpedia.org/property/stadium
p3255
asI2
(lp3256
sI3
(lp3257
Vhttp://www.w3.org/1999/02/22-rdf-syntax-ns#type
p3258
asI4
(lp3259
sI5
(lp3260
sI6
(lp3261
sI7
(lp3262
ssI1
(dp3263
I0
g3243
sI1
(lp3264
sI2
(lp3265
Vhttp://www.w3.org/2000/01/rdf-schema#seeAlso
p3266
aVhttp://dbpedia.org/property/origin
p3267
aVhttp://dbpedia.org/ontology/origin
p3268
aVhttp://dbpedia.org/property/conventionalLongName
p3269
aVhttp://dbpedia.org/ontology/garrison
p3270
aVhttp://dbpedia.org/ontology/longName
p3271
aVhttp://dbpedia.org/property/footnoteA
p3272
aVhttp://dbpedia.org/ontology/demonym
p3273
aVhttp://dbpedia.org/ontology/officialLanguage
p3274
aVhttp://dbpedia.org/ontology/country
p3275
aVhttp://dbpedia.org/property/region
p3276
aVhttp://www.w3.org/1999/02/22-rdf-syntax-ns#type
p3277
aVhttp://dbpedia.org/property/officialLanguages
p3278
aVhttp://dbpedia.org/property/birthPlace
p3279
aVhttp://dbpedia.org/ontology/place
p3280
aVhttp://dbpedia.org/ontology/ethnicGroup
p3281
aVhttp://dbpedia.org/property/country
p3282
aVhttp://dbpedia.org/property/shipCountry
p3283
aVhttp://dbpedia.org/property/establishedEvent
p3284
aVhttp://dbpedia.org/property/placeOfBirth
p3285
aVhttp://dbpedia.org/ontology/wikiPageExternalLink
p3286
aVhttp://purl.org/dc/terms/subject
p3287
aVhttp://dbpedia.org/ontology/abstract
p3288
aVhttp://dbpedia.org/ontology/spokenIn
p3289
aVhttp://dbpedia.org/property/location
p3290
aVhttp://dbpedia.org/ontology/usingCountry
p3291
aVhttp://dbpedia.org/property/states
p3292
aVhttp://dbpedia.org/ontology/headquarter
p3293
aVhttp://dbpedia.org/property/builder
p3294
aVhttp://dbpedia.org/ontology/language
p3295
aVhttp://dbpedia.org/ontology/location
p3296
aVhttp://dbpedia.org/property/garrison
p3297
aVhttp://dbpedia.org/property/headquarters
p3298
aVhttp://www.w3.org/2000/01/rdf-schema#comment
p3299
aVhttp://dbpedia.org/ontology/birthPlace
p3300
aVhttp://dbpedia.org/ontology/wikiPageRedirects
p3301
aVhttp://dbpedia.org/ontology/hometown
p3302
aVhttp://dbpedia.org/property/demonym
p3303
aVhttp://dbpedia.org/property/regionServed
p3304
aVhttp://dbpedia.org/property/jurisdiction
p3305
asI3
(lp3306
sI4
(lp3307
sI5
(lp3308
sI6
(lp3309
Vhttp://dbpedia.org/ontology/country
p3310
aVhttp://dbpedia.org/property/returns
p3311
aVhttp://www.w3.org/2000/01/rdf-schema#comment
p3312
aVhttp://www.w3.org/2002/07/owl#sameAs
p3313
aVhttp://dbpedia.org/ontology/birthPlace
p3314
aVhttp://dbpedia.org/ontology/abstract
p3315
aVhttp://dbpedia.org/property/venue
p3316
aVhttp://dbpedia.org/property/deathPlace
p3317
aVhttp://dbpedia.org/property/location
p3318
aVhttp://dbpedia.org/property/host
p3319
aVhttp://dbpedia.org/property/birthPlace
p3320
aVhttp://dbpedia.org/ontology/restingPlace
p3321
aVhttp://dbpedia.org/ontology/deathPlace
p3322
aVhttp://dbpedia.org/property/country
p3323
aVhttp://dbpedia.org/property/rallybase
p3324
aVhttp://dbpedia.org/property/debuts
p3325
aVhttp://dbpedia.org/property/placeOfBurial
p3326
aVhttp://dbpedia.org/property/site
p3327
aVhttp://dbpedia.org/property/stadium
p3328
aVhttp://dbpedia.org/property/image
p3329
asI7
(lp3330
Vhttp://dbpedia.org/property/origin
p3331
aVhttp://dbpedia.org/property/placeOfDeath
p3332
aVhttp://dbpedia.org/ontology/countryWithFirstSatellite
p3333
aVhttp://dbpedia.org/property/broadcastArea
p3334
aVhttp://dbpedia.org/property/hasPhotoCollection
p3335
aVhttp://dbpedia.org/property/place
p3336
aVhttp://dbpedia.org/property/constituency
p3337
aVhttp://dbpedia.org/property/city
p3338
aVhttp://dbpedia.org/property/cityOrRegion
p3339
aVhttp://dbpedia.org/property/populationEstimateRank
p3340
aVhttp://dbpedia.org/ontology/deathPlace
p3341
aVhttp://dbpedia.org/property/caption
p3342
aVhttp://dbpedia.org/property/area
p3343
aVhttp://dbpedia.org/ontology/PopulatedPlace/populationDensity
p3344
aVhttp://dbpedia.org/ontology/country
p3345
aVhttp://dbpedia.org/property/region
p3346
aVhttp://www.w3.org/1999/02/22-rdf-syntax-ns#type
p3347
aVhttp://dbpedia.org/property/areaServed
p3348
aVhttp://www.w3.org/2002/07/owl#sameAs
p3349
aVhttp://dbpedia.org/property/home
p3350
aVhttp://dbpedia.org/property/locationCountry
p3351
aVhttp://dbpedia.org/property/ground
p3352
aVhttp://dbpedia.org/property/throne
p3353
aVhttp://dbpedia.org/property/allegiance
p3354
aVhttp://dbpedia.org/property/site
p3355
aVhttp://dbpedia.org/property/available
p3356
aVhttp://dbpedia.org/ontology/nationality
p3357
aVhttp://dbpedia.org/property/birthPlace
p3358
aVhttp://dbpedia.org/property/destination
p3359
aVhttp://dbpedia.org/ontology/place
p3360
aVhttp://dbpedia.org/ontology/language
p3361
aVhttp://dbpedia.org/property/stateParty
p3362
aVhttp://dbpedia.org/property/owner
p3363
aVhttp://dbpedia.org/property/country
p3364
aVhttp://dbpedia.org/property/rallybase
p3365
aVhttp://dbpedia.org/property/shipCountry
p3366
aVhttp://dbpedia.org/property/co
p3367
aVhttp://dbpedia.org/property/establishedEvent
p3368
aVhttp://dbpedia.org/property/placeOfBirth
p3369
aVhttp://dbpedia.org/property/regionalScenes
p3370
aVhttp://dbpedia.org/property/basinCountries
p3371
aVhttp://dbpedia.org/property/rd2t2Loc
p3372
aVhttp://dbpedia.org/property/nationality
p3373
aVhttp://dbpedia.org/ontology/abstract
p3374
aVhttp://dbpedia.org/property/rd1t8Loc
p3375
aVhttp://dbpedia.org/property/venue
p3376
aVhttp://dbpedia.org/property/returns
p3377
aVhttp://dbpedia.org/property/deathPlace
p3378
aVhttp://dbpedia.org/property/states
p3379
aVhttp://dbpedia.org/property/regions
p3380
aVhttp://dbpedia.org/ontology/thumbnail
p3381
aVhttp://dbpedia.org/property/rd2t4Loc
p3382
aVhttp://dbpedia.org/property/usedBy
p3383
aVhttp://dbpedia.org/property/subdivisionName
p3384
aVhttp://dbpedia.org/property/nationalOrigin
p3385
aVhttp://dbpedia.org/ontology/location
p3386
aVhttp://dbpedia.org/property/locale
p3387
aVhttp://dbpedia.org/property/fightingOutOf
p3388
aVhttp://www.georss.org/georss/point
p3389
aVhttp://dbpedia.org/property/cityServed
p3390
aVhttp://dbpedia.org/property/headquarters
p3391
aVhttp://dbpedia.org/ontology/PopulatedPlace/areaTotal
p3392
aVhttp://dbpedia.org/property/location
p3393
aVhttp://www.w3.org/2000/01/rdf-schema#comment
p3394
aVhttp://dbpedia.org/property/local
p3395
aVhttp://dbpedia.org/ontology/wikiPageRedirects
p3396
aVhttp://dbpedia.org/property/withdraws
p3397
aVhttp://dbpedia.org/property/rd1t1Loc
p3398
aVhttp://dbpedia.org/ontology/hometown
p3399
aVhttp://dbpedia.org/property/hqLocationCountry
p3400
aVhttp://dbpedia.org/property/locationCity
p3401
aVhttp://dbpedia.org/property/citizenship
p3402
aVhttp://dbpedia.org/property/gdpPppRank
p3403
aVhttp://dbpedia.org/property/residence
p3404
aVhttp://dbpedia.org/ontology/birthPlace
p3405
aVhttp://dbpedia.org/property/stadium
p3406
aVhttp://dbpedia.org/property/shortDescription
p3407
assI2
(dp3408
I0
g3256
sI1
g3265
sI2
(lp3409
sI3
(lp3410
sI4
(lp3411
sI5
(lp3412
sI6
(lp3413
sI7
(lp3414
Vhttp://www.w3.org/1999/02/22-rdf-syntax-ns#type
p3415
aVhttp://www.w3.org/2000/01/rdf-schema#comment
p3416
aVhttp://dbpedia.org/ontology/abstract
p3417
aVhttp://xmlns.com/foaf/0.1/depiction
p3418
aVhttp://dbpedia.org/ontology/wikiPageRedirects
p3419
aVhttp://purl.org/voc/vrank#hasRank
p3420
aVhttp://dbpedia.org/ontology/thumbnail
p3421
aVhttp://www.w3.org/ns/prov#wasDerivedFrom
p3422
aVhttp://dbpedia.org/property/hasPhotoCollection
p3423
assI3
(dp3424
I0
g3257
sI1
g3306
sI2
g3410
sI3
(lp3425
sI4
(lp3426
Vhttp://dbpedia.org/ontology/abstract
p3427
aVhttp://www.w3.org/2000/01/rdf-schema#comment
p3428
asI5
(lp3429
sI6
(lp3430
Vhttp://dbpedia.org/ontology/abstract
p3431
aVhttp://www.w3.org/1999/02/22-rdf-syntax-ns#type
p3432
aVhttp://www.w3.org/2000/01/rdf-schema#comment
p3433
asI7
(lp3434
Vhttp://dbpedia.org/ontology/wikiPageExternalLink
p3435
aVhttp://www.w3.org/1999/02/22-rdf-syntax-ns#type
p3436
aVhttp://dbpedia.org/property/composer
p3437
aVhttp://dbpedia.org/ontology/abstract
p3438
aVhttp://purl.org/voc/vrank#hasRank
p3439
aVhttp://dbpedia.org/property/hasPhotoCollection
p3440
aVhttp://dbpedia.org/ontology/viafId
p3441
aVhttp://www.w3.org/2002/07/owl#sameAs
p3442
assI4
(dp3443
I0
g3259
sI1
g3307
sI2
g3411
sI3
g3426
sI4
(lp3444
sI5
(lp3445
sI6
(lp3446
sI7
(lp3447
ssI5
(dp3448
I0
g3260
sI1
g3308
sI2
g3412
sI3
g3429
sI4
g3445
sI5
(lp3449
sI6
(lp3450
sI7
(lp3451
ssI6
(dp3452
I0
g3261
sI1
g3309
sI2
g3413
sI3
g3430
sI4
g3446
sI5
g3450
sI6
(lp3453
sI7
(lp3454
ssI7
(dp3455
I0
g3262
sI1
g3330
sI2
g3414
sI3
g3434
sI4
g3447
sI5
g3451
sI6
g3454
sI7
(lp3456
ssa(dp3457
I0
(dp3458
I0
(lp3459
sI1
(lp3460
Vhttp://dbpedia.org/property/placeOfDeath
p3461
aVhttp://www.w3.org/2002/07/owl#sameAs
p3462
aVhttp://dbpedia.org/property/countriesAffected
p3463
aVhttp://dbpedia.org/ontology/assembly
p3464
aVhttp://dbpedia.org/property/countries
p3465
aVhttp://dbpedia.org/property/primaryUser
p3466
aVhttp://dbpedia.org/property/assembly
p3467
aVhttp://dbpedia.org/ontology/abstract
p3468
aVhttp://dbpedia.org/property/deathDate
p3469
aVhttp://dbpedia.org/property/place
p3470
aVhttp://dbpedia.org/property/deathPlace
p3471
aVhttp://dbpedia.org/property/placeOfBirth
p3472
aVhttp://dbpedia.org/property/birthPlace
p3473
aVhttp://dbpedia.org/ontology/place
p3474
aVhttp://dbpedia.org/property/nationalOrigin
p3475
aVhttp://dbpedia.org/ontology/birthPlace
p3476
aVhttp://dbpedia.org/property/stadium
p3477
aVhttp://dbpedia.org/ontology/deathPlace
p3478
asI2
(lp3479
Vhttp://purl.org/voc/vrank#hasRank
p3480
asI3
(lp3481
sI4
(lp3482
sI5
(lp3483
Vhttp://www.w3.org/2002/07/owl#sameAs
p3484
asI6
(lp3485
sI7
(lp3486
ssI1
(dp3487
I0
g3460
sI1
(lp3488
sI2
(lp3489
Vhttp://www.w3.org/2000/01/rdf-schema#seeAlso
p3490
aVhttp://dbpedia.org/property/origin
p3491
aVhttp://dbpedia.org/property/stadium
p3492
aVhttp://dbpedia.org/property/recorded
p3493
aVhttp://dbpedia.org/property/broadcastArea
p3494
aVhttp://dbpedia.org/ontology/origin
p3495
aVhttp://dbpedia.org/property/conventionalLongName
p3496
aVhttp://dbpedia.org/property/bases
p3497
aVhttp://dbpedia.org/property/place
p3498
aVhttp://dbpedia.org/ontology/jurisdiction
p3499
aVhttp://dbpedia.org/ontology/foundationPlace
p3500
aVhttp://dbpedia.org/property/city
p3501
aVhttp://dbpedia.org/ontology/garrison
p3502
aVhttp://dbpedia.org/ontology/longName
p3503
aVhttp://dbpedia.org/property/legislature
p3504
aVhttp://dbpedia.org/ontology/fastestDriverCountry
p3505
aVhttp://dbpedia.org/property/footnoteB
p3506
aVhttp://dbpedia.org/ontology/demonym
p3507
aVhttp://dbpedia.org/ontology/officialLanguage
p3508
aVhttp://dbpedia.org/ontology/regionServed
p3509
aVhttp://dbpedia.org/ontology/country
p3510
aVhttp://www.w3.org/1999/02/22-rdf-syntax-ns#type
p3511
aVhttp://www.w3.org/2002/07/owl#differentFrom
p3512
aVhttp://dbpedia.org/property/locationCountry
p3513
aVhttp://dbpedia.org/ontology/secondDriverCountry
p3514
aVhttp://dbpedia.org/property/allegiance
p3515
aVhttp://dbpedia.org/property/site
p3516
aVhttp://dbpedia.org/property/combatant
p3517
aVhttp://dbpedia.org/property/country/region
p3518
aVhttp://dbpedia.org/ontology/place
p3519
aVhttp://dbpedia.org/property/placeOfBirth
p3520
aVhttp://dbpedia.org/property/country
p3521
aVhttp://dbpedia.org/property/shipCountry
p3522
aVhttp://dbpedia.org/property/establishedEvent
p3523
aVhttp://dbpedia.org/ontology/targetAirport
p3524
aVhttp://purl.org/dc/terms/subject
p3525
aVhttp://dbpedia.org/ontology/populationPlace
p3526
aVhttp://dbpedia.org/ontology/abstract
p3527
aVhttp://dbpedia.org/ontology/recordedIn
p3528
aVhttp://dbpedia.org/ontology/firstDriverCountry
p3529
aVhttp://dbpedia.org/property/location
p3530
aVhttp://dbpedia.org/ontology/usingCountry
p3531
aVhttp://dbpedia.org/property/states
p3532
aVhttp://dbpedia.org/ontology/locationCountry
p3533
aVhttp://dbpedia.org/ontology/headquarter
p3534
aVhttp://dbpedia.org/ontology/city
p3535
aVhttp://dbpedia.org/property/shipNamesake
p3536
aVhttp://dbpedia.org/ontology/language
p3537
aVhttp://dbpedia.org/property/officialLanguages
p3538
aVhttp://dbpedia.org/property/basinCountries
p3539
aVhttp://dbpedia.org/property/garrison
p3540
aVhttp://dbpedia.org/ontology/location
p3541
aVhttp://dbpedia.org/property/birthPlace
p3542
aVhttp://dbpedia.org/ontology/birthPlace
p3543
aVhttp://www.w3.org/2000/01/rdf-schema#comment
p3544
aVhttp://dbpedia.org/ontology/wikiPageRedirects
p3545
aVhttp://dbpedia.org/property/area
p3546
aVhttp://dbpedia.org/ontology/hometown
p3547
aVhttp://dbpedia.org/ontology/poleDriverCountry
p3548
aVhttp://dbpedia.org/property/demonym
p3549
aVhttp://dbpedia.org/property/areaServed
p3550
aVhttp://dbpedia.org/property/headquarters
p3551
aVhttp://dbpedia.org/property/regionServed
p3552
aVhttp://dbpedia.org/ontology/spokenIn
p3553
aVhttp://dbpedia.org/property/jurisdiction
p3554
aVhttp://dbpedia.org/ontology/thirdDriverCountry
p3555
aVhttp://dbpedia.org/property/remit
p3556
aVhttp://dbpedia.org/property/observedby
p3557
asI3
(lp3558
sI4
(lp3559
Vhttp://dbpedia.org/property/origin
p3560
aVhttp://dbpedia.org/property/placeOfDeath
p3561
aVhttp://dbpedia.org/ontology/twinCountry
p3562
aVhttp://dbpedia.org/property/broadcastArea
p3563
aVhttp://dbpedia.org/property/based
p3564
aVhttp://dbpedia.org/property/text
p3565
aVhttp://dbpedia.org/ontology/routeEndLocation
p3566
aVhttp://dbpedia.org/ontology/jurisdiction
p3567
aVhttp://dbpedia.org/ontology/mouthCountry
p3568
aVhttp://dbpedia.org/property/areasServed
p3569
aVhttp://dbpedia.org/property/allegiance
p3570
aVhttp://dbpedia.org/ontology/wineRegion
p3571
aVhttp://dbpedia.org/ontology/garrison
p3572
aVhttp://dbpedia.org/property/sovereigntyType
p3573
aVhttp://dbpedia.org/ontology/city
p3574
aVhttp://dbpedia.org/property/patronage
p3575
aVhttp://dbpedia.org/property/1rpt2Loc
p3576
aVhttp://dbpedia.org/ontology/fastestDriverCountry
p3577
aVhttp://dbpedia.org/property/hqLocationCountry
p3578
aVhttp://dbpedia.org/ontology/flag
p3579
aVhttp://dbpedia.org/ontology/routeEnd
p3580
aVhttp://dbpedia.org/ontology/binomialAuthority
p3581
aVhttp://dbpedia.org/property/religion
p3582
aVhttp://dbpedia.org/ontology/canonizedPlace
p3583
aVhttp://dbpedia.org/property/city
p3584
aVhttp://dbpedia.org/property/recording
p3585
aVhttp://dbpedia.org/property/rd3t4Loc
p3586
aVhttp://dbpedia.org/property/assembly
p3587
aVhttp://dbpedia.org/property/subdivisionName
p3588
aVhttp://dbpedia.org/property/venue
p3589
aVhttp://dbpedia.org/ontology/nationality
p3590
aVhttp://dbpedia.org/property/shortDescription
p3591
aVhttp://dbpedia.org/property/placeOfBirth
p3592
aVhttp://dbpedia.org/property/garrison
p3593
aVhttp://dbpedia.org/property/hometown
p3594
aVhttp://dbpedia.org/property/rallybase
p3595
aVhttp://dbpedia.org/property/popmax
p3596
aVhttp://dbpedia.org/property/culturalOrigins
p3597
aVhttp://dbpedia.org/property/establishedEvent
p3598
aVhttp://dbpedia.org/ontology/targetAirport
p3599
aVhttp://dbpedia.org/property/publishingCountry
p3600
aVhttp://dbpedia.org/property/siteCityst
p3601
aVhttp://dbpedia.org/property/base
p3602
aVhttp://dbpedia.org/property/language
p3603
aVhttp://dbpedia.org/property/bankOf
p3604
aVhttp://dbpedia.org/property/founderCountry
p3605
aVhttp://dbpedia.org/property/primaryUser
p3606
aVhttp://dbpedia.org/ontology/residence
p3607
aVhttp://dbpedia.org/ontology/abstract
p3608
aVhttp://dbpedia.org/ontology/recordedIn
p3609
aVhttp://dbpedia.org/property/leaderName
p3610
aVhttp://dbpedia.org/property/largestMetropolitanArea
p3611
aVhttp://dbpedia.org/property/provenance
p3612
aVhttp://dbpedia.org/property/sourceCountry
p3613
aVhttp://dbpedia.org/property/usedBy
p3614
aVhttp://dbpedia.org/property/shipNamesake
p3615
aVhttp://dbpedia.org/property/beatifiedPlace
p3616
aVhttp://dbpedia.org/property/nationalOrigin
p3617
aVhttp://dbpedia.org/ontology/state
p3618
aVhttp://dbpedia.org/property/imageMap
p3619
aVhttp://dbpedia.org/property/shipBuilder
p3620
aVhttp://dbpedia.org/ontology/location
p3621
aVhttp://dbpedia.org/property/countries
p3622
aVhttp://dbpedia.org/property/education
p3623
aVhttp://dbpedia.org/property/constituency
p3624
aVhttp://dbpedia.org/property/finish
p3625
aVhttp://dbpedia.org/property/area
p3626
aVhttp://dbpedia.org/ontology/hometown
p3627
aVhttp://dbpedia.org/property/alternateName
p3628
aVhttp://dbpedia.org/ontology/restingPlace
p3629
aVhttp://dbpedia.org/property/areaServed
p3630
aVhttp://dbpedia.org/ontology/spokenIn
p3631
aVhttp://dbpedia.org/property/province
p3632
aVhttp://dbpedia.org/property/foundingLocation
p3633
aVhttp://dbpedia.org/property/jurisdiction
p3634
aVhttp://dbpedia.org/property/leaderTitle
p3635
aVhttp://dbpedia.org/property/training
p3636
aVhttp://dbpedia.org/property/rd4t1Loc
p3637
aVhttp://www.w3.org/2000/01/rdf-schema#seeAlso
p3638
aVhttp://dbpedia.org/property/theme
p3639
aVhttp://dbpedia.org/ontology/citizenship
p3640
aVhttp://dbpedia.org/property/rd2t6Loc
p3641
aVhttp://dbpedia.org/ontology/knownFor
p3642
aVhttp://dbpedia.org/ontology/countryWithFirstSatellite
p3643
aVhttp://dbpedia.org/property/hostCity
p3644
aVhttp://dbpedia.org/property/bases
p3645
aVhttp://dbpedia.org/property/homeStadium
p3646
aVhttp://dbpedia.org/ontology/foundationPlace
p3647
aVhttp://dbpedia.org/property/namedFor
p3648
aVhttp://dbpedia.org/property/birthplace
p3649
aVhttp://dbpedia.org/ontology/poleDriverCountry
p3650
aVhttp://dbpedia.org/property/restingPlace
p3651
aVhttp://dbpedia.org/property/legislature
p3652
aVhttp://dbpedia.org/ontology/locatedInArea
p3653
aVhttp://dbpedia.org/property/rd2t3Loc
p3654
aVhttp://dbpedia.org/property/placeOfBurial
p3655
aVhttp://dbpedia.org/ontology/officialLanguage
p3656
aVhttp://dbpedia.org/property/label
p3657
aVhttp://dbpedia.org/ontology/country
p3658
aVhttp://dbpedia.org/property/returns
p3659
aVhttp://dbpedia.org/ontology/countryWithFirstSpaceflight
p3660
aVhttp://dbpedia.org/ontology/beatifiedPlace
p3661
aVhttp://dbpedia.org/property/caption
p3662
aVhttp://dbpedia.org/property/rd2t5Loc
p3663
aVhttp://dbpedia.org/property/hubs
p3664
aVhttp://dbpedia.org/property/home
p3665
aVhttp://dbpedia.org/ontology/region
p3666
aVhttp://dbpedia.org/property/burialPlace
p3667
aVhttp://dbpedia.org/property/rd1t5Loc
p3668
aVhttp://dbpedia.org/property/championshipPlace
p3669
aVhttp://dbpedia.org/property/discoverySite
p3670
aVhttp://dbpedia.org/property/site
p3671
aVhttp://dbpedia.org/property/nationalteam
p3672
aVhttp://dbpedia.org/property/birthPlace
p3673
aVhttp://dbpedia.org/property/country/region
p3674
aVhttp://dbpedia.org/property/possessions
p3675
aVhttp://dbpedia.org/property/title
p3676
aVhttp://dbpedia.org/property/stateParty
p3677
aVhttp://dbpedia.org/property/countryRepresented
p3678
aVhttp://dbpedia.org/property/country
p3679
aVhttp://dbpedia.org/ontology/billed
p3680
aVhttp://dbpedia.org/property/nation
p3681
aVhttp://dbpedia.org/property/state
p3682
aVhttp://dbpedia.org/property/recognition
p3683
aVhttp://dbpedia.org/property/signatories
p3684
aVhttp://dbpedia.org/ontology/wikiPageExternalLink
p3685
aVhttp://dbpedia.org/property/end
p3686
aVhttp://dbpedia.org/ontology/campus
p3687
aVhttp://dbpedia.org/ontology/significantProject
p3688
aVhttp://dbpedia.org/property/dateOfBirth
p3689
aVhttp://dbpedia.org/property/hdiChange
p3690
aVhttp://dbpedia.org/property/basedIn
p3691
aVhttp://dbpedia.org/ontology/firstDriverCountry
p3692
aVhttp://dbpedia.org/property/worldPlaceQ
p3693
aVhttp://dbpedia.org/property/states
p3694
aVhttp://dbpedia.org/ontology/division
p3695
aVhttp://dbpedia.org/ontology/locationCountry
p3696
aVhttp://dbpedia.org/ontology/assembly
p3697
aVhttp://dbpedia.org/ontology/deathPlace
p3698
aVhttp://dbpedia.org/property/rd2t4Loc
p3699
aVhttp://dbpedia.org/property/battles
p3700
aVhttp://dbpedia.org/property/hasPhotoCollection
p3701
aVhttp://dbpedia.org/ontology/releaseLocation
p3702
aVhttp://dbpedia.org/ontology/hubAirport
p3703
aVhttp://dbpedia.org/property/place
p3704
aVhttp://dbpedia.org/ontology/genre
p3705
aVhttp://dbpedia.org/property/armiger
p3706
aVhttp://dbpedia.org/ontology/territory
p3707
aVhttp://dbpedia.org/ontology/placeOfBurial
p3708
aVhttp://dbpedia.org/property/headquarters
p3709
aVhttp://dbpedia.org/ontology/nearestCity
p3710
aVhttp://dbpedia.org/property/dateOfDeath
p3711
aVhttp://dbpedia.org/ontology/birthPlace
p3712
aVhttp://dbpedia.org/ontology/wikiPageRedirects
p3713
aVhttp://dbpedia.org/property/builders
p3714
aVhttp://dbpedia.org/property/rd2t8Loc
p3715
aVhttp://www.w3.org/2004/02/skos/core#exactMatch
p3716
aVhttp://dbpedia.org/property/citizenship
p3717
aVhttp://dbpedia.org/property/imageCoat
p3718
aVhttp://dbpedia.org/property/host
p3719
aVhttp://dbpedia.org/ontology/stateOfOrigin
p3720
aVhttp://dbpedia.org/property/areasAffected
p3721
aVhttp://www.w3.org/2002/07/owl#sameAs
p3722
aVhttp://dbpedia.org/property/timeZoneDst
p3723
aVhttp://dbpedia.org/ontology/wikiPageDisambiguates
p3724
aVhttp://dbpedia.org/ontology/countryWithFirstAstronaut
p3725
aVhttp://dbpedia.org/property/stadium
p3726
aVhttp://dbpedia.org/property/referee
p3727
aVhttp://dbpedia.org/property/recorded
p3728
aVhttp://dbpedia.org/ontology/majorShrine
p3729
aVhttp://dbpedia.org/property/countryOrigin
p3730
aVhttp://dbpedia.org/ontology/origin
p3731
aVhttp://dbpedia.org/ontology/currency
p3732
aVhttp://dbpedia.org/property/imageCaption
p3733
aVhttp://dbpedia.org/property/worldPlace
p3734
aVhttp://dbpedia.org/property/residence
p3735
aVhttp://dbpedia.org/property/cityOrRegion
p3736
aVhttp://dbpedia.org/property/adminCenter
p3737
aVhttp://dbpedia.org/property/workInstitutions
p3738
aVhttp://dbpedia.org/property/foundation
p3739
aVhttp://dbpedia.org/property/height5'9Weight186PoundsBirthPlace
p3740
aVhttp://dbpedia.org/ontology/riverMouth
p3741
aVhttp://dbpedia.org/property/billed
p3742
aVhttp://www.w3.org/1999/02/22-rdf-syntax-ns#type
p3743
aVhttp://dbpedia.org/ontology/award
p3744
aVhttp://dbpedia.org/property/rd3t3Loc
p3745
aVhttp://dbpedia.org/ontology/capital
p3746
aVhttp://dbpedia.org/property/manufacturedBy
p3747
aVhttp://dbpedia.org/property/locationCountry
p3748
aVhttp://dbpedia.org/property/titles
p3749
aVhttp://dbpedia.org/property/majorShrine
p3750
aVhttp://dbpedia.org/ontology/ground
p3751
aVhttp://dbpedia.org/property/withdraws
p3752
aVhttp://dbpedia.org/property/lowerHouse
p3753
aVhttp://dbpedia.org/ontology/language
p3754
aVhttp://dbpedia.org/property/locationSigned
p3755
aVhttp://dbpedia.org/property/twin1Country
p3756
aVhttp://dbpedia.org/property/namedAfter
p3757
aVhttp://dbpedia.org/property/prevSeries
p3758
aVhttp://dbpedia.org/ontology/broadcastArea
p3759
aVhttp://dbpedia.org/property/l
p3760
aVhttp://dbpedia.org/property/deathDate
p3761
aVhttp://dbpedia.org/ontology/timeZone
p3762
aVhttp://www.w3.org/2000/01/rdf-schema#comment
p3763
aVhttp://dbpedia.org/property/regionalScenes
p3764
aVhttp://dbpedia.org/ontology/countryOrigin
p3765
aVhttp://xmlns.com/foaf/0.1/depiction
p3766
aVhttp://dbpedia.org/ontology/usingCountry
p3767
aVhttp://dbpedia.org/property/fightingOutOf
p3768
aVhttp://dbpedia.org/property/observedby
p3769
aVhttp://dbpedia.org/property/rd2t7Loc
p3770
aVhttp://dbpedia.org/ontology/regionServed
p3771
aVhttp://dbpedia.org/property/homeTown
p3772
aVhttp://dbpedia.org/property/fullname
p3773
aVhttp://dbpedia.org/ontology/routeStart
p3774
aVhttp://dbpedia.org/property/availability
p3775
aVhttp://dbpedia.org/ontology/ethnicity
p3776
aVhttp://dbpedia.org/ontology/homeport
p3777
aVhttp://dbpedia.org/property/countryOfOrigin
p3778
aVhttp://dbpedia.org/property/rd1t3Loc
p3779
aVhttp://dbpedia.org/property/shipCountry
p3780
aVhttp://dbpedia.org/property/cityServed
p3781
aVhttp://dbpedia.org/property/nickname(s)_
p3782
aVhttp://dbpedia.org/ontology/headquarter
p3783
aVhttp://dbpedia.org/property/popplace
p3784
aVhttp://dbpedia.org/property/countriesAffected
p3785
aVhttp://dbpedia.org/property/workplaces
p3786
aVhttp://dbpedia.org/ontology/education
p3787
aVhttp://dbpedia.org/property/destination
p3788
aVhttp://dbpedia.org/property/locationCity
p3789
aVhttp://dbpedia.org/property/nat
p3790
aVhttp://dbpedia.org/property/southwest
p3791
aVhttp://dbpedia.org/property/deathPlace
p3792
aVhttp://dbpedia.org/property/subsid
p3793
aVhttp://dbpedia.org/property/rd5t1Loc
p3794
aVhttp://dbpedia.org/property/rd4t2Loc
p3795
aVhttp://dbpedia.org/property/territory
p3796
aVhttp://dbpedia.org/property/terminusA
p3797
aVhttp://dbpedia.org/ontology/battle
p3798
aVhttp://dbpedia.org/property/almaMater
p3799
aVhttp://dbpedia.org/ontology/occupation
p3800
aVhttp://dbpedia.org/property/ground
p3801
aVhttp://dbpedia.org/property/ethnicity
p3802
aVhttp://dbpedia.org/property/countryOfProduction
p3803
aVhttp://dbpedia.org/property/product
p3804
aVhttp://dbpedia.org/property/raisedIn
p3805
aVhttp://dbpedia.org/property/debuts
p3806
aVhttp://dbpedia.org/property/genre
p3807
aVhttp://dbpedia.org/property/setIn
p3808
aVhttp://dbpedia.org/property/timeZone
p3809
aVhttp://dbpedia.org/property/occupation
p3810
aVhttp://dbpedia.org/property/footnoteA
p3811
aVhttp://dbpedia.org/ontology/secondDriverCountry
p3812
aVhttp://dbpedia.org/property/footnoteC
p3813
aVhttp://dbpedia.org/property/footnoteB
p3814
aVhttp://dbpedia.org/property/shipFlag
p3815
aVhttp://dbpedia.org/property/footnoteD
p3816
aVhttp://dbpedia.org/property/league
p3817
aVhttp://dbpedia.org/property/team
p3818
aVhttp://dbpedia.org/property/asianPlaceQ
p3819
aVhttp://dbpedia.org/ontology/thirdDriverCountry
p3820
aVhttp://dbpedia.org/ontology/leaderTitle
p3821
aVhttp://dbpedia.org/property/2rpt1Loc
p3822
aVhttp://dbpedia.org/property/aux
p3823
aVhttp://dbpedia.org/property/placeofburial
p3824
aVhttp://dbpedia.org/property/upperHouse
p3825
aVhttp://dbpedia.org/property/formercountry
p3826
aVhttp://dbpedia.org/property/locations
p3827
aVhttp://dbpedia.org/property/membership
p3828
aVhttp://dbpedia.org/property/parties
p3829
aVhttp://dbpedia.org/property/available
p3830
aVhttp://dbpedia.org/ontology/populationPlace
p3831
aVhttp://dbpedia.org/property/combatant
p3832
aVhttp://dbpedia.org/property/after
p3833
aVhttp://dbpedia.org/ontology/place
p3834
aVhttp://dbpedia.org/property/office
p3835
aVhttp://dbpedia.org/property/nationality
p3836
aVhttp://dbpedia.org/property/imageFlag
p3837
aVhttp://dbpedia.org/property/rd1t4Loc
p3838
aVhttp://dbpedia.org/property/nearestCity
p3839
aVhttp://dbpedia.org/property/publisherOther
p3840
aVhttp://dbpedia.org/property/network
p3841
aVhttp://dbpedia.org/property/stato
p3842
aVhttp://dbpedia.org/property/divisions
p3843
aVhttp://dbpedia.org/property/rd1t8Loc
p3844
aVhttp://purl.org/dc/terms/subject
p3845
aVhttp://dbpedia.org/property/locationOfDocument
p3846
aVhttp://dbpedia.org/property/lagePolitisch
p3847
aVhttp://dbpedia.org/property/rd2t2Loc
p3848
aVhttp://dbpedia.org/property/markets
p3849
aVhttp://dbpedia.org/property/campus
p3850
aVhttp://dbpedia.org/property/rd1t2Loc
p3851
aVhttp://dbpedia.org/property/rd1t7Loc
p3852
aVhttp://dbpedia.org/property/region
p3853
aVhttp://dbpedia.org/property/regions
p3854
aVhttp://dbpedia.org/property/rd3t2Loc
p3855
aVhttp://dbpedia.org/ontology/leader
p3856
aVhttp://dbpedia.org/property/asianPlaceF
p3857
aVhttp://dbpedia.org/property/rd1t6Loc
p3858
aVhttp://dbpedia.org/property/worldPlaceF
p3859
aVhttp://dbpedia.org/property/nearestTown
p3860
aVhttp://dbpedia.org/property/controlledby
p3861
aVhttp://dbpedia.org/ontology/sourceCountry
p3862
aVhttp://dbpedia.org/property/shipRegistry
p3863
aVhttp://dbpedia.org/property/locale
p3864
aVhttp://dbpedia.org/property/basinCountries
p3865
aVhttp://dbpedia.org/property/asianPlace
p3866
aVhttp://dbpedia.org/property/moreUsers
p3867
aVhttp://dbpedia.org/property/rd2t1Loc
p3868
aVhttp://dbpedia.org/property/opponents
p3869
aVhttp://dbpedia.org/property/canonizedPlace
p3870
aVhttp://dbpedia.org/property/location
p3871
aVhttp://dbpedia.org/property/deathplace
p3872
aVhttp://dbpedia.org/property/olympicPlace
p3873
aVhttp://dbpedia.org/property/rd1t1Loc
p3874
aVhttp://dbpedia.org/property/rd3t1Loc
p3875
aVhttp://dbpedia.org/property/demonym
p3876
aVhttp://dbpedia.org/property/remit
p3877
aVhttp://dbpedia.org/property/shipHomeport
p3878
aVhttp://dbpedia.org/ontology/position
p3879
aVhttp://dbpedia.org/ontology/builder
p3880
aVhttp://dbpedia.org/property/regionServed
p3881
aVhttp://www.w3.org/2002/07/owl#differentFrom
p3882
aVhttp://dbpedia.org/property/setting
p3883
aVhttp://dbpedia.org/ontology/locationCity
p3884
aVhttp://dbpedia.org/property/buried
p3885
aVhttp://dbpedia.org/ontology/thumbnail
p3886
asI5
(lp3887
Vhttp://dbpedia.org/property/origin
p3888
aVhttp://dbpedia.org/ontology/country
p3889
aVhttp://dbpedia.org/ontology/hometown
p3890
aVhttp://dbpedia.org/property/country
p3891
asI6
(lp3892
Vhttp://dbpedia.org/property/origin
p3893
aVhttp://dbpedia.org/property/placeOfDeath
p3894
aVhttp://dbpedia.org/property/broadcastArea
p3895
aVhttp://dbpedia.org/ontology/PopulatedPlace/areaTotal
p3896
aVhttp://dbpedia.org/ontology/garrison
p3897
aVhttp://dbpedia.org/property/ethnicity
p3898
aVhttp://dbpedia.org/property/1rpt2Loc
p3899
aVhttp://dbpedia.org/ontology/fastestDriverCountry
p3900
aVhttp://dbpedia.org/property/city
p3901
aVhttp://dbpedia.org/property/assembly
p3902
aVhttp://dbpedia.org/ontology/nationality
p3903
aVhttp://dbpedia.org/property/placeOfBirth
p3904
aVhttp://dbpedia.org/property/rallybase
p3905
aVhttp://dbpedia.org/property/popmax
p3906
aVhttp://dbpedia.org/property/siteCityst
p3907
aVhttp://dbpedia.org/property/primaryUser
p3908
aVhttp://dbpedia.org/property/nationality
p3909
aVhttp://dbpedia.org/ontology/abstract
p3910
aVhttp://dbpedia.org/ontology/recordedIn
p3911
aVhttp://dbpedia.org/property/venue
p3912
aVhttp://dbpedia.org/property/gdpPpp
p3913
aVhttp://dbpedia.org/property/usedBy
p3914
aVhttp://dbpedia.org/property/beatifiedPlace
p3915
aVhttp://dbpedia.org/property/nationalOrigin
p3916
aVhttp://www.georss.org/georss/point
p3917
aVhttp://dbpedia.org/property/shipBuilder
p3918
aVhttp://dbpedia.org/ontology/location
p3919
aVhttp://dbpedia.org/property/countriesAffected
p3920
aVhttp://dbpedia.org/property/finish
p3921
aVhttp://dbpedia.org/ontology/hometown
p3922
aVhttp://dbpedia.org/ontology/restingPlace
p3923
aVhttp://dbpedia.org/property/rd4t1Loc
p3924
aVhttp://dbpedia.org/property/hostCity
p3925
aVhttp://dbpedia.org/property/deathDate
p3926
aVhttp://dbpedia.org/ontology/poleDriverCountry
p3927
aVhttp://dbpedia.org/property/rd2t3Loc
p3928
aVhttp://dbpedia.org/property/placeOfBurial
p3929
aVhttp://dbpedia.org/property/site
p3930
aVhttp://dbpedia.org/property/rd1t4Loc
p3931
aVhttp://dbpedia.org/ontology/country
p3932
aVhttp://dbpedia.org/property/returns
p3933
aVhttp://dbpedia.org/property/home
p3934
aVhttp://dbpedia.org/property/championshipPlace
p3935
aVhttp://dbpedia.org/property/birthPlace
p3936
aVhttp://dbpedia.org/property/stateParty
p3937
aVhttp://dbpedia.org/property/country
p3938
aVhttp://dbpedia.org/ontology/firstDriverCountry
p3939
aVhttp://dbpedia.org/property/worldPlaceQ
p3940
aVhttp://dbpedia.org/property/states
p3941
aVhttp://dbpedia.org/ontology/builder
p3942
aVhttp://dbpedia.org/ontology/deathPlace
p3943
aVhttp://dbpedia.org/ontology/birthPlace
p3944
aVhttp://dbpedia.org/ontology/locationCountry
p3945
aVhttp://purl.org/voc/vrank#hasRank
p3946
aVhttp://dbpedia.org/property/citizenship
p3947
aVhttp://dbpedia.org/property/host
p3948
aVhttp://dbpedia.org/property/asianPlace
p3949
aVhttp://www.w3.org/2002/07/owl#sameAs
p3950
aVhttp://dbpedia.org/property/recorded
p3951
aVhttp://dbpedia.org/ontology/origin
p3952
aVhttp://dbpedia.org/property/worldPlace
p3953
aVhttp://dbpedia.org/property/populationEstimateRank
p3954
aVhttp://www.w3.org/1999/02/22-rdf-syntax-ns#type
p3955
aVhttp://dbpedia.org/property/locationCountry
p3956
aVhttp://dbpedia.org/ontology/secondDriverCountry
p3957
aVhttp://dbpedia.org/property/rd1t2Loc
p3958
aVhttp://dbpedia.org/ontology/ground
p3959
aVhttp://dbpedia.org/property/withdraws
p3960
aVhttp://dbpedia.org/ontology/stateOfOrigin
p3961
aVhttp://dbpedia.org/property/countries
p3962
aVhttp://dbpedia.org/property/l
p3963
aVhttp://dbpedia.org/property/gdpNominal
p3964
aVhttp://dbpedia.org/property/gdpNominalPerCapita
p3965
aVhttp://dbpedia.org/ontology/city
p3966
aVhttp://dbpedia.org/property/fullname
p3967
aVhttp://dbpedia.org/property/shipCountry
p3968
aVhttp://dbpedia.org/property/rd5t1Loc
p3969
aVhttp://dbpedia.org/property/stadium
p3970
aVhttp://dbpedia.org/ontology/countryWithFirstAstronaut
p3971
aVhttp://dbpedia.org/property/terminusA
p3972
aVhttp://dbpedia.org/property/ground
p3973
aVhttp://dbpedia.org/property/deathPlace
p3974
aVhttp://dbpedia.org/property/place
p3975
aVhttp://dbpedia.org/property/debuts
p3976
aVhttp://dbpedia.org/property/utcOffsetDst
p3977
aVhttp://dbpedia.org/ontology/battle
p3978
aVhttp://dbpedia.org/property/caption
p3979
aVhttp://dbpedia.org/property/footnoteB
p3980
aVhttp://dbpedia.org/ontology/PopulatedPlace/populationDensity
p3981
aVhttp://dbpedia.org/property/team
p3982
aVhttp://dbpedia.org/property/asianPlaceQ
p3983
aVhttp://dbpedia.org/ontology/thirdDriverCountry
p3984
aVhttp://dbpedia.org/property/2rpt1Loc
p3985
aVhttp://dbpedia.org/property/locations
p3986
aVhttp://dbpedia.org/property/image
p3987
aVhttp://dbpedia.org/ontology/place
p3988
aVhttp://dbpedia.org/property/asianPlaceF
p3989
aVhttp://purl.org/dc/terms/subject
p3990
aVhttp://dbpedia.org/property/battles
p3991
aVhttp://dbpedia.org/property/rd2t2Loc
p3992
aVhttp://dbpedia.org/property/location
p3993
aVhttp://dbpedia.org/property/cityServed
p3994
aVhttp://dbpedia.org/property/rd3t2Loc
p3995
aVhttp://dbpedia.org/ontology/headquarter
p3996
aVhttp://dbpedia.org/property/rd1t6Loc
p3997
aVhttp://dbpedia.org/property/worldPlaceF
p3998
aVhttp://dbpedia.org/ontology/language
p3999
aVhttp://dbpedia.org/ontology/broadcastArea
p4000
aVhttp://dbpedia.org/property/locale
p4001
aVhttp://dbpedia.org/property/garrison
p4002
aVhttp://dbpedia.org/ontology/assembly
p4003
aVhttp://dbpedia.org/property/rd2t1Loc
p4004
aVhttp://www.w3.org/2000/01/rdf-schema#comment
p4005
aVhttp://dbpedia.org/property/olympicPlace
p4006
aVhttp://dbpedia.org/property/rd1t1Loc
p4007
aVhttp://dbpedia.org/property/rd3t1Loc
p4008
aVhttp://dbpedia.org/property/network
p4009
aVhttp://dbpedia.org/property/populationCensusRank
p4010
aVhttp://dbpedia.org/property/setting
p4011
asI7
(lp4012
Vhttp://dbpedia.org/property/origin
p4013
aVhttp://dbpedia.org/property/ground
p4014
aVhttp://dbpedia.org/ontology/origin
p4015
aVhttp://dbpedia.org/property/deathDate
p4016
aVhttp://dbpedia.org/property/place
p4017
aVhttp://dbpedia.org/ontology/locatedInArea
p4018
aVhttp://dbpedia.org/ontology/country
p4019
aVhttp://www.w3.org/1999/02/22-rdf-syntax-ns#type
p4020
aVhttp://dbpedia.org/ontology/ground
p4021
aVhttp://dbpedia.org/ontology/place
p4022
aVhttp://dbpedia.org/property/placeOfBirth
p4023
aVhttp://dbpedia.org/property/country
p4024
aVhttp://dbpedia.org/property/popmax
p4025
aVhttp://purl.org/dc/terms/subject
p4026
aVhttp://dbpedia.org/ontology/abstract
p4027
aVhttp://dbpedia.org/ontology/recordedIn
p4028
aVhttp://dbpedia.org/property/location
p4029
aVhttp://dbpedia.org/ontology/headquarter
p4030
aVhttp://dbpedia.org/property/usedBy
p4031
aVhttp://dbpedia.org/property/nationalOrigin
p4032
aVhttp://dbpedia.org/property/headquarters
p4033
aVhttp://www.w3.org/2000/01/rdf-schema#comment
p4034
aVhttp://dbpedia.org/ontology/birthPlace
p4035
aVhttp://dbpedia.org/property/countriesAffected
p4036
aVhttp://dbpedia.org/ontology/hometown
p4037
aVhttp://dbpedia.org/ontology/deathPlace
p4038
assI2
(dp4039
I0
g3479
sI1
g3489
sI2
(lp4040
sI3
(lp4041
sI4
(lp4042
Vhttp://www.w3.org/1999/02/22-rdf-syntax-ns#type
p4043
aVhttp://purl.org/dc/terms/subject
p4044
aVhttp://www.w3.org/2000/01/rdf-schema#comment
p4045
aVhttp://dbpedia.org/ontology/abstract
p4046
aVhttp://dbpedia.org/ontology/wikiPageRedirects
p4047
aVhttp://dbpedia.org/property/parentopening
p4048
aVhttp://dbpedia.org/property/hasPhotoCollection
p4049
aVhttp://dbpedia.org/ontology/wikiPageDisambiguates
p4050
aVhttp://www.w3.org/2002/07/owl#sameAs
p4051
asI5
(lp4052
sI6
(lp4053
Vhttp://www.w3.org/1999/02/22-rdf-syntax-ns#type
p4054
aVhttp://www.w3.org/2000/01/rdf-schema#comment
p4055
aVhttp://dbpedia.org/property/chessgid
p4056
aVhttp://dbpedia.org/ontology/abstract
p4057
aVhttp://www.w3.org/ns/prov#wasDerivedFrom
p4058
aVhttp://www.w3.org/2002/07/owl#sameAs
p4059
asI7
(lp4060
Vhttp://www.w3.org/ns/prov#wasDerivedFrom
p4061
assI3
(dp4062
I0
g3481
sI1
g3558
sI2
g4041
sI3
(lp4063
sI4
(lp4064
Vhttp://purl.org/dc/elements/1.1/description
p4065
aVhttp://dbpedia.org/ontology/musicalArtist
p4066
aVhttp://dbpedia.org/ontology/musicalBand
p4067
aVhttp://dbpedia.org/ontology/background
p4068
aVhttp://dbpedia.org/property/occupation
p4069
aVhttp://dbpedia.org/property/background
p4070
aVhttp://www.w3.org/1999/02/22-rdf-syntax-ns#type
p4071
aVhttp://dbpedia.org/property/after
p4072
aVhttp://dbpedia.org/property/shortDescription
p4073
aVhttp://dbpedia.org/property/artist
p4074
aVhttp://purl.org/dc/terms/subject
p4075
aVhttp://dbpedia.org/ontology/abstract
p4076
aVhttp://xmlns.com/foaf/0.1/depiction
p4077
aVhttp://dbpedia.org/property/presenters
p4078
aVhttp://dbpedia.org/ontology/thumbnail
p4079
aVhttp://dbpedia.org/property/hasPhotoCollection
p4080
aVhttp://dbpedia.org/property/title
p4081
aVhttp://dbpedia.org/property/entrant
p4082
aVhttp://www.w3.org/2000/01/rdf-schema#comment
p4083
aVhttp://dbpedia.org/property/before
p4084
aVhttp://dbpedia.org/ontology/hometown
p4085
aVhttp://www.w3.org/2002/07/owl#sameAs
p4086
asI5
(lp4087
sI6
(lp4088
Vhttp://dbpedia.org/ontology/abstract
p4089
aVhttp://www.w3.org/1999/02/22-rdf-syntax-ns#type
p4090
aVhttp://www.w3.org/2002/07/owl#sameAs
p4091
aVhttp://www.w3.org/2000/01/rdf-schema#comment
p4092
asI7
(lp4093
ssI4
(dp4094
I0
g3482
sI1
g3559
sI2
g4042
sI3
g4064
sI4
(lp4095
sI5
(lp4096
Vhttp://dbpedia.org/ontology/associatedMusicalArtist
p4097
aVhttp://dbpedia.org/ontology/recordLabel
p4098
aVhttp://dbpedia.org/property/producer
p4099
aVhttp://dbpedia.org/property/currentMembers
p4100
aVhttp://dbpedia.org/property/name
p4101
aVhttp://dbpedia.org/property/genre
p4102
aVhttp://dbpedia.org/ontology/musicalBand
p4103
aVhttp://www.w3.org/ns/prov#wasDerivedFrom
p4104
aVhttp://dbpedia.org/property/caption
p4105
aVhttp://dbpedia.org/ontology/bandMember
p4106
aVhttp://dbpedia.org/ontology/producer
p4107
aVhttp://dbpedia.org/property/label
p4108
aVhttp://dbpedia.org/ontology/picture
p4109
aVhttp://www.w3.org/1999/02/22-rdf-syntax-ns#type
p4110
aVhttp://dbpedia.org/property/landscape
p4111
aVhttp://dbpedia.org/ontology/alias
p4112
aVhttp://dbpedia.org/property/quote
p4113
aVhttp://dbpedia.org/property/music
p4114
aVhttp://dbpedia.org/property/wordnet_type
p4115
aVhttp://dbpedia.org/property/source
p4116
aVhttp://dbpedia.org/ontology/writer
p4117
aVhttp://xmlns.com/foaf/0.1/isPrimaryTopicOf
p4118
aVhttp://dbpedia.org/property/artist
p4119
aVhttp://dbpedia.org/property/associatedActs
p4120
aVhttp://dbpedia.org/ontology/wikiPageDisambiguates
p4121
aVhttp://dbpedia.org/ontology/wikiPageExternalLink
p4122
aVhttp://xmlns.com/foaf/0.1/primaryTopic
p4123
aVhttp://purl.org/dc/terms/subject
p4124
aVhttp://dbpedia.org/property/pastMembers
p4125
aVhttp://dbpedia.org/ontology/abstract
p4126
aVhttp://xmlns.com/foaf/0.1/depiction
p4127
aVhttp://dbpedia.org/property/extra
p4128
aVhttp://dbpedia.org/ontology/thumbnail
p4129
aVhttp://dbpedia.org/property/alias
p4130
aVhttp://dbpedia.org/property/hasPhotoCollection
p4131
aVhttp://www.w3.org/2000/01/rdf-schema#label
p4132
aVhttp://dbpedia.org/ontology/musicalArtist
p4133
aVhttp://dbpedia.org/ontology/genre
p4134
aVhttp://www.w3.org/2000/01/rdf-schema#comment
p4135
aVhttp://dbpedia.org/ontology/formerBandMember
p4136
aVhttp://dbpedia.org/ontology/wikiPageRedirects
p4137
aVhttp://dbpedia.org/ontology/artist
p4138
aVhttp://xmlns.com/foaf/0.1/name
p4139
aVhttp://xmlns.com/foaf/0.1/homepage
p4140
aVhttp://dbpedia.org/ontology/associatedBand
p4141
aVhttp://www.w3.org/2002/07/owl#sameAs
p4142
asI6
(lp4143
sI7
(lp4144
ssI5
(dp4145
I0
g3483
sI1
g3887
sI2
g4052
sI3
g4087
sI4
g4096
sI5
(lp4146
sI6
(lp4147
Vhttp://dbpedia.org/ontology/wikiPageExternalLink
p4148
aVhttp://dbpedia.org/ontology/nlaId
p4149
aVhttp://www.w3.org/1999/02/22-rdf-syntax-ns#type
p4150
aVhttp://dbpedia.org/property/producer
p4151
aVhttp://www.w3.org/2000/01/rdf-schema#comment
p4152
aVhttp://dbpedia.org/ontology/abstract
p4153
aVhttp://dbpedia.org/property/music
p4154
aVhttp://dbpedia.org/ontology/artist
p4155
aVhttp://dbpedia.org/property/wordnet_type
p4156
aVhttp://purl.org/voc/vrank#hasRank
p4157
aVhttp://www.w3.org/2002/07/owl#sameAs
p4158
aVhttp://dbpedia.org/property/bne
p4159
aVhttp://dbpedia.org/property/artist
p4160
aVhttp://dbpedia.org/ontology/producer
p4161
asI7
(lp4162
Vhttp://www.w3.org/ns/prov#wasDerivedFrom
p4163
aVhttp://www.w3.org/2002/07/owl#sameAs
p4164
assI6
(dp4165
I0
g3485
sI1
g3892
sI2
g4053
sI3
g4088
sI4
g4143
sI5
g4147
sI6
(lp4166
sI7
(lp4167
ssI7
(dp4168
I0
g3486
sI1
g4012
sI2
g4060
sI3
g4093
sI4
g4144
sI5
g4162
sI6
g4167
sI7
(lp4169
ssa.