(lp1
(lp2
(lp3
a(lp4
Vhttp://dbpedia.org/resource/OMV
p5
aa(lp6
Vhttp://dbpedia.org/resource/Austria
p7
aa(lp8
a(lp9
a(lp10
a(lp11
a(lp12
aa(lp13
(lp14
a(lp15
Vhttp://dbpedia.org/resource/Erste_Group
p16
aa(lp17
Vhttp://dbpedia.org/resource/Austria
p18
aa(lp19
Vhttp://dbpedia.org/resource/Bank
p20
aa(lp21
a(lp22
a(lp23
a(lp24
aa(lp25
(lp26
a(lp27
Vhttp://dbpedia.org/resource/Verbund
p28
aa(lp29
Vhttp://dbpedia.org/resource/Austria
p30
aa(lp31
Vhttp://dbpedia.org/resource/Public_utility
p32
aa(lp33
a(lp34
a(lp35
a(lp36
aa(lp37
(lp38
a(lp39
a(lp40
Vhttp://dbpedia.org/resource/Austria
p41
aa(lp42
Vhttp://dbpedia.org/resource/Bank
p43
aa(lp44
a(lp45
a(lp46
a(lp47
aa(lp48
(lp49
a(lp50
Vhttp://dbpedia.org/resource/Telekom_Austria
p51
aa(lp52
Vhttp://dbpedia.org/resource/Austria
p53
aa(lp54
Vhttp://dbpedia.org/resource/Telecommunications_service_provider
p55
aa(lp56
a(lp57
a(lp58
a(lp59
aa(lp60
(lp61
a(lp62
Vhttp://dbpedia.org/resource/Vienna_Insurance_Group
p63
aa(lp64
Vhttp://dbpedia.org/resource/Austria
p65
aa(lp66
Vhttp://dbpedia.org/resource/Insurance
p67
aa(lp68
a(lp69
a(lp70
a(lp71
aa(lp72
(lp73
a(lp74
Vhttp://dbpedia.org/resource/Voestalpine
p75
aa(lp76
Vhttp://dbpedia.org/resource/Austria
p77
aa(lp78
Vhttp://dbpedia.org/resource/Materials_(journal)
p79
aa(lp80
a(lp81
a(lp82
a(lp83
aa(lp84
(lp85
a(lp86
Vhttp://dbpedia.org/resource/European_VLBI_Network
p87
aa(lp88
Vhttp://dbpedia.org/resource/Austria
p89
aa(lp90
Vhttp://dbpedia.org/resource/Public_utility
p91
aa(lp92
a(lp93
a(lp94
a(lp95
aa(lp96
(lp97
a(lp98
a(lp99
Vhttp://dbpedia.org/resource/Austria
p100
aa(lp101
Vhttp://dbpedia.org/resource/Insurance
p102
aa(lp103
a(lp104
a(lp105
a(lp106
aa(lp107
(lp108
a(lp109
a(lp110
Vhttp://dbpedia.org/resource/Austria
p111
aa(lp112
Vhttp://dbpedia.org/resource/Bank
p113
aa(lp114
a(lp115
a(lp116
a(lp117
aa.