(lp1
(lp2
(dp3
Vstart
p4
I0
sVdisambiguatedURL
p5
Vhttp://dbpedia.org/resource/Null
p6
sVnamedEntity
p7
VNULL
p8
sVoffset
p9
I4
saa(lp10
(dp11
Vstart
p12
I0
sVdisambiguatedURL
p13
Vhttp://dbpedia.org/resource/Null
p14
sVnamedEntity
p15
VNULL
p16
sVoffset
p17
I4
saa(lp18
(dp19
Vstart
p20
I0
sVdisambiguatedURL
p21
NsVnamedEntity
p22
Vvisits
p23
sVoffset
p24
I6
saa(lp25
(dp26
Vstart
p27
I0
sVdisambiguatedURL
p28
Vhttp://dbpedia.org/resource/Null
p29
sVnamedEntity
p30
VNULL
p31
sVoffset
p32
I4
saa(lp33
(dp34
Vstart
p35
I0
sVdisambiguatedURL
p36
NsVnamedEntity
p37
Vstats
p38
sVoffset
p39
I5
saa.