(lp1
(dp2
I0
(dp3
I0
(lp4
sI1
(lp5
sI2
(lp6
sI3
(lp7
sI4
(lp8
sI5
(lp9
ssI1
(dp10
I0
g5
sI1
(lp11
sI2
(lp12
sI3
(lp13
sI4
(lp14
sI5
(lp15
ssI2
(dp16
I0
g6
sI1
g12
sI2
(lp17
sI3
(lp18
sI4
(lp19
sI5
(lp20
ssI3
(dp21
I0
g7
sI1
g13
sI2
g18
sI3
(lp22
sI4
(lp23
sI5
(lp24
ssI4
(dp25
I0
g8
sI1
g14
sI2
g19
sI4
(lp26
sI5
(lp27
ssI5
(dp28
I0
g9
sI1
g15
sI2
g20
sI3
g24
sI4
g27
sI5
(lp29
ssa(dp30
I0
(dp31
I0
(lp32
sI1
(lp33
sI2
(lp34
sI3
(lp35
sI4
(lp36
sI5
(lp37
ssI1
(dp38
I0
g33
sI1
(lp39
sI2
(lp40
sI3
(lp41
sI4
(lp42
sI5
(lp43
ssI2
(dp44
I0
g34
sI1
g40
sI2
(lp45
sI3
(lp46
sI4
(lp47
sI5
(lp48
ssI3
(dp49
I0
g35
sI1
g41
sI2
g46
sI3
(lp50
sI4
(lp51
sI5
(lp52
ssI4
(dp53
I0
g36
sI1
g42
sI2
g47
sI3
g51
sI4
(lp54
sI5
(lp55
ssI5
(dp56
I0
g37
sI1
g43
sI2
g48
sI3
g52
sI4
g55
sI5
(lp57
ssa(dp58
I0
(dp59
I0
(lp60
sI1
(lp61
Vhttp://dbpedia.org/property/origin
p62
aVhttp://dbpedia.org/property/placeOfDeath
p63
aVhttp://dbpedia.org/property/broadcastArea
p64
aVhttp://dbpedia.org/property/locations
p65
aVhttp://dbpedia.org/property/represented
p66
aVhttp://dbpedia.org/ontology/PopulatedPlace/areaTotal
p67
aVhttp://dbpedia.org/ontology/garrison
p68
aVhttp://dbpedia.org/ontology/city
p69
aVhttp://dbpedia.org/property/territory
p70
aVhttp://dbpedia.org/ontology/routeEnd
p71
aVhttp://dbpedia.org/ontology/format
p72
aVhttp://dbpedia.org/property/areaRank
p73
aVhttp://dbpedia.org/property/firstRun
p74
aVhttp://dbpedia.org/property/assembly
p75
aVhttp://dbpedia.org/ontology/isPartOf
p76
aVhttp://dbpedia.org/ontology/nationality
p77
aVhttp://dbpedia.org/property/shortDescription
p78
aVhttp://dbpedia.org/property/placeOfBirth
p79
aVhttp://dbpedia.org/property/hometown
p80
aVhttp://dbpedia.org/property/nat
p81
aVhttp://dbpedia.org/property/regionalScenes
p82
aVhttp://dbpedia.org/property/primaryUser
p83
aVhttp://dbpedia.org/property/nationality
p84
aVhttp://dbpedia.org/ontology/abstract
p85
aVhttp://dbpedia.org/ontology/recordedIn
p86
aVhttp://dbpedia.org/property/venue
p87
aVhttp://dbpedia.org/property/usedBy
p88
aVhttp://dbpedia.org/property/nationalOrigin
p89
aVhttp://www.georss.org/georss/point
p90
aVhttp://dbpedia.org/property/shipBuilder
p91
aVhttp://dbpedia.org/ontology/location
p92
aVhttp://dbpedia.org/property/city
p93
aVhttp://dbpedia.org/property/countriesAffected
p94
aVhttp://dbpedia.org/property/factory
p95
aVhttp://dbpedia.org/property/area
p96
aVhttp://dbpedia.org/ontology/hometown
p97
aVhttp://dbpedia.org/property/foundingLocation
p98
aVhttp://www.w3.org/2000/01/rdf-schema#seeAlso
p99
aVhttp://dbpedia.org/property/hostCity
p100
aVhttp://dbpedia.org/property/deathDate
p101
aVhttp://dbpedia.org/property/discoverer
p102
aVhttp://dbpedia.org/ontology/foundationPlace
p103
aVhttp://dbpedia.org/property/countryOfOrigin
p104
aVhttp://dbpedia.org/property/birthplace
p105
aVhttp://dbpedia.org/ontology/locatedInArea
p106
aVhttp://dbpedia.org/property/site
p107
aVhttp://dbpedia.org/property/rd1t4Loc
p108
aVhttp://dbpedia.org/ontology/country
p109
aVhttp://dbpedia.org/property/returns
p110
aVhttp://dbpedia.org/property/home
p111
aVhttp://dbpedia.org/property/championshipPlace
p112
aVhttp://dbpedia.org/property/discoverySite
p113
aVhttp://dbpedia.org/property/birthPlace
p114
aVhttp://dbpedia.org/property/country
p115
aVhttp://dbpedia.org/ontology/regionServed
p116
aVhttp://dbpedia.org/property/areaServed
p117
aVhttp://dbpedia.org/ontology/wikiPageExternalLink
p118
aVhttp://dbpedia.org/property/runnersUp
p119
aVhttp://dbpedia.org/property/location
p120
aVhttp://dbpedia.org/property/states
p121
aVhttp://dbpedia.org/ontology/locationCountry
p122
aVhttp://dbpedia.org/property/race
p123
aVhttp://dbpedia.org/ontology/deathPlace
p124
aVhttp://dbpedia.org/property/resides
p125
aVhttp://dbpedia.org/property/hasPhotoCollection
p126
aVhttp://dbpedia.org/property/headquarters
p127
aVhttp://dbpedia.org/ontology/birthPlace
p128
aVhttp://dbpedia.org/ontology/wikiPageRedirects
p129
aVhttp://purl.org/voc/vrank#hasRank
p130
aVhttp://dbpedia.org/property/citizenship
p131
aVhttp://dbpedia.org/property/quays
p132
aVhttp://dbpedia.org/property/deathPlace
p133
aVhttp://dbpedia.org/property/asianPlace
p134
aVhttp://dbpedia.org/property/residence
p135
aVhttp://www.w3.org/2002/07/owl#sameAs
p136
aVhttp://dbpedia.org/property/areas
p137
aVhttp://dbpedia.org/ontology/secondDriverCountry
p138
aVhttp://dbpedia.org/property/recorded
p139
aVhttp://dbpedia.org/ontology/origin
p140
aVhttp://dbpedia.org/property/worldPlace
p141
aVhttp://dbpedia.org/property/countryOrigin
p142
aVhttp://dbpedia.org/property/populationEstimateRank
p143
aVhttp://dbpedia.org/property/opponents
p144
aVhttp://dbpedia.org/property/publisherEn
p145
aVhttp://www.w3.org/1999/02/22-rdf-syntax-ns#type
p146
aVhttp://dbpedia.org/property/locationCountry
p147
aVhttp://dbpedia.org/property/education
p148
aVhttp://dbpedia.org/property/rd1t2Loc
p149
aVhttp://dbpedia.org/property/withdraws
p150
aVhttp://dbpedia.org/ontology/education
p151
aVhttp://dbpedia.org/property/winnerOrigin
p152
aVhttp://dbpedia.org/property/twin1Country
p153
aVhttp://dbpedia.org/property/shipCountry
p154
aVhttp://dbpedia.org/property/co
p155
aVhttp://dbpedia.org/ontology/countryOrigin
p156
aVhttp://dbpedia.org/property/locationSigned
p157
aVhttp://dbpedia.org/property/fightingOutOf
p158
aVhttp://dbpedia.org/ontology/thumbnail
p159
aVhttp://dbpedia.org/property/homeTown
p160
aVhttp://dbpedia.org/ontology/routeStart
p161
aVhttp://dbpedia.org/property/subdivisionName
p162
aVhttp://dbpedia.org/ontology/homeport
p163
aVhttp://dbpedia.org/property/highestLocation
p164
aVhttp://dbpedia.org/property/popplace
p165
aVhttp://www.w3.org/2000/01/rdf-schema#comment
p166
aVhttp://dbpedia.org/property/destination
p167
aVhttp://dbpedia.org/property/locationCity
p168
aVhttp://dbpedia.org/property/establishedEvent
p169
aVhttp://dbpedia.org/ontology/broadcastArea
p170
aVhttp://dbpedia.org/property/stadium
p171
aVhttp://dbpedia.org/property/significantBuildings
p172
aVhttp://dbpedia.org/property/satServ
p173
aVhttp://dbpedia.org/property/place
p174
aVhttp://dbpedia.org/property/publishingCountry
p175
aVhttp://dbpedia.org/property/debuts
p176
aVhttp://dbpedia.org/ontology/PopulatedPlace/populationDensity
p177
aVhttp://dbpedia.org/property/asianPlaceQ
p178
aVhttp://dbpedia.org/property/allegiance
p179
aVhttp://dbpedia.org/property/countryOfProduction
p180
aVhttp://dbpedia.org/property/available
p181
aVhttp://dbpedia.org/ontology/place
p182
aVhttp://dbpedia.org/property/asianPlaceF
p183
aVhttp://dbpedia.org/property/gdpNominalPerCapita
p184
aVhttp://dbpedia.org/property/nearestCity
p185
aVhttp://dbpedia.org/property/tv
p186
aVhttp://dbpedia.org/property/manufacturer
p187
aVhttp://dbpedia.org/property/rd2t2Loc
p188
aVhttp://dbpedia.org/property/markets
p189
aVhttp://dbpedia.org/property/state
p190
aVhttp://dbpedia.org/property/region
p191
aVhttp://dbpedia.org/property/cityServed
p192
aVhttp://dbpedia.org/ontology/headquarter
p193
aVhttp://dbpedia.org/property/foundation
p194
aVhttp://dbpedia.org/property/worldPlaceF
p195
aVhttp://dbpedia.org/property/title
p196
aVhttp://dbpedia.org/property/locale
p197
aVhttp://dbpedia.org/property/basinCountries
p198
aVhttp://dbpedia.org/ontology/assembly
p199
aVhttp://dbpedia.org/property/rd2t1Loc
p200
aVhttp://dbpedia.org/property/address
p201
aVhttp://dbpedia.org/ontology/releaseLocation
p202
aVhttp://dbpedia.org/property/olympicPlace
p203
aVhttp://dbpedia.org/property/rd1t1Loc
p204
aVhttp://dbpedia.org/property/rd3t1Loc
p205
aVhttp://dbpedia.org/property/femaleIndividualChampionTeam
p206
aVhttp://dbpedia.org/property/championOther
p207
aVhttp://dbpedia.org/property/south
p208
aVhttp://dbpedia.org/property/regionServed
p209
aVhttp://dbpedia.org/property/data
p210
asI2
(lp211
sI3
(lp212
sI4
(lp213
sI5
(lp214
ssI1
(dp215
I0
g61
sI1
(lp216
sI2
(lp217
sI3
(lp218
sI4
(lp219
sI5
(lp220
ssI2
(dp221
I0
g211
sI1
g217
sI2
(lp222
sI3
(lp223
sI4
(lp224
sI5
(lp225
ssI3
(dp226
I0
g212
sI1
g218
sI2
g223
sI3
(lp227
sI4
(lp228
sI5
(lp229
ssI4
(dp230
I0
g213
sI1
g219
sI2
g224
sI3
g228
sI4
(lp231
sI5
(lp232
ssI5
(dp233
I0
g214
sI1
g220
sI2
g225
sI3
g229
sI4
g232
sI5
(lp234
ssa(dp235
I0
(dp236
I0
(lp237
sI1
(lp238
sI2
(lp239
sI3
(lp240
sI4
(lp241
sI5
(lp242
ssI1
(dp243
I0
g238
sI1
(lp244
sI2
(lp245
sI3
(lp246
sI4
(lp247
sI5
(lp248
ssI2
(dp249
I0
g239
sI1
g245
sI2
(lp250
sI3
(lp251
sI4
(lp252
sI5
(lp253
ssI3
(dp254
I0
g240
sI1
g246
sI2
g251
sI3
(lp255
sI4
(lp256
sI5
(lp257
ssI4
(dp258
I0
g241
sI1
g247
sI2
g252
sI3
g256
sI4
(lp259
sI5
(lp260
ssI5
(dp261
I0
g242
sI1
g248
sI2
g253
sI3
g257
sI4
g260
sI5
(lp262
ssa(dp263
I0
(dp264
I0
(lp265
sI1
(lp266
sI2
(lp267
sI3
(lp268
sI4
(lp269
sI5
(lp270
ssI1
(dp271
I0
g266
sI1
(lp272
sI2
(lp273
sI3
(lp274
sI4
(lp275
sI5
(lp276
ssI2
(dp277
I0
g267
sI1
g273
sI2
(lp278
sI3
(lp279
sI4
(lp280
sI5
(lp281
ssI3
(dp282
I0
g268
sI1
g274
sI2
g279
sI3
(lp283
sI4
(lp284
sI5
(lp285
ssI4
(dp286
I0
g269
sI1
g275
sI2
g280
sI3
g284
sI4
(lp287
sI5
(lp288
ssI5
(dp289
I0
g270
sI1
g276
sI2
g281
sI3
g285
sI4
g288
sI5
(lp290
ssa(dp291
I0
(dp292
I0
(lp293
sI1
(lp294
sI2
(lp295
sI3
(lp296
sI4
(lp297
sI5
(lp298
ssI1
(dp299
I0
g294
sI1
(lp300
sI2
(lp301
sI3
(lp302
sI4
(lp303
sI5
(lp304
ssI2
(dp305
I0
g295
sI1
g301
sI2
(lp306
sI3
(lp307
sI4
(lp308
sI5
(lp309
ssI3
(dp310
I0
g296
sI1
g302
sI2
g307
sI3
(lp311
sI4
(lp312
sI5
(lp313
ssI4
(dp314
I0
g297
sI1
g303
sI2
g308
sI3
g312
sI4
(lp315
sI5
(lp316
ssI5
(dp317
I0
g298
sI1
g304
sI2
g309
sI3
g313
sI4
g316
sI5
(lp318
ssa(dp319
I0
(dp320
I0
(lp321
sI1
(lp322
sI2
(lp323
sI3
(lp324
sI4
(lp325
sI5
(lp326
ssI1
(dp327
I0
g322
sI1
(lp328
sI2
(lp329
sI3
(lp330
sI4
(lp331
sI5
(lp332
ssI2
(dp333
I0
g323
sI1
g329
sI2
(lp334
sI3
(lp335
sI4
(lp336
sI5
(lp337
ssI3
(dp338
I0
g324
sI1
g330
sI2
g335
sI3
(lp339
sI4
(lp340
sI5
(lp341
ssI4
(dp342
I0
g325
sI1
g331
sI2
g336
sI3
g340
sI4
(lp343
sI5
(lp344
ssI5
(dp345
I0
g326
sI1
g332
sI2
g337
sI3
g341
sI4
g344
sI5
(lp346
ssa(dp347
I0
(dp348
I0
(lp349
sI1
(lp350
sI2
(lp351
sI3
(lp352
sI4
(lp353
sI5
(lp354
ssI1
(dp355
I0
g350
sI1
(lp356
sI2
(lp357
sI3
(lp358
sI4
(lp359
sI5
(lp360
ssI2
(dp361
I0
g351
sI1
g357
sI2
(lp362
sI3
(lp363
sI4
(lp364
sI5
(lp365
ssI3
(dp366
I0
g352
sI1
g358
sI2
g363
sI3
(lp367
sI4
(lp368
sI5
(lp369
ssI4
(dp370
I0
g353
sI1
g359
sI2
g364
sI3
g368
sI4
(lp371
sI5
(lp372
ssI5
(dp373
I0
g354
sI1
g360
sI2
g365
sI3
g369
sI4
g372
sI5
(lp374
ssa(dp375
I0
(dp376
I0
(lp377
sI1
(lp378
sI2
(lp379
sI3
(lp380
sI4
(lp381
sI5
(lp382
ssI1
(dp383
I0
g378
sI1
(lp384
sI2
(lp385
sI3
(lp386
sI4
(lp387
sI5
(lp388
ssI2
(dp389
I0
g379
sI1
g385
sI2
(lp390
sI3
(lp391
sI4
(lp392
sI5
(lp393
ssI3
(dp394
I0
g380
sI1
g386
sI2
g391
sI3
(lp395
sI4
(lp396
sI5
(lp397
ssI4
(dp398
I0
g381
sI1
g387
sI2
g392
sI3
g396
sI4
(lp399
sI5
(lp400
ssI5
(dp401
I0
g382
sI1
g388
sI2
g393
sI3
g397
sI4
g400
sI5
(lp402
ssa(dp403
I0
(dp404
I0
(lp405
sI1
(lp406
sI2
(lp407
sI3
(lp408
sI4
(lp409
sI5
(lp410
ssI1
(dp411
I0
g406
sI1
(lp412
sI2
(lp413
sI3
(lp414
sI4
(lp415
sI5
(lp416
ssI2
(dp417
I0
g407
sI1
g413
sI2
(lp418
sI3
(lp419
sI4
(lp420
sI5
(lp421
ssI3
(dp422
I0
g408
sI1
g414
sI2
g419
sI3
(lp423
sI4
(lp424
sI5
(lp425
ssI4
(dp426
I0
g409
sI1
g415
sI2
g420
sI3
g424
sI4
(lp427
sI5
(lp428
ssI5
(dp429
I0
g410
sI1
g416
sI2
g421
sI3
g425
sI4
g428
sI5
(lp430
ssa(dp431
I0
(dp432
I0
(lp433
sI1
(lp434
sI2
(lp435
sI3
(lp436
sI4
(lp437
sI5
(lp438
ssI1
(dp439
I0
g434
sI1
(lp440
sI2
(lp441
sI3
(lp442
sI4
(lp443
sI5
(lp444
ssI2
(dp445
I0
g435
sI1
g441
sI2
(lp446
sI3
(lp447
sI4
(lp448
sI5
(lp449
ssI3
(dp450
I0
g436
sI1
g442
sI2
g447
sI3
(lp451
sI4
(lp452
sI5
(lp453
ssI4
(dp454
I0
g437
sI1
g443
sI2
g448
sI3
g452
sI4
(lp455
sI5
(lp456
ssI5
(dp457
I0
g438
sI1
g444
sI2
g449
sI3
g453
sI4
g456
sI5
(lp458
ssa(dp459
I0
(dp460
I0
(lp461
sI1
(lp462
Vhttp://dbpedia.org/ontology/wikiPageExternalLink
p463
aVhttp://dbpedia.org/ontology/country
p464
aVhttp://www.georss.org/georss/point
p465
aVhttp://dbpedia.org/ontology/assembly
p466
aVhttp://dbpedia.org/ontology/location
p467
aVhttp://dbpedia.org/property/origin
p468
aVhttp://dbpedia.org/property/countriesAffected
p469
aVhttp://dbpedia.org/ontology/abstract
p470
aVhttp://www.w3.org/2000/01/rdf-schema#comment
p471
aVhttp://dbpedia.org/property/venue
p472
aVhttp://dbpedia.org/property/location
p473
aVhttp://dbpedia.org/property/areas
p474
aVhttp://dbpedia.org/property/territorialExtent
p475
aVhttp://dbpedia.org/property/destination
p476
aVhttp://dbpedia.org/property/rd1t1Loc
p477
aVhttp://dbpedia.org/property/country
p478
aVhttp://www.w3.org/1999/02/22-rdf-syntax-ns#type
p479
aVhttp://dbpedia.org/property/footnoteB
p480
aVhttp://dbpedia.org/property/rd2t1Loc
p481
asI2
(lp482
sI3
(lp483
sI4
(lp484
sI5
(lp485
ssI1
(dp486
I0
g462
sI1
(lp487
sI2
(lp488
sI3
(lp489
sI4
(lp490
sI5
(lp491
ssI2
(dp492
I0
g482
sI1
g488
sI2
(lp493
sI3
(lp494
sI4
(lp495
sI5
(lp496
ssI3
(dp497
I0
g483
sI1
g489
sI2
g494
sI3
(lp498
sI4
(lp499
sI5
(lp500
ssI4
(dp501
I0
g484
sI1
g490
sI2
g495
sI3
g499
sI4
(lp502
sI5
(lp503
ssI5
(dp504
I0
g485
sI1
g491
sI2
g496
sI3
g500
sI4
g503
sI5
(lp505
ssa(dp506
I0
(dp507
I0
(lp508
sI1
(lp509
sI2
(lp510
sI3
(lp511
sI4
(lp512
sI5
(lp513
ssI1
(dp514
I0
g509
sI1
(lp515
sI2
(lp516
sI3
(lp517
sI4
(lp518
sI5
(lp519
ssI2
(dp520
I0
g510
sI1
g516
sI2
(lp521
sI3
(lp522
sI4
(lp523
sI5
(lp524
ssI3
(dp525
I0
g511
sI1
g517
sI2
g522
sI3
(lp526
sI4
(lp527
sI5
(lp528
ssI4
(dp529
I0
g512
sI1
g518
sI2
g523
sI3
g527
sI4
(lp530
sI5
(lp531
ssI5
(dp532
I0
g513
sI1
g519
sI2
g524
sI3
g528
sI4
g531
sI5
(lp533
ssa(dp534
I0
(dp535
I0
(lp536
sI1
(lp537
sI2
(lp538
sI3
(lp539
sI4
(lp540
sI5
(lp541
ssI1
(dp542
I0
g537
sI1
(lp543
sI2
(lp544
sI3
(lp545
sI4
(lp546
sI5
(lp547
ssI2
(dp548
I0
g538
sI1
g544
sI2
(lp549
sI3
(lp550
sI4
(lp551
sI5
(lp552
ssI3
(dp553
I0
g539
sI1
g545
sI2
g550
sI3
(lp554
sI4
(lp555
sI5
(lp556
ssI4
(dp557
I0
g540
sI1
g546
sI2
g551
sI3
g555
sI4
(lp558
sI5
(lp559
ssI5
(dp560
I0
g541
sI1
g547
sI2
g552
sI3
g556
sI4
g559
sI5
(lp561
ssa(dp562
I0
(dp563
I0
(lp564
sI1
(lp565
sI2
(lp566
sI3
(lp567
sI4
(lp568
sI5
(lp569
ssI1
(dp570
I0
g565
sI1
(lp571
sI2
(lp572
sI3
(lp573
sI4
(lp574
sI5
(lp575
ssI2
(dp576
I0
g566
sI1
g572
sI2
(lp577
sI3
(lp578
sI4
(lp579
sI5
(lp580
ssI3
(dp581
I0
g567
sI1
g573
sI2
g578
sI3
(lp582
sI4
(lp583
sI5
(lp584
ssI4
(dp585
I0
g568
sI1
g574
sI2
g579
sI3
g583
sI4
(lp586
sI5
(lp587
ssI5
(dp588
I0
g569
sI1
g575
sI2
g580
sI3
g584
sI4
g587
sI5
(lp589
ssa(dp590
I0
(dp591
I0
(lp592
sI1
(lp593
sI2
(lp594
sI3
(lp595
sI4
(lp596
sI5
(lp597
ssI1
(dp598
I0
g593
sI1
(lp599
sI2
(lp600
sI3
(lp601
sI4
(lp602
sI5
(lp603
ssI2
(dp604
I0
g594
sI1
g600
sI2
(lp605
sI3
(lp606
sI4
(lp607
sI5
(lp608
ssI3
(dp609
I0
g595
sI1
g601
sI2
g606
sI3
(lp610
sI4
(lp611
sI5
(lp612
ssI4
(dp613
I0
g596
sI1
g602
sI2
g607
sI3
g611
sI4
(lp614
sI5
(lp615
ssI5
(dp616
I0
g597
sI1
g603
sI2
g608
sI3
g612
sI4
g615
sI5
(lp617
ssa(dp618
I0
(dp619
I0
(lp620
sI1
(lp621
sI2
(lp622
sI3
(lp623
sI4
(lp624
sI5
(lp625
ssI1
(dp626
I0
g621
sI1
(lp627
sI2
(lp628
sI3
(lp629
sI4
(lp630
sI5
(lp631
ssI2
(dp632
I0
g622
sI1
g628
sI2
(lp633
sI3
(lp634
sI4
(lp635
sI5
(lp636
ssI3
(dp637
I0
g623
sI1
g629
sI2
g634
sI3
(lp638
sI4
(lp639
sI5
(lp640
ssI4
(dp641
I0
g624
sI1
g630
sI2
g635
sI3
g639
sI4
(lp642
sI5
(lp643
ssI5
(dp644
I0
g625
sI1
g631
sI2
g636
sI3
g640
sI4
g643
sI5
(lp645
ssa(dp646
I0
(dp647
I0
(lp648
sI1
(lp649
Vhttp://dbpedia.org/ontology/abstract
p650
aVhttp://www.w3.org/1999/02/22-rdf-syntax-ns#type
p651
asI2
(lp652
sI3
(lp653
sI4
(lp654
sI5
(lp655
ssI1
(dp656
I0
g649
sI1
(lp657
sI2
(lp658
sI3
(lp659
sI4
(lp660
sI5
(lp661
ssI2
(dp662
I0
g652
sI1
g658
sI2
(lp663
sI3
(lp664
sI4
(lp665
sI5
(lp666
ssI3
(dp667
I0
g653
sI1
g659
sI2
g664
sI3
(lp668
sI4
(lp669
sI5
(lp670
ssI4
(dp671
I0
g654
sI1
g660
sI2
g665
sI3
g669
sI4
(lp672
sI5
(lp673
ssI5
(dp674
I0
g655
sI1
g661
sI2
g666
sI3
g670
sI4
g673
sI5
(lp675
ssa(dp676
I0
(dp677
I0
(lp678
sI1
(lp679
sI2
(lp680
sI3
(lp681
sI4
(lp682
sI5
(lp683
ssI1
(dp684
I0
g679
sI1
(lp685
sI2
(lp686
sI3
(lp687
sI4
(lp688
sI5
(lp689
ssI2
(dp690
I0
g680
sI1
g686
sI2
(lp691
sI3
(lp692
sI4
(lp693
sI5
(lp694
ssI3
(dp695
I0
g681
sI1
g687
sI2
g692
sI3
(lp696
sI4
(lp697
sI5
(lp698
ssI4
(dp699
I0
g682
sI1
g688
sI2
g693
sI3
g697
sI4
(lp700
sI5
(lp701
ssI5
(dp702
I0
g683
sI1
g689
sI2
g694
sI3
g698
sI4
g701
sI5
(lp703
ssa(dp704
I0
(dp705
I0
(lp706
sI1
(lp707
sI2
(lp708
sI3
(lp709
sI4
(lp710
sI5
(lp711
ssI1
(dp712
I0
g707
sI1
(lp713
sI2
(lp714
sI3
(lp715
sI4
(lp716
sI5
(lp717
ssI2
(dp718
I0
g708
sI1
g714
sI2
(lp719
sI3
(lp720
sI4
(lp721
sI5
(lp722
ssI3
(dp723
I0
g709
sI1
g715
sI2
g720
sI3
(lp724
sI4
(lp725
sI5
(lp726
ssI4
(dp727
I0
g710
sI1
g716
sI2
g721
sI3
g725
sI4
(lp728
sI5
(lp729
ssI5
(dp730
I0
g711
sI1
g717
sI2
g722
sI3
g726
sI4
g729
sI5
(lp731
ssa.