(lp1
(lp2
(dp3
Vstart
p4
I0
sVdisambiguatedURL
p5
NsVnamedEntity
p6
VEquipment to be serviced
p7
sVoffset
p8
I24
saa(lp9
(dp10
Vstart
p11
I0
sVdisambiguatedURL
p12
Vhttp://dbpedia.org/resource/Null
p13
sVnamedEntity
p14
VNULL
p15
sVoffset
p16
I4
saa(lp17
(dp18
Vstart
p19
I0
sVdisambiguatedURL
p20
Vhttp://dbpedia.org/resource/Class_(locomotive)
p21
sVnamedEntity
p22
VClass
p23
sVoffset
p24
I5
saa(lp25
(dp26
Vstart
p27
I0
sVdisambiguatedURL
p28
NsVnamedEntity
p29
V2205   2605
p30
sVoffset
p31
I11
saa(lp32
(dp33
Vstart
p34
I0
sVdisambiguatedURL
p35
Vhttp://dbpedia.org/resource/Manual_transmission
p36
sVnamedEntity
p37
VManual
p38
sVoffset
p39
I6
saa(lp40
(dp41
Vstart
p42
I0
sVdisambiguatedURL
p43
Vhttp://dbpedia.org/resource/Buoyancy_compensator_(aviation)
p44
sVnamedEntity
p45
VCompensator
p46
sVoffset
p47
I11
saa(lp48
(dp49
Vstart
p50
I0
sVdisambiguatedURL
p51
NsVnamedEntity
p52
V
sVoffset
p53
I0
saa(lp54
(dp55
Vstart
p56
I0
sVdisambiguatedURL
p57
NsVnamedEntity
p58
V2510
p59
sVoffset
p60
I4
saa(lp61
(dp62
Vstart
p63
I0
sVdisambiguatedURL
p64
Vhttp://dbpedia.org/resource/Manual_transmission
p65
sVnamedEntity
p66
VManual
p67
sVoffset
p68
I6
saa(lp69
(dp70
Vstart
p71
I0
sVdisambiguatedURL
p72
NsVnamedEntity
p73
VStarters
p74
sVoffset
p75
I8
saa(lp76
(dp77
Vstart
p78
I0
sVdisambiguatedURL
p79
Vhttp://dbpedia.org/resource/Pusha_T
p80
sVnamedEntity
p81
VPush
p82
sVoffset
p83
I4
saa(lp84
(dp85
Vstart
p86
I0
sVdisambiguatedURL
p87
Vhttp://dbpedia.org/resource/Button
p88
sVnamedEntity
p89
VButtons
p90
sVoffset
p91
I7
saa(lp92
(dp93
Vstart
p94
I0
sVdisambiguatedURL
p95
NsVnamedEntity
p96
V
sVoffset
p97
I0
saa(lp98
(dp99
Vstart
p100
I0
sVdisambiguatedURL
p101
NsVnamedEntity
p102
V
sVoffset
p103
I0
saa(lp104
(dp105
Vstart
p106
I0
sVdisambiguatedURL
p107
NsVnamedEntity
p108
V
sVoffset
p109
I0
saa(lp110
(dp111
Vstart
p112
I0
sVdisambiguatedURL
p113
NsVnamedEntity
p114
V
sVoffset
p115
I0
saa(lp116
(dp117
Vstart
p118
I0
sVdisambiguatedURL
p119
NsVnamedEntity
p120
V
sVoffset
p121
I0
saa(lp122
(dp123
Vstart
p124
I0
sVdisambiguatedURL
p125
NsVnamedEntity
p126
V2510
p127
sVoffset
p128
I4
saa(lp129
(dp130
Vstart
p131
I0
sVdisambiguatedURL
p132
Vhttp://dbpedia.org/resource/Manual_transmission
p133
sVnamedEntity
p134
VManual
p135
sVoffset
p136
I6
saa(lp137
(dp138
Vstart
p139
I0
sVdisambiguatedURL
p140
NsVnamedEntity
p141
VStarters
p142
sVoffset
p143
I8
saa.