(lp1
(lp2
(lp3
a(lp4
a(lp5
a(lp6
a(lp7
a(lp8
aa(lp9
(lp10
a(lp11
a(lp12
((lp13
Vhttp://www.w3.org/2002/07/owl#Thing
p14
aVhttp://xmlns.com/foaf/0.1/Person
p15
aVhttp://dbpedia.org/ontology/Person
p16
aVhttp://www.ontologydesignpatterns.org/ont/dul/DUL.owl#Agent
p17
aVhttp://www.ontologydesignpatterns.org/ont/dul/DUL.owl#NaturalPerson
p18
aVhttp://www.wikidata.org/entity/Q215627
p19
aVhttp://www.wikidata.org/entity/Q5
p20
aVhttp://dbpedia.org/ontology/Agent
p21
aVhttp://schema.org/Person
p22
aVhttp://umbel.org/umbel/rc/Actor
p23
aVhttp://umbel.org/umbel/rc/Artist
p24
aVhttp://dbpedia.org/class/yago/20th-centuryActors
p25
aVhttp://dbpedia.org/class/yago/21st-centuryActors
p26
aVhttp://dbpedia.org/class/yago/Actor109765278
p27
aVhttp://dbpedia.org/class/yago/ActorsFromNewYorkCity
p28
aVhttp://dbpedia.org/class/yago/Alumnus109786338
p29
aVhttp://dbpedia.org/class/yago/AmericanAlternativeRockMusicians
p30
aVhttp://dbpedia.org/class/yago/AmericanChildActors
p31
aVhttp://dbpedia.org/class/yago/AmericanFemaleModels
p32
aVhttp://dbpedia.org/class/yago/AmericanFemalePopSingers
p33
aVhttp://dbpedia.org/class/yago/AmericanFilmActors
p34
aVhttp://dbpedia.org/class/yago/AmericanFolkSingers
p35
aVhttp://dbpedia.org/class/yago/AmericanMusiciansOfDanishDescent
p36
aVhttp://dbpedia.org/class/yago/AmericanPeopleOfBelarusian-JewishDescent
p37
aVhttp://dbpedia.org/class/yago/AmericanRockSingers
p38
aVhttp://dbpedia.org/class/yago/AmericanStageActors
p39
aVhttp://dbpedia.org/class/yago/AmericanVoiceActors
p40
aVhttp://dbpedia.org/class/yago/Artist109812338
p41
aVhttp://dbpedia.org/class/yago/Assistant109815790
p42
aVhttp://dbpedia.org/class/yago/CausalAgent100007347
p43
aVhttp://dbpedia.org/class/yago/Creator109614315
p44
aVhttp://dbpedia.org/class/yago/Entertainer109616922
p45
aVhttp://dbpedia.org/class/yago/FolkSinger110099093
p46
aVhttp://dbpedia.org/class/yago/Intellectual109621545
p47
aVhttp://dbpedia.org/class/yago/LivingThing100004258
p48
aVhttp://dbpedia.org/class/yago/Model110324560
p49
aVhttp://dbpedia.org/class/yago/Musician110339966
p50
aVhttp://dbpedia.org/class/yago/Musician110340312
p51
aVhttp://dbpedia.org/class/yago/Object100002684
p52
aVhttp://dbpedia.org/class/yago/Organism100004475
p53
aVhttp://dbpedia.org/class/yago/Performer110415638
p54
aVhttp://dbpedia.org/class/yago/Person100007846
p55
aVhttp://dbpedia.org/class/yago/Scholar110557854
p56
aVhttp://dbpedia.org/class/yago/Singer110599806
p57
aVhttp://dbpedia.org/class/yago/Whole100003553
p58
aVhttp://dbpedia.org/class/yago/Worker109632518
p59
aVhttp://dbpedia.org/class/yago/YagoLegalActorGeo
p60
aVhttp://dbpedia.org/class/yago/FemaleRockSingers
p61
aVhttp://dbpedia.org/class/yago/PhysicalEntity100001930
p62
aVhttp://dbpedia.org/class/yago/JewishActors
p63
aVhttp://dbpedia.org/class/yago/JewishAmericanMusicians
p64
aVhttp://dbpedia.org/class/yago/JewishModels
p65
aVhttp://dbpedia.org/class/yago/JewishSingers
p66
aVhttp://dbpedia.org/class/yago/LeeStrasbergTheatreInstituteAlumni
p67
aVhttp://dbpedia.org/class/yago/LivingPeople
p68
aVhttp://dbpedia.org/class/yago/YagoLegalActor
p69
aVhttp://dbpedia.org/class/yago/SingersFromNewYorkCity
p70
aVhttp://dbpedia.org/class/yago/TwinPeopleFromTheUnitedStates
p71
aVhttp://dbpedia.org/resource/Scarlett_Johansson
tp72
aa(lp73
a(lp74
a(lp75
aa(lp76
(lp77
a(lp78
a(lp79
a(lp80
a(lp81
a(lp82
aa(lp83
(lp84
a(lp85
a(lp86
a(lp87
a(lp88
a(lp89
aa(lp90
(lp91
a(lp92
a(lp93
a(lp94
a(lp95
a(lp96
aa(lp97
(lp98
a(lp99
a(lp100
((lVhttp://dbpedia.org/resource/Make_It_Happen
tp101
aa(lp102
a(lp103
a(lp104
aa(lp105
(lp106
a(lp107
a(lp108
((lp109
Vhttp://www.w3.org/2002/07/owl#Thing
p110
aVhttp://www.wikidata.org/entity/Q2188189
p111
aVhttp://www.wikidata.org/entity/Q386724
p112
aVhttp://dbpedia.org/ontology/MusicalWork
p113
aVhttp://dbpedia.org/ontology/Work
p114
aVhttp://schema.org/CreativeWork
p115
aVhttp://dbpedia.org/resource/French_kiss
tp116
aa(lp117
a(lp118
a(lp119
aa(lp120
(lp121
a(lp122
a(lp123
((lp124
Vhttp://www.w3.org/2002/07/owl#Thing
p125
aVhttp://dbpedia.org/ontology/Place
p126
aVhttp://dbpedia.org/ontology/Location
p127
aVhttp://www.wikidata.org/entity/Q486972
p128
aVhttp://dbpedia.org/ontology/PopulatedPlace
p129
aVhttp://dbpedia.org/ontology/Settlement
p130
aVhttp://schema.org/Place
p131
aVhttp://dbpedia.org/class/yago/Beach109217230
p132
aVhttp://dbpedia.org/class/yago/BeachesOfWesternAustralia
p133
aVhttp://dbpedia.org/class/yago/District108552138
p134
aVhttp://dbpedia.org/class/yago/GeologicalFormation109287968
p135
aVhttp://dbpedia.org/class/yago/Location100027167
p136
aVhttp://dbpedia.org/class/yago/Object100002684
p137
aVhttp://dbpedia.org/class/yago/Region108630985
p138
aVhttp://dbpedia.org/class/yago/Suburb108554440
p139
aVhttp://dbpedia.org/class/yago/YagoGeoEntity
p140
aVhttp://dbpedia.org/class/yago/YagoLegalActorGeo
p141
aVhttp://dbpedia.org/class/yago/PhysicalEntity100001930
p142
aVhttp://dbpedia.org/class/yago/ResidentialDistrict108553535
p143
aVhttp://dbpedia.org/class/yago/YagoPermanentlyLocatedEntity
p144
aVhttp://dbpedia.org/class/yago/SuburbsOfGeraldton
p145
aVhttp://dbpedia.org/resource/Sunset_Beach,_Western_Australia
tp146
aa(lp147
a(lp148
a(lp149
aa(lp150
(lp151
a(lp152
a(lp153
((lp154
Vhttp://www.w3.org/2002/07/owl#Thing
p155
aVhttp://www.ontologydesignpatterns.org/ont/dul/DUL.owl#Agent
p156
aVhttp://www.ontologydesignpatterns.org/ont/dul/DUL.owl#SocialPerson
p157
aVhttp://www.wikidata.org/entity/Q215380
p158
aVhttp://www.wikidata.org/entity/Q43229
p159
aVhttp://dbpedia.org/ontology/Agent
p160
aVhttp://dbpedia.org/ontology/Band
p161
aVhttp://dbpedia.org/ontology/Group
p162
aVhttp://dbpedia.org/ontology/Organisation
p163
aVhttp://schema.org/MusicGroup
p164
aVhttp://schema.org/Organization
p165
aVhttp://umbel.org/umbel/rc/Band_MusicGroup
p166
aVhttp://dbpedia.org/class/yago/Abstraction100002137
p167
aVhttp://dbpedia.org/class/yago/AmericanSoulMusicalGroups
p168
aVhttp://dbpedia.org/class/yago/Group100031264
p169
aVhttp://dbpedia.org/class/yago/MusicalOrganization108246613
p170
aVhttp://dbpedia.org/class/yago/Organization108008335
p171
aVhttp://dbpedia.org/class/yago/SocialGroup107950920
p172
aVhttp://dbpedia.org/class/yago/YagoLegalActorGeo
p173
aVhttp://dbpedia.org/class/yago/YagoPermanentlyLocatedEntity
p174
aVhttp://dbpedia.org/class/yago/MusicalGroupsEstablishedIn1992
p175
aVhttp://dbpedia.org/class/yago/MusicalGroupsFromWashington,D.C.
p176
aVhttp://dbpedia.org/class/yago/YagoLegalActor
p177
aVhttp://dbpedia.org/resource/Shai_(band)
tp178
aa(lp179
a(lp180
a(lp181
aa(lp182
(lp183
a(lp184
a(lp185
((lVhttp://dbpedia.org/resource/Wheel_of_Fortune
tp186
aa(lp187
a(lp188
a(lp189
aa(lp190
(lp191
a(lp192
a(lp193
((lp194
Vhttp://www.w3.org/2002/07/owl#Thing
p195
aVhttp://xmlns.com/foaf/0.1/Person
p196
aVhttp://dbpedia.org/ontology/Person
p197
aVhttp://www.ontologydesignpatterns.org/ont/dul/DUL.owl#Agent
p198
aVhttp://www.ontologydesignpatterns.org/ont/dul/DUL.owl#NaturalPerson
p199
aVhttp://www.wikidata.org/entity/Q215627
p200
aVhttp://www.wikidata.org/entity/Q483501
p201
aVhttp://www.wikidata.org/entity/Q5
p202
aVhttp://dbpedia.org/ontology/Agent
p203
aVhttp://dbpedia.org/ontology/Artist
p204
aVhttp://dbpedia.org/ontology/MusicalArtist
p205
aVhttp://schema.org/MusicGroup
p206
aVhttp://schema.org/Person
p207
aVhttp://umbel.org/umbel/rc/Artist
p208
aVhttp://umbel.org/umbel/rc/MusicalPerformer
p209
aVhttp://umbel.org/umbel/rc/PersonWithOccupation
p210
aVhttp://dbpedia.org/class/yago/AmericanAlternativeCountrySingers
p211
aVhttp://dbpedia.org/class/yago/AmericanCountryGuitarists
p212
aVhttp://dbpedia.org/class/yago/AmericanCountrySingers
p213
aVhttp://dbpedia.org/class/yago/AmericanHeavyMetalBassGuitarists
p214
aVhttp://dbpedia.org/class/yago/AmericanHeavyMetalSingers
p215
aVhttp://dbpedia.org/class/yago/AmericanPunkRockBassGuitarists
p216
aVhttp://dbpedia.org/class/yago/AmericanPunkRockDrummers
p217
aVhttp://dbpedia.org/class/yago/AmericanPunkRockGuitarists
p218
aVhttp://dbpedia.org/class/yago/AmericanPunkRockSingers
p219
aVhttp://dbpedia.org/class/yago/Artist109812338
p220
aVhttp://dbpedia.org/class/yago/CausalAgent100007347
p221
aVhttp://dbpedia.org/class/yago/Creator109614315
p222
aVhttp://dbpedia.org/class/yago/Drummer110036929
p223
aVhttp://dbpedia.org/class/yago/Entertainer109616922
p224
aVhttp://dbpedia.org/class/yago/Guitarist110151760
p225
aVhttp://dbpedia.org/class/yago/LivingThing100004258
p226
aVhttp://dbpedia.org/class/yago/Musician110339966
p227
aVhttp://dbpedia.org/class/yago/Musician110340312
p228
aVhttp://dbpedia.org/class/yago/Object100002684
p229
aVhttp://dbpedia.org/class/yago/Organism100004475
p230
aVhttp://dbpedia.org/class/yago/Percussionist110415037
p231
aVhttp://dbpedia.org/class/yago/Performer110415638
p232
aVhttp://dbpedia.org/class/yago/Person100007846
p233
aVhttp://dbpedia.org/class/yago/Singer110599806
p234
aVhttp://dbpedia.org/class/yago/Whole100003553
p235
aVhttp://dbpedia.org/class/yago/YagoLegalActorGeo
p236
aVhttp://dbpedia.org/class/yago/CountryMusiciansFromTennessee
p237
aVhttp://dbpedia.org/class/yago/CurbRecordsArtists
p238
aVhttp://dbpedia.org/class/yago/PhysicalEntity100001930
p239
aVhttp://dbpedia.org/class/yago/LivingPeople
p240
aVhttp://dbpedia.org/class/yago/PeopleFromNashville,Tennessee
p241
aVhttp://dbpedia.org/class/yago/YagoLegalActor
p242
aVhttp://dbpedia.org/resource/Hank_Williams_III
tp243
aa(lp244
a(lp245
a(lp246
aa(lp247
(lp248
a(lp249
a(lp250
a(lp251
a(lp252
a(lp253
aa(lp254
(lp255
a(lp256
a(lp257
((lVhttp://dbpedia.org/resource/Bound_&_Gagged
p258
tp259
aa(lp260
a(lp261
a(lp262
aa(lp263
(lp264
a(lp265
a(lp266
a(lp267
a(lp268
a(lp269
aa.