(lp1
(lp2
(dp3
Vstart
p4
I0
sS'classes'
p5
(lp6
Vhttp://www.w3.org/2002/07/owl#Thing
p7
aVhttp://dbpedia.org/ontology/Place
p8
aVhttp://dbpedia.org/ontology/Location
p9
aVhttp://www.wikidata.org/entity/Q486972
p10
aVhttp://www.wikidata.org/entity/Q6256
p11
aVhttp://dbpedia.org/ontology/Country
p12
aVhttp://dbpedia.org/ontology/PopulatedPlace
p13
aVhttp://www.w3.org/2003/01/geo/wgs84_pos#SpatialThing
p14
aVhttp://schema.org/Country
p15
aVhttp://schema.org/Place
p16
aVhttp://umbel.org/umbel/rc/Country
p17
aVhttp://umbel.org/umbel/rc/Location_Underspecified
p18
aVhttp://umbel.org/umbel/rc/PopulatedPlace
p19
aVhttp://dbpedia.org/class/yago/Abstraction100002137
p20
aVhttp://dbpedia.org/class/yago/AdministrativeDistrict108491826
p21
aVhttp://dbpedia.org/class/yago/BicontinentalCountries
p22
aVhttp://dbpedia.org/class/yago/Country108544813
p23
aVhttp://dbpedia.org/class/yago/District108552138
p24
aVhttp://dbpedia.org/class/yago/Economy108366753
p25
aVhttp://dbpedia.org/class/yago/Group100031264
p26
aVhttp://dbpedia.org/class/yago/Location100027167
p27
aVhttp://dbpedia.org/class/yago/Object100002684
p28
aVhttp://dbpedia.org/class/yago/Region108630985
p29
aVhttp://dbpedia.org/class/yago/System108435388
p30
aVhttp://dbpedia.org/class/yago/YagoGeoEntity
p31
aVhttp://dbpedia.org/class/yago/YagoLegalActorGeo
p32
aVhttp://dbpedia.org/class/yago/CountriesBorderingTheArcticOcean
p33
aVhttp://dbpedia.org/class/yago/CountriesBorderingTheAtlanticOcean
p34
aVhttp://dbpedia.org/class/yago/CountriesBorderingThePacificOcean
p35
aVhttp://dbpedia.org/class/yago/English-speakingCountriesAndTerritories
p36
aVhttp://dbpedia.org/class/yago/FederalCountries
p37
aVhttp://dbpedia.org/class/yago/PhysicalEntity100001930
p38
aVhttp://dbpedia.org/class/yago/YagoPermanentlyLocatedEntity
p39
aVhttp://dbpedia.org/class/yago/MemberStatesOfNATO
p40
aVhttp://dbpedia.org/class/yago/MemberStatesOfTheUnitedNations
p41
aVhttp://dbpedia.org/class/yago/NorthernAmericanCountries
p42
aVhttp://dbpedia.org/class/yago/StatesAndTerritoriesEstablishedIn1776
p43
aVhttp://dbpedia.org/class/yago/UnitedStates
p44
asVdisambiguatedURL
p45
Vhttp://dbpedia.org/resource/United_States
p46
sVnamedEntity
p47
Vunited states
p48
sVoffset
p49
I13
saa(lp50
(dp51
Vstart
p52
I0
sg5
(lp53
Vhttp://www.w3.org/2002/07/owl#Thing
p54
aVhttp://dbpedia.org/ontology/Place
p55
aVhttp://dbpedia.org/ontology/Location
p56
aVhttp://www.wikidata.org/entity/Q486972
p57
aVhttp://www.wikidata.org/entity/Q6256
p58
aVhttp://dbpedia.org/ontology/Country
p59
aVhttp://dbpedia.org/ontology/PopulatedPlace
p60
aVhttp://www.w3.org/2003/01/geo/wgs84_pos#SpatialThing
p61
aVhttp://schema.org/Country
p62
aVhttp://schema.org/Place
p63
aVhttp://umbel.org/umbel/rc/Country
p64
aVhttp://umbel.org/umbel/rc/Location_Underspecified
p65
aVhttp://umbel.org/umbel/rc/PopulatedPlace
p66
aVhttp://dbpedia.org/class/yago/Abstraction100002137
p67
aVhttp://dbpedia.org/class/yago/AdministrativeDistrict108491826
p68
aVhttp://dbpedia.org/class/yago/Country108544813
p69
aVhttp://dbpedia.org/class/yago/District108552138
p70
aVhttp://dbpedia.org/class/yago/Economy108366753
p71
aVhttp://dbpedia.org/class/yago/Group100031264
p72
aVhttp://dbpedia.org/class/yago/Location100027167
p73
aVhttp://dbpedia.org/class/yago/Object100002684
p74
aVhttp://dbpedia.org/class/yago/Region108630985
p75
aVhttp://dbpedia.org/class/yago/System108435388
p76
aVhttp://dbpedia.org/class/yago/YagoGeoEntity
p77
aVhttp://dbpedia.org/class/yago/YagoLegalActorGeo
p78
aVhttp://dbpedia.org/class/yago/CentralAsianCountries
p79
aVhttp://dbpedia.org/class/yago/PhysicalEntity100001930
p80
aVhttp://dbpedia.org/class/yago/YagoPermanentlyLocatedEntity
p81
aVhttp://dbpedia.org/class/yago/IslamicStates
p82
aVhttp://dbpedia.org/class/yago/LandlockedCountries
p83
aVhttp://dbpedia.org/class/yago/LeastDevelopedCountries
p84
aVhttp://dbpedia.org/class/yago/MemberStatesOfTheOrganisationOfIslamicCooperation
p85
aVhttp://dbpedia.org/class/yago/MemberStatesOfTheSouthAsianAssociationForRegionalCooperation
p86
aVhttp://dbpedia.org/class/yago/MemberStatesOfTheUnitedNations
p87
aVhttp://dbpedia.org/class/yago/MiddleEasternCountries
p88
aVhttp://dbpedia.org/class/yago/Pashto-speakingCountriesAndTerritories
p89
aVhttp://dbpedia.org/class/yago/Persian-speakingCountriesAndTerritories
p90
aVhttp://dbpedia.org/class/yago/SouthAsianCountries
p91
aVhttp://dbpedia.org/class/yago/StatesAndTerritoriesEstablishedIn1709
p92
aVhttp://dbpedia.org/class/yago/StatesAndTerritoriesEstablishedIn1747
p93
aVhttp://dbpedia.org/class/yago/TerritoriesUnderMilitaryOccupation
p94
asVdisambiguatedURL
p95
Vhttp://dbpedia.org/resource/Afghanistan
p96
sVnamedEntity
p97
Vafghanistan
p98
sVoffset
p99
I11
saa(lp100
a(lp101
a(lp102
(dp103
Vstart
p104
I0
sg5
(lp105
Vhttp://www.w3.org/2002/07/owl#Thing
p106
aVhttp://dbpedia.org/ontology/Place
p107
aVhttp://dbpedia.org/ontology/Location
p108
aVhttp://www.wikidata.org/entity/Q486972
p109
aVhttp://www.wikidata.org/entity/Q6256
p110
aVhttp://dbpedia.org/ontology/Country
p111
aVhttp://dbpedia.org/ontology/PopulatedPlace
p112
aVhttp://schema.org/Country
p113
aVhttp://schema.org/Place
p114
aVhttp://umbel.org/umbel/rc/Country
p115
aVhttp://umbel.org/umbel/rc/Location_Underspecified
p116
aVhttp://umbel.org/umbel/rc/PopulatedPlace
p117
aVhttp://dbpedia.org/class/yago/Abstraction100002137
p118
aVhttp://dbpedia.org/class/yago/AdministrativeDistrict108491826
p119
aVhttp://dbpedia.org/class/yago/Area108497294
p120
aVhttp://dbpedia.org/class/yago/Country108544813
p121
aVhttp://dbpedia.org/class/yago/District108552138
p122
aVhttp://dbpedia.org/class/yago/Economy108366753
p123
aVhttp://dbpedia.org/class/yago/Group100031264
p124
aVhttp://dbpedia.org/class/yago/Location100027167
p125
aVhttp://dbpedia.org/class/yago/Object100002684
p126
aVhttp://dbpedia.org/class/yago/Region108630039
p127
aVhttp://dbpedia.org/class/yago/Region108630985
p128
aVhttp://dbpedia.org/class/yago/System108435388
p129
aVhttp://dbpedia.org/class/yago/YagoGeoEntity
p130
aVhttp://dbpedia.org/class/yago/YagoLegalActorGeo
p131
aVhttp://dbpedia.org/class/yago/DividedRegions
p132
aVhttp://dbpedia.org/class/yago/English-speakingCountriesAndTerritories
p133
aVhttp://dbpedia.org/class/yago/PhysicalEntity100001930
p134
aVhttp://dbpedia.org/class/yago/YagoPermanentlyLocatedEntity
p135
aVhttp://dbpedia.org/class/yago/InsularAreasOfTheUnitedStates
p136
aVhttp://dbpedia.org/class/yago/StatesAndTerritoriesEstablishedIn1899
p137
asVdisambiguatedURL
p138
Vhttp://dbpedia.org/resource/American_Samoa
p139
sVnamedEntity
p140
Vamerican samoa
p141
sVoffset
p142
I14
saa(lp143
a(lp144
a(lp145
a(lp146
(dp147
Vstart
p148
I0
sg5
(lp149
Vhttp://www.w3.org/2002/07/owl#Thing
p150
aVhttp://dbpedia.org/ontology/Place
p151
aVhttp://dbpedia.org/ontology/Location
p152
aVhttp://www.wikidata.org/entity/Q486972
p153
aVhttp://www.wikidata.org/entity/Q6256
p154
aVhttp://dbpedia.org/ontology/Country
p155
aVhttp://dbpedia.org/ontology/PopulatedPlace
p156
aVhttp://www.w3.org/2003/01/geo/wgs84_pos#SpatialThing
p157
aVhttp://schema.org/Country
p158
aVhttp://schema.org/Place
p159
aVhttp://umbel.org/umbel/rc/Country
p160
aVhttp://umbel.org/umbel/rc/Location_Underspecified
p161
aVhttp://umbel.org/umbel/rc/PopulatedPlace
p162
asVdisambiguatedURL
p163
Vhttp://dbpedia.org/resource/Antigua_and_Barbuda
p164
sVnamedEntity
p165
Vantigua and barbuda
p166
sVoffset
p167
I19
saa(lp168
a(lp169
a(lp170
a(lp171
a(lp172
(dp173
Vstart
p174
I0
sg5
(lp175
Vhttp://www.w3.org/2002/07/owl#Thing
p176
aVhttp://dbpedia.org/ontology/Place
p177
aVhttp://dbpedia.org/ontology/Location
p178
aVhttp://www.wikidata.org/entity/Q486972
p179
aVhttp://dbpedia.org/ontology/Continent
p180
aVhttp://dbpedia.org/ontology/PopulatedPlace
p181
aVhttp://schema.org/Continent
p182
aVhttp://schema.org/Place
p183
aVhttp://dbpedia.org/class/yago/Abstraction100002137
p184
aVhttp://dbpedia.org/class/yago/Economy108366753
p185
aVhttp://dbpedia.org/class/yago/Group100031264
p186
aVhttp://dbpedia.org/class/yago/Land109334396
p187
aVhttp://dbpedia.org/class/yago/Object100002684
p188
aVhttp://dbpedia.org/class/yago/System108435388
p189
aVhttp://dbpedia.org/class/yago/YagoGeoEntity
p190
aVhttp://dbpedia.org/class/yago/Continent109254614
p191
aVhttp://dbpedia.org/class/yago/Continents
p192
aVhttp://dbpedia.org/class/yago/EconomiesByRegion
p193
aVhttp://dbpedia.org/class/yago/Landmass109335916
p194
aVhttp://dbpedia.org/class/yago/PhysicalEntity100001930
p195
aVhttp://dbpedia.org/class/yago/YagoPermanentlyLocatedEntity
p196
asVdisambiguatedURL
p197
Vhttp://dbpedia.org/resource/Oceania
p198
sVnamedEntity
p199
Vaustralia
p200
sVoffset
p201
I9
saa(lp202
a(lp203
a(lp204
a(lp205
a(lp206
a(lp207
a.