(lp1
(dp2
I0
(dp3
I0
(lp4
sI1
(lp5
sI2
(lp6
sI3
(lp7
sI4
(lp8
sI5
(lp9
sI6
(lp10
ssI1
(dp11
I0
g5
sI1
(lp12
sI2
(lp13
sI3
(lp14
sI4
(lp15
sI5
(lp16
sI6
(lp17
ssI2
(dp18
I0
g6
sI1
g13
sI2
(lp19
sI3
(lp20
sI4
(lp21
sI5
(lp22
sI6
(lp23
ssI3
(dp24
I0
g7
sI1
g14
sI3
(lp25
sI4
(lp26
sI5
(lp27
sI6
(lp28
ssI4
(dp29
I0
g8
sI1
g15
sI2
g21
sI3
g26
sI4
(lp30
sI5
(lp31
sI6
(lp32
ssI5
(dp33
I0
g9
sI1
g16
sI4
g31
sI5
(lp34
sI6
(lp35
ssI6
(dp36
I0
g10
sI1
g17
sI4
g32
sI6
(lp37
ssa(dp38
I0
(dp39
I0
(lp40
sI1
(lp41
sI2
(lp42
sI3
(lp43
sI4
(lp44
sI5
(lp45
sI6
(lp46
ssI1
(dp47
I0
g41
sI1
(lp48
sI2
(lp49
sI3
(lp50
sI4
(lp51
sI5
(lp52
sI6
(lp53
ssI2
(dp54
I0
g42
sI1
g49
sI2
(lp55
sI3
(lp56
sI4
(lp57
sI5
(lp58
sI6
(lp59
ssI3
(dp60
I0
g43
sI1
g50
sI3
(lp61
sI4
(lp62
sI5
(lp63
sI6
(lp64
ssI4
(dp65
I0
g44
sI1
g51
sI4
(lp66
sI5
(lp67
sI6
(lp68
ssI5
(dp69
I0
g45
sI1
g52
sI2
g58
sI3
g63
sI4
g67
sI5
(lp70
sI6
(lp71
ssI6
(dp72
I0
g46
sI1
g53
sI2
g59
sI3
g64
sI4
g68
sI6
(lp73
ssa(dp74
I0
(dp75
I0
(lp76
sI1
(lp77
sI2
(lp78
Vhttp://dbpedia.org/property/emergency
p79
asI3
(lp80
Vhttp://dbpedia.org/property/emergency
p81
asI4
(lp82
sI5
(lp83
Vhttp://dbpedia.org/property/emergency
p84
asI6
(lp85
Vhttp://dbpedia.org/property/emergency
p86
assI1
(dp87
I0
g77
sI1
(lp88
sI2
(lp89
sI3
(lp90
sI4
(lp91
sI5
(lp92
sI6
(lp93
ssI2
(dp94
I0
g78
sI1
g89
sI2
(lp95
sI3
(lp96
sI4
(lp97
sI5
(lp98
sI6
(lp99
ssI3
(dp100
I0
g80
sI1
g90
sI3
(lp101
sI4
(lp102
sI5
(lp103
sI6
(lp104
ssI4
(dp105
I0
g82
sI1
g91
sI2
g97
sI3
g102
sI4
(lp106
sI5
(lp107
sI6
(lp108
ssI5
(dp109
I0
g83
sI1
g92
sI4
g107
sI5
(lp110
sI6
(lp111
ssI6
(dp112
I0
g85
sI1
g93
sI4
g108
sI6
(lp113
ssa(dp114
I0
(dp115
I0
(lp116
sI1
(lp117
sI2
(lp118
sI3
(lp119
sI4
(lp120
sI5
(lp121
sI6
(lp122
ssI1
(dp123
I0
g117
sI1
(lp124
sI2
(lp125
sI3
(lp126
sI4
(lp127
sI5
(lp128
sI6
(lp129
ssI2
(dp130
I0
g118
sI1
g125
sI2
(lp131
sI3
(lp132
sI4
(lp133
sI5
(lp134
sI6
(lp135
ssI3
(dp136
I0
g119
sI1
g126
sI3
(lp137
sI4
(lp138
sI5
(lp139
sI6
(lp140
ssI4
(dp141
I0
g120
sI1
g127
sI2
g133
sI3
g138
sI4
(lp142
sI5
(lp143
sI6
(lp144
ssI5
(dp145
I0
g121
sI1
g128
sI4
g143
sI5
(lp146
sI6
(lp147
ssI6
(dp148
I0
g122
sI1
g129
sI4
g144
sI6
(lp149
ssa(dp150
I0
(dp151
I0
(lp152
sI1
(lp153
sI2
(lp154
sI3
(lp155
sI4
(lp156
sI5
(lp157
Vhttp://dbpedia.org/property/emergency
p158
asI6
(lp159
Vhttp://dbpedia.org/property/emergency
p160
assI1
(dp161
I0
g153
sI1
(lp162
sI2
(lp163
sI3
(lp164
sI4
(lp165
sI5
(lp166
sI6
(lp167
ssI2
(dp168
I0
g154
sI1
g163
sI2
(lp169
sI3
(lp170
sI4
(lp171
sI5
(lp172
sI6
(lp173
ssI3
(dp174
I0
g155
sI1
g164
sI3
(lp175
sI4
(lp176
sI5
(lp177
sI6
(lp178
ssI4
(dp179
I0
g156
sI1
g165
sI4
(lp180
sI5
(lp181
sI6
(lp182
ssI5
(dp183
I0
g157
sI1
g166
sI2
g172
sI3
g177
sI4
g181
sI5
(lp184
sI6
(lp185
ssI6
(dp186
I0
g159
sI1
g167
sI2
g173
sI3
g178
sI4
g182
sI6
(lp187
ssa(dp188
I0
(dp189
I0
(lp190
sI1
(lp191
Vhttp://dbpedia.org/ontology/abstract
p192
asI2
(lp193
sI3
(lp194
Vhttp://dbpedia.org/property/emergency
p195
asI4
(lp196
sI5
(lp197
Vhttp://dbpedia.org/property/emergency
p198
asI6
(lp199
Vhttp://dbpedia.org/property/emergency
p200
assI1
(dp201
I0
g191
sI1
(lp202
sI2
(lp203
sI3
(lp204
sI4
(lp205
sI5
(lp206
sI6
(lp207
ssI2
(dp208
I0
g193
sI1
g203
sI2
(lp209
sI3
(lp210
sI4
(lp211
sI5
(lp212
sI6
(lp213
ssI3
(dp214
I0
g194
sI1
g204
sI2
g210
sI3
(lp215
sI4
(lp216
sI5
(lp217
sI6
(lp218
ssI4
(dp219
I0
g196
sI1
g205
sI3
g216
sI4
(lp220
sI5
(lp221
sI6
(lp222
ssI5
(dp223
I0
g197
sI1
g206
sI2
g212
sI4
g221
sI5
(lp224
sI6
(lp225
ssI6
(dp226
I0
g199
sI1
g207
sI2
g213
sI4
g222
sI6
(lp227
ssa(dp228
I0
(dp229
I0
(lp230
sI1
(lp231
sI2
(lp232
sI3
(lp233
sI4
(lp234
sI5
(lp235
sI6
(lp236
ssI1
(dp237
I0
g231
sI1
(lp238
sI2
(lp239
sI3
(lp240
sI4
(lp241
sI5
(lp242
sI6
(lp243
ssI2
(dp244
I0
g232
sI1
g239
sI2
(lp245
sI3
(lp246
sI4
(lp247
sI5
(lp248
sI6
(lp249
ssI3
(dp250
I0
g233
sI1
g240
sI3
(lp251
sI4
(lp252
sI5
(lp253
sI6
(lp254
ssI4
(dp255
I0
g234
sI1
g241
sI4
(lp256
sI5
(lp257
sI6
(lp258
ssI5
(dp259
I0
g235
sI1
g242
sI2
g248
sI3
g253
sI4
g257
sI5
(lp260
sI6
(lp261
ssI6
(dp262
I0
g236
sI1
g243
sI2
g249
sI3
g254
sI4
g258
sI6
(lp263
ssa(dp264
I0
(dp265
I0
(lp266
sI1
(lp267
sI2
(lp268
sI3
(lp269
sI4
(lp270
sI5
(lp271
sI6
(lp272
ssI1
(dp273
I0
g267
sI1
(lp274
sI2
(lp275
sI3
(lp276
sI4
(lp277
sI5
(lp278
sI6
(lp279
ssI2
(dp280
I0
g268
sI1
g275
sI2
(lp281
sI3
(lp282
sI4
(lp283
sI5
(lp284
sI6
(lp285
ssI3
(dp286
I0
g269
sI1
g276
sI3
(lp287
sI4
(lp288
sI5
(lp289
sI6
(lp290
ssI4
(dp291
I0
g270
sI1
g277
sI2
g283
sI3
g288
sI4
(lp292
sI5
(lp293
sI6
(lp294
ssI5
(dp295
I0
g271
sI1
g278
sI4
g293
sI5
(lp296
sI6
(lp297
ssI6
(dp298
I0
g272
sI1
g279
sI4
g294
sI6
(lp299
ssa(dp300
I0
(dp301
I0
(lp302
sI1
(lp303
sI2
(lp304
sI3
(lp305
sI4
(lp306
sI5
(lp307
Vhttp://dbpedia.org/property/emergency
p308
asI6
(lp309
Vhttp://dbpedia.org/property/emergency
p310
assI1
(dp311
I0
g303
sI1
(lp312
sI2
(lp313
sI3
(lp314
sI4
(lp315
sI5
(lp316
sI6
(lp317
ssI2
(dp318
I0
g304
sI1
g313
sI2
(lp319
sI3
(lp320
sI4
(lp321
sI5
(lp322
sI6
(lp323
ssI3
(dp324
I0
g305
sI1
g314
sI3
(lp325
sI4
(lp326
sI5
(lp327
sI6
(lp328
ssI4
(dp329
I0
g306
sI1
g315
sI4
(lp330
sI5
(lp331
sI6
(lp332
ssI5
(dp333
I0
g307
sI1
g316
sI2
g322
sI3
g327
sI4
g331
sI5
(lp334
sI6
(lp335
ssI6
(dp336
I0
g309
sI1
g317
sI2
g323
sI3
g328
sI4
g332
sI6
(lp337
ssa(dp338
I0
(dp339
I0
(lp340
sI1
(lp341
sI2
(lp342
sI3
(lp343
sI4
(lp344
sI5
(lp345
sI6
(lp346
ssI1
(dp347
I0
g341
sI1
(lp348
sI2
(lp349
sI3
(lp350
sI4
(lp351
sI5
(lp352
sI6
(lp353
ssI2
(dp354
I0
g342
sI1
g349
sI2
(lp355
sI3
(lp356
sI4
(lp357
sI5
(lp358
sI6
(lp359
ssI3
(dp360
I0
g343
sI1
g350
sI3
(lp361
sI4
(lp362
sI5
(lp363
sI6
(lp364
ssI4
(dp365
I0
g344
sI1
g351
sI4
(lp366
sI5
(lp367
sI6
(lp368
ssI5
(dp369
I0
g345
sI1
g352
sI5
(lp370
sI6
(lp371
ssI6
(dp372
I0
g346
sI1
g353
sI6
(lp373
ssa(dp374
I0
(dp375
I0
(lp376
sI1
(lp377
Vhttp://dbpedia.org/property/org/group
p378
asI2
(lp379
sI3
(lp380
sI4
(lp381
sI5
(lp382
Vhttp://dbpedia.org/property/emergency
p383
asI6
(lp384
Vhttp://dbpedia.org/property/emergency
p385
assI1
(dp386
I0
g377
sI1
(lp387
sI2
(lp388
sI3
(lp389
sI4
(lp390
sI5
(lp391
sI6
(lp392
ssI2
(dp393
I0
g379
sI1
g388
sI2
(lp394
sI3
(lp395
sI4
(lp396
sI5
(lp397
sI6
(lp398
ssI3
(dp399
I0
g380
sI1
g389
sI3
(lp400
sI4
(lp401
sI5
(lp402
sI6
(lp403
ssI4
(dp404
I0
g381
sI1
g390
sI4
(lp405
sI5
(lp406
sI6
(lp407
ssI5
(dp408
I0
g382
sI1
g391
sI2
g397
sI3
g402
sI4
g406
sI5
(lp409
sI6
(lp410
ssI6
(dp411
I0
g384
sI1
g392
sI2
g398
sI3
g403
sI4
g407
sI6
(lp412
ssa(dp413
I0
(dp414
I0
(lp415
sI1
(lp416
sI2
(lp417
sI3
(lp418
Vhttp://dbpedia.org/property/emergency
p419
asI4
(lp420
sI5
(lp421
Vhttp://dbpedia.org/property/emergency
p422
asI6
(lp423
Vhttp://dbpedia.org/property/emergency
p424
assI1
(dp425
I0
g416
sI1
(lp426
sI2
(lp427
sI3
(lp428
sI4
(lp429
sI5
(lp430
sI6
(lp431
ssI2
(dp432
I0
g417
sI1
g427
sI2
(lp433
sI3
(lp434
sI4
(lp435
sI5
(lp436
sI6
(lp437
ssI3
(dp438
I0
g418
sI1
g428
sI2
g434
sI3
(lp439
sI4
(lp440
sI5
(lp441
sI6
(lp442
ssI4
(dp443
I0
g420
sI1
g429
sI3
g440
sI4
(lp444
sI5
(lp445
sI6
(lp446
ssI5
(dp447
I0
g421
sI1
g430
sI2
g436
sI4
g445
sI5
(lp448
sI6
(lp449
ssI6
(dp450
I0
g423
sI1
g431
sI2
g437
sI4
g446
sI6
(lp451
ssa(dp452
I0
(dp453
I0
(lp454
sI1
(lp455
sI2
(lp456
sI3
(lp457
sI4
(lp458
sI5
(lp459
sI6
(lp460
ssI1
(dp461
I0
g455
sI1
(lp462
sI2
(lp463
sI3
(lp464
sI4
(lp465
sI5
(lp466
sI6
(lp467
ssI2
(dp468
I0
g456
sI1
g463
sI2
(lp469
sI3
(lp470
sI4
(lp471
sI5
(lp472
sI6
(lp473
ssI3
(dp474
I0
g457
sI1
g464
sI3
(lp475
sI4
(lp476
sI5
(lp477
sI6
(lp478
ssI4
(dp479
I0
g458
sI1
g465
sI2
g471
sI3
g476
sI4
(lp480
sI5
(lp481
sI6
(lp482
ssI5
(dp483
I0
g459
sI1
g466
sI4
g481
sI5
(lp484
sI6
(lp485
ssI6
(dp486
I0
g460
sI1
g467
sI4
g482
sI6
(lp487
ssa(dp488
I0
(dp489
I0
(lp490
sI1
(lp491
Vhttp://dbpedia.org/ontology/abstract
p492
aVhttp://www.w3.org/2000/01/rdf-schema#comment
p493
aVhttp://dbpedia.org/property/org/group
p494
asI2
(lp495
sI3
(lp496
sI4
(lp497
sI5
(lp498
Vhttp://dbpedia.org/property/emergency
p499
asI6
(lp500
Vhttp://dbpedia.org/property/emergency
p501
assI1
(dp502
I0
g491
sI1
(lp503
sI2
(lp504
sI3
(lp505
sI4
(lp506
sI5
(lp507
sI6
(lp508
ssI2
(dp509
I0
g495
sI1
g504
sI2
(lp510
sI3
(lp511
sI4
(lp512
sI5
(lp513
sI6
(lp514
ssI3
(dp515
I0
g496
sI1
g505
sI3
(lp516
sI4
(lp517
sI5
(lp518
sI6
(lp519
ssI4
(dp520
I0
g497
sI1
g506
sI4
(lp521
sI5
(lp522
sI6
(lp523
ssI5
(dp524
I0
g498
sI1
g507
sI2
g513
sI3
g518
sI4
g522
sI5
(lp525
sI6
(lp526
ssI6
(dp527
I0
g500
sI1
g508
sI2
g514
sI3
g519
sI4
g523
sI6
(lp528
ssa(dp529
I0
(dp530
I0
(lp531
sI1
(lp532
sI2
(lp533
sI3
(lp534
sI4
(lp535
sI5
(lp536
sI6
(lp537
ssI1
(dp538
I0
g532
sI1
(lp539
sI2
(lp540
sI3
(lp541
sI4
(lp542
sI5
(lp543
sI6
(lp544
ssI2
(dp545
I0
g533
sI1
g540
sI2
(lp546
sI3
(lp547
sI4
(lp548
sI5
(lp549
sI6
(lp550
ssI3
(dp551
I0
g534
sI1
g541
sI3
(lp552
sI4
(lp553
sI5
(lp554
sI6
(lp555
ssI4
(dp556
I0
g535
sI1
g542
sI2
g548
sI3
g553
sI4
(lp557
sI5
(lp558
sI6
(lp559
ssI5
(dp560
I0
g536
sI1
g543
sI4
g558
sI5
(lp561
sI6
(lp562
ssI6
(dp563
I0
g537
sI1
g544
sI4
g559
sI6
(lp564
ssa(dp565
I0
(dp566
I0
(lp567
sI1
(lp568
sI2
(lp569
sI3
(lp570
Vhttp://dbpedia.org/property/emergency
p571
asI4
(lp572
sI5
(lp573
sI6
(lp574
ssI1
(dp575
I0
g568
sI1
(lp576
sI2
(lp577
sI3
(lp578
sI4
(lp579
sI5
(lp580
sI6
(lp581
ssI2
(dp582
I0
g569
sI1
g577
sI2
(lp583
sI3
(lp584
sI4
(lp585
sI5
(lp586
sI6
(lp587
ssI3
(dp588
I0
g570
sI1
g578
sI2
g584
sI3
(lp589
sI4
(lp590
sI5
(lp591
sI6
(lp592
ssI4
(dp593
I0
g572
sI1
g579
sI3
g590
sI4
(lp594
sI5
(lp595
sI6
(lp596
ssI5
(dp597
I0
g573
sI1
g580
sI3
g591
sI5
(lp598
sI6
(lp599
ssI6
(dp600
I0
g574
sI1
g581
sI3
g592
sI6
(lp601
ssa(dp602
I0
(dp603
I0
(lp604
sI1
(lp605
sI2
(lp606
sI3
(lp607
sI4
(lp608
sI5
(lp609
sI6
(lp610
ssI1
(dp611
I0
g605
sI1
(lp612
sI2
(lp613
sI3
(lp614
sI4
(lp615
sI5
(lp616
sI6
(lp617
ssI2
(dp618
I0
g606
sI1
g613
sI2
(lp619
sI3
(lp620
sI4
(lp621
sI5
(lp622
sI6
(lp623
ssI3
(dp624
I0
g607
sI1
g614
sI2
g620
sI3
(lp625
sI4
(lp626
sI5
(lp627
sI6
(lp628
ssI4
(dp629
I0
g608
sI1
g615
sI3
g626
sI4
(lp630
sI5
(lp631
sI6
(lp632
ssI5
(dp633
I0
g609
sI1
g616
sI3
g627
sI5
(lp634
sI6
(lp635
ssI6
(dp636
I0
g610
sI1
g617
sI3
g628
sI6
(lp637
ssa(dp638
I0
(dp639
I0
(lp640
sI1
(lp641
sI2
(lp642
Vhttp://dbpedia.org/property/emergency
p643
asI3
(lp644
Vhttp://dbpedia.org/property/emergency
p645
asI4
(lp646
sI5
(lp647
Vhttp://dbpedia.org/property/emergency
p648
asI6
(lp649
Vhttp://dbpedia.org/property/emergency
p650
assI1
(dp651
I0
g641
sI1
(lp652
sI2
(lp653
sI3
(lp654
sI4
(lp655
sI5
(lp656
sI6
(lp657
ssI2
(dp658
I0
g642
sI1
g653
sI2
(lp659
sI3
(lp660
sI4
(lp661
sI5
(lp662
sI6
(lp663
ssI3
(dp664
I0
g644
sI1
g654
sI3
(lp665
sI4
(lp666
sI5
(lp667
sI6
(lp668
ssI4
(dp669
I0
g646
sI1
g655
sI2
g661
sI3
g666
sI4
(lp670
sI5
(lp671
sI6
(lp672
ssI5
(dp673
I0
g647
sI1
g656
sI4
g671
sI5
(lp674
sI6
(lp675
ssI6
(dp676
I0
g649
sI1
g657
sI4
g672
sI6
(lp677
ssa(dp678
I0
(dp679
I0
(lp680
sI1
(lp681
sI2
(lp682
sI3
(lp683
sI4
(lp684
sI5
(lp685
sI6
(lp686
ssI1
(dp687
I0
g681
sI1
(lp688
sI2
(lp689
sI3
(lp690
sI4
(lp691
sI5
(lp692
sI6
(lp693
ssI2
(dp694
I0
g682
sI1
g689
sI2
(lp695
sI3
(lp696
sI4
(lp697
sI5
(lp698
sI6
(lp699
ssI3
(dp700
I0
g683
sI1
g690
sI3
(lp701
sI4
(lp702
sI5
(lp703
sI6
(lp704
ssI4
(dp705
I0
g684
sI1
g691
sI2
g697
sI3
g702
sI4
(lp706
sI5
(lp707
sI6
(lp708
ssI5
(dp709
I0
g685
sI1
g692
sI4
g707
sI5
(lp710
sI6
(lp711
ssI6
(dp712
I0
g686
sI1
g693
sI4
g708
sI6
(lp713
ssa(dp714
I0
(dp715
I0
(lp716
sI1
(lp717
sI2
(lp718
sI3
(lp719
sI4
(lp720
sI5
(lp721
sI6
(lp722
ssI1
(dp723
I0
g717
sI1
(lp724
sI2
(lp725
sI3
(lp726
sI4
(lp727
sI5
(lp728
sI6
(lp729
ssI2
(dp730
I0
g718
sI1
g725
sI2
(lp731
sI3
(lp732
sI4
(lp733
sI5
(lp734
sI6
(lp735
ssI3
(dp736
I0
g719
sI1
g726
sI2
g732
sI3
(lp737
sI4
(lp738
sI5
(lp739
sI6
(lp740
ssI4
(dp741
I0
g720
sI1
g727
sI2
g733
sI4
(lp742
sI5
(lp743
sI6
(lp744
ssI5
(dp745
I0
g721
sI1
g728
sI2
g734
sI5
(lp746
sI6
(lp747
ssI6
(dp748
I0
g722
sI1
g729
sI2
g735
sI6
(lp749
ssa.