(lp1
(dp2
I0
(dp3
I0
(lp4
sI1
(lp5
Vhttp://dbpedia.org/ontology/wikiPageExternalLink
p6
aVhttp://dbpedia.org/property/series
p7
aVhttp://www.w3.org/1999/02/22-rdf-syntax-ns#type
p8
aVhttp://purl.org/dc/terms/subject
p9
aVhttp://www.w3.org/2000/01/rdf-schema#comment
p10
aVhttp://dbpedia.org/ontology/abstract
p11
aVhttp://purl.org/voc/vrank#hasRank
p12
asI2
(lp13
sI3
(lp14
Vhttp://dbpedia.org/ontology/wikiPageExternalLink
p15
aVhttp://dbpedia.org/property/lccn
p16
aVhttp://www.w3.org/1999/02/22-rdf-syntax-ns#type
p17
aVhttp://purl.org/dc/terms/subject
p18
aVhttp://dbpedia.org/ontology/lccnId
p19
aVhttp://www.w3.org/2000/01/rdf-schema#comment
p20
aVhttp://dbpedia.org/ontology/abstract
p21
aVhttp://dbpedia.org/property/tsurl
p22
aVhttp://dbpedia.org/property/birthPlace
p23
aVhttp://dbpedia.org/property/wordnet_type
p24
aVhttp://dbpedia.org/property/story
p25
aVhttp://dbpedia.org/ontology/writer
p26
aVhttp://www.w3.org/2002/07/owl#sameAs
p27
aVhttp://dbpedia.org/property/creator
p28
aVhttp://dbpedia.org/property/namedAfter
p29
aVhttp://dbpedia.org/ontology/viafId
p30
aVhttp://dbpedia.org/property/writer
p31
aVhttp://dbpedia.org/ontology/birthPlace
p32
aVhttp://dbpedia.org/property/influences
p33
asI4
(lp34
ssI1
(dp35
I0
g5
sI1
(lp36
sI2
(lp37
sI3
(lp38
Vhttp://dbpedia.org/ontology/abstract
p39
aVhttp://www.w3.org/2000/01/rdf-schema#comment
p40
aVhttp://dbpedia.org/property/sign
p41
asI4
(lp42
ssI2
(dp43
I0
g13
sI1
g37
sI2
(lp44
sI3
(lp45
sI4
(lp46
ssI3
(dp47
I0
g14
sI1
g38
sI2
g45
sI3
(lp48
sI4
(lp49
Vhttp://dbpedia.org/ontology/abstract
p50
aVhttp://www.w3.org/1999/02/22-rdf-syntax-ns#type
p51
aVhttp://purl.org/dc/terms/subject
p52
assI4
(dp53
I0
g34
sI1
g42
sI2
g46
sI3
g49
sI4
(lp54
ssa(dp55
I0
(dp56
I0
(lp57
sI1
(lp58
Vhttp://dbpedia.org/ontology/wikiPageExternalLink
p59
aVhttp://www.w3.org/1999/02/22-rdf-syntax-ns#type
p60
aVhttp://www.w3.org/2000/01/rdf-schema#comment
p61
aVhttp://dbpedia.org/ontology/abstract
p62
aVhttp://dbpedia.org/ontology/wikiPageRedirects
p63
aVhttp://purl.org/voc/vrank#hasRank
p64
aVhttp://www.w3.org/ns/prov#wasDerivedFrom
p65
aVhttp://www.w3.org/2002/07/owl#sameAs
p66
asI2
(lp67
sI3
(lp68
Vhttp://dbpedia.org/ontology/wikiPageExternalLink
p69
aVhttp://www.w3.org/1999/02/22-rdf-syntax-ns#type
p70
aVhttp://purl.org/dc/terms/subject
p71
aVhttp://www.w3.org/2000/01/rdf-schema#comment
p72
aVhttp://dbpedia.org/ontology/abstract
p73
aVhttp://dbpedia.org/ontology/wikiPageRedirects
p74
aVhttp://purl.org/voc/vrank#hasRank
p75
aVhttp://dbpedia.org/ontology/writer
p76
aVhttp://www.w3.org/ns/prov#wasDerivedFrom
p77
aVhttp://dbpedia.org/property/namedAfter
p78
aVhttp://dbpedia.org/property/writer
p79
aVhttp://www.w3.org/2002/07/owl#sameAs
p80
asI4
(lp81
Vhttp://dbpedia.org/property/religion
p82
aVhttp://www.w3.org/1999/02/22-rdf-syntax-ns#type
p83
aVhttp://www.w3.org/2000/01/rdf-schema#comment
p84
aVhttp://dbpedia.org/ontology/abstract
p85
aVhttp://dbpedia.org/ontology/wikiPageRedirects
p86
aVhttp://purl.org/voc/vrank#hasRank
p87
aVhttp://dbpedia.org/property/label
p88
assI1
(dp89
I0
g58
sI1
(lp90
sI2
(lp91
Vhttp://dbpedia.org/ontology/abstract
p92
aVhttp://xmlns.com/foaf/0.1/depiction
p93
aVhttp://purl.org/dc/terms/subject
p94
aVhttp://dbpedia.org/ontology/thumbnail
p95
aVhttp://www.w3.org/2000/01/rdf-schema#comment
p96
asI3
(lp97
Vhttp://dbpedia.org/ontology/abstract
p98
aVhttp://www.w3.org/2000/01/rdf-schema#comment
p99
asI4
(lp100
ssI2
(dp101
I0
g67
sI1
g91
sI2
(lp102
sI3
(lp103
Vhttp://dbpedia.org/ontology/abstract
p104
aVhttp://www.w3.org/2000/01/rdf-schema#comment
p105
asI4
(lp106
ssI3
(dp107
I0
g68
sI1
g97
sI2
g103
sI3
(lp108
sI4
(lp109
ssI4
(dp110
I0
g81
sI1
g100
sI2
g106
sI3
g109
sI4
(lp111
ssa(dp112
I0
(dp113
I0
(lp114
sI1
(lp115
sI2
(lp116
sI3
(lp117
Vhttp://dbpedia.org/ontology/wikiPageExternalLink
p118
aVhttp://www.w3.org/2002/07/owl#sameAs
p119
aVhttp://www.w3.org/1999/02/22-rdf-syntax-ns#type
p120
aVhttp://www.w3.org/2000/01/rdf-schema#comment
p121
aVhttp://dbpedia.org/property/influenced
p122
aVhttp://dbpedia.org/ontology/abstract
p123
aVhttp://dbpedia.org/ontology/wikiPageRedirects
p124
aVhttp://dbpedia.org/property/wordnet_type
p125
aVhttp://dbpedia.org/ontology/thumbnail
p126
aVhttp://www.w3.org/ns/prov#wasDerivedFrom
p127
aVhttp://dbpedia.org/property/hasPhotoCollection
p128
aVhttp://dbpedia.org/ontology/viafId
p129
aVhttp://dbpedia.org/property/influences
p130
aVhttp://dbpedia.org/ontology/deathPlace
p131
asI4
(lp132
ssI1
(dp133
I0
g115
sI1
(lp134
sI2
(lp135
sI3
(lp136
Vhttp://dbpedia.org/ontology/abstract
p137
aVhttp://dbpedia.org/ontology/author
p138
aVhttp://www.w3.org/2000/01/rdf-schema#comment
p139
aVhttp://dbpedia.org/property/author
p140
asI4
(lp141
ssI2
(dp142
I0
g116
sI1
g135
sI2
(lp143
sI3
(lp144
Vhttp://dbpedia.org/ontology/abstract
p145
aVhttp://www.w3.org/2000/01/rdf-schema#comment
p146
asI4
(lp147
ssI3
(dp148
I0
g117
sI1
g136
sI2
g144
sI3
(lp149
sI4
(lp150
ssI4
(dp151
I0
g132
sI1
g141
sI2
g147
sI3
g150
sI4
(lp152
ssa(dp153
I0
(dp154
I0
(lp155
sI1
(lp156
Vhttp://dbpedia.org/ontology/wikiPageExternalLink
p157
aVhttp://www.w3.org/1999/02/22-rdf-syntax-ns#type
p158
aVhttp://dbpedia.org/ontology/abstract
p159
aVhttp://dbpedia.org/ontology/wikiPageRedirects
p160
aVhttp://purl.org/voc/vrank#hasRank
p161
aVhttp://www.w3.org/ns/prov#wasDerivedFrom
p162
aVhttp://www.w3.org/2002/07/owl#sameAs
p163
asI2
(lp164
sI3
(lp165
sI4
(lp166
ssI1
(dp167
I0
g156
sI1
(lp168
sI2
(lp169
sI3
(lp170
Vhttp://dbpedia.org/ontology/abstract
p171
aVhttp://www.w3.org/2000/01/rdf-schema#comment
p172
asI4
(lp173
ssI2
(dp174
I0
g164
sI1
g169
sI2
(lp175
sI3
(lp176
sI4
(lp177
ssI3
(dp178
I0
g165
sI1
g170
sI2
g176
sI3
(lp179
sI4
(lp180
ssI4
(dp181
I0
g166
sI1
g173
sI2
g177
sI3
g180
sI4
(lp182
ssa(dp183
I0
(dp184
I0
(lp185
sI1
(lp186
Vhttp://dbpedia.org/ontology/abstract
p187
aVhttp://www.w3.org/1999/02/22-rdf-syntax-ns#type
p188
aVhttp://dbpedia.org/property/hasPhotoCollection
p189
aVhttp://www.w3.org/2002/07/owl#sameAs
p190
aVhttp://www.w3.org/2000/01/rdf-schema#comment
p191
asI2
(lp192
sI3
(lp193
Vhttp://dbpedia.org/ontology/wikiPageExternalLink
p194
aVhttp://www.w3.org/1999/02/22-rdf-syntax-ns#type
p195
aVhttp://dbpedia.org/property/range
p196
aVhttp://dbpedia.org/property/basedOn
p197
aVhttp://www.w3.org/2000/01/rdf-schema#comment
p198
aVhttp://dbpedia.org/ontology/abstract
p199
aVhttp://dbpedia.org/ontology/wikiPageRedirects
p200
aVhttp://purl.org/voc/vrank#hasRank
p201
aVhttp://dbpedia.org/ontology/writer
p202
aVhttp://www.w3.org/2002/07/owl#sameAs
p203
aVhttp://www.w3.org/ns/prov#wasDerivedFrom
p204
aVhttp://dbpedia.org/property/namedAfter
p205
aVhttp://dbpedia.org/property/hasPhotoCollection
p206
aVhttp://dbpedia.org/ontology/viafId
p207
aVhttp://dbpedia.org/property/writer
p208
aVhttp://dbpedia.org/ontology/basedOn
p209
aVhttp://dbpedia.org/property/influences
p210
asI4
(lp211
Vhttp://www.w3.org/1999/02/22-rdf-syntax-ns#type
p212
aVhttp://www.w3.org/2000/01/rdf-schema#comment
p213
aVhttp://dbpedia.org/ontology/abstract
p214
aVhttp://dbpedia.org/ontology/wikiPageRedirects
p215
aVhttp://dbpedia.org/property/recognition
p216
aVhttp://dbpedia.org/property/hasPhotoCollection
p217
aVhttp://www.w3.org/2002/07/owl#sameAs
p218
assI1
(dp219
I0
g186
sI1
(lp220
sI2
(lp221
Vhttp://dbpedia.org/property/releaseDate
p222
aVhttp://dbpedia.org/ontology/abstract
p223
aVhttp://www.w3.org/1999/02/22-rdf-syntax-ns#type
p224
aVhttp://purl.org/dc/terms/subject
p225
aVhttp://www.w3.org/2000/01/rdf-schema#comment
p226
asI3
(lp227
sI4
(lp228
ssI2
(dp229
I0
g192
sI1
g221
sI2
(lp230
sI3
(lp231
Vhttp://dbpedia.org/ontology/abstract
p232
aVhttp://www.w3.org/2000/01/rdf-schema#comment
p233
asI4
(lp234
ssI3
(dp235
I0
g193
sI1
g227
sI2
g231
sI3
(lp236
sI4
(lp237
ssI4
(dp238
I0
g211
sI1
g228
sI2
g234
sI3
g237
sI4
(lp239
ssa(dp240
I0
(dp241
I0
(lp242
sI1
(lp243
sI2
(lp244
sI3
(lp245
Vhttp://dbpedia.org/ontology/wikiPageExternalLink
p246
aVhttp://www.w3.org/1999/02/22-rdf-syntax-ns#type
p247
aVhttp://dbpedia.org/property/source
p248
aVhttp://www.w3.org/2000/01/rdf-schema#comment
p249
aVhttp://dbpedia.org/ontology/abstract
p250
aVhttp://dbpedia.org/property/wordnet_type
p251
aVhttp://dbpedia.org/property/bgcolor
p252
aVhttp://dbpedia.org/ontology/viafId
p253
aVhttp://www.w3.org/ns/prov#wasDerivedFrom
p254
aVhttp://purl.org/voc/vrank#hasRank
p255
aVhttp://dbpedia.org/ontology/basedOn
p256
aVhttp://www.w3.org/2002/07/owl#sameAs
p257
asI4
(lp258
Vhttp://www.w3.org/ns/prov#wasDerivedFrom
p259
aVhttp://dbpedia.org/ontology/abstract
p260
aVhttp://www.w3.org/2002/07/owl#sameAs
p261
aVhttp://www.w3.org/2000/01/rdf-schema#comment
p262
assI1
(dp263
I0
g243
sI1
(lp264
sI2
(lp265
sI3
(lp266
Vhttp://purl.org/dc/terms/subject
p267
aVhttp://www.w3.org/2000/01/rdf-schema#comment
p268
aVhttp://dbpedia.org/ontology/abstract
p269
aVhttp://dbpedia.org/ontology/author
p270
aVhttp://dbpedia.org/property/source
p271
aVhttp://dbpedia.org/property/creator
p272
aVhttp://dbpedia.org/ontology/creator
p273
aVhttp://dbpedia.org/property/author
p274
asI4
(lp275
ssI2
(dp276
I0
g244
sI1
g265
sI2
(lp277
sI3
(lp278
Vhttp://dbpedia.org/ontology/abstract
p279
aVhttp://www.w3.org/2000/01/rdf-schema#comment
p280
asI4
(lp281
ssI3
(dp282
I0
g245
sI1
g266
sI2
g278
sI3
(lp283
sI4
(lp284
ssI4
(dp285
I0
g258
sI1
g275
sI2
g281
sI3
g284
sI4
(lp286
ssa(dp287
I0
(dp288
I0
(lp289
sI1
(lp290
sI2
(lp291
sI3
(lp292
Vhttp://www.w3.org/1999/02/22-rdf-syntax-ns#type
p293
aVhttp://dbpedia.org/ontology/lccnId
p294
aVhttp://www.w3.org/2000/01/rdf-schema#comment
p295
aVhttp://dbpedia.org/ontology/abstract
p296
aVhttp://dbpedia.org/property/lccn
p297
aVhttp://purl.org/voc/vrank#hasRank
p298
aVhttp://dbpedia.org/ontology/writer
p299
aVhttp://www.w3.org/2002/07/owl#sameAs
p300
aVhttp://www.w3.org/ns/prov#wasDerivedFrom
p301
aVhttp://dbpedia.org/ontology/selibrId
p302
aVhttp://dbpedia.org/property/writer
p303
aVhttp://dbpedia.org/property/influences
p304
asI4
(lp305
ssI1
(dp306
I0
g290
sI1
(lp307
sI2
(lp308
sI3
(lp309
Vhttp://dbpedia.org/ontology/abstract
p310
aVhttp://www.w3.org/2000/01/rdf-schema#comment
p311
asI4
(lp312
ssI2
(dp313
I0
g291
sI1
g308
sI2
(lp314
sI3
(lp315
Vhttp://dbpedia.org/ontology/abstract
p316
aVhttp://www.w3.org/2000/01/rdf-schema#comment
p317
asI4
(lp318
ssI3
(dp319
I0
g292
sI1
g309
sI2
g315
sI3
(lp320
sI4
(lp321
ssI4
(dp322
I0
g305
sI1
g312
sI2
g318
sI3
g321
sI4
(lp323
ssa(dp324
I0
(dp325
I0
(lp326
sI1
(lp327
Vhttp://dbpedia.org/property/caption
p328
aVhttp://dbpedia.org/ontology/abstract
p329
aVhttp://www.w3.org/1999/02/22-rdf-syntax-ns#type
p330
aVhttp://purl.org/dc/terms/subject
p331
aVhttp://www.w3.org/2000/01/rdf-schema#comment
p332
asI2
(lp333
sI3
(lp334
sI4
(lp335
ssI1
(dp336
I0
g327
sI1
(lp337
sI2
(lp338
Vhttp://dbpedia.org/ontology/abstract
p339
aVhttp://www.w3.org/2000/01/rdf-schema#comment
p340
asI3
(lp341
Vhttp://dbpedia.org/ontology/abstract
p342
aVhttp://www.w3.org/2000/01/rdf-schema#comment
p343
asI4
(lp344
ssI2
(dp345
I0
g333
sI1
g338
sI2
(lp346
sI3
(lp347
sI4
(lp348
ssI3
(dp349
I0
g334
sI1
g341
sI2
g347
sI3
(lp350
sI4
(lp351
ssI4
(dp352
I0
g335
sI1
g344
sI2
g348
sI3
g351
sI4
(lp353
ssa(dp354
I0
(dp355
I0
(lp356
sI1
(lp357
sI2
(lp358
sI3
(lp359
Vhttp://dbpedia.org/ontology/wikiPageExternalLink
p360
aVhttp://www.w3.org/1999/02/22-rdf-syntax-ns#type
p361
aVhttp://purl.org/dc/terms/subject
p362
aVhttp://dbpedia.org/ontology/lccnId
p363
aVhttp://www.w3.org/2000/01/rdf-schema#comment
p364
aVhttp://dbpedia.org/ontology/abstract
p365
aVhttp://xmlns.com/foaf/0.1/depiction
p366
aVhttp://dbpedia.org/property/lccn
p367
aVhttp://dbpedia.org/ontology/writer
p368
aVhttp://dbpedia.org/ontology/thumbnail
p369
aVhttp://dbpedia.org/ontology/author
p370
aVhttp://www.w3.org/ns/prov#wasDerivedFrom
p371
aVhttp://dbpedia.org/property/caption
p372
aVhttp://dbpedia.org/property/writer
p373
aVhttp://www.w3.org/2002/07/owl#sameAs
p374
aVhttp://dbpedia.org/property/author
p375
asI4
(lp376
ssI1
(dp377
I0
g357
sI1
(lp378
sI2
(lp379
sI3
(lp380
Vhttp://dbpedia.org/property/notableworks
p381
asI4
(lp382
ssI2
(dp383
I0
g358
sI1
g379
sI2
(lp384
sI3
(lp385
Vhttp://dbpedia.org/ontology/abstract
p386
asI4
(lp387
ssI3
(dp388
I0
g359
sI1
g380
sI2
g385
sI3
(lp389
sI4
(lp390
Vhttp://purl.org/dc/terms/subject
p391
assI4
(dp392
I0
g376
sI1
g382
sI2
g387
sI3
g390
sI4
(lp393
ssa(dp394
I0
(dp395
I0
(lp396
sI1
(lp397
Vhttp://www.w3.org/1999/02/22-rdf-syntax-ns#type
p398
aVhttp://www.w3.org/2000/01/rdf-schema#comment
p399
aVhttp://dbpedia.org/ontology/abstract
p400
aVhttp://xmlns.com/foaf/0.1/depiction
p401
aVhttp://dbpedia.org/property/published
p402
aVhttp://dbpedia.org/ontology/thumbnail
p403
asI2
(lp404
Vhttp://dbpedia.org/ontology/abstract
p405
aVhttp://www.w3.org/1999/02/22-rdf-syntax-ns#type
p406
aVhttp://dbpedia.org/ontology/wikiPageRedirects
p407
aVhttp://www.w3.org/2000/01/rdf-schema#comment
p408
asI3
(lp409
Vhttp://www.w3.org/1999/02/22-rdf-syntax-ns#type
p410
aVhttp://dbpedia.org/ontology/lccnId
p411
aVhttp://www.w3.org/2000/01/rdf-schema#comment
p412
aVhttp://dbpedia.org/ontology/abstract
p413
aVhttp://dbpedia.org/property/lccn
p414
aVhttp://www.w3.org/ns/prov#wasDerivedFrom
p415
aVhttp://dbpedia.org/property/dateOfDeath
p416
asI4
(lp417
ssI1
(dp418
I0
g397
sI1
(lp419
sI2
(lp420
Vhttp://dbpedia.org/ontology/abstract
p421
aVhttp://www.w3.org/2000/01/rdf-schema#comment
p422
asI3
(lp423
Vhttp://dbpedia.org/ontology/abstract
p424
aVhttp://www.w3.org/2000/01/rdf-schema#comment
p425
asI4
(lp426
ssI2
(dp427
I0
g404
sI1
g420
sI2
(lp428
sI3
(lp429
sI4
(lp430
ssI3
(dp431
I0
g409
sI1
g423
sI2
g429
sI3
(lp432
sI4
(lp433
ssI4
(dp434
I0
g417
sI1
g426
sI2
g430
sI3
g433
sI4
(lp435
ssa(dp436
I0
(dp437
I0
(lp438
sI1
(lp439
sI2
(lp440
sI3
(lp441
Vhttp://dbpedia.org/ontology/abstract
p442
aVhttp://www.w3.org/1999/02/22-rdf-syntax-ns#type
p443
aVhttp://dbpedia.org/property/image
p444
asI4
(lp445
ssI1
(dp446
I0
g439
sI1
(lp447
sI2
(lp448
sI3
(lp449
Vhttp://dbpedia.org/ontology/abstract
p450
aVhttp://dbpedia.org/ontology/author
p451
aVhttp://dbpedia.org/property/writer
p452
aVhttp://www.w3.org/2000/01/rdf-schema#comment
p453
aVhttp://dbpedia.org/property/author
p454
asI4
(lp455
ssI2
(dp456
I0
g440
sI1
g448
sI2
(lp457
sI3
(lp458
Vhttp://dbpedia.org/ontology/abstract
p459
asI4
(lp460
ssI3
(dp461
I0
g441
sI1
g449
sI2
g458
sI3
(lp462
sI4
(lp463
Vhttp://purl.org/dc/terms/subject
p464
assI4
(dp465
I0
g445
sI1
g455
sI2
g460
sI3
g463
sI4
(lp466
ssa(dp467
I0
(dp468
I0
(lp469
sI1
(lp470
sI2
(lp471
sI3
(lp472
Vhttp://dbpedia.org/ontology/wikiPageExternalLink
p473
aVhttp://purl.org/dc/terms/subject
p474
aVhttp://www.w3.org/2000/01/rdf-schema#comment
p475
aVhttp://dbpedia.org/ontology/abstract
p476
aVhttp://dbpedia.org/ontology/writer
p477
aVhttp://dbpedia.org/property/writer
p478
aVhttp://www.w3.org/2002/07/owl#sameAs
p479
asI4
(lp480
ssI1
(dp481
I0
g470
sI1
(lp482
sI2
(lp483
sI3
(lp484
Vhttp://dbpedia.org/property/notableworks
p485
asI4
(lp486
ssI2
(dp487
I0
g471
sI1
g483
sI2
(lp488
sI3
(lp489
sI4
(lp490
ssI3
(dp491
I0
g472
sI1
g484
sI2
g489
sI3
(lp492
sI4
(lp493
Vhttp://purl.org/dc/terms/subject
p494
assI4
(dp495
I0
g480
sI1
g486
sI2
g490
sI3
g493
sI4
(lp496
ssa(dp497
I0
(dp498
I0
(lp499
sI1
(lp500
sI2
(lp501
sI3
(lp502
Vhttp://dbpedia.org/ontology/abstract
p503
aVhttp://www.w3.org/1999/02/22-rdf-syntax-ns#type
p504
aVhttp://www.w3.org/2000/01/rdf-schema#comment
p505
asI4
(lp506
Vhttp://www.w3.org/1999/02/22-rdf-syntax-ns#type
p507
assI1
(dp508
I0
g500
sI1
(lp509
sI2
(lp510
sI3
(lp511
Vhttp://dbpedia.org/ontology/abstract
p512
aVhttp://dbpedia.org/property/notableworks
p513
aVhttp://www.w3.org/2000/01/rdf-schema#comment
p514
asI4
(lp515
ssI2
(dp516
I0
g501
sI1
g510
sI2
(lp517
sI3
(lp518
Vhttp://dbpedia.org/ontology/abstract
p519
aVhttp://www.w3.org/2000/01/rdf-schema#comment
p520
asI4
(lp521
ssI3
(dp522
I0
g502
sI1
g511
sI2
g518
sI3
(lp523
sI4
(lp524
ssI4
(dp525
I0
g506
sI1
g515
sI2
g521
sI3
g524
sI4
(lp526
ssa(dp527
I0
(dp528
I0
(lp529
sI1
(lp530
sI2
(lp531
sI3
(lp532
sI4
(lp533
ssI1
(dp534
I0
g530
sI1
(lp535
sI2
(lp536
Vhttp://dbpedia.org/ontology/abstract
p537
aVhttp://www.w3.org/1999/02/22-rdf-syntax-ns#type
p538
aVhttp://purl.org/dc/terms/subject
p539
aVhttp://www.w3.org/2000/01/rdf-schema#comment
p540
asI3
(lp541
Vhttp://dbpedia.org/ontology/abstract
p542
aVhttp://www.w3.org/2000/01/rdf-schema#comment
p543
asI4
(lp544
ssI2
(dp545
I0
g531
sI1
g536
sI2
(lp546
sI3
(lp547
sI4
(lp548
ssI3
(dp549
I0
g532
sI1
g541
sI2
g547
sI3
(lp550
sI4
(lp551
ssI4
(dp552
I0
g533
sI1
g544
sI2
g548
sI3
g551
sI4
(lp553
ssa(dp554
I0
(dp555
I0
(lp556
sI1
(lp557
sI2
(lp558
sI3
(lp559
sI4
(lp560
ssI1
(dp561
I0
g557
sI1
(lp562
sI2
(lp563
sI3
(lp564
sI4
(lp565
ssI2
(dp566
I0
g558
sI1
g563
sI2
(lp567
sI3
(lp568
sI4
(lp569
ssI3
(dp570
I0
g559
sI1
g564
sI2
g568
sI3
(lp571
sI4
(lp572
ssI4
(dp573
I0
g560
sI1
g565
sI2
g569
sI3
g572
sI4
(lp574
ssa(dp575
I0
(dp576
I0
(lp577
sI1
(lp578
Vhttp://www.w3.org/2002/07/owl#sameAs
p579
asI2
(lp580
sI3
(lp581
Vhttp://dbpedia.org/ontology/wikiPageExternalLink
p582
aVhttp://dbpedia.org/ontology/writer
p583
aVhttp://dbpedia.org/property/writer
p584
asI4
(lp585
ssI1
(dp586
I0
g578
sI1
(lp587
sI2
(lp588
sI3
(lp589
Vhttp://dbpedia.org/ontology/abstract
p590
aVhttp://www.w3.org/2000/01/rdf-schema#comment
p591
asI4
(lp592
ssI2
(dp593
I0
g580
sI1
g588
sI2
(lp594
sI3
(lp595
sI4
(lp596
ssI3
(dp597
I0
g581
sI1
g589
sI2
g595
sI3
(lp598
sI4
(lp599
Vhttp://purl.org/dc/terms/subject
p600
assI4
(dp601
I0
g585
sI1
g592
sI2
g596
sI3
g599
sI4
(lp602
ssa(dp603
I0
(dp604
I0
(lp605
sI1
(lp606
Vhttp://www.w3.org/ns/prov#wasDerivedFrom
p607
asI2
(lp608
sI3
(lp609
Vhttp://dbpedia.org/ontology/wikiPageExternalLink
p610
asI4
(lp611
Vhttp://dbpedia.org/ontology/abstract
p612
aVhttp://www.w3.org/2000/01/rdf-schema#comment
p613
aVhttp://www.w3.org/2002/07/owl#sameAs
p614
aVhttp://dbpedia.org/property/church
p615
assI1
(dp616
I0
g606
sI1
(lp617
sI2
(lp618
Vhttp://dbpedia.org/ontology/abstract
p619
aVhttp://www.w3.org/1999/02/22-rdf-syntax-ns#type
p620
aVhttp://purl.org/dc/terms/subject
p621
aVhttp://www.w3.org/2000/01/rdf-schema#comment
p622
asI3
(lp623
Vhttp://dbpedia.org/ontology/abstract
p624
aVhttp://www.w3.org/2000/01/rdf-schema#comment
p625
asI4
(lp626
ssI2
(dp627
I0
g608
sI1
g618
sI2
(lp628
sI3
(lp629
Vhttp://dbpedia.org/ontology/abstract
p630
asI4
(lp631
ssI3
(dp632
I0
g609
sI1
g623
sI2
g629
sI3
(lp633
sI4
(lp634
ssI4
(dp635
I0
g611
sI1
g626
sI2
g631
sI3
g634
sI4
(lp636
ssa(dp637
I0
(dp638
I0
(lp639
sI1
(lp640
sI2
(lp641
sI3
(lp642
Vhttp://dbpedia.org/ontology/wikiPageExternalLink
p643
aVhttp://www.w3.org/1999/02/22-rdf-syntax-ns#type
p644
aVhttp://purl.org/dc/terms/subject
p645
aVhttp://www.w3.org/2000/01/rdf-schema#comment
p646
aVhttp://dbpedia.org/ontology/abstract
p647
aVhttp://dbpedia.org/property/citizenship
p648
aVhttp://www.w3.org/ns/prov#wasDerivedFrom
p649
aVhttp://www.w3.org/2002/07/owl#sameAs
p650
asI4
(lp651
ssI1
(dp652
I0
g640
sI1
(lp653
sI2
(lp654
sI3
(lp655
Vhttp://dbpedia.org/property/notableworks
p656
asI4
(lp657
ssI2
(dp658
I0
g641
sI1
g654
sI2
(lp659
sI3
(lp660
Vhttp://dbpedia.org/ontology/abstract
p661
asI4
(lp662
ssI3
(dp663
I0
g642
sI1
g655
sI2
g660
sI3
(lp664
sI4
(lp665
ssI4
(dp666
I0
g651
sI1
g657
sI2
g662
sI3
g665
sI4
(lp667
ssa(dp668
I0
(dp669
I0
(lp670
sI1
(lp671
Vhttp://dbpedia.org/ontology/wikiPageExternalLink
p672
aVhttp://www.w3.org/1999/02/22-rdf-syntax-ns#type
p673
aVhttp://purl.org/dc/terms/subject
p674
aVhttp://www.w3.org/2000/01/rdf-schema#comment
p675
aVhttp://dbpedia.org/ontology/abstract
p676
aVhttp://purl.org/voc/vrank#hasRank
p677
asI2
(lp678
sI3
(lp679
Vhttp://dbpedia.org/ontology/writer
p680
asI4
(lp681
ssI1
(dp682
I0
g671
sI1
(lp683
sI2
(lp684
Vhttp://dbpedia.org/ontology/abstract
p685
aVhttp://www.w3.org/1999/02/22-rdf-syntax-ns#type
p686
aVhttp://purl.org/dc/terms/subject
p687
aVhttp://www.w3.org/2000/01/rdf-schema#comment
p688
asI3
(lp689
sI4
(lp690
ssI2
(dp691
I0
g678
sI1
g684
sI2
(lp692
sI3
(lp693
sI4
(lp694
ssI3
(dp695
I0
g679
sI1
g689
sI2
g693
sI3
(lp696
sI4
(lp697
ssI4
(dp698
I0
g681
sI1
g690
sI2
g694
sI3
g697
sI4
(lp699
ssa(dp700
I0
(dp701
I0
(lp702
sI1
(lp703
Vhttp://dbpedia.org/ontology/wikiPageExternalLink
p704
aVhttp://www.w3.org/1999/02/22-rdf-syntax-ns#type
p705
aVhttp://www.w3.org/2000/01/rdf-schema#comment
p706
aVhttp://dbpedia.org/ontology/abstract
p707
aVhttp://purl.org/voc/vrank#hasRank
p708
aVhttp://dbpedia.org/property/image
p709
asI2
(lp710
sI3
(lp711
sI4
(lp712
ssI1
(dp713
I0
g703
sI1
(lp714
sI2
(lp715
Vhttp://dbpedia.org/ontology/abstract
p716
aVhttp://purl.org/dc/terms/subject
p717
aVhttp://www.w3.org/2000/01/rdf-schema#comment
p718
asI3
(lp719
Vhttp://dbpedia.org/ontology/abstract
p720
aVhttp://www.w3.org/2000/01/rdf-schema#comment
p721
asI4
(lp722
ssI2
(dp723
I0
g710
sI1
g715
sI2
(lp724
sI3
(lp725
sI4
(lp726
ssI3
(dp727
I0
g711
sI1
g719
sI2
g725
sI3
(lp728
sI4
(lp729
ssI4
(dp730
I0
g712
sI1
g722
sI2
g726
sI3
g729
sI4
(lp731
ssa.