(lp1
(lp2
(lp3
a(lp4
a(lp5
a(lp6
a(lp7
((lVhttp://dbpedia.org/resource/Military_dictatorship
tp8
aa(lp9
aa(lp10
(lp11
a(lp12
a(lp13
a(lp14
a(lp15
((lp16
Vhttp://dbpedia.org/class/yago/Abstraction100002137
p17
aVhttp://dbpedia.org/class/yago/Group100031264
p18
aVhttp://dbpedia.org/class/yago/PoliticalSystem108367880
p19
aVhttp://dbpedia.org/class/yago/SocialGroup107950920
p20
aVhttp://dbpedia.org/class/yago/FormsOfGovernment
p21
aVhttp://dbpedia.org/class/yago/PoliticalSystems
p22
aVhttp://dbpedia.org/resource/Single-party_state
tp23
aa(lp24
aa(lp25
(lp26
a(lp27
a(lp28
a(lp29
a(lp30
a(lp31
aa(lp32
(lp33
a(lp34
a(lp35
((lp36
Vhttp://www.w3.org/2002/07/owl#Thing
p37
aVhttp://dbpedia.org/ontology/Place
p38
aVhttp://dbpedia.org/ontology/Location
p39
aVhttp://www.wikidata.org/entity/Q486972
p40
aVhttp://www.wikidata.org/entity/Q6256
p41
aVhttp://dbpedia.org/ontology/Country
p42
aVhttp://dbpedia.org/ontology/PopulatedPlace
p43
aVhttp://schema.org/Country
p44
aVhttp://schema.org/Place
p45
aVhttp://umbel.org/umbel/rc/Country
p46
aVhttp://umbel.org/umbel/rc/Location_Underspecified
p47
aVhttp://umbel.org/umbel/rc/PopulatedPlace
p48
aVhttp://dbpedia.org/class/yago/AdministrativeDistrict108491826
p49
aVhttp://dbpedia.org/class/yago/Country108544813
p50
aVhttp://dbpedia.org/class/yago/District108552138
p51
aVhttp://dbpedia.org/class/yago/Location100027167
p52
aVhttp://dbpedia.org/class/yago/Object100002684
p53
aVhttp://dbpedia.org/class/yago/Region108630985
p54
aVhttp://dbpedia.org/class/yago/YagoGeoEntity
p55
aVhttp://dbpedia.org/class/yago/YagoLegalActorGeo
p56
aVhttp://dbpedia.org/class/yago/FormerBritishProtectorates
p57
aVhttp://dbpedia.org/class/yago/FormerCountriesInAfrica
p58
aVhttp://dbpedia.org/class/yago/PhysicalEntity100001930
p59
aVhttp://dbpedia.org/class/yago/Protectorate108627316
p60
aVhttp://dbpedia.org/class/yago/YagoPermanentlyLocatedEntity
p61
aVhttp://dbpedia.org/class/yago/StatesAndTerritoriesEstablishedIn1885
p62
aVhttp://dbpedia.org/resource/Bechuanaland_Protectorate
tp63
aa(lp64
a(lp65
a(lp66
aa(lp67
(lp68
((lp69
Vhttp://www.w3.org/2002/07/owl#Thing
p70
aVhttp://dbpedia.org/ontology/Place
p71
aVhttp://dbpedia.org/ontology/Location
p72
aVhttp://www.wikidata.org/entity/Q486972
p73
aVhttp://www.wikidata.org/entity/Q6256
p74
aVhttp://dbpedia.org/ontology/Country
p75
aVhttp://dbpedia.org/ontology/PopulatedPlace
p76
aVhttp://www.w3.org/2003/01/geo/wgs84_pos#SpatialThing
p77
aVhttp://schema.org/Country
p78
aVhttp://schema.org/Place
p79
aVhttp://umbel.org/umbel/rc/Country
p80
aVhttp://umbel.org/umbel/rc/Location_Underspecified
p81
aVhttp://umbel.org/umbel/rc/PopulatedPlace
p82
aVhttp://dbpedia.org/class/yago/Abstraction100002137
p83
aVhttp://dbpedia.org/class/yago/AdministrativeDistrict108491826
p84
aVhttp://dbpedia.org/class/yago/AfricanCountries
p85
aVhttp://dbpedia.org/class/yago/AfricanUnionMemberEconomies
p86
aVhttp://dbpedia.org/class/yago/Country108544813
p87
aVhttp://dbpedia.org/class/yago/District108552138
p88
aVhttp://dbpedia.org/class/yago/Economy108366753
p89
aVhttp://dbpedia.org/class/yago/Group100031264
p90
aVhttp://dbpedia.org/class/yago/Location100027167
p91
aVhttp://dbpedia.org/class/yago/Object100002684
p92
aVhttp://dbpedia.org/class/yago/Region108630985
p93
aVhttp://dbpedia.org/class/yago/System108435388
p94
aVhttp://dbpedia.org/class/yago/YagoGeoEntity
p95
aVhttp://dbpedia.org/class/yago/YagoLegalActorGeo
p96
aVhttp://dbpedia.org/class/yago/French-speakingCountries
p97
aVhttp://dbpedia.org/class/yago/PhysicalEntity100001930
p98
aVhttp://dbpedia.org/class/yago/YagoPermanentlyLocatedEntity
p99
aVhttp://dbpedia.org/class/yago/LandlockedCountries
p100
aVhttp://dbpedia.org/class/yago/LeastDevelopedCountries
p101
aVhttp://dbpedia.org/class/yago/MemberStatesOfLaFrancophonie
p102
aVhttp://dbpedia.org/class/yago/MemberStatesOfTheAfricanUnion
p103
aVhttp://dbpedia.org/class/yago/MemberStatesOfTheOrganisationOfIslamicCooperation
p104
aVhttp://dbpedia.org/class/yago/MemberStatesOfTheUnitedNations
p105
aVhttp://dbpedia.org/class/yago/StatesAndTerritoriesEstablishedIn1960
p106
aVhttp://dbpedia.org/class/yago/WorldTradeOrganizationMemberEconomies
p107
aVhttp://dbpedia.org/resource/Burkina_Faso
tp108
aa(lp109
a(lp110
a(lp111
((lp112
Vhttp://www.w3.org/2002/07/owl#Thing
p113
aVhttp://dbpedia.org/ontology/Place
p114
aVhttp://dbpedia.org/ontology/Location
p115
aVhttp://www.wikidata.org/entity/Q486972
p116
aVhttp://www.wikidata.org/entity/Q515
p117
aVhttp://dbpedia.org/ontology/City
p118
aVhttp://dbpedia.org/ontology/PopulatedPlace
p119
aVhttp://dbpedia.org/ontology/Settlement
p120
aVhttp://www.w3.org/2003/01/geo/wgs84_pos#SpatialThing
p121
aVhttp://schema.org/City
p122
aVhttp://schema.org/Place
p123
aVhttp://umbel.org/umbel/rc/Location_Underspecified
p124
aVhttp://umbel.org/umbel/rc/PopulatedPlace
p125
aVhttp://umbel.org/umbel/rc/Village
p126
aVhttp://dbpedia.org/class/yago/AdministrativeDistrict108491826
p127
aVhttp://dbpedia.org/class/yago/Area108497294
p128
aVhttp://dbpedia.org/class/yago/Capital108518505
p129
aVhttp://dbpedia.org/class/yago/CapitalsInAfrica
p130
aVhttp://dbpedia.org/class/yago/Center108523483
p131
aVhttp://dbpedia.org/class/yago/District108552138
p132
aVhttp://dbpedia.org/class/yago/Location100027167
p133
aVhttp://dbpedia.org/class/yago/Object100002684
p134
aVhttp://dbpedia.org/class/yago/Region108630985
p135
aVhttp://dbpedia.org/class/yago/Seat108647945
p136
aVhttp://dbpedia.org/class/yago/Site108651247
p137
aVhttp://dbpedia.org/class/yago/Tract108673395
p138
aVhttp://dbpedia.org/class/yago/YagoGeoEntity
p139
aVhttp://dbpedia.org/class/yago/YagoLegalActorGeo
p140
aVhttp://dbpedia.org/class/yago/GeographicalArea108574314
p141
aVhttp://dbpedia.org/class/yago/PhysicalEntity100001930
p142
aVhttp://dbpedia.org/class/yago/YagoPermanentlyLocatedEntity
p143
aVhttp://dbpedia.org/class/yago/PopulatedPlacesInTheCentreRegion(BurkinaFaso)
p144
aVhttp://dbpedia.org/resource/Ouagadougou
tp145
aa(lp146
a(lp147
aa(lp148
(lp149
a(lp150
a(lp151
a(lp152
a(lp153
((lp154
Vhttp://dbpedia.org/class/yago/Abstraction100002137
p155
aVhttp://dbpedia.org/class/yago/Group100031264
p156
aVhttp://dbpedia.org/class/yago/PoliticalSystem108367880
p157
aVhttp://dbpedia.org/class/yago/SocialGroup107950920
p158
aVhttp://dbpedia.org/class/yago/FormsOfGovernment
p159
aVhttp://dbpedia.org/class/yago/PoliticalSystems
p160
aVhttp://dbpedia.org/resource/Single-party_state
tp161
aa(lp162
aa(lp163
(lp164
a(lp165
a(lp166
a(lp167
a(lp168
((lVhttp://dbpedia.org/resource/Military_dictatorship
tp169
aa(lp170
aa(lp171
(lp172
a(lp173
a(lp174
a(lp175
a(lp176
a(lp177
aa(lp178
(lp179
((lp180
Vhttp://www.w3.org/2002/07/owl#Thing
p181
aVhttp://dbpedia.org/ontology/Place
p182
aVhttp://dbpedia.org/ontology/Location
p183
aVhttp://www.wikidata.org/entity/Q486972
p184
aVhttp://www.wikidata.org/entity/Q6256
p185
aVhttp://dbpedia.org/ontology/Country
p186
aVhttp://dbpedia.org/ontology/PopulatedPlace
p187
aVhttp://www.w3.org/2003/01/geo/wgs84_pos#SpatialThing
p188
aVhttp://schema.org/Country
p189
aVhttp://schema.org/Place
p190
aVhttp://umbel.org/umbel/rc/Country
p191
aVhttp://umbel.org/umbel/rc/Location_Underspecified
p192
aVhttp://umbel.org/umbel/rc/PopulatedPlace
p193
aVhttp://dbpedia.org/class/yago/Abstraction100002137
p194
aVhttp://dbpedia.org/class/yago/AdministrativeDistrict108491826
p195
aVhttp://dbpedia.org/class/yago/AfricanCountries
p196
aVhttp://dbpedia.org/class/yago/AfricanUnionMemberEconomies
p197
aVhttp://dbpedia.org/class/yago/Country108544813
p198
aVhttp://dbpedia.org/class/yago/District108552138
p199
aVhttp://dbpedia.org/class/yago/Economy108366753
p200
aVhttp://dbpedia.org/class/yago/Group100031264
p201
aVhttp://dbpedia.org/class/yago/Location100027167
p202
aVhttp://dbpedia.org/class/yago/Object100002684
p203
aVhttp://dbpedia.org/class/yago/Region108630985
p204
aVhttp://dbpedia.org/class/yago/System108435388
p205
aVhttp://dbpedia.org/class/yago/YagoGeoEntity
p206
aVhttp://dbpedia.org/class/yago/YagoLegalActorGeo
p207
aVhttp://dbpedia.org/class/yago/French-speakingCountries
p208
aVhttp://dbpedia.org/class/yago/PhysicalEntity100001930
p209
aVhttp://dbpedia.org/class/yago/YagoPermanentlyLocatedEntity
p210
aVhttp://dbpedia.org/class/yago/LandlockedCountries
p211
aVhttp://dbpedia.org/class/yago/LeastDevelopedCountries
p212
aVhttp://dbpedia.org/class/yago/MemberStatesOfLaFrancophonie
p213
aVhttp://dbpedia.org/class/yago/MemberStatesOfTheAfricanUnion
p214
aVhttp://dbpedia.org/class/yago/MemberStatesOfTheUnitedNations
p215
aVhttp://dbpedia.org/class/yago/StatesAndTerritoriesEstablishedIn1960
p216
aVhttp://dbpedia.org/class/yago/WorldTradeOrganizationMemberEconomies
p217
aVhttp://dbpedia.org/resource/Central_African_Republic
tp218
aa(lp219
a(lp220
a(lp221
a(lp222
a(lp223
aa(lp224
(lp225
a(lp226
a(lp227
a(lp228
a(lp229
((lp230
Vhttp://dbpedia.org/class/yago/Abstraction100002137
p231
aVhttp://dbpedia.org/class/yago/Group100031264
p232
aVhttp://dbpedia.org/class/yago/PoliticalSystem108367880
p233
aVhttp://dbpedia.org/class/yago/SocialGroup107950920
p234
aVhttp://dbpedia.org/class/yago/FormsOfGovernment
p235
aVhttp://dbpedia.org/class/yago/PoliticalSystems
p236
aVhttp://dbpedia.org/resource/Single-party_state
tp237
aa(lp238
aa(lp239
(lp240
a(lp241
a(lp242
a(lp243
a(lp244
((lp245
Vhttp://dbpedia.org/class/yago/Abstraction100002137
p246
aVhttp://dbpedia.org/class/yago/Group100031264
p247
aVhttp://dbpedia.org/class/yago/PoliticalSystem108367880
p248
aVhttp://dbpedia.org/class/yago/SocialGroup107950920
p249
aVhttp://dbpedia.org/class/yago/FormsOfGovernment
p250
aVhttp://dbpedia.org/class/yago/PoliticalSystems
p251
aVhttp://dbpedia.org/resource/Single-party_state
tp252
aa(lp253
aa(lp254
(lp255
((lp256
Vhttp://www.w3.org/2002/07/owl#Thing
p257
aVhttp://dbpedia.org/ontology/Place
p258
aVhttp://dbpedia.org/ontology/Location
p259
aVhttp://www.wikidata.org/entity/Q486972
p260
aVhttp://www.wikidata.org/entity/Q6256
p261
aVhttp://dbpedia.org/ontology/Country
p262
aVhttp://dbpedia.org/ontology/PopulatedPlace
p263
aVhttp://www.w3.org/2003/01/geo/wgs84_pos#SpatialThing
p264
aVhttp://schema.org/Country
p265
aVhttp://schema.org/Place
p266
aVhttp://umbel.org/umbel/rc/Country
p267
aVhttp://umbel.org/umbel/rc/Location_Underspecified
p268
aVhttp://umbel.org/umbel/rc/PopulatedPlace
p269
aVhttp://dbpedia.org/class/yago/Abstraction100002137
p270
aVhttp://dbpedia.org/class/yago/AdministrativeDistrict108491826
p271
aVhttp://dbpedia.org/class/yago/AfricanCountries
p272
aVhttp://dbpedia.org/class/yago/AfricanUnionMemberEconomies
p273
aVhttp://dbpedia.org/class/yago/BantuCountriesAndTerritories
p274
aVhttp://dbpedia.org/class/yago/Country108544813
p275
aVhttp://dbpedia.org/class/yago/District108552138
p276
aVhttp://dbpedia.org/class/yago/Economy108366753
p277
aVhttp://dbpedia.org/class/yago/Group100031264
p278
aVhttp://dbpedia.org/class/yago/Location100027167
p279
aVhttp://dbpedia.org/class/yago/Object100002684
p280
aVhttp://dbpedia.org/class/yago/Region108630985
p281
aVhttp://dbpedia.org/class/yago/System108435388
p282
aVhttp://dbpedia.org/class/yago/YagoGeoEntity
p283
aVhttp://dbpedia.org/class/yago/YagoLegalActorGeo
p284
aVhttp://dbpedia.org/class/yago/CountriesBorderingTheAtlanticOcean
p285
aVhttp://dbpedia.org/class/yago/French-speakingCountries
p286
aVhttp://dbpedia.org/class/yago/PhysicalEntity100001930
p287
aVhttp://dbpedia.org/class/yago/YagoPermanentlyLocatedEntity
p288
aVhttp://dbpedia.org/class/yago/MemberStatesOfLaFrancophonie
p289
aVhttp://dbpedia.org/class/yago/MemberStatesOfTheAfricanUnion
p290
aVhttp://dbpedia.org/class/yago/MemberStatesOfTheUnitedNations
p291
aVhttp://dbpedia.org/class/yago/StatesAndTerritoriesEstablishedIn1960
p292
aVhttp://dbpedia.org/class/yago/WorldTradeOrganizationMemberEconomies
p293
aVhttp://dbpedia.org/resource/Republic_of_the_Congo
tp294
aa(lp295
a(lp296
a(lp297
((lp298
Vhttp://www.w3.org/2002/07/owl#Thing
p299
aVhttp://dbpedia.org/ontology/Place
p300
aVhttp://dbpedia.org/ontology/Location
p301
aVhttp://www.wikidata.org/entity/Q486972
p302
aVhttp://dbpedia.org/ontology/PopulatedPlace
p303
aVhttp://dbpedia.org/ontology/Settlement
p304
aVhttp://www.w3.org/2003/01/geo/wgs84_pos#SpatialThing
p305
aVhttp://schema.org/Place
p306
aVhttp://dbpedia.org/class/yago/AdministrativeDistrict108491826
p307
aVhttp://dbpedia.org/class/yago/Area108497294
p308
aVhttp://dbpedia.org/class/yago/Capital108518505
p309
aVhttp://dbpedia.org/class/yago/CapitalsInAfrica
p310
aVhttp://dbpedia.org/class/yago/Center108523483
p311
aVhttp://dbpedia.org/class/yago/District108552138
p312
aVhttp://dbpedia.org/class/yago/Location100027167
p313
aVhttp://dbpedia.org/class/yago/Object100002684
p314
aVhttp://dbpedia.org/class/yago/Region108630985
p315
aVhttp://dbpedia.org/class/yago/Seat108647945
p316
aVhttp://dbpedia.org/class/yago/Site108651247
p317
aVhttp://dbpedia.org/class/yago/Tract108673395
p318
aVhttp://dbpedia.org/class/yago/YagoGeoEntity
p319
aVhttp://dbpedia.org/class/yago/YagoLegalActorGeo
p320
aVhttp://dbpedia.org/class/yago/GeographicalArea108574314
p321
aVhttp://dbpedia.org/class/yago/PhysicalEntity100001930
p322
aVhttp://dbpedia.org/class/yago/YagoPermanentlyLocatedEntity
p323
aVhttp://dbpedia.org/class/yago/PopulatedPlacesEstablishedIn1880
p324
aVhttp://dbpedia.org/class/yago/PopulatedPlacesInTheRepublicOfTheCongo
p325
aVhttp://dbpedia.org/resource/Brazzaville
tp326
aa(lp327
((lp328
Vhttp://dbpedia.org/class/yago/Abstraction100002137
p329
aVhttp://dbpedia.org/class/yago/Group100031264
p330
aVhttp://dbpedia.org/class/yago/PoliticalSystem108367880
p331
aVhttp://dbpedia.org/class/yago/SocialGroup107950920
p332
aVhttp://dbpedia.org/class/yago/FormsOfGovernment
p333
aVhttp://dbpedia.org/class/yago/PoliticalSystems
p334
aVhttp://dbpedia.org/resource/Single-party_state
tp335
aa(lp336
aa(lp337
(lp338
a(lp339
a(lp340
a(lp341
a(lp342
a(lp343
aa(lp344
(lp345
a(lp346
a(lp347
a(lp348
a(lp349
a(lp350
aa(lp351
(lp352
a(lp353
a(lp354
a(lp355
a(lp356
((lp357
Vhttp://dbpedia.org/class/yago/Abstraction100002137
p358
aVhttp://dbpedia.org/class/yago/Group100031264
p359
aVhttp://dbpedia.org/class/yago/PoliticalSystem108367880
p360
aVhttp://dbpedia.org/class/yago/SocialGroup107950920
p361
aVhttp://dbpedia.org/class/yago/FormsOfGovernment
p362
aVhttp://dbpedia.org/class/yago/PoliticalSystems
p363
aVhttp://dbpedia.org/resource/Single-party_state
tp364
aa(lp365
aa(lp366
(lp367
((lp368
Vhttp://www.w3.org/2002/07/owl#Thing
p369
aVhttp://dbpedia.org/ontology/Place
p370
aVhttp://dbpedia.org/ontology/Location
p371
aVhttp://www.wikidata.org/entity/Q486972
p372
aVhttp://www.wikidata.org/entity/Q6256
p373
aVhttp://dbpedia.org/ontology/Country
p374
aVhttp://dbpedia.org/ontology/PopulatedPlace
p375
aVhttp://www.w3.org/2003/01/geo/wgs84_pos#SpatialThing
p376
aVhttp://schema.org/Country
p377
aVhttp://schema.org/Place
p378
aVhttp://umbel.org/umbel/rc/Country
p379
aVhttp://umbel.org/umbel/rc/Location_Underspecified
p380
aVhttp://umbel.org/umbel/rc/PopulatedPlace
p381
aVhttp://dbpedia.org/class/yago/Abstraction100002137
p382
aVhttp://dbpedia.org/class/yago/AdministrativeDistrict108491826
p383
aVhttp://dbpedia.org/class/yago/AfricanCountries
p384
aVhttp://dbpedia.org/class/yago/AfricanUnionMemberEconomies
p385
aVhttp://dbpedia.org/class/yago/BantuCountriesAndTerritories
p386
aVhttp://dbpedia.org/class/yago/Country108544813
p387
aVhttp://dbpedia.org/class/yago/District108552138
p388
aVhttp://dbpedia.org/class/yago/Economy108366753
p389
aVhttp://dbpedia.org/class/yago/Group100031264
p390
aVhttp://dbpedia.org/class/yago/Location100027167
p391
aVhttp://dbpedia.org/class/yago/Object100002684
p392
aVhttp://dbpedia.org/class/yago/Region108630985
p393
aVhttp://dbpedia.org/class/yago/System108435388
p394
aVhttp://dbpedia.org/class/yago/YagoGeoEntity
p395
aVhttp://dbpedia.org/class/yago/YagoLegalActorGeo
p396
aVhttp://dbpedia.org/class/yago/CountriesBorderingTheAtlanticOcean
p397
aVhttp://dbpedia.org/class/yago/French-speakingCountries
p398
aVhttp://dbpedia.org/class/yago/PhysicalEntity100001930
p399
aVhttp://dbpedia.org/class/yago/YagoPermanentlyLocatedEntity
p400
aVhttp://dbpedia.org/class/yago/LeastDevelopedCountries
p401
aVhttp://dbpedia.org/class/yago/MemberStatesOfLaFrancophonie
p402
aVhttp://dbpedia.org/class/yago/MemberStatesOfTheAfricanUnion
p403
aVhttp://dbpedia.org/class/yago/MemberStatesOfTheUnitedNations
p404
aVhttp://dbpedia.org/class/yago/Spanish-speakingCountries
p405
aVhttp://dbpedia.org/class/yago/StatesAndTerritoriesEstablishedIn1968
p406
aVhttp://dbpedia.org/resource/Equatorial_Guinea
tp407
aa(lp408
a(lp409
a(lp410
a(lp411
((lVhttp://dbpedia.org/resource/Military_dictatorship
tp412
aa(lp413
aa(lp414
(lp415
a(lp416
a(lp417
a(lp418
a(lp419
((lp420
Vhttp://dbpedia.org/class/yago/Abstraction100002137
p421
aVhttp://dbpedia.org/class/yago/Group100031264
p422
aVhttp://dbpedia.org/class/yago/PoliticalSystem108367880
p423
aVhttp://dbpedia.org/class/yago/SocialGroup107950920
p424
aVhttp://dbpedia.org/class/yago/FormsOfGovernment
p425
aVhttp://dbpedia.org/class/yago/PoliticalSystems
p426
aVhttp://dbpedia.org/resource/Single-party_state
tp427
aa(lp428
aa(lp429
(lp430
a(lp431
a(lp432
a(lp433
a(lp434
a(lp435
aa(lp436
(lp437
a(lp438
a(lp439
a(lp440
a(lp441
((lp442
Vhttp://dbpedia.org/class/yago/Abstraction100002137
p443
aVhttp://dbpedia.org/class/yago/Group100031264
p444
aVhttp://dbpedia.org/class/yago/PoliticalSystem108367880
p445
aVhttp://dbpedia.org/class/yago/SocialGroup107950920
p446
aVhttp://dbpedia.org/class/yago/FormsOfGovernment
p447
aVhttp://dbpedia.org/class/yago/PoliticalSystems
p448
aVhttp://dbpedia.org/resource/Single-party_state
tp449
aa(lp450
aa(lp451
(lp452
a(lp453
a(lp454
a(lp455
a(lp456
((lVhttp://dbpedia.org/resource/Military_dictatorship
p457
tp458
aa(lp459
aa.