(lp1
(lp2
(dp3
Vstart
p4
I0
sVdisambiguatedURL
p5
NsVnamedEntity
p6
Vanguilla
p7
sVoffset
p8
I8
saa(lp9
(dp10
Vstart
p11
I0
sVdisambiguatedURL
p12
Vhttp://dbpedia.org/resource/Antigua_and_Barbuda
p13
sVnamedEntity
p14
Vantigua and barbuda
p15
sVoffset
p16
I19
saa(lp17
(dp18
Vstart
p19
I0
sVdisambiguatedURL
p20
NsVnamedEntity
p21
Varuba
p22
sVoffset
p23
I5
saa(lp24
(dp25
Vstart
p26
I0
sVdisambiguatedURL
p27
NsVnamedEntity
p28
Vbahamas
p29
sVoffset
p30
I7
saa(lp31
(dp32
Vstart
p33
I0
sVdisambiguatedURL
p34
NsVnamedEntity
p35
Vbarbados
p36
sVoffset
p37
I8
saa(lp38
(dp39
Vstart
p40
I0
sVdisambiguatedURL
p41
NsVnamedEntity
p42
Vbelize
p43
sVoffset
p44
I6
saa(lp45
(dp46
Vstart
p47
I0
sVdisambiguatedURL
p48
NsVnamedEntity
p49
Vbermuda
p50
sVoffset
p51
I7
saa(lp52
(dp53
Vstart
p54
I0
sVdisambiguatedURL
p55
Vhttp://dbpedia.org/resource/British_Virgin_Islands
p56
sVnamedEntity
p57
Vbritish virgin islands
p58
sVoffset
p59
I22
saa(lp60
(dp61
Vstart
p62
I0
sVdisambiguatedURL
p63
NsVnamedEntity
p64
Vcanada
p65
sVoffset
p66
I6
saa(lp67
(dp68
Vstart
p69
I0
sVdisambiguatedURL
p70
Vhttp://dbpedia.org/resource/Cayman_Islands
p71
sVnamedEntity
p72
Vcayman islands
p73
sVoffset
p74
I14
saa(lp75
(dp76
Vstart
p77
I0
sVdisambiguatedURL
p78
NsVnamedEntity
p79
Vcosta rica
p80
sVoffset
p81
I10
saa(lp82
(dp83
Vstart
p84
I0
sVdisambiguatedURL
p85
NsVnamedEntity
p86
Vcuba
p87
sVoffset
p88
I4
saa(lp89
(dp90
Vstart
p91
I0
sVdisambiguatedURL
p92
NsVnamedEntity
p93
Vdominica
p94
sVoffset
p95
I8
saa(lp96
(dp97
Vstart
p98
I0
sVdisambiguatedURL
p99
Vhttp://dbpedia.org/resource/Dominican_Republic
p100
sVnamedEntity
p101
Vdominican republic
p102
sVoffset
p103
I18
saa(lp104
(dp105
Vstart
p106
I0
sVdisambiguatedURL
p107
Vhttp://dbpedia.org/resource/El_Salvador
p108
sVnamedEntity
p109
Vel salvador
p110
sVoffset
p111
I11
saa(lp112
(dp113
Vstart
p114
I0
sVdisambiguatedURL
p115
NsVnamedEntity
p116
Vgrenada
p117
sVoffset
p118
I7
saa(lp119
(dp120
Vstart
p121
I0
sVdisambiguatedURL
p122
NsVnamedEntity
p123
Vguadeloupe
p124
sVoffset
p125
I10
saa(lp126
(dp127
Vstart
p128
I0
sVdisambiguatedURL
p129
NsVnamedEntity
p130
Vguatemala
p131
sVoffset
p132
I9
saa(lp133
(dp134
Vstart
p135
I0
sVdisambiguatedURL
p136
NsVnamedEntity
p137
Vhaiti
p138
sVoffset
p139
I5
saa(lp140
(dp141
Vstart
p142
I0
sVdisambiguatedURL
p143
NsVnamedEntity
p144
Vhonduras
p145
sVoffset
p146
I8
saa.