(lp1
(lp2
(dp3
Vstart
p4
I0
sS'classes'
p5
(lp6
Vhttp://www.w3.org/2002/07/owl#Thing
p7
aVhttp://dbpedia.org/ontology/Place
p8
aVhttp://dbpedia.org/ontology/Location
p9
aVhttp://www.wikidata.org/entity/Q486972
p10
aVhttp://www.wikidata.org/entity/Q6256
p11
aVhttp://dbpedia.org/ontology/Country
p12
aVhttp://dbpedia.org/ontology/PopulatedPlace
p13
aVhttp://www.w3.org/2003/01/geo/wgs84_pos#SpatialThing
p14
aVhttp://schema.org/Country
p15
aVhttp://schema.org/Place
p16
aVhttp://umbel.org/umbel/rc/Country
p17
aVhttp://umbel.org/umbel/rc/Location_Underspecified
p18
aVhttp://umbel.org/umbel/rc/PopulatedPlace
p19
aVhttp://dbpedia.org/class/yago/Abstraction100002137
p20
aVhttp://dbpedia.org/class/yago/AdministrativeDistrict108491826
p21
aVhttp://dbpedia.org/class/yago/Country108544813
p22
aVhttp://dbpedia.org/class/yago/District108552138
p23
aVhttp://dbpedia.org/class/yago/Economy108366753
p24
aVhttp://dbpedia.org/class/yago/Group100031264
p25
aVhttp://dbpedia.org/class/yago/Location100027167
p26
aVhttp://dbpedia.org/class/yago/Object100002684
p27
aVhttp://dbpedia.org/class/yago/Region108630985
p28
aVhttp://dbpedia.org/class/yago/System108435388
p29
aVhttp://dbpedia.org/class/yago/YagoGeoEntity
p30
aVhttp://dbpedia.org/class/yago/YagoLegalActorGeo
p31
aVhttp://dbpedia.org/class/yago/CentralAsianCountries
p32
aVhttp://dbpedia.org/class/yago/PhysicalEntity100001930
p33
aVhttp://dbpedia.org/class/yago/YagoPermanentlyLocatedEntity
p34
aVhttp://dbpedia.org/class/yago/IslamicStates
p35
aVhttp://dbpedia.org/class/yago/LandlockedCountries
p36
aVhttp://dbpedia.org/class/yago/LeastDevelopedCountries
p37
aVhttp://dbpedia.org/class/yago/MemberStatesOfTheOrganisationOfIslamicCooperation
p38
aVhttp://dbpedia.org/class/yago/MemberStatesOfTheSouthAsianAssociationForRegionalCooperation
p39
aVhttp://dbpedia.org/class/yago/MemberStatesOfTheUnitedNations
p40
aVhttp://dbpedia.org/class/yago/MiddleEasternCountries
p41
aVhttp://dbpedia.org/class/yago/Pashto-speakingCountriesAndTerritories
p42
aVhttp://dbpedia.org/class/yago/Persian-speakingCountriesAndTerritories
p43
aVhttp://dbpedia.org/class/yago/SouthAsianCountries
p44
aVhttp://dbpedia.org/class/yago/StatesAndTerritoriesEstablishedIn1709
p45
aVhttp://dbpedia.org/class/yago/StatesAndTerritoriesEstablishedIn1747
p46
aVhttp://dbpedia.org/class/yago/TerritoriesUnderMilitaryOccupation
p47
asVdisambiguatedURL
p48
Vhttp://dbpedia.org/resource/Afghanistan
p49
sVnamedEntity
p50
Vafghanistan
p51
sVoffset
p52
I11
saa(lp53
a(lp54
a(lp55
a(lp56
(dp57
Vstart
p58
I0
sg5
(lp59
Vhttp://www.w3.org/2002/07/owl#Thing
p60
aVhttp://dbpedia.org/ontology/Place
p61
aVhttp://dbpedia.org/ontology/Location
p62
aVhttp://www.wikidata.org/entity/Q486972
p63
aVhttp://www.wikidata.org/entity/Q6256
p64
aVhttp://dbpedia.org/ontology/Country
p65
aVhttp://dbpedia.org/ontology/PopulatedPlace
p66
aVhttp://www.w3.org/2003/01/geo/wgs84_pos#SpatialThing
p67
aVhttp://schema.org/Country
p68
aVhttp://schema.org/Place
p69
aVhttp://umbel.org/umbel/rc/Country
p70
aVhttp://umbel.org/umbel/rc/Location_Underspecified
p71
aVhttp://umbel.org/umbel/rc/PopulatedPlace
p72
aVhttp://dbpedia.org/class/yago/AdministrativeDistrict108491826
p73
aVhttp://dbpedia.org/class/yago/Atoll109210862
p74
aVhttp://dbpedia.org/class/yago/AtollsOfTheIndianOcean
p75
aVhttp://dbpedia.org/class/yago/BritishOverseasTerritories
p76
aVhttp://dbpedia.org/class/yago/CoralReef109256479
p77
aVhttp://dbpedia.org/class/yago/Country108544813
p78
aVhttp://dbpedia.org/class/yago/District108552138
p79
aVhttp://dbpedia.org/class/yago/GeologicalFormation109287968
p80
aVhttp://dbpedia.org/class/yago/Island109316454
p81
aVhttp://dbpedia.org/class/yago/Land109334396
p82
aVhttp://dbpedia.org/class/yago/Location100027167
p83
aVhttp://dbpedia.org/class/yago/Object100002684
p84
aVhttp://dbpedia.org/class/yago/Reef109406793
p85
aVhttp://dbpedia.org/class/yago/Region108630985
p86
aVhttp://dbpedia.org/class/yago/Ridge109409512
p87
aVhttp://dbpedia.org/class/yago/YagoGeoEntity
p88
aVhttp://dbpedia.org/class/yago/YagoLegalActorGeo
p89
aVhttp://dbpedia.org/class/yago/DisputedTerritoriesInAsia
p90
aVhttp://dbpedia.org/class/yago/English-speakingCountriesAndTerritories
p91
aVhttp://dbpedia.org/class/yago/PhysicalEntity100001930
p92
aVhttp://dbpedia.org/class/yago/YagoPermanentlyLocatedEntity
p93
aVhttp://dbpedia.org/class/yago/IslandsOfTheIndianOcean
p94
aVhttp://dbpedia.org/class/yago/NaturalElevation109366317
p95
aVhttp://dbpedia.org/class/yago/SouthAsianCountries
p96
aVhttp://dbpedia.org/class/yago/SpecialTerritoriesOfTheEuropeanUnion
p97
aVhttp://dbpedia.org/class/yago/StatesAndTerritoriesEstablishedIn1965
p98
asVdisambiguatedURL
p99
Vhttp://dbpedia.org/resource/British_Indian_Ocean_Territory
p100
sVnamedEntity
p101
Vbritish indian ocean territory
p102
sVoffset
p103
I30
saa(lp104
a(lp105
a(lp106
a(lp107
a(lp108
a(lp109
a(lp110
a(lp111
a(lp112
a(lp113
a(lp114
a(lp115
a(lp116
a(lp117
a(lp118
a.