(lp1
(lp2
(lp3
a(lp4
a(lp5
a(lp6
a(lp7
Vhttp://dbpedia.org/resource/Military_dictatorship
p8
aa(lp9
aa(lp10
(lp11
a(lp12
a(lp13
a(lp14
a(lp15
Vhttp://dbpedia.org/resource/Single-party_state
p16
aa(lp17
aa(lp18
(lp19
a(lp20
a(lp21
a(lp22
a(lp23
a(lp24
aa(lp25
(lp26
a(lp27
a(lp28
Vhttp://dbpedia.org/resource/Bechuanaland_Protectorate
p29
aa(lp30
a(lp31
a(lp32
aa(lp33
(lp34
Vhttp://dbpedia.org/resource/Burkina_Faso
p35
aa(lp36
a(lp37
a(lp38
Vhttp://dbpedia.org/resource/Ouagadougou
p39
aa(lp40
a(lp41
aa(lp42
(lp43
a(lp44
a(lp45
a(lp46
a(lp47
Vhttp://dbpedia.org/resource/Single-party_state
p48
aa(lp49
aa(lp50
(lp51
a(lp52
a(lp53
a(lp54
a(lp55
Vhttp://dbpedia.org/resource/Military_dictatorship
p56
aa(lp57
aa(lp58
(lp59
a(lp60
a(lp61
a(lp62
a(lp63
a(lp64
aa(lp65
(lp66
Vhttp://dbpedia.org/resource/Central_African_Republic
p67
aa(lp68
a(lp69
a(lp70
a(lp71
a(lp72
aa(lp73
(lp74
a(lp75
a(lp76
a(lp77
a(lp78
Vhttp://dbpedia.org/resource/Single-party_state
p79
aa(lp80
aa(lp81
(lp82
a(lp83
a(lp84
a(lp85
a(lp86
Vhttp://dbpedia.org/resource/Single-party_state
p87
aa(lp88
aa(lp89
(lp90
Vhttp://dbpedia.org/resource/Republic_of_the_Congo
p91
aa(lp92
a(lp93
a(lp94
Vhttp://dbpedia.org/resource/Brazzaville
p95
aa(lp96
Vhttp://dbpedia.org/resource/Single-party_state
p97
aa(lp98
aa(lp99
(lp100
a(lp101
a(lp102
a(lp103
a(lp104
a(lp105
aa(lp106
(lp107
a(lp108
a(lp109
a(lp110
a(lp111
a(lp112
aa(lp113
(lp114
a(lp115
a(lp116
a(lp117
a(lp118
Vhttp://dbpedia.org/resource/Single-party_state
p119
aa(lp120
aa(lp121
(lp122
Vhttp://dbpedia.org/resource/Equatorial_Guinea
p123
aa(lp124
a(lp125
a(lp126
a(lp127
Vhttp://dbpedia.org/resource/Military_dictatorship
p128
aa(lp129
aa(lp130
(lp131
a(lp132
a(lp133
a(lp134
a(lp135
Vhttp://dbpedia.org/resource/Single-party_state
p136
aa(lp137
aa(lp138
(lp139
a(lp140
a(lp141
a(lp142
a(lp143
a(lp144
aa(lp145
(lp146
a(lp147
a(lp148
a(lp149
a(lp150
Vhttp://dbpedia.org/resource/Single-party_state
p151
aa(lp152
aa(lp153
(lp154
a(lp155
a(lp156
a(lp157
a(lp158
Vhttp://dbpedia.org/resource/Military_dictatorship
p159
aa(lp160
aa.