ccollections
defaultdict
p1
(c__builtin__
dict
p2
tRp3
I8
(dp4
I1
(lp5
Vhttp://dbpedia.org/ontology/birthPlace
p6
aVhttp://dbpedia.org/property/birthPlace
p7
aVhttp://dbpedia.org/property/placeOfBirth
p8
asI2
(lp9
Vhttp://dbpedia.org/ontology/birthPlace
p10
aVhttp://dbpedia.org/property/birthPlace
p11
aVhttp://dbpedia.org/property/placeOfBirth
p12
assI9
(dp13
I1
(lp14
sI2
(lp15
ssI6
(dp16
I1
(lp17
Vhttp://dbpedia.org/ontology/birthPlace
p18
aVhttp://dbpedia.org/property/birthPlace
p19
aVhttp://dbpedia.org/property/placeOfBirth
p20
asI2
(lp21
Vhttp://dbpedia.org/ontology/birthPlace
p22
aVhttp://dbpedia.org/property/birthPlace
p23
aVhttp://dbpedia.org/property/placeOfBirth
p24
assI7
(dp25
I1
(lp26
Vhttp://dbpedia.org/ontology/birthPlace
p27
aVhttp://dbpedia.org/property/placeOfBirth
p28
asI2
(lp29
ss.