(lp1
(dp2
I0
(dp3
I0
(lp4
sI1
(lp5
sI2
(lp6
ssI1
(dp7
I0
g5
sI1
(lp8
sI2
(lp9
ssI2
(dp10
I0
g6
sI2
(lp11
ssa(dp12
I0
(dp13
I0
(lp14
sI1
(lp15
sI2
(lp16
ssI1
(dp17
I0
g15
sI1
(lp18
sI2
(lp19
ssI2
(dp20
I0
g16
sI2
(lp21
ssa(dp22
I0
(dp23
I0
(lp24
sI1
(lp25
sI2
(lp26
ssI1
(dp27
I0
g25
sI1
(lp28
sI2
(lp29
ssI2
(dp30
I0
g26
sI1
g29
sI2
(lp31
ssa(dp32
I0
(dp33
I0
(lp34
sI1
(lp35
sI2
(lp36
ssI1
(dp37
I0
g35
sI1
(lp38
sI2
(lp39
ssI2
(dp40
I0
g36
sI1
g39
sI2
(lp41
ssa(dp42
I0
(dp43
I0
(lp44
sI1
(lp45
sI2
(lp46
ssI1
(dp47
I0
g45
sI1
(lp48
sI2
(lp49
ssI2
(dp50
I0
g46
sI2
(lp51
ssa(dp52
I0
(dp53
I0
(lp54
sI1
(lp55
sI2
(lp56
ssI1
(dp57
I0
g55
sI1
(lp58
sI2
(lp59
ssI2
(dp60
I0
g56
sI2
(lp61
ssa(dp62
I0
(dp63
I0
(lp64
sI1
(lp65
Vhttp://dbpedia.org/ontology/birthPlace
p66
aVhttp://dbpedia.org/property/birthPlace
p67
aVhttp://dbpedia.org/property/placeOfBirth
p68
asI2
(lp69
Vhttp://dbpedia.org/ontology/birthPlace
p70
aVhttp://dbpedia.org/property/birthPlace
p71
aVhttp://dbpedia.org/property/placeOfBirth
p72
assI1
(dp73
I0
g65
sI1
(lp74
sI2
(lp75
ssI2
(dp76
I0
g69
sI2
(lp77
ssa(dp78
I0
(dp79
I0
(lp80
sI1
(lp81
Vhttp://dbpedia.org/ontology/birthPlace
p82
aVhttp://dbpedia.org/property/placeOfBirth
p83
asI2
(lp84
ssI1
(dp85
I0
g81
sI1
(lp86
sI2
(lp87
ssI2
(dp88
I0
g84
sI1
g87
sI2
(lp89
ssa(dp90
I0
(dp91
I0
(lp92
sI1
(lp93
Vhttp://dbpedia.org/ontology/birthPlace
p94
aVhttp://dbpedia.org/property/birthPlace
p95
aVhttp://dbpedia.org/property/placeOfBirth
p96
asI2
(lp97
Vhttp://dbpedia.org/ontology/birthPlace
p98
aVhttp://dbpedia.org/property/birthPlace
p99
aVhttp://dbpedia.org/property/placeOfBirth
p100
assI1
(dp101
I0
g93
sI1
(lp102
sI2
(lp103
ssI2
(dp104
I0
g97
sI2
(lp105
ssa(dp106
I0
(dp107
I0
(lp108
sI1
(lp109
sI2
(lp110
ssI1
(dp111
I0
g109
sI1
(lp112
sI2
(lp113
ssI2
(dp114
I0
g110
sI2
(lp115
ssa(dp116
I0
(dp117
I0
(lp118
sI1
(lp119
sI2
(lp120
ssI1
(dp121
I0
g119
sI1
(lp122
sI2
(lp123
ssI2
(dp124
I0
g120
sI2
(lp125
ssa(dp126
I0
(dp127
I0
(lp128
sI1
(lp129
sI2
(lp130
ssI1
(dp131
I0
g129
sI1
(lp132
sI2
(lp133
ssI2
(dp134
I0
g130
sI1
g133
sI2
(lp135
ssa.