(lp1
(lp2
(dp3
Vstart
p4
I0
sVdisambiguatedURL
p5
NsVnamedEntity
p6
Vnickname:
p7
sVoffset
p8
I9
saa(lp9
(dp10
Vstart
p11
I0
sVdisambiguatedURL
p12
NsVnamedEntity
p13
Vage:
p14
sVoffset
p15
I4
saa(lp16
(dp17
Vstart
p18
I0
sVdisambiguatedURL
p19
Vhttp://dbpedia.org/resource/Sex_differences_in_medicine
p20
sVnamedEntity
p21
Vgender:
p22
sVoffset
p23
I7
saa(lp24
(dp25
Vstart
p26
I0
sVdisambiguatedURL
p27
Vhttp://dbpedia.org/resource/Age/sex/location
p28
sVnamedEntity
p29
Vlocation:
p30
sVoffset
p31
I9
saa(lp32
(dp33
Vstart
p34
I0
sVdisambiguatedURL
p35
NsVnamedEntity
p36
Vmember since:
p37
sVoffset
p38
I13
saa(lp39
(dp40
Vstart
p41
I0
sVdisambiguatedURL
p42
NsVnamedEntity
p43
Vquiz activity:
p44
sVoffset
p45
I14
saa(lp46
(dp47
Vstart
p48
I0
sVdisambiguatedURL
p49
NsVnamedEntity
p50
Vurl:
p51
sVoffset
p52
I4
saa(lp53
(dp54
Vstart
p55
I0
sVdisambiguatedURL
p56
NsVnamedEntity
p57
Vhomepage:
p58
sVoffset
p59
I9
saa(lp60
(dp61
Vstart
p62
I0
sVdisambiguatedURL
p63
NsVnamedEntity
p64
Vabout me:
p65
sVoffset
p66
I9
saa(lp67
(dp68
Vstart
p69
I0
sVdisambiguatedURL
p70
NsVnamedEntity
p71
Vfavorite topics:
p72
sVoffset
p73
I16
saa.