(lp1
(lp2
(lp3
a(lp4
a(lp5
a(lp6
aa(lp7
(lp8
a(lp9
a(lp10
a(lp11
((lVhttp://dbpedia.org/resource/Null
tp12
aaa(lp13
(lp14
a(lp15
a(lp16
a(lp17
aa(lp18
(lp19
a(lp20
a(lp21
a(lp22
aa(lp23
(lp24
a(lp25
a(lp26
a(lp27
aa(lp28
(lp29
a(lp30
a(lp31
a(lp32
((lVhttp://dbpedia.org/resource/Null
tp33
aaa(lp34
(lp35
a(lp36
a(lp37
a(lp38
((lVhttp://dbpedia.org/resource/Null
tp39
aaa(lp40
(lp41
a(lp42
a(lp43
a(lp44
((lVhttp://dbpedia.org/resource/Null
tp45
aaa(lp46
(lp47
a(lp48
a(lp49
a(lp50
((lVhttp://dbpedia.org/resource/Null
tp51
aaa(lp52
(lp53
a(lp54
a(lp55
a(lp56
((lVhttp://dbpedia.org/resource/Null
tp57
aaa(lp58
(lp59
a(lp60
a(lp61
a(lp62
aa(lp63
(lp64
a(lp65
a(lp66
a(lp67
((lVhttp://dbpedia.org/resource/Null
tp68
aaa(lp69
(lp70
a(lp71
a(lp72
a(lp73
((lVhttp://dbpedia.org/resource/Null
tp74
aaa(lp75
(lp76
a(lp77
a(lp78
a(lp79
((lVhttp://dbpedia.org/resource/Null
tp80
aaa(lp81
(lp82
((lp83
Vhttp://umbel.org/umbel/rc/Animal
p84
aVhttp://umbel.org/umbel/rc/BiologicalLivingObject
p85
aVhttp://umbel.org/umbel/rc/Bird
p86
aVhttp://umbel.org/umbel/rc/EukaryoticCell
p87
aVhttp://dbpedia.org/class/yago/Animal100015388
p88
aVhttp://dbpedia.org/class/yago/AquaticBird101844917
p89
aVhttp://dbpedia.org/class/yago/Auk102045369
p90
aVhttp://dbpedia.org/class/yago/Auks
p91
aVhttp://dbpedia.org/class/yago/Bird101503061
p92
aVhttp://dbpedia.org/class/yago/BirdsOfBajaPeninsulaMexico
p93
aVhttp://dbpedia.org/class/yago/BirdsOfMexico
p94
aVhttp://dbpedia.org/class/yago/BirdsOfTheUnitedStates
p95
aVhttp://dbpedia.org/class/yago/LivingThing100004258
p96
aVhttp://dbpedia.org/class/yago/Object100002684
p97
aVhttp://dbpedia.org/class/yago/Organism100004475
p98
aVhttp://dbpedia.org/class/yago/Seabird102021795
p99
aVhttp://dbpedia.org/class/yago/Vertebrate101471682
p100
aVhttp://dbpedia.org/class/yago/Whole100003553
p101
aVhttp://dbpedia.org/class/yago/Chordate101466257
p102
aVhttp://dbpedia.org/class/yago/PhysicalEntity100001930
p103
aVhttp://dbpedia.org/resource/Xantus's_Murrelet
tp104
aa(lp105
a(lp106
a(lp107
((lVhttp://dbpedia.org/resource/Null
tp108
aaa(lp109
(lp110
a(lp111
a(lp112
a(lp113
((lVhttp://dbpedia.org/resource/Null
tp114
aaa(lp115
(lp116
a(lp117
a(lp118
a(lp119
((lVhttp://dbpedia.org/resource/Null
tp120
aaa(lp121
(lp122
a(lp123
a(lp124
a(lp125
((lVhttp://dbpedia.org/resource/Null
tp126
aaa(lp127
(lp128
a(lp129
a(lp130
a(lp131
((lVhttp://dbpedia.org/resource/Null
tp132
aaa(lp133
(lp134
a(lp135
a(lp136
a(lp137
((lVhttp://dbpedia.org/resource/Null
p138
tp139
aaa.