(lp1
(lp2
(dp3
Vstart
p4
I0
sVdisambiguatedURL
p5
NsVnamedEntity
p6
Vk-2
p7
sVoffset
p8
I3
saa(lp9
(dp10
Vstart
p11
I0
sVdisambiguatedURL
p12
Vhttp://dbpedia.org/resource/Kangchenjunga
p13
sVnamedEntity
p14
Vkangchenjunga
p15
sVoffset
p16
I13
saa(lp17
(dp18
Vstart
p19
I0
sVdisambiguatedURL
p20
NsVnamedEntity
p21
Vlhotse
p22
sVoffset
p23
I6
saa(lp24
(dp25
Vstart
p26
I0
sVdisambiguatedURL
p27
NsVnamedEntity
p28
Vmakalu
p29
sVoffset
p30
I6
saa(lp31
(dp32
Vstart
p33
I0
sVdisambiguatedURL
p34
NsVnamedEntity
p35
Vcho oyu
p36
sVoffset
p37
I7
saa(lp38
(dp39
Vstart
p40
I0
sVdisambiguatedURL
p41
NsVnamedEntity
p42
Vdhaulagiri
p43
sVoffset
p44
I10
saa(lp45
(dp46
Vstart
p47
I0
sVdisambiguatedURL
p48
NsVnamedEntity
p49
Vmanaslu
p50
sVoffset
p51
I7
saa(lp52
(dp53
Vstart
p54
I0
sVdisambiguatedURL
p55
NsVnamedEntity
p56
Vnanga parbat
p57
sVoffset
p58
I12
saa(lp59
(dp60
Vstart
p61
I0
sVdisambiguatedURL
p62
NsVnamedEntity
p63
Vannapurna
p64
sVoffset
p65
I9
saa(lp66
(dp67
Vstart
p68
I0
sVdisambiguatedURL
p69
NsVnamedEntity
p70
Vgasherbrum i
p71
sVoffset
p72
I12
saa(lp73
(dp74
Vstart
p75
I0
sVdisambiguatedURL
p76
NsVnamedEntity
p77
Vbroad peak
p78
sVoffset
p79
I10
saa(lp80
(dp81
Vstart
p82
I0
sVdisambiguatedURL
p83
NsVnamedEntity
p84
Vgasherbrum ii
p85
sVoffset
p86
I13
saa(lp87
(dp88
Vstart
p89
I0
sVdisambiguatedURL
p90
NsVnamedEntity
p91
Vxixabangma feng (gosainthan)
p92
sVoffset
p93
I28
saa(lp94
(dp95
Vstart
p96
I0
sVdisambiguatedURL
p97
NsVnamedEntity
p98
Vdistaghil sar
p99
sVoffset
p100
I13
saa(lp101
(dp102
Vstart
p103
I0
sVdisambiguatedURL
p104
NsVnamedEntity
p105
Vkunyang chhist
p106
sVoffset
p107
I14
saa(lp108
(dp109
Vstart
p110
I0
sVdisambiguatedURL
p111
NsVnamedEntity
p112
Vmasherbrum
p113
sVoffset
p114
I10
saa(lp115
(dp116
Vstart
p117
I0
sVdisambiguatedURL
p118
NsVnamedEntity
p119
Vnanda devi
p120
sVoffset
p121
I10
saa(lp122
(dp123
Vstart
p124
I0
sVdisambiguatedURL
p125
NsVnamedEntity
p126
Valing kangri
p127
sVoffset
p128
I12
saa(lp129
(dp130
Vstart
p131
I0
sVdisambiguatedURL
p132
NsVnamedEntity
p133
Vrakaposhi
p134
sVoffset
p135
I9
saa(lp136
(dp137
Vstart
p138
I0
sVdisambiguatedURL
p139
NsVnamedEntity
p140
Vbatura
p141
sVoffset
p142
I6
saa.