(lp1
(lp2
a(lp3
a(lp4
a(lp5
(dp6
Vstart
p7
I0
sS'classes'
p8
(lp9
Vhttp://dbpedia.org/class/yago/AncientSitesInJerusalem
p10
aVhttp://dbpedia.org/class/yago/Location100027167
p11
aVhttp://dbpedia.org/class/yago/Object100002684
p12
aVhttp://dbpedia.org/class/yago/Region108630985
p13
aVhttp://dbpedia.org/class/yago/Site108651247
p14
aVhttp://dbpedia.org/class/yago/Tract108673395
p15
aVhttp://dbpedia.org/class/yago/YagoGeoEntity
p16
aVhttp://dbpedia.org/class/yago/YagoLegalActorGeo
p17
aVhttp://dbpedia.org/class/yago/ClassicalSitesInJerusalem
p18
aVhttp://dbpedia.org/class/yago/GeographicalArea108574314
p19
aVhttp://dbpedia.org/class/yago/PhysicalEntity100001930
p20
aVhttp://dbpedia.org/class/yago/YagoPermanentlyLocatedEntity
p21
asVdisambiguatedURL
p22
Vhttp://dbpedia.org/resource/Ketef_Hinnom
p23
sVnamedEntity
p24
VKetef Hinnom I
p25
sVoffset
p26
I14
saa(lp27
a(lp28
a(lp29
a.