ccollections
defaultdict
p1
(c__builtin__
dict
p2
tRp3
I0
(dp4
I1
(lp5
Vhttp://dbpedia.org/ontology/wikiPageExternalLink
p6
aVhttp://dbpedia.org/property/website
p7
aVhttp://dbpedia.org/property/region
p8
aVhttp://www.w3.org/2000/01/rdf-schema#comment
p9
aVhttp://xmlns.com/foaf/0.1/primaryTopic
p10
aVhttp://dbpedia.org/ontology/abstract
p11
aVhttp://dbpedia.org/property/name
p12
aVhttp://dbpedia.org/property/org/group
p13
aVhttp://www.w3.org/ns/prov#wasDerivedFrom
p14
aVhttp://xmlns.com/foaf/0.1/isPrimaryTopicOf
p15
aVhttp://xmlns.com/foaf/0.1/name
p16
aVhttp://xmlns.com/foaf/0.1/homepage
p17
aVhttp://dbpedia.org/ontology/region
p18
aVhttp://www.w3.org/2000/01/rdf-schema#label
p19
asI2
(lp20
sI3
(lp21
sI4
(lp22
sI5
(lp23
ssI9
(dp24
I1
(lp25
Vhttp://dbpedia.org/property/affiliation
p26
aVhttp://dbpedia.org/ontology/abstract
p27
aVhttp://purl.org/dc/terms/subject
p28
aVhttp://dbpedia.org/property/region
p29
aVhttp://www.w3.org/2000/01/rdf-schema#comment
p30
asI2
(lp31
sI3
(lp32
sI4
(lp33
sI5
(lp34
ssI2
(dp35
I1
(lp36
Vhttp://dbpedia.org/property/region
p37
aVhttp://dbpedia.org/ontology/abstract
p38
aVhttp://purl.org/dc/terms/subject
p39
aVhttp://dbpedia.org/ontology/region
p40
aVhttp://www.w3.org/2000/01/rdf-schema#comment
p41
asI2
(lp42
sI3
(lp43
sI4
(lp44
sI5
(lp45
ssI4
(dp46
I1
(lp47
Vhttp://dbpedia.org/property/region
p48
aVhttp://www.w3.org/1999/02/22-rdf-syntax-ns#type
p49
aVhttp://purl.org/dc/terms/subject
p50
aVhttp://www.w3.org/2000/01/rdf-schema#comment
p51
aVhttp://dbpedia.org/ontology/abstract
p52
aVhttp://dbpedia.org/ontology/region
p53
asI2
(lp54
sI3
(lp55
sI4
(lp56
sI5
(lp57
ssI5
(dp58
I1
(lp59
Vhttp://dbpedia.org/ontology/wikiPageExternalLink
p60
aVhttp://dbpedia.org/property/website
p61
aVhttp://dbpedia.org/property/mapCaption
p62
aVhttp://dbpedia.org/ontology/wikiPageRedirects
p63
aVhttp://purl.org/dc/terms/subject
p64
aVhttp://dbpedia.org/ontology/location
p65
aVhttp://dbpedia.org/property/logo
p66
aVhttp://www.w3.org/2000/01/rdf-schema#comment
p67
aVhttp://xmlns.com/foaf/0.1/primaryTopic
p68
aVhttp://dbpedia.org/ontology/abstract
p69
aVhttp://xmlns.com/foaf/0.1/depiction
p70
aVhttp://dbpedia.org/property/name
p71
aVhttp://dbpedia.org/property/location
p72
aVhttp://www.w3.org/ns/prov#wasDerivedFrom
p73
aVhttp://xmlns.com/foaf/0.1/isPrimaryTopicOf
p74
aVhttp://xmlns.com/foaf/0.1/name
p75
aVhttp://xmlns.com/foaf/0.1/homepage
p76
aVhttp://www.w3.org/2000/01/rdf-schema#label
p77
aVhttp://dbpedia.org/ontology/thumbnail
p78
asI2
(lp79
sI3
(lp80
sI4
(lp81
sI5
(lp82
ss.