(lp1
(lp2
(lp3
Vhttp://dbpedia.org/resource/Abington_Memorial_Hospital
p4
aa(lp5
a(lp6
a(lp7
a(lp8
a(lp9
aa(lp10
(lp11
a(lp12
a(lp13
a(lp14
a(lp15
a(lp16
aa(lp17
(lp18
Vhttp://dbpedia.org/resource/Einstein_Medical_Center
p19
aa(lp20
Vhttp://dbpedia.org/resource/Philadelphia
p21
aa(lp22
a(lp23
a(lp24
a(lp25
aa(lp26
(lp27
a(lp28
a(lp29
a(lp30
a(lp31
a(lp32
aa(lp33
(lp34
Vhttp://dbpedia.org/resource/Allegheny_General_Hospital
p35
aa(lp36
a(lp37
a(lp38
a(lp39
a(lp40
aa(lp41
(lp42
Vhttp://dbpedia.org/resource/UPMC_Altoona
p43
aa(lp44
a(lp45
a(lp46
a(lp47
a(lp48
aa(lp49
(lp50
a(lp51
a(lp52
a(lp53
a(lp54
a(lp55
aa(lp56
(lp57
a(lp58
a(lp59
a(lp60
a(lp61
a(lp62
aa(lp63
(lp64
a(lp65
Vhttp://dbpedia.org/resource/Philadelphia
p66
aa(lp67
a(lp68
a(lp69
a(lp70
aa(lp71
(lp72
Vhttp://dbpedia.org/resource/Aria_Health
p73
aa(lp74
Vhttp://dbpedia.org/resource/Philadelphia
p75
aa(lp76
a(lp77
a(lp78
a(lp79
aa(lp80
(lp81
a(lp82
a(lp83
a(lp84
a(lp85
a(lp86
aa(lp87
(lp88
a(lp89
a(lp90
a(lp91
a(lp92
a(lp93
aa(lp94
(lp95
a(lp96
a(lp97
a(lp98
a(lp99
a(lp100
aa(lp101
(lp102
a(lp103
a(lp104
a(lp105
a(lp106
a(lp107
aa(lp108
(lp109
a(lp110
Vhttp://dbpedia.org/resource/Coatesville,_New_Zealand
p111
aa(lp112
a(lp113
a(lp114
a(lp115
aa(lp116
(lp117
a(lp118
a(lp119
a(lp120
a(lp121
a(lp122
aa(lp123
(lp124
a(lp125
a(lp126
a(lp127
a(lp128
a(lp129
aa(lp130
(lp131
a(lp132
Vhttp://dbpedia.org/resource/Philadelphia
p133
aa(lp134
a(lp135
a(lp136
a(lp137
aa(lp138
(lp139
Vhttp://dbpedia.org/resource/Canonsburg_General_Hospital
p140
aa(lp141
a(lp142
a(lp143
a(lp144
a(lp145
aa(lp146
(lp147
a(lp148
a(lp149
a(lp150
a(lp151
a(lp152
aa.