(lp1
(dp2
I0
(dp3
I0
(lp4
sI1
(lp5
Vhttp://dbpedia.org/ontology/wikiPageExternalLink
p6
aVhttp://dbpedia.org/property/website
p7
aVhttp://dbpedia.org/property/region
p8
aVhttp://www.w3.org/2000/01/rdf-schema#comment
p9
aVhttp://dbpedia.org/ontology/abstract
p10
aVhttp://xmlns.com/foaf/0.1/primaryTopic
p11
aVhttp://dbpedia.org/property/name
p12
aVhttp://xmlns.com/foaf/0.1/name
p13
aVhttp://xmlns.com/foaf/0.1/isPrimaryTopicOf
p14
aVhttp://www.w3.org/ns/prov#wasDerivedFrom
p15
aVhttp://xmlns.com/foaf/0.1/homepage
p16
aVhttp://dbpedia.org/ontology/region
p17
aVhttp://dbpedia.org/property/org/group
p18
aVhttp://www.w3.org/2000/01/rdf-schema#label
p19
asI2
(lp20
sI3
(lp21
sI4
(lp22
sI5
(lp23
ssI1
(dp24
I0
g5
sI1
(lp25
sI2
(lp26
sI3
(lp27
sI4
(lp28
sI5
(lp29
ssI2
(dp30
I0
g20
sI1
g26
sI2
(lp31
sI3
(lp32
sI4
(lp33
sI5
(lp34
ssI3
(dp35
I0
g21
sI1
g27
sI2
g32
sI3
(lp36
sI4
(lp37
sI5
(lp38
ssI4
(dp39
I0
g22
sI1
g28
sI2
g33
sI3
g37
sI4
(lp40
sI5
(lp41
ssI5
(dp42
I0
g23
sI1
g29
sI2
g34
sI3
g38
sI4
g41
sI5
(lp43
ssa(dp44
I0
(dp45
I0
(lp46
sI1
(lp47
sI2
(lp48
sI3
(lp49
sI4
(lp50
sI5
(lp51
ssI1
(dp52
I0
g47
sI1
(lp53
sI2
(lp54
sI3
(lp55
sI4
(lp56
sI5
(lp57
ssI2
(dp58
I0
g48
sI1
g54
sI2
(lp59
sI3
(lp60
sI4
(lp61
sI5
(lp62
ssI3
(dp63
I0
g49
sI1
g55
sI3
(lp64
sI4
(lp65
sI5
(lp66
ssI4
(dp67
I0
g50
sI1
g56
sI4
(lp68
sI5
(lp69
ssI5
(dp70
I0
g51
sI1
g57
sI2
g62
sI3
g66
sI4
g69
sI5
(lp71
ssa(dp72
I0
(dp73
I0
(lp74
sI1
(lp75
Vhttp://dbpedia.org/ontology/region
p76
aVhttp://dbpedia.org/property/region
p77
aVhttp://purl.org/dc/terms/subject
p78
aVhttp://dbpedia.org/ontology/abstract
p79
aVhttp://www.w3.org/2000/01/rdf-schema#comment
p80
asI2
(lp81
sI3
(lp82
sI4
(lp83
sI5
(lp84
ssI1
(dp85
I0
g75
sI1
(lp86
sI2
(lp87
sI3
(lp88
sI4
(lp89
sI5
(lp90
ssI2
(dp91
I0
g81
sI1
g87
sI2
(lp92
sI3
(lp93
sI4
(lp94
sI5
(lp95
ssI3
(dp96
I0
g82
sI1
g88
sI2
g93
sI3
(lp97
sI4
(lp98
sI5
(lp99
ssI4
(dp100
I0
g83
sI1
g89
sI2
g94
sI3
g98
sI4
(lp101
sI5
(lp102
ssI5
(dp103
I0
g84
sI1
g90
sI2
g95
sI3
g99
sI4
g102
sI5
(lp104
ssa(dp105
I0
(dp106
I0
(lp107
sI1
(lp108
sI2
(lp109
sI3
(lp110
sI4
(lp111
sI5
(lp112
ssI1
(dp113
I0
g108
sI1
(lp114
sI2
(lp115
sI3
(lp116
sI4
(lp117
sI5
(lp118
ssI2
(dp119
I0
g109
sI1
g115
sI2
(lp120
sI3
(lp121
sI4
(lp122
sI5
(lp123
ssI3
(dp124
I0
g110
sI1
g116
sI2
g121
sI3
(lp125
sI4
(lp126
sI5
(lp127
ssI4
(dp128
I0
g111
sI1
g117
sI2
g122
sI3
g126
sI4
(lp129
sI5
(lp130
ssI5
(dp131
I0
g112
sI1
g118
sI2
g123
sI3
g127
sI4
g130
sI5
(lp132
ssa(dp133
I0
(dp134
I0
(lp135
sI1
(lp136
Vhttp://dbpedia.org/property/region
p137
aVhttp://www.w3.org/1999/02/22-rdf-syntax-ns#type
p138
aVhttp://purl.org/dc/terms/subject
p139
aVhttp://www.w3.org/2000/01/rdf-schema#comment
p140
aVhttp://dbpedia.org/ontology/abstract
p141
aVhttp://dbpedia.org/ontology/region
p142
asI2
(lp143
sI3
(lp144
sI4
(lp145
sI5
(lp146
ssI1
(dp147
I0
g136
sI1
(lp148
sI2
(lp149
sI3
(lp150
sI4
(lp151
sI5
(lp152
ssI2
(dp153
I0
g143
sI1
g149
sI2
(lp154
sI3
(lp155
sI4
(lp156
sI5
(lp157
ssI3
(dp158
I0
g144
sI1
g150
sI2
g155
sI3
(lp159
sI4
(lp160
sI5
(lp161
ssI4
(dp162
I0
g145
sI1
g151
sI2
g156
sI3
g160
sI4
(lp163
sI5
(lp164
ssI5
(dp165
I0
g146
sI1
g152
sI2
g157
sI3
g161
sI4
g164
sI5
(lp166
ssa(dp167
I0
(dp168
I0
(lp169
sI1
(lp170
Vhttp://dbpedia.org/ontology/wikiPageExternalLink
p171
aVhttp://dbpedia.org/property/website
p172
aVhttp://dbpedia.org/property/mapCaption
p173
aVhttp://purl.org/dc/terms/subject
p174
aVhttp://dbpedia.org/ontology/location
p175
aVhttp://www.w3.org/2000/01/rdf-schema#comment
p176
aVhttp://xmlns.com/foaf/0.1/primaryTopic
p177
aVhttp://xmlns.com/foaf/0.1/name
p178
aVhttp://dbpedia.org/ontology/abstract
p179
aVhttp://xmlns.com/foaf/0.1/depiction
p180
aVhttp://dbpedia.org/ontology/wikiPageRedirects
p181
aVhttp://dbpedia.org/property/name
p182
aVhttp://dbpedia.org/property/logo
p183
aVhttp://xmlns.com/foaf/0.1/isPrimaryTopicOf
p184
aVhttp://www.w3.org/ns/prov#wasDerivedFrom
p185
aVhttp://dbpedia.org/property/location
p186
aVhttp://xmlns.com/foaf/0.1/homepage
p187
aVhttp://www.w3.org/2000/01/rdf-schema#label
p188
aVhttp://dbpedia.org/ontology/thumbnail
p189
asI2
(lp190
sI3
(lp191
sI4
(lp192
sI5
(lp193
ssI1
(dp194
I0
g170
sI1
(lp195
sI2
(lp196
sI3
(lp197
sI4
(lp198
sI5
(lp199
ssI2
(dp200
I0
g190
sI1
g196
sI2
(lp201
sI3
(lp202
sI4
(lp203
sI5
(lp204
ssI3
(dp205
I0
g191
sI1
g197
sI2
g202
sI3
(lp206
sI4
(lp207
sI5
(lp208
ssI4
(dp209
I0
g192
sI1
g198
sI2
g203
sI3
g207
sI4
(lp210
sI5
(lp211
ssI5
(dp212
I0
g193
sI1
g199
sI2
g204
sI3
g208
sI4
g211
sI5
(lp213
ssa(dp214
I0
(dp215
I0
(lp216
sI1
(lp217
sI2
(lp218
sI3
(lp219
sI4
(lp220
sI5
(lp221
ssI1
(dp222
I0
g217
sI1
(lp223
sI2
(lp224
sI3
(lp225
sI4
(lp226
sI5
(lp227
ssI2
(dp228
I0
g218
sI1
g224
sI2
(lp229
sI3
(lp230
sI4
(lp231
sI5
(lp232
ssI3
(dp233
I0
g219
sI1
g225
sI3
(lp234
sI4
(lp235
sI5
(lp236
ssI4
(dp237
I0
g220
sI1
g226
sI4
(lp238
sI5
(lp239
ssI5
(dp240
I0
g221
sI1
g227
sI2
g232
sI3
g236
sI4
g239
sI5
(lp241
ssa(dp242
I0
(dp243
I0
(lp244
sI1
(lp245
sI2
(lp246
sI3
(lp247
sI4
(lp248
sI5
(lp249
ssI1
(dp250
I0
g245
sI1
(lp251
sI2
(lp252
sI3
(lp253
sI4
(lp254
sI5
(lp255
ssI2
(dp256
I0
g246
sI1
g252
sI2
(lp257
sI3
(lp258
sI4
(lp259
sI5
(lp260
ssI3
(dp261
I0
g247
sI1
g253
sI3
(lp262
sI4
(lp263
sI5
(lp264
ssI4
(dp265
I0
g248
sI1
g254
sI4
(lp266
sI5
(lp267
ssI5
(dp268
I0
g249
sI1
g255
sI2
g260
sI3
g264
sI4
g267
sI5
(lp269
ssa(dp270
I0
(dp271
I0
(lp272
sI1
(lp273
sI2
(lp274
sI3
(lp275
sI4
(lp276
sI5
(lp277
ssI1
(dp278
I0
g273
sI1
(lp279
sI2
(lp280
Vhttp://dbpedia.org/property/placeOfDeath
p281
aVhttp://dbpedia.org/property/commands
p282
aVhttp://dbpedia.org/property/governmentType
p283
aVhttp://dbpedia.org/property/champCity
p284
aVhttp://dbpedia.org/property/hostCity
p285
aVhttp://dbpedia.org/property/place
p286
aVhttp://dbpedia.org/ontology/routeStart
p287
aVhttp://dbpedia.org/property/city
p288
aVhttp://dbpedia.org/property/birthplace
p289
aVhttp://dbpedia.org/ontology/PopulatedPlace/areaUrban
p290
aVhttp://dbpedia.org/property/locationSpecial
p291
aVhttp://dbpedia.org/property/finalscity
p292
aVhttp://www.w3.org/1999/02/22-rdf-syntax-ns#type
p293
aVhttp://dbpedia.org/property/home
p294
aVhttp://xmlns.com/foaf/0.1/depiction
p295
aVhttp://dbpedia.org/ontology/PopulatedPlace/areaMetro
p296
aVhttp://dbpedia.org/property/owned
p297
aVhttp://dbpedia.org/property/birthPlace
p298
aVhttp://dbpedia.org/property/prev
p299
aVhttp://dbpedia.org/property/finalfourcity
p300
aVhttp://dbpedia.org/property/placeOfBirth
p301
aVhttp://dbpedia.org/property/owner
p302
aVhttp://dbpedia.org/property/hometown
p303
aVhttp://dbpedia.org/ontology/routeJunction
p304
aVhttp://dbpedia.org/property/rd
p305
aVhttp://dbpedia.org/property/plane2Destination
p306
aVhttp://dbpedia.org/ontology/PopulatedPlace/area
p307
aVhttp://dbpedia.org/property/siteCityst
p308
aVhttp://dbpedia.org/property/imageSkyline
p309
aVhttp://dbpedia.org/ontology/abstract
p310
aVhttp://dbpedia.org/ontology/recordedIn
p311
aVhttp://dbpedia.org/property/venue
p312
aVhttp://dbpedia.org/property/deathPlace
p313
aVhttp://dbpedia.org/property/extra
p314
aVhttp://dbpedia.org/ontology/builder
p315
aVhttp://dbpedia.org/ontology/thumbnail
p316
aVhttp://dbpedia.org/property/hasPhotoCollection
p317
aVhttp://dbpedia.org/property/shipNamesake
p318
aVhttp://dbpedia.org/property/title
p319
aVhttp://dbpedia.org/property/locale
p320
aVhttp://dbpedia.org/property/shipBuilder
p321
aVhttp://dbpedia.org/ontology/location
p322
aVhttp://dbpedia.org/property/address
p323
aVhttp://dbpedia.org/ontology/birthPlace
p324
aVhttp://www.w3.org/2000/01/rdf-schema#comment
p325
aVhttp://dbpedia.org/property/rd1t1Loc
p326
aVhttp://purl.org/voc/vrank#hasRank
p327
aVhttp://www.w3.org/2002/07/owl#sameAs
p328
aVhttp://dbpedia.org/property/location
p329
aVhttp://dbpedia.org/property/frozenfourcity
p330
aVhttp://dbpedia.org/property/allLocations
p331
aVhttp://dbpedia.org/property/residence
p332
aVhttp://dbpedia.org/property/stadium
p333
aVhttp://dbpedia.org/ontology/deathPlace
p334
asI3
(lp335
Vhttp://dbpedia.org/property/placeOfDeath
p336
aVhttp://dbpedia.org/property/commands
p337
aVhttp://dbpedia.org/property/governmentType
p338
aVhttp://dbpedia.org/property/champCity
p339
aVhttp://dbpedia.org/property/hostCity
p340
aVhttp://dbpedia.org/property/place
p341
aVhttp://dbpedia.org/ontology/routeStart
p342
aVhttp://dbpedia.org/property/city
p343
aVhttp://dbpedia.org/property/birthplace
p344
aVhttp://dbpedia.org/ontology/PopulatedPlace/areaUrban
p345
aVhttp://dbpedia.org/property/locationSpecial
p346
aVhttp://dbpedia.org/property/finalscity
p347
aVhttp://www.w3.org/1999/02/22-rdf-syntax-ns#type
p348
aVhttp://dbpedia.org/property/home
p349
aVhttp://xmlns.com/foaf/0.1/depiction
p350
aVhttp://dbpedia.org/ontology/PopulatedPlace/areaMetro
p351
aVhttp://dbpedia.org/property/owned
p352
aVhttp://dbpedia.org/property/birthPlace
p353
aVhttp://dbpedia.org/property/prev
p354
aVhttp://dbpedia.org/property/finalfourcity
p355
aVhttp://dbpedia.org/property/placeOfBirth
p356
aVhttp://dbpedia.org/property/owner
p357
aVhttp://dbpedia.org/property/hometown
p358
aVhttp://dbpedia.org/ontology/routeJunction
p359
aVhttp://dbpedia.org/property/rd
p360
aVhttp://dbpedia.org/property/plane2Destination
p361
aVhttp://dbpedia.org/ontology/PopulatedPlace/area
p362
aVhttp://dbpedia.org/property/siteCityst
p363
aVhttp://dbpedia.org/property/imageSkyline
p364
aVhttp://dbpedia.org/ontology/abstract
p365
aVhttp://dbpedia.org/ontology/recordedIn
p366
aVhttp://dbpedia.org/property/venue
p367
aVhttp://dbpedia.org/property/deathPlace
p368
aVhttp://dbpedia.org/property/extra
p369
aVhttp://dbpedia.org/ontology/builder
p370
aVhttp://dbpedia.org/ontology/thumbnail
p371
aVhttp://dbpedia.org/property/hasPhotoCollection
p372
aVhttp://dbpedia.org/property/shipNamesake
p373
aVhttp://dbpedia.org/property/title
p374
aVhttp://dbpedia.org/property/locale
p375
aVhttp://dbpedia.org/property/shipBuilder
p376
aVhttp://dbpedia.org/ontology/location
p377
aVhttp://dbpedia.org/property/address
p378
aVhttp://dbpedia.org/ontology/birthPlace
p379
aVhttp://www.w3.org/2000/01/rdf-schema#comment
p380
aVhttp://dbpedia.org/property/rd1t1Loc
p381
aVhttp://purl.org/voc/vrank#hasRank
p382
aVhttp://www.w3.org/2002/07/owl#sameAs
p383
aVhttp://dbpedia.org/property/location
p384
aVhttp://dbpedia.org/property/frozenfourcity
p385
aVhttp://dbpedia.org/property/allLocations
p386
aVhttp://dbpedia.org/property/residence
p387
aVhttp://dbpedia.org/property/stadium
p388
aVhttp://dbpedia.org/ontology/deathPlace
p389
asI4
(lp390
Vhttp://dbpedia.org/property/placeOfDeath
p391
aVhttp://dbpedia.org/property/commands
p392
aVhttp://dbpedia.org/property/governmentType
p393
aVhttp://dbpedia.org/property/champCity
p394
aVhttp://dbpedia.org/property/hostCity
p395
aVhttp://dbpedia.org/property/place
p396
aVhttp://dbpedia.org/ontology/routeStart
p397
aVhttp://dbpedia.org/property/city
p398
aVhttp://dbpedia.org/property/birthplace
p399
aVhttp://dbpedia.org/ontology/PopulatedPlace/areaUrban
p400
aVhttp://dbpedia.org/property/locationSpecial
p401
aVhttp://dbpedia.org/property/finalscity
p402
aVhttp://www.w3.org/1999/02/22-rdf-syntax-ns#type
p403
aVhttp://dbpedia.org/property/home
p404
aVhttp://xmlns.com/foaf/0.1/depiction
p405
aVhttp://dbpedia.org/ontology/PopulatedPlace/areaMetro
p406
aVhttp://dbpedia.org/property/owned
p407
aVhttp://dbpedia.org/property/birthPlace
p408
aVhttp://dbpedia.org/property/prev
p409
aVhttp://dbpedia.org/property/finalfourcity
p410
aVhttp://dbpedia.org/property/placeOfBirth
p411
aVhttp://dbpedia.org/property/owner
p412
aVhttp://dbpedia.org/property/hometown
p413
aVhttp://dbpedia.org/ontology/routeJunction
p414
aVhttp://dbpedia.org/property/rd
p415
aVhttp://dbpedia.org/property/plane2Destination
p416
aVhttp://dbpedia.org/ontology/PopulatedPlace/area
p417
aVhttp://dbpedia.org/property/siteCityst
p418
aVhttp://dbpedia.org/property/imageSkyline
p419
aVhttp://dbpedia.org/ontology/abstract
p420
aVhttp://dbpedia.org/ontology/recordedIn
p421
aVhttp://dbpedia.org/property/venue
p422
aVhttp://dbpedia.org/property/deathPlace
p423
aVhttp://dbpedia.org/property/extra
p424
aVhttp://dbpedia.org/ontology/builder
p425
aVhttp://dbpedia.org/ontology/thumbnail
p426
aVhttp://dbpedia.org/property/hasPhotoCollection
p427
aVhttp://dbpedia.org/property/shipNamesake
p428
aVhttp://dbpedia.org/property/title
p429
aVhttp://dbpedia.org/property/locale
p430
aVhttp://dbpedia.org/property/shipBuilder
p431
aVhttp://dbpedia.org/ontology/location
p432
aVhttp://dbpedia.org/property/address
p433
aVhttp://dbpedia.org/ontology/birthPlace
p434
aVhttp://www.w3.org/2000/01/rdf-schema#comment
p435
aVhttp://dbpedia.org/property/rd1t1Loc
p436
aVhttp://purl.org/voc/vrank#hasRank
p437
aVhttp://www.w3.org/2002/07/owl#sameAs
p438
aVhttp://dbpedia.org/property/location
p439
aVhttp://dbpedia.org/property/frozenfourcity
p440
aVhttp://dbpedia.org/property/allLocations
p441
aVhttp://dbpedia.org/property/residence
p442
aVhttp://dbpedia.org/property/stadium
p443
aVhttp://dbpedia.org/ontology/deathPlace
p444
asI5
(lp445
ssI2
(dp446
I0
g274
sI1
g280
sI2
(lp447
sI3
(lp448
sI4
(lp449
sI5
(lp450
ssI3
(dp451
I0
g275
sI1
g335
sI3
(lp452
sI4
(lp453
sI5
(lp454
ssI4
(dp455
I0
g276
sI1
g390
sI4
(lp456
sI5
(lp457
ssI5
(dp458
I0
g277
sI1
g445
sI2
g450
sI3
g454
sI4
g457
sI5
(lp459
ssa(dp460
I0
(dp461
I0
(lp462
sI1
(lp463
Vhttp://dbpedia.org/property/affiliation
p464
aVhttp://dbpedia.org/ontology/abstract
p465
aVhttp://purl.org/dc/terms/subject
p466
aVhttp://dbpedia.org/property/region
p467
aVhttp://www.w3.org/2000/01/rdf-schema#comment
p468
asI2
(lp469
sI3
(lp470
sI4
(lp471
sI5
(lp472
ssI1
(dp473
I0
g463
sI1
(lp474
sI2
(lp475
sI3
(lp476
sI4
(lp477
sI5
(lp478
ssI2
(dp479
I0
g469
sI1
g475
sI2
(lp480
sI3
(lp481
sI4
(lp482
sI5
(lp483
ssI3
(dp484
I0
g470
sI1
g476
sI2
g481
sI3
(lp485
sI4
(lp486
sI5
(lp487
ssI4
(dp488
I0
g471
sI1
g477
sI2
g482
sI3
g486
sI4
(lp489
sI5
(lp490
ssI5
(dp491
I0
g472
sI1
g478
sI2
g483
sI3
g487
sI4
g490
sI5
(lp492
ssa(dp493
I0
(dp494
I0
(lp495
sI1
(lp496
sI2
(lp497
sI3
(lp498
sI4
(lp499
sI5
(lp500
ssI1
(dp501
I0
g496
sI1
(lp502
sI2
(lp503
sI3
(lp504
sI4
(lp505
sI5
(lp506
ssI2
(dp507
I0
g497
sI1
g503
sI2
(lp508
sI3
(lp509
sI4
(lp510
sI5
(lp511
ssI3
(dp512
I0
g498
sI1
g504
sI2
g509
sI3
(lp513
sI4
(lp514
sI5
(lp515
ssI4
(dp516
I0
g499
sI1
g505
sI2
g510
sI3
g514
sI4
(lp517
sI5
(lp518
ssI5
(dp519
I0
g500
sI1
g506
sI2
g511
sI3
g515
sI4
g518
sI5
(lp520
ssa(dp521
I0
(dp522
I0
(lp523
sI1
(lp524
sI2
(lp525
sI3
(lp526
sI4
(lp527
sI5
(lp528
ssI1
(dp529
I0
g524
sI1
(lp530
sI2
(lp531
sI3
(lp532
sI4
(lp533
sI5
(lp534
ssI2
(dp535
I0
g525
sI1
g531
sI2
(lp536
sI3
(lp537
sI4
(lp538
sI5
(lp539
ssI3
(dp540
I0
g526
sI1
g532
sI2
g537
sI3
(lp541
sI4
(lp542
sI5
(lp543
ssI4
(dp544
I0
g527
sI1
g533
sI2
g538
sI3
g542
sI4
(lp545
sI5
(lp546
ssI5
(dp547
I0
g528
sI1
g534
sI2
g539
sI3
g543
sI4
g546
sI5
(lp548
ssa(dp549
I0
(dp550
I0
(lp551
sI1
(lp552
sI2
(lp553
sI3
(lp554
sI4
(lp555
sI5
(lp556
ssI1
(dp557
I0
g552
sI1
(lp558
sI2
(lp559
sI3
(lp560
sI4
(lp561
sI5
(lp562
ssI2
(dp563
I0
g553
sI1
g559
sI2
(lp564
sI3
(lp565
sI4
(lp566
sI5
(lp567
ssI3
(dp568
I0
g554
sI1
g560
sI2
g565
sI3
(lp569
sI4
(lp570
sI5
(lp571
ssI4
(dp572
I0
g555
sI1
g561
sI2
g566
sI3
g570
sI4
(lp573
sI5
(lp574
ssI5
(dp575
I0
g556
sI1
g562
sI2
g567
sI3
g571
sI4
g574
sI5
(lp576
ssa(dp577
I0
(dp578
I0
(lp579
sI1
(lp580
sI2
(lp581
sI3
(lp582
sI4
(lp583
sI5
(lp584
ssI1
(dp585
I0
g580
sI1
(lp586
sI2
(lp587
sI3
(lp588
sI4
(lp589
sI5
(lp590
ssI2
(dp591
I0
g581
sI1
g587
sI2
(lp592
sI3
(lp593
sI4
(lp594
sI5
(lp595
ssI3
(dp596
I0
g582
sI1
g588
sI2
g593
sI3
(lp597
sI4
(lp598
sI5
(lp599
ssI4
(dp600
I0
g583
sI1
g589
sI2
g594
sI3
g598
sI4
(lp601
sI5
(lp602
ssI5
(dp603
I0
g584
sI1
g590
sI2
g595
sI3
g599
sI4
g602
sI5
(lp604
ssa(dp605
I0
(dp606
I0
(lp607
sI1
(lp608
sI2
(lp609
sI3
(lp610
sI4
(lp611
sI5
(lp612
ssI1
(dp613
I0
g608
sI1
(lp614
sI2
(lp615
Vhttp://www.w3.org/1999/02/22-rdf-syntax-ns#type
p616
asI3
(lp617
sI4
(lp618
sI5
(lp619
ssI2
(dp620
I0
g609
sI1
g615
sI2
(lp621
sI3
(lp622
sI4
(lp623
sI5
(lp624
ssI3
(dp625
I0
g610
sI1
g617
sI2
g622
sI3
(lp626
sI4
(lp627
sI5
(lp628
ssI4
(dp629
I0
g611
sI1
g618
sI2
g623
sI3
g627
sI4
(lp630
sI5
(lp631
ssI5
(dp632
I0
g612
sI1
g619
sI2
g624
sI3
g628
sI4
g631
sI5
(lp633
ssa(dp634
I0
(dp635
I0
(lp636
sI1
(lp637
sI2
(lp638
sI3
(lp639
sI4
(lp640
sI5
(lp641
ssI1
(dp642
I0
g637
sI1
(lp643
sI2
(lp644
sI3
(lp645
sI4
(lp646
sI5
(lp647
ssI2
(dp648
I0
g638
sI1
g644
sI2
(lp649
sI3
(lp650
sI4
(lp651
sI5
(lp652
ssI3
(dp653
I0
g639
sI1
g645
sI2
g650
sI3
(lp654
sI4
(lp655
sI5
(lp656
ssI4
(dp657
I0
g640
sI1
g646
sI2
g651
sI3
g655
sI4
(lp658
sI5
(lp659
ssI5
(dp660
I0
g641
sI1
g647
sI2
g652
sI3
g656
sI4
g659
sI5
(lp661
ssa(dp662
I0
(dp663
I0
(lp664
sI1
(lp665
sI2
(lp666
sI3
(lp667
sI4
(lp668
sI5
(lp669
ssI1
(dp670
I0
g665
sI1
(lp671
sI2
(lp672
sI3
(lp673
sI4
(lp674
sI5
(lp675
ssI2
(dp676
I0
g666
sI1
g672
sI2
(lp677
sI3
(lp678
sI4
(lp679
sI5
(lp680
ssI3
(dp681
I0
g667
sI1
g673
sI2
g678
sI3
(lp682
sI4
(lp683
sI5
(lp684
ssI4
(dp685
I0
g668
sI1
g674
sI2
g679
sI3
g683
sI4
(lp686
sI5
(lp687
ssI5
(dp688
I0
g669
sI1
g675
sI2
g680
sI3
g684
sI4
g687
sI5
(lp689
ssa(dp690
I0
(dp691
I0
(lp692
sI1
(lp693
sI2
(lp694
sI3
(lp695
sI4
(lp696
sI5
(lp697
ssI1
(dp698
I0
g693
sI1
(lp699
sI2
(lp700
Vhttp://dbpedia.org/property/siteCityst
p701
aVhttp://dbpedia.org/property/shipBuilder
p702
aVhttp://dbpedia.org/property/address
p703
aVhttp://dbpedia.org/property/city
p704
aVhttp://dbpedia.org/ontology/builder
p705
aVhttp://dbpedia.org/property/title
p706
asI3
(lp707
sI4
(lp708
sI5
(lp709
ssI2
(dp710
I0
g694
sI1
g700
sI2
(lp711
sI3
(lp712
sI4
(lp713
sI5
(lp714
ssI3
(dp715
I0
g695
sI1
g707
sI2
g712
sI3
(lp716
sI4
(lp717
sI5
(lp718
ssI4
(dp719
I0
g696
sI1
g708
sI2
g713
sI3
g717
sI4
(lp720
sI5
(lp721
ssI5
(dp722
I0
g697
sI1
g709
sI2
g714
sI3
g718
sI4
g721
sI5
(lp723
ssa(dp724
I0
(dp725
I0
(lp726
sI1
(lp727
Vhttp://dbpedia.org/ontology/wikiPageExternalLink
p728
aVhttp://xmlns.com/foaf/0.1/primaryTopic
p729
aVhttp://purl.org/dc/terms/subject
p730
aVhttp://www.w3.org/2000/01/rdf-schema#comment
p731
aVhttp://dbpedia.org/ontology/abstract
p732
aVhttp://xmlns.com/foaf/0.1/isPrimaryTopicOf
p733
aVhttp://www.w3.org/ns/prov#wasDerivedFrom
p734
aVhttp://dbpedia.org/property/hasPhotoCollection
p735
aVhttp://www.w3.org/2000/01/rdf-schema#label
p736
aVhttp://www.w3.org/2002/07/owl#sameAs
p737
asI2
(lp738
Vhttp://dbpedia.org/ontology/abstract
p739
aVhttp://www.w3.org/1999/02/22-rdf-syntax-ns#type
p740
aVhttp://www.w3.org/2000/01/rdf-schema#comment
p741
asI3
(lp742
sI4
(lp743
sI5
(lp744
ssI1
(dp745
I0
g727
sI1
(lp746
sI2
(lp747
sI3
(lp748
sI4
(lp749
sI5
(lp750
ssI2
(dp751
I0
g738
sI1
g747
sI2
(lp752
sI3
(lp753
sI4
(lp754
sI5
(lp755
ssI3
(dp756
I0
g742
sI1
g748
sI2
g753
sI3
(lp757
sI4
(lp758
sI5
(lp759
ssI4
(dp760
I0
g743
sI1
g749
sI2
g754
sI3
g758
sI4
(lp761
sI5
(lp762
ssI5
(dp763
I0
g744
sI1
g750
sI2
g755
sI3
g759
sI4
g762
sI5
(lp764
ssa(dp765
I0
(dp766
I0
(lp767
sI1
(lp768
sI2
(lp769
sI3
(lp770
sI4
(lp771
sI5
(lp772
ssI1
(dp773
I0
g768
sI1
(lp774
sI2
(lp775
sI3
(lp776
sI4
(lp777
sI5
(lp778
ssI2
(dp779
I0
g769
sI1
g775
sI2
(lp780
sI3
(lp781
sI4
(lp782
sI5
(lp783
ssI3
(dp784
I0
g770
sI1
g776
sI2
g781
sI3
(lp785
sI4
(lp786
sI5
(lp787
ssI4
(dp788
I0
g771
sI1
g777
sI2
g782
sI3
g786
sI4
(lp789
sI5
(lp790
ssI5
(dp791
I0
g772
sI1
g778
sI2
g783
sI3
g787
sI4
g790
sI5
(lp792
ssa.