(lp1
(dp2
I0
(dp3
I0
(lp4
sI1
(lp5
Vhttp://dbpedia.org/ontology/birthPlace
p6
aVhttp://dbpedia.org/property/birthPlace
p7
aVhttp://dbpedia.org/property/placeOfBirth
p8
asI2
(lp9
sI3
(lp10
ssI1
(dp11
I0
g5
sI1
(lp12
sI2
(lp13
Vhttp://dbpedia.org/ontology/birthPlace
p14
aVhttp://dbpedia.org/property/birthPlace
p15
aVhttp://dbpedia.org/property/placeOfBirth
p16
asI3
(lp17
ssI2
(dp18
I1
g13
sI2
(lp19
sI3
(lp20
ssI3
(dp21
I0
g10
sI1
g17
sI2
g20
sI3
(lp22
ssa(dp23
I0
(dp24
I0
(lp25
sI1
(lp26
sI2
(lp27
sI3
(lp28
ssI1
(dp29
I0
g26
sI1
(lp30
sI2
(lp31
sI3
(lp32
ssI2
(dp33
I1
g31
sI2
(lp34
sI3
(lp35
ssI3
(dp36
I1
g32
sI3
(lp37
ssa(dp38
I0
(dp39
I0
(lp40
sI1
(lp41
sI2
(lp42
sI3
(lp43
ssI1
(dp44
I0
g41
sI1
(lp45
sI2
(lp46
sI3
(lp47
ssI2
(dp48
I1
g46
sI2
(lp49
sI3
(lp50
ssI3
(dp51
I0
g43
sI1
g47
sI2
g50
sI3
(lp52
ssa(dp53
I0
(dp54
I0
(lp55
sI1
(lp56
sI2
(lp57
sI3
(lp58
ssI1
(dp59
I0
g56
sI1
(lp60
sI2
(lp61
sI3
(lp62
ssI2
(dp63
I1
g61
sI2
(lp64
sI3
(lp65
ssI3
(dp66
I0
g58
sI1
g62
sI2
g65
sI3
(lp67
ssa(dp68
I0
(dp69
I0
(lp70
sI1
(lp71
sI2
(lp72
sI3
(lp73
ssI1
(dp74
I0
g71
sI1
(lp75
sI2
(lp76
sI3
(lp77
ssI2
(dp78
I0
g72
sI1
g76
sI2
(lp79
sI3
(lp80
ssI3
(dp81
I1
g77
sI2
g80
sI3
(lp82
ssa(dp83
I0
(dp84
I0
(lp85
sI1
(lp86
sI2
(lp87
sI3
(lp88
ssI1
(dp89
I0
g86
sI1
(lp90
sI2
(lp91
sI3
(lp92
ssI2
(dp93
I1
g91
sI2
(lp94
sI3
(lp95
ssI3
(dp96
I0
g88
sI1
g92
sI2
g95
sI3
(lp97
ssa(dp98
I0
(dp99
I0
(lp100
sI1
(lp101
sI2
(lp102
sI3
(lp103
ssI1
(dp104
I0
g101
sI1
(lp105
sI2
(lp106
sI3
(lp107
ssI2
(dp108
I0
g102
sI1
g106
sI2
(lp109
sI3
(lp110
ssI3
(dp111
I0
g103
sI1
g107
sI2
g110
sI3
(lp112
ssa(dp113
I0
(dp114
I0
(lp115
sI1
(lp116
sI2
(lp117
sI3
(lp118
ssI1
(dp119
I0
g116
sI1
(lp120
sI2
(lp121
sI3
(lp122
ssI2
(dp123
I1
g121
sI2
(lp124
sI3
(lp125
ssI3
(dp126
I0
g118
sI1
g122
sI2
g125
sI3
(lp127
ssa(dp128
I0
(dp129
I0
(lp130
sI1
(lp131
sI2
(lp132
sI3
(lp133
ssI1
(dp134
I0
g131
sI1
(lp135
sI2
(lp136
sI3
(lp137
ssI2
(dp138
I1
g136
sI2
(lp139
sI3
(lp140
ssI3
(dp141
I1
g137
sI3
(lp142
ssa(dp143
I0
(dp144
I0
(lp145
sI1
(lp146
sI2
(lp147
sI3
(lp148
ssI1
(dp149
I0
g146
sI1
(lp150
sI2
(lp151
sI3
(lp152
ssI2
(dp153
I0
g147
sI1
g151
sI2
(lp154
sI3
(lp155
ssI3
(dp156
I0
g148
sI1
g152
sI3
(lp157
ssa(dp158
I0
(dp159
I0
(lp160
sI1
(lp161
sI2
(lp162
sI3
(lp163
ssI1
(dp164
I0
g161
sI1
(lp165
sI2
(lp166
sI3
(lp167
ssI2
(dp168
I1
g166
sI2
(lp169
sI3
(lp170
ssI3
(dp171
I1
g167
sI3
(lp172
ssa(dp173
I0
(dp174
I0
(lp175
sI1
(lp176
sI2
(lp177
sI3
(lp178
ssI1
(dp179
I0
g176
sI1
(lp180
sI2
(lp181
sI3
(lp182
ssI2
(dp183
I1
g181
sI2
(lp184
sI3
(lp185
ssI3
(dp186
I0
g178
sI1
g182
sI2
g185
sI3
(lp187
ssa.