(lp1
(lp2
(lp3
a(lp4
Vhttp://dbpedia.org/resource/Jessica_Mae
p5
aa(lp6
a(lp7
aa(lp8
(lp9
a(lp10
Vhttp://dbpedia.org/resource/Jessica_McKellar
p11
aa(lp12
a(lp13
aa(lp14
(lp15
a(lp16
a(lp17
a(lp18
aa(lp19
(lp20
a(lp21
a(lp22
a(lp23
aa(lp24
(lp25
a(lp26
a(lp27
a(lp28
aa(lp29
(lp30
a(lp31
a(lp32
a(lp33
aa(lp34
(lp35
Vhttp://dbpedia.org/resource/Badajoz_(Spanish_Congress_Electoral_District)
p36
aa(lp37
a(lp38
a(lp39
aa(lp40
(lp41
a(lp42
a(lp43
a(lp44
aa(lp45
(lp46
a(lp47
a(lp48
a(lp49
aa(lp50
(lp51
a(lp52
a(lp53
a(lp54
aa(lp55
(lp56
a(lp57
a(lp58
a(lp59
aa(lp60
(lp61
a(lp62
Vhttp://dbpedia.org/resource/Jimmy_Chinn
p63
aa(lp64
a(lp65
aa.