(lp1
(dp2
I0
(dp3
I0
(lp4
sI1
(lp5
sI2
(lp6
sI3
(lp7
ssI1
(dp8
I0
g5
sI1
(lp9
sI2
(lp10
Vhttp://dbpedia.org/ontology/country
p11
aVhttp://xmlns.com/foaf/0.1/primaryTopic
p12
aVhttp://www.w3.org/1999/02/22-rdf-syntax-ns#type
p13
aVhttp://purl.org/dc/terms/subject
p14
aVhttp://dbpedia.org/ontology/location
p15
aVhttp://www.w3.org/2000/01/rdf-schema#comment
p16
aVhttp://dbpedia.org/property/map
p17
aVhttp://dbpedia.org/ontology/abstract
p18
aVhttp://dbpedia.org/ontology/wikiPageRedirects
p19
aVhttp://dbpedia.org/property/postalCode
p20
aVhttp://xmlns.com/foaf/0.1/isPrimaryTopicOf
p21
aVhttp://www.w3.org/ns/prov#wasDerivedFrom
p22
aVhttp://dbpedia.org/property/hasPhotoCollection
p23
aVhttp://www.w3.org/2000/01/rdf-schema#label
p24
aVhttp://dbpedia.org/ontology/wikiPageDisambiguates
p25
aVhttp://www.w3.org/2002/07/owl#sameAs
p26
asI3
(lp27
Vhttp://www.w3.org/2000/01/rdf-schema#seeAlso
p28
aVhttp://dbpedia.org/property/relative
p29
aVhttp://dbpedia.org/property/sixthPitch
p30
aVhttp://dbpedia.org/property/subdominant
p31
aVhttp://dbpedia.org/property/key
p32
aVhttp://www.w3.org/ns/prov#wasDerivedFrom
p33
aVhttp://www.w3.org/2002/07/owl#differentFrom
p34
aVhttp://www.w3.org/1999/02/22-rdf-syntax-ns#type
p35
aVhttp://dbpedia.org/property/dominant
p36
aVhttp://xmlns.com/foaf/0.1/isPrimaryTopicOf
p37
aVhttp://dbpedia.org/ontology/wikiPageDisambiguates
p38
aVhttp://dbpedia.org/property/parallel
p39
aVhttp://xmlns.com/foaf/0.1/primaryTopic
p40
aVhttp://purl.org/dc/terms/subject
p41
aVhttp://dbpedia.org/ontology/abstract
p42
aVhttp://xmlns.com/foaf/0.1/depiction
p43
aVhttp://dbpedia.org/property/imageName
p44
aVhttp://dbpedia.org/ontology/thumbnail
p45
aVhttp://dbpedia.org/property/hasPhotoCollection
p46
aVhttp://www.w3.org/2000/01/rdf-schema#comment
p47
aVhttp://dbpedia.org/ontology/wikiPageRedirects
p48
aVhttp://www.w3.org/2002/07/owl#sameAs
p49
assI2
(dp50
I0
g6
sI1
g10
sI2
(lp51
sI3
(lp52
Vhttp://dbpedia.org/ontology/country
p53
aVhttp://xmlns.com/foaf/0.1/primaryTopic
p54
aVhttp://www.w3.org/1999/02/22-rdf-syntax-ns#type
p55
aVhttp://purl.org/dc/terms/subject
p56
aVhttp://dbpedia.org/ontology/location
p57
aVhttp://www.w3.org/2000/01/rdf-schema#comment
p58
aVhttp://dbpedia.org/property/map
p59
aVhttp://dbpedia.org/ontology/abstract
p60
aVhttp://dbpedia.org/ontology/wikiPageRedirects
p61
aVhttp://dbpedia.org/property/postalCode
p62
aVhttp://xmlns.com/foaf/0.1/isPrimaryTopicOf
p63
aVhttp://www.w3.org/ns/prov#wasDerivedFrom
p64
aVhttp://dbpedia.org/property/hasPhotoCollection
p65
aVhttp://www.w3.org/2000/01/rdf-schema#label
p66
aVhttp://dbpedia.org/ontology/wikiPageDisambiguates
p67
aVhttp://www.w3.org/2002/07/owl#sameAs
p68
assI3
(dp69
I0
g7
sI1
g27
sI2
g52
sI3
(lp70
ssa(dp71
I0
(dp72
I0
(lp73
sI1
(lp74
sI2
(lp75
sI3
(lp76
ssI1
(dp77
I0
g74
sI1
(lp78
sI2
(lp79
sI3
(lp80
ssI2
(dp81
I0
g75
sI1
g79
sI2
(lp82
sI3
(lp83
ssI3
(dp84
I0
g76
sI1
g80
sI3
(lp85
ssa(dp86
I0
(dp87
I0
(lp88
sI1
(lp89
sI2
(lp90
sI3
(lp91
ssI1
(dp92
I0
g89
sI1
(lp93
sI2
(lp94
sI3
(lp95
Vhttp://dbpedia.org/ontology/wikiPageDisambiguates
p96
assI2
(dp97
I0
g90
sI2
(lp98
sI3
(lp99
Vhttp://dbpedia.org/ontology/wikiPageDisambiguates
p100
assI3
(dp101
I0
g91
sI1
g95
sI2
g99
sI3
(lp102
ssa(dp103
I0
(dp104
I0
(lp105
sI1
(lp106
sI2
(lp107
sI3
(lp108
ssI1
(dp109
I0
g106
sI1
(lp110
sI2
(lp111
sI3
(lp112
ssI2
(dp113
I0
g107
sI2
(lp114
sI3
(lp115
ssI3
(dp116
I0
g108
sI3
(lp117
ssa(dp118
I0
(dp119
I0
(lp120
sI1
(lp121
sI2
(lp122
sI3
(lp123
ssI1
(dp124
I0
g121
sI1
(lp125
sI2
(lp126
sI3
(lp127
ssI2
(dp128
I0
g122
sI2
(lp129
sI3
(lp130
ssI3
(dp131
I0
g123
sI3
(lp132
ssa(dp133
I0
(dp134
I0
(lp135
sI1
(lp136
sI2
(lp137
sI3
(lp138
ssI1
(dp139
I0
g136
sI1
(lp140
sI2
(lp141
sI3
(lp142
ssI2
(dp143
I0
g137
sI1
g141
sI2
(lp144
sI3
(lp145
ssI3
(dp146
I0
g138
sI1
g142
sI3
(lp147
ssa(dp148
I0
(dp149
I0
(lp150
sI1
(lp151
sI2
(lp152
sI3
(lp153
ssI1
(dp154
I0
g151
sI1
(lp155
sI2
(lp156
sI3
(lp157
ssI2
(dp158
I0
g152
sI2
(lp159
sI3
(lp160
ssI3
(dp161
I0
g153
sI1
g157
sI2
g160
sI3
(lp162
ssa(dp163
I0
(dp164
I0
(lp165
sI1
(lp166
sI2
(lp167
sI3
(lp168
ssI1
(dp169
I0
g166
sI1
(lp170
sI2
(lp171
sI3
(lp172
ssI2
(dp173
I0
g167
sI2
(lp174
sI3
(lp175
ssI3
(dp176
I0
g168
sI3
(lp177
ssa(dp178
I0
(dp179
I0
(lp180
sI1
(lp181
sI2
(lp182
sI3
(lp183
ssI1
(dp184
I0
g181
sI1
(lp185
sI2
(lp186
sI3
(lp187
ssI2
(dp188
I0
g182
sI2
(lp189
sI3
(lp190
ssI3
(dp191
I0
g183
sI3
(lp192
ssa(dp193
I0
(dp194
I0
(lp195
sI1
(lp196
sI2
(lp197
sI3
(lp198
ssI1
(dp199
I0
g196
sI1
(lp200
sI2
(lp201
sI3
(lp202
ssI2
(dp203
I0
g197
sI2
(lp204
sI3
(lp205
ssI3
(dp206
I0
g198
sI3
(lp207
ssa(dp208
I0
(dp209
I0
(lp210
sI1
(lp211
sI2
(lp212
sI3
(lp213
ssI1
(dp214
I0
g211
sI1
(lp215
sI2
(lp216
sI3
(lp217
Vhttp://dbpedia.org/ontology/wikiPageDisambiguates
p218
assI2
(dp219
I0
g212
sI2
(lp220
sI3
(lp221
Vhttp://dbpedia.org/ontology/wikiPageDisambiguates
p222
assI3
(dp223
I0
g213
sI1
g217
sI2
g221
sI3
(lp224
ssa(dp225
I0
(dp226
I0
(lp227
sI1
(lp228
sI2
(lp229
sI3
(lp230
ssI1
(dp231
I0
g228
sI1
(lp232
sI2
(lp233
sI3
(lp234
ssI2
(dp235
I0
g229
sI1
g233
sI2
(lp236
sI3
(lp237
ssI3
(dp238
I0
g230
sI1
g234
sI2
g237
sI3
(lp239
ssa(dp240
I0
(dp241
I0
(lp242
sI1
(lp243
sI2
(lp244
sI3
(lp245
ssI1
(dp246
I0
g243
sI1
(lp247
sI2
(lp248
sI3
(lp249
Vhttp://dbpedia.org/ontology/wikiPageDisambiguates
p250
assI2
(dp251
I0
g244
sI2
(lp252
sI3
(lp253
Vhttp://dbpedia.org/ontology/wikiPageDisambiguates
p254
assI3
(dp255
I0
g245
sI1
g249
sI2
g253
sI3
(lp256
ssa(dp257
I0
(dp258
I0
(lp259
sI1
(lp260
sI2
(lp261
sI3
(lp262
ssI1
(dp263
I0
g260
sI1
(lp264
sI2
(lp265
sI3
(lp266
ssI2
(dp267
I0
g261
sI2
(lp268
sI3
(lp269
ssI3
(dp270
I0
g262
sI3
(lp271
ssa(dp272
I0
(dp273
I0
(lp274
sI1
(lp275
sI2
(lp276
sI3
(lp277
ssI1
(dp278
I0
g275
sI1
(lp279
sI2
(lp280
sI3
(lp281
ssI2
(dp282
I0
g276
sI1
g280
sI2
(lp283
sI3
(lp284
ssI3
(dp285
I0
g277
sI1
g281
sI2
g284
sI3
(lp286
ssa.