(lp1
(lp2
a(lp3
(dp4
Vstart
p5
I0
sS'classes'
p6
(lp7
Vhttp://www.w3.org/2002/07/owl#Thing
p8
aVhttp://www.ontologydesignpatterns.org/ont/dul/DUL.owl#Agent
p9
aVhttp://www.ontologydesignpatterns.org/ont/dul/DUL.owl#SocialPerson
p10
aVhttp://www.wikidata.org/entity/Q15265344
p11
aVhttp://www.wikidata.org/entity/Q43229
p12
aVhttp://dbpedia.org/ontology/Agent
p13
aVhttp://dbpedia.org/ontology/Broadcaster
p14
aVhttp://dbpedia.org/ontology/Organisation
p15
aVhttp://schema.org/Organization
p16
aVhttp://umbel.org/umbel/rc/Business
p17
aVhttp://dbpedia.org/class/yago/Artifact100021939
p18
aVhttp://dbpedia.org/class/yago/BroadcastingStation102903405
p19
aVhttp://dbpedia.org/class/yago/Channel103006398
p20
aVhttp://dbpedia.org/class/yago/Facility103315023
p21
aVhttp://dbpedia.org/class/yago/Object100002684
p22
aVhttp://dbpedia.org/class/yago/Station104306080
p23
aVhttp://dbpedia.org/class/yago/TelevisionStation104406350
p24
aVhttp://dbpedia.org/class/yago/Whole100003553
p25
aVhttp://dbpedia.org/class/yago/YagoGeoEntity
p26
aVhttp://dbpedia.org/class/yago/PhysicalEntity100001930
p27
aVhttp://dbpedia.org/class/yago/YagoPermanentlyLocatedEntity
p28
aVhttp://dbpedia.org/class/yago/TelevisionChannelsAndStationsEstablishedIn2002
p29
asVdisambiguatedURL
p30
Vhttp://dbpedia.org/resource/Yesterday_(TV_channel)
p31
sVnamedEntity
p32
VYesterday:
p33
sVoffset
p34
I10
saa(lp35
a(lp36
a.