(lp1
(lp2
(lp3
a(lp4
aa(lp5
(lp6
a(lp7
Vhttp://dbpedia.org/resource/Engineered_wood
p8
aaa(lp9
(lp10
a(lp11
aa(lp12
(lp13
Vhttp://dbpedia.org/resource/Part_number
p14
aa(lp15
aa(lp16
(lp17
a(lp18
aa(lp19
(lp20
a(lp21
aa(lp22
(lp23
a(lp24
aa(lp25
(lp26
a(lp27
aa(lp28
(lp29
Vhttp://dbpedia.org/resource/Construction
p30
aa(lp31
aa(lp32
(lp33
a(lp34
aa(lp35
(lp36
a(lp37
aa(lp38
(lp39
a(lp40
aa(lp41
(lp42
a(lp43
aa(lp44
(lp45
a(lp46
aa(lp47
(lp48
a(lp49
aa(lp50
(lp51
a(lp52
aa(lp53
(lp54
a(lp55
aa(lp56
(lp57
Vhttp://dbpedia.org/resource/Installation_(computer_programs)
p58
aa(lp59
aa(lp60
(lp61
a(lp62
aa(lp63
(lp64
a(lp65
aa.