(lp1
(lp2
(lp3
a(lp4
a(lp5
aa(lp6
(lp7
a(lp8
a(lp9
aa(lp10
(lp11
a(lp12
a(lp13
aa(lp14
(lp15
a(lp16
a(lp17
aa(lp18
(lp19
a(lp20
a(lp21
aa(lp22
(lp23
a(lp24
a(lp25
aa(lp26
(lp27
a(lp28
a(lp29
aa(lp30
(lp31
a(lp32
a(lp33
aa(lp34
(lp35
a(lp36
a(lp37
aa(lp38
(lp39
a(lp40
a(lp41
Vhttp://dbpedia.org/resource/X86_virtualization
p42
aaa(lp43
(lp44
a(lp45
a(lp46
Vhttp://dbpedia.org/resource/X86_virtualization
p47
aaa(lp48
(lp49
a(lp50
a(lp51
Vhttp://dbpedia.org/resource/X86_virtualization
p52
aaa(lp53
(lp54
a(lp55
a(lp56
Vhttp://dbpedia.org/resource/X86_virtualization
p57
aaa(lp58
(lp59
a(lp60
a(lp61
aa(lp62
(lp63
a(lp64
a(lp65
aa(lp66
(lp67
a(lp68
a(lp69
aa(lp70
(lp71
a(lp72
a(lp73
aa(lp74
(lp75
a(lp76
a(lp77
aa(lp78
(lp79
a(lp80
a(lp81
aa(lp82
(lp83
a(lp84
a(lp85
aa(lp86
(lp87
a(lp88
a(lp89
aa(lp90
(lp91
a(lp92
a(lp93
aa(lp94
(lp95
a(lp96
a(lp97
aa(lp98
(lp99
a(lp100
a(lp101
aa(lp102
(lp103
a(lp104
a(lp105
aa(lp106
(lp107
a(lp108
a(lp109
aa(lp110
(lp111
a(lp112
a(lp113
aa(lp114
(lp115
a(lp116
a(lp117
aa(lp118
(lp119
a(lp120
a(lp121
aa(lp122
(lp123
a(lp124
Vhttp://dbpedia.org/resource/Mallard
p125
aa(lp126
aa(lp127
(lp128
a(lp129
a(lp130
aa(lp131
(lp132
a(lp133
a(lp134
aa(lp135
(lp136
a(lp137
a(lp138
aa(lp139
(lp140
a(lp141
a(lp142
aa(lp143
(lp144
a(lp145
a(lp146
aa(lp147
(lp148
a(lp149
a(lp150
aa(lp151
(lp152
a(lp153
a(lp154
aa(lp155
(lp156
a(lp157
a(lp158
aa(lp159
(lp160
a(lp161
a(lp162
aa(lp163
(lp164
a(lp165
a(lp166
aa(lp167
(lp168
a(lp169
a(lp170
aa(lp171
(lp172
a(lp173
a(lp174
aa(lp175
(lp176
a(lp177
a(lp178
aa(lp179
(lp180
a(lp181
a(lp182
aa(lp183
(lp184
a(lp185
a(lp186
aa(lp187
(lp188
a(lp189
a(lp190
aa(lp191
(lp192
a(lp193
Vhttp://dbpedia.org/resource/Bald_eagle
p194
aa(lp195
aa(lp196
(lp197
a(lp198
a(lp199
aa(lp200
(lp201
a(lp202
a(lp203
aa(lp204
(lp205
a(lp206
a(lp207
aa(lp208
(lp209
a(lp210
a(lp211
aa(lp212
(lp213
a(lp214
a(lp215
aa(lp216
(lp217
a(lp218
a(lp219
aa(lp220
(lp221
a(lp222
a(lp223
aa(lp224
(lp225
a(lp226
a(lp227
aa(lp228
(lp229
a(lp230
a(lp231
aa(lp232
(lp233
a(lp234
a(lp235
aa(lp236
(lp237
a(lp238
a(lp239
aa(lp240
(lp241
a(lp242
a(lp243
aa(lp244
(lp245
a(lp246
a(lp247
aa(lp248
(lp249
a(lp250
a(lp251
aa(lp252
(lp253
a(lp254
a(lp255
aa(lp256
(lp257
a(lp258
a(lp259
aa(lp260
(lp261
a(lp262
a(lp263
aa(lp264
(lp265
a(lp266
a(lp267
aa(lp268
(lp269
a(lp270
a(lp271
aa(lp272
(lp273
a(lp274
a(lp275
aa(lp276
(lp277
a(lp278
a(lp279
aa(lp280
(lp281
a(lp282
a(lp283
aa(lp284
(lp285
a(lp286
a(lp287
aa(lp288
(lp289
a(lp290
a(lp291
aa(lp292
(lp293
a(lp294
a(lp295
aa(lp296
(lp297
a(lp298
a(lp299
aa(lp300
(lp301
a(lp302
a(lp303
aa(lp304
(lp305
a(lp306
a(lp307
aa(lp308
(lp309
a(lp310
a(lp311
aa(lp312
(lp313
a(lp314
a(lp315
aa(lp316
(lp317
a(lp318
a(lp319
aa(lp320
(lp321
a(lp322
a(lp323
aa(lp324
(lp325
a(lp326
a(lp327
aa(lp328
(lp329
a(lp330
a(lp331
aa(lp332
(lp333
a(lp334
a(lp335
aa(lp336
(lp337
a(lp338
a(lp339
aa(lp340
(lp341
a(lp342
a(lp343
aa(lp344
(lp345
a(lp346
a(lp347
aa(lp348
(lp349
a(lp350
a(lp351
aa(lp352
(lp353
a(lp354
a(lp355
aa(lp356
(lp357
a(lp358
a(lp359
aa(lp360
(lp361
a(lp362
a(lp363
aa(lp364
(lp365
a(lp366
a(lp367
aa(lp368
(lp369
a(lp370
a(lp371
aa(lp372
(lp373
a(lp374
a(lp375
aa(lp376
(lp377
a(lp378
a(lp379
aa(lp380
(lp381
a(lp382
a(lp383
aa(lp384
(lp385
a(lp386
a(lp387
aa(lp388
(lp389
a(lp390
a(lp391
aa(lp392
(lp393
a(lp394
a(lp395
aa(lp396
(lp397
Vhttp://dbpedia.org/resource/Herring_Gull
p398
aa(lp399
a(lp400
aa(lp401
(lp402
a(lp403
a(lp404
aa(lp405
(lp406
a(lp407
a(lp408
aa(lp409
(lp410
a(lp411
a(lp412
aa(lp413
(lp414
a(lp415
a(lp416
aa(lp417
(lp418
a(lp419
a(lp420
aa(lp421
(lp422
a(lp423
a(lp424
aa(lp425
(lp426
a(lp427
a(lp428
aa(lp429
(lp430
a(lp431
a(lp432
aa(lp433
(lp434
a(lp435
a(lp436
aa(lp437
(lp438
a(lp439
a(lp440
aa(lp441
(lp442
a(lp443
a(lp444
aa(lp445
(lp446
a(lp447
a(lp448
aa(lp449
(lp450
a(lp451
a(lp452
aa(lp453
(lp454
a(lp455
a(lp456
aa(lp457
(lp458
a(lp459
a(lp460
aa(lp461
(lp462
a(lp463
a(lp464
aa(lp465
(lp466
a(lp467
a(lp468
aa(lp469
(lp470
a(lp471
a(lp472
aa(lp473
(lp474
a(lp475
a(lp476
aa(lp477
(lp478
a(lp479
a(lp480
aa(lp481
(lp482
a(lp483
a(lp484
aa(lp485
(lp486
a(lp487
a(lp488
aa(lp489
(lp490
a(lp491
a(lp492
aa(lp493
(lp494
a(lp495
a(lp496
Vhttp://dbpedia.org/resource/X86_virtualization
p497
aaa(lp498
(lp499
a(lp500
a(lp501
aa(lp502
(lp503
a(lp504
a(lp505
aa(lp506
(lp507
a(lp508
a(lp509
aa(lp510
(lp511
a(lp512
a(lp513
aa(lp514
(lp515
a(lp516
a(lp517
aa(lp518
(lp519
a(lp520
a(lp521
aa(lp522
(lp523
a(lp524
a(lp525
aa(lp526
(lp527
a(lp528
a(lp529
aa(lp530
(lp531
a(lp532
a(lp533
aa(lp534
(lp535
a(lp536
a(lp537
aa(lp538
(lp539
a(lp540
a(lp541
aa(lp542
(lp543
a(lp544
a(lp545
aa(lp546
(lp547
a(lp548
a(lp549
aa(lp550
(lp551
a(lp552
a(lp553
aa(lp554
(lp555
a(lp556
a(lp557
aa(lp558
(lp559
a(lp560
a(lp561
aa(lp562
(lp563
a(lp564
a(lp565
aa(lp566
(lp567
a(lp568
a(lp569
Vhttp://dbpedia.org/resource/X86_virtualization
p570
aaa(lp571
(lp572
a(lp573
a(lp574
Vhttp://dbpedia.org/resource/X86_virtualization
p575
aaa(lp576
(lp577
a(lp578
a(lp579
aa(lp580
(lp581
a(lp582
a(lp583
Vhttp://dbpedia.org/resource/X86_virtualization
p584
aaa(lp585
(lp586
a(lp587
a(lp588
aa(lp589
(lp590
a(lp591
a(lp592
aa(lp593
(lp594
a(lp595
a(lp596
aa(lp597
(lp598
a(lp599
a(lp600
aa(lp601
(lp602
a(lp603
a(lp604
aa(lp605
(lp606
a(lp607
a(lp608
aa(lp609
(lp610
a(lp611
a(lp612
aa(lp613
(lp614
a(lp615
a(lp616
aa(lp617
(lp618
a(lp619
a(lp620
aa(lp621
(lp622
a(lp623
a(lp624
aa(lp625
(lp626
a(lp627
a(lp628
aa(lp629
(lp630
a(lp631
a(lp632
aa(lp633
(lp634
a(lp635
a(lp636
aa(lp637
(lp638
a(lp639
a(lp640
aa(lp641
(lp642
a(lp643
a(lp644
aa(lp645
(lp646
a(lp647
a(lp648
aa(lp649
(lp650
a(lp651
a(lp652
aa(lp653
(lp654
a(lp655
a(lp656
aa(lp657
(lp658
a(lp659
a(lp660
aa(lp661
(lp662
a(lp663
a(lp664
aa(lp665
(lp666
a(lp667
a(lp668
aa(lp669
(lp670
a(lp671
a(lp672
Vhttp://dbpedia.org/resource/X86_virtualization
p673
aaa(lp674
(lp675
a(lp676
a(lp677
aa(lp678
(lp679
a(lp680
a(lp681
aa(lp682
(lp683
a(lp684
a(lp685
aa(lp686
(lp687
a(lp688
a(lp689
aa(lp690
(lp691
a(lp692
a(lp693
aa(lp694
(lp695
a(lp696
a(lp697
aa(lp698
(lp699
a(lp700
a(lp701
aa(lp702
(lp703
a(lp704
a(lp705
aa(lp706
(lp707
a(lp708
a(lp709
aa(lp710
(lp711
a(lp712
a(lp713
aa(lp714
(lp715
a(lp716
a(lp717
aa(lp718
(lp719
a(lp720
a(lp721
aa(lp722
(lp723
a(lp724
a(lp725
aa(lp726
(lp727
a(lp728
a(lp729
aa(lp730
(lp731
a(lp732
a(lp733
aa(lp734
(lp735
a(lp736
a(lp737
aa(lp738
(lp739
a(lp740
a(lp741
aa(lp742
(lp743
a(lp744
a(lp745
aa(lp746
(lp747
a(lp748
a(lp749
aa(lp750
(lp751
a(lp752
a(lp753
aa(lp754
(lp755
a(lp756
a(lp757
aa(lp758
(lp759
a(lp760
a(lp761
aa(lp762
(lp763
a(lp764
a(lp765
aa(lp766
(lp767
a(lp768
a(lp769
aa(lp770
(lp771
a(lp772
a(lp773
aa(lp774
(lp775
a(lp776
a(lp777
aa(lp778
(lp779
a(lp780
a(lp781
aa(lp782
(lp783
a(lp784
a(lp785
aa(lp786
(lp787
a(lp788
a(lp789
aa(lp790
(lp791
a(lp792
a(lp793
aa(lp794
(lp795
a(lp796
a(lp797
aa(lp798
(lp799
a(lp800
a(lp801
aa(lp802
(lp803
a(lp804
a(lp805
aa(lp806
(lp807
a(lp808
a(lp809
aa(lp810
(lp811
a(lp812
a(lp813
aa(lp814
(lp815
a(lp816
a(lp817
Vhttp://dbpedia.org/resource/X86_virtualization
p818
aaa(lp819
(lp820
a(lp821
a(lp822
aa(lp823
(lp824
a(lp825
a(lp826
aa(lp827
(lp828
a(lp829
a(lp830
aa(lp831
(lp832
a(lp833
a(lp834
Vhttp://dbpedia.org/resource/X86_virtualization
p835
aaa(lp836
(lp837
a(lp838
a(lp839
aa(lp840
(lp841
a(lp842
a(lp843
aa(lp844
(lp845
a(lp846
a(lp847
aa(lp848
(lp849
a(lp850
a(lp851
Vhttp://dbpedia.org/resource/X86_virtualization
p852
aaa(lp853
(lp854
a(lp855
a(lp856
aa(lp857
(lp858
a(lp859
a(lp860
aa(lp861
(lp862
a(lp863
a(lp864
aa(lp865
(lp866
a(lp867
a(lp868
aa(lp869
(lp870
a(lp871
a(lp872
aa(lp873
(lp874
a(lp875
a(lp876
aa(lp877
(lp878
a(lp879
a(lp880
aa(lp881
(lp882
a(lp883
a(lp884
aa(lp885
(lp886
a(lp887
a(lp888
aa(lp889
(lp890
a(lp891
a(lp892
aa(lp893
(lp894
a(lp895
a(lp896
aa(lp897
(lp898
a(lp899
a(lp900
aa(lp901
(lp902
a(lp903
a(lp904
aa(lp905
(lp906
Vhttp://dbpedia.org/resource/House_Sparrow
p907
aa(lp908
Vhttp://dbpedia.org/resource/House_Sparrow
p909
aa(lp910
aa.