(lp1
(dp2
I0
(dp3
I0
(lp4
sI1
(lp5
sI2
(lp6
ssI1
(dp7
I0
g5
sI1
(lp8
sI2
(lp9
ssI2
(dp10
I0
g6
sI1
g9
sI2
(lp11
ssa(dp12
I0
(dp13
I0
(lp14
sI1
(lp15
sI2
(lp16
ssI1
(dp17
I0
g15
sI1
(lp18
sI2
(lp19
ssI2
(dp20
I0
g16
sI1
g19
sI2
(lp21
ssa(dp22
I0
(dp23
I0
(lp24
sI1
(lp25
sI2
(lp26
ssI1
(dp27
I0
g25
sI1
(lp28
sI2
(lp29
ssI2
(dp30
I0
g26
sI1
g29
sI2
(lp31
ssa(dp32
I0
(dp33
I0
(lp34
sI1
(lp35
sI2
(lp36
ssI1
(dp37
I0
g35
sI1
(lp38
sI2
(lp39
ssI2
(dp40
I0
g36
sI1
g39
sI2
(lp41
ssa(dp42
I0
(dp43
I0
(lp44
sI1
(lp45
sI2
(lp46
ssI1
(dp47
I0
g45
sI1
(lp48
sI2
(lp49
ssI2
(dp50
I0
g46
sI1
g49
sI2
(lp51
ssa(dp52
I0
(dp53
I0
(lp54
sI1
(lp55
sI2
(lp56
ssI1
(dp57
I0
g55
sI1
(lp58
sI2
(lp59
ssI2
(dp60
I0
g56
sI1
g59
sI2
(lp61
ssa(dp62
I0
(dp63
I0
(lp64
sI1
(lp65
sI2
(lp66
ssI1
(dp67
I0
g65
sI1
(lp68
sI2
(lp69
ssI2
(dp70
I0
g66
sI1
g69
sI2
(lp71
ssa(dp72
I0
(dp73
I0
(lp74
sI1
(lp75
sI2
(lp76
ssI1
(dp77
I0
g75
sI1
(lp78
sI2
(lp79
ssI2
(dp80
I0
g76
sI1
g79
sI2
(lp81
ssa(dp82
I0
(dp83
I0
(lp84
sI1
(lp85
sI2
(lp86
ssI1
(dp87
I0
g85
sI1
(lp88
sI2
(lp89
ssI2
(dp90
I0
g86
sI1
g89
sI2
(lp91
ssa(dp92
I0
(dp93
I0
(lp94
sI1
(lp95
sI2
(lp96
ssI1
(dp97
I0
g95
sI1
(lp98
sI2
(lp99
ssI2
(dp100
I0
g96
sI1
g99
sI2
(lp101
ssa(dp102
I0
(dp103
I0
(lp104
sI1
(lp105
sI2
(lp106
ssI1
(dp107
I0
g105
sI1
(lp108
sI2
(lp109
ssI2
(dp110
I0
g106
sI1
g109
sI2
(lp111
ssa(dp112
I0
(dp113
I0
(lp114
sI1
(lp115
sI2
(lp116
ssI1
(dp117
I0
g115
sI1
(lp118
sI2
(lp119
ssI2
(dp120
I0
g116
sI1
g119
sI2
(lp121
ssa(dp122
I0
(dp123
I0
(lp124
sI1
(lp125
sI2
(lp126
ssI1
(dp127
I0
g125
sI1
(lp128
sI2
(lp129
ssI2
(dp130
I0
g126
sI1
g129
sI2
(lp131
ssa(dp132
I0
(dp133
I0
(lp134
sI1
(lp135
sI2
(lp136
ssI1
(dp137
I0
g135
sI1
(lp138
sI2
(lp139
ssI2
(dp140
I0
g136
sI1
g139
sI2
(lp141
ssa(dp142
I0
(dp143
I0
(lp144
sI1
(lp145
sI2
(lp146
ssI1
(dp147
I0
g145
sI1
(lp148
sI2
(lp149
ssI2
(dp150
I0
g146
sI1
g149
sI2
(lp151
ssa(dp152
I0
(dp153
I0
(lp154
sI1
(lp155
sI2
(lp156
ssI1
(dp157
I0
g155
sI1
(lp158
sI2
(lp159
ssI2
(dp160
I0
g156
sI1
g159
sI2
(lp161
ssa(dp162
I0
(dp163
I0
(lp164
sI1
(lp165
sI2
(lp166
ssI1
(dp167
I0
g165
sI1
(lp168
sI2
(lp169
ssI2
(dp170
I0
g166
sI1
g169
sI2
(lp171
ssa(dp172
I0
(dp173
I0
(lp174
sI1
(lp175
sI2
(lp176
ssI1
(dp177
I0
g175
sI1
(lp178
sI2
(lp179
ssI2
(dp180
I0
g176
sI1
g179
sI2
(lp181
ssa(dp182
I0
(dp183
I0
(lp184
sI1
(lp185
sI2
(lp186
ssI1
(dp187
I0
g185
sI1
(lp188
sI2
(lp189
ssI2
(dp190
I0
g186
sI1
g189
sI2
(lp191
ssa(dp192
I0
(dp193
I0
(lp194
sI1
(lp195
sI2
(lp196
ssI1
(dp197
I0
g195
sI1
(lp198
sI2
(lp199
ssI2
(dp200
I0
g196
sI1
g199
sI2
(lp201
ssa(dp202
I0
(dp203
I0
(lp204
sI1
(lp205
sI2
(lp206
ssI1
(dp207
I0
g205
sI1
(lp208
sI2
(lp209
ssI2
(dp210
I0
g206
sI1
g209
sI2
(lp211
ssa(dp212
I0
(dp213
I0
(lp214
sI1
(lp215
sI2
(lp216
ssI1
(dp217
I0
g215
sI1
(lp218
sI2
(lp219
ssI2
(dp220
I0
g216
sI1
g219
sI2
(lp221
ssa(dp222
I0
(dp223
I0
(lp224
sI1
(lp225
sI2
(lp226
ssI1
(dp227
I0
g225
sI1
(lp228
sI2
(lp229
ssI2
(dp230
I0
g226
sI1
g229
sI2
(lp231
ssa(dp232
I0
(dp233
I0
(lp234
sI1
(lp235
sI2
(lp236
ssI1
(dp237
I0
g235
sI1
(lp238
sI2
(lp239
ssI2
(dp240
I0
g236
sI1
g239
sI2
(lp241
ssa(dp242
I0
(dp243
I0
(lp244
sI1
(lp245
sI2
(lp246
ssI1
(dp247
I0
g245
sI1
(lp248
sI2
(lp249
ssI2
(dp250
I0
g246
sI1
g249
sI2
(lp251
ssa(dp252
I0
(dp253
I0
(lp254
sI1
(lp255
sI2
(lp256
ssI1
(dp257
I0
g255
sI1
(lp258
sI2
(lp259
ssI2
(dp260
I0
g256
sI1
g259
sI2
(lp261
ssa(dp262
I0
(dp263
I0
(lp264
sI1
(lp265
sI2
(lp266
ssI1
(dp267
I0
g265
sI1
(lp268
sI2
(lp269
ssI2
(dp270
I0
g266
sI1
g269
sI2
(lp271
ssa(dp272
I0
(dp273
I0
(lp274
sI1
(lp275
sI2
(lp276
ssI1
(dp277
I0
g275
sI1
(lp278
sI2
(lp279
ssI2
(dp280
I0
g276
sI1
g279
sI2
(lp281
ssa(dp282
I0
(dp283
I0
(lp284
sI1
(lp285
sI2
(lp286
ssI1
(dp287
I0
g285
sI1
(lp288
sI2
(lp289
ssI2
(dp290
I0
g286
sI1
g289
sI2
(lp291
ssa(dp292
I0
(dp293
I0
(lp294
sI1
(lp295
Vhttp://dbpedia.org/ontology/wikiPageExternalLink
p296
aVhttp://xmlns.com/foaf/0.1/primaryTopic
p297
aVhttp://www.w3.org/2000/01/rdf-schema#comment
p298
aVhttp://dbpedia.org/ontology/soundRecording
p299
aVhttp://www.w3.org/2000/01/rdf-schema#label
p300
aVhttp://dbpedia.org/ontology/abstract
p301
aVhttp://dbpedia.org/ontology/wikiPageRedirects
p302
aVhttp://dbpedia.org/property/name
p303
aVhttp://xmlns.com/foaf/0.1/isPrimaryTopicOf
p304
aVhttp://www.w3.org/ns/prov#wasDerivedFrom
p305
aVhttp://dbpedia.org/property/hasPhotoCollection
p306
aVhttp://dbpedia.org/property/filename
p307
aVhttp://dbpedia.org/ontology/wikiPageDisambiguates
p308
aVhttp://www.w3.org/2002/07/owl#sameAs
p309
aVhttp://dbpedia.org/property/title
p310
asI2
(lp311
ssI1
(dp312
I0
g295
sI1
(lp313
sI2
(lp314
Vhttp://dbpedia.org/ontology/soundRecording
p315
aVhttp://dbpedia.org/property/synonyms
p316
aVhttp://dbpedia.org/ontology/knownFor
p317
aVhttp://www.w3.org/2002/07/owl#differentFrom
p318
aVhttp://www.w3.org/1999/02/22-rdf-syntax-ns#type
p319
aVhttp://dbpedia.org/property/subdivision
p320
aVhttp://dbpedia.org/ontology/wikiPageDisambiguates
p321
aVhttp://dbpedia.org/ontology/species
p322
aVhttp://dbpedia.org/ontology/wikiPageExternalLink
p323
aVhttp://purl.org/dc/terms/subject
p324
aVhttp://dbpedia.org/ontology/abstract
p325
aVhttp://xmlns.com/foaf/0.1/depiction
p326
aVhttp://dbpedia.org/property/filename
p327
aVhttp://dbpedia.org/ontology/thumbnail
p328
aVhttp://dbpedia.org/property/hasPhotoCollection
p329
aVhttp://dbpedia.org/property/rangeMap
p330
aVhttp://www.w3.org/2000/01/rdf-schema#label
p331
aVhttp://dbpedia.org/property/title
p332
aVhttp://dbpedia.org/property/status
p333
aVhttp://dbpedia.org/property/statusSystem
p334
aVhttp://www.w3.org/2000/01/rdf-schema#comment
p335
aVhttp://dbpedia.org/property/subdivisionRanks
p336
aVhttp://dbpedia.org/ontology/wikiPageRedirects
p337
aVhttp://dbpedia.org/property/species
p338
aVhttp://www.w3.org/2002/07/owl#sameAs
p339
assI2
(dp340
I0
g311
sI1
g314
sI2
(lp341
ssa(dp342
I0
(dp343
I0
(lp344
sI1
(lp345
sI2
(lp346
ssI1
(dp347
I0
g345
sI1
(lp348
sI2
(lp349
ssI2
(dp350
I0
g346
sI1
g349
sI2
(lp351
ssa(dp352
I0
(dp353
I0
(lp354
sI1
(lp355
sI2
(lp356
ssI1
(dp357
I0
g355
sI1
(lp358
sI2
(lp359
ssI2
(dp360
I0
g356
sI1
g359
sI2
(lp361
ssa(dp362
I0
(dp363
I0
(lp364
sI1
(lp365
sI2
(lp366
ssI1
(dp367
I0
g365
sI1
(lp368
sI2
(lp369
ssI2
(dp370
I0
g366
sI1
g369
sI2
(lp371
ssa(dp372
I0
(dp373
I0
(lp374
sI1
(lp375
sI2
(lp376
ssI1
(dp377
I0
g375
sI1
(lp378
sI2
(lp379
ssI2
(dp380
I0
g376
sI1
g379
sI2
(lp381
ssa(dp382
I0
(dp383
I0
(lp384
sI1
(lp385
sI2
(lp386
ssI1
(dp387
I0
g385
sI1
(lp388
sI2
(lp389
ssI2
(dp390
I0
g386
sI1
g389
sI2
(lp391
ssa(dp392
I0
(dp393
I0
(lp394
sI1
(lp395
sI2
(lp396
ssI1
(dp397
I0
g395
sI1
(lp398
sI2
(lp399
ssI2
(dp400
I0
g396
sI1
g399
sI2
(lp401
ssa(dp402
I0
(dp403
I0
(lp404
sI1
(lp405
sI2
(lp406
ssI1
(dp407
I0
g405
sI1
(lp408
sI2
(lp409
ssI2
(dp410
I0
g406
sI1
g409
sI2
(lp411
ssa(dp412
I0
(dp413
I0
(lp414
sI1
(lp415
sI2
(lp416
ssI1
(dp417
I0
g415
sI1
(lp418
sI2
(lp419
ssI2
(dp420
I0
g416
sI1
g419
sI2
(lp421
ssa(dp422
I0
(dp423
I0
(lp424
sI1
(lp425
sI2
(lp426
ssI1
(dp427
I0
g425
sI1
(lp428
sI2
(lp429
ssI2
(dp430
I0
g426
sI1
g429
sI2
(lp431
ssa(dp432
I0
(dp433
I0
(lp434
sI1
(lp435
sI2
(lp436
ssI1
(dp437
I0
g435
sI1
(lp438
sI2
(lp439
ssI2
(dp440
I0
g436
sI1
g439
sI2
(lp441
ssa(dp442
I0
(dp443
I0
(lp444
sI1
(lp445
sI2
(lp446
ssI1
(dp447
I0
g445
sI1
(lp448
sI2
(lp449
ssI2
(dp450
I0
g446
sI1
g449
sI2
(lp451
ssa(dp452
I0
(dp453
I0
(lp454
sI1
(lp455
sI2
(lp456
ssI1
(dp457
I0
g455
sI1
(lp458
sI2
(lp459
ssI2
(dp460
I0
g456
sI1
g459
sI2
(lp461
ssa(dp462
I0
(dp463
I0
(lp464
sI1
(lp465
sI2
(lp466
ssI1
(dp467
I0
g465
sI1
(lp468
sI2
(lp469
ssI2
(dp470
I0
g466
sI1
g469
sI2
(lp471
ssa(dp472
I0
(dp473
I0
(lp474
sI1
(lp475
sI2
(lp476
ssI1
(dp477
I0
g475
sI1
(lp478
sI2
(lp479
ssI2
(dp480
I0
g476
sI1
g479
sI2
(lp481
ssa(dp482
I0
(dp483
I0
(lp484
sI1
(lp485
sI2
(lp486
ssI1
(dp487
I0
g485
sI1
(lp488
sI2
(lp489
ssI2
(dp490
I0
g486
sI1
g489
sI2
(lp491
ssa(dp492
I0
(dp493
I0
(lp494
sI1
(lp495
sI2
(lp496
ssI1
(dp497
I0
g495
sI1
(lp498
sI2
(lp499
ssI2
(dp500
I0
g496
sI1
g499
sI2
(lp501
ssa(dp502
I0
(dp503
I0
(lp504
sI1
(lp505
Vhttp://dbpedia.org/property/rangeMapCaption
p506
aVhttp://dbpedia.org/property/description
p507
aVhttp://www.w3.org/2000/01/rdf-schema#comment
p508
aVhttp://dbpedia.org/ontology/abstract
p509
aVhttp://dbpedia.org/property/imageCaption
p510
aVhttp://dbpedia.org/property/name
p511
aVhttp://dbpedia.org/property/subdivision
p512
aVhttp://www.w3.org/2000/01/rdf-schema#label
p513
aVhttp://dbpedia.org/property/title
p514
asI2
(lp515
ssI1
(dp516
I0
g505
sI1
(lp517
sI2
(lp518
Vhttp://dbpedia.org/property/rangeMapCaption
p519
aVhttp://dbpedia.org/property/description
p520
aVhttp://dbpedia.org/property/mascot
p521
aVhttp://dbpedia.org/ontology/soundRecording
p522
aVhttp://dbpedia.org/property/imageCaption
p523
aVhttp://dbpedia.org/property/emblem
p524
aVhttp://www.w3.org/ns/prov#wasDerivedFrom
p525
aVhttp://dbpedia.org/property/animal
p526
aVhttp://www.w3.org/1999/02/22-rdf-syntax-ns#type
p527
aVhttp://dbpedia.org/property/subdivision
p528
aVhttp://dbpedia.org/ontology/animal
p529
aVhttp://dbpedia.org/property/alternatemodes
p530
aVhttp://xmlns.com/foaf/0.1/isPrimaryTopicOf
p531
aVhttp://dbpedia.org/ontology/wikiPageDisambiguates
p532
aVhttp://dbpedia.org/ontology/abstract
p533
aVhttp://dbpedia.org/ontology/wikiPageExternalLink
p534
aVhttp://xmlns.com/foaf/0.1/primaryTopic
p535
aVhttp://purl.org/dc/terms/subject
p536
aVhttp://dbpedia.org/property/symbol
p537
aVhttp://xmlns.com/foaf/0.1/depiction
p538
aVhttp://dbpedia.org/property/reverseDesign
p539
aVhttp://dbpedia.org/property/teamName
p540
aVhttp://dbpedia.org/property/filename
p541
aVhttp://dbpedia.org/property/habitat
p542
aVhttp://dbpedia.org/property/crest
p543
aVhttp://dbpedia.org/property/rangeMap
p544
aVhttp://www.w3.org/2000/01/rdf-schema#label
p545
aVhttp://www.w3.org/2000/01/rdf-schema#comment
p546
aVhttp://dbpedia.org/property/subdivisionRanks
p547
aVhttp://dbpedia.org/ontology/wikiPageRedirects
p548
aVhttp://dbpedia.org/property/aux
p549
aVhttp://www.w3.org/2002/07/owl#sameAs
p550
aVhttp://dbpedia.org/ontology/thumbnail
p551
assI2
(dp552
I0
g515
sI1
g518
sI2
(lp553
ssa(dp554
I0
(dp555
I0
(lp556
sI1
(lp557
sI2
(lp558
ssI1
(dp559
I0
g557
sI1
(lp560
sI2
(lp561
ssI2
(dp562
I0
g558
sI1
g561
sI2
(lp563
ssa(dp564
I0
(dp565
I0
(lp566
sI1
(lp567
sI2
(lp568
ssI1
(dp569
I0
g567
sI1
(lp570
sI2
(lp571
ssI2
(dp572
I0
g568
sI1
g571
sI2
(lp573
ssa(dp574
I0
(dp575
I0
(lp576
sI1
(lp577
sI2
(lp578
ssI1
(dp579
I0
g577
sI1
(lp580
sI2
(lp581
ssI2
(dp582
I0
g578
sI1
g581
sI2
(lp583
ssa(dp584
I0
(dp585
I0
(lp586
sI1
(lp587
sI2
(lp588
ssI1
(dp589
I0
g587
sI1
(lp590
sI2
(lp591
ssI2
(dp592
I0
g588
sI1
g591
sI2
(lp593
ssa(dp594
I0
(dp595
I0
(lp596
sI1
(lp597
sI2
(lp598
ssI1
(dp599
I0
g597
sI1
(lp600
sI2
(lp601
ssI2
(dp602
I0
g598
sI1
g601
sI2
(lp603
ssa(dp604
I0
(dp605
I0
(lp606
sI1
(lp607
sI2
(lp608
ssI1
(dp609
I0
g607
sI1
(lp610
sI2
(lp611
ssI2
(dp612
I0
g608
sI1
g611
sI2
(lp613
ssa(dp614
I0
(dp615
I0
(lp616
sI1
(lp617
sI2
(lp618
ssI1
(dp619
I0
g617
sI1
(lp620
sI2
(lp621
ssI2
(dp622
I0
g618
sI1
g621
sI2
(lp623
ssa(dp624
I0
(dp625
I0
(lp626
sI1
(lp627
sI2
(lp628
ssI1
(dp629
I0
g627
sI1
(lp630
sI2
(lp631
ssI2
(dp632
I0
g628
sI1
g631
sI2
(lp633
ssa(dp634
I0
(dp635
I0
(lp636
sI1
(lp637
sI2
(lp638
ssI1
(dp639
I0
g637
sI1
(lp640
sI2
(lp641
ssI2
(dp642
I0
g638
sI1
g641
sI2
(lp643
ssa(dp644
I0
(dp645
I0
(lp646
sI1
(lp647
sI2
(lp648
ssI1
(dp649
I0
g647
sI1
(lp650
sI2
(lp651
ssI2
(dp652
I0
g648
sI1
g651
sI2
(lp653
ssa(dp654
I0
(dp655
I0
(lp656
sI1
(lp657
sI2
(lp658
ssI1
(dp659
I0
g657
sI1
(lp660
sI2
(lp661
ssI2
(dp662
I0
g658
sI1
g661
sI2
(lp663
ssa(dp664
I0
(dp665
I0
(lp666
sI1
(lp667
sI2
(lp668
ssI1
(dp669
I0
g667
sI1
(lp670
sI2
(lp671
ssI2
(dp672
I0
g668
sI1
g671
sI2
(lp673
ssa(dp674
I0
(dp675
I0
(lp676
sI1
(lp677
sI2
(lp678
ssI1
(dp679
I0
g677
sI1
(lp680
sI2
(lp681
ssI2
(dp682
I0
g678
sI1
g681
sI2
(lp683
ssa(dp684
I0
(dp685
I0
(lp686
sI1
(lp687
sI2
(lp688
ssI1
(dp689
I0
g687
sI1
(lp690
sI2
(lp691
ssI2
(dp692
I0
g688
sI1
g691
sI2
(lp693
ssa(dp694
I0
(dp695
I0
(lp696
sI1
(lp697
sI2
(lp698
ssI1
(dp699
I0
g697
sI1
(lp700
sI2
(lp701
ssI2
(dp702
I0
g698
sI1
g701
sI2
(lp703
ssa(dp704
I0
(dp705
I0
(lp706
sI1
(lp707
sI2
(lp708
ssI1
(dp709
I0
g707
sI1
(lp710
sI2
(lp711
ssI2
(dp712
I0
g708
sI1
g711
sI2
(lp713
ssa(dp714
I0
(dp715
I0
(lp716
sI1
(lp717
sI2
(lp718
ssI1
(dp719
I0
g717
sI1
(lp720
sI2
(lp721
ssI2
(dp722
I0
g718
sI1
g721
sI2
(lp723
ssa(dp724
I0
(dp725
I0
(lp726
sI1
(lp727
sI2
(lp728
ssI1
(dp729
I0
g727
sI1
(lp730
sI2
(lp731
ssI2
(dp732
I0
g728
sI1
g731
sI2
(lp733
ssa(dp734
I0
(dp735
I0
(lp736
sI1
(lp737
sI2
(lp738
ssI1
(dp739
I0
g737
sI1
(lp740
sI2
(lp741
ssI2
(dp742
I0
g738
sI1
g741
sI2
(lp743
ssa(dp744
I0
(dp745
I0
(lp746
sI1
(lp747
sI2
(lp748
ssI1
(dp749
I0
g747
sI1
(lp750
sI2
(lp751
ssI2
(dp752
I0
g748
sI1
g751
sI2
(lp753
ssa(dp754
I0
(dp755
I0
(lp756
sI1
(lp757
sI2
(lp758
ssI1
(dp759
I0
g757
sI1
(lp760
sI2
(lp761
ssI2
(dp762
I0
g758
sI1
g761
sI2
(lp763
ssa(dp764
I0
(dp765
I0
(lp766
sI1
(lp767
sI2
(lp768
ssI1
(dp769
I0
g767
sI1
(lp770
sI2
(lp771
ssI2
(dp772
I0
g768
sI1
g771
sI2
(lp773
ssa(dp774
I0
(dp775
I0
(lp776
sI1
(lp777
sI2
(lp778
ssI1
(dp779
I0
g777
sI1
(lp780
sI2
(lp781
ssI2
(dp782
I0
g778
sI1
g781
sI2
(lp783
ssa(dp784
I0
(dp785
I0
(lp786
sI1
(lp787
sI2
(lp788
ssI1
(dp789
I0
g787
sI1
(lp790
sI2
(lp791
ssI2
(dp792
I0
g788
sI1
g791
sI2
(lp793
ssa(dp794
I0
(dp795
I0
(lp796
sI1
(lp797
sI2
(lp798
ssI1
(dp799
I0
g797
sI1
(lp800
sI2
(lp801
ssI2
(dp802
I0
g798
sI1
g801
sI2
(lp803
ssa(dp804
I0
(dp805
I0
(lp806
sI1
(lp807
sI2
(lp808
ssI1
(dp809
I0
g807
sI1
(lp810
sI2
(lp811
ssI2
(dp812
I0
g808
sI1
g811
sI2
(lp813
ssa(dp814
I0
(dp815
I0
(lp816
sI1
(lp817
sI2
(lp818
ssI1
(dp819
I0
g817
sI1
(lp820
sI2
(lp821
ssI2
(dp822
I0
g818
sI1
g821
sI2
(lp823
ssa(dp824
I0
(dp825
I0
(lp826
sI1
(lp827
sI2
(lp828
ssI1
(dp829
I0
g827
sI1
(lp830
sI2
(lp831
ssI2
(dp832
I0
g828
sI1
g831
sI2
(lp833
ssa(dp834
I0
(dp835
I0
(lp836
sI1
(lp837
sI2
(lp838
ssI1
(dp839
I0
g837
sI1
(lp840
sI2
(lp841
ssI2
(dp842
I0
g838
sI1
g841
sI2
(lp843
ssa(dp844
I0
(dp845
I0
(lp846
sI1
(lp847
sI2
(lp848
ssI1
(dp849
I0
g847
sI1
(lp850
sI2
(lp851
ssI2
(dp852
I0
g848
sI1
g851
sI2
(lp853
ssa(dp854
I0
(dp855
I0
(lp856
sI1
(lp857
sI2
(lp858
ssI1
(dp859
I0
g857
sI1
(lp860
sI2
(lp861
ssI2
(dp862
I0
g858
sI1
g861
sI2
(lp863
ssa(dp864
I0
(dp865
I0
(lp866
sI1
(lp867
sI2
(lp868
ssI1
(dp869
I0
g867
sI1
(lp870
sI2
(lp871
ssI2
(dp872
I0
g868
sI1
g871
sI2
(lp873
ssa(dp874
I0
(dp875
I0
(lp876
sI1
(lp877
sI2
(lp878
ssI1
(dp879
I0
g877
sI1
(lp880
sI2
(lp881
ssI2
(dp882
I0
g878
sI1
g881
sI2
(lp883
ssa(dp884
I0
(dp885
I0
(lp886
sI1
(lp887
sI2
(lp888
ssI1
(dp889
I0
g887
sI1
(lp890
sI2
(lp891
ssI2
(dp892
I0
g888
sI1
g891
sI2
(lp893
ssa(dp894
I0
(dp895
I0
(lp896
sI1
(lp897
sI2
(lp898
ssI1
(dp899
I0
g897
sI1
(lp900
sI2
(lp901
ssI2
(dp902
I0
g898
sI1
g901
sI2
(lp903
ssa(dp904
I0
(dp905
I0
(lp906
sI1
(lp907
sI2
(lp908
ssI1
(dp909
I0
g907
sI1
(lp910
sI2
(lp911
ssI2
(dp912
I0
g908
sI1
g911
sI2
(lp913
ssa(dp914
I0
(dp915
I0
(lp916
sI1
(lp917
sI2
(lp918
ssI1
(dp919
I0
g917
sI1
(lp920
sI2
(lp921
ssI2
(dp922
I0
g918
sI1
g921
sI2
(lp923
ssa(dp924
I0
(dp925
I0
(lp926
sI1
(lp927
sI2
(lp928
ssI1
(dp929
I0
g927
sI1
(lp930
sI2
(lp931
ssI2
(dp932
I0
g928
sI1
g931
sI2
(lp933
ssa(dp934
I0
(dp935
I0
(lp936
sI1
(lp937
sI2
(lp938
ssI1
(dp939
I0
g937
sI1
(lp940
sI2
(lp941
ssI2
(dp942
I0
g938
sI1
g941
sI2
(lp943
ssa(dp944
I0
(dp945
I0
(lp946
sI1
(lp947
sI2
(lp948
ssI1
(dp949
I0
g947
sI1
(lp950
sI2
(lp951
ssI2
(dp952
I0
g948
sI1
g951
sI2
(lp953
ssa(dp954
I0
(dp955
I0
(lp956
sI1
(lp957
sI2
(lp958
ssI1
(dp959
I0
g957
sI1
(lp960
sI2
(lp961
ssI2
(dp962
I0
g958
sI1
g961
sI2
(lp963
ssa(dp964
I0
(dp965
I0
(lp966
sI1
(lp967
sI2
(lp968
ssI1
(dp969
I0
g967
sI1
(lp970
sI2
(lp971
ssI2
(dp972
I0
g968
sI1
g971
sI2
(lp973
ssa(dp974
I0
(dp975
I0
(lp976
sI1
(lp977
sI2
(lp978
ssI1
(dp979
I0
g977
sI1
(lp980
sI2
(lp981
ssI2
(dp982
I0
g978
sI1
g981
sI2
(lp983
ssa(dp984
I0
(dp985
I0
(lp986
sI1
(lp987
sI2
(lp988
ssI1
(dp989
I0
g987
sI1
(lp990
sI2
(lp991
ssI2
(dp992
I0
g988
sI1
g991
sI2
(lp993
ssa(dp994
I0
(dp995
I0
(lp996
sI1
(lp997
sI2
(lp998
ssI1
(dp999
I0
g997
sI1
(lp1000
sI2
(lp1001
ssI2
(dp1002
I0
g998
sI1
g1001
sI2
(lp1003
ssa(dp1004
I0
(dp1005
I0
(lp1006
sI1
(lp1007
sI2
(lp1008
ssI1
(dp1009
I0
g1007
sI1
(lp1010
sI2
(lp1011
ssI2
(dp1012
I0
g1008
sI1
g1011
sI2
(lp1013
ssa(dp1014
I0
(dp1015
I0
(lp1016
sI1
(lp1017
sI2
(lp1018
ssI1
(dp1019
I0
g1017
sI1
(lp1020
sI2
(lp1021
ssI2
(dp1022
I0
g1018
sI1
g1021
sI2
(lp1023
ssa(dp1024
I0
(dp1025
I0
(lp1026
sI1
(lp1027
sI2
(lp1028
ssI1
(dp1029
I0
g1027
sI1
(lp1030
sI2
(lp1031
ssI2
(dp1032
I0
g1028
sI1
g1031
sI2
(lp1033
ssa(dp1034
I0
(dp1035
I0
(lp1036
sI1
(lp1037
sI2
(lp1038
ssI1
(dp1039
I0
g1037
sI1
(lp1040
sI2
(lp1041
ssI2
(dp1042
I0
g1038
sI1
g1041
sI2
(lp1043
ssa(dp1044
I0
(dp1045
I0
(lp1046
sI1
(lp1047
sI2
(lp1048
ssI1
(dp1049
I0
g1047
sI1
(lp1050
sI2
(lp1051
ssI2
(dp1052
I0
g1048
sI1
g1051
sI2
(lp1053
ssa(dp1054
I0
(dp1055
I0
(lp1056
sI1
(lp1057
sI2
(lp1058
ssI1
(dp1059
I0
g1057
sI1
(lp1060
sI2
(lp1061
ssI2
(dp1062
I0
g1058
sI1
g1061
sI2
(lp1063
ssa(dp1064
I0
(dp1065
I0
(lp1066
sI1
(lp1067
sI2
(lp1068
ssI1
(dp1069
I0
g1067
sI1
(lp1070
sI2
(lp1071
ssI2
(dp1072
I0
g1068
sI1
g1071
sI2
(lp1073
ssa(dp1074
I0
(dp1075
I0
(lp1076
sI1
(lp1077
sI2
(lp1078
ssI1
(dp1079
I0
g1077
sI1
(lp1080
sI2
(lp1081
ssI2
(dp1082
I0
g1078
sI1
g1081
sI2
(lp1083
ssa(dp1084
I0
(dp1085
I0
(lp1086
sI1
(lp1087
sI2
(lp1088
ssI1
(dp1089
I0
g1087
sI1
(lp1090
sI2
(lp1091
ssI2
(dp1092
I0
g1088
sI1
g1091
sI2
(lp1093
ssa(dp1094
I0
(dp1095
I0
(lp1096
sI1
(lp1097
sI2
(lp1098
ssI1
(dp1099
I0
g1097
sI1
(lp1100
sI2
(lp1101
ssI2
(dp1102
I0
g1098
sI1
g1101
sI2
(lp1103
ssa(dp1104
I0
(dp1105
I0
(lp1106
sI1
(lp1107
sI2
(lp1108
ssI1
(dp1109
I0
g1107
sI1
(lp1110
sI2
(lp1111
ssI2
(dp1112
I0
g1108
sI1
g1111
sI2
(lp1113
ssa(dp1114
I0
(dp1115
I0
(lp1116
sI1
(lp1117
sI2
(lp1118
ssI1
(dp1119
I0
g1117
sI1
(lp1120
sI2
(lp1121
ssI2
(dp1122
I0
g1118
sI1
g1121
sI2
(lp1123
ssa(dp1124
I0
(dp1125
I0
(lp1126
sI1
(lp1127
sI2
(lp1128
ssI1
(dp1129
I0
g1127
sI1
(lp1130
sI2
(lp1131
ssI2
(dp1132
I0
g1128
sI1
g1131
sI2
(lp1133
ssa(dp1134
I0
(dp1135
I0
(lp1136
sI1
(lp1137
sI2
(lp1138
ssI1
(dp1139
I0
g1137
sI1
(lp1140
sI2
(lp1141
ssI2
(dp1142
I0
g1138
sI1
g1141
sI2
(lp1143
ssa(dp1144
I0
(dp1145
I0
(lp1146
sI1
(lp1147
sI2
(lp1148
ssI1
(dp1149
I0
g1147
sI1
(lp1150
sI2
(lp1151
ssI2
(dp1152
I0
g1148
sI1
g1151
sI2
(lp1153
ssa(dp1154
I0
(dp1155
I0
(lp1156
sI1
(lp1157
sI2
(lp1158
ssI1
(dp1159
I0
g1157
sI1
(lp1160
sI2
(lp1161
ssI2
(dp1162
I0
g1158
sI1
g1161
sI2
(lp1163
ssa(dp1164
I0
(dp1165
I0
(lp1166
sI1
(lp1167
sI2
(lp1168
ssI1
(dp1169
I0
g1167
sI1
(lp1170
sI2
(lp1171
ssI2
(dp1172
I0
g1168
sI1
g1171
sI2
(lp1173
ssa(dp1174
I0
(dp1175
I0
(lp1176
sI1
(lp1177
sI2
(lp1178
ssI1
(dp1179
I0
g1177
sI1
(lp1180
sI2
(lp1181
ssI2
(dp1182
I0
g1178
sI1
g1181
sI2
(lp1183
ssa(dp1184
I0
(dp1185
I0
(lp1186
sI1
(lp1187
sI2
(lp1188
ssI1
(dp1189
I0
g1187
sI1
(lp1190
sI2
(lp1191
ssI2
(dp1192
I0
g1188
sI1
g1191
sI2
(lp1193
ssa(dp1194
I0
(dp1195
I0
(lp1196
sI1
(lp1197
sI2
(lp1198
ssI1
(dp1199
I0
g1197
sI1
(lp1200
sI2
(lp1201
ssI2
(dp1202
I0
g1198
sI1
g1201
sI2
(lp1203
ssa(dp1204
I0
(dp1205
I0
(lp1206
sI1
(lp1207
sI2
(lp1208
ssI1
(dp1209
I0
g1207
sI1
(lp1210
sI2
(lp1211
ssI2
(dp1212
I0
g1208
sI1
g1211
sI2
(lp1213
ssa(dp1214
I0
(dp1215
I0
(lp1216
sI1
(lp1217
sI2
(lp1218
ssI1
(dp1219
I0
g1217
sI1
(lp1220
sI2
(lp1221
ssI2
(dp1222
I0
g1218
sI1
g1221
sI2
(lp1223
ssa(dp1224
I0
(dp1225
I0
(lp1226
sI1
(lp1227
sI2
(lp1228
ssI1
(dp1229
I0
g1227
sI1
(lp1230
sI2
(lp1231
ssI2
(dp1232
I0
g1228
sI1
g1231
sI2
(lp1233
ssa(dp1234
I0
(dp1235
I0
(lp1236
sI1
(lp1237
sI2
(lp1238
ssI1
(dp1239
I0
g1237
sI1
(lp1240
sI2
(lp1241
ssI2
(dp1242
I0
g1238
sI1
g1241
sI2
(lp1243
ssa(dp1244
I0
(dp1245
I0
(lp1246
sI1
(lp1247
sI2
(lp1248
ssI1
(dp1249
I0
g1247
sI1
(lp1250
sI2
(lp1251
ssI2
(dp1252
I0
g1248
sI1
g1251
sI2
(lp1253
ssa(dp1254
I0
(dp1255
I0
(lp1256
sI1
(lp1257
sI2
(lp1258
ssI1
(dp1259
I0
g1257
sI1
(lp1260
sI2
(lp1261
ssI2
(dp1262
I0
g1258
sI1
g1261
sI2
(lp1263
ssa(dp1264
I0
(dp1265
I0
(lp1266
sI1
(lp1267
sI2
(lp1268
ssI1
(dp1269
I0
g1267
sI1
(lp1270
sI2
(lp1271
ssI2
(dp1272
I0
g1268
sI1
g1271
sI2
(lp1273
ssa(dp1274
I0
(dp1275
I0
(lp1276
sI1
(lp1277
sI2
(lp1278
ssI1
(dp1279
I0
g1277
sI1
(lp1280
sI2
(lp1281
ssI2
(dp1282
I0
g1278
sI1
g1281
sI2
(lp1283
ssa(dp1284
I0
(dp1285
I0
(lp1286
sI1
(lp1287
sI2
(lp1288
ssI1
(dp1289
I0
g1287
sI1
(lp1290
sI2
(lp1291
ssI2
(dp1292
I0
g1288
sI1
g1291
sI2
(lp1293
ssa(dp1294
I0
(dp1295
I0
(lp1296
sI1
(lp1297
sI2
(lp1298
ssI1
(dp1299
I0
g1297
sI1
(lp1300
sI2
(lp1301
ssI2
(dp1302
I0
g1298
sI1
g1301
sI2
(lp1303
ssa(dp1304
I0
(dp1305
I0
(lp1306
sI1
(lp1307
sI2
(lp1308
ssI1
(dp1309
I0
g1307
sI1
(lp1310
sI2
(lp1311
ssI2
(dp1312
I0
g1308
sI1
g1311
sI2
(lp1313
ssa(dp1314
I0
(dp1315
I0
(lp1316
sI1
(lp1317
sI2
(lp1318
ssI1
(dp1319
I0
g1317
sI1
(lp1320
sI2
(lp1321
ssI2
(dp1322
I0
g1318
sI1
g1321
sI2
(lp1323
ssa(dp1324
I0
(dp1325
I0
(lp1326
sI1
(lp1327
sI2
(lp1328
ssI1
(dp1329
I0
g1327
sI1
(lp1330
sI2
(lp1331
ssI2
(dp1332
I0
g1328
sI1
g1331
sI2
(lp1333
ssa(dp1334
I0
(dp1335
I0
(lp1336
sI1
(lp1337
sI2
(lp1338
ssI1
(dp1339
I0
g1337
sI1
(lp1340
sI2
(lp1341
ssI2
(dp1342
I0
g1338
sI1
g1341
sI2
(lp1343
ssa(dp1344
I0
(dp1345
I0
(lp1346
sI1
(lp1347
sI2
(lp1348
ssI1
(dp1349
I0
g1347
sI1
(lp1350
sI2
(lp1351
ssI2
(dp1352
I0
g1348
sI1
g1351
sI2
(lp1353
ssa(dp1354
I0
(dp1355
I0
(lp1356
sI1
(lp1357
sI2
(lp1358
ssI1
(dp1359
I0
g1357
sI1
(lp1360
sI2
(lp1361
ssI2
(dp1362
I0
g1358
sI1
g1361
sI2
(lp1363
ssa(dp1364
I0
(dp1365
I0
(lp1366
sI1
(lp1367
sI2
(lp1368
ssI1
(dp1369
I0
g1367
sI1
(lp1370
sI2
(lp1371
ssI2
(dp1372
I0
g1368
sI1
g1371
sI2
(lp1373
ssa(dp1374
I0
(dp1375
I0
(lp1376
sI1
(lp1377
sI2
(lp1378
ssI1
(dp1379
I0
g1377
sI1
(lp1380
sI2
(lp1381
ssI2
(dp1382
I0
g1378
sI1
g1381
sI2
(lp1383
ssa(dp1384
I0
(dp1385
I0
(lp1386
sI1
(lp1387
sI2
(lp1388
ssI1
(dp1389
I0
g1387
sI1
(lp1390
sI2
(lp1391
ssI2
(dp1392
I0
g1388
sI1
g1391
sI2
(lp1393
ssa(dp1394
I0
(dp1395
I0
(lp1396
sI1
(lp1397
sI2
(lp1398
ssI1
(dp1399
I0
g1397
sI1
(lp1400
sI2
(lp1401
ssI2
(dp1402
I0
g1398
sI1
g1401
sI2
(lp1403
ssa(dp1404
I0
(dp1405
I0
(lp1406
sI1
(lp1407
sI2
(lp1408
ssI1
(dp1409
I0
g1407
sI1
(lp1410
sI2
(lp1411
ssI2
(dp1412
I0
g1408
sI1
g1411
sI2
(lp1413
ssa(dp1414
I0
(dp1415
I0
(lp1416
sI1
(lp1417
sI2
(lp1418
ssI1
(dp1419
I0
g1417
sI1
(lp1420
sI2
(lp1421
ssI2
(dp1422
I0
g1418
sI1
g1421
sI2
(lp1423
ssa(dp1424
I0
(dp1425
I0
(lp1426
sI1
(lp1427
sI2
(lp1428
ssI1
(dp1429
I0
g1427
sI1
(lp1430
sI2
(lp1431
ssI2
(dp1432
I0
g1428
sI1
g1431
sI2
(lp1433
ssa(dp1434
I0
(dp1435
I0
(lp1436
sI1
(lp1437
sI2
(lp1438
ssI1
(dp1439
I0
g1437
sI1
(lp1440
sI2
(lp1441
ssI2
(dp1442
I0
g1438
sI1
g1441
sI2
(lp1443
ssa(dp1444
I0
(dp1445
I0
(lp1446
sI1
(lp1447
sI2
(lp1448
ssI1
(dp1449
I0
g1447
sI1
(lp1450
sI2
(lp1451
ssI2
(dp1452
I0
g1448
sI1
g1451
sI2
(lp1453
ssa(dp1454
I0
(dp1455
I0
(lp1456
sI1
(lp1457
sI2
(lp1458
ssI1
(dp1459
I0
g1457
sI1
(lp1460
sI2
(lp1461
ssI2
(dp1462
I0
g1458
sI1
g1461
sI2
(lp1463
ssa(dp1464
I0
(dp1465
I0
(lp1466
sI1
(lp1467
sI2
(lp1468
ssI1
(dp1469
I0
g1467
sI1
(lp1470
sI2
(lp1471
ssI2
(dp1472
I0
g1468
sI1
g1471
sI2
(lp1473
ssa(dp1474
I0
(dp1475
I0
(lp1476
sI1
(lp1477
sI2
(lp1478
ssI1
(dp1479
I0
g1477
sI1
(lp1480
sI2
(lp1481
ssI2
(dp1482
I0
g1478
sI1
g1481
sI2
(lp1483
ssa(dp1484
I0
(dp1485
I0
(lp1486
sI1
(lp1487
sI2
(lp1488
ssI1
(dp1489
I0
g1487
sI1
(lp1490
sI2
(lp1491
ssI2
(dp1492
I0
g1488
sI1
g1491
sI2
(lp1493
ssa(dp1494
I0
(dp1495
I0
(lp1496
sI1
(lp1497
sI2
(lp1498
ssI1
(dp1499
I0
g1497
sI1
(lp1500
sI2
(lp1501
ssI2
(dp1502
I0
g1498
sI1
g1501
sI2
(lp1503
ssa(dp1504
I0
(dp1505
I0
(lp1506
sI1
(lp1507
sI2
(lp1508
ssI1
(dp1509
I0
g1507
sI1
(lp1510
sI2
(lp1511
ssI2
(dp1512
I0
g1508
sI1
g1511
sI2
(lp1513
ssa(dp1514
I0
(dp1515
I0
(lp1516
sI1
(lp1517
sI2
(lp1518
ssI1
(dp1519
I0
g1517
sI1
(lp1520
sI2
(lp1521
ssI2
(dp1522
I0
g1518
sI1
g1521
sI2
(lp1523
ssa(dp1524
I0
(dp1525
I0
(lp1526
sI1
(lp1527
sI2
(lp1528
ssI1
(dp1529
I0
g1527
sI1
(lp1530
sI2
(lp1531
ssI2
(dp1532
I0
g1528
sI1
g1531
sI2
(lp1533
ssa(dp1534
I0
(dp1535
I0
(lp1536
sI1
(lp1537
sI2
(lp1538
ssI1
(dp1539
I0
g1537
sI1
(lp1540
sI2
(lp1541
ssI2
(dp1542
I0
g1538
sI1
g1541
sI2
(lp1543
ssa(dp1544
I0
(dp1545
I0
(lp1546
sI1
(lp1547
sI2
(lp1548
ssI1
(dp1549
I0
g1547
sI1
(lp1550
sI2
(lp1551
ssI2
(dp1552
I0
g1548
sI1
g1551
sI2
(lp1553
ssa(dp1554
I0
(dp1555
I0
(lp1556
sI1
(lp1557
sI2
(lp1558
ssI1
(dp1559
I0
g1557
sI1
(lp1560
sI2
(lp1561
ssI2
(dp1562
I0
g1558
sI1
g1561
sI2
(lp1563
ssa(dp1564
I0
(dp1565
I0
(lp1566
sI1
(lp1567
sI2
(lp1568
ssI1
(dp1569
I0
g1567
sI1
(lp1570
sI2
(lp1571
ssI2
(dp1572
I0
g1568
sI1
g1571
sI2
(lp1573
ssa(dp1574
I0
(dp1575
I0
(lp1576
sI1
(lp1577
sI2
(lp1578
ssI1
(dp1579
I0
g1577
sI1
(lp1580
sI2
(lp1581
ssI2
(dp1582
I0
g1578
sI1
g1581
sI2
(lp1583
ssa(dp1584
I0
(dp1585
I0
(lp1586
sI1
(lp1587
sI2
(lp1588
ssI1
(dp1589
I0
g1587
sI1
(lp1590
sI2
(lp1591
ssI2
(dp1592
I0
g1588
sI1
g1591
sI2
(lp1593
ssa(dp1594
I0
(dp1595
I0
(lp1596
sI1
(lp1597
sI2
(lp1598
ssI1
(dp1599
I0
g1597
sI1
(lp1600
sI2
(lp1601
ssI2
(dp1602
I0
g1598
sI1
g1601
sI2
(lp1603
ssa(dp1604
I0
(dp1605
I0
(lp1606
sI1
(lp1607
sI2
(lp1608
ssI1
(dp1609
I0
g1607
sI1
(lp1610
sI2
(lp1611
ssI2
(dp1612
I0
g1608
sI1
g1611
sI2
(lp1613
ssa(dp1614
I0
(dp1615
I0
(lp1616
sI1
(lp1617
sI2
(lp1618
ssI1
(dp1619
I0
g1617
sI1
(lp1620
sI2
(lp1621
ssI2
(dp1622
I0
g1618
sI1
g1621
sI2
(lp1623
ssa(dp1624
I0
(dp1625
I0
(lp1626
sI1
(lp1627
sI2
(lp1628
ssI1
(dp1629
I0
g1627
sI1
(lp1630
sI2
(lp1631
ssI2
(dp1632
I0
g1628
sI1
g1631
sI2
(lp1633
ssa(dp1634
I0
(dp1635
I0
(lp1636
sI1
(lp1637
sI2
(lp1638
ssI1
(dp1639
I0
g1637
sI1
(lp1640
sI2
(lp1641
ssI2
(dp1642
I0
g1638
sI1
g1641
sI2
(lp1643
ssa(dp1644
I0
(dp1645
I0
(lp1646
sI1
(lp1647
sI2
(lp1648
ssI1
(dp1649
I0
g1647
sI1
(lp1650
sI2
(lp1651
ssI2
(dp1652
I0
g1648
sI1
g1651
sI2
(lp1653
ssa(dp1654
I0
(dp1655
I0
(lp1656
sI1
(lp1657
sI2
(lp1658
ssI1
(dp1659
I0
g1657
sI1
(lp1660
sI2
(lp1661
ssI2
(dp1662
I0
g1658
sI1
g1661
sI2
(lp1663
ssa(dp1664
I0
(dp1665
I0
(lp1666
sI1
(lp1667
sI2
(lp1668
ssI1
(dp1669
I0
g1667
sI1
(lp1670
sI2
(lp1671
ssI2
(dp1672
I0
g1668
sI1
g1671
sI2
(lp1673
ssa(dp1674
I0
(dp1675
I0
(lp1676
sI1
(lp1677
sI2
(lp1678
ssI1
(dp1679
I0
g1677
sI1
(lp1680
sI2
(lp1681
ssI2
(dp1682
I0
g1678
sI1
g1681
sI2
(lp1683
ssa(dp1684
I0
(dp1685
I0
(lp1686
sI1
(lp1687
sI2
(lp1688
ssI1
(dp1689
I0
g1687
sI1
(lp1690
sI2
(lp1691
ssI2
(dp1692
I0
g1688
sI1
g1691
sI2
(lp1693
ssa(dp1694
I0
(dp1695
I0
(lp1696
sI1
(lp1697
sI2
(lp1698
ssI1
(dp1699
I0
g1697
sI1
(lp1700
sI2
(lp1701
ssI2
(dp1702
I0
g1698
sI1
g1701
sI2
(lp1703
ssa(dp1704
I0
(dp1705
I0
(lp1706
sI1
(lp1707
sI2
(lp1708
ssI1
(dp1709
I0
g1707
sI1
(lp1710
sI2
(lp1711
ssI2
(dp1712
I0
g1708
sI1
g1711
sI2
(lp1713
ssa(dp1714
I0
(dp1715
I0
(lp1716
sI1
(lp1717
sI2
(lp1718
ssI1
(dp1719
I0
g1717
sI1
(lp1720
sI2
(lp1721
ssI2
(dp1722
I0
g1718
sI1
g1721
sI2
(lp1723
ssa(dp1724
I0
(dp1725
I0
(lp1726
sI1
(lp1727
sI2
(lp1728
ssI1
(dp1729
I0
g1727
sI1
(lp1730
sI2
(lp1731
ssI2
(dp1732
I0
g1728
sI1
g1731
sI2
(lp1733
ssa(dp1734
I0
(dp1735
I0
(lp1736
sI1
(lp1737
sI2
(lp1738
ssI1
(dp1739
I0
g1737
sI1
(lp1740
sI2
(lp1741
ssI2
(dp1742
I0
g1738
sI1
g1741
sI2
(lp1743
ssa(dp1744
I0
(dp1745
I0
(lp1746
sI1
(lp1747
sI2
(lp1748
ssI1
(dp1749
I0
g1747
sI1
(lp1750
sI2
(lp1751
ssI2
(dp1752
I0
g1748
sI1
g1751
sI2
(lp1753
ssa(dp1754
I0
(dp1755
I0
(lp1756
sI1
(lp1757
sI2
(lp1758
ssI1
(dp1759
I0
g1757
sI1
(lp1760
sI2
(lp1761
ssI2
(dp1762
I0
g1758
sI1
g1761
sI2
(lp1763
ssa(dp1764
I0
(dp1765
I0
(lp1766
sI1
(lp1767
sI2
(lp1768
ssI1
(dp1769
I0
g1767
sI1
(lp1770
sI2
(lp1771
ssI2
(dp1772
I0
g1768
sI1
g1771
sI2
(lp1773
ssa(dp1774
I0
(dp1775
I0
(lp1776
sI1
(lp1777
sI2
(lp1778
ssI1
(dp1779
I0
g1777
sI1
(lp1780
sI2
(lp1781
ssI2
(dp1782
I0
g1778
sI1
g1781
sI2
(lp1783
ssa(dp1784
I0
(dp1785
I0
(lp1786
sI1
(lp1787
sI2
(lp1788
ssI1
(dp1789
I0
g1787
sI1
(lp1790
sI2
(lp1791
ssI2
(dp1792
I0
g1788
sI1
g1791
sI2
(lp1793
ssa(dp1794
I0
(dp1795
I0
(lp1796
sI1
(lp1797
sI2
(lp1798
ssI1
(dp1799
I0
g1797
sI1
(lp1800
sI2
(lp1801
ssI2
(dp1802
I0
g1798
sI1
g1801
sI2
(lp1803
ssa(dp1804
I0
(dp1805
I0
(lp1806
sI1
(lp1807
sI2
(lp1808
ssI1
(dp1809
I0
g1807
sI1
(lp1810
sI2
(lp1811
ssI2
(dp1812
I0
g1808
sI1
g1811
sI2
(lp1813
ssa(dp1814
I0
(dp1815
I0
(lp1816
sI1
(lp1817
sI2
(lp1818
ssI1
(dp1819
I0
g1817
sI1
(lp1820
sI2
(lp1821
ssI2
(dp1822
I0
g1818
sI1
g1821
sI2
(lp1823
ssa(dp1824
I0
(dp1825
I0
(lp1826
sI1
(lp1827
sI2
(lp1828
ssI1
(dp1829
I0
g1827
sI1
(lp1830
sI2
(lp1831
ssI2
(dp1832
I0
g1828
sI1
g1831
sI2
(lp1833
ssa(dp1834
I0
(dp1835
I0
(lp1836
sI1
(lp1837
sI2
(lp1838
ssI1
(dp1839
I0
g1837
sI1
(lp1840
sI2
(lp1841
ssI2
(dp1842
I0
g1838
sI1
g1841
sI2
(lp1843
ssa(dp1844
I0
(dp1845
I0
(lp1846
sI1
(lp1847
sI2
(lp1848
ssI1
(dp1849
I0
g1847
sI1
(lp1850
sI2
(lp1851
ssI2
(dp1852
I0
g1848
sI1
g1851
sI2
(lp1853
ssa(dp1854
I0
(dp1855
I0
(lp1856
sI1
(lp1857
sI2
(lp1858
ssI1
(dp1859
I0
g1857
sI1
(lp1860
sI2
(lp1861
ssI2
(dp1862
I0
g1858
sI1
g1861
sI2
(lp1863
ssa(dp1864
I0
(dp1865
I0
(lp1866
sI1
(lp1867
sI2
(lp1868
ssI1
(dp1869
I0
g1867
sI1
(lp1870
sI2
(lp1871
ssI2
(dp1872
I0
g1868
sI1
g1871
sI2
(lp1873
ssa(dp1874
I0
(dp1875
I0
(lp1876
sI1
(lp1877
sI2
(lp1878
ssI1
(dp1879
I0
g1877
sI1
(lp1880
sI2
(lp1881
ssI2
(dp1882
I0
g1878
sI1
g1881
sI2
(lp1883
ssa(dp1884
I0
(dp1885
I0
(lp1886
sI1
(lp1887
sI2
(lp1888
ssI1
(dp1889
I0
g1887
sI1
(lp1890
sI2
(lp1891
ssI2
(dp1892
I0
g1888
sI1
g1891
sI2
(lp1893
ssa(dp1894
I0
(dp1895
I0
(lp1896
sI1
(lp1897
sI2
(lp1898
ssI1
(dp1899
I0
g1897
sI1
(lp1900
sI2
(lp1901
ssI2
(dp1902
I0
g1898
sI1
g1901
sI2
(lp1903
ssa(dp1904
I0
(dp1905
I0
(lp1906
sI1
(lp1907
sI2
(lp1908
ssI1
(dp1909
I0
g1907
sI1
(lp1910
sI2
(lp1911
ssI2
(dp1912
I0
g1908
sI1
g1911
sI2
(lp1913
ssa(dp1914
I0
(dp1915
I0
(lp1916
sI1
(lp1917
sI2
(lp1918
ssI1
(dp1919
I0
g1917
sI1
(lp1920
sI2
(lp1921
ssI2
(dp1922
I0
g1918
sI1
g1921
sI2
(lp1923
ssa(dp1924
I0
(dp1925
I0
(lp1926
sI1
(lp1927
sI2
(lp1928
ssI1
(dp1929
I0
g1927
sI1
(lp1930
sI2
(lp1931
ssI2
(dp1932
I0
g1928
sI1
g1931
sI2
(lp1933
ssa(dp1934
I0
(dp1935
I0
(lp1936
sI1
(lp1937
sI2
(lp1938
ssI1
(dp1939
I0
g1937
sI1
(lp1940
sI2
(lp1941
ssI2
(dp1942
I0
g1938
sI1
g1941
sI2
(lp1943
ssa(dp1944
I0
(dp1945
I0
(lp1946
sI1
(lp1947
sI2
(lp1948
ssI1
(dp1949
I0
g1947
sI1
(lp1950
sI2
(lp1951
ssI2
(dp1952
I0
g1948
sI1
g1951
sI2
(lp1953
ssa(dp1954
I0
(dp1955
I0
(lp1956
sI1
(lp1957
sI2
(lp1958
ssI1
(dp1959
I0
g1957
sI1
(lp1960
sI2
(lp1961
ssI2
(dp1962
I0
g1958
sI1
g1961
sI2
(lp1963
ssa(dp1964
I0
(dp1965
I0
(lp1966
sI1
(lp1967
sI2
(lp1968
ssI1
(dp1969
I0
g1967
sI1
(lp1970
sI2
(lp1971
ssI2
(dp1972
I0
g1968
sI1
g1971
sI2
(lp1973
ssa(dp1974
I0
(dp1975
I0
(lp1976
sI1
(lp1977
sI2
(lp1978
ssI1
(dp1979
I0
g1977
sI1
(lp1980
sI2
(lp1981
ssI2
(dp1982
I0
g1978
sI1
g1981
sI2
(lp1983
ssa(dp1984
I0
(dp1985
I0
(lp1986
sI1
(lp1987
sI2
(lp1988
ssI1
(dp1989
I0
g1987
sI1
(lp1990
sI2
(lp1991
ssI2
(dp1992
I0
g1988
sI1
g1991
sI2
(lp1993
ssa(dp1994
I0
(dp1995
I0
(lp1996
sI1
(lp1997
sI2
(lp1998
ssI1
(dp1999
I0
g1997
sI1
(lp2000
sI2
(lp2001
ssI2
(dp2002
I0
g1998
sI1
g2001
sI2
(lp2003
ssa(dp2004
I0
(dp2005
I0
(lp2006
sI1
(lp2007
sI2
(lp2008
ssI1
(dp2009
I0
g2007
sI1
(lp2010
sI2
(lp2011
ssI2
(dp2012
I0
g2008
sI1
g2011
sI2
(lp2013
ssa(dp2014
I0
(dp2015
I0
(lp2016
sI1
(lp2017
sI2
(lp2018
ssI1
(dp2019
I0
g2017
sI1
(lp2020
sI2
(lp2021
ssI2
(dp2022
I0
g2018
sI1
g2021
sI2
(lp2023
ssa(dp2024
I0
(dp2025
I0
(lp2026
sI1
(lp2027
sI2
(lp2028
ssI1
(dp2029
I0
g2027
sI1
(lp2030
sI2
(lp2031
ssI2
(dp2032
I0
g2028
sI1
g2031
sI2
(lp2033
ssa(dp2034
I0
(dp2035
I0
(lp2036
sI1
(lp2037
sI2
(lp2038
ssI1
(dp2039
I0
g2037
sI1
(lp2040
sI2
(lp2041
ssI2
(dp2042
I0
g2038
sI1
g2041
sI2
(lp2043
ssa(dp2044
I0
(dp2045
I0
(lp2046
sI1
(lp2047
sI2
(lp2048
ssI1
(dp2049
I0
g2047
sI1
(lp2050
sI2
(lp2051
ssI2
(dp2052
I0
g2048
sI1
g2051
sI2
(lp2053
ssa(dp2054
I0
(dp2055
I0
(lp2056
sI1
(lp2057
sI2
(lp2058
ssI1
(dp2059
I0
g2057
sI1
(lp2060
sI2
(lp2061
ssI2
(dp2062
I0
g2058
sI1
g2061
sI2
(lp2063
ssa(dp2064
I0
(dp2065
I0
(lp2066
sI1
(lp2067
sI2
(lp2068
ssI1
(dp2069
I0
g2067
sI1
(lp2070
sI2
(lp2071
ssI2
(dp2072
I0
g2068
sI1
g2071
sI2
(lp2073
ssa(dp2074
I0
(dp2075
I0
(lp2076
sI1
(lp2077
sI2
(lp2078
ssI1
(dp2079
I0
g2077
sI1
(lp2080
sI2
(lp2081
ssI2
(dp2082
I0
g2078
sI1
g2081
sI2
(lp2083
ssa(dp2084
I0
(dp2085
I0
(lp2086
sI1
(lp2087
sI2
(lp2088
ssI1
(dp2089
I0
g2087
sI1
(lp2090
sI2
(lp2091
ssI2
(dp2092
I0
g2088
sI1
g2091
sI2
(lp2093
ssa(dp2094
I0
(dp2095
I0
(lp2096
sI1
(lp2097
sI2
(lp2098
ssI1
(dp2099
I0
g2097
sI1
(lp2100
sI2
(lp2101
ssI2
(dp2102
I0
g2098
sI1
g2101
sI2
(lp2103
ssa(dp2104
I0
(dp2105
I0
(lp2106
sI1
(lp2107
sI2
(lp2108
ssI1
(dp2109
I0
g2107
sI1
(lp2110
sI2
(lp2111
ssI2
(dp2112
I0
g2108
sI1
g2111
sI2
(lp2113
ssa(dp2114
I0
(dp2115
I0
(lp2116
sI1
(lp2117
sI2
(lp2118
ssI1
(dp2119
I0
g2117
sI1
(lp2120
sI2
(lp2121
ssI2
(dp2122
I0
g2118
sI1
g2121
sI2
(lp2123
ssa(dp2124
I0
(dp2125
I0
(lp2126
sI1
(lp2127
sI2
(lp2128
ssI1
(dp2129
I0
g2127
sI1
(lp2130
sI2
(lp2131
ssI2
(dp2132
I0
g2128
sI1
g2131
sI2
(lp2133
ssa(dp2134
I0
(dp2135
I0
(lp2136
sI1
(lp2137
sI2
(lp2138
ssI1
(dp2139
I0
g2137
sI1
(lp2140
sI2
(lp2141
ssI2
(dp2142
I0
g2138
sI1
g2141
sI2
(lp2143
ssa(dp2144
I0
(dp2145
I0
(lp2146
sI1
(lp2147
sI2
(lp2148
ssI1
(dp2149
I0
g2147
sI1
(lp2150
sI2
(lp2151
ssI2
(dp2152
I0
g2148
sI1
g2151
sI2
(lp2153
ssa(dp2154
I0
(dp2155
I0
(lp2156
sI1
(lp2157
sI2
(lp2158
ssI1
(dp2159
I0
g2157
sI1
(lp2160
sI2
(lp2161
ssI2
(dp2162
I0
g2158
sI1
g2161
sI2
(lp2163
ssa(dp2164
I0
(dp2165
I0
(lp2166
sI1
(lp2167
sI2
(lp2168
ssI1
(dp2169
I0
g2167
sI1
(lp2170
sI2
(lp2171
ssI2
(dp2172
I0
g2168
sI1
g2171
sI2
(lp2173
ssa(dp2174
I0
(dp2175
I0
(lp2176
sI1
(lp2177
sI2
(lp2178
ssI1
(dp2179
I0
g2177
sI1
(lp2180
sI2
(lp2181
ssI2
(dp2182
I0
g2178
sI1
g2181
sI2
(lp2183
ssa(dp2184
I0
(dp2185
I0
(lp2186
sI1
(lp2187
sI2
(lp2188
ssI1
(dp2189
I0
g2187
sI1
(lp2190
sI2
(lp2191
ssI2
(dp2192
I0
g2188
sI1
g2191
sI2
(lp2193
ssa(dp2194
I0
(dp2195
I0
(lp2196
sI1
(lp2197
sI2
(lp2198
ssI1
(dp2199
I0
g2197
sI1
(lp2200
sI2
(lp2201
ssI2
(dp2202
I0
g2198
sI1
g2201
sI2
(lp2203
ssa(dp2204
I0
(dp2205
I0
(lp2206
sI1
(lp2207
sI2
(lp2208
ssI1
(dp2209
I0
g2207
sI1
(lp2210
sI2
(lp2211
ssI2
(dp2212
I0
g2208
sI1
g2211
sI2
(lp2213
ssa(dp2214
I0
(dp2215
I0
(lp2216
sI1
(lp2217
sI2
(lp2218
ssI1
(dp2219
I0
g2217
sI1
(lp2220
sI2
(lp2221
ssI2
(dp2222
I0
g2218
sI1
g2221
sI2
(lp2223
ssa(dp2224
I0
(dp2225
I0
(lp2226
sI1
(lp2227
sI2
(lp2228
ssI1
(dp2229
I0
g2227
sI1
(lp2230
sI2
(lp2231
ssI2
(dp2232
I0
g2228
sI1
g2231
sI2
(lp2233
ssa(dp2234
I0
(dp2235
I0
(lp2236
sI1
(lp2237
sI2
(lp2238
ssI1
(dp2239
I0
g2237
sI1
(lp2240
sI2
(lp2241
ssI2
(dp2242
I0
g2238
sI1
g2241
sI2
(lp2243
ssa(dp2244
I0
(dp2245
I0
(lp2246
sI1
(lp2247
sI2
(lp2248
ssI1
(dp2249
I0
g2247
sI1
(lp2250
sI2
(lp2251
ssI2
(dp2252
I0
g2248
sI1
g2251
sI2
(lp2253
ssa(dp2254
I0
(dp2255
I0
(lp2256
sI1
(lp2257
sI2
(lp2258
ssI1
(dp2259
I0
g2257
sI1
(lp2260
sI2
(lp2261
ssI2
(dp2262
I0
g2258
sI1
g2261
sI2
(lp2263
ssa(dp2264
I0
(dp2265
I0
(lp2266
sI1
(lp2267
sI2
(lp2268
ssI1
(dp2269
I0
g2267
sI1
(lp2270
sI2
(lp2271
ssI2
(dp2272
I0
g2268
sI1
g2271
sI2
(lp2273
ssa(dp2274
I0
(dp2275
I0
(lp2276
sI1
(lp2277
sI2
(lp2278
ssI1
(dp2279
I0
g2277
sI1
(lp2280
sI2
(lp2281
ssI2
(dp2282
I0
g2278
sI1
g2281
sI2
(lp2283
ssa(dp2284
I0
(dp2285
I0
(lp2286
sI1
(lp2287
sI2
(lp2288
ssI1
(dp2289
I0
g2287
sI1
(lp2290
sI2
(lp2291
ssI2
(dp2292
I0
g2288
sI1
g2291
sI2
(lp2293
ssa(dp2294
I0
(dp2295
I0
(lp2296
sI1
(lp2297
sI2
(lp2298
ssI1
(dp2299
I0
g2297
sI1
(lp2300
sI2
(lp2301
ssI2
(dp2302
I0
g2298
sI1
g2301
sI2
(lp2303
ssa(dp2304
I0
(dp2305
I0
(lp2306
sI1
(lp2307
sI2
(lp2308
ssI1
(dp2309
I0
g2307
sI1
(lp2310
sI2
(lp2311
ssI2
(dp2312
I0
g2308
sI1
g2311
sI2
(lp2313
ssa.