(lp1
(dp2
I0
(dp3
I0
(lp4
sI1
(lp5
Vhttp://www.w3.org/ns/prov#wasDerivedFrom
p6
aVhttp://dbpedia.org/ontology/revenue
p7
aVhttp://dbpedia.org/ontology/abstract
p8
aVhttp://www.w3.org/1999/02/22-rdf-syntax-ns#type
p9
aVhttp://dbpedia.org/property/revenue
p10
asI2
(lp11
Vhttp://dbpedia.org/property/origin
p12
aVhttp://dbpedia.org/property/placeOfDeath
p13
aVhttp://dbpedia.org/property/broadcastArea
p14
aVhttp://dbpedia.org/property/2rpt2Loc
p15
aVhttp://dbpedia.org/property/place
p16
aVhttp://dbpedia.org/ontology/routeStart
p17
aVhttp://dbpedia.org/ontology/PopulatedPlace/areaTotal
p18
aVhttp://dbpedia.org/property/rd2t3Loc
p19
aVhttp://dbpedia.org/ontology/PopulatedPlace/populationDensity
p20
aVhttp://dbpedia.org/ontology/country
p21
aVhttp://dbpedia.org/property/region
p22
aVhttp://www.w3.org/1999/02/22-rdf-syntax-ns#type
p23
aVhttp://dbpedia.org/property/hostCity
p24
aVhttp://dbpedia.org/property/assembly
p25
aVhttp://dbpedia.org/property/withdraws
p26
aVhttp://dbpedia.org/property/birthPlace
p27
aVhttp://dbpedia.org/ontology/place
p28
aVhttp://dbpedia.org/property/placeOfBirth
p29
aVhttp://dbpedia.org/property/locationSigned
p30
aVhttp://dbpedia.org/property/country
p31
aVhttp://dbpedia.org/property/shipCountry
p32
aVhttp://dbpedia.org/property/areasAffected
p33
aVhttp://dbpedia.org/ontology/wikiPageExternalLink
p34
aVhttp://dbpedia.org/ontology/recordedIn
p35
aVhttp://dbpedia.org/property/rd2t2Loc
p36
aVhttp://dbpedia.org/property/nationality
p37
aVhttp://dbpedia.org/ontology/abstract
p38
aVhttp://dbpedia.org/property/rd1t8Loc
p39
aVhttp://dbpedia.org/property/venue
p40
aVhttp://dbpedia.org/property/deathPlace
p41
aVhttp://dbpedia.org/property/location
p42
aVhttp://dbpedia.org/property/fightingOutOf
p43
aVhttp://dbpedia.org/property/gdpPppPerCapita
p44
aVhttp://dbpedia.org/ontology/deathPlace
p45
aVhttp://dbpedia.org/property/rd2t4Loc
p46
aVhttp://dbpedia.org/property/gdpPpp
p47
aVhttp://dbpedia.org/property/usedBy
p48
aVhttp://dbpedia.org/property/worldPlace
p49
aVhttp://dbpedia.org/property/nationalOrigin
p50
aVhttp://dbpedia.org/property/headquarters
p51
aVhttp://www.georss.org/georss/point
p52
aVhttp://dbpedia.org/ontology/assembly
p53
aVhttp://dbpedia.org/property/rd2t1Loc
p54
aVhttp://www.w3.org/2000/01/rdf-schema#comment
p55
aVhttp://dbpedia.org/ontology/birthPlace
p56
aVhttp://dbpedia.org/ontology/hometown
p57
aVhttp://www.w3.org/2002/07/owl#sameAs
p58
aVhttp://dbpedia.org/property/host
p59
aVhttp://dbpedia.org/property/residence
p60
aVhttp://dbpedia.org/property/stadium
p61
aVhttp://dbpedia.org/ontology/location
p62
asI3
(lp63
sI4
(lp64
sI5
(lp65
ssI1
(dp66
I0
g5
sI1
(lp67
sI2
(lp68
Vhttp://dbpedia.org/ontology/abstract
p69
aVhttp://dbpedia.org/property/hasPhotoCollection
p70
asI3
(lp71
sI4
(lp72
sI5
(lp73
ssI2
(dp74
I0
g11
sI1
g68
sI2
(lp75
sI3
(lp76
sI4
(lp77
sI5
(lp78
ssI3
(dp79
I0
g63
sI1
g71
sI2
g76
sI3
(lp80
sI4
(lp81
sI5
(lp82
ssI4
(dp83
I0
g64
sI1
g72
sI2
g77
sI3
g81
sI4
(lp84
sI5
(lp85
ssI5
(dp86
I0
g65
sI1
g73
sI2
g78
sI3
g82
sI4
g85
sI5
(lp87
ssa(dp88
I0
(dp89
I0
(lp90
sI1
(lp91
sI2
(lp92
Vhttp://www.w3.org/ns/prov#wasDerivedFrom
p93
asI3
(lp94
sI4
(lp95
sI5
(lp96
ssI1
(dp97
I0
g91
sI1
(lp98
sI2
(lp99
Vhttp://dbpedia.org/ontology/abstract
p100
aVhttp://www.w3.org/1999/02/22-rdf-syntax-ns#type
p101
aVhttp://purl.org/dc/terms/subject
p102
aVhttp://www.w3.org/2000/01/rdf-schema#comment
p103
asI3
(lp104
sI4
(lp105
sI5
(lp106
ssI2
(dp107
I0
g92
sI1
g99
sI2
(lp108
sI3
(lp109
sI4
(lp110
sI5
(lp111
ssI3
(dp112
I0
g94
sI1
g104
sI2
g109
sI3
(lp113
sI4
(lp114
sI5
(lp115
ssI4
(dp116
I0
g95
sI1
g105
sI2
g110
sI3
g114
sI4
(lp117
sI5
(lp118
ssI5
(dp119
I0
g96
sI1
g106
sI2
g111
sI3
g115
sI4
g118
sI5
(lp120
ssa(dp121
I0
(dp122
I0
(lp123
sI1
(lp124
Vhttp://www.w3.org/1999/02/22-rdf-syntax-ns#type
p125
asI2
(lp126
Vhttp://www.w3.org/2002/07/owl#sameAs
p127
asI3
(lp128
sI4
(lp129
sI5
(lp130
ssI1
(dp131
I0
g124
sI1
(lp132
sI2
(lp133
Vhttp://dbpedia.org/ontology/genre
p134
aVhttp://www.w3.org/1999/02/22-rdf-syntax-ns#type
p135
aVhttp://purl.org/dc/terms/subject
p136
aVhttp://www.w3.org/2000/01/rdf-schema#comment
p137
aVhttp://dbpedia.org/ontology/abstract
p138
aVhttp://dbpedia.org/property/wordnet_type
p139
asI3
(lp140
sI4
(lp141
sI5
(lp142
ssI2
(dp143
I0
g126
sI1
g133
sI2
(lp144
sI3
(lp145
sI4
(lp146
Vhttp://dbpedia.org/ontology/abstract
p147
asI5
(lp148
ssI3
(dp149
I0
g128
sI1
g140
sI2
g145
sI3
(lp150
sI4
(lp151
sI5
(lp152
ssI4
(dp153
I0
g129
sI1
g141
sI2
g146
sI3
g151
sI4
(lp154
sI5
(lp155
ssI5
(dp156
I0
g130
sI1
g142
sI2
g148
sI3
g152
sI4
g155
sI5
(lp157
ssa(dp158
I0
(dp159
I0
(lp160
sI1
(lp161
sI2
(lp162
Vhttp://www.w3.org/1999/02/22-rdf-syntax-ns#type
p163
asI3
(lp164
sI4
(lp165
sI5
(lp166
ssI1
(dp167
I0
g161
sI1
(lp168
sI2
(lp169
Vhttp://dbpedia.org/ontology/abstract
p170
aVhttp://www.w3.org/1999/02/22-rdf-syntax-ns#type
p171
aVhttp://purl.org/dc/terms/subject
p172
aVhttp://dbpedia.org/property/location
p173
aVhttp://www.w3.org/2000/01/rdf-schema#comment
p174
asI3
(lp175
sI4
(lp176
sI5
(lp177
ssI2
(dp178
I0
g162
sI1
g169
sI2
(lp179
sI3
(lp180
sI4
(lp181
sI5
(lp182
ssI3
(dp183
I0
g164
sI1
g175
sI2
g180
sI3
(lp184
sI4
(lp185
sI5
(lp186
ssI4
(dp187
I0
g165
sI1
g176
sI2
g181
sI3
g185
sI4
(lp188
sI5
(lp189
ssI5
(dp190
I0
g166
sI1
g177
sI2
g182
sI3
g186
sI4
g189
sI5
(lp191
ssa(dp192
I0
(dp193
I0
(lp194
sI1
(lp195
sI2
(lp196
Vhttp://www.w3.org/1999/02/22-rdf-syntax-ns#type
p197
aVhttp://www.w3.org/2002/07/owl#sameAs
p198
asI3
(lp199
sI4
(lp200
sI5
(lp201
ssI1
(dp202
I0
g195
sI1
(lp203
sI2
(lp204
Vhttp://dbpedia.org/ontology/owner
p205
aVhttp://xmlns.com/foaf/0.1/primaryTopic
p206
aVhttp://www.w3.org/1999/02/22-rdf-syntax-ns#type
p207
aVhttp://purl.org/dc/terms/subject
p208
aVhttp://www.w3.org/2000/01/rdf-schema#comment
p209
aVhttp://dbpedia.org/ontology/abstract
p210
aVhttp://xmlns.com/foaf/0.1/depiction
p211
aVhttp://dbpedia.org/ontology/owningCompany
p212
aVhttp://www.w3.org/ns/prov#wasDerivedFrom
p213
aVhttp://xmlns.com/foaf/0.1/isPrimaryTopicOf
p214
aVhttp://dbpedia.org/property/owner
p215
aVhttp://dbpedia.org/property/hasPhotoCollection
p216
aVhttp://www.w3.org/2002/07/owl#sameAs
p217
aVhttp://dbpedia.org/ontology/thumbnail
p218
asI3
(lp219
sI4
(lp220
sI5
(lp221
ssI2
(dp222
I0
g196
sI1
g204
sI2
(lp223
sI3
(lp224
sI4
(lp225
sI5
(lp226
ssI3
(dp227
I0
g199
sI1
g219
sI2
g224
sI3
(lp228
sI4
(lp229
sI5
(lp230
ssI4
(dp231
I0
g200
sI1
g220
sI2
g225
sI3
g229
sI4
(lp232
sI5
(lp233
ssI5
(dp234
I0
g201
sI1
g221
sI2
g226
sI3
g230
sI4
g233
sI5
(lp235
ssa(dp236
I0
(dp237
I0
(lp238
sI1
(lp239
sI2
(lp240
Vhttp://dbpedia.org/property/withdraws
p241
aVhttp://dbpedia.org/ontology/abstract
p242
aVhttp://dbpedia.org/property/location
p243
aVhttp://www.w3.org/2002/07/owl#sameAs
p244
asI3
(lp245
sI4
(lp246
sI5
(lp247
ssI1
(dp248
I0
g239
sI1
(lp249
sI2
(lp250
sI3
(lp251
sI4
(lp252
sI5
(lp253
ssI2
(dp254
I0
g240
sI1
g250
sI2
(lp255
sI3
(lp256
sI4
(lp257
sI5
(lp258
ssI3
(dp259
I0
g245
sI1
g251
sI2
g256
sI3
(lp260
sI4
(lp261
sI5
(lp262
ssI4
(dp263
I0
g246
sI1
g252
sI2
g257
sI3
g261
sI4
(lp264
sI5
(lp265
ssI5
(dp266
I0
g247
sI1
g253
sI2
g258
sI3
g262
sI4
g265
sI5
(lp267
ssa(dp268
I0
(dp269
I0
(lp270
sI1
(lp271
sI2
(lp272
Vhttp://www.w3.org/2002/07/owl#sameAs
p273
asI3
(lp274
sI4
(lp275
sI5
(lp276
ssI1
(dp277
I0
g271
sI1
(lp278
sI2
(lp279
Vhttp://www.w3.org/1999/02/22-rdf-syntax-ns#type
p280
aVhttp://purl.org/dc/terms/subject
p281
aVhttp://dbpedia.org/ontology/location
p282
aVhttp://www.w3.org/2000/01/rdf-schema#comment
p283
aVhttp://dbpedia.org/ontology/abstract
p284
aVhttp://xmlns.com/foaf/0.1/depiction
p285
aVhttp://dbpedia.org/ontology/thumbnail
p286
aVhttp://dbpedia.org/property/companySlogan
p287
asI3
(lp288
sI4
(lp289
sI5
(lp290
ssI2
(dp291
I0
g272
sI1
g279
sI2
(lp292
sI3
(lp293
sI4
(lp294
sI5
(lp295
ssI3
(dp296
I0
g274
sI1
g288
sI2
g293
sI3
(lp297
sI4
(lp298
sI5
(lp299
ssI4
(dp300
I0
g275
sI1
g289
sI2
g294
sI3
g298
sI4
(lp301
sI5
(lp302
ssI5
(dp303
I0
g276
sI1
g290
sI2
g295
sI3
g299
sI4
g302
sI5
(lp304
ssa(dp305
I0
(dp306
I0
(lp307
sI1
(lp308
sI2
(lp309
Vhttp://dbpedia.org/property/caption
p310
asI3
(lp311
sI4
(lp312
sI5
(lp313
ssI1
(dp314
I0
g308
sI1
(lp315
sI2
(lp316
Vhttp://dbpedia.org/ontology/wikiPageExternalLink
p317
aVhttp://www.w3.org/1999/02/22-rdf-syntax-ns#type
p318
aVhttp://purl.org/dc/terms/subject
p319
aVhttp://www.w3.org/2000/01/rdf-schema#comment
p320
aVhttp://dbpedia.org/ontology/abstract
p321
aVhttp://dbpedia.org/ontology/wikiPageRedirects
p322
aVhttp://xmlns.com/foaf/0.1/homepage
p323
aVhttp://www.w3.org/2002/07/owl#sameAs
p324
asI3
(lp325
sI4
(lp326
sI5
(lp327
ssI2
(dp328
I0
g309
sI1
g316
sI2
(lp329
sI3
(lp330
sI4
(lp331
sI5
(lp332
Vhttp://dbpedia.org/property/place
p333
aVhttp://dbpedia.org/property/location
p334
assI3
(dp335
I0
g311
sI1
g325
sI2
g330
sI3
(lp336
sI4
(lp337
sI5
(lp338
ssI4
(dp339
I0
g312
sI1
g326
sI2
g331
sI3
g337
sI4
(lp340
sI5
(lp341
ssI5
(dp342
I0
g313
sI1
g327
sI2
g332
sI3
g338
sI4
g341
sI5
(lp343
ssa(dp344
I0
(dp345
I0
(lp346
sI1
(lp347
sI2
(lp348
sI3
(lp349
sI4
(lp350
sI5
(lp351
ssI1
(dp352
I0
g347
sI1
(lp353
sI2
(lp354
Vhttp://dbpedia.org/property/wordnet_type
p355
aVhttp://dbpedia.org/property/caption
p356
aVhttp://dbpedia.org/ontology/abstract
p357
asI3
(lp358
sI4
(lp359
sI5
(lp360
ssI2
(dp361
I0
g348
sI1
g354
sI2
(lp362
sI3
(lp363
sI4
(lp364
sI5
(lp365
ssI3
(dp366
I0
g349
sI1
g358
sI2
g363
sI3
(lp367
sI4
(lp368
sI5
(lp369
ssI4
(dp370
I0
g350
sI1
g359
sI2
g364
sI3
g368
sI4
(lp371
sI5
(lp372
ssI5
(dp373
I0
g351
sI1
g360
sI2
g365
sI3
g369
sI4
g372
sI5
(lp374
ssa(dp375
I0
(dp376
I0
(lp377
sI1
(lp378
sI2
(lp379
sI3
(lp380
sI4
(lp381
sI5
(lp382
ssI1
(dp383
I0
g378
sI1
(lp384
sI2
(lp385
sI3
(lp386
sI4
(lp387
sI5
(lp388
ssI2
(dp389
I0
g379
sI1
g385
sI2
(lp390
sI3
(lp391
sI4
(lp392
sI5
(lp393
ssI3
(dp394
I0
g380
sI1
g386
sI2
g391
sI3
(lp395
sI4
(lp396
sI5
(lp397
ssI4
(dp398
I0
g381
sI1
g387
sI2
g392
sI3
g396
sI4
(lp399
sI5
(lp400
ssI5
(dp401
I0
g382
sI1
g388
sI2
g393
sI3
g397
sI4
g400
sI5
(lp402
ssa(dp403
I0
(dp404
I0
(lp405
sI1
(lp406
sI2
(lp407
sI3
(lp408
sI4
(lp409
sI5
(lp410
ssI1
(dp411
I0
g406
sI1
(lp412
sI2
(lp413
sI3
(lp414
sI4
(lp415
sI5
(lp416
ssI2
(dp417
I0
g407
sI1
g413
sI2
(lp418
sI3
(lp419
sI4
(lp420
sI5
(lp421
ssI3
(dp422
I0
g408
sI1
g414
sI2
g419
sI3
(lp423
sI4
(lp424
sI5
(lp425
ssI4
(dp426
I0
g409
sI1
g415
sI2
g420
sI3
g424
sI4
(lp427
sI5
(lp428
ssI5
(dp429
I0
g410
sI1
g416
sI2
g421
sI3
g425
sI4
g428
sI5
(lp430
ssa(dp431
I0
(dp432
I0
(lp433
sI1
(lp434
sI2
(lp435
sI3
(lp436
sI4
(lp437
sI5
(lp438
ssI1
(dp439
I0
g434
sI1
(lp440
sI2
(lp441
Vhttp://www.w3.org/1999/02/22-rdf-syntax-ns#type
p442
aVhttp://purl.org/dc/terms/subject
p443
aVhttp://xmlns.com/foaf/0.1/depiction
p444
aVhttp://dbpedia.org/property/locationCity
p445
aVhttp://dbpedia.org/ontology/thumbnail
p446
aVhttp://dbpedia.org/ontology/locationCity
p447
aVhttp://dbpedia.org/property/companyType
p448
asI3
(lp449
sI4
(lp450
sI5
(lp451
ssI2
(dp452
I0
g435
sI1
g441
sI2
(lp453
sI3
(lp454
sI4
(lp455
sI5
(lp456
ssI3
(dp457
I0
g436
sI1
g449
sI2
g454
sI3
(lp458
sI4
(lp459
sI5
(lp460
ssI4
(dp461
I0
g437
sI1
g450
sI2
g455
sI3
g459
sI4
(lp462
sI5
(lp463
ssI5
(dp464
I0
g438
sI1
g451
sI2
g456
sI3
g460
sI4
g463
sI5
(lp465
ssa(dp466
I0
(dp467
I0
(lp468
sI1
(lp469
sI2
(lp470
sI3
(lp471
sI4
(lp472
sI5
(lp473
ssI1
(dp474
I0
g469
sI1
(lp475
sI2
(lp476
sI3
(lp477
sI4
(lp478
sI5
(lp479
ssI2
(dp480
I0
g470
sI1
g476
sI2
(lp481
sI3
(lp482
sI4
(lp483
Vhttp://dbpedia.org/property/homeState
p484
aVhttp://dbpedia.org/property/state
p485
aVhttp://dbpedia.org/property/siteCityst
p486
aVhttp://dbpedia.org/property/place
p487
aVhttp://dbpedia.org/property/location
p488
asI5
(lp489
ssI3
(dp490
I0
g471
sI1
g477
sI2
g482
sI3
(lp491
sI4
(lp492
sI5
(lp493
ssI4
(dp494
I0
g472
sI1
g478
sI2
g483
sI3
g492
sI4
(lp495
sI5
(lp496
ssI5
(dp497
I0
g473
sI1
g479
sI2
g489
sI3
g493
sI4
g496
sI5
(lp498
ssa(dp499
I0
(dp500
I0
(lp501
sI1
(lp502
sI2
(lp503
Vhttp://www.w3.org/1999/02/22-rdf-syntax-ns#type
p504
asI3
(lp505
sI4
(lp506
sI5
(lp507
ssI1
(dp508
I0
g502
sI1
(lp509
sI2
(lp510
sI3
(lp511
sI4
(lp512
sI5
(lp513
ssI2
(dp514
I0
g503
sI1
g510
sI2
(lp515
sI3
(lp516
sI4
(lp517
Vhttp://dbpedia.org/property/location
p518
asI5
(lp519
ssI3
(dp520
I0
g505
sI1
g511
sI2
g516
sI3
(lp521
sI4
(lp522
sI5
(lp523
ssI4
(dp524
I0
g506
sI1
g512
sI2
g517
sI3
g522
sI4
(lp525
sI5
(lp526
ssI5
(dp527
I0
g507
sI1
g513
sI2
g519
sI3
g523
sI4
g526
sI5
(lp528
ssa(dp529
I0
(dp530
I0
(lp531
sI1
(lp532
sI2
(lp533
sI3
(lp534
sI4
(lp535
sI5
(lp536
ssI1
(dp537
I0
g532
sI1
(lp538
sI2
(lp539
Vhttp://www.w3.org/1999/02/22-rdf-syntax-ns#type
p540
aVhttp://purl.org/dc/terms/subject
p541
aVhttp://www.w3.org/2000/01/rdf-schema#comment
p542
aVhttp://dbpedia.org/ontology/abstract
p543
aVhttp://dbpedia.org/ontology/author
p544
aVhttp://www.w3.org/2000/01/rdf-schema#label
p545
aVhttp://www.w3.org/2002/07/owl#sameAs
p546
aVhttp://dbpedia.org/property/author
p547
asI3
(lp548
sI4
(lp549
sI5
(lp550
ssI2
(dp551
I0
g533
sI1
g539
sI2
(lp552
sI3
(lp553
sI4
(lp554
sI5
(lp555
ssI3
(dp556
I0
g534
sI1
g548
sI2
g553
sI3
(lp557
sI4
(lp558
sI5
(lp559
ssI4
(dp560
I0
g535
sI1
g549
sI2
g554
sI3
g558
sI4
(lp561
sI5
(lp562
ssI5
(dp563
I0
g536
sI1
g550
sI2
g555
sI3
g559
sI4
g562
sI5
(lp564
ssa(dp565
I0
(dp566
I0
(lp567
sI1
(lp568
sI2
(lp569
sI3
(lp570
sI4
(lp571
sI5
(lp572
ssI1
(dp573
I0
g568
sI1
(lp574
sI2
(lp575
sI3
(lp576
sI4
(lp577
sI5
(lp578
ssI2
(dp579
I0
g569
sI1
g575
sI2
(lp580
sI3
(lp581
sI4
(lp582
sI5
(lp583
ssI3
(dp584
I0
g570
sI1
g576
sI2
g581
sI3
(lp585
sI4
(lp586
sI5
(lp587
ssI4
(dp588
I0
g571
sI1
g577
sI2
g582
sI3
g586
sI4
(lp589
sI5
(lp590
ssI5
(dp591
I0
g572
sI1
g578
sI2
g583
sI3
g587
sI4
g590
sI5
(lp592
ssa(dp593
I0
(dp594
I0
(lp595
sI1
(lp596
sI2
(lp597
sI3
(lp598
sI4
(lp599
sI5
(lp600
ssI1
(dp601
I0
g596
sI1
(lp602
sI2
(lp603
sI3
(lp604
sI4
(lp605
sI5
(lp606
ssI2
(dp607
I0
g597
sI1
g603
sI2
(lp608
sI3
(lp609
sI4
(lp610
Vhttp://dbpedia.org/property/place
p611
aVhttp://dbpedia.org/property/areasAffected
p612
asI5
(lp613
ssI3
(dp614
I0
g598
sI1
g604
sI2
g609
sI3
(lp615
sI4
(lp616
sI5
(lp617
ssI4
(dp618
I0
g599
sI1
g605
sI2
g610
sI3
g616
sI4
(lp619
sI5
(lp620
ssI5
(dp621
I0
g600
sI1
g606
sI2
g613
sI3
g617
sI4
g620
sI5
(lp622
ssa(dp623
I0
(dp624
I0
(lp625
sI1
(lp626
sI2
(lp627
sI3
(lp628
sI4
(lp629
sI5
(lp630
ssI1
(dp631
I0
g626
sI1
(lp632
sI2
(lp633
sI3
(lp634
sI4
(lp635
sI5
(lp636
ssI2
(dp637
I0
g627
sI1
g633
sI2
(lp638
sI3
(lp639
sI4
(lp640
sI5
(lp641
ssI3
(dp642
I0
g628
sI1
g634
sI2
g639
sI3
(lp643
sI4
(lp644
sI5
(lp645
ssI4
(dp646
I0
g629
sI1
g635
sI2
g640
sI3
g644
sI4
(lp647
sI5
(lp648
ssI5
(dp649
I0
g630
sI1
g636
sI2
g641
sI3
g645
sI4
g648
sI5
(lp650
ssa(dp651
I0
(dp652
I0
(lp653
sI1
(lp654
sI2
(lp655
sI3
(lp656
sI4
(lp657
sI5
(lp658
ssI1
(dp659
I0
g654
sI1
(lp660
sI2
(lp661
sI3
(lp662
sI4
(lp663
sI5
(lp664
ssI2
(dp665
I0
g655
sI1
g661
sI2
(lp666
sI3
(lp667
sI4
(lp668
Vhttp://www.w3.org/1999/02/22-rdf-syntax-ns#type
p669
asI5
(lp670
ssI3
(dp671
I0
g656
sI1
g662
sI2
g667
sI3
(lp672
sI4
(lp673
sI5
(lp674
ssI4
(dp675
I0
g657
sI1
g663
sI2
g668
sI3
g673
sI4
(lp676
sI5
(lp677
ssI5
(dp678
I0
g658
sI1
g664
sI2
g670
sI3
g674
sI4
g677
sI5
(lp679
ssa.