(lp1
(lp2
(dp3
Vstart
p4
I0
sS'classes'
p5
(lp6
Vhttp://www.w3.org/2002/07/owl#Thing
p7
aVhttp://dbpedia.org/ontology/Place
p8
aVhttp://dbpedia.org/ontology/Location
p9
aVhttp://www.wikidata.org/entity/Q486972
p10
aVhttp://www.wikidata.org/entity/Q6256
p11
aVhttp://dbpedia.org/ontology/Country
p12
aVhttp://dbpedia.org/ontology/PopulatedPlace
p13
aVhttp://www.w3.org/2003/01/geo/wgs84_pos#SpatialThing
p14
aVhttp://schema.org/Country
p15
aVhttp://schema.org/Place
p16
aVhttp://umbel.org/umbel/rc/Country
p17
aVhttp://umbel.org/umbel/rc/Location_Underspecified
p18
aVhttp://umbel.org/umbel/rc/PopulatedPlace
p19
aVhttp://dbpedia.org/class/yago/Abstraction100002137
p20
aVhttp://dbpedia.org/class/yago/AdministrativeDistrict108491826
p21
aVhttp://dbpedia.org/class/yago/BicontinentalCountries
p22
aVhttp://dbpedia.org/class/yago/CaribbeanCountries
p23
aVhttp://dbpedia.org/class/yago/Country108544813
p24
aVhttp://dbpedia.org/class/yago/District108552138
p25
aVhttp://dbpedia.org/class/yago/Economy108366753
p26
aVhttp://dbpedia.org/class/yago/Group100031264
p27
aVhttp://dbpedia.org/class/yago/Location100027167
p28
aVhttp://dbpedia.org/class/yago/Object100002684
p29
aVhttp://dbpedia.org/class/yago/Region108630985
p30
aVhttp://dbpedia.org/class/yago/System108435388
p31
aVhttp://dbpedia.org/class/yago/YagoGeoEntity
p32
aVhttp://dbpedia.org/class/yago/YagoLegalActorGeo
p33
aVhttp://dbpedia.org/class/yago/CountriesBorderingTheAtlanticOcean
p34
aVhttp://dbpedia.org/class/yago/Dutch-speakingCountries
p35
aVhttp://dbpedia.org/class/yago/EuropeanCountries
p36
aVhttp://dbpedia.org/class/yago/EuropeanUnionMemberEconomies
p37
aVhttp://dbpedia.org/class/yago/PhysicalEntity100001930
p38
aVhttp://dbpedia.org/class/yago/YagoPermanentlyLocatedEntity
p39
aVhttp://dbpedia.org/class/yago/MemberStatesOfNATO
p40
aVhttp://dbpedia.org/class/yago/MemberStatesOfTheDutchLanguageUnion
p41
aVhttp://dbpedia.org/class/yago/MemberStatesOfTheEuropeanUnion
p42
aVhttp://dbpedia.org/class/yago/MemberStatesOfTheUnionForTheMediterranean
p43
asVdisambiguatedURL
p44
Vhttp://dbpedia.org/resource/Netherlands
p45
sVnamedEntity
p46
VNH
p47
sVoffset
p48
I2
saa(lp49
(dp50
Vstart
p51
I0
sg5
(lp52
Vhttp://www.w3.org/2002/07/owl#Thing
p53
aVhttp://dbpedia.org/ontology/Company
p54
aVhttp://www.ontologydesignpatterns.org/ont/dul/DUL.owl#Agent
p55
aVhttp://www.ontologydesignpatterns.org/ont/dul/DUL.owl#SocialPerson
p56
aVhttp://www.wikidata.org/entity/Q43229
p57
aVhttp://dbpedia.org/ontology/Agent
p58
aVhttp://dbpedia.org/ontology/Organisation
p59
aVhttp://schema.org/Organization
p60
aVhttp://dbpedia.org/class/yago/Abstraction100002137
p61
aVhttp://dbpedia.org/class/yago/Company108058098
p62
aVhttp://dbpedia.org/class/yago/Group100031264
p63
aVhttp://dbpedia.org/class/yago/Institution108053576
p64
aVhttp://dbpedia.org/class/yago/Organization108008335
p65
aVhttp://dbpedia.org/class/yago/SocialGroup107950920
p66
aVhttp://dbpedia.org/class/yago/YagoLegalActorGeo
p67
aVhttp://dbpedia.org/class/yago/CompaniesEstablishedIn1994
p68
aVhttp://dbpedia.org/class/yago/YagoPermanentlyLocatedEntity
p69
aVhttp://dbpedia.org/class/yago/YagoLegalActor
p70
aVhttp://dbpedia.org/class/yago/SoftwareCompaniesOfBelgium
p71
asVdisambiguatedURL
p72
Vhttp://dbpedia.org/resource/Image-Line
p73
sVnamedEntity
p74
VIL
p75
sVoffset
p76
I2
saa(lp77
(dp78
Vstart
p79
I0
sg5
(lp80
Vhttp://www.w3.org/2002/07/owl#Thing
p81
aVhttp://dbpedia.org/ontology/Place
p82
aVhttp://dbpedia.org/ontology/Location
p83
aVhttp://www.wikidata.org/entity/Q486972
p84
aVhttp://www.wikidata.org/entity/Q6256
p85
aVhttp://dbpedia.org/ontology/Country
p86
aVhttp://dbpedia.org/ontology/PopulatedPlace
p87
aVhttp://schema.org/Country
p88
aVhttp://schema.org/Place
p89
aVhttp://umbel.org/umbel/rc/Country
p90
aVhttp://umbel.org/umbel/rc/Location_Underspecified
p91
aVhttp://umbel.org/umbel/rc/PopulatedPlace
p92
aVhttp://dbpedia.org/class/yago/AdministrativeDistrict108491826
p93
aVhttp://dbpedia.org/class/yago/Country108544813
p94
aVhttp://dbpedia.org/class/yago/District108552138
p95
aVhttp://dbpedia.org/class/yago/Location100027167
p96
aVhttp://dbpedia.org/class/yago/Object100002684
p97
aVhttp://dbpedia.org/class/yago/Region108630985
p98
aVhttp://dbpedia.org/class/yago/YagoGeoEntity
p99
aVhttp://dbpedia.org/class/yago/YagoLegalActorGeo
p100
aVhttp://dbpedia.org/class/yago/French-speakingCountries
p101
aVhttp://dbpedia.org/class/yago/PhysicalEntity100001930
p102
aVhttp://dbpedia.org/class/yago/YagoPermanentlyLocatedEntity
p103
aVhttp://dbpedia.org/class/yago/SpecialTerritoriesOfTheEuropeanUnion
p104
aVhttp://dbpedia.org/class/yago/StatesAndTerritoriesEstablishedIn1853
p105
asVdisambiguatedURL
p106
Vhttp://dbpedia.org/resource/New_Caledonia
p107
sVnamedEntity
p108
VNC
p109
sVoffset
p110
I2
saa(lp111
(dp112
Vstart
p113
I0
sg5
(lp114
Vhttp://www.w3.org/2002/07/owl#Thing
p115
aVhttp://xmlns.com/foaf/0.1/Person
p116
aVhttp://dbpedia.org/ontology/Person
p117
aVhttp://dbpedia.org/ontology/Actor
p118
aVhttp://www.ontologydesignpatterns.org/ont/dul/DUL.owl#Agent
p119
aVhttp://www.ontologydesignpatterns.org/ont/dul/DUL.owl#NaturalPerson
p120
aVhttp://www.wikidata.org/entity/Q215627
p121
aVhttp://www.wikidata.org/entity/Q33999
p122
aVhttp://www.wikidata.org/entity/Q483501
p123
aVhttp://www.wikidata.org/entity/Q5
p124
aVhttp://dbpedia.org/ontology/Agent
p125
aVhttp://dbpedia.org/ontology/Artist
p126
aVhttp://schema.org/Person
p127
aVhttp://umbel.org/umbel/rc/Actor
p128
aVhttp://umbel.org/umbel/rc/Artist
p129
aVhttp://dbpedia.org/class/yago/Actor109765278
p130
aVhttp://dbpedia.org/class/yago/Artist109812338
p131
aVhttp://dbpedia.org/class/yago/CantopopSingers
p132
aVhttp://dbpedia.org/class/yago/CausalAgent100007347
p133
aVhttp://dbpedia.org/class/yago/Creator109614315
p134
aVhttp://dbpedia.org/class/yago/Entertainer109616922
p135
aVhttp://dbpedia.org/class/yago/LivingThing100004258
p136
aVhttp://dbpedia.org/class/yago/Musician110339966
p137
aVhttp://dbpedia.org/class/yago/Musician110340312
p138
aVhttp://dbpedia.org/class/yago/Object100002684
p139
aVhttp://dbpedia.org/class/yago/Organism100004475
p140
aVhttp://dbpedia.org/class/yago/Performer110415638
p141
aVhttp://dbpedia.org/class/yago/Person100007846
p142
aVhttp://dbpedia.org/class/yago/Singer110599806
p143
aVhttp://dbpedia.org/class/yago/Whole100003553
p144
aVhttp://dbpedia.org/class/yago/YagoLegalActorGeo
p145
aVhttp://dbpedia.org/class/yago/PhysicalEntity100001930
p146
aVhttp://dbpedia.org/class/yago/HongKongFilmActors
p147
aVhttp://dbpedia.org/class/yago/HongKongMandopopSingers
p148
aVhttp://dbpedia.org/class/yago/HongKongPeopleOfChaoshaneseDescent
p149
aVhttp://dbpedia.org/class/yago/HongKongSingers
p150
aVhttp://dbpedia.org/class/yago/HongKongTelevisionActors
p151
aVhttp://dbpedia.org/class/yago/LivingPeople
p152
aVhttp://dbpedia.org/class/yago/YagoLegalActor
p153
aVhttp://dbpedia.org/class/yago/TVBActors
p154
asVdisambiguatedURL
p155
Vhttp://dbpedia.org/resource/Sammi_Cheng
p156
sVnamedEntity
p157
VMI
p158
sVoffset
p159
I2
saa(lp160
(dp161
Vstart
p162
I0
sg5
(lp163
Vhttp://www.w3.org/2002/07/owl#Thing
p164
aVhttp://umbel.org/umbel/rc/PopulatedPlace
p165
aVhttp://dbpedia.org/class/yago/AdministrativeDistrict108491826
p166
aVhttp://dbpedia.org/class/yago/Country108544813
p167
aVhttp://dbpedia.org/class/yago/District108552138
p168
aVhttp://dbpedia.org/class/yago/Location100027167
p169
aVhttp://dbpedia.org/class/yago/Object100002684
p170
aVhttp://dbpedia.org/class/yago/Region108630985
p171
aVhttp://dbpedia.org/class/yago/YagoGeoEntity
p172
aVhttp://dbpedia.org/class/yago/YagoLegalActorGeo
p173
aVhttp://dbpedia.org/class/yago/PhysicalEntity100001930
p174
aVhttp://dbpedia.org/class/yago/YagoPermanentlyLocatedEntity
p175
aVhttp://dbpedia.org/class/yago/StatesAndTerritoriesEstablishedIn1848
p176
aVhttp://dbpedia.org/class/yago/StatesOfTheUnitedStates
p177
asVdisambiguatedURL
p178
Vhttp://dbpedia.org/resource/Wisconsin
p179
sVnamedEntity
p180
VWI
p181
sVoffset
p182
I2
saa(lp183
(dp184
Vstart
p185
I0
sg5
(lp186
Vhttp://www.w3.org/2002/07/owl#Thing
p187
aVhttp://dbpedia.org/ontology/Place
p188
aVhttp://dbpedia.org/ontology/Location
p189
aVhttp://www.wikidata.org/entity/Q486972
p190
aVhttp://www.wikidata.org/entity/Q6256
p191
aVhttp://dbpedia.org/ontology/Country
p192
aVhttp://dbpedia.org/ontology/PopulatedPlace
p193
aVhttp://www.w3.org/2003/01/geo/wgs84_pos#SpatialThing
p194
aVhttp://schema.org/Country
p195
aVhttp://schema.org/Place
p196
aVhttp://umbel.org/umbel/rc/Country
p197
aVhttp://umbel.org/umbel/rc/Location_Underspecified
p198
aVhttp://umbel.org/umbel/rc/PopulatedPlace
p199
aVhttp://dbpedia.org/class/yago/Abstraction100002137
p200
aVhttp://dbpedia.org/class/yago/AdministrativeDistrict108491826
p201
aVhttp://dbpedia.org/class/yago/AfricanCountries
p202
aVhttp://dbpedia.org/class/yago/AfricanUnionMemberEconomies
p203
aVhttp://dbpedia.org/class/yago/Arabic-speakingCountriesAndTerritories
p204
aVhttp://dbpedia.org/class/yago/Country108544813
p205
aVhttp://dbpedia.org/class/yago/District108552138
p206
aVhttp://dbpedia.org/class/yago/Economy108366753
p207
aVhttp://dbpedia.org/class/yago/Group100031264
p208
aVhttp://dbpedia.org/class/yago/Location100027167
p209
aVhttp://dbpedia.org/class/yago/Object100002684
p210
aVhttp://dbpedia.org/class/yago/Region108630985
p211
aVhttp://dbpedia.org/class/yago/System108435388
p212
aVhttp://dbpedia.org/class/yago/YagoGeoEntity
p213
aVhttp://dbpedia.org/class/yago/YagoLegalActorGeo
p214
aVhttp://dbpedia.org/class/yago/CountriesOfTheMediterraneanSea
p215
aVhttp://dbpedia.org/class/yago/French-speakingCountries
p216
aVhttp://dbpedia.org/class/yago/PhysicalEntity100001930
p217
aVhttp://dbpedia.org/class/yago/YagoPermanentlyLocatedEntity
p218
aVhttp://dbpedia.org/class/yago/MemberStatesOfLaFrancophonie
p219
aVhttp://dbpedia.org/class/yago/MemberStatesOfTheAfricanUnion
p220
aVhttp://dbpedia.org/class/yago/MemberStatesOfTheArabLeague
p221
aVhttp://dbpedia.org/class/yago/MemberStatesOfTheOrganisationOfIslamicCooperation
p222
aVhttp://dbpedia.org/class/yago/MemberStatesOfTheUnionForTheMediterranean
p223
aVhttp://dbpedia.org/class/yago/MemberStatesOfTheUnitedNations
p224
aVhttp://dbpedia.org/class/yago/SouthernMediterraneanCountries
p225
aVhttp://dbpedia.org/class/yago/StatesAndTerritoriesEstablishedIn1956
p226
aVhttp://dbpedia.org/class/yago/WorldTradeOrganizationMemberEconomies
p227
asVdisambiguatedURL
p228
Vhttp://dbpedia.org/resource/Tunisia
p229
sVnamedEntity
p230
VTN
p231
sVoffset
p232
I2
saa(lp233
(dp234
Vstart
p235
I0
sg5
(lp236
Vhttp://www.w3.org/2002/07/owl#Thing
p237
aVhttp://dbpedia.org/ontology/Company
p238
aVhttp://www.ontologydesignpatterns.org/ont/dul/DUL.owl#Agent
p239
aVhttp://www.ontologydesignpatterns.org/ont/dul/DUL.owl#SocialPerson
p240
aVhttp://www.wikidata.org/entity/Q43229
p241
aVhttp://dbpedia.org/ontology/Agent
p242
aVhttp://dbpedia.org/ontology/Organisation
p243
aVhttp://schema.org/Organization
p244
aVhttp://dbpedia.org/class/yago/Abstraction100002137
p245
aVhttp://dbpedia.org/class/yago/Company108058098
p246
aVhttp://dbpedia.org/class/yago/Group100031264
p247
aVhttp://dbpedia.org/class/yago/Institution108053576
p248
aVhttp://dbpedia.org/class/yago/Organization108008335
p249
aVhttp://dbpedia.org/class/yago/SocialGroup107950920
p250
aVhttp://dbpedia.org/class/yago/YagoLegalActorGeo
p251
aVhttp://dbpedia.org/class/yago/CompaniesEstablishedIn1994
p252
aVhttp://dbpedia.org/class/yago/YagoPermanentlyLocatedEntity
p253
aVhttp://dbpedia.org/class/yago/YagoLegalActor
p254
aVhttp://dbpedia.org/class/yago/SoftwareCompaniesOfBelgium
p255
asVdisambiguatedURL
p256
Vhttp://dbpedia.org/resource/Image-Line
p257
sVnamedEntity
p258
VIL
p259
sVoffset
p260
I2
saa(lp261
(dp262
Vstart
p263
I0
sg5
(lp264
Vhttp://www.w3.org/2002/07/owl#Thing
p265
aVhttp://dbpedia.org/ontology/Place
p266
aVhttp://dbpedia.org/ontology/Location
p267
aVhttp://www.wikidata.org/entity/Q486972
p268
aVhttp://www.wikidata.org/entity/Q6256
p269
aVhttp://dbpedia.org/ontology/Country
p270
aVhttp://dbpedia.org/ontology/PopulatedPlace
p271
aVhttp://www.w3.org/2003/01/geo/wgs84_pos#SpatialThing
p272
aVhttp://schema.org/Country
p273
aVhttp://schema.org/Place
p274
aVhttp://umbel.org/umbel/rc/Country
p275
aVhttp://umbel.org/umbel/rc/Location_Underspecified
p276
aVhttp://umbel.org/umbel/rc/PopulatedPlace
p277
aVhttp://dbpedia.org/class/yago/Abstraction100002137
p278
aVhttp://dbpedia.org/class/yago/AdministrativeDistrict108491826
p279
aVhttp://dbpedia.org/class/yago/CaribbeanCountries
p280
aVhttp://dbpedia.org/class/yago/Country108544813
p281
aVhttp://dbpedia.org/class/yago/District108552138
p282
aVhttp://dbpedia.org/class/yago/Economy108366753
p283
aVhttp://dbpedia.org/class/yago/Group100031264
p284
aVhttp://dbpedia.org/class/yago/Location100027167
p285
aVhttp://dbpedia.org/class/yago/Object100002684
p286
aVhttp://dbpedia.org/class/yago/Region108630985
p287
aVhttp://dbpedia.org/class/yago/System108435388
p288
aVhttp://dbpedia.org/class/yago/YagoGeoEntity
p289
aVhttp://dbpedia.org/class/yago/YagoLegalActorGeo
p290
aVhttp://dbpedia.org/class/yago/CountriesBorderingThePacificOcean
p291
aVhttp://dbpedia.org/class/yago/PhysicalEntity100001930
p292
aVhttp://dbpedia.org/class/yago/YagoPermanentlyLocatedEntity
p293
aVhttp://dbpedia.org/class/yago/MemberStatesOfTheUnionOfSouthAmericanNations
p294
aVhttp://dbpedia.org/class/yago/MemberStatesOfTheUnitedNations
p295
aVhttp://dbpedia.org/class/yago/SouthAmericanCountries
p296
aVhttp://dbpedia.org/class/yago/Spanish-speakingCountries
p297
aVhttp://dbpedia.org/class/yago/StatesAndTerritoriesEstablishedIn1810
p298
aVhttp://dbpedia.org/class/yago/WorldTradeOrganizationMemberEconomies
p299
asVdisambiguatedURL
p300
Vhttp://dbpedia.org/resource/Colombia
p301
sVnamedEntity
p302
VCO
p303
sVoffset
p304
I2
saa(lp305
(dp306
Vstart
p307
I0
sg5
(lp308
Vhttp://www.w3.org/2002/07/owl#Thing
p309
aVhttp://dbpedia.org/ontology/Place
p310
aVhttp://dbpedia.org/ontology/Location
p311
aVhttp://www.wikidata.org/entity/Q486972
p312
aVhttp://www.wikidata.org/entity/Q6256
p313
aVhttp://dbpedia.org/ontology/Country
p314
aVhttp://dbpedia.org/ontology/PopulatedPlace
p315
aVhttp://schema.org/Country
p316
aVhttp://schema.org/Place
p317
aVhttp://umbel.org/umbel/rc/Country
p318
aVhttp://umbel.org/umbel/rc/Location_Underspecified
p319
aVhttp://umbel.org/umbel/rc/PopulatedPlace
p320
aVhttp://dbpedia.org/class/yago/AdministrativeDistrict108491826
p321
aVhttp://dbpedia.org/class/yago/Country108544813
p322
aVhttp://dbpedia.org/class/yago/District108552138
p323
aVhttp://dbpedia.org/class/yago/Location100027167
p324
aVhttp://dbpedia.org/class/yago/Object100002684
p325
aVhttp://dbpedia.org/class/yago/Region108630985
p326
aVhttp://dbpedia.org/class/yago/YagoGeoEntity
p327
aVhttp://dbpedia.org/class/yago/YagoLegalActorGeo
p328
aVhttp://dbpedia.org/class/yago/French-speakingCountries
p329
aVhttp://dbpedia.org/class/yago/PhysicalEntity100001930
p330
aVhttp://dbpedia.org/class/yago/YagoPermanentlyLocatedEntity
p331
aVhttp://dbpedia.org/class/yago/SpecialTerritoriesOfTheEuropeanUnion
p332
aVhttp://dbpedia.org/class/yago/StatesAndTerritoriesEstablishedIn1853
p333
asVdisambiguatedURL
p334
Vhttp://dbpedia.org/resource/New_Caledonia
p335
sVnamedEntity
p336
VNC
p337
sVoffset
p338
I2
saa(lp339
(dp340
Vstart
p341
I0
sg5
(lp342
Vhttp://www.w3.org/2002/07/owl#Thing
p343
aVhttp://dbpedia.org/ontology/Place
p344
aVhttp://dbpedia.org/ontology/Location
p345
aVhttp://www.wikidata.org/entity/Q3455524
p346
aVhttp://www.wikidata.org/entity/Q486972
p347
aVhttp://dbpedia.org/ontology/AdministrativeRegion
p348
aVhttp://dbpedia.org/ontology/PopulatedPlace
p349
aVhttp://dbpedia.org/ontology/Region
p350
aVhttp://schema.org/AdministrativeArea
p351
aVhttp://schema.org/Place
p352
aVhttp://umbel.org/umbel/rc/PopulatedPlace
p353
aVhttp://dbpedia.org/class/yago/AdministrativeDistrict108491826
p354
aVhttp://dbpedia.org/class/yago/Country108544813
p355
aVhttp://dbpedia.org/class/yago/District108552138
p356
aVhttp://dbpedia.org/class/yago/Location100027167
p357
aVhttp://dbpedia.org/class/yago/Object100002684
p358
aVhttp://dbpedia.org/class/yago/Region108630985
p359
aVhttp://dbpedia.org/class/yago/YagoGeoEntity
p360
aVhttp://dbpedia.org/class/yago/YagoLegalActorGeo
p361
aVhttp://dbpedia.org/class/yago/PhysicalEntity100001930
p362
aVhttp://dbpedia.org/class/yago/YagoPermanentlyLocatedEntity
p363
aVhttp://dbpedia.org/class/yago/StatesAndTerritoriesEstablishedIn1845
p364
aVhttp://dbpedia.org/class/yago/StatesOfTheConfederateStatesOfAmerica
p365
aVhttp://dbpedia.org/class/yago/StatesOfTheSouthernUnitedStates
p366
aVhttp://dbpedia.org/class/yago/StatesOfTheUnitedStates
p367
asVdisambiguatedURL
p368
Vhttp://dbpedia.org/resource/Texas
p369
sVnamedEntity
p370
VTX
p371
sVoffset
p372
I2
saa(lp373
(dp374
Vstart
p375
I0
sg5
(lp376
Vhttp://www.w3.org/2002/07/owl#Thing
p377
aVhttp://xmlns.com/foaf/0.1/Person
p378
aVhttp://dbpedia.org/ontology/Person
p379
aVhttp://www.ontologydesignpatterns.org/ont/dul/DUL.owl#Agent
p380
aVhttp://www.ontologydesignpatterns.org/ont/dul/DUL.owl#NaturalPerson
p381
aVhttp://www.wikidata.org/entity/Q215627
p382
aVhttp://www.wikidata.org/entity/Q483501
p383
aVhttp://www.wikidata.org/entity/Q5
p384
aVhttp://dbpedia.org/ontology/Agent
p385
aVhttp://dbpedia.org/ontology/Artist
p386
aVhttp://dbpedia.org/ontology/MusicalArtist
p387
aVhttp://schema.org/MusicGroup
p388
aVhttp://schema.org/Person
p389
aVhttp://umbel.org/umbel/rc/Artist
p390
aVhttp://umbel.org/umbel/rc/MusicalPerformer
p391
aVhttp://dbpedia.org/class/yago/AfricanAmericanRappers
p392
aVhttp://dbpedia.org/class/yago/AftermathEntertainmentArtists
p393
aVhttp://dbpedia.org/class/yago/AmericanPeopleOfDominicanRepublicDescent
p394
aVhttp://dbpedia.org/class/yago/AmericanRappersOfDominicanRepublicDescent
p395
aVhttp://dbpedia.org/class/yago/Artist109812338
p396
aVhttp://dbpedia.org/class/yago/CausalAgent100007347
p397
aVhttp://dbpedia.org/class/yago/Creator109614315
p398
aVhttp://dbpedia.org/class/yago/Entertainer109616922
p399
aVhttp://dbpedia.org/class/yago/LivingThing100004258
p400
aVhttp://dbpedia.org/class/yago/Musician110339966
p401
aVhttp://dbpedia.org/class/yago/Musician110340312
p402
aVhttp://dbpedia.org/class/yago/Object100002684
p403
aVhttp://dbpedia.org/class/yago/Organism100004475
p404
aVhttp://dbpedia.org/class/yago/Performer110415638
p405
aVhttp://dbpedia.org/class/yago/Person100007846
p406
aVhttp://dbpedia.org/class/yago/Rapper110507482
p407
aVhttp://dbpedia.org/class/yago/Singer110599806
p408
aVhttp://dbpedia.org/class/yago/Whole100003553
p409
aVhttp://dbpedia.org/class/yago/YagoLegalActorGeo
p410
aVhttp://dbpedia.org/class/yago/EMIRecordsArtists
p411
aVhttp://dbpedia.org/class/yago/PhysicalEntity100001930
p412
aVhttp://dbpedia.org/class/yago/LivingPeople
p413
aVhttp://dbpedia.org/class/yago/MotownArtists
p414
aVhttp://dbpedia.org/class/yago/PeopleFromBrooklyn
p415
aVhttp://dbpedia.org/class/yago/YagoLegalActor
p416
aVhttp://dbpedia.org/class/yago/RappersFromNewYorkCity
p417
aVhttp://dbpedia.org/class/yago/UndergroundRappers
p418
aVhttp://dbpedia.org/class/yago/VirginRecordsArtists
p419
asVdisambiguatedURL
p420
Vhttp://dbpedia.org/resource/AZ_(rapper)
p421
sVnamedEntity
p422
VAZ
p423
sVoffset
p424
I2
saa(lp425
(dp426
Vstart
p427
I0
sg5
(lp428
Vhttp://www.w3.org/2002/07/owl#Thing
p429
aVhttp://dbpedia.org/ontology/Company
p430
aVhttp://www.ontologydesignpatterns.org/ont/dul/DUL.owl#Agent
p431
aVhttp://www.ontologydesignpatterns.org/ont/dul/DUL.owl#SocialPerson
p432
aVhttp://www.wikidata.org/entity/Q43229
p433
aVhttp://dbpedia.org/ontology/Agent
p434
aVhttp://dbpedia.org/ontology/Organisation
p435
aVhttp://schema.org/Organization
p436
aVhttp://dbpedia.org/class/yago/Abstraction100002137
p437
aVhttp://dbpedia.org/class/yago/Company108058098
p438
aVhttp://dbpedia.org/class/yago/Group100031264
p439
aVhttp://dbpedia.org/class/yago/Institution108053576
p440
aVhttp://dbpedia.org/class/yago/Organization108008335
p441
aVhttp://dbpedia.org/class/yago/SocialGroup107950920
p442
aVhttp://dbpedia.org/class/yago/YagoLegalActorGeo
p443
aVhttp://dbpedia.org/class/yago/CompaniesEstablishedIn1994
p444
aVhttp://dbpedia.org/class/yago/YagoPermanentlyLocatedEntity
p445
aVhttp://dbpedia.org/class/yago/YagoLegalActor
p446
aVhttp://dbpedia.org/class/yago/SoftwareCompaniesOfBelgium
p447
asVdisambiguatedURL
p448
Vhttp://dbpedia.org/resource/Image-Line
p449
sVnamedEntity
p450
VIL
p451
sVoffset
p452
I2
saa(lp453
(dp454
Vstart
p455
I0
sg5
(lp456
Vhttp://www.w3.org/2002/07/owl#Thing
p457
aVhttp://dbpedia.org/ontology/Place
p458
aVhttp://dbpedia.org/ontology/Location
p459
aVhttp://www.wikidata.org/entity/Q3455524
p460
aVhttp://www.wikidata.org/entity/Q486972
p461
aVhttp://dbpedia.org/ontology/AdministrativeRegion
p462
aVhttp://dbpedia.org/ontology/PopulatedPlace
p463
aVhttp://dbpedia.org/ontology/Region
p464
aVhttp://schema.org/AdministrativeArea
p465
aVhttp://schema.org/Place
p466
aVhttp://umbel.org/umbel/rc/PopulatedPlace
p467
aVhttp://dbpedia.org/class/yago/AdministrativeDistrict108491826
p468
aVhttp://dbpedia.org/class/yago/Country108544813
p469
aVhttp://dbpedia.org/class/yago/District108552138
p470
aVhttp://dbpedia.org/class/yago/Location100027167
p471
aVhttp://dbpedia.org/class/yago/Object100002684
p472
aVhttp://dbpedia.org/class/yago/Region108630985
p473
aVhttp://dbpedia.org/class/yago/YagoGeoEntity
p474
aVhttp://dbpedia.org/class/yago/YagoLegalActorGeo
p475
aVhttp://dbpedia.org/class/yago/PhysicalEntity100001930
p476
aVhttp://dbpedia.org/class/yago/YagoPermanentlyLocatedEntity
p477
aVhttp://dbpedia.org/class/yago/StatesAndTerritoriesEstablishedIn1845
p478
aVhttp://dbpedia.org/class/yago/StatesOfTheConfederateStatesOfAmerica
p479
aVhttp://dbpedia.org/class/yago/StatesOfTheSouthernUnitedStates
p480
aVhttp://dbpedia.org/class/yago/StatesOfTheUnitedStates
p481
asVdisambiguatedURL
p482
Vhttp://dbpedia.org/resource/Texas
p483
sVnamedEntity
p484
VTX
p485
sVoffset
p486
I2
saa(lp487
(dp488
Vstart
p489
I0
sg5
(lp490
Vhttp://www.w3.org/2002/07/owl#Thing
p491
aVhttp://dbpedia.org/ontology/Place
p492
aVhttp://dbpedia.org/ontology/Location
p493
aVhttp://www.wikidata.org/entity/Q3455524
p494
aVhttp://www.wikidata.org/entity/Q486972
p495
aVhttp://dbpedia.org/ontology/AdministrativeRegion
p496
aVhttp://dbpedia.org/ontology/PopulatedPlace
p497
aVhttp://dbpedia.org/ontology/Region
p498
aVhttp://schema.org/AdministrativeArea
p499
aVhttp://schema.org/Place
p500
aVhttp://umbel.org/umbel/rc/PopulatedPlace
p501
aVhttp://dbpedia.org/class/yago/County108546183
p502
aVhttp://dbpedia.org/class/yago/Location100027167
p503
aVhttp://dbpedia.org/class/yago/Object100002684
p504
aVhttp://dbpedia.org/class/yago/Region108630039
p505
aVhttp://dbpedia.org/class/yago/YagoGeoEntity
p506
aVhttp://dbpedia.org/class/yago/YagoLegalActorGeo
p507
aVhttp://dbpedia.org/class/yago/CountiesOfEnglandEstablishedIn1974
p508
aVhttp://dbpedia.org/class/yago/PhysicalEntity100001930
p509
aVhttp://dbpedia.org/class/yago/YagoPermanentlyLocatedEntity
p510
aVhttp://dbpedia.org/class/yago/Non-metropolitanCounties
p511
asVdisambiguatedURL
p512
Vhttp://dbpedia.org/resource/North_Yorkshire
p513
sVnamedEntity
p514
VNY
p515
sVoffset
p516
I2
saa(lp517
a(lp518
(dp519
Vstart
p520
I0
sg5
(lp521
Vhttp://www.w3.org/2002/07/owl#Thing
p522
aVhttp://xmlns.com/foaf/0.1/Person
p523
aVhttp://dbpedia.org/ontology/Person
p524
aVhttp://www.ontologydesignpatterns.org/ont/dul/DUL.owl#Agent
p525
aVhttp://www.ontologydesignpatterns.org/ont/dul/DUL.owl#NaturalPerson
p526
aVhttp://www.wikidata.org/entity/Q215627
p527
aVhttp://www.wikidata.org/entity/Q483501
p528
aVhttp://www.wikidata.org/entity/Q5
p529
aVhttp://dbpedia.org/ontology/Agent
p530
aVhttp://dbpedia.org/ontology/Artist
p531
aVhttp://dbpedia.org/ontology/MusicalArtist
p532
aVhttp://schema.org/MusicGroup
p533
aVhttp://schema.org/Person
p534
aVhttp://umbel.org/umbel/rc/Artist
p535
aVhttp://umbel.org/umbel/rc/MusicalPerformer
p536
aVhttp://dbpedia.org/class/yago/AfricanAmericanRappers
p537
aVhttp://dbpedia.org/class/yago/AftermathEntertainmentArtists
p538
aVhttp://dbpedia.org/class/yago/AmericanPeopleOfDominicanRepublicDescent
p539
aVhttp://dbpedia.org/class/yago/AmericanRappersOfDominicanRepublicDescent
p540
aVhttp://dbpedia.org/class/yago/Artist109812338
p541
aVhttp://dbpedia.org/class/yago/CausalAgent100007347
p542
aVhttp://dbpedia.org/class/yago/Creator109614315
p543
aVhttp://dbpedia.org/class/yago/Entertainer109616922
p544
aVhttp://dbpedia.org/class/yago/LivingThing100004258
p545
aVhttp://dbpedia.org/class/yago/Musician110339966
p546
aVhttp://dbpedia.org/class/yago/Musician110340312
p547
aVhttp://dbpedia.org/class/yago/Object100002684
p548
aVhttp://dbpedia.org/class/yago/Organism100004475
p549
aVhttp://dbpedia.org/class/yago/Performer110415638
p550
aVhttp://dbpedia.org/class/yago/Person100007846
p551
aVhttp://dbpedia.org/class/yago/Rapper110507482
p552
aVhttp://dbpedia.org/class/yago/Singer110599806
p553
aVhttp://dbpedia.org/class/yago/Whole100003553
p554
aVhttp://dbpedia.org/class/yago/YagoLegalActorGeo
p555
aVhttp://dbpedia.org/class/yago/EMIRecordsArtists
p556
aVhttp://dbpedia.org/class/yago/PhysicalEntity100001930
p557
aVhttp://dbpedia.org/class/yago/LivingPeople
p558
aVhttp://dbpedia.org/class/yago/MotownArtists
p559
aVhttp://dbpedia.org/class/yago/PeopleFromBrooklyn
p560
aVhttp://dbpedia.org/class/yago/YagoLegalActor
p561
aVhttp://dbpedia.org/class/yago/RappersFromNewYorkCity
p562
aVhttp://dbpedia.org/class/yago/UndergroundRappers
p563
aVhttp://dbpedia.org/class/yago/VirginRecordsArtists
p564
asVdisambiguatedURL
p565
Vhttp://dbpedia.org/resource/AZ_(rapper)
p566
sVnamedEntity
p567
VAZ
p568
sVoffset
p569
I2
saa(lp570
(dp571
Vstart
p572
I0
sg5
(lp573
Vhttp://www.w3.org/2002/07/owl#Thing
p574
aVhttp://dbpedia.org/ontology/Place
p575
aVhttp://dbpedia.org/ontology/Location
p576
aVhttp://www.wikidata.org/entity/Q3455524
p577
aVhttp://www.wikidata.org/entity/Q486972
p578
aVhttp://dbpedia.org/ontology/AdministrativeRegion
p579
aVhttp://dbpedia.org/ontology/PopulatedPlace
p580
aVhttp://dbpedia.org/ontology/Region
p581
aVhttp://schema.org/AdministrativeArea
p582
aVhttp://schema.org/Place
p583
aVhttp://umbel.org/umbel/rc/PopulatedPlace
p584
aVhttp://dbpedia.org/class/yago/AdministrativeDistrict108491826
p585
aVhttp://dbpedia.org/class/yago/Country108544813
p586
aVhttp://dbpedia.org/class/yago/District108552138
p587
aVhttp://dbpedia.org/class/yago/Location100027167
p588
aVhttp://dbpedia.org/class/yago/Object100002684
p589
aVhttp://dbpedia.org/class/yago/Region108630985
p590
aVhttp://dbpedia.org/class/yago/YagoGeoEntity
p591
aVhttp://dbpedia.org/class/yago/YagoLegalActorGeo
p592
aVhttp://dbpedia.org/class/yago/PhysicalEntity100001930
p593
aVhttp://dbpedia.org/class/yago/YagoPermanentlyLocatedEntity
p594
aVhttp://dbpedia.org/class/yago/StatesAndTerritoriesEstablishedIn1845
p595
aVhttp://dbpedia.org/class/yago/StatesOfTheConfederateStatesOfAmerica
p596
aVhttp://dbpedia.org/class/yago/StatesOfTheSouthernUnitedStates
p597
aVhttp://dbpedia.org/class/yago/StatesOfTheUnitedStates
p598
asVdisambiguatedURL
p599
Vhttp://dbpedia.org/resource/Texas
p600
sVnamedEntity
p601
VTX
p602
sVoffset
p603
I2
saa(lp604
(dp605
Vstart
p606
I0
sg5
(lp607
Vhttp://www.w3.org/2002/07/owl#Thing
p608
aVhttp://dbpedia.org/ontology/Place
p609
aVhttp://dbpedia.org/ontology/Location
p610
aVhttp://www.wikidata.org/entity/Q3455524
p611
aVhttp://www.wikidata.org/entity/Q486972
p612
aVhttp://dbpedia.org/ontology/AdministrativeRegion
p613
aVhttp://dbpedia.org/ontology/PopulatedPlace
p614
aVhttp://dbpedia.org/ontology/Region
p615
aVhttp://schema.org/AdministrativeArea
p616
aVhttp://schema.org/Place
p617
aVhttp://umbel.org/umbel/rc/PopulatedPlace
p618
aVhttp://dbpedia.org/class/yago/AdministrativeDistrict108491826
p619
aVhttp://dbpedia.org/class/yago/Country108544813
p620
aVhttp://dbpedia.org/class/yago/District108552138
p621
aVhttp://dbpedia.org/class/yago/Location100027167
p622
aVhttp://dbpedia.org/class/yago/Object100002684
p623
aVhttp://dbpedia.org/class/yago/Region108630985
p624
aVhttp://dbpedia.org/class/yago/YagoGeoEntity
p625
aVhttp://dbpedia.org/class/yago/YagoLegalActorGeo
p626
aVhttp://dbpedia.org/class/yago/PhysicalEntity100001930
p627
aVhttp://dbpedia.org/class/yago/YagoPermanentlyLocatedEntity
p628
aVhttp://dbpedia.org/class/yago/NortheasternUnitedStates
p629
aVhttp://dbpedia.org/class/yago/StatesAndTerritoriesEstablishedIn1788
p630
aVhttp://dbpedia.org/class/yago/StatesOfTheUnitedStates
p631
asVdisambiguatedURL
p632
Vhttp://dbpedia.org/resource/Connecticut
p633
sVnamedEntity
p634
VCT
p635
sVoffset
p636
I2
saa(lp637
(dp638
Vstart
p639
I0
sg5
(lp640
Vhttp://www.w3.org/2002/07/owl#Thing
p641
aVhttp://www.ontologydesignpatterns.org/ont/dul/DUL.owl#Agent
p642
aVhttp://www.ontologydesignpatterns.org/ont/dul/DUL.owl#SocialPerson
p643
aVhttp://www.wikidata.org/entity/Q215380
p644
aVhttp://www.wikidata.org/entity/Q43229
p645
aVhttp://dbpedia.org/ontology/Agent
p646
aVhttp://dbpedia.org/ontology/Band
p647
aVhttp://dbpedia.org/ontology/Group
p648
aVhttp://dbpedia.org/ontology/Organisation
p649
aVhttp://schema.org/MusicGroup
p650
aVhttp://schema.org/Organization
p651
aVhttp://umbel.org/umbel/rc/Band_MusicGroup
p652
aVhttp://umbel.org/umbel/rc/Organization
p653
aVhttp://dbpedia.org/class/yago/Abstraction100002137
p654
aVhttp://dbpedia.org/class/yago/AlternativeRockGroupsFromOklahoma
p655
aVhttp://dbpedia.org/class/yago/DanceBand108249960
p656
aVhttp://dbpedia.org/class/yago/Group100031264
p657
aVhttp://dbpedia.org/class/yago/MusicalOrganization108246613
p658
aVhttp://dbpedia.org/class/yago/Organization108008335
p659
aVhttp://dbpedia.org/class/yago/RockGroup108250501
p660
aVhttp://dbpedia.org/class/yago/SocialGroup107950920
p661
aVhttp://dbpedia.org/class/yago/YagoLegalActorGeo
p662
aVhttp://dbpedia.org/class/yago/YagoPermanentlyLocatedEntity
p663
aVhttp://dbpedia.org/class/yago/MusicalGroupsEstablishedIn1983
p664
aVhttp://dbpedia.org/class/yago/MusicalGroupsFromOklahoma
p665
aVhttp://dbpedia.org/class/yago/YagoLegalActor
p666
asVdisambiguatedURL
p667
Vhttp://dbpedia.org/resource/The_Flaming_Lips
p668
sVnamedEntity
p669
VFL
p670
sVoffset
p671
I2
saa.