(lp1
(dp2
I0
(dp3
I0
(lp4
sI1
(lp5
ssI1
(dp6
I1
(lp7
ssa(dp8
I0
(dp9
I0
(lp10
sI1
(lp11
ssI1
(dp12
I0
g11
sI1
(lp13
ssa(dp14
I0
(dp15
I0
(lp16
sI1
(lp17
ssI1
(dp18
I1
(lp19
ssa(dp20
I0
(dp21
I0
(lp22
sI1
(lp23
ssI1
(dp24
I0
g23
sI1
(lp25
ssa(dp26
I0
(dp27
I0
(lp28
sI1
(lp29
ssI1
(dp30
I1
(lp31
ssa.