(lp1
(lp2
(dp3
Vstart
p4
I0
sVdisambiguatedURL
p5
Vhttp://dbpedia.org/resource/16:9
p6
sVnamedEntity
p7
V16 to 19
p8
sVoffset
p9
I8
saa(lp10
(dp11
Vstart
p12
I0
sVdisambiguatedURL
p13
NsVnamedEntity
p14
V20 to 24
p15
sVoffset
p16
I8
saa(lp17
(dp18
Vstart
p19
I0
sVdisambiguatedURL
p20
NsVnamedEntity
p21
V25 to 44
p22
sVoffset
p23
I8
saa(lp24
(dp25
Vstart
p26
I0
sVdisambiguatedURL
p27
NsVnamedEntity
p28
V45 to 54
p29
sVoffset
p30
I8
saa(lp31
(dp32
Vstart
p33
I0
sVdisambiguatedURL
p34
NsVnamedEntity
p35
V55 to 64
p36
sVoffset
p37
I8
saa(lp38
(dp39
Vstart
p40
I0
sVdisambiguatedURL
p41
NsVnamedEntity
p42
V65 to 74
p43
sVoffset
p44
I8
saa(lp45
(dp46
Vstart
p47
I0
sVdisambiguatedURL
p48
NsVnamedEntity
p49
V75 and over
p50
sVoffset
p51
I11
saa.