(lp1
(lp2
(lp3
Vhttp://dbpedia.org/resource/Null
p4
aa(lp5
Vhttp://dbpedia.org/resource/Jon_Tester
p6
aa(lp7
Vhttp://dbpedia.org/resource/One_Day_International
p8
aaa(lp9
(lp10
a(lp11
a(lp12
aa(lp13
(lp14
Vhttp://dbpedia.org/resource/Over_(cricket)
p15
aa(lp16
a(lp17
aa(lp18
(lp19
Vhttp://dbpedia.org/resource/Virginity
p20
aa(lp21
a(lp22
aa(lp23
(lp24
Vhttp://dbpedia.org/resource/Run
p25
aa(lp26
a(lp27
aa(lp28
(lp29
Vhttp://dbpedia.org/resource/Wicket
p30
aa(lp31
a(lp32
aa(lp33
(lp34
Vhttp://dbpedia.org/resource/West_Bowling
p35
aa(lp36
a(lp37
aa(lp38
(lp39
a(lp40
a(lp41
aa(lp42
(lp43
Vhttp://dbpedia.org/resource/Ecology
p44
aa(lp45
a(lp46
aa(lp47
(lp48
a(lp49
a(lp50
aa(lp51
(lp52
a(lp53
a(lp54
aa(lp55
(lp56
a(lp57
a(lp58
aa(lp59
(lp60
a(lp61
a(lp62
aa(lp63
(lp64
a(lp65
a(lp66
aa(lp67
(lp68
a(lp69
a(lp70
aa.