ccollections
defaultdict
p1
(c__builtin__
dict
p2
tRp3
I2
(dp4
I0
(lp5
Vhttp://www.w3.org/1999/02/22-rdf-syntax-ns#type
p6
aVhttp://purl.org/dc/terms/subject
p7
aVhttp://dbpedia.org/ontology/abstract
p8
aVhttp://purl.org/voc/vrank#hasRank
p9
aVhttp://dbpedia.org/ontology/issn
p10
aVhttp://dbpedia.org/ontology/oclc
p11
asI1
(lp12
ssI3
(dp13
I0
(lp14
Vhttp://www.w3.org/ns/prov#wasDerivedFrom
p15
aVhttp://purl.org/voc/vrank#hasRank
p16
aVhttp://dbpedia.org/property/hasPhotoCollection
p17
aVhttp://www.w3.org/1999/02/22-rdf-syntax-ns#type
p18
aVhttp://www.w3.org/2002/07/owl#sameAs
p19
asI1
(lp20
ssI7
(dp21
I0
(lp22
Vhttp://www.w3.org/1999/02/22-rdf-syntax-ns#type
p23
aVhttp://purl.org/dc/terms/subject
p24
aVhttp://www.w3.org/2000/01/rdf-schema#comment
p25
aVhttp://dbpedia.org/ontology/abstract
p26
aVhttp://purl.org/voc/vrank#hasRank
p27
aVhttp://www.w3.org/2002/07/owl#sameAs
p28
asI1
(lp29
ssI8
(dp30
I0
(lp31
Vhttp://dbpedia.org/ontology/leaderFunction
p32
aVhttp://dbpedia.org/ontology/abstract
p33
aVhttp://www.w3.org/1999/02/22-rdf-syntax-ns#type
p34
aVhttp://purl.org/voc/vrank#hasRank
p35
asI1
(lp36
ssI11
(dp37
I0
(lp38
Vhttp://dbpedia.org/ontology/wikiPageExternalLink
p39
aVhttp://www.w3.org/2002/07/owl#sameAs
p40
asI1
(lp41
ssI22
(dp42
I0
(lp43
sI1
(lp44
ss.