(lp1
(lp2
(lp3
a(lp4
a(lp5
aa(lp6
(lp7
a(lp8
a(lp9
aa(lp10
(lp11
a(lp12
a(lp13
aa(lp14
(lp15
a(lp16
a(lp17
((lp18
Vhttp://www.w3.org/2002/07/owl#Thing
p19
aVhttp://www.wikidata.org/entity/Q1092563
p20
aVhttp://www.wikidata.org/entity/Q386724
p21
aVhttp://www.wikidata.org/entity/Q737498
p22
aVhttp://dbpedia.org/ontology/AcademicJournal
p23
aVhttp://dbpedia.org/ontology/PeriodicalLiterature
p24
aVhttp://dbpedia.org/ontology/Work
p25
aVhttp://dbpedia.org/ontology/WrittenWork
p26
aVhttp://schema.org/CreativeWork
p27
aVhttp://dbpedia.org/resource/European_Neuropsychopharmacology
tp28
aaa(lp29
(lp30
a(lp31
a(lp32
((lp33
Vhttp://www.w3.org/2002/07/owl#Thing
p34
aVhttp://www.wikidata.org/entity/Q1092563
p35
aVhttp://www.wikidata.org/entity/Q386724
p36
aVhttp://www.wikidata.org/entity/Q737498
p37
aVhttp://dbpedia.org/ontology/AcademicJournal
p38
aVhttp://dbpedia.org/ontology/PeriodicalLiterature
p39
aVhttp://dbpedia.org/ontology/Work
p40
aVhttp://dbpedia.org/ontology/WrittenWork
p41
aVhttp://schema.org/CreativeWork
p42
aVhttp://dbpedia.org/resource/European_Polymer_Journal
tp43
aaa(lp44
(lp45
a(lp46
a(lp47
aa(lp48
(lp49
a(lp50
a(lp51
aa(lp52
(lp53
a(lp54
a(lp55
((lp56
Vhttp://www.w3.org/2002/07/owl#Thing
p57
aVhttp://www.wikidata.org/entity/Q1092563
p58
aVhttp://www.wikidata.org/entity/Q386724
p59
aVhttp://www.wikidata.org/entity/Q737498
p60
aVhttp://dbpedia.org/ontology/AcademicJournal
p61
aVhttp://dbpedia.org/ontology/PeriodicalLiterature
p62
aVhttp://dbpedia.org/ontology/Work
p63
aVhttp://dbpedia.org/ontology/WrittenWork
p64
aVhttp://schema.org/CreativeWork
p65
aVhttp://dbpedia.org/class/yago/Artifact100021939
p66
aVhttp://dbpedia.org/class/yago/BiweeklyJournals
p67
aVhttp://dbpedia.org/class/yago/Creation103129123
p68
aVhttp://dbpedia.org/class/yago/Object100002684
p69
aVhttp://dbpedia.org/class/yago/Periodical106593296
p70
aVhttp://dbpedia.org/class/yago/Product104007894
p71
aVhttp://dbpedia.org/class/yago/Publication106589574
p72
aVhttp://dbpedia.org/class/yago/Whole100003553
p73
aVhttp://dbpedia.org/class/yago/English-languageJournals
p74
aVhttp://dbpedia.org/class/yago/PhysicalEntity100001930
p75
aVhttp://dbpedia.org/class/yago/Work104599396
p76
aVhttp://dbpedia.org/class/yago/PhysicsJournals
p77
aVhttp://dbpedia.org/class/yago/PublicationsEstablishedIn1986
p78
aVhttp://dbpedia.org/resource/EPL_(journal)
tp79
aaa(lp80
(lp81
a(lp82
a(lp83
aa(lp84
(lp85
a(lp86
a(lp87
aa(lp88
(lp89
a(lp90
a(lp91
aa(lp92
(lp93
((lp94
Vhttp://umbel.org/umbel/rc/AilmentCondition
p95
aVhttp://dbpedia.org/resource/Withdrawal
tp96
aa(lp97
a(lp98
aa(lp99
(lp100
((lp101
Vhttp://umbel.org/umbel/rc/AilmentCondition
p102
aVhttp://dbpedia.org/resource/Withdrawal
tp103
aa(lp104
a(lp105
aa(lp106
(lp107
a(lp108
a(lp109
aa(lp110
(lp111
a(lp112
a(lp113
aa(lp114
(lp115
a(lp116
a(lp117
((lp118
Vhttp://www.w3.org/2002/07/owl#Thing
p119
aVhttp://www.wikidata.org/entity/Q1092563
p120
aVhttp://www.wikidata.org/entity/Q386724
p121
aVhttp://www.wikidata.org/entity/Q737498
p122
aVhttp://dbpedia.org/ontology/AcademicJournal
p123
aVhttp://dbpedia.org/ontology/PeriodicalLiterature
p124
aVhttp://dbpedia.org/ontology/Work
p125
aVhttp://dbpedia.org/ontology/WrittenWork
p126
aVhttp://schema.org/CreativeWork
p127
aVhttp://dbpedia.org/resource/Evolution_and_Human_Behavior
tp128
aaa(lp129
(lp130
a(lp131
a(lp132
((lVhttp://dbpedia.org/resource/Evolutionary_anthropology
p133
tp134
aaa(lp135
(lp136
a(lp137
a(lp138
aa(lp139
(lp140
a(lp141
a(lp142
aa(lp143
(lp144
a(lp145
a(lp146
aa.