(lp1
(lp2
(dp3
Vstart
p4
I0
sVdisambiguatedURL
p5
NsVnamedEntity
p6
V0
sVoffset
p7
I1
saa(lp8
(dp9
Vstart
p10
I0
sVdisambiguatedURL
p11
NsVnamedEntity
p12
V0
sVoffset
p13
I1
saa(lp14
(dp15
Vstart
p16
I0
sVdisambiguatedURL
p17
NsVnamedEntity
p18
V1
sVoffset
p19
I1
saa(lp20
(dp21
Vstart
p22
I0
sVdisambiguatedURL
p23
NsVnamedEntity
p24
V0
sVoffset
p25
I1
saa(lp26
(dp27
Vstart
p28
I0
sVdisambiguatedURL
p29
NsVnamedEntity
p30
V7
sVoffset
p31
I1
saa(lp32
(dp33
Vstart
p34
I0
sVdisambiguatedURL
p35
NsVnamedEntity
p36
V3
sVoffset
p37
I1
saa(lp38
(dp39
Vstart
p40
I0
sVdisambiguatedURL
p41
NsVnamedEntity
p42
V1
sVoffset
p43
I1
saa(lp44
(dp45
Vstart
p46
I0
sVdisambiguatedURL
p47
NsVnamedEntity
p48
V12
p49
sVoffset
p50
I2
saa(lp51
(dp52
Vstart
p53
I0
sVdisambiguatedURL
p54
NsVnamedEntity
p55
V0
sVoffset
p56
I1
saa(lp57
(dp58
Vstart
p59
I0
sVdisambiguatedURL
p60
NsVnamedEntity
p61
V1
sVoffset
p62
I1
saa(lp63
(dp64
Vstart
p65
I0
sVdisambiguatedURL
p66
NsVnamedEntity
p67
V2
sVoffset
p68
I1
saa(lp69
(dp70
Vstart
p71
I0
sVdisambiguatedURL
p72
Vhttp://dbpedia.org/resource/Withdrawal
p73
sVnamedEntity
p74
VWithdrawn
p75
sVoffset
p76
I9
saa(lp77
(dp78
Vstart
p79
I0
sVdisambiguatedURL
p80
Vhttp://dbpedia.org/resource/Withdrawal
p81
sVnamedEntity
p82
VWithdrawn
p83
sVoffset
p84
I9
saa(lp85
(dp86
Vstart
p87
I0
sVdisambiguatedURL
p88
NsVnamedEntity
p89
V12
p90
sVoffset
p91
I2
saa(lp92
(dp93
Vstart
p94
I0
sVdisambiguatedURL
p95
NsVnamedEntity
p96
V12
p97
sVoffset
p98
I2
saa(lp99
(dp100
Vstart
p101
I0
sVdisambiguatedURL
p102
NsVnamedEntity
p103
V1
sVoffset
p104
I1
saa(lp105
(dp106
Vstart
p107
I0
sVdisambiguatedURL
p108
NsVnamedEntity
p109
V0
sVoffset
p110
I1
saa(lp111
(dp112
Vstart
p113
I0
sVdisambiguatedURL
p114
NsVnamedEntity
p115
V1
sVoffset
p116
I1
saa(lp117
(dp118
Vstart
p119
I0
sVdisambiguatedURL
p120
NsVnamedEntity
p121
V0
sVoffset
p122
I1
saa(lp123
(dp124
Vstart
p125
I0
sVdisambiguatedURL
p126
NsVnamedEntity
p127
V11
p128
sVoffset
p129
I2
saa.