(lp1
(lp2
(lp3
a(lp4
aa(lp5
(lp6
a(lp7
Vhttp://dbpedia.org/resource/Null
p8
aaa(lp9
(lp10
a(lp11
aa(lp12
(lp13
a(lp14
aa(lp15
(lp16
a(lp17
Vhttp://dbpedia.org/resource/Null
p18
aaa(lp19
(lp20
Vhttp://dbpedia.org/resource/Eve_Torres
p21
aa(lp22
Vhttp://dbpedia.org/resource/Null
p23
aaa(lp24
(lp25
a(lp26
Vhttp://dbpedia.org/resource/Null
p27
aaa(lp28
(lp29
a(lp30
Vhttp://dbpedia.org/resource/Null
p31
aaa.