(lp1
(lp2
(lp3
a(lp4
aa(lp5
(lp6
a(lp7
((lVhttp://dbpedia.org/resource/Null
tp8
aaa(lp9
(lp10
a(lp11
aa(lp12
(lp13
a(lp14
aa(lp15
(lp16
a(lp17
((lVhttp://dbpedia.org/resource/Null
tp18
aaa(lp19
(lp20
((lp21
Vhttp://www.w3.org/2002/07/owl#Thing
p22
aVhttp://xmlns.com/foaf/0.1/Person
p23
aVhttp://dbpedia.org/ontology/Person
p24
aVhttp://www.ontologydesignpatterns.org/ont/dul/DUL.owl#Agent
p25
aVhttp://www.ontologydesignpatterns.org/ont/dul/DUL.owl#NaturalPerson
p26
aVhttp://www.wikidata.org/entity/Q215627
p27
aVhttp://www.wikidata.org/entity/Q5
p28
aVhttp://dbpedia.org/ontology/Agent
p29
aVhttp://schema.org/Person
p30
aVhttp://umbel.org/umbel/rc/Wrestler
p31
aVhttp://dbpedia.org/class/yago/Adult109605289
p32
aVhttp://dbpedia.org/class/yago/Advocate109774783
p33
aVhttp://dbpedia.org/class/yago/AmericanBallroomDancers
p34
aVhttp://dbpedia.org/class/yago/AmericanCheerleaders
p35
aVhttp://dbpedia.org/class/yago/AmericanFemaleModels
p36
aVhttp://dbpedia.org/class/yago/AmericanFemaleProfessionalWrestlers
p37
aVhttp://dbpedia.org/class/yago/AmericanPractitionersOfBrazilianJiu-Jitsu
p38
aVhttp://dbpedia.org/class/yago/Assistant109815790
p39
aVhttp://dbpedia.org/class/yago/CausalAgent100007347
p40
aVhttp://dbpedia.org/class/yago/Cheerleader109913593
p41
aVhttp://dbpedia.org/class/yago/Combatant109939313
p42
aVhttp://dbpedia.org/class/yago/Contestant109613191
p43
aVhttp://dbpedia.org/class/yago/Dancer109989502
p44
aVhttp://dbpedia.org/class/yago/Entertainer109616922
p45
aVhttp://dbpedia.org/class/yago/LivingThing100004258
p46
aVhttp://dbpedia.org/class/yago/Model110324560
p47
aVhttp://dbpedia.org/class/yago/Object100002684
p48
aVhttp://dbpedia.org/class/yago/Organism100004475
p49
aVhttp://dbpedia.org/class/yago/Performer110415638
p50
aVhttp://dbpedia.org/class/yago/Person100007846
p51
aVhttp://dbpedia.org/class/yago/Practitioner110462860
p52
aVhttp://dbpedia.org/class/yago/Professional110480253
p53
aVhttp://dbpedia.org/class/yago/Supporter110677713
p54
aVhttp://dbpedia.org/class/yago/Whole100003553
p55
aVhttp://dbpedia.org/class/yago/Worker109632518
p56
aVhttp://dbpedia.org/class/yago/Wrestler110793168
p57
aVhttp://dbpedia.org/class/yago/YagoLegalActorGeo
p58
aVhttp://dbpedia.org/class/yago/FemaleBrazilian-Jiu-JitsuPractitioners
p59
aVhttp://dbpedia.org/class/yago/PhysicalEntity100001930
p60
aVhttp://dbpedia.org/class/yago/LivingPeople
p61
aVhttp://dbpedia.org/class/yago/PeopleFromDenver,Colorado
p62
aVhttp://dbpedia.org/class/yago/YagoLegalActor
p63
aVhttp://dbpedia.org/class/yago/WWEDivaSearchContestants
p64
aVhttp://dbpedia.org/resource/Eve_Torres
tp65
aa(lp66
((lVhttp://dbpedia.org/resource/Null
tp67
aaa(lp68
(lp69
a(lp70
((lVhttp://dbpedia.org/resource/Null
tp71
aaa(lp72
(lp73
a(lp74
((lVhttp://dbpedia.org/resource/Null
p75
tp76
aaa.