(lp1
(lp2
(dp3
Vstart
p4
I0
sVdisambiguatedURL
p5
NsVnamedEntity
p6
Vphone:
p7
sVoffset
p8
I6
saa(lp9
(dp10
Vstart
p11
I0
sVdisambiguatedURL
p12
NsVnamedEntity
p13
Vstock no.
p14
sVoffset
p15
I9
saa(lp16
(dp17
Vstart
p18
I0
sVdisambiguatedURL
p19
NsVnamedEntity
p20
Vprice:
p21
sVoffset
p22
I6
saa(lp23
(dp24
Vstart
p25
I0
sVdisambiguatedURL
p26
NsVnamedEntity
p27
Vcondition:
p28
sVoffset
p29
I10
saa(lp30
(dp31
Vstart
p32
I0
sVdisambiguatedURL
p33
NsVnamedEntity
p34
Vyear:
p35
sVoffset
p36
I5
saa(lp37
(dp38
Vstart
p39
I0
sVdisambiguatedURL
p40
Vhttp://dbpedia.org/resource/Eve_Torres
p41
sVnamedEntity
p42
Vmodel:
p43
sVoffset
p44
I6
saa(lp45
(dp46
Vstart
p47
I0
sVdisambiguatedURL
p48
NsVnamedEntity
p49
Vlength:
p50
sVoffset
p51
I7
saa(lp52
(dp53
Vstart
p54
I0
sVdisambiguatedURL
p55
NsVnamedEntity
p56
Vfuel:
p57
sVoffset
p58
I5
saa.