(lp1
(lp2
(lp3
((lVhttp://dbpedia.org/resource/Null
tp4
aa(lp5
a(lp6
a(lp7
a(lp8
a(lp9
a(lp10
((lp11
Vhttp://www.w3.org/2002/07/owl#Thing
p12
aVhttp://www.ontologydesignpatterns.org/ont/dul/DUL.owl#Agent
p13
aVhttp://www.ontologydesignpatterns.org/ont/dul/DUL.owl#SocialPerson
p14
aVhttp://www.wikidata.org/entity/Q215380
p15
aVhttp://www.wikidata.org/entity/Q43229
p16
aVhttp://dbpedia.org/ontology/Agent
p17
aVhttp://dbpedia.org/ontology/Band
p18
aVhttp://dbpedia.org/ontology/Group
p19
aVhttp://dbpedia.org/ontology/Organisation
p20
aVhttp://schema.org/MusicGroup
p21
aVhttp://schema.org/Organization
p22
aVhttp://umbel.org/umbel/rc/Band_MusicGroup
p23
aVhttp://dbpedia.org/class/yago/CausalAgent100007347
p24
aVhttp://dbpedia.org/class/yago/LivingThing100004258
p25
aVhttp://dbpedia.org/class/yago/Object100002684
p26
aVhttp://dbpedia.org/class/yago/Organism100004475
p27
aVhttp://dbpedia.org/class/yago/Person100007846
p28
aVhttp://dbpedia.org/class/yago/Whole100003553
p29
aVhttp://dbpedia.org/class/yago/YagoLegalActorGeo
p30
aVhttp://dbpedia.org/class/yago/PhysicalEntity100001930
p31
aVhttp://dbpedia.org/class/yago/PeopleFromDundee
p32
aVhttp://dbpedia.org/class/yago/YagoLegalActor
p33
aVhttp://dbpedia.org/resource/The_View_(band)
tp34
aaa(lp35
(lp36
((lVhttp://dbpedia.org/resource/Null
tp37
aa(lp38
a(lp39
a(lp40
a(lp41
a(lp42
a(lp43
((lp44
Vhttp://www.w3.org/2002/07/owl#Thing
p45
aVhttp://www.ontologydesignpatterns.org/ont/dul/DUL.owl#Agent
p46
aVhttp://www.ontologydesignpatterns.org/ont/dul/DUL.owl#SocialPerson
p47
aVhttp://www.wikidata.org/entity/Q215380
p48
aVhttp://www.wikidata.org/entity/Q43229
p49
aVhttp://dbpedia.org/ontology/Agent
p50
aVhttp://dbpedia.org/ontology/Band
p51
aVhttp://dbpedia.org/ontology/Group
p52
aVhttp://dbpedia.org/ontology/Organisation
p53
aVhttp://schema.org/MusicGroup
p54
aVhttp://schema.org/Organization
p55
aVhttp://umbel.org/umbel/rc/Band_MusicGroup
p56
aVhttp://dbpedia.org/class/yago/CausalAgent100007347
p57
aVhttp://dbpedia.org/class/yago/LivingThing100004258
p58
aVhttp://dbpedia.org/class/yago/Object100002684
p59
aVhttp://dbpedia.org/class/yago/Organism100004475
p60
aVhttp://dbpedia.org/class/yago/Person100007846
p61
aVhttp://dbpedia.org/class/yago/Whole100003553
p62
aVhttp://dbpedia.org/class/yago/YagoLegalActorGeo
p63
aVhttp://dbpedia.org/class/yago/PhysicalEntity100001930
p64
aVhttp://dbpedia.org/class/yago/PeopleFromDundee
p65
aVhttp://dbpedia.org/class/yago/YagoLegalActor
p66
aVhttp://dbpedia.org/resource/The_View_(band)
tp67
aaa(lp68
(lp69
((lVhttp://dbpedia.org/resource/Null
tp70
aa(lp71
a(lp72
a(lp73
a(lp74
a(lp75
a(lp76
((lp77
Vhttp://www.w3.org/2002/07/owl#Thing
p78
aVhttp://www.ontologydesignpatterns.org/ont/dul/DUL.owl#Agent
p79
aVhttp://www.ontologydesignpatterns.org/ont/dul/DUL.owl#SocialPerson
p80
aVhttp://www.wikidata.org/entity/Q215380
p81
aVhttp://www.wikidata.org/entity/Q43229
p82
aVhttp://dbpedia.org/ontology/Agent
p83
aVhttp://dbpedia.org/ontology/Band
p84
aVhttp://dbpedia.org/ontology/Group
p85
aVhttp://dbpedia.org/ontology/Organisation
p86
aVhttp://schema.org/MusicGroup
p87
aVhttp://schema.org/Organization
p88
aVhttp://umbel.org/umbel/rc/Band_MusicGroup
p89
aVhttp://dbpedia.org/class/yago/CausalAgent100007347
p90
aVhttp://dbpedia.org/class/yago/LivingThing100004258
p91
aVhttp://dbpedia.org/class/yago/Object100002684
p92
aVhttp://dbpedia.org/class/yago/Organism100004475
p93
aVhttp://dbpedia.org/class/yago/Person100007846
p94
aVhttp://dbpedia.org/class/yago/Whole100003553
p95
aVhttp://dbpedia.org/class/yago/YagoLegalActorGeo
p96
aVhttp://dbpedia.org/class/yago/PhysicalEntity100001930
p97
aVhttp://dbpedia.org/class/yago/PeopleFromDundee
p98
aVhttp://dbpedia.org/class/yago/YagoLegalActor
p99
aVhttp://dbpedia.org/resource/The_View_(band)
tp100
aaa(lp101
(lp102
((lVhttp://dbpedia.org/resource/Null
tp103
aa(lp104
a(lp105
a(lp106
a(lp107
a(lp108
a(lp109
((lp110
Vhttp://www.w3.org/2002/07/owl#Thing
p111
aVhttp://www.ontologydesignpatterns.org/ont/dul/DUL.owl#Agent
p112
aVhttp://www.ontologydesignpatterns.org/ont/dul/DUL.owl#SocialPerson
p113
aVhttp://www.wikidata.org/entity/Q215380
p114
aVhttp://www.wikidata.org/entity/Q43229
p115
aVhttp://dbpedia.org/ontology/Agent
p116
aVhttp://dbpedia.org/ontology/Band
p117
aVhttp://dbpedia.org/ontology/Group
p118
aVhttp://dbpedia.org/ontology/Organisation
p119
aVhttp://schema.org/MusicGroup
p120
aVhttp://schema.org/Organization
p121
aVhttp://umbel.org/umbel/rc/Band_MusicGroup
p122
aVhttp://dbpedia.org/class/yago/CausalAgent100007347
p123
aVhttp://dbpedia.org/class/yago/LivingThing100004258
p124
aVhttp://dbpedia.org/class/yago/Object100002684
p125
aVhttp://dbpedia.org/class/yago/Organism100004475
p126
aVhttp://dbpedia.org/class/yago/Person100007846
p127
aVhttp://dbpedia.org/class/yago/Whole100003553
p128
aVhttp://dbpedia.org/class/yago/YagoLegalActorGeo
p129
aVhttp://dbpedia.org/class/yago/PhysicalEntity100001930
p130
aVhttp://dbpedia.org/class/yago/PeopleFromDundee
p131
aVhttp://dbpedia.org/class/yago/YagoLegalActor
p132
aVhttp://dbpedia.org/resource/The_View_(band)
tp133
aaa(lp134
(lp135
((lVhttp://dbpedia.org/resource/Null
tp136
aa(lp137
a(lp138
a(lp139
a(lp140
a(lp141
a(lp142
((lp143
Vhttp://www.w3.org/2002/07/owl#Thing
p144
aVhttp://www.ontologydesignpatterns.org/ont/dul/DUL.owl#Agent
p145
aVhttp://www.ontologydesignpatterns.org/ont/dul/DUL.owl#SocialPerson
p146
aVhttp://www.wikidata.org/entity/Q215380
p147
aVhttp://www.wikidata.org/entity/Q43229
p148
aVhttp://dbpedia.org/ontology/Agent
p149
aVhttp://dbpedia.org/ontology/Band
p150
aVhttp://dbpedia.org/ontology/Group
p151
aVhttp://dbpedia.org/ontology/Organisation
p152
aVhttp://schema.org/MusicGroup
p153
aVhttp://schema.org/Organization
p154
aVhttp://umbel.org/umbel/rc/Band_MusicGroup
p155
aVhttp://dbpedia.org/class/yago/CausalAgent100007347
p156
aVhttp://dbpedia.org/class/yago/LivingThing100004258
p157
aVhttp://dbpedia.org/class/yago/Object100002684
p158
aVhttp://dbpedia.org/class/yago/Organism100004475
p159
aVhttp://dbpedia.org/class/yago/Person100007846
p160
aVhttp://dbpedia.org/class/yago/Whole100003553
p161
aVhttp://dbpedia.org/class/yago/YagoLegalActorGeo
p162
aVhttp://dbpedia.org/class/yago/PhysicalEntity100001930
p163
aVhttp://dbpedia.org/class/yago/PeopleFromDundee
p164
aVhttp://dbpedia.org/class/yago/YagoLegalActor
p165
aVhttp://dbpedia.org/resource/The_View_(band)
tp166
aaa(lp167
(lp168
((lVhttp://dbpedia.org/resource/Null
tp169
aa(lp170
a(lp171
a(lp172
a(lp173
a(lp174
a(lp175
((lp176
Vhttp://www.w3.org/2002/07/owl#Thing
p177
aVhttp://www.ontologydesignpatterns.org/ont/dul/DUL.owl#Agent
p178
aVhttp://www.ontologydesignpatterns.org/ont/dul/DUL.owl#SocialPerson
p179
aVhttp://www.wikidata.org/entity/Q215380
p180
aVhttp://www.wikidata.org/entity/Q43229
p181
aVhttp://dbpedia.org/ontology/Agent
p182
aVhttp://dbpedia.org/ontology/Band
p183
aVhttp://dbpedia.org/ontology/Group
p184
aVhttp://dbpedia.org/ontology/Organisation
p185
aVhttp://schema.org/MusicGroup
p186
aVhttp://schema.org/Organization
p187
aVhttp://umbel.org/umbel/rc/Band_MusicGroup
p188
aVhttp://dbpedia.org/class/yago/CausalAgent100007347
p189
aVhttp://dbpedia.org/class/yago/LivingThing100004258
p190
aVhttp://dbpedia.org/class/yago/Object100002684
p191
aVhttp://dbpedia.org/class/yago/Organism100004475
p192
aVhttp://dbpedia.org/class/yago/Person100007846
p193
aVhttp://dbpedia.org/class/yago/Whole100003553
p194
aVhttp://dbpedia.org/class/yago/YagoLegalActorGeo
p195
aVhttp://dbpedia.org/class/yago/PhysicalEntity100001930
p196
aVhttp://dbpedia.org/class/yago/PeopleFromDundee
p197
aVhttp://dbpedia.org/class/yago/YagoLegalActor
p198
aVhttp://dbpedia.org/resource/The_View_(band)
p199
tp200
aaa.