(lp1
(lp2
(lp3
a(lp4
Vhttp://dbpedia.org/resource/US_Airways
p5
aa(lp6
a(lp7
aa(lp8
(lp9
a(lp10
Vhttp://dbpedia.org/resource/Delta_Air_Lines
p11
aa(lp12
a(lp13
aa(lp14
(lp15
a(lp16
Vhttp://dbpedia.org/resource/United_Airlines
p17
aa(lp18
a(lp19
aa(lp20
(lp21
a(lp22
Vhttp://dbpedia.org/resource/American_Airlines
p23
aa(lp24
a(lp25
aa(lp26
(lp27
a(lp28
Vhttp://dbpedia.org/resource/Northwest_Airlines
p29
aa(lp30
a(lp31
aa(lp32
(lp33
a(lp34
Vhttp://dbpedia.org/resource/Continental_Airlines
p35
aa(lp36
a(lp37
aa(lp38
(lp39
a(lp40
Vhttp://dbpedia.org/resource/Alaska_Airlines
p41
aa(lp42
a(lp43
aa(lp44
(lp45
a(lp46
Vhttp://dbpedia.org/resource/Frontier_Airlines
p47
aa(lp48
a(lp49
aa(lp50
(lp51
a(lp52
Vhttp://dbpedia.org/resource/Air_Canada
p53
aa(lp54
a(lp55
aa.