(lp1
(lp2
(dp3
Vstart
p4
I0
sVdisambiguatedURL
p5
Vhttp://dbpedia.org/resource/US_Airways
p6
sVnamedEntity
p7
VUS Airways
p8
sVoffset
p9
I10
saa(lp10
(dp11
Vstart
p12
I0
sVdisambiguatedURL
p13
Vhttp://dbpedia.org/resource/Delta_Air_Lines
p14
sVnamedEntity
p15
VDelta Air Lines
p16
sVoffset
p17
I15
saa(lp18
(dp19
Vstart
p20
I0
sVdisambiguatedURL
p21
Vhttp://dbpedia.org/resource/United_Airlines
p22
sVnamedEntity
p23
VUnited Airlines
p24
sVoffset
p25
I15
saa(lp26
(dp27
Vstart
p28
I0
sVdisambiguatedURL
p29
Vhttp://dbpedia.org/resource/American_Airlines
p30
sVnamedEntity
p31
VAmerican Airlines
p32
sVoffset
p33
I17
saa(lp34
(dp35
Vstart
p36
I0
sVdisambiguatedURL
p37
Vhttp://dbpedia.org/resource/Northwest_Airlines
p38
sVnamedEntity
p39
VNorthwest Airlines
p40
sVoffset
p41
I18
saa(lp42
(dp43
Vstart
p44
I0
sVdisambiguatedURL
p45
Vhttp://dbpedia.org/resource/Continental_Airlines
p46
sVnamedEntity
p47
VContinental Airlines
p48
sVoffset
p49
I20
saa(lp50
(dp51
Vstart
p52
I0
sVdisambiguatedURL
p53
Vhttp://dbpedia.org/resource/Alaska_Airlines
p54
sVnamedEntity
p55
VAlaska Airlines
p56
sVoffset
p57
I15
saa(lp58
(dp59
Vstart
p60
I0
sVdisambiguatedURL
p61
Vhttp://dbpedia.org/resource/Frontier_Airlines
p62
sVnamedEntity
p63
VFrontier Airlines
p64
sVoffset
p65
I17
saa(lp66
(dp67
Vstart
p68
I0
sVdisambiguatedURL
p69
Vhttp://dbpedia.org/resource/Air_Canada
p70
sVnamedEntity
p71
VAir Canada
p72
sVoffset
p73
I10
saa.