(lp1
(lp2
(dp3
Vstart
p4
I0
sVdisambiguatedURL
p5
NsVnamedEntity
p6
V?USA (and worldwide launch)
p7
sVoffset
p8
I27
saa(lp9
(dp10
Vstart
p11
I0
sVdisambiguatedURL
p12
NsVnamedEntity
p13
V?Brazil
p14
sVoffset
p15
I7
saa(lp16
(dp17
Vstart
p18
I0
sVdisambiguatedURL
p19
NsVnamedEntity
p20
V?France
p21
sVoffset
p22
I7
saa(lp23
(dp24
Vstart
p25
I0
sVdisambiguatedURL
p26
NsVnamedEntity
p27
V?Ireland
p28
sVoffset
p29
I8
saa(lp30
(dp31
Vstart
p32
I0
sVdisambiguatedURL
p33
NsVnamedEntity
p34
V?Italy
p35
sVoffset
p36
I6
saa(lp37
(dp38
Vstart
p39
I0
sVdisambiguatedURL
p40
NsVnamedEntity
p41
V?Japan
p42
sVoffset
p43
I6
saa(lp44
(dp45
Vstart
p46
I0
sVdisambiguatedURL
p47
Vhttp://dbpedia.org/resource/Netherlands
p48
sVnamedEntity
p49
V?Netherlands
p50
sVoffset
p51
I12
saa(lp52
(dp53
Vstart
p54
I0
sVdisambiguatedURL
p55
NsVnamedEntity
p56
V?Poland
p57
sVoffset
p58
I7
saa(lp59
(dp60
Vstart
p61
I0
sVdisambiguatedURL
p62
NsVnamedEntity
p63
V?Spain
p64
sVoffset
p65
I6
saa(lp66
(dp67
Vstart
p68
I0
sVdisambiguatedURL
p69
Vhttp://dbpedia.org/resource/United_Kingdom
p70
sVnamedEntity
p71
V?United Kingdom
p72
sVoffset
p73
I15
saa(lp74
(dp75
Vstart
p76
I0
sVdisambiguatedURL
p77
NsVnamedEntity
p78
V?Mexico
p79
sVoffset
p80
I7
saa(lp81
(dp82
Vstart
p83
I0
sVdisambiguatedURL
p84
NsVnamedEntity
p85
V?Hong Kong
p86
sVoffset
p87
I10
saa(lp88
(dp89
Vstart
p90
I0
sVdisambiguatedURL
p91
NsVnamedEntity
p92
V?Taiwan
p93
sVoffset
p94
I7
saa(lp95
(dp96
Vstart
p97
I0
sVdisambiguatedURL
p98
NsVnamedEntity
p99
V?Australia
p100
sVoffset
p101
I10
saa(lp102
(dp103
Vstart
p104
I0
sVdisambiguatedURL
p105
Vhttp://dbpedia.org/resource/New_Zealand
p106
sVnamedEntity
p107
V?New Zealand
p108
sVoffset
p109
I12
saa(lp110
(dp111
Vstart
p112
I0
sVdisambiguatedURL
p113
NsVnamedEntity
p114
V?Canada
p115
sVoffset
p116
I7
saa(lp117
(dp118
Vstart
p119
I0
sVdisambiguatedURL
p120
NsVnamedEntity
p121
V?Germany
p122
sVoffset
p123
I8
saa(lp124
(dp125
Vstart
p126
I0
sVdisambiguatedURL
p127
NsVnamedEntity
p128
V?Russia
p129
sVoffset
p130
I7
saa(lp131
(dp132
Vstart
p133
I0
sVdisambiguatedURL
p134
NsVnamedEntity
p135
VwebKorea South
p136
sVoffset
p137
I14
saa(lp138
(dp139
Vstart
p140
I0
sVdisambiguatedURL
p141
NsVnamedEntity
p142
V?Israel
p143
sVoffset
p144
I7
saa.