(lp1
(lp2
(lp3
a(lp4
a(lp5
((lp6
Vhttp://www.w3.org/2002/07/owl#Thing
p7
aVhttp://dbpedia.org/class/yago/Abstraction100002137
p8
aVhttp://dbpedia.org/class/yago/Action-adventureGames
p9
aVhttp://dbpedia.org/class/yago/Cognition100023271
p10
aVhttp://dbpedia.org/class/yago/Concept105835747
p11
aVhttp://dbpedia.org/class/yago/Content105809192
p12
aVhttp://dbpedia.org/class/yago/Contest107456188
p13
aVhttp://dbpedia.org/class/yago/Event100029378
p14
aVhttp://dbpedia.org/class/yago/Game100456199
p15
aVhttp://dbpedia.org/class/yago/Genre105845332
p16
aVhttp://dbpedia.org/class/yago/Idea105833840
p17
aVhttp://dbpedia.org/class/yago/Kind105839024
p18
aVhttp://dbpedia.org/class/yago/SocialEvent107288639
p19
aVhttp://dbpedia.org/class/yago/Category105838765
p20
aVhttp://dbpedia.org/class/yago/PsychologicalFeature100023100
p21
aVhttp://dbpedia.org/class/yago/YagoPermanentlyLocatedEntity
p22
aVhttp://dbpedia.org/class/yago/VideoGameGenres
p23
aVhttp://dbpedia.org/resource/Action-adventure_game
tp24
aa(lp25
aa(lp26
(lp27
a(lp28
((lp29
Vhttp://www.w3.org/2002/07/owl#Thing
p30
aVhttp://dbpedia.org/class/yago/Abstraction100002137
p31
aVhttp://dbpedia.org/class/yago/Act100030358
p32
aVhttp://dbpedia.org/class/yago/Activity100407535
p33
aVhttp://dbpedia.org/class/yago/Diversion100426928
p34
aVhttp://dbpedia.org/class/yago/Event100029378
p35
aVhttp://dbpedia.org/class/yago/Game100430606
p36
aVhttp://dbpedia.org/class/yago/PsychologicalFeature100023100
p37
aVhttp://dbpedia.org/class/yago/YagoPermanentlyLocatedEntity
p38
aVhttp://dbpedia.org/class/yago/MarioPartyGames
p39
aVhttp://dbpedia.org/class/yago/PartyGame100458800
p40
aVhttp://dbpedia.org/resource/Mario_Party
tp41
aa(lp42
a(lp43
aa(lp44
(lp45
a(lp46
a(lp47
((lp48
Vhttp://www.w3.org/2002/07/owl#Thing
p49
aVhttp://dbpedia.org/class/yago/Abstraction100002137
p50
aVhttp://dbpedia.org/class/yago/Action-adventureGames
p51
aVhttp://dbpedia.org/class/yago/Cognition100023271
p52
aVhttp://dbpedia.org/class/yago/Concept105835747
p53
aVhttp://dbpedia.org/class/yago/Content105809192
p54
aVhttp://dbpedia.org/class/yago/Contest107456188
p55
aVhttp://dbpedia.org/class/yago/Event100029378
p56
aVhttp://dbpedia.org/class/yago/Game100456199
p57
aVhttp://dbpedia.org/class/yago/Genre105845332
p58
aVhttp://dbpedia.org/class/yago/Idea105833840
p59
aVhttp://dbpedia.org/class/yago/Kind105839024
p60
aVhttp://dbpedia.org/class/yago/SocialEvent107288639
p61
aVhttp://dbpedia.org/class/yago/Category105838765
p62
aVhttp://dbpedia.org/class/yago/PsychologicalFeature100023100
p63
aVhttp://dbpedia.org/class/yago/YagoPermanentlyLocatedEntity
p64
aVhttp://dbpedia.org/class/yago/VideoGameGenres
p65
aVhttp://dbpedia.org/resource/Action-adventure_game
tp66
aa(lp67
aa(lp68
(lp69
a(lp70
a(lp71
a(lp72
aa(lp73
(lp74
a(lp75
((lp76
Vhttp://www.w3.org/2002/07/owl#Thing
p77
aVhttp://dbpedia.org/class/yago/Abstraction100002137
p78
aVhttp://dbpedia.org/class/yago/Act100030358
p79
aVhttp://dbpedia.org/class/yago/Action-adventureGames
p80
aVhttp://dbpedia.org/class/yago/Activity100407535
p81
aVhttp://dbpedia.org/class/yago/ComputerGame100458890
p82
aVhttp://dbpedia.org/class/yago/Contest107456188
p83
aVhttp://dbpedia.org/class/yago/Diversion100426928
p84
aVhttp://dbpedia.org/class/yago/Event100029378
p85
aVhttp://dbpedia.org/class/yago/Game100456199
p86
aVhttp://dbpedia.org/class/yago/SocialEvent107288639
p87
aVhttp://dbpedia.org/class/yago/Game100430606
p88
aVhttp://dbpedia.org/class/yago/PsychologicalFeature100023100
p89
aVhttp://dbpedia.org/class/yago/YagoPermanentlyLocatedEntity
p90
aVhttp://dbpedia.org/class/yago/MedievalVideoGames
p91
aVhttp://dbpedia.org/class/yago/ShigeruMiyamotoGames
p92
aVhttp://dbpedia.org/class/yago/Top-downVideoGames
p93
aVhttp://dbpedia.org/resource/The_Legend_of_Zelda
tp94
aa(lp95
a(lp96
aa(lp97
(lp98
a(lp99
a(lp100
a(lp101
aa(lp102
(lp103
a(lp104
((lp105
Vhttp://www.w3.org/2002/07/owl#Thing
p106
aVhttp://dbpedia.org/ontology/Software
p107
aVhttp://www.wikidata.org/entity/Q386724
p108
aVhttp://www.wikidata.org/entity/Q7397
p109
aVhttp://www.wikidata.org/entity/Q7889
p110
aVhttp://dbpedia.org/ontology/VideoGame
p111
aVhttp://dbpedia.org/ontology/Work
p112
aVhttp://schema.org/CreativeWork
p113
aVhttp://dbpedia.org/resource/Naruto:_Clash_of_Ninja_(series)
tp114
aa(lp115
a(lp116
aa(lp117
(lp118
a(lp119
a(lp120
a(lp121
aa(lp122
(lp123
a(lp124
a(lp125
((lp126
Vhttp://www.w3.org/2002/07/owl#Thing
p127
aVhttp://dbpedia.org/class/yago/Abstraction100002137
p128
aVhttp://dbpedia.org/class/yago/Action-adventureGames
p129
aVhttp://dbpedia.org/class/yago/Cognition100023271
p130
aVhttp://dbpedia.org/class/yago/Concept105835747
p131
aVhttp://dbpedia.org/class/yago/Content105809192
p132
aVhttp://dbpedia.org/class/yago/Contest107456188
p133
aVhttp://dbpedia.org/class/yago/Event100029378
p134
aVhttp://dbpedia.org/class/yago/Game100456199
p135
aVhttp://dbpedia.org/class/yago/Genre105845332
p136
aVhttp://dbpedia.org/class/yago/Idea105833840
p137
aVhttp://dbpedia.org/class/yago/Kind105839024
p138
aVhttp://dbpedia.org/class/yago/SocialEvent107288639
p139
aVhttp://dbpedia.org/class/yago/Category105838765
p140
aVhttp://dbpedia.org/class/yago/PsychologicalFeature100023100
p141
aVhttp://dbpedia.org/class/yago/YagoPermanentlyLocatedEntity
p142
aVhttp://dbpedia.org/class/yago/VideoGameGenres
p143
aVhttp://dbpedia.org/resource/Action-adventure_game
tp144
aa(lp145
aa(lp146
(lp147
a(lp148
a(lp149
((lp150
Vhttp://www.w3.org/2002/07/owl#Thing
p151
aVhttp://dbpedia.org/class/yago/Abstraction100002137
p152
aVhttp://dbpedia.org/class/yago/Action-adventureGames
p153
aVhttp://dbpedia.org/class/yago/Cognition100023271
p154
aVhttp://dbpedia.org/class/yago/Concept105835747
p155
aVhttp://dbpedia.org/class/yago/Content105809192
p156
aVhttp://dbpedia.org/class/yago/Contest107456188
p157
aVhttp://dbpedia.org/class/yago/Event100029378
p158
aVhttp://dbpedia.org/class/yago/Game100456199
p159
aVhttp://dbpedia.org/class/yago/Genre105845332
p160
aVhttp://dbpedia.org/class/yago/Idea105833840
p161
aVhttp://dbpedia.org/class/yago/Kind105839024
p162
aVhttp://dbpedia.org/class/yago/SocialEvent107288639
p163
aVhttp://dbpedia.org/class/yago/Category105838765
p164
aVhttp://dbpedia.org/class/yago/PsychologicalFeature100023100
p165
aVhttp://dbpedia.org/class/yago/YagoPermanentlyLocatedEntity
p166
aVhttp://dbpedia.org/class/yago/VideoGameGenres
p167
aVhttp://dbpedia.org/resource/Action-adventure_game
p168
tp169
aa(lp170
aa.