(lp1
(lp2
(lp3
Vhttp://dbpedia.org/resource/Null
p4
aa(lp5
a(lp6
a(lp7
Vhttp://dbpedia.org/resource/Buy_More
p8
aaa(lp9
(lp10
Vhttp://dbpedia.org/resource/Null
p11
aa(lp12
a(lp13
a(lp14
Vhttp://dbpedia.org/resource/Buy_More
p15
aaa(lp16
(lp17
Vhttp://dbpedia.org/resource/Null
p18
aa(lp19
a(lp20
a(lp21
Vhttp://dbpedia.org/resource/Buy_More
p22
aaa(lp23
(lp24
Vhttp://dbpedia.org/resource/Null
p25
aa(lp26
a(lp27
a(lp28
Vhttp://dbpedia.org/resource/Buy_More
p29
aaa(lp30
(lp31
Vhttp://dbpedia.org/resource/Null
p32
aa(lp33
a(lp34
a(lp35
Vhttp://dbpedia.org/resource/Buy_More
p36
aaa(lp37
(lp38
Vhttp://dbpedia.org/resource/Null
p39
aa(lp40
a(lp41
a(lp42
Vhttp://dbpedia.org/resource/Buy_More
p43
aaa(lp44
(lp45
Vhttp://dbpedia.org/resource/Null
p46
aa(lp47
a(lp48
a(lp49
Vhttp://dbpedia.org/resource/Buy_More
p50
aaa(lp51
(lp52
Vhttp://dbpedia.org/resource/Null
p53
aa(lp54
a(lp55
a(lp56
Vhttp://dbpedia.org/resource/Buy_More
p57
aaa(lp58
(lp59
Vhttp://dbpedia.org/resource/Null
p60
aa(lp61
a(lp62
a(lp63
Vhttp://dbpedia.org/resource/Buy_More
p64
aaa(lp65
(lp66
Vhttp://dbpedia.org/resource/Null
p67
aa(lp68
a(lp69
a(lp70
Vhttp://dbpedia.org/resource/Buy_More
p71
aaa(lp72
(lp73
Vhttp://dbpedia.org/resource/Null
p74
aa(lp75
a(lp76
a(lp77
Vhttp://dbpedia.org/resource/Buy_More
p78
aaa(lp79
(lp80
Vhttp://dbpedia.org/resource/Null
p81
aa(lp82
a(lp83
a(lp84
Vhttp://dbpedia.org/resource/Buy_More
p85
aaa(lp86
(lp87
Vhttp://dbpedia.org/resource/Null
p88
aa(lp89
a(lp90
a(lp91
Vhttp://dbpedia.org/resource/Buy_More
p92
aaa(lp93
(lp94
Vhttp://dbpedia.org/resource/Null
p95
aa(lp96
a(lp97
a(lp98
Vhttp://dbpedia.org/resource/Buy_More
p99
aaa(lp100
(lp101
Vhttp://dbpedia.org/resource/Null
p102
aa(lp103
a(lp104
a(lp105
Vhttp://dbpedia.org/resource/Buy_More
p106
aaa(lp107
(lp108
Vhttp://dbpedia.org/resource/Null
p109
aa(lp110
a(lp111
a(lp112
Vhttp://dbpedia.org/resource/Buy_More
p113
aaa(lp114
(lp115
Vhttp://dbpedia.org/resource/Null
p116
aa(lp117
a(lp118
a(lp119
Vhttp://dbpedia.org/resource/Buy_More
p120
aaa(lp121
(lp122
Vhttp://dbpedia.org/resource/Null
p123
aa(lp124
a(lp125
a(lp126
Vhttp://dbpedia.org/resource/Buy_More
p127
aaa(lp128
(lp129
Vhttp://dbpedia.org/resource/Null
p130
aa(lp131
a(lp132
a(lp133
Vhttp://dbpedia.org/resource/Buy_More
p134
aaa(lp135
(lp136
Vhttp://dbpedia.org/resource/Null
p137
aa(lp138
a(lp139
a(lp140
Vhttp://dbpedia.org/resource/Buy_More
p141
aaa.