(lp1
(lp2
(lp3
Vhttp://dbpedia.org/resource/Null
p4
aa(lp5
aa(lp6
(lp7
Vhttp://dbpedia.org/resource/Null
p8
aa(lp9
aa(lp10
(lp11
Vhttp://dbpedia.org/resource/Null
p12
aa(lp13
aa(lp14
(lp15
Vhttp://dbpedia.org/resource/Null
p16
aa(lp17
aa(lp18
(lp19
Vhttp://dbpedia.org/resource/Null
p20
aa(lp21
aa(lp22
(lp23
Vhttp://dbpedia.org/resource/Null
p24
aa(lp25
aa(lp26
(lp27
Vhttp://dbpedia.org/resource/Null
p28
aa(lp29
aa(lp30
(lp31
Vhttp://dbpedia.org/resource/Null
p32
aa(lp33
aa(lp34
(lp35
Vhttp://dbpedia.org/resource/Null
p36
aa(lp37
aa(lp38
(lp39
Vhttp://dbpedia.org/resource/Null
p40
aa(lp41
aa(lp42
(lp43
Vhttp://dbpedia.org/resource/Null
p44
aa(lp45
aa(lp46
(lp47
Vhttp://dbpedia.org/resource/Null
p48
aa(lp49
aa(lp50
(lp51
Vhttp://dbpedia.org/resource/Null
p52
aa(lp53
aa(lp54
(lp55
Vhttp://dbpedia.org/resource/Null
p56
aa(lp57
aa.