(lp1
(lp2
(dp3
Vstart
p4
I0
sS'classes'
p5
(lp6
Vhttp://www.w3.org/2002/07/owl#Thing
p7
aVhttp://dbpedia.org/ontology/Place
p8
aVhttp://dbpedia.org/ontology/Location
p9
aVhttp://www.wikidata.org/entity/Q1248784
p10
aVhttp://dbpedia.org/ontology/Airport
p11
aVhttp://dbpedia.org/ontology/ArchitecturalStructure
p12
aVhttp://dbpedia.org/ontology/Infrastructure
p13
aVhttp://www.w3.org/2003/01/geo/wgs84_pos#SpatialThing
p14
aVhttp://schema.org/Airport
p15
aVhttp://schema.org/Place
p16
aVhttp://umbel.org/umbel/rc/Airport_Physical
p17
aVhttp://dbpedia.org/class/yago/Airfield102687992
p18
aVhttp://dbpedia.org/class/yago/AirfieldsOfTheUnitedStatesArmyAirForcesInSouthDakota
p19
aVhttp://dbpedia.org/class/yago/Airport102692232
p20
aVhttp://dbpedia.org/class/yago/AirportsInSouthDakota
p21
aVhttp://dbpedia.org/class/yago/Artifact100021939
p22
aVhttp://dbpedia.org/class/yago/Facility103315023
p23
aVhttp://dbpedia.org/class/yago/Object100002684
p24
aVhttp://dbpedia.org/class/yago/Whole100003553
p25
aVhttp://dbpedia.org/class/yago/YagoGeoEntity
p26
aVhttp://dbpedia.org/class/yago/PhysicalEntity100001930
p27
aVhttp://dbpedia.org/class/yago/YagoPermanentlyLocatedEntity
p28
asVdisambiguatedURL
p29
Vhttp://dbpedia.org/resource/Aberdeen_Regional_Airport
p30
sVnamedEntity
p31
Vaberdeen regional airport
p32
sVoffset
p33
I25
saa(lp34
(dp35
Vstart
p36
I0
sg5
(lp37
Vhttp://www.w3.org/2002/07/owl#Thing
p38
aVhttp://dbpedia.org/ontology/Place
p39
aVhttp://dbpedia.org/ontology/Location
p40
aVhttp://www.wikidata.org/entity/Q1248784
p41
aVhttp://dbpedia.org/ontology/Airport
p42
aVhttp://dbpedia.org/ontology/ArchitecturalStructure
p43
aVhttp://dbpedia.org/ontology/Infrastructure
p44
aVhttp://schema.org/Airport
p45
aVhttp://schema.org/Place
p46
aVhttp://umbel.org/umbel/rc/Airport_Physical
p47
aVhttp://dbpedia.org/class/yago/Airfield102687992
p48
aVhttp://dbpedia.org/class/yago/Airport102692232
p49
aVhttp://dbpedia.org/class/yago/AirportsInTexas
p50
aVhttp://dbpedia.org/class/yago/Artifact100021939
p51
aVhttp://dbpedia.org/class/yago/Facility103315023
p52
aVhttp://dbpedia.org/class/yago/Object100002684
p53
aVhttp://dbpedia.org/class/yago/Whole100003553
p54
aVhttp://dbpedia.org/class/yago/YagoGeoEntity
p55
aVhttp://dbpedia.org/class/yago/PhysicalEntity100001930
p56
aVhttp://dbpedia.org/class/yago/YagoPermanentlyLocatedEntity
p57
asVdisambiguatedURL
p58
Vhttp://dbpedia.org/resource/Abilene_Regional_Airport
p59
sVnamedEntity
p60
Vabilene regional airport
p61
sVoffset
p62
I24
saa(lp63
(dp64
Vstart
p65
I0
sg5
(lp66
Vhttp://www.w3.org/2002/07/owl#Thing
p67
aVhttp://dbpedia.org/ontology/Place
p68
aVhttp://dbpedia.org/ontology/Location
p69
aVhttp://www.wikidata.org/entity/Q1248784
p70
aVhttp://dbpedia.org/ontology/Airport
p71
aVhttp://dbpedia.org/ontology/ArchitecturalStructure
p72
aVhttp://dbpedia.org/ontology/Infrastructure
p73
aVhttp://schema.org/Airport
p74
aVhttp://schema.org/Place
p75
aVhttp://umbel.org/umbel/rc/Airport_Physical
p76
aVhttp://dbpedia.org/class/yago/Airfield102687992
p77
aVhttp://dbpedia.org/class/yago/Airport102692232
p78
aVhttp://dbpedia.org/class/yago/AirportsInIllinois
p79
aVhttp://dbpedia.org/class/yago/Artifact100021939
p80
aVhttp://dbpedia.org/class/yago/Facility103315023
p81
aVhttp://dbpedia.org/class/yago/Object100002684
p82
aVhttp://dbpedia.org/class/yago/Whole100003553
p83
aVhttp://dbpedia.org/class/yago/YagoGeoEntity
p84
aVhttp://dbpedia.org/class/yago/FacilitiesOfTheUnitedStatesAirNationalGuard
p85
aVhttp://dbpedia.org/class/yago/PhysicalEntity100001930
p86
aVhttp://dbpedia.org/class/yago/YagoPermanentlyLocatedEntity
p87
asVdisambiguatedURL
p88
Vhttp://dbpedia.org/resource/Abraham_Lincoln_Capital_Airport
p89
sVnamedEntity
p90
Vabraham lincoln capital airport
p91
sVoffset
p92
I31
saa(lp93
(dp94
Vstart
p95
I0
sg5
(lp96
Vhttp://www.w3.org/2002/07/owl#Thing
p97
aVhttp://dbpedia.org/ontology/Place
p98
aVhttp://dbpedia.org/ontology/Location
p99
aVhttp://www.wikidata.org/entity/Q1248784
p100
aVhttp://dbpedia.org/ontology/Airport
p101
aVhttp://dbpedia.org/ontology/ArchitecturalStructure
p102
aVhttp://dbpedia.org/ontology/Infrastructure
p103
aVhttp://schema.org/Airport
p104
aVhttp://schema.org/Place
p105
aVhttp://umbel.org/umbel/rc/Airport_Physical
p106
aVhttp://dbpedia.org/class/yago/Airfield102687992
p107
aVhttp://dbpedia.org/class/yago/Airport102692232
p108
aVhttp://dbpedia.org/class/yago/AirportsInLouisiana
p109
aVhttp://dbpedia.org/class/yago/Artifact100021939
p110
aVhttp://dbpedia.org/class/yago/Facility103315023
p111
aVhttp://dbpedia.org/class/yago/Object100002684
p112
aVhttp://dbpedia.org/class/yago/Whole100003553
p113
aVhttp://dbpedia.org/class/yago/YagoGeoEntity
p114
aVhttp://dbpedia.org/class/yago/PhysicalEntity100001930
p115
aVhttp://dbpedia.org/class/yago/YagoPermanentlyLocatedEntity
p116
asVdisambiguatedURL
p117
Vhttp://dbpedia.org/resource/Acadiana_Regional_Airport
p118
sVnamedEntity
p119
Vacadiana regional airport
p120
sVoffset
p121
I25
saa(lp122
(dp123
Vstart
p124
I0
sg5
(lp125
Vhttp://www.w3.org/2002/07/owl#Thing
p126
aVhttp://dbpedia.org/ontology/Place
p127
aVhttp://dbpedia.org/ontology/Location
p128
aVhttp://www.wikidata.org/entity/Q1248784
p129
aVhttp://dbpedia.org/ontology/Airport
p130
aVhttp://dbpedia.org/ontology/ArchitecturalStructure
p131
aVhttp://dbpedia.org/ontology/Infrastructure
p132
aVhttp://schema.org/Airport
p133
aVhttp://schema.org/Place
p134
aVhttp://dbpedia.org/class/yago/Airfield102687992
p135
aVhttp://dbpedia.org/class/yago/AirfieldsOfTheUnitedStatesArmyAirForcesInVirginia
p136
aVhttp://dbpedia.org/class/yago/Airport102692232
p137
aVhttp://dbpedia.org/class/yago/Airstrip102693070
p138
aVhttp://dbpedia.org/class/yago/Artifact100021939
p139
aVhttp://dbpedia.org/class/yago/Facility103315023
p140
aVhttp://dbpedia.org/class/yago/Object100002684
p141
aVhttp://dbpedia.org/class/yago/Whole100003553
p142
aVhttp://dbpedia.org/class/yago/YagoGeoEntity
p143
aVhttp://dbpedia.org/class/yago/FlightStripsOfTheUnitedStatesArmyAirForces
p144
aVhttp://dbpedia.org/class/yago/PhysicalEntity100001930
p145
aVhttp://dbpedia.org/class/yago/YagoPermanentlyLocatedEntity
p146
asVdisambiguatedURL
p147
Vhttp://dbpedia.org/resource/Accomack_County_Airport
p148
sVnamedEntity
p149
Vaccomack county airport
p150
sVoffset
p151
I23
saa(lp152
a(lp153
a(lp154
a(lp155
a(lp156
(dp157
Vstart
p158
I0
sg5
(lp159
Vhttp://www.w3.org/2002/07/owl#Thing
p160
aVhttp://dbpedia.org/ontology/Place
p161
aVhttp://dbpedia.org/ontology/Location
p162
aVhttp://www.wikidata.org/entity/Q1248784
p163
aVhttp://dbpedia.org/ontology/Airport
p164
aVhttp://dbpedia.org/ontology/ArchitecturalStructure
p165
aVhttp://dbpedia.org/ontology/Infrastructure
p166
aVhttp://www.w3.org/2003/01/geo/wgs84_pos#SpatialThing
p167
aVhttp://schema.org/Airport
p168
aVhttp://schema.org/Place
p169
aVhttp://umbel.org/umbel/rc/Airport_Physical
p170
aVhttp://dbpedia.org/class/yago/Airfield102687992
p171
aVhttp://dbpedia.org/class/yago/Airport102692232
p172
aVhttp://dbpedia.org/class/yago/AirportsInNewYork
p173
aVhttp://dbpedia.org/class/yago/Artifact100021939
p174
aVhttp://dbpedia.org/class/yago/Facility103315023
p175
aVhttp://dbpedia.org/class/yago/Object100002684
p176
aVhttp://dbpedia.org/class/yago/Whole100003553
p177
aVhttp://dbpedia.org/class/yago/YagoGeoEntity
p178
aVhttp://dbpedia.org/class/yago/PhysicalEntity100001930
p179
aVhttp://dbpedia.org/class/yago/YagoPermanentlyLocatedEntity
p180
asVdisambiguatedURL
p181
Vhttp://dbpedia.org/resource/Adirondack_Regional_Airport
p182
sVnamedEntity
p183
Vadirondack regional airport
p184
sVoffset
p185
I27
saa(lp186
a(lp187
(dp188
Vstart
p189
I0
sg5
(lp190
Vhttp://www.w3.org/2002/07/owl#Thing
p191
aVhttp://dbpedia.org/ontology/Place
p192
aVhttp://dbpedia.org/ontology/Location
p193
aVhttp://www.wikidata.org/entity/Q1248784
p194
aVhttp://dbpedia.org/ontology/Airport
p195
aVhttp://dbpedia.org/ontology/ArchitecturalStructure
p196
aVhttp://dbpedia.org/ontology/Infrastructure
p197
aVhttp://schema.org/Airport
p198
aVhttp://schema.org/Place
p199
aVhttp://umbel.org/umbel/rc/Airport_Physical
p200
aVhttp://dbpedia.org/class/yago/Airfield102687992
p201
aVhttp://dbpedia.org/class/yago/Airport102692232
p202
aVhttp://dbpedia.org/class/yago/AirportsInSouthCarolina
p203
aVhttp://dbpedia.org/class/yago/Artifact100021939
p204
aVhttp://dbpedia.org/class/yago/Facility103315023
p205
aVhttp://dbpedia.org/class/yago/Object100002684
p206
aVhttp://dbpedia.org/class/yago/Whole100003553
p207
aVhttp://dbpedia.org/class/yago/YagoGeoEntity
p208
aVhttp://dbpedia.org/class/yago/PhysicalEntity100001930
p209
aVhttp://dbpedia.org/class/yago/YagoPermanentlyLocatedEntity
p210
asVdisambiguatedURL
p211
Vhttp://dbpedia.org/resource/Aiken_Municipal_Airport
p212
sVnamedEntity
p213
Vaiken municipal airport
p214
sVoffset
p215
I23
saa(lp216
(dp217
Vstart
p218
I0
sg5
(lp219
Vhttp://www.w3.org/2002/07/owl#Thing
p220
aVhttp://dbpedia.org/ontology/Place
p221
aVhttp://dbpedia.org/ontology/Location
p222
aVhttp://www.wikidata.org/entity/Q1248784
p223
aVhttp://dbpedia.org/ontology/Airport
p224
aVhttp://dbpedia.org/ontology/ArchitecturalStructure
p225
aVhttp://dbpedia.org/ontology/Infrastructure
p226
aVhttp://www.w3.org/2003/01/geo/wgs84_pos#SpatialThing
p227
aVhttp://schema.org/Airport
p228
aVhttp://schema.org/Place
p229
asVdisambiguatedURL
p230
Vhttp://dbpedia.org/resource/Ainsworth_Regional_Airport
p231
sVnamedEntity
p232
Vainsworth municipal airport
p233
sVoffset
p234
I27
saa(lp235
(dp236
Vstart
p237
I0
sg5
(lp238
Vhttp://www.w3.org/2002/07/owl#Thing
p239
aVhttp://dbpedia.org/ontology/Place
p240
aVhttp://dbpedia.org/ontology/Location
p241
aVhttp://www.wikidata.org/entity/Q1248784
p242
aVhttp://dbpedia.org/ontology/Airport
p243
aVhttp://dbpedia.org/ontology/ArchitecturalStructure
p244
aVhttp://dbpedia.org/ontology/Infrastructure
p245
aVhttp://schema.org/Airport
p246
aVhttp://schema.org/Place
p247
aVhttp://umbel.org/umbel/rc/Airport_Physical
p248
aVhttp://dbpedia.org/class/yago/Airfield102687992
p249
aVhttp://dbpedia.org/class/yago/AirfieldsOfTheUnitedStatesArmyAirForcesInOhio
p250
aVhttp://dbpedia.org/class/yago/AirfieldsOfTheUnitedStatesArmyAirForcesTechnicalServiceCommand
p251
aVhttp://dbpedia.org/class/yago/Airport102692232
p252
aVhttp://dbpedia.org/class/yago/AirportsInOhio
p253
aVhttp://dbpedia.org/class/yago/Artifact100021939
p254
aVhttp://dbpedia.org/class/yago/Facility103315023
p255
aVhttp://dbpedia.org/class/yago/Object100002684
p256
aVhttp://dbpedia.org/class/yago/Whole100003553
p257
aVhttp://dbpedia.org/class/yago/YagoGeoEntity
p258
aVhttp://dbpedia.org/class/yago/PhysicalEntity100001930
p259
aVhttp://dbpedia.org/class/yago/YagoPermanentlyLocatedEntity
p260
asVdisambiguatedURL
p261
Vhttp://dbpedia.org/resource/Airborne_Airpark
p262
sVnamedEntity
p263
Vairborne airpark
p264
sVoffset
p265
I16
saa(lp266
a(lp267
a(lp268
a(lp269
(dp270
Vstart
p271
I0
sg5
(lp272
Vhttp://www.w3.org/2002/07/owl#Thing
p273
aVhttp://dbpedia.org/ontology/Place
p274
aVhttp://dbpedia.org/ontology/Location
p275
aVhttp://www.wikidata.org/entity/Q486972
p276
aVhttp://dbpedia.org/ontology/PopulatedPlace
p277
aVhttp://schema.org/Place
p278
aVhttp://umbel.org/umbel/rc/Airport_Physical
p279
aVhttp://umbel.org/umbel/rc/Building
p280
aVhttp://dbpedia.org/class/yago/Airfield102687992
p281
aVhttp://dbpedia.org/class/yago/Airport102692232
p282
aVhttp://dbpedia.org/class/yago/AirportsInOhio
p283
aVhttp://dbpedia.org/class/yago/Artifact100021939
p284
aVhttp://dbpedia.org/class/yago/Facility103315023
p285
aVhttp://dbpedia.org/class/yago/Object100002684
p286
aVhttp://dbpedia.org/class/yago/Whole100003553
p287
aVhttp://dbpedia.org/class/yago/YagoGeoEntity
p288
aVhttp://dbpedia.org/class/yago/PhysicalEntity100001930
p289
aVhttp://dbpedia.org/class/yago/YagoPermanentlyLocatedEntity
p290
asVdisambiguatedURL
p291
Vhttp://dbpedia.org/resource/Akron_Fulton_International_Airport
p292
sVnamedEntity
p293
Vakron fulton international airport
p294
sVoffset
p295
I34
saa(lp296
a(lp297
a.