(lp1
(lp2
(lp3
Vhttp://dbpedia.org/resource/United_Kingdom
p4
aa(lp5
Vhttp://dbpedia.org/resource/English,_Indiana
p6
aa(lp7
a(lp8
aa(lp9
(lp10
Vhttp://dbpedia.org/resource/United_States_and_Canada
p11
aa(lp12
Vhttp://dbpedia.org/resource/English,_Indiana
p13
aa(lp14
a(lp15
aa(lp16
(lp17
a(lp18
Vhttp://dbpedia.org/resource/English,_Indiana
p19
aa(lp20
a(lp21
aa(lp22
(lp23
Vhttp://dbpedia.org/resource/Australia
p24
aa(lp25
Vhttp://dbpedia.org/resource/English,_Indiana
p26
aa(lp27
a(lp28
aa(lp29
(lp30
Vhttp://dbpedia.org/resource/Belgium
p31
aa(lp32
a(lp33
a(lp34
aa(lp35
(lp36
Vhttp://dbpedia.org/resource/Denmark
p37
aa(lp38
Vhttp://dbpedia.org/resource/Danish_(name)
p39
aa(lp40
a(lp41
aa(lp42
(lp43
Vhttp://dbpedia.org/resource/Finland
p44
aa(lp45
a(lp46
a(lp47
aa(lp48
(lp49
Vhttp://dbpedia.org/resource/France_2
p50
aa(lp51
Vhttp://dbpedia.org/resource/French_River_(Ontario)
p52
aa(lp53
a(lp54
aa(lp55
(lp56
Vhttp://dbpedia.org/resource/Germany
p57
aa(lp58
Vhttp://dbpedia.org/resource/Germany
p59
aa(lp60
a(lp61
aa(lp62
(lp63
Vhttp://dbpedia.org/resource/Hong_Kong
p64
aa(lp65
Vhttp://dbpedia.org/resource/Hong_Kong_English
p66
aa(lp67
a(lp68
aa(lp69
(lp70
Vhttp://dbpedia.org/resource/Italy
p71
aa(lp72
Vhttp://dbpedia.org/resource/Italian_Gambit
p73
aa(lp74
a(lp75
aa(lp76
(lp77
Vhttp://dbpedia.org/resource/Netherlands
p78
aa(lp79
Vhttp://dbpedia.org/resource/Dutch_Boyd
p80
aa(lp81
a(lp82
aa(lp83
(lp84
Vhttp://dbpedia.org/resource/Norway
p85
aa(lp86
Vhttp://dbpedia.org/resource/Norwegian_Air_Shuttle
p87
aa(lp88
a(lp89
aa(lp90
(lp91
Vhttp://dbpedia.org/resource/Poland
p92
aa(lp93
Vhttp://dbpedia.org/resource/Polish_cuisine
p94
aa(lp95
a(lp96
aa(lp97
(lp98
Vhttp://dbpedia.org/resource/Sweden
p99
aa(lp100
Vhttp://dbpedia.org/resource/Swedish
p101
aa(lp102
a(lp103
aa(lp104
(lp105
Vhttp://dbpedia.org/resource/Switzerland
p106
aa(lp107
a(lp108
a(lp109
aa(lp110
(lp111
a(lp112
a(lp113
a(lp114
aa(lp115
(lp116
a(lp117
Vhttp://dbpedia.org/resource/English,_Indiana
p118
aa(lp119
a(lp120
aa.