(lp1
(dp2
I0
(dp3
I0
(lp4
sI1
(lp5
sI2
(lp6
Vhttp://www.w3.org/ns/prov#wasDerivedFrom
p7
aVhttp://purl.org/voc/vrank#hasRank
p8
aVhttp://www.w3.org/2002/07/owl#sameAs
p9
assI1
(dp10
I0
g5
sI1
(lp11
sI2
(lp12
Vhttp://www.w3.org/ns/prov#wasDerivedFrom
p13
assI2
(dp14
I0
g6
sI1
g12
sI2
(lp15
ssa(dp16
I0
(dp17
I0
(lp18
sI1
(lp19
sI2
(lp20
Vhttp://www.w3.org/ns/prov#wasDerivedFrom
p21
assI1
(dp22
I0
g19
sI1
(lp23
sI2
(lp24
Vhttp://purl.org/voc/vrank#hasRank
p25
aVhttp://www.w3.org/2002/07/owl#sameAs
p26
assI2
(dp27
I0
g20
sI1
g24
sI2
(lp28
ssa(dp29
I0
(dp30
I0
(lp31
sI1
(lp32
sI2
(lp33
Vhttp://www.w3.org/ns/prov#wasDerivedFrom
p34
aVhttp://www.w3.org/2002/07/owl#sameAs
p35
assI1
(dp36
I0
g32
sI1
(lp37
sI2
(lp38
ssI2
(dp39
I0
g33
sI1
g38
sI2
(lp40
ssa(dp41
I0
(dp42
I0
(lp43
sI1
(lp44
sI2
(lp45
Vhttp://www.w3.org/ns/prov#wasDerivedFrom
p46
aVhttp://purl.org/voc/vrank#hasRank
p47
aVhttp://dbpedia.org/ontology/wikiPageRedirects
p48
assI1
(dp49
I0
g44
sI1
(lp50
sI2
(lp51
Vhttp://purl.org/voc/vrank#hasRank
p52
aVhttp://www.w3.org/2002/07/owl#sameAs
p53
assI2
(dp54
I0
g45
sI1
g51
sI2
(lp55
ssa(dp56
I0
(dp57
I0
(lp58
sI1
(lp59
sI2
(lp60
ssI1
(dp61
I1
(lp62
sI2
(lp63
ssI2
(dp64
I2
(lp65
ssa.