(lp1
(lp2
(dp3
Vstart
p4
I0
sS'classes'
p5
(lp6
Vhttp://www.w3.org/2002/07/owl#Thing
p7
aVhttp://dbpedia.org/ontology/Place
p8
aVhttp://dbpedia.org/ontology/Location
p9
aVhttp://www.wikidata.org/entity/Q486972
p10
aVhttp://www.wikidata.org/entity/Q6256
p11
aVhttp://dbpedia.org/ontology/Country
p12
aVhttp://dbpedia.org/ontology/PopulatedPlace
p13
aVhttp://www.w3.org/2003/01/geo/wgs84_pos#SpatialThing
p14
aVhttp://schema.org/Country
p15
aVhttp://schema.org/Place
p16
aVhttp://umbel.org/umbel/rc/Country
p17
aVhttp://umbel.org/umbel/rc/Location_Underspecified
p18
aVhttp://umbel.org/umbel/rc/PopulatedPlace
p19
aVhttp://dbpedia.org/class/yago/Abstraction100002137
p20
aVhttp://dbpedia.org/class/yago/AdministrativeDistrict108491826
p21
aVhttp://dbpedia.org/class/yago/Country108544813
p22
aVhttp://dbpedia.org/class/yago/District108552138
p23
aVhttp://dbpedia.org/class/yago/Economy108366753
p24
aVhttp://dbpedia.org/class/yago/Group100031264
p25
aVhttp://dbpedia.org/class/yago/Location100027167
p26
aVhttp://dbpedia.org/class/yago/Object100002684
p27
aVhttp://dbpedia.org/class/yago/Region108630985
p28
aVhttp://dbpedia.org/class/yago/System108435388
p29
aVhttp://dbpedia.org/class/yago/YagoGeoEntity
p30
aVhttp://dbpedia.org/class/yago/YagoLegalActorGeo
p31
aVhttp://dbpedia.org/class/yago/CentralAsianCountries
p32
aVhttp://dbpedia.org/class/yago/PhysicalEntity100001930
p33
aVhttp://dbpedia.org/class/yago/YagoPermanentlyLocatedEntity
p34
aVhttp://dbpedia.org/class/yago/IslamicStates
p35
aVhttp://dbpedia.org/class/yago/LandlockedCountries
p36
aVhttp://dbpedia.org/class/yago/LeastDevelopedCountries
p37
aVhttp://dbpedia.org/class/yago/MemberStatesOfTheOrganisationOfIslamicCooperation
p38
aVhttp://dbpedia.org/class/yago/MemberStatesOfTheSouthAsianAssociationForRegionalCooperation
p39
aVhttp://dbpedia.org/class/yago/MemberStatesOfTheUnitedNations
p40
aVhttp://dbpedia.org/class/yago/MiddleEasternCountries
p41
aVhttp://dbpedia.org/class/yago/Pashto-speakingCountriesAndTerritories
p42
aVhttp://dbpedia.org/class/yago/Persian-speakingCountriesAndTerritories
p43
aVhttp://dbpedia.org/class/yago/SouthAsianCountries
p44
aVhttp://dbpedia.org/class/yago/StatesAndTerritoriesEstablishedIn1709
p45
aVhttp://dbpedia.org/class/yago/StatesAndTerritoriesEstablishedIn1747
p46
aVhttp://dbpedia.org/class/yago/TerritoriesUnderMilitaryOccupation
p47
asVdisambiguatedURL
p48
Vhttp://dbpedia.org/resource/Afghanistan
p49
sVnamedEntity
p50
Vafghanistan
p51
sVoffset
p52
I11
saa(lp53
a(lp54
a(lp55
a(lp56
a(lp57
a(lp58
(dp59
Vstart
p60
I0
sg5
(lp61
Vhttp://www.w3.org/2002/07/owl#Thing
p62
aVhttp://dbpedia.org/ontology/Place
p63
aVhttp://dbpedia.org/ontology/Location
p64
aVhttp://www.wikidata.org/entity/Q486972
p65
aVhttp://www.wikidata.org/entity/Q6256
p66
aVhttp://dbpedia.org/ontology/Country
p67
aVhttp://dbpedia.org/ontology/PopulatedPlace
p68
aVhttp://www.w3.org/2003/01/geo/wgs84_pos#SpatialThing
p69
aVhttp://schema.org/Country
p70
aVhttp://schema.org/Place
p71
aVhttp://umbel.org/umbel/rc/Country
p72
aVhttp://umbel.org/umbel/rc/Location_Underspecified
p73
aVhttp://umbel.org/umbel/rc/PopulatedPlace
p74
asVdisambiguatedURL
p75
Vhttp://dbpedia.org/resource/Antigua_and_Barbuda
p76
sVnamedEntity
p77
Vantigua and barbuda
p78
sVoffset
p79
I19
saa(lp80
a(lp81
a(lp82
a(lp83
(dp84
Vstart
p85
I0
sg5
(lp86
Vhttp://www.w3.org/2002/07/owl#Thing
p87
aVhttp://dbpedia.org/ontology/Place
p88
aVhttp://dbpedia.org/ontology/Location
p89
aVhttp://www.wikidata.org/entity/Q486972
p90
aVhttp://dbpedia.org/ontology/Continent
p91
aVhttp://dbpedia.org/ontology/PopulatedPlace
p92
aVhttp://schema.org/Continent
p93
aVhttp://schema.org/Place
p94
aVhttp://dbpedia.org/class/yago/Abstraction100002137
p95
aVhttp://dbpedia.org/class/yago/Economy108366753
p96
aVhttp://dbpedia.org/class/yago/Group100031264
p97
aVhttp://dbpedia.org/class/yago/Land109334396
p98
aVhttp://dbpedia.org/class/yago/Object100002684
p99
aVhttp://dbpedia.org/class/yago/System108435388
p100
aVhttp://dbpedia.org/class/yago/YagoGeoEntity
p101
aVhttp://dbpedia.org/class/yago/Continent109254614
p102
aVhttp://dbpedia.org/class/yago/Continents
p103
aVhttp://dbpedia.org/class/yago/EconomiesByRegion
p104
aVhttp://dbpedia.org/class/yago/Landmass109335916
p105
aVhttp://dbpedia.org/class/yago/PhysicalEntity100001930
p106
aVhttp://dbpedia.org/class/yago/YagoPermanentlyLocatedEntity
p107
asVdisambiguatedURL
p108
Vhttp://dbpedia.org/resource/Oceania
p109
sVnamedEntity
p110
Vaustralia
p111
sVoffset
p112
I9
saa(lp113
a(lp114
a(lp115
a(lp116
a(lp117
a(lp118
a(lp119
a(lp120
a(lp121
a.