(lp1
(lp2
(lp3
Vhttp://dbpedia.org/resource/L%C3%BCneberg_cheese
p4
aa(lp5
a(lp6
aa(lp7
(lp8
a(lp9
a(lp10
aa(lp11
(lp12
a(lp13
a(lp14
aa(lp15
(lp16
a(lp17
a(lp18
aa(lp19
(lp20
Vhttp://dbpedia.org/resource/Beacon_Fell,_Cumbria
p21
aa(lp22
a(lp23
aa(lp24
(lp25
a(lp26
a(lp27
aa(lp28
(lp29
a(lp30
a(lp31
aa(lp32
(lp33
a(lp34
a(lp35
aa(lp36
(lp37
a(lp38
a(lp39
aa(lp40
(lp41
a(lp42
a(lp43
aa(lp44
(lp45
Vhttp://dbpedia.org/resource/Saint-Marcellin,_Quebec
p46
aa(lp47
a(lp48
aa(lp49
(lp50
Vhttp://dbpedia.org/resource/Bari_Sardo
p51
aa(lp52
a(lp53
aa(lp54
(lp55
Vhttp://dbpedia.org/resource/B%C3%A9al_Organic_Cheese
p56
aa(lp57
a(lp58
aa(lp59
(lp60
a(lp61
a(lp62
aa(lp63
(lp64
a(lp65
a(lp66
aa(lp67
(lp68
a(lp69
a(lp70
aa(lp71
(lp72
Vhttp://dbpedia.org/resource/Pr%C3%A4stost
p73
aa(lp74
a(lp75
aa(lp76
(lp77
Vhttp://dbpedia.org/resource/Cab%C3%A9cou
p78
aa(lp79
a(lp80
aa(lp81
(lp82
a(lp83
a(lp84
aa.