(lp1
(lp2
(dp3
Vstart
p4
I0
sVdisambiguatedURL
p5
NsVnamedEntity
p6
Vtaiwan
p7
sVoffset
p8
I6
saa(lp9
(dp10
Vstart
p11
I0
sVdisambiguatedURL
p12
NsVnamedEntity
p13
Vtajikistan
p14
sVoffset
p15
I10
saa(lp16
(dp17
Vstart
p18
I0
sVdisambiguatedURL
p19
NsVnamedEntity
p20
Vtanzania
p21
sVoffset
p22
I8
saa(lp23
(dp24
Vstart
p25
I0
sVdisambiguatedURL
p26
NsVnamedEntity
p27
Vthailand
p28
sVoffset
p29
I8
saa(lp30
(dp31
Vstart
p32
I0
sVdisambiguatedURL
p33
NsVnamedEntity
p34
Vthe bahamas
p35
sVoffset
p36
I11
saa(lp37
(dp38
Vstart
p39
I0
sVdisambiguatedURL
p40
NsVnamedEntity
p41
Vthe gambia
p42
sVoffset
p43
I10
saa(lp44
(dp45
Vstart
p46
I0
sVdisambiguatedURL
p47
NsVnamedEntity
p48
Vtogo
p49
sVoffset
p50
I4
saa(lp51
(dp52
Vstart
p53
I0
sVdisambiguatedURL
p54
NsVnamedEntity
p55
Vtokelau
p56
sVoffset
p57
I7
saa(lp58
(dp59
Vstart
p60
I0
sVdisambiguatedURL
p61
NsVnamedEntity
p62
Vtonga
p63
sVoffset
p64
I5
saa(lp65
(dp66
Vstart
p67
I0
sVdisambiguatedURL
p68
Vhttp://dbpedia.org/resource/Trinidad_and_Tobago
p69
sVnamedEntity
p70
Vtrinidad and tobago
p71
sVoffset
p72
I19
saa(lp73
(dp74
Vstart
p75
I0
sVdisambiguatedURL
p76
NsVnamedEntity
p77
Vtunisia
p78
sVoffset
p79
I7
saa(lp80
(dp81
Vstart
p82
I0
sVdisambiguatedURL
p83
NsVnamedEntity
p84
Vturkey
p85
sVoffset
p86
I6
saa(lp87
(dp88
Vstart
p89
I0
sVdisambiguatedURL
p90
Vhttp://dbpedia.org/resource/Turkmenistan
p91
sVnamedEntity
p92
Vturkmenistan
p93
sVoffset
p94
I12
saa(lp95
(dp96
Vstart
p97
I0
sVdisambiguatedURL
p98
Vhttp://dbpedia.org/resource/Turks_and_Caicos_Islands
p99
sVnamedEntity
p100
Vturks and caicos islands
p101
sVoffset
p102
I24
saa(lp103
(dp104
Vstart
p105
I0
sVdisambiguatedURL
p106
NsVnamedEntity
p107
Vtuvalu
p108
sVoffset
p109
I6
saa.