(lp1
(dp2
I0
(dp3
I0
(lp4
sI1
(lp5
sI2
(lp6
sI3
(lp7
ssI1
(dp8
I1
(lp9
sI2
(lp10
sI3
(lp11
ssI2
(dp12
I2
(lp13
sI3
(lp14
ssI3
(dp15
I3
(lp16
ssa(dp17
I0
(dp18
I0
(lp19
sI1
(lp20
sI2
(lp21
sI3
(lp22
ssI1
(dp23
I0
g20
sI1
(lp24
sI2
(lp25
sI3
(lp26
ssI2
(dp27
I0
g21
sI1
g25
sI2
(lp28
sI3
(lp29
Vhttp://www.w3.org/2000/01/rdf-schema#seeAlso
p30
aVhttp://dbpedia.org/property/mapCaption
p31
aVhttp://dbpedia.org/property/legislature
p32
aVhttp://dbpedia.org/property/sovereigntyType
p33
aVhttp://www.w3.org/ns/prov#wasDerivedFrom
p34
aVhttp://dbpedia.org/property/caption
p35
aVhttp://dbpedia.org/ontology/flag
p36
aVhttp://dbpedia.org/ontology/country
p37
aVhttp://dbpedia.org/property/nationalAnthem
p38
aVhttp://www.w3.org/2000/01/rdf-schema#label
p39
aVhttp://dbpedia.org/property/locationCountry
p40
aVhttp://dbpedia.org/ontology/place
p41
aVhttp://xmlns.com/foaf/0.1/isPrimaryTopicOf
p42
aVhttp://dbpedia.org/property/country
p43
aVhttp://dbpedia.org/ontology/wikiPageDisambiguates
p44
aVhttp://dbpedia.org/property/callingCode
p45
aVhttp://dbpedia.org/ontology/wikiPageExternalLink
p46
aVhttp://xmlns.com/foaf/0.1/primaryTopic
p47
aVhttp://purl.org/dc/terms/subject
p48
aVhttp://dbpedia.org/ontology/abstract
p49
aVhttp://xmlns.com/foaf/0.1/depiction
p50
aVhttp://dbpedia.org/property/location
p51
aVhttp://dbpedia.org/property/states
p52
aVhttp://dbpedia.org/ontology/locationCountry
p53
aVhttp://dbpedia.org/ontology/thumbnail
p54
aVhttp://dbpedia.org/property/hasPhotoCollection
p55
aVhttp://dbpedia.org/property/commonName
p56
aVhttp://dbpedia.org/property/armiger
p57
aVhttp://dbpedia.org/property/imageMap
p58
aVhttp://dbpedia.org/ontology/location
p59
aVhttp://dbpedia.org/property/residence
p60
aVhttp://dbpedia.org/property/meetingPlace
p61
aVhttp://www.w3.org/2000/01/rdf-schema#comment
p62
aVhttp://dbpedia.org/ontology/wikiPageRedirects
p63
aVhttp://dbpedia.org/property/imageFlag
p64
aVhttp://www.w3.org/2002/07/owl#sameAs
p65
aVhttp://dbpedia.org/property/imageCoat
p66
aVhttp://xmlns.com/foaf/0.1/name
p67
aVhttp://dbpedia.org/ontology/spokenIn
p68
aVhttp://dbpedia.org/property/leaderTitle
p69
aVhttp://dbpedia.org/property/stadium
p70
assI3
(dp71
I0
g22
sI1
g26
sI2
g29
sI3
(lp72
ssa(dp73
I0
(dp74
I0
(lp75
sI1
(lp76
sI2
(lp77
sI3
(lp78
ssI1
(dp79
I0
g76
sI1
(lp80
sI2
(lp81
sI3
(lp82
ssI2
(dp83
I0
g77
sI1
g81
sI2
(lp84
sI3
(lp85
Vhttp://xmlns.com/foaf/0.1/primaryTopic
p86
aVhttp://purl.org/dc/terms/subject
p87
aVhttp://dbpedia.org/property/nameorigin
p88
aVhttp://www.w3.org/2000/01/rdf-schema#comment
p89
aVhttp://www.w3.org/2000/01/rdf-schema#label
p90
aVhttp://dbpedia.org/ontology/abstract
p91
aVhttp://dbpedia.org/property/openingname
p92
aVhttp://dbpedia.org/ontology/wikiPageRedirects
p93
aVhttp://xmlns.com/foaf/0.1/isPrimaryTopicOf
p94
aVhttp://www.w3.org/ns/prov#wasDerivedFrom
p95
aVhttp://dbpedia.org/property/hasPhotoCollection
p96
aVhttp://dbpedia.org/ontology/wikiPageDisambiguates
p97
aVhttp://dbpedia.org/property/aka
p98
aVhttp://www.w3.org/2002/07/owl#sameAs
p99
assI3
(dp100
I0
g78
sI1
g82
sI2
g85
sI3
(lp101
ssa(dp102
I0
(dp103
I0
(lp104
sI1
(lp105
sI2
(lp106
sI3
(lp107
ssI1
(dp108
I0
g105
sI1
(lp109
sI2
(lp110
sI3
(lp111
ssI2
(dp112
I0
g106
sI1
g110
sI2
(lp113
sI3
(lp114
Vhttp://dbpedia.org/ontology/wikiPageExternalLink
p115
aVhttp://xmlns.com/foaf/0.1/primaryTopic
p116
aVhttp://purl.org/dc/terms/subject
p117
aVhttp://www.w3.org/2000/01/rdf-schema#comment
p118
aVhttp://www.w3.org/2000/01/rdf-schema#label
p119
aVhttp://dbpedia.org/ontology/abstract
p120
aVhttp://xmlns.com/foaf/0.1/depiction
p121
aVhttp://dbpedia.org/ontology/wikiPageRedirects
p122
aVhttp://xmlns.com/foaf/0.1/isPrimaryTopicOf
p123
aVhttp://www.w3.org/ns/prov#wasDerivedFrom
p124
aVhttp://dbpedia.org/property/hasPhotoCollection
p125
aVhttp://dbpedia.org/ontology/wikiPageDisambiguates
p126
aVhttp://dbpedia.org/ontology/thumbnail
p127
assI3
(dp128
I0
g107
sI1
g111
sI2
g114
sI3
(lp129
ssa(dp130
I0
(dp131
I0
(lp132
sI1
(lp133
sI2
(lp134
sI3
(lp135
ssI1
(dp136
I0
g133
sI1
(lp137
sI2
(lp138
sI3
(lp139
ssI2
(dp140
I0
g134
sI1
g138
sI2
(lp141
sI3
(lp142
ssI3
(dp143
I0
g135
sI1
g139
sI2
g142
sI3
(lp144
ssa(dp145
I0
(dp146
I0
(lp147
sI1
(lp148
Vhttp://dbpedia.org/property/officialLanguages
p149
aVhttp://www.w3.org/2000/01/rdf-schema#comment
p150
aVhttp://dbpedia.org/ontology/abstract
p151
aVhttp://dbpedia.org/property/states
p152
aVhttp://dbpedia.org/ontology/spokenIn
p153
aVhttp://dbpedia.org/property/label
p154
aVhttp://dbpedia.org/ontology/officialLanguage
p155
aVhttp://dbpedia.org/ontology/language
p156
aVhttp://dbpedia.org/property/nation
p157
asI2
(lp158
sI3
(lp159
ssI1
(dp160
I0
g148
sI1
(lp161
sI2
(lp162
sI3
(lp163
ssI2
(dp164
I0
g158
sI1
g162
sI2
(lp165
sI3
(lp166
ssI3
(dp167
I0
g159
sI1
g163
sI2
g166
sI3
(lp168
ssa(dp169
I0
(dp170
I0
(lp171
sI1
(lp172
sI2
(lp173
sI3
(lp174
ssI1
(dp175
I0
g172
sI1
(lp176
sI2
(lp177
sI3
(lp178
ssI2
(dp179
I0
g173
sI1
g177
sI2
(lp180
sI3
(lp181
ssI3
(dp182
I0
g174
sI1
g178
sI2
g181
sI3
(lp183
ssa(dp184
I0
(dp185
I0
(lp186
sI1
(lp187
sI2
(lp188
sI3
(lp189
ssI1
(dp190
I0
g187
sI1
(lp191
sI2
(lp192
sI3
(lp193
ssI2
(dp194
I0
g188
sI1
g192
sI2
(lp195
sI3
(lp196
ssI3
(dp197
I0
g189
sI1
g193
sI2
g196
sI3
(lp198
ssa(dp199
I0
(dp200
I0
(lp201
sI1
(lp202
sI2
(lp203
Vhttp://www.w3.org/2000/01/rdf-schema#comment
p204
aVhttp://dbpedia.org/ontology/birthPlace
p205
aVhttp://xmlns.com/foaf/0.1/depiction
p206
aVhttp://dbpedia.org/property/birthPlace
p207
aVhttp://dbpedia.org/ontology/thumbnail
p208
aVhttp://dbpedia.org/ontology/abstract
p209
aVhttp://dbpedia.org/property/placeOfBirth
p210
asI3
(lp211
ssI1
(dp212
I0
g202
sI1
(lp213
sI2
(lp214
sI3
(lp215
ssI2
(dp216
I0
g203
sI1
g214
sI2
(lp217
sI3
(lp218
ssI3
(dp219
I0
g211
sI1
g215
sI2
g218
sI3
(lp220
ssa(dp221
I0
(dp222
I0
(lp223
sI1
(lp224
sI2
(lp225
sI3
(lp226
ssI1
(dp227
I0
g224
sI1
(lp228
sI2
(lp229
sI3
(lp230
ssI2
(dp231
I0
g225
sI1
g229
sI2
(lp232
sI3
(lp233
ssI3
(dp234
I0
g226
sI1
g230
sI2
g233
sI3
(lp235
ssa(dp236
I0
(dp237
I0
(lp238
sI1
(lp239
sI2
(lp240
sI3
(lp241
ssI1
(dp242
I0
g239
sI1
(lp243
sI2
(lp244
sI3
(lp245
ssI2
(dp246
I0
g240
sI1
g244
sI2
(lp247
sI3
(lp248
ssI3
(dp249
I0
g241
sI1
g245
sI2
g248
sI3
(lp250
ssa(dp251
I0
(dp252
I0
(lp253
sI1
(lp254
sI2
(lp255
sI3
(lp256
ssI1
(dp257
I0
g254
sI1
(lp258
sI2
(lp259
sI3
(lp260
ssI2
(dp261
I0
g255
sI1
g259
sI2
(lp262
sI3
(lp263
ssI3
(dp264
I0
g256
sI1
g260
sI2
g263
sI3
(lp265
ssa(dp266
I0
(dp267
I0
(lp268
sI1
(lp269
sI2
(lp270
sI3
(lp271
ssI1
(dp272
I0
g269
sI1
(lp273
sI2
(lp274
sI3
(lp275
ssI2
(dp276
I0
g270
sI1
g274
sI2
(lp277
sI3
(lp278
Vhttp://www.w3.org/1999/02/22-rdf-syntax-ns#type
p279
aVhttp://purl.org/dc/terms/subject
p280
aVhttp://dbpedia.org/property/headquarters
p281
aVhttp://dbpedia.org/ontology/abstract
p282
aVhttp://xmlns.com/foaf/0.1/depiction
p283
aVhttp://dbpedia.org/ontology/thumbnail
p284
assI3
(dp285
I0
g271
sI1
g275
sI2
g278
sI3
(lp286
ssa(dp287
I0
(dp288
I0
(lp289
sI1
(lp290
Vhttp://www.w3.org/2000/01/rdf-schema#seeAlso
p291
aVhttp://dbpedia.org/ontology/country
p292
aVhttp://purl.org/dc/terms/subject
p293
aVhttp://dbpedia.org/ontology/populationPlace
p294
aVhttp://www.w3.org/2000/01/rdf-schema#comment
p295
aVhttp://dbpedia.org/ontology/origin
p296
aVhttp://dbpedia.org/ontology/birthPlace
p297
aVhttp://dbpedia.org/ontology/abstract
p298
aVhttp://dbpedia.org/property/place
p299
aVhttp://dbpedia.org/ontology/wikiPageRedirects
p300
aVhttp://dbpedia.org/property/birthPlace
p301
aVhttp://dbpedia.org/ontology/place
p302
aVhttp://dbpedia.org/property/placeOfBirth
p303
aVhttp://dbpedia.org/property/country
p304
aVhttp://dbpedia.org/property/footnoteA
p305
aVhttp://dbpedia.org/property/foundingLocation
p306
aVhttp://dbpedia.org/property/subdivisionName
p307
aVhttp://dbpedia.org/property/establishedEvent
p308
asI2
(lp309
sI3
(lp310
ssI1
(dp311
I0
g290
sI1
(lp312
sI2
(lp313
sI3
(lp314
ssI2
(dp315
I0
g309
sI1
g313
sI2
(lp316
sI3
(lp317
Vhttp://dbpedia.org/property/subdivisionType
p318
aVhttp://dbpedia.org/ontology/country
p319
aVhttp://dbpedia.org/ontology/type
p320
aVhttp://www.w3.org/2000/01/rdf-schema#comment
p321
aVhttp://dbpedia.org/ontology/abstract
p322
aVhttp://dbpedia.org/property/settlementType
p323
assI3
(dp324
I0
g310
sI1
g314
sI2
g317
sI3
(lp325
ssa(dp326
I0
(dp327
I0
(lp328
sI1
(lp329
sI2
(lp330
sI3
(lp331
ssI1
(dp332
I0
g329
sI1
(lp333
sI2
(lp334
sI3
(lp335
ssI2
(dp336
I0
g330
sI1
g334
sI2
(lp337
sI3
(lp338
ssI3
(dp339
I0
g331
sI1
g335
sI2
g338
sI3
(lp340
ssa(dp341
I0
(dp342
I0
(lp343
sI1
(lp344
sI2
(lp345
sI3
(lp346
ssI1
(dp347
I0
g344
sI1
(lp348
sI2
(lp349
sI3
(lp350
ssI2
(dp351
I0
g345
sI1
g349
sI2
(lp352
sI3
(lp353
Vhttp://dbpedia.org/property/states
p354
aVhttp://dbpedia.org/ontology/spokenIn
p355
assI3
(dp356
I0
g346
sI1
g350
sI2
g353
sI3
(lp357
ssa(dp358
I0
(dp359
I0
(lp360
sI1
(lp361
sI2
(lp362
sI3
(lp363
ssI1
(dp364
I0
g361
sI1
(lp365
sI2
(lp366
sI3
(lp367
ssI2
(dp368
I0
g362
sI1
g366
sI2
(lp369
sI3
(lp370
ssI3
(dp371
I0
g363
sI1
g367
sI2
g370
sI3
(lp372
ssa(dp373
I0
(dp374
I0
(lp375
sI1
(lp376
sI2
(lp377
sI3
(lp378
ssI1
(dp379
I0
g376
sI1
(lp380
sI2
(lp381
sI3
(lp382
ssI2
(dp383
I0
g377
sI1
g381
sI2
(lp384
sI3
(lp385
Vhttp://dbpedia.org/property/states
p386
aVhttp://dbpedia.org/ontology/spokenIn
p387
assI3
(dp388
I0
g378
sI1
g382
sI2
g385
sI3
(lp389
ssa(dp390
I0
(dp391
I0
(lp392
sI1
(lp393
sI2
(lp394
sI3
(lp395
ssI1
(dp396
I0
g393
sI1
(lp397
sI2
(lp398
sI3
(lp399
ssI2
(dp400
I0
g394
sI1
g398
sI2
(lp401
sI3
(lp402
ssI3
(dp403
I0
g395
sI1
g399
sI2
g402
sI3
(lp404
ssa(dp405
I0
(dp406
I0
(lp407
sI1
(lp408
sI2
(lp409
sI3
(lp410
ssI1
(dp411
I0
g408
sI1
(lp412
sI2
(lp413
sI3
(lp414
ssI2
(dp415
I0
g409
sI1
g413
sI2
(lp416
sI3
(lp417
ssI3
(dp418
I0
g410
sI1
g414
sI2
g417
sI3
(lp419
ssa.