(lp1
(dp2
I0
(dp3
I0
(lp4
sI1
(lp5
sI2
(lp6
sI3
(lp7
Vhttp://dbpedia.org/ontology/wikiPageExternalLink
p8
aVhttp://www.w3.org/1999/02/22-rdf-syntax-ns#type
p9
aVhttp://www.w3.org/2000/01/rdf-schema#comment
p10
aVhttp://dbpedia.org/ontology/abstract
p11
aVhttp://dbpedia.org/ontology/equity
p12
aVhttp://dbpedia.org/property/wordnet_type
p13
aVhttp://purl.org/voc/vrank#hasRank
p14
aVhttp://dbpedia.org/property/assets
p15
aVhttp://dbpedia.org/ontology/knownFor
p16
aVhttp://dbpedia.org/ontology/assets
p17
aVhttp://www.w3.org/2002/07/owl#sameAs
p18
assI1
(dp19
I0
g5
sI1
(lp20
sI2
(lp21
sI3
(lp22
ssI2
(dp23
I0
g6
sI1
g21
sI2
(lp24
sI3
(lp25
ssI3
(dp26
I0
g7
sI1
g22
sI2
g25
sI3
(lp27
ssa(dp28
I0
(dp29
I0
(lp30
sI1
(lp31
sI2
(lp32
sI3
(lp33
Vhttp://www.w3.org/1999/02/22-rdf-syntax-ns#type
p34
aVhttp://dbpedia.org/ontology/location
p35
aVhttp://purl.org/voc/vrank#hasRank
p36
aVhttp://dbpedia.org/property/wordnet_type
p37
aVhttp://dbpedia.org/property/netIncome
p38
aVhttp://dbpedia.org/ontology/netIncome
p39
aVhttp://www.w3.org/2002/07/owl#sameAs
p40
assI1
(dp41
I0
g31
sI1
(lp42
sI2
(lp43
sI3
(lp44
ssI2
(dp45
I0
g32
sI1
g43
sI2
(lp46
sI3
(lp47
ssI3
(dp48
I0
g33
sI1
g44
sI2
g47
sI3
(lp49
ssa(dp50
I0
(dp51
I0
(lp52
sI1
(lp53
sI2
(lp54
sI3
(lp55
ssI1
(dp56
I0
g53
sI1
(lp57
sI2
(lp58
sI3
(lp59
ssI2
(dp60
I0
g54
sI1
g58
sI2
(lp61
sI3
(lp62
ssI3
(dp63
I0
g55
sI1
g59
sI2
g62
sI3
(lp64
ssa(dp65
I0
(dp66
I0
(lp67
sI1
(lp68
sI2
(lp69
sI3
(lp70
ssI1
(dp71
I0
g68
sI1
(lp72
sI2
(lp73
sI3
(lp74
ssI2
(dp75
I0
g69
sI1
g73
sI2
(lp76
sI3
(lp77
ssI3
(dp78
I0
g70
sI1
g74
sI2
g77
sI3
(lp79
ssa(dp80
I0
(dp81
I0
(lp82
sI1
(lp83
sI2
(lp84
sI3
(lp85
ssI1
(dp86
I0
g83
sI1
(lp87
sI2
(lp88
sI3
(lp89
ssI2
(dp90
I0
g84
sI1
g88
sI2
(lp91
sI3
(lp92
ssI3
(dp93
I0
g85
sI1
g89
sI2
g92
sI3
(lp94
ssa(dp95
I0
(dp96
I0
(lp97
sI1
(lp98
sI2
(lp99
sI3
(lp100
Vhttp://www.w3.org/1999/02/22-rdf-syntax-ns#type
p101
aVhttp://dbpedia.org/ontology/location
p102
aVhttp://www.w3.org/2000/01/rdf-schema#comment
p103
aVhttp://dbpedia.org/ontology/abstract
p104
aVhttp://purl.org/voc/vrank#hasRank
p105
aVhttp://www.w3.org/2002/07/owl#sameAs
p106
assI1
(dp107
I0
g98
sI1
(lp108
sI2
(lp109
sI3
(lp110
ssI2
(dp111
I0
g99
sI1
g109
sI2
(lp112
sI3
(lp113
ssI3
(dp114
I0
g100
sI1
g110
sI2
g113
sI3
(lp115
ssa(dp116
I0
(dp117
I0
(lp118
sI1
(lp119
sI2
(lp120
sI3
(lp121
Vhttp://dbpedia.org/ontology/wikiPageExternalLink
p122
aVhttp://www.w3.org/1999/02/22-rdf-syntax-ns#type
p123
aVhttp://purl.org/dc/terms/subject
p124
aVhttp://www.w3.org/2000/01/rdf-schema#comment
p125
aVhttp://dbpedia.org/ontology/revenue
p126
aVhttp://dbpedia.org/ontology/abstract
p127
aVhttp://dbpedia.org/ontology/equity
p128
aVhttp://dbpedia.org/property/wordnet_type
p129
aVhttp://www.w3.org/ns/prov#wasDerivedFrom
p130
aVhttp://dbpedia.org/property/equity
p131
aVhttp://dbpedia.org/ontology/assets
p132
aVhttp://www.w3.org/2002/07/owl#sameAs
p133
aVhttp://dbpedia.org/property/revenue
p134
assI1
(dp135
I0
g119
sI1
(lp136
sI2
(lp137
sI3
(lp138
ssI2
(dp139
I0
g120
sI1
g137
sI2
(lp140
sI3
(lp141
ssI3
(dp142
I0
g121
sI1
g138
sI2
g141
sI3
(lp143
ssa(dp144
I0
(dp145
I0
(lp146
sI1
(lp147
sI2
(lp148
sI3
(lp149
ssI1
(dp150
I0
g147
sI1
(lp151
sI2
(lp152
sI3
(lp153
ssI2
(dp154
I0
g148
sI1
g152
sI2
(lp155
sI3
(lp156
ssI3
(dp157
I0
g149
sI1
g153
sI2
g156
sI3
(lp158
ssa(dp159
I0
(dp160
I0
(lp161
sI1
(lp162
sI2
(lp163
sI3
(lp164
Vhttp://dbpedia.org/ontology/wikiPageExternalLink
p165
aVhttp://xmlns.com/foaf/0.1/primaryTopic
p166
aVhttp://www.georss.org/georss/point
p167
aVhttp://purl.org/dc/terms/subject
p168
aVhttp://www.w3.org/2000/01/rdf-schema#comment
p169
aVhttp://dbpedia.org/ontology/abstract
p170
aVhttp://xmlns.com/foaf/0.1/depiction
p171
aVhttp://xmlns.com/foaf/0.1/name
p172
aVhttp://www.w3.org/1999/02/22-rdf-syntax-ns#type
p173
aVhttp://xmlns.com/foaf/0.1/isPrimaryTopicOf
p174
aVhttp://www.w3.org/ns/prov#wasDerivedFrom
p175
aVhttp://dbpedia.org/property/hasPhotoCollection
p176
aVhttp://www.w3.org/2000/01/rdf-schema#label
p177
aVhttp://www.w3.org/2002/07/owl#sameAs
p178
aVhttp://dbpedia.org/ontology/thumbnail
p179
assI1
(dp180
I0
g162
sI1
(lp181
sI2
(lp182
sI3
(lp183
ssI2
(dp184
I0
g163
sI1
g182
sI2
(lp185
sI3
(lp186
ssI3
(dp187
I0
g164
sI1
g183
sI2
g186
sI3
(lp188
ssa(dp189
I0
(dp190
I0
(lp191
sI1
(lp192
sI2
(lp193
sI3
(lp194
Vhttp://dbpedia.org/ontology/wikiPageExternalLink
p195
aVhttp://www.w3.org/1999/02/22-rdf-syntax-ns#type
p196
aVhttp://www.w3.org/2000/01/rdf-schema#comment
p197
aVhttp://dbpedia.org/ontology/revenue
p198
aVhttp://dbpedia.org/ontology/abstract
p199
aVhttp://dbpedia.org/ontology/equity
p200
aVhttp://dbpedia.org/ontology/operatingIncome
p201
aVhttp://dbpedia.org/property/wordnet_type
p202
aVhttp://dbpedia.org/property/netIncome
p203
aVhttp://dbpedia.org/property/operatingIncome
p204
aVhttp://dbpedia.org/ontology/thumbnail
p205
aVhttp://dbpedia.org/ontology/netIncome
p206
aVhttp://dbpedia.org/property/hasPhotoCollection
p207
aVhttp://dbpedia.org/ontology/viafId
p208
aVhttp://www.w3.org/2002/07/owl#sameAs
p209
aVhttp://dbpedia.org/property/revenue
p210
assI1
(dp211
I0
g192
sI1
(lp212
sI2
(lp213
sI3
(lp214
ssI2
(dp215
I0
g193
sI1
g213
sI2
(lp216
sI3
(lp217
ssI3
(dp218
I0
g194
sI1
g214
sI2
g217
sI3
(lp219
ssa(dp220
I0
(dp221
I0
(lp222
sI1
(lp223
sI2
(lp224
sI3
(lp225
ssI1
(dp226
I0
g223
sI1
(lp227
sI2
(lp228
sI3
(lp229
ssI2
(dp230
I0
g224
sI1
g228
sI2
(lp231
sI3
(lp232
ssI3
(dp233
I0
g225
sI1
g229
sI2
g232
sI3
(lp234
ssa(dp235
I0
(dp236
I0
(lp237
sI1
(lp238
sI2
(lp239
sI3
(lp240
ssI1
(dp241
I0
g238
sI1
(lp242
sI2
(lp243
sI3
(lp244
ssI2
(dp245
I0
g239
sI2
(lp246
sI3
(lp247
ssI3
(dp248
I0
g240
sI3
(lp249
ssa.