(lp1
(lp2
(lp3
((lVhttp://dbpedia.org/resource/About_us
tp4
aa(lp5
((lVhttp://dbpedia.org/resource/Null
tp6
aa(lp7
((lVhttp://dbpedia.org/resource/Customer_service
tp8
aaa(lp9
(lp10
((lVhttp://dbpedia.org/resource/Wholesale
tp11
aa(lp12
((lVhttp://dbpedia.org/resource/Null
tp13
aa(lp14
aa(lp15
(lp16
((lp17
Vhttp://dbpedia.org/class/yago/Artifact100021939
p18
aVhttp://dbpedia.org/class/yago/BroadcastingStation102903405
p19
aVhttp://dbpedia.org/class/yago/Facility103315023
p20
aVhttp://dbpedia.org/class/yago/Object100002684
p21
aVhttp://dbpedia.org/class/yago/RadioStation104044119
p22
aVhttp://dbpedia.org/class/yago/Station104306080
p23
aVhttp://dbpedia.org/class/yago/Whole100003553
p24
aVhttp://dbpedia.org/class/yago/YagoGeoEntity
p25
aVhttp://dbpedia.org/class/yago/PhysicalEntity100001930
p26
aVhttp://dbpedia.org/class/yago/YagoPermanentlyLocatedEntity
p27
aVhttp://dbpedia.org/class/yago/StudentRadioStationsInNewZealand
p28
aVhttp://dbpedia.org/resource/Contact_FM
tp29
aa(lp30
((lVhttp://dbpedia.org/resource/Null
tp31
aa(lp32
((lVhttp://dbpedia.org/resource/Clearance_(medicine)
tp33
aaa(lp34
(lp35
((lp36
Vhttp://www.w3.org/2002/07/owl#Thing
p37
aVhttp://dbpedia.org/resource/Shopping_cart
tp38
aa(lp39
((lVhttp://dbpedia.org/resource/Null
tp40
aa(lp41
aa(lp42
(lp43
a(lp44
((lVhttp://dbpedia.org/resource/Null
tp45
aa(lp46
aa(lp47
(lp48
((lVhttp://dbpedia.org/resource/Wish_list
tp49
aa(lp50
((lVhttp://dbpedia.org/resource/Null
p51
tp52
aa(lp53
aa.