(lp1
(lp2
(dp3
Vstart
p4
I0
sVdisambiguatedURL
p5
NsVnamedEntity
p6
VBranded Caps &amp; Hats
p7
sVoffset
p8
I23
saa(lp9
(dp10
Vstart
p11
I0
sVdisambiguatedURL
p12
NsVnamedEntity
p13
VPromotional Beanies
p14
sVoffset
p15
I19
saa(lp16
(dp17
Vstart
p18
I0
sVdisambiguatedURL
p19
NsVnamedEntity
p20
VBranded Recycled Rubber Mouse Mats
p21
sVoffset
p22
I34
saa(lp23
(dp24
Vstart
p25
I0
sVdisambiguatedURL
p26
NsVnamedEntity
p27
VAbout Branded Products
p28
sVoffset
p29
I22
saa(lp30
(dp31
Vstart
p32
I0
sVdisambiguatedURL
p33
NsVnamedEntity
p34
VBranded Coffee Machines
p35
sVoffset
p36
I23
saa(lp37
(dp38
Vstart
p39
I0
sVdisambiguatedURL
p40
NsVnamedEntity
p41
VBranded Coffee &amp; Tea Sets
p42
sVoffset
p43
I29
saa(lp44
(dp45
Vstart
p46
I0
sVdisambiguatedURL
p47
NsVnamedEntity
p48
VBranded Akubra Hats
p49
sVoffset
p50
I19
saa(lp51
(dp52
Vstart
p53
I0
sVdisambiguatedURL
p54
NsVnamedEntity
p55
VBranded LED Buttons &amp; Badges
p56
sVoffset
p57
I32
saa(lp58
(dp59
Vstart
p60
I0
sVdisambiguatedURL
p61
NsVnamedEntity
p62
VKey Rings and Bottle Openers
p63
sVoffset
p64
I28
saa(lp65
(dp66
Vstart
p67
I0
sVdisambiguatedURL
p68
NsVnamedEntity
p69
VBranded Jugs &amp; Pitchers
p70
sVoffset
p71
I27
saa(lp72
(dp73
Vstart
p74
I0
sVdisambiguatedURL
p75
NsVnamedEntity
p76
VPromotional Stress Toys
p77
sVoffset
p78
I23
saa(lp79
(dp80
Vstart
p81
I0
sVdisambiguatedURL
p82
NsVnamedEntity
p83
VBranded Wrist Bands
p84
sVoffset
p85
I19
saa(lp86
(dp87
Vstart
p88
I0
sVdisambiguatedURL
p89
NsVnamedEntity
p90
VLanyard Accessories
p91
sVoffset
p92
I19
saa(lp93
(dp94
Vstart
p95
I0
sVdisambiguatedURL
p96
NsVnamedEntity
p97
VPromotional Products Sydney
p98
sVoffset
p99
I27
saa(lp100
(dp101
Vstart
p102
I0
sVdisambiguatedURL
p103
NsVnamedEntity
p104
VPromotional Products Perth
p105
sVoffset
p106
I26
saa(lp107
(dp108
Vstart
p109
I0
sVdisambiguatedURL
p110
Vhttp://dbpedia.org/resource/Customised_buses
p111
sVnamedEntity
p112
VCustomised Caps
p113
sVoffset
p114
I15
saa.