(lp1
(lp2
a(lp3
a(lp4
a(lp5
(dp6
Vstart
p7
I0
sS'classes'
p8
(lp9
Vhttp://www.w3.org/2002/07/owl#Thing
p10
aVhttp://dbpedia.org/ontology/Place
p11
aVhttp://dbpedia.org/ontology/Location
p12
aVhttp://www.wikidata.org/entity/Q486972
p13
aVhttp://dbpedia.org/ontology/PopulatedPlace
p14
aVhttp://dbpedia.org/ontology/Settlement
p15
aVhttp://www.w3.org/2003/01/geo/wgs84_pos#SpatialThing
p16
aVhttp://schema.org/Place
p17
aVhttp://dbpedia.org/class/yago/AdministrativeDistrict108491826
p18
aVhttp://dbpedia.org/class/yago/City108524735
p19
aVhttp://dbpedia.org/class/yago/District108552138
p20
aVhttp://dbpedia.org/class/yago/Location100027167
p21
aVhttp://dbpedia.org/class/yago/Object100002684
p22
aVhttp://dbpedia.org/class/yago/Region108630985
p23
aVhttp://dbpedia.org/class/yago/UrbanArea108675967
p24
aVhttp://dbpedia.org/class/yago/YagoGeoEntity
p25
aVhttp://dbpedia.org/class/yago/YagoLegalActorGeo
p26
aVhttp://dbpedia.org/class/yago/CitiesAndTownsInTheMarche
p27
aVhttp://dbpedia.org/class/yago/GeographicalArea108574314
p28
aVhttp://dbpedia.org/class/yago/Municipality108626283
p29
aVhttp://dbpedia.org/class/yago/PhysicalEntity100001930
p30
aVhttp://dbpedia.org/class/yago/YagoPermanentlyLocatedEntity
p31
asVdisambiguatedURL
p32
Vhttp://dbpedia.org/resource/Serravalle_di_Chienti
p33
sVnamedEntity
p34
VSerravalle
p35
sVoffset
p36
I10
saa(lp37
a(lp38
a(lp39
a(lp40
a(lp41
a(lp42
a.