(lp1
(lp2
(dp3
Vstart
p4
I0
sVdisambiguatedURL
p5
NsVnamedEntity
p6
Vr
sVoffset
p7
I3
saa(lp8
(dp9
Vstart
p10
I0
sVdisambiguatedURL
p11
NsVnamedEntity
p12
V56
p13
sVoffset
p14
I2
saa(lp15
(dp16
Vstart
p17
I0
sVdisambiguatedURL
p18
NsVnamedEntity
p19
V451
p20
sVoffset
p21
I3
saa(lp22
(dp23
Vstart
p24
I0
sVdisambiguatedURL
p25
NsVnamedEntity
p26
V509
p27
sVoffset
p28
I3
saa(lp29
(dp30
Vstart
p31
I0
sVdisambiguatedURL
p32
NsVnamedEntity
p33
V529
p34
sVoffset
p35
I3
saa(lp36
(dp37
Vstart
p38
I0
sVdisambiguatedURL
p39
NsVnamedEntity
p40
V192
p41
sVoffset
p42
I3
saa(lp43
(dp44
Vstart
p45
I0
sVdisambiguatedURL
p46
NsVnamedEntity
p47
V484
p48
sVoffset
p49
I3
saa(lp50
(dp51
Vstart
p52
I0
sVdisambiguatedURL
p53
NsVnamedEntity
p54
V340
p55
sVoffset
p56
I3
saa(lp57
(dp58
Vstart
p59
I0
sVdisambiguatedURL
p60
NsVnamedEntity
p61
V70
p62
sVoffset
p63
I2
saa(lp64
(dp65
Vstart
p66
I0
sVdisambiguatedURL
p67
NsVnamedEntity
p68
V296
p69
sVoffset
p70
I3
saa(lp71
(dp72
Vstart
p73
I0
sVdisambiguatedURL
p74
NsVnamedEntity
p75
V184
p76
sVoffset
p77
I3
saa(lp78
(dp79
Vstart
p80
I0
sVdisambiguatedURL
p81
NsVnamedEntity
p82
V558
p83
sVoffset
p84
I3
saa(lp85
(dp86
Vstart
p87
I0
sVdisambiguatedURL
p88
NsVnamedEntity
p89
V45
p90
sVoffset
p91
I2
saa(lp92
(dp93
Vstart
p94
I0
sVdisambiguatedURL
p95
NsVnamedEntity
p96
V282
p97
sVoffset
p98
I3
saa(lp99
(dp100
Vstart
p101
I0
sVdisambiguatedURL
p102
NsVnamedEntity
p103
Vr
sVoffset
p104
I3
saa(lp105
(dp106
Vstart
p107
I0
sVdisambiguatedURL
p108
NsVnamedEntity
p109
Vr
sVoffset
p110
I3
saa(lp111
(dp112
Vstart
p113
I0
sVdisambiguatedURL
p114
NsVnamedEntity
p115
V120
p116
sVoffset
p117
I3
saa(lp118
(dp119
Vstart
p120
I0
sVdisambiguatedURL
p121
NsVnamedEntity
p122
V52
p123
sVoffset
p124
I2
saa(lp125
(dp126
Vstart
p127
I0
sVdisambiguatedURL
p128
NsVnamedEntity
p129
V211
p130
sVoffset
p131
I3
saa(lp132
(dp133
Vstart
p134
I0
sVdisambiguatedURL
p135
NsVnamedEntity
p136
V549
p137
sVoffset
p138
I3
saa.