(lp1
(lp2
(lp3
Vhttp://dbpedia.org/resource/Height
p4
aa(lp5
a(lp6
aa(lp7
(lp8
Vhttp://dbpedia.org/resource/Weight
p9
aa(lp10
a(lp11
aa(lp12
(lp13
Vhttp://dbpedia.org/resource/Baddies
p14
aa(lp15
a(lp16
aa(lp17
(lp18
Vhttp://dbpedia.org/resource/List_of_Rugrats_episodes
p19
aa(lp20
a(lp21
aa(lp22
(lp23
Vhttp://dbpedia.org/resource/Eye_color
p24
aa(lp25
a(lp26
aa(lp27
(lp28
Vhttp://dbpedia.org/resource/Brassiere_measurement
p29
aa(lp30
a(lp31
aa(lp32
(lp33
a(lp34
a(lp35
aa(lp36
(lp37
Vhttp://dbpedia.org/resource/Ethnic_group
p38
aa(lp39
a(lp40
aa(lp41
(lp42
Vhttp://dbpedia.org/resource/Language
p43
aa(lp44
a(lp45
aa(lp46
(lp47
Vhttp://dbpedia.org/resource/User_profile
p48
aa(lp49
a(lp50
aa(lp51
(lp52
a(lp53
a(lp54
aa(lp55
(lp56
a(lp57
a(lp58
aa(lp59
(lp60
Vhttp://dbpedia.org/resource/Null
p61
aa(lp62
a(lp63
aa.