(lp1
(lp2
(lp3
a(lp4
a(lp5
Vhttp://dbpedia.org/resource/Null
p6
aaa(lp7
(lp8
a(lp9
a(lp10
aa(lp11
(lp12
a(lp13
a(lp14
aa(lp15
(lp16
a(lp17
a(lp18
aa(lp19
(lp20
a(lp21
a(lp22
Vhttp://dbpedia.org/resource/Null
p23
aaa(lp24
(lp25
a(lp26
a(lp27
Vhttp://dbpedia.org/resource/Null
p28
aaa(lp29
(lp30
a(lp31
a(lp32
aa(lp33
(lp34
a(lp35
a(lp36
aa.