(lp1
(lp2
(dp3
Vstart
p4
I0
sVdisambiguatedURL
p5
NsVnamedEntity
p6
V5 featured products above video
p7
sVoffset
p8
I31
saa(lp9
(dp10
Vstart
p11
I0
sVdisambiguatedURL
p12
NsVnamedEntity
p13
V5 featured products below video
p14
sVoffset
p15
I31
saa(lp16
(dp17
Vstart
p18
I0
sVdisambiguatedURL
p19
NsVnamedEntity
p20
Vaccessory bowls
p21
sVoffset
p22
I15
saa(lp23
(dp24
Vstart
p25
I0
sVdisambiguatedURL
p26
NsVnamedEntity
p27
Vacrylic ice
p28
sVoffset
p29
I11
saa(lp30
(dp31
Vstart
p32
I0
sVdisambiguatedURL
p33
NsVnamedEntity
p34
Valuminum pans
p35
sVoffset
p36
I13
saa(lp37
(dp38
Vstart
p39
I0
sVdisambiguatedURL
p40
NsVnamedEntity
p41
Vapril 2010
p42
sVoffset
p43
I10
saa(lp44
(dp45
Vstart
p46
I0
sVdisambiguatedURL
p47
Vhttp://dbpedia.org/resource/August_2009
p48
sVnamedEntity
p49
Vaugust 2009
p50
sVoffset
p51
I11
saa(lp52
(dp53
Vstart
p54
I0
sVdisambiguatedURL
p55
NsVnamedEntity
p56
Vbamboo ball picks
p57
sVoffset
p58
I17
saa(lp59
(dp60
Vstart
p61
I0
sVdisambiguatedURL
p62
NsVnamedEntity
p63
Vbamboo flat skewers
p64
sVoffset
p65
I19
saa(lp66
(dp67
Vstart
p68
I0
sVdisambiguatedURL
p69
NsVnamedEntity
p70
Vbamboo flower picks
p71
sVoffset
p72
I19
saa(lp73
(dp74
Vstart
p75
I0
sVdisambiguatedURL
p76
NsVnamedEntity
p77
Vbamboo heart picks
p78
sVoffset
p79
I18
saa(lp80
(dp81
Vstart
p82
I0
sVdisambiguatedURL
p83
NsVnamedEntity
p84
Vbamboo knot picks
p85
sVoffset
p86
I17
saa(lp87
(dp88
Vstart
p89
I0
sVdisambiguatedURL
p90
NsVnamedEntity
p91
Vbamboo paddle picks
p92
sVoffset
p93
I19
saa(lp94
(dp95
Vstart
p96
I0
sVdisambiguatedURL
p97
NsVnamedEntity
p98
Vbamboo string picks
p99
sVoffset
p100
I19
saa(lp101
(dp102
Vstart
p103
I0
sVdisambiguatedURL
p104
NsVnamedEntity
p105
Vbeverage service
p106
sVoffset
p107
I16
saa(lp108
(dp109
Vstart
p110
I0
sVdisambiguatedURL
p111
NsVnamedEntity
p112
Vblack cutlery
p113
sVoffset
p114
I13
saa(lp115
(dp116
Vstart
p117
I0
sVdisambiguatedURL
p118
NsVnamedEntity
p119
Vbolts
p120
sVoffset
p121
I5
saa(lp122
(dp123
Vstart
p124
I0
sVdisambiguatedURL
p125
NsVnamedEntity
p126
Vbouquets
p127
sVoffset
p128
I8
saa(lp129
(dp130
Vstart
p131
I0
sVdisambiguatedURL
p132
NsVnamedEntity
p133
Vcake accessories
p134
sVoffset
p135
I16
saa(lp136
(dp137
Vstart
p138
I0
sVdisambiguatedURL
p139
NsVnamedEntity
p140
Vcake fountains
p141
sVoffset
p142
I14
saa.