(lp1
(lp2
(lp3
a(lp4
Vhttp://dbpedia.org/resource/December_2009
p5
aa(lp6
a(lp7
a(lp8
aa(lp9
(lp10
a(lp11
a(lp12
a(lp13
a(lp14
aa(lp15
(lp16
a(lp17
a(lp18
a(lp19
a(lp20
aa(lp21
(lp22
a(lp23
a(lp24
a(lp25
a(lp26
aa(lp27
(lp28
a(lp29
a(lp30
a(lp31
a(lp32
aa(lp33
(lp34
a(lp35
a(lp36
a(lp37
a(lp38
aa(lp39
(lp40
Vhttp://dbpedia.org/resource/August_2009
p41
aa(lp42
a(lp43
a(lp44
a(lp45
aa(lp46
(lp47
a(lp48
a(lp49
a(lp50
a(lp51
aa(lp52
(lp53
a(lp54
a(lp55
a(lp56
a(lp57
aa(lp58
(lp59
a(lp60
a(lp61
a(lp62
a(lp63
aa(lp64
(lp65
a(lp66
a(lp67
a(lp68
a(lp69
aa(lp70
(lp71
a(lp72
a(lp73
a(lp74
a(lp75
aa(lp76
(lp77
a(lp78
a(lp79
a(lp80
a(lp81
aa(lp82
(lp83
a(lp84
a(lp85
Vhttp://dbpedia.org/resource/Napkin_ring
p86
aa(lp87
a(lp88
aa(lp89
(lp90
a(lp91
a(lp92
a(lp93
a(lp94
aa(lp95
(lp96
a(lp97
a(lp98
a(lp99
a(lp100
aa(lp101
(lp102
a(lp103
a(lp104
Vhttp://dbpedia.org/resource/November_2009
p105
aa(lp106
a(lp107
aa(lp108
(lp109
a(lp110
a(lp111
Vhttp://dbpedia.org/resource/October_2009
p112
aa(lp113
a(lp114
aa(lp115
(lp116
a(lp117
Vhttp://dbpedia.org/resource/2015
p118
aa(lp119
a(lp120
a(lp121
aa(lp122
(lp123
a(lp124
a(lp125
a(lp126
a(lp127
aa.