(lp1
(lp2
(lp3
((lp4
Vhttp://www.w3.org/2002/07/owl#Thing
p5
aVhttp://dbpedia.org/ontology/Place
p6
aVhttp://dbpedia.org/ontology/Location
p7
aVhttp://www.wikidata.org/entity/Q486972
p8
aVhttp://www.wikidata.org/entity/Q6256
p9
aVhttp://dbpedia.org/ontology/Country
p10
aVhttp://dbpedia.org/ontology/PopulatedPlace
p11
aVhttp://www.w3.org/2003/01/geo/wgs84_pos#SpatialThing
p12
aVhttp://schema.org/Country
p13
aVhttp://schema.org/Place
p14
aVhttp://umbel.org/umbel/rc/Country
p15
aVhttp://umbel.org/umbel/rc/Location_Underspecified
p16
aVhttp://umbel.org/umbel/rc/PopulatedPlace
p17
aVhttp://dbpedia.org/class/yago/Abstraction100002137
p18
aVhttp://dbpedia.org/class/yago/AdministrativeDistrict108491826
p19
aVhttp://dbpedia.org/class/yago/BlackSeaCountries
p20
aVhttp://dbpedia.org/class/yago/Country108544813
p21
aVhttp://dbpedia.org/class/yago/District108552138
p22
aVhttp://dbpedia.org/class/yago/Domain108556491
p23
aVhttp://dbpedia.org/class/yago/Economy108366753
p24
aVhttp://dbpedia.org/class/yago/Group100031264
p25
aVhttp://dbpedia.org/class/yago/Location100027167
p26
aVhttp://dbpedia.org/class/yago/Object100002684
p27
aVhttp://dbpedia.org/class/yago/Region108630985
p28
aVhttp://dbpedia.org/class/yago/System108435388
p29
aVhttp://dbpedia.org/class/yago/YagoGeoEntity
p30
aVhttp://dbpedia.org/class/yago/YagoLegalActorGeo
p31
aVhttp://dbpedia.org/class/yago/Empire108557482
p32
aVhttp://dbpedia.org/class/yago/EuropeanCountries
p33
aVhttp://dbpedia.org/class/yago/EuropeanUnionMemberEconomies
p34
aVhttp://dbpedia.org/class/yago/FormerEmpires
p35
aVhttp://dbpedia.org/class/yago/PhysicalEntity100001930
p36
aVhttp://dbpedia.org/class/yago/YagoPermanentlyLocatedEntity
p37
aVhttp://dbpedia.org/class/yago/MemberStatesOfLaFrancophonie
p38
aVhttp://dbpedia.org/class/yago/MemberStatesOfNATO
p39
aVhttp://dbpedia.org/class/yago/MemberStatesOfTheEuropeanUnion
p40
aVhttp://dbpedia.org/class/yago/MemberStatesOfTheUnionForTheMediterranean
p41
aVhttp://dbpedia.org/class/yago/MemberStatesOfTheUnitedNations
p42
aVhttp://dbpedia.org/class/yago/SlavicCountries
p43
aVhttp://dbpedia.org/class/yago/StatesAndTerritoriesEstablishedIn1878
p44
aVhttp://dbpedia.org/class/yago/StatesAndTerritoriesEstablishedIn1908
p45
aVhttp://dbpedia.org/class/yago/StatesAndTerritoriesEstablishedIn681
p46
aVhttp://dbpedia.org/class/yago/WorldTradeOrganizationMemberEconomies
p47
aVhttp://dbpedia.org/resource/Bulgaria
tp48
aa(lp49
a(lp50
a(lp51
aa(lp52
(lp53
((lp54
Vhttp://www.w3.org/2002/07/owl#Thing
p55
aVhttp://dbpedia.org/ontology/Place
p56
aVhttp://dbpedia.org/ontology/Location
p57
aVhttp://www.wikidata.org/entity/Q486972
p58
aVhttp://www.wikidata.org/entity/Q6256
p59
aVhttp://dbpedia.org/ontology/Country
p60
aVhttp://dbpedia.org/ontology/PopulatedPlace
p61
aVhttp://www.w3.org/2003/01/geo/wgs84_pos#SpatialThing
p62
aVhttp://schema.org/Country
p63
aVhttp://schema.org/Place
p64
aVhttp://umbel.org/umbel/rc/Country
p65
aVhttp://umbel.org/umbel/rc/Location_Underspecified
p66
aVhttp://umbel.org/umbel/rc/PopulatedPlace
p67
aVhttp://dbpedia.org/class/yago/Abstraction100002137
p68
aVhttp://dbpedia.org/class/yago/AdministrativeDistrict108491826
p69
aVhttp://dbpedia.org/class/yago/Country108544813
p70
aVhttp://dbpedia.org/class/yago/District108552138
p71
aVhttp://dbpedia.org/class/yago/Economy108366753
p72
aVhttp://dbpedia.org/class/yago/Group100031264
p73
aVhttp://dbpedia.org/class/yago/Location100027167
p74
aVhttp://dbpedia.org/class/yago/Object100002684
p75
aVhttp://dbpedia.org/class/yago/Region108630985
p76
aVhttp://dbpedia.org/class/yago/System108435388
p77
aVhttp://dbpedia.org/class/yago/YagoGeoEntity
p78
aVhttp://dbpedia.org/class/yago/YagoLegalActorGeo
p79
aVhttp://dbpedia.org/class/yago/CountriesBorderingTheArcticOcean
p80
aVhttp://dbpedia.org/class/yago/CountriesBorderingTheAtlanticOcean
p81
aVhttp://dbpedia.org/class/yago/CountriesBorderingThePacificOcean
p82
aVhttp://dbpedia.org/class/yago/English-speakingCountriesAndTerritories
p83
aVhttp://dbpedia.org/class/yago/FederalCountries
p84
aVhttp://dbpedia.org/class/yago/French-speakingCountries
p85
aVhttp://dbpedia.org/class/yago/PhysicalEntity100001930
p86
aVhttp://dbpedia.org/class/yago/YagoPermanentlyLocatedEntity
p87
aVhttp://dbpedia.org/class/yago/MemberStatesOfLaFrancophonie
p88
aVhttp://dbpedia.org/class/yago/MemberStatesOfNATO
p89
aVhttp://dbpedia.org/class/yago/MemberStatesOfTheCommonwealthOfNations
p90
aVhttp://dbpedia.org/class/yago/MemberStatesOfTheUnitedNations
p91
aVhttp://dbpedia.org/class/yago/NorthernAmericanCountries
p92
aVhttp://dbpedia.org/class/yago/StatesAndTerritoriesEstablishedIn1867
p93
aVhttp://dbpedia.org/resource/Canada
tp94
aa(lp95
a(lp96
a(lp97
aa(lp98
(lp99
((lp100
Vhttp://www.w3.org/2002/07/owl#Thing
p101
aVhttp://dbpedia.org/ontology/Place
p102
aVhttp://dbpedia.org/ontology/Location
p103
aVhttp://www.wikidata.org/entity/Q486972
p104
aVhttp://www.wikidata.org/entity/Q6256
p105
aVhttp://dbpedia.org/ontology/Country
p106
aVhttp://dbpedia.org/ontology/PopulatedPlace
p107
aVhttp://www.w3.org/2003/01/geo/wgs84_pos#SpatialThing
p108
aVhttp://schema.org/Country
p109
aVhttp://schema.org/Place
p110
aVhttp://umbel.org/umbel/rc/Country
p111
aVhttp://umbel.org/umbel/rc/Location_Underspecified
p112
aVhttp://umbel.org/umbel/rc/PopulatedPlace
p113
aVhttp://dbpedia.org/class/yago/Abstraction100002137
p114
aVhttp://dbpedia.org/class/yago/AdministrativeDistrict108491826
p115
aVhttp://dbpedia.org/class/yago/Country108544813
p116
aVhttp://dbpedia.org/class/yago/District108552138
p117
aVhttp://dbpedia.org/class/yago/Economy108366753
p118
aVhttp://dbpedia.org/class/yago/Group100031264
p119
aVhttp://dbpedia.org/class/yago/Location100027167
p120
aVhttp://dbpedia.org/class/yago/Object100002684
p121
aVhttp://dbpedia.org/class/yago/Region108630985
p122
aVhttp://dbpedia.org/class/yago/System108435388
p123
aVhttp://dbpedia.org/class/yago/YagoGeoEntity
p124
aVhttp://dbpedia.org/class/yago/YagoLegalActorGeo
p125
aVhttp://dbpedia.org/class/yago/CountriesOfTheMediterraneanSea
p126
aVhttp://dbpedia.org/class/yago/EuropeanCountries
p127
aVhttp://dbpedia.org/class/yago/PhysicalEntity100001930
p128
aVhttp://dbpedia.org/class/yago/YagoPermanentlyLocatedEntity
p129
aVhttp://dbpedia.org/class/yago/MemberStatesOfNATO
p130
aVhttp://dbpedia.org/class/yago/MemberStatesOfTheUnionForTheMediterranean
p131
aVhttp://dbpedia.org/class/yago/MemberStatesOfTheUnitedNations
p132
aVhttp://dbpedia.org/class/yago/Serbo-Croatian-speakingCountries
p133
aVhttp://dbpedia.org/class/yago/SlavicCountries
p134
aVhttp://dbpedia.org/class/yago/StatesAndTerritoriesEstablishedIn1991
p135
aVhttp://dbpedia.org/class/yago/WorldTradeOrganizationMemberEconomies
p136
aVhttp://dbpedia.org/resource/Croatia
tp137
aa(lp138
((lVhttp://dbpedia.org/resource/V.B.Z.
tp139
aa(lp140
a(lp141
aa(lp142
(lp143
((lp144
Vhttp://www.w3.org/2002/07/owl#Thing
p145
aVhttp://dbpedia.org/ontology/Place
p146
aVhttp://dbpedia.org/ontology/Location
p147
aVhttp://www.wikidata.org/entity/Q486972
p148
aVhttp://www.wikidata.org/entity/Q6256
p149
aVhttp://dbpedia.org/ontology/Country
p150
aVhttp://dbpedia.org/ontology/PopulatedPlace
p151
aVhttp://www.w3.org/2003/01/geo/wgs84_pos#SpatialThing
p152
aVhttp://schema.org/Country
p153
aVhttp://schema.org/Place
p154
aVhttp://umbel.org/umbel/rc/Country
p155
aVhttp://umbel.org/umbel/rc/Location_Underspecified
p156
aVhttp://umbel.org/umbel/rc/PopulatedPlace
p157
aVhttp://dbpedia.org/class/yago/Abstraction100002137
p158
aVhttp://dbpedia.org/class/yago/AdministrativeDistrict108491826
p159
aVhttp://dbpedia.org/class/yago/AlpineCountries
p160
aVhttp://dbpedia.org/class/yago/Country108544813
p161
aVhttp://dbpedia.org/class/yago/District108552138
p162
aVhttp://dbpedia.org/class/yago/Economy108366753
p163
aVhttp://dbpedia.org/class/yago/Group100031264
p164
aVhttp://dbpedia.org/class/yago/Location100027167
p165
aVhttp://dbpedia.org/class/yago/Object100002684
p166
aVhttp://dbpedia.org/class/yago/Region108630985
p167
aVhttp://dbpedia.org/class/yago/System108435388
p168
aVhttp://dbpedia.org/class/yago/YagoGeoEntity
p169
aVhttp://dbpedia.org/class/yago/YagoLegalActorGeo
p170
aVhttp://dbpedia.org/class/yago/CountriesBorderingTheAtlanticOcean
p171
aVhttp://dbpedia.org/class/yago/CountriesBorderingTheBalticSea
p172
aVhttp://dbpedia.org/class/yago/EuropeanCountries
p173
aVhttp://dbpedia.org/class/yago/EuropeanUnionMemberEconomies
p174
aVhttp://dbpedia.org/class/yago/FederalCountries
p175
aVhttp://dbpedia.org/class/yago/PhysicalEntity100001930
p176
aVhttp://dbpedia.org/class/yago/YagoPermanentlyLocatedEntity
p177
aVhttp://dbpedia.org/class/yago/German-speakingCountries
p178
aVhttp://dbpedia.org/class/yago/MemberStatesOfNATO
p179
aVhttp://dbpedia.org/class/yago/MemberStatesOfTheEuropeanUnion
p180
aVhttp://dbpedia.org/class/yago/MemberStatesOfTheUnionForTheMediterranean
p181
aVhttp://dbpedia.org/class/yago/MemberStatesOfTheUnitedNations
p182
aVhttp://dbpedia.org/class/yago/StatesAndTerritoriesEstablishedIn1871
p183
aVhttp://dbpedia.org/resource/Germany
tp184
aa(lp185
a(lp186
a(lp187
aa(lp188
(lp189
((lp190
Vhttp://www.w3.org/2002/07/owl#Thing
p191
aVhttp://dbpedia.org/ontology/Place
p192
aVhttp://dbpedia.org/ontology/Location
p193
aVhttp://www.wikidata.org/entity/Q486972
p194
aVhttp://www.wikidata.org/entity/Q6256
p195
aVhttp://dbpedia.org/ontology/Country
p196
aVhttp://dbpedia.org/ontology/PopulatedPlace
p197
aVhttp://www.w3.org/2003/01/geo/wgs84_pos#SpatialThing
p198
aVhttp://schema.org/Country
p199
aVhttp://schema.org/Place
p200
aVhttp://umbel.org/umbel/rc/Country
p201
aVhttp://umbel.org/umbel/rc/Location_Underspecified
p202
aVhttp://umbel.org/umbel/rc/PopulatedPlace
p203
aVhttp://dbpedia.org/class/yago/Abstraction100002137
p204
aVhttp://dbpedia.org/class/yago/AdministrativeDistrict108491826
p205
aVhttp://dbpedia.org/class/yago/Country108544813
p206
aVhttp://dbpedia.org/class/yago/District108552138
p207
aVhttp://dbpedia.org/class/yago/Economy108366753
p208
aVhttp://dbpedia.org/class/yago/Group100031264
p209
aVhttp://dbpedia.org/class/yago/Location100027167
p210
aVhttp://dbpedia.org/class/yago/Object100002684
p211
aVhttp://dbpedia.org/class/yago/Region108630985
p212
aVhttp://dbpedia.org/class/yago/System108435388
p213
aVhttp://dbpedia.org/class/yago/YagoGeoEntity
p214
aVhttp://dbpedia.org/class/yago/YagoLegalActorGeo
p215
aVhttp://dbpedia.org/class/yago/EuropeanCountries
p216
aVhttp://dbpedia.org/class/yago/EuropeanUnionMemberEconomies
p217
aVhttp://dbpedia.org/class/yago/PhysicalEntity100001930
p218
aVhttp://dbpedia.org/class/yago/YagoPermanentlyLocatedEntity
p219
aVhttp://dbpedia.org/class/yago/LandlockedCountries
p220
aVhttp://dbpedia.org/class/yago/MemberStatesOfNATO
p221
aVhttp://dbpedia.org/class/yago/MemberStatesOfTheCouncilOfEurope
p222
aVhttp://dbpedia.org/class/yago/MemberStatesOfTheEuropeanUnion
p223
aVhttp://dbpedia.org/class/yago/MemberStatesOfTheUnionForTheMediterranean
p224
aVhttp://dbpedia.org/class/yago/MemberStatesOfTheUnitedNations
p225
aVhttp://dbpedia.org/resource/Hungary
tp226
aa(lp227
a(lp228
a(lp229
aa(lp230
(lp231
((lp232
Vhttp://www.w3.org/2002/07/owl#Thing
p233
aVhttp://dbpedia.org/ontology/Place
p234
aVhttp://dbpedia.org/ontology/Location
p235
aVhttp://www.wikidata.org/entity/Q486972
p236
aVhttp://www.wikidata.org/entity/Q6256
p237
aVhttp://dbpedia.org/ontology/Country
p238
aVhttp://dbpedia.org/ontology/PopulatedPlace
p239
aVhttp://www.w3.org/2003/01/geo/wgs84_pos#SpatialThing
p240
aVhttp://schema.org/Country
p241
aVhttp://schema.org/Place
p242
aVhttp://umbel.org/umbel/rc/Country
p243
aVhttp://umbel.org/umbel/rc/Location_Underspecified
p244
aVhttp://umbel.org/umbel/rc/PopulatedPlace
p245
aVhttp://dbpedia.org/class/yago/Abstraction100002137
p246
aVhttp://dbpedia.org/class/yago/AdministrativeDistrict108491826
p247
aVhttp://dbpedia.org/class/yago/Arabic-speakingCountriesAndTerritories
p248
aVhttp://dbpedia.org/class/yago/Country108544813
p249
aVhttp://dbpedia.org/class/yago/District108552138
p250
aVhttp://dbpedia.org/class/yago/Economy108366753
p251
aVhttp://dbpedia.org/class/yago/Group100031264
p252
aVhttp://dbpedia.org/class/yago/Location100027167
p253
aVhttp://dbpedia.org/class/yago/Object100002684
p254
aVhttp://dbpedia.org/class/yago/Region108630985
p255
aVhttp://dbpedia.org/class/yago/System108435388
p256
aVhttp://dbpedia.org/class/yago/YagoGeoEntity
p257
aVhttp://dbpedia.org/class/yago/YagoLegalActorGeo
p258
aVhttp://dbpedia.org/class/yago/CountriesBorderingTheRedSea
p259
aVhttp://dbpedia.org/class/yago/EasternMediterraneanCountries
p260
aVhttp://dbpedia.org/class/yago/PhysicalEntity100001930
p261
aVhttp://dbpedia.org/class/yago/YagoPermanentlyLocatedEntity
p262
aVhttp://dbpedia.org/class/yago/MemberStatesOfTheUnionForTheMediterranean
p263
aVhttp://dbpedia.org/class/yago/MemberStatesOfTheUnitedNations
p264
aVhttp://dbpedia.org/class/yago/MiddleEasternCountries
p265
aVhttp://dbpedia.org/class/yago/NearEasternCountries
p266
aVhttp://dbpedia.org/class/yago/StatesAndTerritoriesEstablishedIn1948
p267
aVhttp://dbpedia.org/class/yago/WorldTradeOrganizationMemberEconomies
p268
aVhttp://dbpedia.org/resource/Israel
tp269
aa(lp270
a(lp271
a(lp272
aa(lp273
(lp274
((lp275
Vhttp://www.w3.org/2002/07/owl#Thing
p276
aVhttp://dbpedia.org/ontology/Place
p277
aVhttp://dbpedia.org/ontology/Location
p278
aVhttp://www.wikidata.org/entity/Q486972
p279
aVhttp://www.wikidata.org/entity/Q6256
p280
aVhttp://dbpedia.org/ontology/Country
p281
aVhttp://dbpedia.org/ontology/PopulatedPlace
p282
aVhttp://www.w3.org/2003/01/geo/wgs84_pos#SpatialThing
p283
aVhttp://schema.org/Country
p284
aVhttp://schema.org/Place
p285
aVhttp://umbel.org/umbel/rc/Country
p286
aVhttp://umbel.org/umbel/rc/Location_Underspecified
p287
aVhttp://umbel.org/umbel/rc/PopulatedPlace
p288
aVhttp://dbpedia.org/class/yago/Abstraction100002137
p289
aVhttp://dbpedia.org/class/yago/AdministrativeDistrict108491826
p290
aVhttp://dbpedia.org/class/yago/AlpineCountries
p291
aVhttp://dbpedia.org/class/yago/BicontinentalCountries
p292
aVhttp://dbpedia.org/class/yago/Country108544813
p293
aVhttp://dbpedia.org/class/yago/District108552138
p294
aVhttp://dbpedia.org/class/yago/Economy108366753
p295
aVhttp://dbpedia.org/class/yago/Group100031264
p296
aVhttp://dbpedia.org/class/yago/Location100027167
p297
aVhttp://dbpedia.org/class/yago/Object100002684
p298
aVhttp://dbpedia.org/class/yago/Region108630985
p299
aVhttp://dbpedia.org/class/yago/System108435388
p300
aVhttp://dbpedia.org/class/yago/YagoGeoEntity
p301
aVhttp://dbpedia.org/class/yago/YagoLegalActorGeo
p302
aVhttp://dbpedia.org/class/yago/CountriesOfTheMediterraneanSea
p303
aVhttp://dbpedia.org/class/yago/EuropeanCountries
p304
aVhttp://dbpedia.org/class/yago/EuropeanUnionMemberEconomies
p305
aVhttp://dbpedia.org/class/yago/PhysicalEntity100001930
p306
aVhttp://dbpedia.org/class/yago/YagoPermanentlyLocatedEntity
p307
aVhttp://dbpedia.org/class/yago/Italian-speakingCountries
p308
aVhttp://dbpedia.org/class/yago/MemberStatesOfNATO
p309
aVhttp://dbpedia.org/class/yago/MemberStatesOfTheCouncilOfEurope
p310
aVhttp://dbpedia.org/class/yago/MemberStatesOfTheEuropeanUnion
p311
aVhttp://dbpedia.org/class/yago/MemberStatesOfTheUnionForTheMediterranean
p312
aVhttp://dbpedia.org/class/yago/MemberStatesOfTheUnitedNations
p313
aVhttp://dbpedia.org/class/yago/StatesAndTerritoriesEstablishedIn1861
p314
aVhttp://dbpedia.org/resource/Italy
tp315
aa(lp316
a(lp317
a(lp318
aa(lp319
(lp320
((lp321
Vhttp://www.w3.org/2002/07/owl#Thing
p322
aVhttp://dbpedia.org/ontology/Place
p323
aVhttp://dbpedia.org/ontology/Location
p324
aVhttp://www.wikidata.org/entity/Q486972
p325
aVhttp://www.wikidata.org/entity/Q6256
p326
aVhttp://dbpedia.org/ontology/Country
p327
aVhttp://dbpedia.org/ontology/PopulatedPlace
p328
aVhttp://www.w3.org/2003/01/geo/wgs84_pos#SpatialThing
p329
aVhttp://schema.org/Country
p330
aVhttp://schema.org/Place
p331
aVhttp://umbel.org/umbel/rc/Country
p332
aVhttp://umbel.org/umbel/rc/Location_Underspecified
p333
aVhttp://umbel.org/umbel/rc/PopulatedPlace
p334
aVhttp://dbpedia.org/class/yago/Abstraction100002137
p335
aVhttp://dbpedia.org/class/yago/AdministrativeDistrict108491826
p336
aVhttp://dbpedia.org/class/yago/Country108544813
p337
aVhttp://dbpedia.org/class/yago/District108552138
p338
aVhttp://dbpedia.org/class/yago/Domain108556491
p339
aVhttp://dbpedia.org/class/yago/Economy108366753
p340
aVhttp://dbpedia.org/class/yago/Group100031264
p341
aVhttp://dbpedia.org/class/yago/Location100027167
p342
aVhttp://dbpedia.org/class/yago/Object100002684
p343
aVhttp://dbpedia.org/class/yago/Region108630985
p344
aVhttp://dbpedia.org/class/yago/System108435388
p345
aVhttp://dbpedia.org/class/yago/YagoGeoEntity
p346
aVhttp://dbpedia.org/class/yago/YagoLegalActorGeo
p347
aVhttp://dbpedia.org/class/yago/CountriesBorderingThePacificOcean
p348
aVhttp://dbpedia.org/class/yago/CountriesBorderingThePhilippineSea
p349
aVhttp://dbpedia.org/class/yago/EastAsianCountries
p350
aVhttp://dbpedia.org/class/yago/Empire108557482
p351
aVhttp://dbpedia.org/class/yago/Empires
p352
aVhttp://dbpedia.org/class/yago/PhysicalEntity100001930
p353
aVhttp://dbpedia.org/class/yago/YagoPermanentlyLocatedEntity
p354
aVhttp://dbpedia.org/class/yago/IslandCountries
p355
aVhttp://dbpedia.org/class/yago/MemberStatesOfTheUnitedNations
p356
aVhttp://dbpedia.org/class/yago/StatesAndTerritoriesEstablishedIn660BC
p357
aVhttp://dbpedia.org/resource/Japan
tp358
aa(lp359
((lp360
Vhttp://dbpedia.org/class/yago/Artifact100021939
p361
aVhttp://dbpedia.org/class/yago/Device103183080
p362
aVhttp://dbpedia.org/class/yago/Machine103699975
p363
aVhttp://dbpedia.org/class/yago/Object100002684
p364
aVhttp://dbpedia.org/class/yago/Printer104004475
p365
aVhttp://dbpedia.org/class/yago/Whole100003553
p366
aVhttp://dbpedia.org/class/yago/CharacterPrinter103007591
p367
aVhttp://dbpedia.org/class/yago/Instrumentality103575240
p368
aVhttp://dbpedia.org/class/yago/PhysicalEntity100001930
p369
aVhttp://dbpedia.org/class/yago/Typewriter104505036
p370
aVhttp://dbpedia.org/class/yago/Typewriters
p371
aVhttp://dbpedia.org/resource/Data_Recall_Diamond
tp372
aa(lp373
a(lp374
aa(lp375
(lp376
((lp377
Vhttp://www.w3.org/2002/07/owl#Thing
p378
aVhttp://dbpedia.org/ontology/Place
p379
aVhttp://dbpedia.org/ontology/Location
p380
aVhttp://www.wikidata.org/entity/Q486972
p381
aVhttp://www.wikidata.org/entity/Q6256
p382
aVhttp://dbpedia.org/ontology/Country
p383
aVhttp://dbpedia.org/ontology/PopulatedPlace
p384
aVhttp://www.w3.org/2003/01/geo/wgs84_pos#SpatialThing
p385
aVhttp://schema.org/Country
p386
aVhttp://schema.org/Place
p387
aVhttp://umbel.org/umbel/rc/Country
p388
aVhttp://umbel.org/umbel/rc/Location_Underspecified
p389
aVhttp://umbel.org/umbel/rc/PopulatedPlace
p390
aVhttp://dbpedia.org/class/yago/Abstraction100002137
p391
aVhttp://dbpedia.org/class/yago/AdministrativeDistrict108491826
p392
aVhttp://dbpedia.org/class/yago/BalticStates
p393
aVhttp://dbpedia.org/class/yago/Country108544813
p394
aVhttp://dbpedia.org/class/yago/District108552138
p395
aVhttp://dbpedia.org/class/yago/Economy108366753
p396
aVhttp://dbpedia.org/class/yago/Group100031264
p397
aVhttp://dbpedia.org/class/yago/Location100027167
p398
aVhttp://dbpedia.org/class/yago/Object100002684
p399
aVhttp://dbpedia.org/class/yago/Region108630985
p400
aVhttp://dbpedia.org/class/yago/System108435388
p401
aVhttp://dbpedia.org/class/yago/YagoGeoEntity
p402
aVhttp://dbpedia.org/class/yago/YagoLegalActorGeo
p403
aVhttp://dbpedia.org/class/yago/CountriesBorderingTheBalticSea
p404
aVhttp://dbpedia.org/class/yago/EuropeanCountries
p405
aVhttp://dbpedia.org/class/yago/EuropeanUnionMemberEconomies
p406
aVhttp://dbpedia.org/class/yago/PhysicalEntity100001930
p407
aVhttp://dbpedia.org/class/yago/YagoPermanentlyLocatedEntity
p408
aVhttp://dbpedia.org/class/yago/MemberStatesOfNATO
p409
aVhttp://dbpedia.org/class/yago/MemberStatesOfTheEuropeanUnion
p410
aVhttp://dbpedia.org/class/yago/MemberStatesOfTheUnionForTheMediterranean
p411
aVhttp://dbpedia.org/class/yago/MemberStatesOfTheUnitedNations
p412
aVhttp://dbpedia.org/class/yago/Russian-speakingCountriesAndTerritories
p413
aVhttp://dbpedia.org/class/yago/StatesAndTerritoriesEstablishedIn1918
p414
aVhttp://dbpedia.org/class/yago/StatesAndTerritoriesEstablishedIn1991
p415
aVhttp://dbpedia.org/resource/Latvia
tp416
aa(lp417
a(lp418
a(lp419
aa(lp420
(lp421
a(lp422
a(lp423
a(lp424
aa(lp425
(lp426
((lp427
Vhttp://www.w3.org/2002/07/owl#Thing
p428
aVhttp://dbpedia.org/ontology/Place
p429
aVhttp://dbpedia.org/ontology/Location
p430
aVhttp://www.wikidata.org/entity/Q486972
p431
aVhttp://www.wikidata.org/entity/Q6256
p432
aVhttp://dbpedia.org/ontology/Country
p433
aVhttp://dbpedia.org/ontology/PopulatedPlace
p434
aVhttp://www.w3.org/2003/01/geo/wgs84_pos#SpatialThing
p435
aVhttp://schema.org/Country
p436
aVhttp://schema.org/Place
p437
aVhttp://umbel.org/umbel/rc/Country
p438
aVhttp://umbel.org/umbel/rc/Location_Underspecified
p439
aVhttp://umbel.org/umbel/rc/PopulatedPlace
p440
aVhttp://dbpedia.org/class/yago/Abstraction100002137
p441
aVhttp://dbpedia.org/class/yago/AdministrativeDistrict108491826
p442
aVhttp://dbpedia.org/class/yago/Country108544813
p443
aVhttp://dbpedia.org/class/yago/District108552138
p444
aVhttp://dbpedia.org/class/yago/Economy108366753
p445
aVhttp://dbpedia.org/class/yago/Group100031264
p446
aVhttp://dbpedia.org/class/yago/Location100027167
p447
aVhttp://dbpedia.org/class/yago/Object100002684
p448
aVhttp://dbpedia.org/class/yago/Region108630985
p449
aVhttp://dbpedia.org/class/yago/System108435388
p450
aVhttp://dbpedia.org/class/yago/YagoGeoEntity
p451
aVhttp://dbpedia.org/class/yago/YagoLegalActorGeo
p452
aVhttp://dbpedia.org/class/yago/CountriesBorderingTheBalticSea
p453
aVhttp://dbpedia.org/class/yago/EuropeanCountries
p454
aVhttp://dbpedia.org/class/yago/EuropeanUnionMemberEconomies
p455
aVhttp://dbpedia.org/class/yago/PhysicalEntity100001930
p456
aVhttp://dbpedia.org/class/yago/YagoPermanentlyLocatedEntity
p457
aVhttp://dbpedia.org/class/yago/MemberStatesOfNATO
p458
aVhttp://dbpedia.org/class/yago/MemberStatesOfTheEuropeanUnion
p459
aVhttp://dbpedia.org/class/yago/MemberStatesOfTheUnionForTheMediterranean
p460
aVhttp://dbpedia.org/class/yago/MemberStatesOfTheUnitedNations
p461
aVhttp://dbpedia.org/class/yago/SlavicCountries
p462
aVhttp://dbpedia.org/class/yago/StatesAndTerritoriesEstablishedIn1918
p463
aVhttp://dbpedia.org/class/yago/WorldTradeOrganizationMemberEconomies
p464
aVhttp://dbpedia.org/resource/Poland
tp465
aa(lp466
a(lp467
a(lp468
aa(lp469
(lp470
((lp471
Vhttp://www.w3.org/2002/07/owl#Thing
p472
aVhttp://dbpedia.org/ontology/Place
p473
aVhttp://dbpedia.org/ontology/Location
p474
aVhttp://www.wikidata.org/entity/Q486972
p475
aVhttp://www.wikidata.org/entity/Q6256
p476
aVhttp://dbpedia.org/ontology/Country
p477
aVhttp://dbpedia.org/ontology/PopulatedPlace
p478
aVhttp://www.w3.org/2003/01/geo/wgs84_pos#SpatialThing
p479
aVhttp://schema.org/Country
p480
aVhttp://schema.org/Place
p481
aVhttp://umbel.org/umbel/rc/Country
p482
aVhttp://umbel.org/umbel/rc/Location_Underspecified
p483
aVhttp://umbel.org/umbel/rc/PopulatedPlace
p484
aVhttp://dbpedia.org/class/yago/Abstraction100002137
p485
aVhttp://dbpedia.org/class/yago/AdministrativeDistrict108491826
p486
aVhttp://dbpedia.org/class/yago/Country108544813
p487
aVhttp://dbpedia.org/class/yago/District108552138
p488
aVhttp://dbpedia.org/class/yago/Economy108366753
p489
aVhttp://dbpedia.org/class/yago/Group100031264
p490
aVhttp://dbpedia.org/class/yago/Location100027167
p491
aVhttp://dbpedia.org/class/yago/Object100002684
p492
aVhttp://dbpedia.org/class/yago/Region108630985
p493
aVhttp://dbpedia.org/class/yago/System108435388
p494
aVhttp://dbpedia.org/class/yago/YagoGeoEntity
p495
aVhttp://dbpedia.org/class/yago/YagoLegalActorGeo
p496
aVhttp://dbpedia.org/class/yago/CountriesBorderingTheAtlanticOcean
p497
aVhttp://dbpedia.org/class/yago/EuropeanCountries
p498
aVhttp://dbpedia.org/class/yago/EuropeanUnionMemberEconomies
p499
aVhttp://dbpedia.org/class/yago/PhysicalEntity100001930
p500
aVhttp://dbpedia.org/class/yago/YagoPermanentlyLocatedEntity
p501
aVhttp://dbpedia.org/class/yago/MemberStatesOfNATO
p502
aVhttp://dbpedia.org/class/yago/MemberStatesOfTheCommunityOfPortugueseLanguageCountries
p503
aVhttp://dbpedia.org/class/yago/MemberStatesOfTheEuropeanUnion
p504
aVhttp://dbpedia.org/class/yago/MemberStatesOfTheUnionForTheMediterranean
p505
aVhttp://dbpedia.org/class/yago/MemberStatesOfTheUnitedNations
p506
aVhttp://dbpedia.org/class/yago/Portuguese-speakingCountries
p507
aVhttp://dbpedia.org/class/yago/WorldTradeOrganizationMemberEconomies
p508
aVhttp://dbpedia.org/resource/Portugal
tp509
aa(lp510
a(lp511
a(lp512
aa(lp513
(lp514
a(lp515
a(lp516
a(lp517
aa(lp518
(lp519
((lp520
Vhttp://www.w3.org/2002/07/owl#Thing
p521
aVhttp://dbpedia.org/ontology/Place
p522
aVhttp://dbpedia.org/ontology/Location
p523
aVhttp://www.wikidata.org/entity/Q486972
p524
aVhttp://www.wikidata.org/entity/Q6256
p525
aVhttp://dbpedia.org/ontology/Country
p526
aVhttp://dbpedia.org/ontology/PopulatedPlace
p527
aVhttp://www.w3.org/2003/01/geo/wgs84_pos#SpatialThing
p528
aVhttp://schema.org/Country
p529
aVhttp://schema.org/Place
p530
aVhttp://umbel.org/umbel/rc/Country
p531
aVhttp://umbel.org/umbel/rc/Location_Underspecified
p532
aVhttp://umbel.org/umbel/rc/PopulatedPlace
p533
aVhttp://dbpedia.org/class/yago/Abstraction100002137
p534
aVhttp://dbpedia.org/class/yago/AdministrativeDistrict108491826
p535
aVhttp://dbpedia.org/class/yago/BlackSeaCountries
p536
aVhttp://dbpedia.org/class/yago/Country108544813
p537
aVhttp://dbpedia.org/class/yago/District108552138
p538
aVhttp://dbpedia.org/class/yago/Economy108366753
p539
aVhttp://dbpedia.org/class/yago/Group100031264
p540
aVhttp://dbpedia.org/class/yago/Location100027167
p541
aVhttp://dbpedia.org/class/yago/Object100002684
p542
aVhttp://dbpedia.org/class/yago/Region108630985
p543
aVhttp://dbpedia.org/class/yago/System108435388
p544
aVhttp://dbpedia.org/class/yago/YagoGeoEntity
p545
aVhttp://dbpedia.org/class/yago/YagoLegalActorGeo
p546
aVhttp://dbpedia.org/class/yago/EuropeanCountries
p547
aVhttp://dbpedia.org/class/yago/EuropeanUnionMemberEconomies
p548
aVhttp://dbpedia.org/class/yago/PhysicalEntity100001930
p549
aVhttp://dbpedia.org/class/yago/YagoPermanentlyLocatedEntity
p550
aVhttp://dbpedia.org/class/yago/MemberStatesOfNATO
p551
aVhttp://dbpedia.org/class/yago/MemberStatesOfTheEuropeanUnion
p552
aVhttp://dbpedia.org/class/yago/MemberStatesOfTheUnionForTheMediterranean
p553
aVhttp://dbpedia.org/class/yago/MemberStatesOfTheUnitedNations
p554
aVhttp://dbpedia.org/class/yago/Romanian-speakingCountriesAndTerritories
p555
aVhttp://dbpedia.org/class/yago/StatesAndTerritoriesEstablishedIn1878
p556
aVhttp://dbpedia.org/resource/Romania
tp557
aa(lp558
a(lp559
a(lp560
aa(lp561
(lp562
((lp563
Vhttp://www.w3.org/2002/07/owl#Thing
p564
aVhttp://dbpedia.org/ontology/Place
p565
aVhttp://dbpedia.org/ontology/Location
p566
aVhttp://www.wikidata.org/entity/Q486972
p567
aVhttp://www.wikidata.org/entity/Q6256
p568
aVhttp://dbpedia.org/ontology/Country
p569
aVhttp://dbpedia.org/ontology/PopulatedPlace
p570
aVhttp://www.w3.org/2003/01/geo/wgs84_pos#SpatialThing
p571
aVhttp://schema.org/Country
p572
aVhttp://schema.org/Place
p573
aVhttp://umbel.org/umbel/rc/Country
p574
aVhttp://umbel.org/umbel/rc/Location_Underspecified
p575
aVhttp://umbel.org/umbel/rc/PopulatedPlace
p576
aVhttp://dbpedia.org/class/yago/Abstraction100002137
p577
aVhttp://dbpedia.org/class/yago/AdministrativeDistrict108491826
p578
aVhttp://dbpedia.org/class/yago/BicontinentalCountries
p579
aVhttp://dbpedia.org/class/yago/BlackSeaCountries
p580
aVhttp://dbpedia.org/class/yago/Country108544813
p581
aVhttp://dbpedia.org/class/yago/District108552138
p582
aVhttp://dbpedia.org/class/yago/Economy108366753
p583
aVhttp://dbpedia.org/class/yago/Group100031264
p584
aVhttp://dbpedia.org/class/yago/Location100027167
p585
aVhttp://dbpedia.org/class/yago/Object100002684
p586
aVhttp://dbpedia.org/class/yago/Region108630985
p587
aVhttp://dbpedia.org/class/yago/System108435388
p588
aVhttp://dbpedia.org/class/yago/YagoGeoEntity
p589
aVhttp://dbpedia.org/class/yago/YagoLegalActorGeo
p590
aVhttp://dbpedia.org/class/yago/CentralAsianCountries
p591
aVhttp://dbpedia.org/class/yago/CountriesBorderingTheArcticOcean
p592
aVhttp://dbpedia.org/class/yago/CountriesBorderingTheBalticSea
p593
aVhttp://dbpedia.org/class/yago/CountriesBorderingThePacificOcean
p594
aVhttp://dbpedia.org/class/yago/EastAsianCountries
p595
aVhttp://dbpedia.org/class/yago/EuropeanCountries
p596
aVhttp://dbpedia.org/class/yago/FederalCountries
p597
aVhttp://dbpedia.org/class/yago/PhysicalEntity100001930
p598
aVhttp://dbpedia.org/class/yago/YagoPermanentlyLocatedEntity
p599
aVhttp://dbpedia.org/class/yago/MemberStatesOfTheCommonwealthOfIndependentStates
p600
aVhttp://dbpedia.org/class/yago/MemberStatesOfTheUnitedNations
p601
aVhttp://dbpedia.org/class/yago/NorthAsianCountries
p602
aVhttp://dbpedia.org/class/yago/Russian-speakingCountriesAndTerritories
p603
aVhttp://dbpedia.org/class/yago/SlavicCountries
p604
aVhttp://dbpedia.org/class/yago/StatesAndTerritoriesEstablishedIn862
p605
aVhttp://dbpedia.org/resource/Russia
tp606
aa(lp607
a(lp608
a(lp609
aa(lp610
(lp611
((lp612
Vhttp://www.w3.org/2002/07/owl#Thing
p613
aVhttp://dbpedia.org/ontology/Place
p614
aVhttp://dbpedia.org/ontology/Location
p615
aVhttp://www.wikidata.org/entity/Q486972
p616
aVhttp://www.wikidata.org/entity/Q6256
p617
aVhttp://dbpedia.org/ontology/Country
p618
aVhttp://dbpedia.org/ontology/PopulatedPlace
p619
aVhttp://www.w3.org/2003/01/geo/wgs84_pos#SpatialThing
p620
aVhttp://schema.org/Country
p621
aVhttp://schema.org/Place
p622
aVhttp://umbel.org/umbel/rc/Country
p623
aVhttp://umbel.org/umbel/rc/Location_Underspecified
p624
aVhttp://umbel.org/umbel/rc/PopulatedPlace
p625
aVhttp://dbpedia.org/class/yago/Abstraction100002137
p626
aVhttp://dbpedia.org/class/yago/AdministrativeDistrict108491826
p627
aVhttp://dbpedia.org/class/yago/Country108544813
p628
aVhttp://dbpedia.org/class/yago/District108552138
p629
aVhttp://dbpedia.org/class/yago/Economy108366753
p630
aVhttp://dbpedia.org/class/yago/Group100031264
p631
aVhttp://dbpedia.org/class/yago/Location100027167
p632
aVhttp://dbpedia.org/class/yago/Object100002684
p633
aVhttp://dbpedia.org/class/yago/Region108630985
p634
aVhttp://dbpedia.org/class/yago/System108435388
p635
aVhttp://dbpedia.org/class/yago/YagoGeoEntity
p636
aVhttp://dbpedia.org/class/yago/YagoLegalActorGeo
p637
aVhttp://dbpedia.org/class/yago/EuropeanCountries
p638
aVhttp://dbpedia.org/class/yago/PhysicalEntity100001930
p639
aVhttp://dbpedia.org/class/yago/YagoPermanentlyLocatedEntity
p640
aVhttp://dbpedia.org/class/yago/LandlockedCountries
p641
aVhttp://dbpedia.org/class/yago/MemberStatesOfTheUnitedNations
p642
aVhttp://dbpedia.org/class/yago/Serbo-Croatian-speakingCountries
p643
aVhttp://dbpedia.org/class/yago/SlavicCountries
p644
aVhttp://dbpedia.org/class/yago/StatesAndTerritoriesEstablishedIn2006
p645
aVhttp://dbpedia.org/class/yago/WorldTradeOrganizationMemberEconomies
p646
aVhttp://dbpedia.org/resource/Serbia
tp647
aa(lp648
a(lp649
((lVhttp://dbpedia.org/resource/October_2013
tp650
aa(lp651
aa(lp652
(lp653
((lp654
Vhttp://www.w3.org/2002/07/owl#Thing
p655
aVhttp://dbpedia.org/ontology/Place
p656
aVhttp://dbpedia.org/ontology/Location
p657
aVhttp://www.wikidata.org/entity/Q486972
p658
aVhttp://www.wikidata.org/entity/Q6256
p659
aVhttp://dbpedia.org/ontology/Country
p660
aVhttp://dbpedia.org/ontology/PopulatedPlace
p661
aVhttp://www.w3.org/2003/01/geo/wgs84_pos#SpatialThing
p662
aVhttp://schema.org/Country
p663
aVhttp://schema.org/Place
p664
aVhttp://umbel.org/umbel/rc/Country
p665
aVhttp://umbel.org/umbel/rc/Location_Underspecified
p666
aVhttp://umbel.org/umbel/rc/PopulatedPlace
p667
aVhttp://dbpedia.org/class/yago/Abstraction100002137
p668
aVhttp://dbpedia.org/class/yago/AdministrativeDistrict108491826
p669
aVhttp://dbpedia.org/class/yago/AlpineCountries
p670
aVhttp://dbpedia.org/class/yago/Country108544813
p671
aVhttp://dbpedia.org/class/yago/District108552138
p672
aVhttp://dbpedia.org/class/yago/Economy108366753
p673
aVhttp://dbpedia.org/class/yago/Group100031264
p674
aVhttp://dbpedia.org/class/yago/Location100027167
p675
aVhttp://dbpedia.org/class/yago/Object100002684
p676
aVhttp://dbpedia.org/class/yago/Region108630985
p677
aVhttp://dbpedia.org/class/yago/System108435388
p678
aVhttp://dbpedia.org/class/yago/YagoGeoEntity
p679
aVhttp://dbpedia.org/class/yago/YagoLegalActorGeo
p680
aVhttp://dbpedia.org/class/yago/CountriesOfTheMediterraneanSea
p681
aVhttp://dbpedia.org/class/yago/EuropeanCountries
p682
aVhttp://dbpedia.org/class/yago/EuropeanUnionMemberEconomies
p683
aVhttp://dbpedia.org/class/yago/PhysicalEntity100001930
p684
aVhttp://dbpedia.org/class/yago/YagoPermanentlyLocatedEntity
p685
aVhttp://dbpedia.org/class/yago/MemberStatesOfNATO
p686
aVhttp://dbpedia.org/class/yago/MemberStatesOfTheEuropeanUnion
p687
aVhttp://dbpedia.org/class/yago/MemberStatesOfTheUnionForTheMediterranean
p688
aVhttp://dbpedia.org/class/yago/MemberStatesOfTheUnitedNations
p689
aVhttp://dbpedia.org/class/yago/SlavicCountries
p690
aVhttp://dbpedia.org/class/yago/StatesAndTerritoriesEstablishedIn1991
p691
aVhttp://dbpedia.org/resource/Slovenia
tp692
aa(lp693
a(lp694
((lVhttp://dbpedia.org/resource/October_2013
tp695
aa(lp696
aa(lp697
(lp698
((lp699
Vhttp://www.w3.org/2002/07/owl#Thing
p700
aVhttp://dbpedia.org/ontology/Place
p701
aVhttp://dbpedia.org/ontology/Location
p702
aVhttp://www.wikidata.org/entity/Q486972
p703
aVhttp://www.wikidata.org/entity/Q6256
p704
aVhttp://dbpedia.org/ontology/Country
p705
aVhttp://dbpedia.org/ontology/PopulatedPlace
p706
aVhttp://www.w3.org/2003/01/geo/wgs84_pos#SpatialThing
p707
aVhttp://schema.org/Country
p708
aVhttp://schema.org/Place
p709
aVhttp://umbel.org/umbel/rc/Country
p710
aVhttp://umbel.org/umbel/rc/Location_Underspecified
p711
aVhttp://umbel.org/umbel/rc/PopulatedPlace
p712
aVhttp://dbpedia.org/resource/Turkey
p713
tp714
aa(lp715
a(lp716
a(lp717
aa.