(lp1
(lp2
(lp3
Vhttp://dbpedia.org/resource/Bulgaria
p4
aa(lp5
a(lp6
a(lp7
aa(lp8
(lp9
Vhttp://dbpedia.org/resource/Canada
p10
aa(lp11
a(lp12
a(lp13
aa(lp14
(lp15
Vhttp://dbpedia.org/resource/Croatia
p16
aa(lp17
Vhttp://dbpedia.org/resource/V.B.Z.
p18
aa(lp19
a(lp20
aa(lp21
(lp22
Vhttp://dbpedia.org/resource/Germany
p23
aa(lp24
a(lp25
a(lp26
aa(lp27
(lp28
Vhttp://dbpedia.org/resource/Hungary
p29
aa(lp30
a(lp31
a(lp32
aa(lp33
(lp34
Vhttp://dbpedia.org/resource/Israel
p35
aa(lp36
a(lp37
a(lp38
aa(lp39
(lp40
Vhttp://dbpedia.org/resource/Italy
p41
aa(lp42
a(lp43
a(lp44
aa(lp45
(lp46
Vhttp://dbpedia.org/resource/Japan
p47
aa(lp48
Vhttp://dbpedia.org/resource/Data_Recall_Diamond
p49
aa(lp50
a(lp51
aa(lp52
(lp53
Vhttp://dbpedia.org/resource/Latvia
p54
aa(lp55
a(lp56
a(lp57
aa(lp58
(lp59
a(lp60
a(lp61
a(lp62
aa(lp63
(lp64
Vhttp://dbpedia.org/resource/Poland
p65
aa(lp66
a(lp67
a(lp68
aa(lp69
(lp70
Vhttp://dbpedia.org/resource/Portugal
p71
aa(lp72
a(lp73
a(lp74
aa(lp75
(lp76
a(lp77
a(lp78
a(lp79
aa(lp80
(lp81
Vhttp://dbpedia.org/resource/Romania
p82
aa(lp83
a(lp84
a(lp85
aa(lp86
(lp87
Vhttp://dbpedia.org/resource/Russia
p88
aa(lp89
a(lp90
a(lp91
aa(lp92
(lp93
Vhttp://dbpedia.org/resource/Serbia
p94
aa(lp95
a(lp96
Vhttp://dbpedia.org/resource/October_2013
p97
aa(lp98
aa(lp99
(lp100
Vhttp://dbpedia.org/resource/Slovenia
p101
aa(lp102
a(lp103
Vhttp://dbpedia.org/resource/October_2013
p104
aa(lp105
aa(lp106
(lp107
Vhttp://dbpedia.org/resource/Turkey
p108
aa(lp109
a(lp110
a(lp111
aa.