(lp1
(lp2
(lp3
a(lp4
a(lp5
aa(lp6
(lp7
a(lp8
a(lp9
aa(lp10
(lp11
a(lp12
a(lp13
aa(lp14
(lp15
a(lp16
((lp17
Vhttp://www.w3.org/2002/07/owl#Thing
p18
aVhttp://www.ontologydesignpatterns.org/ont/dul/DUL.owl#Agent
p19
aVhttp://www.ontologydesignpatterns.org/ont/dul/DUL.owl#SocialPerson
p20
aVhttp://www.wikidata.org/entity/Q215380
p21
aVhttp://www.wikidata.org/entity/Q43229
p22
aVhttp://dbpedia.org/ontology/Agent
p23
aVhttp://dbpedia.org/ontology/Band
p24
aVhttp://dbpedia.org/ontology/Group
p25
aVhttp://dbpedia.org/ontology/Organisation
p26
aVhttp://schema.org/MusicGroup
p27
aVhttp://schema.org/Organization
p28
aVhttp://umbel.org/umbel/rc/Band_MusicGroup
p29
aVhttp://dbpedia.org/class/yago/Abstraction100002137
p30
aVhttp://dbpedia.org/class/yago/Group100031264
p31
aVhttp://dbpedia.org/class/yago/MusicalOrganization108246613
p32
aVhttp://dbpedia.org/class/yago/Organization108008335
p33
aVhttp://dbpedia.org/class/yago/SocialGroup107950920
p34
aVhttp://dbpedia.org/class/yago/YagoLegalActorGeo
p35
aVhttp://dbpedia.org/class/yago/YagoPermanentlyLocatedEntity
p36
aVhttp://dbpedia.org/class/yago/GermanMusicalGroups
p37
aVhttp://dbpedia.org/class/yago/YagoLegalActor
p38
aVhttp://dbpedia.org/resource/Die_Fantastischen_Vier
p39
tp40
aa(lp41
aa(lp42
(lp43
a(lp44
a(lp45
aa(lp46
(lp47
a(lp48
a(lp49
aa.