ccollections
defaultdict
p1
(c__builtin__
dict
p2
tRp3
I0
(dp4
I1
(lp5
Vhttp://dbpedia.org/ontology/birthPlace
p6
aVhttp://dbpedia.org/property/birthPlace
p7
asI2
(lp8
sI3
(lp9
Vhttp://dbpedia.org/ontology/birthPlace
p10
aVhttp://dbpedia.org/property/birthPlace
p11
assI1
(dp12
I1
(lp13
sI2
(lp14
sI3
(lp15
ssI3
(dp16
I1
(lp17
sI2
(lp18
sI3
(lp19
ssI4
(dp20
I1
(lp21
sI2
(lp22
sI3
(lp23
ssI8
(dp24
I1
(lp25
sI2
(lp26
sI3
(lp27
ssI12
(dp28
I1
(lp29
sI2
(lp30
sI3
(lp31
ssI13
(dp32
I1
(lp33
sI2
(lp34
sI3
(lp35
ssI15
(dp36
I1
(lp37
Vhttp://dbpedia.org/ontology/birthPlace
p38
aVhttp://dbpedia.org/property/birthPlace
p39
asI2
(lp40
sI3
(lp41
Vhttp://dbpedia.org/ontology/birthPlace
p42
aVhttp://dbpedia.org/property/birthPlace
p43
ass.