ccollections
defaultdict
p1
(c__builtin__
dict
p2
tRp3
I17
(dp4
I1
(lp5
sI2
(lp6
Vhttp://www.w3.org/1999/02/22-rdf-syntax-ns#type
p7
assI10
(dp8
I1
(lp9
Vhttp://dbpedia.org/property/industry
p10
aVhttp://www.w3.org/1999/02/22-rdf-syntax-ns#type
p11
aVhttp://purl.org/dc/terms/subject
p12
aVhttp://www.w3.org/2000/01/rdf-schema#comment
p13
aVhttp://dbpedia.org/ontology/abstract
p14
aVhttp://dbpedia.org/ontology/industry
p15
asI2
(lp16
ssI19
(dp17
I1
(lp18
Vhttp://dbpedia.org/ontology/wikiPageExternalLink
p19
aVhttp://dbpedia.org/ontology/owningCompany
p20
aVhttp://dbpedia.org/property/industry
p21
aVhttp://www.w3.org/1999/02/22-rdf-syntax-ns#type
p22
aVhttp://purl.org/dc/terms/subject
p23
aVhttp://www.w3.org/2000/01/rdf-schema#comment
p24
aVhttp://dbpedia.org/ontology/abstract
p25
aVhttp://dbpedia.org/property/type
p26
aVhttp://dbpedia.org/property/name
p27
aVhttp://dbpedia.org/property/parent
p28
aVhttp://dbpedia.org/property/owner
p29
aVhttp://dbpedia.org/ontology/owner
p30
aVhttp://dbpedia.org/ontology/parentCompany
p31
aVhttp://dbpedia.org/property/divisions
p32
aVhttp://dbpedia.org/ontology/wikiPageRedirects
p33
aVhttp://xmlns.com/foaf/0.1/name
p34
aVhttp://dbpedia.org/ontology/division
p35
aVhttp://dbpedia.org/ontology/industry
p36
asI2
(lp37
Vhttp://www.w3.org/2002/07/owl#sameAs
p38
ass.