(lp1
(dp2
I0
(dp3
I0
(lp4
sI1
(lp5
sI2
(lp6
ssI1
(dp7
I0
g5
sI1
(lp8
sI2
(lp9
ssI2
(dp10
I0
g6
sI1
g9
sI2
(lp11
ssa(dp12
I0
(dp13
I0
(lp14
sI1
(lp15
sI2
(lp16
ssI1
(dp17
I0
g15
sI1
(lp18
sI2
(lp19
ssI2
(dp20
I0
g16
sI1
g19
sI2
(lp21
ssa(dp22
I0
(dp23
I0
(lp24
sI1
(lp25
sI2
(lp26
ssI1
(dp27
I0
g25
sI1
(lp28
sI2
(lp29
ssI2
(dp30
I0
g26
sI1
g29
sI2
(lp31
ssa(dp32
I0
(dp33
I0
(lp34
sI1
(lp35
sI2
(lp36
ssI1
(dp37
I0
g35
sI1
(lp38
sI2
(lp39
ssI2
(dp40
I0
g36
sI1
g39
sI2
(lp41
ssa(dp42
I0
(dp43
I0
(lp44
sI1
(lp45
sI2
(lp46
ssI1
(dp47
I0
g45
sI1
(lp48
sI2
(lp49
ssI2
(dp50
I0
g46
sI1
g49
sI2
(lp51
ssa(dp52
I0
(dp53
I0
(lp54
sI1
(lp55
sI2
(lp56
ssI1
(dp57
I0
g55
sI1
(lp58
sI2
(lp59
ssI2
(dp60
I0
g56
sI1
g59
sI2
(lp61
ssa(dp62
I0
(dp63
I0
(lp64
sI1
(lp65
sI2
(lp66
ssI1
(dp67
I0
g65
sI1
(lp68
sI2
(lp69
ssI2
(dp70
I0
g66
sI1
g69
sI2
(lp71
ssa(dp72
I0
(dp73
I0
(lp74
sI1
(lp75
sI2
(lp76
ssI1
(dp77
I0
g75
sI1
(lp78
sI2
(lp79
ssI2
(dp80
I0
g76
sI1
g79
sI2
(lp81
ssa(dp82
I0
(dp83
I0
(lp84
sI1
(lp85
sI2
(lp86
ssI1
(dp87
I0
g85
sI1
(lp88
sI2
(lp89
ssI2
(dp90
I0
g86
sI1
g89
sI2
(lp91
ssa(dp92
I0
(dp93
I0
(lp94
sI1
(lp95
sI2
(lp96
ssI1
(dp97
I0
g95
sI1
(lp98
sI2
(lp99
ssI2
(dp100
I0
g96
sI1
g99
sI2
(lp101
ssa(dp102
I0
(dp103
I0
(lp104
sI1
(lp105
Vhttp://dbpedia.org/property/industry
p106
aVhttp://www.w3.org/1999/02/22-rdf-syntax-ns#type
p107
aVhttp://purl.org/dc/terms/subject
p108
aVhttp://www.w3.org/2000/01/rdf-schema#comment
p109
aVhttp://dbpedia.org/ontology/abstract
p110
aVhttp://dbpedia.org/ontology/industry
p111
asI2
(lp112
ssI1
(dp113
I0
g105
sI1
(lp114
sI2
(lp115
ssI2
(dp116
I0
g112
sI1
g115
sI2
(lp117
ssa(dp118
I0
(dp119
I0
(lp120
sI1
(lp121
sI2
(lp122
ssI1
(dp123
I0
g121
sI1
(lp124
sI2
(lp125
ssI2
(dp126
I0
g122
sI1
g125
sI2
(lp127
ssa(dp128
I0
(dp129
I0
(lp130
sI1
(lp131
sI2
(lp132
ssI1
(dp133
I0
g131
sI1
(lp134
sI2
(lp135
ssI2
(dp136
I0
g132
sI1
g135
sI2
(lp137
ssa(dp138
I0
(dp139
I0
(lp140
sI1
(lp141
sI2
(lp142
ssI1
(dp143
I0
g141
sI1
(lp144
sI2
(lp145
ssI2
(dp146
I0
g142
sI1
g145
sI2
(lp147
ssa(dp148
I0
(dp149
I0
(lp150
sI1
(lp151
sI2
(lp152
ssI1
(dp153
I0
g151
sI1
(lp154
sI2
(lp155
ssI2
(dp156
I0
g152
sI1
g155
sI2
(lp157
ssa(dp158
I0
(dp159
I0
(lp160
sI1
(lp161
sI2
(lp162
ssI1
(dp163
I0
g161
sI1
(lp164
sI2
(lp165
ssI2
(dp166
I0
g162
sI1
g165
sI2
(lp167
ssa(dp168
I0
(dp169
I0
(lp170
sI1
(lp171
sI2
(lp172
ssI1
(dp173
I0
g171
sI1
(lp174
sI2
(lp175
ssI2
(dp176
I0
g172
sI1
g175
sI2
(lp177
ssa(dp178
I0
(dp179
I0
(lp180
sI1
(lp181
sI2
(lp182
Vhttp://www.w3.org/1999/02/22-rdf-syntax-ns#type
p183
assI1
(dp184
I0
g181
sI1
(lp185
sI2
(lp186
Vhttp://dbpedia.org/ontology/type
p187
assI2
(dp188
I0
g182
sI1
g186
sI2
(lp189
ssa(dp190
I0
(dp191
I0
(lp192
sI1
(lp193
sI2
(lp194
ssI1
(dp195
I0
g193
sI1
(lp196
sI2
(lp197
ssI2
(dp198
I0
g194
sI1
g197
sI2
(lp199
ssa(dp200
I0
(dp201
I0
(lp202
sI1
(lp203
Vhttp://dbpedia.org/ontology/wikiPageExternalLink
p204
aVhttp://dbpedia.org/ontology/owner
p205
aVhttp://dbpedia.org/property/industry
p206
aVhttp://www.w3.org/1999/02/22-rdf-syntax-ns#type
p207
aVhttp://purl.org/dc/terms/subject
p208
aVhttp://xmlns.com/foaf/0.1/name
p209
aVhttp://www.w3.org/2000/01/rdf-schema#comment
p210
aVhttp://dbpedia.org/ontology/abstract
p211
aVhttp://dbpedia.org/property/type
p212
aVhttp://dbpedia.org/property/name
p213
aVhttp://dbpedia.org/property/parent
p214
aVhttp://dbpedia.org/ontology/wikiPageRedirects
p215
aVhttp://dbpedia.org/ontology/owningCompany
p216
aVhttp://dbpedia.org/ontology/parentCompany
p217
aVhttp://dbpedia.org/property/divisions
p218
aVhttp://dbpedia.org/property/owner
p219
aVhttp://dbpedia.org/ontology/division
p220
aVhttp://dbpedia.org/ontology/industry
p221
asI2
(lp222
Vhttp://www.w3.org/2002/07/owl#sameAs
p223
assI1
(dp224
I0
g203
sI1
(lp225
sI2
(lp226
Vhttp://dbpedia.org/ontology/abstract
p227
aVhttp://dbpedia.org/ontology/type
p228
assI2
(dp229
I0
g222
sI1
g226
sI2
(lp230
ssa.