(lp1
(lp2
a(lp3
(dp4
Vstart
p5
I0
sS'classes'
p6
(lp7
Vhttp://www.w3.org/2002/07/owl#Thing
p8
aVhttp://dbpedia.org/class/yago/Abstraction100002137
p9
aVhttp://dbpedia.org/class/yago/Group100031264
p10
aVhttp://dbpedia.org/class/yago/Organization108008335
p11
aVhttp://dbpedia.org/class/yago/Party108256968
p12
aVhttp://dbpedia.org/class/yago/SocialGroup107950920
p13
aVhttp://dbpedia.org/class/yago/YagoLegalActorGeo
p14
aVhttp://dbpedia.org/class/yago/YagoPermanentlyLocatedEntity
p15
aVhttp://dbpedia.org/class/yago/YagoLegalActor
p16
aVhttp://dbpedia.org/class/yago/SocialistParties
p17
asVdisambiguatedURL
p18
Vhttp://dbpedia.org/resource/Socialist_Party
p19
sVnamedEntity
p20
Vsocialist party
p21
sVoffset
p22
I15
saa(lp23
(dp24
Vstart
p25
I0
sg6
(lp26
Vhttp://www.w3.org/2002/07/owl#Thing
p27
asVdisambiguatedURL
p28
Vhttp://dbpedia.org/resource/Social_democracy
p29
sVnamedEntity
p30
Vsocial democrats
p31
sVoffset
p32
I16
saa(lp33
a(lp34
a(lp35
a(lp36
(dp37
Vstart
p38
I0
sg6
(lp39
Vhttp://www.w3.org/2002/07/owl#Thing
p40
aVhttp://dbpedia.org/class/yago/Abstraction100002137
p41
aVhttp://dbpedia.org/class/yago/Group100031264
p42
aVhttp://dbpedia.org/class/yago/Organization108008335
p43
aVhttp://dbpedia.org/class/yago/Party108256968
p44
aVhttp://dbpedia.org/class/yago/SocialGroup107950920
p45
aVhttp://dbpedia.org/class/yago/YagoLegalActorGeo
p46
aVhttp://dbpedia.org/class/yago/YagoPermanentlyLocatedEntity
p47
aVhttp://dbpedia.org/class/yago/LiberalParties
p48
aVhttp://dbpedia.org/class/yago/YagoLegalActor
p49
asVdisambiguatedURL
p50
Vhttp://dbpedia.org/resource/Liberal_Party
p51
sVnamedEntity
p52
Vliberal party
p53
sVoffset
p54
I13
saa(lp55
a(lp56
a.