(lp1
(lp2
a(lp3
a(lp4
a(lp5
a(lp6
a(lp7
a(lp8
a(lp9
a(lp10
a(lp11
(dp12
Vstart
p13
I0
sS'classes'
p14
(lp15
Vhttp://www.w3.org/2002/07/owl#Thing
p16
aVhttp://xmlns.com/foaf/0.1/Person
p17
aVhttp://dbpedia.org/ontology/Person
p18
aVhttp://www.ontologydesignpatterns.org/ont/dul/DUL.owl#Agent
p19
aVhttp://www.ontologydesignpatterns.org/ont/dul/DUL.owl#NaturalPerson
p20
aVhttp://www.wikidata.org/entity/Q215627
p21
aVhttp://www.wikidata.org/entity/Q483501
p22
aVhttp://www.wikidata.org/entity/Q5
p23
aVhttp://dbpedia.org/ontology/Agent
p24
aVhttp://dbpedia.org/ontology/Artist
p25
aVhttp://dbpedia.org/ontology/MusicalArtist
p26
aVhttp://schema.org/MusicGroup
p27
aVhttp://schema.org/Person
p28
aVhttp://dbpedia.org/class/yago/Artist109812338
p29
aVhttp://dbpedia.org/class/yago/CausalAgent100007347
p30
aVhttp://dbpedia.org/class/yago/Creator109614315
p31
aVhttp://dbpedia.org/class/yago/Entertainer109616922
p32
aVhttp://dbpedia.org/class/yago/LivingThing100004258
p33
aVhttp://dbpedia.org/class/yago/Musician110339966
p34
aVhttp://dbpedia.org/class/yago/Musician110340312
p35
aVhttp://dbpedia.org/class/yago/Object100002684
p36
aVhttp://dbpedia.org/class/yago/Organism100004475
p37
aVhttp://dbpedia.org/class/yago/Performer110415638
p38
aVhttp://dbpedia.org/class/yago/Person100007846
p39
aVhttp://dbpedia.org/class/yago/Rapper110507482
p40
aVhttp://dbpedia.org/class/yago/Singer110599806
p41
aVhttp://dbpedia.org/class/yago/Whole100003553
p42
aVhttp://dbpedia.org/class/yago/YagoLegalActorGeo
p43
aVhttp://dbpedia.org/class/yago/PhysicalEntity100001930
p44
aVhttp://dbpedia.org/class/yago/ItalianRappers
p45
aVhttp://dbpedia.org/class/yago/LivingPeople
p46
aVhttp://dbpedia.org/class/yago/YagoLegalActor
p47
asVdisambiguatedURL
p48
Vhttp://dbpedia.org/resource/Grido_(rapper)
p49
sVnamedEntity
p50
VGrido
p51
sVoffset
p52
I5
saa(lp53
a.