(lp1
(lp2
(lp3
((lp4
Vhttp://www.w3.org/2002/07/owl#Thing
p5
aVhttp://dbpedia.org/ontology/Company
p6
aVhttp://www.ontologydesignpatterns.org/ont/dul/DUL.owl#Agent
p7
aVhttp://www.ontologydesignpatterns.org/ont/dul/DUL.owl#SocialPerson
p8
aVhttp://www.wikidata.org/entity/Q43229
p9
aVhttp://dbpedia.org/ontology/Agent
p10
aVhttp://dbpedia.org/ontology/Organisation
p11
aVhttp://schema.org/Organization
p12
aVhttp://umbel.org/umbel/rc/Business
p13
aVhttp://umbel.org/umbel/rc/Organization
p14
aVhttp://dbpedia.org/class/yago/Abstraction100002137
p15
aVhttp://dbpedia.org/class/yago/Company108058098
p16
aVhttp://dbpedia.org/class/yago/FinancialInstitution108054721
p17
aVhttp://dbpedia.org/class/yago/Group100031264
p18
aVhttp://dbpedia.org/class/yago/Institution108053576
p19
aVhttp://dbpedia.org/class/yago/NondepositoryFinancialInstitution108419984
p20
aVhttp://dbpedia.org/class/yago/Organization108008335
p21
aVhttp://dbpedia.org/class/yago/SocialGroup107950920
p22
aVhttp://dbpedia.org/class/yago/YagoLegalActorGeo
p23
aVhttp://dbpedia.org/class/yago/CompaniesBasedInMinnetonka,Minnesota
p24
aVhttp://dbpedia.org/class/yago/CompaniesEstablishedIn1977
p25
aVhttp://dbpedia.org/class/yago/InsuranceCompany108070465
p26
aVhttp://dbpedia.org/class/yago/YagoPermanentlyLocatedEntity
p27
aVhttp://dbpedia.org/class/yago/HealthInsuranceCompaniesOfTheUnitedStates
p28
aVhttp://dbpedia.org/class/yago/InsuranceCompaniesOfTheUnitedStates
p29
aVhttp://dbpedia.org/class/yago/PharmacyBenefitManagementCompaniesBasedInTheUnitedStates
p30
aVhttp://dbpedia.org/class/yago/YagoLegalActor
p31
aVhttp://dbpedia.org/resource/UnitedHealth_Group
tp32
aa(lp33
a(lp34
a(lp35
((lp36
Vhttp://www.w3.org/2002/07/owl#Thing
p37
aVhttp://dbpedia.org/ontology/Company
p38
aVhttp://www.ontologydesignpatterns.org/ont/dul/DUL.owl#Agent
p39
aVhttp://www.ontologydesignpatterns.org/ont/dul/DUL.owl#SocialPerson
p40
aVhttp://www.wikidata.org/entity/Q43229
p41
aVhttp://dbpedia.org/ontology/Agent
p42
aVhttp://dbpedia.org/ontology/Organisation
p43
aVhttp://schema.org/Organization
p44
aVhttp://umbel.org/umbel/rc/Business
p45
aVhttp://umbel.org/umbel/rc/Organization
p46
aVhttp://dbpedia.org/class/yago/Abstraction100002137
p47
aVhttp://dbpedia.org/class/yago/Company108058098
p48
aVhttp://dbpedia.org/class/yago/Group100031264
p49
aVhttp://dbpedia.org/class/yago/Institution108053576
p50
aVhttp://dbpedia.org/class/yago/Organization108008335
p51
aVhttp://dbpedia.org/class/yago/SocialGroup107950920
p52
aVhttp://dbpedia.org/class/yago/Utility108185758
p53
aVhttp://dbpedia.org/class/yago/YagoLegalActorGeo
p54
aVhttp://dbpedia.org/class/yago/CompaniesBasedInMinneapolis,Minnesota
p55
aVhttp://dbpedia.org/class/yago/PowerCompany108186393
p56
aVhttp://dbpedia.org/class/yago/YagoPermanentlyLocatedEntity
p57
aVhttp://dbpedia.org/class/yago/GasCompany108186655
p58
aVhttp://dbpedia.org/class/yago/HydroelectricPowerCompaniesOfTheUnitedStates
p59
aVhttp://dbpedia.org/class/yago/NaturalGasCompaniesOfTheUnitedStates
p60
aVhttp://dbpedia.org/class/yago/NuclearPowerCompaniesOfTheUnitedStates
p61
aVhttp://dbpedia.org/class/yago/YagoLegalActor
p62
aVhttp://dbpedia.org/class/yago/PowerCompaniesOfTheUnitedStates
p63
aVhttp://dbpedia.org/class/yago/Service108186047
p64
aVhttp://dbpedia.org/resource/Xcel_Energy
tp65
aa(lp66
aa(lp67
(lp68
((lp69
Vhttp://www.w3.org/2002/07/owl#Thing
p70
aVhttp://dbpedia.org/ontology/Company
p71
aVhttp://www.ontologydesignpatterns.org/ont/dul/DUL.owl#Agent
p72
aVhttp://www.ontologydesignpatterns.org/ont/dul/DUL.owl#SocialPerson
p73
aVhttp://www.wikidata.org/entity/Q43229
p74
aVhttp://dbpedia.org/ontology/Agent
p75
aVhttp://dbpedia.org/ontology/Organisation
p76
aVhttp://schema.org/Organization
p77
aVhttp://umbel.org/umbel/rc/Business
p78
aVhttp://umbel.org/umbel/rc/Organization
p79
aVhttp://dbpedia.org/class/yago/Abstraction100002137
p80
aVhttp://dbpedia.org/class/yago/Company108058098
p81
aVhttp://dbpedia.org/class/yago/Group100031264
p82
aVhttp://dbpedia.org/class/yago/Institution108053576
p83
aVhttp://dbpedia.org/class/yago/Organization108008335
p84
aVhttp://dbpedia.org/class/yago/SocialGroup107950920
p85
aVhttp://dbpedia.org/class/yago/YagoLegalActorGeo
p86
aVhttp://dbpedia.org/class/yago/CompaniesBasedInMinneapolis,Minnesota
p87
aVhttp://dbpedia.org/class/yago/CompaniesBasedInMinnesota
p88
aVhttp://dbpedia.org/class/yago/CompaniesEstablishedIn1902
p89
aVhttp://dbpedia.org/class/yago/CompaniesListedOnTheNewYorkStockExchange
p90
aVhttp://dbpedia.org/class/yago/YagoPermanentlyLocatedEntity
p91
aVhttp://dbpedia.org/class/yago/YagoLegalActor
p92
aVhttp://dbpedia.org/class/yago/PubliclyTradedCompaniesOfTheUnitedStates
p93
aVhttp://dbpedia.org/class/yago/RetailCompaniesOfTheUnitedStates
p94
aVhttp://dbpedia.org/resource/Target_Corporation
tp95
aa(lp96
a(lp97
a(lp98
((lp99
Vhttp://www.w3.org/2002/07/owl#Thing
p100
aVhttp://dbpedia.org/ontology/Company
p101
aVhttp://www.ontologydesignpatterns.org/ont/dul/DUL.owl#Agent
p102
aVhttp://www.ontologydesignpatterns.org/ont/dul/DUL.owl#SocialPerson
p103
aVhttp://www.wikidata.org/entity/Q43229
p104
aVhttp://dbpedia.org/ontology/Agent
p105
aVhttp://dbpedia.org/ontology/Bank
p106
aVhttp://dbpedia.org/ontology/Organisation
p107
aVhttp://schema.org/BankOrCreditUnion
p108
aVhttp://schema.org/Organization
p109
aVhttp://umbel.org/umbel/rc/Business
p110
aVhttp://dbpedia.org/class/yago/Abstraction100002137
p111
aVhttp://dbpedia.org/class/yago/Company108058098
p112
aVhttp://dbpedia.org/class/yago/Group100031264
p113
aVhttp://dbpedia.org/class/yago/Institution108053576
p114
aVhttp://dbpedia.org/class/yago/Organization108008335
p115
aVhttp://dbpedia.org/class/yago/SocialGroup107950920
p116
aVhttp://dbpedia.org/class/yago/YagoLegalActorGeo
p117
aVhttp://dbpedia.org/class/yago/CompaniesBasedInMinneapolis,Minnesota
p118
aVhttp://dbpedia.org/class/yago/FinancialServicesCompaniesOfTheUnitedStates
p119
aVhttp://dbpedia.org/class/yago/YagoPermanentlyLocatedEntity
p120
aVhttp://dbpedia.org/class/yago/YagoLegalActor
p121
aVhttp://dbpedia.org/resource/Ameriprise_Financial
tp122
aa(lp123
aa(lp124
(lp125
((lp126
Vhttp://www.w3.org/2002/07/owl#Thing
p127
aVhttp://dbpedia.org/ontology/Company
p128
aVhttp://www.ontologydesignpatterns.org/ont/dul/DUL.owl#Agent
p129
aVhttp://www.ontologydesignpatterns.org/ont/dul/DUL.owl#SocialPerson
p130
aVhttp://www.wikidata.org/entity/Q43229
p131
aVhttp://dbpedia.org/ontology/Agent
p132
aVhttp://dbpedia.org/ontology/Organisation
p133
aVhttp://schema.org/Organization
p134
aVhttp://umbel.org/umbel/rc/Business
p135
aVhttp://umbel.org/umbel/rc/Organization
p136
aVhttp://dbpedia.org/class/yago/Abstraction100002137
p137
aVhttp://dbpedia.org/class/yago/Company108058098
p138
aVhttp://dbpedia.org/class/yago/Group100031264
p139
aVhttp://dbpedia.org/class/yago/Institution108053576
p140
aVhttp://dbpedia.org/class/yago/Organization108008335
p141
aVhttp://dbpedia.org/class/yago/SocialGroup107950920
p142
aVhttp://dbpedia.org/class/yago/YagoLegalActorGeo
p143
aVhttp://dbpedia.org/class/yago/CompaniesBasedInMinnesota
p144
aVhttp://dbpedia.org/class/yago/CompaniesEstablishedIn1966
p145
aVhttp://dbpedia.org/class/yago/CompaniesListedOnTheNewYorkStockExchange
p146
aVhttp://dbpedia.org/class/yago/ConsumerElectronicsRetailCompaniesOfTheUnitedStates
p147
aVhttp://dbpedia.org/class/yago/YagoPermanentlyLocatedEntity
p148
aVhttp://dbpedia.org/class/yago/MultinationalCompanies
p149
aVhttp://dbpedia.org/class/yago/OnlineRetailCompaniesOfTheUnitedStates
p150
aVhttp://dbpedia.org/class/yago/YagoLegalActor
p151
aVhttp://dbpedia.org/class/yago/RetailCompaniesOfCanada
p152
aVhttp://dbpedia.org/class/yago/RetailCompaniesOfTheUnitedStates
p153
aVhttp://dbpedia.org/resource/Best_Buy
tp154
aa(lp155
a(lp156
a(lp157
((lp158
Vhttp://www.w3.org/2002/07/owl#Thing
p159
aVhttp://dbpedia.org/ontology/Company
p160
aVhttp://www.ontologydesignpatterns.org/ont/dul/DUL.owl#Agent
p161
aVhttp://www.ontologydesignpatterns.org/ont/dul/DUL.owl#SocialPerson
p162
aVhttp://www.wikidata.org/entity/Q43229
p163
aVhttp://dbpedia.org/ontology/Agent
p164
aVhttp://dbpedia.org/ontology/Organisation
p165
aVhttp://schema.org/Organization
p166
aVhttp://umbel.org/umbel/rc/Business
p167
aVhttp://dbpedia.org/class/yago/Abstraction100002137
p168
aVhttp://dbpedia.org/class/yago/Company108058098
p169
aVhttp://dbpedia.org/class/yago/Group100031264
p170
aVhttp://dbpedia.org/class/yago/Institution108053576
p171
aVhttp://dbpedia.org/class/yago/Organization108008335
p172
aVhttp://dbpedia.org/class/yago/SocialGroup107950920
p173
aVhttp://dbpedia.org/class/yago/YagoLegalActorGeo
p174
aVhttp://dbpedia.org/class/yago/CompaniesBasedInEdenPrairie,Minnesota
p175
aVhttp://dbpedia.org/class/yago/CompaniesEstablishedIn1905
p176
aVhttp://dbpedia.org/class/yago/YagoPermanentlyLocatedEntity
p177
aVhttp://dbpedia.org/class/yago/LogisticsCompaniesOfTheUnitedStates
p178
aVhttp://dbpedia.org/class/yago/YagoLegalActor
p179
aVhttp://dbpedia.org/resource/C._H._Robinson_Worldwide
tp180
aa(lp181
aa(lp182
(lp183
((lVhttp://dbpedia.org/resource/SuperValu
tp184
aa(lp185
a(lp186
a(lp187
((lp188
Vhttp://www.w3.org/2002/07/owl#Thing
p189
aVhttp://dbpedia.org/ontology/Company
p190
aVhttp://www.ontologydesignpatterns.org/ont/dul/DUL.owl#Agent
p191
aVhttp://www.ontologydesignpatterns.org/ont/dul/DUL.owl#SocialPerson
p192
aVhttp://www.wikidata.org/entity/Q43229
p193
aVhttp://dbpedia.org/ontology/Agent
p194
aVhttp://dbpedia.org/ontology/Organisation
p195
aVhttp://schema.org/Organization
p196
aVhttp://umbel.org/umbel/rc/Business
p197
aVhttp://umbel.org/umbel/rc/Organization
p198
aVhttp://dbpedia.org/class/yago/Abstraction100002137
p199
aVhttp://dbpedia.org/class/yago/Company108058098
p200
aVhttp://dbpedia.org/class/yago/Group100031264
p201
aVhttp://dbpedia.org/class/yago/Institution108053576
p202
aVhttp://dbpedia.org/class/yago/Organization108008335
p203
aVhttp://dbpedia.org/class/yago/SocialGroup107950920
p204
aVhttp://dbpedia.org/class/yago/YagoLegalActorGeo
p205
aVhttp://dbpedia.org/class/yago/CompaniesBasedInMinnesota
p206
aVhttp://dbpedia.org/class/yago/CompaniesEstablishedIn1891
p207
aVhttp://dbpedia.org/class/yago/FoodProductionCompaniesOfTheUnitedStates
p208
aVhttp://dbpedia.org/class/yago/YagoPermanentlyLocatedEntity
p209
aVhttp://dbpedia.org/class/yago/YagoLegalActor
p210
aVhttp://dbpedia.org/resource/Hormel
tp211
aa(lp212
aa(lp213
(lp214
((lp215
Vhttp://www.w3.org/2002/07/owl#Thing
p216
aVhttp://umbel.org/umbel/rc/PopulatedPlace
p217
aVhttp://dbpedia.org/class/yago/County108546183
p218
aVhttp://dbpedia.org/class/yago/Location100027167
p219
aVhttp://dbpedia.org/class/yago/Object100002684
p220
aVhttp://dbpedia.org/class/yago/Region108630039
p221
aVhttp://dbpedia.org/class/yago/YagoGeoEntity
p222
aVhttp://dbpedia.org/class/yago/YagoLegalActorGeo
p223
aVhttp://dbpedia.org/class/yago/FormerNon-metropolitanCounties
p224
aVhttp://dbpedia.org/class/yago/PhysicalEntity100001930
p225
aVhttp://dbpedia.org/class/yago/YagoPermanentlyLocatedEntity
p226
aVhttp://dbpedia.org/class/yago/NUTS2StatisticalRegionsOfTheUnitedKingdom
p227
aVhttp://dbpedia.org/resource/Cheshire
tp228
aa(lp229
a(lp230
a(lp231
((lp232
Vhttp://dbpedia.org/class/yago/Abstraction100002137
p233
aVhttp://dbpedia.org/class/yago/Company108058098
p234
aVhttp://dbpedia.org/class/yago/Group100031264
p235
aVhttp://dbpedia.org/class/yago/Institution108053576
p236
aVhttp://dbpedia.org/class/yago/Organization108008335
p237
aVhttp://dbpedia.org/class/yago/SocialGroup107950920
p238
aVhttp://dbpedia.org/class/yago/YagoLegalActorGeo
p239
aVhttp://dbpedia.org/class/yago/CompaniesBasedInMinneapolis,Minnesota
p240
aVhttp://dbpedia.org/class/yago/CompaniesBasedInWisconsin
p241
aVhttp://dbpedia.org/class/yago/CompaniesEstablishedIn2002
p242
aVhttp://dbpedia.org/class/yago/YagoPermanentlyLocatedEntity
p243
aVhttp://dbpedia.org/class/yago/LutheranOrganizations
p244
aVhttp://dbpedia.org/class/yago/YagoLegalActor
p245
aVhttp://dbpedia.org/resource/Thrivent_Financial_for_Lutherans
tp246
aa(lp247
aa(lp248
(lp249
a(lp250
a(lp251
a(lp252
((lp253
Vhttp://www.w3.org/2002/07/owl#Thing
p254
aVhttp://dbpedia.org/ontology/Company
p255
aVhttp://www.ontologydesignpatterns.org/ont/dul/DUL.owl#Agent
p256
aVhttp://www.ontologydesignpatterns.org/ont/dul/DUL.owl#SocialPerson
p257
aVhttp://www.wikidata.org/entity/Q43229
p258
aVhttp://dbpedia.org/ontology/Agent
p259
aVhttp://dbpedia.org/ontology/Organisation
p260
aVhttp://schema.org/Organization
p261
aVhttp://umbel.org/umbel/rc/Business
p262
aVhttp://dbpedia.org/class/yago/Abstraction100002137
p263
aVhttp://dbpedia.org/class/yago/Company108058098
p264
aVhttp://dbpedia.org/class/yago/Group100031264
p265
aVhttp://dbpedia.org/class/yago/Institution108053576
p266
aVhttp://dbpedia.org/class/yago/Organization108008335
p267
aVhttp://dbpedia.org/class/yago/SocialGroup107950920
p268
aVhttp://dbpedia.org/class/yago/YagoLegalActorGeo
p269
aVhttp://dbpedia.org/class/yago/ChemicalCompaniesOfTheUnitedStates
p270
aVhttp://dbpedia.org/class/yago/CompaniesBasedInSaintPaul,Minnesota
p271
aVhttp://dbpedia.org/class/yago/CompaniesEstablishedIn1923
p272
aVhttp://dbpedia.org/class/yago/YagoPermanentlyLocatedEntity
p273
aVhttp://dbpedia.org/class/yago/YagoLegalActor
p274
aVhttp://dbpedia.org/resource/Ecolab
tp275
aa(lp276
aa(lp277
(lp278
a(lp279
a(lp280
a(lp281
((lp282
Vhttp://dbpedia.org/class/yago/Abstraction100002137
p283
aVhttp://dbpedia.org/class/yago/Company108058098
p284
aVhttp://dbpedia.org/class/yago/Group100031264
p285
aVhttp://dbpedia.org/class/yago/Institution108053576
p286
aVhttp://dbpedia.org/class/yago/Organization108008335
p287
aVhttp://dbpedia.org/class/yago/SocialGroup107950920
p288
aVhttp://dbpedia.org/class/yago/YagoLegalActorGeo
p289
aVhttp://dbpedia.org/class/yago/CompaniesBasedInEdina,Minnesota
p290
aVhttp://dbpedia.org/class/yago/CompaniesListedOnNASDAQ
p291
aVhttp://dbpedia.org/class/yago/YagoPermanentlyLocatedEntity
p292
aVhttp://dbpedia.org/class/yago/YagoLegalActor
p293
aVhttp://dbpedia.org/resource/Nash_Finch_Company
tp294
aa(lp295
aa(lp296
(lp297
((lp298
Vhttp://www.w3.org/2002/07/owl#Thing
p299
aVhttp://dbpedia.org/ontology/Company
p300
aVhttp://www.ontologydesignpatterns.org/ont/dul/DUL.owl#Agent
p301
aVhttp://www.ontologydesignpatterns.org/ont/dul/DUL.owl#SocialPerson
p302
aVhttp://www.wikidata.org/entity/Q43229
p303
aVhttp://dbpedia.org/ontology/Agent
p304
aVhttp://dbpedia.org/ontology/Organisation
p305
aVhttp://schema.org/Organization
p306
aVhttp://umbel.org/umbel/rc/Business
p307
aVhttp://umbel.org/umbel/rc/Organization
p308
aVhttp://dbpedia.org/class/yago/Abstraction100002137
p309
aVhttp://dbpedia.org/class/yago/BreakfastCerealCompanies
p310
aVhttp://dbpedia.org/class/yago/Company108058098
p311
aVhttp://dbpedia.org/class/yago/Group100031264
p312
aVhttp://dbpedia.org/class/yago/Institution108053576
p313
aVhttp://dbpedia.org/class/yago/Organization108008335
p314
aVhttp://dbpedia.org/class/yago/SocialGroup107950920
p315
aVhttp://dbpedia.org/class/yago/YagoLegalActorGeo
p316
aVhttp://dbpedia.org/class/yago/CompaniesBasedInMinnesota
p317
aVhttp://dbpedia.org/class/yago/CompaniesEstablishedIn1866
p318
aVhttp://dbpedia.org/class/yago/FoodCompany108003427
p319
aVhttp://dbpedia.org/class/yago/FoodProductionCompaniesOfTheUnitedStates
p320
aVhttp://dbpedia.org/class/yago/YagoPermanentlyLocatedEntity
p321
aVhttp://dbpedia.org/class/yago/MultinationalFoodCompanies
p322
aVhttp://dbpedia.org/class/yago/YagoLegalActor
p323
aVhttp://dbpedia.org/class/yago/PubliclyTradedCompaniesOfTheUnitedStates
p324
aVhttp://dbpedia.org/resource/General_Mills
tp325
aa(lp326
a(lp327
a(lp328
((lp329
Vhttp://www.w3.org/2002/07/owl#Thing
p330
aVhttp://dbpedia.org/ontology/Company
p331
aVhttp://www.ontologydesignpatterns.org/ont/dul/DUL.owl#Agent
p332
aVhttp://www.ontologydesignpatterns.org/ont/dul/DUL.owl#SocialPerson
p333
aVhttp://www.wikidata.org/entity/Q43229
p334
aVhttp://dbpedia.org/ontology/Agent
p335
aVhttp://dbpedia.org/ontology/Organisation
p336
aVhttp://schema.org/Organization
p337
aVhttp://umbel.org/umbel/rc/Business
p338
aVhttp://dbpedia.org/class/yago/Abstraction100002137
p339
aVhttp://dbpedia.org/class/yago/Company108058098
p340
aVhttp://dbpedia.org/class/yago/Group100031264
p341
aVhttp://dbpedia.org/class/yago/Institution108053576
p342
aVhttp://dbpedia.org/class/yago/Organization108008335
p343
aVhttp://dbpedia.org/class/yago/SocialGroup107950920
p344
aVhttp://dbpedia.org/class/yago/YagoLegalActorGeo
p345
aVhttp://dbpedia.org/class/yago/CompaniesBasedInSaintPaul,Minnesota
p346
aVhttp://dbpedia.org/class/yago/YagoPermanentlyLocatedEntity
p347
aVhttp://dbpedia.org/class/yago/ManufacturingCompaniesBasedInMinnesota
p348
aVhttp://dbpedia.org/class/yago/YagoLegalActor
p349
aVhttp://dbpedia.org/resource/St._Jude_Medical
tp350
aa(lp351
aa(lp352
(lp353
((lp354
Vhttp://www.w3.org/2002/07/owl#Thing
p355
aVhttp://dbpedia.org/ontology/Company
p356
aVhttp://www.ontologydesignpatterns.org/ont/dul/DUL.owl#Agent
p357
aVhttp://www.ontologydesignpatterns.org/ont/dul/DUL.owl#SocialPerson
p358
aVhttp://www.wikidata.org/entity/Q43229
p359
aVhttp://dbpedia.org/ontology/Agent
p360
aVhttp://dbpedia.org/ontology/Organisation
p361
aVhttp://schema.org/Organization
p362
aVhttp://umbel.org/umbel/rc/Business
p363
aVhttp://umbel.org/umbel/rc/Organization
p364
aVhttp://dbpedia.org/class/yago/Abstraction100002137
p365
aVhttp://dbpedia.org/class/yago/BiotechnologyCompanies
p366
aVhttp://dbpedia.org/class/yago/Business108061042
p367
aVhttp://dbpedia.org/class/yago/Company108058098
p368
aVhttp://dbpedia.org/class/yago/Enterprise108056231
p369
aVhttp://dbpedia.org/class/yago/Group100031264
p370
aVhttp://dbpedia.org/class/yago/Institution108053576
p371
aVhttp://dbpedia.org/class/yago/Manufacturer108060446
p372
aVhttp://dbpedia.org/class/yago/Organization108008335
p373
aVhttp://dbpedia.org/class/yago/SocialGroup107950920
p374
aVhttp://dbpedia.org/class/yago/YagoLegalActorGeo
p375
aVhttp://dbpedia.org/class/yago/CompaniesBasedInMinneapolis,Minnesota
p376
aVhttp://dbpedia.org/class/yago/CompaniesEstablishedIn1949
p377
aVhttp://dbpedia.org/class/yago/YagoPermanentlyLocatedEntity
p378
aVhttp://dbpedia.org/class/yago/HealthCareCompaniesOfTheUnitedStates
p379
aVhttp://dbpedia.org/class/yago/MedicalEquipmentManufacturers
p380
aVhttp://dbpedia.org/class/yago/YagoLegalActor
p381
aVhttp://dbpedia.org/resource/Medtronic
tp382
aa(lp383
a(lp384
a(lp385
((lp386
Vhttp://www.w3.org/2002/07/owl#Thing
p387
aVhttp://dbpedia.org/ontology/Company
p388
aVhttp://www.ontologydesignpatterns.org/ont/dul/DUL.owl#Agent
p389
aVhttp://www.ontologydesignpatterns.org/ont/dul/DUL.owl#SocialPerson
p390
aVhttp://www.wikidata.org/entity/Q43229
p391
aVhttp://dbpedia.org/ontology/Agent
p392
aVhttp://dbpedia.org/ontology/Organisation
p393
aVhttp://schema.org/Organization
p394
aVhttp://umbel.org/umbel/rc/Business
p395
aVhttp://umbel.org/umbel/rc/Organization
p396
aVhttp://dbpedia.org/class/yago/Abstraction100002137
p397
aVhttp://dbpedia.org/class/yago/AerospaceCompaniesOfTheUnitedStates
p398
aVhttp://dbpedia.org/class/yago/AmmunitionManufacturers
p399
aVhttp://dbpedia.org/class/yago/Business108061042
p400
aVhttp://dbpedia.org/class/yago/Company108058098
p401
aVhttp://dbpedia.org/class/yago/Enterprise108056231
p402
aVhttp://dbpedia.org/class/yago/Group100031264
p403
aVhttp://dbpedia.org/class/yago/Institution108053576
p404
aVhttp://dbpedia.org/class/yago/Manufacturer108060446
p405
aVhttp://dbpedia.org/class/yago/Organization108008335
p406
aVhttp://dbpedia.org/class/yago/SocialGroup107950920
p407
aVhttp://dbpedia.org/class/yago/YagoLegalActorGeo
p408
aVhttp://dbpedia.org/class/yago/CompaniesBasedInMinneapolis,Minnesota
p409
aVhttp://dbpedia.org/class/yago/CompaniesEstablishedIn1990
p410
aVhttp://dbpedia.org/class/yago/DefenseCompaniesOfTheUnitedStates
p411
aVhttp://dbpedia.org/class/yago/YagoPermanentlyLocatedEntity
p412
aVhttp://dbpedia.org/class/yago/YagoLegalActor
p413
aVhttp://dbpedia.org/resource/Alliant_Techsystems
tp414
aa(lp415
aa(lp416
(lp417
((lp418
Vhttp://dbpedia.org/class/yago/Abstraction100002137
p419
aVhttp://dbpedia.org/class/yago/AmericanChoirs
p420
aVhttp://dbpedia.org/class/yago/Choir108188638
p421
aVhttp://dbpedia.org/class/yago/Group100031264
p422
aVhttp://dbpedia.org/class/yago/MusicalOrganization108246613
p423
aVhttp://dbpedia.org/class/yago/Organization108008335
p424
aVhttp://dbpedia.org/class/yago/SocialGroup107950920
p425
aVhttp://dbpedia.org/class/yago/YagoLegalActorGeo
p426
aVhttp://dbpedia.org/class/yago/ChoirsOfChildren
p427
aVhttp://dbpedia.org/class/yago/Chorus108187837
p428
aVhttp://dbpedia.org/class/yago/YagoPermanentlyLocatedEntity
p429
aVhttp://dbpedia.org/class/yago/MusicalGroupsEstablishedIn1976
p430
aVhttp://dbpedia.org/class/yago/MusicalGroupsFromMinnesota
p431
aVhttp://dbpedia.org/class/yago/YagoLegalActor
p432
aVhttp://dbpedia.org/resource/Land_of_Lakes_Choirboys
tp433
aa(lp434
a(lp435
a(lp436
((lp437
Vhttp://www.w3.org/2002/07/owl#Thing
p438
aVhttp://dbpedia.org/ontology/Company
p439
aVhttp://www.ontologydesignpatterns.org/ont/dul/DUL.owl#Agent
p440
aVhttp://www.ontologydesignpatterns.org/ont/dul/DUL.owl#SocialPerson
p441
aVhttp://www.wikidata.org/entity/Q43229
p442
aVhttp://dbpedia.org/ontology/Agent
p443
aVhttp://dbpedia.org/ontology/Organisation
p444
aVhttp://schema.org/Organization
p445
aVhttp://umbel.org/umbel/rc/Business
p446
aVhttp://umbel.org/umbel/rc/Organization
p447
aVhttp://dbpedia.org/class/yago/Abstraction100002137
p448
aVhttp://dbpedia.org/class/yago/Bottler108066644
p449
aVhttp://dbpedia.org/class/yago/Business108061042
p450
aVhttp://dbpedia.org/class/yago/Company108058098
p451
aVhttp://dbpedia.org/class/yago/Enterprise108056231
p452
aVhttp://dbpedia.org/class/yago/Group100031264
p453
aVhttp://dbpedia.org/class/yago/Institution108053576
p454
aVhttp://dbpedia.org/class/yago/Manufacturer108060446
p455
aVhttp://dbpedia.org/class/yago/Organization108008335
p456
aVhttp://dbpedia.org/class/yago/SocialGroup107950920
p457
aVhttp://dbpedia.org/class/yago/YagoLegalActorGeo
p458
aVhttp://dbpedia.org/class/yago/CompaniesBasedInMinneapolis,Minnesota
p459
aVhttp://dbpedia.org/class/yago/YagoPermanentlyLocatedEntity
p460
aVhttp://dbpedia.org/class/yago/PepsiCoBottlers
p461
aVhttp://dbpedia.org/class/yago/YagoLegalActor
p462
aVhttp://dbpedia.org/resource/PepsiAmericas
tp463
aa(lp464
aa(lp465
(lp466
((lp467
Vhttp://www.w3.org/2002/07/owl#Thing
p468
aVhttp://dbpedia.org/resource/Mosaic
p469
tp470
aa(lp471
a(lp472
a(lp473
a(lp474
aa.