(lp1
(lp2
(dp3
Vstart
p4
I0
sVdisambiguatedURL
p5
Vhttp://dbpedia.org/resource/UnitedHealth_Group
p6
sVnamedEntity
p7
VUnitedHealth Group
p8
sVoffset
p9
I18
saa(lp10
(dp11
Vstart
p12
I0
sVdisambiguatedURL
p13
Vhttp://dbpedia.org/resource/Target_Corporation
p14
sVnamedEntity
p15
VTarget
p16
sVoffset
p17
I6
saa(lp18
(dp19
Vstart
p20
I0
sVdisambiguatedURL
p21
Vhttp://dbpedia.org/resource/Best_Buy
p22
sVnamedEntity
p23
VBest Buy
p24
sVoffset
p25
I8
saa(lp26
(dp27
Vstart
p28
I0
sVdisambiguatedURL
p29
Vhttp://dbpedia.org/resource/SuperValu
p30
sVnamedEntity
p31
VSupervalu
p32
sVoffset
p33
I9
saa(lp34
(dp35
Vstart
p36
I0
sVdisambiguatedURL
p37
Vhttp://dbpedia.org/resource/Cheshire
p38
sVnamedEntity
p39
VCHS
p40
sVoffset
p41
I3
saa(lp42
(dp43
Vstart
p44
I0
sVdisambiguatedURL
p45
NsVnamedEntity
p46
V3M
p47
sVoffset
p48
I2
saa(lp49
(dp50
Vstart
p51
I0
sVdisambiguatedURL
p52
NsVnamedEntity
p53
VU.S. Bancorp
p54
sVoffset
p55
I12
saa(lp56
(dp57
Vstart
p58
I0
sVdisambiguatedURL
p59
Vhttp://dbpedia.org/resource/General_Mills
p60
sVnamedEntity
p61
VGeneral Mills
p62
sVoffset
p63
I13
saa(lp64
(dp65
Vstart
p66
I0
sVdisambiguatedURL
p67
Vhttp://dbpedia.org/resource/Medtronic
p68
sVnamedEntity
p69
VMedtronic
p70
sVoffset
p71
I9
saa(lp72
(dp73
Vstart
p74
I0
sVdisambiguatedURL
p75
Vhttp://dbpedia.org/resource/Land_of_Lakes_Choirboys
p76
sVnamedEntity
p77
VLand O?Lakes
p78
sVoffset
p79
I12
saa(lp80
(dp81
Vstart
p82
I0
sVdisambiguatedURL
p83
Vhttp://dbpedia.org/resource/Mosaic
p84
sVnamedEntity
p85
VMosaic
p86
sVoffset
p87
I6
saa.