(lp1
(lp2
(lp3
a(lp4
a(lp5
aa(lp6
(lp7
Vhttp://dbpedia.org/resource/Hippocrates
p8
aa(lp9
a(lp10
aa(lp11
(lp12
Vhttp://dbpedia.org/resource/Democritus
p13
aa(lp14
a(lp15
aa(lp16
(lp17
a(lp18
a(lp19
aa(lp20
(lp21
a(lp22
a(lp23
aa(lp24
(lp25
a(lp26
a(lp27
aa(lp28
(lp29
a(lp30
a(lp31
Vhttp://dbpedia.org/resource/Ancient_Greek_philosophy
p32
aaa(lp33
(lp34
a(lp35
a(lp36
aa(lp37
(lp38
a(lp39
a(lp40
aa(lp41
(lp42
a(lp43
a(lp44
aa(lp45
(lp46
Vhttp://dbpedia.org/resource/Galen
p47
aa(lp48
a(lp49
aa(lp50
(lp51
Vhttp://dbpedia.org/resource/Mu\u1e25ammad_ibn_M\u016bs\u0101_al-Khw\u0101rizm\u012b
p52
aa(lp53
a(lp54
aa(lp55
(lp56
Vhttp://dbpedia.org/resource/Johannes_Gutenberg
p57
aa(lp58
a(lp59
aa(lp60
(lp61
Vhttp://dbpedia.org/resource/Leonardo_da_Vinci
p62
aa(lp63
a(lp64
aa(lp65
(lp66
Vhttp://dbpedia.org/resource/Nicolaus_Copernicus
p67
aa(lp68
a(lp69
aa(lp70
(lp71
Vhttp://dbpedia.org/resource/Andreas_Vesalius
p72
aa(lp73
a(lp74
aa(lp75
(lp76
a(lp77
a(lp78
aa(lp79
(lp80
Vhttp://dbpedia.org/resource/Francis_Bacon
p81
aa(lp82
a(lp83
aa(lp84
(lp85
Vhttp://dbpedia.org/resource/Galileo_Galilei
p86
aa(lp87
a(lp88
aa(lp89
(lp90
Vhttp://dbpedia.org/resource/Johannes_Kepler
p91
aa(lp92
a(lp93
aa.