(lp1
(lp2
(lp3
a(lp4
a(lp5
a(lp6
a(lp7
((lVhttp://dbpedia.org/resource/Quenching
tp8
aa(lp9
aa(lp10
(lp11
a(lp12
a(lp13
a(lp14
a(lp15
a(lp16
aa(lp17
(lp18
a(lp19
a(lp20
a(lp21
a(lp22
a(lp23
aa(lp24
(lp25
a(lp26
a(lp27
a(lp28
a(lp29
a(lp30
aa(lp31
(lp32
a(lp33
a(lp34
a(lp35
a(lp36
a(lp37
aa(lp38
(lp39
a(lp40
a(lp41
a(lp42
a(lp43
a(lp44
((lp45
Vhttp://dbpedia.org/class/yago/Artifact100021939
p46
aVhttp://dbpedia.org/class/yago/Brewery102897237
p47
aVhttp://dbpedia.org/class/yago/BuildingComplex102914991
p48
aVhttp://dbpedia.org/class/yago/Object100002684
p49
aVhttp://dbpedia.org/class/yago/Plant103956922
p50
aVhttp://dbpedia.org/class/yago/Structure104341686
p51
aVhttp://dbpedia.org/class/yago/Whole100003553
p52
aVhttp://dbpedia.org/class/yago/YagoGeoEntity
p53
aVhttp://www.w3.org/2002/07/owl#Thing
p54
aVhttp://dbpedia.org/ontology/Company
p55
aVhttp://www.ontologydesignpatterns.org/ont/dul/DUL.owl#Agent
p56
aVhttp://www.ontologydesignpatterns.org/ont/dul/DUL.owl#SocialPerson
p57
aVhttp://www.wikidata.org/entity/Q43229
p58
aVhttp://dbpedia.org/ontology/Agent
p59
aVhttp://dbpedia.org/ontology/Brewery
p60
aVhttp://dbpedia.org/ontology/Organisation
p61
aVhttp://schema.org/Organization
p62
aVhttp://dbpedia.org/class/yago/YagoPermanentlyLocatedEntity
p63
aVhttp://dbpedia.org/class/yago/PhysicalEntity100001930
p64
aVhttp://dbpedia.org/resource/Murree_Brewery
tp65
aaa(lp66
(lp67
a(lp68
a(lp69
a(lp70
a(lp71
a(lp72
aa(lp73
(lp74
a(lp75
a(lp76
a(lp77
a(lp78
a(lp79
aa(lp80
(lp81
a(lp82
a(lp83
a(lp84
a(lp85
a(lp86
aa(lp87
(lp88
a(lp89
a(lp90
a(lp91
a(lp92
a(lp93
aa(lp94
(lp95
a(lp96
a(lp97
a(lp98
a(lp99
a(lp100
aa(lp101
(lp102
a(lp103
a(lp104
a(lp105
a(lp106
a(lp107
aa(lp108
(lp109
a(lp110
a(lp111
a(lp112
a(lp113
a(lp114
((lVhttp://dbpedia.org/resource/Cookie_cutter
p115
tp116
aaa(lp117
(lp118
a(lp119
a(lp120
a(lp121
a(lp122
a(lp123
aa(lp124
(lp125
a(lp126
a(lp127
a(lp128
a(lp129
a(lp130
aa(lp131
(lp132
a(lp133
a(lp134
a(lp135
a(lp136
a(lp137
aa(lp138
(lp139
a(lp140
a(lp141
a(lp142
a(lp143
a(lp144
aa(lp145
(lp146
a(lp147
a(lp148
a(lp149
a(lp150
a(lp151
aa(lp152
(lp153
a(lp154
a(lp155
a(lp156
a(lp157
a(lp158
aa.