(lp1
(lp2
(dp3
Vstart
p4
I0
sVdisambiguatedURL
p5
Vhttp://dbpedia.org/resource/Location_parameter
p6
sVnamedEntity
p7
VLocation:
p8
sVoffset
p9
I9
saa(lp10
(dp11
Vstart
p12
I0
sVdisambiguatedURL
p13
Vhttp://dbpedia.org/resource/Website
p14
sVnamedEntity
p15
VWebsite:
p16
sVoffset
p17
I8
saa(lp18
(dp19
Vstart
p20
I0
sVdisambiguatedURL
p21
Vhttp://dbpedia.org/resource/Telephone
p22
sVnamedEntity
p23
VPhone:
p24
sVoffset
p25
I6
saa(lp26
(dp27
Vstart
p28
I0
sVdisambiguatedURL
p29
Vhttp://dbpedia.org/resource/Weather
p30
sVnamedEntity
p31
VWeather:
p32
sVoffset
p33
I8
saa(lp34
(dp35
Vstart
p36
I0
sVdisambiguatedURL
p37
NsVnamedEntity
p38
VTrack map:
p39
sVoffset
p40
I10
saa(lp41
(dp42
Vstart
p43
I0
sVdisambiguatedURL
p44
NsVnamedEntity
p45
VTrack length:
p46
sVoffset
p47
I13
saa(lp48
(dp49
Vstart
p50
I0
sVdisambiguatedURL
p51
NsVnamedEntity
p52
V125 Baseline gearing:
p53
sVoffset
p54
I21
saa(lp55
(dp56
Vstart
p57
I0
sVdisambiguatedURL
p58
NsVnamedEntity
p59
V250 Baseline gearing:
p60
sVoffset
p61
I21
saa(lp62
(dp63
Vstart
p64
I0
sVdisambiguatedURL
p65
NsVnamedEntity
p66
VPets allowed:
p67
sVoffset
p68
I13
saa(lp69
(dp70
Vstart
p71
I0
sVdisambiguatedURL
p72
Vhttp://dbpedia.org/resource/Camping
p73
sVnamedEntity
p74
VCamping:
p75
sVoffset
p76
I8
saa(lp77
(dp78
Vstart
p79
I0
sVdisambiguatedURL
p80
NsVnamedEntity
p81
VHave power:
p82
sVoffset
p83
I11
saa.