(lp1
(lp2
a(lp3
(dp4
Vstart
p5
I0
sS'classes'
p6
(lp7
Vhttp://www.w3.org/2002/07/owl#Thing
p8
asVdisambiguatedURL
p9
Vhttp://dbpedia.org/resource/Website
p10
sVnamedEntity
p11
VWebsite:
p12
sVoffset
p13
I8
saa(lp14
a(lp15
a(lp16
a(lp17
a(lp18
a(lp19
a(lp20
a(lp21
a(lp22
a.