(lp1
(lp2
(lp3
a(lp4
a(lp5
a(lp6
aa(lp7
(lp8
a(lp9
a(lp10
a(lp11
aa(lp12
(lp13
a(lp14
a(lp15
a(lp16
aa(lp17
(lp18
a(lp19
((lp20
Vhttp://dbpedia.org/class/yago/Abstraction100002137
p21
aVhttp://dbpedia.org/class/yago/Group100031264
p22
aVhttp://dbpedia.org/class/yago/Organization108008335
p23
aVhttp://dbpedia.org/class/yago/SocialGroup107950920
p24
aVhttp://dbpedia.org/class/yago/Team108208560
p25
aVhttp://dbpedia.org/class/yago/Unit108189659
p26
aVhttp://dbpedia.org/class/yago/YagoLegalActorGeo
p27
aVhttp://dbpedia.org/class/yago/YagoPermanentlyLocatedEntity
p28
aVhttp://dbpedia.org/class/yago/YagoLegalActor
p29
aVhttp://dbpedia.org/class/yago/IndependentPromotionsTeamsAndStables
p30
aVhttp://dbpedia.org/resource/Da_Soul_Touchaz
tp31
aa(lp32
a(lp33
aa(lp34
(lp35
a(lp36
((lVhttp://dbpedia.org/resource/Felsic
tp37
aa(lp38
a(lp39
aa(lp40
(lp41
a(lp42
a(lp43
a(lp44
aa(lp45
(lp46
a(lp47
a(lp48
a(lp49
aa(lp50
(lp51
a(lp52
((lp53
Vhttp://dbpedia.org/class/yago/Artifact100021939
p54
aVhttp://dbpedia.org/class/yago/Covering103122748
p55
aVhttp://dbpedia.org/class/yago/Furnishing103405265
p56
aVhttp://dbpedia.org/class/yago/Object100002684
p57
aVhttp://dbpedia.org/class/yago/Rug104118021
p58
aVhttp://dbpedia.org/class/yago/Whole100003553
p59
aVhttp://dbpedia.org/class/yago/RugsAndCarpets
p60
aVhttp://www.w3.org/2002/07/owl#Thing
p61
aVhttp://dbpedia.org/class/yago/FloorCover103366823
p62
aVhttp://dbpedia.org/class/yago/Instrumentality103575240
p63
aVhttp://dbpedia.org/class/yago/PhysicalEntity100001930
p64
aVhttp://dbpedia.org/class/yago/TurkishCarpets,RugsAndKilims
p65
aVhttp://dbpedia.org/resource/Turkish_carpet
tp66
aa(lp67
a(lp68
aa(lp69
(lp70
a(lp71
a(lp72
a(lp73
aa(lp74
(lp75
a(lp76
((lVhttp://dbpedia.org/resource/Bassline
tp77
aa(lp78
a(lp79
aa(lp80
(lp81
a(lp82
a(lp83
a(lp84
aa(lp85
(lp86
a(lp87
((lVhttp://dbpedia.org/resource/Bossa_Nova_(dance)
tp88
aa(lp89
a(lp90
aa(lp91
(lp92
a(lp93
a(lp94
a(lp95
aa(lp96
(lp97
a(lp98
((lp99
Vhttp://www.w3.org/2002/07/owl#Thing
p100
aVhttp://dbpedia.org/resource/Compass
tp101
aa(lp102
a(lp103
aa(lp104
(lp105
a(lp106
((lp107
Vhttp://dbpedia.org/class/yago/Location100027167
p108
aVhttp://dbpedia.org/class/yago/Object100002684
p109
aVhttp://dbpedia.org/class/yago/YagoGeoEntity
p110
aVhttp://dbpedia.org/class/yago/YagoLegalActorGeo
p111
aVhttp://www.w3.org/2003/01/geo/wgs84_pos#SpatialThing
p112
aVhttp://dbpedia.org/class/yago/YagoPermanentlyLocatedEntity
p113
aVhttp://dbpedia.org/class/yago/MountainPassesOfAntarctica
p114
aVhttp://dbpedia.org/class/yago/Pass109386842
p115
aVhttp://dbpedia.org/class/yago/PhysicalEntity100001930
p116
aVhttp://dbpedia.org/resource/Crossover_Pass
p117
tp118
aa(lp119
a(lp120
aa(lp121
(lp122
a(lp123
a(lp124
a(lp125
aa(lp126
(lp127
a(lp128
a(lp129
a(lp130
aa(lp131
(lp132
a(lp133
a(lp134
a(lp135
aa.