(lp1
(lp2
(lp3
((lVhttp://dbpedia.org/resource/Null
tp4
aa(lp5
a(lp6
aa(lp7
(lp8
a(lp9
a(lp10
aa(lp11
(lp12
a(lp13
a(lp14
aa(lp15
(lp16
((lVhttp://dbpedia.org/resource/Null
tp17
aa(lp18
a(lp19
aa(lp20
(lp21
a(lp22
a(lp23
aa(lp24
(lp25
((lVhttp://dbpedia.org/resource/Null
tp26
aa(lp27
a(lp28
aa(lp29
(lp30
((lVhttp://dbpedia.org/resource/Null
tp31
aa(lp32
a(lp33
((lVhttp://dbpedia.org/resource/Requirement
tp34
aaa(lp35
(lp36
((lVhttp://dbpedia.org/resource/Null
p37
tp38
aa(lp39
a(lp40
aa.