(lp1
(dp2
I0
(dp3
I0
(lp4
sI1
(lp5
sI2
(lp6
sI3
(lp7
sI4
(lp8
sI5
(lp9
sI6
(lp10
sI7
(lp11
sI8
(lp12
sI9
(lp13
sI10
(lp14
sI11
(lp15
ssI1
(dp16
I0
g5
sI1
(lp17
sI2
(lp18
sI3
(lp19
sI4
(lp20
sI5
(lp21
sI6
(lp22
sI7
(lp23
sI8
(lp24
sI9
(lp25
sI10
(lp26
sI11
(lp27
ssI2
(dp28
I0
g6
sI1
g18
sI2
(lp29
sI3
(lp30
sI4
(lp31
sI5
(lp32
sI6
(lp33
sI7
(lp34
sI8
(lp35
sI9
(lp36
sI10
(lp37
sI11
(lp38
ssI3
(dp39
I0
g7
sI1
g19
sI2
g30
sI3
(lp40
sI4
(lp41
sI5
(lp42
sI6
(lp43
sI7
(lp44
sI8
(lp45
sI9
(lp46
sI10
(lp47
sI11
(lp48
ssI4
(dp49
I0
g8
sI1
g20
sI2
g31
sI3
g41
sI4
(lp50
sI5
(lp51
sI6
(lp52
sI7
(lp53
sI8
(lp54
sI9
(lp55
sI10
(lp56
sI11
(lp57
ssI5
(dp58
I0
g9
sI1
g21
sI2
g32
sI3
g42
sI4
g51
sI5
(lp59
sI6
(lp60
sI7
(lp61
sI8
(lp62
sI9
(lp63
sI10
(lp64
sI11
(lp65
ssI6
(dp66
I0
g10
sI1
g22
sI2
g33
sI3
g43
sI4
g52
sI5
g60
sI6
(lp67
sI7
(lp68
sI8
(lp69
sI9
(lp70
sI10
(lp71
sI11
(lp72
ssI7
(dp73
I0
g11
sI1
g23
sI2
g34
sI3
g44
sI4
g53
sI5
g61
sI6
g68
sI7
(lp74
sI8
(lp75
sI9
(lp76
sI10
(lp77
sI11
(lp78
ssI8
(dp79
I0
g12
sI1
g24
sI2
g35
sI3
g45
sI4
g54
sI5
g62
sI6
g69
sI7
g75
sI8
(lp80
sI9
(lp81
sI10
(lp82
sI11
(lp83
ssI9
(dp84
I0
g13
sI1
g25
sI2
g36
sI3
g46
sI4
g55
sI5
g63
sI6
g70
sI7
g76
sI8
g81
sI9
(lp85
sI10
(lp86
sI11
(lp87
ssI10
(dp88
I0
g14
sI1
g26
sI2
g37
sI3
g47
sI4
g56
sI5
g64
sI6
g71
sI7
g77
sI8
g82
sI9
g86
sI10
(lp89
sI11
(lp90
ssI11
(dp91
I0
g15
sI1
g27
sI2
g38
sI3
g48
sI4
g57
sI5
g65
sI6
g72
sI7
g78
sI8
g83
sI9
g87
sI10
g90
sI11
(lp92
ssa(dp93
I0
(dp94
I0
(lp95
sI1
(lp96
sI2
(lp97
sI3
(lp98
sI4
(lp99
sI5
(lp100
sI6
(lp101
sI7
(lp102
sI8
(lp103
sI9
(lp104
sI10
(lp105
sI11
(lp106
ssI1
(dp107
I0
g96
sI1
(lp108
sI2
(lp109
sI3
(lp110
sI4
(lp111
sI5
(lp112
sI6
(lp113
sI7
(lp114
sI8
(lp115
sI9
(lp116
sI10
(lp117
sI11
(lp118
ssI2
(dp119
I0
g97
sI1
g109
sI2
(lp120
sI3
(lp121
sI4
(lp122
sI5
(lp123
sI6
(lp124
sI7
(lp125
sI8
(lp126
sI9
(lp127
sI10
(lp128
sI11
(lp129
ssI3
(dp130
I0
g98
sI1
g110
sI2
g121
sI3
(lp131
sI4
(lp132
sI5
(lp133
sI6
(lp134
sI7
(lp135
sI8
(lp136
sI9
(lp137
sI10
(lp138
sI11
(lp139
ssI4
(dp140
I0
g99
sI1
g111
sI2
g122
sI3
g132
sI4
(lp141
sI5
(lp142
sI6
(lp143
sI7
(lp144
sI8
(lp145
sI9
(lp146
sI10
(lp147
sI11
(lp148
ssI5
(dp149
I0
g100
sI1
g112
sI2
g123
sI3
g133
sI4
g142
sI5
(lp150
sI6
(lp151
sI7
(lp152
sI8
(lp153
sI9
(lp154
sI10
(lp155
sI11
(lp156
ssI6
(dp157
I0
g101
sI1
g113
sI2
g124
sI3
g134
sI4
g143
sI5
g151
sI6
(lp158
sI7
(lp159
sI8
(lp160
sI9
(lp161
sI10
(lp162
sI11
(lp163
ssI7
(dp164
I0
g102
sI1
g114
sI2
g125
sI3
g135
sI4
g144
sI5
g152
sI6
g159
sI7
(lp165
sI8
(lp166
sI9
(lp167
sI10
(lp168
sI11
(lp169
ssI8
(dp170
I0
g103
sI1
g115
sI2
g126
sI3
g136
sI4
g145
sI5
g153
sI6
g160
sI7
g166
sI8
(lp171
sI9
(lp172
sI10
(lp173
sI11
(lp174
ssI9
(dp175
I0
g104
sI1
g116
sI2
g127
sI3
g137
sI4
g146
sI5
g154
sI6
g161
sI7
g167
sI8
g172
sI9
(lp176
sI10
(lp177
sI11
(lp178
ssI10
(dp179
I0
g105
sI1
g117
sI2
g128
sI3
g138
sI4
g147
sI5
g155
sI6
g162
sI7
g168
sI8
g173
sI9
g177
sI10
(lp180
sI11
(lp181
ssI11
(dp182
I0
g106
sI1
g118
sI2
g129
sI3
g139
sI4
g148
sI5
g156
sI6
g163
sI7
g169
sI8
g174
sI9
g178
sI10
g181
sI11
(lp183
ssa(dp184
I0
(dp185
I0
(lp186
sI1
(lp187
sI2
(lp188
sI3
(lp189
sI4
(lp190
sI5
(lp191
sI6
(lp192
sI7
(lp193
sI8
(lp194
sI9
(lp195
sI10
(lp196
sI11
(lp197
ssI1
(dp198
I0
g187
sI1
(lp199
sI2
(lp200
sI3
(lp201
sI4
(lp202
sI5
(lp203
sI6
(lp204
sI7
(lp205
sI8
(lp206
sI9
(lp207
sI10
(lp208
sI11
(lp209
ssI2
(dp210
I0
g188
sI1
g200
sI2
(lp211
sI3
(lp212
sI4
(lp213
sI5
(lp214
sI6
(lp215
sI7
(lp216
sI8
(lp217
sI9
(lp218
sI10
(lp219
sI11
(lp220
ssI3
(dp221
I0
g189
sI1
g201
sI2
g212
sI3
(lp222
sI4
(lp223
sI5
(lp224
sI6
(lp225
sI7
(lp226
sI8
(lp227
sI9
(lp228
sI10
(lp229
sI11
(lp230
ssI4
(dp231
I0
g190
sI1
g202
sI2
g213
sI3
g223
sI4
(lp232
sI5
(lp233
sI6
(lp234
sI7
(lp235
sI8
(lp236
sI9
(lp237
sI10
(lp238
sI11
(lp239
ssI5
(dp240
I0
g191
sI1
g203
sI2
g214
sI3
g224
sI4
g233
sI5
(lp241
sI6
(lp242
sI7
(lp243
sI8
(lp244
sI9
(lp245
sI10
(lp246
sI11
(lp247
ssI6
(dp248
I0
g192
sI1
g204
sI2
g215
sI3
g225
sI4
g234
sI5
g242
sI6
(lp249
sI7
(lp250
sI8
(lp251
sI9
(lp252
sI10
(lp253
sI11
(lp254
ssI7
(dp255
I0
g193
sI1
g205
sI2
g216
sI3
g226
sI4
g235
sI5
g243
sI6
g250
sI7
(lp256
sI8
(lp257
sI9
(lp258
sI10
(lp259
sI11
(lp260
ssI8
(dp261
I0
g194
sI1
g206
sI2
g217
sI3
g227
sI4
g236
sI5
g244
sI6
g251
sI7
g257
sI8
(lp262
sI9
(lp263
sI10
(lp264
sI11
(lp265
ssI9
(dp266
I0
g195
sI1
g207
sI2
g218
sI3
g228
sI4
g237
sI5
g245
sI6
g252
sI7
g258
sI8
g263
sI9
(lp267
sI10
(lp268
sI11
(lp269
ssI10
(dp270
I0
g196
sI1
g208
sI2
g219
sI3
g229
sI4
g238
sI6
g253
sI7
g259
sI8
g264
sI9
g268
sI10
(lp271
sI11
(lp272
ssI11
(dp273
I0
g197
sI1
g209
sI2
g220
sI3
g230
sI4
g239
sI5
g247
sI6
g254
sI7
g260
sI8
g265
sI9
g269
sI10
g272
sI11
(lp274
ssa(dp275
I0
(dp276
I0
(lp277
sI1
(lp278
sI2
(lp279
sI3
(lp280
sI4
(lp281
sI5
(lp282
sI6
(lp283
sI7
(lp284
sI8
(lp285
sI9
(lp286
sI10
(lp287
sI11
(lp288
ssI1
(dp289
I0
g278
sI1
(lp290
sI2
(lp291
sI3
(lp292
sI4
(lp293
sI5
(lp294
sI6
(lp295
sI7
(lp296
sI8
(lp297
sI9
(lp298
sI10
(lp299
sI11
(lp300
ssI2
(dp301
I0
g279
sI1
g291
sI2
(lp302
sI3
(lp303
sI4
(lp304
sI5
(lp305
sI6
(lp306
sI7
(lp307
sI8
(lp308
sI9
(lp309
sI10
(lp310
sI11
(lp311
ssI3
(dp312
I0
g280
sI1
g292
sI2
g303
sI3
(lp313
sI4
(lp314
sI5
(lp315
sI6
(lp316
sI7
(lp317
sI8
(lp318
sI9
(lp319
sI10
(lp320
sI11
(lp321
ssI4
(dp322
I0
g281
sI1
g293
sI2
g304
sI3
g314
sI4
(lp323
sI5
(lp324
sI6
(lp325
sI7
(lp326
sI8
(lp327
sI9
(lp328
sI10
(lp329
sI11
(lp330
ssI5
(dp331
I0
g282
sI1
g294
sI2
g305
sI3
g315
sI4
g324
sI5
(lp332
sI6
(lp333
sI7
(lp334
sI8
(lp335
sI9
(lp336
sI10
(lp337
sI11
(lp338
ssI6
(dp339
I0
g283
sI1
g295
sI2
g306
sI3
g316
sI4
g325
sI5
g333
sI6
(lp340
sI7
(lp341
sI8
(lp342
sI9
(lp343
sI10
(lp344
sI11
(lp345
ssI7
(dp346
I0
g284
sI1
g296
sI2
g307
sI3
g317
sI4
g326
sI5
g334
sI6
g341
sI7
(lp347
sI8
(lp348
sI9
(lp349
sI10
(lp350
sI11
(lp351
ssI8
(dp352
I0
g285
sI1
g297
sI2
g308
sI3
g318
sI4
g327
sI5
g335
sI6
g342
sI7
g348
sI8
(lp353
sI9
(lp354
sI10
(lp355
sI11
(lp356
ssI9
(dp357
I0
g286
sI1
g298
sI2
g309
sI3
g319
sI4
g328
sI5
g336
sI6
g343
sI7
g349
sI8
g354
sI9
(lp358
sI10
(lp359
sI11
(lp360
ssI10
(dp361
I0
g287
sI1
g299
sI2
g310
sI3
g320
sI4
g329
sI6
g344
sI7
g350
sI8
g355
sI9
g359
sI10
(lp362
sI11
(lp363
ssI11
(dp364
I0
g288
sI1
g300
sI2
g311
sI3
g321
sI4
g330
sI5
g338
sI6
g345
sI7
g351
sI8
g356
sI9
g360
sI10
g363
sI11
(lp365
ssa.