(lp1
(lp2
(lp3
a(lp4
((lVhttp://dbpedia.org/resource/Freeware
tp5
aa(lp6
a(lp7
a(lp8
((lVhttp://dbpedia.org/resource/Null
tp9
aaa(lp10
(lp11
a(lp12
((lp13
Vhttp://www.w3.org/2002/07/owl#Thing
p14
aVhttp://dbpedia.org/resource/Shareware
tp15
aa(lp16
a(lp17
a(lp18
((lVhttp://dbpedia.org/resource/Null
tp19
aaa(lp20
(lp21
a(lp22
((lVhttp://dbpedia.org/resource/Freeware
tp23
aa(lp24
a(lp25
a(lp26
((lVhttp://dbpedia.org/resource/Null
tp27
aaa(lp28
(lp29
a(lp30
((lVhttp://dbpedia.org/resource/Freeware
tp31
aa(lp32
a(lp33
a(lp34
((lVhttp://dbpedia.org/resource/Null
tp35
aaa(lp36
(lp37
a(lp38
((lVhttp://dbpedia.org/resource/Freeware
tp39
aa(lp40
a(lp41
a(lp42
((lVhttp://dbpedia.org/resource/Null
p43
tp44
aaa.