(lp1
(lp2
(lp3
a(lp4
a(lp5
a(lp6
a(lp7
a(lp8
Vhttp://dbpedia.org/resource/Kevin_Johnson_(academic)
p9
aaa(lp10
(lp11
a(lp12
a(lp13
a(lp14
a(lp15
a(lp16
aa(lp17
(lp18
a(lp19
a(lp20
a(lp21
a(lp22
a(lp23
aa(lp24
(lp25
a(lp26
a(lp27
a(lp28
a(lp29
a(lp30
aa(lp31
(lp32
a(lp33
a(lp34
a(lp35
a(lp36
a(lp37
aa(lp38
(lp39
a(lp40
a(lp41
a(lp42
a(lp43
a(lp44
aa(lp45
(lp46
a(lp47
Vhttp://dbpedia.org/resource/Salt_Lake_City
p48
aa(lp49
a(lp50
a(lp51
a(lp52
Vhttp://dbpedia.org/resource/Ralph_Becker
p53
aaa(lp54
(lp55
a(lp56
Vhttp://dbpedia.org/resource/Salvador,_Bahia
p57
aa(lp58
a(lp59
a(lp60
a(lp61
aa(lp62
(lp63
a(lp64
a(lp65
a(lp66
a(lp67
a(lp68
aa(lp69
(lp70
a(lp71
Vhttp://dbpedia.org/resource/San_Antonio
p72
aa(lp73
a(lp74
a(lp75
a(lp76
aa(lp77
(lp78
a(lp79
a(lp80
a(lp81
a(lp82
a(lp83
aa(lp84
(lp85
a(lp86
a(lp87
a(lp88
a(lp89
a(lp90
aa(lp91
(lp92
a(lp93
a(lp94
a(lp95
a(lp96
a(lp97
aa(lp98
(lp99
a(lp100
a(lp101
a(lp102
a(lp103
a(lp104
aa(lp105
(lp106
a(lp107
a(lp108
a(lp109
a(lp110
a(lp111
aa(lp112
(lp113
a(lp114
a(lp115
a(lp116
a(lp117
a(lp118
aa(lp119
(lp120
a(lp121
a(lp122
Vhttp://dbpedia.org/resource/El_Salvador
p123
aa(lp124
a(lp125
a(lp126
aa(lp127
(lp128
a(lp129
a(lp130
a(lp131
a(lp132
a(lp133
aa(lp134
(lp135
a(lp136
a(lp137
a(lp138
a(lp139
a(lp140
aa(lp141
(lp142
a(lp143
a(lp144
a(lp145
a(lp146
a(lp147
aa.