(lp1
(lp2
(lp3
a(lp4
a(lp5
a(lp6
a(lp7
a(lp8
((lp9
Vhttp://www.w3.org/2002/07/owl#Thing
p10
aVhttp://xmlns.com/foaf/0.1/Person
p11
aVhttp://dbpedia.org/ontology/Person
p12
aVhttp://www.ontologydesignpatterns.org/ont/dul/DUL.owl#Agent
p13
aVhttp://www.ontologydesignpatterns.org/ont/dul/DUL.owl#NaturalPerson
p14
aVhttp://www.wikidata.org/entity/Q215627
p15
aVhttp://www.wikidata.org/entity/Q5
p16
aVhttp://www.wikidata.org/entity/Q901
p17
aVhttp://dbpedia.org/ontology/Agent
p18
aVhttp://dbpedia.org/ontology/Scientist
p19
aVhttp://schema.org/Person
p20
aVhttp://umbel.org/umbel/rc/Scientist
p21
aVhttp://dbpedia.org/class/yago/AcademicAdministrator109758885
p22
aVhttp://dbpedia.org/class/yago/Administrator109770949
p23
aVhttp://dbpedia.org/class/yago/Alumnus109786338
p24
aVhttp://dbpedia.org/class/yago/CausalAgent100007347
p25
aVhttp://dbpedia.org/class/yago/Dean109996784
p26
aVhttp://dbpedia.org/class/yago/Head110162991
p27
aVhttp://dbpedia.org/class/yago/Intellectual109621545
p28
aVhttp://dbpedia.org/class/yago/Leader109623038
p29
aVhttp://dbpedia.org/class/yago/LivingThing100004258
p30
aVhttp://dbpedia.org/class/yago/Object100002684
p31
aVhttp://dbpedia.org/class/yago/Organism100004475
p32
aVhttp://dbpedia.org/class/yago/Person100007846
p33
aVhttp://dbpedia.org/class/yago/Scholar110557854
p34
aVhttp://dbpedia.org/class/yago/Scientist110560637
p35
aVhttp://dbpedia.org/class/yago/Whole100003553
p36
aVhttp://dbpedia.org/class/yago/YagoLegalActorGeo
p37
aVhttp://dbpedia.org/class/yago/PhysicalEntity100001930
p38
aVhttp://dbpedia.org/class/yago/HarvardLawSchoolAlumni
p39
aVhttp://dbpedia.org/class/yago/LawSchoolDeans
p40
aVhttp://dbpedia.org/class/yago/LivingPeople
p41
aVhttp://dbpedia.org/class/yago/YagoLegalActor
p42
aVhttp://dbpedia.org/resource/Kevin_Johnson_(academic)
tp43
aaa(lp44
(lp45
a(lp46
a(lp47
a(lp48
a(lp49
a(lp50
aa(lp51
(lp52
a(lp53
a(lp54
a(lp55
a(lp56
a(lp57
aa(lp58
(lp59
a(lp60
a(lp61
a(lp62
a(lp63
a(lp64
aa(lp65
(lp66
a(lp67
a(lp68
a(lp69
a(lp70
a(lp71
aa(lp72
(lp73
a(lp74
a(lp75
a(lp76
a(lp77
a(lp78
aa(lp79
(lp80
a(lp81
((lp82
Vhttp://www.w3.org/2002/07/owl#Thing
p83
aVhttp://dbpedia.org/ontology/Place
p84
aVhttp://dbpedia.org/ontology/Location
p85
aVhttp://www.wikidata.org/entity/Q486972
p86
aVhttp://dbpedia.org/ontology/PopulatedPlace
p87
aVhttp://dbpedia.org/ontology/Settlement
p88
aVhttp://www.w3.org/2003/01/geo/wgs84_pos#SpatialThing
p89
aVhttp://schema.org/Place
p90
aVhttp://umbel.org/umbel/rc/City
p91
aVhttp://dbpedia.org/class/yago/AdministrativeDistrict108491826
p92
aVhttp://dbpedia.org/class/yago/Area108497294
p93
aVhttp://dbpedia.org/class/yago/Center108523483
p94
aVhttp://dbpedia.org/class/yago/City108524735
p95
aVhttp://dbpedia.org/class/yago/District108552138
p96
aVhttp://dbpedia.org/class/yago/Location100027167
p97
aVhttp://dbpedia.org/class/yago/Object100002684
p98
aVhttp://dbpedia.org/class/yago/Region108630985
p99
aVhttp://dbpedia.org/class/yago/Seat108647945
p100
aVhttp://dbpedia.org/class/yago/Site108651247
p101
aVhttp://dbpedia.org/class/yago/Tract108673395
p102
aVhttp://dbpedia.org/class/yago/UrbanArea108675967
p103
aVhttp://dbpedia.org/class/yago/YagoGeoEntity
p104
aVhttp://dbpedia.org/class/yago/YagoLegalActorGeo
p105
aVhttp://dbpedia.org/class/yago/CitiesInUtah
p106
aVhttp://dbpedia.org/class/yago/CountySeat108547143
p107
aVhttp://dbpedia.org/class/yago/CountySeatsInUtah
p108
aVhttp://dbpedia.org/class/yago/GeographicalArea108574314
p109
aVhttp://dbpedia.org/class/yago/Municipality108626283
p110
aVhttp://dbpedia.org/class/yago/PhysicalEntity100001930
p111
aVhttp://dbpedia.org/class/yago/YagoPermanentlyLocatedEntity
p112
aVhttp://dbpedia.org/class/yago/HostCitiesOfTheWinterOlympicGames
p113
aVhttp://dbpedia.org/class/yago/PlannedCitiesInTheUnitedStates
p114
aVhttp://dbpedia.org/class/yago/PopulatedLakeshorePlaces
p115
aVhttp://dbpedia.org/class/yago/PopulatedPlacesEstablishedIn1847
p116
aVhttp://dbpedia.org/resource/Salt_Lake_City
tp117
aa(lp118
a(lp119
a(lp120
a(lp121
((lVhttp://dbpedia.org/resource/Ralph_Becker
tp122
aaa(lp123
(lp124
a(lp125
((lp126
Vhttp://www.w3.org/2002/07/owl#Thing
p127
aVhttp://dbpedia.org/ontology/Place
p128
aVhttp://dbpedia.org/ontology/Location
p129
aVhttp://www.wikidata.org/entity/Q486972
p130
aVhttp://dbpedia.org/ontology/PopulatedPlace
p131
aVhttp://dbpedia.org/ontology/Settlement
p132
aVhttp://www.w3.org/2003/01/geo/wgs84_pos#SpatialThing
p133
aVhttp://schema.org/Place
p134
aVhttp://umbel.org/umbel/rc/Location_Underspecified
p135
aVhttp://umbel.org/umbel/rc/PopulatedPlace
p136
aVhttp://umbel.org/umbel/rc/Village
p137
aVhttp://dbpedia.org/class/yago/AdministrativeDistrict108491826
p138
aVhttp://dbpedia.org/class/yago/Area108497294
p139
aVhttp://dbpedia.org/class/yago/Capital108518505
p140
aVhttp://dbpedia.org/class/yago/Center108523483
p141
aVhttp://dbpedia.org/class/yago/City108524735
p142
aVhttp://dbpedia.org/class/yago/District108552138
p143
aVhttp://dbpedia.org/class/yago/Location100027167
p144
aVhttp://dbpedia.org/class/yago/Object100002684
p145
aVhttp://dbpedia.org/class/yago/Region108630985
p146
aVhttp://dbpedia.org/class/yago/Seat108647945
p147
aVhttp://dbpedia.org/class/yago/Site108651247
p148
aVhttp://dbpedia.org/class/yago/Tract108673395
p149
aVhttp://dbpedia.org/class/yago/UrbanArea108675967
p150
aVhttp://dbpedia.org/class/yago/YagoGeoEntity
p151
aVhttp://dbpedia.org/class/yago/YagoLegalActorGeo
p152
aVhttp://dbpedia.org/class/yago/FormerNationalCapitals
p153
aVhttp://dbpedia.org/class/yago/GeographicalArea108574314
p154
aVhttp://dbpedia.org/class/yago/Municipality108626283
p155
aVhttp://dbpedia.org/class/yago/NationalCapital108691669
p156
aVhttp://dbpedia.org/class/yago/PhysicalEntity100001930
p157
aVhttp://dbpedia.org/class/yago/StateCapital108695539
p158
aVhttp://dbpedia.org/class/yago/YagoPermanentlyLocatedEntity
p159
aVhttp://dbpedia.org/class/yago/PopulatedCoastalPlacesInBahia
p160
aVhttp://dbpedia.org/class/yago/PopulatedPlacesEstablishedIn1549
p161
aVhttp://dbpedia.org/class/yago/StateCapitalsInBrazil
p162
aVhttp://dbpedia.org/class/yago/WorldHeritageSitesInBrazil
p163
aVhttp://dbpedia.org/resource/Salvador,_Bahia
tp164
aa(lp165
a(lp166
a(lp167
a(lp168
aa(lp169
(lp170
a(lp171
a(lp172
a(lp173
a(lp174
a(lp175
aa(lp176
(lp177
a(lp178
((lp179
Vhttp://www.w3.org/2002/07/owl#Thing
p180
aVhttp://dbpedia.org/ontology/Place
p181
aVhttp://dbpedia.org/ontology/Location
p182
aVhttp://www.wikidata.org/entity/Q486972
p183
aVhttp://www.wikidata.org/entity/Q515
p184
aVhttp://dbpedia.org/ontology/City
p185
aVhttp://dbpedia.org/ontology/PopulatedPlace
p186
aVhttp://dbpedia.org/ontology/Settlement
p187
aVhttp://www.w3.org/2003/01/geo/wgs84_pos#SpatialThing
p188
aVhttp://schema.org/City
p189
aVhttp://schema.org/Place
p190
aVhttp://umbel.org/umbel/rc/City
p191
aVhttp://umbel.org/umbel/rc/Location_Underspecified
p192
aVhttp://umbel.org/umbel/rc/PopulatedPlace
p193
aVhttp://umbel.org/umbel/rc/Village
p194
aVhttp://dbpedia.org/class/yago/AdministrativeDistrict108491826
p195
aVhttp://dbpedia.org/class/yago/Area108497294
p196
aVhttp://dbpedia.org/class/yago/Center108523483
p197
aVhttp://dbpedia.org/class/yago/City108524735
p198
aVhttp://dbpedia.org/class/yago/Country108544813
p199
aVhttp://dbpedia.org/class/yago/District108552138
p200
aVhttp://dbpedia.org/class/yago/Location100027167
p201
aVhttp://dbpedia.org/class/yago/Object100002684
p202
aVhttp://dbpedia.org/class/yago/Region108630985
p203
aVhttp://dbpedia.org/class/yago/Seat108647945
p204
aVhttp://dbpedia.org/class/yago/Site108651247
p205
aVhttp://dbpedia.org/class/yago/Tract108673395
p206
aVhttp://dbpedia.org/class/yago/UrbanArea108675967
p207
aVhttp://dbpedia.org/class/yago/YagoGeoEntity
p208
aVhttp://dbpedia.org/class/yago/YagoLegalActorGeo
p209
aVhttp://dbpedia.org/class/yago/CitiesInTexas
p210
aVhttp://dbpedia.org/class/yago/CountySeat108547143
p211
aVhttp://dbpedia.org/class/yago/CountySeatsInTexas
p212
aVhttp://dbpedia.org/class/yago/GeographicalArea108574314
p213
aVhttp://dbpedia.org/class/yago/Municipality108626283
p214
aVhttp://dbpedia.org/class/yago/PhysicalEntity100001930
p215
aVhttp://dbpedia.org/class/yago/YagoPermanentlyLocatedEntity
p216
aVhttp://dbpedia.org/class/yago/PopulatedPlacesEstablishedIn1718
p217
aVhttp://dbpedia.org/class/yago/PopulatedPlacesInBexarCounty,Texas
p218
aVhttp://dbpedia.org/class/yago/PopulatedPlacesInComalCounty,Texas
p219
aVhttp://dbpedia.org/class/yago/PopulatedPlacesInTexasWithHispanicMajorityPopulations
p220
aVhttp://dbpedia.org/class/yago/UnitedStatesColonialAndTerritorialCapitals
p221
aVhttp://dbpedia.org/resource/San_Antonio
tp222
aa(lp223
a(lp224
a(lp225
a(lp226
aa(lp227
(lp228
a(lp229
a(lp230
a(lp231
a(lp232
a(lp233
aa(lp234
(lp235
a(lp236
a(lp237
a(lp238
a(lp239
a(lp240
aa(lp241
(lp242
a(lp243
a(lp244
a(lp245
a(lp246
a(lp247
aa(lp248
(lp249
a(lp250
a(lp251
a(lp252
a(lp253
a(lp254
aa(lp255
(lp256
a(lp257
a(lp258
a(lp259
a(lp260
a(lp261
aa(lp262
(lp263
a(lp264
a(lp265
a(lp266
a(lp267
a(lp268
aa(lp269
(lp270
a(lp271
a(lp272
((lp273
Vhttp://www.w3.org/2002/07/owl#Thing
p274
aVhttp://dbpedia.org/ontology/Place
p275
aVhttp://dbpedia.org/ontology/Location
p276
aVhttp://www.wikidata.org/entity/Q486972
p277
aVhttp://www.wikidata.org/entity/Q6256
p278
aVhttp://dbpedia.org/ontology/Country
p279
aVhttp://dbpedia.org/ontology/PopulatedPlace
p280
aVhttp://www.w3.org/2003/01/geo/wgs84_pos#SpatialThing
p281
aVhttp://schema.org/Country
p282
aVhttp://schema.org/Place
p283
aVhttp://umbel.org/umbel/rc/Country
p284
aVhttp://umbel.org/umbel/rc/Location_Underspecified
p285
aVhttp://umbel.org/umbel/rc/PopulatedPlace
p286
aVhttp://dbpedia.org/class/yago/Abstraction100002137
p287
aVhttp://dbpedia.org/class/yago/AdministrativeDistrict108491826
p288
aVhttp://dbpedia.org/class/yago/Country108544813
p289
aVhttp://dbpedia.org/class/yago/District108552138
p290
aVhttp://dbpedia.org/class/yago/Economy108366753
p291
aVhttp://dbpedia.org/class/yago/Group100031264
p292
aVhttp://dbpedia.org/class/yago/Location100027167
p293
aVhttp://dbpedia.org/class/yago/Object100002684
p294
aVhttp://dbpedia.org/class/yago/Region108630985
p295
aVhttp://dbpedia.org/class/yago/System108435388
p296
aVhttp://dbpedia.org/class/yago/YagoGeoEntity
p297
aVhttp://dbpedia.org/class/yago/YagoLegalActorGeo
p298
aVhttp://dbpedia.org/class/yago/CentralAmericanCountries
p299
aVhttp://dbpedia.org/class/yago/CountriesBorderingThePacificOcean
p300
aVhttp://dbpedia.org/class/yago/PhysicalEntity100001930
p301
aVhttp://dbpedia.org/class/yago/YagoPermanentlyLocatedEntity
p302
aVhttp://dbpedia.org/class/yago/MemberStatesOfTheUnitedNations
p303
aVhttp://dbpedia.org/class/yago/Spanish-speakingCountries
p304
aVhttp://dbpedia.org/class/yago/StatesAndTerritoriesEstablishedIn1842
p305
aVhttp://dbpedia.org/class/yago/WorldTradeOrganizationMemberEconomies
p306
aVhttp://dbpedia.org/resource/El_Salvador
p307
tp308
aa(lp309
a(lp310
a(lp311
aa(lp312
(lp313
a(lp314
a(lp315
a(lp316
a(lp317
a(lp318
aa(lp319
(lp320
a(lp321
a(lp322
a(lp323
a(lp324
a(lp325
aa(lp326
(lp327
a(lp328
a(lp329
a(lp330
a(lp331
a(lp332
aa.