ccollections
defaultdict
p1
(c__builtin__
dict
p2
tRp3
I0
(dp4
I0
(lp5
Vhttp://www.w3.org/1999/02/22-rdf-syntax-ns#type
p6
aVhttp://purl.org/dc/terms/subject
p7
aVhttp://www.w3.org/2000/01/rdf-schema#comment
p8
aVhttp://dbpedia.org/ontology/abstract
p9
aVhttp://purl.org/voc/vrank#hasRank
p10
aVhttp://dbpedia.org/ontology/dcc
p11
asI2
(lp12
Vhttp://dbpedia.org/ontology/abstract
p13
aVhttp://www.w3.org/2000/01/rdf-schema#comment
p14
asI3
(lp15
Vhttp://dbpedia.org/ontology/abstract
p16
asI4
(lp17
Vhttp://www.w3.org/1999/02/22-rdf-syntax-ns#type
p18
aVhttp://purl.org/dc/terms/subject
p19
aVhttp://www.w3.org/2000/01/rdf-schema#comment
p20
aVhttp://dbpedia.org/ontology/abstract
p21
aVhttp://purl.org/voc/vrank#hasRank
p22
aVhttp://dbpedia.org/ontology/dcc
p23
assI64
(dp24
I0
(lp25
sI2
(lp26
Vhttp://dbpedia.org/ontology/abstract
p27
aVhttp://www.w3.org/2000/01/rdf-schema#comment
p28
asI3
(lp29
Vhttp://dbpedia.org/ontology/abstract
p30
aVhttp://www.w3.org/2000/01/rdf-schema#comment
p31
asI4
(lp32
Vhttp://dbpedia.org/ontology/abstract
p33
aVhttp://www.w3.org/1999/02/22-rdf-syntax-ns#type
p34
aVhttp://www.w3.org/2000/01/rdf-schema#comment
p35
assI34
(dp36
I0
(lp37
Vhttp://dbpedia.org/ontology/wikiPageExternalLink
p38
aVhttp://www.w3.org/1999/02/22-rdf-syntax-ns#type
p39
aVhttp://purl.org/dc/terms/subject
p40
aVhttp://www.w3.org/2000/01/rdf-schema#comment
p41
aVhttp://dbpedia.org/ontology/abstract
p42
aVhttp://www.w3.org/ns/prov#wasDerivedFrom
p43
aVhttp://www.w3.org/2002/07/owl#sameAs
p44
asI2
(lp45
Vhttp://dbpedia.org/ontology/abstract
p46
asI3
(lp47
Vhttp://dbpedia.org/ontology/abstract
p48
asI4
(lp49
Vhttp://dbpedia.org/ontology/wikiPageExternalLink
p50
aVhttp://www.w3.org/1999/02/22-rdf-syntax-ns#type
p51
aVhttp://purl.org/dc/terms/subject
p52
aVhttp://dbpedia.org/ontology/lccnId
p53
aVhttp://www.w3.org/2000/01/rdf-schema#comment
p54
aVhttp://dbpedia.org/ontology/abstract
p55
aVhttp://dbpedia.org/property/deathDate
p56
aVhttp://dbpedia.org/property/lccn
p57
aVhttp://dbpedia.org/property/battles
p58
aVhttp://dbpedia.org/ontology/battle
p59
aVhttp://dbpedia.org/property/caption
p60
aVhttp://www.w3.org/2002/07/owl#sameAs
p61
aVhttp://dbpedia.org/ontology/commander
p62
assI95
(dp63
I0
(lp64
sI2
(lp65
Vhttp://dbpedia.org/ontology/abstract
p66
aVhttp://www.w3.org/2000/01/rdf-schema#comment
p67
asI3
(lp68
Vhttp://dbpedia.org/ontology/abstract
p69
aVhttp://www.w3.org/2000/01/rdf-schema#comment
p70
asI4
(lp71
ssI45
(dp72
I0
(lp73
Vhttp://dbpedia.org/property/isbn
p74
aVhttp://dbpedia.org/ontology/isbn
p75
aVhttp://www.w3.org/2002/07/owl#sameAs
p76
asI2
(lp77
Vhttp://dbpedia.org/ontology/abstract
p78
asI3
(lp79
Vhttp://dbpedia.org/ontology/abstract
p80
asI4
(lp81
ssI18
(dp82
I0
(lp83
Vhttp://dbpedia.org/ontology/abstract
p84
aVhttp://www.w3.org/1999/02/22-rdf-syntax-ns#type
p85
aVhttp://purl.org/dc/terms/subject
p86
aVhttp://www.w3.org/2000/01/rdf-schema#comment
p87
asI2
(lp88
Vhttp://dbpedia.org/ontology/abstract
p89
aVhttp://www.w3.org/2000/01/rdf-schema#comment
p90
asI3
(lp91
Vhttp://dbpedia.org/ontology/abstract
p92
aVhttp://www.w3.org/2000/01/rdf-schema#comment
p93
asI4
(lp94
Vhttp://www.w3.org/1999/02/22-rdf-syntax-ns#type
p95
aVhttp://dbpedia.org/ontology/oclc
p96
aVhttp://www.w3.org/2002/07/owl#sameAs
p97
assI51
(dp98
I0
(lp99
sI2
(lp100
Vhttp://dbpedia.org/ontology/abstract
p101
aVhttp://www.w3.org/2000/01/rdf-schema#comment
p102
asI3
(lp103
Vhttp://dbpedia.org/ontology/abstract
p104
aVhttp://www.w3.org/2000/01/rdf-schema#comment
p105
asI4
(lp106
ssI86
(dp107
I0
(lp108
sI2
(lp109
Vhttp://dbpedia.org/ontology/abstract
p110
aVhttp://www.w3.org/2000/01/rdf-schema#comment
p111
asI3
(lp112
Vhttp://dbpedia.org/ontology/abstract
p113
aVhttp://www.w3.org/2000/01/rdf-schema#comment
p114
asI4
(lp115
ssI57
(dp116
I0
(lp117
sI2
(lp118
Vhttp://dbpedia.org/ontology/abstract
p119
aVhttp://purl.org/dc/terms/subject
p120
aVhttp://www.w3.org/2000/01/rdf-schema#comment
p121
asI3
(lp122
Vhttp://dbpedia.org/ontology/abstract
p123
aVhttp://www.w3.org/2000/01/rdf-schema#comment
p124
asI4
(lp125
Vhttp://purl.org/voc/vrank#hasRank
p126
assI91
(dp127
I0
(lp128
sI2
(lp129
Vhttp://dbpedia.org/ontology/abstract
p130
aVhttp://www.w3.org/2000/01/rdf-schema#comment
p131
asI3
(lp132
sI4
(lp133
ssI63
(dp134
I0
(lp135
Vhttp://www.w3.org/ns/prov#wasDerivedFrom
p136
aVhttp://dbpedia.org/ontology/abstract
p137
aVhttp://www.w3.org/1999/02/22-rdf-syntax-ns#type
p138
aVhttp://www.w3.org/2000/01/rdf-schema#comment
p139
asI2
(lp140
Vhttp://dbpedia.org/ontology/abstract
p141
aVhttp://www.w3.org/2000/01/rdf-schema#comment
p142
asI3
(lp143
Vhttp://dbpedia.org/ontology/abstract
p144
asI4
(lp145
Vhttp://dbpedia.org/ontology/abstract
p146
aVhttp://www.w3.org/1999/02/22-rdf-syntax-ns#type
p147
aVhttp://www.w3.org/2000/01/rdf-schema#comment
p148
ass.