(lp1
(lp2
(dp3
Vstart
p4
I0
sVdisambiguatedURL
p5
Vhttp://dbpedia.org/resource/Retail
p6
sVnamedEntity
p7
VRetail Value
p8
sVoffset
p9
I12
saa(lp10
(dp11
Vstart
p12
I0
sVdisambiguatedURL
p13
NsVnamedEntity
p14
VYou Save
p15
sVoffset
p16
I8
saa(lp17
(dp18
Vstart
p19
I0
sVdisambiguatedURL
p20
NsVnamedEntity
p21
VItem Number
p22
sVoffset
p23
I11
saa.