(lp1
(lp2
(dp3
Vstart
p4
I0
sVdisambiguatedURL
p5
Vhttp://dbpedia.org/resource/Austria
p6
sVnamedEntity
p7
VAustria
p8
sVoffset
p9
I7
saa(lp10
(dp11
Vstart
p12
I0
sVdisambiguatedURL
p13
Vhttp://dbpedia.org/resource/Canada
p14
sVnamedEntity
p15
VCanada
p16
sVoffset
p17
I6
saa(lp18
(dp19
Vstart
p20
I0
sVdisambiguatedURL
p21
Vhttp://dbpedia.org/resource/Canada
p22
sVnamedEntity
p23
VCanada
p24
sVoffset
p25
I6
saa(lp26
(dp27
Vstart
p28
I0
sVdisambiguatedURL
p29
Vhttp://dbpedia.org/resource/France_2
p30
sVnamedEntity
p31
VFrance
p32
sVoffset
p33
I6
saa(lp34
(dp35
Vstart
p36
I0
sVdisambiguatedURL
p37
Vhttp://dbpedia.org/resource/France_2
p38
sVnamedEntity
p39
VFrance
p40
sVoffset
p41
I6
saa(lp42
(dp43
Vstart
p44
I0
sVdisambiguatedURL
p45
Vhttp://dbpedia.org/resource/France_2
p46
sVnamedEntity
p47
VFrance
p48
sVoffset
p49
I6
saa(lp50
(dp51
Vstart
p52
I0
sVdisambiguatedURL
p53
Vhttp://dbpedia.org/resource/Germany
p54
sVnamedEntity
p55
VGermany
p56
sVoffset
p57
I7
saa(lp58
(dp59
Vstart
p60
I0
sVdisambiguatedURL
p61
Vhttp://dbpedia.org/resource/Germany
p62
sVnamedEntity
p63
VGermany
p64
sVoffset
p65
I7
saa(lp66
(dp67
Vstart
p68
I0
sVdisambiguatedURL
p69
NsVnamedEntity
p70
VMexico
p71
sVoffset
p72
I6
saa(lp73
(dp74
Vstart
p75
I0
sVdisambiguatedURL
p76
NsVnamedEntity
p77
VMexico
p78
sVoffset
p79
I6
saa(lp80
(dp81
Vstart
p82
I0
sVdisambiguatedURL
p83
Vhttp://dbpedia.org/resource/Portugal
p84
sVnamedEntity
p85
VPortugal
p86
sVoffset
p87
I8
saa(lp88
(dp89
Vstart
p90
I0
sVdisambiguatedURL
p91
Vhttp://dbpedia.org/resource/Spain
p92
sVnamedEntity
p93
VSpain
p94
sVoffset
p95
I5
saa(lp96
(dp97
Vstart
p98
I0
sVdisambiguatedURL
p99
Vhttp://dbpedia.org/resource/Spain
p100
sVnamedEntity
p101
VSpain
p102
sVoffset
p103
I5
saa(lp104
(dp105
Vstart
p106
I0
sVdisambiguatedURL
p107
Vhttp://dbpedia.org/resource/Switzerland
p108
sVnamedEntity
p109
VSwitzerland
p110
sVoffset
p111
I11
saa.