(lp1
(lp2
(lp3
a(lp4
a(lp5
Vhttp://dbpedia.org/resource/Honor_society
p6
aa(lp7
a(lp8
a(lp9
aa(lp10
(lp11
a(lp12
a(lp13
Vhttp://dbpedia.org/resource/Honor_society
p14
aa(lp15
a(lp16
a(lp17
aa(lp18
(lp19
a(lp20
Vhttp://dbpedia.org/resource/My_Own_Mag
p21
aa(lp22
Vhttp://dbpedia.org/resource/Honor_society
p23
aa(lp24
a(lp25
a(lp26
aa(lp27
(lp28
a(lp29
a(lp30
Vhttp://dbpedia.org/resource/Honor_society
p31
aa(lp32
a(lp33
a(lp34
aa(lp35
(lp36
a(lp37
a(lp38
Vhttp://dbpedia.org/resource/Honor_society
p39
aa(lp40
a(lp41
a(lp42
aa(lp43
(lp44
a(lp45
Vhttp://dbpedia.org/resource/Goodnight_My_Love_(1960s_song)
p46
aa(lp47
Vhttp://dbpedia.org/resource/Honor_society
p48
aa(lp49
a(lp50
a(lp51
aa(lp52
(lp53
a(lp54
Vhttp://dbpedia.org/resource/Here_Comes_Trouble:_Stories_from_My_Life
p55
aa(lp56
Vhttp://dbpedia.org/resource/Honor_society
p57
aa(lp58
a(lp59
a(lp60
aa(lp61
(lp62
a(lp63
a(lp64
Vhttp://dbpedia.org/resource/Honor_society
p65
aa(lp66
a(lp67
a(lp68
aa(lp69
(lp70
a(lp71
a(lp72
Vhttp://dbpedia.org/resource/Honor_society
p73
aa(lp74
a(lp75
a(lp76
aa(lp77
(lp78
a(lp79
a(lp80
Vhttp://dbpedia.org/resource/Honor_society
p81
aa(lp82
a(lp83
a(lp84
aa(lp85
(lp86
a(lp87
Vhttp://dbpedia.org/resource/Rock_with_You
p88
aa(lp89
Vhttp://dbpedia.org/resource/Honor_society
p90
aa(lp91
a(lp92
a(lp93
aa(lp94
(lp95
a(lp96
a(lp97
Vhttp://dbpedia.org/resource/Honor_society
p98
aa(lp99
a(lp100
a(lp101
aa(lp102
(lp103
a(lp104
Vhttp://dbpedia.org/resource/Where_Are_You_Now%3F_(novel)
p105
aa(lp106
Vhttp://dbpedia.org/resource/Honor_society
p107
aa(lp108
a(lp109
a(lp110
aa.