(lp1
(lp2
(lp3
a(lp4
a(lp5
a(lp6
a(lp7
a(lp8
aa(lp9
(lp10
a(lp11
a(lp12
a(lp13
a(lp14
a(lp15
aa(lp16
(lp17
a(lp18
a(lp19
((lp20
Vhttp://www.w3.org/2002/07/owl#Thing
p21
aVhttp://dbpedia.org/ontology/Place
p22
aVhttp://dbpedia.org/ontology/Location
p23
aVhttp://www.wikidata.org/entity/Q486972
p24
aVhttp://www.wikidata.org/entity/Q6256
p25
aVhttp://dbpedia.org/ontology/Country
p26
aVhttp://dbpedia.org/ontology/PopulatedPlace
p27
aVhttp://www.w3.org/2003/01/geo/wgs84_pos#SpatialThing
p28
aVhttp://schema.org/Country
p29
aVhttp://schema.org/Place
p30
aVhttp://umbel.org/umbel/rc/Country
p31
aVhttp://umbel.org/umbel/rc/Location_Underspecified
p32
aVhttp://umbel.org/umbel/rc/PopulatedPlace
p33
aVhttp://dbpedia.org/class/yago/Abstraction100002137
p34
aVhttp://dbpedia.org/class/yago/AdministrativeDistrict108491826
p35
aVhttp://dbpedia.org/class/yago/BicontinentalCountries
p36
aVhttp://dbpedia.org/class/yago/CaribbeanCountries
p37
aVhttp://dbpedia.org/class/yago/Country108544813
p38
aVhttp://dbpedia.org/class/yago/District108552138
p39
aVhttp://dbpedia.org/class/yago/Economy108366753
p40
aVhttp://dbpedia.org/class/yago/Group100031264
p41
aVhttp://dbpedia.org/class/yago/Location100027167
p42
aVhttp://dbpedia.org/class/yago/Object100002684
p43
aVhttp://dbpedia.org/class/yago/Region108630985
p44
aVhttp://dbpedia.org/class/yago/System108435388
p45
aVhttp://dbpedia.org/class/yago/YagoGeoEntity
p46
aVhttp://dbpedia.org/class/yago/YagoLegalActorGeo
p47
aVhttp://dbpedia.org/class/yago/CountriesBorderingTheAtlanticOcean
p48
aVhttp://dbpedia.org/class/yago/Dutch-speakingCountries
p49
aVhttp://dbpedia.org/class/yago/EuropeanCountries
p50
aVhttp://dbpedia.org/class/yago/EuropeanUnionMemberEconomies
p51
aVhttp://dbpedia.org/class/yago/PhysicalEntity100001930
p52
aVhttp://dbpedia.org/class/yago/YagoPermanentlyLocatedEntity
p53
aVhttp://dbpedia.org/class/yago/MemberStatesOfNATO
p54
aVhttp://dbpedia.org/class/yago/MemberStatesOfTheDutchLanguageUnion
p55
aVhttp://dbpedia.org/class/yago/MemberStatesOfTheEuropeanUnion
p56
aVhttp://dbpedia.org/class/yago/MemberStatesOfTheUnionForTheMediterranean
p57
aVhttp://dbpedia.org/resource/Netherlands
tp58
aa(lp59
a(lp60
a(lp61
aa(lp62
(lp63
a(lp64
((lp65
Vhttp://www.w3.org/2002/07/owl#Thing
p66
aVhttp://dbpedia.org/ontology/Place
p67
aVhttp://dbpedia.org/ontology/Location
p68
aVhttp://www.wikidata.org/entity/Q486972
p69
aVhttp://dbpedia.org/ontology/PopulatedPlace
p70
aVhttp://schema.org/Place
p71
aVhttp://umbel.org/umbel/rc/Location_Underspecified
p72
aVhttp://umbel.org/umbel/rc/PopulatedPlace
p73
aVhttp://umbel.org/umbel/rc/Village
p74
aVhttp://dbpedia.org/class/yago/Location100027167
p75
aVhttp://dbpedia.org/class/yago/Object100002684
p76
aVhttp://dbpedia.org/class/yago/Region108630985
p77
aVhttp://dbpedia.org/class/yago/Site108651247
p78
aVhttp://dbpedia.org/class/yago/Tract108673395
p79
aVhttp://dbpedia.org/class/yago/YagoGeoEntity
p80
aVhttp://dbpedia.org/class/yago/YagoLegalActorGeo
p81
aVhttp://dbpedia.org/class/yago/GeographicalArea108574314
p82
aVhttp://dbpedia.org/class/yago/PhysicalEntity100001930
p83
aVhttp://dbpedia.org/class/yago/YagoPermanentlyLocatedEntity
p84
aVhttp://dbpedia.org/class/yago/PopulatedPlacesEstablishedIn1723
p85
aVhttp://dbpedia.org/resource/Yekaterinburg
tp86
aa(lp87
a(lp88
a(lp89
a(lp90
aa(lp91
(lp92
a(lp93
a(lp94
a(lp95
a(lp96
a(lp97
((lp98
Vhttp://www.w3.org/2002/07/owl#Thing
p99
aVhttp://xmlns.com/foaf/0.1/Person
p100
aVhttp://dbpedia.org/ontology/Person
p101
aVhttp://www.ontologydesignpatterns.org/ont/dul/DUL.owl#Agent
p102
aVhttp://www.ontologydesignpatterns.org/ont/dul/DUL.owl#NaturalPerson
p103
aVhttp://www.wikidata.org/entity/Q215627
p104
aVhttp://www.wikidata.org/entity/Q5
p105
aVhttp://www.wikidata.org/entity/Q82955
p106
aVhttp://dbpedia.org/ontology/Agent
p107
aVhttp://dbpedia.org/ontology/Politician
p108
aVhttp://schema.org/Person
p109
aVhttp://dbpedia.org/class/yago/CausalAgent100007347
p110
aVhttp://dbpedia.org/class/yago/LivingThing100004258
p111
aVhttp://dbpedia.org/class/yago/Object100002684
p112
aVhttp://dbpedia.org/class/yago/Organism100004475
p113
aVhttp://dbpedia.org/class/yago/Person100007846
p114
aVhttp://dbpedia.org/class/yago/Whole100003553
p115
aVhttp://dbpedia.org/class/yago/YagoLegalActorGeo
p116
aVhttp://dbpedia.org/class/yago/PhysicalEntity100001930
p117
aVhttp://dbpedia.org/class/yago/LivingPeople
p118
aVhttp://dbpedia.org/class/yago/PeopleFromErfurt
p119
aVhttp://dbpedia.org/class/yago/YagoLegalActor
p120
aVhttp://dbpedia.org/resource/Andreas_Bausewein
tp121
aaa(lp122
(lp123
a(lp124
a(lp125
a(lp126
a(lp127
a(lp128
aa(lp129
(lp130
a(lp131
a(lp132
a(lp133
a(lp134
a(lp135
aa(lp136
(lp137
a(lp138
a(lp139
a(lp140
a(lp141
a(lp142
aa(lp143
(lp144
a(lp145
a(lp146
a(lp147
a(lp148
a(lp149
aa(lp150
(lp151
a(lp152
a(lp153
a(lp154
a(lp155
a(lp156
aa(lp157
(lp158
a(lp159
a(lp160
a(lp161
a(lp162
a(lp163
aa(lp164
(lp165
a(lp166
a(lp167
a(lp168
a(lp169
a(lp170
aa(lp171
(lp172
a(lp173
a(lp174
a(lp175
a(lp176
a(lp177
aa(lp178
(lp179
a(lp180
a(lp181
a(lp182
a(lp183
a(lp184
aa(lp185
(lp186
a(lp187
a(lp188
a(lp189
a(lp190
a(lp191
aa(lp192
(lp193
a(lp194
a(lp195
a(lp196
a(lp197
a(lp198
aa(lp199
(lp200
a(lp201
a(lp202
a(lp203
a(lp204
a(lp205
aa(lp206
(lp207
a(lp208
a(lp209
((lp210
Vhttp://www.w3.org/2002/07/owl#Thing
p211
aVhttp://dbpedia.org/ontology/Place
p212
aVhttp://dbpedia.org/ontology/Location
p213
aVhttp://www.wikidata.org/entity/Q486972
p214
aVhttp://www.wikidata.org/entity/Q6256
p215
aVhttp://dbpedia.org/ontology/Country
p216
aVhttp://dbpedia.org/ontology/PopulatedPlace
p217
aVhttp://www.w3.org/2003/01/geo/wgs84_pos#SpatialThing
p218
aVhttp://schema.org/Country
p219
aVhttp://schema.org/Place
p220
aVhttp://umbel.org/umbel/rc/Country
p221
aVhttp://umbel.org/umbel/rc/Location_Underspecified
p222
aVhttp://umbel.org/umbel/rc/PopulatedPlace
p223
aVhttp://dbpedia.org/class/yago/Abstraction100002137
p224
aVhttp://dbpedia.org/class/yago/AdministrativeDistrict108491826
p225
aVhttp://dbpedia.org/class/yago/AfricanCountries
p226
aVhttp://dbpedia.org/class/yago/AfricanUnionMemberEconomies
p227
aVhttp://dbpedia.org/class/yago/Country108544813
p228
aVhttp://dbpedia.org/class/yago/District108552138
p229
aVhttp://dbpedia.org/class/yago/Economy108366753
p230
aVhttp://dbpedia.org/class/yago/Group100031264
p231
aVhttp://dbpedia.org/class/yago/Location100027167
p232
aVhttp://dbpedia.org/class/yago/Object100002684
p233
aVhttp://dbpedia.org/class/yago/Region108630985
p234
aVhttp://dbpedia.org/class/yago/System108435388
p235
aVhttp://dbpedia.org/class/yago/YagoGeoEntity
p236
aVhttp://dbpedia.org/class/yago/YagoLegalActorGeo
p237
aVhttp://dbpedia.org/class/yago/CountriesBorderingTheAtlanticOcean
p238
aVhttp://dbpedia.org/class/yago/English-speakingCountriesAndTerritories
p239
aVhttp://dbpedia.org/class/yago/PhysicalEntity100001930
p240
aVhttp://dbpedia.org/class/yago/YagoPermanentlyLocatedEntity
p241
aVhttp://dbpedia.org/class/yago/LeastDevelopedCountries
p242
aVhttp://dbpedia.org/class/yago/MemberStatesOfTheAfricanUnion
p243
aVhttp://dbpedia.org/class/yago/MemberStatesOfTheCommonwealthOfNations
p244
aVhttp://dbpedia.org/class/yago/MemberStatesOfTheOrganisationOfIslamicCooperation
p245
aVhttp://dbpedia.org/class/yago/MemberStatesOfTheUnitedNations
p246
aVhttp://dbpedia.org/class/yago/StatesAndTerritoriesEstablishedIn1961
p247
aVhttp://dbpedia.org/class/yago/WorldTradeOrganizationMemberEconomies
p248
aVhttp://dbpedia.org/resource/Sierra_Leone
tp249
aa(lp250
a(lp251
a(lp252
aa(lp253
(lp254
a(lp255
a(lp256
a(lp257
a(lp258
a(lp259
aa(lp260
(lp261
a(lp262
a(lp263
a(lp264
a(lp265
a(lp266
((lp267
Vhttp://www.w3.org/2002/07/owl#Thing
p268
aVhttp://xmlns.com/foaf/0.1/Person
p269
aVhttp://dbpedia.org/ontology/Person
p270
aVhttp://www.ontologydesignpatterns.org/ont/dul/DUL.owl#Agent
p271
aVhttp://www.ontologydesignpatterns.org/ont/dul/DUL.owl#NaturalPerson
p272
aVhttp://www.wikidata.org/entity/Q215627
p273
aVhttp://www.wikidata.org/entity/Q5
p274
aVhttp://dbpedia.org/ontology/Agent
p275
aVhttp://schema.org/Person
p276
aVhttp://dbpedia.org/class/yago/Adult109605289
p277
aVhttp://dbpedia.org/class/yago/Alumnus109786338
p278
aVhttp://dbpedia.org/class/yago/Authority109824609
p279
aVhttp://dbpedia.org/class/yago/CaliforniaStateUniversity,FresnoAlumni
p280
aVhttp://dbpedia.org/class/yago/CausalAgent100007347
p281
aVhttp://dbpedia.org/class/yago/Holder110180178
p282
aVhttp://dbpedia.org/class/yago/Intellectual109621545
p283
aVhttp://dbpedia.org/class/yago/Leader109623038
p284
aVhttp://dbpedia.org/class/yago/LivingThing100004258
p285
aVhttp://dbpedia.org/class/yago/Mayor110303814
p286
aVhttp://dbpedia.org/class/yago/Object100002684
p287
aVhttp://dbpedia.org/class/yago/Official110372373
p288
aVhttp://dbpedia.org/class/yago/Organism100004475
p289
aVhttp://dbpedia.org/class/yago/Person100007846
p290
aVhttp://dbpedia.org/class/yago/Politician110451263
p291
aVhttp://dbpedia.org/class/yago/Scholar110557854
p292
aVhttp://dbpedia.org/class/yago/SkilledWorker110605985
p293
aVhttp://dbpedia.org/class/yago/Whole100003553
p294
aVhttp://dbpedia.org/class/yago/Woman110787470
p295
aVhttp://dbpedia.org/class/yago/Worker109632518
p296
aVhttp://dbpedia.org/class/yago/YagoLegalActorGeo
p297
aVhttp://dbpedia.org/class/yago/CivilAuthority110541833
p298
aVhttp://dbpedia.org/class/yago/Female109619168
p299
aVhttp://dbpedia.org/class/yago/PhysicalEntity100001930
p300
aVhttp://dbpedia.org/class/yago/LivingPeople
p301
aVhttp://dbpedia.org/class/yago/MayorsOfFresno,California
p302
aVhttp://dbpedia.org/class/yago/Officeholder110371450
p303
aVhttp://dbpedia.org/class/yago/Owner110389398
p304
aVhttp://dbpedia.org/class/yago/YagoLegalActor
p305
aVhttp://dbpedia.org/class/yago/WomenInCaliforniaPolitics
p306
aVhttp://dbpedia.org/class/yago/WomenMayors
p307
aVhttp://dbpedia.org/resource/Ashley_Swearengin
p308
tp309
aaa.