(lp1
(lp2
(dp3
Vstart
p4
I0
sVdisambiguatedURL
p5
NsVnamedEntity
p6
V178
p7
sVoffset
p8
I3
saa(lp9
(dp10
Vstart
p11
I0
sVdisambiguatedURL
p12
NsVnamedEntity
p13
V526
p14
sVoffset
p15
I3
saa(lp16
(dp17
Vstart
p18
I0
sVdisambiguatedURL
p19
NsVnamedEntity
p20
Vr
sVoffset
p21
I3
saa(lp22
(dp23
Vstart
p24
I0
sVdisambiguatedURL
p25
NsVnamedEntity
p26
V286
p27
sVoffset
p28
I3
saa(lp29
(dp30
Vstart
p31
I0
sVdisambiguatedURL
p32
NsVnamedEntity
p33
Vr
sVoffset
p34
I3
saa(lp35
(dp36
Vstart
p37
I0
sVdisambiguatedURL
p38
NsVnamedEntity
p39
V197
p40
sVoffset
p41
I3
saa(lp42
(dp43
Vstart
p44
I0
sVdisambiguatedURL
p45
NsVnamedEntity
p46
V579
p47
sVoffset
p48
I3
saa(lp49
(dp50
Vstart
p51
I0
sVdisambiguatedURL
p52
NsVnamedEntity
p53
V385
p54
sVoffset
p55
I3
saa(lp56
(dp57
Vstart
p58
I0
sVdisambiguatedURL
p59
NsVnamedEntity
p60
V107
p61
sVoffset
p62
I3
saa(lp63
(dp64
Vstart
p65
I0
sVdisambiguatedURL
p66
NsVnamedEntity
p67
V387
p68
sVoffset
p69
I3
saa(lp70
(dp71
Vstart
p72
I0
sVdisambiguatedURL
p73
NsVnamedEntity
p74
V426
p75
sVoffset
p76
I3
saa(lp77
(dp78
Vstart
p79
I0
sVdisambiguatedURL
p80
NsVnamedEntity
p81
V310
p82
sVoffset
p83
I3
saa(lp84
(dp85
Vstart
p86
I0
sVdisambiguatedURL
p87
NsVnamedEntity
p88
V405
p89
sVoffset
p90
I3
saa(lp91
(dp92
Vstart
p93
I0
sVdisambiguatedURL
p94
NsVnamedEntity
p95
V438
p96
sVoffset
p97
I3
saa(lp98
(dp99
Vstart
p100
I0
sVdisambiguatedURL
p101
NsVnamedEntity
p102
Vr
sVoffset
p103
I3
saa(lp104
(dp105
Vstart
p106
I0
sVdisambiguatedURL
p107
NsVnamedEntity
p108
V108
p109
sVoffset
p110
I3
saa(lp111
(dp112
Vstart
p113
I0
sVdisambiguatedURL
p114
NsVnamedEntity
p115
V557
p116
sVoffset
p117
I3
saa(lp118
(dp119
Vstart
p120
I0
sVdisambiguatedURL
p121
NsVnamedEntity
p122
V395
p123
sVoffset
p124
I3
saa(lp125
(dp126
Vstart
p127
I0
sVdisambiguatedURL
p128
NsVnamedEntity
p129
Vr
sVoffset
p130
I3
saa(lp131
(dp132
Vstart
p133
I0
sVdisambiguatedURL
p134
NsVnamedEntity
p135
Vr
sVoffset
p136
I3
saa.