(lp1
(dp2
I0
(dp3
I0
(lp4
sI1
(lp5
Vhttp://dbpedia.org/ontology/wikiPageExternalLink
p6
aVhttp://www.w3.org/1999/02/22-rdf-syntax-ns#type
p7
aVhttp://purl.org/dc/terms/subject
p8
aVhttp://www.w3.org/2000/01/rdf-schema#comment
p9
aVhttp://dbpedia.org/ontology/abstract
p10
aVhttp://dbpedia.org/property/wordnet_type
p11
aVhttp://purl.org/voc/vrank#hasRank
p12
aVhttp://dbpedia.org/property/operatingIncome
p13
aVhttp://dbpedia.org/property/assets
p14
aVhttp://www.w3.org/ns/prov#wasDerivedFrom
p15
aVhttp://dbpedia.org/ontology/operatingIncome
p16
aVhttp://dbpedia.org/ontology/assets
p17
aVhttp://www.w3.org/2002/07/owl#sameAs
p18
asI2
(lp19
ssI1
(dp20
I0
g5
sI1
(lp21
sI2
(lp22
ssI2
(dp23
I0
g19
sI1
g22
sI2
(lp24
ssa(dp25
I0
(dp26
I0
(lp27
sI1
(lp28
Vhttp://purl.org/voc/vrank#hasRank
p29
aVhttp://dbpedia.org/ontology/abstract
p30
aVhttp://www.w3.org/1999/02/22-rdf-syntax-ns#type
p31
aVhttp://www.w3.org/2002/07/owl#sameAs
p32
aVhttp://www.w3.org/2000/01/rdf-schema#comment
p33
asI2
(lp34
ssI1
(dp35
I0
g28
sI1
(lp36
sI2
(lp37
ssI2
(dp38
I0
g34
sI1
g37
sI2
(lp39
ssa(dp40
I0
(dp41
I0
(lp42
sI1
(lp43
Vhttp://purl.org/voc/vrank#hasRank
p44
aVhttp://www.w3.org/1999/02/22-rdf-syntax-ns#type
p45
aVhttp://dbpedia.org/ontology/wikiPageDisambiguates
p46
aVhttp://www.w3.org/2002/07/owl#sameAs
p47
asI2
(lp48
ssI1
(dp49
I0
g43
sI1
(lp50
sI2
(lp51
ssI2
(dp52
I0
g48
sI1
g51
sI2
(lp53
ssa(dp54
I0
(dp55
I0
(lp56
sI1
(lp57
Vhttp://dbpedia.org/ontology/wikiPageExternalLink
p58
aVhttp://www.w3.org/1999/02/22-rdf-syntax-ns#type
p59
aVhttp://purl.org/dc/terms/subject
p60
aVhttp://dbpedia.org/ontology/abstract
p61
aVhttp://dbpedia.org/property/highschool
p62
aVhttp://www.w3.org/ns/prov#wasDerivedFrom
p63
aVhttp://dbpedia.org/property/prevteam
p64
asI2
(lp65
ssI1
(dp66
I0
g57
sI1
(lp67
sI2
(lp68
ssI2
(dp69
I0
g65
sI1
g68
sI2
(lp70
ssa(dp71
I0
(dp72
I0
(lp73
sI1
(lp74
Vhttp://www.w3.org/1999/02/22-rdf-syntax-ns#type
p75
asI2
(lp76
ssI1
(dp77
I0
g74
sI1
(lp78
sI2
(lp79
ssI2
(dp80
I0
g76
sI1
g79
sI2
(lp81
ssa.