(lp1
(dp2
I0
(dp3
I0
(lp4
sI1
(lp5
Vhttp://dbpedia.org/property/icao
p6
aVhttp://dbpedia.org/property/website
p7
aVhttp://dbpedia.org/ontology/iataLocationIdentifier
p8
aVhttp://dbpedia.org/property/name
p9
aVhttp://www.w3.org/ns/prov#wasDerivedFrom
p10
aVhttp://dbpedia.org/property/iata
p11
aVhttp://dbpedia.org/ontology/icaoLocationIdentifier
p12
aVhttp://www.w3.org/1999/02/22-rdf-syntax-ns#type
p13
aVhttp://dbpedia.org/property/pushpinLabel
p14
aVhttp://dbpedia.org/property/image
p15
aVhttp://xmlns.com/foaf/0.1/isPrimaryTopicOf
p16
aVhttp://dbpedia.org/ontology/wikiPageDisambiguates
p17
aVhttp://dbpedia.org/ontology/wikiPageExternalLink
p18
aVhttp://xmlns.com/foaf/0.1/primaryTopic
p19
aVhttp://xmlns.com/foaf/0.1/depiction
p20
aVhttp://purl.org/dc/terms/subject
p21
aVhttp://dbpedia.org/ontology/abstract
p22
aVhttp://dbpedia.org/property/pushpinMap
p23
aVhttp://dbpedia.org/property/cityServed
p24
aVhttp://dbpedia.org/ontology/thumbnail
p25
aVhttp://dbpedia.org/ontology/city
p26
aVhttp://dbpedia.org/property/hasPhotoCollection
p27
aVhttp://www.w3.org/2000/01/rdf-schema#label
p28
aVhttp://dbpedia.org/property/pushpinMapCaption
p29
aVhttp://dbpedia.org/property/faa
p30
aVhttp://www.w3.org/2000/01/rdf-schema#comment
p31
aVhttp://dbpedia.org/ontology/wikiPageRedirects
p32
aVhttp://dbpedia.org/ontology/faaLocationIdentifier
p33
aVhttp://xmlns.com/foaf/0.1/name
p34
aVhttp://xmlns.com/foaf/0.1/homepage
p35
aVhttp://www.w3.org/2002/07/owl#sameAs
p36
asI2
(lp37
sI3
(lp38
ssI1
(dp39
I0
g5
sI1
(lp40
sI2
(lp41
Vhttp://dbpedia.org/property/pushpinMapCaption
p42
aVhttp://xmlns.com/foaf/0.1/primaryTopic
p43
aVhttp://www.w3.org/1999/02/22-rdf-syntax-ns#type
p44
aVhttp://purl.org/dc/terms/subject
p45
aVhttp://www.w3.org/2000/01/rdf-schema#comment
p46
aVhttp://dbpedia.org/ontology/abstract
p47
aVhttp://dbpedia.org/property/pushpinMap
p48
aVhttp://dbpedia.org/property/name
p49
aVhttp://dbpedia.org/ontology/wikiPageRedirects
p50
aVhttp://dbpedia.org/property/cityServed
p51
aVhttp://xmlns.com/foaf/0.1/name
p52
aVhttp://xmlns.com/foaf/0.1/isPrimaryTopicOf
p53
aVhttp://www.w3.org/ns/prov#wasDerivedFrom
p54
aVhttp://dbpedia.org/ontology/city
p55
aVhttp://dbpedia.org/property/hasPhotoCollection
p56
aVhttp://www.w3.org/2000/01/rdf-schema#label
p57
aVhttp://www.w3.org/2002/07/owl#sameAs
p58
asI3
(lp59
Vhttp://dbpedia.org/ontology/wikiPageExternalLink
p60
aVhttp://dbpedia.org/property/website
p61
aVhttp://dbpedia.org/property/coordinatesRegion
p62
aVhttp://www.w3.org/2000/01/rdf-schema#comment
p63
aVhttp://dbpedia.org/ontology/abstract
p64
aVhttp://xmlns.com/foaf/0.1/homepage
p65
assI2
(dp66
I0
g37
sI1
g41
sI2
(lp67
sI3
(lp68
ssI3
(dp69
I0
g38
sI1
g59
sI2
g68
sI3
(lp70
ssa(dp71
I0
(dp72
I0
(lp73
sI1
(lp74
Vhttp://dbpedia.org/property/website
p75
aVhttp://dbpedia.org/ontology/iataLocationIdentifier
p76
aVhttp://dbpedia.org/property/name
p77
aVhttp://www.w3.org/ns/prov#wasDerivedFrom
p78
aVhttp://dbpedia.org/property/iata
p79
aVhttp://www.w3.org/1999/02/22-rdf-syntax-ns#type
p80
aVhttp://dbpedia.org/property/pushpinLabel
p81
aVhttp://dbpedia.org/property/image
p82
aVhttp://xmlns.com/foaf/0.1/isPrimaryTopicOf
p83
aVhttp://dbpedia.org/ontology/wikiPageDisambiguates
p84
aVhttp://dbpedia.org/ontology/wikiPageExternalLink
p85
aVhttp://xmlns.com/foaf/0.1/primaryTopic
p86
aVhttp://purl.org/dc/terms/subject
p87
aVhttp://dbpedia.org/ontology/abstract
p88
aVhttp://xmlns.com/foaf/0.1/depiction
p89
aVhttp://dbpedia.org/property/location
p90
aVhttp://dbpedia.org/property/cityServed
p91
aVhttp://dbpedia.org/ontology/thumbnail
p92
aVhttp://dbpedia.org/ontology/city
p93
aVhttp://dbpedia.org/property/hasPhotoCollection
p94
aVhttp://www.w3.org/2000/01/rdf-schema#label
p95
aVhttp://dbpedia.org/property/faa
p96
aVhttp://www.w3.org/2000/01/rdf-schema#comment
p97
aVhttp://dbpedia.org/ontology/wikiPageRedirects
p98
aVhttp://dbpedia.org/ontology/faaLocationIdentifier
p99
aVhttp://xmlns.com/foaf/0.1/name
p100
aVhttp://xmlns.com/foaf/0.1/homepage
p101
aVhttp://www.w3.org/2002/07/owl#sameAs
p102
asI2
(lp103
sI3
(lp104
ssI1
(dp105
I0
g74
sI1
(lp106
sI2
(lp107
Vhttp://xmlns.com/foaf/0.1/primaryTopic
p108
aVhttp://www.w3.org/1999/02/22-rdf-syntax-ns#type
p109
aVhttp://purl.org/dc/terms/subject
p110
aVhttp://xmlns.com/foaf/0.1/name
p111
aVhttp://www.w3.org/2000/01/rdf-schema#comment
p112
aVhttp://dbpedia.org/ontology/abstract
p113
aVhttp://dbpedia.org/ontology/wikiPageRedirects
p114
aVhttp://dbpedia.org/property/name
p115
aVhttp://dbpedia.org/property/cityServed
p116
aVhttp://dbpedia.org/property/location
p117
aVhttp://xmlns.com/foaf/0.1/isPrimaryTopicOf
p118
aVhttp://www.w3.org/ns/prov#wasDerivedFrom
p119
aVhttp://dbpedia.org/ontology/city
p120
aVhttp://dbpedia.org/property/hasPhotoCollection
p121
aVhttp://www.w3.org/2000/01/rdf-schema#label
p122
aVhttp://www.w3.org/2002/07/owl#sameAs
p123
asI3
(lp124
Vhttp://dbpedia.org/ontology/wikiPageExternalLink
p125
aVhttp://dbpedia.org/property/coordinatesRegion
p126
assI2
(dp127
I0
g103
sI1
g107
sI2
(lp128
sI3
(lp129
ssI3
(dp130
I0
g104
sI1
g124
sI2
g129
sI3
(lp131
ssa(dp132
I0
(dp133
I0
(lp134
sI1
(lp135
Vhttp://dbpedia.org/ontology/wikiPageExternalLink
p136
aVhttp://dbpedia.org/property/faa
p137
aVhttp://www.w3.org/2000/01/rdf-schema#comment
p138
aVhttp://dbpedia.org/ontology/iataLocationIdentifier
p139
aVhttp://dbpedia.org/ontology/abstract
p140
aVhttp://xmlns.com/foaf/0.1/depiction
p141
aVhttp://dbpedia.org/property/pushpinLabel
p142
aVhttp://dbpedia.org/ontology/faaLocationIdentifier
p143
aVhttp://dbpedia.org/ontology/thumbnail
p144
aVhttp://dbpedia.org/property/iata
p145
asI2
(lp146
sI3
(lp147
ssI1
(dp148
I0
g135
sI1
(lp149
sI2
(lp150
Vhttp://dbpedia.org/ontology/wikiPageExternalLink
p151
aVhttp://dbpedia.org/property/website
p152
aVhttp://xmlns.com/foaf/0.1/primaryTopic
p153
aVhttp://purl.org/dc/terms/subject
p154
aVhttp://xmlns.com/foaf/0.1/name
p155
aVhttp://www.w3.org/2000/01/rdf-schema#comment
p156
aVhttp://dbpedia.org/ontology/abstract
p157
aVhttp://dbpedia.org/ontology/wikiPageRedirects
p158
aVhttp://dbpedia.org/property/name
p159
aVhttp://dbpedia.org/property/cityServed
p160
aVhttp://www.w3.org/ns/prov#wasDerivedFrom
p161
aVhttp://xmlns.com/foaf/0.1/isPrimaryTopicOf
p162
aVhttp://xmlns.com/foaf/0.1/homepage
p163
aVhttp://dbpedia.org/property/owner
p164
aVhttp://dbpedia.org/ontology/city
p165
aVhttp://dbpedia.org/property/hasPhotoCollection
p166
aVhttp://www.w3.org/2000/01/rdf-schema#label
p167
aVhttp://www.w3.org/2002/07/owl#sameAs
p168
asI3
(lp169
Vhttp://dbpedia.org/property/coordinatesRegion
p170
assI2
(dp171
I0
g146
sI1
g150
sI2
(lp172
sI3
(lp173
ssI3
(dp174
I0
g147
sI1
g169
sI2
g173
sI3
(lp175
ssa(dp176
I0
(dp177
I0
(lp178
sI1
(lp179
sI2
(lp180
sI3
(lp181
ssI1
(dp182
I0
g179
sI1
(lp183
sI2
(lp184
Vhttp://xmlns.com/foaf/0.1/primaryTopic
p185
aVhttp://dbpedia.org/ontology/wikiPageRedirects
p186
aVhttp://xmlns.com/foaf/0.1/isPrimaryTopicOf
p187
aVhttp://www.w3.org/ns/prov#wasDerivedFrom
p188
aVhttp://dbpedia.org/property/hasPhotoCollection
p189
aVhttp://www.w3.org/2000/01/rdf-schema#label
p190
aVhttp://www.w3.org/2002/07/owl#sameAs
p191
asI3
(lp192
Vhttp://xmlns.com/foaf/0.1/primaryTopic
p193
aVhttp://dbpedia.org/ontology/wikiPageRedirects
p194
aVhttp://xmlns.com/foaf/0.1/isPrimaryTopicOf
p195
aVhttp://www.w3.org/ns/prov#wasDerivedFrom
p196
aVhttp://dbpedia.org/property/hasPhotoCollection
p197
aVhttp://www.w3.org/2000/01/rdf-schema#label
p198
aVhttp://www.w3.org/2002/07/owl#sameAs
p199
assI2
(dp200
I0
g180
sI1
g184
sI2
(lp201
sI3
(lp202
ssI3
(dp203
I0
g181
sI1
g192
sI2
g202
sI3
(lp204
ssa(dp205
I0
(dp206
I0
(lp207
sI1
(lp208
Vhttp://dbpedia.org/property/icao
p209
aVhttp://dbpedia.org/property/faa
p210
aVhttp://www.w3.org/2000/01/rdf-schema#comment
p211
aVhttp://dbpedia.org/ontology/iataLocationIdentifier
p212
aVhttp://dbpedia.org/ontology/abstract
p213
aVhttp://dbpedia.org/property/pushpinLabel
p214
aVhttp://dbpedia.org/ontology/wikiPageRedirects
p215
aVhttp://dbpedia.org/ontology/faaLocationIdentifier
p216
aVhttp://dbpedia.org/property/iata
p217
aVhttp://dbpedia.org/ontology/icaoLocationIdentifier
p218
asI2
(lp219
sI3
(lp220
ssI1
(dp221
I0
g208
sI1
(lp222
sI2
(lp223
Vhttp://dbpedia.org/ontology/wikiPageExternalLink
p224
aVhttp://dbpedia.org/property/website
p225
aVhttp://xmlns.com/foaf/0.1/primaryTopic
p226
aVhttp://purl.org/dc/terms/subject
p227
aVhttp://xmlns.com/foaf/0.1/name
p228
aVhttp://www.w3.org/2000/01/rdf-schema#comment
p229
aVhttp://dbpedia.org/ontology/abstract
p230
aVhttp://xmlns.com/foaf/0.1/depiction
p231
aVhttp://dbpedia.org/ontology/wikiPageRedirects
p232
aVhttp://dbpedia.org/property/name
p233
aVhttp://dbpedia.org/property/cityServed
p234
aVhttp://www.w3.org/ns/prov#wasDerivedFrom
p235
aVhttp://dbpedia.org/property/image
p236
aVhttp://xmlns.com/foaf/0.1/isPrimaryTopicOf
p237
aVhttp://xmlns.com/foaf/0.1/homepage
p238
aVhttp://dbpedia.org/property/owner
p239
aVhttp://dbpedia.org/ontology/city
p240
aVhttp://dbpedia.org/property/hasPhotoCollection
p241
aVhttp://www.w3.org/2000/01/rdf-schema#label
p242
aVhttp://www.w3.org/2002/07/owl#sameAs
p243
aVhttp://dbpedia.org/ontology/thumbnail
p244
asI3
(lp245
Vhttp://dbpedia.org/property/coordinatesRegion
p246
aVhttp://dbpedia.org/property/r1Surface
p247
aVhttp://www.w3.org/ns/prov#wasDerivedFrom
p248
aVhttp://purl.org/dc/terms/subject
p249
aVhttp://www.w3.org/1999/02/22-rdf-syntax-ns#type
p250
aVhttp://dbpedia.org/property/footnotes
p251
aVhttp://dbpedia.org/property/image
p252
aVhttp://xmlns.com/foaf/0.1/isPrimaryTopicOf
p253
aVhttp://xmlns.com/foaf/0.1/primaryTopic
p254
aVhttp://xmlns.com/foaf/0.1/depiction
p255
aVhttp://dbpedia.org/property/r2Surface
p256
aVhttp://dbpedia.org/ontology/abstract
p257
aVhttp://dbpedia.org/property/pushpinMap
p258
aVhttp://dbpedia.org/ontology/runwaySurface
p259
aVhttp://dbpedia.org/ontology/thumbnail
p260
aVhttp://dbpedia.org/ontology/city
p261
aVhttp://dbpedia.org/property/hasPhotoCollection
p262
aVhttp://www.w3.org/2000/01/rdf-schema#label
p263
aVhttp://dbpedia.org/property/pushpinMapCaption
p264
aVhttp://dbpedia.org/property/cityServed
p265
aVhttp://www.w3.org/2000/01/rdf-schema#comment
p266
aVhttp://dbpedia.org/property/name
p267
aVhttp://xmlns.com/foaf/0.1/name
p268
aVhttp://www.w3.org/2002/07/owl#sameAs
p269
assI2
(dp270
I0
g219
sI1
g223
sI2
(lp271
sI3
(lp272
ssI3
(dp273
I0
g220
sI1
g245
sI2
g272
sI3
(lp274
ssa(dp275
I0
(dp276
I0
(lp277
sI1
(lp278
Vhttp://dbpedia.org/ontology/wikiPageExternalLink
p279
aVhttp://dbpedia.org/property/icao
p280
aVhttp://dbpedia.org/property/faa
p281
aVhttp://dbpedia.org/property/website
p282
aVhttp://www.w3.org/2000/01/rdf-schema#comment
p283
aVhttp://dbpedia.org/ontology/iataLocationIdentifier
p284
aVhttp://dbpedia.org/ontology/abstract
p285
aVhttp://dbpedia.org/property/pushpinLabel
p286
aVhttp://dbpedia.org/ontology/faaLocationIdentifier
p287
aVhttp://xmlns.com/foaf/0.1/homepage
p288
aVhttp://dbpedia.org/property/iata
p289
aVhttp://dbpedia.org/ontology/icaoLocationIdentifier
p290
asI2
(lp291
sI3
(lp292
ssI1
(dp293
I0
g278
sI1
(lp294
sI2
(lp295
Vhttp://dbpedia.org/ontology/wikiPageExternalLink
p296
aVhttp://dbpedia.org/ontology/city
p297
aVhttp://dbpedia.org/ontology/abstract
p298
aVhttp://dbpedia.org/property/cityServed
p299
aVhttp://www.w3.org/2000/01/rdf-schema#comment
p300
asI3
(lp301
Vhttp://dbpedia.org/property/coordinatesRegion
p302
aVhttp://dbpedia.org/property/name
p303
aVhttp://www.w3.org/ns/prov#wasDerivedFrom
p304
aVhttp://www.w3.org/1999/02/22-rdf-syntax-ns#type
p305
aVhttp://xmlns.com/foaf/0.1/isPrimaryTopicOf
p306
aVhttp://dbpedia.org/property/owner
p307
aVhttp://dbpedia.org/ontology/wikiPageExternalLink
p308
aVhttp://xmlns.com/foaf/0.1/primaryTopic
p309
aVhttp://purl.org/dc/terms/subject
p310
aVhttp://dbpedia.org/ontology/abstract
p311
aVhttp://dbpedia.org/property/pushpinMap
p312
aVhttp://dbpedia.org/property/location
p313
aVhttp://dbpedia.org/property/cityServed
p314
aVhttp://dbpedia.org/ontology/city
p315
aVhttp://dbpedia.org/property/hasPhotoCollection
p316
aVhttp://www.w3.org/2000/01/rdf-schema#label
p317
aVhttp://dbpedia.org/property/pushpinMapCaption
p318
aVhttp://dbpedia.org/ontology/location
p319
aVhttp://www.w3.org/2000/01/rdf-schema#comment
p320
aVhttp://dbpedia.org/ontology/wikiPageRedirects
p321
aVhttp://xmlns.com/foaf/0.1/name
p322
aVhttp://www.w3.org/2002/07/owl#sameAs
p323
assI2
(dp324
I0
g291
sI1
g295
sI2
(lp325
sI3
(lp326
Vhttp://dbpedia.org/property/origin
p327
aVhttp://www.w3.org/1999/02/22-rdf-syntax-ns#type
p328
aVhttp://dbpedia.org/ontology/location
p329
aVhttp://www.w3.org/2000/01/rdf-schema#comment
p330
aVhttp://dbpedia.org/ontology/abstract
p331
aVhttp://xmlns.com/foaf/0.1/depiction
p332
aVhttp://dbpedia.org/ontology/hometown
p333
aVhttp://dbpedia.org/property/birthPlace
p334
aVhttp://dbpedia.org/property/imageMap
p335
aVhttp://dbpedia.org/ontology/thumbnail
p336
aVhttp://dbpedia.org/ontology/birthPlace
p337
aVhttp://dbpedia.org/property/blankName
p338
assI3
(dp339
I0
g292
sI1
g301
sI2
g326
sI3
(lp340
ssa(dp341
I0
(dp342
I0
(lp343
sI1
(lp344
Vhttp://dbpedia.org/property/icao
p345
aVhttp://dbpedia.org/property/website
p346
aVhttp://dbpedia.org/ontology/iataLocationIdentifier
p347
aVhttp://dbpedia.org/property/iata
p348
aVhttp://dbpedia.org/ontology/icaoLocationIdentifier
p349
aVhttp://dbpedia.org/property/pushpinLabel
p350
aVhttp://dbpedia.org/property/operator
p351
aVhttp://dbpedia.org/property/image
p352
aVhttp://dbpedia.org/property/owner
p353
aVhttp://dbpedia.org/ontology/wikiPageExternalLink
p354
aVhttp://purl.org/dc/terms/subject
p355
aVhttp://dbpedia.org/ontology/abstract
p356
aVhttp://xmlns.com/foaf/0.1/depiction
p357
aVhttp://dbpedia.org/ontology/thumbnail
p358
aVhttp://www.w3.org/2000/01/rdf-schema#label
p359
aVhttp://dbpedia.org/property/faa
p360
aVhttp://www.w3.org/2000/01/rdf-schema#comment
p361
aVhttp://dbpedia.org/ontology/wikiPageRedirects
p362
aVhttp://dbpedia.org/ontology/faaLocationIdentifier
p363
aVhttp://dbpedia.org/property/url
p364
aVhttp://xmlns.com/foaf/0.1/homepage
p365
aVhttp://www.w3.org/2002/07/owl#sameAs
p366
asI2
(lp367
sI3
(lp368
ssI1
(dp369
I0
g344
sI1
(lp370
sI2
(lp371
Vhttp://www.w3.org/2000/01/rdf-schema#comment
p372
aVhttp://dbpedia.org/ontology/abstract
p373
aVhttp://dbpedia.org/property/operator
p374
aVhttp://dbpedia.org/property/image
p375
aVhttp://dbpedia.org/property/owner
p376
aVhttp://www.w3.org/2000/01/rdf-schema#label
p377
asI3
(lp378
Vhttp://dbpedia.org/ontology/wikiPageExternalLink
p379
aVhttp://dbpedia.org/property/pushpinMapCaption
p380
aVhttp://www.w3.org/1999/02/22-rdf-syntax-ns#type
p381
aVhttp://purl.org/dc/terms/subject
p382
aVhttp://www.w3.org/2000/01/rdf-schema#comment
p383
aVhttp://dbpedia.org/ontology/abstract
p384
aVhttp://xmlns.com/foaf/0.1/depiction
p385
aVhttp://dbpedia.org/property/name
p386
aVhttp://dbpedia.org/ontology/wikiPageRedirects
p387
aVhttp://xmlns.com/foaf/0.1/name
p388
aVhttp://dbpedia.org/property/image
p389
aVhttp://dbpedia.org/ontology/thumbnail
p390
aVhttp://dbpedia.org/property/pushpinMap
p391
aVhttp://dbpedia.org/property/url
p392
aVhttp://dbpedia.org/property/coordinatesRegion
p393
aVhttp://www.w3.org/2000/01/rdf-schema#seeAlso
p394
aVhttp://www.w3.org/2000/01/rdf-schema#label
p395
aVhttp://dbpedia.org/property/blank2Info
p396
aVhttp://www.w3.org/2002/07/owl#sameAs
p397
assI2
(dp398
I0
g367
sI1
g371
sI2
(lp399
sI3
(lp400
ssI3
(dp401
I0
g368
sI1
g378
sI2
g400
sI3
(lp402
ssa(dp403
I0
(dp404
I0
(lp405
sI1
(lp406
Vhttp://dbpedia.org/ontology/wikiPageExternalLink
p407
aVhttp://dbpedia.org/property/icao
p408
aVhttp://dbpedia.org/property/faa
p409
aVhttp://www.w3.org/2000/01/rdf-schema#comment
p410
aVhttp://dbpedia.org/ontology/iataLocationIdentifier
p411
aVhttp://dbpedia.org/ontology/abstract
p412
aVhttp://dbpedia.org/ontology/faaLocationIdentifier
p413
aVhttp://dbpedia.org/property/iata
p414
aVhttp://dbpedia.org/ontology/wikiPageDisambiguates
p415
aVhttp://dbpedia.org/ontology/icaoLocationIdentifier
p416
asI2
(lp417
sI3
(lp418
ssI1
(dp419
I0
g406
sI1
(lp420
sI2
(lp421
Vhttp://xmlns.com/foaf/0.1/name
p422
aVhttp://dbpedia.org/ontology/abstract
p423
aVhttp://www.w3.org/2000/01/rdf-schema#label
p424
aVhttp://dbpedia.org/property/name
p425
aVhttp://www.w3.org/2000/01/rdf-schema#comment
p426
asI3
(lp427
Vhttp://dbpedia.org/ontology/wikiPageExternalLink
p428
aVhttp://xmlns.com/foaf/0.1/homepage
p429
aVhttp://dbpedia.org/property/website
p430
assI2
(dp431
I0
g417
sI1
g421
sI2
(lp432
sI3
(lp433
Vhttp://dbpedia.org/ontology/abstract
p434
aVhttp://www.w3.org/2000/01/rdf-schema#comment
p435
aVhttp://dbpedia.org/ontology/wikiPageRedirects
p436
aVhttp://dbpedia.org/property/region
p437
assI3
(dp438
I0
g418
sI1
g427
sI2
g433
sI3
(lp439
ssa(dp440
I0
(dp441
I0
(lp442
sI1
(lp443
Vhttp://dbpedia.org/ontology/wikiPageExternalLink
p444
aVhttp://dbpedia.org/property/icao
p445
aVhttp://dbpedia.org/property/imageMap
p446
aVhttp://dbpedia.org/ontology/location
p447
aVhttp://www.w3.org/2000/01/rdf-schema#comment
p448
aVhttp://dbpedia.org/ontology/iataLocationIdentifier
p449
aVhttp://dbpedia.org/ontology/abstract
p450
aVhttp://dbpedia.org/property/pushpinLabel
p451
aVhttp://dbpedia.org/ontology/wikiPageRedirects
p452
aVhttp://dbpedia.org/ontology/faaLocationIdentifier
p453
aVhttp://dbpedia.org/property/faa
p454
aVhttp://dbpedia.org/property/iata
p455
aVhttp://dbpedia.org/ontology/icaoLocationIdentifier
p456
asI2
(lp457
sI3
(lp458
ssI1
(dp459
I0
g443
sI1
(lp460
sI2
(lp461
Vhttp://dbpedia.org/ontology/wikiPageExternalLink
p462
aVhttp://dbpedia.org/property/cityServed
p463
aVhttp://xmlns.com/foaf/0.1/primaryTopic
p464
aVhttp://purl.org/dc/terms/subject
p465
aVhttp://dbpedia.org/ontology/location
p466
aVhttp://www.w3.org/2000/01/rdf-schema#comment
p467
aVhttp://xmlns.com/foaf/0.1/name
p468
aVhttp://dbpedia.org/ontology/abstract
p469
aVhttp://dbpedia.org/ontology/wikiPageRedirects
p470
aVhttp://dbpedia.org/property/name
p471
aVhttp://dbpedia.org/property/operator
p472
aVhttp://dbpedia.org/property/location
p473
aVhttp://xmlns.com/foaf/0.1/isPrimaryTopicOf
p474
aVhttp://www.w3.org/ns/prov#wasDerivedFrom
p475
aVhttp://dbpedia.org/ontology/city
p476
aVhttp://dbpedia.org/property/hasPhotoCollection
p477
aVhttp://www.w3.org/2000/01/rdf-schema#label
p478
aVhttp://dbpedia.org/property/owner
p479
aVhttp://www.w3.org/2002/07/owl#sameAs
p480
asI3
(lp481
Vhttp://dbpedia.org/ontology/wikiPageExternalLink
p482
aVhttp://dbpedia.org/property/coordinatesRegion
p483
aVhttp://www.w3.org/2000/01/rdf-schema#comment
p484
aVhttp://dbpedia.org/ontology/abstract
p485
aVhttp://www.w3.org/2000/01/rdf-schema#label
p486
aVhttp://www.w3.org/2002/07/owl#sameAs
p487
assI2
(dp488
I0
g457
sI1
g461
sI2
(lp489
sI3
(lp490
ssI3
(dp491
I0
g458
sI1
g481
sI2
g490
sI3
(lp492
ssa(dp493
I0
(dp494
I0
(lp495
sI1
(lp496
Vhttp://dbpedia.org/ontology/wikiPageExternalLink
p497
aVhttp://dbpedia.org/property/icao
p498
aVhttp://dbpedia.org/property/imageMap
p499
aVhttp://www.w3.org/2000/01/rdf-schema#comment
p500
aVhttp://dbpedia.org/ontology/iataLocationIdentifier
p501
aVhttp://dbpedia.org/ontology/abstract
p502
aVhttp://dbpedia.org/property/pushpinLabel
p503
aVhttp://dbpedia.org/ontology/wikiPageRedirects
p504
aVhttp://dbpedia.org/ontology/faaLocationIdentifier
p505
aVhttp://dbpedia.org/property/faa
p506
aVhttp://dbpedia.org/property/iata
p507
aVhttp://dbpedia.org/ontology/icaoLocationIdentifier
p508
asI2
(lp509
sI3
(lp510
ssI1
(dp511
I0
g496
sI1
(lp512
sI2
(lp513
Vhttp://dbpedia.org/property/website
p514
aVhttp://dbpedia.org/property/name
p515
aVhttp://www.w3.org/ns/prov#wasDerivedFrom
p516
aVhttp://dbpedia.org/property/footnotes
p517
aVhttp://dbpedia.org/property/operator
p518
aVhttp://dbpedia.org/property/image
p519
aVhttp://xmlns.com/foaf/0.1/isPrimaryTopicOf
p520
aVhttp://dbpedia.org/property/owner
p521
aVhttp://dbpedia.org/ontology/wikiPageExternalLink
p522
aVhttp://xmlns.com/foaf/0.1/primaryTopic
p523
aVhttp://purl.org/dc/terms/subject
p524
aVhttp://dbpedia.org/ontology/abstract
p525
aVhttp://xmlns.com/foaf/0.1/depiction
p526
aVhttp://dbpedia.org/property/cityServed
p527
aVhttp://dbpedia.org/ontology/thumbnail
p528
aVhttp://dbpedia.org/ontology/operator
p529
aVhttp://dbpedia.org/ontology/city
p530
aVhttp://dbpedia.org/property/hasPhotoCollection
p531
aVhttp://www.w3.org/2000/01/rdf-schema#label
p532
aVhttp://www.w3.org/2000/01/rdf-schema#comment
p533
aVhttp://dbpedia.org/ontology/wikiPageRedirects
p534
aVhttp://xmlns.com/foaf/0.1/name
p535
aVhttp://xmlns.com/foaf/0.1/homepage
p536
aVhttp://www.w3.org/2002/07/owl#sameAs
p537
asI3
(lp538
Vhttp://dbpedia.org/ontology/wikiPageExternalLink
p539
aVhttp://dbpedia.org/property/coordinatesRegion
p540
aVhttp://www.w3.org/2000/01/rdf-schema#comment
p541
aVhttp://dbpedia.org/ontology/abstract
p542
aVhttp://www.w3.org/2000/01/rdf-schema#label
p543
aVhttp://www.w3.org/2002/07/owl#sameAs
p544
assI2
(dp545
I0
g509
sI1
g513
sI2
(lp546
sI3
(lp547
ssI3
(dp548
I0
g510
sI1
g538
sI2
g547
sI3
(lp549
ssa(dp550
I0
(dp551
I0
(lp552
sI1
(lp553
sI2
(lp554
sI3
(lp555
ssI1
(dp556
I0
g553
sI1
(lp557
sI2
(lp558
sI3
(lp559
ssI2
(dp560
I0
g554
sI1
g558
sI2
(lp561
sI3
(lp562
ssI3
(dp563
I0
g555
sI1
g559
sI2
g562
sI3
(lp564
ssa(dp565
I0
(dp566
I0
(lp567
sI1
(lp568
sI2
(lp569
sI3
(lp570
ssI1
(dp571
I0
g568
sI1
(lp572
sI2
(lp573
sI3
(lp574
ssI2
(dp575
I0
g569
sI1
g573
sI2
(lp576
sI3
(lp577
ssI3
(dp578
I0
g570
sI1
g574
sI2
g577
sI3
(lp579
ssa(dp580
I0
(dp581
I0
(lp582
sI1
(lp583
Vhttp://dbpedia.org/ontology/wikiPageExternalLink
p584
aVhttp://dbpedia.org/property/icao
p585
aVhttp://dbpedia.org/property/faa
p586
aVhttp://dbpedia.org/property/website
p587
aVhttp://www.w3.org/2000/01/rdf-schema#comment
p588
aVhttp://dbpedia.org/ontology/iataLocationIdentifier
p589
aVhttp://dbpedia.org/ontology/abstract
p590
aVhttp://dbpedia.org/property/pushpinLabel
p591
aVhttp://dbpedia.org/ontology/faaLocationIdentifier
p592
aVhttp://xmlns.com/foaf/0.1/homepage
p593
aVhttp://dbpedia.org/property/iata
p594
aVhttp://dbpedia.org/ontology/icaoLocationIdentifier
p595
asI2
(lp596
sI3
(lp597
ssI1
(dp598
I0
g583
sI1
(lp599
sI2
(lp600
Vhttp://dbpedia.org/property/pushpinMapCaption
p601
aVhttp://www.w3.org/2000/01/rdf-schema#comment
p602
aVhttp://dbpedia.org/ontology/abstract
p603
aVhttp://dbpedia.org/property/pushpinMap
p604
aVhttp://dbpedia.org/property/name
p605
aVhttp://xmlns.com/foaf/0.1/name
p606
aVhttp://dbpedia.org/property/owner
p607
aVhttp://www.w3.org/2000/01/rdf-schema#label
p608
asI3
(lp609
Vhttp://dbpedia.org/property/pushpinMapCaption
p610
aVhttp://www.w3.org/1999/02/22-rdf-syntax-ns#type
p611
aVhttp://dbpedia.org/property/coordinatesRegion
p612
aVhttp://dbpedia.org/ontology/location
p613
aVhttp://www.w3.org/2000/01/rdf-schema#comment
p614
aVhttp://dbpedia.org/property/hubs
p615
aVhttp://dbpedia.org/ontology/abstract
p616
aVhttp://dbpedia.org/property/location
p617
aVhttp://dbpedia.org/ontology/wikiPageRedirects
p618
aVhttp://dbpedia.org/property/plane2Origin
p619
aVhttp://purl.org/dc/terms/subject
p620
assI2
(dp621
I0
g596
sI1
g600
sI2
(lp622
sI3
(lp623
ssI3
(dp624
I0
g597
sI1
g609
sI2
g623
sI3
(lp625
ssa(dp626
I0
(dp627
I0
(lp628
sI1
(lp629
Vhttp://dbpedia.org/ontology/wikiPageExternalLink
p630
aVhttp://dbpedia.org/property/icao
p631
aVhttp://dbpedia.org/property/imageMap
p632
aVhttp://dbpedia.org/property/website
p633
aVhttp://www.w3.org/2000/01/rdf-schema#comment
p634
aVhttp://dbpedia.org/ontology/iataLocationIdentifier
p635
aVhttp://dbpedia.org/ontology/abstract
p636
aVhttp://dbpedia.org/property/pushpinLabel
p637
aVhttp://dbpedia.org/ontology/wikiPageRedirects
p638
aVhttp://dbpedia.org/ontology/faaLocationIdentifier
p639
aVhttp://dbpedia.org/property/faa
p640
aVhttp://dbpedia.org/property/centre
p641
aVhttp://xmlns.com/foaf/0.1/homepage
p642
aVhttp://dbpedia.org/property/iata
p643
aVhttp://dbpedia.org/ontology/wikiPageDisambiguates
p644
aVhttp://dbpedia.org/ontology/icaoLocationIdentifier
p645
asI2
(lp646
Vhttp://dbpedia.org/ontology/location
p647
aVhttp://dbpedia.org/ontology/recordedIn
p648
aVhttp://dbpedia.org/ontology/deathPlace
p649
aVhttp://dbpedia.org/ontology/wikiPageRedirects
p650
aVhttp://dbpedia.org/property/location
p651
asI3
(lp652
ssI1
(dp653
I0
g629
sI1
(lp654
sI2
(lp655
Vhttp://dbpedia.org/property/pushpinMapCaption
p656
aVhttp://www.w3.org/2000/01/rdf-schema#comment
p657
aVhttp://dbpedia.org/ontology/abstract
p658
aVhttp://dbpedia.org/property/pushpinMap
p659
aVhttp://dbpedia.org/property/location
p660
aVhttp://dbpedia.org/property/name
p661
aVhttp://xmlns.com/foaf/0.1/name
p662
aVhttp://dbpedia.org/property/image
p663
aVhttp://dbpedia.org/property/centre
p664
aVhttp://dbpedia.org/property/owner
p665
aVhttp://www.w3.org/2000/01/rdf-schema#label
p666
asI3
(lp667
Vhttp://dbpedia.org/property/pushpinMapCaption
p668
aVhttp://dbpedia.org/ontology/targetAirport
p669
aVhttp://www.w3.org/1999/02/22-rdf-syntax-ns#type
p670
aVhttp://dbpedia.org/property/coordinatesRegion
p671
aVhttp://dbpedia.org/property/origin
p672
aVhttp://www.w3.org/2000/01/rdf-schema#comment
p673
aVhttp://dbpedia.org/property/south
p674
aVhttp://dbpedia.org/property/southeast
p675
aVhttp://dbpedia.org/ontology/abstract
p676
aVhttp://dbpedia.org/property/location
p677
aVhttp://dbpedia.org/property/area
p678
aVhttp://dbpedia.org/property/destination
p679
aVhttp://dbpedia.org/ontology/wikiPageRedirects
p680
aVhttp://dbpedia.org/property/east
p681
aVhttp://purl.org/dc/terms/subject
p682
aVhttp://dbpedia.org/ontology/routeJunction
p683
aVhttp://dbpedia.org/property/northeast
p684
aVhttp://dbpedia.org/ontology/hubAirport
p685
aVhttp://dbpedia.org/property/focusCities
p686
aVhttp://dbpedia.org/property/plane1Origin
p687
assI2
(dp688
I0
g646
sI1
g655
sI2
(lp689
sI3
(lp690
Vhttp://dbpedia.org/property/origin
p691
aVhttp://dbpedia.org/property/placeOfDeath
p692
aVhttp://dbpedia.org/property/coordinatesRegion
p693
aVhttp://dbpedia.org/property/city
p694
aVhttp://dbpedia.org/property/homeTown
p695
aVhttp://dbpedia.org/ontology/type
p696
aVhttp://dbpedia.org/ontology/regionServed
p697
aVhttp://dbpedia.org/ontology/picture
p698
aVhttp://dbpedia.org/ontology/isPartOf
p699
aVhttp://dbpedia.org/property/shortDescription
p700
aVhttp://dbpedia.org/property/placeOfBirth
p701
aVhttp://dbpedia.org/property/hometown
p702
aVhttp://dbpedia.org/property/culturalOrigins
p703
aVhttp://dbpedia.org/property/start
p704
aVhttp://dbpedia.org/property/mapCaption
p705
aVhttp://dbpedia.org/property/siteCityst
p706
aVhttp://dbpedia.org/ontology/residence
p707
aVhttp://dbpedia.org/ontology/abstract
p708
aVhttp://dbpedia.org/ontology/recordedIn
p709
aVhttp://dbpedia.org/property/currentCity
p710
aVhttp://dbpedia.org/property/largestcity
p711
aVhttp://dbpedia.org/property/shipNamesake
p712
aVhttp://dbpedia.org/property/pushpinMapCaption
p713
aVhttp://dbpedia.org/property/shipBuilder
p714
aVhttp://dbpedia.org/ontology/location
p715
aVhttp://dbpedia.org/ontology/hometown
p716
aVhttp://dbpedia.org/property/highschool
p717
aVhttp://dbpedia.org/ontology/restingPlace
p718
aVhttp://dbpedia.org/property/training
p719
aVhttp://www.w3.org/2000/01/rdf-schema#seeAlso
p720
aVhttp://dbpedia.org/property/hostCity
p721
aVhttp://dbpedia.org/property/deathDate
p722
aVhttp://dbpedia.org/ontology/foundationPlace
p723
aVhttp://dbpedia.org/property/base
p724
aVhttp://dbpedia.org/property/based
p725
aVhttp://dbpedia.org/property/site
p726
aVhttp://dbpedia.org/ontology/country
p727
aVhttp://dbpedia.org/property/region
p728
aVhttp://dbpedia.org/property/destinations
p729
aVhttp://dbpedia.org/property/quote
p730
aVhttp://dbpedia.org/property/birthPlace
p731
aVhttp://dbpedia.org/property/filmed
p732
aVhttp://dbpedia.org/property/finalfourcity
p733
aVhttp://dbpedia.org/ontology/county
p734
aVhttp://dbpedia.org/ontology/campus
p735
aVhttp://dbpedia.org/property/county
p736
aVhttp://dbpedia.org/property/deathPlace
p737
aVhttp://dbpedia.org/ontology/builder
p738
aVhttp://dbpedia.org/ontology/deathPlace
p739
aVhttp://dbpedia.org/property/resides
p740
aVhttp://dbpedia.org/property/populationBlank1Title
p741
aVhttp://dbpedia.org/property/east
p742
aVhttp://dbpedia.org/property/headquarters
p743
aVhttp://dbpedia.org/property/southeast
p744
aVhttp://dbpedia.org/ontology/birthPlace
p745
aVhttp://dbpedia.org/property/name
p746
aVhttp://dbpedia.org/property/aux
p747
aVhttp://www.w3.org/2002/07/owl#sameAs
p748
aVhttp://dbpedia.org/property/recorded
p749
aVhttp://dbpedia.org/property/residence
p750
aVhttp://www.w3.org/1999/02/22-rdf-syntax-ns#type
p751
aVhttp://dbpedia.org/property/list
p752
aVhttp://dbpedia.org/property/dutyStation
p753
aVhttp://dbpedia.org/property/metropolitan
p754
aVhttp://dbpedia.org/ontology/routeJunction
p755
aVhttp://dbpedia.org/property/rd
p756
aVhttp://dbpedia.org/property/subdivisionType
p757
aVhttp://xmlns.com/foaf/0.1/depiction
p758
aVhttp://dbpedia.org/property/settlementType
p759
aVhttp://dbpedia.org/ontology/thumbnail
p760
aVhttp://dbpedia.org/ontology/city
p761
aVhttp://dbpedia.org/ontology/routeStart
p762
aVhttp://dbpedia.org/property/recordLocation
p763
aVhttp://dbpedia.org/property/subdivisionName
p764
aVhttp://dbpedia.org/property/areaCodeType
p765
aVhttp://dbpedia.org/property/popplace
p766
aVhttp://www.w3.org/2000/01/rdf-schema#comment
p767
aVhttp://dbpedia.org/property/campus
p768
aVhttp://dbpedia.org/property/destination
p769
aVhttp://dbpedia.org/property/locationCity
p770
aVhttp://dbpedia.org/property/stadium
p771
aVhttp://dbpedia.org/property/place
p772
aVhttp://dbpedia.org/ontology/wikiPageRedirects
p773
aVhttp://dbpedia.org/property/imageSeal
p774
aVhttp://www.w3.org/2002/07/owl#differentFrom
p775
aVhttp://dbpedia.org/property/placeofburial
p776
aVhttp://dbpedia.org/property/restingplace
p777
aVhttp://dbpedia.org/property/locations
p778
aVhttp://dbpedia.org/property/after
p779
aVhttp://dbpedia.org/property/office
p780
aVhttp://dbpedia.org/property/nearestCity
p781
aVhttp://purl.org/dc/terms/subject
p782
aVhttp://dbpedia.org/ontology/populationPlace
p783
aVhttp://dbpedia.org/property/location
p784
aVhttp://dbpedia.org/property/regions
p785
aVhttp://dbpedia.org/ontology/headquarter
p786
aVhttp://dbpedia.org/property/foundation
p787
aVhttp://dbpedia.org/ontology/region
p788
aVhttp://dbpedia.org/property/road
p789
aVhttp://dbpedia.org/property/title
p790
aVhttp://dbpedia.org/property/locale
p791
aVhttp://dbpedia.org/property/address
p792
aVhttp://dbpedia.org/property/deathplace
p793
aVhttp://dbpedia.org/property/seat
p794
aVhttp://dbpedia.org/property/imageFlag
p795
aVhttp://dbpedia.org/ontology/largestCity
p796
aVhttp://dbpedia.org/property/home
p797
aVhttp://xmlns.com/foaf/0.1/name
p798
aVhttp://dbpedia.org/ontology/premierePlace
p799
aVhttp://dbpedia.org/ontology/locationCity
p800
assI3
(dp801
I0
g652
sI1
g667
sI2
g690
sI3
(lp802
ssa(dp803
I0
(dp804
I0
(lp805
sI1
(lp806
Vhttp://dbpedia.org/property/icao
p807
aVhttp://dbpedia.org/property/website
p808
aVhttp://dbpedia.org/ontology/iataLocationIdentifier
p809
aVhttp://dbpedia.org/property/name
p810
aVhttp://www.w3.org/ns/prov#wasDerivedFrom
p811
aVhttp://dbpedia.org/property/iata
p812
aVhttp://dbpedia.org/ontology/icaoLocationIdentifier
p813
aVhttp://dbpedia.org/property/pushpinLabel
p814
aVhttp://dbpedia.org/property/operator
p815
aVhttp://dbpedia.org/property/image
p816
aVhttp://xmlns.com/foaf/0.1/isPrimaryTopicOf
p817
aVhttp://dbpedia.org/property/owner
p818
aVhttp://dbpedia.org/ontology/wikiPageDisambiguates
p819
aVhttp://dbpedia.org/ontology/wikiPageExternalLink
p820
aVhttp://xmlns.com/foaf/0.1/primaryTopic
p821
aVhttp://dbpedia.org/property/pushpinMap
p822
aVhttp://purl.org/dc/terms/subject
p823
aVhttp://dbpedia.org/ontology/abstract
p824
aVhttp://xmlns.com/foaf/0.1/depiction
p825
aVhttp://dbpedia.org/property/location
p826
aVhttp://dbpedia.org/property/imageMap
p827
aVhttp://dbpedia.org/ontology/thumbnail
p828
aVhttp://dbpedia.org/property/hasPhotoCollection
p829
aVhttp://www.w3.org/2000/01/rdf-schema#label
p830
aVhttp://dbpedia.org/property/pushpinMapCaption
p831
aVhttp://dbpedia.org/property/faa
p832
aVhttp://dbpedia.org/ontology/location
p833
aVhttp://www.w3.org/2000/01/rdf-schema#comment
p834
aVhttp://dbpedia.org/ontology/wikiPageRedirects
p835
aVhttp://dbpedia.org/ontology/owner
p836
aVhttp://dbpedia.org/ontology/faaLocationIdentifier
p837
aVhttp://xmlns.com/foaf/0.1/name
p838
aVhttp://xmlns.com/foaf/0.1/homepage
p839
aVhttp://www.w3.org/2002/07/owl#sameAs
p840
asI2
(lp841
sI3
(lp842
ssI1
(dp843
I0
g806
sI1
(lp844
sI2
(lp845
Vhttp://dbpedia.org/property/website
p846
aVhttp://dbpedia.org/property/name
p847
aVhttp://www.w3.org/ns/prov#wasDerivedFrom
p848
aVhttp://dbpedia.org/property/operator
p849
aVhttp://dbpedia.org/property/image
p850
aVhttp://xmlns.com/foaf/0.1/isPrimaryTopicOf
p851
aVhttp://dbpedia.org/property/owner
p852
aVhttp://dbpedia.org/ontology/wikiPageExternalLink
p853
aVhttp://xmlns.com/foaf/0.1/primaryTopic
p854
aVhttp://xmlns.com/foaf/0.1/depiction
p855
aVhttp://purl.org/dc/terms/subject
p856
aVhttp://dbpedia.org/ontology/abstract
p857
aVhttp://dbpedia.org/property/pushpinMap
p858
aVhttp://dbpedia.org/property/location
p859
aVhttp://dbpedia.org/ontology/thumbnail
p860
aVhttp://dbpedia.org/property/hasPhotoCollection
p861
aVhttp://www.w3.org/2000/01/rdf-schema#label
p862
aVhttp://dbpedia.org/property/pushpinMapCaption
p863
aVhttp://dbpedia.org/ontology/location
p864
aVhttp://www.w3.org/2000/01/rdf-schema#comment
p865
aVhttp://dbpedia.org/ontology/wikiPageRedirects
p866
aVhttp://dbpedia.org/ontology/owner
p867
aVhttp://xmlns.com/foaf/0.1/name
p868
aVhttp://xmlns.com/foaf/0.1/homepage
p869
aVhttp://www.w3.org/2002/07/owl#sameAs
p870
asI3
(lp871
Vhttp://dbpedia.org/ontology/wikiPageExternalLink
p872
aVhttp://dbpedia.org/property/pushpinMapCaption
p873
aVhttp://www.w3.org/1999/02/22-rdf-syntax-ns#type
p874
aVhttp://purl.org/dc/terms/subject
p875
aVhttp://dbpedia.org/ontology/location
p876
aVhttp://www.w3.org/2000/01/rdf-schema#comment
p877
aVhttp://dbpedia.org/ontology/abstract
p878
aVhttp://dbpedia.org/property/stat2Header
p879
aVhttp://dbpedia.org/property/location
p880
aVhttp://dbpedia.org/property/cityServed
p881
aVhttp://dbpedia.org/property/coordinatesRegion
p882
assI2
(dp883
I0
g841
sI1
g845
sI2
(lp884
sI3
(lp885
ssI3
(dp886
I0
g842
sI1
g871
sI2
g885
sI3
(lp887
ssa(dp888
I0
(dp889
I0
(lp890
sI1
(lp891
Vhttp://dbpedia.org/property/icao
p892
aVhttp://dbpedia.org/property/website
p893
aVhttp://dbpedia.org/ontology/iataLocationIdentifier
p894
aVhttp://dbpedia.org/property/name
p895
aVhttp://www.w3.org/ns/prov#wasDerivedFrom
p896
aVhttp://dbpedia.org/property/iata
p897
aVhttp://dbpedia.org/ontology/icaoLocationIdentifier
p898
aVhttp://www.w3.org/1999/02/22-rdf-syntax-ns#type
p899
aVhttp://dbpedia.org/property/pushpinLabel
p900
aVhttp://dbpedia.org/property/image
p901
aVhttp://xmlns.com/foaf/0.1/isPrimaryTopicOf
p902
aVhttp://dbpedia.org/ontology/wikiPageDisambiguates
p903
aVhttp://dbpedia.org/ontology/wikiPageExternalLink
p904
aVhttp://xmlns.com/foaf/0.1/primaryTopic
p905
aVhttp://purl.org/dc/terms/subject
p906
aVhttp://dbpedia.org/ontology/abstract
p907
aVhttp://xmlns.com/foaf/0.1/depiction
p908
aVhttp://dbpedia.org/property/location
p909
aVhttp://dbpedia.org/property/cityServed
p910
aVhttp://dbpedia.org/ontology/thumbnail
p911
aVhttp://dbpedia.org/ontology/city
p912
aVhttp://dbpedia.org/property/hasPhotoCollection
p913
aVhttp://www.w3.org/2000/01/rdf-schema#label
p914
aVhttp://dbpedia.org/property/faa
p915
aVhttp://dbpedia.org/ontology/location
p916
aVhttp://www.w3.org/2000/01/rdf-schema#comment
p917
aVhttp://dbpedia.org/ontology/wikiPageRedirects
p918
aVhttp://dbpedia.org/ontology/faaLocationIdentifier
p919
aVhttp://xmlns.com/foaf/0.1/name
p920
aVhttp://xmlns.com/foaf/0.1/homepage
p921
aVhttp://www.w3.org/2002/07/owl#sameAs
p922
asI2
(lp923
sI3
(lp924
ssI1
(dp925
I0
g891
sI1
(lp926
sI2
(lp927
Vhttp://dbpedia.org/ontology/wikiPageExternalLink
p928
aVhttp://xmlns.com/foaf/0.1/primaryTopic
p929
aVhttp://purl.org/dc/terms/subject
p930
aVhttp://dbpedia.org/ontology/location
p931
aVhttp://www.w3.org/2000/01/rdf-schema#comment
p932
aVhttp://xmlns.com/foaf/0.1/name
p933
aVhttp://www.w3.org/2000/01/rdf-schema#label
p934
aVhttp://dbpedia.org/ontology/abstract
p935
aVhttp://dbpedia.org/ontology/wikiPageRedirects
p936
aVhttp://dbpedia.org/property/name
p937
aVhttp://dbpedia.org/property/cityServed
p938
aVhttp://dbpedia.org/property/location
p939
aVhttp://dbpedia.org/property/image
p940
aVhttp://xmlns.com/foaf/0.1/isPrimaryTopicOf
p941
aVhttp://www.w3.org/ns/prov#wasDerivedFrom
p942
aVhttp://dbpedia.org/ontology/city
p943
aVhttp://dbpedia.org/property/hasPhotoCollection
p944
aVhttp://dbpedia.org/ontology/wikiPageDisambiguates
p945
aVhttp://www.w3.org/2002/07/owl#sameAs
p946
asI3
(lp947
Vhttp://dbpedia.org/ontology/wikiPageExternalLink
p948
aVhttp://dbpedia.org/property/pushpinMapCaption
p949
aVhttp://www.w3.org/1999/02/22-rdf-syntax-ns#type
p950
aVhttp://purl.org/dc/terms/subject
p951
aVhttp://dbpedia.org/ontology/location
p952
aVhttp://www.w3.org/2000/01/rdf-schema#comment
p953
aVhttp://dbpedia.org/property/southeast
p954
aVhttp://dbpedia.org/ontology/abstract
p955
aVhttp://dbpedia.org/property/location
p956
aVhttp://dbpedia.org/property/cityServed
p957
aVhttp://dbpedia.org/ontology/city
p958
aVhttp://dbpedia.org/property/south
p959
assI2
(dp960
I0
g923
sI1
g927
sI2
(lp961
sI3
(lp962
ssI3
(dp963
I0
g924
sI1
g947
sI2
g962
sI3
(lp964
ssa(dp965
I0
(dp966
I0
(lp967
sI1
(lp968
sI2
(lp969
sI3
(lp970
ssI1
(dp971
I0
g968
sI1
(lp972
sI2
(lp973
sI3
(lp974
ssI2
(dp975
I0
g969
sI1
g973
sI2
(lp976
sI3
(lp977
Vhttp://www.w3.org/2000/01/rdf-schema#seeAlso
p978
aVhttp://www.w3.org/2002/07/owl#differentFrom
p979
aVhttp://dbpedia.org/ontology/wikiPageDisambiguates
p980
aVhttp://purl.org/dc/terms/subject
p981
assI3
(dp982
I0
g970
sI1
g974
sI2
g977
sI3
(lp983
ssa(dp984
I0
(dp985
I0
(lp986
sI1
(lp987
Vhttp://dbpedia.org/ontology/wikiPageExternalLink
p988
aVhttp://dbpedia.org/property/icao
p989
aVhttp://dbpedia.org/property/imageMap
p990
aVhttp://www.w3.org/2000/01/rdf-schema#comment
p991
aVhttp://dbpedia.org/ontology/iataLocationIdentifier
p992
aVhttp://dbpedia.org/ontology/abstract
p993
aVhttp://xmlns.com/foaf/0.1/depiction
p994
aVhttp://dbpedia.org/property/pushpinLabel
p995
aVhttp://dbpedia.org/ontology/faaLocationIdentifier
p996
aVhttp://dbpedia.org/property/faa
p997
aVhttp://dbpedia.org/ontology/thumbnail
p998
aVhttp://dbpedia.org/property/iata
p999
aVhttp://dbpedia.org/ontology/icaoLocationIdentifier
p1000
aVhttp://dbpedia.org/property/id
p1001
asI2
(lp1002
sI3
(lp1003
ssI1
(dp1004
I0
g987
sI1
(lp1005
sI2
(lp1006
Vhttp://www.w3.org/2000/01/rdf-schema#comment
p1007
aVhttp://dbpedia.org/ontology/abstract
p1008
aVhttp://dbpedia.org/property/name
p1009
aVhttp://dbpedia.org/property/location
p1010
aVhttp://dbpedia.org/property/operator
p1011
aVhttp://xmlns.com/foaf/0.1/name
p1012
aVhttp://dbpedia.org/property/owner
p1013
aVhttp://www.w3.org/2000/01/rdf-schema#label
p1014
asI3
(lp1015
Vhttp://dbpedia.org/ontology/wikiPageExternalLink
p1016
aVhttp://dbpedia.org/property/pushpinMapCaption
p1017
aVhttp://www.w3.org/1999/02/22-rdf-syntax-ns#type
p1018
aVhttp://purl.org/dc/terms/subject
p1019
aVhttp://dbpedia.org/property/website
p1020
aVhttp://www.w3.org/2000/01/rdf-schema#comment
p1021
aVhttp://dbpedia.org/ontology/abstract
p1022
aVhttp://dbpedia.org/property/pushpinMap
p1023
aVhttp://dbpedia.org/property/location
p1024
aVhttp://xmlns.com/foaf/0.1/homepage
p1025
assI2
(dp1026
I0
g1002
sI1
g1006
sI2
(lp1027
sI3
(lp1028
ssI3
(dp1029
I0
g1003
sI1
g1015
sI2
g1028
sI3
(lp1030
ssa(dp1031
I0
(dp1032
I0
(lp1033
sI1
(lp1034
Vhttp://dbpedia.org/ontology/wikiPageExternalLink
p1035
aVhttp://dbpedia.org/property/icao
p1036
aVhttp://dbpedia.org/property/faa
p1037
aVhttp://dbpedia.org/ontology/location
p1038
aVhttp://dbpedia.org/property/website
p1039
aVhttp://www.w3.org/2000/01/rdf-schema#comment
p1040
aVhttp://dbpedia.org/ontology/iataLocationIdentifier
p1041
aVhttp://dbpedia.org/ontology/abstract
p1042
aVhttp://dbpedia.org/ontology/faaLocationIdentifier
p1043
aVhttp://dbpedia.org/property/id
p1044
aVhttp://xmlns.com/foaf/0.1/homepage
p1045
aVhttp://dbpedia.org/property/iata
p1046
aVhttp://dbpedia.org/ontology/icaoLocationIdentifier
p1047
asI2
(lp1048
sI3
(lp1049
ssI1
(dp1050
I0
g1034
sI1
(lp1051
sI2
(lp1052
Vhttp://dbpedia.org/property/website
p1053
aVhttp://dbpedia.org/ontology/wikiPageRedirects
p1054
aVhttp://www.w3.org/ns/prov#wasDerivedFrom
p1055
aVhttp://www.w3.org/1999/02/22-rdf-syntax-ns#type
p1056
aVhttp://dbpedia.org/property/operator
p1057
aVhttp://xmlns.com/foaf/0.1/isPrimaryTopicOf
p1058
aVhttp://dbpedia.org/property/owner
p1059
aVhttp://dbpedia.org/ontology/wikiPageExternalLink
p1060
aVhttp://xmlns.com/foaf/0.1/primaryTopic
p1061
aVhttp://purl.org/dc/terms/subject
p1062
aVhttp://dbpedia.org/ontology/abstract
p1063
aVhttp://xmlns.com/foaf/0.1/depiction
p1064
aVhttp://dbpedia.org/property/cityServed
p1065
aVhttp://dbpedia.org/ontology/thumbnail
p1066
aVhttp://dbpedia.org/ontology/city
p1067
aVhttp://dbpedia.org/property/hasPhotoCollection
p1068
aVhttp://www.w3.org/2000/01/rdf-schema#label
p1069
aVhttp://www.w3.org/2000/01/rdf-schema#comment
p1070
aVhttp://dbpedia.org/property/name
p1071
aVhttp://xmlns.com/foaf/0.1/name
p1072
aVhttp://xmlns.com/foaf/0.1/homepage
p1073
aVhttp://www.w3.org/2002/07/owl#sameAs
p1074
asI3
(lp1075
Vhttp://www.w3.org/1999/02/22-rdf-syntax-ns#type
p1076
aVhttp://purl.org/dc/terms/subject
p1077
aVhttp://www.w3.org/2000/01/rdf-schema#comment
p1078
aVhttp://dbpedia.org/ontology/abstract
p1079
aVhttp://dbpedia.org/property/cityServed
p1080
aVhttp://dbpedia.org/ontology/faaLocationIdentifier
p1081
aVhttp://dbpedia.org/property/faa
p1082
aVhttp://dbpedia.org/property/owner
p1083
aVhttp://dbpedia.org/ontology/city
p1084
assI2
(dp1085
I0
g1048
sI1
g1052
sI2
(lp1086
sI3
(lp1087
ssI3
(dp1088
I0
g1049
sI1
g1075
sI2
g1087
sI3
(lp1089
ssa(dp1090
I0
(dp1091
I0
(lp1092
sI1
(lp1093
Vhttp://www.w3.org/2000/01/rdf-schema#seeAlso
p1094
aVhttp://dbpedia.org/property/icao
p1095
aVhttp://dbpedia.org/ontology/iataLocationIdentifier
p1096
aVhttp://dbpedia.org/property/name
p1097
aVhttp://www.w3.org/ns/prov#wasDerivedFrom
p1098
aVhttp://dbpedia.org/property/iata
p1099
aVhttp://dbpedia.org/ontology/icaoLocationIdentifier
p1100
aVhttp://www.w3.org/1999/02/22-rdf-syntax-ns#type
p1101
aVhttp://dbpedia.org/property/website
p1102
aVhttp://dbpedia.org/property/pushpinLabel
p1103
aVhttp://dbpedia.org/property/image
p1104
aVhttp://xmlns.com/foaf/0.1/isPrimaryTopicOf
p1105
aVhttp://dbpedia.org/ontology/wikiPageDisambiguates
p1106
aVhttp://dbpedia.org/ontology/wikiPageExternalLink
p1107
aVhttp://xmlns.com/foaf/0.1/primaryTopic
p1108
aVhttp://xmlns.com/foaf/0.1/depiction
p1109
aVhttp://purl.org/dc/terms/subject
p1110
aVhttp://dbpedia.org/ontology/abstract
p1111
aVhttp://dbpedia.org/property/pushpinMap
p1112
aVhttp://dbpedia.org/property/location
p1113
aVhttp://dbpedia.org/property/cityServed
p1114
aVhttp://dbpedia.org/property/imageMap
p1115
aVhttp://dbpedia.org/ontology/thumbnail
p1116
aVhttp://dbpedia.org/ontology/city
p1117
aVhttp://dbpedia.org/property/hasPhotoCollection
p1118
aVhttp://www.w3.org/2000/01/rdf-schema#label
p1119
aVhttp://dbpedia.org/property/pushpinMapCaption
p1120
aVhttp://dbpedia.org/property/faa
p1121
aVhttp://dbpedia.org/property/ownerOper
p1122
aVhttp://www.w3.org/2000/01/rdf-schema#comment
p1123
aVhttp://dbpedia.org/ontology/wikiPageRedirects
p1124
aVhttp://dbpedia.org/ontology/faaLocationIdentifier
p1125
aVhttp://xmlns.com/foaf/0.1/name
p1126
aVhttp://xmlns.com/foaf/0.1/homepage
p1127
aVhttp://www.w3.org/2002/07/owl#sameAs
p1128
asI2
(lp1129
sI3
(lp1130
ssI1
(dp1131
I0
g1093
sI1
(lp1132
sI2
(lp1133
Vhttp://dbpedia.org/property/pushpinMapCaption
p1134
aVhttp://dbpedia.org/property/ownerOper
p1135
aVhttp://www.w3.org/2000/01/rdf-schema#comment
p1136
aVhttp://dbpedia.org/ontology/abstract
p1137
aVhttp://dbpedia.org/property/pushpinMap
p1138
aVhttp://dbpedia.org/property/name
p1139
aVhttp://dbpedia.org/property/location
p1140
aVhttp://dbpedia.org/property/image
p1141
aVhttp://xmlns.com/foaf/0.1/name
p1142
aVhttp://www.w3.org/2000/01/rdf-schema#label
p1143
asI3
(lp1144
Vhttp://dbpedia.org/property/pushpinMapCaption
p1145
aVhttp://www.w3.org/1999/02/22-rdf-syntax-ns#type
p1146
aVhttp://purl.org/dc/terms/subject
p1147
aVhttp://www.w3.org/2000/01/rdf-schema#comment
p1148
aVhttp://dbpedia.org/ontology/abstract
p1149
aVhttp://dbpedia.org/property/location
p1150
aVhttp://dbpedia.org/ontology/wikiPageRedirects
p1151
aVhttp://dbpedia.org/property/cityServed
p1152
aVhttp://dbpedia.org/ontology/city
p1153
aVhttp://dbpedia.org/property/coordinatesRegion
p1154
assI2
(dp1155
I0
g1129
sI1
g1133
sI2
(lp1156
sI3
(lp1157
ssI3
(dp1158
I0
g1130
sI1
g1144
sI2
g1157
sI3
(lp1159
ssa.