(lp1
(lp2
(lp3
Vhttp://dbpedia.org/resource/Power_steering
p4
aa(lp5
a(lp6
aa(lp7
(lp8
Vhttp://dbpedia.org/resource/Air_conditioning
p9
aa(lp10
a(lp11
aa(lp12
(lp13
Vhttp://dbpedia.org/resource/HVAC
p14
aa(lp15
a(lp16
aa(lp17
(lp18
Vhttp://dbpedia.org/resource/CD_player
p19
aa(lp20
a(lp21
aa(lp22
(lp23
Vhttp://dbpedia.org/resource/Mobile_digital_media_player
p24
aa(lp25
a(lp26
aa(lp27
(lp28
a(lp29
a(lp30
aa(lp31
(lp32
Vhttp://dbpedia.org/resource/Liquid-crystal_display
p33
aa(lp34
a(lp35
aa(lp36
(lp37
Vhttp://dbpedia.org/resource/Cruise_control
p38
aa(lp39
a(lp40
aa(lp41
(lp42
Vhttp://dbpedia.org/resource/Power_door_locks
p43
aa(lp44
a(lp45
aa(lp46
(lp47
Vhttp://dbpedia.org/resource/Cup_holder
p48
aa(lp49
a(lp50
aa(lp51
(lp52
a(lp53
a(lp54
aa.