(lp1
(lp2
a(lp3
a(lp4
(dp5
Vstart
p6
I0
sS'classes'
p7
(lp8
Vhttp://www.w3.org/2002/07/owl#Thing
p9
asVdisambiguatedURL
p10
Vhttp://dbpedia.org/resource/HVAC
p11
sVnamedEntity
p12
VClimate Control
p13
sVoffset
p14
I15
saa(lp15
a(lp16
a(lp17
a(lp18
(dp19
Vstart
p20
I0
sg7
(lp21
Vhttp://www.w3.org/2002/07/owl#Thing
p22
asVdisambiguatedURL
p23
Vhttp://dbpedia.org/resource/Liquid-crystal_display
p24
sVnamedEntity
p25
VLCD Monitor
p26
sVoffset
p27
I11
saa(lp28
a(lp29
(dp30
Vstart
p31
I0
sg7
(lp32
Vhttp://www.w3.org/2002/07/owl#Thing
p33
aVhttp://dbpedia.org/class/yago/Accessory102671780
p34
aVhttp://dbpedia.org/class/yago/Artifact100021939
p35
aVhttp://dbpedia.org/class/yago/AutomotiveAccessories
p36
aVhttp://dbpedia.org/class/yago/Clothing103051540
p37
aVhttp://dbpedia.org/class/yago/Commodity103076708
p38
aVhttp://dbpedia.org/class/yago/Covering103122748
p39
aVhttp://dbpedia.org/class/yago/Device103183080
p40
aVhttp://dbpedia.org/class/yago/Fastener103323703
p41
aVhttp://dbpedia.org/class/yago/Object100002684
p42
aVhttp://dbpedia.org/class/yago/Restraint104081844
p43
aVhttp://dbpedia.org/class/yago/Whole100003553
p44
aVhttp://dbpedia.org/class/yago/ConsumerGoods103093574
p45
aVhttp://dbpedia.org/class/yago/Instrumentality103575240
p46
aVhttp://dbpedia.org/class/yago/Lock103682487
p47
aVhttp://dbpedia.org/class/yago/PhysicalEntity100001930
p48
aVhttp://dbpedia.org/class/yago/Locks
p49
asVdisambiguatedURL
p50
Vhttp://dbpedia.org/resource/Power_door_locks
p51
sVnamedEntity
p52
VPower Door Locks
p53
sVoffset
p54
I16
saa(lp55
a(lp56
a.