(lp1
(lp2
(lp3
Vhttp://dbpedia.org/resource/Plymouth_Gold
p4
aa(lp5
a(lp6
a(lp7
a(lp8
aa(lp9
(lp10
Vhttp://dbpedia.org/resource/Coherence
p11
aa(lp12
a(lp13
a(lp14
a(lp15
aa(lp16
(lp17
Vhttp://dbpedia.org/resource/Intel
p18
aa(lp19
a(lp20
a(lp21
a(lp22
aa(lp23
(lp24
Vhttp://dbpedia.org/resource/Analog_Devices
p25
aa(lp26
a(lp27
a(lp28
a(lp29
aa(lp30
(lp31
Vhttp://dbpedia.org/resource/Ceva_(disambiguation)
p32
aa(lp33
a(lp34
a(lp35
a(lp36
aa(lp37
(lp38
Vhttp://dbpedia.org/resource/Agilent_Technologies
p39
aa(lp40
a(lp41
a(lp42
a(lp43
aa(lp44
(lp45
Vhttp://dbpedia.org/resource/Brady_Corporation
p46
aa(lp47
a(lp48
a(lp49
a(lp50
aa(lp51
(lp52
Vhttp://dbpedia.org/resource/Convergys
p53
aa(lp54
a(lp55
a(lp56
a(lp57
aa(lp58
(lp59
Vhttp://dbpedia.org/resource/The_Bank_of_New_York_Mellon
p60
aa(lp61
a(lp62
a(lp63
a(lp64
aa(lp65
(lp66
Vhttp://dbpedia.org/resource/Precision_Castparts_Corp.
p67
aa(lp68
a(lp69
a(lp70
a(lp71
aa.