ccollections
defaultdict
p1
(c__builtin__
dict
p2
tRp3
I0
(dp4
I1
(lp5
sI2
(lp6
sI3
(lp7
sI4
(lp8
ssI2
(dp9
I1
(lp10
sI2
(lp11
ssI3
(dp12
I1
(lp13
Vhttp://www.w3.org/1999/02/22-rdf-syntax-ns#type
p14
ass.