(lp1
(lp2
(dp3
Vstart
p4
I0
sVdisambiguatedURL
p5
Vhttp://dbpedia.org/resource/Belize
p6
sVnamedEntity
p7
VBelize
p8
sVoffset
p9
I6
saa(lp10
(dp11
Vstart
p12
I0
sVdisambiguatedURL
p13
Vhttp://dbpedia.org/resource/Costa_Rica
p14
sVnamedEntity
p15
VCosta Rica
p16
sVoffset
p17
I10
saa(lp18
(dp19
Vstart
p20
I0
sVdisambiguatedURL
p21
Vhttp://dbpedia.org/resource/El_Salvador
p22
sVnamedEntity
p23
VEl Salvador
p24
sVoffset
p25
I11
saa(lp26
(dp27
Vstart
p28
I0
sVdisambiguatedURL
p29
Vhttp://dbpedia.org/resource/Guatemala
p30
sVnamedEntity
p31
VGuatemala
p32
sVoffset
p33
I9
saa(lp34
(dp35
Vstart
p36
I0
sVdisambiguatedURL
p37
Vhttp://dbpedia.org/resource/Honduras
p38
sVnamedEntity
p39
VHonduras
p40
sVoffset
p41
I8
saa(lp42
(dp43
Vstart
p44
I0
sVdisambiguatedURL
p45
Vhttp://dbpedia.org/resource/Nicaragua
p46
sVnamedEntity
p47
VNicaragua
p48
sVoffset
p49
I9
saa(lp50
(dp51
Vstart
p52
I0
sVdisambiguatedURL
p53
Vhttp://dbpedia.org/resource/Panama
p54
sVnamedEntity
p55
VPanama
p56
sVoffset
p57
I6
saa(lp58
(dp59
Vstart
p60
I0
sVdisambiguatedURL
p61
Vhttp://dbpedia.org/resource/Total!
p62
sVnamedEntity
p63
VTotal
p64
sVoffset
p65
I5
saa.