(lp1
(lp2
(lp3
Vhttp://dbpedia.org/resource/Belize
p4
aa(lp5
a(lp6
a(lp7
a(lp8
Vhttp://dbpedia.org/resource/Belmopan
p9
aa(lp10
Vhttp://dbpedia.org/resource/English,_Indiana
p11
aaa(lp12
(lp13
Vhttp://dbpedia.org/resource/Costa_Rica
p14
aa(lp15
a(lp16
a(lp17
a(lp18
a(lp19
Vhttp://dbpedia.org/resource/Spanish,_Ontario
p20
aaa(lp21
(lp22
Vhttp://dbpedia.org/resource/El_Salvador
p23
aa(lp24
a(lp25
a(lp26
a(lp27
Vhttp://dbpedia.org/resource/San_Salvador
p28
aa(lp29
Vhttp://dbpedia.org/resource/Spanish,_Ontario
p30
aaa(lp31
(lp32
Vhttp://dbpedia.org/resource/Guatemala
p33
aa(lp34
a(lp35
a(lp36
a(lp37
Vhttp://dbpedia.org/resource/Guatemala_City
p38
aa(lp39
Vhttp://dbpedia.org/resource/Spanish,_Ontario
p40
aaa(lp41
(lp42
Vhttp://dbpedia.org/resource/Honduras
p43
aa(lp44
a(lp45
a(lp46
a(lp47
Vhttp://dbpedia.org/resource/Tegucigalpa
p48
aa(lp49
Vhttp://dbpedia.org/resource/Spanish,_Ontario
p50
aaa(lp51
(lp52
Vhttp://dbpedia.org/resource/Nicaragua
p53
aa(lp54
a(lp55
a(lp56
a(lp57
Vhttp://dbpedia.org/resource/Managua
p58
aa(lp59
Vhttp://dbpedia.org/resource/Spanish,_Ontario
p60
aaa(lp61
(lp62
Vhttp://dbpedia.org/resource/Panama
p63
aa(lp64
a(lp65
a(lp66
a(lp67
Vhttp://dbpedia.org/resource/Panama_City
p68
aa(lp69
Vhttp://dbpedia.org/resource/Spanish,_Ontario
p70
aaa(lp71
(lp72
Vhttp://dbpedia.org/resource/Total!
p73
aa(lp74
a(lp75
a(lp76
a(lp77
Vhttp://dbpedia.org/resource/Null
p78
aa(lp79
Vhttp://dbpedia.org/resource/Null
p80
aaa.