ccollections
defaultdict
p1
(c__builtin__
dict
p2
tRp3
I96
(dp4
I1
(lp5
sI2
(lp6
Vhttp://xmlns.com/foaf/0.1/primaryTopic
p7
aVhttp://www.w3.org/2000/01/rdf-schema#comment
p8
aVhttp://dbpedia.org/ontology/wikiPageDisambiguates
p9
aVhttp://dbpedia.org/ontology/abstract
p10
aVhttp://dbpedia.org/property/name
p11
aVhttp://dbpedia.org/property/imgCapt
p12
aVhttp://dbpedia.org/ontology/wikiPageRedirects
p13
aVhttp://www.w3.org/ns/prov#wasDerivedFrom
p14
aVhttp://xmlns.com/foaf/0.1/isPrimaryTopicOf
p15
aVhttp://xmlns.com/foaf/0.1/name
p16
aVhttp://dbpedia.org/property/hasPhotoCollection
p17
aVhttp://www.w3.org/2000/01/rdf-schema#label
p18
aVhttp://www.w3.org/2002/07/owl#sameAs
p19
aVhttp://dbpedia.org/property/img
p20
asI3
(lp21
ssI184
(dp22
I1
(lp23
sI2
(lp24
sI3
(lp25
ssI82
(dp26
I1
(lp27
sI2
(lp28
sI3
(lp29
ssI162
(dp30
I1
(lp31
sI2
(lp32
Vhttp://dbpedia.org/ontology/publisher
p33
aVhttp://dbpedia.org/ontology/abstract
p34
asI3
(lp35
ssI95
(dp36
I1
(lp37
sI2
(lp38
sI3
(lp39
ss.