(lp1
(lp2
(lp3
a(lp4
a(lp5
a(lp6
aa(lp7
(lp8
a(lp9
a(lp10
a(lp11
aa(lp12
(lp13
a(lp14
a(lp15
a(lp16
aa(lp17
(lp18
a(lp19
a(lp20
a(lp21
aa(lp22
(lp23
a(lp24
a(lp25
a(lp26
aa(lp27
(lp28
a(lp29
a(lp30
a(lp31
aa(lp32
(lp33
a(lp34
a(lp35
a(lp36
aa(lp37
(lp38
a(lp39
a(lp40
a(lp41
aa(lp42
(lp43
a(lp44
a(lp45
a(lp46
aa(lp47
(lp48
a(lp49
a(lp50
a(lp51
aa(lp52
(lp53
a(lp54
a(lp55
a(lp56
aa(lp57
(lp58
a(lp59
a(lp60
a(lp61
aa(lp62
(lp63
a(lp64
a(lp65
a(lp66
aa(lp67
(lp68
a(lp69
a(lp70
a(lp71
aa(lp72
(lp73
a(lp74
a(lp75
a(lp76
aa(lp77
(lp78
a(lp79
a(lp80
a(lp81
aa(lp82
(lp83
a(lp84
a(lp85
a(lp86
aa(lp87
(lp88
a(lp89
a(lp90
a(lp91
aa(lp92
(lp93
a(lp94
a(lp95
a(lp96
aa(lp97
(lp98
a(lp99
a(lp100
a(lp101
aa(lp102
(lp103
a(lp104
a(lp105
a(lp106
aa(lp107
(lp108
a(lp109
a(lp110
a(lp111
aa(lp112
(lp113
a(lp114
a(lp115
a(lp116
aa(lp117
(lp118
a(lp119
a(lp120
a(lp121
aa(lp122
(lp123
a(lp124
a(lp125
a(lp126
aa(lp127
(lp128
a(lp129
a(lp130
a(lp131
aa(lp132
(lp133
a(lp134
a(lp135
a(lp136
aa(lp137
(lp138
a(lp139
a(lp140
a(lp141
aa(lp142
(lp143
a(lp144
a(lp145
a(lp146
aa(lp147
(lp148
a(lp149
a(lp150
a(lp151
aa(lp152
(lp153
a(lp154
a(lp155
a(lp156
aa(lp157
(lp158
a(lp159
a(lp160
a(lp161
aa(lp162
(lp163
a(lp164
a(lp165
a(lp166
aa(lp167
(lp168
a(lp169
a(lp170
a(lp171
aa(lp172
(lp173
a(lp174
a(lp175
a(lp176
aa(lp177
(lp178
a(lp179
a(lp180
a(lp181
aa(lp182
(lp183
a(lp184
a(lp185
a(lp186
aa(lp187
(lp188
a(lp189
a(lp190
a(lp191
aa(lp192
(lp193
a(lp194
a(lp195
a(lp196
aa(lp197
(lp198
a(lp199
a(lp200
a(lp201
aa(lp202
(lp203
a(lp204
a(lp205
a(lp206
aa(lp207
(lp208
a(lp209
a(lp210
a(lp211
aa(lp212
(lp213
a(lp214
a(lp215
a(lp216
aa(lp217
(lp218
a(lp219
a(lp220
a(lp221
aa(lp222
(lp223
a(lp224
a(lp225
a(lp226
aa(lp227
(lp228
a(lp229
a(lp230
a(lp231
aa(lp232
(lp233
a(lp234
a(lp235
a(lp236
aa(lp237
(lp238
a(lp239
a(lp240
a(lp241
aa(lp242
(lp243
a(lp244
a(lp245
a(lp246
aa(lp247
(lp248
a(lp249
a(lp250
a(lp251
aa(lp252
(lp253
a(lp254
a(lp255
a(lp256
aa(lp257
(lp258
a(lp259
a(lp260
a(lp261
aa(lp262
(lp263
a(lp264
a(lp265
a(lp266
aa(lp267
(lp268
a(lp269
a(lp270
a(lp271
aa(lp272
(lp273
a(lp274
a(lp275
a(lp276
aa(lp277
(lp278
a(lp279
a(lp280
a(lp281
aa(lp282
(lp283
a(lp284
a(lp285
a(lp286
aa(lp287
(lp288
a(lp289
a(lp290
a(lp291
aa(lp292
(lp293
a(lp294
a(lp295
a(lp296
aa(lp297
(lp298
a(lp299
a(lp300
a(lp301
aa(lp302
(lp303
a(lp304
a(lp305
a(lp306
aa(lp307
(lp308
a(lp309
a(lp310
a(lp311
aa(lp312
(lp313
a(lp314
a(lp315
a(lp316
aa(lp317
(lp318
a(lp319
a(lp320
a(lp321
aa(lp322
(lp323
a(lp324
a(lp325
a(lp326
aa(lp327
(lp328
a(lp329
a(lp330
a(lp331
aa(lp332
(lp333
a(lp334
a(lp335
a(lp336
aa(lp337
(lp338
a(lp339
a(lp340
a(lp341
aa(lp342
(lp343
a(lp344
a(lp345
a(lp346
aa(lp347
(lp348
a(lp349
a(lp350
a(lp351
aa(lp352
(lp353
a(lp354
a(lp355
a(lp356
aa(lp357
(lp358
a(lp359
a(lp360
a(lp361
aa(lp362
(lp363
a(lp364
a(lp365
a(lp366
aa(lp367
(lp368
a(lp369
a(lp370
a(lp371
aa(lp372
(lp373
a(lp374
a(lp375
a(lp376
aa(lp377
(lp378
a(lp379
a(lp380
a(lp381
aa(lp382
(lp383
a(lp384
a(lp385
a(lp386
aa(lp387
(lp388
a(lp389
a(lp390
a(lp391
aa(lp392
(lp393
a(lp394
a(lp395
a(lp396
aa(lp397
(lp398
a(lp399
a(lp400
a(lp401
aa(lp402
(lp403
a(lp404
a(lp405
a(lp406
aa(lp407
(lp408
a(lp409
a(lp410
a(lp411
aa(lp412
(lp413
((lp414
Vhttp://www.w3.org/2002/07/owl#Thing
p415
aVhttp://purl.org/ontology/bibo/Book
p416
aVhttp://www.wikidata.org/entity/Q386724
p417
aVhttp://www.wikidata.org/entity/Q571
p418
aVhttp://dbpedia.org/ontology/Book
p419
aVhttp://dbpedia.org/ontology/Work
p420
aVhttp://dbpedia.org/ontology/WrittenWork
p421
aVhttp://schema.org/Book
p422
aVhttp://schema.org/CreativeWork
p423
aVhttp://dbpedia.org/class/Book
p424
aVhttp://dbpedia.org/class/yago/Artifact100021939
p425
aVhttp://dbpedia.org/class/yago/Book106410904
p426
aVhttp://dbpedia.org/class/yago/Creation103129123
p427
aVhttp://dbpedia.org/class/yago/Object100002684
p428
aVhttp://dbpedia.org/class/yago/Oeuvre103841417
p429
aVhttp://dbpedia.org/class/yago/Product104007894
p430
aVhttp://dbpedia.org/class/yago/Publication106589574
p431
aVhttp://dbpedia.org/class/yago/Whole100003553
p432
aVhttp://dbpedia.org/class/yago/EndProduct103287178
p433
aVhttp://dbpedia.org/class/yago/PhysicalEntity100001930
p434
aVhttp://dbpedia.org/class/yago/Work104599396
p435
aVhttp://dbpedia.org/class/yago/WorksPublishedUnderAPseudonym
p436
aVhttp://dbpedia.org/resource/Grasshopper_(novel)
tp437
aa(lp438
a(lp439
a(lp440
aa(lp441
(lp442
a(lp443
a(lp444
a(lp445
aa(lp446
(lp447
a(lp448
a(lp449
a(lp450
aa(lp451
(lp452
a(lp453
a(lp454
a(lp455
aa(lp456
(lp457
a(lp458
a(lp459
a(lp460
aa(lp461
(lp462
a(lp463
a(lp464
a(lp465
aa(lp466
(lp467
a(lp468
a(lp469
a(lp470
aa(lp471
(lp472
a(lp473
a(lp474
a(lp475
aa(lp476
(lp477
a(lp478
a(lp479
a(lp480
aa(lp481
(lp482
a(lp483
a(lp484
a(lp485
aa(lp486
(lp487
a(lp488
a(lp489
a(lp490
aa(lp491
(lp492
a(lp493
a(lp494
a(lp495
aa(lp496
(lp497
a(lp498
a(lp499
a(lp500
aa(lp501
(lp502
((lp503
Vhttp://www.w3.org/2002/07/owl#Thing
p504
aVhttp://dbpedia.org/ontology/Species
p505
aVhttp://dbpedia.org/resource/Child
tp506
aa(lp507
a(lp508
a(lp509
aa(lp510
(lp511
((lp512
Vhttp://www.w3.org/2002/07/owl#Thing
p513
aVhttp://www.ontologydesignpatterns.org/ont/dul/DUL.owl#Agent
p514
aVhttp://www.ontologydesignpatterns.org/ont/dul/DUL.owl#SocialPerson
p515
aVhttp://www.wikidata.org/entity/Q215380
p516
aVhttp://www.wikidata.org/entity/Q43229
p517
aVhttp://dbpedia.org/ontology/Agent
p518
aVhttp://dbpedia.org/ontology/Band
p519
aVhttp://dbpedia.org/ontology/Group
p520
aVhttp://dbpedia.org/ontology/Organisation
p521
aVhttp://schema.org/MusicGroup
p522
aVhttp://schema.org/Organization
p523
aVhttp://umbel.org/umbel/rc/Band_MusicGroup
p524
aVhttp://dbpedia.org/class/yago/Abstraction100002137
p525
aVhttp://dbpedia.org/class/yago/Group100031264
p526
aVhttp://dbpedia.org/class/yago/MusicalOrganization108246613
p527
aVhttp://dbpedia.org/class/yago/Organization108008335
p528
aVhttp://dbpedia.org/class/yago/SocialGroup107950920
p529
aVhttp://dbpedia.org/class/yago/YagoLegalActorGeo
p530
aVhttp://dbpedia.org/class/yago/YagoPermanentlyLocatedEntity
p531
aVhttp://dbpedia.org/class/yago/MusicalGroupsEstablishedIn1974
p532
aVhttp://dbpedia.org/class/yago/YagoLegalActor
p533
aVhttp://dbpedia.org/resource/Hummingbird_(band)
tp534
aa(lp535
a(lp536
a(lp537
aa(lp538
(lp539
a(lp540
a(lp541
a(lp542
aa(lp543
(lp544
a(lp545
a(lp546
a(lp547
aa(lp548
(lp549
a(lp550
a(lp551
a(lp552
aa(lp553
(lp554
a(lp555
a(lp556
a(lp557
aa(lp558
(lp559
a(lp560
a(lp561
a(lp562
aa(lp563
(lp564
a(lp565
a(lp566
a(lp567
aa(lp568
(lp569
a(lp570
a(lp571
a(lp572
aa(lp573
(lp574
a(lp575
a(lp576
a(lp577
aa(lp578
(lp579
a(lp580
a(lp581
a(lp582
aa(lp583
(lp584
a(lp585
a(lp586
a(lp587
aa(lp588
(lp589
a(lp590
a(lp591
a(lp592
aa(lp593
(lp594
a(lp595
a(lp596
a(lp597
aa(lp598
(lp599
a(lp600
a(lp601
a(lp602
aa(lp603
(lp604
a(lp605
a(lp606
a(lp607
aa(lp608
(lp609
a(lp610
a(lp611
a(lp612
aa(lp613
(lp614
a(lp615
a(lp616
a(lp617
aa(lp618
(lp619
a(lp620
a(lp621
a(lp622
aa(lp623
(lp624
a(lp625
a(lp626
a(lp627
aa(lp628
(lp629
a(lp630
a(lp631
a(lp632
aa(lp633
(lp634
a(lp635
a(lp636
a(lp637
aa(lp638
(lp639
a(lp640
a(lp641
a(lp642
aa(lp643
(lp644
a(lp645
a(lp646
a(lp647
aa(lp648
(lp649
a(lp650
a(lp651
a(lp652
aa(lp653
(lp654
a(lp655
a(lp656
a(lp657
aa(lp658
(lp659
a(lp660
a(lp661
a(lp662
aa(lp663
(lp664
a(lp665
a(lp666
a(lp667
aa(lp668
(lp669
a(lp670
a(lp671
a(lp672
aa(lp673
(lp674
a(lp675
a(lp676
a(lp677
aa(lp678
(lp679
a(lp680
a(lp681
a(lp682
aa(lp683
(lp684
a(lp685
a(lp686
a(lp687
aa(lp688
(lp689
a(lp690
a(lp691
a(lp692
aa(lp693
(lp694
a(lp695
a(lp696
a(lp697
aa(lp698
(lp699
a(lp700
a(lp701
a(lp702
aa(lp703
(lp704
a(lp705
a(lp706
a(lp707
aa(lp708
(lp709
a(lp710
a(lp711
a(lp712
aa(lp713
(lp714
a(lp715
a(lp716
a(lp717
aa(lp718
(lp719
a(lp720
a(lp721
a(lp722
aa(lp723
(lp724
a(lp725
a(lp726
a(lp727
aa(lp728
(lp729
a(lp730
a(lp731
a(lp732
aa(lp733
(lp734
a(lp735
a(lp736
a(lp737
aa(lp738
(lp739
a(lp740
a(lp741
a(lp742
aa(lp743
(lp744
a(lp745
a(lp746
a(lp747
aa(lp748
(lp749
a(lp750
a(lp751
a(lp752
aa(lp753
(lp754
a(lp755
a(lp756
a(lp757
aa(lp758
(lp759
a(lp760
a(lp761
a(lp762
aa(lp763
(lp764
a(lp765
a(lp766
a(lp767
aa(lp768
(lp769
a(lp770
a(lp771
a(lp772
aa(lp773
(lp774
a(lp775
a(lp776
a(lp777
aa(lp778
(lp779
a(lp780
a(lp781
a(lp782
aa(lp783
(lp784
a(lp785
a(lp786
a(lp787
aa(lp788
(lp789
a(lp790
a(lp791
a(lp792
aa(lp793
(lp794
a(lp795
a(lp796
a(lp797
aa(lp798
(lp799
a(lp800
a(lp801
a(lp802
aa(lp803
(lp804
a(lp805
a(lp806
a(lp807
aa(lp808
(lp809
a(lp810
a(lp811
a(lp812
aa(lp813
(lp814
a(lp815
a(lp816
a(lp817
aa(lp818
(lp819
a(lp820
a(lp821
a(lp822
aa(lp823
(lp824
a(lp825
a(lp826
a(lp827
aa(lp828
(lp829
a(lp830
a(lp831
a(lp832
aa(lp833
(lp834
a(lp835
a(lp836
a(lp837
aa(lp838
(lp839
a(lp840
a(lp841
a(lp842
aa(lp843
(lp844
a(lp845
a(lp846
a(lp847
aa(lp848
(lp849
a(lp850
a(lp851
a(lp852
aa(lp853
(lp854
a(lp855
a(lp856
a(lp857
aa(lp858
(lp859
a(lp860
a(lp861
a(lp862
aa(lp863
(lp864
((lp865
Vhttp://www.w3.org/2002/07/owl#Thing
p866
aVhttp://dbpedia.org/ontology/Company
p867
aVhttp://dbpedia.org/ontology/Publisher
p868
aVhttp://www.ontologydesignpatterns.org/ont/dul/DUL.owl#Agent
p869
aVhttp://www.ontologydesignpatterns.org/ont/dul/DUL.owl#SocialPerson
p870
aVhttp://www.wikidata.org/entity/Q43229
p871
aVhttp://dbpedia.org/ontology/Agent
p872
aVhttp://dbpedia.org/ontology/Organisation
p873
aVhttp://schema.org/Organization
p874
aVhttp://dbpedia.org/class/yago/Abstraction100002137
p875
aVhttp://dbpedia.org/class/yago/Business108061042
p876
aVhttp://dbpedia.org/class/yago/Enterprise108056231
p877
aVhttp://dbpedia.org/class/yago/Firm108059870
p878
aVhttp://dbpedia.org/class/yago/Group100031264
p879
aVhttp://dbpedia.org/class/yago/Organization108008335
p880
aVhttp://dbpedia.org/class/yago/Publisher108062623
p881
aVhttp://dbpedia.org/class/yago/SocialGroup107950920
p882
aVhttp://dbpedia.org/class/yago/YagoLegalActorGeo
p883
aVhttp://dbpedia.org/class/yago/YagoPermanentlyLocatedEntity
p884
aVhttp://dbpedia.org/class/yago/YagoLegalActor
p885
aVhttp://dbpedia.org/class/yago/PublishingCompaniesEstablishedIn1925
p886
aVhttp://dbpedia.org/resource/Viking_Press
tp887
aa(lp888
a(lp889
a(lp890
aa(lp891
(lp892
a(lp893
a(lp894
a(lp895
aa(lp896
(lp897
a(lp898
a(lp899
a(lp900
aa(lp901
(lp902
a(lp903
a(lp904
a(lp905
aa(lp906
(lp907
a(lp908
a(lp909
a(lp910
aa(lp911
(lp912
a(lp913
a(lp914
a(lp915
aa(lp916
(lp917
a(lp918
a(lp919
a(lp920
aa(lp921
(lp922
a(lp923
a(lp924
a(lp925
aa(lp926
(lp927
a(lp928
a(lp929
a(lp930
aa(lp931
(lp932
a(lp933
a(lp934
a(lp935
aa(lp936
(lp937
a(lp938
a(lp939
a(lp940
aa(lp941
(lp942
a(lp943
a(lp944
a(lp945
aa(lp946
(lp947
a(lp948
a(lp949
a(lp950
aa(lp951
(lp952
a(lp953
a(lp954
a(lp955
aa(lp956
(lp957
a(lp958
a(lp959
a(lp960
aa(lp961
(lp962
a(lp963
a(lp964
a(lp965
aa(lp966
(lp967
a(lp968
a(lp969
a(lp970
aa(lp971
(lp972
a(lp973
a(lp974
a(lp975
aa(lp976
(lp977
a(lp978
a(lp979
a(lp980
aa(lp981
(lp982
a(lp983
a(lp984
a(lp985
aa(lp986
(lp987
a(lp988
a(lp989
a(lp990
aa(lp991
(lp992
a(lp993
a(lp994
a(lp995
aa(lp996
(lp997
((lp998
Vhttp://www.w3.org/2002/07/owl#Thing
p999
aVhttp://dbpedia.org/ontology/Place
p1000
aVhttp://dbpedia.org/ontology/Location
p1001
aVhttp://www.wikidata.org/entity/Q4022
p1002
aVhttp://www.wikidata.org/entity/Q47521
p1003
aVhttp://dbpedia.org/ontology/BodyOfWater
p1004
aVhttp://dbpedia.org/ontology/NaturalPlace
p1005
aVhttp://dbpedia.org/ontology/River
p1006
aVhttp://dbpedia.org/ontology/Stream
p1007
aVhttp://www.w3.org/2003/01/geo/wgs84_pos#SpatialThing
p1008
aVhttp://schema.org/BodyOfWater
p1009
aVhttp://schema.org/Place
p1010
aVhttp://schema.org/RiverBodyOfWater
p1011
aVhttp://dbpedia.org/resource/River_Otter
tp1012
aa(lp1013
a(lp1014
a(lp1015
aa(lp1016
(lp1017
a(lp1018
a(lp1019
a(lp1020
aa(lp1021
(lp1022
a(lp1023
a(lp1024
a(lp1025
aa(lp1026
(lp1027
a(lp1028
a(lp1029
a(lp1030
aa(lp1031
(lp1032
a(lp1033
a(lp1034
a(lp1035
aa(lp1036
(lp1037
a(lp1038
a(lp1039
a(lp1040
aa(lp1041
(lp1042
a(lp1043
a(lp1044
a(lp1045
aa(lp1046
(lp1047
a(lp1048
a(lp1049
a(lp1050
aa(lp1051
(lp1052
a(lp1053
a(lp1054
a(lp1055
aa(lp1056
(lp1057
a(lp1058
a(lp1059
a(lp1060
aa(lp1061
(lp1062
a(lp1063
a(lp1064
a(lp1065
aa(lp1066
(lp1067
a(lp1068
a(lp1069
a(lp1070
aa(lp1071
(lp1072
a(lp1073
a(lp1074
a(lp1075
aa(lp1076
(lp1077
a(lp1078
a(lp1079
a(lp1080
aa(lp1081
(lp1082
a(lp1083
a(lp1084
a(lp1085
aa(lp1086
(lp1087
a(lp1088
a(lp1089
a(lp1090
aa(lp1091
(lp1092
a(lp1093
a(lp1094
a(lp1095
aa(lp1096
(lp1097
a(lp1098
a(lp1099
a(lp1100
aa(lp1101
(lp1102
a(lp1103
a(lp1104
a(lp1105
aa(lp1106
(lp1107
a(lp1108
a(lp1109
a(lp1110
aa(lp1111
(lp1112
a(lp1113
a(lp1114
a(lp1115
aa(lp1116
(lp1117
a(lp1118
a(lp1119
a(lp1120
aa(lp1121
(lp1122
a(lp1123
a(lp1124
a(lp1125
aa(lp1126
(lp1127
a(lp1128
a(lp1129
a(lp1130
aa(lp1131
(lp1132
a(lp1133
a(lp1134
a(lp1135
aa(lp1136
(lp1137
a(lp1138
a(lp1139
a(lp1140
aa(lp1141
(lp1142
a(lp1143
a(lp1144
a(lp1145
aa(lp1146
(lp1147
a(lp1148
a(lp1149
a(lp1150
aa(lp1151
(lp1152
a(lp1153
a(lp1154
a(lp1155
aa(lp1156
(lp1157
a(lp1158
a(lp1159
a(lp1160
aa(lp1161
(lp1162
a(lp1163
a(lp1164
a(lp1165
aa(lp1166
(lp1167
a(lp1168
a(lp1169
a(lp1170
aa(lp1171
(lp1172
a(lp1173
a(lp1174
a(lp1175
aa(lp1176
(lp1177
a(lp1178
a(lp1179
a(lp1180
aa(lp1181
(lp1182
a(lp1183
a(lp1184
a(lp1185
aa(lp1186
(lp1187
a(lp1188
a(lp1189
a(lp1190
aa(lp1191
(lp1192
a(lp1193
a(lp1194
a(lp1195
aa(lp1196
(lp1197
a(lp1198
a(lp1199
a(lp1200
aa(lp1201
(lp1202
a(lp1203
a(lp1204
a(lp1205
aa(lp1206
(lp1207
a(lp1208
a(lp1209
a(lp1210
aa(lp1211
(lp1212
a(lp1213
a(lp1214
a(lp1215
aa(lp1216
(lp1217
a(lp1218
a(lp1219
a(lp1220
aa(lp1221
(lp1222
a(lp1223
a(lp1224
a(lp1225
aa(lp1226
(lp1227
a(lp1228
a(lp1229
a(lp1230
aa(lp1231
(lp1232
a(lp1233
a(lp1234
a(lp1235
aa(lp1236
(lp1237
a(lp1238
a(lp1239
a(lp1240
aa(lp1241
(lp1242
a(lp1243
a(lp1244
a(lp1245
aa(lp1246
(lp1247
a(lp1248
a(lp1249
a(lp1250
aa(lp1251
(lp1252
a(lp1253
a(lp1254
a(lp1255
aa(lp1256
(lp1257
a(lp1258
a(lp1259
a(lp1260
aa(lp1261
(lp1262
a(lp1263
a(lp1264
a(lp1265
aa(lp1266
(lp1267
a(lp1268
a(lp1269
a(lp1270
aa(lp1271
(lp1272
a(lp1273
a(lp1274
a(lp1275
aa(lp1276
(lp1277
a(lp1278
a(lp1279
a(lp1280
aa(lp1281
(lp1282
a(lp1283
a(lp1284
a(lp1285
aa(lp1286
(lp1287
a(lp1288
a(lp1289
a(lp1290
aa(lp1291
(lp1292
a(lp1293
a(lp1294
a(lp1295
aa(lp1296
(lp1297
((lVhttp://dbpedia.org/resource/Zooplankton
p1298
tp1299
aa(lp1300
a(lp1301
a(lp1302
aa.