(lp1
(lp2
(lp3
a(lp4
a(lp5
a(lp6
a(lp7
a(lp8
a(lp9
a(lp10
a(lp11
a(lp12
a(lp13
((lp14
Vhttp://www.w3.org/2003/01/geo/wgs84_pos#SpatialThing
p15
aVhttp://dbpedia.org/resource/Allah_Valley
p16
tp17
aa(lp18
a(lp19
a(lp20
a(lp21
a(lp22
a(lp23
a(lp24
a(lp25
aa.