(lp1
(lp2
(lp3
a(lp4
a(lp5
aa(lp6
(lp7
a(lp8
a(lp9
aa(lp10
(lp11
Vhttp://dbpedia.org/resource/Diwakar_Vaish
p12
aa(lp13
a(lp14
aa(lp15
(lp16
a(lp17
a(lp18
aa(lp19
(lp20
a(lp21
a(lp22
aa(lp23
(lp24
a(lp25
a(lp26
aa(lp27
(lp28
a(lp29
a(lp30
aa(lp31
(lp32
a(lp33
a(lp34
aa(lp35
(lp36
a(lp37
a(lp38
aa(lp39
(lp40
a(lp41
a(lp42
aa(lp43
(lp44
a(lp45
a(lp46
aa(lp47
(lp48
a(lp49
a(lp50
aa(lp51
(lp52
Vhttp://dbpedia.org/resource/Donchristian
p53
aa(lp54
a(lp55
aa(lp56
(lp57
Vhttp://dbpedia.org/resource/Donnya_Piggott
p58
aa(lp59
a(lp60
Vhttp://dbpedia.org/resource/United_States_Navy_Facility,_Barbados
p61
aaa(lp62
(lp63
Vhttp://dbpedia.org/resource/Dorothy_Patterson
p64
aa(lp65
a(lp66
aa(lp67
(lp68
Vhttp://dbpedia.org/resource/Doug_Armstrong_(presenter)
p69
aa(lp70
a(lp71
aa.