(lp1
(lp2
(dp3
Vstart
p4
I0
sVdisambiguatedURL
p5
NsVnamedEntity
p6
V
sVoffset
p7
I0
saa(lp8
(dp9
Vstart
p10
I0
sVdisambiguatedURL
p11
NsVnamedEntity
p12
Vmauritius
p13
sVoffset
p14
I9
saa(lp15
(dp16
Vstart
p17
I0
sVdisambiguatedURL
p18
NsVnamedEntity
p19
Vmayotte (fr.)
p20
sVoffset
p21
I13
saa(lp22
(dp23
Vstart
p24
I0
sVdisambiguatedURL
p25
NsVnamedEntity
p26
Vreunion (fr.)
p27
sVoffset
p28
I13
saa(lp29
(dp30
Vstart
p31
I0
sVdisambiguatedURL
p32
NsVnamedEntity
p33
Vcomoros
p34
sVoffset
p35
I7
saa(lp36
(dp37
Vstart
p38
I0
sVdisambiguatedURL
p39
NsVnamedEntity
p40
Vrwanda
p41
sVoffset
p42
I6
saa(lp43
(dp44
Vstart
p45
I0
sVdisambiguatedURL
p46
NsVnamedEntity
p47
Vburundi
p48
sVoffset
p49
I7
saa(lp50
(dp51
Vstart
p52
I0
sVdisambiguatedURL
p53
NsVnamedEntity
p54
Vseychelles
p55
sVoffset
p56
I10
saa(lp57
(dp58
Vstart
p59
I0
sVdisambiguatedURL
p60
NsVnamedEntity
p61
Vs\ufffdo tom\ufffd and pr\ufffdncipe
p62
sVoffset
p63
I21
saa(lp64
(dp65
Vstart
p66
I0
sVdisambiguatedURL
p67
NsVnamedEntity
p68
Vnigeria
p69
sVoffset
p70
I7
saa(lp71
(dp72
Vstart
p73
I0
sVdisambiguatedURL
p74
NsVnamedEntity
p75
Vgambia
p76
sVoffset
p77
I6
saa(lp78
(dp79
Vstart
p80
I0
sVdisambiguatedURL
p81
NsVnamedEntity
p82
Vuganda
p83
sVoffset
p84
I6
saa(lp85
(dp86
Vstart
p87
I0
sVdisambiguatedURL
p88
NsVnamedEntity
p89
Vcape verde
p90
sVoffset
p91
I10
saa(lp92
(dp93
Vstart
p94
I0
sVdisambiguatedURL
p95
NsVnamedEntity
p96
Vtogo
p97
sVoffset
p98
I4
saa(lp99
(dp100
Vstart
p101
I0
sVdisambiguatedURL
p102
NsVnamedEntity
p103
Vmalawi
p104
sVoffset
p105
I6
saa(lp106
(dp107
Vstart
p108
I0
sVdisambiguatedURL
p109
NsVnamedEntity
p110
Vghana
p111
sVoffset
p112
I5
saa(lp113
(dp114
Vstart
p115
I0
sVdisambiguatedURL
p116
Vhttp://dbpedia.org/resource/Sierra_Leone
p117
sVnamedEntity
p118
Vsierra leone
p119
sVoffset
p120
I12
saa(lp121
(dp122
Vstart
p123
I0
sVdisambiguatedURL
p124
NsVnamedEntity
p125
Vlesotho
p126
sVoffset
p127
I7
saa(lp128
(dp129
Vstart
p130
I0
sVdisambiguatedURL
p131
NsVnamedEntity
p132
Vegypt
p133
sVoffset
p134
I5
saa(lp135
(dp136
Vstart
p137
I0
sVdisambiguatedURL
p138
NsVnamedEntity
p139
Vmorocco (excluding western sahara)
p140
sVoffset
p141
I34
saa.