(lp1
(lp2
(lp3
Vhttp://dbpedia.org/resource/Austria
p4
aa(lp5
Vhttp://dbpedia.org/resource/Fort_Lauderdale_Executive_Airport
p6
aa(lp7
aa(lp8
(lp9
Vhttp://dbpedia.org/resource/Australia
p10
aa(lp11
a(lp12
aa(lp13
(lp14
Vhttp://dbpedia.org/resource/Belgium
p15
aa(lp16
Vhttp://dbpedia.org/resource/Fort_Lauderdale_Executive_Airport
p17
aa(lp18
aa(lp19
(lp20
Vhttp://dbpedia.org/resource/Brazil
p21
aa(lp22
Vhttp://dbpedia.org/resource/Jet_Aviation
p23
aa(lp24
aa(lp25
(lp26
Vhttp://dbpedia.org/resource/Canada
p27
aa(lp28
Vhttp://dbpedia.org/resource/Foreign_Exchange_Committee
p29
aa(lp30
aa(lp31
(lp32
Vhttp://dbpedia.org/resource/Switzerland
p33
aa(lp34
a(lp35
aa(lp36
(lp37
Vhttp://dbpedia.org/resource/China
p38
aa(lp39
Vhttp://dbpedia.org/resource/Charles_Kirkconnell_International_Airport
p40
aa(lp41
aa(lp42
(lp43
Vhttp://dbpedia.org/resource/Germany
p44
aa(lp45
Vhttp://dbpedia.org/resource/Fort_Lauderdale_Executive_Airport
p46
aa(lp47
aa(lp48
(lp49
Vhttp://dbpedia.org/resource/Spain
p50
aa(lp51
Vhttp://dbpedia.org/resource/Fort_Lauderdale_Executive_Airport
p52
aa(lp53
aa(lp54
(lp55
Vhttp://dbpedia.org/resource/France_2
p56
aa(lp57
Vhttp://dbpedia.org/resource/Fort_Lauderdale_Executive_Airport
p58
aa(lp59
aa(lp60
(lp61
Vhttp://dbpedia.org/resource/Captain_Britain
p62
aa(lp63
a(lp64
aa(lp65
(lp66
Vhttp://dbpedia.org/resource/India
p67
aa(lp68
Vhttp://dbpedia.org/resource/Iowa_Communications_Network
p69
aa(lp70
aa(lp71
(lp72
Vhttp://dbpedia.org/resource/Italy
p73
aa(lp74
Vhttp://dbpedia.org/resource/Fort_Lauderdale_Executive_Airport
p75
aa(lp76
aa(lp77
(lp78
Vhttp://dbpedia.org/resource/Japan
p79
aa(lp80
a(lp81
aa(lp82
(lp83
a(lp84
Vhttp://dbpedia.org/resource/FXM
p85
aa(lp86
aa(lp87
(lp88
Vhttp://dbpedia.org/resource/Netherlands
p89
aa(lp90
Vhttp://dbpedia.org/resource/Fort_Lauderdale_Executive_Airport
p91
aa(lp92
aa(lp93
(lp94
Vhttp://dbpedia.org/resource/New_Zealand
p95
aa(lp96
Vhttp://dbpedia.org/resource/Bank_of_New_Zealand
p97
aa(lp98
aa(lp99
(lp100
Vhttp://dbpedia.org/resource/Poland
p101
aa(lp102
Vhttp://dbpedia.org/resource/Fort_Lauderdale_Executive_Airport
p103
aa(lp104
aa(lp105
(lp106
Vhttp://dbpedia.org/resource/Russia
p107
aa(lp108
a(lp109
aa(lp110
(lp111
Vhttp://dbpedia.org/resource/Sweden
p112
aa(lp113
a(lp114
aa.