(lp1
(lp2
(dp3
Vstart
p4
I0
sVdisambiguatedURL
p5
Vhttp://dbpedia.org/resource/Path_(computing)
p6
sVnamedEntity
p7
VPath (computing)
p8
sVoffset
p9
I16
saa(lp10
(dp11
Vstart
p12
I0
sVdisambiguatedURL
p13
Vhttp://dbpedia.org/resource/Domain_name
p14
sVnamedEntity
p15
VDomain name
p16
sVoffset
p17
I11
saa(lp18
(dp19
Vstart
p20
I0
sVdisambiguatedURL
p21
NsVnamedEntity
p22
VC++
p23
sVoffset
p24
I3
saa(lp25
(dp26
Vstart
p27
I0
sVdisambiguatedURL
p28
Vhttp://dbpedia.org/resource/UN/LOCODE
p29
sVnamedEntity
p30
VLOCODE
p31
sVoffset
p32
I9
saa(lp33
(dp34
Vstart
p35
I0
sVdisambiguatedURL
p36
Vhttp://dbpedia.org/resource/XML
p37
sVnamedEntity
p38
VXML
p39
sVoffset
p40
I3
saa(lp41
(dp42
Vstart
p43
I0
sVdisambiguatedURL
p44
NsVnamedEntity
p45
VUniform resource name (URN)
p46
sVoffset
p47
I27
saa(lp48
(dp49
Vstart
p50
I0
sVdisambiguatedURL
p51
Vhttp://dbpedia.org/resource/Handle_System
p52
sVnamedEntity
p53
VHandle System
p54
sVoffset
p55
I13
saa(lp56
(dp57
Vstart
p58
I0
sVdisambiguatedURL
p59
Vhttp://dbpedia.org/resource/Digital_object_identifier
p60
sVnamedEntity
p61
VDigital object identifier
p62
sVoffset
p63
I25
saa.