(lp1
(lp2
(lp3
a(lp4
((lp5
Vhttp://www.w3.org/2002/07/owl#Thing
p6
aVhttp://dbpedia.org/ontology/Place
p7
aVhttp://dbpedia.org/ontology/Location
p8
aVhttp://www.wikidata.org/entity/Q486972
p9
aVhttp://dbpedia.org/ontology/PopulatedPlace
p10
aVhttp://dbpedia.org/ontology/Settlement
p11
aVhttp://www.w3.org/2003/01/geo/wgs84_pos#SpatialThing
p12
aVhttp://schema.org/Place
p13
aVhttp://umbel.org/umbel/rc/Location_Underspecified
p14
aVhttp://umbel.org/umbel/rc/PopulatedPlace
p15
aVhttp://umbel.org/umbel/rc/Village
p16
aVhttp://dbpedia.org/class/yago/AdministrativeDistrict108491826
p17
aVhttp://dbpedia.org/class/yago/AncientCities
p18
aVhttp://dbpedia.org/class/yago/Area108497294
p19
aVhttp://dbpedia.org/class/yago/Capital108518505
p20
aVhttp://dbpedia.org/class/yago/CapitalsInEurope
p21
aVhttp://dbpedia.org/class/yago/Center108523483
p22
aVhttp://dbpedia.org/class/yago/City108524735
p23
aVhttp://dbpedia.org/class/yago/District108552138
p24
aVhttp://dbpedia.org/class/yago/Location100027167
p25
aVhttp://dbpedia.org/class/yago/Object100002684
p26
aVhttp://dbpedia.org/class/yago/Region108630985
p27
aVhttp://dbpedia.org/class/yago/Seat108647945
p28
aVhttp://dbpedia.org/class/yago/Site108651247
p29
aVhttp://dbpedia.org/class/yago/Tract108673395
p30
aVhttp://dbpedia.org/class/yago/UrbanArea108675967
p31
aVhttp://dbpedia.org/class/yago/YagoGeoEntity
p32
aVhttp://dbpedia.org/class/yago/YagoLegalActorGeo
p33
aVhttp://dbpedia.org/class/yago/GeographicalArea108574314
p34
aVhttp://dbpedia.org/class/yago/Municipality108626283
p35
aVhttp://dbpedia.org/class/yago/PhysicalEntity100001930
p36
aVhttp://dbpedia.org/class/yago/YagoPermanentlyLocatedEntity
p37
aVhttp://dbpedia.org/class/yago/HolyCities
p38
aVhttp://dbpedia.org/class/yago/HostCitiesOfTheSummerOlympicGames
p39
aVhttp://dbpedia.org/class/yago/PopulatedPlacesEstablishedInThe8thCenturyBC
p40
aVhttp://dbpedia.org/resource/Rome
tp41
aa(lp42
aa(lp43
(lp44
a(lp45
((lp46
Vhttp://www.w3.org/2002/07/owl#Thing
p47
aVhttp://dbpedia.org/ontology/Place
p48
aVhttp://dbpedia.org/ontology/Location
p49
aVhttp://www.wikidata.org/entity/Q486972
p50
aVhttp://dbpedia.org/ontology/PopulatedPlace
p51
aVhttp://dbpedia.org/ontology/Settlement
p52
aVhttp://www.w3.org/2003/01/geo/wgs84_pos#SpatialThing
p53
aVhttp://schema.org/Place
p54
aVhttp://umbel.org/umbel/rc/Location_Underspecified
p55
aVhttp://umbel.org/umbel/rc/PopulatedPlace
p56
aVhttp://umbel.org/umbel/rc/Village
p57
aVhttp://dbpedia.org/class/yago/AdministrativeDistrict108491826
p58
aVhttp://dbpedia.org/class/yago/AncientCities
p59
aVhttp://dbpedia.org/class/yago/Area108497294
p60
aVhttp://dbpedia.org/class/yago/Capital108518505
p61
aVhttp://dbpedia.org/class/yago/CapitalsInEurope
p62
aVhttp://dbpedia.org/class/yago/Center108523483
p63
aVhttp://dbpedia.org/class/yago/City108524735
p64
aVhttp://dbpedia.org/class/yago/District108552138
p65
aVhttp://dbpedia.org/class/yago/Location100027167
p66
aVhttp://dbpedia.org/class/yago/Object100002684
p67
aVhttp://dbpedia.org/class/yago/Region108630985
p68
aVhttp://dbpedia.org/class/yago/Seat108647945
p69
aVhttp://dbpedia.org/class/yago/Site108651247
p70
aVhttp://dbpedia.org/class/yago/Tract108673395
p71
aVhttp://dbpedia.org/class/yago/UrbanArea108675967
p72
aVhttp://dbpedia.org/class/yago/YagoGeoEntity
p73
aVhttp://dbpedia.org/class/yago/YagoLegalActorGeo
p74
aVhttp://dbpedia.org/class/yago/GeographicalArea108574314
p75
aVhttp://dbpedia.org/class/yago/Municipality108626283
p76
aVhttp://dbpedia.org/class/yago/PhysicalEntity100001930
p77
aVhttp://dbpedia.org/class/yago/YagoPermanentlyLocatedEntity
p78
aVhttp://dbpedia.org/class/yago/HolyCities
p79
aVhttp://dbpedia.org/class/yago/HostCitiesOfTheSummerOlympicGames
p80
aVhttp://dbpedia.org/class/yago/PopulatedPlacesEstablishedInThe8thCenturyBC
p81
aVhttp://dbpedia.org/resource/Rome
tp82
aa(lp83
aa(lp84
(lp85
a(lp86
((lp87
Vhttp://www.w3.org/2002/07/owl#Thing
p88
aVhttp://dbpedia.org/ontology/Place
p89
aVhttp://dbpedia.org/ontology/Location
p90
aVhttp://www.wikidata.org/entity/Q486972
p91
aVhttp://www.wikidata.org/entity/Q6256
p92
aVhttp://dbpedia.org/ontology/Country
p93
aVhttp://dbpedia.org/ontology/PopulatedPlace
p94
aVhttp://www.w3.org/2003/01/geo/wgs84_pos#SpatialThing
p95
aVhttp://schema.org/Country
p96
aVhttp://schema.org/Place
p97
aVhttp://umbel.org/umbel/rc/Country
p98
aVhttp://umbel.org/umbel/rc/Location_Underspecified
p99
aVhttp://umbel.org/umbel/rc/PopulatedPlace
p100
aVhttp://dbpedia.org/class/yago/Abstraction100002137
p101
aVhttp://dbpedia.org/class/yago/AdministrativeDistrict108491826
p102
aVhttp://dbpedia.org/class/yago/AfricanCountries
p103
aVhttp://dbpedia.org/class/yago/AfricanUnionMemberEconomies
p104
aVhttp://dbpedia.org/class/yago/BantuCountriesAndTerritories
p105
aVhttp://dbpedia.org/class/yago/Country108544813
p106
aVhttp://dbpedia.org/class/yago/District108552138
p107
aVhttp://dbpedia.org/class/yago/Economy108366753
p108
aVhttp://dbpedia.org/class/yago/Group100031264
p109
aVhttp://dbpedia.org/class/yago/Location100027167
p110
aVhttp://dbpedia.org/class/yago/Object100002684
p111
aVhttp://dbpedia.org/class/yago/Region108630985
p112
aVhttp://dbpedia.org/class/yago/System108435388
p113
aVhttp://dbpedia.org/class/yago/YagoGeoEntity
p114
aVhttp://dbpedia.org/class/yago/YagoLegalActorGeo
p115
aVhttp://dbpedia.org/class/yago/English-speakingCountriesAndTerritories
p116
aVhttp://dbpedia.org/class/yago/PhysicalEntity100001930
p117
aVhttp://dbpedia.org/class/yago/YagoPermanentlyLocatedEntity
p118
aVhttp://dbpedia.org/class/yago/LandlockedCountries
p119
aVhttp://dbpedia.org/class/yago/LeastDevelopedCountries
p120
aVhttp://dbpedia.org/class/yago/MemberStatesOfTheAfricanUnion
p121
aVhttp://dbpedia.org/class/yago/MemberStatesOfTheCommonwealthOfNations
p122
aVhttp://dbpedia.org/class/yago/MemberStatesOfTheUnitedNations
p123
aVhttp://dbpedia.org/class/yago/StatesAndTerritoriesEstablishedIn1964
p124
aVhttp://dbpedia.org/class/yago/WorldTradeOrganizationMemberEconomies
p125
aVhttp://dbpedia.org/resource/Zambia
tp126
aa(lp127
((lp128
Vhttp://www.w3.org/2002/07/owl#Thing
p129
aVhttp://dbpedia.org/ontology/Place
p130
aVhttp://dbpedia.org/ontology/Location
p131
aVhttp://www.wikidata.org/entity/Q3957
p132
aVhttp://www.wikidata.org/entity/Q486972
p133
aVhttp://dbpedia.org/ontology/PopulatedPlace
p134
aVhttp://dbpedia.org/ontology/Settlement
p135
aVhttp://dbpedia.org/ontology/Town
p136
aVhttp://www.w3.org/2003/01/geo/wgs84_pos#SpatialThing
p137
aVhttp://schema.org/Place
p138
aVhttp://umbel.org/umbel/rc/Town
p139
aVhttp://dbpedia.org/class/yago/AdministrativeDistrict108491826
p140
aVhttp://dbpedia.org/class/yago/Area108497294
p141
aVhttp://dbpedia.org/class/yago/Center108523483
p142
aVhttp://dbpedia.org/class/yago/District108552138
p143
aVhttp://dbpedia.org/class/yago/Location100027167
p144
aVhttp://dbpedia.org/class/yago/Object100002684
p145
aVhttp://dbpedia.org/class/yago/Region108630985
p146
aVhttp://dbpedia.org/class/yago/Seat108647945
p147
aVhttp://dbpedia.org/class/yago/Site108651247
p148
aVhttp://dbpedia.org/class/yago/Town108665504
p149
aVhttp://dbpedia.org/class/yago/Tract108673395
p150
aVhttp://dbpedia.org/class/yago/UrbanArea108675967
p151
aVhttp://dbpedia.org/class/yago/YagoGeoEntity
p152
aVhttp://dbpedia.org/class/yago/YagoLegalActorGeo
p153
aVhttp://dbpedia.org/class/yago/CountySeat108547143
p154
aVhttp://dbpedia.org/class/yago/CountySeatsInIndiana
p155
aVhttp://dbpedia.org/class/yago/GeographicalArea108574314
p156
aVhttp://dbpedia.org/class/yago/Municipality108626283
p157
aVhttp://dbpedia.org/class/yago/PhysicalEntity100001930
p158
aVhttp://dbpedia.org/class/yago/YagoPermanentlyLocatedEntity
p159
aVhttp://dbpedia.org/class/yago/PopulatedPlacesInCrawfordCounty,Indiana
p160
aVhttp://dbpedia.org/class/yago/TownsInIndiana
p161
aVhttp://dbpedia.org/resource/English,_Indiana
tp162
aaa(lp163
(lp164
a(lp165
((lp166
Vhttp://www.w3.org/2002/07/owl#Thing
p167
aVhttp://dbpedia.org/ontology/Place
p168
aVhttp://dbpedia.org/ontology/Location
p169
aVhttp://www.wikidata.org/entity/Q486972
p170
aVhttp://www.wikidata.org/entity/Q6256
p171
aVhttp://dbpedia.org/ontology/Country
p172
aVhttp://dbpedia.org/ontology/PopulatedPlace
p173
aVhttp://www.w3.org/2003/01/geo/wgs84_pos#SpatialThing
p174
aVhttp://schema.org/Country
p175
aVhttp://schema.org/Place
p176
aVhttp://umbel.org/umbel/rc/Country
p177
aVhttp://umbel.org/umbel/rc/Location_Underspecified
p178
aVhttp://umbel.org/umbel/rc/PopulatedPlace
p179
aVhttp://dbpedia.org/class/yago/Abstraction100002137
p180
aVhttp://dbpedia.org/class/yago/AdministrativeDistrict108491826
p181
aVhttp://dbpedia.org/class/yago/Country108544813
p182
aVhttp://dbpedia.org/class/yago/District108552138
p183
aVhttp://dbpedia.org/class/yago/Economy108366753
p184
aVhttp://dbpedia.org/class/yago/Group100031264
p185
aVhttp://dbpedia.org/class/yago/Location100027167
p186
aVhttp://dbpedia.org/class/yago/Object100002684
p187
aVhttp://dbpedia.org/class/yago/Region108630985
p188
aVhttp://dbpedia.org/class/yago/System108435388
p189
aVhttp://dbpedia.org/class/yago/YagoGeoEntity
p190
aVhttp://dbpedia.org/class/yago/YagoLegalActorGeo
p191
aVhttp://dbpedia.org/class/yago/CountriesBorderingTheAtlanticOcean
p192
aVhttp://dbpedia.org/class/yago/Dutch-speakingCountries
p193
aVhttp://dbpedia.org/class/yago/EuropeanCountries
p194
aVhttp://dbpedia.org/class/yago/EuropeanUnionMemberEconomies
p195
aVhttp://dbpedia.org/class/yago/FederalCountries
p196
aVhttp://dbpedia.org/class/yago/French-speakingCountries
p197
aVhttp://dbpedia.org/class/yago/PhysicalEntity100001930
p198
aVhttp://dbpedia.org/class/yago/YagoPermanentlyLocatedEntity
p199
aVhttp://dbpedia.org/class/yago/German-speakingCountries
p200
aVhttp://dbpedia.org/class/yago/MemberStatesOfLaFrancophonie
p201
aVhttp://dbpedia.org/class/yago/MemberStatesOfNATO
p202
aVhttp://dbpedia.org/class/yago/MemberStatesOfTheCouncilOfEurope
p203
aVhttp://dbpedia.org/class/yago/MemberStatesOfTheDutchLanguageUnion
p204
aVhttp://dbpedia.org/class/yago/MemberStatesOfTheEuropeanUnion
p205
aVhttp://dbpedia.org/class/yago/MemberStatesOfTheUnionForTheMediterranean
p206
aVhttp://dbpedia.org/class/yago/MemberStatesOfTheUnitedNations
p207
aVhttp://dbpedia.org/class/yago/StatesAndTerritoriesEstablishedIn1830
p208
aVhttp://dbpedia.org/resource/Belgium
tp209
aa(lp210
aa(lp211
(lp212
a(lp213
((lp214
Vhttp://www.w3.org/2002/07/owl#Thing
p215
aVhttp://dbpedia.org/ontology/Place
p216
aVhttp://dbpedia.org/ontology/Location
p217
aVhttp://www.wikidata.org/entity/Q486972
p218
aVhttp://www.wikidata.org/entity/Q6256
p219
aVhttp://dbpedia.org/ontology/Country
p220
aVhttp://dbpedia.org/ontology/PopulatedPlace
p221
aVhttp://www.w3.org/2003/01/geo/wgs84_pos#SpatialThing
p222
aVhttp://schema.org/Country
p223
aVhttp://schema.org/Place
p224
aVhttp://umbel.org/umbel/rc/Country
p225
aVhttp://umbel.org/umbel/rc/Location_Underspecified
p226
aVhttp://umbel.org/umbel/rc/PopulatedPlace
p227
aVhttp://dbpedia.org/class/yago/Abstraction100002137
p228
aVhttp://dbpedia.org/class/yago/AdministrativeDistrict108491826
p229
aVhttp://dbpedia.org/class/yago/AfricanCountries
p230
aVhttp://dbpedia.org/class/yago/AfricanUnionMemberEconomies
p231
aVhttp://dbpedia.org/class/yago/BantuCountriesAndTerritories
p232
aVhttp://dbpedia.org/class/yago/Country108544813
p233
aVhttp://dbpedia.org/class/yago/District108552138
p234
aVhttp://dbpedia.org/class/yago/Economy108366753
p235
aVhttp://dbpedia.org/class/yago/Group100031264
p236
aVhttp://dbpedia.org/class/yago/Location100027167
p237
aVhttp://dbpedia.org/class/yago/Object100002684
p238
aVhttp://dbpedia.org/class/yago/Region108630985
p239
aVhttp://dbpedia.org/class/yago/System108435388
p240
aVhttp://dbpedia.org/class/yago/YagoGeoEntity
p241
aVhttp://dbpedia.org/class/yago/YagoLegalActorGeo
p242
aVhttp://dbpedia.org/class/yago/CountriesOfTheIndianOcean
p243
aVhttp://dbpedia.org/class/yago/English-speakingCountriesAndTerritories
p244
aVhttp://dbpedia.org/class/yago/PhysicalEntity100001930
p245
aVhttp://dbpedia.org/class/yago/YagoPermanentlyLocatedEntity
p246
aVhttp://dbpedia.org/class/yago/MemberStatesOfTheAfricanUnion
p247
aVhttp://dbpedia.org/class/yago/MemberStatesOfTheCommonwealthOfNations
p248
aVhttp://dbpedia.org/class/yago/MemberStatesOfTheUnitedNations
p249
aVhttp://dbpedia.org/class/yago/StatesAndTerritoriesEstablishedIn1963
p250
aVhttp://dbpedia.org/class/yago/Swahili-speakingCountriesAndTerritories
p251
aVhttp://dbpedia.org/class/yago/WorldTradeOrganizationMemberEconomies
p252
aVhttp://dbpedia.org/resource/Kenya
tp253
aa(lp254
((lp255
Vhttp://www.w3.org/2002/07/owl#Thing
p256
aVhttp://dbpedia.org/ontology/Place
p257
aVhttp://dbpedia.org/ontology/Location
p258
aVhttp://www.wikidata.org/entity/Q3957
p259
aVhttp://www.wikidata.org/entity/Q486972
p260
aVhttp://dbpedia.org/ontology/PopulatedPlace
p261
aVhttp://dbpedia.org/ontology/Settlement
p262
aVhttp://dbpedia.org/ontology/Town
p263
aVhttp://www.w3.org/2003/01/geo/wgs84_pos#SpatialThing
p264
aVhttp://schema.org/Place
p265
aVhttp://umbel.org/umbel/rc/Town
p266
aVhttp://dbpedia.org/class/yago/AdministrativeDistrict108491826
p267
aVhttp://dbpedia.org/class/yago/Area108497294
p268
aVhttp://dbpedia.org/class/yago/Center108523483
p269
aVhttp://dbpedia.org/class/yago/District108552138
p270
aVhttp://dbpedia.org/class/yago/Location100027167
p271
aVhttp://dbpedia.org/class/yago/Object100002684
p272
aVhttp://dbpedia.org/class/yago/Region108630985
p273
aVhttp://dbpedia.org/class/yago/Seat108647945
p274
aVhttp://dbpedia.org/class/yago/Site108651247
p275
aVhttp://dbpedia.org/class/yago/Town108665504
p276
aVhttp://dbpedia.org/class/yago/Tract108673395
p277
aVhttp://dbpedia.org/class/yago/UrbanArea108675967
p278
aVhttp://dbpedia.org/class/yago/YagoGeoEntity
p279
aVhttp://dbpedia.org/class/yago/YagoLegalActorGeo
p280
aVhttp://dbpedia.org/class/yago/CountySeat108547143
p281
aVhttp://dbpedia.org/class/yago/CountySeatsInIndiana
p282
aVhttp://dbpedia.org/class/yago/GeographicalArea108574314
p283
aVhttp://dbpedia.org/class/yago/Municipality108626283
p284
aVhttp://dbpedia.org/class/yago/PhysicalEntity100001930
p285
aVhttp://dbpedia.org/class/yago/YagoPermanentlyLocatedEntity
p286
aVhttp://dbpedia.org/class/yago/PopulatedPlacesInCrawfordCounty,Indiana
p287
aVhttp://dbpedia.org/class/yago/TownsInIndiana
p288
aVhttp://dbpedia.org/resource/English,_Indiana
tp289
aaa(lp290
(lp291
a(lp292
((lp293
Vhttp://www.w3.org/2002/07/owl#Thing
p294
aVhttp://dbpedia.org/ontology/Place
p295
aVhttp://dbpedia.org/ontology/Location
p296
aVhttp://www.wikidata.org/entity/Q486972
p297
aVhttp://www.wikidata.org/entity/Q6256
p298
aVhttp://dbpedia.org/ontology/Country
p299
aVhttp://dbpedia.org/ontology/PopulatedPlace
p300
aVhttp://www.w3.org/2003/01/geo/wgs84_pos#SpatialThing
p301
aVhttp://schema.org/Country
p302
aVhttp://schema.org/Place
p303
aVhttp://umbel.org/umbel/rc/Country
p304
aVhttp://umbel.org/umbel/rc/Location_Underspecified
p305
aVhttp://umbel.org/umbel/rc/PopulatedPlace
p306
aVhttp://dbpedia.org/class/yago/Abstraction100002137
p307
aVhttp://dbpedia.org/class/yago/AdministrativeDistrict108491826
p308
aVhttp://dbpedia.org/class/yago/AfricanCountries
p309
aVhttp://dbpedia.org/class/yago/AfricanUnionMemberEconomies
p310
aVhttp://dbpedia.org/class/yago/BantuCountriesAndTerritories
p311
aVhttp://dbpedia.org/class/yago/Country108544813
p312
aVhttp://dbpedia.org/class/yago/District108552138
p313
aVhttp://dbpedia.org/class/yago/Economy108366753
p314
aVhttp://dbpedia.org/class/yago/Group100031264
p315
aVhttp://dbpedia.org/class/yago/Location100027167
p316
aVhttp://dbpedia.org/class/yago/Object100002684
p317
aVhttp://dbpedia.org/class/yago/Region108630985
p318
aVhttp://dbpedia.org/class/yago/System108435388
p319
aVhttp://dbpedia.org/class/yago/YagoGeoEntity
p320
aVhttp://dbpedia.org/class/yago/YagoLegalActorGeo
p321
aVhttp://dbpedia.org/class/yago/English-speakingCountriesAndTerritories
p322
aVhttp://dbpedia.org/class/yago/PhysicalEntity100001930
p323
aVhttp://dbpedia.org/class/yago/YagoPermanentlyLocatedEntity
p324
aVhttp://dbpedia.org/class/yago/LandlockedCountries
p325
aVhttp://dbpedia.org/class/yago/LeastDevelopedCountries
p326
aVhttp://dbpedia.org/class/yago/MemberStatesOfTheAfricanUnion
p327
aVhttp://dbpedia.org/class/yago/MemberStatesOfTheCommonwealthOfNations
p328
aVhttp://dbpedia.org/class/yago/MemberStatesOfTheUnitedNations
p329
aVhttp://dbpedia.org/class/yago/StatesAndTerritoriesEstablishedIn1964
p330
aVhttp://dbpedia.org/class/yago/WorldTradeOrganizationMemberEconomies
p331
aVhttp://dbpedia.org/resource/Malawi
tp332
aa(lp333
((lp334
Vhttp://www.w3.org/2002/07/owl#Thing
p335
aVhttp://dbpedia.org/ontology/Place
p336
aVhttp://dbpedia.org/ontology/Location
p337
aVhttp://www.wikidata.org/entity/Q3957
p338
aVhttp://www.wikidata.org/entity/Q486972
p339
aVhttp://dbpedia.org/ontology/PopulatedPlace
p340
aVhttp://dbpedia.org/ontology/Settlement
p341
aVhttp://dbpedia.org/ontology/Town
p342
aVhttp://www.w3.org/2003/01/geo/wgs84_pos#SpatialThing
p343
aVhttp://schema.org/Place
p344
aVhttp://umbel.org/umbel/rc/Town
p345
aVhttp://dbpedia.org/class/yago/AdministrativeDistrict108491826
p346
aVhttp://dbpedia.org/class/yago/Area108497294
p347
aVhttp://dbpedia.org/class/yago/Center108523483
p348
aVhttp://dbpedia.org/class/yago/District108552138
p349
aVhttp://dbpedia.org/class/yago/Location100027167
p350
aVhttp://dbpedia.org/class/yago/Object100002684
p351
aVhttp://dbpedia.org/class/yago/Region108630985
p352
aVhttp://dbpedia.org/class/yago/Seat108647945
p353
aVhttp://dbpedia.org/class/yago/Site108651247
p354
aVhttp://dbpedia.org/class/yago/Town108665504
p355
aVhttp://dbpedia.org/class/yago/Tract108673395
p356
aVhttp://dbpedia.org/class/yago/UrbanArea108675967
p357
aVhttp://dbpedia.org/class/yago/YagoGeoEntity
p358
aVhttp://dbpedia.org/class/yago/YagoLegalActorGeo
p359
aVhttp://dbpedia.org/class/yago/CountySeat108547143
p360
aVhttp://dbpedia.org/class/yago/CountySeatsInIndiana
p361
aVhttp://dbpedia.org/class/yago/GeographicalArea108574314
p362
aVhttp://dbpedia.org/class/yago/Municipality108626283
p363
aVhttp://dbpedia.org/class/yago/PhysicalEntity100001930
p364
aVhttp://dbpedia.org/class/yago/YagoPermanentlyLocatedEntity
p365
aVhttp://dbpedia.org/class/yago/PopulatedPlacesInCrawfordCounty,Indiana
p366
aVhttp://dbpedia.org/class/yago/TownsInIndiana
p367
aVhttp://dbpedia.org/resource/English,_Indiana
tp368
aaa(lp369
(lp370
a(lp371
((lp372
Vhttp://www.w3.org/2002/07/owl#Thing
p373
aVhttp://dbpedia.org/ontology/Place
p374
aVhttp://dbpedia.org/ontology/Location
p375
aVhttp://www.wikidata.org/entity/Q486972
p376
aVhttp://www.wikidata.org/entity/Q6256
p377
aVhttp://dbpedia.org/ontology/Country
p378
aVhttp://dbpedia.org/ontology/PopulatedPlace
p379
aVhttp://www.w3.org/2003/01/geo/wgs84_pos#SpatialThing
p380
aVhttp://schema.org/Country
p381
aVhttp://schema.org/Place
p382
aVhttp://umbel.org/umbel/rc/Country
p383
aVhttp://umbel.org/umbel/rc/Location_Underspecified
p384
aVhttp://umbel.org/umbel/rc/PopulatedPlace
p385
aVhttp://dbpedia.org/class/yago/Abstraction100002137
p386
aVhttp://dbpedia.org/class/yago/AdministrativeDistrict108491826
p387
aVhttp://dbpedia.org/class/yago/Country108544813
p388
aVhttp://dbpedia.org/class/yago/District108552138
p389
aVhttp://dbpedia.org/class/yago/Economy108366753
p390
aVhttp://dbpedia.org/class/yago/Group100031264
p391
aVhttp://dbpedia.org/class/yago/Location100027167
p392
aVhttp://dbpedia.org/class/yago/Object100002684
p393
aVhttp://dbpedia.org/class/yago/Region108630985
p394
aVhttp://dbpedia.org/class/yago/System108435388
p395
aVhttp://dbpedia.org/class/yago/YagoGeoEntity
p396
aVhttp://dbpedia.org/class/yago/YagoLegalActorGeo
p397
aVhttp://dbpedia.org/class/yago/CountriesBorderingTheAtlanticOcean
p398
aVhttp://dbpedia.org/class/yago/English-speakingCountriesAndTerritories
p399
aVhttp://dbpedia.org/class/yago/EuropeanCountries
p400
aVhttp://dbpedia.org/class/yago/EuropeanUnionMemberEconomies
p401
aVhttp://dbpedia.org/class/yago/PhysicalEntity100001930
p402
aVhttp://dbpedia.org/class/yago/YagoPermanentlyLocatedEntity
p403
aVhttp://dbpedia.org/class/yago/IslandCountries
p404
aVhttp://dbpedia.org/class/yago/MemberStatesOfNATO
p405
aVhttp://dbpedia.org/class/yago/MemberStatesOfTheCommonwealthOfNations
p406
aVhttp://dbpedia.org/class/yago/MemberStatesOfTheCouncilOfEurope
p407
aVhttp://dbpedia.org/class/yago/MemberStatesOfTheEuropeanUnion
p408
aVhttp://dbpedia.org/class/yago/MemberStatesOfTheUnionForTheMediterranean
p409
aVhttp://dbpedia.org/class/yago/MemberStatesOfTheUnitedNations
p410
aVhttp://dbpedia.org/resource/United_Kingdom
tp411
aa(lp412
((lp413
Vhttp://www.w3.org/2002/07/owl#Thing
p414
aVhttp://dbpedia.org/ontology/Place
p415
aVhttp://dbpedia.org/ontology/Location
p416
aVhttp://www.wikidata.org/entity/Q3957
p417
aVhttp://www.wikidata.org/entity/Q486972
p418
aVhttp://dbpedia.org/ontology/PopulatedPlace
p419
aVhttp://dbpedia.org/ontology/Settlement
p420
aVhttp://dbpedia.org/ontology/Town
p421
aVhttp://www.w3.org/2003/01/geo/wgs84_pos#SpatialThing
p422
aVhttp://schema.org/Place
p423
aVhttp://umbel.org/umbel/rc/Town
p424
aVhttp://dbpedia.org/class/yago/AdministrativeDistrict108491826
p425
aVhttp://dbpedia.org/class/yago/Area108497294
p426
aVhttp://dbpedia.org/class/yago/Center108523483
p427
aVhttp://dbpedia.org/class/yago/District108552138
p428
aVhttp://dbpedia.org/class/yago/Location100027167
p429
aVhttp://dbpedia.org/class/yago/Object100002684
p430
aVhttp://dbpedia.org/class/yago/Region108630985
p431
aVhttp://dbpedia.org/class/yago/Seat108647945
p432
aVhttp://dbpedia.org/class/yago/Site108651247
p433
aVhttp://dbpedia.org/class/yago/Town108665504
p434
aVhttp://dbpedia.org/class/yago/Tract108673395
p435
aVhttp://dbpedia.org/class/yago/UrbanArea108675967
p436
aVhttp://dbpedia.org/class/yago/YagoGeoEntity
p437
aVhttp://dbpedia.org/class/yago/YagoLegalActorGeo
p438
aVhttp://dbpedia.org/class/yago/CountySeat108547143
p439
aVhttp://dbpedia.org/class/yago/CountySeatsInIndiana
p440
aVhttp://dbpedia.org/class/yago/GeographicalArea108574314
p441
aVhttp://dbpedia.org/class/yago/Municipality108626283
p442
aVhttp://dbpedia.org/class/yago/PhysicalEntity100001930
p443
aVhttp://dbpedia.org/class/yago/YagoPermanentlyLocatedEntity
p444
aVhttp://dbpedia.org/class/yago/PopulatedPlacesInCrawfordCounty,Indiana
p445
aVhttp://dbpedia.org/class/yago/TownsInIndiana
p446
aVhttp://dbpedia.org/resource/English,_Indiana
tp447
aaa(lp448
(lp449
a(lp450
((lp451
Vhttp://www.w3.org/2002/07/owl#Thing
p452
aVhttp://dbpedia.org/ontology/Place
p453
aVhttp://dbpedia.org/ontology/Location
p454
aVhttp://www.wikidata.org/entity/Q486972
p455
aVhttp://www.wikidata.org/entity/Q6256
p456
aVhttp://dbpedia.org/ontology/Country
p457
aVhttp://dbpedia.org/ontology/PopulatedPlace
p458
aVhttp://www.w3.org/2003/01/geo/wgs84_pos#SpatialThing
p459
aVhttp://schema.org/Country
p460
aVhttp://schema.org/Place
p461
aVhttp://umbel.org/umbel/rc/Country
p462
aVhttp://umbel.org/umbel/rc/Location_Underspecified
p463
aVhttp://umbel.org/umbel/rc/PopulatedPlace
p464
aVhttp://dbpedia.org/class/yago/Abstraction100002137
p465
aVhttp://dbpedia.org/class/yago/AdministrativeDistrict108491826
p466
aVhttp://dbpedia.org/class/yago/Country108544813
p467
aVhttp://dbpedia.org/class/yago/District108552138
p468
aVhttp://dbpedia.org/class/yago/Economy108366753
p469
aVhttp://dbpedia.org/class/yago/Group100031264
p470
aVhttp://dbpedia.org/class/yago/Location100027167
p471
aVhttp://dbpedia.org/class/yago/Object100002684
p472
aVhttp://dbpedia.org/class/yago/Region108630985
p473
aVhttp://dbpedia.org/class/yago/System108435388
p474
aVhttp://dbpedia.org/class/yago/YagoGeoEntity
p475
aVhttp://dbpedia.org/class/yago/YagoLegalActorGeo
p476
aVhttp://dbpedia.org/class/yago/CountriesBorderingTheBalticSea
p477
aVhttp://dbpedia.org/class/yago/EuropeanCountries
p478
aVhttp://dbpedia.org/class/yago/EuropeanUnionMemberEconomies
p479
aVhttp://dbpedia.org/class/yago/PhysicalEntity100001930
p480
aVhttp://dbpedia.org/class/yago/YagoPermanentlyLocatedEntity
p481
aVhttp://dbpedia.org/class/yago/MemberStatesOfNATO
p482
aVhttp://dbpedia.org/class/yago/MemberStatesOfTheEuropeanUnion
p483
aVhttp://dbpedia.org/class/yago/MemberStatesOfTheUnionForTheMediterranean
p484
aVhttp://dbpedia.org/class/yago/MemberStatesOfTheUnitedNations
p485
aVhttp://dbpedia.org/class/yago/SlavicCountries
p486
aVhttp://dbpedia.org/class/yago/StatesAndTerritoriesEstablishedIn1918
p487
aVhttp://dbpedia.org/class/yago/WorldTradeOrganizationMemberEconomies
p488
aVhttp://dbpedia.org/resource/Poland
tp489
aa(lp490
((lp491
Vhttp://www.w3.org/2002/07/owl#Thing
p492
aVhttp://dbpedia.org/resource/Polish_cuisine
tp493
aaa(lp494
(lp495
a(lp496
((lp497
Vhttp://www.w3.org/2002/07/owl#Thing
p498
aVhttp://dbpedia.org/ontology/Place
p499
aVhttp://dbpedia.org/ontology/Location
p500
aVhttp://www.wikidata.org/entity/Q486972
p501
aVhttp://www.wikidata.org/entity/Q6256
p502
aVhttp://dbpedia.org/ontology/Country
p503
aVhttp://dbpedia.org/ontology/PopulatedPlace
p504
aVhttp://www.w3.org/2003/01/geo/wgs84_pos#SpatialThing
p505
aVhttp://schema.org/Country
p506
aVhttp://schema.org/Place
p507
aVhttp://umbel.org/umbel/rc/Country
p508
aVhttp://umbel.org/umbel/rc/Location_Underspecified
p509
aVhttp://umbel.org/umbel/rc/PopulatedPlace
p510
aVhttp://dbpedia.org/class/yago/Abstraction100002137
p511
aVhttp://dbpedia.org/class/yago/AdministrativeDistrict108491826
p512
aVhttp://dbpedia.org/class/yago/Country108544813
p513
aVhttp://dbpedia.org/class/yago/District108552138
p514
aVhttp://dbpedia.org/class/yago/Economy108366753
p515
aVhttp://dbpedia.org/class/yago/Group100031264
p516
aVhttp://dbpedia.org/class/yago/Location100027167
p517
aVhttp://dbpedia.org/class/yago/Object100002684
p518
aVhttp://dbpedia.org/class/yago/Region108630985
p519
aVhttp://dbpedia.org/class/yago/System108435388
p520
aVhttp://dbpedia.org/class/yago/YagoGeoEntity
p521
aVhttp://dbpedia.org/class/yago/YagoLegalActorGeo
p522
aVhttp://dbpedia.org/class/yago/CountriesBorderingTheAtlanticOcean
p523
aVhttp://dbpedia.org/class/yago/English-speakingCountriesAndTerritories
p524
aVhttp://dbpedia.org/class/yago/EuropeanCountries
p525
aVhttp://dbpedia.org/class/yago/EuropeanUnionMemberEconomies
p526
aVhttp://dbpedia.org/class/yago/PhysicalEntity100001930
p527
aVhttp://dbpedia.org/class/yago/YagoPermanentlyLocatedEntity
p528
aVhttp://dbpedia.org/class/yago/IslandCountries
p529
aVhttp://dbpedia.org/class/yago/MemberStatesOfNATO
p530
aVhttp://dbpedia.org/class/yago/MemberStatesOfTheCommonwealthOfNations
p531
aVhttp://dbpedia.org/class/yago/MemberStatesOfTheCouncilOfEurope
p532
aVhttp://dbpedia.org/class/yago/MemberStatesOfTheEuropeanUnion
p533
aVhttp://dbpedia.org/class/yago/MemberStatesOfTheUnionForTheMediterranean
p534
aVhttp://dbpedia.org/class/yago/MemberStatesOfTheUnitedNations
p535
aVhttp://dbpedia.org/resource/United_Kingdom
tp536
aa(lp537
((lp538
Vhttp://www.w3.org/2002/07/owl#Thing
p539
aVhttp://dbpedia.org/ontology/Place
p540
aVhttp://dbpedia.org/ontology/Location
p541
aVhttp://www.wikidata.org/entity/Q3957
p542
aVhttp://www.wikidata.org/entity/Q486972
p543
aVhttp://dbpedia.org/ontology/PopulatedPlace
p544
aVhttp://dbpedia.org/ontology/Settlement
p545
aVhttp://dbpedia.org/ontology/Town
p546
aVhttp://www.w3.org/2003/01/geo/wgs84_pos#SpatialThing
p547
aVhttp://schema.org/Place
p548
aVhttp://umbel.org/umbel/rc/Town
p549
aVhttp://dbpedia.org/class/yago/AdministrativeDistrict108491826
p550
aVhttp://dbpedia.org/class/yago/Area108497294
p551
aVhttp://dbpedia.org/class/yago/Center108523483
p552
aVhttp://dbpedia.org/class/yago/District108552138
p553
aVhttp://dbpedia.org/class/yago/Location100027167
p554
aVhttp://dbpedia.org/class/yago/Object100002684
p555
aVhttp://dbpedia.org/class/yago/Region108630985
p556
aVhttp://dbpedia.org/class/yago/Seat108647945
p557
aVhttp://dbpedia.org/class/yago/Site108651247
p558
aVhttp://dbpedia.org/class/yago/Town108665504
p559
aVhttp://dbpedia.org/class/yago/Tract108673395
p560
aVhttp://dbpedia.org/class/yago/UrbanArea108675967
p561
aVhttp://dbpedia.org/class/yago/YagoGeoEntity
p562
aVhttp://dbpedia.org/class/yago/YagoLegalActorGeo
p563
aVhttp://dbpedia.org/class/yago/CountySeat108547143
p564
aVhttp://dbpedia.org/class/yago/CountySeatsInIndiana
p565
aVhttp://dbpedia.org/class/yago/GeographicalArea108574314
p566
aVhttp://dbpedia.org/class/yago/Municipality108626283
p567
aVhttp://dbpedia.org/class/yago/PhysicalEntity100001930
p568
aVhttp://dbpedia.org/class/yago/YagoPermanentlyLocatedEntity
p569
aVhttp://dbpedia.org/class/yago/PopulatedPlacesInCrawfordCounty,Indiana
p570
aVhttp://dbpedia.org/class/yago/TownsInIndiana
p571
aVhttp://dbpedia.org/resource/English,_Indiana
tp572
aaa(lp573
(lp574
a(lp575
((lp576
Vhttp://www.w3.org/2002/07/owl#Thing
p577
aVhttp://umbel.org/umbel/rc/Business
p578
aVhttp://umbel.org/umbel/rc/Organization
p579
aVhttp://dbpedia.org/resource/France_2
tp580
aa(lp581
aa(lp582
(lp583
((lp584
Vhttp://www.w3.org/2002/07/owl#Thing
p585
aVhttp://dbpedia.org/class/yago/Abstraction100002137
p586
aVhttp://dbpedia.org/class/yago/Group100031264
p587
aVhttp://dbpedia.org/class/yago/Mission108403225
p588
aVhttp://dbpedia.org/class/yago/Organization108008335
p589
aVhttp://dbpedia.org/class/yago/SocialGroup107950920
p590
aVhttp://dbpedia.org/class/yago/YagoLegalActorGeo
p591
aVhttp://dbpedia.org/class/yago/ChristianMissions
p592
aVhttp://dbpedia.org/class/yago/NongovernmentalOrganization108009834
p593
aVhttp://dbpedia.org/class/yago/YagoPermanentlyLocatedEntity
p594
aVhttp://dbpedia.org/class/yago/YagoLegalActor
p595
aVhttp://dbpedia.org/class/yago/ReligiousOrganizationsEstablishedIn1868
p596
aVhttp://dbpedia.org/resource/White_Fathers
tp597
aa(lp598
((lp599
Vhttp://www.w3.org/2002/07/owl#Thing
p600
aVhttp://dbpedia.org/ontology/Place
p601
aVhttp://dbpedia.org/ontology/Location
p602
aVhttp://www.wikidata.org/entity/Q486972
p603
aVhttp://www.wikidata.org/entity/Q6256
p604
aVhttp://dbpedia.org/ontology/Country
p605
aVhttp://dbpedia.org/ontology/PopulatedPlace
p606
aVhttp://www.w3.org/2003/01/geo/wgs84_pos#SpatialThing
p607
aVhttp://schema.org/Country
p608
aVhttp://schema.org/Place
p609
aVhttp://umbel.org/umbel/rc/Country
p610
aVhttp://umbel.org/umbel/rc/Location_Underspecified
p611
aVhttp://umbel.org/umbel/rc/PopulatedPlace
p612
aVhttp://dbpedia.org/class/yago/Abstraction100002137
p613
aVhttp://dbpedia.org/class/yago/AdministrativeDistrict108491826
p614
aVhttp://dbpedia.org/class/yago/BicontinentalCountries
p615
aVhttp://dbpedia.org/class/yago/Country108544813
p616
aVhttp://dbpedia.org/class/yago/District108552138
p617
aVhttp://dbpedia.org/class/yago/Economy108366753
p618
aVhttp://dbpedia.org/class/yago/Group100031264
p619
aVhttp://dbpedia.org/class/yago/Location100027167
p620
aVhttp://dbpedia.org/class/yago/Object100002684
p621
aVhttp://dbpedia.org/class/yago/Region108630985
p622
aVhttp://dbpedia.org/class/yago/System108435388
p623
aVhttp://dbpedia.org/class/yago/YagoGeoEntity
p624
aVhttp://dbpedia.org/class/yago/YagoLegalActorGeo
p625
aVhttp://dbpedia.org/class/yago/CountriesBorderingTheArcticOcean
p626
aVhttp://dbpedia.org/class/yago/CountriesBorderingTheAtlanticOcean
p627
aVhttp://dbpedia.org/class/yago/CountriesBorderingThePacificOcean
p628
aVhttp://dbpedia.org/class/yago/English-speakingCountriesAndTerritories
p629
aVhttp://dbpedia.org/class/yago/FederalCountries
p630
aVhttp://dbpedia.org/class/yago/PhysicalEntity100001930
p631
aVhttp://dbpedia.org/class/yago/YagoPermanentlyLocatedEntity
p632
aVhttp://dbpedia.org/class/yago/MemberStatesOfNATO
p633
aVhttp://dbpedia.org/class/yago/MemberStatesOfTheUnitedNations
p634
aVhttp://dbpedia.org/class/yago/NorthernAmericanCountries
p635
aVhttp://dbpedia.org/class/yago/StatesAndTerritoriesEstablishedIn1776
p636
aVhttp://dbpedia.org/class/yago/UnitedStates
p637
aVhttp://dbpedia.org/resource/United_States
tp638
aa(lp639
((lp640
Vhttp://www.w3.org/2002/07/owl#Thing
p641
aVhttp://dbpedia.org/ontology/Place
p642
aVhttp://dbpedia.org/ontology/Location
p643
aVhttp://www.wikidata.org/entity/Q3957
p644
aVhttp://www.wikidata.org/entity/Q486972
p645
aVhttp://dbpedia.org/ontology/PopulatedPlace
p646
aVhttp://dbpedia.org/ontology/Settlement
p647
aVhttp://dbpedia.org/ontology/Town
p648
aVhttp://www.w3.org/2003/01/geo/wgs84_pos#SpatialThing
p649
aVhttp://schema.org/Place
p650
aVhttp://umbel.org/umbel/rc/Town
p651
aVhttp://dbpedia.org/class/yago/AdministrativeDistrict108491826
p652
aVhttp://dbpedia.org/class/yago/Area108497294
p653
aVhttp://dbpedia.org/class/yago/Center108523483
p654
aVhttp://dbpedia.org/class/yago/District108552138
p655
aVhttp://dbpedia.org/class/yago/Location100027167
p656
aVhttp://dbpedia.org/class/yago/Object100002684
p657
aVhttp://dbpedia.org/class/yago/Region108630985
p658
aVhttp://dbpedia.org/class/yago/Seat108647945
p659
aVhttp://dbpedia.org/class/yago/Site108651247
p660
aVhttp://dbpedia.org/class/yago/Town108665504
p661
aVhttp://dbpedia.org/class/yago/Tract108673395
p662
aVhttp://dbpedia.org/class/yago/UrbanArea108675967
p663
aVhttp://dbpedia.org/class/yago/YagoGeoEntity
p664
aVhttp://dbpedia.org/class/yago/YagoLegalActorGeo
p665
aVhttp://dbpedia.org/class/yago/CountySeat108547143
p666
aVhttp://dbpedia.org/class/yago/CountySeatsInIndiana
p667
aVhttp://dbpedia.org/class/yago/GeographicalArea108574314
p668
aVhttp://dbpedia.org/class/yago/Municipality108626283
p669
aVhttp://dbpedia.org/class/yago/PhysicalEntity100001930
p670
aVhttp://dbpedia.org/class/yago/YagoPermanentlyLocatedEntity
p671
aVhttp://dbpedia.org/class/yago/PopulatedPlacesInCrawfordCounty,Indiana
p672
aVhttp://dbpedia.org/class/yago/TownsInIndiana
p673
aVhttp://dbpedia.org/resource/English,_Indiana
tp674
aaa(lp675
(lp676
a(lp677
((lp678
Vhttp://www.w3.org/2002/07/owl#Thing
p679
aVhttp://dbpedia.org/ontology/Place
p680
aVhttp://dbpedia.org/ontology/Location
p681
aVhttp://www.wikidata.org/entity/Q486972
p682
aVhttp://www.wikidata.org/entity/Q6256
p683
aVhttp://dbpedia.org/ontology/Country
p684
aVhttp://dbpedia.org/ontology/PopulatedPlace
p685
aVhttp://www.w3.org/2003/01/geo/wgs84_pos#SpatialThing
p686
aVhttp://schema.org/Country
p687
aVhttp://schema.org/Place
p688
aVhttp://umbel.org/umbel/rc/Country
p689
aVhttp://umbel.org/umbel/rc/Location_Underspecified
p690
aVhttp://umbel.org/umbel/rc/PopulatedPlace
p691
aVhttp://dbpedia.org/class/yago/Abstraction100002137
p692
aVhttp://dbpedia.org/class/yago/AdministrativeDistrict108491826
p693
aVhttp://dbpedia.org/class/yago/BicontinentalCountries
p694
aVhttp://dbpedia.org/class/yago/Country108544813
p695
aVhttp://dbpedia.org/class/yago/District108552138
p696
aVhttp://dbpedia.org/class/yago/Economy108366753
p697
aVhttp://dbpedia.org/class/yago/Group100031264
p698
aVhttp://dbpedia.org/class/yago/Location100027167
p699
aVhttp://dbpedia.org/class/yago/Object100002684
p700
aVhttp://dbpedia.org/class/yago/Region108630985
p701
aVhttp://dbpedia.org/class/yago/System108435388
p702
aVhttp://dbpedia.org/class/yago/YagoGeoEntity
p703
aVhttp://dbpedia.org/class/yago/YagoLegalActorGeo
p704
aVhttp://dbpedia.org/class/yago/CountriesBorderingTheArcticOcean
p705
aVhttp://dbpedia.org/class/yago/CountriesBorderingTheAtlanticOcean
p706
aVhttp://dbpedia.org/class/yago/CountriesBorderingThePacificOcean
p707
aVhttp://dbpedia.org/class/yago/English-speakingCountriesAndTerritories
p708
aVhttp://dbpedia.org/class/yago/FederalCountries
p709
aVhttp://dbpedia.org/class/yago/PhysicalEntity100001930
p710
aVhttp://dbpedia.org/class/yago/YagoPermanentlyLocatedEntity
p711
aVhttp://dbpedia.org/class/yago/MemberStatesOfNATO
p712
aVhttp://dbpedia.org/class/yago/MemberStatesOfTheUnitedNations
p713
aVhttp://dbpedia.org/class/yago/NorthernAmericanCountries
p714
aVhttp://dbpedia.org/class/yago/StatesAndTerritoriesEstablishedIn1776
p715
aVhttp://dbpedia.org/class/yago/UnitedStates
p716
aVhttp://dbpedia.org/resource/United_States
tp717
aa(lp718
((lp719
Vhttp://www.w3.org/2002/07/owl#Thing
p720
aVhttp://dbpedia.org/ontology/Place
p721
aVhttp://dbpedia.org/ontology/Location
p722
aVhttp://www.wikidata.org/entity/Q3957
p723
aVhttp://www.wikidata.org/entity/Q486972
p724
aVhttp://dbpedia.org/ontology/PopulatedPlace
p725
aVhttp://dbpedia.org/ontology/Settlement
p726
aVhttp://dbpedia.org/ontology/Town
p727
aVhttp://www.w3.org/2003/01/geo/wgs84_pos#SpatialThing
p728
aVhttp://schema.org/Place
p729
aVhttp://umbel.org/umbel/rc/Town
p730
aVhttp://dbpedia.org/class/yago/AdministrativeDistrict108491826
p731
aVhttp://dbpedia.org/class/yago/Area108497294
p732
aVhttp://dbpedia.org/class/yago/Center108523483
p733
aVhttp://dbpedia.org/class/yago/District108552138
p734
aVhttp://dbpedia.org/class/yago/Location100027167
p735
aVhttp://dbpedia.org/class/yago/Object100002684
p736
aVhttp://dbpedia.org/class/yago/Region108630985
p737
aVhttp://dbpedia.org/class/yago/Seat108647945
p738
aVhttp://dbpedia.org/class/yago/Site108651247
p739
aVhttp://dbpedia.org/class/yago/Town108665504
p740
aVhttp://dbpedia.org/class/yago/Tract108673395
p741
aVhttp://dbpedia.org/class/yago/UrbanArea108675967
p742
aVhttp://dbpedia.org/class/yago/YagoGeoEntity
p743
aVhttp://dbpedia.org/class/yago/YagoLegalActorGeo
p744
aVhttp://dbpedia.org/class/yago/CountySeat108547143
p745
aVhttp://dbpedia.org/class/yago/CountySeatsInIndiana
p746
aVhttp://dbpedia.org/class/yago/GeographicalArea108574314
p747
aVhttp://dbpedia.org/class/yago/Municipality108626283
p748
aVhttp://dbpedia.org/class/yago/PhysicalEntity100001930
p749
aVhttp://dbpedia.org/class/yago/YagoPermanentlyLocatedEntity
p750
aVhttp://dbpedia.org/class/yago/PopulatedPlacesInCrawfordCounty,Indiana
p751
aVhttp://dbpedia.org/class/yago/TownsInIndiana
p752
aVhttp://dbpedia.org/resource/English,_Indiana
tp753
aaa(lp754
(lp755
a(lp756
((lp757
Vhttp://www.w3.org/2002/07/owl#Thing
p758
aVhttp://dbpedia.org/ontology/Place
p759
aVhttp://dbpedia.org/ontology/Location
p760
aVhttp://www.wikidata.org/entity/Q486972
p761
aVhttp://www.wikidata.org/entity/Q6256
p762
aVhttp://dbpedia.org/ontology/Country
p763
aVhttp://dbpedia.org/ontology/PopulatedPlace
p764
aVhttp://www.w3.org/2003/01/geo/wgs84_pos#SpatialThing
p765
aVhttp://schema.org/Country
p766
aVhttp://schema.org/Place
p767
aVhttp://umbel.org/umbel/rc/Country
p768
aVhttp://umbel.org/umbel/rc/Location_Underspecified
p769
aVhttp://umbel.org/umbel/rc/PopulatedPlace
p770
aVhttp://dbpedia.org/class/yago/Abstraction100002137
p771
aVhttp://dbpedia.org/class/yago/AdministrativeDistrict108491826
p772
aVhttp://dbpedia.org/class/yago/Country108544813
p773
aVhttp://dbpedia.org/class/yago/District108552138
p774
aVhttp://dbpedia.org/class/yago/Economy108366753
p775
aVhttp://dbpedia.org/class/yago/Group100031264
p776
aVhttp://dbpedia.org/class/yago/Island109316454
p777
aVhttp://dbpedia.org/class/yago/Land109334396
p778
aVhttp://dbpedia.org/class/yago/Location100027167
p779
aVhttp://dbpedia.org/class/yago/Object100002684
p780
aVhttp://dbpedia.org/class/yago/Region108630985
p781
aVhttp://dbpedia.org/class/yago/System108435388
p782
aVhttp://dbpedia.org/class/yago/YagoGeoEntity
p783
aVhttp://dbpedia.org/class/yago/YagoLegalActorGeo
p784
aVhttp://dbpedia.org/class/yago/CountriesBorderingThePacificOcean
p785
aVhttp://dbpedia.org/class/yago/CountriesBorderingThePhilippineSea
p786
aVhttp://dbpedia.org/class/yago/CountriesBorderingTheSouthChinaSea
p787
aVhttp://dbpedia.org/class/yago/English-speakingCountriesAndTerritories
p788
aVhttp://dbpedia.org/class/yago/PhysicalEntity100001930
p789
aVhttp://dbpedia.org/class/yago/YagoPermanentlyLocatedEntity
p790
aVhttp://dbpedia.org/class/yago/IslandCountries
p791
aVhttp://dbpedia.org/class/yago/MemberStatesOfTheAssociationOfSoutheastAsianNations
p792
aVhttp://dbpedia.org/class/yago/MemberStatesOfTheUnitedNations
p793
aVhttp://dbpedia.org/class/yago/SoutheastAsianCountries
p794
aVhttp://dbpedia.org/class/yago/StatesAndTerritoriesEstablishedIn1565
p795
aVhttp://dbpedia.org/class/yago/StatesAndTerritoriesEstablishedIn1898
p796
aVhttp://dbpedia.org/class/yago/StatesAndTerritoriesEstablishedIn1946
p797
aVhttp://dbpedia.org/class/yago/VolcanicArcIslands
p798
aVhttp://dbpedia.org/class/yago/WorldTradeOrganizationMemberEconomies
p799
aVhttp://dbpedia.org/resource/Philippines
tp800
aa(lp801
((lp802
Vhttp://www.w3.org/2002/07/owl#Thing
p803
aVhttp://dbpedia.org/ontology/Place
p804
aVhttp://dbpedia.org/ontology/Location
p805
aVhttp://www.wikidata.org/entity/Q3957
p806
aVhttp://www.wikidata.org/entity/Q486972
p807
aVhttp://dbpedia.org/ontology/PopulatedPlace
p808
aVhttp://dbpedia.org/ontology/Settlement
p809
aVhttp://dbpedia.org/ontology/Town
p810
aVhttp://www.w3.org/2003/01/geo/wgs84_pos#SpatialThing
p811
aVhttp://schema.org/Place
p812
aVhttp://umbel.org/umbel/rc/Town
p813
aVhttp://dbpedia.org/class/yago/AdministrativeDistrict108491826
p814
aVhttp://dbpedia.org/class/yago/Area108497294
p815
aVhttp://dbpedia.org/class/yago/Center108523483
p816
aVhttp://dbpedia.org/class/yago/District108552138
p817
aVhttp://dbpedia.org/class/yago/Location100027167
p818
aVhttp://dbpedia.org/class/yago/Object100002684
p819
aVhttp://dbpedia.org/class/yago/Region108630985
p820
aVhttp://dbpedia.org/class/yago/Seat108647945
p821
aVhttp://dbpedia.org/class/yago/Site108651247
p822
aVhttp://dbpedia.org/class/yago/Town108665504
p823
aVhttp://dbpedia.org/class/yago/Tract108673395
p824
aVhttp://dbpedia.org/class/yago/UrbanArea108675967
p825
aVhttp://dbpedia.org/class/yago/YagoGeoEntity
p826
aVhttp://dbpedia.org/class/yago/YagoLegalActorGeo
p827
aVhttp://dbpedia.org/class/yago/CountySeat108547143
p828
aVhttp://dbpedia.org/class/yago/CountySeatsInIndiana
p829
aVhttp://dbpedia.org/class/yago/GeographicalArea108574314
p830
aVhttp://dbpedia.org/class/yago/Municipality108626283
p831
aVhttp://dbpedia.org/class/yago/PhysicalEntity100001930
p832
aVhttp://dbpedia.org/class/yago/YagoPermanentlyLocatedEntity
p833
aVhttp://dbpedia.org/class/yago/PopulatedPlacesInCrawfordCounty,Indiana
p834
aVhttp://dbpedia.org/class/yago/TownsInIndiana
p835
aVhttp://dbpedia.org/resource/English,_Indiana
tp836
aaa(lp837
(lp838
a(lp839
a(lp840
aa(lp841
(lp842
a(lp843
((lp844
Vhttp://www.w3.org/2002/07/owl#Thing
p845
aVhttp://dbpedia.org/ontology/Place
p846
aVhttp://dbpedia.org/ontology/Location
p847
aVhttp://www.wikidata.org/entity/Q486972
p848
aVhttp://dbpedia.org/ontology/PopulatedPlace
p849
aVhttp://dbpedia.org/ontology/Settlement
p850
aVhttp://www.w3.org/2003/01/geo/wgs84_pos#SpatialThing
p851
aVhttp://schema.org/Place
p852
aVhttp://umbel.org/umbel/rc/Location_Underspecified
p853
aVhttp://umbel.org/umbel/rc/PopulatedPlace
p854
aVhttp://umbel.org/umbel/rc/Village
p855
aVhttp://dbpedia.org/class/yago/AdministrativeDistrict108491826
p856
aVhttp://dbpedia.org/class/yago/Area108497294
p857
aVhttp://dbpedia.org/class/yago/AutonomousRegions
p858
aVhttp://dbpedia.org/class/yago/Capital108518505
p859
aVhttp://dbpedia.org/class/yago/CapitalsInEurope
p860
aVhttp://dbpedia.org/class/yago/Center108523483
p861
aVhttp://dbpedia.org/class/yago/District108552138
p862
aVhttp://dbpedia.org/class/yago/Location100027167
p863
aVhttp://dbpedia.org/class/yago/Object100002684
p864
aVhttp://dbpedia.org/class/yago/Region108630039
p865
aVhttp://dbpedia.org/class/yago/Region108630985
p866
aVhttp://dbpedia.org/class/yago/Seat108647945
p867
aVhttp://dbpedia.org/class/yago/YagoGeoEntity
p868
aVhttp://dbpedia.org/class/yago/YagoLegalActorGeo
p869
aVhttp://dbpedia.org/class/yago/EuropeanCapitalsOfCulture
p870
aVhttp://dbpedia.org/class/yago/PhysicalEntity100001930
p871
aVhttp://dbpedia.org/class/yago/YagoPermanentlyLocatedEntity
p872
aVhttp://dbpedia.org/class/yago/NUTS1StatisticalRegionsOfTheEuropeanUnion
p873
aVhttp://dbpedia.org/class/yago/RegionsOfBelgium
p874
aVhttp://dbpedia.org/class/yago/RegionsOfEuropeWithMultipleOfficialLanguages
p875
aVhttp://dbpedia.org/resource/Brussels
p876
tp877
aa(lp878
aa.