(lp1
(lp2
(dp3
Vstart
p4
I0
sVdisambiguatedURL
p5
NsVnamedEntity
p6
V6
sVoffset
p7
I1
saa(lp8
(dp9
Vstart
p10
I0
sVdisambiguatedURL
p11
NsVnamedEntity
p12
V5
sVoffset
p13
I1
saa(lp14
(dp15
Vstart
p16
I0
sVdisambiguatedURL
p17
Vhttp://dbpedia.org/resource/Null
p18
sVnamedEntity
p19
VNULL
p20
sVoffset
p21
I4
saa(lp22
(dp23
Vstart
p24
I0
sVdisambiguatedURL
p25
NsVnamedEntity
p26
V4
sVoffset
p27
I1
saa(lp28
(dp29
Vstart
p30
I0
sVdisambiguatedURL
p31
NsVnamedEntity
p32
V3
sVoffset
p33
I1
saa(lp34
(dp35
Vstart
p36
I0
sVdisambiguatedURL
p37
Vhttp://dbpedia.org/resource/Null
p38
sVnamedEntity
p39
VNULL
p40
sVoffset
p41
I4
saa(lp42
(dp43
Vstart
p44
I0
sVdisambiguatedURL
p45
NsVnamedEntity
p46
V2
sVoffset
p47
I1
saa(lp48
(dp49
Vstart
p50
I0
sVdisambiguatedURL
p51
Vhttp://dbpedia.org/resource/Null
p52
sVnamedEntity
p53
VNULL
p54
sVoffset
p55
I4
saa(lp56
(dp57
Vstart
p58
I0
sVdisambiguatedURL
p59
NsVnamedEntity
p60
V1
sVoffset
p61
I1
saa.