(lp1
(lp2
(dp3
Vstart
p4
I0
sVdisambiguatedURL
p5
Vhttp://dbpedia.org/resource/Angola
p6
sVnamedEntity
p7
VAngola
p8
sVoffset
p9
I6
saa(lp10
(dp11
Vstart
p12
I0
sVdisambiguatedURL
p13
Vhttp://dbpedia.org/resource/Argentina
p14
sVnamedEntity
p15
VArgentina
p16
sVoffset
p17
I9
saa(lp18
(dp19
Vstart
p20
I0
sVdisambiguatedURL
p21
Vhttp://dbpedia.org/resource/Australia
p22
sVnamedEntity
p23
VAustralia
p24
sVoffset
p25
I9
saa(lp26
(dp27
Vstart
p28
I0
sVdisambiguatedURL
p29
Vhttp://dbpedia.org/resource/Azerbaijan
p30
sVnamedEntity
p31
VAzerbaijan
p32
sVoffset
p33
I10
saa(lp34
(dp35
Vstart
p36
I0
sVdisambiguatedURL
p37
Vhttp://dbpedia.org/resource/Bangladesh
p38
sVnamedEntity
p39
VBangladesh
p40
sVoffset
p41
I10
saa(lp42
(dp43
Vstart
p44
I0
sVdisambiguatedURL
p45
Vhttp://dbpedia.org/resource/Bhutan
p46
sVnamedEntity
p47
VBhutan
p48
sVoffset
p49
I6
saa(lp50
(dp51
Vstart
p52
I0
sVdisambiguatedURL
p53
Vhttp://dbpedia.org/resource/Brazil
p54
sVnamedEntity
p55
VBrazil
p56
sVoffset
p57
I6
saa(lp58
(dp59
Vstart
p60
I0
sVdisambiguatedURL
p61
Vhttp://dbpedia.org/resource/Brunei
p62
sVnamedEntity
p63
VBrunei
p64
sVoffset
p65
I6
saa(lp66
(dp67
Vstart
p68
I0
sVdisambiguatedURL
p69
Vhttp://dbpedia.org/resource/Canada
p70
sVnamedEntity
p71
VCanada
p72
sVoffset
p73
I6
saa(lp74
(dp75
Vstart
p76
I0
sVdisambiguatedURL
p77
Vhttp://dbpedia.org/resource/Canada
p78
sVnamedEntity
p79
VCanada
p80
sVoffset
p81
I6
saa(lp82
(dp83
Vstart
p84
I0
sVdisambiguatedURL
p85
Vhttp://dbpedia.org/resource/Georgia_Street
p86
sVnamedEntity
p87
VGeorgia
p88
sVoffset
p89
I7
saa(lp90
(dp91
Vstart
p92
I0
sVdisambiguatedURL
p93
Vhttp://dbpedia.org/resource/Ghana
p94
sVnamedEntity
p95
VGhana
p96
sVoffset
p97
I5
saa(lp98
(dp99
Vstart
p100
I0
sVdisambiguatedURL
p101
Vhttp://dbpedia.org/resource/Hong_Kong
p102
sVnamedEntity
p103
VHong Kong
p104
sVoffset
p105
I9
saa(lp106
(dp107
Vstart
p108
I0
sVdisambiguatedURL
p109
Vhttp://dbpedia.org/resource/India
p110
sVnamedEntity
p111
VIndia
p112
sVoffset
p113
I5
saa(lp114
(dp115
Vstart
p116
I0
sVdisambiguatedURL
p117
Vhttp://dbpedia.org/resource/Indonesia
p118
sVnamedEntity
p119
VIndonesia
p120
sVoffset
p121
I9
saa(lp122
(dp123
Vstart
p124
I0
sVdisambiguatedURL
p125
Vhttp://dbpedia.org/resource/Iran
p126
sVnamedEntity
p127
VIran
p128
sVoffset
p129
I4
saa(lp130
(dp131
Vstart
p132
I0
sVdisambiguatedURL
p133
Vhttp://dbpedia.org/resource/Israel
p134
sVnamedEntity
p135
VIsrael
p136
sVoffset
p137
I6
saa(lp138
(dp139
Vstart
p140
I0
sVdisambiguatedURL
p141
Vhttp://dbpedia.org/resource/Japan
p142
sVnamedEntity
p143
VJapan
p144
sVoffset
p145
I5
saa(lp146
(dp147
Vstart
p148
I0
sVdisambiguatedURL
p149
Vhttp://dbpedia.org/resource/Kazakhstan
p150
sVnamedEntity
p151
VKazakhstan
p152
sVoffset
p153
I10
saa(lp154
(dp155
Vstart
p156
I0
sVdisambiguatedURL
p157
Vhttp://dbpedia.org/resource/Laos
p158
sVnamedEntity
p159
VLaos
p160
sVoffset
p161
I4
saa.