(lp1
(lp2
(lp3
a(lp4
a(lp5
Vhttp://dbpedia.org/resource/Null
p6
aa(lp7
a(lp8
a(lp9
aa(lp10
(lp11
a(lp12
a(lp13
Vhttp://dbpedia.org/resource/Conversion_to_Judaism
p14
aa(lp15
a(lp16
a(lp17
aa(lp18
(lp19
a(lp20
a(lp21
Vhttp://dbpedia.org/resource/Apparition
p22
aa(lp23
a(lp24
a(lp25
aa(lp26
(lp27
a(lp28
a(lp29
a(lp30
a(lp31
a(lp32
aa(lp33
(lp34
a(lp35
a(lp36
Vhttp://dbpedia.org/resource/Religious_art
p37
aa(lp38
a(lp39
a(lp40
aa(lp41
(lp42
a(lp43
a(lp44
a(lp45
a(lp46
a(lp47
aa(lp48
(lp49
a(lp50
a(lp51
a(lp52
a(lp53
a(lp54
aa(lp55
(lp56
a(lp57
a(lp58
a(lp59
a(lp60
a(lp61
aa(lp62
(lp63
a(lp64
a(lp65
a(lp66
a(lp67
a(lp68
aa(lp69
(lp70
a(lp71
a(lp72
a(lp73
a(lp74
a(lp75
aa(lp76
(lp77
a(lp78
a(lp79
a(lp80
a(lp81
a(lp82
aa(lp83
(lp84
a(lp85
a(lp86
a(lp87
a(lp88
a(lp89
aa(lp90
(lp91
a(lp92
a(lp93
Vhttp://dbpedia.org/resource/Marian_Movement_of_Priests
p94
aa(lp95
a(lp96
a(lp97
aa(lp98
(lp99
a(lp100
a(lp101
a(lp102
a(lp103
a(lp104
aa(lp105
(lp106
a(lp107
a(lp108
a(lp109
a(lp110
a(lp111
aa(lp112
(lp113
a(lp114
a(lp115
a(lp116
a(lp117
a(lp118
aa(lp119
(lp120
a(lp121
a(lp122
a(lp123
a(lp124
a(lp125
aa(lp126
(lp127
a(lp128
a(lp129
a(lp130
a(lp131
a(lp132
aa(lp133
(lp134
a(lp135
a(lp136
a(lp137
a(lp138
a(lp139
aa(lp140
(lp141
a(lp142
a(lp143
a(lp144
a(lp145
a(lp146
aa.