(lp1
(lp2
(dp3
Vstart
p4
I0
sVdisambiguatedURL
p5
Vhttp://dbpedia.org/resource/Camden,_New_Jersey
p6
sVnamedEntity
p7
VWaterfront
p8
sVoffset
p9
I10
saa(lp10
(dp11
Vstart
p12
I0
sVdisambiguatedURL
p13
Vhttp://dbpedia.org/resource/Tide_pool
p14
sVnamedEntity
p15
VPool
p16
sVoffset
p17
I4
saa(lp18
(dp19
Vstart
p20
I0
sVdisambiguatedURL
p21
NsVnamedEntity
p22
VSingle Story
p23
sVoffset
p24
I12
saa(lp25
(dp26
Vstart
p27
I0
sVdisambiguatedURL
p28
NsVnamedEntity
p29
VTwo Story
p30
sVoffset
p31
I9
saa(lp32
(dp33
Vstart
p34
I0
sVdisambiguatedURL
p35
NsVnamedEntity
p36
VPrice Reduced
p37
sVoffset
p38
I13
saa(lp39
(dp40
Vstart
p41
I0
sVdisambiguatedURL
p42
Vhttp://dbpedia.org/resource/Custom_Builder
p43
sVnamedEntity
p44
VCustom Built
p45
sVoffset
p46
I12
saa(lp47
(dp48
Vstart
p49
I0
sVdisambiguatedURL
p50
NsVnamedEntity
p51
VGated
p52
sVoffset
p53
I5
saa(lp54
(dp55
Vstart
p56
I0
sVdisambiguatedURL
p57
NsVnamedEntity
p58
VNew Listings
p59
sVoffset
p60
I12
saa(lp61
(dp62
Vstart
p63
I0
sVdisambiguatedURL
p64
Vhttp://dbpedia.org/resource/Tennis_court
p65
sVnamedEntity
p66
VTennis Court
p67
sVoffset
p68
I12
saa(lp69
(dp70
Vstart
p71
I0
sVdisambiguatedURL
p72
NsVnamedEntity
p73
VRiver View
p74
sVoffset
p75
I10
saa(lp76
(dp77
Vstart
p78
I0
sVdisambiguatedURL
p79
Vhttp://dbpedia.org/resource/Foreclosure
p80
sVnamedEntity
p81
VForeclosure
p82
sVoffset
p83
I11
saa(lp84
(dp85
Vstart
p86
I0
sVdisambiguatedURL
p87
Vhttp://dbpedia.org/resource/Band_of_Horses
p88
sVnamedEntity
p89
VHorse
p90
sVoffset
p91
I5
saa(lp92
(dp93
Vstart
p94
I0
sVdisambiguatedURL
p95
Vhttp://dbpedia.org/resource/Short_sale_(real_estate)
p96
sVnamedEntity
p97
VShort Sale
p98
sVoffset
p99
I10
saa(lp100
(dp101
Vstart
p102
I0
sVdisambiguatedURL
p103
Vhttp://dbpedia.org/resource/Cul-de-sac_(disambiguation)
p104
sVnamedEntity
p105
VCul De Sac
p106
sVoffset
p107
I10
saa(lp108
(dp109
Vstart
p110
I0
sVdisambiguatedURL
p111
Vhttp://dbpedia.org/resource/Loft
p112
sVnamedEntity
p113
VLoft
p114
sVoffset
p115
I4
saa.