(lp1
(lp2
(lp3
((lp4
Vhttp://www.w3.org/2002/07/owl#Thing
p5
aVhttp://dbpedia.org/ontology/Place
p6
aVhttp://dbpedia.org/ontology/Location
p7
aVhttp://www.wikidata.org/entity/Q486972
p8
aVhttp://www.wikidata.org/entity/Q515
p9
aVhttp://dbpedia.org/ontology/City
p10
aVhttp://dbpedia.org/ontology/PopulatedPlace
p11
aVhttp://dbpedia.org/ontology/Settlement
p12
aVhttp://www.w3.org/2003/01/geo/wgs84_pos#SpatialThing
p13
aVhttp://schema.org/City
p14
aVhttp://schema.org/Place
p15
aVhttp://umbel.org/umbel/rc/City
p16
aVhttp://umbel.org/umbel/rc/Location_Underspecified
p17
aVhttp://umbel.org/umbel/rc/PopulatedPlace
p18
aVhttp://umbel.org/umbel/rc/Village
p19
aVhttp://dbpedia.org/class/yago/AdministrativeDistrict108491826
p20
aVhttp://dbpedia.org/class/yago/Area108497294
p21
aVhttp://dbpedia.org/class/yago/Center108523483
p22
aVhttp://dbpedia.org/class/yago/City108524735
p23
aVhttp://dbpedia.org/class/yago/CityDistrict108537837
p24
aVhttp://dbpedia.org/class/yago/District108552138
p25
aVhttp://dbpedia.org/class/yago/EnterpriseZone108690665
p26
aVhttp://dbpedia.org/class/yago/Location100027167
p27
aVhttp://dbpedia.org/class/yago/Object100002684
p28
aVhttp://dbpedia.org/class/yago/Region108630985
p29
aVhttp://dbpedia.org/class/yago/Seat108647945
p30
aVhttp://dbpedia.org/class/yago/Site108651247
p31
aVhttp://dbpedia.org/class/yago/Tract108673395
p32
aVhttp://dbpedia.org/class/yago/UrbanArea108675967
p33
aVhttp://dbpedia.org/class/yago/YagoGeoEntity
p34
aVhttp://dbpedia.org/class/yago/YagoLegalActorGeo
p35
aVhttp://dbpedia.org/class/yago/CitiesInCamdenCounty,NewJersey
p36
aVhttp://dbpedia.org/class/yago/CountySeat108547143
p37
aVhttp://dbpedia.org/class/yago/CountySeatsInNewJersey
p38
aVhttp://dbpedia.org/class/yago/FormerTownshipsInNewJersey
p39
aVhttp://dbpedia.org/class/yago/GeographicalArea108574314
p40
aVhttp://dbpedia.org/class/yago/Municipality108626283
p41
aVhttp://dbpedia.org/class/yago/PhysicalEntity100001930
p42
aVhttp://dbpedia.org/class/yago/Township108672199
p43
aVhttp://dbpedia.org/class/yago/YagoPermanentlyLocatedEntity
p44
aVhttp://dbpedia.org/class/yago/NewJerseyUrbanEnterpriseZones
p45
aVhttp://dbpedia.org/class/yago/PopulatedPlacesEstablishedIn1626
p46
aVhttp://dbpedia.org/class/yago/PopulatedPlacesInNewJerseyWithAfricanAmericanMajorityPopulations
p47
aVhttp://dbpedia.org/class/yago/PortSettlementsInTheUnitedStates
p48
aVhttp://dbpedia.org/resource/Camden,_New_Jersey
tp49
aa(lp50
a(lp51
aa(lp52
(lp53
((lp54
Vhttp://dbpedia.org/class/yago/Artifact100021939
p55
aVhttp://dbpedia.org/class/yago/BodiesOfWater
p56
aVhttp://dbpedia.org/class/yago/BodyOfWater109225146
p57
aVhttp://dbpedia.org/class/yago/Excavation103302121
p58
aVhttp://dbpedia.org/class/yago/Object100002684
p59
aVhttp://dbpedia.org/class/yago/Thing100002452
p60
aVhttp://dbpedia.org/class/yago/Whole100003553
p61
aVhttp://dbpedia.org/class/yago/YagoGeoEntity
p62
aVhttp://dbpedia.org/class/yago/PhysicalEntity100001930
p63
aVhttp://dbpedia.org/class/yago/Pool103982060
p64
aVhttp://dbpedia.org/class/yago/YagoPermanentlyLocatedEntity
p65
aVhttp://dbpedia.org/class/yago/NaturalPools
p66
aVhttp://dbpedia.org/resource/Tide_pool
tp67
aa(lp68
a(lp69
aa(lp70
(lp71
a(lp72
a(lp73
aa(lp74
(lp75
a(lp76
a(lp77
aa(lp78
(lp79
a(lp80
a(lp81
aa(lp82
(lp83
((lp84
Vhttp://umbel.org/umbel/rc/NewspaperSeries
p85
aVhttp://dbpedia.org/class/yago/AmericanBusinessMagazines
p86
aVhttp://dbpedia.org/class/yago/Artifact100021939
p87
aVhttp://dbpedia.org/class/yago/Creation103129123
p88
aVhttp://dbpedia.org/class/yago/Magazine106595351
p89
aVhttp://dbpedia.org/class/yago/Medium106254669
p90
aVhttp://dbpedia.org/class/yago/Newspaper106267145
p91
aVhttp://dbpedia.org/class/yago/Object100002684
p92
aVhttp://dbpedia.org/class/yago/Product104007894
p93
aVhttp://dbpedia.org/class/yago/Publication106589574
p94
aVhttp://dbpedia.org/class/yago/Whole100003553
p95
aVhttp://dbpedia.org/class/yago/Instrumentality103575240
p96
aVhttp://dbpedia.org/class/yago/PhysicalEntity100001930
p97
aVhttp://dbpedia.org/class/yago/Press106263369
p98
aVhttp://dbpedia.org/class/yago/Work104599396
p99
aVhttp://dbpedia.org/class/yago/PrintMedia106263609
p100
aVhttp://dbpedia.org/resource/Custom_Builder
tp101
aa(lp102
a(lp103
aa(lp104
(lp105
a(lp106
a(lp107
aa(lp108
(lp109
a(lp110
a(lp111
aa(lp112
(lp113
((lp114
Vhttp://www.w3.org/2002/07/owl#Thing
p115
aVhttp://dbpedia.org/resource/Tennis_court
tp116
aa(lp117
a(lp118
aa(lp119
(lp120
a(lp121
a(lp122
aa(lp123
(lp124
((lVhttp://dbpedia.org/resource/Foreclosure
tp125
aa(lp126
a(lp127
aa(lp128
(lp129
((lp130
Vhttp://www.w3.org/2002/07/owl#Thing
p131
aVhttp://www.ontologydesignpatterns.org/ont/dul/DUL.owl#Agent
p132
aVhttp://www.ontologydesignpatterns.org/ont/dul/DUL.owl#SocialPerson
p133
aVhttp://www.wikidata.org/entity/Q215380
p134
aVhttp://www.wikidata.org/entity/Q43229
p135
aVhttp://dbpedia.org/ontology/Agent
p136
aVhttp://dbpedia.org/ontology/Band
p137
aVhttp://dbpedia.org/ontology/Group
p138
aVhttp://dbpedia.org/ontology/Organisation
p139
aVhttp://schema.org/MusicGroup
p140
aVhttp://schema.org/Organization
p141
aVhttp://umbel.org/umbel/rc/Band_MusicGroup
p142
aVhttp://dbpedia.org/class/yago/Abstraction100002137
p143
aVhttp://dbpedia.org/class/yago/AmericanIndieRockGroups
p144
aVhttp://dbpedia.org/class/yago/DanceBand108249960
p145
aVhttp://dbpedia.org/class/yago/Group100031264
p146
aVhttp://dbpedia.org/class/yago/MusicalOrganization108246613
p147
aVhttp://dbpedia.org/class/yago/Organization108008335
p148
aVhttp://dbpedia.org/class/yago/RockGroup108250501
p149
aVhttp://dbpedia.org/class/yago/SocialGroup107950920
p150
aVhttp://dbpedia.org/class/yago/YagoLegalActorGeo
p151
aVhttp://dbpedia.org/class/yago/YagoPermanentlyLocatedEntity
p152
aVhttp://dbpedia.org/class/yago/MusicalGroupsEstablishedIn2004
p153
aVhttp://dbpedia.org/class/yago/MusicalGroupsFromSeattle,Washington
p154
aVhttp://dbpedia.org/class/yago/MusicalGroupsFromSouthCarolina
p155
aVhttp://dbpedia.org/class/yago/YagoLegalActor
p156
aVhttp://dbpedia.org/resource/Band_of_Horses
tp157
aa(lp158
a(lp159
aa(lp160
(lp161
((lp162
Vhttp://dbpedia.org/class/yago/AdministrativeDistrict108491826
p163
aVhttp://dbpedia.org/class/yago/Country108544813
p164
aVhttp://dbpedia.org/class/yago/District108552138
p165
aVhttp://dbpedia.org/class/yago/Location100027167
p166
aVhttp://dbpedia.org/class/yago/Object100002684
p167
aVhttp://dbpedia.org/class/yago/Region108630985
p168
aVhttp://dbpedia.org/class/yago/YagoGeoEntity
p169
aVhttp://dbpedia.org/class/yago/YagoLegalActorGeo
p170
aVhttp://dbpedia.org/class/yago/PhysicalEntity100001930
p171
aVhttp://dbpedia.org/class/yago/YagoPermanentlyLocatedEntity
p172
aVhttp://dbpedia.org/class/yago/UnitedStatesHousingBubble
p173
aVhttp://dbpedia.org/resource/Short_sale_(real_estate)
tp174
aa(lp175
a(lp176
aa(lp177
(lp178
((lVhttp://dbpedia.org/resource/Cul-de-sac_(disambiguation)
tp179
aa(lp180
a(lp181
aa(lp182
(lp183
((lVhttp://dbpedia.org/resource/Loft
p184
tp185
aa(lp186
a(lp187
aa.