(lp1
(lp2
(lp3
((lVhttp://dbpedia.org/resource/Chinese
tp4
aa(lp5
a(lp6
a(lp7
a(lp8
aa(lp9
(lp10
((lp11
Vhttp://www.w3.org/2002/07/owl#Thing
p12
aVhttp://dbpedia.org/ontology/Place
p13
aVhttp://dbpedia.org/ontology/Location
p14
aVhttp://www.wikidata.org/entity/Q3957
p15
aVhttp://www.wikidata.org/entity/Q486972
p16
aVhttp://dbpedia.org/ontology/PopulatedPlace
p17
aVhttp://dbpedia.org/ontology/Settlement
p18
aVhttp://dbpedia.org/ontology/Town
p19
aVhttp://www.w3.org/2003/01/geo/wgs84_pos#SpatialThing
p20
aVhttp://schema.org/Place
p21
aVhttp://umbel.org/umbel/rc/Town
p22
aVhttp://dbpedia.org/class/yago/AdministrativeDistrict108491826
p23
aVhttp://dbpedia.org/class/yago/Area108497294
p24
aVhttp://dbpedia.org/class/yago/Center108523483
p25
aVhttp://dbpedia.org/class/yago/District108552138
p26
aVhttp://dbpedia.org/class/yago/Location100027167
p27
aVhttp://dbpedia.org/class/yago/Object100002684
p28
aVhttp://dbpedia.org/class/yago/Region108630985
p29
aVhttp://dbpedia.org/class/yago/Seat108647945
p30
aVhttp://dbpedia.org/class/yago/Site108651247
p31
aVhttp://dbpedia.org/class/yago/Town108665504
p32
aVhttp://dbpedia.org/class/yago/Tract108673395
p33
aVhttp://dbpedia.org/class/yago/UrbanArea108675967
p34
aVhttp://dbpedia.org/class/yago/YagoGeoEntity
p35
aVhttp://dbpedia.org/class/yago/YagoLegalActorGeo
p36
aVhttp://dbpedia.org/class/yago/CountySeat108547143
p37
aVhttp://dbpedia.org/class/yago/CountySeatsInIndiana
p38
aVhttp://dbpedia.org/class/yago/GeographicalArea108574314
p39
aVhttp://dbpedia.org/class/yago/Municipality108626283
p40
aVhttp://dbpedia.org/class/yago/PhysicalEntity100001930
p41
aVhttp://dbpedia.org/class/yago/YagoPermanentlyLocatedEntity
p42
aVhttp://dbpedia.org/class/yago/PopulatedPlacesInCrawfordCounty,Indiana
p43
aVhttp://dbpedia.org/class/yago/TownsInIndiana
p44
aVhttp://dbpedia.org/resource/English,_Indiana
tp45
aa(lp46
a(lp47
a(lp48
a(lp49
aa(lp50
(lp51
((lp52
Vhttp://www.w3.org/2002/07/owl#Thing
p53
aVhttp://dbpedia.org/ontology/Place
p54
aVhttp://dbpedia.org/ontology/Location
p55
aVhttp://www.wikidata.org/entity/Q3957
p56
aVhttp://www.wikidata.org/entity/Q486972
p57
aVhttp://dbpedia.org/ontology/PopulatedPlace
p58
aVhttp://dbpedia.org/ontology/Settlement
p59
aVhttp://dbpedia.org/ontology/Town
p60
aVhttp://www.w3.org/2003/01/geo/wgs84_pos#SpatialThing
p61
aVhttp://schema.org/Place
p62
aVhttp://umbel.org/umbel/rc/Town
p63
aVhttp://dbpedia.org/class/yago/AdministrativeDistrict108491826
p64
aVhttp://dbpedia.org/class/yago/Area108497294
p65
aVhttp://dbpedia.org/class/yago/Center108523483
p66
aVhttp://dbpedia.org/class/yago/District108552138
p67
aVhttp://dbpedia.org/class/yago/Location100027167
p68
aVhttp://dbpedia.org/class/yago/Object100002684
p69
aVhttp://dbpedia.org/class/yago/Region108630985
p70
aVhttp://dbpedia.org/class/yago/Seat108647945
p71
aVhttp://dbpedia.org/class/yago/Site108651247
p72
aVhttp://dbpedia.org/class/yago/Town108665504
p73
aVhttp://dbpedia.org/class/yago/Tract108673395
p74
aVhttp://dbpedia.org/class/yago/UrbanArea108675967
p75
aVhttp://dbpedia.org/class/yago/YagoGeoEntity
p76
aVhttp://dbpedia.org/class/yago/YagoLegalActorGeo
p77
aVhttp://dbpedia.org/class/yago/CountySeat108547143
p78
aVhttp://dbpedia.org/class/yago/CountySeatsInIndiana
p79
aVhttp://dbpedia.org/class/yago/GeographicalArea108574314
p80
aVhttp://dbpedia.org/class/yago/Municipality108626283
p81
aVhttp://dbpedia.org/class/yago/PhysicalEntity100001930
p82
aVhttp://dbpedia.org/class/yago/YagoPermanentlyLocatedEntity
p83
aVhttp://dbpedia.org/class/yago/PopulatedPlacesInCrawfordCounty,Indiana
p84
aVhttp://dbpedia.org/class/yago/TownsInIndiana
p85
aVhttp://dbpedia.org/resource/English,_Indiana
tp86
aa(lp87
a(lp88
((lp89
Vhttp://www.w3.org/2002/07/owl#Thing
p90
aVhttp://dbpedia.org/ontology/Place
p91
aVhttp://dbpedia.org/ontology/Location
p92
aVhttp://www.wikidata.org/entity/Q486972
p93
aVhttp://www.wikidata.org/entity/Q6256
p94
aVhttp://dbpedia.org/ontology/Country
p95
aVhttp://dbpedia.org/ontology/PopulatedPlace
p96
aVhttp://www.w3.org/2003/01/geo/wgs84_pos#SpatialThing
p97
aVhttp://schema.org/Country
p98
aVhttp://schema.org/Place
p99
aVhttp://umbel.org/umbel/rc/Country
p100
aVhttp://umbel.org/umbel/rc/Location_Underspecified
p101
aVhttp://umbel.org/umbel/rc/PopulatedPlace
p102
aVhttp://dbpedia.org/class/yago/Abstraction100002137
p103
aVhttp://dbpedia.org/class/yago/AdministrativeDistrict108491826
p104
aVhttp://dbpedia.org/class/yago/Archipelago109203827
p105
aVhttp://dbpedia.org/class/yago/ArchipelagoesOfThePacificOcean
p106
aVhttp://dbpedia.org/class/yago/Country108544813
p107
aVhttp://dbpedia.org/class/yago/District108552138
p108
aVhttp://dbpedia.org/class/yago/Economy108366753
p109
aVhttp://dbpedia.org/class/yago/Group100031264
p110
aVhttp://dbpedia.org/class/yago/Island109316454
p111
aVhttp://dbpedia.org/class/yago/Land109334396
p112
aVhttp://dbpedia.org/class/yago/Location100027167
p113
aVhttp://dbpedia.org/class/yago/Object100002684
p114
aVhttp://dbpedia.org/class/yago/Region108630039
p115
aVhttp://dbpedia.org/class/yago/Region108630985
p116
aVhttp://dbpedia.org/class/yago/System108435388
p117
aVhttp://dbpedia.org/class/yago/YagoGeoEntity
p118
aVhttp://dbpedia.org/class/yago/YagoLegalActorGeo
p119
aVhttp://dbpedia.org/class/yago/DividedRegions
p120
aVhttp://dbpedia.org/class/yago/English-speakingCountriesAndTerritories
p121
aVhttp://dbpedia.org/class/yago/PhysicalEntity100001930
p122
aVhttp://dbpedia.org/class/yago/YagoPermanentlyLocatedEntity
p123
aVhttp://dbpedia.org/class/yago/IslandCountries
p124
aVhttp://dbpedia.org/class/yago/LeastDevelopedCountries
p125
aVhttp://dbpedia.org/class/yago/MemberStatesOfTheCommonwealthOfNations
p126
aVhttp://dbpedia.org/class/yago/MemberStatesOfTheUnitedNations
p127
aVhttp://dbpedia.org/class/yago/OceanianCountries
p128
aVhttp://dbpedia.org/class/yago/SolomonIslands
p129
aVhttp://dbpedia.org/class/yago/StatesAndTerritoriesEstablishedIn1978
p130
aVhttp://dbpedia.org/class/yago/VolcanicArcIslands
p131
aVhttp://dbpedia.org/class/yago/WorldTradeOrganizationMemberEconomies
p132
aVhttp://dbpedia.org/resource/Solomon_Islands
tp133
aa(lp134
a(lp135
aa(lp136
(lp137
((lp138
Vhttp://www.w3.org/2002/07/owl#Thing
p139
aVhttp://dbpedia.org/resource/Culture_of_Fiji
tp140
aa(lp141
a(lp142
((lp143
Vhttp://www.w3.org/2002/07/owl#Thing
p144
aVhttp://dbpedia.org/ontology/Place
p145
aVhttp://dbpedia.org/ontology/Location
p146
aVhttp://www.wikidata.org/entity/Q486972
p147
aVhttp://www.wikidata.org/entity/Q6256
p148
aVhttp://dbpedia.org/ontology/Country
p149
aVhttp://dbpedia.org/ontology/PopulatedPlace
p150
aVhttp://www.w3.org/2003/01/geo/wgs84_pos#SpatialThing
p151
aVhttp://schema.org/Country
p152
aVhttp://schema.org/Place
p153
aVhttp://umbel.org/umbel/rc/Country
p154
aVhttp://umbel.org/umbel/rc/Location_Underspecified
p155
aVhttp://umbel.org/umbel/rc/PopulatedPlace
p156
aVhttp://dbpedia.org/class/yago/Abstraction100002137
p157
aVhttp://dbpedia.org/class/yago/AdministrativeDistrict108491826
p158
aVhttp://dbpedia.org/class/yago/Country108544813
p159
aVhttp://dbpedia.org/class/yago/District108552138
p160
aVhttp://dbpedia.org/class/yago/Economy108366753
p161
aVhttp://dbpedia.org/class/yago/Group100031264
p162
aVhttp://dbpedia.org/class/yago/Location100027167
p163
aVhttp://dbpedia.org/class/yago/Object100002684
p164
aVhttp://dbpedia.org/class/yago/Region108630985
p165
aVhttp://dbpedia.org/class/yago/System108435388
p166
aVhttp://dbpedia.org/class/yago/YagoGeoEntity
p167
aVhttp://dbpedia.org/class/yago/YagoLegalActorGeo
p168
aVhttp://dbpedia.org/class/yago/English-speakingCountriesAndTerritories
p169
aVhttp://dbpedia.org/class/yago/PhysicalEntity100001930
p170
aVhttp://dbpedia.org/class/yago/YagoPermanentlyLocatedEntity
p171
aVhttp://dbpedia.org/class/yago/Hindustani-speakingCountriesAndTerritories
p172
aVhttp://dbpedia.org/class/yago/IslandCountries
p173
aVhttp://dbpedia.org/class/yago/MemberStatesOfTheUnitedNations
p174
aVhttp://dbpedia.org/class/yago/OceanianCountries
p175
aVhttp://dbpedia.org/class/yago/StatesAndTerritoriesEstablishedIn1970
p176
aVhttp://dbpedia.org/class/yago/WorldTradeOrganizationMemberEconomies
p177
aVhttp://dbpedia.org/resource/Fiji
tp178
aa(lp179
a(lp180
aa(lp181
(lp182
((lp183
Vhttp://www.w3.org/2002/07/owl#Thing
p184
aVhttp://dbpedia.org/resource/Culture_of_Fiji
tp185
aa(lp186
a(lp187
((lp188
Vhttp://www.w3.org/2002/07/owl#Thing
p189
aVhttp://dbpedia.org/ontology/Place
p190
aVhttp://dbpedia.org/ontology/Location
p191
aVhttp://www.wikidata.org/entity/Q486972
p192
aVhttp://www.wikidata.org/entity/Q6256
p193
aVhttp://dbpedia.org/ontology/Country
p194
aVhttp://dbpedia.org/ontology/PopulatedPlace
p195
aVhttp://www.w3.org/2003/01/geo/wgs84_pos#SpatialThing
p196
aVhttp://schema.org/Country
p197
aVhttp://schema.org/Place
p198
aVhttp://umbel.org/umbel/rc/Country
p199
aVhttp://umbel.org/umbel/rc/Location_Underspecified
p200
aVhttp://umbel.org/umbel/rc/PopulatedPlace
p201
aVhttp://dbpedia.org/class/yago/Abstraction100002137
p202
aVhttp://dbpedia.org/class/yago/AdministrativeDistrict108491826
p203
aVhttp://dbpedia.org/class/yago/Country108544813
p204
aVhttp://dbpedia.org/class/yago/District108552138
p205
aVhttp://dbpedia.org/class/yago/Economy108366753
p206
aVhttp://dbpedia.org/class/yago/Group100031264
p207
aVhttp://dbpedia.org/class/yago/Location100027167
p208
aVhttp://dbpedia.org/class/yago/Object100002684
p209
aVhttp://dbpedia.org/class/yago/Region108630985
p210
aVhttp://dbpedia.org/class/yago/System108435388
p211
aVhttp://dbpedia.org/class/yago/YagoGeoEntity
p212
aVhttp://dbpedia.org/class/yago/YagoLegalActorGeo
p213
aVhttp://dbpedia.org/class/yago/English-speakingCountriesAndTerritories
p214
aVhttp://dbpedia.org/class/yago/PhysicalEntity100001930
p215
aVhttp://dbpedia.org/class/yago/YagoPermanentlyLocatedEntity
p216
aVhttp://dbpedia.org/class/yago/Hindustani-speakingCountriesAndTerritories
p217
aVhttp://dbpedia.org/class/yago/IslandCountries
p218
aVhttp://dbpedia.org/class/yago/MemberStatesOfTheUnitedNations
p219
aVhttp://dbpedia.org/class/yago/OceanianCountries
p220
aVhttp://dbpedia.org/class/yago/StatesAndTerritoriesEstablishedIn1970
p221
aVhttp://dbpedia.org/class/yago/WorldTradeOrganizationMemberEconomies
p222
aVhttp://dbpedia.org/resource/Fiji
tp223
aa(lp224
a(lp225
aa(lp226
(lp227
((lp228
Vhttp://www.w3.org/2002/07/owl#Thing
p229
aVhttp://dbpedia.org/resource/Culture_of_Fiji
tp230
aa(lp231
a(lp232
((lp233
Vhttp://www.w3.org/2002/07/owl#Thing
p234
aVhttp://dbpedia.org/ontology/Place
p235
aVhttp://dbpedia.org/ontology/Location
p236
aVhttp://www.wikidata.org/entity/Q486972
p237
aVhttp://www.wikidata.org/entity/Q6256
p238
aVhttp://dbpedia.org/ontology/Country
p239
aVhttp://dbpedia.org/ontology/PopulatedPlace
p240
aVhttp://www.w3.org/2003/01/geo/wgs84_pos#SpatialThing
p241
aVhttp://schema.org/Country
p242
aVhttp://schema.org/Place
p243
aVhttp://umbel.org/umbel/rc/Country
p244
aVhttp://umbel.org/umbel/rc/Location_Underspecified
p245
aVhttp://umbel.org/umbel/rc/PopulatedPlace
p246
aVhttp://dbpedia.org/class/yago/Abstraction100002137
p247
aVhttp://dbpedia.org/class/yago/AdministrativeDistrict108491826
p248
aVhttp://dbpedia.org/class/yago/Country108544813
p249
aVhttp://dbpedia.org/class/yago/District108552138
p250
aVhttp://dbpedia.org/class/yago/Economy108366753
p251
aVhttp://dbpedia.org/class/yago/Group100031264
p252
aVhttp://dbpedia.org/class/yago/Location100027167
p253
aVhttp://dbpedia.org/class/yago/Object100002684
p254
aVhttp://dbpedia.org/class/yago/Region108630985
p255
aVhttp://dbpedia.org/class/yago/System108435388
p256
aVhttp://dbpedia.org/class/yago/YagoGeoEntity
p257
aVhttp://dbpedia.org/class/yago/YagoLegalActorGeo
p258
aVhttp://dbpedia.org/class/yago/English-speakingCountriesAndTerritories
p259
aVhttp://dbpedia.org/class/yago/PhysicalEntity100001930
p260
aVhttp://dbpedia.org/class/yago/YagoPermanentlyLocatedEntity
p261
aVhttp://dbpedia.org/class/yago/Hindustani-speakingCountriesAndTerritories
p262
aVhttp://dbpedia.org/class/yago/IslandCountries
p263
aVhttp://dbpedia.org/class/yago/MemberStatesOfTheUnitedNations
p264
aVhttp://dbpedia.org/class/yago/OceanianCountries
p265
aVhttp://dbpedia.org/class/yago/StatesAndTerritoriesEstablishedIn1970
p266
aVhttp://dbpedia.org/class/yago/WorldTradeOrganizationMemberEconomies
p267
aVhttp://dbpedia.org/resource/Fiji
tp268
aa(lp269
a(lp270
aa(lp271
(lp272
((lp273
Vhttp://www.w3.org/2002/07/owl#Thing
p274
aVhttp://dbpedia.org/resource/Culture_of_Fiji
tp275
aa(lp276
a(lp277
((lp278
Vhttp://www.w3.org/2002/07/owl#Thing
p279
aVhttp://dbpedia.org/ontology/Place
p280
aVhttp://dbpedia.org/ontology/Location
p281
aVhttp://www.wikidata.org/entity/Q486972
p282
aVhttp://www.wikidata.org/entity/Q6256
p283
aVhttp://dbpedia.org/ontology/Country
p284
aVhttp://dbpedia.org/ontology/PopulatedPlace
p285
aVhttp://www.w3.org/2003/01/geo/wgs84_pos#SpatialThing
p286
aVhttp://schema.org/Country
p287
aVhttp://schema.org/Place
p288
aVhttp://umbel.org/umbel/rc/Country
p289
aVhttp://umbel.org/umbel/rc/Location_Underspecified
p290
aVhttp://umbel.org/umbel/rc/PopulatedPlace
p291
aVhttp://dbpedia.org/class/yago/Abstraction100002137
p292
aVhttp://dbpedia.org/class/yago/AdministrativeDistrict108491826
p293
aVhttp://dbpedia.org/class/yago/Country108544813
p294
aVhttp://dbpedia.org/class/yago/District108552138
p295
aVhttp://dbpedia.org/class/yago/Economy108366753
p296
aVhttp://dbpedia.org/class/yago/Group100031264
p297
aVhttp://dbpedia.org/class/yago/Location100027167
p298
aVhttp://dbpedia.org/class/yago/Object100002684
p299
aVhttp://dbpedia.org/class/yago/Region108630985
p300
aVhttp://dbpedia.org/class/yago/System108435388
p301
aVhttp://dbpedia.org/class/yago/YagoGeoEntity
p302
aVhttp://dbpedia.org/class/yago/YagoLegalActorGeo
p303
aVhttp://dbpedia.org/class/yago/English-speakingCountriesAndTerritories
p304
aVhttp://dbpedia.org/class/yago/PhysicalEntity100001930
p305
aVhttp://dbpedia.org/class/yago/YagoPermanentlyLocatedEntity
p306
aVhttp://dbpedia.org/class/yago/Hindustani-speakingCountriesAndTerritories
p307
aVhttp://dbpedia.org/class/yago/IslandCountries
p308
aVhttp://dbpedia.org/class/yago/MemberStatesOfTheUnitedNations
p309
aVhttp://dbpedia.org/class/yago/OceanianCountries
p310
aVhttp://dbpedia.org/class/yago/StatesAndTerritoriesEstablishedIn1970
p311
aVhttp://dbpedia.org/class/yago/WorldTradeOrganizationMemberEconomies
p312
aVhttp://dbpedia.org/resource/Fiji
tp313
aa(lp314
a(lp315
aa(lp316
(lp317
((lp318
Vhttp://dbpedia.org/class/yago/Abstraction100002137
p319
aVhttp://dbpedia.org/class/yago/Name106333653
p320
aVhttp://dbpedia.org/class/yago/Part113809207
p321
aVhttp://dbpedia.org/class/yago/Relation100031921
p322
aVhttp://dbpedia.org/class/yago/TradeName106845599
p323
aVhttp://dbpedia.org/class/yago/LanguageUnit106284225
p324
aVhttp://dbpedia.org/class/yago/KraftFoodsBrands
p325
aVhttp://dbpedia.org/class/yago/UnitedBiscuitsBrands
p326
aVhttp://dbpedia.org/resource/Filipinos_(snack_food)
tp327
aa(lp328
a(lp329
((lp330
Vhttp://www.w3.org/2002/07/owl#Thing
p331
aVhttp://dbpedia.org/ontology/Place
p332
aVhttp://dbpedia.org/ontology/Location
p333
aVhttp://www.wikidata.org/entity/Q486972
p334
aVhttp://www.wikidata.org/entity/Q6256
p335
aVhttp://dbpedia.org/ontology/Country
p336
aVhttp://dbpedia.org/ontology/PopulatedPlace
p337
aVhttp://www.w3.org/2003/01/geo/wgs84_pos#SpatialThing
p338
aVhttp://schema.org/Country
p339
aVhttp://schema.org/Place
p340
aVhttp://umbel.org/umbel/rc/Country
p341
aVhttp://umbel.org/umbel/rc/Location_Underspecified
p342
aVhttp://umbel.org/umbel/rc/PopulatedPlace
p343
aVhttp://dbpedia.org/class/yago/Abstraction100002137
p344
aVhttp://dbpedia.org/class/yago/AdministrativeDistrict108491826
p345
aVhttp://dbpedia.org/class/yago/Country108544813
p346
aVhttp://dbpedia.org/class/yago/District108552138
p347
aVhttp://dbpedia.org/class/yago/Economy108366753
p348
aVhttp://dbpedia.org/class/yago/Group100031264
p349
aVhttp://dbpedia.org/class/yago/Island109316454
p350
aVhttp://dbpedia.org/class/yago/Land109334396
p351
aVhttp://dbpedia.org/class/yago/Location100027167
p352
aVhttp://dbpedia.org/class/yago/Object100002684
p353
aVhttp://dbpedia.org/class/yago/Region108630985
p354
aVhttp://dbpedia.org/class/yago/System108435388
p355
aVhttp://dbpedia.org/class/yago/YagoGeoEntity
p356
aVhttp://dbpedia.org/class/yago/YagoLegalActorGeo
p357
aVhttp://dbpedia.org/class/yago/CountriesBorderingThePacificOcean
p358
aVhttp://dbpedia.org/class/yago/CountriesBorderingThePhilippineSea
p359
aVhttp://dbpedia.org/class/yago/CountriesBorderingTheSouthChinaSea
p360
aVhttp://dbpedia.org/class/yago/English-speakingCountriesAndTerritories
p361
aVhttp://dbpedia.org/class/yago/PhysicalEntity100001930
p362
aVhttp://dbpedia.org/class/yago/YagoPermanentlyLocatedEntity
p363
aVhttp://dbpedia.org/class/yago/IslandCountries
p364
aVhttp://dbpedia.org/class/yago/MemberStatesOfTheAssociationOfSoutheastAsianNations
p365
aVhttp://dbpedia.org/class/yago/MemberStatesOfTheUnitedNations
p366
aVhttp://dbpedia.org/class/yago/SoutheastAsianCountries
p367
aVhttp://dbpedia.org/class/yago/StatesAndTerritoriesEstablishedIn1565
p368
aVhttp://dbpedia.org/class/yago/StatesAndTerritoriesEstablishedIn1898
p369
aVhttp://dbpedia.org/class/yago/StatesAndTerritoriesEstablishedIn1946
p370
aVhttp://dbpedia.org/class/yago/VolcanicArcIslands
p371
aVhttp://dbpedia.org/class/yago/WorldTradeOrganizationMemberEconomies
p372
aVhttp://dbpedia.org/resource/Philippines
tp373
aa(lp374
a(lp375
aa(lp376
(lp377
((lp378
Vhttp://www.w3.org/2002/07/owl#Thing
p379
aVhttp://dbpedia.org/ontology/Place
p380
aVhttp://dbpedia.org/ontology/Location
p381
aVhttp://www.wikidata.org/entity/Q4022
p382
aVhttp://www.wikidata.org/entity/Q47521
p383
aVhttp://dbpedia.org/ontology/BodyOfWater
p384
aVhttp://dbpedia.org/ontology/NaturalPlace
p385
aVhttp://dbpedia.org/ontology/River
p386
aVhttp://dbpedia.org/ontology/Stream
p387
aVhttp://schema.org/BodyOfWater
p388
aVhttp://schema.org/Place
p389
aVhttp://schema.org/RiverBodyOfWater
p390
aVhttp://umbel.org/umbel/rc/BodyOfWater
p391
aVhttp://umbel.org/umbel/rc/River
p392
aVhttp://umbel.org/umbel/rc/Stream
p393
aVhttp://dbpedia.org/class/yago/BodyOfWater109225146
p394
aVhttp://dbpedia.org/class/yago/Branch109228324
p395
aVhttp://dbpedia.org/class/yago/CanadianHeritageRivers
p396
aVhttp://dbpedia.org/class/yago/River109411430
p397
aVhttp://dbpedia.org/class/yago/Stream109448361
p398
aVhttp://dbpedia.org/class/yago/Thing100002452
p399
aVhttp://dbpedia.org/class/yago/YagoGeoEntity
p400
aVhttp://dbpedia.org/class/yago/Feeder109278997
p401
aVhttp://dbpedia.org/class/yago/PhysicalEntity100001930
p402
aVhttp://dbpedia.org/class/yago/YagoPermanentlyLocatedEntity
p403
aVhttp://dbpedia.org/class/yago/RiversOfOntario
p404
aVhttp://dbpedia.org/class/yago/TributariesOfLakeHuron
p405
aVhttp://dbpedia.org/resource/French_River_(Ontario)
tp406
aa(lp407
a(lp408
a(lp409
a(lp410
aa(lp411
(lp412
((lp413
Vhttp://www.w3.org/2002/07/owl#Thing
p414
aVhttp://dbpedia.org/ontology/Place
p415
aVhttp://dbpedia.org/ontology/Location
p416
aVhttp://www.wikidata.org/entity/Q4022
p417
aVhttp://www.wikidata.org/entity/Q47521
p418
aVhttp://dbpedia.org/ontology/BodyOfWater
p419
aVhttp://dbpedia.org/ontology/NaturalPlace
p420
aVhttp://dbpedia.org/ontology/River
p421
aVhttp://dbpedia.org/ontology/Stream
p422
aVhttp://schema.org/BodyOfWater
p423
aVhttp://schema.org/Place
p424
aVhttp://schema.org/RiverBodyOfWater
p425
aVhttp://umbel.org/umbel/rc/BodyOfWater
p426
aVhttp://umbel.org/umbel/rc/River
p427
aVhttp://umbel.org/umbel/rc/Stream
p428
aVhttp://dbpedia.org/class/yago/BodyOfWater109225146
p429
aVhttp://dbpedia.org/class/yago/Branch109228324
p430
aVhttp://dbpedia.org/class/yago/CanadianHeritageRivers
p431
aVhttp://dbpedia.org/class/yago/River109411430
p432
aVhttp://dbpedia.org/class/yago/Stream109448361
p433
aVhttp://dbpedia.org/class/yago/Thing100002452
p434
aVhttp://dbpedia.org/class/yago/YagoGeoEntity
p435
aVhttp://dbpedia.org/class/yago/Feeder109278997
p436
aVhttp://dbpedia.org/class/yago/PhysicalEntity100001930
p437
aVhttp://dbpedia.org/class/yago/YagoPermanentlyLocatedEntity
p438
aVhttp://dbpedia.org/class/yago/RiversOfOntario
p439
aVhttp://dbpedia.org/class/yago/TributariesOfLakeHuron
p440
aVhttp://dbpedia.org/resource/French_River_(Ontario)
tp441
aa(lp442
a(lp443
a(lp444
a(lp445
aa(lp446
(lp447
((lp448
Vhttp://dbpedia.org/class/yago/Abstraction100002137
p449
aVhttp://dbpedia.org/class/yago/BuyeoLanguages
p450
aVhttp://dbpedia.org/class/yago/Class107997703
p451
aVhttp://dbpedia.org/class/yago/Collection107951464
p452
aVhttp://dbpedia.org/class/yago/Communication100033020
p453
aVhttp://dbpedia.org/class/yago/Group100031264
p454
aVhttp://dbpedia.org/class/yago/Language106282651
p455
aVhttp://dbpedia.org/class/yago/JaponicLanguages
p456
aVhttp://dbpedia.org/resource/Japonic_languages
tp457
aa(lp458
a(lp459
a(lp460
a(lp461
aa(lp462
(lp463
a(lp464
a(lp465
((lp466
Vhttp://www.w3.org/2002/07/owl#Thing
p467
aVhttp://dbpedia.org/ontology/Place
p468
aVhttp://dbpedia.org/ontology/Location
p469
aVhttp://www.wikidata.org/entity/Q486972
p470
aVhttp://www.wikidata.org/entity/Q6256
p471
aVhttp://dbpedia.org/ontology/Country
p472
aVhttp://dbpedia.org/ontology/PopulatedPlace
p473
aVhttp://www.w3.org/2003/01/geo/wgs84_pos#SpatialThing
p474
aVhttp://schema.org/Country
p475
aVhttp://schema.org/Place
p476
aVhttp://umbel.org/umbel/rc/Country
p477
aVhttp://umbel.org/umbel/rc/Location_Underspecified
p478
aVhttp://umbel.org/umbel/rc/PopulatedPlace
p479
aVhttp://dbpedia.org/class/yago/Abstraction100002137
p480
aVhttp://dbpedia.org/class/yago/AdministrativeDistrict108491826
p481
aVhttp://dbpedia.org/class/yago/Archipelago109203827
p482
aVhttp://dbpedia.org/class/yago/ArchipelagoesOfThePacificOcean
p483
aVhttp://dbpedia.org/class/yago/Country108544813
p484
aVhttp://dbpedia.org/class/yago/District108552138
p485
aVhttp://dbpedia.org/class/yago/Economy108366753
p486
aVhttp://dbpedia.org/class/yago/Group100031264
p487
aVhttp://dbpedia.org/class/yago/Island109316454
p488
aVhttp://dbpedia.org/class/yago/Land109334396
p489
aVhttp://dbpedia.org/class/yago/Location100027167
p490
aVhttp://dbpedia.org/class/yago/Object100002684
p491
aVhttp://dbpedia.org/class/yago/Region108630039
p492
aVhttp://dbpedia.org/class/yago/Region108630985
p493
aVhttp://dbpedia.org/class/yago/System108435388
p494
aVhttp://dbpedia.org/class/yago/YagoGeoEntity
p495
aVhttp://dbpedia.org/class/yago/YagoLegalActorGeo
p496
aVhttp://dbpedia.org/class/yago/DividedRegions
p497
aVhttp://dbpedia.org/class/yago/English-speakingCountriesAndTerritories
p498
aVhttp://dbpedia.org/class/yago/PhysicalEntity100001930
p499
aVhttp://dbpedia.org/class/yago/YagoPermanentlyLocatedEntity
p500
aVhttp://dbpedia.org/class/yago/IslandCountries
p501
aVhttp://dbpedia.org/class/yago/LeastDevelopedCountries
p502
aVhttp://dbpedia.org/class/yago/MemberStatesOfTheCommonwealthOfNations
p503
aVhttp://dbpedia.org/class/yago/MemberStatesOfTheUnitedNations
p504
aVhttp://dbpedia.org/class/yago/OceanianCountries
p505
aVhttp://dbpedia.org/class/yago/SolomonIslands
p506
aVhttp://dbpedia.org/class/yago/StatesAndTerritoriesEstablishedIn1978
p507
aVhttp://dbpedia.org/class/yago/VolcanicArcIslands
p508
aVhttp://dbpedia.org/class/yago/WorldTradeOrganizationMemberEconomies
p509
aVhttp://dbpedia.org/resource/Solomon_Islands
tp510
aa(lp511
a(lp512
aa(lp513
(lp514
((lp515
Vhttp://dbpedia.org/class/yago/Island109316454
p516
aVhttp://dbpedia.org/class/yago/Land109334396
p517
aVhttp://dbpedia.org/class/yago/Object100002684
p518
aVhttp://dbpedia.org/class/yago/YagoGeoEntity
p519
aVhttp://dbpedia.org/class/yago/PhysicalEntity100001930
p520
aVhttp://dbpedia.org/class/yago/YagoPermanentlyLocatedEntity
p521
aVhttp://dbpedia.org/class/yago/IslandsOfAitutaki
p522
aVhttp://dbpedia.org/resource/Maina_(Cook_Islands)
tp523
aa(lp524
a(lp525
((lp526
Vhttp://www.w3.org/2002/07/owl#Thing
p527
aVhttp://dbpedia.org/ontology/Place
p528
aVhttp://dbpedia.org/ontology/Location
p529
aVhttp://www.wikidata.org/entity/Q23442
p530
aVhttp://www.wikidata.org/entity/Q486972
p531
aVhttp://dbpedia.org/ontology/Island
p532
aVhttp://dbpedia.org/ontology/PopulatedPlace
p533
aVhttp://schema.org/Place
p534
aVhttp://umbel.org/umbel/rc/Island
p535
aVhttp://dbpedia.org/class/yago/Atoll109210862
p536
aVhttp://dbpedia.org/class/yago/AtollsOfTheCookIslands
p537
aVhttp://dbpedia.org/class/yago/CoralReef109256479
p538
aVhttp://dbpedia.org/class/yago/GeologicalFormation109287968
p539
aVhttp://dbpedia.org/class/yago/Island109316454
p540
aVhttp://dbpedia.org/class/yago/Land109334396
p541
aVhttp://dbpedia.org/class/yago/Object100002684
p542
aVhttp://dbpedia.org/class/yago/Reef109406793
p543
aVhttp://dbpedia.org/class/yago/Ridge109409512
p544
aVhttp://dbpedia.org/class/yago/YagoGeoEntity
p545
aVhttp://dbpedia.org/class/yago/PhysicalEntity100001930
p546
aVhttp://dbpedia.org/class/yago/YagoPermanentlyLocatedEntity
p547
aVhttp://dbpedia.org/class/yago/IslandsOfAitutaki
p548
aVhttp://dbpedia.org/class/yago/NaturalElevation109366317
p549
aVhttp://dbpedia.org/resource/Aitutaki
tp550
aa(lp551
a(lp552
aa(lp553
(lp554
((lVhttp://dbpedia.org/resource/Other
tp555
aa(lp556
a(lp557
((lp558
Vhttp://www.w3.org/2002/07/owl#Thing
p559
aVhttp://dbpedia.org/ontology/Place
p560
aVhttp://dbpedia.org/ontology/Location
p561
aVhttp://www.wikidata.org/entity/Q486972
p562
aVhttp://www.wikidata.org/entity/Q6256
p563
aVhttp://dbpedia.org/ontology/Country
p564
aVhttp://dbpedia.org/ontology/PopulatedPlace
p565
aVhttp://www.w3.org/2003/01/geo/wgs84_pos#SpatialThing
p566
aVhttp://schema.org/Country
p567
aVhttp://schema.org/Place
p568
aVhttp://umbel.org/umbel/rc/Country
p569
aVhttp://umbel.org/umbel/rc/Location_Underspecified
p570
aVhttp://umbel.org/umbel/rc/PopulatedPlace
p571
aVhttp://dbpedia.org/class/yago/AdministrativeDistrict108491826
p572
aVhttp://dbpedia.org/class/yago/Archipelago109203827
p573
aVhttp://dbpedia.org/class/yago/ArchipelagoesOfThePacificOcean
p574
aVhttp://dbpedia.org/class/yago/Area108497294
p575
aVhttp://dbpedia.org/class/yago/Country108544813
p576
aVhttp://dbpedia.org/class/yago/District108552138
p577
aVhttp://dbpedia.org/class/yago/Island109316454
p578
aVhttp://dbpedia.org/class/yago/Land109334396
p579
aVhttp://dbpedia.org/class/yago/Location100027167
p580
aVhttp://dbpedia.org/class/yago/Object100002684
p581
aVhttp://dbpedia.org/class/yago/Region108630985
p582
aVhttp://dbpedia.org/class/yago/Site108651247
p583
aVhttp://dbpedia.org/class/yago/Tract108673395
p584
aVhttp://dbpedia.org/class/yago/YagoGeoEntity
p585
aVhttp://dbpedia.org/class/yago/YagoLegalActorGeo
p586
aVhttp://dbpedia.org/class/yago/English-speakingCountriesAndTerritories
p587
aVhttp://dbpedia.org/class/yago/GeographicalArea108574314
p588
aVhttp://dbpedia.org/class/yago/PhysicalEntity100001930
p589
aVhttp://dbpedia.org/class/yago/YagoPermanentlyLocatedEntity
p590
aVhttp://dbpedia.org/class/yago/InsularAreasOfTheUnitedStates
p591
aVhttp://dbpedia.org/class/yago/IslandCountries
p592
aVhttp://dbpedia.org/class/yago/NorthernMarianaIslands
p593
aVhttp://dbpedia.org/class/yago/StatesAndTerritoriesEstablishedIn1898
p594
aVhttp://dbpedia.org/class/yago/WorldWarIISites
p595
aVhttp://dbpedia.org/resource/Northern_Mariana_Islands
tp596
aa(lp597
a(lp598
aa(lp599
(lp600
a(lp601
a(lp602
a(lp603
a(lp604
aa(lp605
(lp606
a(lp607
a(lp608
((lp609
Vhttp://www.w3.org/2002/07/owl#Thing
p610
aVhttp://dbpedia.org/ontology/Place
p611
aVhttp://dbpedia.org/ontology/Location
p612
aVhttp://www.wikidata.org/entity/Q23442
p613
aVhttp://www.wikidata.org/entity/Q486972
p614
aVhttp://dbpedia.org/ontology/Island
p615
aVhttp://dbpedia.org/ontology/PopulatedPlace
p616
aVhttp://schema.org/Place
p617
aVhttp://dbpedia.org/class/yago/AdministrativeDistrict108491826
p618
aVhttp://dbpedia.org/class/yago/Country108544813
p619
aVhttp://dbpedia.org/class/yago/District108552138
p620
aVhttp://dbpedia.org/class/yago/Island109316454
p621
aVhttp://dbpedia.org/class/yago/Land109334396
p622
aVhttp://dbpedia.org/class/yago/Location100027167
p623
aVhttp://dbpedia.org/class/yago/Object100002684
p624
aVhttp://dbpedia.org/class/yago/Region108630985
p625
aVhttp://dbpedia.org/class/yago/YagoGeoEntity
p626
aVhttp://dbpedia.org/class/yago/YagoLegalActorGeo
p627
aVhttp://dbpedia.org/class/yago/PhysicalEntity100001930
p628
aVhttp://dbpedia.org/class/yago/YagoPermanentlyLocatedEntity
p629
aVhttp://dbpedia.org/class/yago/IslandsOfPohnpei
p630
aVhttp://dbpedia.org/class/yago/StatesOfTheFederatedStatesOfMicronesia
p631
aVhttp://dbpedia.org/resource/Pohnpei
tp632
aa(lp633
a(lp634
aa(lp635
(lp636
a(lp637
a(lp638
((lp639
Vhttp://www.w3.org/2002/07/owl#Thing
p640
aVhttp://dbpedia.org/ontology/Place
p641
aVhttp://dbpedia.org/ontology/Location
p642
aVhttp://www.wikidata.org/entity/Q23442
p643
aVhttp://www.wikidata.org/entity/Q486972
p644
aVhttp://dbpedia.org/ontology/Island
p645
aVhttp://dbpedia.org/ontology/PopulatedPlace
p646
aVhttp://schema.org/Place
p647
aVhttp://dbpedia.org/class/yago/AdministrativeDistrict108491826
p648
aVhttp://dbpedia.org/class/yago/Country108544813
p649
aVhttp://dbpedia.org/class/yago/District108552138
p650
aVhttp://dbpedia.org/class/yago/Island109316454
p651
aVhttp://dbpedia.org/class/yago/Land109334396
p652
aVhttp://dbpedia.org/class/yago/Location100027167
p653
aVhttp://dbpedia.org/class/yago/Object100002684
p654
aVhttp://dbpedia.org/class/yago/Region108630985
p655
aVhttp://dbpedia.org/class/yago/YagoGeoEntity
p656
aVhttp://dbpedia.org/class/yago/YagoLegalActorGeo
p657
aVhttp://dbpedia.org/class/yago/PhysicalEntity100001930
p658
aVhttp://dbpedia.org/class/yago/YagoPermanentlyLocatedEntity
p659
aVhttp://dbpedia.org/class/yago/IslandsOfPohnpei
p660
aVhttp://dbpedia.org/class/yago/StatesOfTheFederatedStatesOfMicronesia
p661
aVhttp://dbpedia.org/resource/Pohnpei
tp662
aa(lp663
a(lp664
aa(lp665
(lp666
a(lp667
a(lp668
((lp669
Vhttp://www.w3.org/2002/07/owl#Thing
p670
aVhttp://dbpedia.org/ontology/Place
p671
aVhttp://dbpedia.org/ontology/Location
p672
aVhttp://www.wikidata.org/entity/Q23442
p673
aVhttp://www.wikidata.org/entity/Q486972
p674
aVhttp://dbpedia.org/ontology/Island
p675
aVhttp://dbpedia.org/ontology/PopulatedPlace
p676
aVhttp://schema.org/Place
p677
aVhttp://dbpedia.org/class/yago/AdministrativeDistrict108491826
p678
aVhttp://dbpedia.org/class/yago/Country108544813
p679
aVhttp://dbpedia.org/class/yago/District108552138
p680
aVhttp://dbpedia.org/class/yago/Island109316454
p681
aVhttp://dbpedia.org/class/yago/Land109334396
p682
aVhttp://dbpedia.org/class/yago/Location100027167
p683
aVhttp://dbpedia.org/class/yago/Object100002684
p684
aVhttp://dbpedia.org/class/yago/Region108630985
p685
aVhttp://dbpedia.org/class/yago/YagoGeoEntity
p686
aVhttp://dbpedia.org/class/yago/YagoLegalActorGeo
p687
aVhttp://dbpedia.org/class/yago/PhysicalEntity100001930
p688
aVhttp://dbpedia.org/class/yago/YagoPermanentlyLocatedEntity
p689
aVhttp://dbpedia.org/class/yago/IslandsOfPohnpei
p690
aVhttp://dbpedia.org/class/yago/StatesOfTheFederatedStatesOfMicronesia
p691
aVhttp://dbpedia.org/resource/Pohnpei
tp692
aa(lp693
a(lp694
aa(lp695
(lp696
((lp697
Vhttp://www.w3.org/2002/07/owl#Thing
p698
aVhttp://dbpedia.org/ontology/Place
p699
aVhttp://dbpedia.org/ontology/Location
p700
aVhttp://www.wikidata.org/entity/Q486972
p701
aVhttp://dbpedia.org/ontology/PopulatedPlace
p702
aVhttp://schema.org/Place
p703
aVhttp://umbel.org/umbel/rc/Island
p704
aVhttp://umbel.org/umbel/rc/Location_Underspecified
p705
aVhttp://umbel.org/umbel/rc/PopulatedPlace
p706
aVhttp://dbpedia.org/class/yago/Archipelago109203827
p707
aVhttp://dbpedia.org/class/yago/ArchipelagoesOfThePacificOcean
p708
aVhttp://dbpedia.org/class/yago/Island109316454
p709
aVhttp://dbpedia.org/class/yago/Land109334396
p710
aVhttp://dbpedia.org/class/yago/Object100002684
p711
aVhttp://dbpedia.org/class/yago/YagoGeoEntity
p712
aVhttp://dbpedia.org/class/yago/PhysicalEntity100001930
p713
aVhttp://dbpedia.org/class/yago/YagoPermanentlyLocatedEntity
p714
aVhttp://dbpedia.org/class/yago/IslandsOfSamoa
p715
aVhttp://dbpedia.org/resource/Samoan_Islands
tp716
aa(lp717
a(lp718
a(lp719
a(lp720
aa(lp721
(lp722
((lp723
Vhttp://www.w3.org/2002/07/owl#Thing
p724
aVhttp://dbpedia.org/ontology/Place
p725
aVhttp://dbpedia.org/ontology/Location
p726
aVhttp://www.wikidata.org/entity/Q486972
p727
aVhttp://dbpedia.org/ontology/PopulatedPlace
p728
aVhttp://schema.org/Place
p729
aVhttp://umbel.org/umbel/rc/Island
p730
aVhttp://umbel.org/umbel/rc/Location_Underspecified
p731
aVhttp://umbel.org/umbel/rc/PopulatedPlace
p732
aVhttp://dbpedia.org/class/yago/Archipelago109203827
p733
aVhttp://dbpedia.org/class/yago/ArchipelagoesOfThePacificOcean
p734
aVhttp://dbpedia.org/class/yago/Island109316454
p735
aVhttp://dbpedia.org/class/yago/Land109334396
p736
aVhttp://dbpedia.org/class/yago/Object100002684
p737
aVhttp://dbpedia.org/class/yago/YagoGeoEntity
p738
aVhttp://dbpedia.org/class/yago/PhysicalEntity100001930
p739
aVhttp://dbpedia.org/class/yago/YagoPermanentlyLocatedEntity
p740
aVhttp://dbpedia.org/class/yago/IslandsOfSamoa
p741
aVhttp://dbpedia.org/resource/Samoan_Islands
p742
tp743
aa(lp744
a(lp745
a(lp746
a(lp747
aa.