(lp1
(lp2
(lp3
Vhttp://dbpedia.org/resource/South_Korea
p4
aa(lp5
a(lp6
Vhttp://dbpedia.org/resource/Korean_Peninsula
p7
aa(lp8
a(lp9
a(lp10
aa(lp11
(lp12
Vhttp://dbpedia.org/resource/Japan
p13
aa(lp14
a(lp15
Vhttp://dbpedia.org/resource/Japonic_languages
p16
aa(lp17
Vhttp://dbpedia.org/resource/Japan
p18
aa(lp19
a(lp20
aa(lp21
(lp22
Vhttp://dbpedia.org/resource/China
p23
aa(lp24
a(lp25
Vhttp://dbpedia.org/resource/Simplified_Chinese_characters
p26
aa(lp27
Vhttp://dbpedia.org/resource/China
p28
aa(lp29
a(lp30
aa(lp31
(lp32
Vhttp://dbpedia.org/resource/Philippines
p33
aa(lp34
a(lp35
Vhttp://dbpedia.org/resource/English,_Indiana
p36
aa(lp37
Vhttp://dbpedia.org/resource/Philippines
p38
aa(lp39
a(lp40
aa(lp41
(lp42
Vhttp://dbpedia.org/resource/Southeast_Asia
p43
aa(lp44
a(lp45
Vhttp://dbpedia.org/resource/English,_Indiana
p46
aa(lp47
a(lp48
a(lp49
aa(lp50
(lp51
Vhttp://dbpedia.org/resource/Thailand
p52
aa(lp53
a(lp54
Vhttp://dbpedia.org/resource/Cai_(surname)
p55
aa(lp56
Vhttp://dbpedia.org/resource/Thailand
p57
aa(lp58
a(lp59
aa(lp60
(lp61
Vhttp://dbpedia.org/resource/Vietnam
p62
aa(lp63
a(lp64
Vhttp://dbpedia.org/resource/Vietnamese_cuisine
p65
aa(lp66
Vhttp://dbpedia.org/resource/Vietnam
p67
aa(lp68
a(lp69
aa(lp70
(lp71
Vhttp://dbpedia.org/resource/Taiwan
p72
aa(lp73
a(lp74
Vhttp://dbpedia.org/resource/Traditional_Chinese_law
p75
aa(lp76
Vhttp://dbpedia.org/resource/Taiwan
p77
aa(lp78
a(lp79
aa(lp80
(lp81
Vhttp://dbpedia.org/resource/Hong_Kong
p82
aa(lp83
a(lp84
Vhttp://dbpedia.org/resource/Traditional_Chinese_law
p85
aa(lp86
Vhttp://dbpedia.org/resource/Hong_Kong
p87
aa(lp88
a(lp89
aa(lp90
(lp91
Vhttp://dbpedia.org/resource/North_America
p92
aa(lp93
a(lp94
Vhttp://dbpedia.org/resource/English,_Indiana
p95
aa(lp96
a(lp97
a(lp98
aa(lp99
(lp100
Vhttp://dbpedia.org/resource/Indonesia
p101
aa(lp102
a(lp103
Vhttp://dbpedia.org/resource/Indonesian_cuisine
p104
aa(lp105
Vhttp://dbpedia.org/resource/Indonesia
p106
aa(lp107
a(lp108
aa(lp109
(lp110
Vhttp://dbpedia.org/resource/Brazil
p111
aa(lp112
a(lp113
a(lp114
Vhttp://dbpedia.org/resource/Brazil
p115
aa(lp116
Vhttp://dbpedia.org/resource/Kaizen_Games
p117
aa(lp118
aa(lp119
(lp120
Vhttp://dbpedia.org/resource/Europe_1
p121
aa(lp122
a(lp123
a(lp124
a(lp125
a(lp126
aa.