(lp1
(dp2
I0
(dp3
I0
(lp4
sI1
(lp5
sI2
(lp6
Vhttp://www.w3.org/2000/01/rdf-schema#seeAlso
p7
aVhttp://dbpedia.org/property/origin
p8
aVhttp://dbpedia.org/property/awardedBy
p9
aVhttp://dbpedia.org/ontology/currency
p10
aVhttp://dbpedia.org/ontology/demonym
p11
aVhttp://dbpedia.org/ontology/officialLanguage
p12
aVhttp://dbpedia.org/ontology/regionServed
p13
aVhttp://dbpedia.org/ontology/country
p14
aVhttp://dbpedia.org/ontology/canonizedPlace
p15
aVhttp://dbpedia.org/property/usingCountries
p16
aVhttp://dbpedia.org/property/officialLanguages
p17
aVhttp://dbpedia.org/property/birthPlace
p18
aVhttp://dbpedia.org/property/ethnicGroups
p19
aVhttp://dbpedia.org/property/stateParty
p20
aVhttp://dbpedia.org/property/country
p21
aVhttp://dbpedia.org/property/establishedEvent
p22
aVhttp://dbpedia.org/ontology/ethnicGroup
p23
aVhttp://dbpedia.org/ontology/populationPlace
p24
aVhttp://dbpedia.org/ontology/abstract
p25
aVhttp://dbpedia.org/ontology/spokenIn
p26
aVhttp://dbpedia.org/property/location
p27
aVhttp://dbpedia.org/ontology/usingCountry
p28
aVhttp://dbpedia.org/property/states
p29
aVhttp://dbpedia.org/ontology/headquarter
p30
aVhttp://dbpedia.org/ontology/language
p31
aVhttp://dbpedia.org/ontology/location
p32
aVhttp://dbpedia.org/property/headquarters
p33
aVhttp://www.w3.org/2000/01/rdf-schema#comment
p34
aVhttp://dbpedia.org/ontology/birthPlace
p35
aVhttp://dbpedia.org/property/opponents
p36
aVhttp://dbpedia.org/ontology/wikiPageRedirects
p37
aVhttp://dbpedia.org/property/placeOfBirth
p38
aVhttp://dbpedia.org/property/area
p39
aVhttp://dbpedia.org/ontology/hometown
p40
aVhttp://dbpedia.org/property/destination
p41
aVhttp://dbpedia.org/property/regionServed
p42
aVhttp://dbpedia.org/property/canonizedPlace
p43
asI3
(lp44
sI4
(lp45
sI5
(lp46
ssI1
(dp47
I0
g5
sI1
(lp48
sI2
(lp49
sI3
(lp50
sI4
(lp51
sI5
(lp52
ssI2
(dp53
I0
g6
sI1
g49
sI2
(lp54
sI3
(lp55
sI4
(lp56
sI5
(lp57
ssI3
(dp58
I0
g44
sI1
g50
sI2
g55
sI3
(lp59
sI4
(lp60
sI5
(lp61
ssI4
(dp62
I0
g45
sI1
g51
sI2
g56
sI3
g60
sI4
(lp63
sI5
(lp64
ssI5
(dp65
I0
g46
sI1
g52
sI2
g57
sI3
g61
sI4
g64
sI5
(lp66
ssa(dp67
I0
(dp68
I0
(lp69
sI1
(lp70
sI2
(lp71
Vhttp://www.w3.org/2000/01/rdf-schema#seeAlso
p72
aVhttp://dbpedia.org/property/origin
p73
aVhttp://dbpedia.org/ontology/origin
p74
aVhttp://dbpedia.org/ontology/currency
p75
aVhttp://dbpedia.org/property/residence
p76
aVhttp://dbpedia.org/ontology/garrison
p77
aVhttp://dbpedia.org/ontology/thirdDriverCountry
p78
aVhttp://dbpedia.org/ontology/demonym
p79
aVhttp://dbpedia.org/ontology/regionServed
p80
aVhttp://dbpedia.org/ontology/country
p81
aVhttp://dbpedia.org/property/region
p82
aVhttp://www.w3.org/2002/07/owl#differentFrom
p83
aVhttp://dbpedia.org/property/locations
p84
aVhttp://dbpedia.org/property/birthPlace
p85
aVhttp://dbpedia.org/ontology/ethnicGroup
p86
aVhttp://dbpedia.org/property/country
p87
aVhttp://dbpedia.org/property/shipCountry
p88
aVhttp://dbpedia.org/property/placeOfBirth
p89
aVhttp://dbpedia.org/ontology/populationPlace
p90
aVhttp://dbpedia.org/ontology/abstract
p91
aVhttp://dbpedia.org/property/location
p92
aVhttp://dbpedia.org/ontology/usingCountry
p93
aVhttp://dbpedia.org/property/states
p94
aVhttp://dbpedia.org/ontology/builder
p95
aVhttp://dbpedia.org/ontology/regionalLanguage
p96
aVhttp://dbpedia.org/ontology/headquarter
p97
aVhttp://dbpedia.org/ontology/language
p98
aVhttp://dbpedia.org/ontology/location
p99
aVhttp://dbpedia.org/property/languages
p100
aVhttp://dbpedia.org/ontology/territory
p101
aVhttp://dbpedia.org/property/shipBuilder
p102
aVhttp://dbpedia.org/property/headquarters
p103
aVhttp://www.w3.org/2000/01/rdf-schema#comment
p104
aVhttp://dbpedia.org/ontology/birthPlace
p105
aVhttp://dbpedia.org/property/countries
p106
aVhttp://dbpedia.org/ontology/wikiPageRedirects
p107
aVhttp://dbpedia.org/property/related
p108
aVhttp://dbpedia.org/ontology/hometown
p109
aVhttp://dbpedia.org/property/demonym
p110
aVhttp://dbpedia.org/ontology/spokenIn
p111
aVhttp://dbpedia.org/property/garrison
p112
asI3
(lp113
sI4
(lp114
sI5
(lp115
ssI1
(dp116
I0
g70
sI1
(lp117
sI2
(lp118
sI3
(lp119
sI4
(lp120
sI5
(lp121
ssI2
(dp122
I0
g71
sI1
g118
sI2
(lp123
sI3
(lp124
Vhttp://dbpedia.org/ontology/wikiPageExternalLink
p125
aVhttp://dbpedia.org/property/region
p126
aVhttp://dbpedia.org/ontology/languageFamily
p127
aVhttp://www.w3.org/2000/01/rdf-schema#comment
p128
aVhttp://dbpedia.org/property/map
p129
aVhttp://dbpedia.org/ontology/abstract
p130
aVhttp://xmlns.com/foaf/0.1/depiction
p131
aVhttp://dbpedia.org/ontology/wikiPageRedirects
p132
aVhttp://dbpedia.org/property/family
p133
aVhttp://dbpedia.org/property/fam
p134
aVhttp://dbpedia.org/ontology/thumbnail
p135
aVhttp://www.w3.org/2000/01/rdf-schema#label
p136
aVhttp://www.w3.org/2002/07/owl#sameAs
p137
aVhttp://dbpedia.org/property/child
p138
asI4
(lp139
sI5
(lp140
ssI3
(dp141
I1
g119
sI2
g124
sI3
(lp142
sI4
(lp143
sI5
(lp144
ssI4
(dp145
I0
g114
sI1
g120
sI2
g139
sI3
g143
sI4
(lp146
sI5
(lp147
ssI5
(dp148
I0
g115
sI1
g121
sI2
g140
sI3
g144
sI4
g147
sI5
(lp149
ssa(dp150
I0
(dp151
I0
(lp152
sI1
(lp153
sI2
(lp154
Vhttp://dbpedia.org/ontology/abstract
p155
aVhttp://www.w3.org/2000/01/rdf-schema#comment
p156
asI3
(lp157
sI4
(lp158
sI5
(lp159
ssI1
(dp160
I0
g153
sI1
(lp161
sI2
(lp162
sI3
(lp163
sI4
(lp164
sI5
(lp165
ssI2
(dp166
I0
g154
sI1
g162
sI2
(lp167
sI3
(lp168
Vhttp://dbpedia.org/ontology/wikiPageExternalLink
p169
aVhttp://dbpedia.org/property/languages
p170
aVhttp://dbpedia.org/ontology/abstract
p171
aVhttp://www.w3.org/2000/01/rdf-schema#comment
p172
asI4
(lp173
sI5
(lp174
ssI3
(dp175
I1
g163
sI2
g168
sI3
(lp176
sI4
(lp177
sI5
(lp178
ssI4
(dp179
I0
g158
sI1
g164
sI2
g173
sI3
g177
sI4
(lp180
sI5
(lp181
ssI5
(dp182
I0
g159
sI1
g165
sI2
g174
sI3
g178
sI4
g181
sI5
(lp183
ssa(dp184
I0
(dp185
I0
(lp186
sI1
(lp187
sI2
(lp188
Vhttp://dbpedia.org/ontology/country
p189
aVhttp://www.w3.org/1999/02/22-rdf-syntax-ns#type
p190
aVhttp://purl.org/dc/terms/subject
p191
aVhttp://dbpedia.org/property/officialLanguages
p192
aVhttp://dbpedia.org/property/country
p193
asI3
(lp194
sI4
(lp195
sI5
(lp196
ssI1
(dp197
I0
g187
sI1
(lp198
sI2
(lp199
sI3
(lp200
sI4
(lp201
sI5
(lp202
ssI2
(dp203
I0
g188
sI1
g199
sI2
(lp204
sI3
(lp205
sI4
(lp206
sI5
(lp207
ssI3
(dp208
I1
g200
sI2
g205
sI3
(lp209
sI4
(lp210
sI5
(lp211
ssI4
(dp212
I0
g195
sI1
g201
sI2
g206
sI3
g210
sI4
(lp213
sI5
(lp214
ssI5
(dp215
I0
g196
sI1
g202
sI2
g207
sI3
g211
sI4
g214
sI5
(lp216
ssa(dp217
I0
(dp218
I0
(lp219
sI1
(lp220
sI2
(lp221
sI3
(lp222
sI4
(lp223
sI5
(lp224
ssI1
(dp225
I0
g220
sI1
(lp226
sI2
(lp227
sI3
(lp228
sI4
(lp229
sI5
(lp230
ssI2
(dp231
I0
g221
sI1
g227
sI2
(lp232
sI3
(lp233
sI4
(lp234
sI5
(lp235
ssI3
(dp236
I0
g222
sI1
g228
sI2
g233
sI3
(lp237
sI4
(lp238
sI5
(lp239
ssI4
(dp240
I0
g223
sI1
g229
sI2
g234
sI3
g238
sI4
(lp241
sI5
(lp242
ssI5
(dp243
I0
g224
sI1
g230
sI2
g235
sI3
g239
sI4
g242
sI5
(lp244
ssa(dp245
I0
(dp246
I0
(lp247
sI1
(lp248
sI2
(lp249
Vhttp://dbpedia.org/property/origin
p250
aVhttp://dbpedia.org/property/placeOfDeath
p251
aVhttp://dbpedia.org/ontology/type
p252
aVhttp://dbpedia.org/property/sovereigntyType
p253
aVhttp://www.w3.org/ns/prov#wasDerivedFrom
p254
aVhttp://dbpedia.org/ontology/demonym
p255
aVhttp://dbpedia.org/property/nation
p256
aVhttp://dbpedia.org/ontology/nationality
p257
aVhttp://dbpedia.org/property/royalAnthem
p258
aVhttp://dbpedia.org/property/meetingPlace
p259
aVhttp://dbpedia.org/property/establishedEvent
p260
aVhttp://dbpedia.org/property/mapCaption
p261
aVhttp://dbpedia.org/ontology/residence
p262
aVhttp://dbpedia.org/ontology/abstract
p263
aVhttp://dbpedia.org/property/venue
p264
aVhttp://dbpedia.org/property/officialLanguages
p265
aVhttp://dbpedia.org/property/imageMap
p266
aVhttp://dbpedia.org/ontology/location
p267
aVhttp://dbpedia.org/property/residence
p268
aVhttp://dbpedia.org/property/area
p269
aVhttp://dbpedia.org/ontology/hometown
p270
aVhttp://dbpedia.org/property/bankOf
p271
aVhttp://dbpedia.org/ontology/spokenIn
p272
aVhttp://dbpedia.org/property/leaderTitle
p273
aVhttp://www.w3.org/2000/01/rdf-schema#seeAlso
p274
aVhttp://dbpedia.org/property/currency
p275
aVhttp://dbpedia.org/property/agencyName
p276
aVhttp://dbpedia.org/property/conventionalLongName
p277
aVhttp://dbpedia.org/ontology/foundationPlace
p278
aVhttp://dbpedia.org/property/legislature
p279
aVhttp://dbpedia.org/ontology/officialLanguage
p280
aVhttp://dbpedia.org/ontology/country
p281
aVhttp://dbpedia.org/property/region
p282
aVhttp://dbpedia.org/property/nationalAnthem
p283
aVhttp://dbpedia.org/property/birthPlace
p284
aVhttp://dbpedia.org/property/stateParty
p285
aVhttp://dbpedia.org/property/country
p286
aVhttp://dbpedia.org/ontology/regionServed
p287
aVhttp://dbpedia.org/property/areaServed
p288
aVhttp://dbpedia.org/property/areasAffected
p289
aVhttp://dbpedia.org/ontology/wikiPageExternalLink
p290
aVhttp://xmlns.com/foaf/0.1/primaryTopic
p291
aVhttp://dbpedia.org/property/location
p292
aVhttp://dbpedia.org/property/states
p293
aVhttp://dbpedia.org/ontology/locationCountry
p294
aVhttp://dbpedia.org/ontology/deathPlace
p295
aVhttp://dbpedia.org/property/hasPhotoCollection
p296
aVhttp://dbpedia.org/property/headquarters
p297
aVhttp://dbpedia.org/property/countryName
p298
aVhttp://dbpedia.org/ontology/anthem
p299
aVhttp://dbpedia.org/ontology/birthPlace
p300
aVhttp://dbpedia.org/ontology/wikiPageRedirects
p301
aVhttp://dbpedia.org/property/imageCoat
p302
aVhttp://xmlns.com/foaf/0.1/homepage
p303
aVhttp://dbpedia.org/property/host
p304
aVhttp://dbpedia.org/ontology/stateOfOrigin
p305
aVhttp://dbpedia.org/property/south
p306
aVhttp://dbpedia.org/ontology/origin
p307
aVhttp://dbpedia.org/ontology/currency
p308
aVhttp://dbpedia.org/property/winnerOrigin
p309
aVhttp://dbpedia.org/ontology/longName
p310
aVhttp://dbpedia.org/property/locationCountry
p311
aVhttp://dbpedia.org/ontology/ground
p312
aVhttp://dbpedia.org/ontology/ethnicGroup
p313
aVhttp://dbpedia.org/property/centre
p314
aVhttp://dbpedia.org/property/nativeName
p315
aVhttp://dbpedia.org/ontology/broadcastArea
p316
aVhttp://dbpedia.org/property/placeOfBirth
p317
aVhttp://xmlns.com/foaf/0.1/depiction
p318
aVhttp://xmlns.com/foaf/0.1/isPrimaryTopicOf
p319
aVhttp://dbpedia.org/property/fightingOutOf
p320
aVhttp://dbpedia.org/ontology/thumbnail
p321
aVhttp://dbpedia.org/ontology/city
p322
aVhttp://dbpedia.org/ontology/flag
p323
aVhttp://dbpedia.org/property/commonName
p324
aVhttp://dbpedia.org/property/subdivisionName
p325
aVhttp://dbpedia.org/property/languages
p326
aVhttp://dbpedia.org/property/popplace
p327
aVhttp://dbpedia.org/property/destination
p328
aVhttp://dbpedia.org/property/southeast
p329
aVhttp://dbpedia.org/property/founded
p330
aVhttp://dbpedia.org/property/stadium
p331
aVhttp://dbpedia.org/property/ground
p332
aVhttp://dbpedia.org/property/place
p333
aVhttp://dbpedia.org/property/territorialExtent
p334
aVhttp://dbpedia.org/property/caption
p335
aVhttp://dbpedia.org/property/site
p336
aVhttp://dbpedia.org/ontology/place
p337
aVhttp://dbpedia.org/property/nationality
p338
aVhttp://dbpedia.org/property/callingCode
p339
aVhttp://dbpedia.org/ontology/wikiPageDisambiguates
p340
aVhttp://dbpedia.org/ontology/sourceCountry
p341
aVhttp://purl.org/dc/terms/subject
p342
aVhttp://dbpedia.org/ontology/populationPlace
p343
aVhttp://dbpedia.org/property/deathPlace
p344
aVhttp://dbpedia.org/ontology/headquarter
p345
aVhttp://www.w3.org/2000/01/rdf-schema#label
p346
aVhttp://dbpedia.org/ontology/language
p347
aVhttp://dbpedia.org/property/title
p348
aVhttp://dbpedia.org/property/locale
p349
aVhttp://dbpedia.org/property/demonym
p350
aVhttp://www.w3.org/2000/01/rdf-schema#comment
p351
aVhttp://dbpedia.org/ontology/timeZone
p352
aVhttp://dbpedia.org/property/imageFlag
p353
aVhttp://www.w3.org/2002/07/owl#sameAs
p354
aVhttp://dbpedia.org/property/regionServed
p355
aVhttp://xmlns.com/foaf/0.1/name
p356
asI3
(lp357
sI4
(lp358
sI5
(lp359
ssI1
(dp360
I0
g248
sI1
(lp361
sI2
(lp362
sI3
(lp363
sI4
(lp364
sI5
(lp365
ssI2
(dp366
I0
g249
sI1
g362
sI2
(lp367
sI3
(lp368
sI4
(lp369
sI5
(lp370
ssI3
(dp371
I1
g363
sI2
g368
sI3
(lp372
sI4
(lp373
sI5
(lp374
ssI4
(dp375
I0
g358
sI1
g364
sI2
g369
sI3
g373
sI4
(lp376
sI5
(lp377
ssI5
(dp378
I0
g359
sI1
g365
sI2
g370
sI3
g374
sI4
g377
sI5
(lp379
ssa(dp380
I0
(dp381
I0
(lp382
sI1
(lp383
sI2
(lp384
Vhttp://www.w3.org/2000/01/rdf-schema#seeAlso
p385
aVhttp://dbpedia.org/ontology/origin
p386
aVhttp://dbpedia.org/ontology/demonym
p387
aVhttp://dbpedia.org/ontology/officialLanguage
p388
aVhttp://dbpedia.org/ontology/country
p389
aVhttp://dbpedia.org/property/usingCountries
p390
aVhttp://dbpedia.org/property/teaOrigin
p391
aVhttp://dbpedia.org/ontology/ethnicGroup
p392
aVhttp://dbpedia.org/property/country
p393
aVhttp://dbpedia.org/ontology/populationPlace
p394
aVhttp://dbpedia.org/ontology/abstract
p395
aVhttp://dbpedia.org/property/deathPlace
p396
aVhttp://dbpedia.org/ontology/usingCountry
p397
aVhttp://dbpedia.org/property/location
p398
aVhttp://dbpedia.org/property/states
p399
aVhttp://dbpedia.org/ontology/language
p400
aVhttp://dbpedia.org/property/headquarters
p401
aVhttp://dbpedia.org/property/languages
p402
aVhttp://dbpedia.org/property/officialLanguages
p403
aVhttp://www.w3.org/2000/01/rdf-schema#comment
p404
aVhttp://dbpedia.org/property/demonym
p405
aVhttp://dbpedia.org/ontology/spokenIn
p406
aVhttp://dbpedia.org/ontology/location
p407
asI3
(lp408
sI4
(lp409
sI5
(lp410
ssI1
(dp411
I0
g383
sI1
(lp412
sI2
(lp413
sI3
(lp414
sI4
(lp415
sI5
(lp416
ssI2
(dp417
I0
g384
sI1
g413
sI2
(lp418
sI3
(lp419
Vhttp://dbpedia.org/ontology/wikiPageExternalLink
p420
aVhttp://xmlns.com/foaf/0.1/primaryTopic
p421
aVhttp://purl.org/dc/terms/subject
p422
aVhttp://www.w3.org/2000/01/rdf-schema#comment
p423
aVhttp://www.w3.org/2000/01/rdf-schema#label
p424
aVhttp://dbpedia.org/ontology/abstract
p425
aVhttp://xmlns.com/foaf/0.1/depiction
p426
aVhttp://dbpedia.org/ontology/wikiPageRedirects
p427
aVhttp://xmlns.com/foaf/0.1/isPrimaryTopicOf
p428
aVhttp://www.w3.org/ns/prov#wasDerivedFrom
p429
aVhttp://dbpedia.org/property/hasPhotoCollection
p430
aVhttp://dbpedia.org/ontology/wikiPageDisambiguates
p431
aVhttp://www.w3.org/2002/07/owl#sameAs
p432
aVhttp://dbpedia.org/ontology/thumbnail
p433
asI4
(lp434
sI5
(lp435
ssI3
(dp436
I1
g414
sI2
g419
sI3
(lp437
sI4
(lp438
sI5
(lp439
ssI4
(dp440
I0
g409
sI1
g415
sI2
g434
sI3
g438
sI4
(lp441
sI5
(lp442
ssI5
(dp443
I0
g410
sI1
g416
sI2
g435
sI3
g439
sI4
g442
sI5
(lp444
ssa(dp445
I0
(dp446
I0
(lp447
sI1
(lp448
sI2
(lp449
Vhttp://dbpedia.org/property/col
p450
asI3
(lp451
sI4
(lp452
sI5
(lp453
ssI1
(dp454
I0
g448
sI1
(lp455
sI2
(lp456
sI3
(lp457
sI4
(lp458
sI5
(lp459
ssI2
(dp460
I0
g449
sI1
g456
sI2
(lp461
sI3
(lp462
sI4
(lp463
sI5
(lp464
ssI3
(dp465
I1
g457
sI2
g462
sI3
(lp466
sI4
(lp467
sI5
(lp468
ssI4
(dp469
I0
g452
sI1
g458
sI2
g463
sI3
g467
sI4
(lp470
sI5
(lp471
ssI5
(dp472
I0
g453
sI1
g459
sI2
g464
sI3
g468
sI4
g471
sI5
(lp473
ssa(dp474
I0
(dp475
I0
(lp476
sI1
(lp477
sI2
(lp478
sI3
(lp479
sI4
(lp480
sI5
(lp481
ssI1
(dp482
I0
g477
sI1
(lp483
sI2
(lp484
sI3
(lp485
sI4
(lp486
sI5
(lp487
ssI2
(dp488
I0
g478
sI1
g484
sI2
(lp489
sI3
(lp490
sI4
(lp491
sI5
(lp492
ssI3
(dp493
I1
g485
sI2
g490
sI3
(lp494
sI4
(lp495
sI5
(lp496
ssI4
(dp497
I0
g480
sI1
g486
sI2
g491
sI3
g495
sI4
(lp498
sI5
(lp499
ssI5
(dp500
I0
g481
sI1
g487
sI2
g492
sI3
g496
sI4
g499
sI5
(lp501
ssa(dp502
I0
(dp503
I0
(lp504
sI1
(lp505
sI2
(lp506
Vhttp://dbpedia.org/property/languages
p507
aVhttp://dbpedia.org/ontology/language
p508
asI3
(lp509
sI4
(lp510
sI5
(lp511
ssI1
(dp512
I0
g505
sI1
(lp513
sI2
(lp514
sI3
(lp515
sI4
(lp516
sI5
(lp517
ssI2
(dp518
I0
g506
sI1
g514
sI2
(lp519
sI3
(lp520
sI4
(lp521
sI5
(lp522
ssI3
(dp523
I0
g509
sI1
g515
sI2
g520
sI3
(lp524
sI4
(lp525
sI5
(lp526
ssI4
(dp527
I0
g510
sI1
g516
sI2
g521
sI3
g525
sI4
(lp528
sI5
(lp529
ssI5
(dp530
I0
g511
sI1
g517
sI2
g522
sI3
g526
sI4
g529
sI5
(lp531
ssa(dp532
I0
(dp533
I0
(lp534
sI1
(lp535
sI2
(lp536
Vhttp://www.w3.org/2000/01/rdf-schema#seeAlso
p537
aVhttp://dbpedia.org/property/currency
p538
aVhttp://dbpedia.org/ontology/currency
p539
aVhttp://dbpedia.org/property/place
p540
aVhttp://dbpedia.org/property/sovereigntyType
p541
aVhttp://dbpedia.org/ontology/demonym
p542
aVhttp://dbpedia.org/property/site
p543
aVhttp://dbpedia.org/property/nation
p544
aVhttp://dbpedia.org/ontology/country
p545
aVhttp://dbpedia.org/property/region
p546
aVhttp://dbpedia.org/ontology/officialLanguage
p547
aVhttp://dbpedia.org/ontology/nationality
p548
aVhttp://dbpedia.org/property/birthPlace
p549
aVhttp://dbpedia.org/ontology/place
p550
aVhttp://dbpedia.org/property/locationSigned
p551
aVhttp://dbpedia.org/property/country
p552
aVhttp://dbpedia.org/ontology/regionServed
p553
aVhttp://dbpedia.org/property/establishedEvent
p554
aVhttp://dbpedia.org/ontology/populationPlace
p555
aVhttp://dbpedia.org/property/nationality
p556
aVhttp://dbpedia.org/ontology/abstract
p557
aVhttp://dbpedia.org/property/winnerOrigin
p558
aVhttp://dbpedia.org/property/deathPlace
p559
aVhttp://dbpedia.org/ontology/usingCountry
p560
aVhttp://dbpedia.org/property/location
p561
aVhttp://dbpedia.org/property/states
p562
aVhttp://dbpedia.org/ontology/headquarter
p563
aVhttp://dbpedia.org/property/officialLanguages
p564
aVhttp://dbpedia.org/ontology/language
p565
aVhttp://dbpedia.org/ontology/location
p566
aVhttp://dbpedia.org/ontology/stateOfOrigin
p567
aVhttp://dbpedia.org/property/headquarters
p568
aVhttp://www.w3.org/2000/01/rdf-schema#comment
p569
aVhttp://dbpedia.org/ontology/birthPlace
p570
aVhttp://dbpedia.org/ontology/wikiPageRedirects
p571
aVhttp://dbpedia.org/property/area
p572
aVhttp://dbpedia.org/ontology/hometown
p573
aVhttp://dbpedia.org/ontology/spokenIn
p574
aVhttp://dbpedia.org/property/jurisdiction
p575
aVhttp://dbpedia.org/property/stadium
p576
aVhttp://dbpedia.org/ontology/deathPlace
p577
asI3
(lp578
sI4
(lp579
sI5
(lp580
ssI1
(dp581
I0
g535
sI1
(lp582
sI2
(lp583
sI3
(lp584
sI4
(lp585
sI5
(lp586
ssI2
(dp587
I0
g536
sI1
g583
sI2
(lp588
sI3
(lp589
Vhttp://www.w3.org/2000/01/rdf-schema#seeAlso
p590
aVhttp://dbpedia.org/ontology/wikiPageExternalLink
p591
aVhttp://xmlns.com/foaf/0.1/primaryTopic
p592
aVhttp://purl.org/dc/terms/subject
p593
aVhttp://www.w3.org/2000/01/rdf-schema#comment
p594
aVhttp://www.w3.org/2000/01/rdf-schema#label
p595
aVhttp://dbpedia.org/ontology/abstract
p596
aVhttp://dbpedia.org/ontology/wikiPageRedirects
p597
aVhttp://xmlns.com/foaf/0.1/isPrimaryTopicOf
p598
aVhttp://www.w3.org/ns/prov#wasDerivedFrom
p599
aVhttp://dbpedia.org/property/hasPhotoCollection
p600
aVhttp://dbpedia.org/ontology/wikiPageDisambiguates
p601
aVhttp://www.w3.org/2002/07/owl#sameAs
p602
asI4
(lp603
sI5
(lp604
ssI3
(dp605
I1
g584
sI2
g589
sI3
(lp606
sI4
(lp607
sI5
(lp608
ssI4
(dp609
I0
g579
sI1
g585
sI2
g603
sI3
g607
sI4
(lp610
sI5
(lp611
ssI5
(dp612
I0
g580
sI1
g586
sI2
g604
sI3
g608
sI4
g611
sI5
(lp613
ssa(dp614
I0
(dp615
I0
(lp616
sI1
(lp617
sI2
(lp618
sI3
(lp619
sI4
(lp620
sI5
(lp621
ssI1
(dp622
I0
g617
sI1
(lp623
sI2
(lp624
sI3
(lp625
sI4
(lp626
sI5
(lp627
ssI2
(dp628
I0
g618
sI1
g624
sI2
(lp629
sI3
(lp630
sI4
(lp631
sI5
(lp632
ssI3
(dp633
I1
g625
sI2
g630
sI3
(lp634
sI4
(lp635
sI5
(lp636
ssI4
(dp637
I0
g620
sI1
g626
sI2
g631
sI3
g635
sI4
(lp638
sI5
(lp639
ssI5
(dp640
I0
g621
sI1
g627
sI2
g632
sI3
g636
sI4
g639
sI5
(lp641
ssa(dp642
I0
(dp643
I0
(lp644
sI1
(lp645
sI2
(lp646
sI3
(lp647
sI4
(lp648
sI5
(lp649
ssI1
(dp650
I0
g645
sI1
(lp651
sI2
(lp652
sI3
(lp653
sI4
(lp654
sI5
(lp655
ssI2
(dp656
I0
g646
sI1
g652
sI2
(lp657
sI3
(lp658
sI4
(lp659
sI5
(lp660
ssI3
(dp661
I0
g647
sI1
g653
sI2
g658
sI3
(lp662
sI4
(lp663
sI5
(lp664
ssI4
(dp665
I0
g648
sI1
g654
sI2
g659
sI3
g663
sI4
(lp666
sI5
(lp667
ssI5
(dp668
I0
g649
sI1
g655
sI2
g660
sI3
g664
sI4
g667
sI5
(lp669
ssa.