(lp1
(lp2
(lp3
a(lp4
a(lp5
a(lp6
aa(lp7
(lp8
a(lp9
a(lp10
a(lp11
aa(lp12
(lp13
a(lp14
a(lp15
a(lp16
aa(lp17
(lp18
a(lp19
((lp20
Vhttp://dbpedia.org/class/yago/Abstraction100002137
p21
aVhttp://dbpedia.org/class/yago/BrazilianAlternativeRockGroups
p22
aVhttp://dbpedia.org/class/yago/DanceBand108249960
p23
aVhttp://dbpedia.org/class/yago/Group100031264
p24
aVhttp://dbpedia.org/class/yago/MusicalOrganization108246613
p25
aVhttp://dbpedia.org/class/yago/Organization108008335
p26
aVhttp://dbpedia.org/class/yago/RockGroup108250501
p27
aVhttp://dbpedia.org/class/yago/SocialGroup107950920
p28
aVhttp://dbpedia.org/class/yago/YagoLegalActorGeo
p29
aVhttp://www.w3.org/2002/07/owl#Thing
p30
aVhttp://www.ontologydesignpatterns.org/ont/dul/DUL.owl#Agent
p31
aVhttp://www.ontologydesignpatterns.org/ont/dul/DUL.owl#SocialPerson
p32
aVhttp://www.wikidata.org/entity/Q215380
p33
aVhttp://www.wikidata.org/entity/Q43229
p34
aVhttp://dbpedia.org/ontology/Agent
p35
aVhttp://dbpedia.org/ontology/Band
p36
aVhttp://dbpedia.org/ontology/Group
p37
aVhttp://dbpedia.org/ontology/Organisation
p38
aVhttp://schema.org/MusicGroup
p39
aVhttp://schema.org/Organization
p40
aVhttp://dbpedia.org/class/yago/YagoPermanentlyLocatedEntity
p41
aVhttp://dbpedia.org/class/yago/MusicalGroupsEstablishedIn1997
p42
aVhttp://dbpedia.org/class/yago/YagoLegalActor
p43
aVhttp://dbpedia.org/resource/Detonautas_Roque_Clube
tp44
aa(lp45
a(lp46
aa(lp47
(lp48
a(lp49
a(lp50
a(lp51
aa(lp52
(lp53
a(lp54
a(lp55
a(lp56
aa(lp57
(lp58
a(lp59
a(lp60
a(lp61
aa(lp62
(lp63
a(lp64
a(lp65
a(lp66
aa(lp67
(lp68
a(lp69
a(lp70
a(lp71
aa(lp72
(lp73
a(lp74
a(lp75
a(lp76
aa(lp77
(lp78
a(lp79
((lp80
Vhttp://www.w3.org/2002/07/owl#Thing
p81
aVhttp://dbpedia.org/ontology/Activity
p82
aVhttp://www.ontologydesignpatterns.org/ont/d0.owl#Activity
p83
aVhttp://www.wikidata.org/entity/Q1914636
p84
aVhttp://www.wikidata.org/entity/Q349
p85
aVhttp://dbpedia.org/ontology/Sport
p86
aVhttp://dbpedia.org/resource/Ladies'_Gaelic_football
tp87
aa(lp88
a(lp89
aa(lp90
(lp91
a(lp92
a(lp93
a(lp94
aa(lp95
(lp96
a(lp97
a(lp98
a(lp99
aa(lp100
(lp101
a(lp102
a(lp103
a(lp104
aa(lp105
(lp106
a(lp107
a(lp108
a(lp109
aa(lp110
(lp111
a(lp112
a(lp113
a(lp114
aa(lp115
(lp116
a(lp117
a(lp118
a(lp119
aa(lp120
(lp121
a(lp122
a(lp123
a(lp124
aa(lp125
(lp126
a(lp127
((lp128
Vhttp://dbpedia.org/class/yago/AdministrativeDistrict108491826
p129
aVhttp://dbpedia.org/class/yago/District108552138
p130
aVhttp://dbpedia.org/class/yago/Location100027167
p131
aVhttp://dbpedia.org/class/yago/Object100002684
p132
aVhttp://dbpedia.org/class/yago/Region108630985
p133
aVhttp://dbpedia.org/class/yago/UrbanArea108675967
p134
aVhttp://dbpedia.org/class/yago/YagoGeoEntity
p135
aVhttp://dbpedia.org/class/yago/YagoLegalActorGeo
p136
aVhttp://www.w3.org/2002/07/owl#Thing
p137
aVhttp://dbpedia.org/ontology/Place
p138
aVhttp://dbpedia.org/ontology/Location
p139
aVhttp://www.wikidata.org/entity/Q486972
p140
aVhttp://dbpedia.org/ontology/PopulatedPlace
p141
aVhttp://dbpedia.org/ontology/Settlement
p142
aVhttp://www.w3.org/2003/01/geo/wgs84_pos#SpatialThing
p143
aVhttp://schema.org/Place
p144
aVhttp://dbpedia.org/class/yago/YagoPermanentlyLocatedEntity
p145
aVhttp://dbpedia.org/class/yago/MunicipalitiesOfDurango
p146
aVhttp://dbpedia.org/class/yago/GeographicalArea108574314
p147
aVhttp://dbpedia.org/class/yago/Municipality108626283
p148
aVhttp://dbpedia.org/class/yago/PhysicalEntity100001930
p149
aVhttp://dbpedia.org/resource/Rodeo_Municipality
p150
tp151
aa(lp152
a(lp153
aa.