(lp1
(lp2
(dp3
Vstart
p4
I0
sVdisambiguatedURL
p5
NsVnamedEntity
p6
VRUSSIAN FEDERATION:
p7
sVoffset
p8
I19
saa(lp9
(dp10
Vstart
p11
I0
sVdisambiguatedURL
p12
NsVnamedEntity
p13
VSBERBANK MoscowACC 30101810400000000225BIC 044525225INN 7707083893
p14
sVoffset
p15
I66
saa(lp16
(dp17
Vstart
p18
I0
sVdisambiguatedURL
p19
NsVnamedEntity
p20
VOJSC PROMSVYAZBANK MoscowACC 30101810400000000555BIC 044525555INN 7744000912
p21
sVoffset
p22
I76
saa(lp23
(dp24
Vstart
p25
I0
sVdisambiguatedURL
p26
NsVnamedEntity
p27
VSVIAZ-BANK MoscowACC 30101810900000000848BIC 044525848
p28
sVoffset
p29
I54
saa(lp30
(dp31
Vstart
p32
I0
sVdisambiguatedURL
p33
NsVnamedEntity
p34
VJSC VTB BANK MoscowACC 30101810700000000187BIC 044525187INN 7702070139
p35
sVoffset
p36
I70
saa(lp37
(dp38
Vstart
p39
I0
sVdisambiguatedURL
p40
NsVnamedEntity
p41
VUKRAINE:
p42
sVoffset
p43
I8
saa(lp44
(dp45
Vstart
p46
I0
sVdisambiguatedURL
p47
NsVnamedEntity
p48
VPJSC CB ?PRIVATBANK? DnipropetrovskACC 32009100400 MFO 305299EGRPOU 14360570
p49
sVoffset
p50
I76
saa(lp51
(dp52
Vstart
p53
I0
sVdisambiguatedURL
p54
Vhttp://dbpedia.org/resource/Kazakhstan
p55
sVnamedEntity
p56
VKAZAKHSTAN:
p57
sVoffset
p58
I11
saa(lp59
(dp60
Vstart
p61
I0
sVdisambiguatedURL
p62
NsVnamedEntity
p63
VKAZKOMMERTSBANK Almaty
p64
sVoffset
p65
I22
saa(lp66
(dp67
Vstart
p68
I0
sVdisambiguatedURL
p69
NsVnamedEntity
p70
VLATVIA:
p71
sVoffset
p72
I7
saa(lp73
(dp74
Vstart
p75
I0
sVdisambiguatedURL
p76
NsVnamedEntity
p77
VRIETUMU BANKA Riga
p78
sVoffset
p79
I18
saa.