(lp1
(lp2
(dp3
Vstart
p4
I0
sVdisambiguatedURL
p5
Vhttp://dbpedia.org/resource/Null
p6
sVnamedEntity
p7
VNULL
p8
sVoffset
p9
I4
saa(lp10
(dp11
Vstart
p12
I0
sVdisambiguatedURL
p13
Vhttp://dbpedia.org/resource/Null
p14
sVnamedEntity
p15
VNULL
p16
sVoffset
p17
I4
saa(lp18
(dp19
Vstart
p20
I0
sVdisambiguatedURL
p21
Vhttp://dbpedia.org/resource/Null
p22
sVnamedEntity
p23
VNULL
p24
sVoffset
p25
I4
saa(lp26
(dp27
Vstart
p28
I0
sVdisambiguatedURL
p29
Vhttp://dbpedia.org/resource/Null
p30
sVnamedEntity
p31
VNULL
p32
sVoffset
p33
I4
saa(lp34
(dp35
Vstart
p36
I0
sVdisambiguatedURL
p37
Vhttp://dbpedia.org/resource/Null
p38
sVnamedEntity
p39
VNULL
p40
sVoffset
p41
I4
saa(lp42
(dp43
Vstart
p44
I0
sVdisambiguatedURL
p45
Vhttp://dbpedia.org/resource/Null
p46
sVnamedEntity
p47
VNULL
p48
sVoffset
p49
I4
saa(lp50
(dp51
Vstart
p52
I0
sVdisambiguatedURL
p53
Vhttp://dbpedia.org/resource/Null
p54
sVnamedEntity
p55
VNULL
p56
sVoffset
p57
I4
saa(lp58
(dp59
Vstart
p60
I0
sVdisambiguatedURL
p61
Vhttp://dbpedia.org/resource/Null
p62
sVnamedEntity
p63
VNULL
p64
sVoffset
p65
I4
saa(lp66
(dp67
Vstart
p68
I0
sVdisambiguatedURL
p69
Vhttp://dbpedia.org/resource/Null
p70
sVnamedEntity
p71
VNULL
p72
sVoffset
p73
I4
saa(lp74
(dp75
Vstart
p76
I0
sVdisambiguatedURL
p77
Vhttp://dbpedia.org/resource/Null
p78
sVnamedEntity
p79
VNULL
p80
sVoffset
p81
I4
saa.