(lp1
(lp2
(lp3
a(lp4
a(lp5
a(lp6
a(lp7
Vhttp://dbpedia.org/resource/North_Carolina
p8
aa(lp9
a(lp10
Vhttp://dbpedia.org/resource/Rhode_Island
p11
aa(lp12
aa(lp13
(lp14
a(lp15
a(lp16
a(lp17
a(lp18
Vhttp://dbpedia.org/resource/North_Dakota
p19
aa(lp20
a(lp21
Vhttp://dbpedia.org/resource/South_Carolina
p22
aa(lp23
aa(lp24
(lp25
a(lp26
a(lp27
a(lp28
a(lp29
a(lp30
a(lp31
Vhttp://dbpedia.org/resource/South_Dakota
p32
aa(lp33
aa(lp34
(lp35
a(lp36
a(lp37
a(lp38
a(lp39
Vhttp://dbpedia.org/resource/New_Hampshire
p40
aa(lp41
a(lp42
a(lp43
aa(lp44
(lp45
a(lp46
a(lp47
Vhttp://dbpedia.org/resource/Massachusetts
p48
aa(lp49
a(lp50
a(lp51
a(lp52
a(lp53
aa(lp54
(lp55
Vhttp://dbpedia.org/resource/Connecticut
p56
aa(lp57
a(lp58
a(lp59
a(lp60
a(lp61
a(lp62
a(lp63
aa(lp64
(lp65
a(lp66
a(lp67
a(lp68
a(lp69
a(lp70
a(lp71
a(lp72
aa(lp73
(lp74
a(lp75
a(lp76
a(lp77
a(lp78
a(lp79
a(lp80
a(lp81
aa(lp82
(lp83
a(lp84
a(lp85
a(lp86
a(lp87
a(lp88
a(lp89
a(lp90
aa(lp91
(lp92
a(lp93
a(lp94
a(lp95
a(lp96
a(lp97
a(lp98
a(lp99
aa(lp100
(lp101
a(lp102
a(lp103
Vhttp://dbpedia.org/resource/Mississippi
p104
aa(lp105
a(lp106
a(lp107
a(lp108
Vhttp://dbpedia.org/resource/West_Virginia
p109
aa(lp110
Vhttp://dbpedia.org/resource/Null
p111
aaa(lp112
(lp113
a(lp114
a(lp115
Vhttp://dbpedia.org/resource/Null
p116
aa(lp117
Vhttp://dbpedia.org/resource/Null
p118
aa(lp119
Vhttp://dbpedia.org/resource/Null
p120
aa(lp121
Vhttp://dbpedia.org/resource/Null
p122
aa(lp123
Vhttp://dbpedia.org/resource/Null
p124
aa(lp125
Vhttp://dbpedia.org/resource/Null
p126
aaa.