(lp1
(lp2
(lp3
a(lp4
Vhttp://dbpedia.org/resource/EUREX
p5
aa(lp6
a(lp7
aa(lp8
(lp9
a(lp10
a(lp11
a(lp12
aa(lp13
(lp14
a(lp15
a(lp16
a(lp17
aa(lp18
(lp19
a(lp20
a(lp21
Vhttp://dbpedia.org/resource/Null
p22
aa(lp23
Vhttp://dbpedia.org/resource/Null
p24
aaa(lp25
(lp26
a(lp27
a(lp28
Vhttp://dbpedia.org/resource/Null
p29
aa(lp30
Vhttp://dbpedia.org/resource/Null
p31
aaa.