(lp1
(dp2
I0
(dp3
I0
(lp4
sI1
(lp5
sI2
(lp6
ssI1
(dp7
I0
g5
sI1
(lp8
sI2
(lp9
ssI2
(dp10
I0
g6
sI1
g9
sI2
(lp11
ssa(dp12
I0
(dp13
I0
(lp14
sI1
(lp15
sI2
(lp16
ssI1
(dp17
I0
g15
sI1
(lp18
sI2
(lp19
ssI2
(dp20
I0
g16
sI1
g19
sI2
(lp21
ssa(dp22
I0
(dp23
I0
(lp24
sI1
(lp25
Vhttp://dbpedia.org/property/subdivisionType
p26
aVhttp://dbpedia.org/ontology/country
p27
aVhttp://dbpedia.org/ontology/type
p28
aVhttp://dbpedia.org/ontology/capital
p29
aVhttp://dbpedia.org/property/category
p30
aVhttp://dbpedia.org/ontology/abstract
p31
aVhttp://www.w3.org/2000/01/rdf-schema#comment
p32
aVhttp://dbpedia.org/property/capital
p33
asI2
(lp34
ssI1
(dp35
I0
g25
sI1
(lp36
sI2
(lp37
ssI2
(dp38
I0
g34
sI1
g37
sI2
(lp39
ssa(dp40
I0
(dp41
I0
(lp42
sI1
(lp43
sI2
(lp44
ssI1
(dp45
I0
g43
sI1
(lp46
sI2
(lp47
ssI2
(dp48
I0
g44
sI1
g47
sI2
(lp49
ssa(dp50
I0
(dp51
I0
(lp52
sI1
(lp53
Vhttp://dbpedia.org/ontology/wikiPageExternalLink
p54
aVhttp://dbpedia.org/ontology/map
p55
aVhttp://xmlns.com/foaf/0.1/depiction
p56
aVhttp://dbpedia.org/ontology/capital
p57
aVhttp://www.w3.org/2002/07/owl#sameAs
p58
aVhttp://dbpedia.org/ontology/country
p59
aVhttp://dbpedia.org/ontology/abstract
p60
aVhttp://www.w3.org/2000/01/rdf-schema#comment
p61
aVhttp://dbpedia.org/ontology/wikiPageRedirects
p62
aVhttp://dbpedia.org/property/largestCity
p63
aVhttp://dbpedia.org/property/capital
p64
aVhttp://dbpedia.org/property/imageFlag
p65
aVhttp://dbpedia.org/ontology/thumbnail
p66
aVhttp://dbpedia.org/ontology/largestCity
p67
aVhttp://dbpedia.org/property/imageCoat
p68
aVhttp://dbpedia.org/property/department
p69
aVhttp://dbpedia.org/property/country
p70
aVhttp://dbpedia.org/ontology/flag
p71
aVhttp://www.w3.org/2000/01/rdf-schema#label
p72
aVhttp://dbpedia.org/property/overseasCollectivity
p73
asI2
(lp74
ssI1
(dp75
I0
g53
sI1
(lp76
sI2
(lp77
ssI2
(dp78
I0
g74
sI1
g77
sI2
(lp79
ssa(dp80
I0
(dp81
I0
(lp82
sI1
(lp83
Vhttp://dbpedia.org/ontology/country
p84
aVhttp://www.w3.org/2000/01/rdf-schema#comment
p85
aVhttp://dbpedia.org/ontology/abstract
p86
aVhttp://dbpedia.org/ontology/capital
p87
aVhttp://dbpedia.org/property/location
p88
aVhttp://dbpedia.org/property/capital
p89
aVhttp://dbpedia.org/property/country
p90
aVhttp://dbpedia.org/property/subdivisionName
p91
asI2
(lp92
ssI1
(dp93
I0
g83
sI1
(lp94
sI2
(lp95
ssI2
(dp96
I0
g92
sI1
g95
sI2
(lp97
ssa(dp98
I0
(dp99
I0
(lp100
sI1
(lp101
sI2
(lp102
ssI1
(dp103
I0
g101
sI1
(lp104
sI2
(lp105
ssI2
(dp106
I0
g102
sI1
g105
sI2
(lp107
ssa(dp108
I0
(dp109
I0
(lp110
sI1
(lp111
sI2
(lp112
ssI1
(dp113
I0
g111
sI1
(lp114
sI2
(lp115
ssI2
(dp116
I0
g112
sI1
g115
sI2
(lp117
ssa(dp118
I0
(dp119
I0
(lp120
sI1
(lp121
Vhttp://dbpedia.org/ontology/flag
p122
asI2
(lp123
ssI1
(dp124
I0
g121
sI1
(lp125
sI2
(lp126
ssI2
(dp127
I0
g123
sI1
g126
sI2
(lp128
ssa(dp129
I0
(dp130
I0
(lp131
sI1
(lp132
Vhttp://dbpedia.org/ontology/country
p133
aVhttp://dbpedia.org/ontology/location
p134
aVhttp://dbpedia.org/property/ground
p135
aVhttp://dbpedia.org/ontology/abstract
p136
aVhttp://dbpedia.org/ontology/capital
p137
aVhttp://dbpedia.org/property/place
p138
aVhttp://dbpedia.org/property/location
p139
aVhttp://dbpedia.org/property/largestCity
p140
aVhttp://dbpedia.org/property/capital
p141
aVhttp://dbpedia.org/ontology/largestCity
p142
aVhttp://dbpedia.org/property/caption
p143
aVhttp://dbpedia.org/property/country
p144
aVhttp://dbpedia.org/ontology/ground
p145
asI2
(lp146
ssI1
(dp147
I0
g132
sI1
(lp148
sI2
(lp149
ssI2
(dp150
I0
g146
sI1
g149
sI2
(lp151
ssa(dp152
I0
(dp153
I0
(lp154
sI1
(lp155
sI2
(lp156
ssI1
(dp157
I0
g155
sI1
(lp158
sI2
(lp159
ssI2
(dp160
I0
g156
sI1
g159
sI2
(lp161
ssa(dp162
I0
(dp163
I0
(lp164
sI1
(lp165
sI2
(lp166
ssI1
(dp167
I0
g165
sI1
(lp168
sI2
(lp169
ssI2
(dp170
I0
g166
sI1
g169
sI2
(lp171
ssa(dp172
I0
(dp173
I0
(lp174
sI1
(lp175
sI2
(lp176
ssI1
(dp177
I0
g175
sI1
(lp178
sI2
(lp179
ssI2
(dp180
I0
g176
sI1
g179
sI2
(lp181
ssa(dp182
I0
(dp183
I0
(lp184
sI1
(lp185
sI2
(lp186
ssI1
(dp187
I0
g185
sI1
(lp188
sI2
(lp189
ssI2
(dp190
I0
g186
sI1
g189
sI2
(lp191
ssa(dp192
I0
(dp193
I0
(lp194
sI1
(lp195
sI2
(lp196
ssI1
(dp197
I1
(lp198
sI2
(lp199
ssI2
(dp200
I0
g196
sI1
g199
sI2
(lp201
ssa(dp202
I0
(dp203
I0
(lp204
sI1
(lp205
sI2
(lp206
ssI1
(dp207
I0
g205
sI1
(lp208
sI2
(lp209
ssI2
(dp210
I0
g206
sI1
g209
sI2
(lp211
ssa(dp212
I0
(dp213
I0
(lp214
sI1
(lp215
sI2
(lp216
ssI1
(dp217
I0
g215
sI1
(lp218
sI2
(lp219
ssI2
(dp220
I0
g216
sI1
g219
sI2
(lp221
ssa(dp222
I0
(dp223
I0
(lp224
sI1
(lp225
sI2
(lp226
ssI1
(dp227
I0
g225
sI1
(lp228
sI2
(lp229
ssI2
(dp230
I0
g226
sI1
g229
sI2
(lp231
ssa(dp232
I0
(dp233
I0
(lp234
sI1
(lp235
sI2
(lp236
ssI1
(dp237
I0
g235
sI1
(lp238
sI2
(lp239
ssI2
(dp240
I0
g236
sI1
g239
sI2
(lp241
ssa(dp242
I0
(dp243
I0
(lp244
sI1
(lp245
Vhttp://www.w3.org/2000/01/rdf-schema#seeAlso
p246
aVhttp://dbpedia.org/ontology/country
p247
aVhttp://dbpedia.org/property/locale
p248
aVhttp://dbpedia.org/ontology/capital
p249
aVhttp://dbpedia.org/ontology/abstract
p250
aVhttp://dbpedia.org/property/location
p251
aVhttp://dbpedia.org/property/capital
p252
aVhttp://dbpedia.org/property/city
p253
aVhttp://dbpedia.org/ontology/city
p254
aVhttp://dbpedia.org/property/country
p255
aVhttp://dbpedia.org/property/shipNamesake
p256
aVhttp://dbpedia.org/ontology/county
p257
aVhttp://dbpedia.org/ontology/location
p258
asI2
(lp259
ssI1
(dp260
I0
g245
sI1
(lp261
sI2
(lp262
ssI2
(dp263
I0
g259
sI1
g262
sI2
(lp264
ssa.