(lp1
(lp2
a(lp3
a(lp4
a(lp5
(dp6
Vstart
p7
I0
sS'classes'
p8
(lp9
Vhttp://www.w3.org/2002/07/owl#Thing
p10
asVdisambiguatedURL
p11
Vhttp://dbpedia.org/resource/X86_virtualization
p12
sVnamedEntity
p13
Vx
sVoffset
p14
I1
saa(lp15
a(lp16
a(lp17
(dp18
Vstart
p19
I0
sg8
(lp20
Vhttp://www.w3.org/2002/07/owl#Thing
p21
asVdisambiguatedURL
p22
Vhttp://dbpedia.org/resource/X86_virtualization
p23
sVnamedEntity
p24
Vx
sVoffset
p25
I1
saa(lp26
(dp27
Vstart
p28
I0
sg8
(lp29
Vhttp://www.w3.org/2002/07/owl#Thing
p30
asVdisambiguatedURL
p31
Vhttp://dbpedia.org/resource/X86_virtualization
p32
sVnamedEntity
p33
Vx
sVoffset
p34
I1
saa(lp35
a(lp36
a(lp37
(dp38
Vstart
p39
I0
sg8
(lp40
Vhttp://www.w3.org/2002/07/owl#Thing
p41
asVdisambiguatedURL
p42
Vhttp://dbpedia.org/resource/X86_virtualization
p43
sVnamedEntity
p44
Vx
sVoffset
p45
I1
saa(lp46
(dp47
Vstart
p48
I0
sg8
(lp49
Vhttp://www.w3.org/2002/07/owl#Thing
p50
asVdisambiguatedURL
p51
Vhttp://dbpedia.org/resource/X86_virtualization
p52
sVnamedEntity
p53
Vx
sVoffset
p54
I1
saa(lp55
(dp56
Vstart
p57
I0
sg8
(lp58
Vhttp://www.w3.org/2002/07/owl#Thing
p59
asVdisambiguatedURL
p60
Vhttp://dbpedia.org/resource/X86_virtualization
p61
sVnamedEntity
p62
Vx
sVoffset
p63
I1
saa(lp64
a(lp65
(dp66
Vstart
p67
I0
sg8
(lp68
Vhttp://www.w3.org/2002/07/owl#Thing
p69
asVdisambiguatedURL
p70
Vhttp://dbpedia.org/resource/X86_virtualization
p71
sVnamedEntity
p72
Vx
sVoffset
p73
I1
saa(lp74
(dp75
Vstart
p76
I0
sg8
(lp77
Vhttp://www.w3.org/2002/07/owl#Thing
p78
asVdisambiguatedURL
p79
Vhttp://dbpedia.org/resource/X86_virtualization
p80
sVnamedEntity
p81
Vx
sVoffset
p82
I1
saa(lp83
a(lp84
(dp85
Vstart
p86
I0
sg8
(lp87
Vhttp://www.w3.org/2002/07/owl#Thing
p88
asVdisambiguatedURL
p89
Vhttp://dbpedia.org/resource/X86_virtualization
p90
sVnamedEntity
p91
Vx
sVoffset
p92
I1
saa(lp93
a(lp94
(dp95
Vstart
p96
I0
sg8
(lp97
Vhttp://www.w3.org/2002/07/owl#Thing
p98
asVdisambiguatedURL
p99
Vhttp://dbpedia.org/resource/X86_virtualization
p100
sVnamedEntity
p101
Vx
sVoffset
p102
I1
saa.