(lp1
(lp2
(lp3
a(lp4
a(lp5
a(lp6
a(lp7
a(lp8
a(lp9
a(lp10
Vhttp://dbpedia.org/resource/X86_virtualization
p11
aa(lp12
a(lp13
a(lp14
a(lp15
a(lp16
a(lp17
a(lp18
a(lp19
a(lp20
a(lp21
Vhttp://dbpedia.org/resource/Null
p22
aaa(lp23
(lp24
a(lp25
a(lp26
a(lp27
a(lp28
a(lp29
a(lp30
a(lp31
a(lp32
a(lp33
a(lp34
a(lp35
a(lp36
a(lp37
a(lp38
a(lp39
a(lp40
a(lp41
Vhttp://dbpedia.org/resource/Null
p42
aaa(lp43
(lp44
a(lp45
a(lp46
a(lp47
a(lp48
a(lp49
a(lp50
a(lp51
a(lp52
a(lp53
a(lp54
a(lp55
a(lp56
a(lp57
a(lp58
a(lp59
a(lp60
a(lp61
Vhttp://dbpedia.org/resource/Null
p62
aaa(lp63
(lp64
a(lp65
a(lp66
Vhttp://dbpedia.org/resource/X86_virtualization
p67
aa(lp68
a(lp69
Vhttp://dbpedia.org/resource/X86_virtualization
p70
aa(lp71
a(lp72
a(lp73
Vhttp://dbpedia.org/resource/X86_virtualization
p74
aa(lp75
a(lp76
a(lp77
a(lp78
a(lp79
a(lp80
a(lp81
a(lp82
a(lp83
a(lp84
Vhttp://dbpedia.org/resource/Null
p85
aaa(lp86
(lp87
a(lp88
a(lp89
a(lp90
a(lp91
a(lp92
a(lp93
a(lp94
a(lp95
a(lp96
a(lp97
a(lp98
a(lp99
a(lp100
a(lp101
a(lp102
a(lp103
a(lp104
Vhttp://dbpedia.org/resource/Null
p105
aaa(lp106
(lp107
a(lp108
a(lp109
a(lp110
a(lp111
a(lp112
a(lp113
a(lp114
a(lp115
a(lp116
a(lp117
a(lp118
a(lp119
a(lp120
a(lp121
a(lp122
a(lp123
a(lp124
Vhttp://dbpedia.org/resource/Null
p125
aaa(lp126
(lp127
a(lp128
a(lp129
a(lp130
a(lp131
Vhttp://dbpedia.org/resource/X86_virtualization
p132
aa(lp133
a(lp134
a(lp135
Vhttp://dbpedia.org/resource/X86_virtualization
p136
aa(lp137
a(lp138
a(lp139
a(lp140
a(lp141
Vhttp://dbpedia.org/resource/X86_virtualization
p142
aa(lp143
a(lp144
Vhttp://dbpedia.org/resource/X86_virtualization
p145
aa(lp146
a(lp147
a(lp148
Vhttp://dbpedia.org/resource/Null
p149
aaa(lp150
(lp151
a(lp152
a(lp153
a(lp154
a(lp155
Vhttp://dbpedia.org/resource/X86_virtualization
p156
aa(lp157
Vhttp://dbpedia.org/resource/X86_virtualization
p158
aa(lp159
Vhttp://dbpedia.org/resource/X86_virtualization
p160
aa(lp161
Vhttp://dbpedia.org/resource/X86_virtualization
p162
aa(lp163
a(lp164
Vhttp://dbpedia.org/resource/X86_virtualization
p165
aa(lp166
a(lp167
a(lp168
a(lp169
a(lp170
a(lp171
a(lp172
a(lp173
Vhttp://dbpedia.org/resource/Null
p174
aaa(lp175
(lp176
a(lp177
a(lp178
a(lp179
a(lp180
a(lp181
Vhttp://dbpedia.org/resource/X86_virtualization
p182
aa(lp183
a(lp184
Vhttp://dbpedia.org/resource/X86_virtualization
p185
aa(lp186
a(lp187
a(lp188
a(lp189
a(lp190
a(lp191
a(lp192
a(lp193
a(lp194
a(lp195
Vhttp://dbpedia.org/resource/Null
p196
aaa(lp197
(lp198
a(lp199
a(lp200
a(lp201
a(lp202
a(lp203
a(lp204
a(lp205
a(lp206
a(lp207
a(lp208
a(lp209
a(lp210
a(lp211
a(lp212
a(lp213
a(lp214
a(lp215
Vhttp://dbpedia.org/resource/Null
p216
aaa(lp217
(lp218
a(lp219
a(lp220
a(lp221
a(lp222
Vhttp://dbpedia.org/resource/X86_virtualization
p223
aa(lp224
a(lp225
Vhttp://dbpedia.org/resource/X86_virtualization
p226
aa(lp227
Vhttp://dbpedia.org/resource/X86_virtualization
p228
aa(lp229
a(lp230
Vhttp://dbpedia.org/resource/X86_virtualization
p231
aa(lp232
a(lp233
a(lp234
a(lp235
a(lp236
a(lp237
a(lp238
a(lp239
Vhttp://dbpedia.org/resource/Null
p240
aaa(lp241
(lp242
a(lp243
a(lp244
a(lp245
a(lp246
Vhttp://dbpedia.org/resource/X86_virtualization
p247
aa(lp248
a(lp249
a(lp250
Vhttp://dbpedia.org/resource/X86_virtualization
p251
aa(lp252
a(lp253
a(lp254
a(lp255
a(lp256
Vhttp://dbpedia.org/resource/X86_virtualization
p257
aa(lp258
a(lp259
Vhttp://dbpedia.org/resource/X86_virtualization
p260
aa(lp261
a(lp262
a(lp263
Vhttp://dbpedia.org/resource/Null
p264
aaa(lp265
(lp266
a(lp267
a(lp268
a(lp269
a(lp270
Vhttp://dbpedia.org/resource/X86_virtualization
p271
aa(lp272
Vhttp://dbpedia.org/resource/X86_virtualization
p273
aa(lp274
a(lp275
Vhttp://dbpedia.org/resource/X86_virtualization
p276
aa(lp277
a(lp278
Vhttp://dbpedia.org/resource/X86_virtualization
p279
aa(lp280
a(lp281
a(lp282
a(lp283
a(lp284
a(lp285
a(lp286
a(lp287
Vhttp://dbpedia.org/resource/Null
p288
aaa(lp289
(lp290
a(lp291
a(lp292
a(lp293
a(lp294
a(lp295
Vhttp://dbpedia.org/resource/X86_virtualization
p296
aa(lp297
a(lp298
Vhttp://dbpedia.org/resource/X86_virtualization
p299
aa(lp300
a(lp301
a(lp302
a(lp303
a(lp304
a(lp305
a(lp306
a(lp307
a(lp308
a(lp309
Vhttp://dbpedia.org/resource/Null
p310
aaa(lp311
(lp312
a(lp313
a(lp314
a(lp315
a(lp316
Vhttp://dbpedia.org/resource/X86_virtualization
p317
aa(lp318
a(lp319
a(lp320
a(lp321
a(lp322
a(lp323
a(lp324
a(lp325
a(lp326
a(lp327
Vhttp://dbpedia.org/resource/X86_virtualization
p328
aa(lp329
a(lp330
a(lp331
Vhttp://dbpedia.org/resource/Null
p332
aaa(lp333
(lp334
a(lp335
a(lp336
a(lp337
a(lp338
Vhttp://dbpedia.org/resource/X86_virtualization
p339
aa(lp340
a(lp341
a(lp342
a(lp343
a(lp344
a(lp345
a(lp346
a(lp347
a(lp348
a(lp349
a(lp350
a(lp351
a(lp352
Vhttp://dbpedia.org/resource/Null
p353
aaa(lp354
(lp355
a(lp356
a(lp357
a(lp358
a(lp359
a(lp360
a(lp361
a(lp362
a(lp363
a(lp364
a(lp365
a(lp366
a(lp367
a(lp368
a(lp369
a(lp370
a(lp371
a(lp372
Vhttp://dbpedia.org/resource/Null
p373
aaa(lp374
(lp375
a(lp376
a(lp377
Vhttp://dbpedia.org/resource/X86_virtualization
p378
aa(lp379
a(lp380
Vhttp://dbpedia.org/resource/X86_virtualization
p381
aa(lp382
a(lp383
a(lp384
a(lp385
a(lp386
a(lp387
a(lp388
a(lp389
a(lp390
a(lp391
Vhttp://dbpedia.org/resource/X86_virtualization
p392
aa(lp393
Vhttp://dbpedia.org/resource/X86_virtualization
p394
aa(lp395
a(lp396
Vhttp://dbpedia.org/resource/Null
p397
aaa(lp398
(lp399
a(lp400
a(lp401
a(lp402
a(lp403
a(lp404
a(lp405
a(lp406
a(lp407
a(lp408
a(lp409
a(lp410
a(lp411
a(lp412
a(lp413
a(lp414
a(lp415
a(lp416
Vhttp://dbpedia.org/resource/Null
p417
aaa(lp418
(lp419
a(lp420
a(lp421
Vhttp://dbpedia.org/resource/X86_virtualization
p422
aa(lp423
a(lp424
Vhttp://dbpedia.org/resource/X86_virtualization
p425
aa(lp426
a(lp427
a(lp428
Vhttp://dbpedia.org/resource/X86_virtualization
p429
aa(lp430
a(lp431
a(lp432
a(lp433
a(lp434
Vhttp://dbpedia.org/resource/X86_virtualization
p435
aa(lp436
Vhttp://dbpedia.org/resource/X86_virtualization
p437
aa(lp438
Vhttp://dbpedia.org/resource/X86_virtualization
p439
aa(lp440
a(lp441
a(lp442
Vhttp://dbpedia.org/resource/Null
p443
aaa.