(lp1
(lp2
(dp3
Vstart
p4
I0
sVdisambiguatedURL
p5
NsVnamedEntity
p6
V6
sVoffset
p7
I1
saa(lp8
(dp9
Vstart
p10
I0
sVdisambiguatedURL
p11
NsVnamedEntity
p12
V
sVoffset
p13
I0
saa(lp14
(dp15
Vstart
p16
I0
sVdisambiguatedURL
p17
NsVnamedEntity
p18
V
sVoffset
p19
I0
saa(lp20
(dp21
Vstart
p22
I0
sVdisambiguatedURL
p23
Vhttp://dbpedia.org/resource/X86_virtualization
p24
sVnamedEntity
p25
Vx
sVoffset
p26
I1
saa(lp27
(dp28
Vstart
p29
I0
sVdisambiguatedURL
p30
NsVnamedEntity
p31
V
sVoffset
p32
I0
saa(lp33
(dp34
Vstart
p35
I0
sVdisambiguatedURL
p36
NsVnamedEntity
p37
V
sVoffset
p38
I0
saa(lp39
(dp40
Vstart
p41
I0
sVdisambiguatedURL
p42
Vhttp://dbpedia.org/resource/X86_virtualization
p43
sVnamedEntity
p44
Vx
sVoffset
p45
I1
saa(lp46
(dp47
Vstart
p48
I0
sVdisambiguatedURL
p49
Vhttp://dbpedia.org/resource/X86_virtualization
p50
sVnamedEntity
p51
Vx
sVoffset
p52
I1
saa(lp53
(dp54
Vstart
p55
I0
sVdisambiguatedURL
p56
NsVnamedEntity
p57
V
sVoffset
p58
I0
saa(lp59
(dp60
Vstart
p61
I0
sVdisambiguatedURL
p62
NsVnamedEntity
p63
V
sVoffset
p64
I0
saa(lp65
(dp66
Vstart
p67
I0
sVdisambiguatedURL
p68
Vhttp://dbpedia.org/resource/X86_virtualization
p69
sVnamedEntity
p70
Vx
sVoffset
p71
I1
saa(lp72
(dp73
Vstart
p74
I0
sVdisambiguatedURL
p75
Vhttp://dbpedia.org/resource/X86_virtualization
p76
sVnamedEntity
p77
Vx
sVoffset
p78
I1
saa(lp79
(dp80
Vstart
p81
I0
sVdisambiguatedURL
p82
Vhttp://dbpedia.org/resource/X86_virtualization
p83
sVnamedEntity
p84
Vx
sVoffset
p85
I1
saa(lp86
(dp87
Vstart
p88
I0
sVdisambiguatedURL
p89
NsVnamedEntity
p90
V
sVoffset
p91
I0
saa(lp92
(dp93
Vstart
p94
I0
sVdisambiguatedURL
p95
Vhttp://dbpedia.org/resource/X86_virtualization
p96
sVnamedEntity
p97
Vx
sVoffset
p98
I1
saa(lp99
(dp100
Vstart
p101
I0
sVdisambiguatedURL
p102
Vhttp://dbpedia.org/resource/X86_virtualization
p103
sVnamedEntity
p104
Vx
sVoffset
p105
I1
saa(lp106
(dp107
Vstart
p108
I0
sVdisambiguatedURL
p109
NsVnamedEntity
p110
V
sVoffset
p111
I0
saa(lp112
(dp113
Vstart
p114
I0
sVdisambiguatedURL
p115
Vhttp://dbpedia.org/resource/X86_virtualization
p116
sVnamedEntity
p117
Vx
sVoffset
p118
I1
saa(lp119
(dp120
Vstart
p121
I0
sVdisambiguatedURL
p122
NsVnamedEntity
p123
V
sVoffset
p124
I0
saa(lp125
(dp126
Vstart
p127
I0
sVdisambiguatedURL
p128
Vhttp://dbpedia.org/resource/X86_virtualization
p129
sVnamedEntity
p130
Vx
sVoffset
p131
I1
saa.