(lp1
(lp2
(dp3
Vstart
p4
I0
sVdisambiguatedURL
p5
Vhttp://dbpedia.org/resource/Bank_of_America
p6
sVnamedEntity
p7
VBank of America National Association
p8
sVoffset
p9
I36
saa(lp10
(dp11
Vstart
p12
I0
sVdisambiguatedURL
p13
NsVnamedEntity
p14
VCitizens Bank New Hampshire
p15
sVoffset
p16
I27
saa(lp17
(dp18
Vstart
p19
I0
sVdisambiguatedURL
p20
NsVnamedEntity
p21
VSouthern New Hampshire Bank and Trust Company
p22
sVoffset
p23
I45
saa(lp24
(dp25
Vstart
p26
I0
sVdisambiguatedURL
p27
Vhttp://dbpedia.org/resource/Sovereign_ring
p28
sVnamedEntity
p29
VSovereign Bank
p30
sVoffset
p31
I14
saa(lp32
(dp33
Vstart
p34
I0
sVdisambiguatedURL
p35
NsVnamedEntity
p36
VTD BankNorth National Association
p37
sVoffset
p38
I33
saa(lp39
(dp40
Vstart
p41
I0
sVdisambiguatedURL
p42
NsVnamedEntity
p43
VThe First National Bank of Ipswich
p44
sVoffset
p45
I34
saa(lp46
(dp47
Vstart
p48
I0
sVdisambiguatedURL
p49
NsVnamedEntity
p50
V* Disclaimer: List is not guaranteed to be complete or accurate.
p51
sVoffset
p52
I64
saa.