(lp1
(dp2
I0
(dp3
I0
(lp4
sI1
(lp5
sI2
(lp6
sI3
(lp7
Vhttp://dbpedia.org/ontology/wikiPageExternalLink
p8
aVhttp://dbpedia.org/property/wordnet_type
p9
aVhttp://www.w3.org/1999/02/22-rdf-syntax-ns#type
p10
aVhttp://purl.org/dc/terms/subject
p11
aVhttp://www.w3.org/2000/01/rdf-schema#comment
p12
aVhttp://dbpedia.org/ontology/revenue
p13
aVhttp://dbpedia.org/ontology/abstract
p14
aVhttp://dbpedia.org/ontology/equity
p15
aVhttp://dbpedia.org/ontology/owner
p16
aVhttp://dbpedia.org/property/owner
p17
aVhttp://dbpedia.org/property/assets
p18
aVhttp://www.w3.org/ns/prov#wasDerivedFrom
p19
aVhttp://dbpedia.org/property/hoovers
p20
aVhttp://purl.org/voc/vrank#hasRank
p21
aVhttp://dbpedia.org/ontology/assets
p22
aVhttp://www.w3.org/2002/07/owl#sameAs
p23
aVhttp://dbpedia.org/property/revenue
p24
assI1
(dp25
I0
g5
sI1
(lp26
sI2
(lp27
sI3
(lp28
ssI2
(dp29
I0
g6
sI1
g27
sI2
(lp30
sI3
(lp31
ssI3
(dp32
I0
g7
sI1
g28
sI2
g31
sI3
(lp33
ssa(dp34
I0
(dp35
I0
(lp36
sI1
(lp37
sI2
(lp38
sI3
(lp39
ssI1
(dp40
I0
g37
sI1
(lp41
sI2
(lp42
sI3
(lp43
ssI2
(dp44
I0
g38
sI1
g42
sI2
(lp45
sI3
(lp46
ssI3
(dp47
I0
g39
sI1
g43
sI2
g46
sI3
(lp48
ssa(dp49
I0
(dp50
I0
(lp51
sI1
(lp52
sI2
(lp53
sI3
(lp54
ssI1
(dp55
I0
g52
sI1
(lp56
sI2
(lp57
sI3
(lp58
ssI2
(dp59
I0
g53
sI1
g57
sI2
(lp60
sI3
(lp61
ssI3
(dp62
I0
g54
sI1
g58
sI2
g61
sI3
(lp63
ssa(dp64
I0
(dp65
I0
(lp66
sI1
(lp67
sI2
(lp68
sI3
(lp69
Vhttp://www.w3.org/ns/prov#wasDerivedFrom
p70
aVhttp://purl.org/voc/vrank#hasRank
p71
aVhttp://www.w3.org/1999/02/22-rdf-syntax-ns#type
p72
aVhttp://www.w3.org/2002/07/owl#sameAs
p73
assI1
(dp74
I0
g67
sI1
(lp75
sI2
(lp76
sI3
(lp77
ssI2
(dp78
I0
g68
sI1
g76
sI2
(lp79
sI3
(lp80
ssI3
(dp81
I0
g69
sI1
g77
sI2
g80
sI3
(lp82
ssa(dp83
I0
(dp84
I0
(lp85
sI1
(lp86
sI2
(lp87
sI3
(lp88
ssI1
(dp89
I0
g86
sI1
(lp90
sI2
(lp91
sI3
(lp92
ssI2
(dp93
I0
g87
sI1
g91
sI2
(lp94
sI3
(lp95
ssI3
(dp96
I0
g88
sI1
g92
sI2
g95
sI3
(lp97
ssa(dp98
I0
(dp99
I0
(lp100
sI1
(lp101
sI2
(lp102
sI3
(lp103
ssI1
(dp104
I0
g101
sI1
(lp105
sI2
(lp106
sI3
(lp107
ssI2
(dp108
I0
g102
sI1
g106
sI2
(lp109
sI3
(lp110
ssI3
(dp111
I0
g103
sI1
g107
sI2
g110
sI3
(lp112
ssa(dp113
I0
(dp114
I0
(lp115
sI1
(lp116
sI2
(lp117
sI3
(lp118
ssI1
(dp119
I0
g116
sI1
(lp120
sI2
(lp121
sI3
(lp122
ssI2
(dp123
I0
g117
sI2
(lp124
sI3
(lp125
ssI3
(dp126
I0
g118
sI3
(lp127
ssa.