(lp1
(lp2
(lp3
((lp4
Vhttp://www.w3.org/2002/07/owl#Thing
p5
aVhttp://dbpedia.org/ontology/Company
p6
aVhttp://www.ontologydesignpatterns.org/ont/dul/DUL.owl#Agent
p7
aVhttp://www.ontologydesignpatterns.org/ont/dul/DUL.owl#SocialPerson
p8
aVhttp://www.wikidata.org/entity/Q43229
p9
aVhttp://dbpedia.org/ontology/Agent
p10
aVhttp://dbpedia.org/ontology/Bank
p11
aVhttp://dbpedia.org/ontology/Organisation
p12
aVhttp://schema.org/BankOrCreditUnion
p13
aVhttp://schema.org/Organization
p14
aVhttp://umbel.org/umbel/rc/Business
p15
aVhttp://umbel.org/umbel/rc/Organization
p16
aVhttp://dbpedia.org/class/yago/Abstraction100002137
p17
aVhttp://dbpedia.org/class/yago/BanksBasedInNorthCarolina
p18
aVhttp://dbpedia.org/class/yago/BanksEstablishedIn1998
p19
aVhttp://dbpedia.org/class/yago/Brokerage108069878
p20
aVhttp://dbpedia.org/class/yago/Company108058098
p21
aVhttp://dbpedia.org/class/yago/DepositoryFinancialInstitution108420278
p22
aVhttp://dbpedia.org/class/yago/FinancialInstitution108054721
p23
aVhttp://dbpedia.org/class/yago/Group100031264
p24
aVhttp://dbpedia.org/class/yago/Institution108053576
p25
aVhttp://dbpedia.org/class/yago/NondepositoryFinancialInstitution108419984
p26
aVhttp://dbpedia.org/class/yago/Organization108008335
p27
aVhttp://dbpedia.org/class/yago/SocialGroup107950920
p28
aVhttp://dbpedia.org/class/yago/YagoLegalActorGeo
p29
aVhttp://dbpedia.org/class/yago/CompaniesBasedInCharlotte,NorthCarolina
p30
aVhttp://dbpedia.org/class/yago/FinancialServicesCompaniesOfTheUnitedStates
p31
aVhttp://dbpedia.org/class/yago/YagoPermanentlyLocatedEntity
p32
aVhttp://dbpedia.org/class/yago/MultinationalCompaniesHeadquarteredInTheUnitedStates
p33
aVhttp://dbpedia.org/class/yago/OnlineBrokerages
p34
aVhttp://dbpedia.org/class/yago/YagoLegalActor
p35
aVhttp://dbpedia.org/class/yago/PubliclyTradedCompaniesOfTheUnitedStates
p36
aVhttp://dbpedia.org/resource/Bank_of_America
tp37
aa(lp38
a(lp39
a(lp40
aa(lp41
(lp42
a(lp43
a(lp44
a(lp45
aa(lp46
(lp47
a(lp48
a(lp49
a(lp50
aa(lp51
(lp52
((lp53
Vhttp://dbpedia.org/class/yago/Abstraction100002137
p54
aVhttp://dbpedia.org/class/yago/Attribute100024264
p55
aVhttp://dbpedia.org/class/yago/Property104916342
p56
aVhttp://dbpedia.org/class/yago/Ring104981658
p57
aVhttp://dbpedia.org/class/yago/Sound104981139
p58
aVhttp://dbpedia.org/class/yago/SoundProperty104983122
p59
aVhttp://dbpedia.org/class/yago/Rings
p60
aVhttp://dbpedia.org/resource/Sovereign_ring
p61
tp62
aa(lp63
a(lp64
a(lp65
aa(lp66
(lp67
a(lp68
a(lp69
a(lp70
aa(lp71
(lp72
a(lp73
a(lp74
a(lp75
aa(lp76
(lp77
a(lp78
a(lp79
a(lp80
aa.