(lp1
(lp2
(dp3
Vstart
p4
I0
sS'classes'
p5
(lp6
Vhttp://www.w3.org/2002/07/owl#Thing
p7
aVhttp://dbpedia.org/ontology/Company
p8
aVhttp://www.ontologydesignpatterns.org/ont/dul/DUL.owl#Agent
p9
aVhttp://www.ontologydesignpatterns.org/ont/dul/DUL.owl#SocialPerson
p10
aVhttp://www.wikidata.org/entity/Q43229
p11
aVhttp://dbpedia.org/ontology/Agent
p12
aVhttp://dbpedia.org/ontology/Bank
p13
aVhttp://dbpedia.org/ontology/Organisation
p14
aVhttp://schema.org/BankOrCreditUnion
p15
aVhttp://schema.org/Organization
p16
aVhttp://umbel.org/umbel/rc/Business
p17
aVhttp://umbel.org/umbel/rc/Organization
p18
aVhttp://dbpedia.org/class/yago/Abstraction100002137
p19
aVhttp://dbpedia.org/class/yago/BanksBasedInNorthCarolina
p20
aVhttp://dbpedia.org/class/yago/BanksEstablishedIn1998
p21
aVhttp://dbpedia.org/class/yago/Brokerage108069878
p22
aVhttp://dbpedia.org/class/yago/Company108058098
p23
aVhttp://dbpedia.org/class/yago/DepositoryFinancialInstitution108420278
p24
aVhttp://dbpedia.org/class/yago/FinancialInstitution108054721
p25
aVhttp://dbpedia.org/class/yago/Group100031264
p26
aVhttp://dbpedia.org/class/yago/Institution108053576
p27
aVhttp://dbpedia.org/class/yago/NondepositoryFinancialInstitution108419984
p28
aVhttp://dbpedia.org/class/yago/Organization108008335
p29
aVhttp://dbpedia.org/class/yago/SocialGroup107950920
p30
aVhttp://dbpedia.org/class/yago/YagoLegalActorGeo
p31
aVhttp://dbpedia.org/class/yago/CompaniesBasedInCharlotte,NorthCarolina
p32
aVhttp://dbpedia.org/class/yago/FinancialServicesCompaniesOfTheUnitedStates
p33
aVhttp://dbpedia.org/class/yago/YagoPermanentlyLocatedEntity
p34
aVhttp://dbpedia.org/class/yago/MultinationalCompaniesHeadquarteredInTheUnitedStates
p35
aVhttp://dbpedia.org/class/yago/OnlineBrokerages
p36
aVhttp://dbpedia.org/class/yago/YagoLegalActor
p37
aVhttp://dbpedia.org/class/yago/PubliclyTradedCompaniesOfTheUnitedStates
p38
asVdisambiguatedURL
p39
Vhttp://dbpedia.org/resource/Bank_of_America
p40
sVnamedEntity
p41
VBank of America National Association
p42
sVoffset
p43
I36
saa(lp44
a(lp45
a(lp46
(dp47
Vstart
p48
I0
sg5
(lp49
Vhttp://dbpedia.org/class/yago/Abstraction100002137
p50
aVhttp://dbpedia.org/class/yago/Attribute100024264
p51
aVhttp://dbpedia.org/class/yago/Property104916342
p52
aVhttp://dbpedia.org/class/yago/Ring104981658
p53
aVhttp://dbpedia.org/class/yago/Sound104981139
p54
aVhttp://dbpedia.org/class/yago/SoundProperty104983122
p55
aVhttp://dbpedia.org/class/yago/Rings
p56
asVdisambiguatedURL
p57
Vhttp://dbpedia.org/resource/Sovereign_ring
p58
sVnamedEntity
p59
VSovereign Bank
p60
sVoffset
p61
I14
saa(lp62
a(lp63
a(lp64
a.