(lp1
(lp2
(dp3
Vstart
p4
I0
sVdisambiguatedURL
p5
NsVnamedEntity
p6
Vbolsa de pastor
p7
sVoffset
p8
I15
saa(lp9
(dp10
Vstart
p11
I0
sVdisambiguatedURL
p12
NsVnamedEntity
p13
Vbourse &#224; pasteur
p14
sVoffset
p15
I21
saa(lp16
(dp17
Vstart
p18
I0
sVdisambiguatedURL
p19
NsVnamedEntity
p20
Vboursette
p21
sVoffset
p22
I9
saa(lp23
(dp24
Vstart
p25
I0
sVdisambiguatedURL
p26
NsVnamedEntity
p27
Vcalzoncitos
p28
sVoffset
p29
I11
saa(lp30
(dp31
Vstart
p32
I0
sVdisambiguatedURL
p33
NsVnamedEntity
p34
Vcapselle &#224; pasteur
p35
sVoffset
p36
I23
saa(lp37
(dp38
Vstart
p39
I0
sVdisambiguatedURL
p40
NsVnamedEntity
p41
Vcase weed
p42
sVoffset
p43
I9
saa(lp44
(dp45
Vstart
p46
I0
sVdisambiguatedURL
p47
NsVnamedEntity
p48
Vcomida de pajaritos
p49
sVoffset
p50
I19
saa(lp51
(dp52
Vstart
p53
I0
sVdisambiguatedURL
p54
NsVnamedEntity
p55
Vlady's purse
p56
sVoffset
p57
I12
saa(lp58
(dp59
Vstart
p60
I0
sVdisambiguatedURL
p61
NsVnamedEntity
p62
Vmastuerzo de chivo
p63
sVoffset
p64
I18
saa(lp65
(dp66
Vstart
p67
I0
sVdisambiguatedURL
p68
NsVnamedEntity
p69
Vmastuerzo de coche
p70
sVoffset
p71
I18
saa(lp72
(dp73
Vstart
p74
I0
sVdisambiguatedURL
p75
NsVnamedEntity
p76
Vnazuna
p77
sVoffset
p78
I6
saa(lp79
(dp80
Vstart
p81
I0
sVdisambiguatedURL
p82
NsVnamedEntity
p83
Vpepper plant
p84
sVoffset
p85
I12
saa(lp86
(dp87
Vstart
p88
I0
sVdisambiguatedURL
p89
NsVnamedEntity
p90
Vqi
p91
sVoffset
p92
I2
saa(lp93
(dp94
Vstart
p95
I0
sVdisambiguatedURL
p96
NsVnamedEntity
p97
Vshepherd's purse
p98
sVoffset
p99
I16
saa(lp100
(dp101
Vstart
p102
I0
sVdisambiguatedURL
p103
NsVnamedEntity
p104
VSt. James weed
p105
sVoffset
p106
I14
saa(lp107
(dp108
Vstart
p109
I0
sVdisambiguatedURL
p110
NsVnamedEntity
p111
Vsurr&#243;n de pastor
p112
sVoffset
p113
I21
saa(lp114
(dp115
Vstart
p116
I0
sVdisambiguatedURL
p117
NsVnamedEntity
p118
Vyerba de puerco
p119
sVoffset
p120
I15
saa(lp121
(dp122
Vstart
p123
I0
sVdisambiguatedURL
p124
NsVnamedEntity
p125
Vzurr&#243;n de pastor
p126
sVoffset
p127
I21
saa.