(lp1
(dp2
I0
(dp3
I0
(lp4
sI1
(lp5
Vhttp://dbpedia.org/ontology/wikiPageExternalLink
p6
aVhttp://dbpedia.org/ontology/country
p7
aVhttp://dbpedia.org/property/currencyCode
p8
aVhttp://dbpedia.org/ontology/location
p9
aVhttp://dbpedia.org/property/origin
p10
aVhttp://dbpedia.org/ontology/abstract
p11
aVhttp://dbpedia.org/property/locationCountry
p12
aVhttp://dbpedia.org/property/location
p13
aVhttp://dbpedia.org/ontology/foundationPlace
p14
aVhttp://dbpedia.org/ontology/hometown
p15
aVhttp://dbpedia.org/ontology/locationCountry
p16
aVhttp://dbpedia.org/property/country
p17
aVhttp://dbpedia.org/property/subdivisionName
p18
asI2
(lp19
Vhttp://dbpedia.org/property/origin
p20
aVhttp://dbpedia.org/ontology/country
p21
aVhttp://dbpedia.org/ontology/location
p22
aVhttp://dbpedia.org/ontology/locationCountry
p23
aVhttp://dbpedia.org/ontology/birthPlace
p24
aVhttp://dbpedia.org/ontology/abstract
p25
aVhttp://dbpedia.org/property/locationCountry
p26
aVhttp://dbpedia.org/property/deathPlace
p27
aVhttp://dbpedia.org/property/location
p28
aVhttp://dbpedia.org/ontology/hometown
p29
aVhttp://dbpedia.org/property/birthPlace
p30
aVhttp://dbpedia.org/property/placeOfBirth
p31
aVhttp://dbpedia.org/ontology/locatedInArea
p32
aVhttp://dbpedia.org/property/country
p33
aVhttp://dbpedia.org/ontology/regionServed
p34
aVhttp://dbpedia.org/property/subdivisionName
p35
aVhttp://dbpedia.org/property/areaServed
p36
aVhttp://dbpedia.org/ontology/deathPlace
p37
asI3
(lp38
Vhttp://dbpedia.org/property/origin
p39
aVhttp://dbpedia.org/ontology/country
p40
aVhttp://dbpedia.org/ontology/location
p41
aVhttp://dbpedia.org/ontology/nationality
p42
aVhttp://dbpedia.org/property/nationality
p43
aVhttp://dbpedia.org/property/locationCountry
p44
aVhttp://dbpedia.org/property/location
p45
aVhttp://dbpedia.org/ontology/releaseLocation
p46
aVhttp://dbpedia.org/ontology/hometown
p47
aVhttp://dbpedia.org/ontology/locationCountry
p48
aVhttp://dbpedia.org/property/allegiance
p49
aVhttp://dbpedia.org/property/country
p50
aVhttp://dbpedia.org/property/subdivisionName
p51
aVhttp://dbpedia.org/property/nationalOrigin
p52
aVhttp://dbpedia.org/property/headquarters
p53
asI4
(lp54
ssI1
(dp55
I0
g5
sI1
(lp56
sI2
(lp57
sI3
(lp58
sI4
(lp59
ssI2
(dp60
I0
g19
sI1
g57
sI2
(lp61
sI3
(lp62
sI4
(lp63
ssI3
(dp64
I0
g38
sI1
g58
sI2
g62
sI3
(lp65
sI4
(lp66
ssI4
(dp67
I0
g54
sI1
g59
sI2
g63
sI3
g66
sI4
(lp68
ssa(dp69
I0
(dp70
I0
(lp71
sI1
(lp72
Vhttp://dbpedia.org/ontology/country
p73
aVhttp://dbpedia.org/property/nationality
p74
aVhttp://dbpedia.org/ontology/birthPlace
p75
aVhttp://dbpedia.org/property/place
p76
aVhttp://dbpedia.org/ontology/nationality
p77
aVhttp://dbpedia.org/property/birthPlace
p78
aVhttp://dbpedia.org/ontology/place
p79
aVhttp://dbpedia.org/property/placeOfBirth
p80
aVhttp://dbpedia.org/ontology/stateOfOrigin
p81
asI2
(lp82
Vhttp://www.w3.org/2000/01/rdf-schema#seeAlso
p83
aVhttp://dbpedia.org/property/currency
p84
aVhttp://dbpedia.org/ontology/currency
p85
aVhttp://dbpedia.org/property/place
p86
aVhttp://dbpedia.org/ontology/premierePlace
p87
aVhttp://www.w3.org/ns/prov#wasDerivedFrom
p88
aVhttp://dbpedia.org/ontology/garrison
p89
aVhttp://dbpedia.org/property/placeOfDeath
p90
aVhttp://dbpedia.org/ontology/longName
p91
aVhttp://dbpedia.org/property/legislature
p92
aVhttp://www.w3.org/2002/07/owl#differentFrom
p93
aVhttp://dbpedia.org/ontology/flag
p94
aVhttp://dbpedia.org/ontology/country
p95
aVhttp://dbpedia.org/property/nationalAnthem
p96
aVhttp://dbpedia.org/property/commonName
p97
aVhttp://dbpedia.org/property/upperHouse
p98
aVhttp://dbpedia.org/property/available
p99
aVhttp://dbpedia.org/property/lowerHouse
p100
aVhttp://dbpedia.org/ontology/place
p101
aVhttp://xmlns.com/foaf/0.1/isPrimaryTopicOf
p102
aVhttp://dbpedia.org/property/body
p103
aVhttp://dbpedia.org/property/country
p104
aVhttp://dbpedia.org/ontology/wikiPageDisambiguates
p105
aVhttp://dbpedia.org/property/callingCode
p106
aVhttp://dbpedia.org/property/areaServed
p107
aVhttp://dbpedia.org/ontology/county
p108
aVhttp://xmlns.com/foaf/0.1/primaryTopic
p109
aVhttp://purl.org/dc/terms/subject
p110
aVhttp://dbpedia.org/property/ideology
p111
aVhttp://dbpedia.org/ontology/abstract
p112
aVhttp://xmlns.com/foaf/0.1/depiction
p113
aVhttp://dbpedia.org/property/deathPlace
p114
aVhttp://dbpedia.org/property/location
p115
aVhttp://dbpedia.org/property/armiger
p116
aVhttp://dbpedia.org/ontology/locationCountry
p117
aVhttp://dbpedia.org/ontology/nationalAffiliation
p118
aVhttp://dbpedia.org/ontology/deathPlace
p119
aVhttp://dbpedia.org/property/hasPhotoCollection
p120
aVhttp://www.w3.org/2000/01/rdf-schema#label
p121
aVhttp://dbpedia.org/property/subdivisionName
p122
aVhttp://dbpedia.org/ontology/location
p123
aVhttp://dbpedia.org/property/countriesAffected
p124
aVhttp://dbpedia.org/property/imageMap
p125
aVhttp://dbpedia.org/property/headquarters
p126
aVhttp://dbpedia.org/property/residence
p127
aVhttp://dbpedia.org/property/countryName
p128
aVhttp://dbpedia.org/property/leaderTitle
p129
aVhttp://www.w3.org/2000/01/rdf-schema#comment
p130
aVhttp://dbpedia.org/ontology/wikiPageExternalLink
p131
aVhttp://dbpedia.org/ontology/wikiPageRedirects
p132
aVhttp://dbpedia.org/property/area
p133
aVhttp://dbpedia.org/ontology/jurisdiction
p134
aVhttp://dbpedia.org/property/imageFlag
p135
aVhttp://dbpedia.org/property/citizenship
p136
aVhttp://dbpedia.org/property/imageCoat
p137
aVhttp://xmlns.com/foaf/0.1/name
p138
aVhttp://dbpedia.org/ontology/headquarter
p139
aVhttp://dbpedia.org/property/jurisdiction
p140
aVhttp://dbpedia.org/property/through
p141
aVhttp://www.w3.org/2002/07/owl#sameAs
p142
aVhttp://dbpedia.org/ontology/thumbnail
p143
asI3
(lp144
Vhttp://dbpedia.org/property/nationality
p145
aVhttp://dbpedia.org/ontology/abstract
p146
aVhttp://dbpedia.org/property/location
p147
aVhttp://dbpedia.org/ontology/nationality
p148
aVhttp://dbpedia.org/property/birthPlace
p149
aVhttp://dbpedia.org/property/placeOfBirth
p150
aVhttp://dbpedia.org/ontology/stateOfOrigin
p151
aVhttp://dbpedia.org/ontology/birthPlace
p152
asI4
(lp153
Vhttp://dbpedia.org/property/nationality
p154
aVhttp://dbpedia.org/ontology/abstract
p155
aVhttp://dbpedia.org/property/location
p156
aVhttp://dbpedia.org/ontology/nationality
p157
aVhttp://dbpedia.org/property/birthPlace
p158
aVhttp://dbpedia.org/property/placeOfBirth
p159
aVhttp://dbpedia.org/ontology/stateOfOrigin
p160
aVhttp://dbpedia.org/ontology/birthPlace
p161
assI1
(dp162
I0
g72
sI1
(lp163
sI2
(lp164
sI3
(lp165
sI4
(lp166
ssI2
(dp167
I0
g82
sI1
g164
sI2
(lp168
sI3
(lp169
sI4
(lp170
ssI3
(dp171
I0
g144
sI1
g165
sI2
g169
sI3
(lp172
sI4
(lp173
ssI4
(dp174
I0
g153
sI1
g166
sI2
g170
sI4
(lp175
ssa(dp176
I0
(dp177
I0
(lp178
sI1
(lp179
sI2
(lp180
sI3
(lp181
sI4
(lp182
ssI1
(dp183
I0
g179
sI1
(lp184
sI2
(lp185
sI3
(lp186
sI4
(lp187
ssI2
(dp188
I0
g180
sI1
g185
sI2
(lp189
sI3
(lp190
sI4
(lp191
ssI3
(dp192
I0
g181
sI1
g186
sI2
g190
sI3
(lp193
sI4
(lp194
ssI4
(dp195
I0
g182
sI1
g187
sI2
g191
sI3
g194
sI4
(lp196
ssa(dp197
I0
(dp198
I0
(lp199
sI1
(lp200
sI2
(lp201
sI3
(lp202
sI4
(lp203
ssI1
(dp204
I0
g200
sI1
(lp205
sI2
(lp206
sI3
(lp207
sI4
(lp208
ssI2
(dp209
I0
g201
sI1
g206
sI2
(lp210
sI3
(lp211
sI4
(lp212
ssI3
(dp213
I0
g202
sI1
g207
sI2
g211
sI3
(lp214
sI4
(lp215
ssI4
(dp216
I0
g203
sI1
g208
sI2
g212
sI3
g215
sI4
(lp217
ssa(dp218
I0
(dp219
I0
(lp220
sI1
(lp221
Vhttp://dbpedia.org/ontology/abstract
p222
aVhttp://www.w3.org/2000/01/rdf-schema#comment
p223
asI2
(lp224
sI3
(lp225
sI4
(lp226
ssI1
(dp227
I0
g221
sI1
(lp228
sI2
(lp229
sI3
(lp230
sI4
(lp231
ssI2
(dp232
I0
g224
sI1
g229
sI2
(lp233
sI3
(lp234
sI4
(lp235
ssI3
(dp236
I0
g225
sI1
g230
sI2
g234
sI3
(lp237
sI4
(lp238
ssI4
(dp239
I0
g226
sI1
g231
sI2
g235
sI4
(lp240
ssa(dp241
I0
(dp242
I0
(lp243
sI1
(lp244
sI2
(lp245
sI3
(lp246
sI4
(lp247
ssI1
(dp248
I0
g244
sI1
(lp249
sI2
(lp250
sI3
(lp251
sI4
(lp252
ssI2
(dp253
I0
g245
sI1
g250
sI2
(lp254
sI3
(lp255
sI4
(lp256
ssI3
(dp257
I0
g246
sI1
g251
sI2
g255
sI3
(lp258
sI4
(lp259
ssI4
(dp260
I0
g247
sI1
g252
sI2
g256
sI3
g259
sI4
(lp261
ssa(dp262
I0
(dp263
I0
(lp264
sI1
(lp265
sI2
(lp266
sI3
(lp267
sI4
(lp268
ssI1
(dp269
I0
g265
sI1
(lp270
sI2
(lp271
sI3
(lp272
sI4
(lp273
ssI2
(dp274
I0
g266
sI1
g271
sI2
(lp275
sI3
(lp276
sI4
(lp277
ssI3
(dp278
I0
g267
sI1
g272
sI2
g276
sI3
(lp279
sI4
(lp280
ssI4
(dp281
I0
g268
sI1
g273
sI2
g277
sI4
(lp282
ssa(dp283
I0
(dp284
I0
(lp285
sI1
(lp286
sI2
(lp287
sI3
(lp288
sI4
(lp289
ssI1
(dp290
I0
g286
sI1
(lp291
sI2
(lp292
sI3
(lp293
sI4
(lp294
ssI2
(dp295
I0
g287
sI1
g292
sI2
(lp296
sI3
(lp297
sI4
(lp298
ssI3
(dp299
I0
g288
sI1
g293
sI2
g297
sI3
(lp300
sI4
(lp301
ssI4
(dp302
I0
g289
sI1
g294
sI2
g298
sI3
g301
sI4
(lp303
ssa(dp304
I0
(dp305
I0
(lp306
sI1
(lp307
Vhttp://dbpedia.org/property/currencyCode
p308
asI2
(lp309
Vhttp://dbpedia.org/ontology/currency
p310
aVhttp://dbpedia.org/property/currency
p311
asI3
(lp312
sI4
(lp313
ssI1
(dp314
I0
g307
sI1
(lp315
sI2
(lp316
sI3
(lp317
sI4
(lp318
ssI2
(dp319
I0
g309
sI1
g316
sI2
(lp320
sI3
(lp321
sI4
(lp322
ssI3
(dp323
I0
g312
sI1
g317
sI2
g321
sI3
(lp324
sI4
(lp325
ssI4
(dp326
I0
g313
sI1
g318
sI2
g322
sI3
g325
sI4
(lp327
ssa(dp328
I0
(dp329
I0
(lp330
sI1
(lp331
sI2
(lp332
sI3
(lp333
sI4
(lp334
ssI1
(dp335
I0
g331
sI1
(lp336
sI2
(lp337
sI3
(lp338
sI4
(lp339
ssI2
(dp340
I0
g332
sI1
g337
sI2
(lp341
sI3
(lp342
sI4
(lp343
ssI3
(dp344
I0
g333
sI1
g338
sI2
g342
sI3
(lp345
sI4
(lp346
ssI4
(dp347
I0
g334
sI1
g339
sI2
g343
sI3
g346
sI4
(lp348
ssa(dp349
I0
(dp350
I0
(lp351
sI1
(lp352
sI2
(lp353
sI3
(lp354
sI4
(lp355
ssI1
(dp356
I0
g352
sI1
(lp357
sI2
(lp358
sI3
(lp359
sI4
(lp360
ssI2
(dp361
I0
g353
sI1
g358
sI2
(lp362
sI3
(lp363
sI4
(lp364
ssI3
(dp365
I0
g354
sI1
g359
sI2
g363
sI3
(lp366
sI4
(lp367
ssI4
(dp368
I0
g355
sI1
g360
sI2
g364
sI4
(lp369
ssa(dp370
I0
(dp371
I0
(lp372
sI1
(lp373
sI2
(lp374
sI3
(lp375
sI4
(lp376
ssI1
(dp377
I0
g373
sI1
(lp378
sI2
(lp379
sI3
(lp380
sI4
(lp381
ssI2
(dp382
I0
g374
sI1
g379
sI2
(lp383
sI3
(lp384
sI4
(lp385
ssI3
(dp386
I0
g375
sI1
g380
sI2
g384
sI3
(lp387
sI4
(lp388
ssI4
(dp389
I0
g376
sI1
g381
sI2
g385
sI3
g388
sI4
(lp390
ssa(dp391
I0
(dp392
I0
(lp393
sI1
(lp394
sI2
(lp395
sI3
(lp396
sI4
(lp397
ssI1
(dp398
I0
g394
sI1
(lp399
sI2
(lp400
sI3
(lp401
sI4
(lp402
ssI2
(dp403
I0
g395
sI1
g400
sI2
(lp404
sI3
(lp405
sI4
(lp406
ssI3
(dp407
I0
g396
sI1
g401
sI2
g405
sI3
(lp408
sI4
(lp409
ssI4
(dp410
I0
g397
sI1
g402
sI2
g406
sI3
g409
sI4
(lp411
ssa(dp412
I0
(dp413
I0
(lp414
sI1
(lp415
sI2
(lp416
sI3
(lp417
sI4
(lp418
ssI1
(dp419
I0
g415
sI1
(lp420
sI2
(lp421
sI3
(lp422
sI4
(lp423
ssI2
(dp424
I0
g416
sI1
g421
sI2
(lp425
sI3
(lp426
sI4
(lp427
ssI3
(dp428
I0
g417
sI1
g422
sI2
g426
sI3
(lp429
sI4
(lp430
ssI4
(dp431
I0
g418
sI1
g423
sI2
g427
sI3
g430
sI4
(lp432
ssa(dp433
I0
(dp434
I0
(lp435
sI1
(lp436
sI2
(lp437
sI3
(lp438
sI4
(lp439
ssI1
(dp440
I0
g436
sI1
(lp441
sI2
(lp442
sI3
(lp443
sI4
(lp444
ssI2
(dp445
I0
g437
sI1
g442
sI2
(lp446
sI3
(lp447
sI4
(lp448
ssI3
(dp449
I0
g438
sI1
g443
sI2
g447
sI3
(lp450
sI4
(lp451
ssI4
(dp452
I0
g439
sI1
g444
sI2
g448
sI4
(lp453
ssa(dp454
I0
(dp455
I0
(lp456
sI1
(lp457
sI2
(lp458
sI3
(lp459
sI4
(lp460
ssI1
(dp461
I0
g457
sI1
(lp462
sI2
(lp463
sI3
(lp464
sI4
(lp465
ssI2
(dp466
I0
g458
sI1
g463
sI2
(lp467
sI3
(lp468
sI4
(lp469
ssI3
(dp470
I0
g459
sI1
g464
sI2
g468
sI3
(lp471
sI4
(lp472
ssI4
(dp473
I0
g460
sI1
g465
sI2
g469
sI3
g472
sI4
(lp474
ssa(dp475
I0
(dp476
I0
(lp477
sI1
(lp478
sI2
(lp479
sI3
(lp480
sI4
(lp481
ssI1
(dp482
I0
g478
sI1
(lp483
sI2
(lp484
sI3
(lp485
sI4
(lp486
ssI2
(dp487
I0
g479
sI1
g484
sI2
(lp488
sI3
(lp489
sI4
(lp490
ssI3
(dp491
I0
g480
sI1
g485
sI2
g489
sI3
(lp492
sI4
(lp493
ssI4
(dp494
I0
g481
sI1
g486
sI2
g490
sI3
g493
sI4
(lp495
ssa(dp496
I0
(dp497
I0
(lp498
sI1
(lp499
sI2
(lp500
sI3
(lp501
sI4
(lp502
ssI1
(dp503
I0
g499
sI1
(lp504
sI2
(lp505
sI3
(lp506
sI4
(lp507
ssI2
(dp508
I0
g500
sI1
g505
sI2
(lp509
sI3
(lp510
sI4
(lp511
ssI3
(dp512
I0
g501
sI1
g506
sI2
g510
sI3
(lp513
sI4
(lp514
ssI4
(dp515
I0
g502
sI1
g507
sI2
g511
sI4
(lp516
ssa(dp517
I0
(dp518
I0
(lp519
sI1
(lp520
sI2
(lp521
sI3
(lp522
sI4
(lp523
ssI1
(dp524
I0
g520
sI1
(lp525
sI2
(lp526
sI3
(lp527
sI4
(lp528
ssI2
(dp529
I0
g521
sI1
g526
sI2
(lp530
sI3
(lp531
sI4
(lp532
ssI3
(dp533
I0
g522
sI1
g527
sI2
g531
sI3
(lp534
sI4
(lp535
ssI4
(dp536
I0
g523
sI1
g528
sI2
g532
sI3
g535
sI4
(lp537
ssa(dp538
I0
(dp539
I0
(lp540
sI1
(lp541
sI2
(lp542
sI3
(lp543
sI4
(lp544
ssI1
(dp545
I0
g541
sI1
(lp546
sI2
(lp547
sI3
(lp548
sI4
(lp549
ssI2
(dp550
I0
g542
sI1
g547
sI2
(lp551
sI3
(lp552
sI4
(lp553
ssI3
(dp554
I0
g543
sI1
g548
sI2
g552
sI3
(lp555
sI4
(lp556
ssI4
(dp557
I0
g544
sI1
g549
sI2
g553
sI3
g556
sI4
(lp558
ssa.