(lp1
(lp2
(lp3
a(lp4
aa(lp5
(lp6
((lp7
Vhttp://dbpedia.org/class/yago/Abstraction100002137
p8
aVhttp://dbpedia.org/class/yago/Ratio113819207
p9
aVhttp://dbpedia.org/class/yago/Relation100031921
p10
aVhttp://dbpedia.org/class/yago/EngineeringRatios
p11
aVhttp://dbpedia.org/class/yago/MagnitudeRelation113815152
p12
aVhttp://dbpedia.org/resource/Power-to-weight_ratio
p13
tp14
aa(lp15
aa(lp16
(lp17
a(lp18
aa(lp19
(lp20
a(lp21
aa(lp22
(lp23
a(lp24
aa(lp25
(lp26
a(lp27
aa(lp28
(lp29
a(lp30
aa.