(lp1
(lp2
a(lp3
a(lp4
a(lp5
a(lp6
a(lp7
(dp8
Vstart
p9
I0
sS'classes'
p10
(lp11
Vhttp://umbel.org/umbel/rc/Magazine
p12
aVhttp://dbpedia.org/class/yago/Artifact100021939
p13
aVhttp://dbpedia.org/class/yago/Creation103129123
p14
aVhttp://dbpedia.org/class/yago/Magazine106595351
p15
aVhttp://dbpedia.org/class/yago/Medium106254669
p16
aVhttp://dbpedia.org/class/yago/Object100002684
p17
aVhttp://dbpedia.org/class/yago/Product104007894
p18
aVhttp://dbpedia.org/class/yago/Publication106589574
p19
aVhttp://dbpedia.org/class/yago/Whole100003553
p20
aVhttp://dbpedia.org/class/yago/Instrumentality103575240
p21
aVhttp://dbpedia.org/class/yago/PhysicalEntity100001930
p22
aVhttp://dbpedia.org/class/yago/Press106263369
p23
aVhttp://dbpedia.org/class/yago/Work104599396
p24
aVhttp://dbpedia.org/class/yago/PrintMedia106263609
p25
aVhttp://dbpedia.org/class/yago/MonthlyMagazines
p26
aVhttp://dbpedia.org/class/yago/PublicationsEstablishedIn1995
p27
asVdisambiguatedURL
p28
Vhttp://dbpedia.org/resource/Liahona_(magazine)
p29
sVnamedEntity
p30
VTambuli
p31
sVoffset
p32
I7
saa(lp33
a(lp34
a.