(lp1
(lp2
(dp3
Vstart
p4
I0
sVdisambiguatedURL
p5
NsVnamedEntity
p6
VMactan Is.
p7
sVoffset
p8
I10
saa(lp9
(dp10
Vstart
p11
I0
sVdisambiguatedURL
p12
NsVnamedEntity
p13
VHilutungan Is
p14
sVoffset
p15
I13
saa(lp16
(dp17
Vstart
p18
I0
sVdisambiguatedURL
p19
NsVnamedEntity
p20
VNalusuanIs.
p21
sVoffset
p22
I11
saa(lp23
(dp24
Vstart
p25
I0
sVdisambiguatedURL
p26
NsVnamedEntity
p27
VTalima Is.
p28
sVoffset
p29
I10
saa(lp30
(dp31
Vstart
p32
I0
sVdisambiguatedURL
p33
Vhttp://dbpedia.org/resource/Tingo_District
p34
sVnamedEntity
p35
VTingo
p36
sVoffset
p37
I5
saa(lp38
(dp39
Vstart
p40
I0
sVdisambiguatedURL
p41
Vhttp://dbpedia.org/resource/Liahona_(magazine)
p42
sVnamedEntity
p43
VTambuli
p44
sVoffset
p45
I7
saa(lp46
(dp47
Vstart
p48
I0
sVdisambiguatedURL
p49
NsVnamedEntity
p50
VMarigondon
p51
sVoffset
p52
I10
saa(lp53
(dp54
Vstart
p55
I0
sVdisambiguatedURL
p56
NsVnamedEntity
p57
V()Cabilao Is.
p58
sVoffset
p59
I13
saa.