(lp1
(lp2
(dp3
Vstart
p4
I0
sVdisambiguatedURL
p5
NsVnamedEntity
p6
Vaverage temperatureover 51 years
p7
sVoffset
p8
I32
saa(lp9
(dp10
Vstart
p11
I0
sVdisambiguatedURL
p12
NsVnamedEntity
p13
Vaverage high temperatureover 51 years
p14
sVoffset
p15
I37
saa(lp16
(dp17
Vstart
p18
I0
sVdisambiguatedURL
p19
NsVnamedEntity
p20
Vaverage low temperatureover 51 years
p21
sVoffset
p22
I36
saa(lp23
(dp24
Vstart
p25
I0
sVdisambiguatedURL
p26
NsVnamedEntity
p27
Vaverage precipitationover 51 years
p28
sVoffset
p29
I34
saa(lp30
(dp31
Vstart
p32
I0
sVdisambiguatedURL
p33
NsVnamedEntity
p34
Vaverage snowfallover 51 years
p35
sVoffset
p36
I29
saa(lp37
(dp38
Vstart
p39
I0
sVdisambiguatedURL
p40
NsVnamedEntity
p41
Vaverage snow coverover 51 years
p42
sVoffset
p43
I31
saa(lp44
(dp45
Vstart
p46
I0
sVdisambiguatedURL
p47
NsVnamedEntity
p48
Vheating degree daysover 30 years
p49
sVoffset
p50
I32
saa(lp51
(dp52
Vstart
p53
I0
sVdisambiguatedURL
p54
NsVnamedEntity
p55
Vcooling degree daysover 30 years
p56
sVoffset
p57
I32
saa.