(lp1
(lp2
(lp3
((lVhttp://dbpedia.org/resource/Null
tp4
aa(lp5
a(lp6
a(lp7
aa(lp8
(lp9
((lVhttp://dbpedia.org/resource/Null
tp10
aa(lp11
a(lp12
a(lp13
aa(lp14
(lp15
((lVhttp://dbpedia.org/resource/Null
p16
tp17
aa(lp18
a(lp19
a(lp20
aa.