(lp1
(lp2
(lp3
a(lp4
a(lp5
a(lp6
a(lp7
a(lp8
aa(lp9
(lp10
a(lp11
a(lp12
a(lp13
a(lp14
a(lp15
((lp16
Vhttp://dbpedia.org/class/yago/Artifact100021939
p17
aVhttp://dbpedia.org/class/yago/Bath102806530
p18
aVhttp://dbpedia.org/class/yago/Container103094503
p19
aVhttp://dbpedia.org/class/yago/Object100002684
p20
aVhttp://dbpedia.org/class/yago/Vessel104531098
p21
aVhttp://dbpedia.org/class/yago/Whole100003553
p22
aVhttp://dbpedia.org/class/yago/Instrumentality103575240
p23
aVhttp://dbpedia.org/class/yago/PhysicalEntity100001930
p24
aVhttp://dbpedia.org/class/yago/PublicBaths
p25
aVhttp://dbpedia.org/resource/Public_bathing
tp26
aaa(lp27
(lp28
a(lp29
a(lp30
a(lp31
a(lp32
a(lp33
((lp34
Vhttp://dbpedia.org/class/yago/Artifact100021939
p35
aVhttp://dbpedia.org/class/yago/Bath102806530
p36
aVhttp://dbpedia.org/class/yago/Container103094503
p37
aVhttp://dbpedia.org/class/yago/Object100002684
p38
aVhttp://dbpedia.org/class/yago/Vessel104531098
p39
aVhttp://dbpedia.org/class/yago/Whole100003553
p40
aVhttp://dbpedia.org/class/yago/Instrumentality103575240
p41
aVhttp://dbpedia.org/class/yago/PhysicalEntity100001930
p42
aVhttp://dbpedia.org/class/yago/PublicBaths
p43
aVhttp://dbpedia.org/resource/Public_bathing
tp44
aaa(lp45
(lp46
a(lp47
a(lp48
a(lp49
a(lp50
a(lp51
((lp52
Vhttp://dbpedia.org/class/yago/Artifact100021939
p53
aVhttp://dbpedia.org/class/yago/Bath102806530
p54
aVhttp://dbpedia.org/class/yago/Container103094503
p55
aVhttp://dbpedia.org/class/yago/Object100002684
p56
aVhttp://dbpedia.org/class/yago/Vessel104531098
p57
aVhttp://dbpedia.org/class/yago/Whole100003553
p58
aVhttp://dbpedia.org/class/yago/Instrumentality103575240
p59
aVhttp://dbpedia.org/class/yago/PhysicalEntity100001930
p60
aVhttp://dbpedia.org/class/yago/PublicBaths
p61
aVhttp://dbpedia.org/resource/Public_bathing
tp62
aaa(lp63
(lp64
a(lp65
a(lp66
a(lp67
a(lp68
a(lp69
((lp70
Vhttp://dbpedia.org/class/yago/Artifact100021939
p71
aVhttp://dbpedia.org/class/yago/Bath102806530
p72
aVhttp://dbpedia.org/class/yago/Container103094503
p73
aVhttp://dbpedia.org/class/yago/Object100002684
p74
aVhttp://dbpedia.org/class/yago/Vessel104531098
p75
aVhttp://dbpedia.org/class/yago/Whole100003553
p76
aVhttp://dbpedia.org/class/yago/Instrumentality103575240
p77
aVhttp://dbpedia.org/class/yago/PhysicalEntity100001930
p78
aVhttp://dbpedia.org/class/yago/PublicBaths
p79
aVhttp://dbpedia.org/resource/Public_bathing
p80
tp81
aaa(lp82
(lp83
a(lp84
a(lp85
a(lp86
a(lp87
a(lp88
aa(lp89
(lp90
a(lp91
a(lp92
a(lp93
a(lp94
a(lp95
aa.