(lp1
(lp2
(lp3
a(lp4
a(lp5
a(lp6
a(lp7
a(lp8
a(lp9
a(lp10
a(lp11
a(lp12
a(lp13
Vhttp://dbpedia.org/resource/Data_rate_units
p14
aa(lp15
aa(lp16
(lp17
a(lp18
a(lp19
a(lp20
Vhttp://dbpedia.org/resource/Null
p21
aa(lp22
Vhttp://dbpedia.org/resource/Null
p23
aa(lp24
Vhttp://dbpedia.org/resource/Null
p25
aa(lp26
Vhttp://dbpedia.org/resource/Null
p27
aa(lp28
Vhttp://dbpedia.org/resource/Null
p29
aa(lp30
a(lp31
a(lp32
Vhttp://dbpedia.org/resource/Data_rate_units
p33
aa(lp34
aa(lp35
(lp36
a(lp37
a(lp38
a(lp39
a(lp40
a(lp41
Vhttp://dbpedia.org/resource/Null
p42
aa(lp43
a(lp44
Vhttp://dbpedia.org/resource/Null
p45
aa(lp46
a(lp47
a(lp48
Vhttp://dbpedia.org/resource/Data_rate_units
p49
aa(lp50
aa(lp51
(lp52
a(lp53
a(lp54
a(lp55
a(lp56
a(lp57
Vhttp://dbpedia.org/resource/Null
p58
aa(lp59
a(lp60
Vhttp://dbpedia.org/resource/Null
p61
aa(lp62
a(lp63
a(lp64
Vhttp://dbpedia.org/resource/Data_rate_units
p65
aa(lp66
aa(lp67
(lp68
a(lp69
a(lp70
a(lp71
a(lp72
a(lp73
Vhttp://dbpedia.org/resource/Null
p74
aa(lp75
a(lp76
Vhttp://dbpedia.org/resource/Null
p77
aa(lp78
a(lp79
a(lp80
Vhttp://dbpedia.org/resource/Data_rate_units
p81
aa(lp82
aa(lp83
(lp84
a(lp85
a(lp86
a(lp87
a(lp88
a(lp89
Vhttp://dbpedia.org/resource/Null
p90
aa(lp91
a(lp92
Vhttp://dbpedia.org/resource/Null
p93
aa(lp94
a(lp95
a(lp96
Vhttp://dbpedia.org/resource/Data_rate_units
p97
aa(lp98
aa(lp99
(lp100
a(lp101
a(lp102
a(lp103
a(lp104
a(lp105
Vhttp://dbpedia.org/resource/Null
p106
aa(lp107
a(lp108
Vhttp://dbpedia.org/resource/Null
p109
aa(lp110
a(lp111
a(lp112
Vhttp://dbpedia.org/resource/Data_rate_units
p113
aa(lp114
aa(lp115
(lp116
a(lp117
a(lp118
a(lp119
a(lp120
a(lp121
Vhttp://dbpedia.org/resource/Null
p122
aa(lp123
a(lp124
Vhttp://dbpedia.org/resource/Null
p125
aa(lp126
a(lp127
a(lp128
Vhttp://dbpedia.org/resource/Data_rate_units
p129
aa(lp130
aa(lp131
(lp132
a(lp133
a(lp134
a(lp135
Vhttp://dbpedia.org/resource/Null
p136
aa(lp137
Vhttp://dbpedia.org/resource/Null
p138
aa(lp139
Vhttp://dbpedia.org/resource/Null
p140
aa(lp141
Vhttp://dbpedia.org/resource/Null
p142
aa(lp143
Vhttp://dbpedia.org/resource/Null
p144
aa(lp145
a(lp146
a(lp147
Vhttp://dbpedia.org/resource/Data_rate_units
p148
aa(lp149
aa(lp150
(lp151
a(lp152
a(lp153
a(lp154
Vhttp://dbpedia.org/resource/Null
p155
aa(lp156
Vhttp://dbpedia.org/resource/Null
p157
aa(lp158
Vhttp://dbpedia.org/resource/Null
p159
aa(lp160
Vhttp://dbpedia.org/resource/Null
p161
aa(lp162
Vhttp://dbpedia.org/resource/Null
p163
aa(lp164
a(lp165
a(lp166
Vhttp://dbpedia.org/resource/Data_rate_units
p167
aa(lp168
aa(lp169
(lp170
Vhttp://dbpedia.org/resource/Null
p171
aa(lp172
Vhttp://dbpedia.org/resource/Null
p173
aa(lp174
Vhttp://dbpedia.org/resource/Null
p175
aa(lp176
Vhttp://dbpedia.org/resource/Null
p177
aa(lp178
Vhttp://dbpedia.org/resource/Null
p179
aa(lp180
Vhttp://dbpedia.org/resource/Null
p181
aa(lp182
Vhttp://dbpedia.org/resource/Null
p183
aa(lp184
Vhttp://dbpedia.org/resource/Null
p185
aa(lp186
Vhttp://dbpedia.org/resource/Null
p187
aa(lp188
Vhttp://dbpedia.org/resource/Null
p189
aa(lp190
Vhttp://dbpedia.org/resource/Null
p191
aa(lp192
Vhttp://dbpedia.org/resource/Null
p193
aaa.