(lp1
(lp2
(dp3
Vstart
p4
I0
sVdisambiguatedURL
p5
Vhttp://dbpedia.org/resource/Bathroom
p6
sVnamedEntity
p7
VBathrooms:
p8
sVoffset
p9
I10
saa(lp10
(dp11
Vstart
p12
I0
sVdisambiguatedURL
p13
Vhttp://dbpedia.org/resource/Sleep
p14
sVnamedEntity
p15
VSleeps:
p16
sVoffset
p17
I7
saa(lp18
(dp19
Vstart
p20
I0
sVdisambiguatedURL
p21
Vhttp://dbpedia.org/resource/Story
p22
sVnamedEntity
p23
VStories:
p24
sVoffset
p25
I8
saa(lp26
(dp27
Vstart
p28
I0
sVdisambiguatedURL
p29
Vhttp://dbpedia.org/resource/Parking_space
p30
sVnamedEntity
p31
VParking Spaces:
p32
sVoffset
p33
I15
saa.