(lp1
(lp2
(dp3
Vstart
p4
I0
sVdisambiguatedURL
p5
Vhttp://dbpedia.org/resource/0_(year)
p6
sVnamedEntity
p7
VYear 1
p8
sVoffset
p9
I6
saa(lp10
(dp11
Vstart
p12
I0
sVdisambiguatedURL
p13
NsVnamedEntity
p14
VYear 2 -- Composition
p15
sVoffset
p16
I21
saa(lp17
(dp18
Vstart
p19
I0
sVdisambiguatedURL
p20
NsVnamedEntity
p21
VYear 2 -- General
p22
sVoffset
p23
I17
saa(lp24
(dp25
Vstart
p26
I0
sVdisambiguatedURL
p27
NsVnamedEntity
p28
VYear 2 -- Performance
p29
sVoffset
p30
I21
saa.