(lp1
(lp2
(lp3
a(lp4
a(lp5
a(lp6
a(lp7
aa(lp8
(lp9
a(lp10
a(lp11
a(lp12
a(lp13
aa(lp14
(lp15
a(lp16
a(lp17
a(lp18
a(lp19
aa(lp20
(lp21
a(lp22
a(lp23
a(lp24
((lVhttp://dbpedia.org/resource/Na
tp25
aa(lp26
aa(lp27
(lp28
a(lp29
a(lp30
a(lp31
((lVhttp://dbpedia.org/resource/Na
tp32
aa(lp33
aa(lp34
(lp35
a(lp36
a(lp37
a(lp38
((lVhttp://dbpedia.org/resource/Na
tp39
aa(lp40
aa(lp41
(lp42
a(lp43
a(lp44
a(lp45
((lVhttp://dbpedia.org/resource/Na
tp46
aa(lp47
aa(lp48
(lp49
a(lp50
a(lp51
a(lp52
((lVhttp://dbpedia.org/resource/Na
tp53
aa(lp54
aa(lp55
(lp56
a(lp57
a(lp58
a(lp59
((lVhttp://dbpedia.org/resource/Na
tp60
aa(lp61
aa(lp62
(lp63
a(lp64
a(lp65
a(lp66
((lVhttp://dbpedia.org/resource/Na
p67
tp68
aa(lp69
aa.