(lp1
(lp2
(dp3
Vstart
p4
I0
sVdisambiguatedURL
p5
Vhttp://dbpedia.org/resource/June_30
p6
sVnamedEntity
p7
VJuly 8
p8
sVoffset
p9
I6
saa(lp10
(dp11
Vstart
p12
I0
sVdisambiguatedURL
p13
Vhttp://dbpedia.org/resource/July_1_(Eastern_Orthodox_liturgics)
p14
sVnamedEntity
p15
VJuly 15
p16
sVoffset
p17
I7
saa(lp18
(dp19
Vstart
p20
I0
sVdisambiguatedURL
p21
Vhttp://dbpedia.org/resource/July_12_(Eastern_Orthodox_liturgics)
p22
sVnamedEntity
p23
VJuly 22
p24
sVoffset
p25
I7
saa(lp26
(dp27
Vstart
p28
I0
sVdisambiguatedURL
p29
Vhttp://dbpedia.org/resource/August_1
p30
sVnamedEntity
p31
VAugust 5
p32
sVoffset
p33
I8
saa(lp34
(dp35
Vstart
p36
I0
sVdisambiguatedURL
p37
Vhttp://dbpedia.org/resource/August_1
p38
sVnamedEntity
p39
VAugust 19
p40
sVoffset
p41
I9
saa(lp42
(dp43
Vstart
p44
I0
sVdisambiguatedURL
p45
Vhttp://dbpedia.org/resource/August_1
p46
sVnamedEntity
p47
VAugust 26
p48
sVoffset
p49
I9
saa(lp50
(dp51
Vstart
p52
I0
sVdisambiguatedURL
p53
Vhttp://dbpedia.org/resource/August_31
p54
sVnamedEntity
p55
VSeptember 9
p56
sVoffset
p57
I11
saa(lp58
(dp59
Vstart
p60
I0
sVdisambiguatedURL
p61
Vhttp://dbpedia.org/resource/September_1913_(poem)
p62
sVnamedEntity
p63
VSeptember 16
p64
sVoffset
p65
I12
saa.