(lp1
(lp2
a(lp3
(dp4
Vstart
p5
I0
sS'classes'
p6
(lp7
Vhttp://www.w3.org/2002/07/owl#Thing
p8
aVhttp://dbpedia.org/ontology/Company
p9
aVhttp://www.ontologydesignpatterns.org/ont/dul/DUL.owl#Agent
p10
aVhttp://www.ontologydesignpatterns.org/ont/dul/DUL.owl#SocialPerson
p11
aVhttp://www.wikidata.org/entity/Q43229
p12
aVhttp://dbpedia.org/ontology/Agent
p13
aVhttp://dbpedia.org/ontology/Organisation
p14
aVhttp://schema.org/Organization
p15
aVhttp://dbpedia.org/class/yago/Abstraction100002137
p16
aVhttp://dbpedia.org/class/yago/Company108058098
p17
aVhttp://dbpedia.org/class/yago/Group100031264
p18
aVhttp://dbpedia.org/class/yago/Institution108053576
p19
aVhttp://dbpedia.org/class/yago/Organization108008335
p20
aVhttp://dbpedia.org/class/yago/SocialGroup107950920
p21
aVhttp://dbpedia.org/class/yago/Utility108185758
p22
aVhttp://dbpedia.org/class/yago/YagoLegalActorGeo
p23
aVhttp://dbpedia.org/class/yago/CompaniesEstablishedIn2008
p24
aVhttp://dbpedia.org/class/yago/PowerCompany108186393
p25
aVhttp://dbpedia.org/class/yago/YagoPermanentlyLocatedEntity
p26
aVhttp://dbpedia.org/class/yago/GasCompany108186655
p27
aVhttp://dbpedia.org/class/yago/NaturalGasCompaniesOfFrance
p28
aVhttp://dbpedia.org/class/yago/NaturalGasPipelineCompanies
p29
aVhttp://dbpedia.org/class/yago/PipelineCompany108069487
p30
aVhttp://dbpedia.org/class/yago/YagoLegalActor
p31
aVhttp://dbpedia.org/class/yago/PowerCompaniesOfFrance
p32
aVhttp://dbpedia.org/class/yago/Service108186047
p33
asVdisambiguatedURL
p34
Vhttp://dbpedia.org/resource/GDF_Suez
p35
sVnamedEntity
p36
VGDF Suez
p37
sVoffset
p38
I8
saa(lp39
(dp40
Vstart
p41
I0
sg6
(lp42
Vhttp://www.w3.org/2002/07/owl#Thing
p43
aVhttp://dbpedia.org/ontology/Company
p44
aVhttp://www.ontologydesignpatterns.org/ont/dul/DUL.owl#Agent
p45
aVhttp://www.ontologydesignpatterns.org/ont/dul/DUL.owl#SocialPerson
p46
aVhttp://www.wikidata.org/entity/Q43229
p47
aVhttp://dbpedia.org/ontology/Agent
p48
aVhttp://dbpedia.org/ontology/Organisation
p49
aVhttp://schema.org/Organization
p50
aVhttp://umbel.org/umbel/rc/Business
p51
aVhttp://umbel.org/umbel/rc/Organization
p52
aVhttp://dbpedia.org/class/yago/Abstraction100002137
p53
aVhttp://dbpedia.org/class/yago/Company108058098
p54
aVhttp://dbpedia.org/class/yago/Group100031264
p55
aVhttp://dbpedia.org/class/yago/Institution108053576
p56
aVhttp://dbpedia.org/class/yago/Organization108008335
p57
aVhttp://dbpedia.org/class/yago/SocialGroup107950920
p58
aVhttp://dbpedia.org/class/yago/Utility108185758
p59
aVhttp://dbpedia.org/class/yago/YagoLegalActorGeo
p60
aVhttp://dbpedia.org/class/yago/CompaniesBasedInD%C3%BCsseldorf
p61
aVhttp://dbpedia.org/class/yago/CompaniesEstablishedIn2000
p62
aVhttp://dbpedia.org/class/yago/PowerCompany108186393
p63
aVhttp://dbpedia.org/class/yago/YagoPermanentlyLocatedEntity
p64
aVhttp://dbpedia.org/class/yago/GasCompany108186655
p65
aVhttp://dbpedia.org/class/yago/NaturalGasCompaniesOfGermany
p66
aVhttp://dbpedia.org/class/yago/NuclearPowerCompanies
p67
aVhttp://dbpedia.org/class/yago/YagoLegalActor
p68
aVhttp://dbpedia.org/class/yago/PowerCompaniesOfGermany
p69
aVhttp://dbpedia.org/class/yago/PublicUtilities
p70
aVhttp://dbpedia.org/class/yago/Service108186047
p71
asVdisambiguatedURL
p72
Vhttp://dbpedia.org/resource/E.ON
p73
sVnamedEntity
p74
VE.ON
p75
sVoffset
p76
I4
saa(lp77
(dp78
Vstart
p79
I0
sg6
(lp80
Vhttp://www.w3.org/2002/07/owl#Thing
p81
aVhttp://dbpedia.org/ontology/Company
p82
aVhttp://www.ontologydesignpatterns.org/ont/dul/DUL.owl#Agent
p83
aVhttp://www.ontologydesignpatterns.org/ont/dul/DUL.owl#SocialPerson
p84
aVhttp://www.wikidata.org/entity/Q43229
p85
aVhttp://dbpedia.org/ontology/Agent
p86
aVhttp://dbpedia.org/ontology/Organisation
p87
aVhttp://schema.org/Organization
p88
aVhttp://dbpedia.org/class/yago/Abstraction100002137
p89
aVhttp://dbpedia.org/class/yago/Company108058098
p90
aVhttp://dbpedia.org/class/yago/Group100031264
p91
aVhttp://dbpedia.org/class/yago/Institution108053576
p92
aVhttp://dbpedia.org/class/yago/Organization108008335
p93
aVhttp://dbpedia.org/class/yago/SocialGroup107950920
p94
aVhttp://dbpedia.org/class/yago/Utility108185758
p95
aVhttp://dbpedia.org/class/yago/YagoLegalActorGeo
p96
aVhttp://dbpedia.org/class/yago/CompaniesEstablishedIn1998
p97
aVhttp://dbpedia.org/class/yago/CompaniesListedOnTheLondonStockExchange
p98
aVhttp://dbpedia.org/class/yago/CompaniesOfScotland
p99
aVhttp://dbpedia.org/class/yago/PowerCompany108186393
p100
aVhttp://dbpedia.org/class/yago/YagoPermanentlyLocatedEntity
p101
aVhttp://dbpedia.org/class/yago/OrganisationsBasedInPerthAndKinross
p102
aVhttp://dbpedia.org/class/yago/YagoLegalActor
p103
aVhttp://dbpedia.org/class/yago/PowerCompaniesOfTheUnitedKingdom
p104
aVhttp://dbpedia.org/class/yago/Service108186047
p105
aVhttp://dbpedia.org/class/yago/UtilitiesOfTheUnitedKingdom
p106
aVhttp://dbpedia.org/class/yago/WindPowerCompaniesOfTheUnitedKingdom
p107
asVdisambiguatedURL
p108
Vhttp://dbpedia.org/resource/SSE_plc
p109
sVnamedEntity
p110
VScottish and Southern Energy
p111
sVoffset
p112
I28
saa(lp113
(dp114
Vstart
p115
I0
sg6
(lp116
Vhttp://www.w3.org/2002/07/owl#Thing
p117
aVhttp://dbpedia.org/ontology/Company
p118
aVhttp://www.ontologydesignpatterns.org/ont/dul/DUL.owl#Agent
p119
aVhttp://www.ontologydesignpatterns.org/ont/dul/DUL.owl#SocialPerson
p120
aVhttp://www.wikidata.org/entity/Q43229
p121
aVhttp://dbpedia.org/ontology/Agent
p122
aVhttp://dbpedia.org/ontology/Organisation
p123
aVhttp://schema.org/Organization
p124
aVhttp://umbel.org/umbel/rc/Business
p125
aVhttp://umbel.org/umbel/rc/Organization
p126
aVhttp://dbpedia.org/class/yago/Abstraction100002137
p127
aVhttp://dbpedia.org/class/yago/Company108058098
p128
aVhttp://dbpedia.org/class/yago/Group100031264
p129
aVhttp://dbpedia.org/class/yago/Institution108053576
p130
aVhttp://dbpedia.org/class/yago/Organization108008335
p131
aVhttp://dbpedia.org/class/yago/SocialGroup107950920
p132
aVhttp://dbpedia.org/class/yago/Utility108185758
p133
aVhttp://dbpedia.org/class/yago/YagoLegalActorGeo
p134
aVhttp://dbpedia.org/class/yago/CompaniesBasedInEssen
p135
aVhttp://dbpedia.org/class/yago/CompaniesListedOnTheFrankfurtStockExchange
p136
aVhttp://dbpedia.org/class/yago/PowerCompany108186393
p137
aVhttp://dbpedia.org/class/yago/YagoPermanentlyLocatedEntity
p138
aVhttp://dbpedia.org/class/yago/NuclearPowerCompanies
p139
aVhttp://dbpedia.org/class/yago/YagoLegalActor
p140
aVhttp://dbpedia.org/class/yago/PowerCompaniesOfGermany
p141
aVhttp://dbpedia.org/class/yago/PublicUtilities
p142
aVhttp://dbpedia.org/class/yago/Service108186047
p143
asVdisambiguatedURL
p144
Vhttp://dbpedia.org/resource/RWE
p145
sVnamedEntity
p146
VRWE AG
p147
sVoffset
p148
I6
saa.