(lp1
(lp2
(lp3
Vhttp://dbpedia.org/resource/Australia
p4
aa(lp5
a(lp6
a(lp7
Vhttp://dbpedia.org/resource/English,_Indiana
p8
aa(lp9
aa(lp10
(lp11
Vhttp://dbpedia.org/resource/China
p12
aa(lp13
a(lp14
a(lp15
a(lp16
aa(lp17
(lp18
Vhttp://dbpedia.org/resource/Hong_Kong
p19
aa(lp20
a(lp21
a(lp22
a(lp23
aa(lp24
(lp25
Vhttp://dbpedia.org/resource/India
p26
aa(lp27
a(lp28
a(lp29
Vhttp://dbpedia.org/resource/English,_Indiana
p30
aa(lp31
aa(lp32
(lp33
Vhttp://dbpedia.org/resource/Indonesia
p34
aa(lp35
a(lp36
a(lp37
Vhttp://dbpedia.org/resource/English,_Indiana
p38
aa(lp39
aa(lp40
(lp41
Vhttp://dbpedia.org/resource/Japan
p42
aa(lp43
a(lp44
a(lp45
Vhttp://dbpedia.org/resource/Japonic_languages
p46
aa(lp47
aa(lp48
(lp49
Vhttp://dbpedia.org/resource/South_Korea
p50
aa(lp51
a(lp52
a(lp53
a(lp54
aa(lp55
(lp56
Vhttp://dbpedia.org/resource/Malaysia
p57
aa(lp58
a(lp59
a(lp60
a(lp61
aa(lp62
(lp63
Vhttp://dbpedia.org/resource/New_Zealand
p64
aa(lp65
a(lp66
a(lp67
Vhttp://dbpedia.org/resource/English,_Indiana
p68
aa(lp69
aa(lp70
(lp71
Vhttp://dbpedia.org/resource/Philippines
p72
aa(lp73
a(lp74
a(lp75
Vhttp://dbpedia.org/resource/English,_Indiana
p76
aa(lp77
aa(lp78
(lp79
Vhttp://dbpedia.org/resource/Singapore
p80
aa(lp81
a(lp82
a(lp83
a(lp84
aa(lp85
(lp86
a(lp87
a(lp88
a(lp89
a(lp90
aa(lp91
(lp92
Vhttp://dbpedia.org/resource/Thailand
p93
aa(lp94
a(lp95
a(lp96
Vhttp://dbpedia.org/resource/English,_Indiana
p97
aa(lp98
aa(lp99
(lp100
Vhttp://dbpedia.org/resource/Vietnam
p101
aa(lp102
a(lp103
a(lp104
Vhttp://dbpedia.org/resource/English,_Indiana
p105
aa(lp106
aa.