(lp1
(lp2
(lp3
a(lp4
a(lp5
aa(lp6
(lp7
((lVhttp://dbpedia.org/resource/Danish_(name)
tp8
aa(lp9
((lVhttp://dbpedia.org/resource/Danish_(name)
tp10
aa(lp11
aa(lp12
(lp13
((lp14
Vhttp://www.w3.org/2002/07/owl#Thing
p15
aVhttp://xmlns.com/foaf/0.1/Person
p16
aVhttp://dbpedia.org/ontology/Person
p17
aVhttp://www.ontologydesignpatterns.org/ont/dul/DUL.owl#Agent
p18
aVhttp://www.ontologydesignpatterns.org/ont/dul/DUL.owl#NaturalPerson
p19
aVhttp://www.wikidata.org/entity/Q215627
p20
aVhttp://www.wikidata.org/entity/Q5
p21
aVhttp://dbpedia.org/ontology/Agent
p22
aVhttp://dbpedia.org/ontology/Athlete
p23
aVhttp://dbpedia.org/ontology/PokerPlayer
p24
aVhttp://schema.org/Person
p25
aVhttp://umbel.org/umbel/rc/PersonWithOccupation
p26
aVhttp://dbpedia.org/class/yago/AmericanPokerPlayers
p27
aVhttp://dbpedia.org/class/yago/CausalAgent100007347
p28
aVhttp://dbpedia.org/class/yago/Contestant109613191
p29
aVhttp://dbpedia.org/class/yago/LivingThing100004258
p30
aVhttp://dbpedia.org/class/yago/Object100002684
p31
aVhttp://dbpedia.org/class/yago/Organism100004475
p32
aVhttp://dbpedia.org/class/yago/Person100007846
p33
aVhttp://dbpedia.org/class/yago/Player110439851
p34
aVhttp://dbpedia.org/class/yago/Whole100003553
p35
aVhttp://dbpedia.org/class/yago/YagoLegalActorGeo
p36
aVhttp://dbpedia.org/class/yago/PhysicalEntity100001930
p37
aVhttp://dbpedia.org/class/yago/LivingPeople
p38
aVhttp://dbpedia.org/class/yago/PeopleWithBipolarDisorder
p39
aVhttp://dbpedia.org/class/yago/YagoLegalActor
p40
aVhttp://dbpedia.org/resource/Dutch_Boyd
tp41
aa(lp42
((lp43
Vhttp://www.w3.org/2002/07/owl#Thing
p44
aVhttp://xmlns.com/foaf/0.1/Person
p45
aVhttp://dbpedia.org/ontology/Person
p46
aVhttp://www.ontologydesignpatterns.org/ont/dul/DUL.owl#Agent
p47
aVhttp://www.ontologydesignpatterns.org/ont/dul/DUL.owl#NaturalPerson
p48
aVhttp://www.wikidata.org/entity/Q215627
p49
aVhttp://www.wikidata.org/entity/Q5
p50
aVhttp://dbpedia.org/ontology/Agent
p51
aVhttp://dbpedia.org/ontology/Athlete
p52
aVhttp://dbpedia.org/ontology/PokerPlayer
p53
aVhttp://schema.org/Person
p54
aVhttp://umbel.org/umbel/rc/PersonWithOccupation
p55
aVhttp://dbpedia.org/class/yago/AmericanPokerPlayers
p56
aVhttp://dbpedia.org/class/yago/CausalAgent100007347
p57
aVhttp://dbpedia.org/class/yago/Contestant109613191
p58
aVhttp://dbpedia.org/class/yago/LivingThing100004258
p59
aVhttp://dbpedia.org/class/yago/Object100002684
p60
aVhttp://dbpedia.org/class/yago/Organism100004475
p61
aVhttp://dbpedia.org/class/yago/Person100007846
p62
aVhttp://dbpedia.org/class/yago/Player110439851
p63
aVhttp://dbpedia.org/class/yago/Whole100003553
p64
aVhttp://dbpedia.org/class/yago/YagoLegalActorGeo
p65
aVhttp://dbpedia.org/class/yago/PhysicalEntity100001930
p66
aVhttp://dbpedia.org/class/yago/LivingPeople
p67
aVhttp://dbpedia.org/class/yago/PeopleWithBipolarDisorder
p68
aVhttp://dbpedia.org/class/yago/YagoLegalActor
p69
aVhttp://dbpedia.org/resource/Dutch_Boyd
tp70
aa(lp71
aa(lp72
(lp73
((lVhttp://dbpedia.org/resource/Finnish_cuisine
tp74
aa(lp75
((lVhttp://dbpedia.org/resource/Finnish_cuisine
tp76
aa(lp77
aa(lp78
(lp79
((lp80
Vhttp://www.w3.org/2002/07/owl#Thing
p81
aVhttp://dbpedia.org/ontology/Place
p82
aVhttp://dbpedia.org/ontology/Location
p83
aVhttp://www.wikidata.org/entity/Q4022
p84
aVhttp://www.wikidata.org/entity/Q47521
p85
aVhttp://dbpedia.org/ontology/BodyOfWater
p86
aVhttp://dbpedia.org/ontology/NaturalPlace
p87
aVhttp://dbpedia.org/ontology/River
p88
aVhttp://dbpedia.org/ontology/Stream
p89
aVhttp://schema.org/BodyOfWater
p90
aVhttp://schema.org/Place
p91
aVhttp://schema.org/RiverBodyOfWater
p92
aVhttp://umbel.org/umbel/rc/BodyOfWater
p93
aVhttp://umbel.org/umbel/rc/River
p94
aVhttp://umbel.org/umbel/rc/Stream
p95
aVhttp://dbpedia.org/class/yago/BodyOfWater109225146
p96
aVhttp://dbpedia.org/class/yago/Branch109228324
p97
aVhttp://dbpedia.org/class/yago/CanadianHeritageRivers
p98
aVhttp://dbpedia.org/class/yago/River109411430
p99
aVhttp://dbpedia.org/class/yago/Stream109448361
p100
aVhttp://dbpedia.org/class/yago/Thing100002452
p101
aVhttp://dbpedia.org/class/yago/YagoGeoEntity
p102
aVhttp://dbpedia.org/class/yago/Feeder109278997
p103
aVhttp://dbpedia.org/class/yago/PhysicalEntity100001930
p104
aVhttp://dbpedia.org/class/yago/YagoPermanentlyLocatedEntity
p105
aVhttp://dbpedia.org/class/yago/RiversOfOntario
p106
aVhttp://dbpedia.org/class/yago/TributariesOfLakeHuron
p107
aVhttp://dbpedia.org/resource/French_River_(Ontario)
tp108
aa(lp109
((lp110
Vhttp://www.w3.org/2002/07/owl#Thing
p111
aVhttp://dbpedia.org/ontology/Place
p112
aVhttp://dbpedia.org/ontology/Location
p113
aVhttp://www.wikidata.org/entity/Q4022
p114
aVhttp://www.wikidata.org/entity/Q47521
p115
aVhttp://dbpedia.org/ontology/BodyOfWater
p116
aVhttp://dbpedia.org/ontology/NaturalPlace
p117
aVhttp://dbpedia.org/ontology/River
p118
aVhttp://dbpedia.org/ontology/Stream
p119
aVhttp://schema.org/BodyOfWater
p120
aVhttp://schema.org/Place
p121
aVhttp://schema.org/RiverBodyOfWater
p122
aVhttp://umbel.org/umbel/rc/BodyOfWater
p123
aVhttp://umbel.org/umbel/rc/River
p124
aVhttp://umbel.org/umbel/rc/Stream
p125
aVhttp://dbpedia.org/class/yago/BodyOfWater109225146
p126
aVhttp://dbpedia.org/class/yago/Branch109228324
p127
aVhttp://dbpedia.org/class/yago/CanadianHeritageRivers
p128
aVhttp://dbpedia.org/class/yago/River109411430
p129
aVhttp://dbpedia.org/class/yago/Stream109448361
p130
aVhttp://dbpedia.org/class/yago/Thing100002452
p131
aVhttp://dbpedia.org/class/yago/YagoGeoEntity
p132
aVhttp://dbpedia.org/class/yago/Feeder109278997
p133
aVhttp://dbpedia.org/class/yago/PhysicalEntity100001930
p134
aVhttp://dbpedia.org/class/yago/YagoPermanentlyLocatedEntity
p135
aVhttp://dbpedia.org/class/yago/RiversOfOntario
p136
aVhttp://dbpedia.org/class/yago/TributariesOfLakeHuron
p137
aVhttp://dbpedia.org/resource/French_River_(Ontario)
tp138
aa(lp139
aa(lp140
(lp141
((lp142
Vhttp://www.w3.org/2002/07/owl#Thing
p143
aVhttp://dbpedia.org/ontology/Place
p144
aVhttp://dbpedia.org/ontology/Location
p145
aVhttp://www.wikidata.org/entity/Q486972
p146
aVhttp://www.wikidata.org/entity/Q6256
p147
aVhttp://dbpedia.org/ontology/Country
p148
aVhttp://dbpedia.org/ontology/PopulatedPlace
p149
aVhttp://www.w3.org/2003/01/geo/wgs84_pos#SpatialThing
p150
aVhttp://schema.org/Country
p151
aVhttp://schema.org/Place
p152
aVhttp://umbel.org/umbel/rc/Country
p153
aVhttp://umbel.org/umbel/rc/Location_Underspecified
p154
aVhttp://umbel.org/umbel/rc/PopulatedPlace
p155
aVhttp://dbpedia.org/class/yago/Abstraction100002137
p156
aVhttp://dbpedia.org/class/yago/AdministrativeDistrict108491826
p157
aVhttp://dbpedia.org/class/yago/AlpineCountries
p158
aVhttp://dbpedia.org/class/yago/Country108544813
p159
aVhttp://dbpedia.org/class/yago/District108552138
p160
aVhttp://dbpedia.org/class/yago/Economy108366753
p161
aVhttp://dbpedia.org/class/yago/Group100031264
p162
aVhttp://dbpedia.org/class/yago/Location100027167
p163
aVhttp://dbpedia.org/class/yago/Object100002684
p164
aVhttp://dbpedia.org/class/yago/Region108630985
p165
aVhttp://dbpedia.org/class/yago/System108435388
p166
aVhttp://dbpedia.org/class/yago/YagoGeoEntity
p167
aVhttp://dbpedia.org/class/yago/YagoLegalActorGeo
p168
aVhttp://dbpedia.org/class/yago/CountriesBorderingTheAtlanticOcean
p169
aVhttp://dbpedia.org/class/yago/CountriesBorderingTheBalticSea
p170
aVhttp://dbpedia.org/class/yago/EuropeanCountries
p171
aVhttp://dbpedia.org/class/yago/EuropeanUnionMemberEconomies
p172
aVhttp://dbpedia.org/class/yago/FederalCountries
p173
aVhttp://dbpedia.org/class/yago/PhysicalEntity100001930
p174
aVhttp://dbpedia.org/class/yago/YagoPermanentlyLocatedEntity
p175
aVhttp://dbpedia.org/class/yago/German-speakingCountries
p176
aVhttp://dbpedia.org/class/yago/MemberStatesOfNATO
p177
aVhttp://dbpedia.org/class/yago/MemberStatesOfTheEuropeanUnion
p178
aVhttp://dbpedia.org/class/yago/MemberStatesOfTheUnionForTheMediterranean
p179
aVhttp://dbpedia.org/class/yago/MemberStatesOfTheUnitedNations
p180
aVhttp://dbpedia.org/class/yago/StatesAndTerritoriesEstablishedIn1871
p181
aVhttp://dbpedia.org/resource/Germany
tp182
aa(lp183
((lp184
Vhttp://www.w3.org/2002/07/owl#Thing
p185
aVhttp://dbpedia.org/ontology/Place
p186
aVhttp://dbpedia.org/ontology/Location
p187
aVhttp://www.wikidata.org/entity/Q486972
p188
aVhttp://www.wikidata.org/entity/Q6256
p189
aVhttp://dbpedia.org/ontology/Country
p190
aVhttp://dbpedia.org/ontology/PopulatedPlace
p191
aVhttp://www.w3.org/2003/01/geo/wgs84_pos#SpatialThing
p192
aVhttp://schema.org/Country
p193
aVhttp://schema.org/Place
p194
aVhttp://umbel.org/umbel/rc/Country
p195
aVhttp://umbel.org/umbel/rc/Location_Underspecified
p196
aVhttp://umbel.org/umbel/rc/PopulatedPlace
p197
aVhttp://dbpedia.org/class/yago/Abstraction100002137
p198
aVhttp://dbpedia.org/class/yago/AdministrativeDistrict108491826
p199
aVhttp://dbpedia.org/class/yago/AlpineCountries
p200
aVhttp://dbpedia.org/class/yago/Country108544813
p201
aVhttp://dbpedia.org/class/yago/District108552138
p202
aVhttp://dbpedia.org/class/yago/Economy108366753
p203
aVhttp://dbpedia.org/class/yago/Group100031264
p204
aVhttp://dbpedia.org/class/yago/Location100027167
p205
aVhttp://dbpedia.org/class/yago/Object100002684
p206
aVhttp://dbpedia.org/class/yago/Region108630985
p207
aVhttp://dbpedia.org/class/yago/System108435388
p208
aVhttp://dbpedia.org/class/yago/YagoGeoEntity
p209
aVhttp://dbpedia.org/class/yago/YagoLegalActorGeo
p210
aVhttp://dbpedia.org/class/yago/CountriesBorderingTheAtlanticOcean
p211
aVhttp://dbpedia.org/class/yago/CountriesBorderingTheBalticSea
p212
aVhttp://dbpedia.org/class/yago/EuropeanCountries
p213
aVhttp://dbpedia.org/class/yago/EuropeanUnionMemberEconomies
p214
aVhttp://dbpedia.org/class/yago/FederalCountries
p215
aVhttp://dbpedia.org/class/yago/PhysicalEntity100001930
p216
aVhttp://dbpedia.org/class/yago/YagoPermanentlyLocatedEntity
p217
aVhttp://dbpedia.org/class/yago/German-speakingCountries
p218
aVhttp://dbpedia.org/class/yago/MemberStatesOfNATO
p219
aVhttp://dbpedia.org/class/yago/MemberStatesOfTheEuropeanUnion
p220
aVhttp://dbpedia.org/class/yago/MemberStatesOfTheUnionForTheMediterranean
p221
aVhttp://dbpedia.org/class/yago/MemberStatesOfTheUnitedNations
p222
aVhttp://dbpedia.org/class/yago/StatesAndTerritoriesEstablishedIn1871
p223
aVhttp://dbpedia.org/resource/Germany
tp224
aa(lp225
aa(lp226
(lp227
((lVhttp://dbpedia.org/resource/Greek
tp228
aa(lp229
((lVhttp://dbpedia.org/resource/Greek
tp230
aa(lp231
aa(lp232
(lp233
((lp234
Vhttp://dbpedia.org/class/yago/BeltRegions
p235
aVhttp://dbpedia.org/class/yago/Location100027167
p236
aVhttp://dbpedia.org/class/yago/Object100002684
p237
aVhttp://dbpedia.org/class/yago/Region108630039
p238
aVhttp://dbpedia.org/class/yago/YagoGeoEntity
p239
aVhttp://dbpedia.org/class/yago/YagoLegalActorGeo
p240
aVhttp://dbpedia.org/class/yago/PhysicalEntity100001930
p241
aVhttp://dbpedia.org/class/yago/YagoPermanentlyLocatedEntity
p242
aVhttp://dbpedia.org/class/yago/RegionsOfIndia
p243
aVhttp://dbpedia.org/resource/Hindi_Belt
tp244
aa(lp245
((lp246
Vhttp://dbpedia.org/class/yago/BeltRegions
p247
aVhttp://dbpedia.org/class/yago/Location100027167
p248
aVhttp://dbpedia.org/class/yago/Object100002684
p249
aVhttp://dbpedia.org/class/yago/Region108630039
p250
aVhttp://dbpedia.org/class/yago/YagoGeoEntity
p251
aVhttp://dbpedia.org/class/yago/YagoLegalActorGeo
p252
aVhttp://dbpedia.org/class/yago/PhysicalEntity100001930
p253
aVhttp://dbpedia.org/class/yago/YagoPermanentlyLocatedEntity
p254
aVhttp://dbpedia.org/class/yago/RegionsOfIndia
p255
aVhttp://dbpedia.org/resource/Hindi_Belt
tp256
aa(lp257
aa(lp258
(lp259
((lp260
Vhttp://www.w3.org/2002/07/owl#Thing
p261
aVhttp://dbpedia.org/resource/Indonesian_cuisine
tp262
aa(lp263
((lp264
Vhttp://www.w3.org/2002/07/owl#Thing
p265
aVhttp://dbpedia.org/resource/Indonesian_cuisine
tp266
aa(lp267
aa(lp268
(lp269
((lp270
Vhttp://dbpedia.org/class/yago/Abstraction100002137
p271
aVhttp://dbpedia.org/class/yago/Act100030358
p272
aVhttp://dbpedia.org/class/yago/Activity100407535
p273
aVhttp://dbpedia.org/class/yago/Event100029378
p274
aVhttp://dbpedia.org/class/yago/Order101009871
p275
aVhttp://dbpedia.org/class/yago/Succession101010458
p276
aVhttp://dbpedia.org/class/yago/ChessOpenings
p277
aVhttp://dbpedia.org/class/yago/Opening100457890
p278
aVhttp://dbpedia.org/class/yago/PsychologicalFeature100023100
p279
aVhttp://dbpedia.org/class/yago/YagoPermanentlyLocatedEntity
p280
aVhttp://dbpedia.org/class/yago/Organization101008378
p281
aVhttp://dbpedia.org/resource/Italian_Gambit
tp282
aa(lp283
((lp284
Vhttp://dbpedia.org/class/yago/Abstraction100002137
p285
aVhttp://dbpedia.org/class/yago/Act100030358
p286
aVhttp://dbpedia.org/class/yago/Activity100407535
p287
aVhttp://dbpedia.org/class/yago/Event100029378
p288
aVhttp://dbpedia.org/class/yago/Order101009871
p289
aVhttp://dbpedia.org/class/yago/Succession101010458
p290
aVhttp://dbpedia.org/class/yago/ChessOpenings
p291
aVhttp://dbpedia.org/class/yago/Opening100457890
p292
aVhttp://dbpedia.org/class/yago/PsychologicalFeature100023100
p293
aVhttp://dbpedia.org/class/yago/YagoPermanentlyLocatedEntity
p294
aVhttp://dbpedia.org/class/yago/Organization101008378
p295
aVhttp://dbpedia.org/resource/Italian_Gambit
tp296
aa(lp297
aa(lp298
(lp299
((lp300
Vhttp://www.w3.org/2002/07/owl#Thing
p301
aVhttp://dbpedia.org/ontology/Place
p302
aVhttp://dbpedia.org/ontology/Location
p303
aVhttp://schema.org/Place
p304
aVhttp://dbpedia.org/class/yago/Land109334396
p305
aVhttp://dbpedia.org/class/yago/Object100002684
p306
aVhttp://dbpedia.org/class/yago/Peninsula109388848
p307
aVhttp://dbpedia.org/class/yago/YagoGeoEntity
p308
aVhttp://dbpedia.org/class/yago/PhysicalEntity100001930
p309
aVhttp://dbpedia.org/class/yago/YagoPermanentlyLocatedEntity
p310
aVhttp://dbpedia.org/class/yago/PeninsulasOfAsia
p311
aVhttp://dbpedia.org/resource/Korean_Peninsula
tp312
aa(lp313
((lp314
Vhttp://www.w3.org/2002/07/owl#Thing
p315
aVhttp://dbpedia.org/ontology/Place
p316
aVhttp://dbpedia.org/ontology/Location
p317
aVhttp://schema.org/Place
p318
aVhttp://dbpedia.org/class/yago/Land109334396
p319
aVhttp://dbpedia.org/class/yago/Object100002684
p320
aVhttp://dbpedia.org/class/yago/Peninsula109388848
p321
aVhttp://dbpedia.org/class/yago/YagoGeoEntity
p322
aVhttp://dbpedia.org/class/yago/PhysicalEntity100001930
p323
aVhttp://dbpedia.org/class/yago/YagoPermanentlyLocatedEntity
p324
aVhttp://dbpedia.org/class/yago/PeninsulasOfAsia
p325
aVhttp://dbpedia.org/resource/Korean_Peninsula
tp326
aa(lp327
aa(lp328
(lp329
((lp330
Vhttp://www.w3.org/2002/07/owl#Thing
p331
aVhttp://dbpedia.org/ontology/Company
p332
aVhttp://www.ontologydesignpatterns.org/ont/dul/DUL.owl#Agent
p333
aVhttp://www.ontologydesignpatterns.org/ont/dul/DUL.owl#SocialPerson
p334
aVhttp://www.wikidata.org/entity/Q43229
p335
aVhttp://www.wikidata.org/entity/Q46970
p336
aVhttp://dbpedia.org/ontology/Agent
p337
aVhttp://dbpedia.org/ontology/Airline
p338
aVhttp://dbpedia.org/ontology/Organisation
p339
aVhttp://schema.org/Organization
p340
aVhttp://umbel.org/umbel/rc/AirlineCompany
p341
aVhttp://umbel.org/umbel/rc/Business
p342
aVhttp://umbel.org/umbel/rc/Organization
p343
aVhttp://dbpedia.org/class/yago/Abstraction100002137
p344
aVhttp://dbpedia.org/class/yago/Airline102690081
p345
aVhttp://dbpedia.org/class/yago/AirlinesEstablishedIn1993
p346
aVhttp://dbpedia.org/class/yago/AirlinesOfNorway
p347
aVhttp://dbpedia.org/class/yago/Business108061042
p348
aVhttp://dbpedia.org/class/yago/Carrier108057633
p349
aVhttp://dbpedia.org/class/yago/Company108058098
p350
aVhttp://dbpedia.org/class/yago/Enterprise108056231
p351
aVhttp://dbpedia.org/class/yago/Group100031264
p352
aVhttp://dbpedia.org/class/yago/Institution108053576
p353
aVhttp://dbpedia.org/class/yago/Line103671473
p354
aVhttp://dbpedia.org/class/yago/Organization108008335
p355
aVhttp://dbpedia.org/class/yago/SocialGroup107950920
p356
aVhttp://dbpedia.org/class/yago/YagoLegalActorGeo
p357
aVhttp://dbpedia.org/class/yago/CompaniesBasedInB%C3%A6rum
p358
aVhttp://dbpedia.org/class/yago/CompaniesListedOnTheOsloStockExchange
p359
aVhttp://dbpedia.org/class/yago/YagoPermanentlyLocatedEntity
p360
aVhttp://dbpedia.org/class/yago/Low-costAirlines
p361
aVhttp://dbpedia.org/class/yago/YagoLegalActor
p362
aVhttp://dbpedia.org/resource/Norwegian_Air_Shuttle
tp363
aa(lp364
((lp365
Vhttp://www.w3.org/2002/07/owl#Thing
p366
aVhttp://dbpedia.org/ontology/Company
p367
aVhttp://www.ontologydesignpatterns.org/ont/dul/DUL.owl#Agent
p368
aVhttp://www.ontologydesignpatterns.org/ont/dul/DUL.owl#SocialPerson
p369
aVhttp://www.wikidata.org/entity/Q43229
p370
aVhttp://www.wikidata.org/entity/Q46970
p371
aVhttp://dbpedia.org/ontology/Agent
p372
aVhttp://dbpedia.org/ontology/Airline
p373
aVhttp://dbpedia.org/ontology/Organisation
p374
aVhttp://schema.org/Organization
p375
aVhttp://umbel.org/umbel/rc/AirlineCompany
p376
aVhttp://umbel.org/umbel/rc/Business
p377
aVhttp://umbel.org/umbel/rc/Organization
p378
aVhttp://dbpedia.org/class/yago/Abstraction100002137
p379
aVhttp://dbpedia.org/class/yago/Airline102690081
p380
aVhttp://dbpedia.org/class/yago/AirlinesEstablishedIn1993
p381
aVhttp://dbpedia.org/class/yago/AirlinesOfNorway
p382
aVhttp://dbpedia.org/class/yago/Business108061042
p383
aVhttp://dbpedia.org/class/yago/Carrier108057633
p384
aVhttp://dbpedia.org/class/yago/Company108058098
p385
aVhttp://dbpedia.org/class/yago/Enterprise108056231
p386
aVhttp://dbpedia.org/class/yago/Group100031264
p387
aVhttp://dbpedia.org/class/yago/Institution108053576
p388
aVhttp://dbpedia.org/class/yago/Line103671473
p389
aVhttp://dbpedia.org/class/yago/Organization108008335
p390
aVhttp://dbpedia.org/class/yago/SocialGroup107950920
p391
aVhttp://dbpedia.org/class/yago/YagoLegalActorGeo
p392
aVhttp://dbpedia.org/class/yago/CompaniesBasedInB%C3%A6rum
p393
aVhttp://dbpedia.org/class/yago/CompaniesListedOnTheOsloStockExchange
p394
aVhttp://dbpedia.org/class/yago/YagoPermanentlyLocatedEntity
p395
aVhttp://dbpedia.org/class/yago/Low-costAirlines
p396
aVhttp://dbpedia.org/class/yago/YagoLegalActor
p397
aVhttp://dbpedia.org/resource/Norwegian_Air_Shuttle
tp398
aa(lp399
aa(lp400
(lp401
((lp402
Vhttp://www.w3.org/2002/07/owl#Thing
p403
aVhttp://dbpedia.org/resource/Polish_cuisine
tp404
aa(lp405
((lp406
Vhttp://www.w3.org/2002/07/owl#Thing
p407
aVhttp://dbpedia.org/resource/Polish_cuisine
tp408
aa(lp409
aa(lp410
(lp411
((lp412
Vhttp://www.w3.org/2002/07/owl#Thing
p413
aVhttp://www.wikidata.org/entity/Q386724
p414
aVhttp://www.wikidata.org/entity/Q5185279
p415
aVhttp://dbpedia.org/ontology/Poem
p416
aVhttp://dbpedia.org/ontology/Work
p417
aVhttp://dbpedia.org/ontology/WrittenWork
p418
aVhttp://schema.org/CreativeWork
p419
aVhttp://dbpedia.org/class/yago/1850Poems
p420
aVhttp://dbpedia.org/class/yago/Abstraction100002137
p421
aVhttp://dbpedia.org/class/yago/BritishPoems
p422
aVhttp://dbpedia.org/class/yago/Communication100033020
p423
aVhttp://dbpedia.org/class/yago/LiteraryComposition106364329
p424
aVhttp://dbpedia.org/class/yago/Poem106377442
p425
aVhttp://dbpedia.org/class/yago/Writing106362953
p426
aVhttp://dbpedia.org/class/yago/WrittenCommunication106349220
p427
aVhttp://dbpedia.org/class/yago/Sonnet106381372
p428
aVhttp://dbpedia.org/class/yago/Sonnets
p429
aVhttp://dbpedia.org/resource/Sonnets_from_the_Portuguese
tp430
aa(lp431
((lp432
Vhttp://www.w3.org/2002/07/owl#Thing
p433
aVhttp://dbpedia.org/ontology/Place
p434
aVhttp://dbpedia.org/ontology/Location
p435
aVhttp://www.wikidata.org/entity/Q486972
p436
aVhttp://www.wikidata.org/entity/Q6256
p437
aVhttp://dbpedia.org/ontology/Country
p438
aVhttp://dbpedia.org/ontology/PopulatedPlace
p439
aVhttp://www.w3.org/2003/01/geo/wgs84_pos#SpatialThing
p440
aVhttp://schema.org/Country
p441
aVhttp://schema.org/Place
p442
aVhttp://umbel.org/umbel/rc/Country
p443
aVhttp://umbel.org/umbel/rc/Location_Underspecified
p444
aVhttp://umbel.org/umbel/rc/PopulatedPlace
p445
aVhttp://dbpedia.org/class/yago/Abstraction100002137
p446
aVhttp://dbpedia.org/class/yago/AdministrativeDistrict108491826
p447
aVhttp://dbpedia.org/class/yago/Country108544813
p448
aVhttp://dbpedia.org/class/yago/District108552138
p449
aVhttp://dbpedia.org/class/yago/Economy108366753
p450
aVhttp://dbpedia.org/class/yago/Group100031264
p451
aVhttp://dbpedia.org/class/yago/Location100027167
p452
aVhttp://dbpedia.org/class/yago/Object100002684
p453
aVhttp://dbpedia.org/class/yago/Region108630985
p454
aVhttp://dbpedia.org/class/yago/System108435388
p455
aVhttp://dbpedia.org/class/yago/YagoGeoEntity
p456
aVhttp://dbpedia.org/class/yago/YagoLegalActorGeo
p457
aVhttp://dbpedia.org/class/yago/CountriesBorderingTheAtlanticOcean
p458
aVhttp://dbpedia.org/class/yago/FederalCountries
p459
aVhttp://dbpedia.org/class/yago/PhysicalEntity100001930
p460
aVhttp://dbpedia.org/class/yago/YagoPermanentlyLocatedEntity
p461
aVhttp://dbpedia.org/class/yago/LatinAmericanCountries
p462
aVhttp://dbpedia.org/class/yago/MemberStatesOfMercosur
p463
aVhttp://dbpedia.org/class/yago/MemberStatesOfTheCommunityOfPortugueseLanguageCountries
p464
aVhttp://dbpedia.org/class/yago/MemberStatesOfTheUnionOfSouthAmericanNations
p465
aVhttp://dbpedia.org/class/yago/MemberStatesOfTheUnitedNations
p466
aVhttp://dbpedia.org/class/yago/Portuguese-speakingCountries
p467
aVhttp://dbpedia.org/class/yago/SouthAmericanCountries
p468
aVhttp://dbpedia.org/class/yago/StatesAndTerritoriesEstablishedIn1822
p469
aVhttp://dbpedia.org/class/yago/WorldTradeOrganizationMemberEconomies
p470
aVhttp://dbpedia.org/resource/Brazil
tp471
aa(lp472
aa(lp473
(lp474
((lp475
Vhttp://www.w3.org/2002/07/owl#Thing
p476
aVhttp://www.wikidata.org/entity/Q386724
p477
aVhttp://www.wikidata.org/entity/Q5185279
p478
aVhttp://dbpedia.org/ontology/Poem
p479
aVhttp://dbpedia.org/ontology/Work
p480
aVhttp://dbpedia.org/ontology/WrittenWork
p481
aVhttp://schema.org/CreativeWork
p482
aVhttp://dbpedia.org/class/yago/1850Poems
p483
aVhttp://dbpedia.org/class/yago/Abstraction100002137
p484
aVhttp://dbpedia.org/class/yago/BritishPoems
p485
aVhttp://dbpedia.org/class/yago/Communication100033020
p486
aVhttp://dbpedia.org/class/yago/LiteraryComposition106364329
p487
aVhttp://dbpedia.org/class/yago/Poem106377442
p488
aVhttp://dbpedia.org/class/yago/Writing106362953
p489
aVhttp://dbpedia.org/class/yago/WrittenCommunication106349220
p490
aVhttp://dbpedia.org/class/yago/Sonnet106381372
p491
aVhttp://dbpedia.org/class/yago/Sonnets
p492
aVhttp://dbpedia.org/resource/Sonnets_from_the_Portuguese
tp493
aa(lp494
((lp495
Vhttp://www.w3.org/2002/07/owl#Thing
p496
aVhttp://dbpedia.org/ontology/Place
p497
aVhttp://dbpedia.org/ontology/Location
p498
aVhttp://www.wikidata.org/entity/Q486972
p499
aVhttp://www.wikidata.org/entity/Q6256
p500
aVhttp://dbpedia.org/ontology/Country
p501
aVhttp://dbpedia.org/ontology/PopulatedPlace
p502
aVhttp://www.w3.org/2003/01/geo/wgs84_pos#SpatialThing
p503
aVhttp://schema.org/Country
p504
aVhttp://schema.org/Place
p505
aVhttp://umbel.org/umbel/rc/Country
p506
aVhttp://umbel.org/umbel/rc/Location_Underspecified
p507
aVhttp://umbel.org/umbel/rc/PopulatedPlace
p508
aVhttp://dbpedia.org/class/yago/Abstraction100002137
p509
aVhttp://dbpedia.org/class/yago/AdministrativeDistrict108491826
p510
aVhttp://dbpedia.org/class/yago/Country108544813
p511
aVhttp://dbpedia.org/class/yago/District108552138
p512
aVhttp://dbpedia.org/class/yago/Economy108366753
p513
aVhttp://dbpedia.org/class/yago/Group100031264
p514
aVhttp://dbpedia.org/class/yago/Location100027167
p515
aVhttp://dbpedia.org/class/yago/Object100002684
p516
aVhttp://dbpedia.org/class/yago/Region108630985
p517
aVhttp://dbpedia.org/class/yago/System108435388
p518
aVhttp://dbpedia.org/class/yago/YagoGeoEntity
p519
aVhttp://dbpedia.org/class/yago/YagoLegalActorGeo
p520
aVhttp://dbpedia.org/class/yago/CountriesBorderingTheAtlanticOcean
p521
aVhttp://dbpedia.org/class/yago/EuropeanCountries
p522
aVhttp://dbpedia.org/class/yago/EuropeanUnionMemberEconomies
p523
aVhttp://dbpedia.org/class/yago/PhysicalEntity100001930
p524
aVhttp://dbpedia.org/class/yago/YagoPermanentlyLocatedEntity
p525
aVhttp://dbpedia.org/class/yago/MemberStatesOfNATO
p526
aVhttp://dbpedia.org/class/yago/MemberStatesOfTheCommunityOfPortugueseLanguageCountries
p527
aVhttp://dbpedia.org/class/yago/MemberStatesOfTheEuropeanUnion
p528
aVhttp://dbpedia.org/class/yago/MemberStatesOfTheUnionForTheMediterranean
p529
aVhttp://dbpedia.org/class/yago/MemberStatesOfTheUnitedNations
p530
aVhttp://dbpedia.org/class/yago/Portuguese-speakingCountries
p531
aVhttp://dbpedia.org/class/yago/WorldTradeOrganizationMemberEconomies
p532
aVhttp://dbpedia.org/resource/Portugal
tp533
aa(lp534
aa(lp535
(lp536
((lp537
Vhttp://www.w3.org/2002/07/owl#Thing
p538
aVhttp://dbpedia.org/class/yago/CausalAgent100007347
p539
aVhttp://dbpedia.org/class/yago/LivingThing100004258
p540
aVhttp://dbpedia.org/class/yago/Object100002684
p541
aVhttp://dbpedia.org/class/yago/Organism100004475
p542
aVhttp://dbpedia.org/class/yago/Person100007846
p543
aVhttp://dbpedia.org/class/yago/Whole100003553
p544
aVhttp://dbpedia.org/class/yago/YagoLegalActorGeo
p545
aVhttp://dbpedia.org/class/yago/PhysicalEntity100001930
p546
aVhttp://dbpedia.org/class/yago/YagoLegalActor
p547
aVhttp://dbpedia.org/class/yago/SerbianPeople
p548
aVhttp://dbpedia.org/resource/Serbians
tp549
aa(lp550
((lp551
Vhttp://www.w3.org/2002/07/owl#Thing
p552
aVhttp://dbpedia.org/class/yago/CausalAgent100007347
p553
aVhttp://dbpedia.org/class/yago/LivingThing100004258
p554
aVhttp://dbpedia.org/class/yago/Object100002684
p555
aVhttp://dbpedia.org/class/yago/Organism100004475
p556
aVhttp://dbpedia.org/class/yago/Person100007846
p557
aVhttp://dbpedia.org/class/yago/Whole100003553
p558
aVhttp://dbpedia.org/class/yago/YagoLegalActorGeo
p559
aVhttp://dbpedia.org/class/yago/PhysicalEntity100001930
p560
aVhttp://dbpedia.org/class/yago/YagoLegalActor
p561
aVhttp://dbpedia.org/class/yago/SerbianPeople
p562
aVhttp://dbpedia.org/resource/Serbians
tp563
aa(lp564
aa(lp565
(lp566
((lp567
Vhttp://www.w3.org/2002/07/owl#Thing
p568
aVhttp://dbpedia.org/ontology/Place
p569
aVhttp://dbpedia.org/ontology/Location
p570
aVhttp://www.wikidata.org/entity/Q3957
p571
aVhttp://www.wikidata.org/entity/Q486972
p572
aVhttp://dbpedia.org/ontology/PopulatedPlace
p573
aVhttp://dbpedia.org/ontology/Settlement
p574
aVhttp://dbpedia.org/ontology/Town
p575
aVhttp://www.w3.org/2003/01/geo/wgs84_pos#SpatialThing
p576
aVhttp://schema.org/Place
p577
aVhttp://dbpedia.org/class/yago/AdministrativeDistrict108491826
p578
aVhttp://dbpedia.org/class/yago/District108552138
p579
aVhttp://dbpedia.org/class/yago/Location100027167
p580
aVhttp://dbpedia.org/class/yago/Object100002684
p581
aVhttp://dbpedia.org/class/yago/Region108630985
p582
aVhttp://dbpedia.org/class/yago/Town108665504
p583
aVhttp://dbpedia.org/class/yago/UrbanArea108675967
p584
aVhttp://dbpedia.org/class/yago/YagoGeoEntity
p585
aVhttp://dbpedia.org/class/yago/YagoLegalActorGeo
p586
aVhttp://dbpedia.org/class/yago/GeographicalArea108574314
p587
aVhttp://dbpedia.org/class/yago/Municipality108626283
p588
aVhttp://dbpedia.org/class/yago/PhysicalEntity100001930
p589
aVhttp://dbpedia.org/class/yago/YagoPermanentlyLocatedEntity
p590
aVhttp://dbpedia.org/class/yago/MunicipalitiesInAlgomaDistrict
p591
aVhttp://dbpedia.org/class/yago/TownsInOntario
p592
aVhttp://dbpedia.org/resource/Spanish,_Ontario
tp593
aa(lp594
((lp595
Vhttp://www.w3.org/2002/07/owl#Thing
p596
aVhttp://dbpedia.org/ontology/Place
p597
aVhttp://dbpedia.org/ontology/Location
p598
aVhttp://www.wikidata.org/entity/Q3957
p599
aVhttp://www.wikidata.org/entity/Q486972
p600
aVhttp://dbpedia.org/ontology/PopulatedPlace
p601
aVhttp://dbpedia.org/ontology/Settlement
p602
aVhttp://dbpedia.org/ontology/Town
p603
aVhttp://www.w3.org/2003/01/geo/wgs84_pos#SpatialThing
p604
aVhttp://schema.org/Place
p605
aVhttp://dbpedia.org/class/yago/AdministrativeDistrict108491826
p606
aVhttp://dbpedia.org/class/yago/District108552138
p607
aVhttp://dbpedia.org/class/yago/Location100027167
p608
aVhttp://dbpedia.org/class/yago/Object100002684
p609
aVhttp://dbpedia.org/class/yago/Region108630985
p610
aVhttp://dbpedia.org/class/yago/Town108665504
p611
aVhttp://dbpedia.org/class/yago/UrbanArea108675967
p612
aVhttp://dbpedia.org/class/yago/YagoGeoEntity
p613
aVhttp://dbpedia.org/class/yago/YagoLegalActorGeo
p614
aVhttp://dbpedia.org/class/yago/GeographicalArea108574314
p615
aVhttp://dbpedia.org/class/yago/Municipality108626283
p616
aVhttp://dbpedia.org/class/yago/PhysicalEntity100001930
p617
aVhttp://dbpedia.org/class/yago/YagoPermanentlyLocatedEntity
p618
aVhttp://dbpedia.org/class/yago/MunicipalitiesInAlgomaDistrict
p619
aVhttp://dbpedia.org/class/yago/TownsInOntario
p620
aVhttp://dbpedia.org/resource/Spanish,_Ontario
tp621
aa(lp622
aa(lp623
(lp624
((lVhttp://dbpedia.org/resource/Null
tp625
aa(lp626
((lVhttp://dbpedia.org/resource/Null
tp627
aa(lp628
((lVhttp://dbpedia.org/resource/Null
p629
tp630
aaa.