(lp1
(lp2
(dp3
Vstart
p4
I0
sS'classes'
p5
(lp6
Vhttp://www.w3.org/2002/07/owl#Thing
p7
aVhttp://dbpedia.org/ontology/Place
p8
aVhttp://dbpedia.org/ontology/Location
p9
aVhttp://www.wikidata.org/entity/Q486972
p10
aVhttp://www.wikidata.org/entity/Q6256
p11
aVhttp://dbpedia.org/ontology/Country
p12
aVhttp://dbpedia.org/ontology/PopulatedPlace
p13
aVhttp://www.w3.org/2003/01/geo/wgs84_pos#SpatialThing
p14
aVhttp://schema.org/Country
p15
aVhttp://schema.org/Place
p16
aVhttp://umbel.org/umbel/rc/Country
p17
aVhttp://umbel.org/umbel/rc/Location_Underspecified
p18
aVhttp://umbel.org/umbel/rc/PopulatedPlace
p19
aVhttp://dbpedia.org/class/yago/Abstraction100002137
p20
aVhttp://dbpedia.org/class/yago/AdministrativeDistrict108491826
p21
aVhttp://dbpedia.org/class/yago/Archipelago109203827
p22
aVhttp://dbpedia.org/class/yago/ArchipelagoesOfThePacificOcean
p23
aVhttp://dbpedia.org/class/yago/Country108544813
p24
aVhttp://dbpedia.org/class/yago/District108552138
p25
aVhttp://dbpedia.org/class/yago/Economy108366753
p26
aVhttp://dbpedia.org/class/yago/Group100031264
p27
aVhttp://dbpedia.org/class/yago/Land109334396
p28
aVhttp://dbpedia.org/class/yago/Location100027167
p29
aVhttp://dbpedia.org/class/yago/Object100002684
p30
aVhttp://dbpedia.org/class/yago/Region108630985
p31
aVhttp://dbpedia.org/class/yago/System108435388
p32
aVhttp://dbpedia.org/class/yago/YagoGeoEntity
p33
aVhttp://dbpedia.org/class/yago/YagoLegalActorGeo
p34
aVhttp://dbpedia.org/class/yago/English-speakingCountriesAndTerritories
p35
aVhttp://dbpedia.org/class/yago/PhysicalEntity100001930
p36
aVhttp://dbpedia.org/class/yago/YagoPermanentlyLocatedEntity
p37
aVhttp://dbpedia.org/class/yago/IslandCountries
p38
aVhttp://dbpedia.org/class/yago/MemberStatesOfTheCommonwealthOfNations
p39
aVhttp://dbpedia.org/class/yago/MemberStatesOfTheUnitedNations
p40
aVhttp://dbpedia.org/class/yago/OceanianCountries
p41
aVhttp://dbpedia.org/class/yago/StatesAndTerritoriesEstablishedIn1840
p42
aVhttp://dbpedia.org/class/yago/WorldTradeOrganizationMemberEconomies
p43
asVdisambiguatedURL
p44
Vhttp://dbpedia.org/resource/New_Zealand
p45
sVnamedEntity
p46
VNew Zealand
p47
sVoffset
p48
I11
saa(lp49
(dp50
Vstart
p51
I0
sg5
(lp52
Vhttp://www.w3.org/2002/07/owl#Thing
p53
aVhttp://dbpedia.org/ontology/Place
p54
aVhttp://dbpedia.org/ontology/Location
p55
aVhttp://www.wikidata.org/entity/Q486972
p56
aVhttp://www.wikidata.org/entity/Q6256
p57
aVhttp://dbpedia.org/ontology/Country
p58
aVhttp://dbpedia.org/ontology/PopulatedPlace
p59
aVhttp://www.w3.org/2003/01/geo/wgs84_pos#SpatialThing
p60
aVhttp://schema.org/Country
p61
aVhttp://schema.org/Place
p62
aVhttp://umbel.org/umbel/rc/Country
p63
aVhttp://umbel.org/umbel/rc/Location_Underspecified
p64
aVhttp://umbel.org/umbel/rc/PopulatedPlace
p65
aVhttp://dbpedia.org/class/yago/Abstraction100002137
p66
aVhttp://dbpedia.org/class/yago/AdministrativeDistrict108491826
p67
aVhttp://dbpedia.org/class/yago/Country108544813
p68
aVhttp://dbpedia.org/class/yago/District108552138
p69
aVhttp://dbpedia.org/class/yago/Economy108366753
p70
aVhttp://dbpedia.org/class/yago/Group100031264
p71
aVhttp://dbpedia.org/class/yago/Island109316454
p72
aVhttp://dbpedia.org/class/yago/Land109334396
p73
aVhttp://dbpedia.org/class/yago/Location100027167
p74
aVhttp://dbpedia.org/class/yago/Object100002684
p75
aVhttp://dbpedia.org/class/yago/Region108630985
p76
aVhttp://dbpedia.org/class/yago/System108435388
p77
aVhttp://dbpedia.org/class/yago/YagoGeoEntity
p78
aVhttp://dbpedia.org/class/yago/YagoLegalActorGeo
p79
aVhttp://dbpedia.org/class/yago/CountriesBorderingThePacificOcean
p80
aVhttp://dbpedia.org/class/yago/CountriesOfTheIndianOcean
p81
aVhttp://dbpedia.org/class/yago/English-speakingCountriesAndTerritories
p82
aVhttp://dbpedia.org/class/yago/FederalCountries
p83
aVhttp://dbpedia.org/class/yago/PhysicalEntity100001930
p84
aVhttp://dbpedia.org/class/yago/YagoPermanentlyLocatedEntity
p85
aVhttp://dbpedia.org/class/yago/Islands
p86
aVhttp://dbpedia.org/class/yago/MemberStatesOfTheCommonwealthOfNations
p87
aVhttp://dbpedia.org/class/yago/MemberStatesOfTheUnitedNations
p88
aVhttp://dbpedia.org/class/yago/OceanianCountries
p89
aVhttp://dbpedia.org/class/yago/StatesAndTerritoriesEstablishedIn1901
p90
aVhttp://dbpedia.org/class/yago/WorldTradeOrganizationMemberEconomies
p91
asVdisambiguatedURL
p92
Vhttp://dbpedia.org/resource/Australia
p93
sVnamedEntity
p94
VAustralia
p95
sVoffset
p96
I9
saa(lp97
(dp98
Vstart
p99
I0
sg5
(lp100
Vhttp://www.w3.org/2002/07/owl#Thing
p101
aVhttp://dbpedia.org/ontology/Place
p102
aVhttp://dbpedia.org/ontology/Location
p103
aVhttp://www.wikidata.org/entity/Q486972
p104
aVhttp://www.wikidata.org/entity/Q6256
p105
aVhttp://dbpedia.org/ontology/Country
p106
aVhttp://dbpedia.org/ontology/PopulatedPlace
p107
aVhttp://www.w3.org/2003/01/geo/wgs84_pos#SpatialThing
p108
aVhttp://schema.org/Country
p109
aVhttp://schema.org/Place
p110
aVhttp://umbel.org/umbel/rc/Country
p111
aVhttp://umbel.org/umbel/rc/Location_Underspecified
p112
aVhttp://umbel.org/umbel/rc/PopulatedPlace
p113
aVhttp://dbpedia.org/class/yago/Abstraction100002137
p114
aVhttp://dbpedia.org/class/yago/AdministrativeDistrict108491826
p115
aVhttp://dbpedia.org/class/yago/Country108544813
p116
aVhttp://dbpedia.org/class/yago/District108552138
p117
aVhttp://dbpedia.org/class/yago/Economy108366753
p118
aVhttp://dbpedia.org/class/yago/Group100031264
p119
aVhttp://dbpedia.org/class/yago/Location100027167
p120
aVhttp://dbpedia.org/class/yago/Object100002684
p121
aVhttp://dbpedia.org/class/yago/Region108630985
p122
aVhttp://dbpedia.org/class/yago/Site108651247
p123
aVhttp://dbpedia.org/class/yago/System108435388
p124
aVhttp://dbpedia.org/class/yago/Tract108673395
p125
aVhttp://dbpedia.org/class/yago/YagoGeoEntity
p126
aVhttp://dbpedia.org/class/yago/YagoLegalActorGeo
p127
aVhttp://dbpedia.org/class/yago/Chinese-speakingCountriesAndTerritories
p128
aVhttp://dbpedia.org/class/yago/CountriesBorderingTheSouthChinaSea
p129
aVhttp://dbpedia.org/class/yago/CountriesOfTheIndianOcean
p130
aVhttp://dbpedia.org/class/yago/Developing8CountriesMemberStates
p131
aVhttp://dbpedia.org/class/yago/English-speakingCountriesAndTerritories
p132
aVhttp://dbpedia.org/class/yago/FederalCountries
p133
aVhttp://dbpedia.org/class/yago/GeographicalArea108574314
p134
aVhttp://dbpedia.org/class/yago/PhysicalEntity100001930
p135
aVhttp://dbpedia.org/class/yago/YagoPermanentlyLocatedEntity
p136
aVhttp://dbpedia.org/class/yago/Malay-speakingCountriesAndTerritories
p137
aVhttp://dbpedia.org/class/yago/MemberStatesOfTheAssociationOfSoutheastAsianNations
p138
aVhttp://dbpedia.org/class/yago/MemberStatesOfTheCommonwealthOfNations
p139
aVhttp://dbpedia.org/class/yago/MemberStatesOfTheOrganisationOfIslamicCooperation
p140
aVhttp://dbpedia.org/class/yago/MemberStatesOfTheUnitedNations
p141
aVhttp://dbpedia.org/class/yago/SoutheastAsianCountries
p142
aVhttp://dbpedia.org/class/yago/StatesAndTerritoriesEstablishedIn1963
p143
aVhttp://dbpedia.org/class/yago/WorldTradeOrganizationMemberEconomies
p144
aVhttp://dbpedia.org/class/yago/WorldWarIISites
p145
asVdisambiguatedURL
p146
Vhttp://dbpedia.org/resource/Malaysia
p147
sVnamedEntity
p148
VMalaysia
p149
sVoffset
p150
I8
saa(lp151
(dp152
Vstart
p153
I0
sg5
(lp154
Vhttp://www.w3.org/2002/07/owl#Thing
p155
aVhttp://dbpedia.org/ontology/Place
p156
aVhttp://dbpedia.org/ontology/Location
p157
aVhttp://www.wikidata.org/entity/Q486972
p158
aVhttp://www.wikidata.org/entity/Q6256
p159
aVhttp://dbpedia.org/ontology/Country
p160
aVhttp://dbpedia.org/ontology/PopulatedPlace
p161
aVhttp://www.w3.org/2003/01/geo/wgs84_pos#SpatialThing
p162
aVhttp://schema.org/Country
p163
aVhttp://schema.org/Place
p164
aVhttp://umbel.org/umbel/rc/Country
p165
aVhttp://umbel.org/umbel/rc/Location_Underspecified
p166
aVhttp://umbel.org/umbel/rc/PopulatedPlace
p167
aVhttp://dbpedia.org/class/yago/Abstraction100002137
p168
aVhttp://dbpedia.org/class/yago/AdministrativeDistrict108491826
p169
aVhttp://dbpedia.org/class/yago/Area108497294
p170
aVhttp://dbpedia.org/class/yago/Capital108518505
p171
aVhttp://dbpedia.org/class/yago/CapitalsInAsia
p172
aVhttp://dbpedia.org/class/yago/Center108523483
p173
aVhttp://dbpedia.org/class/yago/City108524735
p174
aVhttp://dbpedia.org/class/yago/Country108544813
p175
aVhttp://dbpedia.org/class/yago/District108552138
p176
aVhttp://dbpedia.org/class/yago/Economy108366753
p177
aVhttp://dbpedia.org/class/yago/Group100031264
p178
aVhttp://dbpedia.org/class/yago/Location100027167
p179
aVhttp://dbpedia.org/class/yago/Object100002684
p180
aVhttp://dbpedia.org/class/yago/Region108630985
p181
aVhttp://dbpedia.org/class/yago/Seat108647945
p182
aVhttp://dbpedia.org/class/yago/Site108651247
p183
aVhttp://dbpedia.org/class/yago/System108435388
p184
aVhttp://dbpedia.org/class/yago/Tract108673395
p185
aVhttp://dbpedia.org/class/yago/UrbanArea108675967
p186
aVhttp://dbpedia.org/class/yago/YagoGeoEntity
p187
aVhttp://dbpedia.org/class/yago/YagoLegalActorGeo
p188
aVhttp://dbpedia.org/class/yago/Chinese-speakingCountriesAndTerritories
p189
aVhttp://dbpedia.org/class/yago/CountriesBorderingTheSouthChinaSea
p190
aVhttp://dbpedia.org/class/yago/English-speakingCountriesAndTerritories
p191
aVhttp://dbpedia.org/class/yago/GeographicalArea108574314
p192
aVhttp://dbpedia.org/class/yago/Municipality108626283
p193
aVhttp://dbpedia.org/class/yago/PhysicalEntity100001930
p194
aVhttp://dbpedia.org/class/yago/YagoPermanentlyLocatedEntity
p195
aVhttp://dbpedia.org/class/yago/IslandCountries
p196
aVhttp://dbpedia.org/class/yago/Malay-speakingCountriesAndTerritories
p197
aVhttp://dbpedia.org/class/yago/MemberStatesOfTheAssociationOfSoutheastAsianNations
p198
aVhttp://dbpedia.org/class/yago/MemberStatesOfTheCommonwealthOfNations
p199
aVhttp://dbpedia.org/class/yago/MemberStatesOfTheUnitedNations
p200
aVhttp://dbpedia.org/class/yago/PopulatedCoastalPlaces
p201
aVhttp://dbpedia.org/class/yago/SoutheastAsianCountries
p202
aVhttp://dbpedia.org/class/yago/StatesAndTerritoriesEstablishedIn1965
p203
aVhttp://dbpedia.org/class/yago/Tamil-speakingCountriesAndTerritories
p204
aVhttp://dbpedia.org/class/yago/WorldTradeOrganizationMemberEconomies
p205
aVhttp://dbpedia.org/class/yago/YouthOlympicGamesHostCities
p206
asVdisambiguatedURL
p207
Vhttp://dbpedia.org/resource/Singapore
p208
sVnamedEntity
p209
VSingapore
p210
sVoffset
p211
I9
saa(lp212
(dp213
Vstart
p214
I0
sg5
(lp215
Vhttp://www.w3.org/2002/07/owl#Thing
p216
aVhttp://dbpedia.org/ontology/Place
p217
aVhttp://dbpedia.org/ontology/Location
p218
aVhttp://www.wikidata.org/entity/Q486972
p219
aVhttp://www.wikidata.org/entity/Q6256
p220
aVhttp://dbpedia.org/ontology/Country
p221
aVhttp://dbpedia.org/ontology/PopulatedPlace
p222
aVhttp://www.w3.org/2003/01/geo/wgs84_pos#SpatialThing
p223
aVhttp://schema.org/Country
p224
aVhttp://schema.org/Place
p225
aVhttp://umbel.org/umbel/rc/Country
p226
aVhttp://umbel.org/umbel/rc/Location_Underspecified
p227
aVhttp://umbel.org/umbel/rc/PopulatedPlace
p228
aVhttp://dbpedia.org/class/yago/Abstraction100002137
p229
aVhttp://dbpedia.org/class/yago/AdministrativeDistrict108491826
p230
aVhttp://dbpedia.org/class/yago/Country108544813
p231
aVhttp://dbpedia.org/class/yago/District108552138
p232
aVhttp://dbpedia.org/class/yago/Economy108366753
p233
aVhttp://dbpedia.org/class/yago/Group100031264
p234
aVhttp://dbpedia.org/class/yago/Location100027167
p235
aVhttp://dbpedia.org/class/yago/Object100002684
p236
aVhttp://dbpedia.org/class/yago/Region108630985
p237
aVhttp://dbpedia.org/class/yago/System108435388
p238
aVhttp://dbpedia.org/class/yago/YagoGeoEntity
p239
aVhttp://dbpedia.org/class/yago/YagoLegalActorGeo
p240
aVhttp://dbpedia.org/class/yago/CountriesBorderingTheSouthChinaSea
p241
aVhttp://dbpedia.org/class/yago/CountriesOfTheIndianOcean
p242
aVhttp://dbpedia.org/class/yago/PhysicalEntity100001930
p243
aVhttp://dbpedia.org/class/yago/YagoPermanentlyLocatedEntity
p244
aVhttp://dbpedia.org/class/yago/MemberStatesOfTheAssociationOfSoutheastAsianNations
p245
aVhttp://dbpedia.org/class/yago/MemberStatesOfTheUnitedNations
p246
aVhttp://dbpedia.org/class/yago/SoutheastAsianCountries
p247
aVhttp://dbpedia.org/class/yago/WorldTradeOrganizationMemberEconomies
p248
asVdisambiguatedURL
p249
Vhttp://dbpedia.org/resource/Thailand
p250
sVnamedEntity
p251
VThailand
p252
sVoffset
p253
I8
saa(lp254
(dp255
Vstart
p256
I0
sg5
(lp257
Vhttp://www.w3.org/2002/07/owl#Thing
p258
aVhttp://dbpedia.org/ontology/Place
p259
aVhttp://dbpedia.org/ontology/Location
p260
aVhttp://www.wikidata.org/entity/Q486972
p261
aVhttp://www.wikidata.org/entity/Q6256
p262
aVhttp://dbpedia.org/ontology/Country
p263
aVhttp://dbpedia.org/ontology/PopulatedPlace
p264
aVhttp://www.w3.org/2003/01/geo/wgs84_pos#SpatialThing
p265
aVhttp://schema.org/Country
p266
aVhttp://schema.org/Place
p267
aVhttp://umbel.org/umbel/rc/Island
p268
aVhttp://umbel.org/umbel/rc/Location_Underspecified
p269
aVhttp://umbel.org/umbel/rc/PopulatedPlace
p270
aVhttp://dbpedia.org/class/yago/Abstraction100002137
p271
aVhttp://dbpedia.org/class/yago/AdministrativeDistrict108491826
p272
aVhttp://dbpedia.org/class/yago/Country108544813
p273
aVhttp://dbpedia.org/class/yago/District108552138
p274
aVhttp://dbpedia.org/class/yago/Economy108366753
p275
aVhttp://dbpedia.org/class/yago/Group100031264
p276
aVhttp://dbpedia.org/class/yago/Location100027167
p277
aVhttp://dbpedia.org/class/yago/Object100002684
p278
aVhttp://dbpedia.org/class/yago/Region108630985
p279
aVhttp://dbpedia.org/class/yago/System108435388
p280
aVhttp://dbpedia.org/class/yago/YagoGeoEntity
p281
aVhttp://dbpedia.org/class/yago/YagoLegalActorGeo
p282
aVhttp://dbpedia.org/class/yago/Chinese-speakingCountriesAndTerritories
p283
aVhttp://dbpedia.org/class/yago/CountriesBorderingThePacificOcean
p284
aVhttp://dbpedia.org/class/yago/CountriesBorderingThePhilippineSea
p285
aVhttp://dbpedia.org/class/yago/CountriesBorderingTheSouthChinaSea
p286
aVhttp://dbpedia.org/class/yago/EastAsianCountries
p287
aVhttp://dbpedia.org/class/yago/FormerMemberStatesOfTheUnitedNations
p288
aVhttp://dbpedia.org/class/yago/PhysicalEntity100001930
p289
aVhttp://dbpedia.org/class/yago/YagoPermanentlyLocatedEntity
p290
aVhttp://dbpedia.org/class/yago/IslandCountries
p291
aVhttp://dbpedia.org/class/yago/StatesAndTerritoriesEstablishedIn1912
p292
aVhttp://dbpedia.org/class/yago/UnrecognizedOrLargelyUnrecognizedStates
p293
aVhttp://dbpedia.org/class/yago/WorldTradeOrganizationMemberEconomies
p294
asVdisambiguatedURL
p295
Vhttp://dbpedia.org/resource/Taiwan
p296
sVnamedEntity
p297
VTaiwan
p298
sVoffset
p299
I6
saa(lp300
(dp301
Vstart
p302
I0
sg5
(lp303
Vhttp://www.w3.org/2002/07/owl#Thing
p304
aVhttp://dbpedia.org/ontology/Place
p305
aVhttp://dbpedia.org/ontology/Location
p306
aVhttp://www.wikidata.org/entity/Q486972
p307
aVhttp://www.wikidata.org/entity/Q6256
p308
aVhttp://dbpedia.org/ontology/Country
p309
aVhttp://dbpedia.org/ontology/PopulatedPlace
p310
aVhttp://www.w3.org/2003/01/geo/wgs84_pos#SpatialThing
p311
aVhttp://schema.org/Country
p312
aVhttp://schema.org/Place
p313
aVhttp://umbel.org/umbel/rc/Country
p314
aVhttp://umbel.org/umbel/rc/Location_Underspecified
p315
aVhttp://umbel.org/umbel/rc/PopulatedPlace
p316
aVhttp://dbpedia.org/class/yago/Abstraction100002137
p317
aVhttp://dbpedia.org/class/yago/AdministrativeDistrict108491826
p318
aVhttp://dbpedia.org/class/yago/Country108544813
p319
aVhttp://dbpedia.org/class/yago/District108552138
p320
aVhttp://dbpedia.org/class/yago/Economy108366753
p321
aVhttp://dbpedia.org/class/yago/Group100031264
p322
aVhttp://dbpedia.org/class/yago/Island109316454
p323
aVhttp://dbpedia.org/class/yago/Land109334396
p324
aVhttp://dbpedia.org/class/yago/Location100027167
p325
aVhttp://dbpedia.org/class/yago/Object100002684
p326
aVhttp://dbpedia.org/class/yago/Region108630985
p327
aVhttp://dbpedia.org/class/yago/System108435388
p328
aVhttp://dbpedia.org/class/yago/YagoGeoEntity
p329
aVhttp://dbpedia.org/class/yago/YagoLegalActorGeo
p330
aVhttp://dbpedia.org/class/yago/CountriesBorderingThePacificOcean
p331
aVhttp://dbpedia.org/class/yago/CountriesBorderingThePhilippineSea
p332
aVhttp://dbpedia.org/class/yago/CountriesBorderingTheSouthChinaSea
p333
aVhttp://dbpedia.org/class/yago/English-speakingCountriesAndTerritories
p334
aVhttp://dbpedia.org/class/yago/PhysicalEntity100001930
p335
aVhttp://dbpedia.org/class/yago/YagoPermanentlyLocatedEntity
p336
aVhttp://dbpedia.org/class/yago/IslandCountries
p337
aVhttp://dbpedia.org/class/yago/MemberStatesOfTheAssociationOfSoutheastAsianNations
p338
aVhttp://dbpedia.org/class/yago/MemberStatesOfTheUnitedNations
p339
aVhttp://dbpedia.org/class/yago/SoutheastAsianCountries
p340
aVhttp://dbpedia.org/class/yago/StatesAndTerritoriesEstablishedIn1565
p341
aVhttp://dbpedia.org/class/yago/StatesAndTerritoriesEstablishedIn1898
p342
aVhttp://dbpedia.org/class/yago/StatesAndTerritoriesEstablishedIn1946
p343
aVhttp://dbpedia.org/class/yago/VolcanicArcIslands
p344
aVhttp://dbpedia.org/class/yago/WorldTradeOrganizationMemberEconomies
p345
asVdisambiguatedURL
p346
Vhttp://dbpedia.org/resource/Philippines
p347
sVnamedEntity
p348
VPhilippines
p349
sVoffset
p350
I11
saa(lp351
(dp352
Vstart
p353
I0
sg5
(lp354
Vhttp://www.w3.org/2002/07/owl#Thing
p355
aVhttp://dbpedia.org/ontology/Place
p356
aVhttp://dbpedia.org/ontology/Location
p357
aVhttp://www.wikidata.org/entity/Q486972
p358
aVhttp://www.wikidata.org/entity/Q6256
p359
aVhttp://dbpedia.org/ontology/Country
p360
aVhttp://dbpedia.org/ontology/PopulatedPlace
p361
aVhttp://www.w3.org/2003/01/geo/wgs84_pos#SpatialThing
p362
aVhttp://schema.org/Country
p363
aVhttp://schema.org/Place
p364
aVhttp://umbel.org/umbel/rc/Country
p365
aVhttp://umbel.org/umbel/rc/Location_Underspecified
p366
aVhttp://umbel.org/umbel/rc/PopulatedPlace
p367
aVhttp://dbpedia.org/class/yago/Abstraction100002137
p368
aVhttp://dbpedia.org/class/yago/AdministrativeDistrict108491826
p369
aVhttp://dbpedia.org/class/yago/Country108544813
p370
aVhttp://dbpedia.org/class/yago/District108552138
p371
aVhttp://dbpedia.org/class/yago/Economy108366753
p372
aVhttp://dbpedia.org/class/yago/Group100031264
p373
aVhttp://dbpedia.org/class/yago/Location100027167
p374
aVhttp://dbpedia.org/class/yago/Object100002684
p375
aVhttp://dbpedia.org/class/yago/Region108630985
p376
aVhttp://dbpedia.org/class/yago/System108435388
p377
aVhttp://dbpedia.org/class/yago/YagoGeoEntity
p378
aVhttp://dbpedia.org/class/yago/YagoLegalActorGeo
p379
aVhttp://dbpedia.org/class/yago/CountriesOfTheIndianOcean
p380
aVhttp://dbpedia.org/class/yago/FederalCountries
p381
aVhttp://dbpedia.org/class/yago/PhysicalEntity100001930
p382
aVhttp://dbpedia.org/class/yago/YagoPermanentlyLocatedEntity
p383
aVhttp://dbpedia.org/class/yago/MemberStatesOfTheCommonwealthOfNations
p384
aVhttp://dbpedia.org/class/yago/MemberStatesOfTheSouthAsianAssociationForRegionalCooperation
p385
aVhttp://dbpedia.org/class/yago/MemberStatesOfTheUnitedNations
p386
aVhttp://dbpedia.org/class/yago/SouthAsianCountries
p387
aVhttp://dbpedia.org/class/yago/StatesAndTerritoriesEstablishedIn1947
p388
aVhttp://dbpedia.org/class/yago/WorldTradeOrganizationMemberEconomies
p389
asVdisambiguatedURL
p390
Vhttp://dbpedia.org/resource/India
p391
sVnamedEntity
p392
VIndia
p393
sVoffset
p394
I5
saa.