ccollections
defaultdict
p1
(c__builtin__
dict
p2
tRp3
I0
(dp4
I1
(lp5
sI2
(lp6
Vhttp://dbpedia.org/ontology/country
p7
assI1
(dp8
I1
(lp9
sI2
(lp10
Vhttp://dbpedia.org/property/origin
p11
aVhttp://dbpedia.org/ontology/country
p12
aVhttp://dbpedia.org/ontology/hometown
p13
aVhttp://dbpedia.org/ontology/nationality
p14
aVhttp://dbpedia.org/property/country
p15
aVhttp://dbpedia.org/property/subdivisionName
p16
assI2
(dp17
I1
(lp18
sI2
(lp19
ssI3
(dp20
I1
(lp21
sI2
(lp22
Vhttp://dbpedia.org/property/placeOfDeath
p23
aVhttp://dbpedia.org/ontology/deathPlace
p24
aVhttp://dbpedia.org/property/deathPlace
p25
assI4
(dp26
I1
(lp27
sI2
(lp28
ssI5
(dp29
I1
(lp30
sI2
(lp31
Vhttp://dbpedia.org/ontology/country
p32
aVhttp://dbpedia.org/property/country
p33
aVhttp://dbpedia.org/property/basinCountries
p34
assI6
(dp35
I1
(lp36
sI2
(lp37
ssI7
(dp38
I1
(lp39
sI2
(lp40
ssI8
(dp41
I1
(lp42
sI2
(lp43
ssI9
(dp44
I1
(lp45
sI2
(lp46
Vhttp://dbpedia.org/ontology/birthPlace
p47
assI10
(dp48
I1
(lp49
sI2
(lp50
ss.