(lp1
(lp2
(lp3
Vhttp://dbpedia.org/resource/Belize
p4
aa(lp5
Vhttp://dbpedia.org/resource/Spanish,_Ontario
p6
aa(lp7
a(lp8
a(lp9
a(lp10
a(lp11
a(lp12
a(lp13
a(lp14
aa(lp15
(lp16
Vhttp://dbpedia.org/resource/Brazil
p17
aa(lp18
Vhttp://dbpedia.org/resource/Sonnets_from_the_Portuguese
p19
aa(lp20
a(lp21
a(lp22
a(lp23
a(lp24
a(lp25
a(lp26
a(lp27
aa(lp28
(lp29
Vhttp://dbpedia.org/resource/Cayman_Islands
p30
aa(lp31
Vhttp://dbpedia.org/resource/Spanish,_Ontario
p32
aa(lp33
a(lp34
a(lp35
a(lp36
a(lp37
a(lp38
a(lp39
a(lp40
aa(lp41
(lp42
Vhttp://dbpedia.org/resource/Colombia
p43
aa(lp44
Vhttp://dbpedia.org/resource/Spanish,_Ontario
p45
aa(lp46
a(lp47
a(lp48
a(lp49
a(lp50
a(lp51
a(lp52
a(lp53
aa(lp54
(lp55
Vhttp://dbpedia.org/resource/Costa_Rica
p56
aa(lp57
Vhttp://dbpedia.org/resource/Spanish,_Ontario
p58
aa(lp59
a(lp60
a(lp61
a(lp62
a(lp63
a(lp64
a(lp65
a(lp66
aa(lp67
(lp68
Vhttp://dbpedia.org/resource/Cuba
p69
aa(lp70
Vhttp://dbpedia.org/resource/Spanish,_Ontario
p71
aa(lp72
a(lp73
a(lp74
a(lp75
a(lp76
a(lp77
a(lp78
a(lp79
aa(lp80
(lp81
Vhttp://dbpedia.org/resource/Dominican_Republic
p82
aa(lp83
Vhttp://dbpedia.org/resource/Spanish,_Ontario
p84
aa(lp85
a(lp86
a(lp87
a(lp88
a(lp89
a(lp90
a(lp91
a(lp92
aa(lp93
(lp94
Vhttp://dbpedia.org/resource/Netherlands_Antilles
p95
aa(lp96
Vhttp://dbpedia.org/resource/Dutch_Boyd
p97
aa(lp98
a(lp99
a(lp100
a(lp101
a(lp102
a(lp103
a(lp104
a(lp105
aa(lp106
(lp107
a(lp108
Vhttp://dbpedia.org/resource/Spanish,_Ontario
p109
aa(lp110
a(lp111
a(lp112
a(lp113
a(lp114
a(lp115
a(lp116
a(lp117
aa(lp118
(lp119
Vhttp://dbpedia.org/resource/El_Salvador
p120
aa(lp121
Vhttp://dbpedia.org/resource/Spanish,_Ontario
p122
aa(lp123
a(lp124
a(lp125
a(lp126
a(lp127
a(lp128
a(lp129
a(lp130
aa(lp131
(lp132
Vhttp://dbpedia.org/resource/French_Guiana
p133
aa(lp134
a(lp135
a(lp136
a(lp137
a(lp138
a(lp139
a(lp140
a(lp141
a(lp142
aa(lp143
(lp144
Vhttp://dbpedia.org/resource/Guadeloupe
p145
aa(lp146
Vhttp://dbpedia.org/resource/Spanish,_Ontario
p147
aa(lp148
a(lp149
a(lp150
a(lp151
a(lp152
a(lp153
a(lp154
a(lp155
aa(lp156
(lp157
Vhttp://dbpedia.org/resource/Guatemala
p158
aa(lp159
Vhttp://dbpedia.org/resource/Spanish,_Ontario
p160
aa(lp161
a(lp162
a(lp163
a(lp164
a(lp165
a(lp166
a(lp167
a(lp168
aa(lp169
(lp170
Vhttp://dbpedia.org/resource/Haiti
p171
aa(lp172
Vhttp://dbpedia.org/resource/French_River_(Ontario)
p173
aa(lp174
a(lp175
a(lp176
a(lp177
a(lp178
a(lp179
a(lp180
a(lp181
aa(lp182
(lp183
a(lp184
Vhttp://dbpedia.org/resource/English,_Indiana
p185
aa(lp186
a(lp187
a(lp188
a(lp189
a(lp190
a(lp191
a(lp192
a(lp193
aa(lp194
(lp195
Vhttp://dbpedia.org/resource/Honduras
p196
aa(lp197
a(lp198
a(lp199
a(lp200
a(lp201
a(lp202
a(lp203
a(lp204
a(lp205
aa(lp206
(lp207
a(lp208
Vhttp://dbpedia.org/resource/Spanish,_Ontario
p209
aa(lp210
a(lp211
a(lp212
a(lp213
a(lp214
a(lp215
a(lp216
a(lp217
aa(lp218
(lp219
Vhttp://dbpedia.org/resource/Nicaragua
p220
aa(lp221
Vhttp://dbpedia.org/resource/Spanish,_Ontario
p222
aa(lp223
a(lp224
a(lp225
a(lp226
a(lp227
a(lp228
a(lp229
a(lp230
aa(lp231
(lp232
Vhttp://dbpedia.org/resource/Panama
p233
aa(lp234
Vhttp://dbpedia.org/resource/Spanish,_Ontario
p235
aa(lp236
a(lp237
a(lp238
a(lp239
a(lp240
a(lp241
a(lp242
a(lp243
aa(lp244
(lp245
Vhttp://dbpedia.org/resource/Panama_Canal_Zone
p246
aa(lp247
Vhttp://dbpedia.org/resource/English,_Indiana
p248
aa(lp249
a(lp250
a(lp251
a(lp252
a(lp253
a(lp254
a(lp255
a(lp256
aa.