(lp1
(lp2
(lp3
a(lp4
((lVhttp://dbpedia.org/resource/Chinese
tp5
aa(lp6
a(lp7
a(lp8
aa(lp9
(lp10
a(lp11
((lp12
Vhttp://www.w3.org/2002/07/owl#Thing
p13
aVhttp://dbpedia.org/ontology/Place
p14
aVhttp://dbpedia.org/ontology/Location
p15
aVhttp://www.wikidata.org/entity/Q3957
p16
aVhttp://www.wikidata.org/entity/Q486972
p17
aVhttp://dbpedia.org/ontology/PopulatedPlace
p18
aVhttp://dbpedia.org/ontology/Settlement
p19
aVhttp://dbpedia.org/ontology/Town
p20
aVhttp://www.w3.org/2003/01/geo/wgs84_pos#SpatialThing
p21
aVhttp://schema.org/Place
p22
aVhttp://umbel.org/umbel/rc/Town
p23
aVhttp://dbpedia.org/class/yago/AdministrativeDistrict108491826
p24
aVhttp://dbpedia.org/class/yago/Area108497294
p25
aVhttp://dbpedia.org/class/yago/Center108523483
p26
aVhttp://dbpedia.org/class/yago/District108552138
p27
aVhttp://dbpedia.org/class/yago/Location100027167
p28
aVhttp://dbpedia.org/class/yago/Object100002684
p29
aVhttp://dbpedia.org/class/yago/Region108630985
p30
aVhttp://dbpedia.org/class/yago/Seat108647945
p31
aVhttp://dbpedia.org/class/yago/Site108651247
p32
aVhttp://dbpedia.org/class/yago/Town108665504
p33
aVhttp://dbpedia.org/class/yago/Tract108673395
p34
aVhttp://dbpedia.org/class/yago/UrbanArea108675967
p35
aVhttp://dbpedia.org/class/yago/YagoGeoEntity
p36
aVhttp://dbpedia.org/class/yago/YagoLegalActorGeo
p37
aVhttp://dbpedia.org/class/yago/CountySeat108547143
p38
aVhttp://dbpedia.org/class/yago/CountySeatsInIndiana
p39
aVhttp://dbpedia.org/class/yago/GeographicalArea108574314
p40
aVhttp://dbpedia.org/class/yago/Municipality108626283
p41
aVhttp://dbpedia.org/class/yago/PhysicalEntity100001930
p42
aVhttp://dbpedia.org/class/yago/YagoPermanentlyLocatedEntity
p43
aVhttp://dbpedia.org/class/yago/PopulatedPlacesInCrawfordCounty,Indiana
p44
aVhttp://dbpedia.org/class/yago/TownsInIndiana
p45
aVhttp://dbpedia.org/resource/English,_Indiana
tp46
aa(lp47
a(lp48
a(lp49
aa(lp50
(lp51
a(lp52
((lp53
Vhttp://www.w3.org/2002/07/owl#Thing
p54
aVhttp://dbpedia.org/ontology/Place
p55
aVhttp://dbpedia.org/ontology/Location
p56
aVhttp://www.wikidata.org/entity/Q3957
p57
aVhttp://www.wikidata.org/entity/Q486972
p58
aVhttp://dbpedia.org/ontology/PopulatedPlace
p59
aVhttp://dbpedia.org/ontology/Settlement
p60
aVhttp://dbpedia.org/ontology/Town
p61
aVhttp://www.w3.org/2003/01/geo/wgs84_pos#SpatialThing
p62
aVhttp://schema.org/Place
p63
aVhttp://umbel.org/umbel/rc/Town
p64
aVhttp://dbpedia.org/class/yago/AdministrativeDistrict108491826
p65
aVhttp://dbpedia.org/class/yago/Area108497294
p66
aVhttp://dbpedia.org/class/yago/Center108523483
p67
aVhttp://dbpedia.org/class/yago/District108552138
p68
aVhttp://dbpedia.org/class/yago/Location100027167
p69
aVhttp://dbpedia.org/class/yago/Object100002684
p70
aVhttp://dbpedia.org/class/yago/Region108630985
p71
aVhttp://dbpedia.org/class/yago/Seat108647945
p72
aVhttp://dbpedia.org/class/yago/Site108651247
p73
aVhttp://dbpedia.org/class/yago/Town108665504
p74
aVhttp://dbpedia.org/class/yago/Tract108673395
p75
aVhttp://dbpedia.org/class/yago/UrbanArea108675967
p76
aVhttp://dbpedia.org/class/yago/YagoGeoEntity
p77
aVhttp://dbpedia.org/class/yago/YagoLegalActorGeo
p78
aVhttp://dbpedia.org/class/yago/CountySeat108547143
p79
aVhttp://dbpedia.org/class/yago/CountySeatsInIndiana
p80
aVhttp://dbpedia.org/class/yago/GeographicalArea108574314
p81
aVhttp://dbpedia.org/class/yago/Municipality108626283
p82
aVhttp://dbpedia.org/class/yago/PhysicalEntity100001930
p83
aVhttp://dbpedia.org/class/yago/YagoPermanentlyLocatedEntity
p84
aVhttp://dbpedia.org/class/yago/PopulatedPlacesInCrawfordCounty,Indiana
p85
aVhttp://dbpedia.org/class/yago/TownsInIndiana
p86
aVhttp://dbpedia.org/resource/English,_Indiana
tp87
aa(lp88
a(lp89
a(lp90
aa(lp91
(lp92
a(lp93
((lp94
Vhttp://www.w3.org/2002/07/owl#Thing
p95
aVhttp://dbpedia.org/ontology/Place
p96
aVhttp://dbpedia.org/ontology/Location
p97
aVhttp://www.wikidata.org/entity/Q3957
p98
aVhttp://www.wikidata.org/entity/Q486972
p99
aVhttp://dbpedia.org/ontology/PopulatedPlace
p100
aVhttp://dbpedia.org/ontology/Settlement
p101
aVhttp://dbpedia.org/ontology/Town
p102
aVhttp://www.w3.org/2003/01/geo/wgs84_pos#SpatialThing
p103
aVhttp://schema.org/Place
p104
aVhttp://umbel.org/umbel/rc/Town
p105
aVhttp://dbpedia.org/class/yago/AdministrativeDistrict108491826
p106
aVhttp://dbpedia.org/class/yago/Area108497294
p107
aVhttp://dbpedia.org/class/yago/Center108523483
p108
aVhttp://dbpedia.org/class/yago/District108552138
p109
aVhttp://dbpedia.org/class/yago/Location100027167
p110
aVhttp://dbpedia.org/class/yago/Object100002684
p111
aVhttp://dbpedia.org/class/yago/Region108630985
p112
aVhttp://dbpedia.org/class/yago/Seat108647945
p113
aVhttp://dbpedia.org/class/yago/Site108651247
p114
aVhttp://dbpedia.org/class/yago/Town108665504
p115
aVhttp://dbpedia.org/class/yago/Tract108673395
p116
aVhttp://dbpedia.org/class/yago/UrbanArea108675967
p117
aVhttp://dbpedia.org/class/yago/YagoGeoEntity
p118
aVhttp://dbpedia.org/class/yago/YagoLegalActorGeo
p119
aVhttp://dbpedia.org/class/yago/CountySeat108547143
p120
aVhttp://dbpedia.org/class/yago/CountySeatsInIndiana
p121
aVhttp://dbpedia.org/class/yago/GeographicalArea108574314
p122
aVhttp://dbpedia.org/class/yago/Municipality108626283
p123
aVhttp://dbpedia.org/class/yago/PhysicalEntity100001930
p124
aVhttp://dbpedia.org/class/yago/YagoPermanentlyLocatedEntity
p125
aVhttp://dbpedia.org/class/yago/PopulatedPlacesInCrawfordCounty,Indiana
p126
aVhttp://dbpedia.org/class/yago/TownsInIndiana
p127
aVhttp://dbpedia.org/resource/English,_Indiana
tp128
aa(lp129
a(lp130
a(lp131
aa(lp132
(lp133
a(lp134
((lp135
Vhttp://www.w3.org/2002/07/owl#Thing
p136
aVhttp://dbpedia.org/ontology/Place
p137
aVhttp://dbpedia.org/ontology/Location
p138
aVhttp://www.wikidata.org/entity/Q3957
p139
aVhttp://www.wikidata.org/entity/Q486972
p140
aVhttp://dbpedia.org/ontology/PopulatedPlace
p141
aVhttp://dbpedia.org/ontology/Settlement
p142
aVhttp://dbpedia.org/ontology/Town
p143
aVhttp://www.w3.org/2003/01/geo/wgs84_pos#SpatialThing
p144
aVhttp://schema.org/Place
p145
aVhttp://umbel.org/umbel/rc/Town
p146
aVhttp://dbpedia.org/class/yago/AdministrativeDistrict108491826
p147
aVhttp://dbpedia.org/class/yago/Area108497294
p148
aVhttp://dbpedia.org/class/yago/Center108523483
p149
aVhttp://dbpedia.org/class/yago/District108552138
p150
aVhttp://dbpedia.org/class/yago/Location100027167
p151
aVhttp://dbpedia.org/class/yago/Object100002684
p152
aVhttp://dbpedia.org/class/yago/Region108630985
p153
aVhttp://dbpedia.org/class/yago/Seat108647945
p154
aVhttp://dbpedia.org/class/yago/Site108651247
p155
aVhttp://dbpedia.org/class/yago/Town108665504
p156
aVhttp://dbpedia.org/class/yago/Tract108673395
p157
aVhttp://dbpedia.org/class/yago/UrbanArea108675967
p158
aVhttp://dbpedia.org/class/yago/YagoGeoEntity
p159
aVhttp://dbpedia.org/class/yago/YagoLegalActorGeo
p160
aVhttp://dbpedia.org/class/yago/CountySeat108547143
p161
aVhttp://dbpedia.org/class/yago/CountySeatsInIndiana
p162
aVhttp://dbpedia.org/class/yago/GeographicalArea108574314
p163
aVhttp://dbpedia.org/class/yago/Municipality108626283
p164
aVhttp://dbpedia.org/class/yago/PhysicalEntity100001930
p165
aVhttp://dbpedia.org/class/yago/YagoPermanentlyLocatedEntity
p166
aVhttp://dbpedia.org/class/yago/PopulatedPlacesInCrawfordCounty,Indiana
p167
aVhttp://dbpedia.org/class/yago/TownsInIndiana
p168
aVhttp://dbpedia.org/resource/English,_Indiana
tp169
aa(lp170
a(lp171
a(lp172
aa(lp173
(lp174
a(lp175
((lp176
Vhttp://www.w3.org/2002/07/owl#Thing
p177
aVhttp://dbpedia.org/ontology/Place
p178
aVhttp://dbpedia.org/ontology/Location
p179
aVhttp://www.wikidata.org/entity/Q3957
p180
aVhttp://www.wikidata.org/entity/Q486972
p181
aVhttp://dbpedia.org/ontology/PopulatedPlace
p182
aVhttp://dbpedia.org/ontology/Settlement
p183
aVhttp://dbpedia.org/ontology/Town
p184
aVhttp://www.w3.org/2003/01/geo/wgs84_pos#SpatialThing
p185
aVhttp://schema.org/Place
p186
aVhttp://umbel.org/umbel/rc/Town
p187
aVhttp://dbpedia.org/class/yago/AdministrativeDistrict108491826
p188
aVhttp://dbpedia.org/class/yago/Area108497294
p189
aVhttp://dbpedia.org/class/yago/Center108523483
p190
aVhttp://dbpedia.org/class/yago/District108552138
p191
aVhttp://dbpedia.org/class/yago/Location100027167
p192
aVhttp://dbpedia.org/class/yago/Object100002684
p193
aVhttp://dbpedia.org/class/yago/Region108630985
p194
aVhttp://dbpedia.org/class/yago/Seat108647945
p195
aVhttp://dbpedia.org/class/yago/Site108651247
p196
aVhttp://dbpedia.org/class/yago/Town108665504
p197
aVhttp://dbpedia.org/class/yago/Tract108673395
p198
aVhttp://dbpedia.org/class/yago/UrbanArea108675967
p199
aVhttp://dbpedia.org/class/yago/YagoGeoEntity
p200
aVhttp://dbpedia.org/class/yago/YagoLegalActorGeo
p201
aVhttp://dbpedia.org/class/yago/CountySeat108547143
p202
aVhttp://dbpedia.org/class/yago/CountySeatsInIndiana
p203
aVhttp://dbpedia.org/class/yago/GeographicalArea108574314
p204
aVhttp://dbpedia.org/class/yago/Municipality108626283
p205
aVhttp://dbpedia.org/class/yago/PhysicalEntity100001930
p206
aVhttp://dbpedia.org/class/yago/YagoPermanentlyLocatedEntity
p207
aVhttp://dbpedia.org/class/yago/PopulatedPlacesInCrawfordCounty,Indiana
p208
aVhttp://dbpedia.org/class/yago/TownsInIndiana
p209
aVhttp://dbpedia.org/resource/English,_Indiana
tp210
aa(lp211
a(lp212
a(lp213
aa(lp214
(lp215
a(lp216
((lp217
Vhttp://www.w3.org/2002/07/owl#Thing
p218
aVhttp://dbpedia.org/ontology/Place
p219
aVhttp://dbpedia.org/ontology/Location
p220
aVhttp://www.wikidata.org/entity/Q3957
p221
aVhttp://www.wikidata.org/entity/Q486972
p222
aVhttp://dbpedia.org/ontology/PopulatedPlace
p223
aVhttp://dbpedia.org/ontology/Settlement
p224
aVhttp://dbpedia.org/ontology/Town
p225
aVhttp://www.w3.org/2003/01/geo/wgs84_pos#SpatialThing
p226
aVhttp://schema.org/Place
p227
aVhttp://umbel.org/umbel/rc/Town
p228
aVhttp://dbpedia.org/class/yago/AdministrativeDistrict108491826
p229
aVhttp://dbpedia.org/class/yago/Area108497294
p230
aVhttp://dbpedia.org/class/yago/Center108523483
p231
aVhttp://dbpedia.org/class/yago/District108552138
p232
aVhttp://dbpedia.org/class/yago/Location100027167
p233
aVhttp://dbpedia.org/class/yago/Object100002684
p234
aVhttp://dbpedia.org/class/yago/Region108630985
p235
aVhttp://dbpedia.org/class/yago/Seat108647945
p236
aVhttp://dbpedia.org/class/yago/Site108651247
p237
aVhttp://dbpedia.org/class/yago/Town108665504
p238
aVhttp://dbpedia.org/class/yago/Tract108673395
p239
aVhttp://dbpedia.org/class/yago/UrbanArea108675967
p240
aVhttp://dbpedia.org/class/yago/YagoGeoEntity
p241
aVhttp://dbpedia.org/class/yago/YagoLegalActorGeo
p242
aVhttp://dbpedia.org/class/yago/CountySeat108547143
p243
aVhttp://dbpedia.org/class/yago/CountySeatsInIndiana
p244
aVhttp://dbpedia.org/class/yago/GeographicalArea108574314
p245
aVhttp://dbpedia.org/class/yago/Municipality108626283
p246
aVhttp://dbpedia.org/class/yago/PhysicalEntity100001930
p247
aVhttp://dbpedia.org/class/yago/YagoPermanentlyLocatedEntity
p248
aVhttp://dbpedia.org/class/yago/PopulatedPlacesInCrawfordCounty,Indiana
p249
aVhttp://dbpedia.org/class/yago/TownsInIndiana
p250
aVhttp://dbpedia.org/resource/English,_Indiana
tp251
aa(lp252
((lp253
Vhttp://dbpedia.org/class/yago/Ability105616246
p254
aVhttp://dbpedia.org/class/yago/Abstraction100002137
p255
aVhttp://dbpedia.org/class/yago/Cognition100023271
p256
aVhttp://dbpedia.org/class/yago/Communication100033020
p257
aVhttp://dbpedia.org/class/yago/Content105809192
p258
aVhttp://dbpedia.org/class/yago/FictionalCharacter109587565
p259
aVhttp://dbpedia.org/class/yago/Legend106371413
p260
aVhttp://dbpedia.org/class/yago/LiteraryComposition106364329
p261
aVhttp://dbpedia.org/class/yago/Representation105926676
p262
aVhttp://dbpedia.org/class/yago/Story106369829
p263
aVhttp://dbpedia.org/class/yago/Writing106362953
p264
aVhttp://dbpedia.org/class/yago/Creativity105624700
p265
aVhttp://dbpedia.org/class/yago/Fiction106367107
p266
aVhttp://dbpedia.org/class/yago/ImaginaryBeing109483738
p267
aVhttp://dbpedia.org/class/yago/Imagination105625465
p268
aVhttp://dbpedia.org/class/yago/PsychologicalFeature100023100
p269
aVhttp://dbpedia.org/class/yago/WrittenCommunication106349220
p270
aVhttp://dbpedia.org/class/yago/LiteraryArchetypesByName
p271
aVhttp://dbpedia.org/class/yago/MedievalLegends
p272
aVhttp://dbpedia.org/class/yago/Model105937112
p273
aVhttp://dbpedia.org/class/yago/Original105938400
p274
aVhttp://dbpedia.org/class/yago/MythologicalCharacters
p275
aVhttp://dbpedia.org/resource/Wandering_Jew
tp276
aa(lp277
a(lp278
aa(lp279
(lp280
a(lp281
((lp282
Vhttp://www.w3.org/2002/07/owl#Thing
p283
aVhttp://dbpedia.org/ontology/Place
p284
aVhttp://dbpedia.org/ontology/Location
p285
aVhttp://www.wikidata.org/entity/Q4022
p286
aVhttp://www.wikidata.org/entity/Q47521
p287
aVhttp://dbpedia.org/ontology/BodyOfWater
p288
aVhttp://dbpedia.org/ontology/NaturalPlace
p289
aVhttp://dbpedia.org/ontology/River
p290
aVhttp://dbpedia.org/ontology/Stream
p291
aVhttp://schema.org/BodyOfWater
p292
aVhttp://schema.org/Place
p293
aVhttp://schema.org/RiverBodyOfWater
p294
aVhttp://umbel.org/umbel/rc/BodyOfWater
p295
aVhttp://umbel.org/umbel/rc/River
p296
aVhttp://umbel.org/umbel/rc/Stream
p297
aVhttp://dbpedia.org/class/yago/BodyOfWater109225146
p298
aVhttp://dbpedia.org/class/yago/Branch109228324
p299
aVhttp://dbpedia.org/class/yago/CanadianHeritageRivers
p300
aVhttp://dbpedia.org/class/yago/River109411430
p301
aVhttp://dbpedia.org/class/yago/Stream109448361
p302
aVhttp://dbpedia.org/class/yago/Thing100002452
p303
aVhttp://dbpedia.org/class/yago/YagoGeoEntity
p304
aVhttp://dbpedia.org/class/yago/Feeder109278997
p305
aVhttp://dbpedia.org/class/yago/PhysicalEntity100001930
p306
aVhttp://dbpedia.org/class/yago/YagoPermanentlyLocatedEntity
p307
aVhttp://dbpedia.org/class/yago/RiversOfOntario
p308
aVhttp://dbpedia.org/class/yago/TributariesOfLakeHuron
p309
aVhttp://dbpedia.org/resource/French_River_(Ontario)
tp310
aa(lp311
a(lp312
a(lp313
aa(lp314
(lp315
a(lp316
((lp317
Vhttp://dbpedia.org/class/yago/Abstraction100002137
p318
aVhttp://dbpedia.org/class/yago/BuyeoLanguages
p319
aVhttp://dbpedia.org/class/yago/Class107997703
p320
aVhttp://dbpedia.org/class/yago/Collection107951464
p321
aVhttp://dbpedia.org/class/yago/Communication100033020
p322
aVhttp://dbpedia.org/class/yago/Group100031264
p323
aVhttp://dbpedia.org/class/yago/Language106282651
p324
aVhttp://dbpedia.org/class/yago/JaponicLanguages
p325
aVhttp://dbpedia.org/resource/Japonic_languages
tp326
aa(lp327
a(lp328
a(lp329
aa(lp330
(lp331
((lp332
Vhttp://www.w3.org/2002/07/owl#Thing
p333
aVhttp://dbpedia.org/ontology/Place
p334
aVhttp://dbpedia.org/ontology/Location
p335
aVhttp://www.wikidata.org/entity/Q23442
p336
aVhttp://www.wikidata.org/entity/Q486972
p337
aVhttp://dbpedia.org/ontology/Island
p338
aVhttp://dbpedia.org/ontology/PopulatedPlace
p339
aVhttp://schema.org/Place
p340
aVhttp://dbpedia.org/class/yago/Archipelago109203827
p341
aVhttp://dbpedia.org/class/yago/ArchipelagoesOfTheUnitedStates
p342
aVhttp://dbpedia.org/class/yago/Island109316454
p343
aVhttp://dbpedia.org/class/yago/Land109334396
p344
aVhttp://dbpedia.org/class/yago/Location100027167
p345
aVhttp://dbpedia.org/class/yago/Object100002684
p346
aVhttp://dbpedia.org/class/yago/Region108630039
p347
aVhttp://dbpedia.org/class/yago/YagoGeoEntity
p348
aVhttp://dbpedia.org/class/yago/YagoLegalActorGeo
p349
aVhttp://dbpedia.org/class/yago/DividedRegions
p350
aVhttp://dbpedia.org/class/yago/PhysicalEntity100001930
p351
aVhttp://dbpedia.org/class/yago/YagoPermanentlyLocatedEntity
p352
aVhttp://dbpedia.org/class/yago/IslandsOfHawaii
p353
aVhttp://dbpedia.org/resource/Hawaiian_Islands
tp354
aa(lp355
((lp356
Vhttp://dbpedia.org/class/yago/Abstraction100002137
p357
aVhttp://dbpedia.org/class/yago/AmericanFootballTeamsInHawaii
p358
aVhttp://dbpedia.org/class/yago/Association108049401
p359
aVhttp://dbpedia.org/class/yago/Club108227214
p360
aVhttp://dbpedia.org/class/yago/FootballTeam108080025
p361
aVhttp://dbpedia.org/class/yago/Group100031264
p362
aVhttp://dbpedia.org/class/yago/Organization108008335
p363
aVhttp://dbpedia.org/class/yago/SocialGroup107950920
p364
aVhttp://dbpedia.org/class/yago/Team108208560
p365
aVhttp://dbpedia.org/class/yago/Unit108189659
p366
aVhttp://dbpedia.org/class/yago/YagoLegalActorGeo
p367
aVhttp://dbpedia.org/class/yago/DefunctAmericanFootballTeams
p368
aVhttp://dbpedia.org/class/yago/YagoPermanentlyLocatedEntity
p369
aVhttp://dbpedia.org/class/yago/YagoLegalActor
p370
aVhttp://dbpedia.org/class/yago/SportsClubsEstablishedIn1974
p371
aVhttp://dbpedia.org/class/yago/WorldFootballLeagueTeams
p372
aVhttp://dbpedia.org/resource/The_Hawaiians
tp373
aa(lp374
a(lp375
a(lp376
aa(lp377
(lp378
((lp379
Vhttp://www.w3.org/2002/07/owl#Thing
p380
aVhttp://dbpedia.org/ontology/Place
p381
aVhttp://dbpedia.org/ontology/Location
p382
aVhttp://www.wikidata.org/entity/Q486972
p383
aVhttp://www.wikidata.org/entity/Q6256
p384
aVhttp://dbpedia.org/ontology/Country
p385
aVhttp://dbpedia.org/ontology/PopulatedPlace
p386
aVhttp://www.w3.org/2003/01/geo/wgs84_pos#SpatialThing
p387
aVhttp://schema.org/Country
p388
aVhttp://schema.org/Place
p389
aVhttp://umbel.org/umbel/rc/Country
p390
aVhttp://umbel.org/umbel/rc/Location_Underspecified
p391
aVhttp://umbel.org/umbel/rc/PopulatedPlace
p392
aVhttp://dbpedia.org/class/yago/Abstraction100002137
p393
aVhttp://dbpedia.org/class/yago/AdministrativeDistrict108491826
p394
aVhttp://dbpedia.org/class/yago/AfricanCountries
p395
aVhttp://dbpedia.org/class/yago/AfricanUnionMemberEconomies
p396
aVhttp://dbpedia.org/class/yago/AmorphousShape113867492
p397
aVhttp://dbpedia.org/class/yago/Attribute100024264
p398
aVhttp://dbpedia.org/class/yago/Country108544813
p399
aVhttp://dbpedia.org/class/yago/District108552138
p400
aVhttp://dbpedia.org/class/yago/Economy108366753
p401
aVhttp://dbpedia.org/class/yago/Group100031264
p402
aVhttp://dbpedia.org/class/yago/Island109316454
p403
aVhttp://dbpedia.org/class/yago/Land109334396
p404
aVhttp://dbpedia.org/class/yago/Location100027167
p405
aVhttp://dbpedia.org/class/yago/Object100002684
p406
aVhttp://dbpedia.org/class/yago/Opening109379111
p407
aVhttp://dbpedia.org/class/yago/Region108630985
p408
aVhttp://dbpedia.org/class/yago/Shape100027807
p409
aVhttp://dbpedia.org/class/yago/Space113910384
p410
aVhttp://dbpedia.org/class/yago/System108435388
p411
aVhttp://dbpedia.org/class/yago/Vent109470550
p412
aVhttp://dbpedia.org/class/yago/YagoGeoEntity
p413
aVhttp://dbpedia.org/class/yago/YagoLegalActorGeo
p414
aVhttp://dbpedia.org/class/yago/CountriesOfTheIndianOcean
p415
aVhttp://dbpedia.org/class/yago/Crack109258715
p416
aVhttp://dbpedia.org/class/yago/English-speakingCountriesAndTerritories
p417
aVhttp://dbpedia.org/class/yago/ExtinctVolcanoes
p418
aVhttp://dbpedia.org/class/yago/French-speakingCountries
p419
aVhttp://dbpedia.org/class/yago/PhysicalEntity100001930
p420
aVhttp://dbpedia.org/class/yago/YagoPermanentlyLocatedEntity
p421
aVhttp://dbpedia.org/class/yago/HotspotVolcanoes
p422
aVhttp://dbpedia.org/class/yago/IslandCountries
p423
aVhttp://dbpedia.org/class/yago/IslandsOfMauritius
p424
aVhttp://dbpedia.org/class/yago/MemberStatesOfLaFrancophonie
p425
aVhttp://dbpedia.org/class/yago/MemberStatesOfTheAfricanUnion
p426
aVhttp://dbpedia.org/class/yago/MemberStatesOfTheCommonwealthOfNations
p427
aVhttp://dbpedia.org/class/yago/MemberStatesOfTheUnitedNations
p428
aVhttp://dbpedia.org/class/yago/StatesAndTerritoriesEstablishedIn1968
p429
aVhttp://dbpedia.org/class/yago/VolcanoesOfMauritius
p430
aVhttp://dbpedia.org/class/yago/WorldTradeOrganizationMemberEconomies
p431
aVhttp://dbpedia.org/resource/Mauritius
tp432
aa(lp433
((lp434
Vhttp://www.w3.org/2002/07/owl#Thing
p435
aVhttp://dbpedia.org/ontology/Place
p436
aVhttp://dbpedia.org/ontology/Location
p437
aVhttp://www.wikidata.org/entity/Q4022
p438
aVhttp://www.wikidata.org/entity/Q47521
p439
aVhttp://dbpedia.org/ontology/BodyOfWater
p440
aVhttp://dbpedia.org/ontology/NaturalPlace
p441
aVhttp://dbpedia.org/ontology/River
p442
aVhttp://dbpedia.org/ontology/Stream
p443
aVhttp://schema.org/BodyOfWater
p444
aVhttp://schema.org/Place
p445
aVhttp://schema.org/RiverBodyOfWater
p446
aVhttp://umbel.org/umbel/rc/BodyOfWater
p447
aVhttp://umbel.org/umbel/rc/River
p448
aVhttp://umbel.org/umbel/rc/Stream
p449
aVhttp://dbpedia.org/class/yago/BodyOfWater109225146
p450
aVhttp://dbpedia.org/class/yago/Branch109228324
p451
aVhttp://dbpedia.org/class/yago/CanadianHeritageRivers
p452
aVhttp://dbpedia.org/class/yago/River109411430
p453
aVhttp://dbpedia.org/class/yago/Stream109448361
p454
aVhttp://dbpedia.org/class/yago/Thing100002452
p455
aVhttp://dbpedia.org/class/yago/YagoGeoEntity
p456
aVhttp://dbpedia.org/class/yago/Feeder109278997
p457
aVhttp://dbpedia.org/class/yago/PhysicalEntity100001930
p458
aVhttp://dbpedia.org/class/yago/YagoPermanentlyLocatedEntity
p459
aVhttp://dbpedia.org/class/yago/RiversOfOntario
p460
aVhttp://dbpedia.org/class/yago/TributariesOfLakeHuron
p461
aVhttp://dbpedia.org/resource/French_River_(Ontario)
tp462
aa(lp463
a(lp464
a(lp465
aa(lp466
(lp467
a(lp468
((lp469
Vhttp://www.w3.org/2002/07/owl#Thing
p470
aVhttp://dbpedia.org/ontology/Place
p471
aVhttp://dbpedia.org/ontology/Location
p472
aVhttp://www.wikidata.org/entity/Q3957
p473
aVhttp://www.wikidata.org/entity/Q486972
p474
aVhttp://dbpedia.org/ontology/PopulatedPlace
p475
aVhttp://dbpedia.org/ontology/Settlement
p476
aVhttp://dbpedia.org/ontology/Town
p477
aVhttp://www.w3.org/2003/01/geo/wgs84_pos#SpatialThing
p478
aVhttp://schema.org/Place
p479
aVhttp://dbpedia.org/class/yago/AdministrativeDistrict108491826
p480
aVhttp://dbpedia.org/class/yago/District108552138
p481
aVhttp://dbpedia.org/class/yago/Location100027167
p482
aVhttp://dbpedia.org/class/yago/Object100002684
p483
aVhttp://dbpedia.org/class/yago/Region108630985
p484
aVhttp://dbpedia.org/class/yago/Town108665504
p485
aVhttp://dbpedia.org/class/yago/UrbanArea108675967
p486
aVhttp://dbpedia.org/class/yago/YagoGeoEntity
p487
aVhttp://dbpedia.org/class/yago/YagoLegalActorGeo
p488
aVhttp://dbpedia.org/class/yago/GeographicalArea108574314
p489
aVhttp://dbpedia.org/class/yago/Municipality108626283
p490
aVhttp://dbpedia.org/class/yago/PhysicalEntity100001930
p491
aVhttp://dbpedia.org/class/yago/YagoPermanentlyLocatedEntity
p492
aVhttp://dbpedia.org/class/yago/MunicipalitiesInAlgomaDistrict
p493
aVhttp://dbpedia.org/class/yago/TownsInOntario
p494
aVhttp://dbpedia.org/resource/Spanish,_Ontario
tp495
aa(lp496
a(lp497
a(lp498
aa(lp499
(lp500
a(lp501
((lp502
Vhttp://www.w3.org/2002/07/owl#Thing
p503
aVhttp://dbpedia.org/ontology/Place
p504
aVhttp://dbpedia.org/ontology/Location
p505
aVhttp://www.wikidata.org/entity/Q3957
p506
aVhttp://www.wikidata.org/entity/Q486972
p507
aVhttp://dbpedia.org/ontology/PopulatedPlace
p508
aVhttp://dbpedia.org/ontology/Settlement
p509
aVhttp://dbpedia.org/ontology/Town
p510
aVhttp://www.w3.org/2003/01/geo/wgs84_pos#SpatialThing
p511
aVhttp://schema.org/Place
p512
aVhttp://dbpedia.org/class/yago/AdministrativeDistrict108491826
p513
aVhttp://dbpedia.org/class/yago/District108552138
p514
aVhttp://dbpedia.org/class/yago/Location100027167
p515
aVhttp://dbpedia.org/class/yago/Object100002684
p516
aVhttp://dbpedia.org/class/yago/Region108630985
p517
aVhttp://dbpedia.org/class/yago/Town108665504
p518
aVhttp://dbpedia.org/class/yago/UrbanArea108675967
p519
aVhttp://dbpedia.org/class/yago/YagoGeoEntity
p520
aVhttp://dbpedia.org/class/yago/YagoLegalActorGeo
p521
aVhttp://dbpedia.org/class/yago/GeographicalArea108574314
p522
aVhttp://dbpedia.org/class/yago/Municipality108626283
p523
aVhttp://dbpedia.org/class/yago/PhysicalEntity100001930
p524
aVhttp://dbpedia.org/class/yago/YagoPermanentlyLocatedEntity
p525
aVhttp://dbpedia.org/class/yago/MunicipalitiesInAlgomaDistrict
p526
aVhttp://dbpedia.org/class/yago/TownsInOntario
p527
aVhttp://dbpedia.org/resource/Spanish,_Ontario
tp528
aa(lp529
a(lp530
a(lp531
aa(lp532
(lp533
((lp534
Vhttp://www.w3.org/2002/07/owl#Thing
p535
aVhttp://dbpedia.org/ontology/Place
p536
aVhttp://dbpedia.org/ontology/Location
p537
aVhttp://www.wikidata.org/entity/Q486972
p538
aVhttp://www.wikidata.org/entity/Q6256
p539
aVhttp://dbpedia.org/ontology/Country
p540
aVhttp://dbpedia.org/ontology/PopulatedPlace
p541
aVhttp://www.w3.org/2003/01/geo/wgs84_pos#SpatialThing
p542
aVhttp://schema.org/Country
p543
aVhttp://schema.org/Place
p544
aVhttp://umbel.org/umbel/rc/Country
p545
aVhttp://umbel.org/umbel/rc/Location_Underspecified
p546
aVhttp://umbel.org/umbel/rc/PopulatedPlace
p547
aVhttp://dbpedia.org/class/yago/Abstraction100002137
p548
aVhttp://dbpedia.org/class/yago/AdministrativeDistrict108491826
p549
aVhttp://dbpedia.org/class/yago/Country108544813
p550
aVhttp://dbpedia.org/class/yago/District108552138
p551
aVhttp://dbpedia.org/class/yago/Economy108366753
p552
aVhttp://dbpedia.org/class/yago/Group100031264
p553
aVhttp://dbpedia.org/class/yago/Island109316454
p554
aVhttp://dbpedia.org/class/yago/Land109334396
p555
aVhttp://dbpedia.org/class/yago/Location100027167
p556
aVhttp://dbpedia.org/class/yago/Object100002684
p557
aVhttp://dbpedia.org/class/yago/Region108630985
p558
aVhttp://dbpedia.org/class/yago/System108435388
p559
aVhttp://dbpedia.org/class/yago/YagoGeoEntity
p560
aVhttp://dbpedia.org/class/yago/YagoLegalActorGeo
p561
aVhttp://dbpedia.org/class/yago/CountriesBorderingThePacificOcean
p562
aVhttp://dbpedia.org/class/yago/CountriesBorderingThePhilippineSea
p563
aVhttp://dbpedia.org/class/yago/CountriesBorderingTheSouthChinaSea
p564
aVhttp://dbpedia.org/class/yago/English-speakingCountriesAndTerritories
p565
aVhttp://dbpedia.org/class/yago/PhysicalEntity100001930
p566
aVhttp://dbpedia.org/class/yago/YagoPermanentlyLocatedEntity
p567
aVhttp://dbpedia.org/class/yago/IslandCountries
p568
aVhttp://dbpedia.org/class/yago/MemberStatesOfTheAssociationOfSoutheastAsianNations
p569
aVhttp://dbpedia.org/class/yago/MemberStatesOfTheUnitedNations
p570
aVhttp://dbpedia.org/class/yago/SoutheastAsianCountries
p571
aVhttp://dbpedia.org/class/yago/StatesAndTerritoriesEstablishedIn1565
p572
aVhttp://dbpedia.org/class/yago/StatesAndTerritoriesEstablishedIn1898
p573
aVhttp://dbpedia.org/class/yago/StatesAndTerritoriesEstablishedIn1946
p574
aVhttp://dbpedia.org/class/yago/VolcanicArcIslands
p575
aVhttp://dbpedia.org/class/yago/WorldTradeOrganizationMemberEconomies
p576
aVhttp://dbpedia.org/resource/Philippines
tp577
aa(lp578
a(lp579
a(lp580
a(lp581
aa(lp582
(lp583
((lp584
Vhttp://www.w3.org/2002/07/owl#Thing
p585
aVhttp://dbpedia.org/ontology/Place
p586
aVhttp://dbpedia.org/ontology/Location
p587
aVhttp://www.wikidata.org/entity/Q486972
p588
aVhttp://www.wikidata.org/entity/Q6256
p589
aVhttp://dbpedia.org/ontology/Country
p590
aVhttp://dbpedia.org/ontology/PopulatedPlace
p591
aVhttp://www.w3.org/2003/01/geo/wgs84_pos#SpatialThing
p592
aVhttp://schema.org/Country
p593
aVhttp://schema.org/Place
p594
aVhttp://umbel.org/umbel/rc/Country
p595
aVhttp://umbel.org/umbel/rc/Location_Underspecified
p596
aVhttp://umbel.org/umbel/rc/PopulatedPlace
p597
aVhttp://dbpedia.org/class/yago/Abstraction100002137
p598
aVhttp://dbpedia.org/class/yago/AdministrativeDistrict108491826
p599
aVhttp://dbpedia.org/class/yago/Country108544813
p600
aVhttp://dbpedia.org/class/yago/District108552138
p601
aVhttp://dbpedia.org/class/yago/Economy108366753
p602
aVhttp://dbpedia.org/class/yago/Group100031264
p603
aVhttp://dbpedia.org/class/yago/Island109316454
p604
aVhttp://dbpedia.org/class/yago/Land109334396
p605
aVhttp://dbpedia.org/class/yago/Location100027167
p606
aVhttp://dbpedia.org/class/yago/Object100002684
p607
aVhttp://dbpedia.org/class/yago/Region108630985
p608
aVhttp://dbpedia.org/class/yago/System108435388
p609
aVhttp://dbpedia.org/class/yago/YagoGeoEntity
p610
aVhttp://dbpedia.org/class/yago/YagoLegalActorGeo
p611
aVhttp://dbpedia.org/class/yago/CountriesBorderingThePacificOcean
p612
aVhttp://dbpedia.org/class/yago/CountriesBorderingThePhilippineSea
p613
aVhttp://dbpedia.org/class/yago/CountriesBorderingTheSouthChinaSea
p614
aVhttp://dbpedia.org/class/yago/English-speakingCountriesAndTerritories
p615
aVhttp://dbpedia.org/class/yago/PhysicalEntity100001930
p616
aVhttp://dbpedia.org/class/yago/YagoPermanentlyLocatedEntity
p617
aVhttp://dbpedia.org/class/yago/IslandCountries
p618
aVhttp://dbpedia.org/class/yago/MemberStatesOfTheAssociationOfSoutheastAsianNations
p619
aVhttp://dbpedia.org/class/yago/MemberStatesOfTheUnitedNations
p620
aVhttp://dbpedia.org/class/yago/SoutheastAsianCountries
p621
aVhttp://dbpedia.org/class/yago/StatesAndTerritoriesEstablishedIn1565
p622
aVhttp://dbpedia.org/class/yago/StatesAndTerritoriesEstablishedIn1898
p623
aVhttp://dbpedia.org/class/yago/StatesAndTerritoriesEstablishedIn1946
p624
aVhttp://dbpedia.org/class/yago/VolcanicArcIslands
p625
aVhttp://dbpedia.org/class/yago/WorldTradeOrganizationMemberEconomies
p626
aVhttp://dbpedia.org/resource/Philippines
tp627
aa(lp628
a(lp629
a(lp630
a(lp631
aa(lp632
(lp633
((lp634
Vhttp://www.w3.org/2002/07/owl#Thing
p635
aVhttp://dbpedia.org/ontology/Place
p636
aVhttp://dbpedia.org/ontology/Location
p637
aVhttp://www.wikidata.org/entity/Q486972
p638
aVhttp://www.wikidata.org/entity/Q6256
p639
aVhttp://dbpedia.org/ontology/Country
p640
aVhttp://dbpedia.org/ontology/PopulatedPlace
p641
aVhttp://www.w3.org/2003/01/geo/wgs84_pos#SpatialThing
p642
aVhttp://schema.org/Country
p643
aVhttp://schema.org/Place
p644
aVhttp://umbel.org/umbel/rc/Country
p645
aVhttp://umbel.org/umbel/rc/Location_Underspecified
p646
aVhttp://umbel.org/umbel/rc/PopulatedPlace
p647
aVhttp://dbpedia.org/class/yago/Abstraction100002137
p648
aVhttp://dbpedia.org/class/yago/AdministrativeDistrict108491826
p649
aVhttp://dbpedia.org/class/yago/Country108544813
p650
aVhttp://dbpedia.org/class/yago/District108552138
p651
aVhttp://dbpedia.org/class/yago/Economy108366753
p652
aVhttp://dbpedia.org/class/yago/Group100031264
p653
aVhttp://dbpedia.org/class/yago/Island109316454
p654
aVhttp://dbpedia.org/class/yago/Land109334396
p655
aVhttp://dbpedia.org/class/yago/Location100027167
p656
aVhttp://dbpedia.org/class/yago/Object100002684
p657
aVhttp://dbpedia.org/class/yago/Region108630985
p658
aVhttp://dbpedia.org/class/yago/System108435388
p659
aVhttp://dbpedia.org/class/yago/YagoGeoEntity
p660
aVhttp://dbpedia.org/class/yago/YagoLegalActorGeo
p661
aVhttp://dbpedia.org/class/yago/CountriesBorderingThePacificOcean
p662
aVhttp://dbpedia.org/class/yago/CountriesBorderingThePhilippineSea
p663
aVhttp://dbpedia.org/class/yago/CountriesBorderingTheSouthChinaSea
p664
aVhttp://dbpedia.org/class/yago/English-speakingCountriesAndTerritories
p665
aVhttp://dbpedia.org/class/yago/PhysicalEntity100001930
p666
aVhttp://dbpedia.org/class/yago/YagoPermanentlyLocatedEntity
p667
aVhttp://dbpedia.org/class/yago/IslandCountries
p668
aVhttp://dbpedia.org/class/yago/MemberStatesOfTheAssociationOfSoutheastAsianNations
p669
aVhttp://dbpedia.org/class/yago/MemberStatesOfTheUnitedNations
p670
aVhttp://dbpedia.org/class/yago/SoutheastAsianCountries
p671
aVhttp://dbpedia.org/class/yago/StatesAndTerritoriesEstablishedIn1565
p672
aVhttp://dbpedia.org/class/yago/StatesAndTerritoriesEstablishedIn1898
p673
aVhttp://dbpedia.org/class/yago/StatesAndTerritoriesEstablishedIn1946
p674
aVhttp://dbpedia.org/class/yago/VolcanicArcIslands
p675
aVhttp://dbpedia.org/class/yago/WorldTradeOrganizationMemberEconomies
p676
aVhttp://dbpedia.org/resource/Philippines
tp677
aa(lp678
a(lp679
a(lp680
a(lp681
aa(lp682
(lp683
((lp684
Vhttp://www.w3.org/2002/07/owl#Thing
p685
aVhttp://dbpedia.org/ontology/Place
p686
aVhttp://dbpedia.org/ontology/Location
p687
aVhttp://www.wikidata.org/entity/Q486972
p688
aVhttp://www.wikidata.org/entity/Q6256
p689
aVhttp://dbpedia.org/ontology/Country
p690
aVhttp://dbpedia.org/ontology/PopulatedPlace
p691
aVhttp://www.w3.org/2003/01/geo/wgs84_pos#SpatialThing
p692
aVhttp://schema.org/Country
p693
aVhttp://schema.org/Place
p694
aVhttp://umbel.org/umbel/rc/Country
p695
aVhttp://umbel.org/umbel/rc/Location_Underspecified
p696
aVhttp://umbel.org/umbel/rc/PopulatedPlace
p697
aVhttp://dbpedia.org/class/yago/Abstraction100002137
p698
aVhttp://dbpedia.org/class/yago/AdministrativeDistrict108491826
p699
aVhttp://dbpedia.org/class/yago/Country108544813
p700
aVhttp://dbpedia.org/class/yago/District108552138
p701
aVhttp://dbpedia.org/class/yago/Economy108366753
p702
aVhttp://dbpedia.org/class/yago/Group100031264
p703
aVhttp://dbpedia.org/class/yago/Island109316454
p704
aVhttp://dbpedia.org/class/yago/Land109334396
p705
aVhttp://dbpedia.org/class/yago/Location100027167
p706
aVhttp://dbpedia.org/class/yago/Object100002684
p707
aVhttp://dbpedia.org/class/yago/Region108630985
p708
aVhttp://dbpedia.org/class/yago/System108435388
p709
aVhttp://dbpedia.org/class/yago/YagoGeoEntity
p710
aVhttp://dbpedia.org/class/yago/YagoLegalActorGeo
p711
aVhttp://dbpedia.org/class/yago/CountriesBorderingThePacificOcean
p712
aVhttp://dbpedia.org/class/yago/CountriesBorderingThePhilippineSea
p713
aVhttp://dbpedia.org/class/yago/CountriesBorderingTheSouthChinaSea
p714
aVhttp://dbpedia.org/class/yago/English-speakingCountriesAndTerritories
p715
aVhttp://dbpedia.org/class/yago/PhysicalEntity100001930
p716
aVhttp://dbpedia.org/class/yago/YagoPermanentlyLocatedEntity
p717
aVhttp://dbpedia.org/class/yago/IslandCountries
p718
aVhttp://dbpedia.org/class/yago/MemberStatesOfTheAssociationOfSoutheastAsianNations
p719
aVhttp://dbpedia.org/class/yago/MemberStatesOfTheUnitedNations
p720
aVhttp://dbpedia.org/class/yago/SoutheastAsianCountries
p721
aVhttp://dbpedia.org/class/yago/StatesAndTerritoriesEstablishedIn1565
p722
aVhttp://dbpedia.org/class/yago/StatesAndTerritoriesEstablishedIn1898
p723
aVhttp://dbpedia.org/class/yago/StatesAndTerritoriesEstablishedIn1946
p724
aVhttp://dbpedia.org/class/yago/VolcanicArcIslands
p725
aVhttp://dbpedia.org/class/yago/WorldTradeOrganizationMemberEconomies
p726
aVhttp://dbpedia.org/resource/Philippines
tp727
aa(lp728
a(lp729
a(lp730
a(lp731
aa(lp732
(lp733
((lp734
Vhttp://www.w3.org/2002/07/owl#Thing
p735
aVhttp://dbpedia.org/ontology/Place
p736
aVhttp://dbpedia.org/ontology/Location
p737
aVhttp://www.wikidata.org/entity/Q486972
p738
aVhttp://www.wikidata.org/entity/Q6256
p739
aVhttp://dbpedia.org/ontology/Country
p740
aVhttp://dbpedia.org/ontology/PopulatedPlace
p741
aVhttp://www.w3.org/2003/01/geo/wgs84_pos#SpatialThing
p742
aVhttp://schema.org/Country
p743
aVhttp://schema.org/Place
p744
aVhttp://umbel.org/umbel/rc/Country
p745
aVhttp://umbel.org/umbel/rc/Location_Underspecified
p746
aVhttp://umbel.org/umbel/rc/PopulatedPlace
p747
aVhttp://dbpedia.org/class/yago/Abstraction100002137
p748
aVhttp://dbpedia.org/class/yago/AdministrativeDistrict108491826
p749
aVhttp://dbpedia.org/class/yago/Country108544813
p750
aVhttp://dbpedia.org/class/yago/District108552138
p751
aVhttp://dbpedia.org/class/yago/Economy108366753
p752
aVhttp://dbpedia.org/class/yago/Group100031264
p753
aVhttp://dbpedia.org/class/yago/Island109316454
p754
aVhttp://dbpedia.org/class/yago/Land109334396
p755
aVhttp://dbpedia.org/class/yago/Location100027167
p756
aVhttp://dbpedia.org/class/yago/Object100002684
p757
aVhttp://dbpedia.org/class/yago/Region108630985
p758
aVhttp://dbpedia.org/class/yago/System108435388
p759
aVhttp://dbpedia.org/class/yago/YagoGeoEntity
p760
aVhttp://dbpedia.org/class/yago/YagoLegalActorGeo
p761
aVhttp://dbpedia.org/class/yago/CountriesBorderingThePacificOcean
p762
aVhttp://dbpedia.org/class/yago/CountriesBorderingThePhilippineSea
p763
aVhttp://dbpedia.org/class/yago/CountriesBorderingTheSouthChinaSea
p764
aVhttp://dbpedia.org/class/yago/English-speakingCountriesAndTerritories
p765
aVhttp://dbpedia.org/class/yago/PhysicalEntity100001930
p766
aVhttp://dbpedia.org/class/yago/YagoPermanentlyLocatedEntity
p767
aVhttp://dbpedia.org/class/yago/IslandCountries
p768
aVhttp://dbpedia.org/class/yago/MemberStatesOfTheAssociationOfSoutheastAsianNations
p769
aVhttp://dbpedia.org/class/yago/MemberStatesOfTheUnitedNations
p770
aVhttp://dbpedia.org/class/yago/SoutheastAsianCountries
p771
aVhttp://dbpedia.org/class/yago/StatesAndTerritoriesEstablishedIn1565
p772
aVhttp://dbpedia.org/class/yago/StatesAndTerritoriesEstablishedIn1898
p773
aVhttp://dbpedia.org/class/yago/StatesAndTerritoriesEstablishedIn1946
p774
aVhttp://dbpedia.org/class/yago/VolcanicArcIslands
p775
aVhttp://dbpedia.org/class/yago/WorldTradeOrganizationMemberEconomies
p776
aVhttp://dbpedia.org/resource/Philippines
tp777
aa(lp778
((lp779
Vhttp://dbpedia.org/class/yago/Location100027167
p780
aVhttp://dbpedia.org/class/yago/Object100002684
p781
aVhttp://dbpedia.org/class/yago/Region108630039
p782
aVhttp://dbpedia.org/class/yago/YagoGeoEntity
p783
aVhttp://dbpedia.org/class/yago/YagoLegalActorGeo
p784
aVhttp://dbpedia.org/class/yago/DefunctRegionsOfThePhilippines
p785
aVhttp://dbpedia.org/class/yago/PhysicalEntity100001930
p786
aVhttp://dbpedia.org/class/yago/YagoPermanentlyLocatedEntity
p787
aVhttp://dbpedia.org/resource/Southern_Tagalog
tp788
aa(lp789
a(lp790
a(lp791
aa(lp792
(lp793
((lVhttp://dbpedia.org/resource/Geography_of_Tonga
tp794
aa(lp795
((lVhttp://dbpedia.org/resource/Demographics_of_Tonga
tp796
aa(lp797
a(lp798
a(lp799
aa(lp800
(lp801
((lVhttp://dbpedia.org/resource/Geography_of_Tonga
tp802
aa(lp803
((lVhttp://dbpedia.org/resource/Demographics_of_Tonga
p804
tp805
aa(lp806
a(lp807
a(lp808
aa.