(lp1
(dp2
I0
(dp3
I0
(lp4
sI1
(lp5
sI2
(lp6
sI3
(lp7
sI4
(lp8
ssI1
(dp9
I0
g5
sI1
(lp10
sI2
(lp11
Vhttp://dbpedia.org/ontology/officialLanguage
p12
aVhttp://dbpedia.org/ontology/country
p13
aVhttp://www.w3.org/1999/02/22-rdf-syntax-ns#type
p14
aVhttp://purl.org/dc/terms/subject
p15
aVhttp://dbpedia.org/property/officialLanguages
p16
aVhttp://www.w3.org/2000/01/rdf-schema#comment
p17
aVhttp://dbpedia.org/ontology/origin
p18
aVhttp://dbpedia.org/property/southeast
p19
aVhttp://dbpedia.org/ontology/abstract
p20
aVhttp://dbpedia.org/property/country
p21
aVhttp://dbpedia.org/property/nearestTown
p22
aVhttp://dbpedia.org/property/location
p23
aVhttp://dbpedia.org/property/east
p24
aVhttp://dbpedia.org/ontology/place
p25
aVhttp://dbpedia.org/ontology/spokenIn
p26
aVhttp://dbpedia.org/property/north
p27
aVhttp://dbpedia.org/property/northeast
p28
aVhttp://dbpedia.org/property/subdivisionName
p29
aVhttp://dbpedia.org/ontology/language
p30
aVhttp://dbpedia.org/ontology/populationPlace
p31
asI3
(lp32
sI4
(lp33
ssI2
(dp34
I0
g6
sI1
g11
sI2
(lp35
sI3
(lp36
sI4
(lp37
ssI3
(dp38
I0
g7
sI1
g32
sI2
g36
sI3
(lp39
sI4
(lp40
ssI4
(dp41
I0
g8
sI1
g33
sI2
g37
sI3
g40
sI4
(lp42
ssa(dp43
I0
(dp44
I0
(lp45
sI1
(lp46
sI2
(lp47
sI3
(lp48
sI4
(lp49
ssI1
(dp50
I0
g46
sI1
(lp51
sI2
(lp52
Vhttp://www.w3.org/2000/01/rdf-schema#seeAlso
p53
aVhttp://dbpedia.org/ontology/country
p54
aVhttp://www.w3.org/1999/02/22-rdf-syntax-ns#type
p55
aVhttp://purl.org/dc/terms/subject
p56
aVhttp://dbpedia.org/property/officialLanguages
p57
aVhttp://dbpedia.org/property/origin
p58
aVhttp://dbpedia.org/ontology/hometown
p59
aVhttp://dbpedia.org/ontology/birthPlace
p60
aVhttp://dbpedia.org/property/popplace
p61
aVhttp://dbpedia.org/property/location
p62
aVhttp://dbpedia.org/ontology/officialLanguage
p63
aVhttp://dbpedia.org/ontology/nationality
p64
aVhttp://dbpedia.org/property/birthPlace
p65
aVhttp://dbpedia.org/property/placeOfBirth
p66
aVhttp://dbpedia.org/property/country
p67
aVhttp://dbpedia.org/property/locationCountry
p68
aVhttp://dbpedia.org/ontology/language
p69
aVhttp://dbpedia.org/ontology/populationPlace
p70
asI3
(lp71
sI4
(lp72
ssI2
(dp73
I0
g47
sI1
g52
sI2
(lp74
sI3
(lp75
sI4
(lp76
ssI3
(dp77
I0
g48
sI1
g71
sI2
g75
sI3
(lp78
sI4
(lp79
ssI4
(dp80
I0
g49
sI1
g72
sI2
g76
sI3
g79
sI4
(lp81
ssa(dp82
I0
(dp83
I0
(lp84
sI1
(lp85
sI2
(lp86
sI3
(lp87
sI4
(lp88
ssI1
(dp89
I0
g85
sI1
(lp90
sI2
(lp91
Vhttp://www.w3.org/2000/01/rdf-schema#seeAlso
p92
aVhttp://dbpedia.org/property/origin
p93
aVhttp://dbpedia.org/ontology/origin
p94
aVhttp://dbpedia.org/property/place
p95
aVhttp://dbpedia.org/property/genre
p96
aVhttp://dbpedia.org/property/caption
p97
aVhttp://dbpedia.org/ontology/demonym
p98
aVhttp://dbpedia.org/ontology/officialLanguage
p99
aVhttp://dbpedia.org/ontology/regionServed
p100
aVhttp://dbpedia.org/ontology/country
p101
aVhttp://dbpedia.org/property/region
p102
aVhttp://www.w3.org/1999/02/22-rdf-syntax-ns#type
p103
aVhttp://dbpedia.org/property/locationCountry
p104
aVhttp://dbpedia.org/property/birthPlace
p105
aVhttp://dbpedia.org/ontology/place
p106
aVhttp://dbpedia.org/property/placeOfBirth
p107
aVhttp://dbpedia.org/property/country
p108
aVhttp://dbpedia.org/property/label
p109
aVhttp://dbpedia.org/property/establishedEvent
p110
aVhttp://dbpedia.org/property/regionalScenes
p111
aVhttp://purl.org/dc/terms/subject
p112
aVhttp://dbpedia.org/ontology/populationPlace
p113
aVhttp://dbpedia.org/property/primaryUser
p114
aVhttp://dbpedia.org/ontology/abstract
p115
aVhttp://dbpedia.org/ontology/spokenIn
p116
aVhttp://dbpedia.org/property/venue
p117
aVhttp://dbpedia.org/property/location
p118
aVhttp://dbpedia.org/property/states
p119
aVhttp://dbpedia.org/ontology/locationCountry
p120
aVhttp://dbpedia.org/property/nationalOrigin
p121
aVhttp://dbpedia.org/ontology/location
p122
aVhttp://dbpedia.org/property/languages
p123
aVhttp://dbpedia.org/property/shipCountry
p124
aVhttp://dbpedia.org/property/headquarters
p125
aVhttp://www.w3.org/2000/01/rdf-schema#comment
p126
aVhttp://dbpedia.org/ontology/literaryGenre
p127
aVhttp://dbpedia.org/ontology/birthPlace
p128
aVhttp://dbpedia.org/property/governmentType
p129
aVhttp://dbpedia.org/ontology/wikiPageRedirects
p130
aVhttp://dbpedia.org/property/area
p131
aVhttp://dbpedia.org/ontology/hometown
p132
aVhttp://dbpedia.org/ontology/governmentType
p133
aVhttp://dbpedia.org/property/demonym
p134
aVhttp://dbpedia.org/property/areaServed
p135
aVhttp://dbpedia.org/property/regionServed
p136
aVhttp://dbpedia.org/ontology/builder
p137
aVhttp://dbpedia.org/property/jurisdiction
p138
aVhttp://dbpedia.org/ontology/language
p139
aVhttp://dbpedia.org/property/popplace
p140
asI3
(lp141
sI4
(lp142
ssI2
(dp143
I0
g86
sI1
g91
sI2
(lp144
sI3
(lp145
sI4
(lp146
ssI3
(dp147
I0
g87
sI1
g141
sI2
g145
sI3
(lp148
sI4
(lp149
ssI4
(dp150
I0
g88
sI1
g142
sI2
g146
sI3
g149
sI4
(lp151
ssa(dp152
I0
(dp153
I0
(lp154
sI1
(lp155
sI2
(lp156
sI3
(lp157
sI4
(lp158
ssI1
(dp159
I0
g155
sI1
(lp160
sI2
(lp161
Vhttp://www.w3.org/2000/01/rdf-schema#seeAlso
p162
aVhttp://dbpedia.org/property/currency
p163
aVhttp://dbpedia.org/ontology/currency
p164
aVhttp://dbpedia.org/property/legislature
p165
aVhttp://dbpedia.org/property/sovereigntyType
p166
aVhttp://dbpedia.org/ontology/longName
p167
aVhttp://www.w3.org/ns/prov#wasDerivedFrom
p168
aVhttp://dbpedia.org/property/caption
p169
aVhttp://dbpedia.org/property/territory
p170
aVhttp://dbpedia.org/ontology/demonym
p171
aVhttp://dbpedia.org/ontology/flag
p172
aVhttp://dbpedia.org/property/footer
p173
aVhttp://dbpedia.org/ontology/country
p174
aVhttp://dbpedia.org/property/region
p175
aVhttp://www.w3.org/2002/07/owl#sameAs
p176
aVhttp://dbpedia.org/property/commonName
p177
aVhttp://dbpedia.org/property/upperHouse
p178
aVhttp://dbpedia.org/property/image
p179
aVhttp://dbpedia.org/property/lowerHouse
p180
aVhttp://dbpedia.org/ontology/place
p181
aVhttp://xmlns.com/foaf/0.1/isPrimaryTopicOf
p182
aVhttp://dbpedia.org/property/imageCoat
p183
aVhttp://dbpedia.org/property/conventionalLongName
p184
aVhttp://dbpedia.org/property/country
p185
aVhttp://dbpedia.org/property/linkingName
p186
aVhttp://dbpedia.org/ontology/regionServed
p187
aVhttp://dbpedia.org/ontology/wikiPageDisambiguates
p188
aVhttp://dbpedia.org/property/establishedEvent
p189
aVhttp://dbpedia.org/ontology/wikiPageExternalLink
p190
aVhttp://xmlns.com/foaf/0.1/primaryTopic
p191
aVhttp://purl.org/dc/terms/subject
p192
aVhttp://dbpedia.org/ontology/populationPlace
p193
aVhttp://dbpedia.org/property/origin
p194
aVhttp://dbpedia.org/ontology/abstract
p195
aVhttp://xmlns.com/foaf/0.1/depiction
p196
aVhttp://dbpedia.org/property/demonym
p197
aVhttp://dbpedia.org/property/location
p198
aVhttp://dbpedia.org/ontology/usingCountry
p199
aVhttp://dbpedia.org/property/states
p200
aVhttp://dbpedia.org/ontology/locationCountry
p201
aVhttp://dbpedia.org/ontology/thumbnail
p202
aVhttp://dbpedia.org/property/hasPhotoCollection
p203
aVhttp://www.w3.org/2000/01/rdf-schema#label
p204
aVhttp://dbpedia.org/ontology/language
p205
aVhttp://dbpedia.org/property/title
p206
aVhttp://dbpedia.org/property/languages
p207
aVhttp://dbpedia.org/property/armiger
p208
aVhttp://dbpedia.org/property/imageMap
p209
aVhttp://dbpedia.org/ontology/location
p210
aVhttp://www.w3.org/2000/01/rdf-schema#comment
p211
aVhttp://dbpedia.org/property/countryName
p212
aVhttp://dbpedia.org/ontology/wikiPageRedirects
p213
aVhttp://dbpedia.org/property/areaServed
p214
aVhttp://dbpedia.org/ontology/hometown
p215
aVhttp://dbpedia.org/property/bankOf
p216
aVhttp://dbpedia.org/property/imageFlag
p217
aVhttp://dbpedia.org/property/remit
p218
aVhttp://dbpedia.org/property/headquarters
p219
aVhttp://dbpedia.org/property/regionServed
p220
aVhttp://xmlns.com/foaf/0.1/name
p221
aVhttp://xmlns.com/foaf/0.1/homepage
p222
aVhttp://dbpedia.org/ontology/spokenIn
p223
aVhttp://dbpedia.org/property/leaderTitle
p224
aVhttp://dbpedia.org/property/locationCountry
p225
aVhttp://dbpedia.org/property/stadium
p226
aVhttp://dbpedia.org/ontology/headquarter
p227
asI3
(lp228
sI4
(lp229
ssI2
(dp230
I0
g156
sI1
g161
sI2
(lp231
sI3
(lp232
sI4
(lp233
ssI3
(dp234
I0
g157
sI1
g228
sI2
g232
sI3
(lp235
sI4
(lp236
ssI4
(dp237
I0
g158
sI1
g229
sI2
g233
sI3
g236
sI4
(lp238
ssa(dp239
I0
(dp240
I0
(lp241
sI1
(lp242
sI2
(lp243
sI3
(lp244
sI4
(lp245
ssI1
(dp246
I0
g242
sI1
(lp247
sI2
(lp248
sI3
(lp249
sI4
(lp250
ssI2
(dp251
I0
g243
sI1
g248
sI2
(lp252
sI3
(lp253
sI4
(lp254
ssI3
(dp255
I0
g244
sI1
g249
sI2
g253
sI3
(lp256
sI4
(lp257
ssI4
(dp258
I0
g245
sI1
g250
sI2
g254
sI3
g257
sI4
(lp259
ssa(dp260
I0
(dp261
I0
(lp262
sI1
(lp263
sI2
(lp264
sI3
(lp265
sI4
(lp266
ssI1
(dp267
I0
g263
sI1
(lp268
sI2
(lp269
Vhttp://dbpedia.org/ontology/abstract
p270
aVhttp://purl.org/dc/terms/subject
p271
aVhttp://www.w3.org/2000/01/rdf-schema#comment
p272
asI3
(lp273
sI4
(lp274
ssI2
(dp275
I0
g264
sI1
g269
sI2
(lp276
sI3
(lp277
sI4
(lp278
ssI3
(dp279
I0
g265
sI1
g273
sI2
g277
sI3
(lp280
sI4
(lp281
ssI4
(dp282
I0
g266
sI1
g274
sI2
g278
sI3
g281
sI4
(lp283
ssa(dp284
I0
(dp285
I0
(lp286
sI1
(lp287
sI2
(lp288
sI3
(lp289
sI4
(lp290
ssI1
(dp291
I0
g287
sI1
(lp292
sI2
(lp293
Vhttp://dbpedia.org/property/origin
p294
aVhttp://dbpedia.org/property/placeOfDeath
p295
aVhttp://dbpedia.org/property/broadcastArea
p296
aVhttp://dbpedia.org/property/sovereigntyType
p297
aVhttp://www.w3.org/ns/prov#wasDerivedFrom
p298
aVhttp://dbpedia.org/ontology/fastestDriverCountry
p299
aVhttp://dbpedia.org/ontology/demonym
p300
aVhttp://dbpedia.org/ontology/regionServed
p301
aVhttp://dbpedia.org/ontology/nationality
p302
aVhttp://xmlns.com/foaf/0.1/isPrimaryTopicOf
p303
aVhttp://dbpedia.org/property/byCountry
p304
aVhttp://dbpedia.org/property/establishedEvent
p305
aVhttp://dbpedia.org/property/nationality
p306
aVhttp://dbpedia.org/ontology/abstract
p307
aVhttp://dbpedia.org/ontology/recordedIn
p308
aVhttp://dbpedia.org/ontology/architecturalStyle
p309
aVhttp://dbpedia.org/ontology/location
p310
aVhttp://dbpedia.org/property/imageMap
p311
aVhttp://dbpedia.org/property/officialLanguages
p312
aVhttp://dbpedia.org/property/area
p313
aVhttp://dbpedia.org/ontology/hometown
p314
aVhttp://dbpedia.org/ontology/spokenIn
p315
aVhttp://dbpedia.org/property/leaderTitle
p316
aVhttp://www.w3.org/2000/01/rdf-schema#seeAlso
p317
aVhttp://dbpedia.org/ontology/wikiPageExternalLink
p318
aVhttp://dbpedia.org/property/hostCity
p319
aVhttp://dbpedia.org/property/conventionalLongName
p320
aVhttp://dbpedia.org/ontology/foundationPlace
p321
aVhttp://dbpedia.org/ontology/poleDriverCountry
p322
aVhttp://dbpedia.org/ontology/locatedInArea
p323
aVhttp://dbpedia.org/ontology/officialLanguage
p324
aVhttp://dbpedia.org/ontology/country
p325
aVhttp://dbpedia.org/property/birthPlace
p326
aVhttp://dbpedia.org/property/country/region
p327
aVhttp://dbpedia.org/property/country
p328
aVhttp://dbpedia.org/ontology/county
p329
aVhttp://xmlns.com/foaf/0.1/primaryTopic
p330
aVhttp://dbpedia.org/ontology/campus
p331
aVhttp://dbpedia.org/ontology/firstDriverCountry
p332
aVhttp://dbpedia.org/property/states
p333
aVhttp://dbpedia.org/ontology/locationCountry
p334
aVhttp://dbpedia.org/ontology/deathPlace
p335
aVhttp://dbpedia.org/property/hasPhotoCollection
p336
aVhttp://dbpedia.org/property/locationSigned
p337
aVhttp://dbpedia.org/property/headquarters
p338
aVhttp://dbpedia.org/ontology/birthPlace
p339
aVhttp://dbpedia.org/ontology/wikiPageRedirects
p340
aVhttp://dbpedia.org/property/citizenship
p341
aVhttp://dbpedia.org/property/imageCoat
p342
aVhttp://dbpedia.org/ontology/stateOfOrigin
p343
aVhttp://www.w3.org/2002/07/owl#sameAs
p344
aVhttp://dbpedia.org/property/recorded
p345
aVhttp://dbpedia.org/ontology/longName
p346
aVhttp://www.w3.org/1999/02/22-rdf-syntax-ns#type
p347
aVhttp://dbpedia.org/property/locationCountry
p348
aVhttp://dbpedia.org/ontology/secondDriverCountry
p349
aVhttp://dbpedia.org/property/winnerOrigin
p350
aVhttp://dbpedia.org/property/namedAfter
p351
aVhttp://dbpedia.org/property/shipCountry
p352
aVhttp://dbpedia.org/property/placeOfBirth
p353
aVhttp://xmlns.com/foaf/0.1/depiction
p354
aVhttp://dbpedia.org/property/observedby
p355
aVhttp://dbpedia.org/ontology/flag
p356
aVhttp://dbpedia.org/property/commonName
p357
aVhttp://dbpedia.org/property/subdivisionName
p358
aVhttp://dbpedia.org/property/locationCity
p359
aVhttp://dbpedia.org/property/nat
p360
aVhttp://dbpedia.org/ontology/broadcastArea
p361
aVhttp://dbpedia.org/property/stadium
p362
aVhttp://dbpedia.org/property/place
p363
aVhttp://dbpedia.org/property/footnoteA
p364
aVhttp://dbpedia.org/property/caption
p365
aVhttp://dbpedia.org/ontology/thirdDriverCountry
p366
aVhttp://www.w3.org/2002/07/owl#differentFrom
p367
aVhttp://dbpedia.org/property/upperHouse
p368
aVhttp://dbpedia.org/property/locations
p369
aVhttp://dbpedia.org/ontology/place
p370
aVhttp://dbpedia.org/property/language
p371
aVhttp://dbpedia.org/property/imageFlag
p372
aVhttp://dbpedia.org/ontology/wikiPageDisambiguates
p373
aVhttp://purl.org/dc/terms/subject
p374
aVhttp://dbpedia.org/ontology/populationPlace
p375
aVhttp://dbpedia.org/property/location
p376
aVhttp://dbpedia.org/property/armiger
p377
aVhttp://dbpedia.org/ontology/headquarter
p378
aVhttp://dbpedia.org/property/foundation
p379
aVhttp://www.w3.org/2000/01/rdf-schema#label
p380
aVhttp://dbpedia.org/ontology/language
p381
aVhttp://dbpedia.org/property/title
p382
aVhttp://dbpedia.org/property/basinCountries
p383
aVhttp://www.w3.org/2000/01/rdf-schema#comment
p384
aVhttp://dbpedia.org/property/seat
p385
aVhttp://dbpedia.org/property/demonym
p386
aVhttp://dbpedia.org/property/regionServed
p387
aVhttp://xmlns.com/foaf/0.1/name
p388
aVhttp://dbpedia.org/ontology/locationCity
p389
aVhttp://dbpedia.org/property/buried
p390
aVhttp://dbpedia.org/ontology/thumbnail
p391
asI3
(lp392
sI4
(lp393
ssI2
(dp394
I0
g288
sI1
g293
sI2
(lp395
sI3
(lp396
sI4
(lp397
ssI3
(dp398
I0
g289
sI1
g392
sI2
g396
sI3
(lp399
sI4
(lp400
ssI4
(dp401
I0
g290
sI1
g393
sI2
g397
sI3
g400
sI4
(lp402
ssa(dp403
I0
(dp404
I0
(lp405
sI1
(lp406
sI2
(lp407
sI3
(lp408
sI4
(lp409
ssI1
(dp410
I0
g406
sI1
(lp411
sI2
(lp412
Vhttp://www.w3.org/2000/01/rdf-schema#seeAlso
p413
aVhttp://dbpedia.org/property/currency
p414
aVhttp://dbpedia.org/property/hostCity
p415
aVhttp://dbpedia.org/ontology/currency
p416
aVhttp://dbpedia.org/property/place
p417
aVhttp://dbpedia.org/property/city
p418
aVhttp://dbpedia.org/property/caption
p419
aVhttp://dbpedia.org/ontology/demonym
p420
aVhttp://dbpedia.org/ontology/officialLanguage
p421
aVhttp://dbpedia.org/ontology/regionServed
p422
aVhttp://dbpedia.org/ontology/country
p423
aVhttp://dbpedia.org/property/officialLanguages
p424
aVhttp://dbpedia.org/property/birthPlace
p425
aVhttp://dbpedia.org/ontology/place
p426
aVhttp://dbpedia.org/ontology/ethnicGroup
p427
aVhttp://dbpedia.org/property/country
p428
aVhttp://dbpedia.org/property/circuitImage
p429
aVhttp://dbpedia.org/property/establishedEvent
p430
aVhttp://dbpedia.org/ontology/wikiPageExternalLink
p431
aVhttp://dbpedia.org/ontology/populationPlace
p432
aVhttp://dbpedia.org/property/origin
p433
aVhttp://dbpedia.org/ontology/abstract
p434
aVhttp://dbpedia.org/ontology/spokenIn
p435
aVhttp://dbpedia.org/property/location
p436
aVhttp://dbpedia.org/ontology/usingCountry
p437
aVhttp://dbpedia.org/property/states
p438
aVhttp://dbpedia.org/ontology/headquarter
p439
aVhttp://dbpedia.org/ontology/language
p440
aVhttp://dbpedia.org/ontology/location
p441
aVhttp://dbpedia.org/property/asPartOf
p442
aVhttp://dbpedia.org/property/headquarters
p443
aVhttp://www.w3.org/2000/01/rdf-schema#comment
p444
aVhttp://dbpedia.org/ontology/birthPlace
p445
aVhttp://dbpedia.org/ontology/wikiPageRedirects
p446
aVhttp://dbpedia.org/property/area
p447
aVhttp://dbpedia.org/ontology/hometown
p448
aVhttp://dbpedia.org/property/bankOf
p449
aVhttp://dbpedia.org/property/demonym
p450
aVhttp://dbpedia.org/property/regionServed
p451
asI3
(lp452
sI4
(lp453
ssI2
(dp454
I0
g407
sI1
g412
sI2
(lp455
sI3
(lp456
sI4
(lp457
ssI3
(dp458
I0
g408
sI1
g452
sI2
g456
sI3
(lp459
sI4
(lp460
ssI4
(dp461
I0
g409
sI1
g453
sI2
g457
sI3
g460
sI4
(lp462
ssa(dp463
I0
(dp464
I0
(lp465
sI1
(lp466
sI2
(lp467
sI3
(lp468
sI4
(lp469
ssI1
(dp470
I0
g466
sI1
(lp471
sI2
(lp472
Vhttp://www.w3.org/2000/01/rdf-schema#seeAlso
p473
aVhttp://dbpedia.org/property/origin
p474
aVhttp://dbpedia.org/property/stadium
p475
aVhttp://dbpedia.org/property/recorded
p476
aVhttp://dbpedia.org/property/broadcastArea
p477
aVhttp://dbpedia.org/ontology/origin
p478
aVhttp://dbpedia.org/property/conventionalLongName
p479
aVhttp://dbpedia.org/property/bases
p480
aVhttp://dbpedia.org/property/place
p481
aVhttp://dbpedia.org/ontology/jurisdiction
p482
aVhttp://dbpedia.org/ontology/foundationPlace
p483
aVhttp://dbpedia.org/property/city
p484
aVhttp://dbpedia.org/ontology/garrison
p485
aVhttp://dbpedia.org/ontology/longName
p486
aVhttp://dbpedia.org/property/legislature
p487
aVhttp://dbpedia.org/ontology/fastestDriverCountry
p488
aVhttp://dbpedia.org/property/footnoteB
p489
aVhttp://dbpedia.org/ontology/demonym
p490
aVhttp://dbpedia.org/ontology/officialLanguage
p491
aVhttp://dbpedia.org/ontology/regionServed
p492
aVhttp://dbpedia.org/ontology/country
p493
aVhttp://www.w3.org/1999/02/22-rdf-syntax-ns#type
p494
aVhttp://www.w3.org/2002/07/owl#differentFrom
p495
aVhttp://dbpedia.org/property/locationCountry
p496
aVhttp://dbpedia.org/ontology/secondDriverCountry
p497
aVhttp://dbpedia.org/property/allegiance
p498
aVhttp://dbpedia.org/property/site
p499
aVhttp://dbpedia.org/property/combatant
p500
aVhttp://dbpedia.org/property/country/region
p501
aVhttp://dbpedia.org/ontology/place
p502
aVhttp://dbpedia.org/property/placeOfBirth
p503
aVhttp://dbpedia.org/property/country
p504
aVhttp://dbpedia.org/property/shipCountry
p505
aVhttp://dbpedia.org/property/establishedEvent
p506
aVhttp://dbpedia.org/ontology/targetAirport
p507
aVhttp://purl.org/dc/terms/subject
p508
aVhttp://dbpedia.org/ontology/populationPlace
p509
aVhttp://dbpedia.org/ontology/abstract
p510
aVhttp://dbpedia.org/ontology/recordedIn
p511
aVhttp://dbpedia.org/ontology/firstDriverCountry
p512
aVhttp://dbpedia.org/property/location
p513
aVhttp://dbpedia.org/ontology/usingCountry
p514
aVhttp://dbpedia.org/property/states
p515
aVhttp://dbpedia.org/ontology/locationCountry
p516
aVhttp://dbpedia.org/ontology/headquarter
p517
aVhttp://dbpedia.org/ontology/city
p518
aVhttp://dbpedia.org/property/shipNamesake
p519
aVhttp://dbpedia.org/ontology/language
p520
aVhttp://dbpedia.org/property/officialLanguages
p521
aVhttp://dbpedia.org/property/basinCountries
p522
aVhttp://dbpedia.org/property/garrison
p523
aVhttp://dbpedia.org/ontology/location
p524
aVhttp://dbpedia.org/property/birthPlace
p525
aVhttp://dbpedia.org/ontology/birthPlace
p526
aVhttp://www.w3.org/2000/01/rdf-schema#comment
p527
aVhttp://dbpedia.org/ontology/wikiPageRedirects
p528
aVhttp://dbpedia.org/property/area
p529
aVhttp://dbpedia.org/ontology/hometown
p530
aVhttp://dbpedia.org/ontology/poleDriverCountry
p531
aVhttp://dbpedia.org/property/demonym
p532
aVhttp://dbpedia.org/property/areaServed
p533
aVhttp://dbpedia.org/property/headquarters
p534
aVhttp://dbpedia.org/property/regionServed
p535
aVhttp://dbpedia.org/ontology/spokenIn
p536
aVhttp://dbpedia.org/property/jurisdiction
p537
aVhttp://dbpedia.org/ontology/thirdDriverCountry
p538
aVhttp://dbpedia.org/property/remit
p539
aVhttp://dbpedia.org/property/observedby
p540
asI3
(lp541
sI4
(lp542
Vhttp://dbpedia.org/property/country
p543
aVhttp://dbpedia.org/ontology/birthPlace
p544
aVhttp://dbpedia.org/property/location
p545
aVhttp://dbpedia.org/property/placeOfBirth
p546
assI2
(dp547
I0
g467
sI1
g472
sI2
(lp548
sI3
(lp549
sI4
(lp550
ssI3
(dp551
I0
g468
sI1
g541
sI2
g549
sI3
(lp552
sI4
(lp553
ssI4
(dp554
I0
g469
sI1
g542
sI2
g550
sI3
g553
sI4
(lp555
ssa(dp556
I0
(dp557
I0
(lp558
sI1
(lp559
sI2
(lp560
sI3
(lp561
sI4
(lp562
ssI1
(dp563
I0
g559
sI1
(lp564
sI2
(lp565
Vhttp://www.w3.org/2000/01/rdf-schema#seeAlso
p566
aVhttp://dbpedia.org/property/origin
p567
aVhttp://dbpedia.org/ontology/type
p568
aVhttp://dbpedia.org/ontology/currency
p569
aVhttp://dbpedia.org/property/place
p570
aVhttp://dbpedia.org/property/city
p571
aVhttp://dbpedia.org/ontology/garrison
p572
aVhttp://dbpedia.org/property/territory
p573
aVhttp://dbpedia.org/ontology/demonym
p574
aVhttp://dbpedia.org/ontology/regionServed
p575
aVhttp://dbpedia.org/ontology/country
p576
aVhttp://dbpedia.org/property/locationCountry
p577
aVhttp://dbpedia.org/ontology/place
p578
aVhttp://dbpedia.org/property/locationSigned
p579
aVhttp://dbpedia.org/property/owner
p580
aVhttp://dbpedia.org/property/country
p581
aVhttp://dbpedia.org/property/establishedEvent
p582
aVhttp://dbpedia.org/ontology/populationPlace
p583
aVhttp://dbpedia.org/ontology/abstract
p584
aVhttp://dbpedia.org/ontology/spokenIn
p585
aVhttp://dbpedia.org/property/location
p586
aVhttp://dbpedia.org/ontology/usingCountry
p587
aVhttp://dbpedia.org/ontology/locationCountry
p588
aVhttp://dbpedia.org/ontology/headquarter
p589
aVhttp://dbpedia.org/ontology/language
p590
aVhttp://dbpedia.org/ontology/location
p591
aVhttp://dbpedia.org/property/languages
p592
aVhttp://dbpedia.org/property/headquarters
p593
aVhttp://www.w3.org/2000/01/rdf-schema#comment
p594
aVhttp://dbpedia.org/ontology/wikiPageRedirects
p595
aVhttp://dbpedia.org/property/area
p596
aVhttp://dbpedia.org/ontology/hometown
p597
aVhttp://dbpedia.org/property/demonym
p598
aVhttp://dbpedia.org/property/areaServed
p599
aVhttp://dbpedia.org/property/regionServed
p600
aVhttp://dbpedia.org/property/foundingLocation
p601
asI3
(lp602
sI4
(lp603
ssI2
(dp604
I0
g560
sI1
g565
sI2
(lp605
sI3
(lp606
sI4
(lp607
ssI3
(dp608
I0
g561
sI1
g602
sI2
g606
sI3
(lp609
sI4
(lp610
ssI4
(dp611
I0
g562
sI1
g603
sI2
g607
sI3
g610
sI4
(lp612
ssa(dp613
I0
(dp614
I0
(lp615
sI1
(lp616
sI2
(lp617
sI3
(lp618
sI4
(lp619
ssI1
(dp620
I0
g616
sI1
(lp621
sI2
(lp622
Vhttp://www.w3.org/2000/01/rdf-schema#seeAlso
p623
aVhttp://dbpedia.org/property/currency
p624
aVhttp://dbpedia.org/property/stadium
p625
aVhttp://dbpedia.org/property/broadcastArea
p626
aVhttp://dbpedia.org/ontology/origin
p627
aVhttp://dbpedia.org/property/conventionalLongName
p628
aVhttp://dbpedia.org/property/place
p629
aVhttp://dbpedia.org/property/city
p630
aVhttp://dbpedia.org/ontology/isPartOfMilitaryConflict
p631
aVhttp://dbpedia.org/property/placeOfDeath
p632
aVhttp://dbpedia.org/ontology/longName
p633
aVhttp://dbpedia.org/property/caption
p634
aVhttp://dbpedia.org/property/territory
p635
aVhttp://dbpedia.org/ontology/demonym
p636
aVhttp://dbpedia.org/ontology/officialLanguage
p637
aVhttp://dbpedia.org/property/possessions
p638
aVhttp://dbpedia.org/ontology/regionServed
p639
aVhttp://dbpedia.org/ontology/country
p640
aVhttp://dbpedia.org/property/region
p641
aVhttp://www.w3.org/1999/02/22-rdf-syntax-ns#type
p642
aVhttp://dbpedia.org/ontology/locationCountry
p643
aVhttp://www.w3.org/2002/07/owl#differentFrom
p644
aVhttp://dbpedia.org/property/locationCountry
p645
aVhttp://dbpedia.org/property/image
p646
aVhttp://dbpedia.org/property/officialLanguages
p647
aVhttp://dbpedia.org/property/birthPlace
p648
aVhttp://dbpedia.org/ontology/place
p649
aVhttp://dbpedia.org/ontology/ethnicGroup
p650
aVhttp://dbpedia.org/ontology/currency
p651
aVhttp://dbpedia.org/property/country
p652
aVhttp://dbpedia.org/property/shipCountry
p653
aVhttp://dbpedia.org/property/establishedEvent
p654
aVhttp://dbpedia.org/property/placeOfBirth
p655
aVhttp://dbpedia.org/ontology/wikiPageExternalLink
p656
aVhttp://purl.org/dc/terms/subject
p657
aVhttp://dbpedia.org/property/origin
p658
aVhttp://dbpedia.org/ontology/abstract
p659
aVhttp://dbpedia.org/property/imageCoat
p660
aVhttp://dbpedia.org/property/deathPlace
p661
aVhttp://dbpedia.org/property/location
p662
aVhttp://dbpedia.org/ontology/builder
p663
aVhttp://dbpedia.org/ontology/ideology
p664
aVhttp://dbpedia.org/ontology/headquarter
p665
aVhttp://dbpedia.org/property/headquarter
p666
aVhttp://dbpedia.org/property/regionServed
p667
aVhttp://dbpedia.org/property/usedBy
p668
aVhttp://dbpedia.org/property/shipNamesake
p669
aVhttp://dbpedia.org/property/controlledby
p670
aVhttp://dbpedia.org/ontology/language
p671
aVhttp://dbpedia.org/ontology/location
p672
aVhttp://dbpedia.org/property/locale
p673
aVhttp://dbpedia.org/property/imageMap
p674
aVhttp://dbpedia.org/property/shipBuilder
p675
aVhttp://dbpedia.org/property/headquarters
p676
aVhttp://www.w3.org/2000/01/rdf-schema#comment
p677
aVhttp://dbpedia.org/ontology/birthPlace
p678
aVhttp://dbpedia.org/property/address
p679
aVhttp://dbpedia.org/ontology/wikiPageRedirects
p680
aVhttp://dbpedia.org/ontology/hometown
p681
aVhttp://dbpedia.org/property/demonym
p682
aVhttp://dbpedia.org/property/areaServed
p683
aVhttp://dbpedia.org/ontology/spokenIn
p684
aVhttp://dbpedia.org/property/foundingLocation
p685
aVhttp://dbpedia.org/property/builders
p686
aVhttp://dbpedia.org/property/remit
p687
aVhttp://dbpedia.org/ontology/deathPlace
p688
asI3
(lp689
sI4
(lp690
ssI2
(dp691
I0
g617
sI1
g622
sI2
(lp692
sI3
(lp693
sI4
(lp694
ssI3
(dp695
I0
g618
sI1
g689
sI2
g693
sI3
(lp696
sI4
(lp697
ssI4
(dp698
I0
g619
sI1
g690
sI2
g694
sI3
g697
sI4
(lp699
ssa(dp700
I0
(dp701
I0
(lp702
sI1
(lp703
sI2
(lp704
sI3
(lp705
sI4
(lp706
ssI1
(dp707
I0
g703
sI1
(lp708
sI2
(lp709
Vhttp://www.w3.org/2000/01/rdf-schema#seeAlso
p710
aVhttp://dbpedia.org/property/origin
p711
aVhttp://dbpedia.org/property/cities
p712
aVhttp://dbpedia.org/property/conventionalLongName
p713
aVhttp://dbpedia.org/property/place
p714
aVhttp://dbpedia.org/property/footnoteA
p715
aVhttp://dbpedia.org/ontology/longName
p716
aVhttp://www.w3.org/ns/prov#wasDerivedFrom
p717
aVhttp://dbpedia.org/ontology/locatedInArea
p718
aVhttp://dbpedia.org/property/footnoteB
p719
aVhttp://dbpedia.org/ontology/demonym
p720
aVhttp://dbpedia.org/ontology/officialLanguage
p721
aVhttp://dbpedia.org/ontology/regionServed
p722
aVhttp://dbpedia.org/ontology/country
p723
aVhttp://dbpedia.org/property/nationalAnthem
p724
aVhttp://www.w3.org/2002/07/owl#differentFrom
p725
aVhttp://dbpedia.org/property/locationCountry
p726
aVhttp://dbpedia.org/property/available
p727
aVhttp://dbpedia.org/property/bankOf
p728
aVhttp://dbpedia.org/ontology/place
p729
aVhttp://dbpedia.org/ontology/ethnicGroup
p730
aVhttp://dbpedia.org/property/stateParty
p731
aVhttp://dbpedia.org/property/country
p732
aVhttp://dbpedia.org/ontology/headquarter
p733
aVhttp://dbpedia.org/ontology/wikiPageDisambiguates
p734
aVhttp://xmlns.com/foaf/0.1/isPrimaryTopicOf
p735
aVhttp://dbpedia.org/ontology/wikiPageExternalLink
p736
aVhttp://xmlns.com/foaf/0.1/primaryTopic
p737
aVhttp://purl.org/dc/terms/subject
p738
aVhttp://dbpedia.org/ontology/populationPlace
p739
aVhttp://dbpedia.org/ontology/flag
p740
aVhttp://dbpedia.org/ontology/abstract
p741
aVhttp://xmlns.com/foaf/0.1/depiction
p742
aVhttp://dbpedia.org/property/demonym
p743
aVhttp://dbpedia.org/property/location
p744
aVhttp://dbpedia.org/ontology/usingCountry
p745
aVhttp://dbpedia.org/property/states
p746
aVhttp://dbpedia.org/ontology/locationCountry
p747
aVhttp://dbpedia.org/ontology/thumbnail
p748
aVhttp://dbpedia.org/property/namedAfter
p749
aVhttp://dbpedia.org/property/commonName
p750
aVhttp://dbpedia.org/property/hasPhotoCollection
p751
aVhttp://www.w3.org/2000/01/rdf-schema#label
p752
aVhttp://dbpedia.org/ontology/language
p753
aVhttp://dbpedia.org/ontology/broadcastArea
p754
aVhttp://dbpedia.org/property/armiger
p755
aVhttp://dbpedia.org/property/imageMap
p756
aVhttp://dbpedia.org/property/officialLanguages
p757
aVhttp://www.w3.org/2000/01/rdf-schema#comment
p758
aVhttp://dbpedia.org/property/countryName
p759
aVhttp://dbpedia.org/ontology/wikiPageRedirects
p760
aVhttp://dbpedia.org/property/area
p761
aVhttp://dbpedia.org/ontology/hometown
p762
aVhttp://dbpedia.org/property/destination
p763
aVhttp://dbpedia.org/property/imageFlag
p764
aVhttp://www.w3.org/2002/07/owl#sameAs
p765
aVhttp://dbpedia.org/property/headquarters
p766
aVhttp://dbpedia.org/property/imageCoat
p767
aVhttp://xmlns.com/foaf/0.1/name
p768
aVhttp://xmlns.com/foaf/0.1/homepage
p769
aVhttp://dbpedia.org/property/legislature
p770
aVhttp://dbpedia.org/ontology/spokenIn
p771
aVhttp://dbpedia.org/property/leaderTitle
p772
aVhttp://dbpedia.org/property/stadium
p773
aVhttp://dbpedia.org/ontology/location
p774
asI3
(lp775
sI4
(lp776
ssI2
(dp777
I0
g704
sI1
g709
sI2
(lp778
sI3
(lp779
sI4
(lp780
ssI3
(dp781
I0
g705
sI1
g775
sI2
g779
sI3
(lp782
sI4
(lp783
ssI4
(dp784
I0
g706
sI1
g776
sI2
g780
sI3
g783
sI4
(lp785
ssa(dp786
I0
(dp787
I0
(lp788
sI1
(lp789
sI2
(lp790
sI3
(lp791
sI4
(lp792
ssI1
(dp793
I0
g789
sI1
(lp794
sI2
(lp795
Vhttp://www.w3.org/2000/01/rdf-schema#seeAlso
p796
aVhttp://dbpedia.org/property/origin
p797
aVhttp://dbpedia.org/ontology/poleDriverCountry
p798
aVhttp://dbpedia.org/ontology/demonym
p799
aVhttp://dbpedia.org/property/demonym
p800
aVhttp://dbpedia.org/ontology/country
p801
aVhttp://www.w3.org/1999/02/22-rdf-syntax-ns#type
p802
aVhttp://dbpedia.org/property/locationCountry
p803
aVhttp://dbpedia.org/ontology/secondDriverCountry
p804
aVhttp://dbpedia.org/property/allegiance
p805
aVhttp://dbpedia.org/property/birthPlace
p806
aVhttp://dbpedia.org/ontology/place
p807
aVhttp://dbpedia.org/ontology/ethnicGroup
p808
aVhttp://dbpedia.org/property/office
p809
aVhttp://dbpedia.org/property/garrison
p810
aVhttp://dbpedia.org/property/country
p811
aVhttp://dbpedia.org/property/shipCountry
p812
aVhttp://dbpedia.org/property/areaServed
p813
aVhttp://dbpedia.org/property/placeOfBirth
p814
aVhttp://dbpedia.org/ontology/ideology
p815
aVhttp://purl.org/dc/terms/subject
p816
aVhttp://dbpedia.org/property/ideology
p817
aVhttp://dbpedia.org/ontology/abstract
p818
aVhttp://dbpedia.org/ontology/firstDriverCountry
p819
aVhttp://dbpedia.org/property/location
p820
aVhttp://dbpedia.org/property/states
p821
aVhttp://dbpedia.org/ontology/locationCountry
p822
aVhttp://dbpedia.org/ontology/headquarter
p823
aVhttp://dbpedia.org/ontology/language
p824
aVhttp://dbpedia.org/ontology/location
p825
aVhttp://dbpedia.org/property/languages
p826
aVhttp://dbpedia.org/ontology/territory
p827
aVhttp://dbpedia.org/property/shipBuilder
p828
aVhttp://dbpedia.org/property/headquarters
p829
aVhttp://www.w3.org/2000/01/rdf-schema#comment
p830
aVhttp://dbpedia.org/ontology/birthPlace
p831
aVhttp://dbpedia.org/ontology/wikiPageRedirects
p832
aVhttp://dbpedia.org/ontology/hometown
p833
aVhttp://dbpedia.org/ontology/garrison
p834
aVhttp://dbpedia.org/property/locationCity
p835
aVhttp://dbpedia.org/ontology/spokenIn
p836
aVhttp://dbpedia.org/ontology/builder
p837
aVhttp://dbpedia.org/property/jurisdiction
p838
aVhttp://dbpedia.org/ontology/locationCity
p839
aVhttp://dbpedia.org/ontology/deathPlace
p840
asI3
(lp841
sI4
(lp842
Vhttp://dbpedia.org/ontology/birthPlace
p843
aVhttp://dbpedia.org/property/place
p844
aVhttp://dbpedia.org/property/location
p845
aVhttp://dbpedia.org/property/placeOfBirth
p846
aVhttp://dbpedia.org/property/country
p847
aVhttp://dbpedia.org/property/stadium
p848
assI2
(dp849
I0
g790
sI1
g795
sI2
(lp850
sI3
(lp851
sI4
(lp852
ssI3
(dp853
I0
g791
sI1
g841
sI2
g851
sI3
(lp854
sI4
(lp855
ssI4
(dp856
I0
g792
sI1
g842
sI2
g852
sI3
g855
sI4
(lp857
ssa(dp858
I0
(dp859
I0
(lp860
sI1
(lp861
sI2
(lp862
sI3
(lp863
sI4
(lp864
ssI1
(dp865
I0
g861
sI1
(lp866
sI2
(lp867
Vhttp://dbpedia.org/ontology/place
p868
asI3
(lp869
sI4
(lp870
ssI2
(dp871
I0
g862
sI1
g867
sI2
(lp872
sI3
(lp873
sI4
(lp874
ssI3
(dp875
I0
g863
sI1
g869
sI2
g873
sI3
(lp876
sI4
(lp877
ssI4
(dp878
I0
g864
sI1
g870
sI2
g874
sI3
g877
sI4
(lp879
ssa(dp880
I0
(dp881
I0
(lp882
sI1
(lp883
sI2
(lp884
sI3
(lp885
sI4
(lp886
ssI1
(dp887
I0
g883
sI1
(lp888
sI2
(lp889
Vhttp://www.w3.org/2000/01/rdf-schema#seeAlso
p890
aVhttp://dbpedia.org/property/currency
p891
aVhttp://dbpedia.org/ontology/origin
p892
aVhttp://dbpedia.org/ontology/currency
p893
aVhttp://dbpedia.org/property/usingJurisdiction
p894
aVhttp://dbpedia.org/property/place
p895
aVhttp://dbpedia.org/ontology/foundationPlace
p896
aVhttp://dbpedia.org/property/caption
p897
aVhttp://dbpedia.org/property/territory
p898
aVhttp://dbpedia.org/ontology/demonym
p899
aVhttp://dbpedia.org/property/site
p900
aVhttp://dbpedia.org/ontology/regionServed
p901
aVhttp://dbpedia.org/ontology/country
p902
aVhttp://dbpedia.org/property/locationCountry
p903
aVhttp://dbpedia.org/ontology/officialLanguage
p904
aVhttp://dbpedia.org/property/birthPlace
p905
aVhttp://dbpedia.org/ontology/place
p906
aVhttp://dbpedia.org/property/placeOfBirth
p907
aVhttp://dbpedia.org/property/country
p908
aVhttp://dbpedia.org/property/areaServed
p909
aVhttp://dbpedia.org/ontology/ethnicGroup
p910
aVhttp://dbpedia.org/ontology/populationPlace
p911
aVhttp://dbpedia.org/property/origin
p912
aVhttp://dbpedia.org/ontology/abstract
p913
aVhttp://dbpedia.org/ontology/spokenIn
p914
aVhttp://dbpedia.org/property/location
p915
aVhttp://dbpedia.org/ontology/usingCountry
p916
aVhttp://dbpedia.org/property/states
p917
aVhttp://dbpedia.org/ontology/locationCountry
p918
aVhttp://dbpedia.org/ontology/headquarter
p919
aVhttp://dbpedia.org/property/officialLanguages
p920
aVhttp://dbpedia.org/property/allies
p921
aVhttp://dbpedia.org/ontology/language
p922
aVhttp://dbpedia.org/ontology/location
p923
aVhttp://dbpedia.org/property/headquarters
p924
aVhttp://www.w3.org/2000/01/rdf-schema#comment
p925
aVhttp://dbpedia.org/ontology/birthPlace
p926
aVhttp://dbpedia.org/ontology/wikiPageRedirects
p927
aVhttp://dbpedia.org/ontology/hometown
p928
aVhttp://dbpedia.org/property/regionServed
p929
aVhttp://dbpedia.org/property/jurisdiction
p930
asI3
(lp931
sI4
(lp932
ssI2
(dp933
I0
g884
sI1
g889
sI2
(lp934
sI3
(lp935
Vhttp://dbpedia.org/ontology/wikiPageExternalLink
p936
asI4
(lp937
ssI3
(dp938
I0
g885
sI1
g931
sI2
g935
sI3
(lp939
sI4
(lp940
Vhttp://dbpedia.org/ontology/wikiPageExternalLink
p941
assI4
(dp942
I0
g886
sI1
g932
sI2
g937
sI3
g940
sI4
(lp943
ssa(dp944
I0
(dp945
I0
(lp946
sI1
(lp947
sI2
(lp948
sI3
(lp949
sI4
(lp950
ssI1
(dp951
I0
g947
sI1
(lp952
sI2
(lp953
Vhttp://dbpedia.org/property/origin
p954
aVhttp://dbpedia.org/property/recorded
p955
aVhttp://dbpedia.org/ontology/origin
p956
aVhttp://dbpedia.org/ontology/regionServed
p957
aVhttp://dbpedia.org/ontology/country
p958
aVhttp://www.w3.org/1999/02/22-rdf-syntax-ns#type
p959
aVhttp://dbpedia.org/property/locationCountry
p960
aVhttp://dbpedia.org/ontology/nationality
p961
aVhttp://dbpedia.org/property/birthPlace
p962
aVhttp://dbpedia.org/property/placeOfBirth
p963
aVhttp://dbpedia.org/property/country
p964
aVhttp://purl.org/dc/terms/subject
p965
aVhttp://dbpedia.org/property/nationality
p966
aVhttp://dbpedia.org/ontology/abstract
p967
aVhttp://dbpedia.org/ontology/recordedIn
p968
aVhttp://dbpedia.org/property/location
p969
aVhttp://dbpedia.org/ontology/locationCountry
p970
aVhttp://dbpedia.org/ontology/deathPlace
p971
aVhttp://dbpedia.org/ontology/language
p972
aVhttp://dbpedia.org/ontology/location
p973
aVhttp://dbpedia.org/property/languages
p974
aVhttp://dbpedia.org/ontology/stateOfOrigin
p975
aVhttp://dbpedia.org/property/headquarters
p976
aVhttp://dbpedia.org/ontology/birthPlace
p977
aVhttp://dbpedia.org/property/nationalOrigin
p978
aVhttp://dbpedia.org/ontology/hometown
p979
aVhttp://dbpedia.org/property/regionServed
p980
aVhttp://dbpedia.org/ontology/spokenIn
p981
aVhttp://dbpedia.org/property/data
p982
aVhttp://dbpedia.org/ontology/headquarter
p983
asI3
(lp984
sI4
(lp985
ssI2
(dp986
I0
g948
sI1
g953
sI2
(lp987
sI3
(lp988
sI4
(lp989
ssI3
(dp990
I0
g949
sI1
g984
sI2
g988
sI3
(lp991
sI4
(lp992
ssI4
(dp993
I0
g950
sI1
g985
sI2
g989
sI3
g992
sI4
(lp994
ssa(dp995
I0
(dp996
I0
(lp997
sI1
(lp998
sI2
(lp999
sI3
(lp1000
sI4
(lp1001
ssI1
(dp1002
I0
g998
sI1
(lp1003
sI2
(lp1004
Vhttp://dbpedia.org/property/origin
p1005
aVhttp://dbpedia.org/property/placeOfDeath
p1006
aVhttp://dbpedia.org/ontology/sourceCountry
p1007
aVhttp://dbpedia.org/property/footnoteA
p1008
aVhttp://dbpedia.org/property/footnoteB
p1009
aVhttp://dbpedia.org/ontology/country
p1010
aVhttp://dbpedia.org/property/region
p1011
aVhttp://www.w3.org/1999/02/22-rdf-syntax-ns#type
p1012
aVhttp://dbpedia.org/property/allegiance
p1013
aVhttp://dbpedia.org/ontology/nationality
p1014
aVhttp://dbpedia.org/property/birthPlace
p1015
aVhttp://dbpedia.org/property/placeOfBirth
p1016
aVhttp://dbpedia.org/ontology/residence
p1017
aVhttp://dbpedia.org/property/country
p1018
aVhttp://dbpedia.org/property/regionalLanguages
p1019
aVhttp://purl.org/dc/terms/subject
p1020
aVhttp://dbpedia.org/ontology/populationPlace
p1021
aVhttp://dbpedia.org/property/nationality
p1022
aVhttp://dbpedia.org/property/location
p1023
aVhttp://dbpedia.org/property/deathPlace
p1024
aVhttp://dbpedia.org/ontology/deathPlace
p1025
aVhttp://dbpedia.org/property/subdivisionName
p1026
aVhttp://dbpedia.org/ontology/language
p1027
aVhttp://dbpedia.org/ontology/regionalLanguage
p1028
aVhttp://dbpedia.org/property/languages
p1029
aVhttp://dbpedia.org/property/basinCountries
p1030
aVhttp://dbpedia.org/ontology/location
p1031
aVhttp://dbpedia.org/ontology/birthPlace
p1032
aVhttp://dbpedia.org/ontology/hometown
p1033
aVhttp://dbpedia.org/property/locationCity
p1034
aVhttp://dbpedia.org/ontology/spokenIn
p1035
aVhttp://dbpedia.org/ontology/stateOfOrigin
p1036
aVhttp://dbpedia.org/ontology/locationCity
p1037
asI3
(lp1038
sI4
(lp1039
Vhttp://dbpedia.org/ontology/wikiPageExternalLink
p1040
assI2
(dp1041
I0
g999
sI1
g1004
sI2
(lp1042
sI3
(lp1043
sI4
(lp1044
ssI3
(dp1045
I0
g1000
sI1
g1038
sI2
g1043
sI3
(lp1046
sI4
(lp1047
ssI4
(dp1048
I0
g1001
sI1
g1039
sI2
g1044
sI3
g1047
sI4
(lp1049
ssa(dp1050
I0
(dp1051
I0
(lp1052
sI1
(lp1053
sI2
(lp1054
sI3
(lp1055
sI4
(lp1056
ssI1
(dp1057
I0
g1053
sI1
(lp1058
sI2
(lp1059
Vhttp://dbpedia.org/property/origin
p1060
aVhttp://dbpedia.org/property/placeOfDeath
p1061
aVhttp://dbpedia.org/ontology/sourceCountry
p1062
aVhttp://dbpedia.org/property/footnoteA
p1063
aVhttp://dbpedia.org/property/footnoteB
p1064
aVhttp://dbpedia.org/ontology/country
p1065
aVhttp://dbpedia.org/property/region
p1066
aVhttp://www.w3.org/1999/02/22-rdf-syntax-ns#type
p1067
aVhttp://dbpedia.org/property/allegiance
p1068
aVhttp://dbpedia.org/ontology/nationality
p1069
aVhttp://dbpedia.org/property/birthPlace
p1070
aVhttp://dbpedia.org/property/placeOfBirth
p1071
aVhttp://dbpedia.org/ontology/residence
p1072
aVhttp://dbpedia.org/property/country
p1073
aVhttp://dbpedia.org/property/regionalLanguages
p1074
aVhttp://purl.org/dc/terms/subject
p1075
aVhttp://dbpedia.org/ontology/populationPlace
p1076
aVhttp://dbpedia.org/property/nationality
p1077
aVhttp://dbpedia.org/property/location
p1078
aVhttp://dbpedia.org/property/deathPlace
p1079
aVhttp://dbpedia.org/ontology/deathPlace
p1080
aVhttp://dbpedia.org/property/subdivisionName
p1081
aVhttp://dbpedia.org/ontology/language
p1082
aVhttp://dbpedia.org/ontology/regionalLanguage
p1083
aVhttp://dbpedia.org/property/languages
p1084
aVhttp://dbpedia.org/property/basinCountries
p1085
aVhttp://dbpedia.org/ontology/location
p1086
aVhttp://dbpedia.org/ontology/birthPlace
p1087
aVhttp://dbpedia.org/ontology/hometown
p1088
aVhttp://dbpedia.org/property/locationCity
p1089
aVhttp://dbpedia.org/ontology/spokenIn
p1090
aVhttp://dbpedia.org/ontology/stateOfOrigin
p1091
aVhttp://dbpedia.org/ontology/locationCity
p1092
asI3
(lp1093
sI4
(lp1094
Vhttp://dbpedia.org/ontology/wikiPageExternalLink
p1095
assI2
(dp1096
I0
g1054
sI1
g1059
sI2
(lp1097
sI3
(lp1098
sI4
(lp1099
ssI3
(dp1100
I0
g1055
sI1
g1093
sI2
g1098
sI3
(lp1101
sI4
(lp1102
ssI4
(dp1103
I0
g1056
sI1
g1094
sI2
g1099
sI3
g1102
sI4
(lp1104
ssa.