(lp1
(dp2
I0
(dp3
I0
(lp4
sI1
(lp5
sI2
(lp6
sI3
(lp7
ssI1
(dp8
I0
g5
sI1
(lp9
sI2
(lp10
sI3
(lp11
ssI2
(dp12
I0
g6
sI1
g10
sI2
(lp13
sI3
(lp14
ssI3
(dp15
I0
g7
sI1
g11
sI3
(lp16
ssa(dp17
I0
(dp18
I0
(lp19
sI1
(lp20
sI2
(lp21
sI3
(lp22
ssI1
(dp23
I1
(lp24
sI2
(lp25
sI3
(lp26
ssI2
(dp27
I0
g21
sI1
g25
sI2
(lp28
sI3
(lp29
ssI3
(dp30
I0
g22
sI1
g26
sI2
g29
sI3
(lp31
ssa(dp32
I0
(dp33
I0
(lp34
sI1
(lp35
sI2
(lp36
sI3
(lp37
ssI1
(dp38
I1
(lp39
sI2
(lp40
sI3
(lp41
ssI2
(dp42
I0
g36
sI1
g40
sI2
(lp43
sI3
(lp44
ssI3
(dp45
I0
g37
sI1
g41
sI2
g44
sI3
(lp46
ssa(dp47
I0
(dp48
I0
(lp49
sI1
(lp50
sI2
(lp51
sI3
(lp52
ssI1
(dp53
I0
g50
sI1
(lp54
sI2
(lp55
sI3
(lp56
ssI2
(dp57
I0
g51
sI1
g55
sI2
(lp58
sI3
(lp59
ssI3
(dp60
I0
g52
sI1
g56
sI2
g59
sI3
(lp61
ssa(dp62
I0
(dp63
I0
(lp64
sI1
(lp65
sI2
(lp66
sI3
(lp67
ssI1
(dp68
I0
g65
sI1
(lp69
sI2
(lp70
sI3
(lp71
ssI2
(dp72
I0
g66
sI1
g70
sI2
(lp73
sI3
(lp74
ssI3
(dp75
I0
g67
sI1
g71
sI2
g74
sI3
(lp76
ssa(dp77
I0
(dp78
I0
(lp79
sI1
(lp80
sI2
(lp81
sI3
(lp82
ssI1
(dp83
I0
g80
sI1
(lp84
sI2
(lp85
sI3
(lp86
ssI2
(dp87
I0
g81
sI1
g85
sI2
(lp88
sI3
(lp89
ssI3
(dp90
I0
g82
sI1
g86
sI2
g89
sI3
(lp91
ssa(dp92
I0
(dp93
I0
(lp94
sI1
(lp95
sI2
(lp96
sI3
(lp97
ssI1
(dp98
I0
g95
sI1
(lp99
sI2
(lp100
sI3
(lp101
ssI2
(dp102
I0
g96
sI1
g100
sI2
(lp103
sI3
(lp104
ssI3
(dp105
I0
g97
sI1
g101
sI2
g104
sI3
(lp106
ssa(dp107
I0
(dp108
I0
(lp109
sI1
(lp110
sI2
(lp111
sI3
(lp112
ssI1
(dp113
I0
g110
sI1
(lp114
sI2
(lp115
sI3
(lp116
ssI2
(dp117
I0
g111
sI1
g115
sI2
(lp118
sI3
(lp119
ssI3
(dp120
I0
g112
sI1
g116
sI2
g119
sI3
(lp121
ssa(dp122
I0
(dp123
I0
(lp124
sI1
(lp125
sI2
(lp126
sI3
(lp127
ssI1
(dp128
I0
g125
sI1
(lp129
sI2
(lp130
sI3
(lp131
ssI2
(dp132
I0
g126
sI1
g130
sI2
(lp133
sI3
(lp134
ssI3
(dp135
I0
g127
sI1
g131
sI2
g134
sI3
(lp136
ssa(dp137
I0
(dp138
I0
(lp139
sI1
(lp140
sI2
(lp141
sI3
(lp142
ssI1
(dp143
I0
g140
sI1
(lp144
sI2
(lp145
sI3
(lp146
ssI2
(dp147
I0
g141
sI1
g145
sI2
(lp148
sI3
(lp149
ssI3
(dp150
I0
g142
sI1
g146
sI2
g149
sI3
(lp151
ssa(dp152
I0
(dp153
I0
(lp154
sI1
(lp155
sI2
(lp156
sI3
(lp157
ssI1
(dp158
I0
g155
sI1
(lp159
sI2
(lp160
sI3
(lp161
ssI2
(dp162
I0
g156
sI1
g160
sI2
(lp163
sI3
(lp164
ssI3
(dp165
I0
g157
sI1
g161
sI2
g164
sI3
(lp166
ssa(dp167
I0
(dp168
I0
(lp169
sI1
(lp170
sI2
(lp171
sI3
(lp172
ssI1
(dp173
I0
g170
sI1
(lp174
sI2
(lp175
sI3
(lp176
ssI2
(dp177
I0
g171
sI1
g175
sI2
(lp178
sI3
(lp179
ssI3
(dp180
I0
g172
sI1
g176
sI2
g179
sI3
(lp181
ssa(dp182
I0
(dp183
I0
(lp184
sI1
(lp185
Vhttp://dbpedia.org/property/mapCaption
p186
aVhttp://www.w3.org/1999/02/22-rdf-syntax-ns#type
p187
aVhttp://purl.org/dc/terms/subject
p188
aVhttp://www.w3.org/2000/01/rdf-schema#comment
p189
aVhttp://dbpedia.org/property/map
p190
aVhttp://dbpedia.org/ontology/abstract
p191
aVhttp://dbpedia.org/property/district
p192
aVhttp://dbpedia.org/property/city
p193
aVhttp://dbpedia.org/property/east
p194
aVhttp://dbpedia.org/ontology/district
p195
aVhttp://dbpedia.org/ontology/nearestCity
p196
aVhttp://dbpedia.org/property/nearestCity
p197
asI2
(lp198
sI3
(lp199
ssI1
(dp200
I0
g185
sI1
(lp201
sI2
(lp202
sI3
(lp203
ssI2
(dp204
I0
g198
sI1
g202
sI2
(lp205
sI3
(lp206
ssI3
(dp207
I0
g199
sI1
g203
sI2
g206
sI3
(lp208
ssa(dp209
I0
(dp210
I0
(lp211
sI1
(lp212
Vhttp://dbpedia.org/property/mapCaption
p213
aVhttp://www.w3.org/1999/02/22-rdf-syntax-ns#type
p214
aVhttp://purl.org/dc/terms/subject
p215
aVhttp://dbpedia.org/property/headquarters
p216
aVhttp://www.w3.org/2000/01/rdf-schema#comment
p217
aVhttp://dbpedia.org/ontology/abstract
p218
aVhttp://xmlns.com/foaf/0.1/depiction
p219
aVhttp://dbpedia.org/ontology/isPartOf
p220
aVhttp://dbpedia.org/property/imageMap
p221
aVhttp://dbpedia.org/ontology/thumbnail
p222
aVhttp://dbpedia.org/property/subdivisionName
p223
asI2
(lp224
sI3
(lp225
ssI1
(dp226
I0
g212
sI1
(lp227
sI2
(lp228
sI3
(lp229
ssI2
(dp230
I0
g224
sI1
g228
sI2
(lp231
sI3
(lp232
ssI3
(dp233
I0
g225
sI1
g229
sI2
g232
sI3
(lp234
ssa(dp235
I0
(dp236
I0
(lp237
sI1
(lp238
sI2
(lp239
sI3
(lp240
ssI1
(dp241
I0
g238
sI1
(lp242
sI2
(lp243
sI3
(lp244
ssI2
(dp245
I0
g239
sI1
g243
sI2
(lp246
sI3
(lp247
ssI3
(dp248
I0
g240
sI1
g244
sI2
g247
sI3
(lp249
ssa(dp250
I0
(dp251
I0
(lp252
sI1
(lp253
sI2
(lp254
sI3
(lp255
ssI1
(dp256
I0
g253
sI1
(lp257
sI2
(lp258
sI3
(lp259
ssI2
(dp260
I0
g254
sI1
g258
sI2
(lp261
sI3
(lp262
ssI3
(dp263
I0
g255
sI1
g259
sI2
g262
sI3
(lp264
ssa(dp265
I0
(dp266
I0
(lp267
sI1
(lp268
sI2
(lp269
sI3
(lp270
ssI1
(dp271
I0
g268
sI1
(lp272
sI2
(lp273
sI3
(lp274
ssI2
(dp275
I0
g269
sI1
g273
sI2
(lp276
sI3
(lp277
ssI3
(dp278
I0
g270
sI1
g274
sI2
g277
sI3
(lp279
ssa(dp280
I0
(dp281
I0
(lp282
sI1
(lp283
sI2
(lp284
sI3
(lp285
ssI1
(dp286
I0
g283
sI1
(lp287
sI2
(lp288
sI3
(lp289
ssI2
(dp290
I0
g284
sI1
g288
sI2
(lp291
sI3
(lp292
ssI3
(dp293
I0
g285
sI1
g289
sI2
g292
sI3
(lp294
ssa(dp295
I0
(dp296
I0
(lp297
sI1
(lp298
sI2
(lp299
sI3
(lp300
ssI1
(dp301
I0
g298
sI1
(lp302
sI2
(lp303
sI3
(lp304
ssI2
(dp305
I0
g299
sI1
g303
sI2
(lp306
sI3
(lp307
ssI3
(dp308
I0
g300
sI1
g304
sI2
g307
sI3
(lp309
ssa(dp310
I0
(dp311
I0
(lp312
sI1
(lp313
sI2
(lp314
sI3
(lp315
ssI1
(dp316
I0
g313
sI1
(lp317
sI2
(lp318
sI3
(lp319
ssI2
(dp320
I0
g314
sI1
g318
sI2
(lp321
sI3
(lp322
ssI3
(dp323
I0
g315
sI1
g319
sI2
g322
sI3
(lp324
ssa(dp325
I0
(dp326
I0
(lp327
sI1
(lp328
sI2
(lp329
sI3
(lp330
ssI1
(dp331
I0
g328
sI1
(lp332
sI2
(lp333
sI3
(lp334
ssI2
(dp335
I0
g329
sI1
g333
sI2
(lp336
sI3
(lp337
ssI3
(dp338
I0
g330
sI1
g334
sI2
g337
sI3
(lp339
ssa(dp340
I0
(dp341
I0
(lp342
sI1
(lp343
sI2
(lp344
sI3
(lp345
ssI1
(dp346
I0
g343
sI1
(lp347
sI2
(lp348
sI3
(lp349
ssI2
(dp350
I0
g344
sI1
g348
sI2
(lp351
sI3
(lp352
ssI3
(dp353
I0
g345
sI1
g349
sI2
g352
sI3
(lp354
ssa(dp355
I0
(dp356
I0
(lp357
sI1
(lp358
sI2
(lp359
sI3
(lp360
ssI1
(dp361
I0
g358
sI1
(lp362
sI2
(lp363
sI3
(lp364
ssI2
(dp365
I0
g359
sI1
g363
sI2
(lp366
sI3
(lp367
ssI3
(dp368
I0
g360
sI1
g364
sI2
g367
sI3
(lp369
ssa(dp370
I0
(dp371
I0
(lp372
sI1
(lp373
sI2
(lp374
sI3
(lp375
ssI1
(dp376
I0
g373
sI1
(lp377
sI2
(lp378
sI3
(lp379
ssI2
(dp380
I0
g374
sI1
g378
sI2
(lp381
sI3
(lp382
ssI3
(dp383
I0
g375
sI1
g379
sI2
g382
sI3
(lp384
ssa(dp385
I0
(dp386
I0
(lp387
sI1
(lp388
sI2
(lp389
sI3
(lp390
ssI1
(dp391
I0
g388
sI1
(lp392
sI2
(lp393
sI3
(lp394
ssI2
(dp395
I0
g389
sI1
g393
sI2
(lp396
sI3
(lp397
ssI3
(dp398
I0
g390
sI1
g394
sI2
g397
sI3
(lp399
ssa(dp400
I0
(dp401
I0
(lp402
sI1
(lp403
sI2
(lp404
sI3
(lp405
ssI1
(dp406
I0
g403
sI1
(lp407
sI2
(lp408
sI3
(lp409
ssI2
(dp410
I0
g404
sI1
g408
sI2
(lp411
sI3
(lp412
ssI3
(dp413
I0
g405
sI1
g409
sI2
g412
sI3
(lp414
ssa(dp415
I0
(dp416
I0
(lp417
sI1
(lp418
sI2
(lp419
sI3
(lp420
ssI1
(dp421
I0
g418
sI1
(lp422
sI2
(lp423
sI3
(lp424
ssI2
(dp425
I0
g419
sI1
g423
sI2
(lp426
sI3
(lp427
ssI3
(dp428
I0
g420
sI1
g424
sI2
g427
sI3
(lp429
ssa(dp430
I0
(dp431
I0
(lp432
sI1
(lp433
sI2
(lp434
sI3
(lp435
ssI1
(dp436
I0
g433
sI1
(lp437
sI2
(lp438
sI3
(lp439
ssI2
(dp440
I0
g434
sI1
g438
sI2
(lp441
sI3
(lp442
ssI3
(dp443
I0
g435
sI1
g439
sI2
g442
sI3
(lp444
ssa(dp445
I0
(dp446
I0
(lp447
sI1
(lp448
sI2
(lp449
sI3
(lp450
ssI1
(dp451
I0
g448
sI1
(lp452
sI2
(lp453
sI3
(lp454
ssI2
(dp455
I0
g449
sI1
g453
sI2
(lp456
sI3
(lp457
ssI3
(dp458
I0
g450
sI1
g454
sI2
g457
sI3
(lp459
ssa(dp460
I0
(dp461
I0
(lp462
sI1
(lp463
sI2
(lp464
sI3
(lp465
ssI1
(dp466
I0
g463
sI1
(lp467
sI2
(lp468
sI3
(lp469
ssI2
(dp470
I0
g464
sI1
g468
sI2
(lp471
sI3
(lp472
ssI3
(dp473
I0
g465
sI1
g469
sI2
g472
sI3
(lp474
ssa(dp475
I0
(dp476
I0
(lp477
sI1
(lp478
sI2
(lp479
sI3
(lp480
ssI1
(dp481
I0
g478
sI1
(lp482
sI2
(lp483
sI3
(lp484
ssI2
(dp485
I0
g479
sI1
g483
sI2
(lp486
sI3
(lp487
ssI3
(dp488
I0
g480
sI1
g484
sI2
g487
sI3
(lp489
ssa(dp490
I0
(dp491
I0
(lp492
sI1
(lp493
sI2
(lp494
sI3
(lp495
ssI1
(dp496
I0
g493
sI1
(lp497
sI2
(lp498
sI3
(lp499
ssI2
(dp500
I0
g494
sI1
g498
sI2
(lp501
sI3
(lp502
ssI3
(dp503
I0
g495
sI1
g499
sI2
g502
sI3
(lp504
ssa(dp505
I0
(dp506
I0
(lp507
sI1
(lp508
sI2
(lp509
sI3
(lp510
ssI1
(dp511
I0
g508
sI1
(lp512
sI2
(lp513
sI3
(lp514
ssI2
(dp515
I0
g509
sI1
g513
sI2
(lp516
sI3
(lp517
ssI3
(dp518
I0
g510
sI1
g514
sI2
g517
sI3
(lp519
ssa(dp520
I0
(dp521
I0
(lp522
sI1
(lp523
sI2
(lp524
sI3
(lp525
ssI1
(dp526
I0
g523
sI1
(lp527
sI2
(lp528
sI3
(lp529
ssI2
(dp530
I0
g524
sI1
g528
sI2
(lp531
sI3
(lp532
ssI3
(dp533
I0
g525
sI1
g529
sI2
g532
sI3
(lp534
ssa(dp535
I0
(dp536
I0
(lp537
sI1
(lp538
sI2
(lp539
sI3
(lp540
ssI1
(dp541
I0
g538
sI1
(lp542
sI2
(lp543
sI3
(lp544
ssI2
(dp545
I0
g539
sI1
g543
sI2
(lp546
sI3
(lp547
ssI3
(dp548
I0
g540
sI1
g544
sI2
g547
sI3
(lp549
ssa(dp550
I0
(dp551
I0
(lp552
sI1
(lp553
sI2
(lp554
sI3
(lp555
ssI1
(dp556
I0
g553
sI1
(lp557
sI2
(lp558
sI3
(lp559
ssI2
(dp560
I0
g554
sI1
g558
sI2
(lp561
sI3
(lp562
ssI3
(dp563
I0
g555
sI1
g559
sI2
g562
sI3
(lp564
ssa(dp565
I0
(dp566
I0
(lp567
sI1
(lp568
sI2
(lp569
sI3
(lp570
ssI1
(dp571
I0
g568
sI1
(lp572
sI2
(lp573
sI3
(lp574
ssI2
(dp575
I0
g569
sI1
g573
sI2
(lp576
sI3
(lp577
ssI3
(dp578
I0
g570
sI1
g574
sI2
g577
sI3
(lp579
ssa(dp580
I0
(dp581
I0
(lp582
sI1
(lp583
sI2
(lp584
sI3
(lp585
ssI1
(dp586
I0
g583
sI1
(lp587
sI2
(lp588
sI3
(lp589
ssI2
(dp590
I0
g584
sI1
g588
sI2
(lp591
sI3
(lp592
ssI3
(dp593
I0
g585
sI1
g589
sI2
g592
sI3
(lp594
ssa(dp595
I0
(dp596
I0
(lp597
sI1
(lp598
sI2
(lp599
sI3
(lp600
ssI1
(dp601
I0
g598
sI1
(lp602
sI2
(lp603
sI3
(lp604
ssI2
(dp605
I0
g599
sI1
g603
sI2
(lp606
sI3
(lp607
ssI3
(dp608
I0
g600
sI1
g604
sI2
g607
sI3
(lp609
ssa(dp610
I0
(dp611
I0
(lp612
sI1
(lp613
sI2
(lp614
sI3
(lp615
ssI1
(dp616
I0
g613
sI1
(lp617
sI2
(lp618
sI3
(lp619
ssI2
(dp620
I0
g614
sI1
g618
sI2
(lp621
sI3
(lp622
ssI3
(dp623
I0
g615
sI1
g619
sI2
g622
sI3
(lp624
ssa(dp625
I0
(dp626
I0
(lp627
sI1
(lp628
sI2
(lp629
sI3
(lp630
ssI1
(dp631
I0
g628
sI1
(lp632
sI2
(lp633
sI3
(lp634
ssI2
(dp635
I0
g629
sI1
g633
sI2
(lp636
sI3
(lp637
ssI3
(dp638
I0
g630
sI1
g634
sI2
g637
sI3
(lp639
ssa(dp640
I0
(dp641
I0
(lp642
sI1
(lp643
Vhttp://purl.org/dc/terms/subject
p644
aVhttp://www.w3.org/2000/01/rdf-schema#comment
p645
aVhttp://dbpedia.org/ontology/abstract
p646
aVhttp://dbpedia.org/ontology/wikiPageRedirects
p647
aVhttp://dbpedia.org/ontology/isPartOf
p648
aVhttp://dbpedia.org/property/city
p649
aVhttp://dbpedia.org/property/subdivisionName
p650
asI2
(lp651
sI3
(lp652
ssI1
(dp653
I0
g643
sI1
(lp654
sI2
(lp655
sI3
(lp656
ssI2
(dp657
I0
g651
sI1
g655
sI2
(lp658
sI3
(lp659
ssI3
(dp660
I0
g652
sI1
g656
sI2
g659
sI3
(lp661
ssa(dp662
I0
(dp663
I0
(lp664
sI1
(lp665
Vhttp://www.w3.org/1999/02/22-rdf-syntax-ns#type
p666
aVhttp://purl.org/dc/terms/subject
p667
aVhttp://www.w3.org/2000/01/rdf-schema#comment
p668
aVhttp://dbpedia.org/ontology/abstract
p669
aVhttp://dbpedia.org/ontology/wikiPageRedirects
p670
aVhttp://dbpedia.org/ontology/isPartOf
p671
aVhttp://dbpedia.org/property/subdivisionName
p672
asI2
(lp673
sI3
(lp674
ssI1
(dp675
I0
g665
sI1
(lp676
sI2
(lp677
sI3
(lp678
ssI2
(dp679
I0
g673
sI1
g677
sI2
(lp680
sI3
(lp681
ssI3
(dp682
I0
g674
sI1
g678
sI2
g681
sI3
(lp683
ssa(dp684
I0
(dp685
I0
(lp686
sI1
(lp687
Vhttp://dbpedia.org/ontology/isPartOf
p688
aVhttp://dbpedia.org/property/subdivisionName
p689
asI2
(lp690
sI3
(lp691
ssI1
(dp692
I0
g687
sI1
(lp693
sI2
(lp694
sI3
(lp695
ssI2
(dp696
I0
g690
sI1
g694
sI2
(lp697
sI3
(lp698
ssI3
(dp699
I0
g691
sI1
g695
sI2
g698
sI3
(lp700
ssa(dp701
I0
(dp702
I0
(lp703
sI1
(lp704
sI2
(lp705
sI3
(lp706
ssI1
(dp707
I0
g704
sI1
(lp708
sI2
(lp709
sI3
(lp710
ssI2
(dp711
I0
g705
sI1
g709
sI2
(lp712
sI3
(lp713
ssI3
(dp714
I0
g706
sI1
g710
sI2
g713
sI3
(lp715
ssa(dp716
I0
(dp717
I0
(lp718
sI1
(lp719
Vhttp://dbpedia.org/property/largestCityWl
p720
aVhttp://www.w3.org/2000/01/rdf-schema#comment
p721
aVhttp://dbpedia.org/ontology/abstract
p722
aVhttp://dbpedia.org/ontology/wikiPageRedirects
p723
aVhttp://dbpedia.org/ontology/isPartOf
p724
aVhttp://dbpedia.org/property/subdivisionName
p725
asI2
(lp726
sI3
(lp727
ssI1
(dp728
I0
g719
sI1
(lp729
sI2
(lp730
sI3
(lp731
ssI2
(dp732
I0
g726
sI1
g730
sI2
(lp733
sI3
(lp734
ssI3
(dp735
I0
g727
sI1
g731
sI2
g734
sI3
(lp736
ssa(dp737
I0
(dp738
I0
(lp739
sI1
(lp740
Vhttp://dbpedia.org/ontology/isPartOf
p741
aVhttp://dbpedia.org/property/subdivisionName
p742
asI2
(lp743
sI3
(lp744
ssI1
(dp745
I0
g740
sI1
(lp746
sI2
(lp747
sI3
(lp748
ssI2
(dp749
I0
g743
sI1
g747
sI2
(lp750
sI3
(lp751
ssI3
(dp752
I0
g744
sI1
g748
sI2
g751
sI3
(lp753
ssa(dp754
I0
(dp755
I0
(lp756
sI1
(lp757
Vhttp://dbpedia.org/ontology/isPartOf
p758
aVhttp://dbpedia.org/property/subdivisionName
p759
asI2
(lp760
sI3
(lp761
ssI1
(dp762
I0
g757
sI1
(lp763
sI2
(lp764
sI3
(lp765
ssI2
(dp766
I0
g760
sI1
g764
sI2
(lp767
sI3
(lp768
ssI3
(dp769
I0
g761
sI1
g765
sI2
g768
sI3
(lp770
ssa(dp771
I0
(dp772
I0
(lp773
sI1
(lp774
Vhttp://dbpedia.org/ontology/isPartOf
p775
aVhttp://dbpedia.org/property/subdivisionName
p776
asI2
(lp777
sI3
(lp778
ssI1
(dp779
I0
g774
sI1
(lp780
sI2
(lp781
sI3
(lp782
ssI2
(dp783
I0
g777
sI1
g781
sI2
(lp784
sI3
(lp785
ssI3
(dp786
I0
g778
sI1
g782
sI2
g785
sI3
(lp787
ssa(dp788
I0
(dp789
I0
(lp790
sI1
(lp791
Vhttp://dbpedia.org/ontology/isPartOf
p792
aVhttp://dbpedia.org/property/subdivisionName
p793
asI2
(lp794
sI3
(lp795
ssI1
(dp796
I0
g791
sI1
(lp797
sI2
(lp798
sI3
(lp799
ssI2
(dp800
I0
g794
sI1
g798
sI2
(lp801
sI3
(lp802
ssI3
(dp803
I0
g795
sI1
g799
sI2
g802
sI3
(lp804
ssa(dp805
I0
(dp806
I0
(lp807
sI1
(lp808
sI2
(lp809
sI3
(lp810
ssI1
(dp811
I0
g808
sI1
(lp812
sI2
(lp813
sI3
(lp814
ssI2
(dp815
I0
g809
sI1
g813
sI2
(lp816
sI3
(lp817
ssI3
(dp818
I0
g810
sI1
g814
sI2
g817
sI3
(lp819
ssa(dp820
I0
(dp821
I0
(lp822
sI1
(lp823
sI2
(lp824
sI3
(lp825
ssI1
(dp826
I0
g823
sI1
(lp827
sI2
(lp828
sI3
(lp829
ssI2
(dp830
I0
g824
sI1
g828
sI2
(lp831
sI3
(lp832
ssI3
(dp833
I0
g825
sI1
g829
sI2
g832
sI3
(lp834
ssa(dp835
I0
(dp836
I0
(lp837
sI1
(lp838
sI2
(lp839
sI3
(lp840
ssI1
(dp841
I0
g838
sI1
(lp842
sI2
(lp843
sI3
(lp844
ssI2
(dp845
I0
g839
sI1
g843
sI2
(lp846
sI3
(lp847
ssI3
(dp848
I0
g840
sI1
g844
sI2
g847
sI3
(lp849
ssa(dp850
I0
(dp851
I0
(lp852
sI1
(lp853
sI2
(lp854
sI3
(lp855
ssI1
(dp856
I0
g853
sI1
(lp857
sI2
(lp858
sI3
(lp859
ssI2
(dp860
I0
g854
sI1
g858
sI2
(lp861
sI3
(lp862
ssI3
(dp863
I0
g855
sI1
g859
sI2
g862
sI3
(lp864
ssa(dp865
I0
(dp866
I0
(lp867
sI1
(lp868
sI2
(lp869
sI3
(lp870
ssI1
(dp871
I0
g868
sI1
(lp872
sI2
(lp873
sI3
(lp874
ssI2
(dp875
I0
g869
sI1
g873
sI2
(lp876
sI3
(lp877
ssI3
(dp878
I0
g870
sI1
g874
sI2
g877
sI3
(lp879
ssa(dp880
I0
(dp881
I0
(lp882
sI1
(lp883
sI2
(lp884
sI3
(lp885
ssI1
(dp886
I0
g883
sI1
(lp887
sI2
(lp888
sI3
(lp889
ssI2
(dp890
I0
g884
sI1
g888
sI2
(lp891
sI3
(lp892
ssI3
(dp893
I0
g885
sI1
g889
sI2
g892
sI3
(lp894
ssa(dp895
I0
(dp896
I0
(lp897
sI1
(lp898
sI2
(lp899
sI3
(lp900
ssI1
(dp901
I0
g898
sI1
(lp902
sI2
(lp903
sI3
(lp904
ssI2
(dp905
I0
g899
sI1
g903
sI2
(lp906
sI3
(lp907
ssI3
(dp908
I0
g900
sI1
g904
sI2
g907
sI3
(lp909
ssa(dp910
I0
(dp911
I0
(lp912
sI1
(lp913
sI2
(lp914
sI3
(lp915
ssI1
(dp916
I0
g913
sI1
(lp917
sI2
(lp918
sI3
(lp919
ssI2
(dp920
I0
g914
sI1
g918
sI2
(lp921
sI3
(lp922
ssI3
(dp923
I0
g915
sI1
g919
sI2
g922
sI3
(lp924
ssa(dp925
I0
(dp926
I0
(lp927
sI1
(lp928
sI2
(lp929
sI3
(lp930
ssI1
(dp931
I0
g928
sI1
(lp932
sI2
(lp933
sI3
(lp934
ssI2
(dp935
I0
g929
sI1
g933
sI2
(lp936
sI3
(lp937
ssI3
(dp938
I0
g930
sI1
g934
sI2
g937
sI3
(lp939
ssa(dp940
I0
(dp941
I0
(lp942
sI1
(lp943
sI2
(lp944
sI3
(lp945
ssI1
(dp946
I0
g943
sI1
(lp947
sI2
(lp948
sI3
(lp949
ssI2
(dp950
I0
g944
sI1
g948
sI2
(lp951
sI3
(lp952
ssI3
(dp953
I0
g945
sI1
g949
sI2
g952
sI3
(lp954
ssa(dp955
I0
(dp956
I0
(lp957
sI1
(lp958
sI2
(lp959
sI3
(lp960
ssI1
(dp961
I0
g958
sI1
(lp962
sI2
(lp963
sI3
(lp964
ssI2
(dp965
I0
g959
sI1
g963
sI2
(lp966
sI3
(lp967
ssI3
(dp968
I0
g960
sI1
g964
sI2
g967
sI3
(lp969
ssa(dp970
I0
(dp971
I0
(lp972
sI1
(lp973
sI2
(lp974
sI3
(lp975
ssI1
(dp976
I1
(lp977
sI2
(lp978
sI3
(lp979
ssI2
(dp980
I0
g974
sI1
g978
sI2
(lp981
sI3
(lp982
ssI3
(dp983
I0
g975
sI1
g979
sI2
g982
sI3
(lp984
ssa(dp985
I0
(dp986
I0
(lp987
sI1
(lp988
sI2
(lp989
sI3
(lp990
ssI1
(dp991
I0
g988
sI1
(lp992
sI2
(lp993
sI3
(lp994
ssI2
(dp995
I0
g989
sI1
g993
sI2
(lp996
sI3
(lp997
ssI3
(dp998
I0
g990
sI1
g994
sI2
g997
sI3
(lp999
ssa(dp1000
I0
(dp1001
I0
(lp1002
sI1
(lp1003
sI2
(lp1004
sI3
(lp1005
ssI1
(dp1006
I0
g1003
sI1
(lp1007
sI2
(lp1008
sI3
(lp1009
ssI2
(dp1010
I0
g1004
sI1
g1008
sI2
(lp1011
sI3
(lp1012
ssI3
(dp1013
I0
g1005
sI1
g1009
sI2
g1012
sI3
(lp1014
ssa(dp1015
I0
(dp1016
I0
(lp1017
sI1
(lp1018
sI2
(lp1019
sI3
(lp1020
ssI1
(dp1021
I0
g1018
sI1
(lp1022
sI2
(lp1023
sI3
(lp1024
ssI2
(dp1025
I0
g1019
sI1
g1023
sI2
(lp1026
sI3
(lp1027
ssI3
(dp1028
I0
g1020
sI1
g1024
sI2
g1027
sI3
(lp1029
ssa(dp1030
I0
(dp1031
I0
(lp1032
sI1
(lp1033
sI2
(lp1034
sI3
(lp1035
ssI1
(dp1036
I0
g1033
sI1
(lp1037
sI2
(lp1038
sI3
(lp1039
ssI2
(dp1040
I0
g1034
sI1
g1038
sI2
(lp1041
sI3
(lp1042
ssI3
(dp1043
I0
g1035
sI1
g1039
sI2
g1042
sI3
(lp1044
ssa(dp1045
I0
(dp1046
I0
(lp1047
sI1
(lp1048
sI2
(lp1049
sI3
(lp1050
ssI1
(dp1051
I0
g1048
sI1
(lp1052
sI2
(lp1053
sI3
(lp1054
ssI2
(dp1055
I0
g1049
sI1
g1053
sI2
(lp1056
sI3
(lp1057
ssI3
(dp1058
I0
g1050
sI1
g1054
sI2
g1057
sI3
(lp1059
ssa(dp1060
I0
(dp1061
I0
(lp1062
sI1
(lp1063
sI2
(lp1064
sI3
(lp1065
ssI1
(dp1066
I0
g1063
sI1
(lp1067
sI2
(lp1068
sI3
(lp1069
ssI2
(dp1070
I0
g1064
sI1
g1068
sI2
(lp1071
sI3
(lp1072
ssI3
(dp1073
I0
g1065
sI1
g1069
sI2
g1072
sI3
(lp1074
ssa(dp1075
I0
(dp1076
I0
(lp1077
sI1
(lp1078
sI2
(lp1079
sI3
(lp1080
ssI1
(dp1081
I0
g1078
sI1
(lp1082
sI2
(lp1083
sI3
(lp1084
ssI2
(dp1085
I0
g1079
sI1
g1083
sI2
(lp1086
sI3
(lp1087
ssI3
(dp1088
I0
g1080
sI1
g1084
sI2
g1087
sI3
(lp1089
ssa(dp1090
I0
(dp1091
I0
(lp1092
sI1
(lp1093
sI2
(lp1094
sI3
(lp1095
ssI1
(dp1096
I0
g1093
sI1
(lp1097
sI2
(lp1098
sI3
(lp1099
ssI2
(dp1100
I0
g1094
sI1
g1098
sI2
(lp1101
sI3
(lp1102
ssI3
(dp1103
I0
g1095
sI1
g1099
sI2
g1102
sI3
(lp1104
ssa(dp1105
I0
(dp1106
I0
(lp1107
sI1
(lp1108
sI2
(lp1109
sI3
(lp1110
ssI1
(dp1111
I0
g1108
sI1
(lp1112
sI2
(lp1113
sI3
(lp1114
ssI2
(dp1115
I0
g1109
sI1
g1113
sI2
(lp1116
sI3
(lp1117
ssI3
(dp1118
I0
g1110
sI1
g1114
sI2
g1117
sI3
(lp1119
ssa(dp1120
I0
(dp1121
I0
(lp1122
sI1
(lp1123
sI2
(lp1124
sI3
(lp1125
ssI1
(dp1126
I0
g1123
sI1
(lp1127
sI2
(lp1128
sI3
(lp1129
ssI2
(dp1130
I0
g1124
sI1
g1128
sI2
(lp1131
sI3
(lp1132
ssI3
(dp1133
I0
g1125
sI1
g1129
sI2
g1132
sI3
(lp1134
ssa(dp1135
I0
(dp1136
I0
(lp1137
sI1
(lp1138
sI2
(lp1139
sI3
(lp1140
ssI1
(dp1141
I0
g1138
sI1
(lp1142
sI2
(lp1143
sI3
(lp1144
ssI2
(dp1145
I0
g1139
sI1
g1143
sI2
(lp1146
sI3
(lp1147
ssI3
(dp1148
I0
g1140
sI1
g1144
sI2
g1147
sI3
(lp1149
ssa(dp1150
I0
(dp1151
I0
(lp1152
sI1
(lp1153
sI2
(lp1154
sI3
(lp1155
ssI1
(dp1156
I0
g1153
sI1
(lp1157
sI2
(lp1158
sI3
(lp1159
ssI2
(dp1160
I0
g1154
sI1
g1158
sI2
(lp1161
sI3
(lp1162
ssI3
(dp1163
I0
g1155
sI1
g1159
sI2
g1162
sI3
(lp1164
ssa(dp1165
I0
(dp1166
I0
(lp1167
sI1
(lp1168
sI2
(lp1169
sI3
(lp1170
ssI1
(dp1171
I0
g1168
sI1
(lp1172
sI2
(lp1173
sI3
(lp1174
ssI2
(dp1175
I0
g1169
sI1
g1173
sI2
(lp1176
sI3
(lp1177
ssI3
(dp1178
I0
g1170
sI1
g1174
sI2
g1177
sI3
(lp1179
ssa(dp1180
I0
(dp1181
I0
(lp1182
sI1
(lp1183
sI2
(lp1184
sI3
(lp1185
ssI1
(dp1186
I0
g1183
sI1
(lp1187
sI2
(lp1188
sI3
(lp1189
ssI2
(dp1190
I0
g1184
sI1
g1188
sI2
(lp1191
sI3
(lp1192
ssI3
(dp1193
I0
g1185
sI1
g1189
sI2
g1192
sI3
(lp1194
ssa(dp1195
I0
(dp1196
I0
(lp1197
sI1
(lp1198
sI2
(lp1199
sI3
(lp1200
ssI1
(dp1201
I0
g1198
sI1
(lp1202
sI2
(lp1203
sI3
(lp1204
ssI2
(dp1205
I0
g1199
sI1
g1203
sI2
(lp1206
sI3
(lp1207
ssI3
(dp1208
I0
g1200
sI1
g1204
sI2
g1207
sI3
(lp1209
ssa(dp1210
I0
(dp1211
I0
(lp1212
sI1
(lp1213
sI2
(lp1214
sI3
(lp1215
ssI1
(dp1216
I0
g1213
sI1
(lp1217
sI2
(lp1218
sI3
(lp1219
ssI2
(dp1220
I0
g1214
sI1
g1218
sI2
(lp1221
sI3
(lp1222
ssI3
(dp1223
I0
g1215
sI1
g1219
sI2
g1222
sI3
(lp1224
ssa(dp1225
I0
(dp1226
I0
(lp1227
sI1
(lp1228
sI2
(lp1229
sI3
(lp1230
ssI1
(dp1231
I0
g1228
sI1
(lp1232
sI2
(lp1233
sI3
(lp1234
ssI2
(dp1235
I0
g1229
sI1
g1233
sI2
(lp1236
sI3
(lp1237
ssI3
(dp1238
I0
g1230
sI1
g1234
sI2
g1237
sI3
(lp1239
ssa(dp1240
I0
(dp1241
I0
(lp1242
sI1
(lp1243
sI2
(lp1244
sI3
(lp1245
ssI1
(dp1246
I0
g1243
sI1
(lp1247
sI2
(lp1248
sI3
(lp1249
ssI2
(dp1250
I0
g1244
sI1
g1248
sI2
(lp1251
sI3
(lp1252
ssI3
(dp1253
I0
g1245
sI1
g1249
sI2
g1252
sI3
(lp1254
ssa(dp1255
I0
(dp1256
I0
(lp1257
sI1
(lp1258
sI2
(lp1259
sI3
(lp1260
ssI1
(dp1261
I0
g1258
sI1
(lp1262
sI2
(lp1263
sI3
(lp1264
ssI2
(dp1265
I0
g1259
sI1
g1263
sI2
(lp1266
sI3
(lp1267
ssI3
(dp1268
I0
g1260
sI1
g1264
sI2
g1267
sI3
(lp1269
ssa(dp1270
I0
(dp1271
I0
(lp1272
sI1
(lp1273
sI2
(lp1274
sI3
(lp1275
ssI1
(dp1276
I0
g1273
sI1
(lp1277
sI2
(lp1278
sI3
(lp1279
ssI2
(dp1280
I0
g1274
sI1
g1278
sI2
(lp1281
sI3
(lp1282
ssI3
(dp1283
I0
g1275
sI1
g1279
sI2
g1282
sI3
(lp1284
ssa(dp1285
I0
(dp1286
I0
(lp1287
sI1
(lp1288
sI2
(lp1289
sI3
(lp1290
ssI1
(dp1291
I0
g1288
sI1
(lp1292
sI2
(lp1293
sI3
(lp1294
ssI2
(dp1295
I0
g1289
sI1
g1293
sI2
(lp1296
sI3
(lp1297
ssI3
(dp1298
I0
g1290
sI1
g1294
sI2
g1297
sI3
(lp1299
ssa(dp1300
I0
(dp1301
I0
(lp1302
sI1
(lp1303
sI2
(lp1304
sI3
(lp1305
ssI1
(dp1306
I0
g1303
sI1
(lp1307
sI2
(lp1308
sI3
(lp1309
ssI2
(dp1310
I0
g1304
sI1
g1308
sI2
(lp1311
sI3
(lp1312
ssI3
(dp1313
I0
g1305
sI1
g1309
sI2
g1312
sI3
(lp1314
ssa(dp1315
I0
(dp1316
I0
(lp1317
sI1
(lp1318
sI2
(lp1319
sI3
(lp1320
ssI1
(dp1321
I0
g1318
sI1
(lp1322
sI2
(lp1323
sI3
(lp1324
ssI2
(dp1325
I0
g1319
sI1
g1323
sI2
(lp1326
sI3
(lp1327
ssI3
(dp1328
I0
g1320
sI1
g1324
sI2
g1327
sI3
(lp1329
ssa(dp1330
I0
(dp1331
I0
(lp1332
sI1
(lp1333
sI2
(lp1334
sI3
(lp1335
ssI1
(dp1336
I0
g1333
sI1
(lp1337
sI2
(lp1338
sI3
(lp1339
ssI2
(dp1340
I0
g1334
sI1
g1338
sI2
(lp1341
sI3
(lp1342
ssI3
(dp1343
I0
g1335
sI1
g1339
sI2
g1342
sI3
(lp1344
ssa(dp1345
I0
(dp1346
I0
(lp1347
sI1
(lp1348
sI2
(lp1349
sI3
(lp1350
ssI1
(dp1351
I0
g1348
sI1
(lp1352
sI2
(lp1353
sI3
(lp1354
ssI2
(dp1355
I0
g1349
sI1
g1353
sI2
(lp1356
sI3
(lp1357
ssI3
(dp1358
I0
g1350
sI1
g1354
sI2
g1357
sI3
(lp1359
ssa(dp1360
I0
(dp1361
I0
(lp1362
sI1
(lp1363
sI2
(lp1364
sI3
(lp1365
ssI1
(dp1366
I0
g1363
sI1
(lp1367
sI2
(lp1368
sI3
(lp1369
ssI2
(dp1370
I0
g1364
sI1
g1368
sI2
(lp1371
sI3
(lp1372
ssI3
(dp1373
I0
g1365
sI1
g1369
sI2
g1372
sI3
(lp1374
ssa(dp1375
I0
(dp1376
I0
(lp1377
sI1
(lp1378
Vhttp://www.w3.org/1999/02/22-rdf-syntax-ns#type
p1379
aVhttp://purl.org/dc/terms/subject
p1380
aVhttp://www.w3.org/2000/01/rdf-schema#comment
p1381
aVhttp://dbpedia.org/ontology/abstract
p1382
aVhttp://dbpedia.org/ontology/isPartOf
p1383
aVhttp://dbpedia.org/property/subdivisionName
p1384
asI2
(lp1385
sI3
(lp1386
ssI1
(dp1387
I0
g1378
sI1
(lp1388
sI2
(lp1389
sI3
(lp1390
ssI2
(dp1391
I0
g1385
sI1
g1389
sI2
(lp1392
sI3
(lp1393
ssI3
(dp1394
I0
g1386
sI1
g1390
sI2
g1393
sI3
(lp1395
ssa(dp1396
I0
(dp1397
I0
(lp1398
sI1
(lp1399
sI2
(lp1400
sI3
(lp1401
ssI1
(dp1402
I0
g1399
sI1
(lp1403
sI2
(lp1404
sI3
(lp1405
ssI2
(dp1406
I0
g1400
sI1
g1404
sI2
(lp1407
sI3
(lp1408
ssI3
(dp1409
I0
g1401
sI1
g1405
sI2
g1408
sI3
(lp1410
ssa(dp1411
I0
(dp1412
I0
(lp1413
sI1
(lp1414
sI2
(lp1415
sI3
(lp1416
ssI1
(dp1417
I0
g1414
sI1
(lp1418
sI2
(lp1419
sI3
(lp1420
ssI2
(dp1421
I0
g1415
sI1
g1419
sI2
(lp1422
sI3
(lp1423
ssI3
(dp1424
I0
g1416
sI1
g1420
sI2
g1423
sI3
(lp1425
ssa(dp1426
I0
(dp1427
I0
(lp1428
sI1
(lp1429
sI2
(lp1430
sI3
(lp1431
ssI1
(dp1432
I0
g1429
sI1
(lp1433
sI2
(lp1434
sI3
(lp1435
ssI2
(dp1436
I0
g1430
sI1
g1434
sI2
(lp1437
sI3
(lp1438
ssI3
(dp1439
I0
g1431
sI1
g1435
sI2
g1438
sI3
(lp1440
ssa(dp1441
I0
(dp1442
I0
(lp1443
sI1
(lp1444
sI2
(lp1445
sI3
(lp1446
ssI1
(dp1447
I0
g1444
sI1
(lp1448
sI2
(lp1449
sI3
(lp1450
ssI2
(dp1451
I0
g1445
sI1
g1449
sI2
(lp1452
sI3
(lp1453
ssI3
(dp1454
I0
g1446
sI1
g1450
sI2
g1453
sI3
(lp1455
ssa(dp1456
I0
(dp1457
I0
(lp1458
sI1
(lp1459
Vhttp://www.w3.org/1999/02/22-rdf-syntax-ns#type
p1460
aVhttp://purl.org/dc/terms/subject
p1461
aVhttp://dbpedia.org/ontology/location
p1462
aVhttp://www.w3.org/2000/01/rdf-schema#comment
p1463
aVhttp://dbpedia.org/ontology/abstract
p1464
aVhttp://dbpedia.org/ontology/wikiPageRedirects
p1465
aVhttp://dbpedia.org/property/location
p1466
aVhttp://dbpedia.org/ontology/isPartOf
p1467
aVhttp://dbpedia.org/property/city
p1468
aVhttp://dbpedia.org/property/seat
p1469
aVhttp://dbpedia.org/property/subdivisionName
p1470
aVhttp://dbpedia.org/property/headquarters
p1471
asI2
(lp1472
sI3
(lp1473
ssI1
(dp1474
I0
g1459
sI1
(lp1475
sI2
(lp1476
sI3
(lp1477
ssI2
(dp1478
I0
g1472
sI1
g1476
sI2
(lp1479
sI3
(lp1480
ssI3
(dp1481
I0
g1473
sI1
g1477
sI2
g1480
sI3
(lp1482
ssa(dp1483
I0
(dp1484
I0
(lp1485
sI1
(lp1486
sI2
(lp1487
sI3
(lp1488
ssI1
(dp1489
I0
g1486
sI1
(lp1490
sI2
(lp1491
sI3
(lp1492
ssI2
(dp1493
I0
g1487
sI1
g1491
sI2
(lp1494
sI3
(lp1495
ssI3
(dp1496
I0
g1488
sI1
g1492
sI2
g1495
sI3
(lp1497
ssa(dp1498
I0
(dp1499
I0
(lp1500
sI1
(lp1501
sI2
(lp1502
sI3
(lp1503
ssI1
(dp1504
I0
g1501
sI1
(lp1505
sI2
(lp1506
sI3
(lp1507
ssI2
(dp1508
I0
g1502
sI1
g1506
sI2
(lp1509
sI3
(lp1510
ssI3
(dp1511
I0
g1503
sI1
g1507
sI2
g1510
sI3
(lp1512
ssa(dp1513
I0
(dp1514
I0
(lp1515
sI1
(lp1516
sI2
(lp1517
sI3
(lp1518
ssI1
(dp1519
I0
g1516
sI1
(lp1520
sI2
(lp1521
sI3
(lp1522
ssI2
(dp1523
I0
g1517
sI1
g1521
sI2
(lp1524
sI3
(lp1525
ssI3
(dp1526
I0
g1518
sI1
g1522
sI2
g1525
sI3
(lp1527
ssa(dp1528
I0
(dp1529
I0
(lp1530
sI1
(lp1531
sI2
(lp1532
sI3
(lp1533
ssI1
(dp1534
I0
g1531
sI1
(lp1535
sI2
(lp1536
sI3
(lp1537
ssI2
(dp1538
I0
g1532
sI1
g1536
sI2
(lp1539
sI3
(lp1540
ssI3
(dp1541
I0
g1533
sI1
g1537
sI2
g1540
sI3
(lp1542
ssa(dp1543
I0
(dp1544
I0
(lp1545
sI1
(lp1546
sI2
(lp1547
sI3
(lp1548
ssI1
(dp1549
I0
g1546
sI1
(lp1550
sI2
(lp1551
sI3
(lp1552
ssI2
(dp1553
I0
g1547
sI1
g1551
sI2
(lp1554
sI3
(lp1555
ssI3
(dp1556
I0
g1548
sI1
g1552
sI2
g1555
sI3
(lp1557
ssa(dp1558
I0
(dp1559
I0
(lp1560
sI1
(lp1561
sI2
(lp1562
sI3
(lp1563
ssI1
(dp1564
I0
g1561
sI1
(lp1565
sI2
(lp1566
sI3
(lp1567
ssI2
(dp1568
I0
g1562
sI1
g1566
sI2
(lp1569
sI3
(lp1570
ssI3
(dp1571
I0
g1563
sI1
g1567
sI2
g1570
sI3
(lp1572
ssa(dp1573
I0
(dp1574
I0
(lp1575
sI1
(lp1576
sI2
(lp1577
sI3
(lp1578
ssI1
(dp1579
I0
g1576
sI1
(lp1580
sI2
(lp1581
sI3
(lp1582
ssI2
(dp1583
I0
g1577
sI1
g1581
sI2
(lp1584
sI3
(lp1585
ssI3
(dp1586
I0
g1578
sI1
g1582
sI2
g1585
sI3
(lp1587
ssa(dp1588
I0
(dp1589
I0
(lp1590
sI1
(lp1591
sI2
(lp1592
sI3
(lp1593
ssI1
(dp1594
I0
g1591
sI1
(lp1595
sI2
(lp1596
sI3
(lp1597
ssI2
(dp1598
I0
g1592
sI1
g1596
sI2
(lp1599
sI3
(lp1600
ssI3
(dp1601
I0
g1593
sI1
g1597
sI2
g1600
sI3
(lp1602
ssa(dp1603
I0
(dp1604
I0
(lp1605
sI1
(lp1606
sI2
(lp1607
sI3
(lp1608
ssI1
(dp1609
I1
(lp1610
sI2
(lp1611
sI3
(lp1612
ssI2
(dp1613
I0
g1607
sI1
g1611
sI2
(lp1614
sI3
(lp1615
ssI3
(dp1616
I0
g1608
sI1
g1612
sI2
g1615
sI3
(lp1617
ssa(dp1618
I0
(dp1619
I0
(lp1620
sI1
(lp1621
sI2
(lp1622
sI3
(lp1623
ssI1
(dp1624
I0
g1621
sI1
(lp1625
sI2
(lp1626
sI3
(lp1627
ssI2
(dp1628
I0
g1622
sI1
g1626
sI2
(lp1629
sI3
(lp1630
ssI3
(dp1631
I0
g1623
sI1
g1627
sI2
g1630
sI3
(lp1632
ssa(dp1633
I0
(dp1634
I0
(lp1635
sI1
(lp1636
sI2
(lp1637
sI3
(lp1638
ssI1
(dp1639
I0
g1636
sI1
(lp1640
sI2
(lp1641
sI3
(lp1642
ssI2
(dp1643
I0
g1637
sI1
g1641
sI2
(lp1644
sI3
(lp1645
ssI3
(dp1646
I0
g1638
sI1
g1642
sI2
g1645
sI3
(lp1647
ssa(dp1648
I0
(dp1649
I0
(lp1650
sI1
(lp1651
sI2
(lp1652
sI3
(lp1653
ssI1
(dp1654
I0
g1651
sI1
(lp1655
sI2
(lp1656
sI3
(lp1657
ssI2
(dp1658
I0
g1652
sI1
g1656
sI2
(lp1659
sI3
(lp1660
ssI3
(dp1661
I0
g1653
sI1
g1657
sI2
g1660
sI3
(lp1662
ssa(dp1663
I0
(dp1664
I0
(lp1665
sI1
(lp1666
sI2
(lp1667
sI3
(lp1668
ssI1
(dp1669
I0
g1666
sI1
(lp1670
sI2
(lp1671
sI3
(lp1672
ssI2
(dp1673
I0
g1667
sI1
g1671
sI2
(lp1674
sI3
(lp1675
ssI3
(dp1676
I0
g1668
sI1
g1672
sI2
g1675
sI3
(lp1677
ssa(dp1678
I0
(dp1679
I0
(lp1680
sI1
(lp1681
sI2
(lp1682
sI3
(lp1683
ssI1
(dp1684
I0
g1681
sI1
(lp1685
sI2
(lp1686
sI3
(lp1687
ssI2
(dp1688
I0
g1682
sI1
g1686
sI2
(lp1689
sI3
(lp1690
ssI3
(dp1691
I0
g1683
sI1
g1687
sI2
g1690
sI3
(lp1692
ssa(dp1693
I0
(dp1694
I0
(lp1695
sI1
(lp1696
sI2
(lp1697
sI3
(lp1698
ssI1
(dp1699
I0
g1696
sI1
(lp1700
sI2
(lp1701
sI3
(lp1702
ssI2
(dp1703
I0
g1697
sI1
g1701
sI2
(lp1704
sI3
(lp1705
ssI3
(dp1706
I0
g1698
sI1
g1702
sI2
g1705
sI3
(lp1707
ssa(dp1708
I0
(dp1709
I0
(lp1710
sI1
(lp1711
sI2
(lp1712
sI3
(lp1713
ssI1
(dp1714
I0
g1711
sI1
(lp1715
sI2
(lp1716
sI3
(lp1717
ssI2
(dp1718
I0
g1712
sI1
g1716
sI2
(lp1719
sI3
(lp1720
ssI3
(dp1721
I0
g1713
sI1
g1717
sI2
g1720
sI3
(lp1722
ssa(dp1723
I0
(dp1724
I0
(lp1725
sI1
(lp1726
sI2
(lp1727
sI3
(lp1728
ssI1
(dp1729
I0
g1726
sI1
(lp1730
sI2
(lp1731
sI3
(lp1732
ssI2
(dp1733
I0
g1727
sI1
g1731
sI2
(lp1734
sI3
(lp1735
ssI3
(dp1736
I0
g1728
sI1
g1732
sI2
g1735
sI3
(lp1737
ssa(dp1738
I0
(dp1739
I0
(lp1740
sI1
(lp1741
sI2
(lp1742
sI3
(lp1743
ssI1
(dp1744
I0
g1741
sI1
(lp1745
sI2
(lp1746
sI3
(lp1747
ssI2
(dp1748
I0
g1742
sI1
g1746
sI2
(lp1749
sI3
(lp1750
ssI3
(dp1751
I0
g1743
sI1
g1747
sI2
g1750
sI3
(lp1752
ssa(dp1753
I0
(dp1754
I0
(lp1755
sI1
(lp1756
Vhttp://dbpedia.org/ontology/wikiPageExternalLink
p1757
aVhttp://dbpedia.org/property/lowest
p1758
aVhttp://www.w3.org/1999/02/22-rdf-syntax-ns#type
p1759
aVhttp://purl.org/dc/terms/subject
p1760
aVhttp://www.w3.org/2000/01/rdf-schema#comment
p1761
aVhttp://dbpedia.org/ontology/lowest
p1762
aVhttp://dbpedia.org/ontology/abstract
p1763
aVhttp://dbpedia.org/property/river
p1764
aVhttp://dbpedia.org/property/district
p1765
aVhttp://dbpedia.org/property/city
p1766
aVhttp://dbpedia.org/ontology/river
p1767
aVhttp://dbpedia.org/property/municipality
p1768
aVhttp://dbpedia.org/ontology/district
p1769
aVhttp://dbpedia.org/property/hqCity
p1770
aVhttp://dbpedia.org/ontology/municipality
p1771
asI2
(lp1772
sI3
(lp1773
ssI1
(dp1774
I0
g1756
sI1
(lp1775
sI2
(lp1776
sI3
(lp1777
ssI2
(dp1778
I0
g1772
sI1
g1776
sI2
(lp1779
sI3
(lp1780
ssI3
(dp1781
I0
g1773
sI1
g1777
sI2
g1780
sI3
(lp1782
ssa(dp1783
I0
(dp1784
I0
(lp1785
sI1
(lp1786
sI2
(lp1787
sI3
(lp1788
ssI1
(dp1789
I0
g1786
sI1
(lp1790
sI2
(lp1791
sI3
(lp1792
ssI2
(dp1793
I0
g1787
sI1
g1791
sI2
(lp1794
sI3
(lp1795
ssI3
(dp1796
I0
g1788
sI1
g1792
sI2
g1795
sI3
(lp1797
ssa(dp1798
I0
(dp1799
I0
(lp1800
sI1
(lp1801
sI2
(lp1802
sI3
(lp1803
ssI1
(dp1804
I0
g1801
sI1
(lp1805
sI2
(lp1806
sI3
(lp1807
ssI2
(dp1808
I0
g1802
sI1
g1806
sI2
(lp1809
sI3
(lp1810
ssI3
(dp1811
I0
g1803
sI1
g1807
sI2
g1810
sI3
(lp1812
ssa(dp1813
I0
(dp1814
I0
(lp1815
sI1
(lp1816
sI2
(lp1817
sI3
(lp1818
ssI1
(dp1819
I0
g1816
sI1
(lp1820
sI2
(lp1821
sI3
(lp1822
ssI2
(dp1823
I0
g1817
sI1
g1821
sI2
(lp1824
sI3
(lp1825
ssI3
(dp1826
I0
g1818
sI1
g1822
sI2
g1825
sI3
(lp1827
ssa(dp1828
I0
(dp1829
I0
(lp1830
sI1
(lp1831
sI2
(lp1832
sI3
(lp1833
ssI1
(dp1834
I0
g1831
sI1
(lp1835
sI2
(lp1836
sI3
(lp1837
ssI2
(dp1838
I0
g1832
sI1
g1836
sI2
(lp1839
sI3
(lp1840
ssI3
(dp1841
I0
g1833
sI1
g1837
sI2
g1840
sI3
(lp1842
ssa(dp1843
I0
(dp1844
I0
(lp1845
sI1
(lp1846
sI2
(lp1847
sI3
(lp1848
ssI1
(dp1849
I0
g1846
sI1
(lp1850
sI2
(lp1851
sI3
(lp1852
ssI2
(dp1853
I0
g1847
sI1
g1851
sI2
(lp1854
sI3
(lp1855
ssI3
(dp1856
I0
g1848
sI1
g1852
sI2
g1855
sI3
(lp1857
ssa(dp1858
I0
(dp1859
I0
(lp1860
sI1
(lp1861
sI2
(lp1862
sI3
(lp1863
ssI1
(dp1864
I0
g1861
sI1
(lp1865
sI2
(lp1866
sI3
(lp1867
ssI2
(dp1868
I0
g1862
sI1
g1866
sI2
(lp1869
sI3
(lp1870
ssI3
(dp1871
I0
g1863
sI1
g1867
sI2
g1870
sI3
(lp1872
ssa(dp1873
I0
(dp1874
I0
(lp1875
sI1
(lp1876
sI2
(lp1877
sI3
(lp1878
ssI1
(dp1879
I0
g1876
sI1
(lp1880
sI2
(lp1881
sI3
(lp1882
ssI2
(dp1883
I0
g1877
sI1
g1881
sI2
(lp1884
sI3
(lp1885
ssI3
(dp1886
I0
g1878
sI1
g1882
sI2
g1885
sI3
(lp1887
ssa(dp1888
I0
(dp1889
I0
(lp1890
sI1
(lp1891
sI2
(lp1892
sI3
(lp1893
ssI1
(dp1894
I0
g1891
sI1
(lp1895
sI2
(lp1896
sI3
(lp1897
ssI2
(dp1898
I0
g1892
sI1
g1896
sI2
(lp1899
sI3
(lp1900
ssI3
(dp1901
I0
g1893
sI1
g1897
sI2
g1900
sI3
(lp1902
ssa(dp1903
I0
(dp1904
I0
(lp1905
sI1
(lp1906
sI2
(lp1907
sI3
(lp1908
ssI1
(dp1909
I0
g1906
sI1
(lp1910
sI2
(lp1911
sI3
(lp1912
ssI2
(dp1913
I0
g1907
sI1
g1911
sI2
(lp1914
sI3
(lp1915
ssI3
(dp1916
I0
g1908
sI1
g1912
sI2
g1915
sI3
(lp1917
ssa(dp1918
I0
(dp1919
I0
(lp1920
sI1
(lp1921
sI2
(lp1922
sI3
(lp1923
ssI1
(dp1924
I0
g1921
sI1
(lp1925
sI2
(lp1926
sI3
(lp1927
ssI2
(dp1928
I0
g1922
sI1
g1926
sI2
(lp1929
sI3
(lp1930
ssI3
(dp1931
I0
g1923
sI1
g1927
sI2
g1930
sI3
(lp1932
ssa(dp1933
I0
(dp1934
I0
(lp1935
sI1
(lp1936
sI2
(lp1937
sI3
(lp1938
ssI1
(dp1939
I0
g1936
sI1
(lp1940
sI2
(lp1941
sI3
(lp1942
ssI2
(dp1943
I0
g1937
sI1
g1941
sI2
(lp1944
sI3
(lp1945
ssI3
(dp1946
I0
g1938
sI1
g1942
sI2
g1945
sI3
(lp1947
ssa(dp1948
I0
(dp1949
I0
(lp1950
sI1
(lp1951
Vhttp://dbpedia.org/ontology/wikiPageExternalLink
p1952
aVhttp://dbpedia.org/property/region
p1953
aVhttp://dbpedia.org/ontology/nearestCity
p1954
aVhttp://dbpedia.org/ontology/location
p1955
aVhttp://www.w3.org/2000/01/rdf-schema#comment
p1956
aVhttp://dbpedia.org/property/map
p1957
aVhttp://dbpedia.org/ontology/abstract
p1958
aVhttp://dbpedia.org/ontology/wikiPageRedirects
p1959
aVhttp://dbpedia.org/property/location
p1960
aVhttp://dbpedia.org/property/cityServed
p1961
aVhttp://dbpedia.org/ontology/city
p1962
aVhttp://dbpedia.org/ontology/region
p1963
aVhttp://dbpedia.org/property/nearestCity
p1964
asI2
(lp1965
sI3
(lp1966
ssI1
(dp1967
I0
g1951
sI1
(lp1968
sI2
(lp1969
sI3
(lp1970
ssI2
(dp1971
I0
g1965
sI1
g1969
sI2
(lp1972
sI3
(lp1973
ssI3
(dp1974
I0
g1966
sI1
g1970
sI2
g1973
sI3
(lp1975
ssa(dp1976
I0
(dp1977
I0
(lp1978
sI1
(lp1979
sI2
(lp1980
sI3
(lp1981
ssI1
(dp1982
I0
g1979
sI1
(lp1983
sI2
(lp1984
sI3
(lp1985
ssI2
(dp1986
I0
g1980
sI1
g1984
sI2
(lp1987
sI3
(lp1988
ssI3
(dp1989
I0
g1981
sI1
g1985
sI2
g1988
sI3
(lp1990
ssa(dp1991
I0
(dp1992
I0
(lp1993
sI1
(lp1994
Vhttp://www.w3.org/1999/02/22-rdf-syntax-ns#type
p1995
aVhttp://purl.org/dc/terms/subject
p1996
aVhttp://www.w3.org/2000/01/rdf-schema#comment
p1997
aVhttp://dbpedia.org/ontology/abstract
p1998
aVhttp://dbpedia.org/ontology/isPartOf
p1999
aVhttp://dbpedia.org/property/subdivisionName
p2000
aVhttp://www.w3.org/2002/07/owl#sameAs
p2001
asI2
(lp2002
sI3
(lp2003
ssI1
(dp2004
I0
g1994
sI1
(lp2005
sI2
(lp2006
sI3
(lp2007
ssI2
(dp2008
I0
g2002
sI1
g2006
sI2
(lp2009
sI3
(lp2010
ssI3
(dp2011
I0
g2003
sI1
g2007
sI2
g2010
sI3
(lp2012
ssa(dp2013
I0
(dp2014
I0
(lp2015
sI1
(lp2016
sI2
(lp2017
sI3
(lp2018
ssI1
(dp2019
I0
g2016
sI1
(lp2020
sI2
(lp2021
sI3
(lp2022
ssI2
(dp2023
I0
g2017
sI1
g2021
sI2
(lp2024
sI3
(lp2025
ssI3
(dp2026
I0
g2018
sI1
g2022
sI2
g2025
sI3
(lp2027
ssa(dp2028
I0
(dp2029
I0
(lp2030
sI1
(lp2031
sI2
(lp2032
sI3
(lp2033
ssI1
(dp2034
I0
g2031
sI1
(lp2035
sI2
(lp2036
sI3
(lp2037
ssI2
(dp2038
I0
g2032
sI1
g2036
sI2
(lp2039
sI3
(lp2040
ssI3
(dp2041
I0
g2033
sI1
g2037
sI2
g2040
sI3
(lp2042
ssa(dp2043
I0
(dp2044
I0
(lp2045
sI1
(lp2046
sI2
(lp2047
sI3
(lp2048
ssI1
(dp2049
I0
g2046
sI1
(lp2050
sI2
(lp2051
sI3
(lp2052
ssI2
(dp2053
I0
g2047
sI1
g2051
sI2
(lp2054
sI3
(lp2055
ssI3
(dp2056
I0
g2048
sI1
g2052
sI2
g2055
sI3
(lp2057
ssa(dp2058
I0
(dp2059
I0
(lp2060
sI1
(lp2061
sI2
(lp2062
sI3
(lp2063
ssI1
(dp2064
I0
g2061
sI1
(lp2065
sI2
(lp2066
sI3
(lp2067
ssI2
(dp2068
I0
g2062
sI1
g2066
sI2
(lp2069
sI3
(lp2070
ssI3
(dp2071
I0
g2063
sI1
g2067
sI2
g2070
sI3
(lp2072
ssa(dp2073
I0
(dp2074
I0
(lp2075
sI1
(lp2076
sI2
(lp2077
sI3
(lp2078
ssI1
(dp2079
I0
g2076
sI1
(lp2080
sI2
(lp2081
sI3
(lp2082
ssI2
(dp2083
I0
g2077
sI1
g2081
sI2
(lp2084
sI3
(lp2085
ssI3
(dp2086
I0
g2078
sI1
g2082
sI2
g2085
sI3
(lp2087
ssa(dp2088
I0
(dp2089
I0
(lp2090
sI1
(lp2091
sI2
(lp2092
sI3
(lp2093
ssI1
(dp2094
I0
g2091
sI1
(lp2095
sI2
(lp2096
sI3
(lp2097
ssI2
(dp2098
I0
g2092
sI1
g2096
sI2
(lp2099
sI3
(lp2100
ssI3
(dp2101
I0
g2093
sI1
g2097
sI2
g2100
sI3
(lp2102
ssa(dp2103
I0
(dp2104
I0
(lp2105
sI1
(lp2106
sI2
(lp2107
sI3
(lp2108
ssI1
(dp2109
I0
g2106
sI1
(lp2110
sI2
(lp2111
sI3
(lp2112
ssI2
(dp2113
I0
g2107
sI1
g2111
sI2
(lp2114
sI3
(lp2115
ssI3
(dp2116
I0
g2108
sI1
g2112
sI2
g2115
sI3
(lp2117
ssa(dp2118
I0
(dp2119
I0
(lp2120
sI1
(lp2121
sI2
(lp2122
sI3
(lp2123
ssI1
(dp2124
I0
g2121
sI1
(lp2125
sI2
(lp2126
sI3
(lp2127
ssI2
(dp2128
I0
g2122
sI1
g2126
sI2
(lp2129
sI3
(lp2130
ssI3
(dp2131
I0
g2123
sI1
g2127
sI2
g2130
sI3
(lp2132
ssa(dp2133
I0
(dp2134
I0
(lp2135
sI1
(lp2136
sI2
(lp2137
sI3
(lp2138
ssI1
(dp2139
I0
g2136
sI1
(lp2140
sI2
(lp2141
sI3
(lp2142
ssI2
(dp2143
I0
g2137
sI1
g2141
sI2
(lp2144
sI3
(lp2145
ssI3
(dp2146
I0
g2138
sI1
g2142
sI2
g2145
sI3
(lp2147
ssa(dp2148
I0
(dp2149
I0
(lp2150
sI1
(lp2151
sI2
(lp2152
sI3
(lp2153
ssI1
(dp2154
I0
g2151
sI1
(lp2155
sI2
(lp2156
sI3
(lp2157
ssI2
(dp2158
I0
g2152
sI1
g2156
sI2
(lp2159
sI3
(lp2160
ssI3
(dp2161
I0
g2153
sI1
g2157
sI2
g2160
sI3
(lp2162
ssa(dp2163
I0
(dp2164
I0
(lp2165
sI1
(lp2166
Vhttp://dbpedia.org/property/mapCaption
p2167
aVhttp://www.w3.org/1999/02/22-rdf-syntax-ns#type
p2168
aVhttp://purl.org/dc/terms/subject
p2169
aVhttp://www.w3.org/2000/01/rdf-schema#comment
p2170
aVhttp://dbpedia.org/property/map
p2171
aVhttp://dbpedia.org/ontology/abstract
p2172
aVhttp://dbpedia.org/property/region
p2173
aVhttp://dbpedia.org/ontology/wikiPageRedirects
p2174
aVhttp://dbpedia.org/property/city
p2175
aVhttp://dbpedia.org/property/location
p2176
aVhttp://dbpedia.org/ontology/region
p2177
aVhttp://dbpedia.org/property/locationSpecial
p2178
asI2
(lp2179
sI3
(lp2180
ssI1
(dp2181
I0
g2166
sI1
(lp2182
sI2
(lp2183
sI3
(lp2184
ssI2
(dp2185
I0
g2179
sI1
g2183
sI2
(lp2186
sI3
(lp2187
ssI3
(dp2188
I0
g2180
sI1
g2184
sI2
g2187
sI3
(lp2189
ssa(dp2190
I0
(dp2191
I0
(lp2192
sI1
(lp2193
sI2
(lp2194
sI3
(lp2195
ssI1
(dp2196
I0
g2193
sI1
(lp2197
sI2
(lp2198
sI3
(lp2199
ssI2
(dp2200
I0
g2194
sI1
g2198
sI2
(lp2201
sI3
(lp2202
ssI3
(dp2203
I0
g2195
sI1
g2199
sI2
g2202
sI3
(lp2204
ssa(dp2205
I0
(dp2206
I0
(lp2207
sI1
(lp2208
sI2
(lp2209
sI3
(lp2210
ssI1
(dp2211
I0
g2208
sI1
(lp2212
sI2
(lp2213
sI3
(lp2214
ssI2
(dp2215
I0
g2209
sI1
g2213
sI2
(lp2216
sI3
(lp2217
ssI3
(dp2218
I0
g2210
sI1
g2214
sI2
g2217
sI3
(lp2219
ssa(dp2220
I0
(dp2221
I0
(lp2222
sI1
(lp2223
sI2
(lp2224
sI3
(lp2225
ssI1
(dp2226
I0
g2223
sI1
(lp2227
sI2
(lp2228
sI3
(lp2229
ssI2
(dp2230
I0
g2224
sI1
g2228
sI2
(lp2231
sI3
(lp2232
ssI3
(dp2233
I0
g2225
sI1
g2229
sI2
g2232
sI3
(lp2234
ssa(dp2235
I0
(dp2236
I0
(lp2237
sI1
(lp2238
sI2
(lp2239
sI3
(lp2240
ssI1
(dp2241
I0
g2238
sI1
(lp2242
sI2
(lp2243
sI3
(lp2244
ssI2
(dp2245
I0
g2239
sI1
g2243
sI2
(lp2246
sI3
(lp2247
ssI3
(dp2248
I0
g2240
sI1
g2244
sI2
g2247
sI3
(lp2249
ssa(dp2250
I0
(dp2251
I0
(lp2252
sI1
(lp2253
sI2
(lp2254
sI3
(lp2255
ssI1
(dp2256
I0
g2253
sI1
(lp2257
sI2
(lp2258
sI3
(lp2259
ssI2
(dp2260
I0
g2254
sI1
g2258
sI2
(lp2261
sI3
(lp2262
ssI3
(dp2263
I0
g2255
sI1
g2259
sI2
g2262
sI3
(lp2264
ssa(dp2265
I0
(dp2266
I0
(lp2267
sI1
(lp2268
sI2
(lp2269
sI3
(lp2270
ssI1
(dp2271
I0
g2268
sI1
(lp2272
sI2
(lp2273
sI3
(lp2274
ssI2
(dp2275
I0
g2269
sI1
g2273
sI2
(lp2276
sI3
(lp2277
ssI3
(dp2278
I0
g2270
sI1
g2274
sI2
g2277
sI3
(lp2279
ssa(dp2280
I0
(dp2281
I0
(lp2282
sI1
(lp2283
sI2
(lp2284
sI3
(lp2285
ssI1
(dp2286
I0
g2283
sI1
(lp2287
sI2
(lp2288
sI3
(lp2289
ssI2
(dp2290
I0
g2284
sI1
g2288
sI2
(lp2291
sI3
(lp2292
ssI3
(dp2293
I0
g2285
sI1
g2289
sI2
g2292
sI3
(lp2294
ssa(dp2295
I0
(dp2296
I0
(lp2297
sI1
(lp2298
sI2
(lp2299
sI3
(lp2300
ssI1
(dp2301
I0
g2298
sI1
(lp2302
sI2
(lp2303
sI3
(lp2304
ssI2
(dp2305
I0
g2299
sI1
g2303
sI2
(lp2306
sI3
(lp2307
ssI3
(dp2308
I0
g2300
sI1
g2304
sI2
g2307
sI3
(lp2309
ssa(dp2310
I0
(dp2311
I0
(lp2312
sI1
(lp2313
sI2
(lp2314
sI3
(lp2315
ssI1
(dp2316
I0
g2313
sI1
(lp2317
sI2
(lp2318
sI3
(lp2319
ssI2
(dp2320
I0
g2314
sI1
g2318
sI2
(lp2321
sI3
(lp2322
ssI3
(dp2323
I0
g2315
sI1
g2319
sI2
g2322
sI3
(lp2324
ssa(dp2325
I0
(dp2326
I0
(lp2327
sI1
(lp2328
sI2
(lp2329
sI3
(lp2330
ssI1
(dp2331
I0
g2328
sI1
(lp2332
sI2
(lp2333
sI3
(lp2334
ssI2
(dp2335
I0
g2329
sI1
g2333
sI2
(lp2336
sI3
(lp2337
ssI3
(dp2338
I0
g2330
sI1
g2334
sI2
g2337
sI3
(lp2339
ssa(dp2340
I0
(dp2341
I0
(lp2342
sI1
(lp2343
sI2
(lp2344
sI3
(lp2345
ssI1
(dp2346
I0
g2343
sI1
(lp2347
sI2
(lp2348
sI3
(lp2349
ssI2
(dp2350
I0
g2344
sI1
g2348
sI2
(lp2351
sI3
(lp2352
ssI3
(dp2353
I0
g2345
sI1
g2349
sI2
g2352
sI3
(lp2354
ssa(dp2355
I0
(dp2356
I0
(lp2357
sI1
(lp2358
sI2
(lp2359
sI3
(lp2360
ssI1
(dp2361
I0
g2358
sI1
(lp2362
sI2
(lp2363
sI3
(lp2364
ssI2
(dp2365
I0
g2359
sI1
g2363
sI2
(lp2366
sI3
(lp2367
ssI3
(dp2368
I0
g2360
sI1
g2364
sI2
g2367
sI3
(lp2369
ssa(dp2370
I0
(dp2371
I0
(lp2372
sI1
(lp2373
sI2
(lp2374
sI3
(lp2375
ssI1
(dp2376
I0
g2373
sI1
(lp2377
sI2
(lp2378
sI3
(lp2379
ssI2
(dp2380
I0
g2374
sI1
g2378
sI2
(lp2381
sI3
(lp2382
ssI3
(dp2383
I0
g2375
sI1
g2379
sI2
g2382
sI3
(lp2384
ssa(dp2385
I0
(dp2386
I0
(lp2387
sI1
(lp2388
sI2
(lp2389
sI3
(lp2390
ssI1
(dp2391
I0
g2388
sI1
(lp2392
sI2
(lp2393
sI3
(lp2394
ssI2
(dp2395
I0
g2389
sI1
g2393
sI2
(lp2396
sI3
(lp2397
ssI3
(dp2398
I0
g2390
sI1
g2394
sI2
g2397
sI3
(lp2399
ssa(dp2400
I0
(dp2401
I0
(lp2402
sI1
(lp2403
sI2
(lp2404
sI3
(lp2405
ssI1
(dp2406
I0
g2403
sI1
(lp2407
sI2
(lp2408
sI3
(lp2409
ssI2
(dp2410
I0
g2404
sI1
g2408
sI2
(lp2411
sI3
(lp2412
ssI3
(dp2413
I0
g2405
sI1
g2409
sI2
g2412
sI3
(lp2414
ssa(dp2415
I0
(dp2416
I0
(lp2417
sI1
(lp2418
sI2
(lp2419
sI3
(lp2420
ssI1
(dp2421
I0
g2418
sI1
(lp2422
sI2
(lp2423
sI3
(lp2424
ssI2
(dp2425
I0
g2419
sI1
g2423
sI2
(lp2426
sI3
(lp2427
ssI3
(dp2428
I0
g2420
sI1
g2424
sI2
g2427
sI3
(lp2429
ssa(dp2430
I0
(dp2431
I0
(lp2432
sI1
(lp2433
sI2
(lp2434
sI3
(lp2435
ssI1
(dp2436
I0
g2433
sI1
(lp2437
sI2
(lp2438
sI3
(lp2439
ssI2
(dp2440
I0
g2434
sI1
g2438
sI2
(lp2441
sI3
(lp2442
ssI3
(dp2443
I0
g2435
sI1
g2439
sI2
g2442
sI3
(lp2444
ssa(dp2445
I0
(dp2446
I0
(lp2447
sI1
(lp2448
sI2
(lp2449
sI3
(lp2450
ssI1
(dp2451
I0
g2448
sI1
(lp2452
sI2
(lp2453
sI3
(lp2454
ssI2
(dp2455
I0
g2449
sI1
g2453
sI2
(lp2456
sI3
(lp2457
ssI3
(dp2458
I0
g2450
sI1
g2454
sI2
g2457
sI3
(lp2459
ssa(dp2460
I0
(dp2461
I0
(lp2462
sI1
(lp2463
sI2
(lp2464
sI3
(lp2465
ssI1
(dp2466
I0
g2463
sI1
(lp2467
sI2
(lp2468
sI3
(lp2469
ssI2
(dp2470
I0
g2464
sI1
g2468
sI2
(lp2471
sI3
(lp2472
ssI3
(dp2473
I0
g2465
sI1
g2469
sI2
g2472
sI3
(lp2474
ssa(dp2475
I0
(dp2476
I0
(lp2477
sI1
(lp2478
sI2
(lp2479
sI3
(lp2480
ssI1
(dp2481
I0
g2478
sI1
(lp2482
sI2
(lp2483
sI3
(lp2484
ssI2
(dp2485
I0
g2479
sI1
g2483
sI2
(lp2486
sI3
(lp2487
ssI3
(dp2488
I0
g2480
sI1
g2484
sI2
g2487
sI3
(lp2489
ssa(dp2490
I0
(dp2491
I0
(lp2492
sI1
(lp2493
sI2
(lp2494
sI3
(lp2495
ssI1
(dp2496
I0
g2493
sI1
(lp2497
sI2
(lp2498
sI3
(lp2499
ssI2
(dp2500
I0
g2494
sI1
g2498
sI2
(lp2501
sI3
(lp2502
ssI3
(dp2503
I0
g2495
sI1
g2499
sI2
g2502
sI3
(lp2504
ssa(dp2505
I0
(dp2506
I0
(lp2507
sI1
(lp2508
sI2
(lp2509
sI3
(lp2510
ssI1
(dp2511
I0
g2508
sI1
(lp2512
sI2
(lp2513
sI3
(lp2514
ssI2
(dp2515
I0
g2509
sI1
g2513
sI2
(lp2516
sI3
(lp2517
ssI3
(dp2518
I0
g2510
sI1
g2514
sI2
g2517
sI3
(lp2519
ssa(dp2520
I0
(dp2521
I0
(lp2522
sI1
(lp2523
sI2
(lp2524
sI3
(lp2525
ssI1
(dp2526
I0
g2523
sI1
(lp2527
sI2
(lp2528
sI3
(lp2529
ssI2
(dp2530
I0
g2524
sI1
g2528
sI2
(lp2531
sI3
(lp2532
ssI3
(dp2533
I0
g2525
sI1
g2529
sI2
g2532
sI3
(lp2534
ssa(dp2535
I0
(dp2536
I0
(lp2537
sI1
(lp2538
sI2
(lp2539
sI3
(lp2540
ssI1
(dp2541
I0
g2538
sI1
(lp2542
sI2
(lp2543
sI3
(lp2544
ssI2
(dp2545
I0
g2539
sI1
g2543
sI2
(lp2546
sI3
(lp2547
ssI3
(dp2548
I0
g2540
sI1
g2544
sI2
g2547
sI3
(lp2549
ssa(dp2550
I0
(dp2551
I0
(lp2552
sI1
(lp2553
sI2
(lp2554
sI3
(lp2555
ssI1
(dp2556
I0
g2553
sI1
(lp2557
sI2
(lp2558
sI3
(lp2559
ssI2
(dp2560
I0
g2554
sI1
g2558
sI2
(lp2561
sI3
(lp2562
ssI3
(dp2563
I0
g2555
sI1
g2559
sI2
g2562
sI3
(lp2564
ssa(dp2565
I0
(dp2566
I0
(lp2567
sI1
(lp2568
sI2
(lp2569
sI3
(lp2570
ssI1
(dp2571
I0
g2568
sI1
(lp2572
sI2
(lp2573
sI3
(lp2574
ssI2
(dp2575
I0
g2569
sI1
g2573
sI2
(lp2576
sI3
(lp2577
ssI3
(dp2578
I0
g2570
sI1
g2574
sI2
g2577
sI3
(lp2579
ssa(dp2580
I0
(dp2581
I0
(lp2582
sI1
(lp2583
sI2
(lp2584
sI3
(lp2585
ssI1
(dp2586
I0
g2583
sI1
(lp2587
sI2
(lp2588
sI3
(lp2589
ssI2
(dp2590
I0
g2584
sI1
g2588
sI2
(lp2591
sI3
(lp2592
ssI3
(dp2593
I0
g2585
sI1
g2589
sI2
g2592
sI3
(lp2594
ssa(dp2595
I0
(dp2596
I0
(lp2597
sI1
(lp2598
sI2
(lp2599
sI3
(lp2600
ssI1
(dp2601
I0
g2598
sI1
(lp2602
sI2
(lp2603
sI3
(lp2604
ssI2
(dp2605
I0
g2599
sI1
g2603
sI2
(lp2606
sI3
(lp2607
ssI3
(dp2608
I0
g2600
sI1
g2604
sI2
g2607
sI3
(lp2609
ssa(dp2610
I0
(dp2611
I0
(lp2612
sI1
(lp2613
Vhttp://www.w3.org/1999/02/22-rdf-syntax-ns#type
p2614
aVhttp://purl.org/dc/terms/subject
p2615
aVhttp://www.w3.org/2000/01/rdf-schema#comment
p2616
aVhttp://dbpedia.org/ontology/abstract
p2617
aVhttp://dbpedia.org/ontology/isPartOf
p2618
aVhttp://dbpedia.org/property/city
p2619
aVhttp://dbpedia.org/property/subdivisionName
p2620
asI2
(lp2621
sI3
(lp2622
ssI1
(dp2623
I0
g2613
sI1
(lp2624
sI2
(lp2625
sI3
(lp2626
ssI2
(dp2627
I0
g2621
sI1
g2625
sI2
(lp2628
sI3
(lp2629
ssI3
(dp2630
I0
g2622
sI1
g2626
sI2
g2629
sI3
(lp2631
ssa(dp2632
I0
(dp2633
I0
(lp2634
sI1
(lp2635
Vhttp://www.w3.org/1999/02/22-rdf-syntax-ns#type
p2636
aVhttp://purl.org/dc/terms/subject
p2637
aVhttp://www.w3.org/2000/01/rdf-schema#comment
p2638
aVhttp://dbpedia.org/ontology/abstract
p2639
aVhttp://dbpedia.org/ontology/isPartOf
p2640
aVhttp://dbpedia.org/property/subdivisionName
p2641
asI2
(lp2642
sI3
(lp2643
ssI1
(dp2644
I0
g2635
sI1
(lp2645
sI2
(lp2646
sI3
(lp2647
ssI2
(dp2648
I0
g2642
sI1
g2646
sI2
(lp2649
sI3
(lp2650
ssI3
(dp2651
I0
g2643
sI1
g2647
sI2
g2650
sI3
(lp2652
ssa(dp2653
I0
(dp2654
I0
(lp2655
sI1
(lp2656
sI2
(lp2657
sI3
(lp2658
ssI1
(dp2659
I0
g2656
sI1
(lp2660
sI2
(lp2661
sI3
(lp2662
ssI2
(dp2663
I0
g2657
sI1
g2661
sI2
(lp2664
sI3
(lp2665
ssI3
(dp2666
I0
g2658
sI1
g2662
sI2
g2665
sI3
(lp2667
ssa(dp2668
I0
(dp2669
I0
(lp2670
sI1
(lp2671
sI2
(lp2672
sI3
(lp2673
ssI1
(dp2674
I0
g2671
sI1
(lp2675
sI2
(lp2676
sI3
(lp2677
ssI2
(dp2678
I0
g2672
sI1
g2676
sI2
(lp2679
sI3
(lp2680
ssI3
(dp2681
I0
g2673
sI1
g2677
sI2
g2680
sI3
(lp2682
ssa(dp2683
I0
(dp2684
I0
(lp2685
sI1
(lp2686
Vhttp://dbpedia.org/ontology/abstract
p2687
aVhttp://purl.org/dc/terms/subject
p2688
aVhttp://www.w3.org/2000/01/rdf-schema#comment
p2689
asI2
(lp2690
sI3
(lp2691
ssI1
(dp2692
I0
g2686
sI1
(lp2693
sI2
(lp2694
sI3
(lp2695
ssI2
(dp2696
I0
g2690
sI1
g2694
sI2
(lp2697
sI3
(lp2698
ssI3
(dp2699
I0
g2691
sI1
g2695
sI2
g2698
sI3
(lp2700
ssa(dp2701
I0
(dp2702
I0
(lp2703
sI1
(lp2704
sI2
(lp2705
sI3
(lp2706
ssI1
(dp2707
I0
g2704
sI1
(lp2708
sI2
(lp2709
sI3
(lp2710
ssI2
(dp2711
I0
g2705
sI1
g2709
sI2
(lp2712
sI3
(lp2713
ssI3
(dp2714
I0
g2706
sI1
g2710
sI2
g2713
sI3
(lp2715
ssa(dp2716
I0
(dp2717
I0
(lp2718
sI1
(lp2719
sI2
(lp2720
sI3
(lp2721
ssI1
(dp2722
I0
g2719
sI1
(lp2723
sI2
(lp2724
sI3
(lp2725
ssI2
(dp2726
I0
g2720
sI1
g2724
sI2
(lp2727
sI3
(lp2728
ssI3
(dp2729
I0
g2721
sI1
g2725
sI2
g2728
sI3
(lp2730
ssa(dp2731
I0
(dp2732
I0
(lp2733
sI1
(lp2734
sI2
(lp2735
sI3
(lp2736
ssI1
(dp2737
I0
g2734
sI1
(lp2738
sI2
(lp2739
sI3
(lp2740
ssI2
(dp2741
I0
g2735
sI1
g2739
sI2
(lp2742
sI3
(lp2743
ssI3
(dp2744
I0
g2736
sI1
g2740
sI2
g2743
sI3
(lp2745
ssa(dp2746
I0
(dp2747
I0
(lp2748
sI1
(lp2749
sI2
(lp2750
sI3
(lp2751
ssI1
(dp2752
I0
g2749
sI1
(lp2753
sI2
(lp2754
sI3
(lp2755
ssI2
(dp2756
I0
g2750
sI1
g2754
sI2
(lp2757
sI3
(lp2758
ssI3
(dp2759
I0
g2751
sI1
g2755
sI2
g2758
sI3
(lp2760
ssa(dp2761
I0
(dp2762
I0
(lp2763
sI1
(lp2764
sI2
(lp2765
sI3
(lp2766
ssI1
(dp2767
I0
g2764
sI1
(lp2768
sI2
(lp2769
sI3
(lp2770
ssI2
(dp2771
I0
g2765
sI1
g2769
sI2
(lp2772
sI3
(lp2773
ssI3
(dp2774
I0
g2766
sI1
g2770
sI2
g2773
sI3
(lp2775
ssa(dp2776
I0
(dp2777
I0
(lp2778
sI1
(lp2779
sI2
(lp2780
sI3
(lp2781
ssI1
(dp2782
I0
g2779
sI1
(lp2783
sI2
(lp2784
sI3
(lp2785
ssI2
(dp2786
I0
g2780
sI1
g2784
sI2
(lp2787
sI3
(lp2788
ssI3
(dp2789
I0
g2781
sI1
g2785
sI2
g2788
sI3
(lp2790
ssa(dp2791
I0
(dp2792
I0
(lp2793
sI1
(lp2794
sI2
(lp2795
sI3
(lp2796
ssI1
(dp2797
I0
g2794
sI1
(lp2798
sI2
(lp2799
sI3
(lp2800
ssI2
(dp2801
I0
g2795
sI1
g2799
sI2
(lp2802
sI3
(lp2803
ssI3
(dp2804
I0
g2796
sI1
g2800
sI2
g2803
sI3
(lp2805
ssa(dp2806
I0
(dp2807
I0
(lp2808
sI1
(lp2809
Vhttp://dbpedia.org/ontology/wikiPageExternalLink
p2810
aVhttp://www.w3.org/1999/02/22-rdf-syntax-ns#type
p2811
aVhttp://purl.org/dc/terms/subject
p2812
aVhttp://www.w3.org/2000/01/rdf-schema#comment
p2813
aVhttp://dbpedia.org/ontology/abstract
p2814
aVhttp://dbpedia.org/ontology/isPartOf
p2815
aVhttp://dbpedia.org/property/city
p2816
aVhttp://dbpedia.org/property/subdivisionName
p2817
aVhttp://www.w3.org/2002/07/owl#sameAs
p2818
asI2
(lp2819
sI3
(lp2820
ssI1
(dp2821
I0
g2809
sI1
(lp2822
sI2
(lp2823
sI3
(lp2824
ssI2
(dp2825
I0
g2819
sI1
g2823
sI2
(lp2826
sI3
(lp2827
ssI3
(dp2828
I0
g2820
sI1
g2824
sI2
g2827
sI3
(lp2829
ssa(dp2830
I0
(dp2831
I0
(lp2832
sI1
(lp2833
sI2
(lp2834
sI3
(lp2835
ssI1
(dp2836
I0
g2833
sI1
(lp2837
sI2
(lp2838
sI3
(lp2839
ssI2
(dp2840
I0
g2834
sI1
g2838
sI2
(lp2841
sI3
(lp2842
ssI3
(dp2843
I0
g2835
sI1
g2839
sI2
g2842
sI3
(lp2844
ssa(dp2845
I0
(dp2846
I0
(lp2847
sI1
(lp2848
sI2
(lp2849
sI3
(lp2850
ssI1
(dp2851
I0
g2848
sI1
(lp2852
sI2
(lp2853
sI3
(lp2854
ssI2
(dp2855
I0
g2849
sI1
g2853
sI2
(lp2856
sI3
(lp2857
ssI3
(dp2858
I0
g2850
sI1
g2854
sI2
g2857
sI3
(lp2859
ssa(dp2860
I0
(dp2861
I0
(lp2862
sI1
(lp2863
sI2
(lp2864
sI3
(lp2865
ssI1
(dp2866
I0
g2863
sI1
(lp2867
sI2
(lp2868
sI3
(lp2869
ssI2
(dp2870
I0
g2864
sI1
g2868
sI2
(lp2871
sI3
(lp2872
ssI3
(dp2873
I0
g2865
sI1
g2869
sI2
g2872
sI3
(lp2874
ssa(dp2875
I0
(dp2876
I0
(lp2877
sI1
(lp2878
sI2
(lp2879
sI3
(lp2880
ssI1
(dp2881
I0
g2878
sI1
(lp2882
sI2
(lp2883
sI3
(lp2884
ssI2
(dp2885
I0
g2879
sI1
g2883
sI2
(lp2886
sI3
(lp2887
ssI3
(dp2888
I0
g2880
sI1
g2884
sI2
g2887
sI3
(lp2889
ssa(dp2890
I0
(dp2891
I0
(lp2892
sI1
(lp2893
sI2
(lp2894
sI3
(lp2895
ssI1
(dp2896
I0
g2893
sI1
(lp2897
sI2
(lp2898
sI3
(lp2899
ssI2
(dp2900
I0
g2894
sI1
g2898
sI2
(lp2901
sI3
(lp2902
ssI3
(dp2903
I0
g2895
sI1
g2899
sI2
g2902
sI3
(lp2904
ssa(dp2905
I0
(dp2906
I0
(lp2907
sI1
(lp2908
sI2
(lp2909
sI3
(lp2910
ssI1
(dp2911
I0
g2908
sI1
(lp2912
sI2
(lp2913
sI3
(lp2914
ssI2
(dp2915
I0
g2909
sI1
g2913
sI2
(lp2916
sI3
(lp2917
ssI3
(dp2918
I0
g2910
sI1
g2914
sI2
g2917
sI3
(lp2919
ssa(dp2920
I0
(dp2921
I0
(lp2922
sI1
(lp2923
sI2
(lp2924
sI3
(lp2925
ssI1
(dp2926
I0
g2923
sI1
(lp2927
sI2
(lp2928
sI3
(lp2929
ssI2
(dp2930
I0
g2924
sI1
g2928
sI2
(lp2931
sI3
(lp2932
ssI3
(dp2933
I0
g2925
sI1
g2929
sI2
g2932
sI3
(lp2934
ssa(dp2935
I0
(dp2936
I0
(lp2937
sI1
(lp2938
sI2
(lp2939
sI3
(lp2940
ssI1
(dp2941
I0
g2938
sI1
(lp2942
sI2
(lp2943
sI3
(lp2944
ssI2
(dp2945
I0
g2939
sI1
g2943
sI2
(lp2946
sI3
(lp2947
ssI3
(dp2948
I0
g2940
sI1
g2944
sI2
g2947
sI3
(lp2949
ssa(dp2950
I0
(dp2951
I0
(lp2952
sI1
(lp2953
sI2
(lp2954
sI3
(lp2955
ssI1
(dp2956
I0
g2953
sI1
(lp2957
sI2
(lp2958
sI3
(lp2959
ssI2
(dp2960
I0
g2954
sI1
g2958
sI2
(lp2961
sI3
(lp2962
ssI3
(dp2963
I0
g2955
sI1
g2959
sI2
g2962
sI3
(lp2964
ssa(dp2965
I0
(dp2966
I0
(lp2967
sI1
(lp2968
sI2
(lp2969
sI3
(lp2970
ssI1
(dp2971
I0
g2968
sI1
(lp2972
sI2
(lp2973
sI3
(lp2974
ssI2
(dp2975
I0
g2969
sI1
g2973
sI2
(lp2976
sI3
(lp2977
ssI3
(dp2978
I0
g2970
sI1
g2974
sI2
g2977
sI3
(lp2979
ssa(dp2980
I0
(dp2981
I0
(lp2982
sI1
(lp2983
sI2
(lp2984
sI3
(lp2985
ssI1
(dp2986
I0
g2983
sI1
(lp2987
sI2
(lp2988
sI3
(lp2989
ssI2
(dp2990
I0
g2984
sI1
g2988
sI2
(lp2991
sI3
(lp2992
ssI3
(dp2993
I0
g2985
sI1
g2989
sI2
g2992
sI3
(lp2994
ssa(dp2995
I0
(dp2996
I0
(lp2997
sI1
(lp2998
sI2
(lp2999
sI3
(lp3000
ssI1
(dp3001
I0
g2998
sI1
(lp3002
sI2
(lp3003
sI3
(lp3004
ssI2
(dp3005
I0
g2999
sI1
g3003
sI2
(lp3006
sI3
(lp3007
ssI3
(dp3008
I0
g3000
sI1
g3004
sI2
g3007
sI3
(lp3009
ssa(dp3010
I0
(dp3011
I0
(lp3012
sI1
(lp3013
sI2
(lp3014
sI3
(lp3015
ssI1
(dp3016
I0
g3013
sI1
(lp3017
sI2
(lp3018
sI3
(lp3019
ssI2
(dp3020
I0
g3014
sI1
g3018
sI2
(lp3021
sI3
(lp3022
ssI3
(dp3023
I0
g3015
sI1
g3019
sI2
g3022
sI3
(lp3024
ssa(dp3025
I0
(dp3026
I0
(lp3027
sI1
(lp3028
sI2
(lp3029
sI3
(lp3030
ssI1
(dp3031
I0
g3028
sI1
(lp3032
sI2
(lp3033
sI3
(lp3034
ssI2
(dp3035
I0
g3029
sI1
g3033
sI2
(lp3036
sI3
(lp3037
ssI3
(dp3038
I0
g3030
sI1
g3034
sI2
g3037
sI3
(lp3039
ssa(dp3040
I0
(dp3041
I0
(lp3042
sI1
(lp3043
sI2
(lp3044
sI3
(lp3045
ssI1
(dp3046
I0
g3043
sI1
(lp3047
sI2
(lp3048
sI3
(lp3049
ssI2
(dp3050
I0
g3044
sI1
g3048
sI2
(lp3051
sI3
(lp3052
ssI3
(dp3053
I0
g3045
sI1
g3049
sI2
g3052
sI3
(lp3054
ssa(dp3055
I0
(dp3056
I0
(lp3057
sI1
(lp3058
sI2
(lp3059
sI3
(lp3060
ssI1
(dp3061
I0
g3058
sI1
(lp3062
sI2
(lp3063
sI3
(lp3064
ssI2
(dp3065
I0
g3059
sI1
g3063
sI2
(lp3066
sI3
(lp3067
ssI3
(dp3068
I0
g3060
sI1
g3064
sI2
g3067
sI3
(lp3069
ssa(dp3070
I0
(dp3071
I0
(lp3072
sI1
(lp3073
sI2
(lp3074
sI3
(lp3075
ssI1
(dp3076
I0
g3073
sI1
(lp3077
sI2
(lp3078
sI3
(lp3079
ssI2
(dp3080
I0
g3074
sI1
g3078
sI2
(lp3081
sI3
(lp3082
ssI3
(dp3083
I0
g3075
sI1
g3079
sI2
g3082
sI3
(lp3084
ssa(dp3085
I0
(dp3086
I0
(lp3087
sI1
(lp3088
sI2
(lp3089
sI3
(lp3090
ssI1
(dp3091
I0
g3088
sI1
(lp3092
sI2
(lp3093
sI3
(lp3094
ssI2
(dp3095
I0
g3089
sI1
g3093
sI2
(lp3096
sI3
(lp3097
ssI3
(dp3098
I0
g3090
sI1
g3094
sI2
g3097
sI3
(lp3099
ssa(dp3100
I0
(dp3101
I0
(lp3102
sI1
(lp3103
sI2
(lp3104
sI3
(lp3105
ssI1
(dp3106
I0
g3103
sI1
(lp3107
sI2
(lp3108
sI3
(lp3109
ssI2
(dp3110
I0
g3104
sI1
g3108
sI2
(lp3111
sI3
(lp3112
ssI3
(dp3113
I0
g3105
sI1
g3109
sI2
g3112
sI3
(lp3114
ssa(dp3115
I0
(dp3116
I0
(lp3117
sI1
(lp3118
sI2
(lp3119
sI3
(lp3120
ssI1
(dp3121
I0
g3118
sI1
(lp3122
sI2
(lp3123
sI3
(lp3124
ssI2
(dp3125
I0
g3119
sI1
g3123
sI2
(lp3126
sI3
(lp3127
ssI3
(dp3128
I0
g3120
sI1
g3124
sI2
g3127
sI3
(lp3129
ssa(dp3130
I0
(dp3131
I0
(lp3132
sI1
(lp3133
sI2
(lp3134
sI3
(lp3135
ssI1
(dp3136
I0
g3133
sI1
(lp3137
sI2
(lp3138
sI3
(lp3139
ssI2
(dp3140
I0
g3134
sI1
g3138
sI2
(lp3141
sI3
(lp3142
ssI3
(dp3143
I0
g3135
sI1
g3139
sI2
g3142
sI3
(lp3144
ssa(dp3145
I0
(dp3146
I0
(lp3147
sI1
(lp3148
sI2
(lp3149
sI3
(lp3150
ssI1
(dp3151
I0
g3148
sI1
(lp3152
sI2
(lp3153
sI3
(lp3154
ssI2
(dp3155
I0
g3149
sI1
g3153
sI2
(lp3156
sI3
(lp3157
ssI3
(dp3158
I0
g3150
sI1
g3154
sI2
g3157
sI3
(lp3159
ssa(dp3160
I0
(dp3161
I0
(lp3162
sI1
(lp3163
sI2
(lp3164
sI3
(lp3165
ssI1
(dp3166
I0
g3163
sI1
(lp3167
sI2
(lp3168
sI3
(lp3169
ssI2
(dp3170
I0
g3164
sI1
g3168
sI2
(lp3171
sI3
(lp3172
ssI3
(dp3173
I0
g3165
sI1
g3169
sI2
g3172
sI3
(lp3174
ssa(dp3175
I0
(dp3176
I0
(lp3177
sI1
(lp3178
sI2
(lp3179
sI3
(lp3180
ssI1
(dp3181
I0
g3178
sI1
(lp3182
sI2
(lp3183
sI3
(lp3184
ssI2
(dp3185
I0
g3179
sI1
g3183
sI2
(lp3186
sI3
(lp3187
ssI3
(dp3188
I0
g3180
sI1
g3184
sI2
g3187
sI3
(lp3189
ssa(dp3190
I0
(dp3191
I0
(lp3192
sI1
(lp3193
sI2
(lp3194
sI3
(lp3195
ssI1
(dp3196
I0
g3193
sI1
(lp3197
sI2
(lp3198
sI3
(lp3199
ssI2
(dp3200
I0
g3194
sI1
g3198
sI2
(lp3201
sI3
(lp3202
ssI3
(dp3203
I0
g3195
sI1
g3199
sI2
g3202
sI3
(lp3204
ssa(dp3205
I0
(dp3206
I0
(lp3207
sI1
(lp3208
sI2
(lp3209
sI3
(lp3210
ssI1
(dp3211
I0
g3208
sI1
(lp3212
sI2
(lp3213
sI3
(lp3214
ssI2
(dp3215
I0
g3209
sI1
g3213
sI2
(lp3216
sI3
(lp3217
ssI3
(dp3218
I0
g3210
sI1
g3214
sI2
g3217
sI3
(lp3219
ssa(dp3220
I0
(dp3221
I0
(lp3222
sI1
(lp3223
sI2
(lp3224
sI3
(lp3225
ssI1
(dp3226
I0
g3223
sI1
(lp3227
sI2
(lp3228
sI3
(lp3229
ssI2
(dp3230
I0
g3224
sI1
g3228
sI2
(lp3231
sI3
(lp3232
ssI3
(dp3233
I0
g3225
sI1
g3229
sI2
g3232
sI3
(lp3234
ssa(dp3235
I0
(dp3236
I0
(lp3237
sI1
(lp3238
sI2
(lp3239
sI3
(lp3240
ssI1
(dp3241
I1
(lp3242
sI2
(lp3243
sI3
(lp3244
ssI2
(dp3245
I0
g3239
sI1
g3243
sI2
(lp3246
sI3
(lp3247
ssI3
(dp3248
I0
g3240
sI1
g3244
sI2
g3247
sI3
(lp3249
ssa(dp3250
I0
(dp3251
I0
(lp3252
sI1
(lp3253
sI2
(lp3254
sI3
(lp3255
ssI1
(dp3256
I0
g3253
sI1
(lp3257
sI2
(lp3258
sI3
(lp3259
ssI2
(dp3260
I0
g3254
sI1
g3258
sI2
(lp3261
sI3
(lp3262
ssI3
(dp3263
I0
g3255
sI1
g3259
sI2
g3262
sI3
(lp3264
ssa(dp3265
I0
(dp3266
I0
(lp3267
sI1
(lp3268
sI2
(lp3269
sI3
(lp3270
ssI1
(dp3271
I0
g3268
sI1
(lp3272
sI2
(lp3273
sI3
(lp3274
ssI2
(dp3275
I0
g3269
sI1
g3273
sI2
(lp3276
sI3
(lp3277
ssI3
(dp3278
I0
g3270
sI1
g3274
sI2
g3277
sI3
(lp3279
ssa(dp3280
I0
(dp3281
I0
(lp3282
sI1
(lp3283
sI2
(lp3284
sI3
(lp3285
ssI1
(dp3286
I0
g3283
sI1
(lp3287
sI2
(lp3288
sI3
(lp3289
ssI2
(dp3290
I0
g3284
sI1
g3288
sI2
(lp3291
sI3
(lp3292
ssI3
(dp3293
I0
g3285
sI1
g3289
sI2
g3292
sI3
(lp3294
ssa(dp3295
I0
(dp3296
I0
(lp3297
sI1
(lp3298
sI2
(lp3299
sI3
(lp3300
ssI1
(dp3301
I0
g3298
sI1
(lp3302
sI2
(lp3303
sI3
(lp3304
ssI2
(dp3305
I0
g3299
sI1
g3303
sI2
(lp3306
sI3
(lp3307
ssI3
(dp3308
I0
g3300
sI1
g3304
sI2
g3307
sI3
(lp3309
ssa(dp3310
I0
(dp3311
I0
(lp3312
sI1
(lp3313
sI2
(lp3314
sI3
(lp3315
ssI1
(dp3316
I0
g3313
sI1
(lp3317
sI2
(lp3318
sI3
(lp3319
ssI2
(dp3320
I0
g3314
sI1
g3318
sI2
(lp3321
sI3
(lp3322
ssI3
(dp3323
I0
g3315
sI1
g3319
sI2
g3322
sI3
(lp3324
ssa(dp3325
I0
(dp3326
I0
(lp3327
sI1
(lp3328
sI2
(lp3329
sI3
(lp3330
ssI1
(dp3331
I0
g3328
sI1
(lp3332
sI2
(lp3333
sI3
(lp3334
ssI2
(dp3335
I0
g3329
sI1
g3333
sI2
(lp3336
sI3
(lp3337
ssI3
(dp3338
I0
g3330
sI1
g3334
sI2
g3337
sI3
(lp3339
ssa(dp3340
I0
(dp3341
I0
(lp3342
sI1
(lp3343
sI2
(lp3344
sI3
(lp3345
ssI1
(dp3346
I0
g3343
sI1
(lp3347
sI2
(lp3348
sI3
(lp3349
ssI2
(dp3350
I0
g3344
sI1
g3348
sI2
(lp3351
sI3
(lp3352
ssI3
(dp3353
I0
g3345
sI1
g3349
sI2
g3352
sI3
(lp3354
ssa(dp3355
I0
(dp3356
I0
(lp3357
sI1
(lp3358
sI2
(lp3359
sI3
(lp3360
ssI1
(dp3361
I0
g3358
sI1
(lp3362
sI2
(lp3363
sI3
(lp3364
ssI2
(dp3365
I0
g3359
sI1
g3363
sI2
(lp3366
sI3
(lp3367
ssI3
(dp3368
I0
g3360
sI1
g3364
sI2
g3367
sI3
(lp3369
ssa(dp3370
I0
(dp3371
I0
(lp3372
sI1
(lp3373
sI2
(lp3374
sI3
(lp3375
ssI1
(dp3376
I0
g3373
sI1
(lp3377
sI2
(lp3378
sI3
(lp3379
ssI2
(dp3380
I0
g3374
sI1
g3378
sI2
(lp3381
sI3
(lp3382
ssI3
(dp3383
I0
g3375
sI1
g3379
sI2
g3382
sI3
(lp3384
ssa(dp3385
I0
(dp3386
I0
(lp3387
sI1
(lp3388
sI2
(lp3389
sI3
(lp3390
ssI1
(dp3391
I0
g3388
sI1
(lp3392
sI2
(lp3393
sI3
(lp3394
ssI2
(dp3395
I0
g3389
sI1
g3393
sI2
(lp3396
sI3
(lp3397
ssI3
(dp3398
I0
g3390
sI1
g3394
sI2
g3397
sI3
(lp3399
ssa(dp3400
I0
(dp3401
I0
(lp3402
sI1
(lp3403
sI2
(lp3404
sI3
(lp3405
ssI1
(dp3406
I0
g3403
sI1
(lp3407
sI2
(lp3408
sI3
(lp3409
ssI2
(dp3410
I0
g3404
sI1
g3408
sI2
(lp3411
sI3
(lp3412
ssI3
(dp3413
I0
g3405
sI1
g3409
sI2
g3412
sI3
(lp3414
ssa(dp3415
I0
(dp3416
I0
(lp3417
sI1
(lp3418
sI2
(lp3419
sI3
(lp3420
ssI1
(dp3421
I0
g3418
sI1
(lp3422
sI2
(lp3423
sI3
(lp3424
ssI2
(dp3425
I0
g3419
sI1
g3423
sI2
(lp3426
sI3
(lp3427
ssI3
(dp3428
I0
g3420
sI1
g3424
sI2
g3427
sI3
(lp3429
ssa(dp3430
I0
(dp3431
I0
(lp3432
sI1
(lp3433
sI2
(lp3434
sI3
(lp3435
ssI1
(dp3436
I0
g3433
sI1
(lp3437
sI2
(lp3438
sI3
(lp3439
ssI2
(dp3440
I0
g3434
sI1
g3438
sI2
(lp3441
sI3
(lp3442
ssI3
(dp3443
I0
g3435
sI1
g3439
sI2
g3442
sI3
(lp3444
ssa(dp3445
I0
(dp3446
I0
(lp3447
sI1
(lp3448
sI2
(lp3449
sI3
(lp3450
ssI1
(dp3451
I0
g3448
sI1
(lp3452
sI2
(lp3453
sI3
(lp3454
ssI2
(dp3455
I0
g3449
sI1
g3453
sI2
(lp3456
sI3
(lp3457
ssI3
(dp3458
I0
g3450
sI1
g3454
sI2
g3457
sI3
(lp3459
ssa(dp3460
I0
(dp3461
I0
(lp3462
sI1
(lp3463
sI2
(lp3464
sI3
(lp3465
ssI1
(dp3466
I0
g3463
sI1
(lp3467
sI2
(lp3468
sI3
(lp3469
ssI2
(dp3470
I0
g3464
sI1
g3468
sI2
(lp3471
sI3
(lp3472
ssI3
(dp3473
I0
g3465
sI1
g3469
sI2
g3472
sI3
(lp3474
ssa(dp3475
I0
(dp3476
I0
(lp3477
sI1
(lp3478
sI2
(lp3479
sI3
(lp3480
ssI1
(dp3481
I0
g3478
sI1
(lp3482
sI2
(lp3483
sI3
(lp3484
ssI2
(dp3485
I0
g3479
sI1
g3483
sI2
(lp3486
sI3
(lp3487
ssI3
(dp3488
I0
g3480
sI1
g3484
sI2
g3487
sI3
(lp3489
ssa(dp3490
I0
(dp3491
I0
(lp3492
sI1
(lp3493
sI2
(lp3494
sI3
(lp3495
ssI1
(dp3496
I0
g3493
sI1
(lp3497
sI2
(lp3498
sI3
(lp3499
ssI2
(dp3500
I0
g3494
sI1
g3498
sI2
(lp3501
sI3
(lp3502
ssI3
(dp3503
I0
g3495
sI1
g3499
sI2
g3502
sI3
(lp3504
ssa(dp3505
I0
(dp3506
I0
(lp3507
sI1
(lp3508
sI2
(lp3509
sI3
(lp3510
ssI1
(dp3511
I0
g3508
sI1
(lp3512
sI2
(lp3513
sI3
(lp3514
ssI2
(dp3515
I0
g3509
sI1
g3513
sI2
(lp3516
sI3
(lp3517
ssI3
(dp3518
I0
g3510
sI1
g3514
sI2
g3517
sI3
(lp3519
ssa(dp3520
I0
(dp3521
I0
(lp3522
sI1
(lp3523
sI2
(lp3524
sI3
(lp3525
ssI1
(dp3526
I0
g3523
sI1
(lp3527
sI2
(lp3528
sI3
(lp3529
ssI2
(dp3530
I0
g3524
sI1
g3528
sI2
(lp3531
sI3
(lp3532
ssI3
(dp3533
I0
g3525
sI1
g3529
sI2
g3532
sI3
(lp3534
ssa(dp3535
I0
(dp3536
I0
(lp3537
sI1
(lp3538
sI2
(lp3539
sI3
(lp3540
ssI1
(dp3541
I0
g3538
sI1
(lp3542
sI2
(lp3543
sI3
(lp3544
ssI2
(dp3545
I0
g3539
sI1
g3543
sI2
(lp3546
sI3
(lp3547
ssI3
(dp3548
I0
g3540
sI1
g3544
sI2
g3547
sI3
(lp3549
ssa(dp3550
I0
(dp3551
I0
(lp3552
sI1
(lp3553
sI2
(lp3554
sI3
(lp3555
ssI1
(dp3556
I0
g3553
sI1
(lp3557
sI2
(lp3558
sI3
(lp3559
ssI2
(dp3560
I0
g3554
sI1
g3558
sI2
(lp3561
sI3
(lp3562
ssI3
(dp3563
I0
g3555
sI1
g3559
sI2
g3562
sI3
(lp3564
ssa(dp3565
I0
(dp3566
I0
(lp3567
sI1
(lp3568
sI2
(lp3569
sI3
(lp3570
ssI1
(dp3571
I0
g3568
sI1
(lp3572
sI2
(lp3573
sI3
(lp3574
ssI2
(dp3575
I0
g3569
sI1
g3573
sI2
(lp3576
sI3
(lp3577
ssI3
(dp3578
I0
g3570
sI1
g3574
sI2
g3577
sI3
(lp3579
ssa(dp3580
I0
(dp3581
I0
(lp3582
sI1
(lp3583
sI2
(lp3584
sI3
(lp3585
ssI1
(dp3586
I0
g3583
sI1
(lp3587
sI2
(lp3588
sI3
(lp3589
ssI2
(dp3590
I0
g3584
sI1
g3588
sI2
(lp3591
sI3
(lp3592
ssI3
(dp3593
I0
g3585
sI1
g3589
sI2
g3592
sI3
(lp3594
ssa(dp3595
I0
(dp3596
I0
(lp3597
sI1
(lp3598
sI2
(lp3599
sI3
(lp3600
ssI1
(dp3601
I0
g3598
sI1
(lp3602
sI2
(lp3603
sI3
(lp3604
ssI2
(dp3605
I0
g3599
sI1
g3603
sI2
(lp3606
sI3
(lp3607
ssI3
(dp3608
I0
g3600
sI1
g3604
sI2
g3607
sI3
(lp3609
ssa(dp3610
I0
(dp3611
I0
(lp3612
sI1
(lp3613
sI2
(lp3614
sI3
(lp3615
ssI1
(dp3616
I0
g3613
sI1
(lp3617
sI2
(lp3618
sI3
(lp3619
ssI2
(dp3620
I0
g3614
sI1
g3618
sI2
(lp3621
sI3
(lp3622
ssI3
(dp3623
I0
g3615
sI1
g3619
sI2
g3622
sI3
(lp3624
ssa(dp3625
I0
(dp3626
I0
(lp3627
sI1
(lp3628
sI2
(lp3629
sI3
(lp3630
ssI1
(dp3631
I0
g3628
sI1
(lp3632
sI2
(lp3633
sI3
(lp3634
ssI2
(dp3635
I0
g3629
sI1
g3633
sI2
(lp3636
sI3
(lp3637
ssI3
(dp3638
I0
g3630
sI1
g3634
sI2
g3637
sI3
(lp3639
ssa(dp3640
I0
(dp3641
I0
(lp3642
sI1
(lp3643
sI2
(lp3644
sI3
(lp3645
ssI1
(dp3646
I0
g3643
sI1
(lp3647
sI2
(lp3648
sI3
(lp3649
ssI2
(dp3650
I0
g3644
sI1
g3648
sI2
(lp3651
sI3
(lp3652
ssI3
(dp3653
I0
g3645
sI1
g3649
sI2
g3652
sI3
(lp3654
ssa(dp3655
I0
(dp3656
I0
(lp3657
sI1
(lp3658
sI2
(lp3659
sI3
(lp3660
ssI1
(dp3661
I0
g3658
sI1
(lp3662
sI2
(lp3663
sI3
(lp3664
ssI2
(dp3665
I0
g3659
sI1
g3663
sI2
(lp3666
sI3
(lp3667
ssI3
(dp3668
I0
g3660
sI1
g3664
sI2
g3667
sI3
(lp3669
ssa(dp3670
I0
(dp3671
I0
(lp3672
sI1
(lp3673
sI2
(lp3674
sI3
(lp3675
ssI1
(dp3676
I0
g3673
sI1
(lp3677
sI2
(lp3678
sI3
(lp3679
ssI2
(dp3680
I0
g3674
sI1
g3678
sI2
(lp3681
sI3
(lp3682
ssI3
(dp3683
I0
g3675
sI1
g3679
sI2
g3682
sI3
(lp3684
ssa(dp3685
I0
(dp3686
I0
(lp3687
sI1
(lp3688
sI2
(lp3689
sI3
(lp3690
ssI1
(dp3691
I0
g3688
sI1
(lp3692
sI2
(lp3693
sI3
(lp3694
ssI2
(dp3695
I0
g3689
sI1
g3693
sI2
(lp3696
sI3
(lp3697
ssI3
(dp3698
I0
g3690
sI1
g3694
sI2
g3697
sI3
(lp3699
ssa(dp3700
I0
(dp3701
I0
(lp3702
sI1
(lp3703
sI2
(lp3704
sI3
(lp3705
ssI1
(dp3706
I0
g3703
sI1
(lp3707
sI2
(lp3708
sI3
(lp3709
ssI2
(dp3710
I0
g3704
sI1
g3708
sI2
(lp3711
sI3
(lp3712
ssI3
(dp3713
I0
g3705
sI1
g3709
sI2
g3712
sI3
(lp3714
ssa(dp3715
I0
(dp3716
I0
(lp3717
sI1
(lp3718
sI2
(lp3719
sI3
(lp3720
ssI1
(dp3721
I0
g3718
sI1
(lp3722
sI2
(lp3723
sI3
(lp3724
ssI2
(dp3725
I0
g3719
sI1
g3723
sI2
(lp3726
sI3
(lp3727
ssI3
(dp3728
I0
g3720
sI1
g3724
sI2
g3727
sI3
(lp3729
ssa(dp3730
I0
(dp3731
I0
(lp3732
sI1
(lp3733
sI2
(lp3734
sI3
(lp3735
ssI1
(dp3736
I0
g3733
sI1
(lp3737
sI2
(lp3738
sI3
(lp3739
ssI2
(dp3740
I0
g3734
sI1
g3738
sI2
(lp3741
sI3
(lp3742
ssI3
(dp3743
I0
g3735
sI1
g3739
sI2
g3742
sI3
(lp3744
ssa(dp3745
I0
(dp3746
I0
(lp3747
sI1
(lp3748
sI2
(lp3749
sI3
(lp3750
ssI1
(dp3751
I0
g3748
sI1
(lp3752
sI2
(lp3753
sI3
(lp3754
ssI2
(dp3755
I0
g3749
sI1
g3753
sI2
(lp3756
sI3
(lp3757
ssI3
(dp3758
I0
g3750
sI1
g3754
sI2
g3757
sI3
(lp3759
ssa(dp3760
I0
(dp3761
I0
(lp3762
sI1
(lp3763
sI2
(lp3764
sI3
(lp3765
ssI1
(dp3766
I0
g3763
sI1
(lp3767
sI2
(lp3768
sI3
(lp3769
ssI2
(dp3770
I0
g3764
sI1
g3768
sI2
(lp3771
sI3
(lp3772
ssI3
(dp3773
I0
g3765
sI1
g3769
sI2
g3772
sI3
(lp3774
ssa(dp3775
I0
(dp3776
I0
(lp3777
sI1
(lp3778
sI2
(lp3779
sI3
(lp3780
ssI1
(dp3781
I0
g3778
sI1
(lp3782
sI2
(lp3783
sI3
(lp3784
ssI2
(dp3785
I0
g3779
sI1
g3783
sI2
(lp3786
sI3
(lp3787
ssI3
(dp3788
I0
g3780
sI1
g3784
sI2
g3787
sI3
(lp3789
ssa(dp3790
I0
(dp3791
I0
(lp3792
sI1
(lp3793
sI2
(lp3794
sI3
(lp3795
ssI1
(dp3796
I1
(lp3797
sI2
(lp3798
sI3
(lp3799
ssI2
(dp3800
I0
g3794
sI1
g3798
sI2
(lp3801
sI3
(lp3802
ssI3
(dp3803
I0
g3795
sI1
g3799
sI2
g3802
sI3
(lp3804
ssa(dp3805
I0
(dp3806
I0
(lp3807
sI1
(lp3808
sI2
(lp3809
sI3
(lp3810
ssI1
(dp3811
I0
g3808
sI1
(lp3812
sI2
(lp3813
sI3
(lp3814
ssI2
(dp3815
I0
g3809
sI1
g3813
sI2
(lp3816
sI3
(lp3817
ssI3
(dp3818
I0
g3810
sI1
g3814
sI2
g3817
sI3
(lp3819
ssa(dp3820
I0
(dp3821
I0
(lp3822
sI1
(lp3823
sI2
(lp3824
sI3
(lp3825
ssI1
(dp3826
I0
g3823
sI1
(lp3827
sI2
(lp3828
sI3
(lp3829
ssI2
(dp3830
I0
g3824
sI1
g3828
sI2
(lp3831
sI3
(lp3832
ssI3
(dp3833
I0
g3825
sI1
g3829
sI2
g3832
sI3
(lp3834
ssa(dp3835
I0
(dp3836
I0
(lp3837
sI1
(lp3838
Vhttp://www.w3.org/1999/02/22-rdf-syntax-ns#type
p3839
aVhttp://purl.org/dc/terms/subject
p3840
aVhttp://www.w3.org/2000/01/rdf-schema#comment
p3841
aVhttp://dbpedia.org/ontology/abstract
p3842
aVhttp://dbpedia.org/ontology/isPartOf
p3843
aVhttp://dbpedia.org/property/city
p3844
aVhttp://dbpedia.org/property/subdivisionName
p3845
asI2
(lp3846
sI3
(lp3847
ssI1
(dp3848
I0
g3838
sI1
(lp3849
sI2
(lp3850
sI3
(lp3851
ssI2
(dp3852
I0
g3846
sI1
g3850
sI2
(lp3853
sI3
(lp3854
ssI3
(dp3855
I0
g3847
sI1
g3851
sI2
g3854
sI3
(lp3856
ssa(dp3857
I0
(dp3858
I0
(lp3859
sI1
(lp3860
sI2
(lp3861
sI3
(lp3862
ssI1
(dp3863
I0
g3860
sI1
(lp3864
sI2
(lp3865
sI3
(lp3866
ssI2
(dp3867
I0
g3861
sI1
g3865
sI2
(lp3868
sI3
(lp3869
ssI3
(dp3870
I0
g3862
sI1
g3866
sI2
g3869
sI3
(lp3871
ssa(dp3872
I0
(dp3873
I0
(lp3874
sI1
(lp3875
sI2
(lp3876
sI3
(lp3877
ssI1
(dp3878
I0
g3875
sI1
(lp3879
sI2
(lp3880
sI3
(lp3881
ssI2
(dp3882
I0
g3876
sI1
g3880
sI2
(lp3883
sI3
(lp3884
ssI3
(dp3885
I0
g3877
sI1
g3881
sI2
g3884
sI3
(lp3886
ssa(dp3887
I0
(dp3888
I0
(lp3889
sI1
(lp3890
sI2
(lp3891
sI3
(lp3892
ssI1
(dp3893
I0
g3890
sI1
(lp3894
sI2
(lp3895
sI3
(lp3896
ssI2
(dp3897
I0
g3891
sI1
g3895
sI2
(lp3898
sI3
(lp3899
ssI3
(dp3900
I0
g3892
sI1
g3896
sI2
g3899
sI3
(lp3901
ssa(dp3902
I0
(dp3903
I0
(lp3904
sI1
(lp3905
sI2
(lp3906
sI3
(lp3907
ssI1
(dp3908
I0
g3905
sI1
(lp3909
sI2
(lp3910
sI3
(lp3911
ssI2
(dp3912
I0
g3906
sI1
g3910
sI2
(lp3913
sI3
(lp3914
ssI3
(dp3915
I0
g3907
sI1
g3911
sI2
g3914
sI3
(lp3916
ssa(dp3917
I0
(dp3918
I0
(lp3919
sI1
(lp3920
sI2
(lp3921
sI3
(lp3922
ssI1
(dp3923
I0
g3920
sI1
(lp3924
sI2
(lp3925
sI3
(lp3926
ssI2
(dp3927
I0
g3921
sI1
g3925
sI2
(lp3928
sI3
(lp3929
ssI3
(dp3930
I0
g3922
sI1
g3926
sI2
g3929
sI3
(lp3931
ssa(dp3932
I0
(dp3933
I0
(lp3934
sI1
(lp3935
sI2
(lp3936
sI3
(lp3937
ssI1
(dp3938
I0
g3935
sI1
(lp3939
sI2
(lp3940
sI3
(lp3941
ssI2
(dp3942
I0
g3936
sI1
g3940
sI2
(lp3943
sI3
(lp3944
ssI3
(dp3945
I0
g3937
sI1
g3941
sI2
g3944
sI3
(lp3946
ssa(dp3947
I0
(dp3948
I0
(lp3949
sI1
(lp3950
Vhttp://dbpedia.org/property/mapCaption
p3951
aVhttp://www.w3.org/1999/02/22-rdf-syntax-ns#type
p3952
aVhttp://purl.org/dc/terms/subject
p3953
aVhttp://www.w3.org/2000/01/rdf-schema#comment
p3954
aVhttp://dbpedia.org/property/map
p3955
aVhttp://dbpedia.org/ontology/abstract
p3956
aVhttp://xmlns.com/foaf/0.1/depiction
p3957
aVhttp://dbpedia.org/property/region
p3958
aVhttp://dbpedia.org/property/city
p3959
aVhttp://dbpedia.org/ontology/thumbnail
p3960
aVhttp://dbpedia.org/ontology/region
p3961
asI2
(lp3962
sI3
(lp3963
ssI1
(dp3964
I0
g3950
sI1
(lp3965
sI2
(lp3966
sI3
(lp3967
ssI2
(dp3968
I0
g3962
sI1
g3966
sI2
(lp3969
sI3
(lp3970
ssI3
(dp3971
I0
g3963
sI1
g3967
sI2
g3970
sI3
(lp3972
ssa(dp3973
I0
(dp3974
I0
(lp3975
sI1
(lp3976
sI2
(lp3977
sI3
(lp3978
ssI1
(dp3979
I0
g3976
sI1
(lp3980
sI2
(lp3981
sI3
(lp3982
ssI2
(dp3983
I0
g3977
sI1
g3981
sI2
(lp3984
sI3
(lp3985
ssI3
(dp3986
I0
g3978
sI1
g3982
sI2
g3985
sI3
(lp3987
ssa(dp3988
I0
(dp3989
I0
(lp3990
sI1
(lp3991
sI2
(lp3992
sI3
(lp3993
ssI1
(dp3994
I0
g3991
sI1
(lp3995
sI2
(lp3996
sI3
(lp3997
ssI2
(dp3998
I0
g3992
sI1
g3996
sI2
(lp3999
sI3
(lp4000
ssI3
(dp4001
I0
g3993
sI1
g3997
sI2
g4000
sI3
(lp4002
ssa(dp4003
I0
(dp4004
I0
(lp4005
sI1
(lp4006
sI2
(lp4007
sI3
(lp4008
ssI1
(dp4009
I0
g4006
sI1
(lp4010
sI2
(lp4011
sI3
(lp4012
ssI2
(dp4013
I0
g4007
sI1
g4011
sI2
(lp4014
sI3
(lp4015
ssI3
(dp4016
I0
g4008
sI1
g4012
sI2
g4015
sI3
(lp4017
ssa(dp4018
I0
(dp4019
I0
(lp4020
sI1
(lp4021
sI2
(lp4022
sI3
(lp4023
ssI1
(dp4024
I0
g4021
sI1
(lp4025
sI2
(lp4026
sI3
(lp4027
ssI2
(dp4028
I0
g4022
sI1
g4026
sI2
(lp4029
sI3
(lp4030
ssI3
(dp4031
I0
g4023
sI1
g4027
sI2
g4030
sI3
(lp4032
ssa(dp4033
I0
(dp4034
I0
(lp4035
sI1
(lp4036
sI2
(lp4037
sI3
(lp4038
ssI1
(dp4039
I0
g4036
sI1
(lp4040
sI2
(lp4041
sI3
(lp4042
ssI2
(dp4043
I0
g4037
sI1
g4041
sI2
(lp4044
sI3
(lp4045
ssI3
(dp4046
I0
g4038
sI1
g4042
sI2
g4045
sI3
(lp4047
ssa(dp4048
I0
(dp4049
I0
(lp4050
sI1
(lp4051
sI2
(lp4052
sI3
(lp4053
ssI1
(dp4054
I0
g4051
sI1
(lp4055
sI2
(lp4056
sI3
(lp4057
ssI2
(dp4058
I0
g4052
sI1
g4056
sI2
(lp4059
sI3
(lp4060
ssI3
(dp4061
I0
g4053
sI1
g4057
sI2
g4060
sI3
(lp4062
ssa(dp4063
I0
(dp4064
I0
(lp4065
sI1
(lp4066
sI2
(lp4067
sI3
(lp4068
ssI1
(dp4069
I0
g4066
sI1
(lp4070
sI2
(lp4071
sI3
(lp4072
ssI2
(dp4073
I0
g4067
sI1
g4071
sI2
(lp4074
sI3
(lp4075
ssI3
(dp4076
I0
g4068
sI1
g4072
sI2
g4075
sI3
(lp4077
ssa(dp4078
I0
(dp4079
I0
(lp4080
sI1
(lp4081
sI2
(lp4082
sI3
(lp4083
ssI1
(dp4084
I0
g4081
sI1
(lp4085
sI2
(lp4086
sI3
(lp4087
ssI2
(dp4088
I0
g4082
sI1
g4086
sI2
(lp4089
sI3
(lp4090
ssI3
(dp4091
I0
g4083
sI1
g4087
sI2
g4090
sI3
(lp4092
ssa(dp4093
I0
(dp4094
I0
(lp4095
sI1
(lp4096
sI2
(lp4097
sI3
(lp4098
ssI1
(dp4099
I0
g4096
sI1
(lp4100
sI2
(lp4101
sI3
(lp4102
ssI2
(dp4103
I0
g4097
sI1
g4101
sI2
(lp4104
sI3
(lp4105
ssI3
(dp4106
I0
g4098
sI1
g4102
sI2
g4105
sI3
(lp4107
ssa(dp4108
I0
(dp4109
I0
(lp4110
sI1
(lp4111
sI2
(lp4112
sI3
(lp4113
ssI1
(dp4114
I0
g4111
sI1
(lp4115
sI2
(lp4116
sI3
(lp4117
ssI2
(dp4118
I0
g4112
sI1
g4116
sI2
(lp4119
sI3
(lp4120
ssI3
(dp4121
I0
g4113
sI1
g4117
sI2
g4120
sI3
(lp4122
ssa(dp4123
I0
(dp4124
I0
(lp4125
sI1
(lp4126
sI2
(lp4127
sI3
(lp4128
ssI1
(dp4129
I0
g4126
sI1
(lp4130
sI2
(lp4131
sI3
(lp4132
ssI2
(dp4133
I0
g4127
sI1
g4131
sI2
(lp4134
sI3
(lp4135
ssI3
(dp4136
I0
g4128
sI1
g4132
sI2
g4135
sI3
(lp4137
ssa(dp4138
I0
(dp4139
I0
(lp4140
sI1
(lp4141
sI2
(lp4142
sI3
(lp4143
ssI1
(dp4144
I0
g4141
sI1
(lp4145
sI2
(lp4146
sI3
(lp4147
ssI2
(dp4148
I0
g4142
sI1
g4146
sI2
(lp4149
sI3
(lp4150
ssI3
(dp4151
I0
g4143
sI1
g4147
sI2
g4150
sI3
(lp4152
ssa(dp4153
I0
(dp4154
I0
(lp4155
sI1
(lp4156
sI2
(lp4157
sI3
(lp4158
ssI1
(dp4159
I0
g4156
sI1
(lp4160
sI2
(lp4161
sI3
(lp4162
ssI2
(dp4163
I0
g4157
sI1
g4161
sI2
(lp4164
sI3
(lp4165
ssI3
(dp4166
I0
g4158
sI1
g4162
sI2
g4165
sI3
(lp4167
ssa(dp4168
I0
(dp4169
I0
(lp4170
sI1
(lp4171
sI2
(lp4172
sI3
(lp4173
ssI1
(dp4174
I0
g4171
sI1
(lp4175
sI2
(lp4176
sI3
(lp4177
ssI2
(dp4178
I0
g4172
sI1
g4176
sI2
(lp4179
sI3
(lp4180
ssI3
(dp4181
I0
g4173
sI1
g4177
sI2
g4180
sI3
(lp4182
ssa(dp4183
I0
(dp4184
I0
(lp4185
sI1
(lp4186
sI2
(lp4187
sI3
(lp4188
ssI1
(dp4189
I0
g4186
sI1
(lp4190
sI2
(lp4191
sI3
(lp4192
ssI2
(dp4193
I0
g4187
sI1
g4191
sI2
(lp4194
sI3
(lp4195
ssI3
(dp4196
I0
g4188
sI1
g4192
sI2
g4195
sI3
(lp4197
ssa(dp4198
I0
(dp4199
I0
(lp4200
sI1
(lp4201
sI2
(lp4202
sI3
(lp4203
ssI1
(dp4204
I0
g4201
sI1
(lp4205
sI2
(lp4206
sI3
(lp4207
ssI2
(dp4208
I0
g4202
sI1
g4206
sI2
(lp4209
sI3
(lp4210
ssI3
(dp4211
I0
g4203
sI1
g4207
sI2
g4210
sI3
(lp4212
ssa(dp4213
I0
(dp4214
I0
(lp4215
sI1
(lp4216
sI2
(lp4217
sI3
(lp4218
ssI1
(dp4219
I0
g4216
sI1
(lp4220
sI2
(lp4221
sI3
(lp4222
ssI2
(dp4223
I0
g4217
sI1
g4221
sI2
(lp4224
sI3
(lp4225
ssI3
(dp4226
I0
g4218
sI1
g4222
sI2
g4225
sI3
(lp4227
ssa(dp4228
I0
(dp4229
I0
(lp4230
sI1
(lp4231
sI2
(lp4232
sI3
(lp4233
ssI1
(dp4234
I0
g4231
sI1
(lp4235
sI2
(lp4236
sI3
(lp4237
ssI2
(dp4238
I0
g4232
sI1
g4236
sI2
(lp4239
sI3
(lp4240
ssI3
(dp4241
I0
g4233
sI1
g4237
sI2
g4240
sI3
(lp4242
ssa(dp4243
I0
(dp4244
I0
(lp4245
sI1
(lp4246
sI2
(lp4247
sI3
(lp4248
ssI1
(dp4249
I0
g4246
sI1
(lp4250
sI2
(lp4251
sI3
(lp4252
ssI2
(dp4253
I0
g4247
sI1
g4251
sI2
(lp4254
sI3
(lp4255
ssI3
(dp4256
I0
g4248
sI1
g4252
sI2
g4255
sI3
(lp4257
ssa(dp4258
I0
(dp4259
I0
(lp4260
sI1
(lp4261
sI2
(lp4262
sI3
(lp4263
ssI1
(dp4264
I0
g4261
sI1
(lp4265
sI2
(lp4266
sI3
(lp4267
ssI2
(dp4268
I0
g4262
sI1
g4266
sI2
(lp4269
sI3
(lp4270
ssI3
(dp4271
I0
g4263
sI1
g4267
sI2
g4270
sI3
(lp4272
ssa(dp4273
I0
(dp4274
I0
(lp4275
sI1
(lp4276
sI2
(lp4277
sI3
(lp4278
ssI1
(dp4279
I0
g4276
sI1
(lp4280
sI2
(lp4281
sI3
(lp4282
ssI2
(dp4283
I0
g4277
sI1
g4281
sI2
(lp4284
sI3
(lp4285
ssI3
(dp4286
I0
g4278
sI1
g4282
sI2
g4285
sI3
(lp4287
ssa(dp4288
I0
(dp4289
I0
(lp4290
sI1
(lp4291
sI2
(lp4292
sI3
(lp4293
ssI1
(dp4294
I0
g4291
sI1
(lp4295
sI2
(lp4296
sI3
(lp4297
ssI2
(dp4298
I0
g4292
sI1
g4296
sI2
(lp4299
sI3
(lp4300
ssI3
(dp4301
I0
g4293
sI1
g4297
sI2
g4300
sI3
(lp4302
ssa(dp4303
I0
(dp4304
I0
(lp4305
sI1
(lp4306
sI2
(lp4307
sI3
(lp4308
ssI1
(dp4309
I0
g4306
sI1
(lp4310
sI2
(lp4311
sI3
(lp4312
ssI2
(dp4313
I0
g4307
sI1
g4311
sI2
(lp4314
sI3
(lp4315
ssI3
(dp4316
I0
g4308
sI1
g4312
sI2
g4315
sI3
(lp4317
ssa(dp4318
I0
(dp4319
I0
(lp4320
sI1
(lp4321
sI2
(lp4322
sI3
(lp4323
ssI1
(dp4324
I0
g4321
sI1
(lp4325
sI2
(lp4326
sI3
(lp4327
ssI2
(dp4328
I0
g4322
sI1
g4326
sI2
(lp4329
sI3
(lp4330
ssI3
(dp4331
I0
g4323
sI1
g4327
sI2
g4330
sI3
(lp4332
ssa(dp4333
I0
(dp4334
I0
(lp4335
sI1
(lp4336
sI2
(lp4337
sI3
(lp4338
ssI1
(dp4339
I0
g4336
sI1
(lp4340
sI2
(lp4341
sI3
(lp4342
ssI2
(dp4343
I0
g4337
sI1
g4341
sI2
(lp4344
sI3
(lp4345
ssI3
(dp4346
I0
g4338
sI1
g4342
sI2
g4345
sI3
(lp4347
ssa(dp4348
I0
(dp4349
I0
(lp4350
sI1
(lp4351
sI2
(lp4352
sI3
(lp4353
ssI1
(dp4354
I0
g4351
sI1
(lp4355
sI2
(lp4356
sI3
(lp4357
ssI2
(dp4358
I0
g4352
sI1
g4356
sI2
(lp4359
sI3
(lp4360
ssI3
(dp4361
I0
g4353
sI1
g4357
sI2
g4360
sI3
(lp4362
ssa(dp4363
I0
(dp4364
I0
(lp4365
sI1
(lp4366
sI2
(lp4367
sI3
(lp4368
ssI1
(dp4369
I0
g4366
sI1
(lp4370
sI2
(lp4371
sI3
(lp4372
ssI2
(dp4373
I0
g4367
sI1
g4371
sI2
(lp4374
sI3
(lp4375
ssI3
(dp4376
I0
g4368
sI1
g4372
sI2
g4375
sI3
(lp4377
ssa(dp4378
I0
(dp4379
I0
(lp4380
sI1
(lp4381
sI2
(lp4382
sI3
(lp4383
ssI1
(dp4384
I0
g4381
sI1
(lp4385
sI2
(lp4386
sI3
(lp4387
ssI2
(dp4388
I0
g4382
sI1
g4386
sI2
(lp4389
sI3
(lp4390
ssI3
(dp4391
I0
g4383
sI1
g4387
sI2
g4390
sI3
(lp4392
ssa(dp4393
I0
(dp4394
I0
(lp4395
sI1
(lp4396
sI2
(lp4397
sI3
(lp4398
ssI1
(dp4399
I0
g4396
sI1
(lp4400
sI2
(lp4401
sI3
(lp4402
ssI2
(dp4403
I0
g4397
sI1
g4401
sI2
(lp4404
sI3
(lp4405
ssI3
(dp4406
I0
g4398
sI1
g4402
sI2
g4405
sI3
(lp4407
ssa(dp4408
I0
(dp4409
I0
(lp4410
sI1
(lp4411
sI2
(lp4412
sI3
(lp4413
ssI1
(dp4414
I0
g4411
sI1
(lp4415
sI2
(lp4416
sI3
(lp4417
ssI2
(dp4418
I0
g4412
sI1
g4416
sI2
(lp4419
sI3
(lp4420
ssI3
(dp4421
I0
g4413
sI1
g4417
sI2
g4420
sI3
(lp4422
ssa(dp4423
I0
(dp4424
I0
(lp4425
sI1
(lp4426
sI2
(lp4427
sI3
(lp4428
ssI1
(dp4429
I0
g4426
sI1
(lp4430
sI2
(lp4431
sI3
(lp4432
ssI2
(dp4433
I0
g4427
sI1
g4431
sI2
(lp4434
sI3
(lp4435
ssI3
(dp4436
I0
g4428
sI1
g4432
sI2
g4435
sI3
(lp4437
ssa(dp4438
I0
(dp4439
I0
(lp4440
sI1
(lp4441
sI2
(lp4442
sI3
(lp4443
ssI1
(dp4444
I0
g4441
sI1
(lp4445
sI2
(lp4446
sI3
(lp4447
ssI2
(dp4448
I0
g4442
sI1
g4446
sI2
(lp4449
sI3
(lp4450
ssI3
(dp4451
I0
g4443
sI1
g4447
sI2
g4450
sI3
(lp4452
ssa(dp4453
I0
(dp4454
I0
(lp4455
sI1
(lp4456
sI2
(lp4457
sI3
(lp4458
ssI1
(dp4459
I0
g4456
sI1
(lp4460
sI2
(lp4461
sI3
(lp4462
ssI2
(dp4463
I0
g4457
sI1
g4461
sI2
(lp4464
sI3
(lp4465
ssI3
(dp4466
I0
g4458
sI1
g4462
sI2
g4465
sI3
(lp4467
ssa(dp4468
I0
(dp4469
I0
(lp4470
sI1
(lp4471
sI2
(lp4472
sI3
(lp4473
ssI1
(dp4474
I0
g4471
sI1
(lp4475
sI2
(lp4476
sI3
(lp4477
ssI2
(dp4478
I0
g4472
sI1
g4476
sI2
(lp4479
sI3
(lp4480
ssI3
(dp4481
I0
g4473
sI1
g4477
sI2
g4480
sI3
(lp4482
ssa(dp4483
I0
(dp4484
I0
(lp4485
sI1
(lp4486
sI2
(lp4487
sI3
(lp4488
ssI1
(dp4489
I0
g4486
sI1
(lp4490
sI2
(lp4491
sI3
(lp4492
ssI2
(dp4493
I0
g4487
sI1
g4491
sI2
(lp4494
sI3
(lp4495
ssI3
(dp4496
I0
g4488
sI1
g4492
sI2
g4495
sI3
(lp4497
ssa(dp4498
I0
(dp4499
I0
(lp4500
sI1
(lp4501
sI2
(lp4502
sI3
(lp4503
ssI1
(dp4504
I0
g4501
sI1
(lp4505
sI2
(lp4506
sI3
(lp4507
ssI2
(dp4508
I0
g4502
sI1
g4506
sI2
(lp4509
sI3
(lp4510
ssI3
(dp4511
I0
g4503
sI1
g4507
sI2
g4510
sI3
(lp4512
ssa(dp4513
I0
(dp4514
I0
(lp4515
sI1
(lp4516
sI2
(lp4517
sI3
(lp4518
ssI1
(dp4519
I0
g4516
sI1
(lp4520
sI2
(lp4521
sI3
(lp4522
ssI2
(dp4523
I0
g4517
sI1
g4521
sI2
(lp4524
sI3
(lp4525
ssI3
(dp4526
I0
g4518
sI1
g4522
sI2
g4525
sI3
(lp4527
ssa(dp4528
I0
(dp4529
I0
(lp4530
sI1
(lp4531
sI2
(lp4532
sI3
(lp4533
ssI1
(dp4534
I0
g4531
sI1
(lp4535
sI2
(lp4536
sI3
(lp4537
ssI2
(dp4538
I0
g4532
sI1
g4536
sI2
(lp4539
sI3
(lp4540
ssI3
(dp4541
I0
g4533
sI1
g4537
sI2
g4540
sI3
(lp4542
ssa(dp4543
I0
(dp4544
I0
(lp4545
sI1
(lp4546
sI2
(lp4547
sI3
(lp4548
ssI1
(dp4549
I0
g4546
sI1
(lp4550
sI2
(lp4551
sI3
(lp4552
ssI2
(dp4553
I0
g4547
sI1
g4551
sI2
(lp4554
sI3
(lp4555
ssI3
(dp4556
I0
g4548
sI1
g4552
sI2
g4555
sI3
(lp4557
ssa(dp4558
I0
(dp4559
I0
(lp4560
sI1
(lp4561
sI2
(lp4562
sI3
(lp4563
ssI1
(dp4564
I0
g4561
sI1
(lp4565
sI2
(lp4566
sI3
(lp4567
ssI2
(dp4568
I0
g4562
sI1
g4566
sI2
(lp4569
sI3
(lp4570
ssI3
(dp4571
I0
g4563
sI1
g4567
sI2
g4570
sI3
(lp4572
ssa(dp4573
I0
(dp4574
I0
(lp4575
sI1
(lp4576
sI2
(lp4577
sI3
(lp4578
ssI1
(dp4579
I0
g4576
sI1
(lp4580
sI2
(lp4581
sI3
(lp4582
ssI2
(dp4583
I0
g4577
sI1
g4581
sI2
(lp4584
sI3
(lp4585
ssI3
(dp4586
I0
g4578
sI1
g4582
sI2
g4585
sI3
(lp4587
ssa(dp4588
I0
(dp4589
I0
(lp4590
sI1
(lp4591
sI2
(lp4592
sI3
(lp4593
ssI1
(dp4594
I0
g4591
sI1
(lp4595
sI2
(lp4596
sI3
(lp4597
ssI2
(dp4598
I0
g4592
sI1
g4596
sI2
(lp4599
sI3
(lp4600
ssI3
(dp4601
I0
g4593
sI1
g4597
sI2
g4600
sI3
(lp4602
ssa(dp4603
I0
(dp4604
I0
(lp4605
sI1
(lp4606
sI2
(lp4607
sI3
(lp4608
ssI1
(dp4609
I0
g4606
sI1
(lp4610
sI2
(lp4611
sI3
(lp4612
ssI2
(dp4613
I0
g4607
sI1
g4611
sI2
(lp4614
sI3
(lp4615
ssI3
(dp4616
I0
g4608
sI1
g4612
sI2
g4615
sI3
(lp4617
ssa(dp4618
I0
(dp4619
I0
(lp4620
sI1
(lp4621
sI2
(lp4622
sI3
(lp4623
ssI1
(dp4624
I0
g4621
sI1
(lp4625
sI2
(lp4626
sI3
(lp4627
ssI2
(dp4628
I0
g4622
sI1
g4626
sI2
(lp4629
sI3
(lp4630
ssI3
(dp4631
I0
g4623
sI1
g4627
sI2
g4630
sI3
(lp4632
ssa(dp4633
I0
(dp4634
I0
(lp4635
sI1
(lp4636
sI2
(lp4637
sI3
(lp4638
ssI1
(dp4639
I0
g4636
sI1
(lp4640
sI2
(lp4641
sI3
(lp4642
ssI2
(dp4643
I0
g4637
sI1
g4641
sI2
(lp4644
sI3
(lp4645
ssI3
(dp4646
I0
g4638
sI1
g4642
sI2
g4645
sI3
(lp4647
ssa(dp4648
I0
(dp4649
I0
(lp4650
sI1
(lp4651
sI2
(lp4652
sI3
(lp4653
ssI1
(dp4654
I0
g4651
sI1
(lp4655
sI2
(lp4656
sI3
(lp4657
ssI2
(dp4658
I0
g4652
sI1
g4656
sI2
(lp4659
sI3
(lp4660
ssI3
(dp4661
I0
g4653
sI1
g4657
sI2
g4660
sI3
(lp4662
ssa(dp4663
I0
(dp4664
I0
(lp4665
sI1
(lp4666
sI2
(lp4667
sI3
(lp4668
ssI1
(dp4669
I0
g4666
sI1
(lp4670
sI2
(lp4671
sI3
(lp4672
ssI2
(dp4673
I0
g4667
sI1
g4671
sI2
(lp4674
sI3
(lp4675
ssI3
(dp4676
I0
g4668
sI1
g4672
sI2
g4675
sI3
(lp4677
ssa(dp4678
I0
(dp4679
I0
(lp4680
sI1
(lp4681
sI2
(lp4682
sI3
(lp4683
ssI1
(dp4684
I0
g4681
sI1
(lp4685
sI2
(lp4686
sI3
(lp4687
ssI2
(dp4688
I0
g4682
sI1
g4686
sI2
(lp4689
sI3
(lp4690
ssI3
(dp4691
I0
g4683
sI1
g4687
sI2
g4690
sI3
(lp4692
ssa(dp4693
I0
(dp4694
I0
(lp4695
sI1
(lp4696
sI2
(lp4697
sI3
(lp4698
ssI1
(dp4699
I0
g4696
sI1
(lp4700
sI2
(lp4701
sI3
(lp4702
ssI2
(dp4703
I0
g4697
sI1
g4701
sI2
(lp4704
sI3
(lp4705
ssI3
(dp4706
I0
g4698
sI1
g4702
sI2
g4705
sI3
(lp4707
ssa(dp4708
I0
(dp4709
I0
(lp4710
sI1
(lp4711
sI2
(lp4712
sI3
(lp4713
ssI1
(dp4714
I0
g4711
sI1
(lp4715
sI2
(lp4716
sI3
(lp4717
ssI2
(dp4718
I0
g4712
sI1
g4716
sI2
(lp4719
sI3
(lp4720
ssI3
(dp4721
I0
g4713
sI1
g4717
sI2
g4720
sI3
(lp4722
ssa(dp4723
I0
(dp4724
I0
(lp4725
sI1
(lp4726
sI2
(lp4727
sI3
(lp4728
ssI1
(dp4729
I0
g4726
sI1
(lp4730
sI2
(lp4731
sI3
(lp4732
ssI2
(dp4733
I0
g4727
sI1
g4731
sI2
(lp4734
sI3
(lp4735
ssI3
(dp4736
I0
g4728
sI1
g4732
sI2
g4735
sI3
(lp4737
ssa(dp4738
I0
(dp4739
I0
(lp4740
sI1
(lp4741
sI2
(lp4742
sI3
(lp4743
ssI1
(dp4744
I0
g4741
sI1
(lp4745
sI2
(lp4746
sI3
(lp4747
ssI2
(dp4748
I0
g4742
sI1
g4746
sI2
(lp4749
sI3
(lp4750
ssI3
(dp4751
I0
g4743
sI1
g4747
sI2
g4750
sI3
(lp4752
ssa(dp4753
I0
(dp4754
I0
(lp4755
sI1
(lp4756
sI2
(lp4757
sI3
(lp4758
ssI1
(dp4759
I0
g4756
sI1
(lp4760
sI2
(lp4761
sI3
(lp4762
ssI2
(dp4763
I0
g4757
sI1
g4761
sI2
(lp4764
sI3
(lp4765
ssI3
(dp4766
I0
g4758
sI1
g4762
sI2
g4765
sI3
(lp4767
ssa(dp4768
I0
(dp4769
I0
(lp4770
sI1
(lp4771
sI2
(lp4772
sI3
(lp4773
ssI1
(dp4774
I0
g4771
sI1
(lp4775
sI2
(lp4776
sI3
(lp4777
ssI2
(dp4778
I0
g4772
sI1
g4776
sI2
(lp4779
sI3
(lp4780
ssI3
(dp4781
I0
g4773
sI1
g4777
sI2
g4780
sI3
(lp4782
ssa(dp4783
I0
(dp4784
I0
(lp4785
sI1
(lp4786
sI2
(lp4787
sI3
(lp4788
ssI1
(dp4789
I0
g4786
sI1
(lp4790
sI2
(lp4791
sI3
(lp4792
ssI2
(dp4793
I0
g4787
sI1
g4791
sI2
(lp4794
sI3
(lp4795
ssI3
(dp4796
I0
g4788
sI1
g4792
sI2
g4795
sI3
(lp4797
ssa(dp4798
I0
(dp4799
I0
(lp4800
sI1
(lp4801
sI2
(lp4802
sI3
(lp4803
ssI1
(dp4804
I0
g4801
sI1
(lp4805
sI2
(lp4806
sI3
(lp4807
ssI2
(dp4808
I0
g4802
sI1
g4806
sI2
(lp4809
sI3
(lp4810
ssI3
(dp4811
I0
g4803
sI1
g4807
sI2
g4810
sI3
(lp4812
ssa(dp4813
I0
(dp4814
I0
(lp4815
sI1
(lp4816
sI2
(lp4817
sI3
(lp4818
ssI1
(dp4819
I0
g4816
sI1
(lp4820
sI2
(lp4821
sI3
(lp4822
ssI2
(dp4823
I0
g4817
sI1
g4821
sI2
(lp4824
sI3
(lp4825
ssI3
(dp4826
I0
g4818
sI1
g4822
sI2
g4825
sI3
(lp4827
ssa(dp4828
I0
(dp4829
I0
(lp4830
sI1
(lp4831
sI2
(lp4832
sI3
(lp4833
ssI1
(dp4834
I0
g4831
sI1
(lp4835
sI2
(lp4836
sI3
(lp4837
ssI2
(dp4838
I0
g4832
sI1
g4836
sI2
(lp4839
sI3
(lp4840
ssI3
(dp4841
I0
g4833
sI1
g4837
sI2
g4840
sI3
(lp4842
ssa(dp4843
I0
(dp4844
I0
(lp4845
sI1
(lp4846
sI2
(lp4847
sI3
(lp4848
ssI1
(dp4849
I0
g4846
sI1
(lp4850
sI2
(lp4851
sI3
(lp4852
ssI2
(dp4853
I0
g4847
sI1
g4851
sI2
(lp4854
sI3
(lp4855
ssI3
(dp4856
I0
g4848
sI1
g4852
sI2
g4855
sI3
(lp4857
ssa(dp4858
I0
(dp4859
I0
(lp4860
sI1
(lp4861
sI2
(lp4862
sI3
(lp4863
ssI1
(dp4864
I0
g4861
sI1
(lp4865
sI2
(lp4866
sI3
(lp4867
ssI2
(dp4868
I0
g4862
sI1
g4866
sI2
(lp4869
sI3
(lp4870
ssI3
(dp4871
I0
g4863
sI1
g4867
sI2
g4870
sI3
(lp4872
ssa(dp4873
I0
(dp4874
I0
(lp4875
sI1
(lp4876
sI2
(lp4877
sI3
(lp4878
ssI1
(dp4879
I0
g4876
sI1
(lp4880
sI2
(lp4881
sI3
(lp4882
ssI2
(dp4883
I0
g4877
sI1
g4881
sI2
(lp4884
sI3
(lp4885
ssI3
(dp4886
I0
g4878
sI1
g4882
sI2
g4885
sI3
(lp4887
ssa(dp4888
I0
(dp4889
I0
(lp4890
sI1
(lp4891
sI2
(lp4892
sI3
(lp4893
ssI1
(dp4894
I0
g4891
sI1
(lp4895
sI2
(lp4896
sI3
(lp4897
ssI2
(dp4898
I0
g4892
sI1
g4896
sI2
(lp4899
sI3
(lp4900
ssI3
(dp4901
I0
g4893
sI1
g4897
sI2
g4900
sI3
(lp4902
ssa(dp4903
I0
(dp4904
I0
(lp4905
sI1
(lp4906
sI2
(lp4907
sI3
(lp4908
ssI1
(dp4909
I0
g4906
sI1
(lp4910
sI2
(lp4911
sI3
(lp4912
ssI2
(dp4913
I0
g4907
sI1
g4911
sI2
(lp4914
sI3
(lp4915
ssI3
(dp4916
I0
g4908
sI1
g4912
sI2
g4915
sI3
(lp4917
ssa(dp4918
I0
(dp4919
I0
(lp4920
sI1
(lp4921
sI2
(lp4922
sI3
(lp4923
ssI1
(dp4924
I0
g4921
sI1
(lp4925
sI2
(lp4926
sI3
(lp4927
ssI2
(dp4928
I0
g4922
sI1
g4926
sI2
(lp4929
sI3
(lp4930
ssI3
(dp4931
I0
g4923
sI1
g4927
sI2
g4930
sI3
(lp4932
ssa(dp4933
I0
(dp4934
I0
(lp4935
sI1
(lp4936
sI2
(lp4937
sI3
(lp4938
ssI1
(dp4939
I0
g4936
sI1
(lp4940
sI2
(lp4941
sI3
(lp4942
ssI2
(dp4943
I0
g4937
sI1
g4941
sI2
(lp4944
sI3
(lp4945
ssI3
(dp4946
I0
g4938
sI1
g4942
sI2
g4945
sI3
(lp4947
ssa(dp4948
I0
(dp4949
I0
(lp4950
sI1
(lp4951
sI2
(lp4952
sI3
(lp4953
ssI1
(dp4954
I0
g4951
sI1
(lp4955
sI2
(lp4956
sI3
(lp4957
ssI2
(dp4958
I0
g4952
sI1
g4956
sI2
(lp4959
sI3
(lp4960
ssI3
(dp4961
I0
g4953
sI1
g4957
sI2
g4960
sI3
(lp4962
ssa(dp4963
I0
(dp4964
I0
(lp4965
sI1
(lp4966
sI2
(lp4967
sI3
(lp4968
ssI1
(dp4969
I0
g4966
sI1
(lp4970
sI2
(lp4971
sI3
(lp4972
ssI2
(dp4973
I0
g4967
sI1
g4971
sI2
(lp4974
sI3
(lp4975
ssI3
(dp4976
I0
g4968
sI1
g4972
sI2
g4975
sI3
(lp4977
ssa(dp4978
I0
(dp4979
I0
(lp4980
sI1
(lp4981
sI2
(lp4982
sI3
(lp4983
ssI1
(dp4984
I0
g4981
sI1
(lp4985
sI2
(lp4986
sI3
(lp4987
ssI2
(dp4988
I0
g4982
sI1
g4986
sI2
(lp4989
sI3
(lp4990
ssI3
(dp4991
I0
g4983
sI1
g4987
sI2
g4990
sI3
(lp4992
ssa(dp4993
I0
(dp4994
I0
(lp4995
sI1
(lp4996
sI2
(lp4997
sI3
(lp4998
ssI1
(dp4999
I0
g4996
sI1
(lp5000
sI2
(lp5001
sI3
(lp5002
ssI2
(dp5003
I0
g4997
sI1
g5001
sI2
(lp5004
sI3
(lp5005
ssI3
(dp5006
I0
g4998
sI1
g5002
sI2
g5005
sI3
(lp5007
ssa(dp5008
I0
(dp5009
I0
(lp5010
sI1
(lp5011
sI2
(lp5012
sI3
(lp5013
ssI1
(dp5014
I0
g5011
sI1
(lp5015
sI2
(lp5016
sI3
(lp5017
ssI2
(dp5018
I0
g5012
sI1
g5016
sI2
(lp5019
sI3
(lp5020
ssI3
(dp5021
I0
g5013
sI1
g5017
sI2
g5020
sI3
(lp5022
ssa(dp5023
I0
(dp5024
I0
(lp5025
sI1
(lp5026
Vhttp://dbpedia.org/property/mapCaption
p5027
aVhttp://www.w3.org/1999/02/22-rdf-syntax-ns#type
p5028
aVhttp://purl.org/dc/terms/subject
p5029
aVhttp://www.w3.org/2000/01/rdf-schema#comment
p5030
aVhttp://dbpedia.org/ontology/abstract
p5031
aVhttp://dbpedia.org/ontology/isPartOf
p5032
aVhttp://dbpedia.org/property/imageMap
p5033
aVhttp://dbpedia.org/property/subdivisionName
p5034
asI2
(lp5035
sI3
(lp5036
ssI1
(dp5037
I0
g5026
sI1
(lp5038
sI2
(lp5039
sI3
(lp5040
ssI2
(dp5041
I0
g5035
sI1
g5039
sI2
(lp5042
sI3
(lp5043
ssI3
(dp5044
I0
g5036
sI1
g5040
sI2
g5043
sI3
(lp5045
ssa(dp5046
I0
(dp5047
I0
(lp5048
sI1
(lp5049
sI2
(lp5050
sI3
(lp5051
ssI1
(dp5052
I0
g5049
sI1
(lp5053
sI2
(lp5054
sI3
(lp5055
ssI2
(dp5056
I0
g5050
sI1
g5054
sI2
(lp5057
sI3
(lp5058
ssI3
(dp5059
I0
g5051
sI1
g5055
sI2
g5058
sI3
(lp5060
ssa(dp5061
I0
(dp5062
I0
(lp5063
sI1
(lp5064
sI2
(lp5065
sI3
(lp5066
ssI1
(dp5067
I1
(lp5068
sI2
(lp5069
sI3
(lp5070
ssI2
(dp5071
I0
g5065
sI1
g5069
sI2
(lp5072
sI3
(lp5073
ssI3
(dp5074
I0
g5066
sI1
g5070
sI2
g5073
sI3
(lp5075
ssa(dp5076
I0
(dp5077
I0
(lp5078
sI1
(lp5079
sI2
(lp5080
sI3
(lp5081
ssI1
(dp5082
I1
(lp5083
sI2
(lp5084
sI3
(lp5085
ssI2
(dp5086
I0
g5080
sI1
g5084
sI2
(lp5087
sI3
(lp5088
ssI3
(dp5089
I0
g5081
sI1
g5085
sI3
(lp5090
ssa(dp5091
I0
(dp5092
I0
(lp5093
sI1
(lp5094
sI2
(lp5095
sI3
(lp5096
ssI1
(dp5097
I1
(lp5098
sI2
(lp5099
sI3
(lp5100
ssI2
(dp5101
I0
g5095
sI1
g5099
sI2
(lp5102
sI3
(lp5103
ssI3
(dp5104
I0
g5096
sI1
g5100
sI3
(lp5105
ssa(dp5106
I0
(dp5107
I0
(lp5108
sI1
(lp5109
sI2
(lp5110
sI3
(lp5111
ssI1
(dp5112
I1
(lp5113
sI2
(lp5114
sI3
(lp5115
ssI2
(dp5116
I0
g5110
sI1
g5114
sI2
(lp5117
sI3
(lp5118
ssI3
(dp5119
I0
g5111
sI1
g5115
sI3
(lp5120
ssa(dp5121
I0
(dp5122
I0
(lp5123
sI1
(lp5124
sI2
(lp5125
sI3
(lp5126
ssI1
(dp5127
I1
(lp5128
sI2
(lp5129
sI3
(lp5130
ssI2
(dp5131
I0
g5125
sI1
g5129
sI2
(lp5132
sI3
(lp5133
ssI3
(dp5134
I0
g5126
sI1
g5130
sI3
(lp5135
ssa(dp5136
I0
(dp5137
I0
(lp5138
sI1
(lp5139
sI2
(lp5140
sI3
(lp5141
ssI1
(dp5142
I1
(lp5143
sI2
(lp5144
sI3
(lp5145
ssI2
(dp5146
I0
g5140
sI1
g5144
sI2
(lp5147
sI3
(lp5148
ssI3
(dp5149
I0
g5141
sI1
g5145
sI3
(lp5150
ssa(dp5151
I0
(dp5152
I0
(lp5153
sI1
(lp5154
sI2
(lp5155
sI3
(lp5156
ssI1
(dp5157
I0
g5154
sI1
(lp5158
sI2
(lp5159
sI3
(lp5160
ssI2
(dp5161
I0
g5155
sI1
g5159
sI2
(lp5162
sI3
(lp5163
ssI3
(dp5164
I0
g5156
sI1
g5160
sI2
g5163
sI3
(lp5165
ssa(dp5166
I0
(dp5167
I0
(lp5168
sI1
(lp5169
sI2
(lp5170
sI3
(lp5171
ssI1
(dp5172
I0
g5169
sI1
(lp5173
sI2
(lp5174
sI3
(lp5175
ssI2
(dp5176
I0
g5170
sI1
g5174
sI2
(lp5177
sI3
(lp5178
ssI3
(dp5179
I0
g5171
sI1
g5175
sI2
g5178
sI3
(lp5180
ssa(dp5181
I0
(dp5182
I0
(lp5183
sI1
(lp5184
sI2
(lp5185
sI3
(lp5186
ssI1
(dp5187
I0
g5184
sI1
(lp5188
sI2
(lp5189
sI3
(lp5190
ssI2
(dp5191
I0
g5185
sI1
g5189
sI2
(lp5192
sI3
(lp5193
ssI3
(dp5194
I0
g5186
sI1
g5190
sI2
g5193
sI3
(lp5195
ssa(dp5196
I0
(dp5197
I0
(lp5198
sI1
(lp5199
sI2
(lp5200
sI3
(lp5201
ssI1
(dp5202
I0
g5199
sI1
(lp5203
sI2
(lp5204
sI3
(lp5205
ssI2
(dp5206
I0
g5200
sI1
g5204
sI2
(lp5207
sI3
(lp5208
ssI3
(dp5209
I0
g5201
sI1
g5205
sI2
g5208
sI3
(lp5210
ssa(dp5211
I0
(dp5212
I0
(lp5213
sI1
(lp5214
Vhttp://www.w3.org/2000/01/rdf-schema#seeAlso
p5215
aVhttp://dbpedia.org/property/theme
p5216
aVhttp://dbpedia.org/ontology/wikiPageRedirects
p5217
aVhttp://www.w3.org/ns/prov#wasDerivedFrom
p5218
aVhttp://dbpedia.org/property/focusCities
p5219
aVhttp://dbpedia.org/property/destinations
p5220
aVhttp://xmlns.com/foaf/0.1/isPrimaryTopicOf
p5221
aVhttp://dbpedia.org/property/namedAfter
p5222
aVhttp://dbpedia.org/ontology/wikiPageDisambiguates
p5223
aVhttp://dbpedia.org/ontology/wikiPageExternalLink
p5224
aVhttp://xmlns.com/foaf/0.1/primaryTopic
p5225
aVhttp://purl.org/dc/terms/subject
p5226
aVhttp://dbpedia.org/ontology/abstract
p5227
aVhttp://xmlns.com/foaf/0.1/depiction
p5228
aVhttp://dbpedia.org/property/watercourse
p5229
aVhttp://dbpedia.org/property/location
p5230
aVhttp://dbpedia.org/ontology/thumbnail
p5231
aVhttp://dbpedia.org/property/hasPhotoCollection
p5232
aVhttp://www.w3.org/2000/01/rdf-schema#label
p5233
aVhttp://dbpedia.org/ontology/location
p5234
aVhttp://dbpedia.org/property/headquarters
p5235
aVhttp://www.w3.org/2000/01/rdf-schema#comment
p5236
aVhttp://dbpedia.org/property/name
p5237
aVhttp://www.w3.org/2002/07/owl#sameAs
p5238
asI2
(lp5239
sI3
(lp5240
ssI1
(dp5241
I0
g5214
sI1
(lp5242
sI2
(lp5243
sI3
(lp5244
ssI2
(dp5245
I0
g5239
sI1
g5243
sI2
(lp5246
sI3
(lp5247
ssI3
(dp5248
I0
g5240
sI1
g5244
sI2
g5247
sI3
(lp5249
ssa(dp5250
I0
(dp5251
I0
(lp5252
sI1
(lp5253
sI2
(lp5254
sI3
(lp5255
ssI1
(dp5256
I0
g5253
sI1
(lp5257
sI2
(lp5258
sI3
(lp5259
ssI2
(dp5260
I0
g5254
sI1
g5258
sI2
(lp5261
sI3
(lp5262
ssI3
(dp5263
I0
g5255
sI1
g5259
sI2
g5262
sI3
(lp5264
ssa(dp5265
I0
(dp5266
I0
(lp5267
sI1
(lp5268
sI2
(lp5269
sI3
(lp5270
ssI1
(dp5271
I0
g5268
sI1
(lp5272
sI2
(lp5273
sI3
(lp5274
ssI2
(dp5275
I0
g5269
sI1
g5273
sI2
(lp5276
sI3
(lp5277
ssI3
(dp5278
I0
g5270
sI1
g5274
sI2
g5277
sI3
(lp5279
ssa(dp5280
I0
(dp5281
I0
(lp5282
sI1
(lp5283
sI2
(lp5284
sI3
(lp5285
ssI1
(dp5286
I0
g5283
sI1
(lp5287
sI2
(lp5288
sI3
(lp5289
ssI2
(dp5290
I0
g5284
sI1
g5288
sI2
(lp5291
sI3
(lp5292
ssI3
(dp5293
I0
g5285
sI1
g5289
sI2
g5292
sI3
(lp5294
ssa(dp5295
I0
(dp5296
I0
(lp5297
sI1
(lp5298
sI2
(lp5299
sI3
(lp5300
ssI1
(dp5301
I0
g5298
sI1
(lp5302
sI2
(lp5303
sI3
(lp5304
ssI2
(dp5305
I0
g5299
sI1
g5303
sI2
(lp5306
sI3
(lp5307
ssI3
(dp5308
I0
g5300
sI1
g5304
sI2
g5307
sI3
(lp5309
ssa(dp5310
I0
(dp5311
I0
(lp5312
sI1
(lp5313
sI2
(lp5314
sI3
(lp5315
ssI1
(dp5316
I0
g5313
sI1
(lp5317
sI2
(lp5318
sI3
(lp5319
ssI2
(dp5320
I0
g5314
sI1
g5318
sI2
(lp5321
sI3
(lp5322
ssI3
(dp5323
I0
g5315
sI1
g5319
sI2
g5322
sI3
(lp5324
ssa(dp5325
I0
(dp5326
I0
(lp5327
sI1
(lp5328
sI2
(lp5329
sI3
(lp5330
ssI1
(dp5331
I0
g5328
sI1
(lp5332
sI2
(lp5333
sI3
(lp5334
ssI2
(dp5335
I0
g5329
sI1
g5333
sI2
(lp5336
sI3
(lp5337
ssI3
(dp5338
I0
g5330
sI1
g5334
sI2
g5337
sI3
(lp5339
ssa(dp5340
I0
(dp5341
I0
(lp5342
sI1
(lp5343
sI2
(lp5344
sI3
(lp5345
ssI1
(dp5346
I0
g5343
sI1
(lp5347
sI2
(lp5348
sI3
(lp5349
ssI2
(dp5350
I0
g5344
sI1
g5348
sI2
(lp5351
sI3
(lp5352
ssI3
(dp5353
I0
g5345
sI1
g5349
sI2
g5352
sI3
(lp5354
ssa(dp5355
I0
(dp5356
I0
(lp5357
sI1
(lp5358
sI2
(lp5359
sI3
(lp5360
ssI1
(dp5361
I0
g5358
sI1
(lp5362
sI2
(lp5363
sI3
(lp5364
ssI2
(dp5365
I0
g5359
sI1
g5363
sI2
(lp5366
sI3
(lp5367
ssI3
(dp5368
I0
g5360
sI1
g5364
sI2
g5367
sI3
(lp5369
ssa(dp5370
I0
(dp5371
I0
(lp5372
sI1
(lp5373
sI2
(lp5374
sI3
(lp5375
ssI1
(dp5376
I0
g5373
sI1
(lp5377
sI2
(lp5378
sI3
(lp5379
ssI2
(dp5380
I0
g5374
sI1
g5378
sI2
(lp5381
sI3
(lp5382
ssI3
(dp5383
I0
g5375
sI1
g5379
sI2
g5382
sI3
(lp5384
ssa(dp5385
I0
(dp5386
I0
(lp5387
sI1
(lp5388
sI2
(lp5389
sI3
(lp5390
ssI1
(dp5391
I0
g5388
sI1
(lp5392
sI2
(lp5393
sI3
(lp5394
ssI2
(dp5395
I0
g5389
sI1
g5393
sI2
(lp5396
sI3
(lp5397
ssI3
(dp5398
I0
g5390
sI1
g5394
sI2
g5397
sI3
(lp5399
ssa(dp5400
I0
(dp5401
I0
(lp5402
sI1
(lp5403
sI2
(lp5404
sI3
(lp5405
ssI1
(dp5406
I0
g5403
sI1
(lp5407
sI2
(lp5408
sI3
(lp5409
ssI2
(dp5410
I0
g5404
sI1
g5408
sI2
(lp5411
sI3
(lp5412
ssI3
(dp5413
I0
g5405
sI1
g5409
sI2
g5412
sI3
(lp5414
ssa(dp5415
I0
(dp5416
I0
(lp5417
sI1
(lp5418
sI2
(lp5419
sI3
(lp5420
ssI1
(dp5421
I0
g5418
sI1
(lp5422
sI2
(lp5423
sI3
(lp5424
ssI2
(dp5425
I0
g5419
sI1
g5423
sI2
(lp5426
sI3
(lp5427
ssI3
(dp5428
I0
g5420
sI1
g5424
sI2
g5427
sI3
(lp5429
ssa(dp5430
I0
(dp5431
I0
(lp5432
sI1
(lp5433
sI2
(lp5434
sI3
(lp5435
ssI1
(dp5436
I0
g5433
sI1
(lp5437
sI2
(lp5438
sI3
(lp5439
ssI2
(dp5440
I0
g5434
sI1
g5438
sI2
(lp5441
sI3
(lp5442
ssI3
(dp5443
I0
g5435
sI1
g5439
sI2
g5442
sI3
(lp5444
ssa(dp5445
I0
(dp5446
I0
(lp5447
sI1
(lp5448
sI2
(lp5449
sI3
(lp5450
ssI1
(dp5451
I0
g5448
sI1
(lp5452
sI2
(lp5453
sI3
(lp5454
ssI2
(dp5455
I0
g5449
sI1
g5453
sI2
(lp5456
sI3
(lp5457
ssI3
(dp5458
I0
g5450
sI1
g5454
sI2
g5457
sI3
(lp5459
ssa(dp5460
I0
(dp5461
I0
(lp5462
sI1
(lp5463
sI2
(lp5464
sI3
(lp5465
ssI1
(dp5466
I0
g5463
sI1
(lp5467
sI2
(lp5468
sI3
(lp5469
ssI2
(dp5470
I0
g5464
sI1
g5468
sI2
(lp5471
sI3
(lp5472
ssI3
(dp5473
I0
g5465
sI1
g5469
sI2
g5472
sI3
(lp5474
ssa(dp5475
I0
(dp5476
I0
(lp5477
sI1
(lp5478
sI2
(lp5479
sI3
(lp5480
ssI1
(dp5481
I0
g5478
sI1
(lp5482
sI2
(lp5483
sI3
(lp5484
ssI2
(dp5485
I0
g5479
sI1
g5483
sI2
(lp5486
sI3
(lp5487
ssI3
(dp5488
I0
g5480
sI1
g5484
sI2
g5487
sI3
(lp5489
ssa(dp5490
I0
(dp5491
I0
(lp5492
sI1
(lp5493
sI2
(lp5494
sI3
(lp5495
ssI1
(dp5496
I0
g5493
sI1
(lp5497
sI2
(lp5498
sI3
(lp5499
ssI2
(dp5500
I0
g5494
sI1
g5498
sI2
(lp5501
sI3
(lp5502
ssI3
(dp5503
I0
g5495
sI1
g5499
sI2
g5502
sI3
(lp5504
ssa(dp5505
I0
(dp5506
I0
(lp5507
sI1
(lp5508
sI2
(lp5509
sI3
(lp5510
ssI1
(dp5511
I0
g5508
sI1
(lp5512
sI2
(lp5513
sI3
(lp5514
ssI2
(dp5515
I0
g5509
sI1
g5513
sI2
(lp5516
sI3
(lp5517
ssI3
(dp5518
I0
g5510
sI1
g5514
sI2
g5517
sI3
(lp5519
ssa(dp5520
I0
(dp5521
I0
(lp5522
sI1
(lp5523
sI2
(lp5524
sI3
(lp5525
ssI1
(dp5526
I0
g5523
sI1
(lp5527
sI2
(lp5528
sI3
(lp5529
ssI2
(dp5530
I0
g5524
sI1
g5528
sI2
(lp5531
sI3
(lp5532
ssI3
(dp5533
I0
g5525
sI1
g5529
sI2
g5532
sI3
(lp5534
ssa(dp5535
I0
(dp5536
I0
(lp5537
sI1
(lp5538
sI2
(lp5539
sI3
(lp5540
ssI1
(dp5541
I0
g5538
sI1
(lp5542
sI2
(lp5543
sI3
(lp5544
ssI2
(dp5545
I0
g5539
sI1
g5543
sI2
(lp5546
sI3
(lp5547
ssI3
(dp5548
I0
g5540
sI1
g5544
sI2
g5547
sI3
(lp5549
ssa(dp5550
I0
(dp5551
I0
(lp5552
sI1
(lp5553
sI2
(lp5554
sI3
(lp5555
ssI1
(dp5556
I0
g5553
sI1
(lp5557
sI2
(lp5558
sI3
(lp5559
ssI2
(dp5560
I0
g5554
sI1
g5558
sI2
(lp5561
sI3
(lp5562
ssI3
(dp5563
I0
g5555
sI1
g5559
sI2
g5562
sI3
(lp5564
ssa(dp5565
I0
(dp5566
I0
(lp5567
sI1
(lp5568
sI2
(lp5569
sI3
(lp5570
ssI1
(dp5571
I0
g5568
sI1
(lp5572
sI2
(lp5573
sI3
(lp5574
ssI2
(dp5575
I0
g5569
sI1
g5573
sI2
(lp5576
sI3
(lp5577
ssI3
(dp5578
I0
g5570
sI1
g5574
sI2
g5577
sI3
(lp5579
ssa(dp5580
I0
(dp5581
I0
(lp5582
sI1
(lp5583
sI2
(lp5584
sI3
(lp5585
ssI1
(dp5586
I0
g5583
sI1
(lp5587
sI2
(lp5588
sI3
(lp5589
ssI2
(dp5590
I0
g5584
sI1
g5588
sI2
(lp5591
sI3
(lp5592
ssI3
(dp5593
I0
g5585
sI1
g5589
sI2
g5592
sI3
(lp5594
ssa(dp5595
I0
(dp5596
I0
(lp5597
sI1
(lp5598
sI2
(lp5599
sI3
(lp5600
ssI1
(dp5601
I0
g5598
sI1
(lp5602
sI2
(lp5603
sI3
(lp5604
ssI2
(dp5605
I0
g5599
sI1
g5603
sI2
(lp5606
sI3
(lp5607
ssI3
(dp5608
I0
g5600
sI1
g5604
sI2
g5607
sI3
(lp5609
ssa(dp5610
I0
(dp5611
I0
(lp5612
sI1
(lp5613
sI2
(lp5614
sI3
(lp5615
ssI1
(dp5616
I0
g5613
sI1
(lp5617
sI2
(lp5618
sI3
(lp5619
ssI2
(dp5620
I0
g5614
sI1
g5618
sI2
(lp5621
sI3
(lp5622
ssI3
(dp5623
I0
g5615
sI1
g5619
sI2
g5622
sI3
(lp5624
ssa(dp5625
I0
(dp5626
I0
(lp5627
sI1
(lp5628
sI2
(lp5629
sI3
(lp5630
ssI1
(dp5631
I0
g5628
sI1
(lp5632
sI2
(lp5633
sI3
(lp5634
ssI2
(dp5635
I0
g5629
sI1
g5633
sI2
(lp5636
sI3
(lp5637
ssI3
(dp5638
I0
g5630
sI1
g5634
sI2
g5637
sI3
(lp5639
ssa(dp5640
I0
(dp5641
I0
(lp5642
sI1
(lp5643
sI2
(lp5644
sI3
(lp5645
ssI1
(dp5646
I0
g5643
sI1
(lp5647
sI2
(lp5648
sI3
(lp5649
ssI2
(dp5650
I0
g5644
sI1
g5648
sI2
(lp5651
sI3
(lp5652
ssI3
(dp5653
I0
g5645
sI1
g5649
sI2
g5652
sI3
(lp5654
ssa(dp5655
I0
(dp5656
I0
(lp5657
sI1
(lp5658
sI2
(lp5659
sI3
(lp5660
ssI1
(dp5661
I0
g5658
sI1
(lp5662
sI2
(lp5663
sI3
(lp5664
ssI2
(dp5665
I0
g5659
sI1
g5663
sI2
(lp5666
sI3
(lp5667
ssI3
(dp5668
I0
g5660
sI1
g5664
sI2
g5667
sI3
(lp5669
ssa(dp5670
I0
(dp5671
I0
(lp5672
sI1
(lp5673
sI2
(lp5674
sI3
(lp5675
ssI1
(dp5676
I0
g5673
sI1
(lp5677
sI2
(lp5678
sI3
(lp5679
ssI2
(dp5680
I0
g5674
sI1
g5678
sI2
(lp5681
sI3
(lp5682
ssI3
(dp5683
I0
g5675
sI1
g5679
sI2
g5682
sI3
(lp5684
ssa(dp5685
I0
(dp5686
I0
(lp5687
sI1
(lp5688
Vhttp://www.w3.org/1999/02/22-rdf-syntax-ns#type
p5689
aVhttp://purl.org/dc/terms/subject
p5690
aVhttp://www.w3.org/2000/01/rdf-schema#comment
p5691
aVhttp://dbpedia.org/ontology/abstract
p5692
aVhttp://dbpedia.org/ontology/isPartOf
p5693
aVhttp://dbpedia.org/property/city
p5694
aVhttp://dbpedia.org/property/subdivisionName
p5695
asI2
(lp5696
sI3
(lp5697
ssI1
(dp5698
I0
g5688
sI1
(lp5699
sI2
(lp5700
sI3
(lp5701
ssI2
(dp5702
I0
g5696
sI1
g5700
sI2
(lp5703
sI3
(lp5704
ssI3
(dp5705
I0
g5697
sI1
g5701
sI2
g5704
sI3
(lp5706
ssa(dp5707
I0
(dp5708
I0
(lp5709
sI1
(lp5710
sI2
(lp5711
sI3
(lp5712
ssI1
(dp5713
I0
g5710
sI1
(lp5714
sI2
(lp5715
sI3
(lp5716
ssI2
(dp5717
I0
g5711
sI1
g5715
sI2
(lp5718
sI3
(lp5719
ssI3
(dp5720
I0
g5712
sI1
g5716
sI2
g5719
sI3
(lp5721
ssa(dp5722
I0
(dp5723
I0
(lp5724
sI1
(lp5725
sI2
(lp5726
sI3
(lp5727
ssI1
(dp5728
I0
g5725
sI1
(lp5729
sI2
(lp5730
sI3
(lp5731
ssI2
(dp5732
I0
g5726
sI1
g5730
sI2
(lp5733
sI3
(lp5734
ssI3
(dp5735
I0
g5727
sI1
g5731
sI2
g5734
sI3
(lp5736
ssa(dp5737
I0
(dp5738
I0
(lp5739
sI1
(lp5740
sI2
(lp5741
sI3
(lp5742
ssI1
(dp5743
I1
(lp5744
sI2
(lp5745
sI3
(lp5746
ssI2
(dp5747
I0
g5741
sI1
g5745
sI2
(lp5748
sI3
(lp5749
ssI3
(dp5750
I0
g5742
sI1
g5746
sI2
g5749
sI3
(lp5751
ssa(dp5752
I0
(dp5753
I0
(lp5754
sI1
(lp5755
sI2
(lp5756
sI3
(lp5757
ssI1
(dp5758
I0
g5755
sI1
(lp5759
sI2
(lp5760
sI3
(lp5761
ssI2
(dp5762
I0
g5756
sI1
g5760
sI2
(lp5763
sI3
(lp5764
ssI3
(dp5765
I0
g5757
sI1
g5761
sI2
g5764
sI3
(lp5766
ssa(dp5767
I0
(dp5768
I0
(lp5769
sI1
(lp5770
sI2
(lp5771
sI3
(lp5772
ssI1
(dp5773
I0
g5770
sI1
(lp5774
sI2
(lp5775
sI3
(lp5776
ssI2
(dp5777
I0
g5771
sI1
g5775
sI2
(lp5778
sI3
(lp5779
ssI3
(dp5780
I0
g5772
sI1
g5776
sI2
g5779
sI3
(lp5781
ssa(dp5782
I0
(dp5783
I0
(lp5784
sI1
(lp5785
Vhttp://www.w3.org/1999/02/22-rdf-syntax-ns#type
p5786
aVhttp://purl.org/dc/terms/subject
p5787
aVhttp://www.w3.org/2000/01/rdf-schema#comment
p5788
aVhttp://dbpedia.org/ontology/abstract
p5789
aVhttp://dbpedia.org/ontology/wikiPageRedirects
p5790
aVhttp://dbpedia.org/ontology/isPartOf
p5791
aVhttp://dbpedia.org/property/city
p5792
aVhttp://dbpedia.org/property/subdivisionName
p5793
asI2
(lp5794
sI3
(lp5795
ssI1
(dp5796
I0
g5785
sI1
(lp5797
sI2
(lp5798
sI3
(lp5799
ssI2
(dp5800
I0
g5794
sI1
g5798
sI2
(lp5801
sI3
(lp5802
ssI3
(dp5803
I0
g5795
sI1
g5799
sI2
g5802
sI3
(lp5804
ssa(dp5805
I0
(dp5806
I0
(lp5807
sI1
(lp5808
sI2
(lp5809
sI3
(lp5810
ssI1
(dp5811
I0
g5808
sI1
(lp5812
sI2
(lp5813
sI3
(lp5814
ssI2
(dp5815
I0
g5809
sI1
g5813
sI2
(lp5816
sI3
(lp5817
ssI3
(dp5818
I0
g5810
sI1
g5814
sI2
g5817
sI3
(lp5819
ssa(dp5820
I0
(dp5821
I0
(lp5822
sI1
(lp5823
sI2
(lp5824
sI3
(lp5825
ssI1
(dp5826
I0
g5823
sI1
(lp5827
sI2
(lp5828
sI3
(lp5829
ssI2
(dp5830
I0
g5824
sI1
g5828
sI2
(lp5831
sI3
(lp5832
ssI3
(dp5833
I0
g5825
sI1
g5829
sI2
g5832
sI3
(lp5834
ssa(dp5835
I0
(dp5836
I0
(lp5837
sI1
(lp5838
Vhttp://www.w3.org/1999/02/22-rdf-syntax-ns#type
p5839
aVhttp://purl.org/dc/terms/subject
p5840
aVhttp://dbpedia.org/ontology/location
p5841
aVhttp://www.w3.org/2000/01/rdf-schema#comment
p5842
aVhttp://dbpedia.org/ontology/abstract
p5843
aVhttp://dbpedia.org/ontology/wikiPageRedirects
p5844
aVhttp://dbpedia.org/property/district
p5845
aVhttp://dbpedia.org/property/seat
p5846
aVhttp://dbpedia.org/property/city
p5847
aVhttp://dbpedia.org/property/locationTown
p5848
aVhttp://dbpedia.org/ontology/district
p5849
asI2
(lp5850
sI3
(lp5851
ssI1
(dp5852
I0
g5838
sI1
(lp5853
sI2
(lp5854
sI3
(lp5855
ssI2
(dp5856
I0
g5850
sI1
g5854
sI2
(lp5857
sI3
(lp5858
ssI3
(dp5859
I0
g5851
sI1
g5855
sI2
g5858
sI3
(lp5860
ssa(dp5861
I0
(dp5862
I0
(lp5863
sI1
(lp5864
sI2
(lp5865
sI3
(lp5866
ssI1
(dp5867
I0
g5864
sI1
(lp5868
sI2
(lp5869
sI3
(lp5870
ssI2
(dp5871
I0
g5865
sI1
g5869
sI2
(lp5872
sI3
(lp5873
ssI3
(dp5874
I0
g5866
sI1
g5870
sI2
g5873
sI3
(lp5875
ssa(dp5876
I0
(dp5877
I0
(lp5878
sI1
(lp5879
sI2
(lp5880
sI3
(lp5881
ssI1
(dp5882
I0
g5879
sI1
(lp5883
sI2
(lp5884
sI3
(lp5885
ssI2
(dp5886
I0
g5880
sI1
g5884
sI2
(lp5887
sI3
(lp5888
ssI3
(dp5889
I0
g5881
sI1
g5885
sI2
g5888
sI3
(lp5890
ssa(dp5891
I0
(dp5892
I0
(lp5893
sI1
(lp5894
sI2
(lp5895
sI3
(lp5896
ssI1
(dp5897
I0
g5894
sI1
(lp5898
sI2
(lp5899
sI3
(lp5900
ssI2
(dp5901
I0
g5895
sI1
g5899
sI2
(lp5902
sI3
(lp5903
ssI3
(dp5904
I0
g5896
sI1
g5900
sI2
g5903
sI3
(lp5905
ssa(dp5906
I0
(dp5907
I0
(lp5908
sI1
(lp5909
sI2
(lp5910
sI3
(lp5911
ssI1
(dp5912
I0
g5909
sI1
(lp5913
sI2
(lp5914
sI3
(lp5915
ssI2
(dp5916
I0
g5910
sI1
g5914
sI2
(lp5917
sI3
(lp5918
ssI3
(dp5919
I0
g5911
sI1
g5915
sI2
g5918
sI3
(lp5920
ssa(dp5921
I0
(dp5922
I0
(lp5923
sI1
(lp5924
sI2
(lp5925
sI3
(lp5926
ssI1
(dp5927
I0
g5924
sI1
(lp5928
sI2
(lp5929
sI3
(lp5930
ssI2
(dp5931
I0
g5925
sI1
g5929
sI2
(lp5932
sI3
(lp5933
ssI3
(dp5934
I0
g5926
sI1
g5930
sI2
g5933
sI3
(lp5935
ssa(dp5936
I0
(dp5937
I0
(lp5938
sI1
(lp5939
sI2
(lp5940
sI3
(lp5941
ssI1
(dp5942
I0
g5939
sI1
(lp5943
sI2
(lp5944
sI3
(lp5945
ssI2
(dp5946
I0
g5940
sI1
g5944
sI2
(lp5947
sI3
(lp5948
ssI3
(dp5949
I0
g5941
sI1
g5945
sI2
g5948
sI3
(lp5950
ssa(dp5951
I0
(dp5952
I0
(lp5953
sI1
(lp5954
sI2
(lp5955
sI3
(lp5956
ssI1
(dp5957
I0
g5954
sI1
(lp5958
sI2
(lp5959
sI3
(lp5960
ssI2
(dp5961
I0
g5955
sI1
g5959
sI2
(lp5962
sI3
(lp5963
ssI3
(dp5964
I0
g5956
sI1
g5960
sI2
g5963
sI3
(lp5965
ssa(dp5966
I0
(dp5967
I0
(lp5968
sI1
(lp5969
sI2
(lp5970
sI3
(lp5971
ssI1
(dp5972
I0
g5969
sI1
(lp5973
sI2
(lp5974
sI3
(lp5975
ssI2
(dp5976
I0
g5970
sI1
g5974
sI2
(lp5977
sI3
(lp5978
ssI3
(dp5979
I0
g5971
sI1
g5975
sI2
g5978
sI3
(lp5980
ssa(dp5981
I0
(dp5982
I0
(lp5983
sI1
(lp5984
sI2
(lp5985
sI3
(lp5986
ssI1
(dp5987
I0
g5984
sI1
(lp5988
sI2
(lp5989
sI3
(lp5990
ssI2
(dp5991
I0
g5985
sI1
g5989
sI2
(lp5992
sI3
(lp5993
ssI3
(dp5994
I0
g5986
sI1
g5990
sI2
g5993
sI3
(lp5995
ssa(dp5996
I0
(dp5997
I0
(lp5998
sI1
(lp5999
sI2
(lp6000
sI3
(lp6001
ssI1
(dp6002
I0
g5999
sI1
(lp6003
sI2
(lp6004
sI3
(lp6005
ssI2
(dp6006
I0
g6000
sI1
g6004
sI2
(lp6007
sI3
(lp6008
ssI3
(dp6009
I0
g6001
sI1
g6005
sI2
g6008
sI3
(lp6010
ssa(dp6011
I0
(dp6012
I0
(lp6013
sI1
(lp6014
sI2
(lp6015
sI3
(lp6016
ssI1
(dp6017
I0
g6014
sI1
(lp6018
sI2
(lp6019
sI3
(lp6020
ssI2
(dp6021
I0
g6015
sI1
g6019
sI2
(lp6022
sI3
(lp6023
ssI3
(dp6024
I0
g6016
sI1
g6020
sI2
g6023
sI3
(lp6025
ssa(dp6026
I0
(dp6027
I0
(lp6028
sI1
(lp6029
sI2
(lp6030
sI3
(lp6031
ssI1
(dp6032
I0
g6029
sI1
(lp6033
sI2
(lp6034
sI3
(lp6035
ssI2
(dp6036
I0
g6030
sI1
g6034
sI2
(lp6037
sI3
(lp6038
ssI3
(dp6039
I0
g6031
sI1
g6035
sI2
g6038
sI3
(lp6040
ssa(dp6041
I0
(dp6042
I0
(lp6043
sI1
(lp6044
sI2
(lp6045
sI3
(lp6046
ssI1
(dp6047
I0
g6044
sI1
(lp6048
sI2
(lp6049
sI3
(lp6050
ssI2
(dp6051
I0
g6045
sI1
g6049
sI2
(lp6052
sI3
(lp6053
ssI3
(dp6054
I0
g6046
sI1
g6050
sI2
g6053
sI3
(lp6055
ssa(dp6056
I0
(dp6057
I0
(lp6058
sI1
(lp6059
sI2
(lp6060
sI3
(lp6061
ssI1
(dp6062
I0
g6059
sI1
(lp6063
sI2
(lp6064
sI3
(lp6065
ssI2
(dp6066
I0
g6060
sI1
g6064
sI2
(lp6067
sI3
(lp6068
ssI3
(dp6069
I0
g6061
sI1
g6065
sI2
g6068
sI3
(lp6070
ssa(dp6071
I0
(dp6072
I0
(lp6073
sI1
(lp6074
sI2
(lp6075
sI3
(lp6076
ssI1
(dp6077
I0
g6074
sI1
(lp6078
sI2
(lp6079
sI3
(lp6080
ssI2
(dp6081
I0
g6075
sI1
g6079
sI2
(lp6082
sI3
(lp6083
ssI3
(dp6084
I0
g6076
sI1
g6080
sI2
g6083
sI3
(lp6085
ssa(dp6086
I0
(dp6087
I0
(lp6088
sI1
(lp6089
sI2
(lp6090
sI3
(lp6091
ssI1
(dp6092
I0
g6089
sI1
(lp6093
sI2
(lp6094
sI3
(lp6095
ssI2
(dp6096
I0
g6090
sI1
g6094
sI2
(lp6097
sI3
(lp6098
ssI3
(dp6099
I0
g6091
sI1
g6095
sI2
g6098
sI3
(lp6100
ssa(dp6101
I0
(dp6102
I0
(lp6103
sI1
(lp6104
sI2
(lp6105
sI3
(lp6106
ssI1
(dp6107
I0
g6104
sI1
(lp6108
sI2
(lp6109
sI3
(lp6110
ssI2
(dp6111
I0
g6105
sI1
g6109
sI2
(lp6112
sI3
(lp6113
ssI3
(dp6114
I0
g6106
sI1
g6110
sI2
g6113
sI3
(lp6115
ssa(dp6116
I0
(dp6117
I0
(lp6118
sI1
(lp6119
sI2
(lp6120
sI3
(lp6121
ssI1
(dp6122
I0
g6119
sI1
(lp6123
sI2
(lp6124
sI3
(lp6125
ssI2
(dp6126
I0
g6120
sI1
g6124
sI2
(lp6127
sI3
(lp6128
ssI3
(dp6129
I0
g6121
sI1
g6125
sI2
g6128
sI3
(lp6130
ssa(dp6131
I0
(dp6132
I0
(lp6133
sI1
(lp6134
sI2
(lp6135
sI3
(lp6136
ssI1
(dp6137
I0
g6134
sI1
(lp6138
sI2
(lp6139
sI3
(lp6140
ssI2
(dp6141
I0
g6135
sI1
g6139
sI2
(lp6142
sI3
(lp6143
ssI3
(dp6144
I0
g6136
sI1
g6140
sI2
g6143
sI3
(lp6145
ssa(dp6146
I0
(dp6147
I0
(lp6148
sI1
(lp6149
sI2
(lp6150
sI3
(lp6151
ssI1
(dp6152
I0
g6149
sI1
(lp6153
sI2
(lp6154
sI3
(lp6155
ssI2
(dp6156
I0
g6150
sI1
g6154
sI2
(lp6157
sI3
(lp6158
ssI3
(dp6159
I0
g6151
sI1
g6155
sI2
g6158
sI3
(lp6160
ssa(dp6161
I0
(dp6162
I0
(lp6163
sI1
(lp6164
sI2
(lp6165
sI3
(lp6166
ssI1
(dp6167
I0
g6164
sI1
(lp6168
sI2
(lp6169
sI3
(lp6170
ssI2
(dp6171
I0
g6165
sI1
g6169
sI2
(lp6172
sI3
(lp6173
ssI3
(dp6174
I0
g6166
sI1
g6170
sI2
g6173
sI3
(lp6175
ssa(dp6176
I0
(dp6177
I0
(lp6178
sI1
(lp6179
sI2
(lp6180
sI3
(lp6181
ssI1
(dp6182
I0
g6179
sI1
(lp6183
sI2
(lp6184
sI3
(lp6185
ssI2
(dp6186
I0
g6180
sI1
g6184
sI2
(lp6187
sI3
(lp6188
ssI3
(dp6189
I0
g6181
sI1
g6185
sI2
g6188
sI3
(lp6190
ssa(dp6191
I0
(dp6192
I0
(lp6193
sI1
(lp6194
sI2
(lp6195
sI3
(lp6196
ssI1
(dp6197
I0
g6194
sI1
(lp6198
sI2
(lp6199
sI3
(lp6200
ssI2
(dp6201
I0
g6195
sI1
g6199
sI2
(lp6202
sI3
(lp6203
ssI3
(dp6204
I0
g6196
sI1
g6200
sI2
g6203
sI3
(lp6205
ssa(dp6206
I0
(dp6207
I0
(lp6208
sI1
(lp6209
Vhttp://dbpedia.org/ontology/abstract
p6210
aVhttp://www.w3.org/2000/01/rdf-schema#comment
p6211
aVhttp://purl.org/dc/terms/subject
p6212
aVhttp://dbpedia.org/property/location
p6213
aVhttp://dbpedia.org/ontology/location
p6214
asI2
(lp6215
sI3
(lp6216
ssI1
(dp6217
I0
g6209
sI1
(lp6218
sI2
(lp6219
sI3
(lp6220
ssI2
(dp6221
I0
g6215
sI1
g6219
sI2
(lp6222
sI3
(lp6223
ssI3
(dp6224
I0
g6216
sI1
g6220
sI2
g6223
sI3
(lp6225
ssa(dp6226
I0
(dp6227
I0
(lp6228
sI1
(lp6229
sI2
(lp6230
sI3
(lp6231
ssI1
(dp6232
I0
g6229
sI1
(lp6233
sI2
(lp6234
sI3
(lp6235
ssI2
(dp6236
I0
g6230
sI1
g6234
sI2
(lp6237
sI3
(lp6238
ssI3
(dp6239
I0
g6231
sI1
g6235
sI2
g6238
sI3
(lp6240
ssa(dp6241
I0
(dp6242
I0
(lp6243
sI1
(lp6244
sI2
(lp6245
sI3
(lp6246
ssI1
(dp6247
I0
g6244
sI1
(lp6248
sI2
(lp6249
sI3
(lp6250
ssI2
(dp6251
I0
g6245
sI1
g6249
sI2
(lp6252
sI3
(lp6253
ssI3
(dp6254
I0
g6246
sI1
g6250
sI2
g6253
sI3
(lp6255
ssa(dp6256
I0
(dp6257
I0
(lp6258
sI1
(lp6259
sI2
(lp6260
sI3
(lp6261
ssI1
(dp6262
I0
g6259
sI1
(lp6263
sI2
(lp6264
sI3
(lp6265
ssI2
(dp6266
I0
g6260
sI1
g6264
sI2
(lp6267
sI3
(lp6268
ssI3
(dp6269
I0
g6261
sI1
g6265
sI2
g6268
sI3
(lp6270
ssa(dp6271
I0
(dp6272
I0
(lp6273
sI1
(lp6274
sI2
(lp6275
sI3
(lp6276
ssI1
(dp6277
I0
g6274
sI1
(lp6278
sI2
(lp6279
sI3
(lp6280
ssI2
(dp6281
I0
g6275
sI1
g6279
sI2
(lp6282
sI3
(lp6283
ssI3
(dp6284
I0
g6276
sI1
g6280
sI2
g6283
sI3
(lp6285
ssa(dp6286
I0
(dp6287
I0
(lp6288
sI1
(lp6289
sI2
(lp6290
sI3
(lp6291
ssI1
(dp6292
I0
g6289
sI1
(lp6293
sI2
(lp6294
sI3
(lp6295
ssI2
(dp6296
I0
g6290
sI1
g6294
sI2
(lp6297
sI3
(lp6298
ssI3
(dp6299
I0
g6291
sI1
g6295
sI2
g6298
sI3
(lp6300
ssa(dp6301
I0
(dp6302
I0
(lp6303
sI1
(lp6304
sI2
(lp6305
sI3
(lp6306
ssI1
(dp6307
I0
g6304
sI1
(lp6308
sI2
(lp6309
sI3
(lp6310
ssI2
(dp6311
I0
g6305
sI1
g6309
sI2
(lp6312
sI3
(lp6313
ssI3
(dp6314
I0
g6306
sI1
g6310
sI2
g6313
sI3
(lp6315
ssa(dp6316
I0
(dp6317
I0
(lp6318
sI1
(lp6319
sI2
(lp6320
sI3
(lp6321
ssI1
(dp6322
I0
g6319
sI1
(lp6323
sI2
(lp6324
sI3
(lp6325
ssI2
(dp6326
I0
g6320
sI1
g6324
sI2
(lp6327
sI3
(lp6328
ssI3
(dp6329
I0
g6321
sI1
g6325
sI2
g6328
sI3
(lp6330
ssa(dp6331
I0
(dp6332
I0
(lp6333
sI1
(lp6334
sI2
(lp6335
sI3
(lp6336
ssI1
(dp6337
I0
g6334
sI1
(lp6338
sI2
(lp6339
sI3
(lp6340
ssI2
(dp6341
I0
g6335
sI1
g6339
sI2
(lp6342
sI3
(lp6343
ssI3
(dp6344
I0
g6336
sI1
g6340
sI2
g6343
sI3
(lp6345
ssa(dp6346
I0
(dp6347
I0
(lp6348
sI1
(lp6349
sI2
(lp6350
sI3
(lp6351
ssI1
(dp6352
I0
g6349
sI1
(lp6353
sI2
(lp6354
sI3
(lp6355
ssI2
(dp6356
I0
g6350
sI1
g6354
sI2
(lp6357
sI3
(lp6358
ssI3
(dp6359
I0
g6351
sI1
g6355
sI2
g6358
sI3
(lp6360
ssa(dp6361
I0
(dp6362
I0
(lp6363
sI1
(lp6364
sI2
(lp6365
sI3
(lp6366
ssI1
(dp6367
I0
g6364
sI1
(lp6368
sI2
(lp6369
sI3
(lp6370
ssI2
(dp6371
I0
g6365
sI1
g6369
sI2
(lp6372
sI3
(lp6373
ssI3
(dp6374
I0
g6366
sI1
g6370
sI2
g6373
sI3
(lp6375
ssa(dp6376
I0
(dp6377
I0
(lp6378
sI1
(lp6379
sI2
(lp6380
sI3
(lp6381
ssI1
(dp6382
I0
g6379
sI1
(lp6383
sI2
(lp6384
sI3
(lp6385
ssI2
(dp6386
I0
g6380
sI1
g6384
sI2
(lp6387
sI3
(lp6388
ssI3
(dp6389
I0
g6381
sI1
g6385
sI2
g6388
sI3
(lp6390
ssa(dp6391
I0
(dp6392
I0
(lp6393
sI1
(lp6394
sI2
(lp6395
sI3
(lp6396
ssI1
(dp6397
I1
(lp6398
sI2
(lp6399
sI3
(lp6400
ssI2
(dp6401
I0
g6395
sI1
g6399
sI2
(lp6402
sI3
(lp6403
ssI3
(dp6404
I0
g6396
sI1
g6400
sI2
g6403
sI3
(lp6405
ssa(dp6406
I0
(dp6407
I0
(lp6408
sI1
(lp6409
sI2
(lp6410
sI3
(lp6411
ssI1
(dp6412
I0
g6409
sI1
(lp6413
sI2
(lp6414
sI3
(lp6415
ssI2
(dp6416
I0
g6410
sI1
g6414
sI2
(lp6417
sI3
(lp6418
ssI3
(dp6419
I0
g6411
sI1
g6415
sI2
g6418
sI3
(lp6420
ssa(dp6421
I0
(dp6422
I0
(lp6423
sI1
(lp6424
sI2
(lp6425
sI3
(lp6426
ssI1
(dp6427
I0
g6424
sI1
(lp6428
sI2
(lp6429
sI3
(lp6430
ssI2
(dp6431
I0
g6425
sI1
g6429
sI2
(lp6432
sI3
(lp6433
ssI3
(dp6434
I0
g6426
sI1
g6430
sI2
g6433
sI3
(lp6435
ssa(dp6436
I0
(dp6437
I0
(lp6438
sI1
(lp6439
sI2
(lp6440
sI3
(lp6441
ssI1
(dp6442
I0
g6439
sI1
(lp6443
sI2
(lp6444
sI3
(lp6445
ssI2
(dp6446
I0
g6440
sI1
g6444
sI2
(lp6447
sI3
(lp6448
ssI3
(dp6449
I0
g6441
sI1
g6445
sI2
g6448
sI3
(lp6450
ssa(dp6451
I0
(dp6452
I0
(lp6453
sI1
(lp6454
sI2
(lp6455
sI3
(lp6456
ssI1
(dp6457
I0
g6454
sI1
(lp6458
sI2
(lp6459
sI3
(lp6460
ssI2
(dp6461
I0
g6455
sI1
g6459
sI2
(lp6462
sI3
(lp6463
ssI3
(dp6464
I0
g6456
sI1
g6460
sI2
g6463
sI3
(lp6465
ssa(dp6466
I0
(dp6467
I0
(lp6468
sI1
(lp6469
sI2
(lp6470
sI3
(lp6471
ssI1
(dp6472
I0
g6469
sI1
(lp6473
sI2
(lp6474
sI3
(lp6475
ssI2
(dp6476
I0
g6470
sI1
g6474
sI2
(lp6477
sI3
(lp6478
ssI3
(dp6479
I0
g6471
sI1
g6475
sI2
g6478
sI3
(lp6480
ssa(dp6481
I0
(dp6482
I0
(lp6483
sI1
(lp6484
sI2
(lp6485
sI3
(lp6486
ssI1
(dp6487
I0
g6484
sI1
(lp6488
sI2
(lp6489
sI3
(lp6490
ssI2
(dp6491
I0
g6485
sI1
g6489
sI2
(lp6492
sI3
(lp6493
ssI3
(dp6494
I0
g6486
sI1
g6490
sI2
g6493
sI3
(lp6495
ssa(dp6496
I0
(dp6497
I0
(lp6498
sI1
(lp6499
sI2
(lp6500
sI3
(lp6501
ssI1
(dp6502
I0
g6499
sI1
(lp6503
sI2
(lp6504
sI3
(lp6505
ssI2
(dp6506
I0
g6500
sI1
g6504
sI2
(lp6507
sI3
(lp6508
ssI3
(dp6509
I0
g6501
sI1
g6505
sI2
g6508
sI3
(lp6510
ssa(dp6511
I0
(dp6512
I0
(lp6513
sI1
(lp6514
sI2
(lp6515
sI3
(lp6516
ssI1
(dp6517
I0
g6514
sI1
(lp6518
sI2
(lp6519
sI3
(lp6520
ssI2
(dp6521
I0
g6515
sI1
g6519
sI2
(lp6522
sI3
(lp6523
ssI3
(dp6524
I0
g6516
sI1
g6520
sI2
g6523
sI3
(lp6525
ssa(dp6526
I0
(dp6527
I0
(lp6528
sI1
(lp6529
sI2
(lp6530
sI3
(lp6531
ssI1
(dp6532
I0
g6529
sI1
(lp6533
sI2
(lp6534
sI3
(lp6535
ssI2
(dp6536
I0
g6530
sI1
g6534
sI2
(lp6537
sI3
(lp6538
ssI3
(dp6539
I0
g6531
sI1
g6535
sI2
g6538
sI3
(lp6540
ssa(dp6541
I0
(dp6542
I0
(lp6543
sI1
(lp6544
sI2
(lp6545
sI3
(lp6546
ssI1
(dp6547
I0
g6544
sI1
(lp6548
sI2
(lp6549
sI3
(lp6550
ssI2
(dp6551
I0
g6545
sI1
g6549
sI2
(lp6552
sI3
(lp6553
ssI3
(dp6554
I0
g6546
sI1
g6550
sI2
g6553
sI3
(lp6555
ssa(dp6556
I0
(dp6557
I0
(lp6558
sI1
(lp6559
sI2
(lp6560
sI3
(lp6561
ssI1
(dp6562
I0
g6559
sI1
(lp6563
sI2
(lp6564
sI3
(lp6565
ssI2
(dp6566
I0
g6560
sI1
g6564
sI2
(lp6567
sI3
(lp6568
ssI3
(dp6569
I0
g6561
sI1
g6565
sI2
g6568
sI3
(lp6570
ssa(dp6571
I0
(dp6572
I0
(lp6573
sI1
(lp6574
Vhttp://www.w3.org/1999/02/22-rdf-syntax-ns#type
p6575
aVhttp://purl.org/dc/terms/subject
p6576
aVhttp://www.w3.org/2000/01/rdf-schema#comment
p6577
aVhttp://dbpedia.org/ontology/abstract
p6578
aVhttp://dbpedia.org/ontology/isPartOf
p6579
aVhttp://dbpedia.org/property/city
p6580
aVhttp://dbpedia.org/property/hqCity
p6581
aVhttp://dbpedia.org/property/subdivisionName
p6582
asI2
(lp6583
sI3
(lp6584
ssI1
(dp6585
I0
g6574
sI1
(lp6586
sI2
(lp6587
sI3
(lp6588
ssI2
(dp6589
I0
g6583
sI1
g6587
sI2
(lp6590
sI3
(lp6591
ssI3
(dp6592
I0
g6584
sI1
g6588
sI2
g6591
sI3
(lp6593
ssa(dp6594
I0
(dp6595
I0
(lp6596
sI1
(lp6597
sI2
(lp6598
sI3
(lp6599
ssI1
(dp6600
I0
g6597
sI1
(lp6601
sI2
(lp6602
sI3
(lp6603
ssI2
(dp6604
I0
g6598
sI1
g6602
sI2
(lp6605
sI3
(lp6606
ssI3
(dp6607
I0
g6599
sI1
g6603
sI2
g6606
sI3
(lp6608
ssa(dp6609
I0
(dp6610
I0
(lp6611
sI1
(lp6612
sI2
(lp6613
sI3
(lp6614
ssI1
(dp6615
I0
g6612
sI1
(lp6616
sI2
(lp6617
sI3
(lp6618
ssI2
(dp6619
I0
g6613
sI1
g6617
sI2
(lp6620
sI3
(lp6621
ssI3
(dp6622
I0
g6614
sI1
g6618
sI2
g6621
sI3
(lp6623
ssa(dp6624
I0
(dp6625
I0
(lp6626
sI1
(lp6627
sI2
(lp6628
sI3
(lp6629
ssI1
(dp6630
I0
g6627
sI1
(lp6631
sI2
(lp6632
sI3
(lp6633
ssI2
(dp6634
I0
g6628
sI1
g6632
sI2
(lp6635
sI3
(lp6636
ssI3
(dp6637
I0
g6629
sI1
g6633
sI2
g6636
sI3
(lp6638
ssa(dp6639
I0
(dp6640
I0
(lp6641
sI1
(lp6642
sI2
(lp6643
sI3
(lp6644
ssI1
(dp6645
I0
g6642
sI1
(lp6646
sI2
(lp6647
sI3
(lp6648
ssI2
(dp6649
I0
g6643
sI1
g6647
sI2
(lp6650
sI3
(lp6651
ssI3
(dp6652
I0
g6644
sI1
g6648
sI2
g6651
sI3
(lp6653
ssa(dp6654
I0
(dp6655
I0
(lp6656
sI1
(lp6657
sI2
(lp6658
sI3
(lp6659
ssI1
(dp6660
I0
g6657
sI1
(lp6661
sI2
(lp6662
sI3
(lp6663
ssI2
(dp6664
I0
g6658
sI1
g6662
sI2
(lp6665
sI3
(lp6666
ssI3
(dp6667
I0
g6659
sI1
g6663
sI2
g6666
sI3
(lp6668
ssa(dp6669
I0
(dp6670
I0
(lp6671
sI1
(lp6672
sI2
(lp6673
sI3
(lp6674
ssI1
(dp6675
I0
g6672
sI1
(lp6676
sI2
(lp6677
sI3
(lp6678
ssI2
(dp6679
I0
g6673
sI1
g6677
sI2
(lp6680
sI3
(lp6681
ssI3
(dp6682
I0
g6674
sI1
g6678
sI2
g6681
sI3
(lp6683
ssa(dp6684
I0
(dp6685
I0
(lp6686
sI1
(lp6687
sI2
(lp6688
sI3
(lp6689
ssI1
(dp6690
I0
g6687
sI1
(lp6691
sI2
(lp6692
sI3
(lp6693
ssI2
(dp6694
I0
g6688
sI1
g6692
sI2
(lp6695
sI3
(lp6696
ssI3
(dp6697
I0
g6689
sI1
g6693
sI2
g6696
sI3
(lp6698
ssa(dp6699
I0
(dp6700
I0
(lp6701
sI1
(lp6702
sI2
(lp6703
sI3
(lp6704
ssI1
(dp6705
I0
g6702
sI1
(lp6706
sI2
(lp6707
sI3
(lp6708
ssI2
(dp6709
I0
g6703
sI1
g6707
sI2
(lp6710
sI3
(lp6711
ssI3
(dp6712
I0
g6704
sI1
g6708
sI2
g6711
sI3
(lp6713
ssa(dp6714
I0
(dp6715
I0
(lp6716
sI1
(lp6717
sI2
(lp6718
sI3
(lp6719
ssI1
(dp6720
I0
g6717
sI1
(lp6721
sI2
(lp6722
sI3
(lp6723
ssI2
(dp6724
I0
g6718
sI1
g6722
sI2
(lp6725
sI3
(lp6726
ssI3
(dp6727
I0
g6719
sI1
g6723
sI2
g6726
sI3
(lp6728
ssa(dp6729
I0
(dp6730
I0
(lp6731
sI1
(lp6732
sI2
(lp6733
sI3
(lp6734
ssI1
(dp6735
I0
g6732
sI1
(lp6736
sI2
(lp6737
sI3
(lp6738
ssI2
(dp6739
I0
g6733
sI1
g6737
sI2
(lp6740
sI3
(lp6741
ssI3
(dp6742
I0
g6734
sI1
g6738
sI2
g6741
sI3
(lp6743
ssa(dp6744
I0
(dp6745
I0
(lp6746
sI1
(lp6747
sI2
(lp6748
sI3
(lp6749
ssI1
(dp6750
I0
g6747
sI1
(lp6751
sI2
(lp6752
sI3
(lp6753
ssI2
(dp6754
I0
g6748
sI1
g6752
sI2
(lp6755
sI3
(lp6756
ssI3
(dp6757
I0
g6749
sI1
g6753
sI2
g6756
sI3
(lp6758
ssa(dp6759
I0
(dp6760
I0
(lp6761
sI1
(lp6762
sI2
(lp6763
sI3
(lp6764
ssI1
(dp6765
I0
g6762
sI1
(lp6766
sI2
(lp6767
sI3
(lp6768
ssI2
(dp6769
I0
g6763
sI1
g6767
sI2
(lp6770
sI3
(lp6771
ssI3
(dp6772
I0
g6764
sI1
g6768
sI2
g6771
sI3
(lp6773
ssa(dp6774
I0
(dp6775
I0
(lp6776
sI1
(lp6777
sI2
(lp6778
sI3
(lp6779
ssI1
(dp6780
I0
g6777
sI1
(lp6781
sI2
(lp6782
sI3
(lp6783
ssI2
(dp6784
I0
g6778
sI1
g6782
sI2
(lp6785
sI3
(lp6786
ssI3
(dp6787
I0
g6779
sI1
g6783
sI2
g6786
sI3
(lp6788
ssa(dp6789
I0
(dp6790
I0
(lp6791
sI1
(lp6792
Vhttp://dbpedia.org/ontology/abstract
p6793
aVhttp://www.w3.org/1999/02/22-rdf-syntax-ns#type
p6794
aVhttp://purl.org/dc/terms/subject
p6795
aVhttp://www.w3.org/2000/01/rdf-schema#comment
p6796
asI2
(lp6797
sI3
(lp6798
ssI1
(dp6799
I0
g6792
sI1
(lp6800
sI2
(lp6801
sI3
(lp6802
ssI2
(dp6803
I0
g6797
sI1
g6801
sI2
(lp6804
sI3
(lp6805
ssI3
(dp6806
I0
g6798
sI1
g6802
sI2
g6805
sI3
(lp6807
ssa(dp6808
I0
(dp6809
I0
(lp6810
sI1
(lp6811
Vhttp://dbpedia.org/property/mapCaption
p6812
aVhttp://www.w3.org/1999/02/22-rdf-syntax-ns#type
p6813
aVhttp://purl.org/dc/terms/subject
p6814
aVhttp://www.w3.org/2000/01/rdf-schema#comment
p6815
aVhttp://dbpedia.org/ontology/abstract
p6816
aVhttp://xmlns.com/foaf/0.1/depiction
p6817
aVhttp://dbpedia.org/ontology/isPartOf
p6818
aVhttp://dbpedia.org/property/imageMap
p6819
aVhttp://dbpedia.org/ontology/thumbnail
p6820
aVhttp://dbpedia.org/property/subdivisionName
p6821
aVhttp://www.w3.org/2002/07/owl#sameAs
p6822
asI2
(lp6823
sI3
(lp6824
ssI1
(dp6825
I0
g6811
sI1
(lp6826
sI2
(lp6827
sI3
(lp6828
ssI2
(dp6829
I0
g6823
sI1
g6827
sI2
(lp6830
sI3
(lp6831
ssI3
(dp6832
I0
g6824
sI1
g6828
sI2
g6831
sI3
(lp6833
ssa(dp6834
I0
(dp6835
I0
(lp6836
sI1
(lp6837
sI2
(lp6838
sI3
(lp6839
ssI1
(dp6840
I1
(lp6841
sI2
(lp6842
sI3
(lp6843
ssI2
(dp6844
I0
g6838
sI1
g6842
sI2
(lp6845
sI3
(lp6846
ssI3
(dp6847
I0
g6839
sI1
g6843
sI2
g6846
sI3
(lp6848
ssa(dp6849
I0
(dp6850
I0
(lp6851
sI1
(lp6852
sI2
(lp6853
sI3
(lp6854
ssI1
(dp6855
I0
g6852
sI1
(lp6856
sI2
(lp6857
sI3
(lp6858
ssI2
(dp6859
I0
g6853
sI1
g6857
sI2
(lp6860
sI3
(lp6861
ssI3
(dp6862
I0
g6854
sI1
g6858
sI2
g6861
sI3
(lp6863
ssa(dp6864
I0
(dp6865
I0
(lp6866
sI1
(lp6867
sI2
(lp6868
sI3
(lp6869
ssI1
(dp6870
I0
g6867
sI1
(lp6871
sI2
(lp6872
sI3
(lp6873
ssI2
(dp6874
I0
g6868
sI1
g6872
sI2
(lp6875
sI3
(lp6876
ssI3
(dp6877
I0
g6869
sI1
g6873
sI2
g6876
sI3
(lp6878
ssa(dp6879
I0
(dp6880
I0
(lp6881
sI1
(lp6882
sI2
(lp6883
sI3
(lp6884
ssI1
(dp6885
I0
g6882
sI1
(lp6886
sI2
(lp6887
sI3
(lp6888
ssI2
(dp6889
I0
g6883
sI1
g6887
sI2
(lp6890
sI3
(lp6891
ssI3
(dp6892
I0
g6884
sI1
g6888
sI2
g6891
sI3
(lp6893
ssa(dp6894
I0
(dp6895
I0
(lp6896
sI1
(lp6897
sI2
(lp6898
sI3
(lp6899
ssI1
(dp6900
I0
g6897
sI1
(lp6901
sI2
(lp6902
sI3
(lp6903
ssI2
(dp6904
I0
g6898
sI1
g6902
sI2
(lp6905
sI3
(lp6906
ssI3
(dp6907
I0
g6899
sI1
g6903
sI2
g6906
sI3
(lp6908
ssa(dp6909
I0
(dp6910
I0
(lp6911
sI1
(lp6912
sI2
(lp6913
sI3
(lp6914
ssI1
(dp6915
I0
g6912
sI1
(lp6916
sI2
(lp6917
sI3
(lp6918
ssI2
(dp6919
I0
g6913
sI1
g6917
sI2
(lp6920
sI3
(lp6921
ssI3
(dp6922
I0
g6914
sI1
g6918
sI2
g6921
sI3
(lp6923
ssa(dp6924
I0
(dp6925
I0
(lp6926
sI1
(lp6927
sI2
(lp6928
sI3
(lp6929
ssI1
(dp6930
I0
g6927
sI1
(lp6931
sI2
(lp6932
sI3
(lp6933
ssI2
(dp6934
I0
g6928
sI1
g6932
sI2
(lp6935
sI3
(lp6936
ssI3
(dp6937
I0
g6929
sI1
g6933
sI2
g6936
sI3
(lp6938
ssa(dp6939
I0
(dp6940
I0
(lp6941
sI1
(lp6942
sI2
(lp6943
sI3
(lp6944
ssI1
(dp6945
I0
g6942
sI1
(lp6946
sI2
(lp6947
sI3
(lp6948
ssI2
(dp6949
I0
g6943
sI1
g6947
sI2
(lp6950
sI3
(lp6951
ssI3
(dp6952
I0
g6944
sI1
g6948
sI2
g6951
sI3
(lp6953
ssa(dp6954
I0
(dp6955
I0
(lp6956
sI1
(lp6957
sI2
(lp6958
sI3
(lp6959
ssI1
(dp6960
I0
g6957
sI1
(lp6961
sI2
(lp6962
sI3
(lp6963
ssI2
(dp6964
I0
g6958
sI1
g6962
sI2
(lp6965
sI3
(lp6966
ssI3
(dp6967
I0
g6959
sI1
g6963
sI2
g6966
sI3
(lp6968
ssa(dp6969
I0
(dp6970
I0
(lp6971
sI1
(lp6972
sI2
(lp6973
sI3
(lp6974
ssI1
(dp6975
I0
g6972
sI1
(lp6976
sI2
(lp6977
sI3
(lp6978
ssI2
(dp6979
I0
g6973
sI1
g6977
sI2
(lp6980
sI3
(lp6981
ssI3
(dp6982
I0
g6974
sI1
g6978
sI2
g6981
sI3
(lp6983
ssa(dp6984
I0
(dp6985
I0
(lp6986
sI1
(lp6987
sI2
(lp6988
sI3
(lp6989
ssI1
(dp6990
I0
g6987
sI1
(lp6991
sI2
(lp6992
sI3
(lp6993
ssI2
(dp6994
I0
g6988
sI1
g6992
sI2
(lp6995
sI3
(lp6996
ssI3
(dp6997
I0
g6989
sI1
g6993
sI2
g6996
sI3
(lp6998
ssa(dp6999
I0
(dp7000
I0
(lp7001
sI1
(lp7002
sI2
(lp7003
sI3
(lp7004
ssI1
(dp7005
I0
g7002
sI1
(lp7006
sI2
(lp7007
sI3
(lp7008
ssI2
(dp7009
I0
g7003
sI1
g7007
sI2
(lp7010
sI3
(lp7011
ssI3
(dp7012
I0
g7004
sI1
g7008
sI2
g7011
sI3
(lp7013
ssa(dp7014
I0
(dp7015
I0
(lp7016
sI1
(lp7017
sI2
(lp7018
sI3
(lp7019
ssI1
(dp7020
I0
g7017
sI1
(lp7021
sI2
(lp7022
sI3
(lp7023
ssI2
(dp7024
I0
g7018
sI1
g7022
sI2
(lp7025
sI3
(lp7026
ssI3
(dp7027
I0
g7019
sI1
g7023
sI2
g7026
sI3
(lp7028
ssa(dp7029
I0
(dp7030
I0
(lp7031
sI1
(lp7032
sI2
(lp7033
sI3
(lp7034
ssI1
(dp7035
I0
g7032
sI1
(lp7036
sI2
(lp7037
sI3
(lp7038
ssI2
(dp7039
I0
g7033
sI1
g7037
sI2
(lp7040
sI3
(lp7041
ssI3
(dp7042
I0
g7034
sI1
g7038
sI2
g7041
sI3
(lp7043
ssa(dp7044
I0
(dp7045
I0
(lp7046
sI1
(lp7047
sI2
(lp7048
sI3
(lp7049
ssI1
(dp7050
I0
g7047
sI1
(lp7051
sI2
(lp7052
sI3
(lp7053
ssI2
(dp7054
I0
g7048
sI1
g7052
sI2
(lp7055
sI3
(lp7056
ssI3
(dp7057
I0
g7049
sI1
g7053
sI2
g7056
sI3
(lp7058
ssa(dp7059
I0
(dp7060
I0
(lp7061
sI1
(lp7062
sI2
(lp7063
sI3
(lp7064
ssI1
(dp7065
I0
g7062
sI1
(lp7066
sI2
(lp7067
sI3
(lp7068
ssI2
(dp7069
I0
g7063
sI1
g7067
sI2
(lp7070
sI3
(lp7071
ssI3
(dp7072
I0
g7064
sI1
g7068
sI2
g7071
sI3
(lp7073
ssa(dp7074
I0
(dp7075
I0
(lp7076
sI1
(lp7077
sI2
(lp7078
sI3
(lp7079
ssI1
(dp7080
I0
g7077
sI1
(lp7081
sI2
(lp7082
sI3
(lp7083
ssI2
(dp7084
I0
g7078
sI1
g7082
sI2
(lp7085
sI3
(lp7086
ssI3
(dp7087
I0
g7079
sI1
g7083
sI2
g7086
sI3
(lp7088
ssa(dp7089
I0
(dp7090
I0
(lp7091
sI1
(lp7092
sI2
(lp7093
sI3
(lp7094
ssI1
(dp7095
I0
g7092
sI1
(lp7096
sI2
(lp7097
sI3
(lp7098
ssI2
(dp7099
I0
g7093
sI1
g7097
sI2
(lp7100
sI3
(lp7101
ssI3
(dp7102
I0
g7094
sI1
g7098
sI2
g7101
sI3
(lp7103
ssa(dp7104
I0
(dp7105
I0
(lp7106
sI1
(lp7107
sI2
(lp7108
sI3
(lp7109
ssI1
(dp7110
I0
g7107
sI1
(lp7111
sI2
(lp7112
sI3
(lp7113
ssI2
(dp7114
I0
g7108
sI1
g7112
sI2
(lp7115
sI3
(lp7116
ssI3
(dp7117
I0
g7109
sI1
g7113
sI2
g7116
sI3
(lp7118
ssa(dp7119
I0
(dp7120
I0
(lp7121
sI1
(lp7122
sI2
(lp7123
sI3
(lp7124
ssI1
(dp7125
I0
g7122
sI1
(lp7126
sI2
(lp7127
sI3
(lp7128
ssI2
(dp7129
I0
g7123
sI1
g7127
sI2
(lp7130
sI3
(lp7131
ssI3
(dp7132
I0
g7124
sI1
g7128
sI2
g7131
sI3
(lp7133
ssa(dp7134
I0
(dp7135
I0
(lp7136
sI1
(lp7137
sI2
(lp7138
sI3
(lp7139
ssI1
(dp7140
I0
g7137
sI1
(lp7141
sI2
(lp7142
sI3
(lp7143
ssI2
(dp7144
I0
g7138
sI1
g7142
sI2
(lp7145
sI3
(lp7146
ssI3
(dp7147
I0
g7139
sI1
g7143
sI2
g7146
sI3
(lp7148
ssa(dp7149
I0
(dp7150
I0
(lp7151
sI1
(lp7152
sI2
(lp7153
sI3
(lp7154
ssI1
(dp7155
I0
g7152
sI1
(lp7156
sI2
(lp7157
sI3
(lp7158
ssI2
(dp7159
I0
g7153
sI1
g7157
sI2
(lp7160
sI3
(lp7161
ssI3
(dp7162
I0
g7154
sI1
g7158
sI2
g7161
sI3
(lp7163
ssa(dp7164
I0
(dp7165
I0
(lp7166
sI1
(lp7167
sI2
(lp7168
sI3
(lp7169
ssI1
(dp7170
I0
g7167
sI1
(lp7171
sI2
(lp7172
sI3
(lp7173
ssI2
(dp7174
I0
g7168
sI1
g7172
sI2
(lp7175
sI3
(lp7176
ssI3
(dp7177
I0
g7169
sI1
g7173
sI2
g7176
sI3
(lp7178
ssa(dp7179
I0
(dp7180
I0
(lp7181
sI1
(lp7182
sI2
(lp7183
sI3
(lp7184
ssI1
(dp7185
I0
g7182
sI1
(lp7186
sI2
(lp7187
sI3
(lp7188
ssI2
(dp7189
I0
g7183
sI1
g7187
sI2
(lp7190
sI3
(lp7191
ssI3
(dp7192
I0
g7184
sI1
g7188
sI2
g7191
sI3
(lp7193
ssa(dp7194
I0
(dp7195
I0
(lp7196
sI1
(lp7197
sI2
(lp7198
sI3
(lp7199
ssI1
(dp7200
I0
g7197
sI1
(lp7201
sI2
(lp7202
sI3
(lp7203
ssI2
(dp7204
I0
g7198
sI1
g7202
sI2
(lp7205
sI3
(lp7206
ssI3
(dp7207
I0
g7199
sI1
g7203
sI2
g7206
sI3
(lp7208
ssa(dp7209
I0
(dp7210
I0
(lp7211
sI1
(lp7212
sI2
(lp7213
sI3
(lp7214
ssI1
(dp7215
I0
g7212
sI1
(lp7216
sI2
(lp7217
sI3
(lp7218
ssI2
(dp7219
I0
g7213
sI1
g7217
sI2
(lp7220
sI3
(lp7221
ssI3
(dp7222
I0
g7214
sI1
g7218
sI2
g7221
sI3
(lp7223
ssa(dp7224
I0
(dp7225
I0
(lp7226
sI1
(lp7227
sI2
(lp7228
sI3
(lp7229
ssI1
(dp7230
I0
g7227
sI1
(lp7231
sI2
(lp7232
sI3
(lp7233
ssI2
(dp7234
I0
g7228
sI1
g7232
sI2
(lp7235
sI3
(lp7236
ssI3
(dp7237
I0
g7229
sI1
g7233
sI2
g7236
sI3
(lp7238
ssa(dp7239
I0
(dp7240
I0
(lp7241
sI1
(lp7242
Vhttp://dbpedia.org/ontology/abstract
p7243
aVhttp://www.w3.org/2000/01/rdf-schema#comment
p7244
asI2
(lp7245
sI3
(lp7246
ssI1
(dp7247
I0
g7242
sI1
(lp7248
sI2
(lp7249
sI3
(lp7250
ssI2
(dp7251
I0
g7245
sI1
g7249
sI2
(lp7252
sI3
(lp7253
ssI3
(dp7254
I0
g7246
sI1
g7250
sI2
g7253
sI3
(lp7255
ssa(dp7256
I0
(dp7257
I0
(lp7258
sI1
(lp7259
sI2
(lp7260
sI3
(lp7261
ssI1
(dp7262
I0
g7259
sI1
(lp7263
sI2
(lp7264
sI3
(lp7265
ssI2
(dp7266
I0
g7260
sI1
g7264
sI2
(lp7267
sI3
(lp7268
ssI3
(dp7269
I0
g7261
sI1
g7265
sI2
g7268
sI3
(lp7270
ssa(dp7271
I0
(dp7272
I0
(lp7273
sI1
(lp7274
sI2
(lp7275
sI3
(lp7276
ssI1
(dp7277
I0
g7274
sI1
(lp7278
sI2
(lp7279
sI3
(lp7280
ssI2
(dp7281
I0
g7275
sI1
g7279
sI2
(lp7282
sI3
(lp7283
ssI3
(dp7284
I0
g7276
sI1
g7280
sI2
g7283
sI3
(lp7285
ssa(dp7286
I0
(dp7287
I0
(lp7288
sI1
(lp7289
sI2
(lp7290
sI3
(lp7291
ssI1
(dp7292
I0
g7289
sI1
(lp7293
sI2
(lp7294
sI3
(lp7295
ssI2
(dp7296
I0
g7290
sI1
g7294
sI2
(lp7297
sI3
(lp7298
ssI3
(dp7299
I0
g7291
sI1
g7295
sI2
g7298
sI3
(lp7300
ssa(dp7301
I0
(dp7302
I0
(lp7303
sI1
(lp7304
sI2
(lp7305
sI3
(lp7306
ssI1
(dp7307
I0
g7304
sI1
(lp7308
sI2
(lp7309
sI3
(lp7310
ssI2
(dp7311
I0
g7305
sI1
g7309
sI2
(lp7312
sI3
(lp7313
ssI3
(dp7314
I0
g7306
sI1
g7310
sI2
g7313
sI3
(lp7315
ssa(dp7316
I0
(dp7317
I0
(lp7318
sI1
(lp7319
sI2
(lp7320
sI3
(lp7321
ssI1
(dp7322
I0
g7319
sI1
(lp7323
sI2
(lp7324
sI3
(lp7325
ssI2
(dp7326
I0
g7320
sI1
g7324
sI2
(lp7327
sI3
(lp7328
ssI3
(dp7329
I0
g7321
sI1
g7325
sI2
g7328
sI3
(lp7330
ssa(dp7331
I0
(dp7332
I0
(lp7333
sI1
(lp7334
sI2
(lp7335
sI3
(lp7336
ssI1
(dp7337
I0
g7334
sI1
(lp7338
sI2
(lp7339
sI3
(lp7340
ssI2
(dp7341
I0
g7335
sI1
g7339
sI2
(lp7342
sI3
(lp7343
ssI3
(dp7344
I0
g7336
sI1
g7340
sI2
g7343
sI3
(lp7345
ssa(dp7346
I0
(dp7347
I0
(lp7348
sI1
(lp7349
sI2
(lp7350
sI3
(lp7351
ssI1
(dp7352
I0
g7349
sI1
(lp7353
sI2
(lp7354
sI3
(lp7355
ssI2
(dp7356
I0
g7350
sI1
g7354
sI2
(lp7357
sI3
(lp7358
ssI3
(dp7359
I0
g7351
sI1
g7355
sI2
g7358
sI3
(lp7360
ssa(dp7361
I0
(dp7362
I0
(lp7363
sI1
(lp7364
Vhttp://dbpedia.org/property/mapCaption
p7365
aVhttp://www.w3.org/1999/02/22-rdf-syntax-ns#type
p7366
aVhttp://purl.org/dc/terms/subject
p7367
aVhttp://www.w3.org/2000/01/rdf-schema#comment
p7368
aVhttp://dbpedia.org/ontology/abstract
p7369
aVhttp://dbpedia.org/ontology/isPartOf
p7370
aVhttp://dbpedia.org/property/city
p7371
aVhttp://dbpedia.org/property/imageMap
p7372
aVhttp://dbpedia.org/property/subdivisionName
p7373
aVhttp://www.w3.org/2002/07/owl#sameAs
p7374
asI2
(lp7375
sI3
(lp7376
ssI1
(dp7377
I0
g7364
sI1
(lp7378
sI2
(lp7379
sI3
(lp7380
ssI2
(dp7381
I0
g7375
sI1
g7379
sI2
(lp7382
sI3
(lp7383
ssI3
(dp7384
I0
g7376
sI1
g7380
sI2
g7383
sI3
(lp7385
ssa(dp7386
I0
(dp7387
I0
(lp7388
sI1
(lp7389
Vhttp://dbpedia.org/property/mapCaption
p7390
aVhttp://www.w3.org/1999/02/22-rdf-syntax-ns#type
p7391
aVhttp://purl.org/dc/terms/subject
p7392
aVhttp://www.w3.org/2000/01/rdf-schema#comment
p7393
aVhttp://dbpedia.org/ontology/abstract
p7394
aVhttp://dbpedia.org/ontology/isPartOf
p7395
aVhttp://dbpedia.org/property/city
p7396
aVhttp://dbpedia.org/property/imageMap
p7397
aVhttp://dbpedia.org/property/southwest
p7398
aVhttp://dbpedia.org/property/subdivisionName
p7399
asI2
(lp7400
sI3
(lp7401
ssI1
(dp7402
I0
g7389
sI1
(lp7403
sI2
(lp7404
sI3
(lp7405
ssI2
(dp7406
I0
g7400
sI1
g7404
sI2
(lp7407
sI3
(lp7408
ssI3
(dp7409
I0
g7401
sI1
g7405
sI2
g7408
sI3
(lp7410
ssa(dp7411
I0
(dp7412
I0
(lp7413
sI1
(lp7414
sI2
(lp7415
sI3
(lp7416
ssI1
(dp7417
I0
g7414
sI1
(lp7418
sI2
(lp7419
sI3
(lp7420
ssI2
(dp7421
I0
g7415
sI1
g7419
sI2
(lp7422
sI3
(lp7423
ssI3
(dp7424
I0
g7416
sI1
g7420
sI2
g7423
sI3
(lp7425
ssa(dp7426
I0
(dp7427
I0
(lp7428
sI1
(lp7429
Vhttp://www.w3.org/1999/02/22-rdf-syntax-ns#type
p7430
aVhttp://purl.org/dc/terms/subject
p7431
aVhttp://dbpedia.org/ontology/location
p7432
aVhttp://www.w3.org/2000/01/rdf-schema#comment
p7433
aVhttp://dbpedia.org/ontology/abstract
p7434
aVhttp://dbpedia.org/ontology/wikiPageRedirects
p7435
aVhttp://dbpedia.org/ontology/isPartOf
p7436
aVhttp://dbpedia.org/property/city
p7437
aVhttp://dbpedia.org/property/east
p7438
aVhttp://dbpedia.org/property/subdivisionName
p7439
asI2
(lp7440
sI3
(lp7441
ssI1
(dp7442
I0
g7429
sI1
(lp7443
sI2
(lp7444
sI3
(lp7445
ssI2
(dp7446
I0
g7440
sI1
g7444
sI2
(lp7447
sI3
(lp7448
ssI3
(dp7449
I0
g7441
sI1
g7445
sI2
g7448
sI3
(lp7450
ssa(dp7451
I0
(dp7452
I0
(lp7453
sI1
(lp7454
sI2
(lp7455
sI3
(lp7456
ssI1
(dp7457
I0
g7454
sI1
(lp7458
sI2
(lp7459
sI3
(lp7460
ssI2
(dp7461
I0
g7455
sI1
g7459
sI2
(lp7462
sI3
(lp7463
ssI3
(dp7464
I0
g7456
sI1
g7460
sI2
g7463
sI3
(lp7465
ssa(dp7466
I0
(dp7467
I0
(lp7468
sI1
(lp7469
sI2
(lp7470
sI3
(lp7471
ssI1
(dp7472
I0
g7469
sI1
(lp7473
sI2
(lp7474
sI3
(lp7475
ssI2
(dp7476
I0
g7470
sI1
g7474
sI2
(lp7477
sI3
(lp7478
ssI3
(dp7479
I0
g7471
sI1
g7475
sI2
g7478
sI3
(lp7480
ssa(dp7481
I0
(dp7482
I0
(lp7483
sI1
(lp7484
sI2
(lp7485
sI3
(lp7486
ssI1
(dp7487
I0
g7484
sI1
(lp7488
sI2
(lp7489
sI3
(lp7490
ssI2
(dp7491
I0
g7485
sI1
g7489
sI2
(lp7492
sI3
(lp7493
ssI3
(dp7494
I0
g7486
sI1
g7490
sI2
g7493
sI3
(lp7495
ssa(dp7496
I0
(dp7497
I0
(lp7498
sI1
(lp7499
sI2
(lp7500
sI3
(lp7501
ssI1
(dp7502
I0
g7499
sI1
(lp7503
sI2
(lp7504
sI3
(lp7505
ssI2
(dp7506
I0
g7500
sI1
g7504
sI2
(lp7507
sI3
(lp7508
ssI3
(dp7509
I0
g7501
sI1
g7505
sI2
g7508
sI3
(lp7510
ssa(dp7511
I0
(dp7512
I0
(lp7513
sI1
(lp7514
sI2
(lp7515
sI3
(lp7516
ssI1
(dp7517
I0
g7514
sI1
(lp7518
sI2
(lp7519
sI3
(lp7520
ssI2
(dp7521
I0
g7515
sI1
g7519
sI2
(lp7522
sI3
(lp7523
ssI3
(dp7524
I0
g7516
sI1
g7520
sI2
g7523
sI3
(lp7525
ssa(dp7526
I0
(dp7527
I0
(lp7528
sI1
(lp7529
Vhttp://dbpedia.org/property/southeast
p7530
aVhttp://dbpedia.org/property/east
p7531
asI2
(lp7532
sI3
(lp7533
ssI1
(dp7534
I0
g7529
sI1
(lp7535
sI2
(lp7536
sI3
(lp7537
ssI2
(dp7538
I0
g7532
sI1
g7536
sI2
(lp7539
sI3
(lp7540
ssI3
(dp7541
I0
g7533
sI1
g7537
sI2
g7540
sI3
(lp7542
ssa(dp7543
I0
(dp7544
I0
(lp7545
sI1
(lp7546
sI2
(lp7547
sI3
(lp7548
ssI1
(dp7549
I0
g7546
sI1
(lp7550
sI2
(lp7551
sI3
(lp7552
ssI2
(dp7553
I0
g7547
sI1
g7551
sI2
(lp7554
sI3
(lp7555
ssI3
(dp7556
I0
g7548
sI1
g7552
sI2
g7555
sI3
(lp7557
ssa(dp7558
I0
(dp7559
I0
(lp7560
sI1
(lp7561
sI2
(lp7562
sI3
(lp7563
ssI1
(dp7564
I0
g7561
sI1
(lp7565
sI2
(lp7566
sI3
(lp7567
ssI2
(dp7568
I0
g7562
sI1
g7566
sI2
(lp7569
sI3
(lp7570
ssI3
(dp7571
I0
g7563
sI1
g7567
sI2
g7570
sI3
(lp7572
ssa(dp7573
I0
(dp7574
I0
(lp7575
sI1
(lp7576
sI2
(lp7577
sI3
(lp7578
ssI1
(dp7579
I1
(lp7580
sI2
(lp7581
sI3
(lp7582
ssI2
(dp7583
I0
g7577
sI1
g7581
sI2
(lp7584
sI3
(lp7585
ssI3
(dp7586
I0
g7578
sI1
g7582
sI2
g7585
sI3
(lp7587
ssa(dp7588
I0
(dp7589
I0
(lp7590
sI1
(lp7591
sI2
(lp7592
sI3
(lp7593
ssI1
(dp7594
I0
g7591
sI1
(lp7595
sI2
(lp7596
sI3
(lp7597
ssI2
(dp7598
I0
g7592
sI1
g7596
sI2
(lp7599
sI3
(lp7600
ssI3
(dp7601
I0
g7593
sI1
g7597
sI2
g7600
sI3
(lp7602
ssa(dp7603
I0
(dp7604
I0
(lp7605
sI1
(lp7606
sI2
(lp7607
sI3
(lp7608
ssI1
(dp7609
I0
g7606
sI1
(lp7610
sI2
(lp7611
sI3
(lp7612
ssI2
(dp7613
I0
g7607
sI1
g7611
sI2
(lp7614
sI3
(lp7615
ssI3
(dp7616
I0
g7608
sI1
g7612
sI2
g7615
sI3
(lp7617
ssa(dp7618
I0
(dp7619
I0
(lp7620
sI1
(lp7621
Vhttp://dbpedia.org/ontology/wikiPageExternalLink
p7622
aVhttp://dbpedia.org/property/website
p7623
aVhttp://dbpedia.org/property/mapCaption
p7624
aVhttp://dbpedia.org/property/imageMap
p7625
aVhttp://purl.org/dc/terms/subject
p7626
aVhttp://www.w3.org/2000/01/rdf-schema#comment
p7627
aVhttp://dbpedia.org/ontology/abstract
p7628
aVhttp://xmlns.com/foaf/0.1/depiction
p7629
aVhttp://dbpedia.org/ontology/wikiPageRedirects
p7630
aVhttp://dbpedia.org/ontology/isPartOf
p7631
aVhttp://dbpedia.org/ontology/thumbnail
p7632
aVhttp://xmlns.com/foaf/0.1/homepage
p7633
aVhttp://dbpedia.org/property/subdivisionName
p7634
asI2
(lp7635
sI3
(lp7636
ssI1
(dp7637
I0
g7621
sI1
(lp7638
sI2
(lp7639
sI3
(lp7640
ssI2
(dp7641
I0
g7635
sI1
g7639
sI2
(lp7642
sI3
(lp7643
ssI3
(dp7644
I0
g7636
sI1
g7640
sI2
g7643
sI3
(lp7645
ssa(dp7646
I0
(dp7647
I0
(lp7648
sI1
(lp7649
sI2
(lp7650
sI3
(lp7651
ssI1
(dp7652
I0
g7649
sI1
(lp7653
sI2
(lp7654
sI3
(lp7655
ssI2
(dp7656
I0
g7650
sI1
g7654
sI2
(lp7657
sI3
(lp7658
ssI3
(dp7659
I0
g7651
sI1
g7655
sI2
g7658
sI3
(lp7660
ssa(dp7661
I0
(dp7662
I0
(lp7663
sI1
(lp7664
sI2
(lp7665
sI3
(lp7666
ssI1
(dp7667
I1
(lp7668
sI2
(lp7669
sI3
(lp7670
ssI2
(dp7671
I0
g7665
sI1
g7669
sI2
(lp7672
sI3
(lp7673
ssI3
(dp7674
I0
g7666
sI1
g7670
sI2
g7673
sI3
(lp7675
ssa(dp7676
I0
(dp7677
I0
(lp7678
sI1
(lp7679
sI2
(lp7680
sI3
(lp7681
ssI1
(dp7682
I0
g7679
sI1
(lp7683
sI2
(lp7684
sI3
(lp7685
ssI2
(dp7686
I0
g7680
sI1
g7684
sI2
(lp7687
sI3
(lp7688
ssI3
(dp7689
I0
g7681
sI1
g7685
sI2
g7688
sI3
(lp7690
ssa(dp7691
I0
(dp7692
I0
(lp7693
sI1
(lp7694
sI2
(lp7695
sI3
(lp7696
ssI1
(dp7697
I0
g7694
sI1
(lp7698
sI2
(lp7699
sI3
(lp7700
ssI2
(dp7701
I0
g7695
sI1
g7699
sI2
(lp7702
sI3
(lp7703
ssI3
(dp7704
I0
g7696
sI1
g7700
sI2
g7703
sI3
(lp7705
ssa(dp7706
I0
(dp7707
I0
(lp7708
sI1
(lp7709
sI2
(lp7710
sI3
(lp7711
ssI1
(dp7712
I0
g7709
sI1
(lp7713
sI2
(lp7714
sI3
(lp7715
ssI2
(dp7716
I0
g7710
sI1
g7714
sI2
(lp7717
sI3
(lp7718
ssI3
(dp7719
I0
g7711
sI1
g7715
sI2
g7718
sI3
(lp7720
ssa(dp7721
I0
(dp7722
I0
(lp7723
sI1
(lp7724
sI2
(lp7725
sI3
(lp7726
ssI1
(dp7727
I0
g7724
sI1
(lp7728
sI2
(lp7729
sI3
(lp7730
ssI2
(dp7731
I0
g7725
sI1
g7729
sI2
(lp7732
sI3
(lp7733
ssI3
(dp7734
I0
g7726
sI1
g7730
sI2
g7733
sI3
(lp7735
ssa(dp7736
I0
(dp7737
I0
(lp7738
sI1
(lp7739
sI2
(lp7740
sI3
(lp7741
ssI1
(dp7742
I0
g7739
sI1
(lp7743
sI2
(lp7744
sI3
(lp7745
ssI2
(dp7746
I0
g7740
sI1
g7744
sI2
(lp7747
sI3
(lp7748
ssI3
(dp7749
I0
g7741
sI1
g7745
sI2
g7748
sI3
(lp7750
ssa(dp7751
I0
(dp7752
I0
(lp7753
sI1
(lp7754
sI2
(lp7755
sI3
(lp7756
ssI1
(dp7757
I0
g7754
sI1
(lp7758
sI2
(lp7759
sI3
(lp7760
ssI2
(dp7761
I0
g7755
sI1
g7759
sI2
(lp7762
sI3
(lp7763
ssI3
(dp7764
I0
g7756
sI1
g7760
sI2
g7763
sI3
(lp7765
ssa(dp7766
I0
(dp7767
I0
(lp7768
sI1
(lp7769
sI2
(lp7770
sI3
(lp7771
ssI1
(dp7772
I0
g7769
sI1
(lp7773
sI2
(lp7774
sI3
(lp7775
ssI2
(dp7776
I0
g7770
sI1
g7774
sI2
(lp7777
sI3
(lp7778
ssI3
(dp7779
I0
g7771
sI1
g7775
sI2
g7778
sI3
(lp7780
ssa(dp7781
I0
(dp7782
I0
(lp7783
sI1
(lp7784
sI2
(lp7785
sI3
(lp7786
ssI1
(dp7787
I0
g7784
sI1
(lp7788
sI2
(lp7789
sI3
(lp7790
ssI2
(dp7791
I0
g7785
sI1
g7789
sI2
(lp7792
sI3
(lp7793
ssI3
(dp7794
I0
g7786
sI1
g7790
sI2
g7793
sI3
(lp7795
ssa(dp7796
I0
(dp7797
I0
(lp7798
sI1
(lp7799
sI2
(lp7800
sI3
(lp7801
ssI1
(dp7802
I0
g7799
sI1
(lp7803
sI2
(lp7804
sI3
(lp7805
ssI2
(dp7806
I0
g7800
sI1
g7804
sI2
(lp7807
sI3
(lp7808
ssI3
(dp7809
I0
g7801
sI1
g7805
sI2
g7808
sI3
(lp7810
ssa(dp7811
I0
(dp7812
I0
(lp7813
sI1
(lp7814
sI2
(lp7815
sI3
(lp7816
ssI1
(dp7817
I0
g7814
sI1
(lp7818
sI2
(lp7819
sI3
(lp7820
ssI2
(dp7821
I0
g7815
sI1
g7819
sI2
(lp7822
sI3
(lp7823
ssI3
(dp7824
I0
g7816
sI1
g7820
sI2
g7823
sI3
(lp7825
ssa(dp7826
I0
(dp7827
I0
(lp7828
sI1
(lp7829
sI2
(lp7830
sI3
(lp7831
ssI1
(dp7832
I0
g7829
sI1
(lp7833
sI2
(lp7834
sI3
(lp7835
ssI2
(dp7836
I0
g7830
sI1
g7834
sI2
(lp7837
sI3
(lp7838
ssI3
(dp7839
I0
g7831
sI1
g7835
sI2
g7838
sI3
(lp7840
ssa(dp7841
I0
(dp7842
I0
(lp7843
sI1
(lp7844
sI2
(lp7845
sI3
(lp7846
ssI1
(dp7847
I0
g7844
sI1
(lp7848
sI2
(lp7849
sI3
(lp7850
ssI2
(dp7851
I0
g7845
sI1
g7849
sI2
(lp7852
sI3
(lp7853
ssI3
(dp7854
I0
g7846
sI1
g7850
sI2
g7853
sI3
(lp7855
ssa(dp7856
I0
(dp7857
I0
(lp7858
sI1
(lp7859
sI2
(lp7860
sI3
(lp7861
ssI1
(dp7862
I0
g7859
sI1
(lp7863
sI2
(lp7864
sI3
(lp7865
ssI2
(dp7866
I0
g7860
sI1
g7864
sI2
(lp7867
sI3
(lp7868
ssI3
(dp7869
I0
g7861
sI1
g7865
sI2
g7868
sI3
(lp7870
ssa(dp7871
I0
(dp7872
I0
(lp7873
sI1
(lp7874
sI2
(lp7875
sI3
(lp7876
ssI1
(dp7877
I0
g7874
sI1
(lp7878
sI2
(lp7879
sI3
(lp7880
ssI2
(dp7881
I0
g7875
sI1
g7879
sI2
(lp7882
sI3
(lp7883
ssI3
(dp7884
I0
g7876
sI1
g7880
sI2
g7883
sI3
(lp7885
ssa(dp7886
I0
(dp7887
I0
(lp7888
sI1
(lp7889
sI2
(lp7890
sI3
(lp7891
ssI1
(dp7892
I0
g7889
sI1
(lp7893
sI2
(lp7894
sI3
(lp7895
ssI2
(dp7896
I0
g7890
sI1
g7894
sI2
(lp7897
sI3
(lp7898
ssI3
(dp7899
I0
g7891
sI1
g7895
sI2
g7898
sI3
(lp7900
ssa(dp7901
I0
(dp7902
I0
(lp7903
sI1
(lp7904
sI2
(lp7905
sI3
(lp7906
ssI1
(dp7907
I0
g7904
sI1
(lp7908
sI2
(lp7909
sI3
(lp7910
ssI2
(dp7911
I0
g7905
sI1
g7909
sI2
(lp7912
sI3
(lp7913
ssI3
(dp7914
I0
g7906
sI1
g7910
sI2
g7913
sI3
(lp7915
ssa(dp7916
I0
(dp7917
I0
(lp7918
sI1
(lp7919
sI2
(lp7920
sI3
(lp7921
ssI1
(dp7922
I0
g7919
sI1
(lp7923
sI2
(lp7924
sI3
(lp7925
ssI2
(dp7926
I0
g7920
sI1
g7924
sI2
(lp7927
sI3
(lp7928
ssI3
(dp7929
I0
g7921
sI1
g7925
sI2
g7928
sI3
(lp7930
ssa(dp7931
I0
(dp7932
I0
(lp7933
sI1
(lp7934
sI2
(lp7935
sI3
(lp7936
ssI1
(dp7937
I0
g7934
sI1
(lp7938
sI2
(lp7939
sI3
(lp7940
ssI2
(dp7941
I0
g7935
sI1
g7939
sI2
(lp7942
sI3
(lp7943
ssI3
(dp7944
I0
g7936
sI1
g7940
sI2
g7943
sI3
(lp7945
ssa(dp7946
I0
(dp7947
I0
(lp7948
sI1
(lp7949
Vhttp://dbpedia.org/ontology/wikiPageExternalLink
p7950
aVhttp://www.w3.org/1999/02/22-rdf-syntax-ns#type
p7951
aVhttp://purl.org/dc/terms/subject
p7952
aVhttp://www.w3.org/2000/01/rdf-schema#comment
p7953
aVhttp://dbpedia.org/ontology/abstract
p7954
aVhttp://dbpedia.org/ontology/isPartOf
p7955
aVhttp://dbpedia.org/property/city
p7956
aVhttp://dbpedia.org/property/subdivisionName
p7957
asI2
(lp7958
sI3
(lp7959
ssI1
(dp7960
I0
g7949
sI1
(lp7961
sI2
(lp7962
sI3
(lp7963
ssI2
(dp7964
I0
g7958
sI1
g7962
sI2
(lp7965
sI3
(lp7966
ssI3
(dp7967
I0
g7959
sI1
g7963
sI2
g7966
sI3
(lp7968
ssa(dp7969
I0
(dp7970
I0
(lp7971
sI1
(lp7972
sI2
(lp7973
sI3
(lp7974
ssI1
(dp7975
I0
g7972
sI1
(lp7976
sI2
(lp7977
sI3
(lp7978
ssI2
(dp7979
I0
g7973
sI1
g7977
sI2
(lp7980
sI3
(lp7981
ssI3
(dp7982
I0
g7974
sI1
g7978
sI2
g7981
sI3
(lp7983
ssa(dp7984
I0
(dp7985
I0
(lp7986
sI1
(lp7987
sI2
(lp7988
sI3
(lp7989
ssI1
(dp7990
I0
g7987
sI1
(lp7991
sI2
(lp7992
sI3
(lp7993
ssI2
(dp7994
I0
g7988
sI1
g7992
sI2
(lp7995
sI3
(lp7996
ssI3
(dp7997
I0
g7989
sI1
g7993
sI2
g7996
sI3
(lp7998
ssa(dp7999
I0
(dp8000
I0
(lp8001
sI1
(lp8002
sI2
(lp8003
sI3
(lp8004
ssI1
(dp8005
I0
g8002
sI1
(lp8006
sI2
(lp8007
sI3
(lp8008
ssI2
(dp8009
I0
g8003
sI1
g8007
sI2
(lp8010
sI3
(lp8011
ssI3
(dp8012
I0
g8004
sI1
g8008
sI2
g8011
sI3
(lp8013
ssa(dp8014
I0
(dp8015
I0
(lp8016
sI1
(lp8017
sI2
(lp8018
sI3
(lp8019
ssI1
(dp8020
I0
g8017
sI1
(lp8021
sI2
(lp8022
sI3
(lp8023
ssI2
(dp8024
I0
g8018
sI1
g8022
sI2
(lp8025
sI3
(lp8026
ssI3
(dp8027
I0
g8019
sI1
g8023
sI2
g8026
sI3
(lp8028
ssa(dp8029
I0
(dp8030
I0
(lp8031
sI1
(lp8032
Vhttp://dbpedia.org/ontology/abstract
p8033
aVhttp://dbpedia.org/property/other
p8034
aVhttp://purl.org/dc/terms/subject
p8035
aVhttp://dbpedia.org/ontology/otherServingLines
p8036
aVhttp://www.w3.org/2000/01/rdf-schema#comment
p8037
asI2
(lp8038
sI3
(lp8039
ssI1
(dp8040
I0
g8032
sI1
(lp8041
sI2
(lp8042
sI3
(lp8043
ssI2
(dp8044
I0
g8038
sI1
g8042
sI2
(lp8045
sI3
(lp8046
ssI3
(dp8047
I0
g8039
sI1
g8043
sI2
g8046
sI3
(lp8048
ssa(dp8049
I0
(dp8050
I0
(lp8051
sI1
(lp8052
sI2
(lp8053
sI3
(lp8054
ssI1
(dp8055
I0
g8052
sI1
(lp8056
sI2
(lp8057
sI3
(lp8058
ssI2
(dp8059
I0
g8053
sI1
g8057
sI2
(lp8060
sI3
(lp8061
ssI3
(dp8062
I0
g8054
sI1
g8058
sI2
g8061
sI3
(lp8063
ssa(dp8064
I0
(dp8065
I0
(lp8066
sI1
(lp8067
sI2
(lp8068
sI3
(lp8069
ssI1
(dp8070
I0
g8067
sI1
(lp8071
sI2
(lp8072
sI3
(lp8073
ssI2
(dp8074
I0
g8068
sI1
g8072
sI2
(lp8075
sI3
(lp8076
ssI3
(dp8077
I0
g8069
sI1
g8073
sI2
g8076
sI3
(lp8078
ssa(dp8079
I0
(dp8080
I0
(lp8081
sI1
(lp8082
sI2
(lp8083
sI3
(lp8084
ssI1
(dp8085
I0
g8082
sI1
(lp8086
sI2
(lp8087
sI3
(lp8088
ssI2
(dp8089
I0
g8083
sI1
g8087
sI2
(lp8090
sI3
(lp8091
ssI3
(dp8092
I0
g8084
sI1
g8088
sI2
g8091
sI3
(lp8093
ssa(dp8094
I0
(dp8095
I0
(lp8096
sI1
(lp8097
sI2
(lp8098
sI3
(lp8099
ssI1
(dp8100
I0
g8097
sI1
(lp8101
sI2
(lp8102
sI3
(lp8103
ssI2
(dp8104
I0
g8098
sI1
g8102
sI2
(lp8105
sI3
(lp8106
ssI3
(dp8107
I0
g8099
sI1
g8103
sI2
g8106
sI3
(lp8108
ssa(dp8109
I0
(dp8110
I0
(lp8111
sI1
(lp8112
sI2
(lp8113
sI3
(lp8114
ssI1
(dp8115
I0
g8112
sI1
(lp8116
sI2
(lp8117
sI3
(lp8118
ssI2
(dp8119
I0
g8113
sI1
g8117
sI2
(lp8120
sI3
(lp8121
ssI3
(dp8122
I0
g8114
sI1
g8118
sI2
g8121
sI3
(lp8123
ssa(dp8124
I0
(dp8125
I0
(lp8126
sI1
(lp8127
sI2
(lp8128
sI3
(lp8129
ssI1
(dp8130
I0
g8127
sI1
(lp8131
sI2
(lp8132
sI3
(lp8133
ssI2
(dp8134
I0
g8128
sI1
g8132
sI2
(lp8135
sI3
(lp8136
ssI3
(dp8137
I0
g8129
sI1
g8133
sI2
g8136
sI3
(lp8138
ssa(dp8139
I0
(dp8140
I0
(lp8141
sI1
(lp8142
sI2
(lp8143
sI3
(lp8144
ssI1
(dp8145
I0
g8142
sI1
(lp8146
sI2
(lp8147
sI3
(lp8148
ssI2
(dp8149
I0
g8143
sI1
g8147
sI2
(lp8150
sI3
(lp8151
ssI3
(dp8152
I0
g8144
sI1
g8148
sI2
g8151
sI3
(lp8153
ssa(dp8154
I0
(dp8155
I0
(lp8156
sI1
(lp8157
sI2
(lp8158
sI3
(lp8159
ssI1
(dp8160
I0
g8157
sI1
(lp8161
sI2
(lp8162
sI3
(lp8163
ssI2
(dp8164
I0
g8158
sI1
g8162
sI2
(lp8165
sI3
(lp8166
ssI3
(dp8167
I0
g8159
sI1
g8163
sI2
g8166
sI3
(lp8168
ssa(dp8169
I0
(dp8170
I0
(lp8171
sI1
(lp8172
sI2
(lp8173
sI3
(lp8174
ssI1
(dp8175
I0
g8172
sI1
(lp8176
sI2
(lp8177
sI3
(lp8178
ssI2
(dp8179
I0
g8173
sI1
g8177
sI2
(lp8180
sI3
(lp8181
ssI3
(dp8182
I0
g8174
sI1
g8178
sI2
g8181
sI3
(lp8183
ssa(dp8184
I0
(dp8185
I0
(lp8186
sI1
(lp8187
sI2
(lp8188
sI3
(lp8189
ssI1
(dp8190
I0
g8187
sI1
(lp8191
sI2
(lp8192
sI3
(lp8193
ssI2
(dp8194
I0
g8188
sI1
g8192
sI2
(lp8195
sI3
(lp8196
ssI3
(dp8197
I0
g8189
sI1
g8193
sI2
g8196
sI3
(lp8198
ssa(dp8199
I0
(dp8200
I0
(lp8201
sI1
(lp8202
sI2
(lp8203
sI3
(lp8204
ssI1
(dp8205
I0
g8202
sI1
(lp8206
sI2
(lp8207
sI3
(lp8208
ssI2
(dp8209
I0
g8203
sI1
g8207
sI2
(lp8210
sI3
(lp8211
ssI3
(dp8212
I0
g8204
sI1
g8208
sI2
g8211
sI3
(lp8213
ssa(dp8214
I0
(dp8215
I0
(lp8216
sI1
(lp8217
sI2
(lp8218
sI3
(lp8219
ssI1
(dp8220
I0
g8217
sI1
(lp8221
sI2
(lp8222
sI3
(lp8223
ssI2
(dp8224
I0
g8218
sI1
g8222
sI2
(lp8225
sI3
(lp8226
ssI3
(dp8227
I0
g8219
sI1
g8223
sI2
g8226
sI3
(lp8228
ssa(dp8229
I0
(dp8230
I0
(lp8231
sI1
(lp8232
sI2
(lp8233
sI3
(lp8234
ssI1
(dp8235
I0
g8232
sI1
(lp8236
sI2
(lp8237
sI3
(lp8238
ssI2
(dp8239
I0
g8233
sI1
g8237
sI2
(lp8240
sI3
(lp8241
ssI3
(dp8242
I0
g8234
sI1
g8238
sI2
g8241
sI3
(lp8243
ssa(dp8244
I0
(dp8245
I0
(lp8246
sI1
(lp8247
sI2
(lp8248
sI3
(lp8249
ssI1
(dp8250
I0
g8247
sI1
(lp8251
sI2
(lp8252
sI3
(lp8253
ssI2
(dp8254
I0
g8248
sI1
g8252
sI2
(lp8255
sI3
(lp8256
ssI3
(dp8257
I0
g8249
sI1
g8253
sI2
g8256
sI3
(lp8258
ssa(dp8259
I0
(dp8260
I0
(lp8261
sI1
(lp8262
sI2
(lp8263
sI3
(lp8264
ssI1
(dp8265
I0
g8262
sI1
(lp8266
sI2
(lp8267
sI3
(lp8268
ssI2
(dp8269
I0
g8263
sI1
g8267
sI2
(lp8270
sI3
(lp8271
ssI3
(dp8272
I0
g8264
sI1
g8268
sI2
g8271
sI3
(lp8273
ssa(dp8274
I0
(dp8275
I0
(lp8276
sI1
(lp8277
sI2
(lp8278
sI3
(lp8279
ssI1
(dp8280
I0
g8277
sI1
(lp8281
sI2
(lp8282
sI3
(lp8283
ssI2
(dp8284
I0
g8278
sI1
g8282
sI2
(lp8285
sI3
(lp8286
ssI3
(dp8287
I0
g8279
sI1
g8283
sI2
g8286
sI3
(lp8288
ssa(dp8289
I0
(dp8290
I0
(lp8291
sI1
(lp8292
sI2
(lp8293
sI3
(lp8294
ssI1
(dp8295
I0
g8292
sI1
(lp8296
sI2
(lp8297
sI3
(lp8298
ssI2
(dp8299
I0
g8293
sI1
g8297
sI2
(lp8300
sI3
(lp8301
ssI3
(dp8302
I0
g8294
sI1
g8298
sI2
g8301
sI3
(lp8303
ssa(dp8304
I0
(dp8305
I0
(lp8306
sI1
(lp8307
Vhttp://dbpedia.org/ontology/abstract
p8308
aVhttp://purl.org/dc/terms/subject
p8309
aVhttp://www.w3.org/2000/01/rdf-schema#comment
p8310
asI2
(lp8311
sI3
(lp8312
ssI1
(dp8313
I0
g8307
sI1
(lp8314
sI2
(lp8315
sI3
(lp8316
ssI2
(dp8317
I0
g8311
sI1
g8315
sI2
(lp8318
sI3
(lp8319
ssI3
(dp8320
I0
g8312
sI1
g8316
sI2
g8319
sI3
(lp8321
ssa(dp8322
I0
(dp8323
I0
(lp8324
sI1
(lp8325
sI2
(lp8326
sI3
(lp8327
ssI1
(dp8328
I0
g8325
sI1
(lp8329
sI2
(lp8330
sI3
(lp8331
ssI2
(dp8332
I0
g8326
sI1
g8330
sI2
(lp8333
sI3
(lp8334
ssI3
(dp8335
I0
g8327
sI1
g8331
sI2
g8334
sI3
(lp8336
ssa(dp8337
I0
(dp8338
I0
(lp8339
sI1
(lp8340
sI2
(lp8341
sI3
(lp8342
ssI1
(dp8343
I0
g8340
sI1
(lp8344
sI2
(lp8345
sI3
(lp8346
ssI2
(dp8347
I0
g8341
sI1
g8345
sI2
(lp8348
sI3
(lp8349
ssI3
(dp8350
I0
g8342
sI1
g8346
sI2
g8349
sI3
(lp8351
ssa(dp8352
I0
(dp8353
I0
(lp8354
sI1
(lp8355
sI2
(lp8356
sI3
(lp8357
ssI1
(dp8358
I0
g8355
sI1
(lp8359
sI2
(lp8360
sI3
(lp8361
ssI2
(dp8362
I0
g8356
sI1
g8360
sI2
(lp8363
sI3
(lp8364
ssI3
(dp8365
I0
g8357
sI1
g8361
sI2
g8364
sI3
(lp8366
ssa(dp8367
I0
(dp8368
I0
(lp8369
sI1
(lp8370
sI2
(lp8371
sI3
(lp8372
ssI1
(dp8373
I0
g8370
sI1
(lp8374
sI2
(lp8375
sI3
(lp8376
ssI2
(dp8377
I0
g8371
sI1
g8375
sI2
(lp8378
sI3
(lp8379
ssI3
(dp8380
I0
g8372
sI1
g8376
sI2
g8379
sI3
(lp8381
ssa(dp8382
I0
(dp8383
I0
(lp8384
sI1
(lp8385
sI2
(lp8386
sI3
(lp8387
ssI1
(dp8388
I0
g8385
sI1
(lp8389
sI2
(lp8390
sI3
(lp8391
ssI2
(dp8392
I0
g8386
sI1
g8390
sI2
(lp8393
sI3
(lp8394
ssI3
(dp8395
I0
g8387
sI1
g8391
sI2
g8394
sI3
(lp8396
ssa(dp8397
I0
(dp8398
I0
(lp8399
sI1
(lp8400
sI2
(lp8401
sI3
(lp8402
ssI1
(dp8403
I0
g8400
sI1
(lp8404
sI2
(lp8405
sI3
(lp8406
ssI2
(dp8407
I0
g8401
sI1
g8405
sI2
(lp8408
sI3
(lp8409
ssI3
(dp8410
I0
g8402
sI1
g8406
sI2
g8409
sI3
(lp8411
ssa(dp8412
I0
(dp8413
I0
(lp8414
sI1
(lp8415
sI2
(lp8416
sI3
(lp8417
ssI1
(dp8418
I0
g8415
sI1
(lp8419
sI2
(lp8420
sI3
(lp8421
ssI2
(dp8422
I0
g8416
sI1
g8420
sI2
(lp8423
sI3
(lp8424
ssI3
(dp8425
I0
g8417
sI1
g8421
sI2
g8424
sI3
(lp8426
ssa(dp8427
I0
(dp8428
I0
(lp8429
sI1
(lp8430
sI2
(lp8431
sI3
(lp8432
ssI1
(dp8433
I0
g8430
sI1
(lp8434
sI2
(lp8435
sI3
(lp8436
ssI2
(dp8437
I0
g8431
sI1
g8435
sI2
(lp8438
sI3
(lp8439
ssI3
(dp8440
I0
g8432
sI1
g8436
sI2
g8439
sI3
(lp8441
ssa(dp8442
I0
(dp8443
I0
(lp8444
sI1
(lp8445
sI2
(lp8446
sI3
(lp8447
ssI1
(dp8448
I0
g8445
sI1
(lp8449
sI2
(lp8450
sI3
(lp8451
ssI2
(dp8452
I0
g8446
sI1
g8450
sI2
(lp8453
sI3
(lp8454
ssI3
(dp8455
I0
g8447
sI1
g8451
sI2
g8454
sI3
(lp8456
ssa(dp8457
I0
(dp8458
I0
(lp8459
sI1
(lp8460
sI2
(lp8461
sI3
(lp8462
ssI1
(dp8463
I0
g8460
sI1
(lp8464
sI2
(lp8465
sI3
(lp8466
ssI2
(dp8467
I0
g8461
sI1
g8465
sI2
(lp8468
sI3
(lp8469
ssI3
(dp8470
I0
g8462
sI1
g8466
sI2
g8469
sI3
(lp8471
ssa(dp8472
I0
(dp8473
I0
(lp8474
sI1
(lp8475
Vhttp://www.w3.org/1999/02/22-rdf-syntax-ns#type
p8476
aVhttp://purl.org/dc/terms/subject
p8477
asI2
(lp8478
sI3
(lp8479
ssI1
(dp8480
I0
g8475
sI1
(lp8481
sI2
(lp8482
sI3
(lp8483
ssI2
(dp8484
I0
g8478
sI1
g8482
sI2
(lp8485
sI3
(lp8486
ssI3
(dp8487
I0
g8479
sI1
g8483
sI2
g8486
sI3
(lp8488
ssa(dp8489
I0
(dp8490
I0
(lp8491
sI1
(lp8492
sI2
(lp8493
sI3
(lp8494
ssI1
(dp8495
I0
g8492
sI1
(lp8496
sI2
(lp8497
sI3
(lp8498
ssI2
(dp8499
I0
g8493
sI1
g8497
sI2
(lp8500
sI3
(lp8501
ssI3
(dp8502
I0
g8494
sI1
g8498
sI2
g8501
sI3
(lp8503
ssa(dp8504
I0
(dp8505
I0
(lp8506
sI1
(lp8507
sI2
(lp8508
sI3
(lp8509
ssI1
(dp8510
I0
g8507
sI1
(lp8511
sI2
(lp8512
sI3
(lp8513
ssI2
(dp8514
I0
g8508
sI1
g8512
sI2
(lp8515
sI3
(lp8516
ssI3
(dp8517
I0
g8509
sI1
g8513
sI2
g8516
sI3
(lp8518
ssa(dp8519
I0
(dp8520
I0
(lp8521
sI1
(lp8522
sI2
(lp8523
sI3
(lp8524
ssI1
(dp8525
I0
g8522
sI1
(lp8526
sI2
(lp8527
sI3
(lp8528
ssI2
(dp8529
I0
g8523
sI1
g8527
sI2
(lp8530
sI3
(lp8531
ssI3
(dp8532
I0
g8524
sI1
g8528
sI2
g8531
sI3
(lp8533
ssa(dp8534
I0
(dp8535
I0
(lp8536
sI1
(lp8537
sI2
(lp8538
sI3
(lp8539
ssI1
(dp8540
I0
g8537
sI1
(lp8541
sI2
(lp8542
sI3
(lp8543
ssI2
(dp8544
I0
g8538
sI1
g8542
sI2
(lp8545
sI3
(lp8546
ssI3
(dp8547
I0
g8539
sI1
g8543
sI2
g8546
sI3
(lp8548
ssa(dp8549
I0
(dp8550
I0
(lp8551
sI1
(lp8552
sI2
(lp8553
sI3
(lp8554
ssI1
(dp8555
I0
g8552
sI1
(lp8556
sI2
(lp8557
sI3
(lp8558
ssI2
(dp8559
I0
g8553
sI1
g8557
sI2
(lp8560
sI3
(lp8561
ssI3
(dp8562
I0
g8554
sI1
g8558
sI2
g8561
sI3
(lp8563
ssa(dp8564
I0
(dp8565
I0
(lp8566
sI1
(lp8567
sI2
(lp8568
sI3
(lp8569
ssI1
(dp8570
I0
g8567
sI1
(lp8571
sI2
(lp8572
sI3
(lp8573
ssI2
(dp8574
I0
g8568
sI1
g8572
sI2
(lp8575
sI3
(lp8576
ssI3
(dp8577
I0
g8569
sI1
g8573
sI2
g8576
sI3
(lp8578
ssa(dp8579
I0
(dp8580
I0
(lp8581
sI1
(lp8582
sI2
(lp8583
sI3
(lp8584
ssI1
(dp8585
I0
g8582
sI1
(lp8586
sI2
(lp8587
sI3
(lp8588
ssI2
(dp8589
I0
g8583
sI1
g8587
sI2
(lp8590
sI3
(lp8591
ssI3
(dp8592
I0
g8584
sI1
g8588
sI2
g8591
sI3
(lp8593
ssa(dp8594
I0
(dp8595
I0
(lp8596
sI1
(lp8597
sI2
(lp8598
sI3
(lp8599
ssI1
(dp8600
I0
g8597
sI1
(lp8601
sI2
(lp8602
sI3
(lp8603
ssI2
(dp8604
I0
g8598
sI1
g8602
sI2
(lp8605
sI3
(lp8606
ssI3
(dp8607
I0
g8599
sI1
g8603
sI2
g8606
sI3
(lp8608
ssa(dp8609
I0
(dp8610
I0
(lp8611
sI1
(lp8612
sI2
(lp8613
sI3
(lp8614
ssI1
(dp8615
I0
g8612
sI1
(lp8616
sI2
(lp8617
sI3
(lp8618
ssI2
(dp8619
I0
g8613
sI1
g8617
sI2
(lp8620
sI3
(lp8621
ssI3
(dp8622
I0
g8614
sI1
g8618
sI2
g8621
sI3
(lp8623
ssa(dp8624
I0
(dp8625
I0
(lp8626
sI1
(lp8627
sI2
(lp8628
sI3
(lp8629
ssI1
(dp8630
I0
g8627
sI1
(lp8631
sI2
(lp8632
sI3
(lp8633
ssI2
(dp8634
I0
g8628
sI1
g8632
sI2
(lp8635
sI3
(lp8636
ssI3
(dp8637
I0
g8629
sI1
g8633
sI2
g8636
sI3
(lp8638
ssa(dp8639
I0
(dp8640
I0
(lp8641
sI1
(lp8642
sI2
(lp8643
sI3
(lp8644
ssI1
(dp8645
I0
g8642
sI1
(lp8646
sI2
(lp8647
sI3
(lp8648
ssI2
(dp8649
I0
g8643
sI1
g8647
sI2
(lp8650
sI3
(lp8651
ssI3
(dp8652
I0
g8644
sI1
g8648
sI2
g8651
sI3
(lp8653
ssa(dp8654
I0
(dp8655
I0
(lp8656
sI1
(lp8657
sI2
(lp8658
sI3
(lp8659
ssI1
(dp8660
I0
g8657
sI1
(lp8661
sI2
(lp8662
sI3
(lp8663
ssI2
(dp8664
I0
g8658
sI1
g8662
sI2
(lp8665
sI3
(lp8666
ssI3
(dp8667
I0
g8659
sI1
g8663
sI2
g8666
sI3
(lp8668
ssa(dp8669
I0
(dp8670
I0
(lp8671
sI1
(lp8672
sI2
(lp8673
sI3
(lp8674
ssI1
(dp8675
I0
g8672
sI1
(lp8676
sI2
(lp8677
sI3
(lp8678
ssI2
(dp8679
I0
g8673
sI1
g8677
sI2
(lp8680
sI3
(lp8681
ssI3
(dp8682
I0
g8674
sI1
g8678
sI2
g8681
sI3
(lp8683
ssa(dp8684
I0
(dp8685
I0
(lp8686
sI1
(lp8687
sI2
(lp8688
sI3
(lp8689
ssI1
(dp8690
I0
g8687
sI1
(lp8691
sI2
(lp8692
sI3
(lp8693
ssI2
(dp8694
I0
g8688
sI1
g8692
sI2
(lp8695
sI3
(lp8696
ssI3
(dp8697
I0
g8689
sI1
g8693
sI2
g8696
sI3
(lp8698
ssa(dp8699
I0
(dp8700
I0
(lp8701
sI1
(lp8702
sI2
(lp8703
sI3
(lp8704
ssI1
(dp8705
I0
g8702
sI1
(lp8706
sI2
(lp8707
sI3
(lp8708
ssI2
(dp8709
I0
g8703
sI1
g8707
sI2
(lp8710
sI3
(lp8711
ssI3
(dp8712
I0
g8704
sI1
g8708
sI2
g8711
sI3
(lp8713
ssa(dp8714
I0
(dp8715
I0
(lp8716
sI1
(lp8717
sI2
(lp8718
sI3
(lp8719
ssI1
(dp8720
I0
g8717
sI1
(lp8721
sI2
(lp8722
sI3
(lp8723
ssI2
(dp8724
I0
g8718
sI1
g8722
sI2
(lp8725
sI3
(lp8726
ssI3
(dp8727
I0
g8719
sI1
g8723
sI2
g8726
sI3
(lp8728
ssa(dp8729
I0
(dp8730
I0
(lp8731
sI1
(lp8732
sI2
(lp8733
sI3
(lp8734
ssI1
(dp8735
I0
g8732
sI1
(lp8736
sI2
(lp8737
sI3
(lp8738
ssI2
(dp8739
I0
g8733
sI1
g8737
sI2
(lp8740
sI3
(lp8741
ssI3
(dp8742
I0
g8734
sI1
g8738
sI2
g8741
sI3
(lp8743
ssa(dp8744
I0
(dp8745
I0
(lp8746
sI1
(lp8747
sI2
(lp8748
sI3
(lp8749
ssI1
(dp8750
I0
g8747
sI1
(lp8751
sI2
(lp8752
sI3
(lp8753
ssI2
(dp8754
I0
g8748
sI1
g8752
sI2
(lp8755
sI3
(lp8756
ssI3
(dp8757
I0
g8749
sI1
g8753
sI2
g8756
sI3
(lp8758
ssa(dp8759
I0
(dp8760
I0
(lp8761
sI1
(lp8762
sI2
(lp8763
sI3
(lp8764
ssI1
(dp8765
I0
g8762
sI1
(lp8766
sI2
(lp8767
sI3
(lp8768
ssI2
(dp8769
I0
g8763
sI1
g8767
sI2
(lp8770
sI3
(lp8771
ssI3
(dp8772
I0
g8764
sI1
g8768
sI2
g8771
sI3
(lp8773
ssa(dp8774
I0
(dp8775
I0
(lp8776
sI1
(lp8777
sI2
(lp8778
sI3
(lp8779
ssI1
(dp8780
I0
g8777
sI1
(lp8781
sI2
(lp8782
sI3
(lp8783
ssI2
(dp8784
I0
g8778
sI1
g8782
sI2
(lp8785
sI3
(lp8786
ssI3
(dp8787
I0
g8779
sI1
g8783
sI2
g8786
sI3
(lp8788
ssa(dp8789
I0
(dp8790
I0
(lp8791
sI1
(lp8792
sI2
(lp8793
sI3
(lp8794
ssI1
(dp8795
I0
g8792
sI1
(lp8796
sI2
(lp8797
sI3
(lp8798
ssI2
(dp8799
I0
g8793
sI1
g8797
sI2
(lp8800
sI3
(lp8801
ssI3
(dp8802
I0
g8794
sI1
g8798
sI2
g8801
sI3
(lp8803
ssa(dp8804
I0
(dp8805
I0
(lp8806
sI1
(lp8807
Vhttp://dbpedia.org/ontology/wikiPageExternalLink
p8808
aVhttp://www.w3.org/1999/02/22-rdf-syntax-ns#type
p8809
aVhttp://purl.org/dc/terms/subject
p8810
aVhttp://www.w3.org/2000/01/rdf-schema#comment
p8811
aVhttp://dbpedia.org/ontology/abstract
p8812
aVhttp://dbpedia.org/property/location
p8813
aVhttp://dbpedia.org/ontology/isPartOf
p8814
aVhttp://dbpedia.org/property/subdivisionName
p8815
aVhttp://www.w3.org/2002/07/owl#sameAs
p8816
asI2
(lp8817
sI3
(lp8818
ssI1
(dp8819
I0
g8807
sI1
(lp8820
sI2
(lp8821
sI3
(lp8822
ssI2
(dp8823
I0
g8817
sI1
g8821
sI2
(lp8824
sI3
(lp8825
ssI3
(dp8826
I0
g8818
sI1
g8822
sI2
g8825
sI3
(lp8827
ssa(dp8828
I0
(dp8829
I0
(lp8830
sI1
(lp8831
sI2
(lp8832
sI3
(lp8833
ssI1
(dp8834
I0
g8831
sI1
(lp8835
sI2
(lp8836
sI3
(lp8837
ssI2
(dp8838
I0
g8832
sI1
g8836
sI2
(lp8839
sI3
(lp8840
ssI3
(dp8841
I0
g8833
sI1
g8837
sI2
g8840
sI3
(lp8842
ssa(dp8843
I0
(dp8844
I0
(lp8845
sI1
(lp8846
Vhttp://www.w3.org/1999/02/22-rdf-syntax-ns#type
p8847
aVhttp://purl.org/dc/terms/subject
p8848
aVhttp://www.w3.org/2000/01/rdf-schema#comment
p8849
aVhttp://dbpedia.org/ontology/abstract
p8850
aVhttp://dbpedia.org/property/location
p8851
aVhttp://dbpedia.org/ontology/isPartOf
p8852
aVhttp://dbpedia.org/property/subdivisionName
p8853
aVhttp://www.w3.org/2002/07/owl#sameAs
p8854
asI2
(lp8855
sI3
(lp8856
ssI1
(dp8857
I0
g8846
sI1
(lp8858
sI2
(lp8859
sI3
(lp8860
ssI2
(dp8861
I0
g8855
sI1
g8859
sI2
(lp8862
sI3
(lp8863
ssI3
(dp8864
I0
g8856
sI1
g8860
sI2
g8863
sI3
(lp8865
ssa(dp8866
I0
(dp8867
I0
(lp8868
sI1
(lp8869
sI2
(lp8870
sI3
(lp8871
ssI1
(dp8872
I0
g8869
sI1
(lp8873
sI2
(lp8874
sI3
(lp8875
ssI2
(dp8876
I0
g8870
sI1
g8874
sI2
(lp8877
sI3
(lp8878
ssI3
(dp8879
I0
g8871
sI1
g8875
sI2
g8878
sI3
(lp8880
ssa(dp8881
I0
(dp8882
I0
(lp8883
sI1
(lp8884
sI2
(lp8885
sI3
(lp8886
ssI1
(dp8887
I0
g8884
sI1
(lp8888
sI2
(lp8889
sI3
(lp8890
ssI2
(dp8891
I0
g8885
sI1
g8889
sI2
(lp8892
sI3
(lp8893
ssI3
(dp8894
I0
g8886
sI1
g8890
sI2
g8893
sI3
(lp8895
ssa(dp8896
I0
(dp8897
I0
(lp8898
sI1
(lp8899
sI2
(lp8900
sI3
(lp8901
ssI1
(dp8902
I0
g8899
sI1
(lp8903
sI2
(lp8904
sI3
(lp8905
ssI2
(dp8906
I0
g8900
sI1
g8904
sI2
(lp8907
sI3
(lp8908
ssI3
(dp8909
I0
g8901
sI1
g8905
sI2
g8908
sI3
(lp8910
ssa(dp8911
I0
(dp8912
I0
(lp8913
sI1
(lp8914
sI2
(lp8915
sI3
(lp8916
ssI1
(dp8917
I0
g8914
sI1
(lp8918
sI2
(lp8919
sI3
(lp8920
ssI2
(dp8921
I0
g8915
sI1
g8919
sI2
(lp8922
sI3
(lp8923
ssI3
(dp8924
I0
g8916
sI1
g8920
sI2
g8923
sI3
(lp8925
ssa(dp8926
I0
(dp8927
I0
(lp8928
sI1
(lp8929
sI2
(lp8930
sI3
(lp8931
ssI1
(dp8932
I0
g8929
sI1
(lp8933
sI2
(lp8934
sI3
(lp8935
ssI2
(dp8936
I0
g8930
sI1
g8934
sI2
(lp8937
sI3
(lp8938
ssI3
(dp8939
I0
g8931
sI1
g8935
sI2
g8938
sI3
(lp8940
ssa(dp8941
I0
(dp8942
I0
(lp8943
sI1
(lp8944
sI2
(lp8945
sI3
(lp8946
ssI1
(dp8947
I0
g8944
sI1
(lp8948
sI2
(lp8949
sI3
(lp8950
ssI2
(dp8951
I0
g8945
sI1
g8949
sI2
(lp8952
sI3
(lp8953
ssI3
(dp8954
I0
g8946
sI1
g8950
sI2
g8953
sI3
(lp8955
ssa(dp8956
I0
(dp8957
I0
(lp8958
sI1
(lp8959
sI2
(lp8960
sI3
(lp8961
ssI1
(dp8962
I0
g8959
sI1
(lp8963
sI2
(lp8964
sI3
(lp8965
ssI2
(dp8966
I0
g8960
sI1
g8964
sI2
(lp8967
sI3
(lp8968
ssI3
(dp8969
I0
g8961
sI1
g8965
sI2
g8968
sI3
(lp8970
ssa(dp8971
I0
(dp8972
I0
(lp8973
sI1
(lp8974
sI2
(lp8975
sI3
(lp8976
ssI1
(dp8977
I0
g8974
sI1
(lp8978
sI2
(lp8979
sI3
(lp8980
ssI2
(dp8981
I0
g8975
sI1
g8979
sI2
(lp8982
sI3
(lp8983
ssI3
(dp8984
I0
g8976
sI1
g8980
sI2
g8983
sI3
(lp8985
ssa(dp8986
I0
(dp8987
I0
(lp8988
sI1
(lp8989
sI2
(lp8990
sI3
(lp8991
ssI1
(dp8992
I0
g8989
sI1
(lp8993
sI2
(lp8994
sI3
(lp8995
ssI2
(dp8996
I0
g8990
sI1
g8994
sI2
(lp8997
sI3
(lp8998
ssI3
(dp8999
I0
g8991
sI1
g8995
sI2
g8998
sI3
(lp9000
ssa(dp9001
I0
(dp9002
I0
(lp9003
sI1
(lp9004
sI2
(lp9005
sI3
(lp9006
ssI1
(dp9007
I0
g9004
sI1
(lp9008
sI2
(lp9009
sI3
(lp9010
ssI2
(dp9011
I0
g9005
sI1
g9009
sI2
(lp9012
sI3
(lp9013
ssI3
(dp9014
I0
g9006
sI1
g9010
sI2
g9013
sI3
(lp9015
ssa(dp9016
I0
(dp9017
I0
(lp9018
sI1
(lp9019
sI2
(lp9020
sI3
(lp9021
ssI1
(dp9022
I0
g9019
sI1
(lp9023
sI2
(lp9024
sI3
(lp9025
ssI2
(dp9026
I0
g9020
sI1
g9024
sI2
(lp9027
sI3
(lp9028
ssI3
(dp9029
I0
g9021
sI1
g9025
sI2
g9028
sI3
(lp9030
ssa(dp9031
I0
(dp9032
I0
(lp9033
sI1
(lp9034
sI2
(lp9035
sI3
(lp9036
ssI1
(dp9037
I0
g9034
sI1
(lp9038
sI2
(lp9039
sI3
(lp9040
ssI2
(dp9041
I0
g9035
sI1
g9039
sI2
(lp9042
sI3
(lp9043
ssI3
(dp9044
I0
g9036
sI1
g9040
sI2
g9043
sI3
(lp9045
ssa(dp9046
I0
(dp9047
I0
(lp9048
sI1
(lp9049
sI2
(lp9050
sI3
(lp9051
ssI1
(dp9052
I0
g9049
sI1
(lp9053
sI2
(lp9054
sI3
(lp9055
ssI2
(dp9056
I0
g9050
sI1
g9054
sI2
(lp9057
sI3
(lp9058
ssI3
(dp9059
I0
g9051
sI1
g9055
sI2
g9058
sI3
(lp9060
ssa(dp9061
I0
(dp9062
I0
(lp9063
sI1
(lp9064
sI2
(lp9065
sI3
(lp9066
ssI1
(dp9067
I0
g9064
sI1
(lp9068
sI2
(lp9069
sI3
(lp9070
ssI2
(dp9071
I0
g9065
sI1
g9069
sI2
(lp9072
sI3
(lp9073
ssI3
(dp9074
I0
g9066
sI1
g9070
sI2
g9073
sI3
(lp9075
ssa(dp9076
I0
(dp9077
I0
(lp9078
sI1
(lp9079
sI2
(lp9080
sI3
(lp9081
ssI1
(dp9082
I0
g9079
sI1
(lp9083
sI2
(lp9084
sI3
(lp9085
ssI2
(dp9086
I0
g9080
sI1
g9084
sI2
(lp9087
sI3
(lp9088
ssI3
(dp9089
I0
g9081
sI1
g9085
sI2
g9088
sI3
(lp9090
ssa(dp9091
I0
(dp9092
I0
(lp9093
sI1
(lp9094
Vhttp://xmlns.com/foaf/0.1/primaryTopic
p9095
aVhttp://purl.org/dc/terms/subject
p9096
aVhttp://www.w3.org/2000/01/rdf-schema#comment
p9097
aVhttp://dbpedia.org/ontology/abstract
p9098
aVhttp://dbpedia.org/ontology/wikiPageRedirects
p9099
aVhttp://dbpedia.org/property/name
p9100
aVhttp://xmlns.com/foaf/0.1/isPrimaryTopicOf
p9101
aVhttp://www.w3.org/ns/prov#wasDerivedFrom
p9102
aVhttp://dbpedia.org/property/hasPhotoCollection
p9103
aVhttp://www.w3.org/2000/01/rdf-schema#label
p9104
aVhttp://www.w3.org/2002/07/owl#sameAs
p9105
asI2
(lp9106
sI3
(lp9107
ssI1
(dp9108
I0
g9094
sI1
(lp9109
sI2
(lp9110
sI3
(lp9111
ssI2
(dp9112
I0
g9106
sI1
g9110
sI2
(lp9113
sI3
(lp9114
ssI3
(dp9115
I0
g9107
sI1
g9111
sI2
g9114
sI3
(lp9116
ssa(dp9117
I0
(dp9118
I0
(lp9119
sI1
(lp9120
sI2
(lp9121
sI3
(lp9122
ssI1
(dp9123
I0
g9120
sI1
(lp9124
sI2
(lp9125
sI3
(lp9126
ssI2
(dp9127
I0
g9121
sI1
g9125
sI2
(lp9128
sI3
(lp9129
ssI3
(dp9130
I0
g9122
sI1
g9126
sI2
g9129
sI3
(lp9131
ssa(dp9132
I0
(dp9133
I0
(lp9134
sI1
(lp9135
sI2
(lp9136
sI3
(lp9137
ssI1
(dp9138
I0
g9135
sI1
(lp9139
sI2
(lp9140
sI3
(lp9141
ssI2
(dp9142
I0
g9136
sI1
g9140
sI2
(lp9143
sI3
(lp9144
ssI3
(dp9145
I0
g9137
sI1
g9141
sI2
g9144
sI3
(lp9146
ssa(dp9147
I0
(dp9148
I0
(lp9149
sI1
(lp9150
sI2
(lp9151
sI3
(lp9152
ssI1
(dp9153
I0
g9150
sI1
(lp9154
sI2
(lp9155
sI3
(lp9156
ssI2
(dp9157
I0
g9151
sI1
g9155
sI2
(lp9158
sI3
(lp9159
ssI3
(dp9160
I0
g9152
sI1
g9156
sI2
g9159
sI3
(lp9161
ssa(dp9162
I0
(dp9163
I0
(lp9164
sI1
(lp9165
sI2
(lp9166
sI3
(lp9167
ssI1
(dp9168
I0
g9165
sI1
(lp9169
sI2
(lp9170
sI3
(lp9171
ssI2
(dp9172
I0
g9166
sI1
g9170
sI2
(lp9173
sI3
(lp9174
ssI3
(dp9175
I0
g9167
sI1
g9171
sI2
g9174
sI3
(lp9176
ssa(dp9177
I0
(dp9178
I0
(lp9179
sI1
(lp9180
sI2
(lp9181
sI3
(lp9182
ssI1
(dp9183
I0
g9180
sI1
(lp9184
sI2
(lp9185
sI3
(lp9186
ssI2
(dp9187
I0
g9181
sI1
g9185
sI2
(lp9188
sI3
(lp9189
ssI3
(dp9190
I0
g9182
sI1
g9186
sI2
g9189
sI3
(lp9191
ssa(dp9192
I0
(dp9193
I0
(lp9194
sI1
(lp9195
sI2
(lp9196
sI3
(lp9197
ssI1
(dp9198
I1
(lp9199
sI2
(lp9200
sI3
(lp9201
ssI2
(dp9202
I0
g9196
sI1
g9200
sI2
(lp9203
sI3
(lp9204
ssI3
(dp9205
I0
g9197
sI1
g9201
sI2
g9204
sI3
(lp9206
ssa(dp9207
I0
(dp9208
I0
(lp9209
sI1
(lp9210
sI2
(lp9211
sI3
(lp9212
ssI1
(dp9213
I0
g9210
sI1
(lp9214
sI2
(lp9215
sI3
(lp9216
ssI2
(dp9217
I0
g9211
sI1
g9215
sI2
(lp9218
sI3
(lp9219
ssI3
(dp9220
I0
g9212
sI1
g9216
sI2
g9219
sI3
(lp9221
ssa(dp9222
I0
(dp9223
I0
(lp9224
sI1
(lp9225
sI2
(lp9226
sI3
(lp9227
ssI1
(dp9228
I0
g9225
sI1
(lp9229
sI2
(lp9230
sI3
(lp9231
ssI2
(dp9232
I0
g9226
sI1
g9230
sI2
(lp9233
sI3
(lp9234
ssI3
(dp9235
I0
g9227
sI1
g9231
sI2
g9234
sI3
(lp9236
ssa(dp9237
I0
(dp9238
I0
(lp9239
sI1
(lp9240
sI2
(lp9241
sI3
(lp9242
ssI1
(dp9243
I0
g9240
sI1
(lp9244
sI2
(lp9245
sI3
(lp9246
ssI2
(dp9247
I0
g9241
sI1
g9245
sI2
(lp9248
sI3
(lp9249
ssI3
(dp9250
I0
g9242
sI1
g9246
sI2
g9249
sI3
(lp9251
ssa(dp9252
I0
(dp9253
I0
(lp9254
sI1
(lp9255
sI2
(lp9256
sI3
(lp9257
ssI1
(dp9258
I0
g9255
sI1
(lp9259
sI2
(lp9260
sI3
(lp9261
ssI2
(dp9262
I0
g9256
sI1
g9260
sI2
(lp9263
sI3
(lp9264
ssI3
(dp9265
I0
g9257
sI1
g9261
sI2
g9264
sI3
(lp9266
ssa(dp9267
I0
(dp9268
I0
(lp9269
sI1
(lp9270
sI2
(lp9271
sI3
(lp9272
ssI1
(dp9273
I0
g9270
sI1
(lp9274
sI2
(lp9275
sI3
(lp9276
ssI2
(dp9277
I0
g9271
sI1
g9275
sI2
(lp9278
sI3
(lp9279
ssI3
(dp9280
I0
g9272
sI1
g9276
sI2
g9279
sI3
(lp9281
ssa(dp9282
I0
(dp9283
I0
(lp9284
sI1
(lp9285
Vhttp://www.w3.org/1999/02/22-rdf-syntax-ns#type
p9286
aVhttp://purl.org/dc/terms/subject
p9287
aVhttp://www.w3.org/2000/01/rdf-schema#comment
p9288
aVhttp://dbpedia.org/ontology/abstract
p9289
aVhttp://dbpedia.org/ontology/isPartOf
p9290
aVhttp://dbpedia.org/property/city
p9291
aVhttp://dbpedia.org/property/subdivisionName
p9292
asI2
(lp9293
sI3
(lp9294
ssI1
(dp9295
I0
g9285
sI1
(lp9296
sI2
(lp9297
sI3
(lp9298
ssI2
(dp9299
I0
g9293
sI1
g9297
sI2
(lp9300
sI3
(lp9301
ssI3
(dp9302
I0
g9294
sI1
g9298
sI2
g9301
sI3
(lp9303
ssa(dp9304
I0
(dp9305
I0
(lp9306
sI1
(lp9307
sI2
(lp9308
sI3
(lp9309
ssI1
(dp9310
I0
g9307
sI1
(lp9311
sI2
(lp9312
sI3
(lp9313
ssI2
(dp9314
I0
g9308
sI1
g9312
sI2
(lp9315
sI3
(lp9316
ssI3
(dp9317
I0
g9309
sI1
g9313
sI2
g9316
sI3
(lp9318
ssa(dp9319
I0
(dp9320
I0
(lp9321
sI1
(lp9322
sI2
(lp9323
sI3
(lp9324
ssI1
(dp9325
I0
g9322
sI1
(lp9326
sI2
(lp9327
sI3
(lp9328
ssI2
(dp9329
I0
g9323
sI1
g9327
sI2
(lp9330
sI3
(lp9331
ssI3
(dp9332
I0
g9324
sI1
g9328
sI2
g9331
sI3
(lp9333
ssa(dp9334
I0
(dp9335
I0
(lp9336
sI1
(lp9337
sI2
(lp9338
sI3
(lp9339
ssI1
(dp9340
I0
g9337
sI1
(lp9341
sI2
(lp9342
sI3
(lp9343
ssI2
(dp9344
I0
g9338
sI1
g9342
sI2
(lp9345
sI3
(lp9346
ssI3
(dp9347
I0
g9339
sI1
g9343
sI2
g9346
sI3
(lp9348
ssa(dp9349
I0
(dp9350
I0
(lp9351
sI1
(lp9352
sI2
(lp9353
sI3
(lp9354
ssI1
(dp9355
I0
g9352
sI1
(lp9356
sI2
(lp9357
sI3
(lp9358
ssI2
(dp9359
I0
g9353
sI1
g9357
sI2
(lp9360
sI3
(lp9361
ssI3
(dp9362
I0
g9354
sI1
g9358
sI2
g9361
sI3
(lp9363
ssa(dp9364
I0
(dp9365
I0
(lp9366
sI1
(lp9367
sI2
(lp9368
sI3
(lp9369
ssI1
(dp9370
I0
g9367
sI1
(lp9371
sI2
(lp9372
sI3
(lp9373
ssI2
(dp9374
I0
g9368
sI1
g9372
sI2
(lp9375
sI3
(lp9376
ssI3
(dp9377
I0
g9369
sI1
g9373
sI2
g9376
sI3
(lp9378
ssa(dp9379
I0
(dp9380
I0
(lp9381
sI1
(lp9382
sI2
(lp9383
sI3
(lp9384
ssI1
(dp9385
I0
g9382
sI1
(lp9386
sI2
(lp9387
sI3
(lp9388
ssI2
(dp9389
I0
g9383
sI1
g9387
sI2
(lp9390
sI3
(lp9391
ssI3
(dp9392
I0
g9384
sI1
g9388
sI2
g9391
sI3
(lp9393
ssa(dp9394
I0
(dp9395
I0
(lp9396
sI1
(lp9397
sI2
(lp9398
sI3
(lp9399
ssI1
(dp9400
I0
g9397
sI1
(lp9401
sI2
(lp9402
sI3
(lp9403
ssI2
(dp9404
I0
g9398
sI1
g9402
sI2
(lp9405
sI3
(lp9406
ssI3
(dp9407
I0
g9399
sI1
g9403
sI2
g9406
sI3
(lp9408
ssa(dp9409
I0
(dp9410
I0
(lp9411
sI1
(lp9412
sI2
(lp9413
sI3
(lp9414
ssI1
(dp9415
I0
g9412
sI1
(lp9416
sI2
(lp9417
sI3
(lp9418
ssI2
(dp9419
I0
g9413
sI1
g9417
sI2
(lp9420
sI3
(lp9421
ssI3
(dp9422
I0
g9414
sI1
g9418
sI2
g9421
sI3
(lp9423
ssa(dp9424
I0
(dp9425
I0
(lp9426
sI1
(lp9427
sI2
(lp9428
sI3
(lp9429
ssI1
(dp9430
I0
g9427
sI1
(lp9431
sI2
(lp9432
sI3
(lp9433
ssI2
(dp9434
I0
g9428
sI1
g9432
sI2
(lp9435
sI3
(lp9436
ssI3
(dp9437
I0
g9429
sI1
g9433
sI2
g9436
sI3
(lp9438
ssa(dp9439
I0
(dp9440
I0
(lp9441
sI1
(lp9442
sI2
(lp9443
sI3
(lp9444
ssI1
(dp9445
I0
g9442
sI1
(lp9446
sI2
(lp9447
sI3
(lp9448
ssI2
(dp9449
I0
g9443
sI1
g9447
sI2
(lp9450
sI3
(lp9451
ssI3
(dp9452
I0
g9444
sI1
g9448
sI2
g9451
sI3
(lp9453
ssa(dp9454
I0
(dp9455
I0
(lp9456
sI1
(lp9457
sI2
(lp9458
sI3
(lp9459
ssI1
(dp9460
I0
g9457
sI1
(lp9461
sI2
(lp9462
sI3
(lp9463
ssI2
(dp9464
I0
g9458
sI1
g9462
sI2
(lp9465
sI3
(lp9466
ssI3
(dp9467
I0
g9459
sI1
g9463
sI2
g9466
sI3
(lp9468
ssa(dp9469
I0
(dp9470
I0
(lp9471
sI1
(lp9472
sI2
(lp9473
sI3
(lp9474
ssI1
(dp9475
I0
g9472
sI1
(lp9476
sI2
(lp9477
sI3
(lp9478
ssI2
(dp9479
I0
g9473
sI1
g9477
sI2
(lp9480
sI3
(lp9481
ssI3
(dp9482
I0
g9474
sI1
g9478
sI2
g9481
sI3
(lp9483
ssa(dp9484
I0
(dp9485
I0
(lp9486
sI1
(lp9487
sI2
(lp9488
sI3
(lp9489
ssI1
(dp9490
I0
g9487
sI1
(lp9491
sI2
(lp9492
sI3
(lp9493
ssI2
(dp9494
I0
g9488
sI1
g9492
sI2
(lp9495
sI3
(lp9496
ssI3
(dp9497
I0
g9489
sI1
g9493
sI2
g9496
sI3
(lp9498
ssa(dp9499
I0
(dp9500
I0
(lp9501
sI1
(lp9502
sI2
(lp9503
sI3
(lp9504
ssI1
(dp9505
I0
g9502
sI1
(lp9506
sI2
(lp9507
sI3
(lp9508
ssI2
(dp9509
I0
g9503
sI1
g9507
sI2
(lp9510
sI3
(lp9511
ssI3
(dp9512
I0
g9504
sI1
g9508
sI2
g9511
sI3
(lp9513
ssa(dp9514
I0
(dp9515
I0
(lp9516
sI1
(lp9517
sI2
(lp9518
sI3
(lp9519
ssI1
(dp9520
I0
g9517
sI1
(lp9521
sI2
(lp9522
sI3
(lp9523
ssI2
(dp9524
I0
g9518
sI1
g9522
sI2
(lp9525
sI3
(lp9526
ssI3
(dp9527
I0
g9519
sI1
g9523
sI2
g9526
sI3
(lp9528
ssa(dp9529
I0
(dp9530
I0
(lp9531
sI1
(lp9532
sI2
(lp9533
sI3
(lp9534
ssI1
(dp9535
I0
g9532
sI1
(lp9536
sI2
(lp9537
sI3
(lp9538
ssI2
(dp9539
I0
g9533
sI1
g9537
sI2
(lp9540
sI3
(lp9541
ssI3
(dp9542
I0
g9534
sI1
g9538
sI2
g9541
sI3
(lp9543
ssa(dp9544
I0
(dp9545
I0
(lp9546
sI1
(lp9547
sI2
(lp9548
sI3
(lp9549
ssI1
(dp9550
I0
g9547
sI1
(lp9551
sI2
(lp9552
sI3
(lp9553
ssI2
(dp9554
I0
g9548
sI1
g9552
sI2
(lp9555
sI3
(lp9556
ssI3
(dp9557
I0
g9549
sI1
g9553
sI2
g9556
sI3
(lp9558
ssa(dp9559
I0
(dp9560
I0
(lp9561
sI1
(lp9562
Vhttp://dbpedia.org/property/website
p9563
aVhttp://dbpedia.org/property/mapCaption
p9564
aVhttp://dbpedia.org/property/name
p9565
aVhttp://dbpedia.org/property/city
p9566
aVhttp://www.w3.org/ns/prov#wasDerivedFrom
p9567
aVhttp://dbpedia.org/ontology/isPartOf
p9568
aVhttp://xmlns.com/foaf/0.1/isPrimaryTopicOf
p9569
aVhttp://dbpedia.org/ontology/wikiPageDisambiguates
p9570
aVhttp://dbpedia.org/ontology/wikiPageExternalLink
p9571
aVhttp://xmlns.com/foaf/0.1/primaryTopic
p9572
aVhttp://purl.org/dc/terms/subject
p9573
aVhttp://dbpedia.org/ontology/abstract
p9574
aVhttp://xmlns.com/foaf/0.1/depiction
p9575
aVhttp://dbpedia.org/ontology/thumbnail
p9576
aVhttp://dbpedia.org/ontology/city
p9577
aVhttp://dbpedia.org/property/hasPhotoCollection
p9578
aVhttp://www.w3.org/2000/01/rdf-schema#label
p9579
aVhttp://dbpedia.org/property/subdivisionName
p9580
aVhttp://dbpedia.org/property/pushpinMapCaption
p9581
aVhttp://dbpedia.org/property/imageMap
p9582
aVhttp://www.w3.org/2000/01/rdf-schema#comment
p9583
aVhttp://dbpedia.org/ontology/wikiPageRedirects
p9584
aVhttp://xmlns.com/foaf/0.1/name
p9585
aVhttp://xmlns.com/foaf/0.1/homepage
p9586
aVhttp://www.w3.org/2002/07/owl#sameAs
p9587
asI2
(lp9588
sI3
(lp9589
ssI1
(dp9590
I0
g9562
sI1
(lp9591
sI2
(lp9592
sI3
(lp9593
ssI2
(dp9594
I0
g9588
sI1
g9592
sI2
(lp9595
sI3
(lp9596
ssI3
(dp9597
I0
g9589
sI1
g9593
sI2
g9596
sI3
(lp9598
ssa(dp9599
I0
(dp9600
I0
(lp9601
sI1
(lp9602
sI2
(lp9603
sI3
(lp9604
ssI1
(dp9605
I0
g9602
sI1
(lp9606
sI2
(lp9607
sI3
(lp9608
ssI2
(dp9609
I0
g9603
sI1
g9607
sI2
(lp9610
sI3
(lp9611
ssI3
(dp9612
I0
g9604
sI1
g9608
sI2
g9611
sI3
(lp9613
ssa(dp9614
I0
(dp9615
I0
(lp9616
sI1
(lp9617
sI2
(lp9618
sI3
(lp9619
ssI1
(dp9620
I0
g9617
sI1
(lp9621
sI2
(lp9622
sI3
(lp9623
ssI2
(dp9624
I0
g9618
sI1
g9622
sI2
(lp9625
sI3
(lp9626
ssI3
(dp9627
I0
g9619
sI1
g9623
sI2
g9626
sI3
(lp9628
ssa(dp9629
I0
(dp9630
I0
(lp9631
sI1
(lp9632
sI2
(lp9633
sI3
(lp9634
ssI1
(dp9635
I0
g9632
sI1
(lp9636
sI2
(lp9637
sI3
(lp9638
ssI2
(dp9639
I0
g9633
sI1
g9637
sI2
(lp9640
sI3
(lp9641
ssI3
(dp9642
I0
g9634
sI1
g9638
sI2
g9641
sI3
(lp9643
ssa(dp9644
I0
(dp9645
I0
(lp9646
sI1
(lp9647
sI2
(lp9648
sI3
(lp9649
ssI1
(dp9650
I0
g9647
sI1
(lp9651
sI2
(lp9652
sI3
(lp9653
ssI2
(dp9654
I0
g9648
sI1
g9652
sI2
(lp9655
sI3
(lp9656
ssI3
(dp9657
I0
g9649
sI1
g9653
sI2
g9656
sI3
(lp9658
ssa(dp9659
I0
(dp9660
I0
(lp9661
sI1
(lp9662
sI2
(lp9663
sI3
(lp9664
ssI1
(dp9665
I0
g9662
sI1
(lp9666
sI2
(lp9667
sI3
(lp9668
ssI2
(dp9669
I0
g9663
sI1
g9667
sI2
(lp9670
sI3
(lp9671
ssI3
(dp9672
I0
g9664
sI1
g9668
sI2
g9671
sI3
(lp9673
ssa(dp9674
I0
(dp9675
I0
(lp9676
sI1
(lp9677
sI2
(lp9678
sI3
(lp9679
ssI1
(dp9680
I0
g9677
sI1
(lp9681
sI2
(lp9682
sI3
(lp9683
ssI2
(dp9684
I0
g9678
sI1
g9682
sI2
(lp9685
sI3
(lp9686
ssI3
(dp9687
I0
g9679
sI1
g9683
sI2
g9686
sI3
(lp9688
ssa(dp9689
I0
(dp9690
I0
(lp9691
sI1
(lp9692
sI2
(lp9693
sI3
(lp9694
ssI1
(dp9695
I0
g9692
sI1
(lp9696
sI2
(lp9697
sI3
(lp9698
ssI2
(dp9699
I0
g9693
sI1
g9697
sI2
(lp9700
sI3
(lp9701
ssI3
(dp9702
I0
g9694
sI1
g9698
sI2
g9701
sI3
(lp9703
ssa(dp9704
I0
(dp9705
I0
(lp9706
sI1
(lp9707
sI2
(lp9708
sI3
(lp9709
ssI1
(dp9710
I0
g9707
sI1
(lp9711
sI2
(lp9712
sI3
(lp9713
ssI2
(dp9714
I0
g9708
sI1
g9712
sI2
(lp9715
sI3
(lp9716
ssI3
(dp9717
I0
g9709
sI1
g9713
sI2
g9716
sI3
(lp9718
ssa(dp9719
I0
(dp9720
I0
(lp9721
sI1
(lp9722
sI2
(lp9723
sI3
(lp9724
ssI1
(dp9725
I0
g9722
sI1
(lp9726
sI2
(lp9727
sI3
(lp9728
ssI2
(dp9729
I0
g9723
sI1
g9727
sI2
(lp9730
sI3
(lp9731
ssI3
(dp9732
I0
g9724
sI1
g9728
sI2
g9731
sI3
(lp9733
ssa(dp9734
I0
(dp9735
I0
(lp9736
sI1
(lp9737
sI2
(lp9738
sI3
(lp9739
ssI1
(dp9740
I0
g9737
sI1
(lp9741
sI2
(lp9742
sI3
(lp9743
ssI2
(dp9744
I0
g9738
sI1
g9742
sI2
(lp9745
sI3
(lp9746
ssI3
(dp9747
I0
g9739
sI1
g9743
sI2
g9746
sI3
(lp9748
ssa(dp9749
I0
(dp9750
I0
(lp9751
sI1
(lp9752
sI2
(lp9753
sI3
(lp9754
ssI1
(dp9755
I0
g9752
sI1
(lp9756
sI2
(lp9757
sI3
(lp9758
ssI2
(dp9759
I0
g9753
sI1
g9757
sI2
(lp9760
sI3
(lp9761
ssI3
(dp9762
I0
g9754
sI1
g9758
sI2
g9761
sI3
(lp9763
ssa(dp9764
I0
(dp9765
I0
(lp9766
sI1
(lp9767
sI2
(lp9768
sI3
(lp9769
ssI1
(dp9770
I0
g9767
sI1
(lp9771
sI2
(lp9772
sI3
(lp9773
ssI2
(dp9774
I0
g9768
sI1
g9772
sI2
(lp9775
sI3
(lp9776
ssI3
(dp9777
I0
g9769
sI1
g9773
sI2
g9776
sI3
(lp9778
ssa(dp9779
I0
(dp9780
I0
(lp9781
sI1
(lp9782
sI2
(lp9783
sI3
(lp9784
ssI1
(dp9785
I0
g9782
sI1
(lp9786
sI2
(lp9787
sI3
(lp9788
ssI2
(dp9789
I0
g9783
sI1
g9787
sI2
(lp9790
sI3
(lp9791
ssI3
(dp9792
I0
g9784
sI1
g9788
sI2
g9791
sI3
(lp9793
ssa(dp9794
I0
(dp9795
I0
(lp9796
sI1
(lp9797
sI2
(lp9798
sI3
(lp9799
ssI1
(dp9800
I0
g9797
sI1
(lp9801
sI2
(lp9802
sI3
(lp9803
ssI2
(dp9804
I0
g9798
sI1
g9802
sI2
(lp9805
sI3
(lp9806
ssI3
(dp9807
I0
g9799
sI1
g9803
sI2
g9806
sI3
(lp9808
ssa(dp9809
I0
(dp9810
I0
(lp9811
sI1
(lp9812
sI2
(lp9813
sI3
(lp9814
ssI1
(dp9815
I0
g9812
sI1
(lp9816
sI2
(lp9817
sI3
(lp9818
ssI2
(dp9819
I0
g9813
sI1
g9817
sI2
(lp9820
sI3
(lp9821
ssI3
(dp9822
I0
g9814
sI1
g9818
sI2
g9821
sI3
(lp9823
ssa(dp9824
I0
(dp9825
I0
(lp9826
sI1
(lp9827
sI2
(lp9828
sI3
(lp9829
ssI1
(dp9830
I1
(lp9831
sI2
(lp9832
sI3
(lp9833
ssI2
(dp9834
I0
g9828
sI1
g9832
sI2
(lp9835
sI3
(lp9836
ssI3
(dp9837
I0
g9829
sI1
g9833
sI2
g9836
sI3
(lp9838
ssa(dp9839
I0
(dp9840
I0
(lp9841
sI1
(lp9842
sI2
(lp9843
sI3
(lp9844
ssI1
(dp9845
I0
g9842
sI1
(lp9846
sI2
(lp9847
sI3
(lp9848
ssI2
(dp9849
I0
g9843
sI1
g9847
sI2
(lp9850
sI3
(lp9851
ssI3
(dp9852
I0
g9844
sI1
g9848
sI2
g9851
sI3
(lp9853
ssa(dp9854
I0
(dp9855
I0
(lp9856
sI1
(lp9857
sI2
(lp9858
sI3
(lp9859
ssI1
(dp9860
I0
g9857
sI1
(lp9861
sI2
(lp9862
sI3
(lp9863
ssI2
(dp9864
I0
g9858
sI1
g9862
sI2
(lp9865
sI3
(lp9866
ssI3
(dp9867
I0
g9859
sI1
g9863
sI2
g9866
sI3
(lp9868
ssa(dp9869
I0
(dp9870
I0
(lp9871
sI1
(lp9872
sI2
(lp9873
sI3
(lp9874
ssI1
(dp9875
I0
g9872
sI1
(lp9876
sI2
(lp9877
sI3
(lp9878
ssI2
(dp9879
I0
g9873
sI1
g9877
sI2
(lp9880
sI3
(lp9881
ssI3
(dp9882
I0
g9874
sI1
g9878
sI2
g9881
sI3
(lp9883
ssa(dp9884
I0
(dp9885
I0
(lp9886
sI1
(lp9887
sI2
(lp9888
sI3
(lp9889
ssI1
(dp9890
I0
g9887
sI1
(lp9891
sI2
(lp9892
sI3
(lp9893
ssI2
(dp9894
I0
g9888
sI1
g9892
sI2
(lp9895
sI3
(lp9896
ssI3
(dp9897
I0
g9889
sI1
g9893
sI2
g9896
sI3
(lp9898
ssa(dp9899
I0
(dp9900
I0
(lp9901
sI1
(lp9902
sI2
(lp9903
sI3
(lp9904
ssI1
(dp9905
I0
g9902
sI1
(lp9906
sI2
(lp9907
sI3
(lp9908
ssI2
(dp9909
I0
g9903
sI1
g9907
sI2
(lp9910
sI3
(lp9911
ssI3
(dp9912
I0
g9904
sI1
g9908
sI2
g9911
sI3
(lp9913
ssa(dp9914
I0
(dp9915
I0
(lp9916
sI1
(lp9917
sI2
(lp9918
sI3
(lp9919
ssI1
(dp9920
I0
g9917
sI1
(lp9921
sI2
(lp9922
sI3
(lp9923
ssI2
(dp9924
I0
g9918
sI1
g9922
sI2
(lp9925
sI3
(lp9926
ssI3
(dp9927
I0
g9919
sI1
g9923
sI2
g9926
sI3
(lp9928
ssa(dp9929
I0
(dp9930
I0
(lp9931
sI1
(lp9932
sI2
(lp9933
sI3
(lp9934
ssI1
(dp9935
I0
g9932
sI1
(lp9936
sI2
(lp9937
sI3
(lp9938
ssI2
(dp9939
I0
g9933
sI1
g9937
sI2
(lp9940
sI3
(lp9941
ssI3
(dp9942
I0
g9934
sI1
g9938
sI2
g9941
sI3
(lp9943
ssa(dp9944
I0
(dp9945
I0
(lp9946
sI1
(lp9947
Vhttp://dbpedia.org/ontology/isPartOf
p9948
aVhttp://dbpedia.org/property/subdivisionName
p9949
asI2
(lp9950
sI3
(lp9951
ssI1
(dp9952
I0
g9947
sI1
(lp9953
sI2
(lp9954
sI3
(lp9955
ssI2
(dp9956
I0
g9950
sI1
g9954
sI2
(lp9957
sI3
(lp9958
ssI3
(dp9959
I0
g9951
sI1
g9955
sI2
g9958
sI3
(lp9960
ssa(dp9961
I0
(dp9962
I0
(lp9963
sI1
(lp9964
sI2
(lp9965
sI3
(lp9966
ssI1
(dp9967
I0
g9964
sI1
(lp9968
sI2
(lp9969
sI3
(lp9970
ssI2
(dp9971
I0
g9965
sI1
g9969
sI2
(lp9972
sI3
(lp9973
ssI3
(dp9974
I0
g9966
sI1
g9970
sI2
g9973
sI3
(lp9975
ssa(dp9976
I0
(dp9977
I0
(lp9978
sI1
(lp9979
sI2
(lp9980
sI3
(lp9981
ssI1
(dp9982
I0
g9979
sI1
(lp9983
sI2
(lp9984
sI3
(lp9985
ssI2
(dp9986
I0
g9980
sI1
g9984
sI2
(lp9987
sI3
(lp9988
ssI3
(dp9989
I0
g9981
sI1
g9985
sI2
g9988
sI3
(lp9990
ssa(dp9991
I0
(dp9992
I0
(lp9993
sI1
(lp9994
Vhttp://www.w3.org/1999/02/22-rdf-syntax-ns#type
p9995
aVhttp://purl.org/dc/terms/subject
p9996
aVhttp://www.w3.org/2000/01/rdf-schema#comment
p9997
aVhttp://dbpedia.org/ontology/abstract
p9998
aVhttp://dbpedia.org/ontology/wikiPageRedirects
p9999
aVhttp://dbpedia.org/ontology/isPartOf
p10000
aVhttp://dbpedia.org/property/city
p10001
aVhttp://dbpedia.org/property/imageMap
p10002
aVhttp://dbpedia.org/property/subdivisionName
p10003
asI2
(lp10004
sI3
(lp10005
ssI1
(dp10006
I0
g9994
sI1
(lp10007
sI2
(lp10008
sI3
(lp10009
ssI2
(dp10010
I0
g10004
sI1
g10008
sI2
(lp10011
sI3
(lp10012
ssI3
(dp10013
I0
g10005
sI1
g10009
sI2
g10012
sI3
(lp10014
ssa(dp10015
I0
(dp10016
I0
(lp10017
sI1
(lp10018
Vhttp://dbpedia.org/ontology/isPartOf
p10019
aVhttp://dbpedia.org/property/subdivisionName
p10020
asI2
(lp10021
sI3
(lp10022
ssI1
(dp10023
I0
g10018
sI1
(lp10024
sI2
(lp10025
sI3
(lp10026
ssI2
(dp10027
I0
g10021
sI1
g10025
sI2
(lp10028
sI3
(lp10029
ssI3
(dp10030
I0
g10022
sI1
g10026
sI2
g10029
sI3
(lp10031
ssa(dp10032
I0
(dp10033
I0
(lp10034
sI1
(lp10035
Vhttp://dbpedia.org/ontology/isPartOf
p10036
aVhttp://dbpedia.org/property/subdivisionName
p10037
asI2
(lp10038
sI3
(lp10039
ssI1
(dp10040
I0
g10035
sI1
(lp10041
sI2
(lp10042
sI3
(lp10043
ssI2
(dp10044
I0
g10038
sI1
g10042
sI2
(lp10045
sI3
(lp10046
ssI3
(dp10047
I0
g10039
sI1
g10043
sI2
g10046
sI3
(lp10048
ssa(dp10049
I0
(dp10050
I0
(lp10051
sI1
(lp10052
Vhttp://dbpedia.org/ontology/isPartOf
p10053
aVhttp://dbpedia.org/property/subdivisionName
p10054
asI2
(lp10055
sI3
(lp10056
ssI1
(dp10057
I0
g10052
sI1
(lp10058
sI2
(lp10059
sI3
(lp10060
ssI2
(dp10061
I0
g10055
sI1
g10059
sI2
(lp10062
sI3
(lp10063
ssI3
(dp10064
I0
g10056
sI1
g10060
sI2
g10063
sI3
(lp10065
ssa(dp10066
I0
(dp10067
I0
(lp10068
sI1
(lp10069
Vhttp://dbpedia.org/ontology/isPartOf
p10070
aVhttp://dbpedia.org/property/subdivisionName
p10071
asI2
(lp10072
sI3
(lp10073
ssI1
(dp10074
I0
g10069
sI1
(lp10075
sI2
(lp10076
sI3
(lp10077
ssI2
(dp10078
I0
g10072
sI1
g10076
sI2
(lp10079
sI3
(lp10080
ssI3
(dp10081
I0
g10073
sI1
g10077
sI2
g10080
sI3
(lp10082
ssa(dp10083
I0
(dp10084
I0
(lp10085
sI1
(lp10086
sI2
(lp10087
sI3
(lp10088
ssI1
(dp10089
I0
g10086
sI1
(lp10090
sI2
(lp10091
sI3
(lp10092
ssI2
(dp10093
I0
g10087
sI1
g10091
sI2
(lp10094
sI3
(lp10095
ssI3
(dp10096
I0
g10088
sI1
g10092
sI2
g10095
sI3
(lp10097
ssa(dp10098
I0
(dp10099
I0
(lp10100
sI1
(lp10101
sI2
(lp10102
sI3
(lp10103
ssI1
(dp10104
I0
g10101
sI1
(lp10105
sI2
(lp10106
sI3
(lp10107
ssI2
(dp10108
I0
g10102
sI1
g10106
sI2
(lp10109
sI3
(lp10110
ssI3
(dp10111
I0
g10103
sI1
g10107
sI2
g10110
sI3
(lp10112
ssa(dp10113
I0
(dp10114
I0
(lp10115
sI1
(lp10116
Vhttp://dbpedia.org/ontology/isPartOf
p10117
aVhttp://dbpedia.org/property/subdivisionName
p10118
asI2
(lp10119
sI3
(lp10120
ssI1
(dp10121
I0
g10116
sI1
(lp10122
sI2
(lp10123
sI3
(lp10124
ssI2
(dp10125
I0
g10119
sI1
g10123
sI2
(lp10126
sI3
(lp10127
ssI3
(dp10128
I0
g10120
sI1
g10124
sI2
g10127
sI3
(lp10129
ssa(dp10130
I0
(dp10131
I0
(lp10132
sI1
(lp10133
sI2
(lp10134
sI3
(lp10135
ssI1
(dp10136
I0
g10133
sI1
(lp10137
sI2
(lp10138
sI3
(lp10139
ssI2
(dp10140
I0
g10134
sI1
g10138
sI2
(lp10141
sI3
(lp10142
ssI3
(dp10143
I0
g10135
sI1
g10139
sI2
g10142
sI3
(lp10144
ssa(dp10145
I0
(dp10146
I0
(lp10147
sI1
(lp10148
Vhttp://dbpedia.org/ontology/isPartOf
p10149
aVhttp://dbpedia.org/property/subdivisionName
p10150
asI2
(lp10151
sI3
(lp10152
ssI1
(dp10153
I0
g10148
sI1
(lp10154
sI2
(lp10155
sI3
(lp10156
ssI2
(dp10157
I0
g10151
sI1
g10155
sI2
(lp10158
sI3
(lp10159
ssI3
(dp10160
I0
g10152
sI1
g10156
sI2
g10159
sI3
(lp10161
ssa(dp10162
I0
(dp10163
I0
(lp10164
sI1
(lp10165
Vhttp://dbpedia.org/ontology/isPartOf
p10166
aVhttp://dbpedia.org/property/subdivisionName
p10167
asI2
(lp10168
sI3
(lp10169
ssI1
(dp10170
I0
g10165
sI1
(lp10171
sI2
(lp10172
sI3
(lp10173
ssI2
(dp10174
I0
g10168
sI1
g10172
sI2
(lp10175
sI3
(lp10176
ssI3
(dp10177
I0
g10169
sI1
g10173
sI2
g10176
sI3
(lp10178
ssa(dp10179
I0
(dp10180
I0
(lp10181
sI1
(lp10182
Vhttp://www.w3.org/2000/01/rdf-schema#seeAlso
p10183
aVhttp://dbpedia.org/ontology/isPartOf
p10184
aVhttp://dbpedia.org/property/subdivisionName
p10185
asI2
(lp10186
sI3
(lp10187
ssI1
(dp10188
I0
g10182
sI1
(lp10189
sI2
(lp10190
sI3
(lp10191
ssI2
(dp10192
I0
g10186
sI1
g10190
sI2
(lp10193
sI3
(lp10194
ssI3
(dp10195
I0
g10187
sI1
g10191
sI2
g10194
sI3
(lp10196
ssa(dp10197
I0
(dp10198
I0
(lp10199
sI1
(lp10200
Vhttp://dbpedia.org/ontology/isPartOf
p10201
aVhttp://dbpedia.org/property/county
p10202
aVhttp://dbpedia.org/property/subdivisionName
p10203
asI2
(lp10204
sI3
(lp10205
ssI1
(dp10206
I0
g10200
sI1
(lp10207
sI2
(lp10208
sI3
(lp10209
ssI2
(dp10210
I0
g10204
sI1
g10208
sI2
(lp10211
sI3
(lp10212
ssI3
(dp10213
I0
g10205
sI1
g10209
sI2
g10212
sI3
(lp10214
ssa(dp10215
I0
(dp10216
I0
(lp10217
sI1
(lp10218
sI2
(lp10219
sI3
(lp10220
ssI1
(dp10221
I0
g10218
sI1
(lp10222
sI2
(lp10223
sI3
(lp10224
ssI2
(dp10225
I0
g10219
sI1
g10223
sI2
(lp10226
sI3
(lp10227
ssI3
(dp10228
I0
g10220
sI1
g10224
sI2
g10227
sI3
(lp10229
ssa(dp10230
I0
(dp10231
I0
(lp10232
sI1
(lp10233
sI2
(lp10234
sI3
(lp10235
ssI1
(dp10236
I0
g10233
sI1
(lp10237
sI2
(lp10238
sI3
(lp10239
ssI2
(dp10240
I0
g10234
sI1
g10238
sI2
(lp10241
sI3
(lp10242
ssI3
(dp10243
I0
g10235
sI1
g10239
sI2
g10242
sI3
(lp10244
ssa(dp10245
I0
(dp10246
I0
(lp10247
sI1
(lp10248
Vhttp://dbpedia.org/ontology/isPartOf
p10249
aVhttp://dbpedia.org/property/subdivisionName
p10250
asI2
(lp10251
sI3
(lp10252
ssI1
(dp10253
I0
g10248
sI1
(lp10254
sI2
(lp10255
sI3
(lp10256
ssI2
(dp10257
I0
g10251
sI1
g10255
sI2
(lp10258
sI3
(lp10259
ssI3
(dp10260
I0
g10252
sI1
g10256
sI2
g10259
sI3
(lp10261
ssa(dp10262
I0
(dp10263
I0
(lp10264
sI1
(lp10265
sI2
(lp10266
sI3
(lp10267
ssI1
(dp10268
I0
g10265
sI1
(lp10269
sI2
(lp10270
sI3
(lp10271
ssI2
(dp10272
I0
g10266
sI1
g10270
sI2
(lp10273
sI3
(lp10274
ssI3
(dp10275
I0
g10267
sI1
g10271
sI2
g10274
sI3
(lp10276
ssa(dp10277
I0
(dp10278
I0
(lp10279
sI1
(lp10280
sI2
(lp10281
sI3
(lp10282
ssI1
(dp10283
I0
g10280
sI1
(lp10284
sI2
(lp10285
sI3
(lp10286
ssI2
(dp10287
I0
g10281
sI1
g10285
sI2
(lp10288
sI3
(lp10289
ssI3
(dp10290
I0
g10282
sI1
g10286
sI2
g10289
sI3
(lp10291
ssa(dp10292
I0
(dp10293
I0
(lp10294
sI1
(lp10295
Vhttp://dbpedia.org/ontology/isPartOf
p10296
aVhttp://dbpedia.org/property/subdivisionName
p10297
asI2
(lp10298
sI3
(lp10299
ssI1
(dp10300
I0
g10295
sI1
(lp10301
sI2
(lp10302
sI3
(lp10303
ssI2
(dp10304
I0
g10298
sI1
g10302
sI2
(lp10305
sI3
(lp10306
ssI3
(dp10307
I0
g10299
sI1
g10303
sI2
g10306
sI3
(lp10308
ssa(dp10309
I0
(dp10310
I0
(lp10311
sI1
(lp10312
sI2
(lp10313
sI3
(lp10314
ssI1
(dp10315
I0
g10312
sI1
(lp10316
sI2
(lp10317
sI3
(lp10318
ssI2
(dp10319
I0
g10313
sI1
g10317
sI2
(lp10320
sI3
(lp10321
ssI3
(dp10322
I0
g10314
sI1
g10318
sI2
g10321
sI3
(lp10323
ssa(dp10324
I0
(dp10325
I0
(lp10326
sI1
(lp10327
sI2
(lp10328
sI3
(lp10329
ssI1
(dp10330
I0
g10327
sI1
(lp10331
sI2
(lp10332
sI3
(lp10333
ssI2
(dp10334
I0
g10328
sI1
g10332
sI2
(lp10335
sI3
(lp10336
ssI3
(dp10337
I0
g10329
sI1
g10333
sI2
g10336
sI3
(lp10338
ssa(dp10339
I0
(dp10340
I0
(lp10341
sI1
(lp10342
sI2
(lp10343
sI3
(lp10344
ssI1
(dp10345
I0
g10342
sI1
(lp10346
sI2
(lp10347
sI3
(lp10348
ssI2
(dp10349
I0
g10343
sI1
g10347
sI2
(lp10350
sI3
(lp10351
ssI3
(dp10352
I0
g10344
sI1
g10348
sI2
g10351
sI3
(lp10353
ssa(dp10354
I0
(dp10355
I0
(lp10356
sI1
(lp10357
Vhttp://dbpedia.org/ontology/isPartOf
p10358
aVhttp://dbpedia.org/property/subdivisionName
p10359
asI2
(lp10360
sI3
(lp10361
ssI1
(dp10362
I0
g10357
sI1
(lp10363
sI2
(lp10364
sI3
(lp10365
ssI2
(dp10366
I0
g10360
sI1
g10364
sI2
(lp10367
sI3
(lp10368
ssI3
(dp10369
I0
g10361
sI1
g10365
sI2
g10368
sI3
(lp10370
ssa(dp10371
I0
(dp10372
I0
(lp10373
sI1
(lp10374
sI2
(lp10375
sI3
(lp10376
ssI1
(dp10377
I0
g10374
sI1
(lp10378
sI2
(lp10379
sI3
(lp10380
ssI2
(dp10381
I0
g10375
sI1
g10379
sI2
(lp10382
sI3
(lp10383
ssI3
(dp10384
I0
g10376
sI1
g10380
sI2
g10383
sI3
(lp10385
ssa(dp10386
I0
(dp10387
I0
(lp10388
sI1
(lp10389
Vhttp://dbpedia.org/ontology/county
p10390
aVhttp://dbpedia.org/ontology/isPartOf
p10391
aVhttp://dbpedia.org/property/county
p10392
aVhttp://dbpedia.org/ontology/location
p10393
aVhttp://dbpedia.org/property/subdivisionName
p10394
asI2
(lp10395
sI3
(lp10396
ssI1
(dp10397
I0
g10389
sI1
(lp10398
sI2
(lp10399
sI3
(lp10400
ssI2
(dp10401
I0
g10395
sI1
g10399
sI2
(lp10402
sI3
(lp10403
ssI3
(dp10404
I0
g10396
sI1
g10400
sI2
g10403
sI3
(lp10405
ssa(dp10406
I0
(dp10407
I0
(lp10408
sI1
(lp10409
Vhttp://dbpedia.org/ontology/isPartOf
p10410
aVhttp://dbpedia.org/property/subdivisionName
p10411
asI2
(lp10412
sI3
(lp10413
ssI1
(dp10414
I0
g10409
sI1
(lp10415
sI2
(lp10416
sI3
(lp10417
ssI2
(dp10418
I0
g10412
sI1
g10416
sI2
(lp10419
sI3
(lp10420
ssI3
(dp10421
I0
g10413
sI1
g10417
sI2
g10420
sI3
(lp10422
ssa(dp10423
I0
(dp10424
I0
(lp10425
sI1
(lp10426
Vhttp://dbpedia.org/ontology/county
p10427
aVhttp://dbpedia.org/property/county
p10428
aVhttp://dbpedia.org/ontology/birthPlace
p10429
aVhttp://dbpedia.org/ontology/isPartOf
p10430
aVhttp://dbpedia.org/property/birthPlace
p10431
aVhttp://dbpedia.org/property/placeOfBirth
p10432
aVhttp://dbpedia.org/property/subdivisionName
p10433
asI2
(lp10434
sI3
(lp10435
ssI1
(dp10436
I0
g10426
sI1
(lp10437
sI2
(lp10438
sI3
(lp10439
ssI2
(dp10440
I0
g10434
sI1
g10438
sI2
(lp10441
sI3
(lp10442
ssI3
(dp10443
I0
g10435
sI1
g10439
sI2
g10442
sI3
(lp10444
ssa(dp10445
I0
(dp10446
I0
(lp10447
sI1
(lp10448
sI2
(lp10449
sI3
(lp10450
ssI1
(dp10451
I0
g10448
sI1
(lp10452
sI2
(lp10453
sI3
(lp10454
ssI2
(dp10455
I0
g10449
sI1
g10453
sI2
(lp10456
sI3
(lp10457
ssI3
(dp10458
I0
g10450
sI1
g10454
sI2
g10457
sI3
(lp10459
ssa(dp10460
I0
(dp10461
I0
(lp10462
sI1
(lp10463
sI2
(lp10464
sI3
(lp10465
ssI1
(dp10466
I0
g10463
sI1
(lp10467
sI2
(lp10468
sI3
(lp10469
ssI2
(dp10470
I0
g10464
sI1
g10468
sI2
(lp10471
sI3
(lp10472
ssI3
(dp10473
I0
g10465
sI1
g10469
sI2
g10472
sI3
(lp10474
ssa(dp10475
I0
(dp10476
I0
(lp10477
sI1
(lp10478
sI2
(lp10479
sI3
(lp10480
ssI1
(dp10481
I0
g10478
sI1
(lp10482
sI2
(lp10483
sI3
(lp10484
ssI2
(dp10485
I0
g10479
sI1
g10483
sI2
(lp10486
sI3
(lp10487
ssI3
(dp10488
I0
g10480
sI1
g10484
sI2
g10487
sI3
(lp10489
ssa(dp10490
I0
(dp10491
I0
(lp10492
sI1
(lp10493
Vhttp://dbpedia.org/ontology/isPartOf
p10494
aVhttp://dbpedia.org/property/location
p10495
aVhttp://dbpedia.org/property/subdivisionName
p10496
asI2
(lp10497
sI3
(lp10498
ssI1
(dp10499
I0
g10493
sI1
(lp10500
sI2
(lp10501
sI3
(lp10502
ssI2
(dp10503
I0
g10497
sI1
g10501
sI2
(lp10504
sI3
(lp10505
ssI3
(dp10506
I0
g10498
sI1
g10502
sI2
g10505
sI3
(lp10507
ssa(dp10508
I0
(dp10509
I0
(lp10510
sI1
(lp10511
Vhttp://dbpedia.org/ontology/isPartOf
p10512
aVhttp://dbpedia.org/property/subdivisionName
p10513
asI2
(lp10514
sI3
(lp10515
ssI1
(dp10516
I0
g10511
sI1
(lp10517
sI2
(lp10518
sI3
(lp10519
ssI2
(dp10520
I0
g10514
sI1
g10518
sI2
(lp10521
sI3
(lp10522
ssI3
(dp10523
I0
g10515
sI1
g10519
sI2
g10522
sI3
(lp10524
ssa(dp10525
I0
(dp10526
I0
(lp10527
sI1
(lp10528
Vhttp://dbpedia.org/ontology/abstract
p10529
aVhttp://dbpedia.org/property/imageCaption
p10530
aVhttp://www.w3.org/2000/01/rdf-schema#comment
p10531
asI2
(lp10532
sI3
(lp10533
ssI1
(dp10534
I0
g10528
sI1
(lp10535
sI2
(lp10536
sI3
(lp10537
ssI2
(dp10538
I0
g10532
sI1
g10536
sI2
(lp10539
sI3
(lp10540
ssI3
(dp10541
I0
g10533
sI1
g10537
sI2
g10540
sI3
(lp10542
ssa(dp10543
I0
(dp10544
I0
(lp10545
sI1
(lp10546
Vhttp://dbpedia.org/ontology/county
p10547
aVhttp://dbpedia.org/ontology/isPartOf
p10548
aVhttp://dbpedia.org/property/county
p10549
aVhttp://dbpedia.org/property/subdivisionName
p10550
aVhttp://dbpedia.org/property/free
p10551
asI2
(lp10552
sI3
(lp10553
ssI1
(dp10554
I0
g10546
sI1
(lp10555
sI2
(lp10556
sI3
(lp10557
ssI2
(dp10558
I0
g10552
sI1
g10556
sI2
(lp10559
sI3
(lp10560
ssI3
(dp10561
I0
g10553
sI1
g10557
sI2
g10560
sI3
(lp10562
ssa(dp10563
I0
(dp10564
I0
(lp10565
sI1
(lp10566
sI2
(lp10567
sI3
(lp10568
ssI1
(dp10569
I0
g10566
sI1
(lp10570
sI2
(lp10571
sI3
(lp10572
ssI2
(dp10573
I0
g10567
sI1
g10571
sI2
(lp10574
sI3
(lp10575
ssI3
(dp10576
I0
g10568
sI1
g10572
sI2
g10575
sI3
(lp10577
ssa(dp10578
I0
(dp10579
I0
(lp10580
sI1
(lp10581
Vhttp://dbpedia.org/ontology/isPartOf
p10582
aVhttp://dbpedia.org/property/subdivisionName
p10583
asI2
(lp10584
sI3
(lp10585
ssI1
(dp10586
I0
g10581
sI1
(lp10587
sI2
(lp10588
sI3
(lp10589
ssI2
(dp10590
I0
g10584
sI1
g10588
sI2
(lp10591
sI3
(lp10592
ssI3
(dp10593
I0
g10585
sI1
g10589
sI2
g10592
sI3
(lp10594
ssa(dp10595
I0
(dp10596
I0
(lp10597
sI1
(lp10598
sI2
(lp10599
sI3
(lp10600
ssI1
(dp10601
I0
g10598
sI1
(lp10602
sI2
(lp10603
sI3
(lp10604
ssI2
(dp10605
I0
g10599
sI1
g10603
sI2
(lp10606
sI3
(lp10607
ssI3
(dp10608
I0
g10600
sI1
g10604
sI2
g10607
sI3
(lp10609
ssa(dp10610
I0
(dp10611
I0
(lp10612
sI1
(lp10613
sI2
(lp10614
sI3
(lp10615
ssI1
(dp10616
I0
g10613
sI1
(lp10617
sI2
(lp10618
sI3
(lp10619
ssI2
(dp10620
I0
g10614
sI1
g10618
sI2
(lp10621
sI3
(lp10622
ssI3
(dp10623
I0
g10615
sI1
g10619
sI2
g10622
sI3
(lp10624
ssa(dp10625
I0
(dp10626
I0
(lp10627
sI1
(lp10628
sI2
(lp10629
sI3
(lp10630
ssI1
(dp10631
I1
(lp10632
sI2
(lp10633
sI3
(lp10634
ssI2
(dp10635
I0
g10629
sI1
g10633
sI2
(lp10636
sI3
(lp10637
ssI3
(dp10638
I0
g10630
sI1
g10634
sI2
g10637
sI3
(lp10639
ssa(dp10640
I0
(dp10641
I0
(lp10642
sI1
(lp10643
sI2
(lp10644
sI3
(lp10645
ssI1
(dp10646
I0
g10643
sI1
(lp10647
sI2
(lp10648
sI3
(lp10649
ssI2
(dp10650
I0
g10644
sI1
g10648
sI2
(lp10651
sI3
(lp10652
ssI3
(dp10653
I0
g10645
sI1
g10649
sI2
g10652
sI3
(lp10654
ssa(dp10655
I0
(dp10656
I0
(lp10657
sI1
(lp10658
sI2
(lp10659
sI3
(lp10660
ssI1
(dp10661
I0
g10658
sI1
(lp10662
sI2
(lp10663
sI3
(lp10664
ssI2
(dp10665
I0
g10659
sI1
g10663
sI2
(lp10666
sI3
(lp10667
ssI3
(dp10668
I0
g10660
sI1
g10664
sI2
g10667
sI3
(lp10669
ssa(dp10670
I0
(dp10671
I0
(lp10672
sI1
(lp10673
sI2
(lp10674
sI3
(lp10675
ssI1
(dp10676
I0
g10673
sI1
(lp10677
sI2
(lp10678
sI3
(lp10679
ssI2
(dp10680
I0
g10674
sI1
g10678
sI2
(lp10681
sI3
(lp10682
ssI3
(dp10683
I0
g10675
sI1
g10679
sI2
g10682
sI3
(lp10684
ssa(dp10685
I0
(dp10686
I0
(lp10687
sI1
(lp10688
sI2
(lp10689
sI3
(lp10690
ssI1
(dp10691
I0
g10688
sI1
(lp10692
sI2
(lp10693
sI3
(lp10694
ssI2
(dp10695
I0
g10689
sI1
g10693
sI2
(lp10696
sI3
(lp10697
ssI3
(dp10698
I0
g10690
sI1
g10694
sI2
g10697
sI3
(lp10699
ssa.