(lp1
(lp2
(lp3
a(lp4
a(lp5
aa(lp6
(lp7
a(lp8
a(lp9
aa(lp10
(lp11
a(lp12
a(lp13
aa(lp14
(lp15
a(lp16
a(lp17
aa(lp18
(lp19
a(lp20
a(lp21
((lVhttp://dbpedia.org/resource/Null
tp22
aaa(lp23
(lp24
((lVhttp://dbpedia.org/resource/Juice
tp25
aa(lp26
a(lp27
((lVhttp://dbpedia.org/resource/Null
tp28
aaa(lp29
(lp30
((lVhttp://dbpedia.org/resource/Bottled_water
tp31
aa(lp32
a(lp33
((lVhttp://dbpedia.org/resource/Null
p34
tp35
aaa.