ccollections
defaultdict
p1
(c__builtin__
dict
p2
tRp3
I1
(dp4
I1
(lp5
sI2
(lp6
sI3
(lp7
ssI4
(dp8
I1
(lp9
Vhttp://dbpedia.org/property/currencyCode
p10
asI2
(lp11
sI3
(lp12
ssI13
(dp13
I1
(lp14
sI2
(lp15
sI3
(lp16
ssI9
(dp17
I1
(lp18
sI2
(lp19
sI3
(lp20
ss.