(lp1
(lp2
(lp3
Vhttp://dbpedia.org/resource/Austria
p4
aa(lp5
Vhttp://dbpedia.org/resource/Euro,_Western_Australia
p6
aa(lp7
Vhttp://dbpedia.org/resource/Malaysia
p8
aa(lp9
aa(lp10
(lp11
Vhttp://dbpedia.org/resource/Australia
p12
aa(lp13
a(lp14
Vhttp://dbpedia.org/resource/ASCII_art
p15
aa(lp16
Vhttp://dbpedia.org/resource/Euro,_Western_Australia
p17
aaa(lp18
(lp19
Vhttp://dbpedia.org/resource/Belarus
p20
aa(lp21
a(lp22
Vhttp://dbpedia.org/resource/Morocco
p23
aa(lp24
aa(lp25
(lp26
Vhttp://dbpedia.org/resource/Belgium
p27
aa(lp28
Vhttp://dbpedia.org/resource/Euro,_Western_Australia
p29
aa(lp30
Vhttp://dbpedia.org/resource/Netherlands
p31
aa(lp32
Vhttp://dbpedia.org/resource/Euro,_Western_Australia
p33
aaa(lp34
(lp35
Vhttp://dbpedia.org/resource/Cambodia
p36
aa(lp37
a(lp38
Vhttp://dbpedia.org/resource/New_Zealand
p39
aa(lp40
aa(lp41
(lp42
Vhttp://dbpedia.org/resource/Canada
p43
aa(lp44
a(lp45
Vhttp://dbpedia.org/resource/Norway
p46
aa(lp47
Vhttp://dbpedia.org/resource/Hereditary_Kingdom_of_Norway
p48
aaa(lp49
(lp50
Vhttp://dbpedia.org/resource/China
p51
aa(lp52
a(lp53
Vhttp://dbpedia.org/resource/Peru
p54
aa(lp55
Vhttp://dbpedia.org/resource/Nuevo_Sur
p56
aaa(lp57
(lp58
Vhttp://dbpedia.org/resource/Croatia
p59
aa(lp60
a(lp61
Vhttp://dbpedia.org/resource/Poland
p62
aa(lp63
aa(lp64
(lp65
Vhttp://dbpedia.org/resource/Czech_Republic
p66
aa(lp67
a(lp68
Vhttp://dbpedia.org/resource/Romania
p69
aa(lp70
aa(lp71
(lp72
Vhttp://dbpedia.org/resource/Denmark
p73
aa(lp74
a(lp75
Vhttp://dbpedia.org/resource/Russia
p76
aa(lp77
aa(lp78
(lp79
Vhttp://dbpedia.org/resource/Egypt
p80
aa(lp81
a(lp82
Vhttp://dbpedia.org/resource/Singapore
p83
aa(lp84
aa(lp85
(lp86
Vhttp://dbpedia.org/resource/Estonia
p87
aa(lp88
Vhttp://dbpedia.org/resource/Euro,_Western_Australia
p89
aa(lp90
Vhttp://dbpedia.org/resource/Slovakia
p91
aa(lp92
Vhttp://dbpedia.org/resource/Euro,_Western_Australia
p93
aaa(lp94
(lp95
Vhttp://dbpedia.org/resource/Finland
p96
aa(lp97
Vhttp://dbpedia.org/resource/Euro,_Western_Australia
p98
aa(lp99
Vhttp://dbpedia.org/resource/Slovenia
p100
aa(lp101
Vhttp://dbpedia.org/resource/Euro,_Western_Australia
p102
aaa(lp103
(lp104
Vhttp://dbpedia.org/resource/France_2
p105
aa(lp106
Vhttp://dbpedia.org/resource/Euro,_Western_Australia
p107
aa(lp108
Vhttp://dbpedia.org/resource/South_Africa
p109
aa(lp110
Vhttp://dbpedia.org/resource/Flag_of_South_Africa
p111
aaa(lp112
(lp113
Vhttp://dbpedia.org/resource/Germany
p114
aa(lp115
Vhttp://dbpedia.org/resource/Euro,_Western_Australia
p116
aa(lp117
Vhttp://dbpedia.org/resource/Spain
p118
aa(lp119
Vhttp://dbpedia.org/resource/Euro,_Western_Australia
p120
aaa(lp121
(lp122
Vhttp://dbpedia.org/resource/Greece
p123
aa(lp124
Vhttp://dbpedia.org/resource/Euro,_Western_Australia
p125
aa(lp126
Vhttp://dbpedia.org/resource/Sweden
p127
aa(lp128
aa(lp129
(lp130
Vhttp://dbpedia.org/resource/Hungary
p131
aa(lp132
a(lp133
Vhttp://dbpedia.org/resource/Switzerland
p134
aa(lp135
aa(lp136
(lp137
Vhttp://dbpedia.org/resource/Ireland
p138
aa(lp139
Vhttp://dbpedia.org/resource/Euro,_Western_Australia
p140
aa(lp141
Vhttp://dbpedia.org/resource/Thailand
p142
aa(lp143
Vhttp://dbpedia.org/resource/Living_River_Siam
p144
aaa(lp145
(lp146
Vhttp://dbpedia.org/resource/Italy
p147
aa(lp148
Vhttp://dbpedia.org/resource/Euro,_Western_Australia
p149
aa(lp150
Vhttp://dbpedia.org/resource/Turkey
p151
aa(lp152
aa(lp153
(lp154
Vhttp://dbpedia.org/resource/India
p155
aa(lp156
a(lp157
Vhttp://dbpedia.org/resource/Ukraine
p158
aa(lp159
aa.