(lp1
(lp2
(lp3
a(lp4
a(lp5
a(lp6
a(lp7
a(lp8
a(lp9
a(lp10
a(lp11
a(lp12
a(lp13
a(lp14
a(lp15
a(lp16
a(lp17
a(lp18
a(lp19
a(lp20
a(lp21
a(lp22
a(lp23
a(lp24
a(lp25
a(lp26
a(lp27
aa(lp28
(lp29
((lp30
Vhttp://www.w3.org/2002/07/owl#Thing
p31
aVhttp://www.ontologydesignpatterns.org/ont/dul/DUL.owl#Agent
p32
aVhttp://www.ontologydesignpatterns.org/ont/dul/DUL.owl#SocialPerson
p33
aVhttp://www.wikidata.org/entity/Q3918
p34
aVhttp://www.wikidata.org/entity/Q43229
p35
aVhttp://dbpedia.org/ontology/Agent
p36
aVhttp://dbpedia.org/ontology/EducationalInstitution
p37
aVhttp://dbpedia.org/ontology/Organisation
p38
aVhttp://dbpedia.org/ontology/University
p39
aVhttp://schema.org/CollegeOrUniversity
p40
aVhttp://schema.org/EducationalOrganization
p41
aVhttp://schema.org/Organization
p42
aVhttp://umbel.org/umbel/rc/EducationalOrganization
p43
aVhttp://umbel.org/umbel/rc/Organization
p44
aVhttp://umbel.org/umbel/rc/University
p45
aVhttp://dbpedia.org/class/yago/Abstraction100002137
p46
aVhttp://dbpedia.org/class/yago/Association108049401
p47
aVhttp://dbpedia.org/class/yago/EducationalInstitution108276342
p48
aVhttp://dbpedia.org/class/yago/Group100031264
p49
aVhttp://dbpedia.org/class/yago/Institute108407330
p50
aVhttp://dbpedia.org/class/yago/Institution108053576
p51
aVhttp://dbpedia.org/class/yago/Organization108008335
p52
aVhttp://dbpedia.org/class/yago/SocialGroup107950920
p53
aVhttp://dbpedia.org/class/yago/University108286569
p54
aVhttp://dbpedia.org/class/yago/YagoLegalActorGeo
p55
aVhttp://dbpedia.org/class/yago/EducationalInstitutionsEstablishedIn1861
p56
aVhttp://dbpedia.org/class/yago/EngineeringUniversitiesAndCollegesInMassachusetts
p57
aVhttp://dbpedia.org/class/yago/YagoPermanentlyLocatedEntity
p58
aVhttp://dbpedia.org/class/yago/GlassScienceInstitutes
p59
aVhttp://dbpedia.org/class/yago/Land-grantUniversitiesAndColleges
p60
aVhttp://dbpedia.org/class/yago/YagoLegalActor
p61
aVhttp://dbpedia.org/class/yago/TechnicalUniversitiesAndColleges
p62
aVhttp://dbpedia.org/class/yago/UniversitiesAndCollegesInCambridge,Massachusetts
p63
aVhttp://dbpedia.org/resource/Massachusetts_Institute_of_Technology
tp64
aa(lp65
a(lp66
a(lp67
a(lp68
a(lp69
a(lp70
a(lp71
a(lp72
a(lp73
a(lp74
a(lp75
a(lp76
a(lp77
a(lp78
a(lp79
a(lp80
a(lp81
a(lp82
a(lp83
a(lp84
a(lp85
a(lp86
a(lp87
a(lp88
aa(lp89
(lp90
((lp91
Vhttp://www.w3.org/2002/07/owl#Thing
p92
aVhttp://www.ontologydesignpatterns.org/ont/dul/DUL.owl#Agent
p93
aVhttp://www.ontologydesignpatterns.org/ont/dul/DUL.owl#SocialPerson
p94
aVhttp://www.wikidata.org/entity/Q3918
p95
aVhttp://www.wikidata.org/entity/Q43229
p96
aVhttp://dbpedia.org/ontology/Agent
p97
aVhttp://dbpedia.org/ontology/EducationalInstitution
p98
aVhttp://dbpedia.org/ontology/Organisation
p99
aVhttp://dbpedia.org/ontology/University
p100
aVhttp://schema.org/CollegeOrUniversity
p101
aVhttp://schema.org/EducationalOrganization
p102
aVhttp://schema.org/Organization
p103
aVhttp://umbel.org/umbel/rc/EducationalOrganization
p104
aVhttp://umbel.org/umbel/rc/Organization
p105
aVhttp://umbel.org/umbel/rc/University
p106
aVhttp://dbpedia.org/class/yago/Abstraction100002137
p107
aVhttp://dbpedia.org/class/yago/EducationalInstitution108276342
p108
aVhttp://dbpedia.org/class/yago/Group100031264
p109
aVhttp://dbpedia.org/class/yago/Institution108053576
p110
aVhttp://dbpedia.org/class/yago/Organization108008335
p111
aVhttp://dbpedia.org/class/yago/School108276720
p112
aVhttp://dbpedia.org/class/yago/SocialGroup107950920
p113
aVhttp://dbpedia.org/class/yago/University108286569
p114
aVhttp://dbpedia.org/class/yago/YagoLegalActorGeo
p115
aVhttp://dbpedia.org/class/yago/EducationalInstitutionsEstablishedIn1891
p116
aVhttp://dbpedia.org/class/yago/YagoPermanentlyLocatedEntity
p117
aVhttp://dbpedia.org/class/yago/YagoLegalActor
p118
aVhttp://dbpedia.org/class/yago/SchoolsAccreditedByTheWesternAssociationOfSchoolsAndColleges
p119
aVhttp://dbpedia.org/class/yago/TechnicalUniversitiesAndColleges
p120
aVhttp://dbpedia.org/class/yago/UniversitiesAndCollegesInLosAngelesCounty,California
p121
aVhttp://dbpedia.org/resource/California_Institute_of_Technology
tp122
aa(lp123
a(lp124
a(lp125
a(lp126
a(lp127
a(lp128
a(lp129
a(lp130
a(lp131
a(lp132
a(lp133
a(lp134
a(lp135
a(lp136
a(lp137
a(lp138
a(lp139
a(lp140
a(lp141
a(lp142
a(lp143
a(lp144
a(lp145
a(lp146
aa(lp147
(lp148
((lp149
Vhttp://www.w3.org/2002/07/owl#Thing
p150
aVhttp://www.ontologydesignpatterns.org/ont/dul/DUL.owl#Agent
p151
aVhttp://www.ontologydesignpatterns.org/ont/dul/DUL.owl#SocialPerson
p152
aVhttp://www.wikidata.org/entity/Q3918
p153
aVhttp://www.wikidata.org/entity/Q43229
p154
aVhttp://dbpedia.org/ontology/Agent
p155
aVhttp://dbpedia.org/ontology/EducationalInstitution
p156
aVhttp://dbpedia.org/ontology/Organisation
p157
aVhttp://dbpedia.org/ontology/University
p158
aVhttp://schema.org/CollegeOrUniversity
p159
aVhttp://schema.org/EducationalOrganization
p160
aVhttp://schema.org/Organization
p161
aVhttp://umbel.org/umbel/rc/EducationalOrganization
p162
aVhttp://umbel.org/umbel/rc/Organization
p163
aVhttp://umbel.org/umbel/rc/University
p164
aVhttp://dbpedia.org/class/yago/Abstraction100002137
p165
aVhttp://dbpedia.org/class/yago/EducationalInstitution108276342
p166
aVhttp://dbpedia.org/class/yago/Group100031264
p167
aVhttp://dbpedia.org/class/yago/Institution108053576
p168
aVhttp://dbpedia.org/class/yago/Organization108008335
p169
aVhttp://dbpedia.org/class/yago/SocialGroup107950920
p170
aVhttp://dbpedia.org/class/yago/University108286569
p171
aVhttp://dbpedia.org/class/yago/YagoLegalActorGeo
p172
aVhttp://dbpedia.org/class/yago/EducationalInstitutionsEstablishedIn1883
p173
aVhttp://dbpedia.org/class/yago/FlagshipUniversitiesInTheUnitedStates
p174
aVhttp://dbpedia.org/class/yago/YagoPermanentlyLocatedEntity
p175
aVhttp://dbpedia.org/class/yago/OakRidgeAssociatedUniversities
p176
aVhttp://dbpedia.org/class/yago/YagoLegalActor
p177
aVhttp://dbpedia.org/class/yago/PublicUniversities
p178
aVhttp://dbpedia.org/class/yago/UniversitiesAndCollegesAccreditedByTheSouthernAssociationOfCollegesAndSchools
p179
aVhttp://dbpedia.org/class/yago/UniversitiesAndCollegesInAustin,Texas
p180
aVhttp://dbpedia.org/resource/University_of_Texas_at_Austin
tp181
aa(lp182
a(lp183
a(lp184
a(lp185
a(lp186
a(lp187
a(lp188
a(lp189
a(lp190
a(lp191
a(lp192
a(lp193
a(lp194
a(lp195
a(lp196
a(lp197
a(lp198
a(lp199
a(lp200
a(lp201
a(lp202
a(lp203
a(lp204
a(lp205
aa(lp206
(lp207
((lp208
Vhttp://www.w3.org/2002/07/owl#Thing
p209
aVhttp://umbel.org/umbel/rc/EducationalOrganization
p210
aVhttp://umbel.org/umbel/rc/Organization
p211
aVhttp://umbel.org/umbel/rc/University
p212
aVhttp://dbpedia.org/class/yago/Abstraction100002137
p213
aVhttp://dbpedia.org/class/yago/EducationalInstitution108276342
p214
aVhttp://dbpedia.org/class/yago/Group100031264
p215
aVhttp://dbpedia.org/class/yago/Institution108053576
p216
aVhttp://dbpedia.org/class/yago/Organization108008335
p217
aVhttp://dbpedia.org/class/yago/School108276720
p218
aVhttp://dbpedia.org/class/yago/SocialGroup107950920
p219
aVhttp://dbpedia.org/class/yago/University108286569
p220
aVhttp://dbpedia.org/class/yago/YagoLegalActorGeo
p221
aVhttp://dbpedia.org/class/yago/EducationalInstitutionsEstablishedIn1891
p222
aVhttp://dbpedia.org/class/yago/YagoPermanentlyLocatedEntity
p223
aVhttp://dbpedia.org/class/yago/YagoLegalActor
p224
aVhttp://dbpedia.org/class/yago/SchoolsAccreditedByTheWesternAssociationOfSchoolsAndColleges
p225
aVhttp://dbpedia.org/class/yago/UniversitiesAndCollegesInSantaClaraCounty,California
p226
aVhttp://dbpedia.org/resource/Stanford_University
tp227
aa(lp228
a(lp229
a(lp230
a(lp231
a(lp232
a(lp233
a(lp234
a(lp235
a(lp236
a(lp237
a(lp238
a(lp239
a(lp240
a(lp241
a(lp242
a(lp243
a(lp244
a(lp245
a(lp246
a(lp247
a(lp248
a(lp249
a(lp250
a(lp251
aa(lp252
(lp253
((lp254
Vhttp://dbpedia.org/class/yago/Abstraction100002137
p255
aVhttp://dbpedia.org/class/yago/Group100031264
p256
aVhttp://dbpedia.org/class/yago/Organization108008335
p257
aVhttp://dbpedia.org/class/yago/SocialGroup107950920
p258
aVhttp://dbpedia.org/class/yago/YagoLegalActorGeo
p259
aVhttp://dbpedia.org/class/yago/YagoPermanentlyLocatedEntity
p260
aVhttp://dbpedia.org/class/yago/Non-profitOrganizationsBasedInTheUnitedStates
p261
aVhttp://dbpedia.org/class/yago/Non-profitOrganizationsBasedInWisconsin
p262
aVhttp://dbpedia.org/class/yago/YagoLegalActor
p263
aVhttp://dbpedia.org/resource/Wisconsin_Alumni_Research_Foundation
tp264
aa(lp265
a(lp266
a(lp267
a(lp268
a(lp269
a(lp270
a(lp271
a(lp272
a(lp273
a(lp274
a(lp275
a(lp276
a(lp277
a(lp278
a(lp279
a(lp280
a(lp281
a(lp282
a(lp283
a(lp284
a(lp285
a(lp286
a(lp287
a(lp288
aa(lp289
(lp290
((lp291
Vhttp://www.w3.org/2002/07/owl#Thing
p292
aVhttp://www.ontologydesignpatterns.org/ont/dul/DUL.owl#Agent
p293
aVhttp://www.ontologydesignpatterns.org/ont/dul/DUL.owl#SocialPerson
p294
aVhttp://www.wikidata.org/entity/Q3918
p295
aVhttp://www.wikidata.org/entity/Q43229
p296
aVhttp://dbpedia.org/ontology/Agent
p297
aVhttp://dbpedia.org/ontology/EducationalInstitution
p298
aVhttp://dbpedia.org/ontology/Organisation
p299
aVhttp://dbpedia.org/ontology/University
p300
aVhttp://schema.org/CollegeOrUniversity
p301
aVhttp://schema.org/EducationalOrganization
p302
aVhttp://schema.org/Organization
p303
aVhttp://umbel.org/umbel/rc/EducationalOrganization
p304
aVhttp://umbel.org/umbel/rc/Organization
p305
aVhttp://umbel.org/umbel/rc/University
p306
aVhttp://dbpedia.org/class/yago/Abstraction100002137
p307
aVhttp://dbpedia.org/class/yago/EducationalInstitution108276342
p308
aVhttp://dbpedia.org/class/yago/Group100031264
p309
aVhttp://dbpedia.org/class/yago/Institution108053576
p310
aVhttp://dbpedia.org/class/yago/Organization108008335
p311
aVhttp://dbpedia.org/class/yago/SocialGroup107950920
p312
aVhttp://dbpedia.org/class/yago/University108286569
p313
aVhttp://dbpedia.org/class/yago/YagoLegalActorGeo
p314
aVhttp://dbpedia.org/class/yago/EducationalInstitutionsEstablishedIn1876
p315
aVhttp://dbpedia.org/class/yago/YagoPermanentlyLocatedEntity
p316
aVhttp://dbpedia.org/class/yago/OakRidgeAssociatedUniversities
p317
aVhttp://dbpedia.org/class/yago/YagoLegalActor
p318
aVhttp://dbpedia.org/class/yago/UniversitiesAndCollegesInBaltimore,Maryland
p319
aVhttp://dbpedia.org/resource/Johns_Hopkins_University
tp320
aa(lp321
((lVhttp://dbpedia.org/resource/Direct_bs/md
tp322
aa(lp323
a(lp324
a(lp325
a(lp326
a(lp327
a(lp328
a(lp329
a(lp330
a(lp331
a(lp332
a(lp333
a(lp334
a(lp335
a(lp336
a(lp337
a(lp338
a(lp339
a(lp340
a(lp341
a(lp342
a(lp343
a(lp344
a(lp345
aa(lp346
(lp347
a(lp348
a(lp349
a(lp350
a(lp351
a(lp352
a(lp353
a(lp354
a(lp355
a(lp356
a(lp357
a(lp358
a(lp359
a(lp360
a(lp361
a(lp362
a(lp363
a(lp364
a(lp365
a(lp366
a(lp367
a(lp368
a(lp369
a(lp370
a(lp371
aa(lp372
(lp373
((lp374
Vhttp://www.w3.org/2002/07/owl#Thing
p375
aVhttp://www.ontologydesignpatterns.org/ont/dul/DUL.owl#Agent
p376
aVhttp://www.ontologydesignpatterns.org/ont/dul/DUL.owl#SocialPerson
p377
aVhttp://www.wikidata.org/entity/Q3918
p378
aVhttp://www.wikidata.org/entity/Q43229
p379
aVhttp://dbpedia.org/ontology/Agent
p380
aVhttp://dbpedia.org/ontology/EducationalInstitution
p381
aVhttp://dbpedia.org/ontology/Organisation
p382
aVhttp://dbpedia.org/ontology/University
p383
aVhttp://schema.org/CollegeOrUniversity
p384
aVhttp://schema.org/EducationalOrganization
p385
aVhttp://schema.org/Organization
p386
aVhttp://umbel.org/umbel/rc/EducationalOrganization
p387
aVhttp://umbel.org/umbel/rc/Organization
p388
aVhttp://umbel.org/umbel/rc/University
p389
aVhttp://dbpedia.org/class/yago/Abstraction100002137
p390
aVhttp://dbpedia.org/class/yago/EducationalInstitution108276342
p391
aVhttp://dbpedia.org/class/yago/Group100031264
p392
aVhttp://dbpedia.org/class/yago/Institution108053576
p393
aVhttp://dbpedia.org/class/yago/Organization108008335
p394
aVhttp://dbpedia.org/class/yago/School108276720
p395
aVhttp://dbpedia.org/class/yago/SocialGroup107950920
p396
aVhttp://dbpedia.org/class/yago/University108286569
p397
aVhttp://dbpedia.org/class/yago/YagoLegalActorGeo
p398
aVhttp://dbpedia.org/class/yago/EducationalInstitutionsEstablishedIn1817
p399
aVhttp://dbpedia.org/class/yago/YagoPermanentlyLocatedEntity
p400
aVhttp://dbpedia.org/class/yago/OakRidgeAssociatedUniversities
p401
aVhttp://dbpedia.org/class/yago/YagoLegalActor
p402
aVhttp://dbpedia.org/class/yago/SchoolsOfPublicHealthInTheUnitedStates
p403
aVhttp://dbpedia.org/class/yago/UniversitiesAndCollegesInMichigan
p404
aVhttp://dbpedia.org/class/yago/UniversitiesAndCollegesInWashtenawCounty,Michigan
p405
aVhttp://dbpedia.org/resource/University_of_Michigan
tp406
aa(lp407
a(lp408
a(lp409
a(lp410
a(lp411
a(lp412
a(lp413
a(lp414
a(lp415
a(lp416
a(lp417
a(lp418
a(lp419
a(lp420
a(lp421
a(lp422
a(lp423
a(lp424
a(lp425
a(lp426
a(lp427
a(lp428
a(lp429
a(lp430
aa(lp431
(lp432
a(lp433
a(lp434
a(lp435
a(lp436
a(lp437
a(lp438
a(lp439
a(lp440
a(lp441
a(lp442
a(lp443
a(lp444
a(lp445
a(lp446
a(lp447
a(lp448
a(lp449
a(lp450
a(lp451
a(lp452
a(lp453
a(lp454
a(lp455
a(lp456
aa(lp457
(lp458
a(lp459
a(lp460
a(lp461
a(lp462
a(lp463
a(lp464
a(lp465
a(lp466
a(lp467
a(lp468
a(lp469
a(lp470
a(lp471
a(lp472
a(lp473
a(lp474
a(lp475
a(lp476
a(lp477
a(lp478
a(lp479
a(lp480
a(lp481
a(lp482
aa(lp483
(lp484
((lp485
Vhttp://www.w3.org/2002/07/owl#Thing
p486
aVhttp://www.ontologydesignpatterns.org/ont/dul/DUL.owl#Agent
p487
aVhttp://www.ontologydesignpatterns.org/ont/dul/DUL.owl#SocialPerson
p488
aVhttp://www.wikidata.org/entity/Q3918
p489
aVhttp://www.wikidata.org/entity/Q43229
p490
aVhttp://dbpedia.org/ontology/Agent
p491
aVhttp://dbpedia.org/ontology/EducationalInstitution
p492
aVhttp://dbpedia.org/ontology/Organisation
p493
aVhttp://dbpedia.org/ontology/University
p494
aVhttp://schema.org/CollegeOrUniversity
p495
aVhttp://schema.org/EducationalOrganization
p496
aVhttp://schema.org/Organization
p497
aVhttp://umbel.org/umbel/rc/EducationalOrganization
p498
aVhttp://umbel.org/umbel/rc/Organization
p499
aVhttp://umbel.org/umbel/rc/University
p500
aVhttp://dbpedia.org/class/yago/Abstraction100002137
p501
aVhttp://dbpedia.org/class/yago/EducationalInstitution108276342
p502
aVhttp://dbpedia.org/class/yago/Group100031264
p503
aVhttp://dbpedia.org/class/yago/Institution108053576
p504
aVhttp://dbpedia.org/class/yago/Organization108008335
p505
aVhttp://dbpedia.org/class/yago/SocialGroup107950920
p506
aVhttp://dbpedia.org/class/yago/University108286569
p507
aVhttp://dbpedia.org/class/yago/YagoLegalActorGeo
p508
aVhttp://dbpedia.org/class/yago/EducationalInstitutionsEstablishedInThe1750s
p509
aVhttp://dbpedia.org/class/yago/YagoPermanentlyLocatedEntity
p510
aVhttp://dbpedia.org/class/yago/OrganizationsEstablishedIn1754
p511
aVhttp://dbpedia.org/class/yago/YagoLegalActor
p512
aVhttp://dbpedia.org/class/yago/UniversitiesAndCollegesInManhattan
p513
aVhttp://dbpedia.org/resource/Columbia_University
tp514
aa(lp515
a(lp516
a(lp517
a(lp518
a(lp519
a(lp520
a(lp521
a(lp522
a(lp523
a(lp524
a(lp525
a(lp526
a(lp527
a(lp528
a(lp529
a(lp530
a(lp531
a(lp532
a(lp533
a(lp534
a(lp535
a(lp536
a(lp537
a(lp538
aa(lp539
(lp540
((lp541
Vhttp://www.w3.org/2002/07/owl#Thing
p542
aVhttp://www.ontologydesignpatterns.org/ont/dul/DUL.owl#Agent
p543
aVhttp://www.ontologydesignpatterns.org/ont/dul/DUL.owl#SocialPerson
p544
aVhttp://www.wikidata.org/entity/Q3918
p545
aVhttp://www.wikidata.org/entity/Q43229
p546
aVhttp://dbpedia.org/ontology/Agent
p547
aVhttp://dbpedia.org/ontology/EducationalInstitution
p548
aVhttp://dbpedia.org/ontology/Organisation
p549
aVhttp://dbpedia.org/ontology/University
p550
aVhttp://schema.org/CollegeOrUniversity
p551
aVhttp://schema.org/EducationalOrganization
p552
aVhttp://schema.org/Organization
p553
aVhttp://umbel.org/umbel/rc/EducationalOrganization
p554
aVhttp://umbel.org/umbel/rc/Organization
p555
aVhttp://umbel.org/umbel/rc/University
p556
aVhttp://dbpedia.org/class/yago/Abstraction100002137
p557
aVhttp://dbpedia.org/class/yago/EducationalInstitution108276342
p558
aVhttp://dbpedia.org/class/yago/Group100031264
p559
aVhttp://dbpedia.org/class/yago/Institution108053576
p560
aVhttp://dbpedia.org/class/yago/Organization108008335
p561
aVhttp://dbpedia.org/class/yago/SocialGroup107950920
p562
aVhttp://dbpedia.org/class/yago/University108286569
p563
aVhttp://dbpedia.org/class/yago/YagoLegalActorGeo
p564
aVhttp://dbpedia.org/class/yago/EducationalInstitutionsEstablishedInThe1740s
p565
aVhttp://dbpedia.org/class/yago/YagoPermanentlyLocatedEntity
p566
aVhttp://dbpedia.org/class/yago/YagoLegalActor
p567
aVhttp://dbpedia.org/class/yago/UniversitiesAndCollegesInPennsylvania
p568
aVhttp://dbpedia.org/class/yago/UniversitiesAndCollegesInPhiladelphia,Pennsylvania
p569
aVhttp://dbpedia.org/resource/University_of_Pennsylvania
tp570
aa(lp571
a(lp572
a(lp573
a(lp574
a(lp575
a(lp576
a(lp577
a(lp578
a(lp579
a(lp580
a(lp581
a(lp582
a(lp583
a(lp584
a(lp585
a(lp586
a(lp587
a(lp588
a(lp589
a(lp590
a(lp591
a(lp592
a(lp593
a(lp594
aa(lp595
(lp596
a(lp597
a(lp598
a(lp599
a(lp600
a(lp601
a(lp602
a(lp603
a(lp604
a(lp605
a(lp606
a(lp607
a(lp608
a(lp609
a(lp610
a(lp611
a(lp612
a(lp613
a(lp614
a(lp615
a(lp616
a(lp617
a(lp618
a(lp619
a(lp620
aa(lp621
(lp622
((lVhttp://dbpedia.org/resource/Research_Corporation
tp623
aa(lp624
a(lp625
a(lp626
a(lp627
a(lp628
a(lp629
a(lp630
a(lp631
a(lp632
a(lp633
a(lp634
a(lp635
a(lp636
a(lp637
a(lp638
a(lp639
a(lp640
a(lp641
a(lp642
a(lp643
a(lp644
a(lp645
a(lp646
a(lp647
aa(lp648
(lp649
((lp650
Vhttp://www.w3.org/2002/07/owl#Thing
p651
aVhttp://www.ontologydesignpatterns.org/ont/dul/DUL.owl#Agent
p652
aVhttp://www.ontologydesignpatterns.org/ont/dul/DUL.owl#SocialPerson
p653
aVhttp://www.wikidata.org/entity/Q3918
p654
aVhttp://www.wikidata.org/entity/Q43229
p655
aVhttp://dbpedia.org/ontology/Agent
p656
aVhttp://dbpedia.org/ontology/EducationalInstitution
p657
aVhttp://dbpedia.org/ontology/Organisation
p658
aVhttp://dbpedia.org/ontology/University
p659
aVhttp://schema.org/CollegeOrUniversity
p660
aVhttp://schema.org/EducationalOrganization
p661
aVhttp://schema.org/Organization
p662
aVhttp://umbel.org/umbel/rc/EducationalOrganization
p663
aVhttp://umbel.org/umbel/rc/Organization
p664
aVhttp://umbel.org/umbel/rc/University
p665
aVhttp://dbpedia.org/class/yago/Abstraction100002137
p666
aVhttp://dbpedia.org/class/yago/EducationalInstitution108276342
p667
aVhttp://dbpedia.org/class/yago/Group100031264
p668
aVhttp://dbpedia.org/class/yago/Institution108053576
p669
aVhttp://dbpedia.org/class/yago/Organization108008335
p670
aVhttp://dbpedia.org/class/yago/SocialGroup107950920
p671
aVhttp://dbpedia.org/class/yago/University108286569
p672
aVhttp://dbpedia.org/class/yago/YagoLegalActorGeo
p673
aVhttp://dbpedia.org/class/yago/EducationalInstitutionsEstablishedIn1855
p674
aVhttp://dbpedia.org/class/yago/YagoPermanentlyLocatedEntity
p675
aVhttp://dbpedia.org/class/yago/Land-grantUniversitiesAndColleges
p676
aVhttp://dbpedia.org/class/yago/OakRidgeAssociatedUniversities
p677
aVhttp://dbpedia.org/class/yago/YagoLegalActor
p678
aVhttp://dbpedia.org/class/yago/UniversitiesAndCollegesInInghamCounty.Michigan
p679
aVhttp://dbpedia.org/class/yago/UniversitiesAndCollegesInMichigan
p680
aVhttp://dbpedia.org/resource/Michigan_State_University
tp681
aa(lp682
a(lp683
a(lp684
a(lp685
a(lp686
a(lp687
a(lp688
a(lp689
a(lp690
a(lp691
a(lp692
a(lp693
a(lp694
a(lp695
a(lp696
a(lp697
a(lp698
a(lp699
a(lp700
a(lp701
a(lp702
a(lp703
a(lp704
a(lp705
aa(lp706
(lp707
a(lp708
a(lp709
a(lp710
a(lp711
a(lp712
a(lp713
a(lp714
a(lp715
a(lp716
a(lp717
a(lp718
a(lp719
a(lp720
a(lp721
a(lp722
a(lp723
a(lp724
a(lp725
a(lp726
a(lp727
a(lp728
a(lp729
a(lp730
a(lp731
aa(lp732
(lp733
a(lp734
a(lp735
a(lp736
a(lp737
a(lp738
a(lp739
a(lp740
a(lp741
a(lp742
a(lp743
a(lp744
a(lp745
a(lp746
a(lp747
a(lp748
a(lp749
a(lp750
a(lp751
a(lp752
a(lp753
a(lp754
a(lp755
a(lp756
a(lp757
aa(lp758
(lp759
((lp760
Vhttp://www.w3.org/2002/07/owl#Thing
p761
aVhttp://www.ontologydesignpatterns.org/ont/dul/DUL.owl#Agent
p762
aVhttp://www.ontologydesignpatterns.org/ont/dul/DUL.owl#SocialPerson
p763
aVhttp://www.wikidata.org/entity/Q3918
p764
aVhttp://www.wikidata.org/entity/Q43229
p765
aVhttp://dbpedia.org/ontology/Agent
p766
aVhttp://dbpedia.org/ontology/EducationalInstitution
p767
aVhttp://dbpedia.org/ontology/Organisation
p768
aVhttp://dbpedia.org/ontology/University
p769
aVhttp://schema.org/CollegeOrUniversity
p770
aVhttp://schema.org/EducationalOrganization
p771
aVhttp://schema.org/Organization
p772
aVhttp://umbel.org/umbel/rc/EducationalOrganization
p773
aVhttp://umbel.org/umbel/rc/Organization
p774
aVhttp://umbel.org/umbel/rc/University
p775
aVhttp://dbpedia.org/class/yago/Abstraction100002137
p776
aVhttp://dbpedia.org/class/yago/Association108049401
p777
aVhttp://dbpedia.org/class/yago/EducationalInstitution108276342
p778
aVhttp://dbpedia.org/class/yago/Group100031264
p779
aVhttp://dbpedia.org/class/yago/Institute108407330
p780
aVhttp://dbpedia.org/class/yago/Institution108053576
p781
aVhttp://dbpedia.org/class/yago/Organization108008335
p782
aVhttp://dbpedia.org/class/yago/SocialGroup107950920
p783
aVhttp://dbpedia.org/class/yago/University108286569
p784
aVhttp://dbpedia.org/class/yago/YagoLegalActorGeo
p785
aVhttp://dbpedia.org/class/yago/EducationalInstitutionsEstablishedIn1861
p786
aVhttp://dbpedia.org/class/yago/FlagshipUniversitiesInTheUnitedStates
p787
aVhttp://dbpedia.org/class/yago/YagoPermanentlyLocatedEntity
p788
aVhttp://dbpedia.org/class/yago/GlassScienceInstitutes
p789
aVhttp://dbpedia.org/class/yago/YagoLegalActor
p790
aVhttp://dbpedia.org/class/yago/ResearchInstitutesInSeattle,Washington
p791
aVhttp://dbpedia.org/class/yago/UniversitiesAndCollegesAccreditedByTheNorthwestCommissionOnCollegesAndUniversities
p792
aVhttp://dbpedia.org/class/yago/UniversitiesAndCollegesInSeattle,Washington
p793
aVhttp://dbpedia.org/resource/University_of_Washington
tp794
aa(lp795
a(lp796
a(lp797
a(lp798
a(lp799
a(lp800
a(lp801
a(lp802
a(lp803
a(lp804
a(lp805
a(lp806
a(lp807
a(lp808
a(lp809
a(lp810
a(lp811
a(lp812
a(lp813
a(lp814
a(lp815
a(lp816
a(lp817
a(lp818
aa(lp819
(lp820
((lp821
Vhttp://www.w3.org/2002/07/owl#Thing
p822
aVhttp://umbel.org/umbel/rc/EducationalOrganization
p823
aVhttp://umbel.org/umbel/rc/Organization
p824
aVhttp://umbel.org/umbel/rc/University
p825
aVhttp://dbpedia.org/class/yago/Abstraction100002137
p826
aVhttp://dbpedia.org/class/yago/ArchitectureSchoolsInFlorida
p827
aVhttp://dbpedia.org/class/yago/Association108049401
p828
aVhttp://dbpedia.org/class/yago/EducationalInstitution108276342
p829
aVhttp://dbpedia.org/class/yago/Group100031264
p830
aVhttp://dbpedia.org/class/yago/Institute108407330
p831
aVhttp://dbpedia.org/class/yago/Institution108053576
p832
aVhttp://dbpedia.org/class/yago/Organization108008335
p833
aVhttp://dbpedia.org/class/yago/School108276720
p834
aVhttp://dbpedia.org/class/yago/SocialGroup107950920
p835
aVhttp://dbpedia.org/class/yago/University108286569
p836
aVhttp://dbpedia.org/class/yago/YagoLegalActorGeo
p837
aVhttp://dbpedia.org/class/yago/EducationalInstitutionsEstablishedIn1853
p838
aVhttp://dbpedia.org/class/yago/FlagshipUniversitiesInTheUnitedStates
p839
aVhttp://dbpedia.org/class/yago/YagoPermanentlyLocatedEntity
p840
aVhttp://dbpedia.org/class/yago/GlassScienceInstitutes
p841
aVhttp://dbpedia.org/class/yago/YagoLegalActor
p842
aVhttp://dbpedia.org/class/yago/UniversitiesAndCollegesAccreditedByTheSouthernAssociationOfCollegesAndSchools
p843
aVhttp://dbpedia.org/class/yago/UniversitiesAndCollegesInFlorida
p844
aVhttp://dbpedia.org/resource/University_of_Florida
p845
tp846
aa(lp847
a(lp848
a(lp849
a(lp850
a(lp851
a(lp852
a(lp853
a(lp854
a(lp855
a(lp856
a(lp857
a(lp858
a(lp859
a(lp860
a(lp861
a(lp862
a(lp863
a(lp864
a(lp865
a(lp866
a(lp867
a(lp868
a(lp869
a(lp870
aa.