(lp1
(lp2
(lp3
a(lp4
a(lp5
a(lp6
aa(lp7
(lp8
a(lp9
a(lp10
a(lp11
((lp12
Vhttp://dbpedia.org/class/yago/Abstraction100002137
p13
aVhttp://dbpedia.org/class/yago/EducationalInstitution108276342
p14
aVhttp://dbpedia.org/class/yago/Group100031264
p15
aVhttp://dbpedia.org/class/yago/Institution108053576
p16
aVhttp://dbpedia.org/class/yago/Organization108008335
p17
aVhttp://dbpedia.org/class/yago/School108276720
p18
aVhttp://dbpedia.org/class/yago/SecondarySchool108284481
p19
aVhttp://dbpedia.org/class/yago/SeniorHighSchool108409617
p20
aVhttp://dbpedia.org/class/yago/SocialGroup107950920
p21
aVhttp://dbpedia.org/class/yago/YagoLegalActorGeo
p22
aVhttp://dbpedia.org/class/yago/YagoPermanentlyLocatedEntity
p23
aVhttp://dbpedia.org/class/yago/YagoLegalActor
p24
aVhttp://dbpedia.org/class/yago/HighSchoolsInThePhilippines
p25
aVhttp://dbpedia.org/resource/Batanes_National_Science_High_School
tp26
aaa(lp27
(lp28
a(lp29
a(lp30
a(lp31
aa(lp32
(lp33
a(lp34
a(lp35
a(lp36
((lp37
Vhttp://dbpedia.org/class/yago/AdministrativeDistrict108491826
p38
aVhttp://dbpedia.org/class/yago/District108552138
p39
aVhttp://dbpedia.org/class/yago/Location100027167
p40
aVhttp://dbpedia.org/class/yago/Object100002684
p41
aVhttp://dbpedia.org/class/yago/Region108630985
p42
aVhttp://dbpedia.org/class/yago/YagoGeoEntity
p43
aVhttp://dbpedia.org/class/yago/YagoLegalActorGeo
p44
aVhttp://dbpedia.org/class/yago/SchoolDistrictsInShackelfordCounty,Texas
p45
aVhttp://dbpedia.org/class/yago/SchoolDistrictsInStephensCounty,Texas
p46
aVhttp://dbpedia.org/class/yago/SchoolDistrictsInTexas
p47
aVhttp://www.w3.org/2002/07/owl#Thing
p48
aVhttp://xmlns.com/foaf/0.1/Organization
p49
aVhttp://dbpedia.org/ontology/Place
p50
aVhttp://dbpedia.org/ontology/Location
p51
aVhttp://www.wikidata.org/entity/Q486972
p52
aVhttp://dbpedia.org/ontology/PopulatedPlace
p53
aVhttp://www.w3.org/2003/01/geo/wgs84_pos#SpatialThing
p54
aVhttp://schema.org/Place
p55
aVhttp://dbpedia.org/class/yago/YagoPermanentlyLocatedEntity
p56
aVhttp://dbpedia.org/class/yago/PhysicalEntity100001930
p57
aVhttp://dbpedia.org/class/yago/SchoolDistrict108587709
p58
aVhttp://dbpedia.org/resource/Albany_Independent_School_District
tp59
aaa(lp60
(lp61
a(lp62
a(lp63
a(lp64
aa(lp65
(lp66
a(lp67
a(lp68
a(lp69
aa(lp70
(lp71
a(lp72
a(lp73
a(lp74
aa(lp75
(lp76
a(lp77
a(lp78
a(lp79
aa(lp80
(lp81
a(lp82
a(lp83
a(lp84
((lp85
Vhttp://www.w3.org/2002/07/owl#Thing
p86
aVhttp://dbpedia.org/ontology/Company
p87
aVhttp://www.ontologydesignpatterns.org/ont/dul/DUL.owl#Agent
p88
aVhttp://www.ontologydesignpatterns.org/ont/dul/DUL.owl#SocialPerson
p89
aVhttp://www.wikidata.org/entity/Q43229
p90
aVhttp://dbpedia.org/ontology/Agent
p91
aVhttp://dbpedia.org/ontology/Organisation
p92
aVhttp://schema.org/Organization
p93
aVhttp://dbpedia.org/resource/Alianza_Editorial
tp94
aaa(lp95
(lp96
a(lp97
a(lp98
a(lp99
aa(lp100
(lp101
a(lp102
a(lp103
a(lp104
aa(lp105
(lp106
a(lp107
a(lp108
a(lp109
((lp110
Vhttp://www.w3.org/2002/07/owl#Thing
p111
aVhttp://www.ontologydesignpatterns.org/ont/dul/DUL.owl#Agent
p112
aVhttp://www.ontologydesignpatterns.org/ont/dul/DUL.owl#SocialPerson
p113
aVhttp://www.wikidata.org/entity/Q43229
p114
aVhttp://dbpedia.org/ontology/Agent
p115
aVhttp://dbpedia.org/ontology/Organisation
p116
aVhttp://schema.org/Organization
p117
aVhttp://dbpedia.org/resource/All_Aboard_America!
tp118
aaa(lp119
(lp120
a(lp121
a(lp122
a(lp123
((lp124
Vhttp://www.w3.org/2002/07/owl#Thing
p125
aVhttp://www.ontologydesignpatterns.org/ont/dul/DUL.owl#Agent
p126
aVhttp://www.ontologydesignpatterns.org/ont/dul/DUL.owl#SocialPerson
p127
aVhttp://www.wikidata.org/entity/Q43229
p128
aVhttp://dbpedia.org/ontology/Agent
p129
aVhttp://dbpedia.org/ontology/Organisation
p130
aVhttp://schema.org/Organization
p131
aVhttp://dbpedia.org/resource/All_About_Trans
tp132
aaa(lp133
(lp134
a(lp135
a(lp136
a(lp137
((lp138
Vhttp://www.w3.org/2002/07/owl#Thing
p139
aVhttp://www.ontologydesignpatterns.org/ont/dul/DUL.owl#Agent
p140
aVhttp://www.ontologydesignpatterns.org/ont/dul/DUL.owl#SocialPerson
p141
aVhttp://www.wikidata.org/entity/Q43229
p142
aVhttp://dbpedia.org/ontology/Agent
p143
aVhttp://dbpedia.org/ontology/Organisation
p144
aVhttp://dbpedia.org/ontology/SportsTeam
p145
aVhttp://schema.org/Organization
p146
aVhttp://schema.org/SportsTeam
p147
aVhttp://dbpedia.org/resource/All_I_Have_(residency)
tp148
aaa(lp149
(lp150
a(lp151
a(lp152
a(lp153
aa(lp154
(lp155
a(lp156
a(lp157
a(lp158
aa(lp159
(lp160
a(lp161
a(lp162
a(lp163
aa(lp164
(lp165
a(lp166
a(lp167
a(lp168
aa(lp169
(lp170
a(lp171
a(lp172
a(lp173
((lp174
Vhttp://www.w3.org/2002/07/owl#Thing
p175
aVhttp://www.ontologydesignpatterns.org/ont/dul/DUL.owl#Agent
p176
aVhttp://www.ontologydesignpatterns.org/ont/dul/DUL.owl#SocialPerson
p177
aVhttp://www.wikidata.org/entity/Q43229
p178
aVhttp://dbpedia.org/ontology/Agent
p179
aVhttp://dbpedia.org/ontology/Organisation
p180
aVhttp://schema.org/Organization
p181
aVhttp://dbpedia.org/resource/Alliance_for_New_Zionist_Vision
p182
tp183
aaa.