(lp1
(lp2
a(lp3
a(lp4
a(lp5
(dp6
Vstart
p7
I0
sS'classes'
p8
(lp9
Vhttp://dbpedia.org/class/yago/Consequence111410625
p10
aVhttp://dbpedia.org/class/yago/Phenomenon100034213
p11
aVhttp://dbpedia.org/class/yago/PhysicalEntity100001930
p12
aVhttp://dbpedia.org/class/yago/Process100029677
p13
aVhttp://dbpedia.org/class/yago/RadiationHealthEffects
p14
asVdisambiguatedURL
p15
Vhttp://dbpedia.org/resource/Collective_dose
p16
sVnamedEntity
p17
Vyear
p18
sVoffset
p19
I4
saa(lp20
a(lp21
a(lp22
a(lp23
a(lp24
a(lp25
(dp26
Vstart
p27
I0
sg8
(lp28
Vhttp://dbpedia.org/class/yago/Consequence111410625
p29
aVhttp://dbpedia.org/class/yago/Phenomenon100034213
p30
aVhttp://dbpedia.org/class/yago/PhysicalEntity100001930
p31
aVhttp://dbpedia.org/class/yago/Process100029677
p32
aVhttp://dbpedia.org/class/yago/RadiationHealthEffects
p33
asVdisambiguatedURL
p34
Vhttp://dbpedia.org/resource/Collective_dose
p35
sVnamedEntity
p36
Vyear
p37
sVoffset
p38
I4
saa(lp39
a(lp40
a(lp41
a(lp42
a(lp43
(dp44
Vstart
p45
I0
sg8
(lp46
Vhttp://dbpedia.org/class/yago/Consequence111410625
p47
aVhttp://dbpedia.org/class/yago/Phenomenon100034213
p48
aVhttp://dbpedia.org/class/yago/PhysicalEntity100001930
p49
aVhttp://dbpedia.org/class/yago/Process100029677
p50
aVhttp://dbpedia.org/class/yago/RadiationHealthEffects
p51
asVdisambiguatedURL
p52
Vhttp://dbpedia.org/resource/Collective_dose
p53
sVnamedEntity
p54
Vyear
p55
sVoffset
p56
I4
saa(lp57
a(lp58
a(lp59
a(lp60
a(lp61
a.