(lp1
(lp2
(lp3
a(lp4
aa(lp5
(lp6
a(lp7
aa(lp8
(lp9
((lVhttp://dbpedia.org/resource/Bouba/kiki_effect
tp10
aa(lp11
aa(lp12
(lp13
a(lp14
aa(lp15
(lp16
((lVhttp://dbpedia.org/resource/Bouba/kiki_effect
tp17
aa(lp18
aa(lp19
(lp20
a(lp21
aa(lp22
(lp23
a(lp24
aa(lp25
(lp26
a(lp27
aa(lp28
(lp29
((lVhttp://dbpedia.org/resource/Bouba/kiki_effect
tp30
aa(lp31
aa(lp32
(lp33
a(lp34
aa(lp35
(lp36
a(lp37
aa(lp38
(lp39
a(lp40
aa(lp41
(lp42
a(lp43
aa(lp44
(lp45
a(lp46
aa(lp47
(lp48
a(lp49
aa(lp50
(lp51
a(lp52
aa(lp53
(lp54
a(lp55
aa(lp56
(lp57
a(lp58
aa(lp59
(lp60
a(lp61
aa(lp62
(lp63
((lVhttp://dbpedia.org/resource/Bouba/kiki_effect
p64
tp65
aa(lp66
aa.