(lp1
(lp2
(lp3
Vhttp://dbpedia.org/resource/Chinese
p4
aa(lp5
a(lp6
a(lp7
a(lp8
aa(lp9
(lp10
Vhttp://dbpedia.org/resource/English,_Indiana
p11
aa(lp12
a(lp13
Vhttp://dbpedia.org/resource/Angel's_trumpet
p14
aa(lp15
a(lp16
aa(lp17
(lp18
Vhttp://dbpedia.org/resource/English,_Indiana
p19
aa(lp20
a(lp21
a(lp22
a(lp23
aa(lp24
(lp25
Vhttp://dbpedia.org/resource/English,_Indiana
p26
aa(lp27
a(lp28
a(lp29
a(lp30
aa(lp31
(lp32
Vhttp://dbpedia.org/resource/English,_Indiana
p33
aa(lp34
a(lp35
Vhttp://dbpedia.org/resource/Indian_apple
p36
aa(lp37
a(lp38
aa(lp39
(lp40
Vhttp://dbpedia.org/resource/English,_Indiana
p41
aa(lp42
a(lp43
a(lp44
a(lp45
aa(lp46
(lp47
Vhttp://dbpedia.org/resource/English,_Indiana
p48
aa(lp49
a(lp50
Vhttp://dbpedia.org/resource/Thornapple
p51
aa(lp52
a(lp53
aa(lp54
(lp55
Vhttp://dbpedia.org/resource/French_River_(Ontario)
p56
aa(lp57
a(lp58
a(lp59
a(lp60
aa(lp61
(lp62
Vhttp://dbpedia.org/resource/Spanish,_Ontario
p63
aa(lp64
a(lp65
a(lp66
a(lp67
aa(lp68
(lp69
Vhttp://dbpedia.org/resource/Spanish,_Ontario
p70
aa(lp71
a(lp72
a(lp73
a(lp74
aa.