(lp1
(dp2
I0
(dp3
I0
(lp4
sI1
(lp5
sI2
(lp6
sI3
(lp7
sI4
(lp8
sI5
(lp9
sI6
(lp10
ssI1
(dp11
I0
g5
sI1
(lp12
sI2
(lp13
sI3
(lp14
sI4
(lp15
sI5
(lp16
sI6
(lp17
ssI2
(dp18
I0
g6
sI1
g13
sI2
(lp19
sI3
(lp20
sI4
(lp21
sI5
(lp22
sI6
(lp23
ssI3
(dp24
I0
g7
sI1
g14
sI2
g20
sI3
(lp25
sI4
(lp26
sI5
(lp27
sI6
(lp28
Vhttp://www.w3.org/ns/prov#wasDerivedFrom
p29
aVhttp://dbpedia.org/ontology/abstract
p30
aVhttp://dbpedia.org/property/hasPhotoCollection
p31
aVhttp://dbpedia.org/ontology/wikiPageRedirects
p32
aVhttp://www.w3.org/2000/01/rdf-schema#comment
p33
assI4
(dp34
I0
g8
sI1
g15
sI2
g21
sI3
g26
sI4
(lp35
sI5
(lp36
sI6
(lp37
ssI5
(dp38
I0
g9
sI1
g16
sI2
g22
sI3
g27
sI5
(lp39
sI6
(lp40
ssI6
(dp41
I0
g10
sI1
g17
sI2
g23
sI3
g28
sI4
g37
sI5
g40
sI6
(lp42
ssa(dp43
I0
(dp44
I0
(lp45
sI1
(lp46
sI2
(lp47
sI3
(lp48
sI4
(lp49
sI5
(lp50
sI6
(lp51
ssI1
(dp52
I0
g46
sI1
(lp53
sI2
(lp54
sI3
(lp55
sI4
(lp56
sI5
(lp57
sI6
(lp58
ssI2
(dp59
I0
g47
sI1
g54
sI2
(lp60
sI3
(lp61
sI4
(lp62
sI5
(lp63
sI6
(lp64
ssI3
(dp65
I0
g48
sI1
g55
sI2
g61
sI3
(lp66
sI4
(lp67
sI5
(lp68
sI6
(lp69
ssI4
(dp70
I0
g49
sI1
g56
sI2
g62
sI3
g67
sI4
(lp71
sI5
(lp72
sI6
(lp73
ssI5
(dp74
I0
g50
sI1
g57
sI2
g63
sI3
g68
sI4
g72
sI5
(lp75
sI6
(lp76
ssI6
(dp77
I0
g51
sI1
g58
sI2
g64
sI3
g69
sI5
g76
sI6
(lp78
ssa(dp79
I0
(dp80
I0
(lp81
sI1
(lp82
sI2
(lp83
sI3
(lp84
sI4
(lp85
sI5
(lp86
sI6
(lp87
ssI1
(dp88
I0
g82
sI1
(lp89
sI2
(lp90
sI3
(lp91
sI4
(lp92
sI5
(lp93
sI6
(lp94
ssI2
(dp95
I0
g83
sI1
g90
sI2
(lp96
sI3
(lp97
sI4
(lp98
sI5
(lp99
sI6
(lp100
ssI3
(dp101
I0
g84
sI1
g91
sI2
g97
sI3
(lp102
sI4
(lp103
sI5
(lp104
sI6
(lp105
ssI4
(dp106
I0
g85
sI1
g92
sI2
g98
sI3
g103
sI4
(lp107
sI5
(lp108
sI6
(lp109
ssI5
(dp110
I0
g86
sI1
g93
sI2
g99
sI3
g104
sI4
g108
sI5
(lp111
sI6
(lp112
ssI6
(dp113
I0
g87
sI1
g94
sI2
g100
sI3
g105
sI4
g109
sI5
g112
sI6
(lp114
ssa(dp115
I0
(dp116
I0
(lp117
sI1
(lp118
sI2
(lp119
sI3
(lp120
sI4
(lp121
sI5
(lp122
sI6
(lp123
ssI1
(dp124
I0
g118
sI1
(lp125
sI2
(lp126
sI3
(lp127
sI4
(lp128
sI5
(lp129
sI6
(lp130
ssI2
(dp131
I0
g119
sI1
g126
sI2
(lp132
sI3
(lp133
sI4
(lp134
sI5
(lp135
sI6
(lp136
ssI3
(dp137
I0
g120
sI1
g127
sI2
g133
sI3
(lp138
sI4
(lp139
sI5
(lp140
sI6
(lp141
ssI4
(dp142
I0
g121
sI1
g128
sI2
g134
sI3
g139
sI4
(lp143
sI5
(lp144
sI6
(lp145
ssI5
(dp146
I0
g122
sI1
g129
sI2
g135
sI3
g140
sI4
g144
sI5
(lp147
sI6
(lp148
ssI6
(dp149
I0
g123
sI1
g130
sI2
g136
sI3
g141
sI4
g145
sI5
g148
sI6
(lp150
ssa(dp151
I0
(dp152
I0
(lp153
sI1
(lp154
sI2
(lp155
sI3
(lp156
sI4
(lp157
sI5
(lp158
sI6
(lp159
ssI1
(dp160
I0
g154
sI1
(lp161
sI2
(lp162
sI3
(lp163
sI4
(lp164
sI5
(lp165
sI6
(lp166
ssI2
(dp167
I0
g155
sI1
g162
sI2
(lp168
sI3
(lp169
sI4
(lp170
sI5
(lp171
sI6
(lp172
ssI3
(dp173
I0
g156
sI1
g163
sI3
(lp174
sI4
(lp175
sI5
(lp176
sI6
(lp177
ssI4
(dp178
I0
g157
sI1
g164
sI4
(lp179
sI5
(lp180
sI6
(lp181
ssI5
(dp182
I0
g158
sI1
g165
sI5
(lp183
sI6
(lp184
ssI6
(dp185
I0
g159
sI1
g166
sI6
(lp186
ssa(dp187
I0
(dp188
I0
(lp189
sI1
(lp190
sI2
(lp191
sI3
(lp192
sI4
(lp193
sI5
(lp194
sI6
(lp195
ssI1
(dp196
I0
g190
sI1
(lp197
sI2
(lp198
sI3
(lp199
sI4
(lp200
sI5
(lp201
sI6
(lp202
ssI2
(dp203
I0
g191
sI1
g198
sI2
(lp204
sI3
(lp205
sI4
(lp206
sI5
(lp207
sI6
(lp208
ssI3
(dp209
I0
g192
sI1
g199
sI2
g205
sI3
(lp210
sI4
(lp211
sI5
(lp212
sI6
(lp213
ssI4
(dp214
I0
g193
sI1
g200
sI3
g211
sI4
(lp215
sI5
(lp216
sI6
(lp217
ssI5
(dp218
I0
g194
sI1
g201
sI2
g207
sI3
g212
sI4
g216
sI5
(lp219
sI6
(lp220
ssI6
(dp221
I0
g195
sI1
g202
sI3
g213
sI5
g220
sI6
(lp222
ssa(dp223
I0
(dp224
I0
(lp225
sI1
(lp226
sI2
(lp227
sI3
(lp228
sI4
(lp229
sI5
(lp230
sI6
(lp231
ssI1
(dp232
I0
g226
sI1
(lp233
sI2
(lp234
sI3
(lp235
sI4
(lp236
sI5
(lp237
sI6
(lp238
ssI2
(dp239
I0
g227
sI1
g234
sI2
(lp240
sI3
(lp241
sI4
(lp242
sI5
(lp243
sI6
(lp244
ssI3
(dp245
I0
g228
sI1
g235
sI2
g241
sI3
(lp246
sI4
(lp247
sI5
(lp248
sI6
(lp249
ssI4
(dp250
I0
g229
sI1
g236
sI2
g242
sI3
g247
sI4
(lp251
sI5
(lp252
sI6
(lp253
ssI5
(dp254
I0
g230
sI1
g237
sI2
g243
sI3
g248
sI4
g252
sI5
(lp255
sI6
(lp256
ssI6
(dp257
I0
g231
sI1
g238
sI2
g244
sI3
g249
sI5
g256
sI6
(lp258
ssa(dp259
I0
(dp260
I0
(lp261
sI1
(lp262
sI2
(lp263
sI3
(lp264
sI4
(lp265
sI5
(lp266
sI6
(lp267
ssI1
(dp268
I0
g262
sI1
(lp269
sI2
(lp270
sI3
(lp271
sI4
(lp272
sI5
(lp273
sI6
(lp274
ssI2
(dp275
I0
g263
sI1
g270
sI2
(lp276
sI3
(lp277
sI4
(lp278
sI5
(lp279
sI6
(lp280
ssI3
(dp281
I0
g264
sI1
g271
sI2
g277
sI3
(lp282
sI4
(lp283
sI5
(lp284
sI6
(lp285
Vhttp://dbpedia.org/ontology/wikiPageExternalLink
p286
aVhttp://xmlns.com/foaf/0.1/primaryTopic
p287
aVhttp://www.w3.org/2000/01/rdf-schema#comment
p288
aVhttp://dbpedia.org/ontology/abstract
p289
aVhttp://xmlns.com/foaf/0.1/isPrimaryTopicOf
p290
aVhttp://www.w3.org/ns/prov#wasDerivedFrom
p291
aVhttp://dbpedia.org/property/hasPhotoCollection
p292
aVhttp://www.w3.org/2002/07/owl#sameAs
p293
assI4
(dp294
I0
g265
sI1
g272
sI2
g278
sI3
g283
sI4
(lp295
sI5
(lp296
sI6
(lp297
ssI5
(dp298
I0
g266
sI1
g273
sI2
g279
sI3
g284
sI4
g296
sI5
(lp299
sI6
(lp300
ssI6
(dp301
I0
g267
sI1
g274
sI2
g280
sI3
g285
sI4
g297
sI5
g300
sI6
(lp302
ssa(dp303
I0
(dp304
I0
(lp305
sI1
(lp306
sI2
(lp307
sI3
(lp308
sI4
(lp309
sI5
(lp310
sI6
(lp311
ssI1
(dp312
I0
g306
sI1
(lp313
sI2
(lp314
sI3
(lp315
Vhttp://dbpedia.org/property/origin
p316
aVhttp://dbpedia.org/property/placeOfDeath
p317
aVhttp://dbpedia.org/ontology/type
p318
aVhttp://dbpedia.org/property/awardedBy
p319
aVhttp://dbpedia.org/property/broadcastArea
p320
aVhttp://dbpedia.org/ontology/language
p321
aVhttp://dbpedia.org/property/allegiance
p322
aVhttp://dbpedia.org/property/city
p323
aVhttp://dbpedia.org/ontology/garrison
p324
aVhttp://dbpedia.org/ontology/knownFor
p325
aVhttp://dbpedia.org/ontology/city
p326
aVhttp://www.w3.org/ns/prov#wasDerivedFrom
p327
aVhttp://dbpedia.org/property/direction
p328
aVhttp://dbpedia.org/property/other
p329
aVhttp://dbpedia.org/ontology/demonym
p330
aVhttp://dbpedia.org/ontology/regionServed
p331
aVhttp://dbpedia.org/property/serviceArea
p332
aVhttp://dbpedia.org/property/assembly
p333
aVhttp://dbpedia.org/property/timeZone
p334
aVhttp://dbpedia.org/property/shortDescription
p335
aVhttp://xmlns.com/foaf/0.1/isPrimaryTopicOf
p336
aVhttp://dbpedia.org/ontology/occupation
p337
aVhttp://dbpedia.org/property/hometown
p338
aVhttp://dbpedia.org/ontology/sales
p339
aVhttp://dbpedia.org/property/establishedEvent
p340
aVhttp://dbpedia.org/property/publishingCountry
p341
aVhttp://dbpedia.org/property/office
p342
aVhttp://dbpedia.org/ontology/residence
p343
aVhttp://dbpedia.org/ontology/abstract
p344
aVhttp://dbpedia.org/ontology/recordedIn
p345
aVhttp://dbpedia.org/property/leaderName
p346
aVhttp://dbpedia.org/property/largestMetropolitanArea
p347
aVhttp://dbpedia.org/property/sourceCountry
p348
aVhttp://dbpedia.org/property/beatifiedPlace
p349
aVhttp://dbpedia.org/property/nationalOrigin
p350
aVhttp://dbpedia.org/property/officialLanguages
p351
aVhttp://dbpedia.org/property/imageMap
p352
aVhttp://dbpedia.org/property/sportCode
p353
aVhttp://dbpedia.org/ontology/location
p354
aVhttp://dbpedia.org/property/countriesAffected
p355
aVhttp://dbpedia.org/ontology/wikiPageDisambiguates
p356
aVhttp://dbpedia.org/property/governmentType
p357
aVhttp://dbpedia.org/property/area
p358
aVhttp://dbpedia.org/property/gamesPlace
p359
aVhttp://dbpedia.org/ontology/hometown
p360
aVhttp://dbpedia.org/ontology/restingPlace
p361
aVhttp://dbpedia.org/ontology/spokenIn
p362
aVhttp://dbpedia.org/property/foundingLocation
p363
aVhttp://dbpedia.org/property/jurisdiction
p364
aVhttp://dbpedia.org/property/leaderTitle
p365
aVhttp://dbpedia.org/property/branch
p366
aVhttp://www.w3.org/2000/01/rdf-schema#seeAlso
p367
aVhttp://dbpedia.org/ontology/wikiPageExternalLink
p368
aVhttp://dbpedia.org/ontology/wikiPageRedirects
p369
aVhttp://dbpedia.org/property/description
p370
aVhttp://dbpedia.org/property/birthDate
p371
aVhttp://dbpedia.org/property/conventionalLongName
p372
aVhttp://dbpedia.org/property/restingPlace
p373
aVhttp://dbpedia.org/ontology/foundationPlace
p374
aVhttp://dbpedia.org/property/countryOfOrigin
p375
aVhttp://dbpedia.org/property/patronage
p376
aVhttp://dbpedia.org/property/birthplace
p377
aVhttp://dbpedia.org/property/base
p378
aVhttp://dbpedia.org/property/legislature
p379
aVhttp://dbpedia.org/ontology/locatedInArea
p380
aVhttp://dbpedia.org/ontology/officialLanguage
p381
aVhttp://dbpedia.org/property/label
p382
aVhttp://dbpedia.org/ontology/country
p383
aVhttp://dbpedia.org/property/returns
p384
aVhttp://dbpedia.org/property/nationalAnthem
p385
aVhttp://dbpedia.org/ontology/beatifiedPlace
p386
aVhttp://dbpedia.org/property/home
p387
aVhttp://dbpedia.org/property/float
p388
aVhttp://dbpedia.org/property/markets
p389
aVhttp://dbpedia.org/property/birthPlace
p390
aVhttp://dbpedia.org/property/stateParty
p391
aVhttp://dbpedia.org/property/country
p392
aVhttp://dbpedia.org/property/areaServed
p393
aVhttp://dbpedia.org/ontology/county
p394
aVhttp://xmlns.com/foaf/0.1/primaryTopic
p395
aVhttp://dbpedia.org/ontology/campus
p396
aVhttp://dbpedia.org/property/county
p397
aVhttp://dbpedia.org/property/demonym
p398
aVhttp://dbpedia.org/property/deathPlace
p399
aVhttp://dbpedia.org/property/states
p400
aVhttp://dbpedia.org/property/url
p401
aVhttp://dbpedia.org/property/align
p402
aVhttp://dbpedia.org/property/languagesType
p403
aVhttp://dbpedia.org/ontology/deathPlace
p404
aVhttp://dbpedia.org/property/born
p405
aVhttp://dbpedia.org/property/hasPhotoCollection
p406
aVhttp://dbpedia.org/property/cityServed
p407
aVhttp://dbpedia.org/ontology/territory
p408
aVhttp://dbpedia.org/property/headquarters
p409
aVhttp://dbpedia.org/property/countryName
p410
aVhttp://dbpedia.org/ontology/anthem
p411
aVhttp://dbpedia.org/ontology/birthPlace
p412
aVhttp://dbpedia.org/ontology/capital
p413
aVhttp://dbpedia.org/ontology/locationCountry
p414
aVhttp://dbpedia.org/property/left
p415
aVhttp://dbpedia.org/property/aux
p416
aVhttp://dbpedia.org/property/citizenship
p417
aVhttp://dbpedia.org/property/imageCoat
p418
aVhttp://dbpedia.org/ontology/sportCountry
p419
aVhttp://dbpedia.org/property/host
p420
aVhttp://dbpedia.org/ontology/stateOfOrigin
p421
aVhttp://www.w3.org/2002/07/owl#sameAs
p422
aVhttp://dbpedia.org/ontology/headquarter
p423
aVhttp://dbpedia.org/property/recorded
p424
aVhttp://dbpedia.org/ontology/majorShrine
p425
aVhttp://dbpedia.org/property/affiliation
p426
aVhttp://dbpedia.org/ontology/origin
p427
aVhttp://dbpedia.org/ontology/currency
p428
aVhttp://dbpedia.org/property/majorShrine
p429
aVhttp://dbpedia.org/property/residence
p430
aVhttp://dbpedia.org/ontology/longName
p431
aVhttp://www.w3.org/1999/02/22-rdf-syntax-ns#type
p432
aVhttp://dbpedia.org/ontology/nationality
p433
aVhttp://dbpedia.org/property/affiliations
p434
aVhttp://dbpedia.org/property/locationCountry
p435
aVhttp://dbpedia.org/property/tradition
p436
aVhttp://dbpedia.org/property/countryAdminDivisionsTitle
p437
aVhttp://dbpedia.org/property/withdraws
p438
aVhttp://dbpedia.org/property/source
p439
aVhttp://dbpedia.org/property/lowerHouse
p440
aVhttp://dbpedia.org/ontology/ethnicGroup
p441
aVhttp://dbpedia.org/property/winnerOrigin
p442
aVhttp://dbpedia.org/ontology/archipelago
p443
aVhttp://dbpedia.org/property/nativeName
p444
aVhttp://dbpedia.org/property/shipCountry
p445
aVhttp://dbpedia.org/property/schoollocations
p446
aVhttp://dbpedia.org/property/placeOfBirth
p447
aVhttp://dbpedia.org/property/archipelago
p448
aVhttp://dbpedia.org/property/locale
p449
aVhttp://dbpedia.org/property/ancestry
p450
aVhttp://dbpedia.org/property/locationSigned
p451
aVhttp://dbpedia.org/ontology/usingCountry
p452
aVhttp://dbpedia.org/property/runnerup
p453
aVhttp://dbpedia.org/property/fightingOutOf
p454
aVhttp://dbpedia.org/property/areaLabel
p455
aVhttp://dbpedia.org/property/observedby
p456
aVhttp://dbpedia.org/property/homeTown
p457
aVhttp://dbpedia.org/ontology/flag
p458
aVhttp://dbpedia.org/property/debuts
p459
aVhttp://dbpedia.org/property/commonName
p460
aVhttp://dbpedia.org/property/subdivisionName
p461
aVhttp://dbpedia.org/ontology/ethnicity
p462
aVhttp://dbpedia.org/property/languages
p463
aVhttp://dbpedia.org/property/popplace
p464
aVhttp://www.w3.org/2000/01/rdf-schema#comment
p465
aVhttp://dbpedia.org/property/type
p466
aVhttp://dbpedia.org/property/television
p467
aVhttp://dbpedia.org/property/destination
p468
aVhttp://dbpedia.org/property/locationCity
p469
aVhttp://dbpedia.org/ontology/broadcastArea
p470
aVhttp://dbpedia.org/property/otherSymbolType
p471
aVhttp://dbpedia.org/property/founded
p472
aVhttp://dbpedia.org/ontology/motto
p473
aVhttp://dbpedia.org/property/stadium
p474
aVhttp://dbpedia.org/property/territory
p475
aVhttp://dbpedia.org/property/ethnicity
p476
aVhttp://dbpedia.org/property/place
p477
aVhttp://dbpedia.org/property/mapCaption
p478
aVhttp://dbpedia.org/ontology/citizenship
p479
aVhttp://dbpedia.org/property/territorialExtent
p480
aVhttp://dbpedia.org/ontology/battle
p481
aVhttp://dbpedia.org/ontology/jurisdiction
p482
aVhttp://dbpedia.org/property/occupation
p483
aVhttp://dbpedia.org/property/footnoteA
p484
aVhttp://dbpedia.org/property/caption
p485
aVhttp://dbpedia.org/property/lastStopover
p486
aVhttp://www.w3.org/2002/07/owl#differentFrom
p487
aVhttp://dbpedia.org/ontology/nearestCity
p488
aVhttp://dbpedia.org/property/placeofburial
p489
aVhttp://dbpedia.org/property/upperHouse
p490
aVhttp://dbpedia.org/property/formation
p491
aVhttp://dbpedia.org/property/locations
p492
aVhttp://dbpedia.org/property/site
p493
aVhttp://dbpedia.org/property/image
p494
aVhttp://dbpedia.org/ontology/place
p495
aVhttp://dbpedia.org/property/counties
p496
aVhttp://dbpedia.org/property/nationality
p497
aVhttp://dbpedia.org/property/foundedPlace
p498
aVhttp://dbpedia.org/property/callingCode
p499
aVhttp://dbpedia.org/property/nearestCity
p500
aVhttp://dbpedia.org/property/controlledBy
p501
aVhttp://dbpedia.org/ontology/sourceCountry
p502
aVhttp://xmlns.com/foaf/0.1/depiction
p503
aVhttp://purl.org/dc/terms/subject
p504
aVhttp://dbpedia.org/ontology/populationPlace
p505
aVhttp://dbpedia.org/property/venue
p506
aVhttp://dbpedia.org/property/state
p507
aVhttp://dbpedia.org/property/region
p508
aVhttp://dbpedia.org/property/armiger
p509
aVhttp://dbpedia.org/ontology/leader
p510
aVhttp://dbpedia.org/property/managerclubs
p511
aVhttp://dbpedia.org/property/foundation
p512
aVhttp://dbpedia.org/property/countryHeading
p513
aVhttp://www.w3.org/2000/01/rdf-schema#label
p514
aVhttp://dbpedia.org/property/controlledby
p515
aVhttp://dbpedia.org/property/networkEn
p516
aVhttp://dbpedia.org/property/title
p517
aVhttp://dbpedia.org/property/subdivisionType
p518
aVhttp://dbpedia.org/property/basinCountries
p519
aVhttp://dbpedia.org/property/garrison
p520
aVhttp://dbpedia.org/ontology/assembly
p521
aVhttp://dbpedia.org/property/address
p522
aVhttp://dbpedia.org/property/nationalMotto
p523
aVhttp://dbpedia.org/ontology/timeZone
p524
aVhttp://dbpedia.org/property/location
p525
aVhttp://dbpedia.org/property/foundedArea
p526
aVhttp://dbpedia.org/property/imageFlag
p527
aVhttp://dbpedia.org/property/battles
p528
aVhttp://dbpedia.org/property/regionServed
p529
aVhttp://xmlns.com/foaf/0.1/name
p530
aVhttp://dbpedia.org/property/areas
p531
aVhttp://dbpedia.org/ontology/locationCity
p532
aVhttp://dbpedia.org/ontology/thumbnail
p533
asI4
(lp534
sI5
(lp535
sI6
(lp536
ssI2
(dp537
I0
g307
sI1
g314
sI2
(lp538
sI3
(lp539
sI4
(lp540
sI5
(lp541
sI6
(lp542
ssI3
(dp543
I0
g308
sI1
g315
sI2
g539
sI3
(lp544
sI4
(lp545
sI5
(lp546
sI6
(lp547
ssI4
(dp548
I0
g309
sI1
g534
sI2
g540
sI3
g545
sI4
(lp549
sI5
(lp550
sI6
(lp551
ssI5
(dp552
I0
g310
sI1
g535
sI2
g541
sI3
g546
sI4
g550
sI5
(lp553
sI6
(lp554
ssI6
(dp555
I0
g311
sI1
g536
sI2
g542
sI3
g547
sI5
g554
sI6
(lp556
ssa(dp557
I0
(dp558
I0
(lp559
sI1
(lp560
sI2
(lp561
sI3
(lp562
sI4
(lp563
sI5
(lp564
sI6
(lp565
ssI1
(dp566
I0
g560
sI1
(lp567
sI2
(lp568
sI3
(lp569
sI4
(lp570
sI5
(lp571
sI6
(lp572
ssI2
(dp573
I0
g561
sI1
g568
sI2
(lp574
sI3
(lp575
sI4
(lp576
sI5
(lp577
sI6
(lp578
ssI3
(dp579
I0
g562
sI1
g569
sI3
(lp580
sI4
(lp581
sI5
(lp582
sI6
(lp583
ssI4
(dp584
I0
g563
sI1
g570
sI4
(lp585
sI5
(lp586
sI6
(lp587
ssI5
(dp588
I0
g564
sI1
g571
sI5
(lp589
sI6
(lp590
ssI6
(dp591
I0
g565
sI1
g572
sI6
(lp592
ssa(dp593
I0
(dp594
I0
(lp595
sI1
(lp596
sI2
(lp597
sI3
(lp598
sI4
(lp599
sI5
(lp600
sI6
(lp601
ssI1
(dp602
I0
g596
sI1
(lp603
sI2
(lp604
sI3
(lp605
sI4
(lp606
sI5
(lp607
sI6
(lp608
ssI2
(dp609
I0
g597
sI1
g604
sI2
(lp610
sI3
(lp611
sI4
(lp612
sI5
(lp613
sI6
(lp614
ssI3
(dp615
I0
g598
sI1
g605
sI2
g611
sI3
(lp616
sI4
(lp617
sI5
(lp618
sI6
(lp619
ssI4
(dp620
I0
g599
sI1
g606
sI2
g612
sI3
g617
sI4
(lp621
sI5
(lp622
sI6
(lp623
ssI5
(dp624
I0
g600
sI1
g607
sI2
g613
sI3
g618
sI4
g622
sI5
(lp625
sI6
(lp626
ssI6
(dp627
I0
g601
sI1
g608
sI2
g614
sI3
g619
sI4
g623
sI5
g626
sI6
(lp628
ssa(dp629
I0
(dp630
I0
(lp631
sI1
(lp632
sI2
(lp633
sI3
(lp634
sI4
(lp635
sI5
(lp636
sI6
(lp637
ssI1
(dp638
I0
g632
sI1
(lp639
sI2
(lp640
sI3
(lp641
sI4
(lp642
sI5
(lp643
sI6
(lp644
ssI2
(dp645
I0
g633
sI1
g640
sI2
(lp646
sI3
(lp647
sI4
(lp648
sI5
(lp649
sI6
(lp650
ssI3
(dp651
I0
g634
sI1
g641
sI2
g647
sI3
(lp652
sI4
(lp653
sI5
(lp654
sI6
(lp655
ssI4
(dp656
I0
g635
sI1
g642
sI2
g648
sI3
g653
sI4
(lp657
sI5
(lp658
sI6
(lp659
ssI5
(dp660
I0
g636
sI1
g643
sI2
g649
sI3
g654
sI4
g658
sI5
(lp661
sI6
(lp662
ssI6
(dp663
I0
g637
sI1
g644
sI2
g650
sI3
g655
sI5
g662
sI6
(lp664
ssa(dp665
I0
(dp666
I0
(lp667
sI1
(lp668
sI2
(lp669
sI3
(lp670
sI4
(lp671
sI5
(lp672
sI6
(lp673
ssI1
(dp674
I0
g668
sI1
(lp675
sI2
(lp676
sI3
(lp677
sI4
(lp678
sI5
(lp679
sI6
(lp680
ssI2
(dp681
I0
g669
sI2
(lp682
sI3
(lp683
sI4
(lp684
sI5
(lp685
sI6
(lp686
ssI3
(dp687
I0
g670
sI3
(lp688
sI4
(lp689
sI5
(lp690
sI6
(lp691
ssI4
(dp692
I0
g671
sI4
(lp693
sI5
(lp694
sI6
(lp695
ssI5
(dp696
I0
g672
sI5
(lp697
sI6
(lp698
ssI6
(dp699
I0
g673
sI6
(lp700
ssa(dp701
I0
(dp702
I0
(lp703
sI1
(lp704
sI2
(lp705
sI3
(lp706
sI4
(lp707
sI5
(lp708
sI6
(lp709
ssI1
(dp710
I0
g704
sI1
(lp711
sI2
(lp712
sI3
(lp713
sI4
(lp714
sI5
(lp715
sI6
(lp716
ssI2
(dp717
I0
g705
sI1
g712
sI2
(lp718
sI3
(lp719
sI4
(lp720
sI5
(lp721
sI6
(lp722
ssI3
(dp723
I0
g706
sI1
g713
sI2
g719
sI3
(lp724
sI4
(lp725
sI5
(lp726
sI6
(lp727
ssI4
(dp728
I0
g707
sI1
g714
sI2
g720
sI3
g725
sI4
(lp729
sI5
(lp730
sI6
(lp731
ssI5
(dp732
I0
g708
sI1
g715
sI2
g721
sI3
g726
sI4
g730
sI5
(lp733
sI6
(lp734
ssI6
(dp735
I0
g709
sI1
g716
sI2
g722
sI3
g727
sI5
g734
sI6
(lp736
ssa(dp737
I0
(dp738
I0
(lp739
sI1
(lp740
sI2
(lp741
sI3
(lp742
sI4
(lp743
sI5
(lp744
sI6
(lp745
ssI1
(dp746
I0
g740
sI1
(lp747
sI2
(lp748
sI3
(lp749
sI4
(lp750
sI5
(lp751
sI6
(lp752
ssI2
(dp753
I0
g741
sI1
g748
sI2
(lp754
sI3
(lp755
sI4
(lp756
sI5
(lp757
sI6
(lp758
ssI3
(dp759
I0
g742
sI1
g749
sI2
g755
sI3
(lp760
sI4
(lp761
sI5
(lp762
sI6
(lp763
Vhttp://dbpedia.org/ontology/wikiPageExternalLink
p764
aVhttp://xmlns.com/foaf/0.1/primaryTopic
p765
aVhttp://www.w3.org/2000/01/rdf-schema#comment
p766
aVhttp://dbpedia.org/ontology/abstract
p767
aVhttp://xmlns.com/foaf/0.1/isPrimaryTopicOf
p768
aVhttp://www.w3.org/ns/prov#wasDerivedFrom
p769
aVhttp://dbpedia.org/property/hasPhotoCollection
p770
aVhttp://www.w3.org/2002/07/owl#sameAs
p771
assI4
(dp772
I0
g743
sI1
g750
sI2
g756
sI3
g761
sI4
(lp773
sI5
(lp774
sI6
(lp775
ssI5
(dp776
I0
g744
sI1
g751
sI2
g757
sI3
g762
sI4
g774
sI5
(lp777
sI6
(lp778
ssI6
(dp779
I0
g745
sI1
g752
sI2
g758
sI3
g763
sI4
g775
sI5
g778
sI6
(lp780
ssa(dp781
I0
(dp782
I0
(lp783
sI1
(lp784
sI2
(lp785
sI3
(lp786
sI4
(lp787
sI5
(lp788
sI6
(lp789
ssI1
(dp790
I0
g784
sI1
(lp791
sI2
(lp792
sI3
(lp793
sI4
(lp794
sI5
(lp795
sI6
(lp796
ssI2
(dp797
I0
g785
sI1
g792
sI2
(lp798
sI3
(lp799
sI4
(lp800
sI5
(lp801
sI6
(lp802
ssI3
(dp803
I0
g786
sI1
g793
sI3
(lp804
sI4
(lp805
sI5
(lp806
sI6
(lp807
ssI4
(dp808
I0
g787
sI1
g794
sI4
(lp809
sI5
(lp810
sI6
(lp811
ssI5
(dp812
I0
g788
sI1
g795
sI5
(lp813
sI6
(lp814
ssI6
(dp815
I0
g789
sI1
g796
sI6
(lp816
ssa(dp817
I0
(dp818
I0
(lp819
sI1
(lp820
sI2
(lp821
sI3
(lp822
sI4
(lp823
sI5
(lp824
sI6
(lp825
ssI1
(dp826
I0
g820
sI1
(lp827
sI2
(lp828
sI3
(lp829
sI4
(lp830
sI5
(lp831
sI6
(lp832
ssI2
(dp833
I0
g821
sI1
g828
sI2
(lp834
sI3
(lp835
sI4
(lp836
sI5
(lp837
sI6
(lp838
ssI3
(dp839
I0
g822
sI1
g829
sI2
g835
sI3
(lp840
sI4
(lp841
sI5
(lp842
sI6
(lp843
ssI4
(dp844
I0
g823
sI1
g830
sI2
g836
sI3
g841
sI4
(lp845
sI5
(lp846
sI6
(lp847
ssI5
(dp848
I0
g824
sI1
g831
sI2
g837
sI3
g842
sI4
g846
sI5
(lp849
sI6
(lp850
ssI6
(dp851
I0
g825
sI1
g832
sI2
g838
sI3
g843
sI5
g850
sI6
(lp852
ssa(dp853
I0
(dp854
I0
(lp855
sI1
(lp856
sI2
(lp857
sI3
(lp858
sI4
(lp859
sI5
(lp860
sI6
(lp861
ssI1
(dp862
I0
g856
sI1
(lp863
sI2
(lp864
sI3
(lp865
sI4
(lp866
sI5
(lp867
sI6
(lp868
ssI2
(dp869
I0
g857
sI1
g864
sI2
(lp870
sI3
(lp871
sI4
(lp872
sI5
(lp873
sI6
(lp874
ssI3
(dp875
I0
g858
sI1
g865
sI2
g871
sI3
(lp876
sI4
(lp877
sI5
(lp878
sI6
(lp879
ssI4
(dp880
I0
g859
sI2
g872
sI3
g877
sI4
(lp881
sI5
(lp882
sI6
(lp883
ssI5
(dp884
I0
g860
sI1
g867
sI2
g873
sI3
g878
sI4
g882
sI5
(lp885
sI6
(lp886
ssI6
(dp887
I0
g861
sI2
g874
sI3
g879
sI5
g886
sI6
(lp888
ssa(dp889
I0
(dp890
I0
(lp891
sI1
(lp892
sI2
(lp893
sI3
(lp894
sI4
(lp895
sI5
(lp896
sI6
(lp897
ssI1
(dp898
I0
g892
sI1
(lp899
sI2
(lp900
sI3
(lp901
sI4
(lp902
sI5
(lp903
sI6
(lp904
ssI2
(dp905
I0
g893
sI2
(lp906
sI3
(lp907
sI4
(lp908
sI5
(lp909
sI6
(lp910
ssI3
(dp911
I0
g894
sI1
g901
sI2
g907
sI3
(lp912
sI4
(lp913
sI5
(lp914
sI6
(lp915
Vhttp://dbpedia.org/ontology/wikiPageExternalLink
p916
aVhttp://xmlns.com/foaf/0.1/primaryTopic
p917
aVhttp://www.w3.org/2000/01/rdf-schema#comment
p918
aVhttp://dbpedia.org/ontology/abstract
p919
aVhttp://xmlns.com/foaf/0.1/isPrimaryTopicOf
p920
aVhttp://www.w3.org/ns/prov#wasDerivedFrom
p921
aVhttp://dbpedia.org/property/hasPhotoCollection
p922
aVhttp://www.w3.org/2002/07/owl#sameAs
p923
assI4
(dp924
I0
g895
sI3
g913
sI4
(lp925
sI5
(lp926
sI6
(lp927
ssI5
(dp928
I0
g896
sI3
g914
sI5
(lp929
sI6
(lp930
ssI6
(dp931
I0
g897
sI1
g904
sI2
g910
sI3
g915
sI4
g927
sI5
g930
sI6
(lp932
ssa(dp933
I0
(dp934
I0
(lp935
sI1
(lp936
sI2
(lp937
sI3
(lp938
sI4
(lp939
sI5
(lp940
sI6
(lp941
ssI1
(dp942
I0
g936
sI1
(lp943
sI2
(lp944
sI3
(lp945
sI4
(lp946
sI5
(lp947
sI6
(lp948
ssI2
(dp949
I0
g937
sI1
g944
sI2
(lp950
sI3
(lp951
sI4
(lp952
sI5
(lp953
sI6
(lp954
ssI3
(dp955
I0
g938
sI1
g945
sI2
g951
sI3
(lp956
sI4
(lp957
sI5
(lp958
sI6
(lp959
ssI4
(dp960
I0
g939
sI1
g946
sI2
g952
sI3
g957
sI4
(lp961
sI5
(lp962
sI6
(lp963
ssI5
(dp964
I0
g940
sI1
g947
sI2
g953
sI3
g958
sI5
(lp965
sI6
(lp966
ssI6
(dp967
I0
g941
sI1
g948
sI2
g954
sI3
g959
sI4
g963
sI5
g966
sI6
(lp968
ssa.