(lp1
(lp2
(dp3
Vstart
p4
I0
sVdisambiguatedURL
p5
Vhttp://dbpedia.org/resource/United_States_Department_of_Defense
p6
sVnamedEntity
p7
VUSD
p8
sVoffset
p9
I3
saa(lp10
(dp11
Vstart
p12
I0
sVdisambiguatedURL
p13
Vhttp://dbpedia.org/resource/United_States_Department_of_Defense
p14
sVnamedEntity
p15
VUSD
p16
sVoffset
p17
I3
saa(lp18
(dp19
Vstart
p20
I0
sVdisambiguatedURL
p21
Vhttp://dbpedia.org/resource/United_States_Department_of_Defense
p22
sVnamedEntity
p23
VUSD
p24
sVoffset
p25
I3
saa(lp26
(dp27
Vstart
p28
I0
sVdisambiguatedURL
p29
Vhttp://dbpedia.org/resource/United_States_Department_of_Defense
p30
sVnamedEntity
p31
VUSD
p32
sVoffset
p33
I3
saa(lp34
(dp35
Vstart
p36
I0
sVdisambiguatedURL
p37
NsVnamedEntity
p38
VEURO
p39
sVoffset
p40
I4
saa(lp41
(dp42
Vstart
p43
I0
sVdisambiguatedURL
p44
NsVnamedEntity
p45
VEURO
p46
sVoffset
p47
I4
saa(lp48
(dp49
Vstart
p50
I0
sVdisambiguatedURL
p51
NsVnamedEntity
p52
VEURO
p53
sVoffset
p54
I4
saa(lp55
(dp56
Vstart
p57
I0
sVdisambiguatedURL
p58
NsVnamedEntity
p59
VGBBP
p60
sVoffset
p61
I4
saa(lp62
(dp63
Vstart
p64
I0
sVdisambiguatedURL
p65
Vhttp://dbpedia.org/resource/Green_Bay_Packers
p66
sVnamedEntity
p67
VGBP
p68
sVoffset
p69
I3
saa(lp70
(dp71
Vstart
p72
I0
sVdisambiguatedURL
p73
Vhttp://dbpedia.org/resource/Green_Bay_Packers
p74
sVnamedEntity
p75
VGBP
p76
sVoffset
p77
I3
saa(lp78
(dp79
Vstart
p80
I0
sVdisambiguatedURL
p81
Vhttp://dbpedia.org/resource/Computer-aided_design
p82
sVnamedEntity
p83
VCAD
p84
sVoffset
p85
I3
saa(lp86
(dp87
Vstart
p88
I0
sVdisambiguatedURL
p89
Vhttp://dbpedia.org/resource/Charles_Harding_Firth
p90
sVnamedEntity
p91
VCHF
p92
sVoffset
p93
I3
saa(lp94
(dp95
Vstart
p96
I0
sVdisambiguatedURL
p97
NsVnamedEntity
p98
VJPY
p99
sVoffset
p100
I3
saa(lp101
(dp102
Vstart
p103
I0
sVdisambiguatedURL
p104
Vhttp://dbpedia.org/resource/Spezialeinsatzkommando
p105
sVnamedEntity
p106
VSEK
p107
sVoffset
p108
I3
saa(lp109
(dp110
Vstart
p111
I0
sVdisambiguatedURL
p112
Vhttp://dbpedia.org/resource/Spanish_Gangster_Disciples
p113
sVnamedEntity
p114
VSGD
p115
sVoffset
p116
I3
saa(lp117
(dp118
Vstart
p119
I0
sVdisambiguatedURL
p120
NsVnamedEntity
p121
VAUD
p122
sVoffset
p123
I3
saa(lp124
(dp125
Vstart
p126
I0
sVdisambiguatedURL
p127
NsVnamedEntity
p128
VHKD
p129
sVoffset
p130
I3
saa(lp131
(dp132
Vstart
p133
I0
sVdisambiguatedURL
p134
NsVnamedEntity
p135
VAED UAE Dirham
p136
sVoffset
p137
I14
saa.