(lp1
(dp2
I0
(dp3
I0
(lp4
sI1
(lp5
sI2
(lp6
sI3
(lp7
sI4
(lp8
ssI1
(dp9
I0
g5
sI1
(lp10
sI2
(lp11
sI3
(lp12
sI4
(lp13
ssI2
(dp14
I0
g6
sI1
g11
sI2
(lp15
sI3
(lp16
sI4
(lp17
ssI3
(dp18
I0
g7
sI1
g12
sI2
g16
sI3
(lp19
sI4
(lp20
ssI4
(dp21
I0
g8
sI1
g13
sI2
g17
sI3
g20
sI4
(lp22
ssa(dp23
I0
(dp24
I0
(lp25
sI1
(lp26
sI2
(lp27
sI3
(lp28
sI4
(lp29
ssI1
(dp30
I0
g26
sI1
(lp31
sI2
(lp32
Vhttp://dbpedia.org/ontology/abstract
p33
aVhttp://www.w3.org/2000/01/rdf-schema#comment
p34
asI3
(lp35
sI4
(lp36
ssI2
(dp37
I0
g27
sI1
g32
sI2
(lp38
sI3
(lp39
sI4
(lp40
ssI3
(dp41
I0
g28
sI1
g35
sI2
g39
sI3
(lp42
sI4
(lp43
ssI4
(dp44
I0
g29
sI1
g36
sI2
g40
sI3
g43
sI4
(lp45
ssa(dp46
I0
(dp47
I0
(lp48
sI1
(lp49
sI2
(lp50
sI3
(lp51
sI4
(lp52
ssI1
(dp53
I0
g49
sI1
(lp54
sI2
(lp55
sI3
(lp56
sI4
(lp57
ssI2
(dp58
I0
g50
sI1
g55
sI2
(lp59
sI3
(lp60
sI4
(lp61
ssI3
(dp62
I0
g51
sI1
g56
sI2
g60
sI3
(lp63
sI4
(lp64
ssI4
(dp65
I0
g52
sI1
g57
sI2
g61
sI3
g64
sI4
(lp66
ssa(dp67
I0
(dp68
I0
(lp69
sI1
(lp70
sI2
(lp71
sI3
(lp72
sI4
(lp73
ssI1
(dp74
I0
g70
sI1
(lp75
sI2
(lp76
sI3
(lp77
sI4
(lp78
ssI2
(dp79
I0
g71
sI1
g76
sI2
(lp80
sI3
(lp81
sI4
(lp82
ssI3
(dp83
I0
g72
sI1
g77
sI2
g81
sI3
(lp84
sI4
(lp85
ssI4
(dp86
I0
g73
sI1
g78
sI2
g82
sI3
g85
sI4
(lp87
ssa(dp88
I0
(dp89
I0
(lp90
sI1
(lp91
Vhttp://dbpedia.org/ontology/owner
p92
aVhttp://dbpedia.org/ontology/owningCompany
p93
aVhttp://dbpedia.org/ontology/abstract
p94
aVhttp://www.w3.org/2000/01/rdf-schema#comment
p95
aVhttp://dbpedia.org/property/owner
p96
asI2
(lp97
Vhttp://dbpedia.org/property/headquarters
p98
aVhttp://dbpedia.org/property/junction
p99
aVhttp://dbpedia.org/ontology/abstract
p100
aVhttp://dbpedia.org/property/venue
p101
aVhttp://dbpedia.org/property/location
p102
aVhttp://dbpedia.org/property/locationCity
p103
aVhttp://dbpedia.org/ontology/headquarter
p104
aVhttp://dbpedia.org/property/place
p105
aVhttp://dbpedia.org/ontology/locationCity
p106
aVhttp://dbpedia.org/ontology/routeJunction
p107
aVhttp://dbpedia.org/property/stadium
p108
aVhttp://dbpedia.org/ontology/location
p109
asI3
(lp110
sI4
(lp111
ssI1
(dp112
I0
g91
sI1
(lp113
sI2
(lp114
sI3
(lp115
sI4
(lp116
ssI2
(dp117
I0
g97
sI1
g114
sI2
(lp118
sI3
(lp119
sI4
(lp120
ssI3
(dp121
I0
g110
sI1
g115
sI2
g119
sI3
(lp122
sI4
(lp123
ssI4
(dp124
I0
g111
sI1
g116
sI2
g120
sI3
g123
sI4
(lp125
ssa(dp126
I0
(dp127
I0
(lp128
sI1
(lp129
sI2
(lp130
Vhttp://dbpedia.org/property/headquarters
p131
aVhttp://dbpedia.org/property/junction
p132
aVhttp://dbpedia.org/ontology/abstract
p133
aVhttp://dbpedia.org/property/venue
p134
aVhttp://dbpedia.org/property/location
p135
aVhttp://dbpedia.org/property/locationCity
p136
aVhttp://dbpedia.org/ontology/headquarter
p137
aVhttp://dbpedia.org/property/place
p138
aVhttp://dbpedia.org/ontology/locationCity
p139
aVhttp://dbpedia.org/ontology/routeJunction
p140
aVhttp://dbpedia.org/property/stadium
p141
aVhttp://dbpedia.org/ontology/location
p142
asI3
(lp143
sI4
(lp144
ssI1
(dp145
I0
g129
sI1
(lp146
sI2
(lp147
sI3
(lp148
sI4
(lp149
ssI2
(dp150
I0
g130
sI1
g147
sI2
(lp151
sI3
(lp152
sI4
(lp153
ssI3
(dp154
I0
g143
sI1
g148
sI2
g152
sI3
(lp155
sI4
(lp156
ssI4
(dp157
I0
g144
sI1
g149
sI2
g153
sI3
g156
sI4
(lp158
ssa(dp159
I0
(dp160
I0
(lp161
sI1
(lp162
Vhttp://dbpedia.org/ontology/abstract
p163
aVhttp://www.w3.org/2000/01/rdf-schema#comment
p164
asI2
(lp165
Vhttp://dbpedia.org/property/timezone
p166
aVhttp://dbpedia.org/ontology/location
p167
aVhttp://www.w3.org/2000/01/rdf-schema#comment
p168
aVhttp://dbpedia.org/ontology/timeZone
p169
aVhttp://dbpedia.org/ontology/abstract
p170
aVhttp://dbpedia.org/property/place
p171
aVhttp://dbpedia.org/property/location
p172
aVhttp://dbpedia.org/property/city
p173
aVhttp://dbpedia.org/property/base
p174
aVhttp://dbpedia.org/ontology/city
p175
aVhttp://dbpedia.org/property/stadium
p176
aVhttp://dbpedia.org/property/headquarters
p177
asI3
(lp178
sI4
(lp179
ssI1
(dp180
I0
g162
sI1
(lp181
sI2
(lp182
Vhttp://dbpedia.org/ontology/abstract
p183
aVhttp://xmlns.com/foaf/0.1/depiction
p184
aVhttp://dbpedia.org/ontology/thumbnail
p185
aVhttp://www.w3.org/2000/01/rdf-schema#comment
p186
asI3
(lp187
sI4
(lp188
ssI2
(dp189
I0
g165
sI1
g182
sI2
(lp190
sI3
(lp191
sI4
(lp192
ssI3
(dp193
I0
g178
sI1
g187
sI2
g191
sI3
(lp194
sI4
(lp195
ssI4
(dp196
I0
g179
sI1
g188
sI2
g192
sI3
g195
sI4
(lp197
ssa(dp198
I0
(dp199
I0
(lp200
sI1
(lp201
sI2
(lp202
sI3
(lp203
sI4
(lp204
ssI1
(dp205
I0
g201
sI1
(lp206
sI2
(lp207
Vhttp://www.w3.org/1999/02/22-rdf-syntax-ns#type
p208
aVhttp://purl.org/dc/terms/subject
p209
aVhttp://www.w3.org/2000/01/rdf-schema#comment
p210
aVhttp://dbpedia.org/ontology/abstract
p211
aVhttp://dbpedia.org/property/location
p212
aVhttp://dbpedia.org/ontology/owner
p213
aVhttp://dbpedia.org/ontology/affiliation
p214
asI3
(lp215
sI4
(lp216
ssI2
(dp217
I0
g202
sI1
g207
sI2
(lp218
sI3
(lp219
sI4
(lp220
ssI3
(dp221
I0
g203
sI1
g215
sI2
g219
sI3
(lp222
sI4
(lp223
ssI4
(dp224
I0
g204
sI1
g216
sI2
g220
sI3
g223
sI4
(lp225
ssa(dp226
I0
(dp227
I0
(lp228
sI1
(lp229
sI2
(lp230
Vhttp://dbpedia.org/ontology/formerTeam
p231
asI3
(lp232
sI4
(lp233
ssI1
(dp234
I0
g229
sI1
(lp235
sI2
(lp236
Vhttp://dbpedia.org/ontology/abstract
p237
aVhttp://www.w3.org/2000/01/rdf-schema#comment
p238
aVhttp://purl.org/dc/terms/subject
p239
aVhttp://dbpedia.org/property/location
p240
aVhttp://dbpedia.org/ontology/location
p241
asI3
(lp242
sI4
(lp243
ssI2
(dp244
I0
g230
sI1
g236
sI2
(lp245
sI3
(lp246
sI4
(lp247
ssI3
(dp248
I0
g232
sI1
g242
sI2
g246
sI3
(lp249
sI4
(lp250
ssI4
(dp251
I0
g233
sI1
g243
sI2
g247
sI3
g250
sI4
(lp252
ssa(dp253
I0
(dp254
I0
(lp255
sI1
(lp256
sI2
(lp257
Vhttp://dbpedia.org/ontology/formerTeam
p258
asI3
(lp259
sI4
(lp260
ssI1
(dp261
I0
g256
sI1
(lp262
sI2
(lp263
Vhttp://www.w3.org/1999/02/22-rdf-syntax-ns#type
p264
aVhttp://purl.org/dc/terms/subject
p265
aVhttp://www.w3.org/2000/01/rdf-schema#comment
p266
aVhttp://dbpedia.org/ontology/abstract
p267
aVhttp://dbpedia.org/ontology/wikiPageRedirects
p268
aVhttp://dbpedia.org/ontology/foundationPlace
p269
aVhttp://dbpedia.org/property/locationCity
p270
aVhttp://dbpedia.org/ontology/locationCity
p271
asI3
(lp272
sI4
(lp273
ssI2
(dp274
I0
g257
sI1
g263
sI2
(lp275
sI3
(lp276
sI4
(lp277
ssI3
(dp278
I0
g259
sI1
g272
sI2
g276
sI3
(lp279
sI4
(lp280
ssI4
(dp281
I0
g260
sI1
g273
sI2
g277
sI3
g280
sI4
(lp282
ssa(dp283
I0
(dp284
I0
(lp285
sI1
(lp286
sI2
(lp287
sI3
(lp288
sI4
(lp289
ssI1
(dp290
I0
g286
sI1
(lp291
sI2
(lp292
sI3
(lp293
sI4
(lp294
ssI2
(dp295
I0
g287
sI1
g292
sI2
(lp296
sI3
(lp297
sI4
(lp298
ssI3
(dp299
I0
g288
sI1
g293
sI2
g297
sI3
(lp300
sI4
(lp301
ssI4
(dp302
I0
g289
sI1
g294
sI2
g298
sI3
g301
sI4
(lp303
ssa(dp304
I0
(dp305
I0
(lp306
sI1
(lp307
sI2
(lp308
sI3
(lp309
sI4
(lp310
ssI1
(dp311
I0
g307
sI1
(lp312
sI2
(lp313
Vhttp://dbpedia.org/ontology/predecessor
p314
aVhttp://www.w3.org/1999/02/22-rdf-syntax-ns#type
p315
aVhttp://purl.org/dc/terms/subject
p316
aVhttp://www.w3.org/2000/01/rdf-schema#comment
p317
aVhttp://dbpedia.org/ontology/abstract
p318
aVhttp://dbpedia.org/ontology/wikiPageRedirects
p319
aVhttp://dbpedia.org/property/successor
p320
aVhttp://dbpedia.org/ontology/successor
p321
aVhttp://dbpedia.org/property/predecessor
p322
asI3
(lp323
sI4
(lp324
ssI2
(dp325
I0
g308
sI1
g313
sI2
(lp326
sI3
(lp327
sI4
(lp328
ssI3
(dp329
I0
g309
sI1
g323
sI2
g327
sI3
(lp330
sI4
(lp331
ssI4
(dp332
I0
g310
sI1
g324
sI2
g328
sI3
g331
sI4
(lp333
ssa(dp334
I0
(dp335
I0
(lp336
sI1
(lp337
sI2
(lp338
Vhttp://dbpedia.org/property/currencyCode
p339
asI3
(lp340
sI4
(lp341
ssI1
(dp342
I0
g337
sI1
(lp343
sI2
(lp344
sI3
(lp345
sI4
(lp346
ssI2
(dp347
I0
g338
sI1
g344
sI2
(lp348
sI3
(lp349
sI4
(lp350
ssI3
(dp351
I0
g340
sI1
g345
sI2
g349
sI3
(lp352
sI4
(lp353
ssI4
(dp354
I0
g341
sI1
g346
sI2
g350
sI3
g353
sI4
(lp355
ssa(dp356
I0
(dp357
I0
(lp358
sI1
(lp359
sI2
(lp360
sI3
(lp361
sI4
(lp362
ssI1
(dp363
I0
g359
sI1
(lp364
sI2
(lp365
Vhttp://www.w3.org/1999/02/22-rdf-syntax-ns#type
p366
aVhttp://purl.org/dc/terms/subject
p367
aVhttp://dbpedia.org/ontology/location
p368
aVhttp://www.w3.org/2000/01/rdf-schema#comment
p369
aVhttp://dbpedia.org/ontology/abstract
p370
aVhttp://dbpedia.org/property/location
p371
asI3
(lp372
sI4
(lp373
ssI2
(dp374
I0
g360
sI1
g365
sI2
(lp375
sI3
(lp376
sI4
(lp377
ssI3
(dp378
I0
g361
sI1
g372
sI2
g376
sI3
(lp379
sI4
(lp380
ssI4
(dp381
I0
g362
sI1
g373
sI2
g377
sI3
g380
sI4
(lp382
ssa(dp383
I0
(dp384
I0
(lp385
sI1
(lp386
sI2
(lp387
sI3
(lp388
sI4
(lp389
ssI1
(dp390
I0
g386
sI1
(lp391
sI2
(lp392
sI3
(lp393
sI4
(lp394
ssI2
(dp395
I0
g387
sI1
g392
sI2
(lp396
sI3
(lp397
sI4
(lp398
ssI3
(dp399
I0
g388
sI1
g393
sI2
g397
sI3
(lp400
sI4
(lp401
ssI4
(dp402
I0
g389
sI1
g394
sI2
g398
sI3
g401
sI4
(lp403
ssa(dp404
I0
(dp405
I0
(lp406
sI1
(lp407
sI2
(lp408
Vhttp://dbpedia.org/property/origin
p409
aVhttp://dbpedia.org/ontology/country
p410
aVhttp://dbpedia.org/property/currencyCode
p411
aVhttp://dbpedia.org/property/shipBuilder
p412
aVhttp://dbpedia.org/ontology/nationality
p413
aVhttp://dbpedia.org/ontology/birthPlace
p414
aVhttp://dbpedia.org/property/deathPlace
p415
aVhttp://dbpedia.org/ontology/hometown
p416
aVhttp://dbpedia.org/property/birthPlace
p417
aVhttp://dbpedia.org/ontology/deathPlace
p418
aVhttp://dbpedia.org/property/placeOfDeath
p419
aVhttp://dbpedia.org/ontology/builder
p420
aVhttp://dbpedia.org/property/placeOfBirth
p421
asI3
(lp422
sI4
(lp423
ssI1
(dp424
I0
g407
sI1
(lp425
sI2
(lp426
sI3
(lp427
sI4
(lp428
ssI2
(dp429
I0
g408
sI1
g426
sI2
(lp430
sI3
(lp431
sI4
(lp432
ssI3
(dp433
I0
g422
sI1
g427
sI2
g431
sI3
(lp434
sI4
(lp435
ssI4
(dp436
I0
g423
sI1
g428
sI2
g432
sI3
g435
sI4
(lp437
ssa(dp438
I0
(dp439
I0
(lp440
sI1
(lp441
sI2
(lp442
sI3
(lp443
sI4
(lp444
ssI1
(dp445
I0
g441
sI1
(lp446
sI2
(lp447
sI3
(lp448
sI4
(lp449
ssI2
(dp450
I0
g442
sI1
g447
sI2
(lp451
sI3
(lp452
sI4
(lp453
ssI3
(dp454
I0
g443
sI1
g448
sI2
g452
sI3
(lp455
sI4
(lp456
ssI4
(dp457
I0
g444
sI1
g449
sI2
g453
sI3
g456
sI4
(lp458
ssa(dp459
I0
(dp460
I0
(lp461
sI1
(lp462
sI2
(lp463
sI3
(lp464
sI4
(lp465
ssI1
(dp466
I0
g462
sI1
(lp467
sI2
(lp468
Vhttp://www.w3.org/1999/02/22-rdf-syntax-ns#type
p469
aVhttp://purl.org/dc/terms/subject
p470
aVhttp://dbpedia.org/ontology/location
p471
aVhttp://www.w3.org/2000/01/rdf-schema#comment
p472
aVhttp://dbpedia.org/ontology/abstract
p473
aVhttp://dbpedia.org/property/location
p474
asI3
(lp475
sI4
(lp476
ssI2
(dp477
I0
g463
sI1
g468
sI2
(lp478
sI3
(lp479
sI4
(lp480
ssI3
(dp481
I0
g464
sI1
g475
sI2
g479
sI3
(lp482
sI4
(lp483
ssI4
(dp484
I0
g465
sI1
g476
sI2
g480
sI3
g483
sI4
(lp485
ssa.