ccollections
defaultdict
p1
(c__builtin__
dict
p2
tRp3
I0
(dp4
I1
(lp5
sI2
(lp6
sI3
(lp7
sI4
(lp8
ssI1
(dp9
I1
(lp10
sI2
(lp11
sI3
(lp12
sI4
(lp13
ssI2
(dp14
I1
(lp15
sI2
(lp16
sI3
(lp17
sI4
(lp18
ssI3
(dp19
I1
(lp20
sI2
(lp21
sI3
(lp22
sI4
(lp23
ssI8
(dp24
I1
(lp25
sI2
(lp26
Vhttp://dbpedia.org/ontology/formerTeam
p27
asI3
(lp28
sI4
(lp29
ssI9
(dp30
I1
(lp31
sI2
(lp32
Vhttp://dbpedia.org/ontology/formerTeam
p33
asI3
(lp34
sI4
(lp35
ssI10
(dp36
I1
(lp37
sI2
(lp38
sI3
(lp39
sI4
(lp40
ssI11
(dp41
I1
(lp42
sI2
(lp43
sI3
(lp44
sI4
(lp45
ssI13
(dp46
I1
(lp47
sI2
(lp48
sI3
(lp49
sI4
(lp50
ss.