ccollections
defaultdict
p1
(c__builtin__
dict
p2
tRp3
I0
(dp4
I0
(lp5
Vhttp://www.w3.org/2000/01/rdf-schema#seeAlso
p6
aVhttp://dbpedia.org/ontology/country
p7
aVhttp://www.w3.org/1999/02/22-rdf-syntax-ns#type
p8
aVhttp://purl.org/dc/terms/subject
p9
aVhttp://www.w3.org/2000/01/rdf-schema#comment
p10
aVhttp://dbpedia.org/ontology/abstract
p11
aVhttp://dbpedia.org/property/place
p12
aVhttp://dbpedia.org/ontology/wikiPageRedirects
p13
aVhttp://dbpedia.org/property/debuts
p14
aVhttp://dbpedia.org/property/states
p15
aVhttp://dbpedia.org/ontology/place
p16
aVhttp://dbpedia.org/ontology/spokenIn
p17
aVhttp://dbpedia.org/property/country
p18
aVhttp://dbpedia.org/ontology/regionServed
p19
asI1
(lp20
Vhttp://dbpedia.org/ontology/abstract
p21
aVhttp://www.w3.org/2000/01/rdf-schema#comment
p22
asI3
(lp23
Vhttp://www.w3.org/2000/01/rdf-schema#seeAlso
p24
aVhttp://dbpedia.org/property/ground
p25
aVhttp://dbpedia.org/property/place
p26
aVhttp://dbpedia.org/ontology/ground
p27
aVhttp://dbpedia.org/ontology/country
p28
aVhttp://dbpedia.org/ontology/capital
p29
aVhttp://dbpedia.org/property/locationCountry
p30
aVhttp://dbpedia.org/property/largestCity
p31
aVhttp://dbpedia.org/property/capital
p32
aVhttp://dbpedia.org/ontology/nationality
p33
aVhttp://dbpedia.org/property/birthPlace
p34
aVhttp://dbpedia.org/ontology/place
p35
aVhttp://dbpedia.org/property/placeOfBirth
p36
aVhttp://dbpedia.org/property/country
p37
aVhttp://dbpedia.org/property/nationality
p38
aVhttp://dbpedia.org/ontology/abstract
p39
aVhttp://dbpedia.org/property/location
p40
aVhttp://dbpedia.org/ontology/location
p41
aVhttp://www.w3.org/2000/01/rdf-schema#comment
p42
aVhttp://dbpedia.org/ontology/birthPlace
p43
aVhttp://dbpedia.org/ontology/largestCity
p44
aVhttp://dbpedia.org/ontology/stateOfOrigin
p45
asI4
(lp46
Vhttp://dbpedia.org/property/placeOfDeath
p47
aVhttp://dbpedia.org/property/cctld
p48
aVhttp://dbpedia.org/ontology/garrison
p49
aVhttp://www.w3.org/ns/prov#wasDerivedFrom
p50
aVhttp://dbpedia.org/ontology/demonym
p51
aVhttp://dbpedia.org/property/broadcastArea
p52
aVhttp://dbpedia.org/ontology/nationality
p53
aVhttp://dbpedia.org/property/shortDescription
p54
aVhttp://xmlns.com/foaf/0.1/isPrimaryTopicOf
p55
aVhttp://dbpedia.org/property/establishedEvent
p56
aVhttp://dbpedia.org/property/nationality
p57
aVhttp://dbpedia.org/ontology/abstract
p58
aVhttp://dbpedia.org/property/leaderName
p59
aVhttp://dbpedia.org/property/imageMap
p60
aVhttp://dbpedia.org/ontology/location
p61
aVhttp://dbpedia.org/property/countriesAffected
p62
aVhttp://dbpedia.org/ontology/wikiPageExternalLink
p63
aVhttp://dbpedia.org/property/area
p64
aVhttp://dbpedia.org/ontology/restingPlace
p65
aVhttp://dbpedia.org/ontology/spokenIn
p66
aVhttp://dbpedia.org/property/jurisdiction
p67
aVhttp://dbpedia.org/property/leaderTitle
p68
aVhttp://www.w3.org/2000/01/rdf-schema#seeAlso
p69
aVhttp://dbpedia.org/property/currency
p70
aVhttp://dbpedia.org/property/restingPlace
p71
aVhttp://dbpedia.org/property/team1Name
p72
aVhttp://dbpedia.org/property/legislature
p73
aVhttp://dbpedia.org/property/site
p74
aVhttp://dbpedia.org/ontology/country
p75
aVhttp://dbpedia.org/property/nationalAnthem
p76
aVhttp://dbpedia.org/property/birthPlace
p77
aVhttp://dbpedia.org/property/country
p78
aVhttp://dbpedia.org/property/areaServed
p79
aVhttp://dbpedia.org/ontology/county
p80
aVhttp://xmlns.com/foaf/0.1/primaryTopic
p81
aVhttp://dbpedia.org/property/location
p82
aVhttp://dbpedia.org/property/states
p83
aVhttp://dbpedia.org/ontology/locationCountry
p84
aVhttp://dbpedia.org/ontology/deathPlace
p85
aVhttp://dbpedia.org/ontology/thumbnail
p86
aVhttp://dbpedia.org/property/hasPhotoCollection
p87
aVhttp://dbpedia.org/property/headquarters
p88
aVhttp://dbpedia.org/property/countryName
p89
aVhttp://dbpedia.org/ontology/anthem
p90
aVhttp://dbpedia.org/ontology/birthPlace
p91
aVhttp://dbpedia.org/ontology/wikiPageRedirects
p92
aVhttp://dbpedia.org/property/citizenship
p93
aVhttp://dbpedia.org/property/imageCoat
p94
aVhttp://dbpedia.org/ontology/stateOfOrigin
p95
aVhttp://www.w3.org/2002/07/owl#sameAs
p96
aVhttp://dbpedia.org/ontology/leader
p97
aVhttp://dbpedia.org/ontology/origin
p98
aVhttp://dbpedia.org/ontology/currency
p99
aVhttp://dbpedia.org/property/residence
p100
aVhttp://dbpedia.org/ontology/longName
p101
aVhttp://dbpedia.org/property/locationCountry
p102
aVhttp://dbpedia.org/ontology/ground
p103
aVhttp://dbpedia.org/property/lowerHouse
p104
aVhttp://dbpedia.org/property/countryCode
p105
aVhttp://dbpedia.org/property/placeOfBirth
p106
aVhttp://dbpedia.org/property/ideology
p107
aVhttp://xmlns.com/foaf/0.1/depiction
p108
aVhttp://dbpedia.org/property/observedby
p109
aVhttp://dbpedia.org/ontology/flag
p110
aVhttp://dbpedia.org/property/commonName
p111
aVhttp://dbpedia.org/property/subdivisionName
p112
aVhttp://dbpedia.org/property/destination
p113
aVhttp://dbpedia.org/property/order
p114
aVhttp://dbpedia.org/property/imageFlag
p115
aVhttp://dbpedia.org/property/place
p116
aVhttp://dbpedia.org/ontology/jurisdiction
p117
aVhttp://dbpedia.org/property/lastStopover
p118
aVhttp://www.w3.org/2002/07/owl#differentFrom
p119
aVhttp://dbpedia.org/property/upperHouse
p120
aVhttp://dbpedia.org/property/available
p121
aVhttp://dbpedia.org/ontology/place
p122
aVhttp://dbpedia.org/property/office
p123
aVhttp://dbpedia.org/ontology/residence
p124
aVhttp://dbpedia.org/property/body
p125
aVhttp://dbpedia.org/property/callingCode
p126
aVhttp://dbpedia.org/ontology/wikiPageDisambiguates
p127
aVhttp://purl.org/dc/terms/subject
p128
aVhttp://dbpedia.org/ontology/populationPlace
p129
aVhttp://dbpedia.org/property/deathPlace
p130
aVhttp://dbpedia.org/property/armiger
p131
aVhttp://dbpedia.org/ontology/nationalAffiliation
p132
aVhttp://dbpedia.org/ontology/headquarter
p133
aVhttp://dbpedia.org/property/stopover
p134
aVhttp://www.w3.org/2000/01/rdf-schema#label
p135
aVhttp://dbpedia.org/property/title
p136
aVhttp://dbpedia.org/property/locale
p137
aVhttp://dbpedia.org/property/currencyCode
p138
aVhttp://dbpedia.org/property/garrison
p139
aVhttp://www.w3.org/2000/01/rdf-schema#comment
p140
aVhttp://dbpedia.org/property/demonym
p141
aVhttp://xmlns.com/foaf/0.1/name
p142
aVhttp://dbpedia.org/ontology/premierePlace
p143
aVhttp://dbpedia.org/property/through
p144
aVhttp://dbpedia.org/ontology/occupation
p145
asI5
(lp146
Vhttp://dbpedia.org/property/placeOfDeath
p147
aVhttp://dbpedia.org/property/cctld
p148
aVhttp://dbpedia.org/ontology/garrison
p149
aVhttp://www.w3.org/ns/prov#wasDerivedFrom
p150
aVhttp://dbpedia.org/ontology/demonym
p151
aVhttp://dbpedia.org/property/broadcastArea
p152
aVhttp://dbpedia.org/ontology/nationality
p153
aVhttp://dbpedia.org/property/shortDescription
p154
aVhttp://xmlns.com/foaf/0.1/isPrimaryTopicOf
p155
aVhttp://dbpedia.org/property/establishedEvent
p156
aVhttp://dbpedia.org/property/nationality
p157
aVhttp://dbpedia.org/ontology/abstract
p158
aVhttp://dbpedia.org/property/leaderName
p159
aVhttp://dbpedia.org/property/imageMap
p160
aVhttp://dbpedia.org/ontology/location
p161
aVhttp://dbpedia.org/property/countriesAffected
p162
aVhttp://dbpedia.org/ontology/wikiPageExternalLink
p163
aVhttp://dbpedia.org/property/area
p164
aVhttp://dbpedia.org/ontology/restingPlace
p165
aVhttp://dbpedia.org/ontology/spokenIn
p166
aVhttp://dbpedia.org/property/jurisdiction
p167
aVhttp://dbpedia.org/property/leaderTitle
p168
aVhttp://www.w3.org/2000/01/rdf-schema#seeAlso
p169
aVhttp://dbpedia.org/property/currency
p170
aVhttp://dbpedia.org/property/restingPlace
p171
aVhttp://dbpedia.org/property/team1Name
p172
aVhttp://dbpedia.org/property/legislature
p173
aVhttp://dbpedia.org/property/site
p174
aVhttp://dbpedia.org/ontology/country
p175
aVhttp://dbpedia.org/property/nationalAnthem
p176
aVhttp://dbpedia.org/property/birthPlace
p177
aVhttp://dbpedia.org/property/country
p178
aVhttp://dbpedia.org/property/areaServed
p179
aVhttp://dbpedia.org/ontology/county
p180
aVhttp://xmlns.com/foaf/0.1/primaryTopic
p181
aVhttp://dbpedia.org/property/location
p182
aVhttp://dbpedia.org/property/states
p183
aVhttp://dbpedia.org/ontology/locationCountry
p184
aVhttp://dbpedia.org/ontology/deathPlace
p185
aVhttp://dbpedia.org/ontology/thumbnail
p186
aVhttp://dbpedia.org/property/hasPhotoCollection
p187
aVhttp://dbpedia.org/property/headquarters
p188
aVhttp://dbpedia.org/property/countryName
p189
aVhttp://dbpedia.org/ontology/anthem
p190
aVhttp://dbpedia.org/ontology/birthPlace
p191
aVhttp://dbpedia.org/ontology/wikiPageRedirects
p192
aVhttp://dbpedia.org/property/citizenship
p193
aVhttp://dbpedia.org/property/imageCoat
p194
aVhttp://dbpedia.org/ontology/stateOfOrigin
p195
aVhttp://www.w3.org/2002/07/owl#sameAs
p196
aVhttp://dbpedia.org/ontology/leader
p197
aVhttp://dbpedia.org/ontology/origin
p198
aVhttp://dbpedia.org/ontology/currency
p199
aVhttp://dbpedia.org/property/residence
p200
aVhttp://dbpedia.org/ontology/longName
p201
aVhttp://dbpedia.org/property/locationCountry
p202
aVhttp://dbpedia.org/ontology/ground
p203
aVhttp://dbpedia.org/property/lowerHouse
p204
aVhttp://dbpedia.org/property/countryCode
p205
aVhttp://dbpedia.org/property/placeOfBirth
p206
aVhttp://dbpedia.org/property/ideology
p207
aVhttp://xmlns.com/foaf/0.1/depiction
p208
aVhttp://dbpedia.org/property/observedby
p209
aVhttp://dbpedia.org/ontology/flag
p210
aVhttp://dbpedia.org/property/commonName
p211
aVhttp://dbpedia.org/property/subdivisionName
p212
aVhttp://dbpedia.org/property/destination
p213
aVhttp://dbpedia.org/property/order
p214
aVhttp://dbpedia.org/property/imageFlag
p215
aVhttp://dbpedia.org/property/place
p216
aVhttp://dbpedia.org/ontology/jurisdiction
p217
aVhttp://dbpedia.org/property/lastStopover
p218
aVhttp://www.w3.org/2002/07/owl#differentFrom
p219
aVhttp://dbpedia.org/property/upperHouse
p220
aVhttp://dbpedia.org/property/available
p221
aVhttp://dbpedia.org/ontology/place
p222
aVhttp://dbpedia.org/property/office
p223
aVhttp://dbpedia.org/ontology/residence
p224
aVhttp://dbpedia.org/property/body
p225
aVhttp://dbpedia.org/property/callingCode
p226
aVhttp://dbpedia.org/ontology/wikiPageDisambiguates
p227
aVhttp://purl.org/dc/terms/subject
p228
aVhttp://dbpedia.org/ontology/populationPlace
p229
aVhttp://dbpedia.org/property/deathPlace
p230
aVhttp://dbpedia.org/property/armiger
p231
aVhttp://dbpedia.org/ontology/nationalAffiliation
p232
aVhttp://dbpedia.org/ontology/headquarter
p233
aVhttp://dbpedia.org/property/stopover
p234
aVhttp://www.w3.org/2000/01/rdf-schema#label
p235
aVhttp://dbpedia.org/property/title
p236
aVhttp://dbpedia.org/property/locale
p237
aVhttp://dbpedia.org/property/currencyCode
p238
aVhttp://dbpedia.org/property/garrison
p239
aVhttp://www.w3.org/2000/01/rdf-schema#comment
p240
aVhttp://dbpedia.org/property/demonym
p241
aVhttp://xmlns.com/foaf/0.1/name
p242
aVhttp://dbpedia.org/ontology/premierePlace
p243
aVhttp://dbpedia.org/property/through
p244
aVhttp://dbpedia.org/ontology/occupation
p245
asI6
(lp246
Vhttp://dbpedia.org/property/placeOfDeath
p247
aVhttp://dbpedia.org/property/broadcastArea
p248
aVhttp://dbpedia.org/ontology/garrison
p249
aVhttp://www.w3.org/ns/prov#wasDerivedFrom
p250
aVhttp://dbpedia.org/ontology/demonym
p251
aVhttp://dbpedia.org/ontology/nationality
p252
aVhttp://dbpedia.org/property/shortDescription
p253
aVhttp://xmlns.com/foaf/0.1/isPrimaryTopicOf
p254
aVhttp://dbpedia.org/property/establishedEvent
p255
aVhttp://dbpedia.org/property/nationality
p256
aVhttp://dbpedia.org/ontology/abstract
p257
aVhttp://dbpedia.org/property/imageMap
p258
aVhttp://dbpedia.org/ontology/location
p259
aVhttp://dbpedia.org/property/countriesAffected
p260
aVhttp://dbpedia.org/ontology/wikiPageExternalLink
p261
aVhttp://dbpedia.org/property/area
p262
aVhttp://dbpedia.org/ontology/spokenIn
p263
aVhttp://dbpedia.org/property/jurisdiction
p264
aVhttp://dbpedia.org/property/leaderTitle
p265
aVhttp://www.w3.org/2000/01/rdf-schema#seeAlso
p266
aVhttp://dbpedia.org/property/currency
p267
aVhttp://dbpedia.org/property/team1Name
p268
aVhttp://dbpedia.org/property/legislature
p269
aVhttp://dbpedia.org/property/site
p270
aVhttp://dbpedia.org/ontology/country
p271
aVhttp://dbpedia.org/property/nationalAnthem
p272
aVhttp://dbpedia.org/property/birthPlace
p273
aVhttp://dbpedia.org/property/country
p274
aVhttp://dbpedia.org/property/areaServed
p275
aVhttp://dbpedia.org/ontology/county
p276
aVhttp://xmlns.com/foaf/0.1/primaryTopic
p277
aVhttp://dbpedia.org/property/location
p278
aVhttp://dbpedia.org/property/states
p279
aVhttp://dbpedia.org/ontology/locationCountry
p280
aVhttp://dbpedia.org/ontology/deathPlace
p281
aVhttp://dbpedia.org/property/hasPhotoCollection
p282
aVhttp://dbpedia.org/property/headquarters
p283
aVhttp://dbpedia.org/property/countryName
p284
aVhttp://dbpedia.org/ontology/anthem
p285
aVhttp://dbpedia.org/ontology/birthPlace
p286
aVhttp://dbpedia.org/ontology/wikiPageRedirects
p287
aVhttp://dbpedia.org/property/citizenship
p288
aVhttp://dbpedia.org/property/imageCoat
p289
aVhttp://dbpedia.org/ontology/stateOfOrigin
p290
aVhttp://www.w3.org/2002/07/owl#sameAs
p291
aVhttp://dbpedia.org/ontology/origin
p292
aVhttp://dbpedia.org/ontology/currency
p293
aVhttp://dbpedia.org/property/residence
p294
aVhttp://dbpedia.org/ontology/longName
p295
aVhttp://dbpedia.org/property/locationCountry
p296
aVhttp://dbpedia.org/ontology/ground
p297
aVhttp://dbpedia.org/property/lowerHouse
p298
aVhttp://dbpedia.org/property/countryCode
p299
aVhttp://dbpedia.org/property/placeOfBirth
p300
aVhttp://dbpedia.org/property/ideology
p301
aVhttp://xmlns.com/foaf/0.1/depiction
p302
aVhttp://dbpedia.org/property/observedby
p303
aVhttp://dbpedia.org/ontology/flag
p304
aVhttp://dbpedia.org/property/commonName
p305
aVhttp://dbpedia.org/property/subdivisionName
p306
aVhttp://dbpedia.org/property/destination
p307
aVhttp://dbpedia.org/property/imageFlag
p308
aVhttp://dbpedia.org/property/place
p309
aVhttp://dbpedia.org/ontology/jurisdiction
p310
aVhttp://dbpedia.org/property/lastStopover
p311
aVhttp://www.w3.org/2002/07/owl#differentFrom
p312
aVhttp://dbpedia.org/property/upperHouse
p313
aVhttp://dbpedia.org/property/available
p314
aVhttp://dbpedia.org/ontology/place
p315
aVhttp://dbpedia.org/property/office
p316
aVhttp://dbpedia.org/property/body
p317
aVhttp://dbpedia.org/property/callingCode
p318
aVhttp://dbpedia.org/ontology/wikiPageDisambiguates
p319
aVhttp://purl.org/dc/terms/subject
p320
aVhttp://dbpedia.org/ontology/populationPlace
p321
aVhttp://dbpedia.org/property/deathPlace
p322
aVhttp://dbpedia.org/property/armiger
p323
aVhttp://dbpedia.org/ontology/nationalAffiliation
p324
aVhttp://dbpedia.org/ontology/headquarter
p325
aVhttp://dbpedia.org/property/stopover
p326
aVhttp://www.w3.org/2000/01/rdf-schema#label
p327
aVhttp://dbpedia.org/property/title
p328
aVhttp://dbpedia.org/property/locale
p329
aVhttp://dbpedia.org/property/garrison
p330
aVhttp://www.w3.org/2000/01/rdf-schema#comment
p331
aVhttp://dbpedia.org/property/demonym
p332
aVhttp://xmlns.com/foaf/0.1/name
p333
aVhttp://dbpedia.org/ontology/premierePlace
p334
aVhttp://dbpedia.org/property/through
p335
aVhttp://dbpedia.org/ontology/thumbnail
p336
asI7
(lp337
Vhttp://dbpedia.org/property/withdraws
p338
aVhttp://dbpedia.org/ontology/abstract
p339
aVhttp://www.w3.org/2000/01/rdf-schema#comment
p340
asI8
(lp341
Vhttp://dbpedia.org/property/placeOfDeath
p342
aVhttp://dbpedia.org/property/cctld
p343
aVhttp://dbpedia.org/ontology/garrison
p344
aVhttp://www.w3.org/ns/prov#wasDerivedFrom
p345
aVhttp://dbpedia.org/ontology/demonym
p346
aVhttp://dbpedia.org/property/broadcastArea
p347
aVhttp://dbpedia.org/ontology/nationality
p348
aVhttp://dbpedia.org/property/shortDescription
p349
aVhttp://xmlns.com/foaf/0.1/isPrimaryTopicOf
p350
aVhttp://dbpedia.org/property/establishedEvent
p351
aVhttp://dbpedia.org/property/nationality
p352
aVhttp://dbpedia.org/ontology/abstract
p353
aVhttp://dbpedia.org/property/leaderName
p354
aVhttp://dbpedia.org/property/imageMap
p355
aVhttp://dbpedia.org/ontology/location
p356
aVhttp://dbpedia.org/property/countriesAffected
p357
aVhttp://dbpedia.org/ontology/wikiPageExternalLink
p358
aVhttp://dbpedia.org/property/area
p359
aVhttp://dbpedia.org/ontology/restingPlace
p360
aVhttp://dbpedia.org/ontology/spokenIn
p361
aVhttp://dbpedia.org/property/jurisdiction
p362
aVhttp://dbpedia.org/property/leaderTitle
p363
aVhttp://www.w3.org/2000/01/rdf-schema#seeAlso
p364
aVhttp://dbpedia.org/property/currency
p365
aVhttp://dbpedia.org/property/restingPlace
p366
aVhttp://dbpedia.org/property/team1Name
p367
aVhttp://dbpedia.org/property/legislature
p368
aVhttp://dbpedia.org/property/site
p369
aVhttp://dbpedia.org/ontology/country
p370
aVhttp://dbpedia.org/property/nationalAnthem
p371
aVhttp://dbpedia.org/property/birthPlace
p372
aVhttp://dbpedia.org/property/country
p373
aVhttp://dbpedia.org/property/areaServed
p374
aVhttp://dbpedia.org/ontology/county
p375
aVhttp://xmlns.com/foaf/0.1/primaryTopic
p376
aVhttp://dbpedia.org/property/location
p377
aVhttp://dbpedia.org/property/states
p378
aVhttp://dbpedia.org/ontology/locationCountry
p379
aVhttp://dbpedia.org/ontology/deathPlace
p380
aVhttp://dbpedia.org/ontology/thumbnail
p381
aVhttp://dbpedia.org/property/hasPhotoCollection
p382
aVhttp://dbpedia.org/property/headquarters
p383
aVhttp://dbpedia.org/property/countryName
p384
aVhttp://dbpedia.org/ontology/anthem
p385
aVhttp://dbpedia.org/ontology/birthPlace
p386
aVhttp://dbpedia.org/ontology/wikiPageRedirects
p387
aVhttp://dbpedia.org/property/citizenship
p388
aVhttp://dbpedia.org/property/imageCoat
p389
aVhttp://dbpedia.org/ontology/stateOfOrigin
p390
aVhttp://www.w3.org/2002/07/owl#sameAs
p391
aVhttp://dbpedia.org/ontology/leader
p392
aVhttp://dbpedia.org/ontology/origin
p393
aVhttp://dbpedia.org/ontology/currency
p394
aVhttp://dbpedia.org/property/residence
p395
aVhttp://dbpedia.org/ontology/longName
p396
aVhttp://dbpedia.org/property/locationCountry
p397
aVhttp://dbpedia.org/ontology/ground
p398
aVhttp://dbpedia.org/property/lowerHouse
p399
aVhttp://dbpedia.org/property/countryCode
p400
aVhttp://dbpedia.org/property/placeOfBirth
p401
aVhttp://dbpedia.org/property/ideology
p402
aVhttp://xmlns.com/foaf/0.1/depiction
p403
aVhttp://dbpedia.org/property/observedby
p404
aVhttp://dbpedia.org/ontology/flag
p405
aVhttp://dbpedia.org/property/commonName
p406
aVhttp://dbpedia.org/property/subdivisionName
p407
aVhttp://dbpedia.org/property/destination
p408
aVhttp://dbpedia.org/property/order
p409
aVhttp://dbpedia.org/property/imageFlag
p410
aVhttp://dbpedia.org/property/place
p411
aVhttp://dbpedia.org/ontology/jurisdiction
p412
aVhttp://dbpedia.org/property/lastStopover
p413
aVhttp://www.w3.org/2002/07/owl#differentFrom
p414
aVhttp://dbpedia.org/property/upperHouse
p415
aVhttp://dbpedia.org/property/available
p416
aVhttp://dbpedia.org/ontology/place
p417
aVhttp://dbpedia.org/property/office
p418
aVhttp://dbpedia.org/ontology/residence
p419
aVhttp://dbpedia.org/property/body
p420
aVhttp://dbpedia.org/property/callingCode
p421
aVhttp://dbpedia.org/ontology/wikiPageDisambiguates
p422
aVhttp://purl.org/dc/terms/subject
p423
aVhttp://dbpedia.org/ontology/populationPlace
p424
aVhttp://dbpedia.org/property/deathPlace
p425
aVhttp://dbpedia.org/property/armiger
p426
aVhttp://dbpedia.org/ontology/nationalAffiliation
p427
aVhttp://dbpedia.org/ontology/headquarter
p428
aVhttp://dbpedia.org/property/stopover
p429
aVhttp://www.w3.org/2000/01/rdf-schema#label
p430
aVhttp://dbpedia.org/property/title
p431
aVhttp://dbpedia.org/property/locale
p432
aVhttp://dbpedia.org/property/currencyCode
p433
aVhttp://dbpedia.org/property/garrison
p434
aVhttp://www.w3.org/2000/01/rdf-schema#comment
p435
aVhttp://dbpedia.org/property/demonym
p436
aVhttp://xmlns.com/foaf/0.1/name
p437
aVhttp://dbpedia.org/ontology/premierePlace
p438
aVhttp://dbpedia.org/property/through
p439
aVhttp://dbpedia.org/ontology/occupation
p440
asI9
(lp441
ssI11
(dp442
I0
(lp443
Vhttp://www.w3.org/2000/01/rdf-schema#seeAlso
p444
aVhttp://dbpedia.org/property/cities
p445
aVhttp://dbpedia.org/property/continent
p446
aVhttp://www.w3.org/ns/prov#wasDerivedFrom
p447
aVhttp://dbpedia.org/property/caption
p448
aVhttp://dbpedia.org/ontology/demonym
p449
aVhttp://dbpedia.org/ontology/regionServed
p450
aVhttp://dbpedia.org/property/image
p451
aVhttp://xmlns.com/foaf/0.1/isPrimaryTopicOf
p452
aVhttp://dbpedia.org/property/country
p453
aVhttp://dbpedia.org/ontology/wikiPageDisambiguates
p454
aVhttp://dbpedia.org/ontology/wikiPageExternalLink
p455
aVhttp://xmlns.com/foaf/0.1/primaryTopic
p456
aVhttp://purl.org/dc/terms/subject
p457
aVhttp://dbpedia.org/ontology/abstract
p458
aVhttp://xmlns.com/foaf/0.1/depiction
p459
aVhttp://dbpedia.org/property/location
p460
aVhttp://dbpedia.org/ontology/thumbnail
p461
aVhttp://dbpedia.org/property/hasPhotoCollection
p462
aVhttp://www.w3.org/2000/01/rdf-schema#label
p463
aVhttp://dbpedia.org/property/title
p464
aVhttp://www.w3.org/2000/01/rdf-schema#comment
p465
aVhttp://dbpedia.org/ontology/wikiPageRedirects
p466
aVhttp://dbpedia.org/property/demonym
p467
aVhttp://dbpedia.org/property/regionServed
p468
aVhttp://www.w3.org/2002/07/owl#sameAs
p469
asI1
(lp470
Vhttp://purl.org/dc/terms/subject
p471
aVhttp://www.w3.org/2000/01/rdf-schema#comment
p472
aVhttp://dbpedia.org/ontology/abstract
p473
aVhttp://dbpedia.org/ontology/wikiPageRedirects
p474
aVhttp://dbpedia.org/property/image
p475
aVhttp://dbpedia.org/property/country/region
p476
aVhttp://dbpedia.org/property/areaServed
p477
aVhttp://dbpedia.org/ontology/regionServed
p478
asI3
(lp479
Vhttp://www.w3.org/2000/01/rdf-schema#seeAlso
p480
aVhttp://dbpedia.org/property/cities
p481
asI4
(lp482
Vhttp://www.w3.org/2000/01/rdf-schema#seeAlso
p483
aVhttp://www.w3.org/1999/02/22-rdf-syntax-ns#type
p484
aVhttp://dbpedia.org/ontology/location
p485
aVhttp://www.w3.org/2000/01/rdf-schema#comment
p486
aVhttp://dbpedia.org/ontology/abstract
p487
aVhttp://dbpedia.org/property/continent
p488
aVhttp://dbpedia.org/property/locations
p489
aVhttp://dbpedia.org/property/image
p490
aVhttp://dbpedia.org/property/country/region
p491
aVhttp://dbpedia.org/property/areaServed
p492
aVhttp://dbpedia.org/property/regionServed
p493
aVhttp://dbpedia.org/property/territory
p494
aVhttp://www.w3.org/2002/07/owl#sameAs
p495
aVhttp://dbpedia.org/ontology/regionServed
p496
asI5
(lp497
Vhttp://dbpedia.org/ontology/wikiPageExternalLink
p498
aVhttp://dbpedia.org/property/region
p499
aVhttp://dbpedia.org/ontology/territory
p500
aVhttp://www.w3.org/2000/01/rdf-schema#comment
p501
aVhttp://dbpedia.org/property/locations
p502
aVhttp://dbpedia.org/ontology/abstract
p503
aVhttp://dbpedia.org/ontology/wikiPageRedirects
p504
aVhttp://dbpedia.org/property/continent
p505
aVhttp://dbpedia.org/property/cityOrRegion
p506
aVhttp://dbpedia.org/property/cities
p507
aVhttp://dbpedia.org/ontology/regionServed
p508
asI6
(lp509
Vhttp://dbpedia.org/ontology/wikiPageExternalLink
p510
aVhttp://dbpedia.org/property/region
p511
aVhttp://www.w3.org/2000/01/rdf-schema#comment
p512
aVhttp://dbpedia.org/ontology/abstract
p513
aVhttp://dbpedia.org/property/continent
p514
aVhttp://dbpedia.org/ontology/wikiPageRedirects
p515
aVhttp://dbpedia.org/property/cityOrRegion
p516
asI7
(lp517
sI8
(lp518
Vhttp://dbpedia.org/ontology/wikiPageExternalLink
p519
aVhttp://dbpedia.org/property/region
p520
aVhttp://dbpedia.org/ontology/territory
p521
aVhttp://www.w3.org/2000/01/rdf-schema#comment
p522
aVhttp://dbpedia.org/property/locations
p523
aVhttp://dbpedia.org/ontology/abstract
p524
aVhttp://dbpedia.org/ontology/wikiPageRedirects
p525
aVhttp://dbpedia.org/property/continent
p526
aVhttp://dbpedia.org/property/cityOrRegion
p527
aVhttp://dbpedia.org/property/cities
p528
aVhttp://dbpedia.org/ontology/regionServed
p529
asI9
(lp530
Vhttp://www.w3.org/1999/02/22-rdf-syntax-ns#type
p531
aVhttp://www.w3.org/2000/01/rdf-schema#comment
p532
aVhttp://dbpedia.org/property/locations
p533
aVhttp://dbpedia.org/ontology/abstract
p534
aVhttp://dbpedia.org/property/location
p535
aVhttp://dbpedia.org/property/time
p536
aVhttp://www.w3.org/ns/prov#wasDerivedFrom
p537
aVhttp://www.w3.org/2002/07/owl#sameAs
p538
assI3
(dp539
I0
(lp540
sI1
(lp541
Vhttp://dbpedia.org/ontology/abstract
p542
aVhttp://dbpedia.org/property/focusCities
p543
aVhttp://www.w3.org/2000/01/rdf-schema#comment
p544
asI3
(lp545
Vhttp://dbpedia.org/ontology/abstract
p546
asI4
(lp547
sI5
(lp548
Vhttp://dbpedia.org/property/origin
p549
aVhttp://dbpedia.org/property/cctld
p550
aVhttp://dbpedia.org/ontology/knownFor
p551
aVhttp://dbpedia.org/ontology/country
p552
aVhttp://www.w3.org/1999/02/22-rdf-syntax-ns#type
p553
aVhttp://dbpedia.org/ontology/isPartOf
p554
aVhttp://dbpedia.org/ontology/nationality
p555
aVhttp://dbpedia.org/property/birthPlace
p556
aVhttp://dbpedia.org/ontology/ethnicGroup
p557
aVhttp://dbpedia.org/property/countryCode
p558
aVhttp://dbpedia.org/ontology/wikiPageDisambiguates
p559
aVhttp://dbpedia.org/property/placeOfBirth
p560
aVhttp://dbpedia.org/ontology/wikiPageExternalLink
p561
aVhttp://purl.org/dc/terms/subject
p562
aVhttp://dbpedia.org/property/county
p563
aVhttp://dbpedia.org/ontology/abstract
p564
aVhttp://dbpedia.org/ontology/leader
p565
aVhttp://www.w3.org/2000/01/rdf-schema#comment
p566
aVhttp://dbpedia.org/ontology/birthPlace
p567
aVhttp://dbpedia.org/ontology/wikiPageRedirects
p568
aVhttp://dbpedia.org/ontology/hometown
p569
aVhttp://dbpedia.org/ontology/stateOfOrigin
p570
aVhttp://www.w3.org/2002/07/owl#sameAs
p571
asI6
(lp572
Vhttp://dbpedia.org/property/countryCode
p573
asI7
(lp574
sI8
(lp575
Vhttp://dbpedia.org/property/origin
p576
aVhttp://dbpedia.org/property/cctld
p577
aVhttp://dbpedia.org/ontology/knownFor
p578
aVhttp://dbpedia.org/ontology/country
p579
aVhttp://www.w3.org/1999/02/22-rdf-syntax-ns#type
p580
aVhttp://dbpedia.org/ontology/isPartOf
p581
aVhttp://dbpedia.org/ontology/nationality
p582
aVhttp://dbpedia.org/property/birthPlace
p583
aVhttp://dbpedia.org/ontology/ethnicGroup
p584
aVhttp://dbpedia.org/property/countryCode
p585
aVhttp://dbpedia.org/ontology/wikiPageDisambiguates
p586
aVhttp://dbpedia.org/property/placeOfBirth
p587
aVhttp://dbpedia.org/ontology/wikiPageExternalLink
p588
aVhttp://purl.org/dc/terms/subject
p589
aVhttp://dbpedia.org/property/county
p590
aVhttp://dbpedia.org/ontology/abstract
p591
aVhttp://dbpedia.org/ontology/leader
p592
aVhttp://www.w3.org/2000/01/rdf-schema#comment
p593
aVhttp://dbpedia.org/ontology/birthPlace
p594
aVhttp://dbpedia.org/ontology/wikiPageRedirects
p595
aVhttp://dbpedia.org/ontology/hometown
p596
aVhttp://dbpedia.org/ontology/stateOfOrigin
p597
aVhttp://www.w3.org/2002/07/owl#sameAs
p598
asI9
(lp599
ss.