(lp1
(dp2
I0
(dp3
I0
(lp4
sI1
(lp5
ssI1
(dp6
I0
g5
sI1
(lp7
ssa(dp8
I0
(dp9
I0
(lp10
sI1
(lp11
ssI1
(dp12
I0
g11
sI1
(lp13
ssa(dp14
I0
(dp15
I0
(lp16
sI1
(lp17
Vhttp://dbpedia.org/ontology/abstract
p18
aVhttp://purl.org/dc/terms/subject
p19
aVhttp://www.w3.org/2000/01/rdf-schema#comment
p20
assI1
(dp21
I0
g17
sI1
(lp22
ssa(dp23
I0
(dp24
I0
(lp25
sI1
(lp26
ssI1
(dp27
I0
g26
sI1
(lp28
ssa(dp29
I0
(dp30
I0
(lp31
sI1
(lp32
ssI1
(dp33
I0
g32
sI1
(lp34
ssa(dp35
I0
(dp36
I0
(lp37
sI1
(lp38
Vhttp://dbpedia.org/ontology/abstract
p39
aVhttp://purl.org/dc/terms/subject
p40
aVhttp://www.w3.org/2000/01/rdf-schema#comment
p41
assI1
(dp42
I0
g38
sI1
(lp43
ssa(dp44
I0
(dp45
I0
(lp46
sI1
(lp47
ssI1
(dp48
I0
g47
sI1
(lp49
ssa(dp50
I0
(dp51
I0
(lp52
sI1
(lp53
ssI1
(dp54
I0
g53
sI1
(lp55
ssa(dp56
I0
(dp57
I0
(lp58
sI1
(lp59
ssI1
(dp60
I0
g59
sI1
(lp61
ssa(dp62
I0
(dp63
I0
(lp64
sI1
(lp65
ssI1
(dp66
I0
g65
sI1
(lp67
ssa(dp68
I0
(dp69
I0
(lp70
sI1
(lp71
ssI1
(dp72
I0
g71
sI1
(lp73
ssa(dp74
I0
(dp75
I0
(lp76
sI1
(lp77
ssI1
(dp78
I0
g77
sI1
(lp79
ssa(dp80
I0
(dp81
I0
(lp82
sI1
(lp83
ssI1
(dp84
I0
g83
sI1
(lp85
ssa(dp86
I0
(dp87
I0
(lp88
sI1
(lp89
ssI1
(dp90
I0
g89
sI1
(lp91
ssa(dp92
I0
(dp93
I0
(lp94
sI1
(lp95
ssI1
(dp96
I0
g95
sI1
(lp97
ssa(dp98
I0
(dp99
I0
(lp100
sI1
(lp101
ssI1
(dp102
I0
g101
sI1
(lp103
ssa(dp104
I0
(dp105
I0
(lp106
sI1
(lp107
ssI1
(dp108
I0
g107
sI1
(lp109
ssa(dp110
I0
(dp111
I0
(lp112
sI1
(lp113
Vhttp://dbpedia.org/ontology/abstract
p114
aVhttp://purl.org/dc/terms/subject
p115
aVhttp://www.w3.org/2000/01/rdf-schema#comment
p116
assI1
(dp117
I0
g113
sI1
(lp118
ssa(dp119
I0
(dp120
I0
(lp121
sI1
(lp122
ssI1
(dp123
I0
g122
sI1
(lp124
ssa.