(lp1
(lp2
(lp3
a(lp4
Vhttp://dbpedia.org/resource/FIA_Alternative_Energies_Cup
p5
aa(lp6
a(lp7
Vhttp://dbpedia.org/resource/FIA_Alternative_Energies_Cup
p8
aa(lp9
a(lp10
a(lp11
aa(lp12
(lp13
a(lp14
a(lp15
a(lp16
a(lp17
a(lp18
a(lp19
aa(lp20
(lp21
a(lp22
a(lp23
a(lp24
a(lp25
a(lp26
a(lp27
aa(lp28
(lp29
a(lp30
a(lp31
a(lp32
a(lp33
a(lp34
a(lp35
aa(lp36
(lp37
a(lp38
a(lp39
a(lp40
a(lp41
a(lp42
a(lp43
aa(lp44
(lp45
a(lp46
Vhttp://dbpedia.org/resource/2002%E2%80%9303_New_Zealand_V8_season
p47
aa(lp48
a(lp49
Vhttp://dbpedia.org/resource/New_Zealand
p50
aa(lp51
a(lp52
a(lp53
aa(lp54
(lp55
a(lp56
Vhttp://dbpedia.org/resource/2002%E2%80%9303_New_Zealand_V8_season
p57
aa(lp58
a(lp59
Vhttp://dbpedia.org/resource/New_Zealand
p60
aa(lp61
a(lp62
a(lp63
aa(lp64
(lp65
a(lp66
a(lp67
a(lp68
Vhttp://dbpedia.org/resource/V8_Supercars
p69
aa(lp70
a(lp71
a(lp72
aa(lp73
(lp74
a(lp75
Vhttp://dbpedia.org/resource/1997_British_Rally_Championship_season
p76
aa(lp77
a(lp78
Vhttp://dbpedia.org/resource/British_Rally_Championship
p79
aa(lp80
a(lp81
a(lp82
aa(lp83
(lp84
a(lp85
a(lp86
a(lp87
a(lp88
a(lp89
a(lp90
aa(lp91
(lp92
a(lp93
a(lp94
a(lp95
Vhttp://dbpedia.org/resource/SCCA_National_Sports_Car_Championship
p96
aa(lp97
a(lp98
a(lp99
aa(lp100
(lp101
a(lp102
a(lp103
a(lp104
Vhttp://dbpedia.org/resource/British_Sports_Car_Championship
p105
aa(lp106
a(lp107
a(lp108
aa(lp109
(lp110
a(lp111
a(lp112
a(lp113
a(lp114
a(lp115
a(lp116
aa(lp117
(lp118
a(lp119
a(lp120
a(lp121
Vhttp://dbpedia.org/resource/British_Sports_Car_Championship
p122
aa(lp123
a(lp124
a(lp125
aa(lp126
(lp127
a(lp128
Vhttp://dbpedia.org/resource/European_Speedway_Club_Champions'_Cup
p129
aa(lp130
a(lp131
a(lp132
a(lp133
a(lp134
aa(lp135
(lp136
a(lp137
a(lp138
a(lp139
Vhttp://dbpedia.org/resource/TC_2000_Championship
p140
aa(lp141
a(lp142
a(lp143
aa(lp144
(lp145
a(lp146
a(lp147
a(lp148
a(lp149
a(lp150
a(lp151
aa.