(lp1
(lp2
(lp3
a(lp4
((lp5
Vhttp://dbpedia.org/class/yago/Actor109765278
p6
aVhttp://dbpedia.org/class/yago/ActorsFromParis
p7
aVhttp://dbpedia.org/class/yago/Advocate109774783
p8
aVhttp://dbpedia.org/class/yago/AnimalRightsAdvocates
p9
aVhttp://dbpedia.org/class/yago/Artist109812338
p10
aVhttp://dbpedia.org/class/yago/Assistant109815790
p11
aVhttp://dbpedia.org/class/yago/BreastCancerSurvivors
p12
aVhttp://dbpedia.org/class/yago/CausalAgent100007347
p13
aVhttp://dbpedia.org/class/yago/Creator109614315
p14
aVhttp://dbpedia.org/class/yago/Disputant109615465
p15
aVhttp://dbpedia.org/class/yago/Eater110042300
p16
aVhttp://dbpedia.org/class/yago/Entertainer109616922
p17
aVhttp://dbpedia.org/class/yago/LivingThing100004258
p18
aVhttp://dbpedia.org/class/yago/Militant110315837
p19
aVhttp://dbpedia.org/class/yago/Model110324560
p20
aVhttp://dbpedia.org/class/yago/Musician110339966
p21
aVhttp://dbpedia.org/class/yago/Musician110340312
p22
aVhttp://dbpedia.org/class/yago/Object100002684
p23
aVhttp://dbpedia.org/class/yago/Organism100004475
p24
aVhttp://dbpedia.org/class/yago/Performer110415638
p25
aVhttp://dbpedia.org/class/yago/Person100007846
p26
aVhttp://dbpedia.org/class/yago/Reformer110515194
p27
aVhttp://dbpedia.org/class/yago/Singer110599806
p28
aVhttp://dbpedia.org/class/yago/Survivor110681194
p29
aVhttp://dbpedia.org/class/yago/Unfortunate109630641
p30
aVhttp://dbpedia.org/class/yago/User110741590
p31
aVhttp://dbpedia.org/class/yago/Vegetarian110747119
p32
aVhttp://dbpedia.org/class/yago/Whole100003553
p33
aVhttp://dbpedia.org/class/yago/Worker109632518
p34
aVhttp://dbpedia.org/class/yago/YagoLegalActorGeo
p35
aVhttp://www.w3.org/2002/07/owl#Thing
p36
aVhttp://xmlns.com/foaf/0.1/Person
p37
aVhttp://dbpedia.org/ontology/Person
p38
aVhttp://www.ontologydesignpatterns.org/ont/dul/DUL.owl#Agent
p39
aVhttp://www.ontologydesignpatterns.org/ont/dul/DUL.owl#NaturalPerson
p40
aVhttp://www.wikidata.org/entity/Q215627
p41
aVhttp://www.wikidata.org/entity/Q5
p42
aVhttp://dbpedia.org/ontology/Agent
p43
aVhttp://schema.org/Person
p44
aVhttp://umbel.org/umbel/rc/Actor
p45
aVhttp://dbpedia.org/class/yago/FrenchActivists
p46
aVhttp://dbpedia.org/class/yago/FrenchFemaleModels
p47
aVhttp://dbpedia.org/class/yago/FrenchFemaleSingers
p48
aVhttp://dbpedia.org/class/yago/FrenchFilmActors
p49
aVhttp://dbpedia.org/class/yago/FrenchVegetarians
p50
aVhttp://dbpedia.org/class/yago/YagoLegalActor
p51
aVhttp://dbpedia.org/class/yago/Consumer109612848
p52
aVhttp://dbpedia.org/class/yago/IndividualsAssociatedWithAnimalWelfare
p53
aVhttp://dbpedia.org/class/yago/LivingPeople
p54
aVhttp://dbpedia.org/class/yago/MGMRecordsArtists
p55
aVhttp://dbpedia.org/class/yago/PhysicalEntity100001930
p56
aVhttp://dbpedia.org/resource/Brigitte_Bardot
tp57
aa(lp58
((lp59
Vhttp://www.w3.org/2002/07/owl#Thing
p60
aVhttp://xmlns.com/foaf/0.1/Person
p61
aVhttp://dbpedia.org/ontology/Person
p62
aVhttp://www.ontologydesignpatterns.org/ont/dul/DUL.owl#Agent
p63
aVhttp://www.ontologydesignpatterns.org/ont/dul/DUL.owl#NaturalPerson
p64
aVhttp://www.wikidata.org/entity/Q215627
p65
aVhttp://www.wikidata.org/entity/Q5
p66
aVhttp://dbpedia.org/ontology/Agent
p67
aVhttp://schema.org/Person
p68
aVhttp://dbpedia.org/resource/Brittany_Ishibashi
tp69
aa(lp70
a(lp71
a(lp72
a(lp73
((lp74
Vhttp://www.w3.org/2002/07/owl#Thing
p75
aVhttp://xmlns.com/foaf/0.1/Person
p76
aVhttp://dbpedia.org/ontology/Person
p77
aVhttp://www.ontologydesignpatterns.org/ont/dul/DUL.owl#Agent
p78
aVhttp://www.ontologydesignpatterns.org/ont/dul/DUL.owl#NaturalPerson
p79
aVhttp://www.wikidata.org/entity/Q215627
p80
aVhttp://www.wikidata.org/entity/Q5
p81
aVhttp://dbpedia.org/ontology/Agent
p82
aVhttp://schema.org/Person
p83
aVhttp://dbpedia.org/resource/Bruce_Chapman_(Australian_economist)
tp84
aa(lp85
a(lp86
a(lp87
a(lp88
a(lp89
a(lp90
a(lp91
a(lp92
((lp93
Vhttp://dbpedia.org/class/yago/Alumnus109786338
p94
aVhttp://dbpedia.org/class/yago/AmericanWriters
p95
aVhttp://dbpedia.org/class/yago/BereaCollegeAlumni
p96
aVhttp://dbpedia.org/class/yago/CausalAgent100007347
p97
aVhttp://dbpedia.org/class/yago/Communicator109610660
p98
aVhttp://dbpedia.org/class/yago/Intellectual109621545
p99
aVhttp://dbpedia.org/class/yago/LivingThing100004258
p100
aVhttp://dbpedia.org/class/yago/Object100002684
p101
aVhttp://dbpedia.org/class/yago/Organism100004475
p102
aVhttp://dbpedia.org/class/yago/Person100007846
p103
aVhttp://dbpedia.org/class/yago/Scholar110557854
p104
aVhttp://dbpedia.org/class/yago/Whole100003553
p105
aVhttp://dbpedia.org/class/yago/Writer110794014
p106
aVhttp://dbpedia.org/class/yago/YagoLegalActorGeo
p107
aVhttp://www.w3.org/2002/07/owl#Thing
p108
aVhttp://xmlns.com/foaf/0.1/Person
p109
aVhttp://dbpedia.org/ontology/Person
p110
aVhttp://www.ontologydesignpatterns.org/ont/dul/DUL.owl#Agent
p111
aVhttp://www.ontologydesignpatterns.org/ont/dul/DUL.owl#NaturalPerson
p112
aVhttp://www.wikidata.org/entity/Q215627
p113
aVhttp://www.wikidata.org/entity/Q5
p114
aVhttp://dbpedia.org/ontology/Agent
p115
aVhttp://schema.org/Person
p116
aVhttp://dbpedia.org/class/yago/YagoLegalActor
p117
aVhttp://dbpedia.org/class/yago/LivingPeople
p118
aVhttp://dbpedia.org/class/yago/PhysicalEntity100001930
p119
aVhttp://dbpedia.org/class/yago/WritersFromKentucky
p120
aVhttp://dbpedia.org/resource/C.E._Morgan
p121
tp122
aa(lp123
a(lp124
a(lp125
a(lp126
aa.