(lp1
(lp2
(dp3
Vstart
p4
I0
sVdisambiguatedURL
p5
NsVnamedEntity
p6
Vjefferson salamander
p7
sVoffset
p8
I20
saa(lp9
(dp10
Vstart
p11
I0
sVdisambiguatedURL
p12
NsVnamedEntity
p13
Vspotted salamander
p14
sVoffset
p15
I18
saa(lp16
(dp17
Vstart
p18
I0
sVdisambiguatedURL
p19
NsVnamedEntity
p20
Vmarbled salamander
p21
sVoffset
p22
I18
saa(lp23
(dp24
Vstart
p25
I0
sVdisambiguatedURL
p26
NsVnamedEntity
p27
Vmole salamander
p28
sVoffset
p29
I15
saa(lp30
(dp31
Vstart
p32
I0
sVdisambiguatedURL
p33
NsVnamedEntity
p34
Vsmallmouth salamander
p35
sVoffset
p36
I21
saa(lp37
(dp38
Vstart
p39
I0
sVdisambiguatedURL
p40
NsVnamedEntity
p41
Vtiger salamander
p42
sVoffset
p43
I16
saa(lp44
(dp45
Vstart
p46
I0
sVdisambiguatedURL
p47
NsVnamedEntity
p48
Vstreamside salamander
p49
sVoffset
p50
I21
saa(lp51
(dp52
Vstart
p53
I0
sVdisambiguatedURL
p54
NsVnamedEntity
p55
Vthree-toed amphiuma
p56
sVoffset
p57
I19
saa(lp58
(dp59
Vstart
p60
I0
sVdisambiguatedURL
p61
NsVnamedEntity
p62
Vhellbender
p63
sVoffset
p64
I10
saa(lp65
(dp66
Vstart
p67
I0
sVdisambiguatedURL
p68
NsVnamedEntity
p69
Vgreen salamander
p70
sVoffset
p71
I16
saa(lp72
(dp73
Vstart
p74
I0
sVdisambiguatedURL
p75
Vhttp://dbpedia.org/resource/Desmognathus_fuscus
p76
sVnamedEntity
p77
Vdusky salamander
p78
sVoffset
p79
I16
saa(lp80
(dp81
Vstart
p82
I0
sVdisambiguatedURL
p83
NsVnamedEntity
p84
Vseal salamander
p85
sVoffset
p86
I15
saa(lp87
(dp88
Vstart
p89
I0
sVdisambiguatedURL
p90
NsVnamedEntity
p91
Vallegheny mountain dusky salamander
p92
sVoffset
p93
I35
saa(lp94
(dp95
Vstart
p96
I0
sVdisambiguatedURL
p97
NsVnamedEntity
p98
Vblack mountain salamander
p99
sVoffset
p100
I25
saa(lp101
(dp102
Vstart
p103
I0
sVdisambiguatedURL
p104
NsVnamedEntity
p105
Vlongtail salamander
p106
sVoffset
p107
I19
saa(lp108
(dp109
Vstart
p110
I0
sVdisambiguatedURL
p111
Vhttp://dbpedia.org/resource/Cave_salamander
p112
sVnamedEntity
p113
Vcave salamander
p114
sVoffset
p115
I15
saa(lp116
(dp117
Vstart
p118
I0
sVdisambiguatedURL
p119
NsVnamedEntity
p120
Vsouthern two-lined salamander
p121
sVoffset
p122
I29
saa(lp123
(dp124
Vstart
p125
I0
sVdisambiguatedURL
p126
NsVnamedEntity
p127
Vthree-lined salamander
p128
sVoffset
p129
I22
saa(lp130
(dp131
Vstart
p132
I0
sVdisambiguatedURL
p133
NsVnamedEntity
p134
Vspring salamander
p135
sVoffset
p136
I17
saa(lp137
(dp138
Vstart
p139
I0
sVdisambiguatedURL
p140
NsVnamedEntity
p141
Vfour-toed salamander
p142
sVoffset
p143
I20
saa.