(lp1
(lp2
(lp3
((lp4
Vhttp://dbpedia.org/class/yago/Administrator109770949
p5
aVhttp://dbpedia.org/class/yago/CausalAgent100007347
p6
aVhttp://dbpedia.org/class/yago/Communicator109610660
p7
aVhttp://dbpedia.org/class/yago/Executive110069645
p8
aVhttp://dbpedia.org/class/yago/GeneralManager110125697
p9
aVhttp://dbpedia.org/class/yago/Head110162991
p10
aVhttp://dbpedia.org/class/yago/HeadOfState110164747
p11
aVhttp://dbpedia.org/class/yago/Leader109623038
p12
aVhttp://dbpedia.org/class/yago/LivingThing100004258
p13
aVhttp://dbpedia.org/class/yago/Negotiator110351874
p14
aVhttp://dbpedia.org/class/yago/Object100002684
p15
aVhttp://dbpedia.org/class/yago/Organism100004475
p16
aVhttp://dbpedia.org/class/yago/Person100007846
p17
aVhttp://dbpedia.org/class/yago/President110467179
p18
aVhttp://dbpedia.org/class/yago/Representative110522035
p19
aVhttp://dbpedia.org/class/yago/Whole100003553
p20
aVhttp://dbpedia.org/class/yago/YagoLegalActorGeo
p21
aVhttp://www.w3.org/2002/07/owl#Thing
p22
aVhttp://xmlns.com/foaf/0.1/Person
p23
aVhttp://dbpedia.org/ontology/Person
p24
aVhttp://www.ontologydesignpatterns.org/ont/dul/DUL.owl#Agent
p25
aVhttp://www.ontologydesignpatterns.org/ont/dul/DUL.owl#NaturalPerson
p26
aVhttp://www.wikidata.org/entity/Q215627
p27
aVhttp://www.wikidata.org/entity/Q5
p28
aVhttp://dbpedia.org/ontology/Agent
p29
aVhttp://dbpedia.org/ontology/AmericanFootballCoach
p30
aVhttp://dbpedia.org/ontology/Coach
p31
aVhttp://schema.org/Person
p32
aVhttp://dbpedia.org/class/yago/NationalFootballLeagueExecutives
p33
aVhttp://dbpedia.org/class/yago/NationalFootballLeagueGeneralManagers
p34
aVhttp://dbpedia.org/class/yago/NationalFootballLeagueTeamPresidents
p35
aVhttp://dbpedia.org/class/yago/PeopleFromLongBeach,California
p36
aVhttp://dbpedia.org/class/yago/PhiladelphiaEaglesExecutives
p37
aVhttp://dbpedia.org/class/yago/YagoLegalActor
p38
aVhttp://dbpedia.org/class/yago/KansasCityChiefsExecutives
p39
aVhttp://dbpedia.org/class/yago/LivingPeople
p40
aVhttp://dbpedia.org/class/yago/PhysicalEntity100001930
p41
aVhttp://dbpedia.org/resource/Carl_Peterson
tp42
aa(lp43
((lp44
Vhttp://dbpedia.org/class/yago/Athlete109820263
p45
aVhttp://dbpedia.org/class/yago/CausalAgent100007347
p46
aVhttp://dbpedia.org/class/yago/Coach109931640
p47
aVhttp://dbpedia.org/class/yago/Contestant109613191
p48
aVhttp://dbpedia.org/class/yago/FootballCoach110101202
p49
aVhttp://dbpedia.org/class/yago/FootballPlayer110101634
p50
aVhttp://dbpedia.org/class/yago/Leader109623038
p51
aVhttp://dbpedia.org/class/yago/LivingThing100004258
p52
aVhttp://dbpedia.org/class/yago/Object100002684
p53
aVhttp://dbpedia.org/class/yago/Organism100004475
p54
aVhttp://dbpedia.org/class/yago/Person100007846
p55
aVhttp://dbpedia.org/class/yago/Player110439851
p56
aVhttp://dbpedia.org/class/yago/Trainer110722575
p57
aVhttp://dbpedia.org/class/yago/Whole100003553
p58
aVhttp://dbpedia.org/class/yago/YagoLegalActorGeo
p59
aVhttp://dbpedia.org/class/yago/SanDiegoChargersCoaches
p60
aVhttp://dbpedia.org/class/yago/SeattleSeahawksCoaches
p61
aVhttp://www.w3.org/2002/07/owl#Thing
p62
aVhttp://xmlns.com/foaf/0.1/Person
p63
aVhttp://dbpedia.org/ontology/Person
p64
aVhttp://www.ontologydesignpatterns.org/ont/dul/DUL.owl#Agent
p65
aVhttp://www.ontologydesignpatterns.org/ont/dul/DUL.owl#NaturalPerson
p66
aVhttp://www.wikidata.org/entity/Q215627
p67
aVhttp://www.wikidata.org/entity/Q5
p68
aVhttp://dbpedia.org/ontology/Agent
p69
aVhttp://dbpedia.org/ontology/AmericanFootballCoach
p70
aVhttp://dbpedia.org/ontology/Coach
p71
aVhttp://schema.org/Person
p72
aVhttp://dbpedia.org/class/yago/DallasCowboysCoaches
p73
aVhttp://dbpedia.org/class/yago/PeopleFromLosAngeles,California
p74
aVhttp://dbpedia.org/class/yago/YagoLegalActor
p75
aVhttp://dbpedia.org/class/yago/HighSchoolFootballCoachesInTheUnitedStates
p76
aVhttp://dbpedia.org/class/yago/LivingPeople
p77
aVhttp://dbpedia.org/class/yago/LosAngelesRamsCoaches
p78
aVhttp://dbpedia.org/class/yago/MiamiDolphinsCoaches
p79
aVhttp://dbpedia.org/class/yago/PhysicalEntity100001930
p80
aVhttp://dbpedia.org/class/yago/USCTrojansFootballCoaches
p81
aVhttp://dbpedia.org/class/yago/USCTrojansFootballPlayers
p82
aVhttp://dbpedia.org/resource/Hudson_Houck
tp83
aa(lp84
((lp85
Vhttp://dbpedia.org/class/yago/AmericanFootballReturnSpecialists
p86
aVhttp://dbpedia.org/class/yago/CausalAgent100007347
p87
aVhttp://dbpedia.org/class/yago/Coach109931640
p88
aVhttp://dbpedia.org/class/yago/Expert109617867
p89
aVhttp://dbpedia.org/class/yago/FootballCoach110101202
p90
aVhttp://dbpedia.org/class/yago/Leader109623038
p91
aVhttp://dbpedia.org/class/yago/LivingThing100004258
p92
aVhttp://dbpedia.org/class/yago/Object100002684
p93
aVhttp://dbpedia.org/class/yago/Organism100004475
p94
aVhttp://dbpedia.org/class/yago/Person100007846
p95
aVhttp://dbpedia.org/class/yago/Specialist110631941
p96
aVhttp://dbpedia.org/class/yago/Trainer110722575
p97
aVhttp://dbpedia.org/class/yago/Whole100003553
p98
aVhttp://dbpedia.org/class/yago/YagoLegalActorGeo
p99
aVhttp://dbpedia.org/class/yago/St.LouisRamsCoaches
p100
aVhttp://www.w3.org/2002/07/owl#Thing
p101
aVhttp://xmlns.com/foaf/0.1/Person
p102
aVhttp://dbpedia.org/ontology/Person
p103
aVhttp://www.ontologydesignpatterns.org/ont/dul/DUL.owl#Agent
p104
aVhttp://www.ontologydesignpatterns.org/ont/dul/DUL.owl#NaturalPerson
p105
aVhttp://www.wikidata.org/entity/Q215627
p106
aVhttp://www.wikidata.org/entity/Q5
p107
aVhttp://dbpedia.org/ontology/Agent
p108
aVhttp://dbpedia.org/ontology/AmericanFootballCoach
p109
aVhttp://dbpedia.org/ontology/Coach
p110
aVhttp://schema.org/Person
p111
aVhttp://dbpedia.org/class/yago/CincinnatiBengalsCoaches
p112
aVhttp://dbpedia.org/class/yago/NorthernArizonaLumberjacksFootballCoaches
p113
aVhttp://dbpedia.org/class/yago/PeopleFromSantaMaria,California
p114
aVhttp://dbpedia.org/class/yago/PhiladelphiaEaglesCoaches
p115
aVhttp://dbpedia.org/class/yago/YagoLegalActor
p116
aVhttp://dbpedia.org/class/yago/GreenBayPackersCoaches
p117
aVhttp://dbpedia.org/class/yago/LivingPeople
p118
aVhttp://dbpedia.org/class/yago/MiamiRedHawksFootballCoaches
p119
aVhttp://dbpedia.org/class/yago/PhysicalEntity100001930
p120
aVhttp://dbpedia.org/class/yago/USCTrojansFootballCoaches
p121
aVhttp://dbpedia.org/resource/Ken_Zampese
tp122
aa(lp123
((lp124
Vhttp://dbpedia.org/class/yago/Administrator109770949
p125
aVhttp://dbpedia.org/class/yago/CalStateFullertonTitansFootballCoaches
p126
aVhttp://dbpedia.org/class/yago/CausalAgent100007347
p127
aVhttp://dbpedia.org/class/yago/Coach109931640
p128
aVhttp://dbpedia.org/class/yago/Defender109614684
p129
aVhttp://dbpedia.org/class/yago/Executive110069645
p130
aVhttp://dbpedia.org/class/yago/FootballCoach110101202
p131
aVhttp://dbpedia.org/class/yago/Guard110150071
p132
aVhttp://dbpedia.org/class/yago/Head110162991
p133
aVhttp://dbpedia.org/class/yago/Leader109623038
p134
aVhttp://dbpedia.org/class/yago/LivingThing100004258
p135
aVhttp://dbpedia.org/class/yago/Lookout110271216
p136
aVhttp://dbpedia.org/class/yago/Object100002684
p137
aVhttp://dbpedia.org/class/yago/Organism100004475
p138
aVhttp://dbpedia.org/class/yago/Person100007846
p139
aVhttp://dbpedia.org/class/yago/Trainer110722575
p140
aVhttp://dbpedia.org/class/yago/Watchman110770059
p141
aVhttp://dbpedia.org/class/yago/Whole100003553
p142
aVhttp://dbpedia.org/class/yago/YagoLegalActorGeo
p143
aVhttp://dbpedia.org/class/yago/St.LouisRamsScouts
p144
aVhttp://www.w3.org/2002/07/owl#Thing
p145
aVhttp://xmlns.com/foaf/0.1/Person
p146
aVhttp://dbpedia.org/ontology/Person
p147
aVhttp://www.ontologydesignpatterns.org/ont/dul/DUL.owl#Agent
p148
aVhttp://www.ontologydesignpatterns.org/ont/dul/DUL.owl#NaturalPerson
p149
aVhttp://www.wikidata.org/entity/Q215627
p150
aVhttp://www.wikidata.org/entity/Q5
p151
aVhttp://dbpedia.org/ontology/Agent
p152
aVhttp://dbpedia.org/ontology/AmericanFootballCoach
p153
aVhttp://dbpedia.org/ontology/Coach
p154
aVhttp://schema.org/Person
p155
aVhttp://dbpedia.org/class/yago/Preserver110466918
p156
aVhttp://dbpedia.org/class/yago/NationalFootballLeagueExecutives
p157
aVhttp://dbpedia.org/class/yago/NewEnglandPatriotsExecutives
p158
aVhttp://dbpedia.org/class/yago/NewEnglandPatriotsScouts
p159
aVhttp://dbpedia.org/class/yago/PeopleFromIrvine,California
p160
aVhttp://dbpedia.org/class/yago/YagoLegalActor
p161
aVhttp://dbpedia.org/class/yago/LivingPeople
p162
aVhttp://dbpedia.org/class/yago/PhysicalEntity100001930
p163
aVhttp://dbpedia.org/resource/Larry_Cook
tp164
aa(lp165
((lp166
Vhttp://dbpedia.org/class/yago/AfricanAmericanCoachesOfAmericanFootball
p167
aVhttp://dbpedia.org/class/yago/AmericanFootballLinebackers
p168
aVhttp://dbpedia.org/class/yago/ArizonaStateSunDevilsFootballCoaches
p169
aVhttp://dbpedia.org/class/yago/Athlete109820263
p170
aVhttp://dbpedia.org/class/yago/CausalAgent100007347
p171
aVhttp://dbpedia.org/class/yago/Coach109931640
p172
aVhttp://dbpedia.org/class/yago/Contestant109613191
p173
aVhttp://dbpedia.org/class/yago/FootballCoach110101202
p174
aVhttp://dbpedia.org/class/yago/FootballPlayer110101634
p175
aVhttp://dbpedia.org/class/yago/Intellectual109621545
p176
aVhttp://dbpedia.org/class/yago/Leader109623038
p177
aVhttp://dbpedia.org/class/yago/Linebacker110263002
p178
aVhttp://dbpedia.org/class/yago/LivingThing100004258
p179
aVhttp://dbpedia.org/class/yago/Object100002684
p180
aVhttp://dbpedia.org/class/yago/Organism100004475
p181
aVhttp://dbpedia.org/class/yago/Organizer110383237
p182
aVhttp://dbpedia.org/class/yago/Person100007846
p183
aVhttp://dbpedia.org/class/yago/Player110439851
p184
aVhttp://dbpedia.org/class/yago/Thinker110708454
p185
aVhttp://dbpedia.org/class/yago/Trainer110722575
p186
aVhttp://dbpedia.org/class/yago/Whole100003553
p187
aVhttp://dbpedia.org/class/yago/YagoLegalActorGeo
p188
aVhttp://dbpedia.org/class/yago/St.LouisRamsCoaches
p189
aVhttp://www.w3.org/2002/07/owl#Thing
p190
aVhttp://xmlns.com/foaf/0.1/Person
p191
aVhttp://dbpedia.org/ontology/Person
p192
aVhttp://www.ontologydesignpatterns.org/ont/dul/DUL.owl#Agent
p193
aVhttp://www.ontologydesignpatterns.org/ont/dul/DUL.owl#NaturalPerson
p194
aVhttp://www.wikidata.org/entity/Q215627
p195
aVhttp://www.wikidata.org/entity/Q5
p196
aVhttp://dbpedia.org/ontology/Agent
p197
aVhttp://dbpedia.org/ontology/AmericanFootballCoach
p198
aVhttp://dbpedia.org/ontology/Coach
p199
aVhttp://schema.org/Person
p200
aVhttp://dbpedia.org/class/yago/ChicagoBearsHeadCoaches
p201
aVhttp://dbpedia.org/class/yago/Coordinator109963914
p202
aVhttp://dbpedia.org/class/yago/NationalFootballLeagueDefensiveCoordinators
p203
aVhttp://dbpedia.org/class/yago/NationalFootballLeagueHeadCoaches
p204
aVhttp://dbpedia.org/class/yago/OhioStateBuckeyesFootballCoaches
p205
aVhttp://dbpedia.org/class/yago/YagoLegalActor
p206
aVhttp://dbpedia.org/class/yago/KentuckyWildcatsFootballCoaches
p207
aVhttp://dbpedia.org/class/yago/LivingPeople
p208
aVhttp://dbpedia.org/class/yago/PhysicalEntity100001930
p209
aVhttp://dbpedia.org/class/yago/TampaBayBuccaneersCoaches
p210
aVhttp://dbpedia.org/class/yago/TennesseeVolunteersFootballCoaches
p211
aVhttp://dbpedia.org/class/yago/TulsaGoldenHurricaneFootballCoaches
p212
aVhttp://dbpedia.org/class/yago/TulsaGoldenHurricaneFootballPlayers
p213
aVhttp://dbpedia.org/class/yago/WisconsinBadgersFootballCoaches
p214
aVhttp://dbpedia.org/resource/Lovie_Smith
tp215
aa(lp216
((lp217
Vhttp://dbpedia.org/class/yago/AmericanFootballLinebackers
p218
aVhttp://dbpedia.org/class/yago/Athlete109820263
p219
aVhttp://dbpedia.org/class/yago/CausalAgent100007347
p220
aVhttp://dbpedia.org/class/yago/Coach109931640
p221
aVhttp://dbpedia.org/class/yago/Contestant109613191
p222
aVhttp://dbpedia.org/class/yago/FootballPlayer110101634
p223
aVhttp://dbpedia.org/class/yago/GeneralManager110125697
p224
aVhttp://dbpedia.org/class/yago/Head110162991
p225
aVhttp://dbpedia.org/class/yago/Leader109623038
p226
aVhttp://dbpedia.org/class/yago/Linebacker110263002
p227
aVhttp://dbpedia.org/class/yago/LivingThing100004258
p228
aVhttp://dbpedia.org/class/yago/Object100002684
p229
aVhttp://dbpedia.org/class/yago/Organism100004475
p230
aVhttp://dbpedia.org/class/yago/Person100007846
p231
aVhttp://dbpedia.org/class/yago/Player110439851
p232
aVhttp://dbpedia.org/class/yago/Trainer110722575
p233
aVhttp://dbpedia.org/class/yago/Whole100003553
p234
aVhttp://dbpedia.org/class/yago/YagoLegalActorGeo
p235
aVhttp://dbpedia.org/class/yago/SanDiegoChargersCoaches
p236
aVhttp://www.w3.org/2002/07/owl#Thing
p237
aVhttp://xmlns.com/foaf/0.1/Person
p238
aVhttp://dbpedia.org/ontology/Person
p239
aVhttp://www.ontologydesignpatterns.org/ont/dul/DUL.owl#Agent
p240
aVhttp://www.ontologydesignpatterns.org/ont/dul/DUL.owl#NaturalPerson
p241
aVhttp://www.wikidata.org/entity/Q215627
p242
aVhttp://www.wikidata.org/entity/Q5
p243
aVhttp://dbpedia.org/ontology/Agent
p244
aVhttp://dbpedia.org/ontology/AmericanFootballCoach
p245
aVhttp://dbpedia.org/ontology/Coach
p246
aVhttp://schema.org/Person
p247
aVhttp://dbpedia.org/class/yago/NationalFootballLeagueGeneralManagers
p248
aVhttp://dbpedia.org/class/yago/NewYorkGiantsPlayers
p249
aVhttp://dbpedia.org/class/yago/YagoLegalActor
p250
aVhttp://dbpedia.org/class/yago/LivingPeople
p251
aVhttp://dbpedia.org/class/yago/LosAngelesRamsCoaches
p252
aVhttp://dbpedia.org/class/yago/LosAngelesRamsPlayers
p253
aVhttp://dbpedia.org/class/yago/PhysicalEntity100001930
p254
aVhttp://dbpedia.org/class/yago/WashingtonStateCougarsFootballPlayers
p255
aVhttp://dbpedia.org/resource/Harland_Svare
tp256
aa(lp257
a(lp258
((lp259
Vhttp://dbpedia.org/class/yago/AmericanBasketballPlayers
p260
aVhttp://dbpedia.org/class/yago/Athlete109820263
p261
aVhttp://dbpedia.org/class/yago/BasketballPlayer109842047
p262
aVhttp://dbpedia.org/class/yago/BasketballPlayersFromIllinois
p263
aVhttp://dbpedia.org/class/yago/CausalAgent100007347
p264
aVhttp://dbpedia.org/class/yago/Contestant109613191
p265
aVhttp://dbpedia.org/class/yago/Defender109614684
p266
aVhttp://dbpedia.org/class/yago/Guard110150071
p267
aVhttp://dbpedia.org/class/yago/LivingThing100004258
p268
aVhttp://dbpedia.org/class/yago/Object100002684
p269
aVhttp://dbpedia.org/class/yago/Organism100004475
p270
aVhttp://dbpedia.org/class/yago/Person100007846
p271
aVhttp://dbpedia.org/class/yago/Player110439851
p272
aVhttp://dbpedia.org/class/yago/Whole100003553
p273
aVhttp://dbpedia.org/class/yago/YagoLegalActorGeo
p274
aVhttp://dbpedia.org/class/yago/ShootingGuards
p275
aVhttp://www.w3.org/2002/07/owl#Thing
p276
aVhttp://xmlns.com/foaf/0.1/Person
p277
aVhttp://dbpedia.org/ontology/Person
p278
aVhttp://www.ontologydesignpatterns.org/ont/dul/DUL.owl#Agent
p279
aVhttp://www.ontologydesignpatterns.org/ont/dul/DUL.owl#NaturalPerson
p280
aVhttp://www.wikidata.org/entity/Q215627
p281
aVhttp://www.wikidata.org/entity/Q5
p282
aVhttp://dbpedia.org/ontology/Agent
p283
aVhttp://schema.org/Person
p284
aVhttp://dbpedia.org/class/yago/DePaulBlueDemonsMen'sBasketballPlayers
p285
aVhttp://dbpedia.org/class/yago/Preserver110466918
p286
aVhttp://dbpedia.org/class/yago/PeopleFromChicago,Illinois
p287
aVhttp://dbpedia.org/class/yago/PhoenixSunsPlayers
p288
aVhttp://dbpedia.org/class/yago/YagoLegalActor
p289
aVhttp://dbpedia.org/class/yago/GoldenStateWarriorsPlayers
p290
aVhttp://dbpedia.org/class/yago/HarlemGlobetrottersPlayers
p291
aVhttp://dbpedia.org/class/yago/JuniorCollegeMen'sBasketballPlayersInTheUnitedStates
p292
aVhttp://dbpedia.org/class/yago/LivingPeople
p293
aVhttp://dbpedia.org/class/yago/PhysicalEntity100001930
p294
aVhttp://dbpedia.org/class/yago/UndraftedNationalBasketballAssociationPlayers
p295
aVhttp://dbpedia.org/resource/Paul_McPherson
tp296
aa(lp297
((lp298
Vhttp://dbpedia.org/class/yago/AdelphiPanthersFootballCoaches
p299
aVhttp://dbpedia.org/class/yago/Alumnus109786338
p300
aVhttp://dbpedia.org/class/yago/AmericanFootballLeagueChampions
p301
aVhttp://dbpedia.org/class/yago/AmericanFootballLeagueOwners
p302
aVhttp://dbpedia.org/class/yago/Athlete109820263
p303
aVhttp://dbpedia.org/class/yago/Businessman109882007
p304
aVhttp://dbpedia.org/class/yago/Businessperson109882716
p305
aVhttp://dbpedia.org/class/yago/Capitalist109609232
p306
aVhttp://dbpedia.org/class/yago/CausalAgent100007347
p307
aVhttp://dbpedia.org/class/yago/Champion109906704
p308
aVhttp://dbpedia.org/class/yago/Coach109931640
p309
aVhttp://dbpedia.org/class/yago/Contestant109613191
p310
aVhttp://dbpedia.org/class/yago/FootballCoach110101202
p311
aVhttp://dbpedia.org/class/yago/FootballPlayer110101634
p312
aVhttp://dbpedia.org/class/yago/Intellectual109621545
p313
aVhttp://dbpedia.org/class/yago/Leader109623038
p314
aVhttp://dbpedia.org/class/yago/LivingThing100004258
p315
aVhttp://dbpedia.org/class/yago/Object100002684
p316
aVhttp://dbpedia.org/class/yago/Organism100004475
p317
aVhttp://dbpedia.org/class/yago/Owner110388924
p318
aVhttp://dbpedia.org/class/yago/Person100007846
p319
aVhttp://dbpedia.org/class/yago/Player110439851
p320
aVhttp://dbpedia.org/class/yago/Rival110533013
p321
aVhttp://dbpedia.org/class/yago/Scholar110557854
p322
aVhttp://dbpedia.org/class/yago/Trainer110722575
p323
aVhttp://dbpedia.org/class/yago/Whole100003553
p324
aVhttp://dbpedia.org/class/yago/YagoLegalActorGeo
p325
aVhttp://dbpedia.org/class/yago/SyracuseOrangeFootballPlayers
p326
aVhttp://dbpedia.org/class/yago/SyracuseUniversityAlumni
p327
aVhttp://www.w3.org/2002/07/owl#Thing
p328
aVhttp://xmlns.com/foaf/0.1/Person
p329
aVhttp://dbpedia.org/ontology/Person
p330
aVhttp://www.ontologydesignpatterns.org/ont/dul/DUL.owl#Agent
p331
aVhttp://www.ontologydesignpatterns.org/ont/dul/DUL.owl#NaturalPerson
p332
aVhttp://www.wikidata.org/entity/Q215627
p333
aVhttp://www.wikidata.org/entity/Q5
p334
aVhttp://dbpedia.org/ontology/Agent
p335
aVhttp://dbpedia.org/ontology/AmericanFootballCoach
p336
aVhttp://dbpedia.org/ontology/Coach
p337
aVhttp://schema.org/Person
p338
aVhttp://dbpedia.org/class/yago/ErasmusHallHighSchoolAlumni
p339
aVhttp://dbpedia.org/class/yago/NationalFootballLeagueHeadCoaches
p340
aVhttp://dbpedia.org/class/yago/NationalFootballLeagueOwners
p341
aVhttp://dbpedia.org/class/yago/OaklandRaidersCoaches
p342
aVhttp://dbpedia.org/class/yago/OaklandRaidersHeadCoaches
p343
aVhttp://dbpedia.org/class/yago/PeopleFromBrockton,Massachusetts
p344
aVhttp://dbpedia.org/class/yago/YagoLegalActor
p345
aVhttp://dbpedia.org/class/yago/LosAngelesChargersCoaches
p346
aVhttp://dbpedia.org/class/yago/PhysicalEntity100001930
p347
aVhttp://dbpedia.org/class/yago/TheCitadelBulldogsFootballCoaches
p348
aVhttp://dbpedia.org/class/yago/USCTrojansFootballCoaches
p349
aVhttp://dbpedia.org/resource/Al_Davis
tp350
aa(lp351
((lp352
Vhttp://dbpedia.org/class/yago/Athlete109820263
p353
aVhttp://dbpedia.org/class/yago/CarolinaPanthersCoaches
p354
aVhttp://dbpedia.org/class/yago/CausalAgent100007347
p355
aVhttp://dbpedia.org/class/yago/Coach109931640
p356
aVhttp://dbpedia.org/class/yago/Contestant109613191
p357
aVhttp://dbpedia.org/class/yago/FootballCoach110101202
p358
aVhttp://dbpedia.org/class/yago/FootballPlayer110101634
p359
aVhttp://dbpedia.org/class/yago/Leader109623038
p360
aVhttp://dbpedia.org/class/yago/LivingThing100004258
p361
aVhttp://dbpedia.org/class/yago/Object100002684
p362
aVhttp://dbpedia.org/class/yago/Organism100004475
p363
aVhttp://dbpedia.org/class/yago/Person100007846
p364
aVhttp://dbpedia.org/class/yago/Player110439851
p365
aVhttp://dbpedia.org/class/yago/Trainer110722575
p366
aVhttp://dbpedia.org/class/yago/Whole100003553
p367
aVhttp://dbpedia.org/class/yago/YagoLegalActorGeo
p368
aVhttp://dbpedia.org/class/yago/SMUMustangsFootballCoaches
p369
aVhttp://dbpedia.org/class/yago/SouthDakotaStateJackrabbitsFootballPlayers
p370
aVhttp://www.w3.org/2002/07/owl#Thing
p371
aVhttp://xmlns.com/foaf/0.1/Person
p372
aVhttp://dbpedia.org/ontology/Person
p373
aVhttp://www.ontologydesignpatterns.org/ont/dul/DUL.owl#Agent
p374
aVhttp://www.ontologydesignpatterns.org/ont/dul/DUL.owl#NaturalPerson
p375
aVhttp://www.wikidata.org/entity/Q215627
p376
aVhttp://www.wikidata.org/entity/Q5
p377
aVhttp://dbpedia.org/ontology/Agent
p378
aVhttp://dbpedia.org/ontology/AmericanFootballCoach
p379
aVhttp://dbpedia.org/ontology/Coach
p380
aVhttp://schema.org/Person
p381
aVhttp://dbpedia.org/class/yago/ClevelandBrownsCoaches
p382
aVhttp://dbpedia.org/class/yago/ColoradoStateRamsFootballCoaches
p383
aVhttp://dbpedia.org/class/yago/NCStateWolfpackFootballCoaches
p384
aVhttp://dbpedia.org/class/yago/NewEnglandPatriotsCoaches
p385
aVhttp://dbpedia.org/class/yago/NewYorkJetsCoaches
p386
aVhttp://dbpedia.org/class/yago/OklahomaStateCowboysFootballCoaches
p387
aVhttp://dbpedia.org/class/yago/PacificTigersFootballCoaches
p388
aVhttp://dbpedia.org/class/yago/PeopleFromBentonCounty,Iowa
p389
aVhttp://dbpedia.org/class/yago/YagoLegalActor
p390
aVhttp://dbpedia.org/class/yago/IndianapolisColtsCoaches
p391
aVhttp://dbpedia.org/class/yago/LivingPeople
p392
aVhttp://dbpedia.org/class/yago/PhysicalEntity100001930
p393
aVhttp://dbpedia.org/resource/Brad_Seely
tp394
aa(lp395
((lp396
Vhttp://dbpedia.org/class/yago/AfricanAmericanCoachesOfAmericanFootball
p397
aVhttp://dbpedia.org/class/yago/AfricanAmericanPlayersOfAmericanFootball
p398
aVhttp://dbpedia.org/class/yago/AmericanFootballTightEnds
p399
aVhttp://dbpedia.org/class/yago/Athlete109820263
p400
aVhttp://dbpedia.org/class/yago/CausalAgent100007347
p401
aVhttp://dbpedia.org/class/yago/Coach109931640
p402
aVhttp://dbpedia.org/class/yago/Contestant109613191
p403
aVhttp://dbpedia.org/class/yago/FootballCoach110101202
p404
aVhttp://dbpedia.org/class/yago/FootballPlayer110101634
p405
aVhttp://dbpedia.org/class/yago/Leader109623038
p406
aVhttp://dbpedia.org/class/yago/LivingThing100004258
p407
aVhttp://dbpedia.org/class/yago/Object100002684
p408
aVhttp://dbpedia.org/class/yago/Organism100004475
p409
aVhttp://dbpedia.org/class/yago/Person100007846
p410
aVhttp://dbpedia.org/class/yago/Player110439851
p411
aVhttp://dbpedia.org/class/yago/TightEnd110710778
p412
aVhttp://dbpedia.org/class/yago/Trainer110722575
p413
aVhttp://dbpedia.org/class/yago/Whole100003553
p414
aVhttp://dbpedia.org/class/yago/YagoLegalActorGeo
p415
aVhttp://www.w3.org/2002/07/owl#Thing
p416
aVhttp://xmlns.com/foaf/0.1/Person
p417
aVhttp://dbpedia.org/ontology/Person
p418
aVhttp://www.ontologydesignpatterns.org/ont/dul/DUL.owl#Agent
p419
aVhttp://www.ontologydesignpatterns.org/ont/dul/DUL.owl#NaturalPerson
p420
aVhttp://www.wikidata.org/entity/Q215627
p421
aVhttp://www.wikidata.org/entity/Q5
p422
aVhttp://dbpedia.org/ontology/Agent
p423
aVhttp://dbpedia.org/ontology/AmericanFootballCoach
p424
aVhttp://dbpedia.org/ontology/Coach
p425
aVhttp://schema.org/Person
p426
aVhttp://dbpedia.org/class/yago/ColoradoBuffaloesFootballCoaches
p427
aVhttp://dbpedia.org/class/yago/ColoradoBuffaloesFootballPlayers
p428
aVhttp://dbpedia.org/class/yago/End110056398
p429
aVhttp://dbpedia.org/class/yago/YagoLegalActor
p430
aVhttp://dbpedia.org/class/yago/KansasCityChiefsCoaches
p431
aVhttp://dbpedia.org/class/yago/Lineman110263411
p432
aVhttp://dbpedia.org/class/yago/LivingPeople
p433
aVhttp://dbpedia.org/class/yago/LosAngelesRamsPlayers
p434
aVhttp://dbpedia.org/class/yago/PhysicalEntity100001930
p435
aVhttp://dbpedia.org/class/yago/UCLABruinsFootballCoaches
p436
aVhttp://dbpedia.org/class/yago/WashingtonRedskinsCoaches
p437
aVhttp://dbpedia.org/resource/Jon_Embree
tp438
aa(lp439
((lp440
Vhttp://dbpedia.org/class/yago/CausalAgent100007347
p441
aVhttp://dbpedia.org/class/yago/Coach109931640
p442
aVhttp://dbpedia.org/class/yago/Leader109623038
p443
aVhttp://dbpedia.org/class/yago/LivingThing100004258
p444
aVhttp://dbpedia.org/class/yago/Object100002684
p445
aVhttp://dbpedia.org/class/yago/Organism100004475
p446
aVhttp://dbpedia.org/class/yago/Person100007846
p447
aVhttp://dbpedia.org/class/yago/Trainer110722575
p448
aVhttp://dbpedia.org/class/yago/Whole100003553
p449
aVhttp://dbpedia.org/class/yago/YagoLegalActorGeo
p450
aVhttp://www.w3.org/2002/07/owl#Thing
p451
aVhttp://xmlns.com/foaf/0.1/Person
p452
aVhttp://dbpedia.org/ontology/Person
p453
aVhttp://www.ontologydesignpatterns.org/ont/dul/DUL.owl#Agent
p454
aVhttp://www.ontologydesignpatterns.org/ont/dul/DUL.owl#NaturalPerson
p455
aVhttp://www.wikidata.org/entity/Q215627
p456
aVhttp://www.wikidata.org/entity/Q5
p457
aVhttp://dbpedia.org/ontology/Agent
p458
aVhttp://dbpedia.org/ontology/AmericanFootballCoach
p459
aVhttp://dbpedia.org/ontology/Coach
p460
aVhttp://schema.org/Person
p461
aVhttp://dbpedia.org/class/yago/NewYorkJetsCoaches
p462
aVhttp://dbpedia.org/class/yago/PeopleFromBethelPark,Pennsylvania
p463
aVhttp://dbpedia.org/class/yago/YagoLegalActor
p464
aVhttp://dbpedia.org/class/yago/LivingPeople
p465
aVhttp://dbpedia.org/class/yago/MiamiDolphinsCoaches
p466
aVhttp://dbpedia.org/class/yago/PhysicalEntity100001930
p467
aVhttp://dbpedia.org/resource/Mike_Westhoff
tp468
aa(lp469
((lp470
Vhttp://dbpedia.org/class/yago/Administrator109770949
p471
aVhttp://dbpedia.org/class/yago/Alumnus109786338
p472
aVhttp://dbpedia.org/class/yago/AmericanPeopleOfIrishDescent
p473
aVhttp://dbpedia.org/class/yago/Athlete109820263
p474
aVhttp://dbpedia.org/class/yago/Businessman109882007
p475
aVhttp://dbpedia.org/class/yago/Businessperson109882716
p476
aVhttp://dbpedia.org/class/yago/Capitalist109609232
p477
aVhttp://dbpedia.org/class/yago/CausalAgent100007347
p478
aVhttp://dbpedia.org/class/yago/Communicator109610660
p479
aVhttp://dbpedia.org/class/yago/Contestant109613191
p480
aVhttp://dbpedia.org/class/yago/Executive110069645
p481
aVhttp://dbpedia.org/class/yago/FootballPlayer110101634
p482
aVhttp://dbpedia.org/class/yago/Head110162991
p483
aVhttp://dbpedia.org/class/yago/HeadOfState110164747
p484
aVhttp://dbpedia.org/class/yago/Intellectual109621545
p485
aVhttp://dbpedia.org/class/yago/Leader109623038
p486
aVhttp://dbpedia.org/class/yago/LivingThing100004258
p487
aVhttp://dbpedia.org/class/yago/Negotiator110351874
p488
aVhttp://dbpedia.org/class/yago/Object100002684
p489
aVhttp://dbpedia.org/class/yago/Organism100004475
p490
aVhttp://dbpedia.org/class/yago/Owner110388924
p491
aVhttp://dbpedia.org/class/yago/Person100007846
p492
aVhttp://dbpedia.org/class/yago/Player110439851
p493
aVhttp://dbpedia.org/class/yago/President110467179
p494
aVhttp://dbpedia.org/class/yago/Representative110522035
p495
aVhttp://dbpedia.org/class/yago/Scholar110557854
p496
aVhttp://dbpedia.org/class/yago/Whole100003553
p497
aVhttp://dbpedia.org/class/yago/YagoLegalActorGeo
p498
aVhttp://dbpedia.org/class/yago/SteaglesPlayersAndPersonnel
p499
aVhttp://www.w3.org/2002/07/owl#Thing
p500
aVhttp://xmlns.com/foaf/0.1/Person
p501
aVhttp://dbpedia.org/ontology/Person
p502
aVhttp://www.ontologydesignpatterns.org/ont/dul/DUL.owl#Agent
p503
aVhttp://www.ontologydesignpatterns.org/ont/dul/DUL.owl#NaturalPerson
p504
aVhttp://www.wikidata.org/entity/Q215627
p505
aVhttp://www.wikidata.org/entity/Q5
p506
aVhttp://dbpedia.org/ontology/Agent
p507
aVhttp://dbpedia.org/ontology/AmericanFootballCoach
p508
aVhttp://dbpedia.org/ontology/Coach
p509
aVhttp://schema.org/Person
p510
aVhttp://dbpedia.org/class/yago/DuquesneDukesFootballPlayers
p511
aVhttp://dbpedia.org/class/yago/DuquesneUniversityAlumni
p512
aVhttp://dbpedia.org/class/yago/NationalFootballLeagueOwners
p513
aVhttp://dbpedia.org/class/yago/NationalFootballLeagueTeamPresidents
p514
aVhttp://dbpedia.org/class/yago/NationalHockeyLeagueExecutives
p515
aVhttp://dbpedia.org/class/yago/NationalHockeyLeagueOwners
p516
aVhttp://dbpedia.org/class/yago/PeopleFromAlleghenyCounty,Pennsylvania
p517
aVhttp://dbpedia.org/class/yago/PittsburghLyceum(football)Players
p518
aVhttp://dbpedia.org/class/yago/PittsburghPenguinsOwners
p519
aVhttp://dbpedia.org/class/yago/PittsburghSteelersExecutives
p520
aVhttp://dbpedia.org/class/yago/PittsburghSteelersOwners
p521
aVhttp://dbpedia.org/class/yago/PlayersOfAmericanFootballFromPennsylvania
p522
aVhttp://dbpedia.org/class/yago/YagoLegalActor
p523
aVhttp://dbpedia.org/class/yago/GeorgetownUniversityAlumni
p524
aVhttp://dbpedia.org/class/yago/PhysicalEntity100001930
p525
aVhttp://dbpedia.org/class/yago/Washington&JeffersonCollegeAlumni
p526
aVhttp://dbpedia.org/resource/Art_Rooney
tp527
aa(lp528
((lp529
Vhttp://dbpedia.org/class/yago/Athlete109820263
p530
aVhttp://dbpedia.org/class/yago/BaltimoreRavensCoaches
p531
aVhttp://dbpedia.org/class/yago/BoiseStateBroncosFootballCoaches
p532
aVhttp://dbpedia.org/class/yago/CausalAgent100007347
p533
aVhttp://dbpedia.org/class/yago/Coach109931640
p534
aVhttp://dbpedia.org/class/yago/Contestant109613191
p535
aVhttp://dbpedia.org/class/yago/FootballCoach110101202
p536
aVhttp://dbpedia.org/class/yago/FootballPlayer110101634
p537
aVhttp://dbpedia.org/class/yago/Leader109623038
p538
aVhttp://dbpedia.org/class/yago/LivingThing100004258
p539
aVhttp://dbpedia.org/class/yago/Object100002684
p540
aVhttp://dbpedia.org/class/yago/Organism100004475
p541
aVhttp://dbpedia.org/class/yago/Person100007846
p542
aVhttp://dbpedia.org/class/yago/Player110439851
p543
aVhttp://dbpedia.org/class/yago/Trainer110722575
p544
aVhttp://dbpedia.org/class/yago/Whole100003553
p545
aVhttp://dbpedia.org/class/yago/YagoLegalActorGeo
p546
aVhttp://www.w3.org/2002/07/owl#Thing
p547
aVhttp://xmlns.com/foaf/0.1/Person
p548
aVhttp://dbpedia.org/ontology/Person
p549
aVhttp://www.ontologydesignpatterns.org/ont/dul/DUL.owl#Agent
p550
aVhttp://www.ontologydesignpatterns.org/ont/dul/DUL.owl#NaturalPerson
p551
aVhttp://www.wikidata.org/entity/Q215627
p552
aVhttp://www.wikidata.org/entity/Q5
p553
aVhttp://dbpedia.org/ontology/Agent
p554
aVhttp://dbpedia.org/ontology/AmericanFootballCoach
p555
aVhttp://dbpedia.org/ontology/Coach
p556
aVhttp://schema.org/Person
p557
aVhttp://dbpedia.org/class/yago/ClevelandBrownsCoaches
p558
aVhttp://dbpedia.org/class/yago/EastCarolinaPiratesFootballCoaches
p559
aVhttp://dbpedia.org/class/yago/NorthCarolinaTarHeelsFootballCoaches
p560
aVhttp://dbpedia.org/class/yago/OaklandRaidersCoaches
p561
aVhttp://dbpedia.org/class/yago/PeopleFromBoulder,Colorado
p562
aVhttp://dbpedia.org/class/yago/YagoLegalActor
p563
aVhttp://dbpedia.org/class/yago/IndianapolisColtsCoaches
p564
aVhttp://dbpedia.org/class/yago/LivingPeople
p565
aVhttp://dbpedia.org/class/yago/MiamiHurricanesFootballCoaches
p566
aVhttp://dbpedia.org/class/yago/PhysicalEntity100001930
p567
aVhttp://dbpedia.org/class/yago/UNLVRebelsFootballCoaches
p568
aVhttp://dbpedia.org/class/yago/USCTrojansFootballCoaches
p569
aVhttp://dbpedia.org/class/yago/WyomingCowboysFootballPlayers
p570
aVhttp://dbpedia.org/resource/Chuck_Pagano
tp571
aa(lp572
((lp573
Vhttp://dbpedia.org/class/yago/Athlete109820263
p574
aVhttp://dbpedia.org/class/yago/BucknellBisonFootballPlayers
p575
aVhttp://dbpedia.org/class/yago/CausalAgent100007347
p576
aVhttp://dbpedia.org/class/yago/Coach109931640
p577
aVhttp://dbpedia.org/class/yago/Contestant109613191
p578
aVhttp://dbpedia.org/class/yago/FootballCoach110101202
p579
aVhttp://dbpedia.org/class/yago/FootballPlayer110101634
p580
aVhttp://dbpedia.org/class/yago/Leader109623038
p581
aVhttp://dbpedia.org/class/yago/LivingThing100004258
p582
aVhttp://dbpedia.org/class/yago/Object100002684
p583
aVhttp://dbpedia.org/class/yago/Organism100004475
p584
aVhttp://dbpedia.org/class/yago/Person100007846
p585
aVhttp://dbpedia.org/class/yago/Player110439851
p586
aVhttp://dbpedia.org/class/yago/Trainer110722575
p587
aVhttp://dbpedia.org/class/yago/Whole100003553
p588
aVhttp://dbpedia.org/class/yago/YagoLegalActorGeo
p589
aVhttp://dbpedia.org/class/yago/RutgersScarletKnightsFootballCoaches
p590
aVhttp://www.w3.org/2002/07/owl#Thing
p591
aVhttp://xmlns.com/foaf/0.1/Person
p592
aVhttp://dbpedia.org/ontology/Person
p593
aVhttp://www.ontologydesignpatterns.org/ont/dul/DUL.owl#Agent
p594
aVhttp://www.ontologydesignpatterns.org/ont/dul/DUL.owl#NaturalPerson
p595
aVhttp://www.wikidata.org/entity/Q215627
p596
aVhttp://www.wikidata.org/entity/Q5
p597
aVhttp://dbpedia.org/ontology/Agent
p598
aVhttp://dbpedia.org/ontology/AmericanFootballCoach
p599
aVhttp://dbpedia.org/ontology/Coach
p600
aVhttp://schema.org/Person
p601
aVhttp://umbel.org/umbel/rc/Manager
p602
aVhttp://dbpedia.org/class/yago/ChicagoBearsCoaches
p603
aVhttp://dbpedia.org/class/yago/PennStateNittanyLionsFootballCoaches
p604
aVhttp://dbpedia.org/class/yago/YagoLegalActor
p605
aVhttp://dbpedia.org/class/yago/HighSchoolFootballCoachesInTheUnitedStates
p606
aVhttp://dbpedia.org/class/yago/LivingPeople
p607
aVhttp://dbpedia.org/class/yago/MiamiHurricanesFootballCoaches
p608
aVhttp://dbpedia.org/class/yago/PhysicalEntity100001930
p609
aVhttp://dbpedia.org/class/yago/TampaBayBuccaneersHeadCoaches
p610
aVhttp://dbpedia.org/resource/Greg_Schiano
tp611
aa(lp612
((lp613
Vhttp://dbpedia.org/class/yago/AfricanAmericanCoachesOfAmericanFootball
p614
aVhttp://dbpedia.org/class/yago/Athlete109820263
p615
aVhttp://dbpedia.org/class/yago/AtlantaFalconsCoaches
p616
aVhttp://dbpedia.org/class/yago/CausalAgent100007347
p617
aVhttp://dbpedia.org/class/yago/Coach109931640
p618
aVhttp://dbpedia.org/class/yago/Contestant109613191
p619
aVhttp://dbpedia.org/class/yago/FootballPlayer110101634
p620
aVhttp://dbpedia.org/class/yago/Intellectual109621545
p621
aVhttp://dbpedia.org/class/yago/Leader109623038
p622
aVhttp://dbpedia.org/class/yago/LivingThing100004258
p623
aVhttp://dbpedia.org/class/yago/Object100002684
p624
aVhttp://dbpedia.org/class/yago/Organism100004475
p625
aVhttp://dbpedia.org/class/yago/Organizer110383237
p626
aVhttp://dbpedia.org/class/yago/Person100007846
p627
aVhttp://dbpedia.org/class/yago/Player110439851
p628
aVhttp://dbpedia.org/class/yago/Thinker110708454
p629
aVhttp://dbpedia.org/class/yago/Trainer110722575
p630
aVhttp://dbpedia.org/class/yago/Whole100003553
p631
aVhttp://dbpedia.org/class/yago/YagoLegalActorGeo
p632
aVhttp://www.w3.org/2002/07/owl#Thing
p633
aVhttp://xmlns.com/foaf/0.1/Person
p634
aVhttp://dbpedia.org/ontology/Person
p635
aVhttp://www.ontologydesignpatterns.org/ont/dul/DUL.owl#Agent
p636
aVhttp://www.ontologydesignpatterns.org/ont/dul/DUL.owl#NaturalPerson
p637
aVhttp://www.wikidata.org/entity/Q215627
p638
aVhttp://www.wikidata.org/entity/Q5
p639
aVhttp://dbpedia.org/ontology/Agent
p640
aVhttp://dbpedia.org/ontology/AmericanFootballCoach
p641
aVhttp://dbpedia.org/ontology/Coach
p642
aVhttp://schema.org/Person
p643
aVhttp://dbpedia.org/class/yago/ClevelandBrownsCoaches
p644
aVhttp://dbpedia.org/class/yago/ClevelandBrownsHeadCoaches
p645
aVhttp://dbpedia.org/class/yago/Coordinator109963914
p646
aVhttp://dbpedia.org/class/yago/NationalFootballLeagueHeadCoaches
p647
aVhttp://dbpedia.org/class/yago/NationalFootballLeagueOffensiveCoordinators
p648
aVhttp://dbpedia.org/class/yago/OaklandRaidersCoaches
p649
aVhttp://dbpedia.org/class/yago/OaklandRaidersPlayers
p650
aVhttp://dbpedia.org/class/yago/PeopleFromNewOrleans,Louisiana
p651
aVhttp://dbpedia.org/class/yago/PeopleFromSt.JohnTheBaptistParish,Louisiana
p652
aVhttp://dbpedia.org/class/yago/PlayersOfAmericanFootballFromLouisiana
p653
aVhttp://dbpedia.org/class/yago/YagoLegalActor
p654
aVhttp://dbpedia.org/class/yago/LSUTigersFootballPlayers
p655
aVhttp://dbpedia.org/class/yago/LivingPeople
p656
aVhttp://dbpedia.org/class/yago/MiamiDolphinsCoaches
p657
aVhttp://dbpedia.org/class/yago/MiamiDolphinsPlayers
p658
aVhttp://dbpedia.org/class/yago/PhysicalEntity100001930
p659
aVhttp://dbpedia.org/class/yago/WashingtonRedskinsCoaches
p660
aVhttp://dbpedia.org/class/yago/WashingtonRedskinsHeadCoaches
p661
aVhttp://dbpedia.org/resource/Terry_Robiskie
tp662
aa(lp663
((lp664
Vhttp://dbpedia.org/class/yago/AmericanLatterDaySaints
p665
aVhttp://dbpedia.org/class/yago/Athlete109820263
p666
aVhttp://dbpedia.org/class/yago/BYUCougarsFootballPlayers
p667
aVhttp://dbpedia.org/class/yago/CausalAgent100007347
p668
aVhttp://dbpedia.org/class/yago/Coach109931640
p669
aVhttp://dbpedia.org/class/yago/Contestant109613191
p670
aVhttp://dbpedia.org/class/yago/Convert109962414
p671
aVhttp://dbpedia.org/class/yago/FootballCoach110101202
p672
aVhttp://dbpedia.org/class/yago/FootballPlayer110101634
p673
aVhttp://dbpedia.org/class/yago/GoodPerson110138767
p674
aVhttp://dbpedia.org/class/yago/Leader109623038
p675
aVhttp://dbpedia.org/class/yago/LivingThing100004258
p676
aVhttp://dbpedia.org/class/yago/Object100002684
p677
aVhttp://dbpedia.org/class/yago/Organism100004475
p678
aVhttp://dbpedia.org/class/yago/Person100007846
p679
aVhttp://dbpedia.org/class/yago/Player110439851
p680
aVhttp://dbpedia.org/class/yago/Saint110546850
p681
aVhttp://dbpedia.org/class/yago/Trainer110722575
p682
aVhttp://dbpedia.org/class/yago/Whole100003553
p683
aVhttp://dbpedia.org/class/yago/YagoLegalActorGeo
p684
aVhttp://dbpedia.org/class/yago/SanFranciscoStateGatorsFootballCoaches
p685
aVhttp://www.w3.org/2002/07/owl#Thing
p686
aVhttp://xmlns.com/foaf/0.1/Person
p687
aVhttp://dbpedia.org/ontology/Person
p688
aVhttp://www.ontologydesignpatterns.org/ont/dul/DUL.owl#Agent
p689
aVhttp://www.ontologydesignpatterns.org/ont/dul/DUL.owl#NaturalPerson
p690
aVhttp://www.wikidata.org/entity/Q215627
p691
aVhttp://www.wikidata.org/entity/Q5
p692
aVhttp://dbpedia.org/ontology/Agent
p693
aVhttp://dbpedia.org/ontology/AmericanFootballCoach
p694
aVhttp://dbpedia.org/ontology/Coach
p695
aVhttp://schema.org/Person
p696
aVhttp://dbpedia.org/class/yago/ConvertsToMormonism
p697
aVhttp://dbpedia.org/class/yago/NationalFootballLeagueHeadCoaches
p698
aVhttp://dbpedia.org/class/yago/NorthernArizonaLumberjacksFootballCoaches
p699
aVhttp://dbpedia.org/class/yago/PeopleFromLosAngeles,California
p700
aVhttp://dbpedia.org/class/yago/PhiladelphiaEaglesHeadCoaches
p701
aVhttp://dbpedia.org/class/yago/YagoLegalActor
p702
aVhttp://dbpedia.org/class/yago/GreenBayPackersCoaches
p703
aVhttp://dbpedia.org/class/yago/LivingPeople
p704
aVhttp://dbpedia.org/class/yago/MissouriTigersFootballCoaches
p705
aVhttp://dbpedia.org/class/yago/PhysicalEntity100001930
p706
aVhttp://dbpedia.org/class/yago/UTEPMinersFootballCoaches
p707
aVhttp://dbpedia.org/resource/Andy_Reid
tp708
aa(lp709
((lp710
Vhttp://www.w3.org/2002/07/owl#Thing
p711
aVhttp://xmlns.com/foaf/0.1/Person
p712
aVhttp://dbpedia.org/ontology/Person
p713
aVhttp://www.ontologydesignpatterns.org/ont/dul/DUL.owl#Agent
p714
aVhttp://www.ontologydesignpatterns.org/ont/dul/DUL.owl#NaturalPerson
p715
aVhttp://www.wikidata.org/entity/Q14128148
p716
aVhttp://www.wikidata.org/entity/Q215627
p717
aVhttp://www.wikidata.org/entity/Q5
p718
aVhttp://dbpedia.org/ontology/Agent
p719
aVhttp://dbpedia.org/ontology/Athlete
p720
aVhttp://dbpedia.org/ontology/GridironFootballPlayer
p721
aVhttp://schema.org/Person
p722
aVhttp://dbpedia.org/resource/Ernie_Green
tp723
aa(lp724
((lp725
Vhttp://dbpedia.org/class/yago/AfricanAmericanCoachesOfAmericanFootball
p726
aVhttp://dbpedia.org/class/yago/CausalAgent100007347
p727
aVhttp://dbpedia.org/class/yago/Coach109931640
p728
aVhttp://dbpedia.org/class/yago/FootballCoach110101202
p729
aVhttp://dbpedia.org/class/yago/Leader109623038
p730
aVhttp://dbpedia.org/class/yago/LivingThing100004258
p731
aVhttp://dbpedia.org/class/yago/Object100002684
p732
aVhttp://dbpedia.org/class/yago/Organism100004475
p733
aVhttp://dbpedia.org/class/yago/Person100007846
p734
aVhttp://dbpedia.org/class/yago/Trainer110722575
p735
aVhttp://dbpedia.org/class/yago/Whole100003553
p736
aVhttp://dbpedia.org/class/yago/YagoLegalActorGeo
p737
aVhttp://dbpedia.org/class/yago/RutgersScarletKnightsFootballCoaches
p738
aVhttp://www.w3.org/2002/07/owl#Thing
p739
aVhttp://xmlns.com/foaf/0.1/Person
p740
aVhttp://dbpedia.org/ontology/Person
p741
aVhttp://www.ontologydesignpatterns.org/ont/dul/DUL.owl#Agent
p742
aVhttp://www.ontologydesignpatterns.org/ont/dul/DUL.owl#NaturalPerson
p743
aVhttp://www.wikidata.org/entity/Q215627
p744
aVhttp://www.wikidata.org/entity/Q5
p745
aVhttp://dbpedia.org/ontology/Agent
p746
aVhttp://dbpedia.org/ontology/AmericanFootballCoach
p747
aVhttp://dbpedia.org/ontology/Coach
p748
aVhttp://schema.org/Person
p749
aVhttp://dbpedia.org/class/yago/DallasCowboysCoaches
p750
aVhttp://dbpedia.org/class/yago/OaklandRaidersCoaches
p751
aVhttp://dbpedia.org/class/yago/YagoLegalActor
p752
aVhttp://dbpedia.org/class/yago/LivingPeople
p753
aVhttp://dbpedia.org/class/yago/MichiganStateSpartansFootballCoaches
p754
aVhttp://dbpedia.org/class/yago/PhysicalEntity100001930
p755
aVhttp://dbpedia.org/class/yago/UCLABruinsFootballCoaches
p756
aVhttp://dbpedia.org/resource/Skip_Peete
p757
tp758
aaa.