(lp1
(lp2
(lp3
a(lp4
a(lp5
((lVhttp://dbpedia.org/resource/Null
tp6
aa(lp7
a(lp8
aa(lp9
(lp10
a(lp11
((lp12
Vhttp://www.w3.org/2002/07/owl#Thing
p13
aVhttp://www.ontologydesignpatterns.org/ont/dul/DUL.owl#Agent
p14
aVhttp://www.ontologydesignpatterns.org/ont/dul/DUL.owl#SocialPerson
p15
aVhttp://www.wikidata.org/entity/Q176799
p16
aVhttp://www.wikidata.org/entity/Q43229
p17
aVhttp://dbpedia.org/ontology/Agent
p18
aVhttp://dbpedia.org/ontology/MilitaryUnit
p19
aVhttp://dbpedia.org/ontology/Organisation
p20
aVhttp://schema.org/Organization
p21
aVhttp://umbel.org/umbel/rc/Organization
p22
aVhttp://umbel.org/umbel/rc/Troop_MilitaryUnit
p23
aVhttp://dbpedia.org/resource/1st_(African)_Division
tp24
aa(lp25
((lVhttp://dbpedia.org/resource/Null
tp26
aa(lp27
a(lp28
((lp29
Vhttp://www.w3.org/2002/07/owl#Thing
p30
aVhttp://www.ontologydesignpatterns.org/ont/dul/DUL.owl#Agent
p31
aVhttp://www.ontologydesignpatterns.org/ont/dul/DUL.owl#SocialPerson
p32
aVhttp://www.wikidata.org/entity/Q176799
p33
aVhttp://www.wikidata.org/entity/Q43229
p34
aVhttp://dbpedia.org/ontology/Agent
p35
aVhttp://dbpedia.org/ontology/MilitaryUnit
p36
aVhttp://dbpedia.org/ontology/Organisation
p37
aVhttp://schema.org/Organization
p38
aVhttp://umbel.org/umbel/rc/Organization
p39
aVhttp://umbel.org/umbel/rc/Troop_MilitaryUnit
p40
aVhttp://dbpedia.org/resource/1st_(African)_Division
tp41
aaa(lp42
(lp43
a(lp44
((lVhttp://dbpedia.org/resource/Second_(disambiguation)
tp45
aa(lp46
((lVhttp://dbpedia.org/resource/Null
tp47
aa(lp48
a(lp49
((lVhttp://dbpedia.org/resource/Second_(disambiguation)
tp50
aaa(lp51
(lp52
a(lp53
a(lp54
((lVhttp://dbpedia.org/resource/Null
tp55
aa(lp56
a(lp57
aa(lp58
(lp59
((lVhttp://dbpedia.org/resource/Null
tp60
aa(lp61
((lVhttp://dbpedia.org/resource/Null
tp62
aa(lp63
((lVhttp://dbpedia.org/resource/Null
tp64
aa(lp65
((lVhttp://dbpedia.org/resource/Null
tp66
aa(lp67
((lVhttp://dbpedia.org/resource/Null
tp68
aaa(lp69
(lp70
a(lp71
((lVhttp://dbpedia.org/resource/Null
tp72
aa(lp73
((lVhttp://dbpedia.org/resource/Null
tp74
aa(lp75
a(lp76
((lVhttp://dbpedia.org/resource/Null
tp77
aaa(lp78
(lp79
a(lp80
((lp81
Vhttp://www.w3.org/2002/07/owl#Thing
p82
aVhttp://www.ontologydesignpatterns.org/ont/dul/DUL.owl#Agent
p83
aVhttp://www.ontologydesignpatterns.org/ont/dul/DUL.owl#SocialPerson
p84
aVhttp://www.wikidata.org/entity/Q176799
p85
aVhttp://www.wikidata.org/entity/Q43229
p86
aVhttp://dbpedia.org/ontology/Agent
p87
aVhttp://dbpedia.org/ontology/MilitaryUnit
p88
aVhttp://dbpedia.org/ontology/Organisation
p89
aVhttp://schema.org/Organization
p90
aVhttp://umbel.org/umbel/rc/Organization
p91
aVhttp://umbel.org/umbel/rc/Troop_MilitaryUnit
p92
aVhttp://dbpedia.org/resource/1st_(African)_Division
tp93
aa(lp94
((lVhttp://dbpedia.org/resource/Null
tp95
aa(lp96
a(lp97
((lp98
Vhttp://www.w3.org/2002/07/owl#Thing
p99
aVhttp://www.ontologydesignpatterns.org/ont/dul/DUL.owl#Agent
p100
aVhttp://www.ontologydesignpatterns.org/ont/dul/DUL.owl#SocialPerson
p101
aVhttp://www.wikidata.org/entity/Q176799
p102
aVhttp://www.wikidata.org/entity/Q43229
p103
aVhttp://dbpedia.org/ontology/Agent
p104
aVhttp://dbpedia.org/ontology/MilitaryUnit
p105
aVhttp://dbpedia.org/ontology/Organisation
p106
aVhttp://schema.org/Organization
p107
aVhttp://umbel.org/umbel/rc/Organization
p108
aVhttp://umbel.org/umbel/rc/Troop_MilitaryUnit
p109
aVhttp://dbpedia.org/resource/1st_(African)_Division
tp110
aaa(lp111
(lp112
a(lp113
((lVhttp://dbpedia.org/resource/Second_(disambiguation)
tp114
aa(lp115
((lVhttp://dbpedia.org/resource/Null
tp116
aa(lp117
a(lp118
((lVhttp://dbpedia.org/resource/Second_(disambiguation)
tp119
aaa(lp120
(lp121
a(lp122
a(lp123
((lVhttp://dbpedia.org/resource/Null
tp124
aa(lp125
a(lp126
aa(lp127
(lp128
((lVhttp://dbpedia.org/resource/Null
tp129
aa(lp130
((lVhttp://dbpedia.org/resource/Null
tp131
aa(lp132
((lVhttp://dbpedia.org/resource/Null
tp133
aa(lp134
((lVhttp://dbpedia.org/resource/Null
tp135
aa(lp136
((lVhttp://dbpedia.org/resource/Null
tp137
aaa(lp138
(lp139
((lVhttp://dbpedia.org/resource/Null
tp140
aa(lp141
((lVhttp://dbpedia.org/resource/Null
tp142
aa(lp143
((lVhttp://dbpedia.org/resource/Null
tp144
aa(lp145
((lVhttp://dbpedia.org/resource/Null
tp146
aa(lp147
((lVhttp://dbpedia.org/resource/Null
tp148
aaa(lp149
(lp150
a(lp151
((lVhttp://dbpedia.org/resource/Null
tp152
aa(lp153
((lVhttp://dbpedia.org/resource/Null
tp154
aa(lp155
((lVhttp://dbpedia.org/resource/Black_belt_(martial_arts)
tp156
aa(lp157
((lVhttp://dbpedia.org/resource/Null
tp158
aaa(lp159
(lp160
a(lp161
((lp162
Vhttp://www.w3.org/2002/07/owl#Thing
p163
aVhttp://www.ontologydesignpatterns.org/ont/dul/DUL.owl#Agent
p164
aVhttp://www.ontologydesignpatterns.org/ont/dul/DUL.owl#SocialPerson
p165
aVhttp://www.wikidata.org/entity/Q176799
p166
aVhttp://www.wikidata.org/entity/Q43229
p167
aVhttp://dbpedia.org/ontology/Agent
p168
aVhttp://dbpedia.org/ontology/MilitaryUnit
p169
aVhttp://dbpedia.org/ontology/Organisation
p170
aVhttp://schema.org/Organization
p171
aVhttp://umbel.org/umbel/rc/Organization
p172
aVhttp://umbel.org/umbel/rc/Troop_MilitaryUnit
p173
aVhttp://dbpedia.org/resource/1st_(African)_Division
tp174
aa(lp175
((lVhttp://dbpedia.org/resource/Null
tp176
aa(lp177
a(lp178
((lp179
Vhttp://www.w3.org/2002/07/owl#Thing
p180
aVhttp://www.ontologydesignpatterns.org/ont/dul/DUL.owl#Agent
p181
aVhttp://www.ontologydesignpatterns.org/ont/dul/DUL.owl#SocialPerson
p182
aVhttp://www.wikidata.org/entity/Q176799
p183
aVhttp://www.wikidata.org/entity/Q43229
p184
aVhttp://dbpedia.org/ontology/Agent
p185
aVhttp://dbpedia.org/ontology/MilitaryUnit
p186
aVhttp://dbpedia.org/ontology/Organisation
p187
aVhttp://schema.org/Organization
p188
aVhttp://umbel.org/umbel/rc/Organization
p189
aVhttp://umbel.org/umbel/rc/Troop_MilitaryUnit
p190
aVhttp://dbpedia.org/resource/1st_(African)_Division
tp191
aaa(lp192
(lp193
a(lp194
((lVhttp://dbpedia.org/resource/Second_(disambiguation)
tp195
aa(lp196
((lVhttp://dbpedia.org/resource/Null
tp197
aa(lp198
a(lp199
((lVhttp://dbpedia.org/resource/Second_(disambiguation)
tp200
aaa(lp201
(lp202
a(lp203
a(lp204
((lVhttp://dbpedia.org/resource/Null
tp205
aa(lp206
a(lp207
aa(lp208
(lp209
((lVhttp://dbpedia.org/resource/Null
tp210
aa(lp211
((lVhttp://dbpedia.org/resource/Null
tp212
aa(lp213
((lVhttp://dbpedia.org/resource/Null
tp214
aa(lp215
((lVhttp://dbpedia.org/resource/Null
tp216
aa(lp217
((lVhttp://dbpedia.org/resource/Null
tp218
aaa(lp219
(lp220
((lVhttp://dbpedia.org/resource/Null
tp221
aa(lp222
((lVhttp://dbpedia.org/resource/Null
tp223
aa(lp224
((lVhttp://dbpedia.org/resource/Null
tp225
aa(lp226
((lVhttp://dbpedia.org/resource/Null
tp227
aa(lp228
((lVhttp://dbpedia.org/resource/Null
tp229
aaa(lp230
(lp231
a(lp232
((lVhttp://dbpedia.org/resource/Null
tp233
aa(lp234
((lVhttp://dbpedia.org/resource/Null
tp235
aa(lp236
a(lp237
((lVhttp://dbpedia.org/resource/Null
tp238
aaa(lp239
(lp240
a(lp241
((lp242
Vhttp://www.w3.org/2002/07/owl#Thing
p243
aVhttp://www.ontologydesignpatterns.org/ont/dul/DUL.owl#Agent
p244
aVhttp://www.ontologydesignpatterns.org/ont/dul/DUL.owl#SocialPerson
p245
aVhttp://www.wikidata.org/entity/Q176799
p246
aVhttp://www.wikidata.org/entity/Q43229
p247
aVhttp://dbpedia.org/ontology/Agent
p248
aVhttp://dbpedia.org/ontology/MilitaryUnit
p249
aVhttp://dbpedia.org/ontology/Organisation
p250
aVhttp://schema.org/Organization
p251
aVhttp://umbel.org/umbel/rc/Organization
p252
aVhttp://umbel.org/umbel/rc/Troop_MilitaryUnit
p253
aVhttp://dbpedia.org/resource/1st_(African)_Division
tp254
aa(lp255
((lVhttp://dbpedia.org/resource/Null
tp256
aa(lp257
a(lp258
((lp259
Vhttp://www.w3.org/2002/07/owl#Thing
p260
aVhttp://www.ontologydesignpatterns.org/ont/dul/DUL.owl#Agent
p261
aVhttp://www.ontologydesignpatterns.org/ont/dul/DUL.owl#SocialPerson
p262
aVhttp://www.wikidata.org/entity/Q176799
p263
aVhttp://www.wikidata.org/entity/Q43229
p264
aVhttp://dbpedia.org/ontology/Agent
p265
aVhttp://dbpedia.org/ontology/MilitaryUnit
p266
aVhttp://dbpedia.org/ontology/Organisation
p267
aVhttp://schema.org/Organization
p268
aVhttp://umbel.org/umbel/rc/Organization
p269
aVhttp://umbel.org/umbel/rc/Troop_MilitaryUnit
p270
aVhttp://dbpedia.org/resource/1st_(African)_Division
tp271
aaa(lp272
(lp273
a(lp274
((lVhttp://dbpedia.org/resource/Second_(disambiguation)
tp275
aa(lp276
((lVhttp://dbpedia.org/resource/Null
tp277
aa(lp278
a(lp279
((lVhttp://dbpedia.org/resource/Second_(disambiguation)
p280
tp281
aaa.