(lp1
(lp2
(lp3
a(lp4
a(lp5
a(lp6
a(lp7
a(lp8
Vhttp://dbpedia.org/resource/Null
p9
aa(lp10
a(lp11
a(lp12
a(lp13
a(lp14
aa(lp15
(lp16
a(lp17
a(lp18
a(lp19
a(lp20
a(lp21
Vhttp://dbpedia.org/resource/Null
p22
aa(lp23
a(lp24
a(lp25
a(lp26
a(lp27
aa(lp28
(lp29
a(lp30
a(lp31
a(lp32
a(lp33
a(lp34
Vhttp://dbpedia.org/resource/Null
p35
aa(lp36
Vhttp://dbpedia.org/resource/Null
p37
aa(lp38
a(lp39
a(lp40
a(lp41
Vhttp://dbpedia.org/resource/Null
p42
aaa(lp43
(lp44
a(lp45
a(lp46
a(lp47
a(lp48
a(lp49
Vhttp://dbpedia.org/resource/Null
p50
aa(lp51
a(lp52
a(lp53
a(lp54
a(lp55
aa(lp56
(lp57
a(lp58
a(lp59
a(lp60
a(lp61
a(lp62
Vhttp://dbpedia.org/resource/Null
p63
aa(lp64
a(lp65
a(lp66
a(lp67
a(lp68
aa(lp69
(lp70
a(lp71
a(lp72
a(lp73
a(lp74
a(lp75
a(lp76
a(lp77
a(lp78
a(lp79
a(lp80
aa(lp81
(lp82
a(lp83
a(lp84
a(lp85
a(lp86
a(lp87
Vhttp://dbpedia.org/resource/Null
p88
aa(lp89
a(lp90
a(lp91
a(lp92
a(lp93
aa(lp94
(lp95
a(lp96
a(lp97
a(lp98
a(lp99
a(lp100
Vhttp://dbpedia.org/resource/Null
p101
aa(lp102
a(lp103
a(lp104
a(lp105
a(lp106
aa(lp107
(lp108
a(lp109
Vhttp://dbpedia.org/resource/Bannerdale_Crags
p110
aa(lp111
a(lp112
a(lp113
a(lp114
Vhttp://dbpedia.org/resource/Null
p115
aa(lp116
a(lp117
a(lp118
a(lp119
a(lp120
aa(lp121
(lp122
a(lp123
a(lp124
a(lp125
a(lp126
a(lp127
Vhttp://dbpedia.org/resource/Null
p128
aa(lp129
a(lp130
a(lp131
a(lp132
a(lp133
aa(lp134
(lp135
a(lp136
a(lp137
a(lp138
a(lp139
a(lp140
Vhttp://dbpedia.org/resource/Null
p141
aa(lp142
a(lp143
a(lp144
a(lp145
a(lp146
aa(lp147
(lp148
a(lp149
a(lp150
a(lp151
a(lp152
a(lp153
Vhttp://dbpedia.org/resource/Null
p154
aa(lp155
a(lp156
a(lp157
a(lp158
a(lp159
aa(lp160
(lp161
a(lp162
a(lp163
a(lp164
a(lp165
a(lp166
Vhttp://dbpedia.org/resource/Null
p167
aa(lp168
a(lp169
a(lp170
a(lp171
a(lp172
aa(lp173
(lp174
a(lp175
a(lp176
a(lp177
a(lp178
a(lp179
Vhttp://dbpedia.org/resource/Null
p180
aa(lp181
a(lp182
a(lp183
a(lp184
a(lp185
aa(lp186
(lp187
a(lp188
a(lp189
a(lp190
a(lp191
a(lp192
a(lp193
Vhttp://dbpedia.org/resource/Null
p194
aa(lp195
a(lp196
a(lp197
a(lp198
Vhttp://dbpedia.org/resource/Null
p199
aaa(lp200
(lp201
a(lp202
a(lp203
a(lp204
a(lp205
a(lp206
a(lp207
Vhttp://dbpedia.org/resource/Null
p208
aa(lp209
Vhttp://dbpedia.org/resource/Null
p210
aa(lp211
Vhttp://dbpedia.org/resource/Null
p212
aa(lp213
Vhttp://dbpedia.org/resource/Null
p214
aa(lp215
Vhttp://dbpedia.org/resource/Null
p216
aaa(lp217
(lp218
a(lp219
a(lp220
a(lp221
a(lp222
a(lp223
Vhttp://dbpedia.org/resource/Null
p224
aa(lp225
a(lp226
a(lp227
a(lp228
a(lp229
aa(lp230
(lp231
a(lp232
a(lp233
a(lp234
a(lp235
a(lp236
Vhttp://dbpedia.org/resource/Null
p237
aa(lp238
a(lp239
a(lp240
a(lp241
a(lp242
aa(lp243
(lp244
a(lp245
a(lp246
a(lp247
a(lp248
a(lp249
Vhttp://dbpedia.org/resource/Null
p250
aa(lp251
a(lp252
a(lp253
a(lp254
a(lp255
aa(lp256
(lp257
a(lp258
a(lp259
a(lp260
a(lp261
a(lp262
Vhttp://dbpedia.org/resource/Null
p263
aa(lp264
a(lp265
a(lp266
a(lp267
a(lp268
aa(lp269
(lp270
a(lp271
a(lp272
a(lp273
a(lp274
a(lp275
Vhttp://dbpedia.org/resource/Null
p276
aa(lp277
a(lp278
a(lp279
a(lp280
a(lp281
aa(lp282
(lp283
a(lp284
a(lp285
a(lp286
a(lp287
a(lp288
Vhttp://dbpedia.org/resource/Null
p289
aa(lp290
a(lp291
a(lp292
a(lp293
a(lp294
aa(lp295
(lp296
a(lp297
a(lp298
a(lp299
a(lp300
a(lp301
Vhttp://dbpedia.org/resource/Null
p302
aa(lp303
Vhttp://dbpedia.org/resource/Null
p304
aa(lp305
Vhttp://dbpedia.org/resource/Null
p306
aa(lp307
Vhttp://dbpedia.org/resource/Null
p308
aa(lp309
Vhttp://dbpedia.org/resource/Null
p310
aa(lp311
Vhttp://dbpedia.org/resource/Null
p312
aaa(lp313
(lp314
a(lp315
a(lp316
a(lp317
a(lp318
a(lp319
Vhttp://dbpedia.org/resource/Null
p320
aa(lp321
a(lp322
a(lp323
a(lp324
a(lp325
aa(lp326
(lp327
a(lp328
a(lp329
a(lp330
a(lp331
a(lp332
Vhttp://dbpedia.org/resource/Null
p333
aa(lp334
a(lp335
a(lp336
a(lp337
a(lp338
aa(lp339
(lp340
a(lp341
a(lp342
a(lp343
a(lp344
a(lp345
a(lp346
Vhttp://dbpedia.org/resource/Null
p347
aa(lp348
Vhttp://dbpedia.org/resource/Null
p349
aa(lp350
Vhttp://dbpedia.org/resource/Null
p351
aa(lp352
Vhttp://dbpedia.org/resource/Null
p353
aa(lp354
Vhttp://dbpedia.org/resource/Null
p355
aaa(lp356
(lp357
a(lp358
a(lp359
a(lp360
a(lp361
a(lp362
Vhttp://dbpedia.org/resource/Null
p363
aa(lp364
Vhttp://dbpedia.org/resource/Null
p365
aa(lp366
a(lp367
a(lp368
a(lp369
Vhttp://dbpedia.org/resource/Null
p370
aaa(lp371
(lp372
a(lp373
a(lp374
a(lp375
a(lp376
a(lp377
Vhttp://dbpedia.org/resource/Null
p378
aa(lp379
Vhttp://dbpedia.org/resource/Null
p380
aa(lp381
Vhttp://dbpedia.org/resource/Null
p382
aa(lp383
Vhttp://dbpedia.org/resource/Null
p384
aa(lp385
Vhttp://dbpedia.org/resource/Null
p386
aa(lp387
Vhttp://dbpedia.org/resource/Null
p388
aaa(lp389
(lp390
a(lp391
a(lp392
a(lp393
a(lp394
a(lp395
Vhttp://dbpedia.org/resource/Null
p396
aa(lp397
Vhttp://dbpedia.org/resource/Null
p398
aa(lp399
a(lp400
a(lp401
a(lp402
Vhttp://dbpedia.org/resource/Null
p403
aaa(lp404
(lp405
a(lp406
a(lp407
a(lp408
a(lp409
a(lp410
Vhttp://dbpedia.org/resource/Null
p411
aa(lp412
a(lp413
a(lp414
a(lp415
a(lp416
aa(lp417
(lp418
a(lp419
a(lp420
a(lp421
a(lp422
a(lp423
Vhttp://dbpedia.org/resource/Null
p424
aa(lp425
a(lp426
a(lp427
a(lp428
a(lp429
aa(lp430
(lp431
a(lp432
a(lp433
a(lp434
a(lp435
a(lp436
Vhttp://dbpedia.org/resource/Null
p437
aa(lp438
a(lp439
a(lp440
a(lp441
a(lp442
aa(lp443
(lp444
a(lp445
a(lp446
a(lp447
a(lp448
a(lp449
Vhttp://dbpedia.org/resource/Null
p450
aa(lp451
a(lp452
a(lp453
a(lp454
a(lp455
aa(lp456
(lp457
a(lp458
a(lp459
a(lp460
a(lp461
a(lp462
Vhttp://dbpedia.org/resource/Null
p463
aa(lp464
a(lp465
a(lp466
a(lp467
a(lp468
aa(lp469
(lp470
a(lp471
a(lp472
a(lp473
a(lp474
a(lp475
Vhttp://dbpedia.org/resource/Null
p476
aa(lp477
a(lp478
a(lp479
a(lp480
a(lp481
aa(lp482
(lp483
a(lp484
a(lp485
a(lp486
a(lp487
a(lp488
Vhttp://dbpedia.org/resource/Null
p489
aa(lp490
Vhttp://dbpedia.org/resource/Null
p491
aa(lp492
Vhttp://dbpedia.org/resource/Null
p493
aa(lp494
Vhttp://dbpedia.org/resource/Null
p495
aa(lp496
Vhttp://dbpedia.org/resource/Null
p497
aa(lp498
Vhttp://dbpedia.org/resource/Null
p499
aaa(lp500
(lp501
a(lp502
a(lp503
a(lp504
a(lp505
a(lp506
Vhttp://dbpedia.org/resource/Null
p507
aa(lp508
Vhttp://dbpedia.org/resource/Null
p509
aa(lp510
Vhttp://dbpedia.org/resource/Null
p511
aa(lp512
Vhttp://dbpedia.org/resource/Null
p513
aa(lp514
Vhttp://dbpedia.org/resource/Null
p515
aa(lp516
aa(lp517
(lp518
a(lp519
a(lp520
a(lp521
a(lp522
a(lp523
a(lp524
Vhttp://dbpedia.org/resource/Null
p525
aa(lp526
a(lp527
a(lp528
a(lp529
Vhttp://dbpedia.org/resource/Null
p530
aaa(lp531
(lp532
a(lp533
a(lp534
a(lp535
a(lp536
a(lp537
Vhttp://dbpedia.org/resource/Null
p538
aa(lp539
Vhttp://dbpedia.org/resource/Null
p540
aa(lp541
a(lp542
a(lp543
a(lp544
aa(lp545
(lp546
a(lp547
a(lp548
a(lp549
a(lp550
a(lp551
Vhttp://dbpedia.org/resource/Null
p552
aa(lp553
a(lp554
a(lp555
a(lp556
a(lp557
aa(lp558
(lp559
a(lp560
a(lp561
a(lp562
a(lp563
a(lp564
Vhttp://dbpedia.org/resource/Null
p565
aa(lp566
a(lp567
a(lp568
a(lp569
a(lp570
aa(lp571
(lp572
a(lp573
a(lp574
a(lp575
a(lp576
a(lp577
a(lp578
a(lp579
a(lp580
a(lp581
a(lp582
aa(lp583
(lp584
a(lp585
a(lp586
a(lp587
a(lp588
a(lp589
Vhttp://dbpedia.org/resource/Null
p590
aa(lp591
a(lp592
a(lp593
a(lp594
a(lp595
aa(lp596
(lp597
a(lp598
a(lp599
a(lp600
a(lp601
a(lp602
Vhttp://dbpedia.org/resource/Null
p603
aa(lp604
Vhttp://dbpedia.org/resource/Null
p605
aa(lp606
Vhttp://dbpedia.org/resource/Null
p607
aa(lp608
Vhttp://dbpedia.org/resource/Null
p609
aa(lp610
Vhttp://dbpedia.org/resource/Null
p611
aa(lp612
Vhttp://dbpedia.org/resource/Null
p613
aaa(lp614
(lp615
a(lp616
a(lp617
a(lp618
a(lp619
a(lp620
Vhttp://dbpedia.org/resource/Null
p621
aa(lp622
a(lp623
a(lp624
a(lp625
a(lp626
aa(lp627
(lp628
a(lp629
a(lp630
a(lp631
a(lp632
a(lp633
Vhttp://dbpedia.org/resource/Null
p634
aa(lp635
a(lp636
a(lp637
a(lp638
a(lp639
aa(lp640
(lp641
a(lp642
a(lp643
a(lp644
a(lp645
a(lp646
Vhttp://dbpedia.org/resource/Null
p647
aa(lp648
a(lp649
a(lp650
a(lp651
a(lp652
aa(lp653
(lp654
a(lp655
a(lp656
a(lp657
a(lp658
a(lp659
Vhttp://dbpedia.org/resource/Null
p660
aa(lp661
a(lp662
a(lp663
a(lp664
a(lp665
aa(lp666
(lp667
a(lp668
a(lp669
a(lp670
a(lp671
a(lp672
a(lp673
Vhttp://dbpedia.org/resource/Null
p674
aa(lp675
a(lp676
a(lp677
a(lp678
aa(lp679
(lp680
a(lp681
a(lp682
a(lp683
a(lp684
a(lp685
a(lp686
Vhttp://dbpedia.org/resource/Null
p687
aa(lp688
a(lp689
a(lp690
a(lp691
Vhttp://dbpedia.org/resource/Null
p692
aaa(lp693
(lp694
a(lp695
a(lp696
a(lp697
a(lp698
a(lp699
Vhttp://dbpedia.org/resource/Null
p700
aa(lp701
a(lp702
a(lp703
a(lp704
a(lp705
aa(lp706
(lp707
a(lp708
a(lp709
a(lp710
a(lp711
a(lp712
Vhttp://dbpedia.org/resource/Null
p713
aa(lp714
a(lp715
a(lp716
a(lp717
a(lp718
aa(lp719
(lp720
a(lp721
a(lp722
a(lp723
a(lp724
a(lp725
Vhttp://dbpedia.org/resource/Null
p726
aa(lp727
a(lp728
a(lp729
a(lp730
a(lp731
aa(lp732
(lp733
a(lp734
a(lp735
a(lp736
a(lp737
a(lp738
Vhttp://dbpedia.org/resource/Null
p739
aa(lp740
a(lp741
a(lp742
a(lp743
a(lp744
aa(lp745
(lp746
a(lp747
a(lp748
a(lp749
a(lp750
a(lp751
a(lp752
Vhttp://dbpedia.org/resource/Null
p753
aa(lp754
Vhttp://dbpedia.org/resource/Null
p755
aa(lp756
Vhttp://dbpedia.org/resource/Null
p757
aa(lp758
Vhttp://dbpedia.org/resource/Null
p759
aa(lp760
Vhttp://dbpedia.org/resource/Null
p761
aaa(lp762
(lp763
a(lp764
a(lp765
a(lp766
a(lp767
a(lp768
Vhttp://dbpedia.org/resource/Null
p769
aa(lp770
a(lp771
a(lp772
a(lp773
a(lp774
aa(lp775
(lp776
a(lp777
a(lp778
a(lp779
a(lp780
a(lp781
Vhttp://dbpedia.org/resource/Null
p782
aa(lp783
Vhttp://dbpedia.org/resource/Null
p784
aa(lp785
Vhttp://dbpedia.org/resource/Null
p786
aa(lp787
Vhttp://dbpedia.org/resource/Null
p788
aa(lp789
Vhttp://dbpedia.org/resource/Null
p790
aa(lp791
Vhttp://dbpedia.org/resource/Null
p792
aaa(lp793
(lp794
a(lp795
a(lp796
a(lp797
a(lp798
a(lp799
Vhttp://dbpedia.org/resource/Null
p800
aa(lp801
Vhttp://dbpedia.org/resource/Null
p802
aa(lp803
a(lp804
a(lp805
a(lp806
Vhttp://dbpedia.org/resource/Null
p807
aaa(lp808
(lp809
a(lp810
a(lp811
a(lp812
a(lp813
a(lp814
Vhttp://dbpedia.org/resource/Null
p815
aa(lp816
a(lp817
a(lp818
a(lp819
a(lp820
aa(lp821
(lp822
a(lp823
a(lp824
a(lp825
a(lp826
a(lp827
Vhttp://dbpedia.org/resource/Null
p828
aa(lp829
a(lp830
a(lp831
a(lp832
a(lp833
aa(lp834
(lp835
a(lp836
a(lp837
a(lp838
a(lp839
a(lp840
Vhttp://dbpedia.org/resource/Null
p841
aa(lp842
a(lp843
a(lp844
a(lp845
a(lp846
aa(lp847
(lp848
a(lp849
Vhttp://dbpedia.org/resource/Glenridding_Dodd
p850
aa(lp851
a(lp852
a(lp853
a(lp854
a(lp855
Vhttp://dbpedia.org/resource/Null
p856
aa(lp857
Vhttp://dbpedia.org/resource/Null
p858
aa(lp859
Vhttp://dbpedia.org/resource/Null
p860
aa(lp861
Vhttp://dbpedia.org/resource/Null
p862
aa(lp863
Vhttp://dbpedia.org/resource/Null
p864
aaa(lp865
(lp866
a(lp867
a(lp868
a(lp869
a(lp870
a(lp871
a(lp872
Vhttp://dbpedia.org/resource/Null
p873
aa(lp874
Vhttp://dbpedia.org/resource/Null
p875
aa(lp876
Vhttp://dbpedia.org/resource/Null
p877
aa(lp878
Vhttp://dbpedia.org/resource/Null
p879
aa(lp880
Vhttp://dbpedia.org/resource/Null
p881
aaa(lp882
(lp883
a(lp884
a(lp885
a(lp886
a(lp887
a(lp888
Vhttp://dbpedia.org/resource/Null
p889
aa(lp890
a(lp891
a(lp892
a(lp893
a(lp894
aa(lp895
(lp896
a(lp897
a(lp898
a(lp899
a(lp900
a(lp901
Vhttp://dbpedia.org/resource/Null
p902
aa(lp903
a(lp904
a(lp905
a(lp906
a(lp907
aa(lp908
(lp909
a(lp910
a(lp911
a(lp912
a(lp913
a(lp914
Vhttp://dbpedia.org/resource/Null
p915
aa(lp916
Vhttp://dbpedia.org/resource/Null
p917
aa(lp918
a(lp919
a(lp920
a(lp921
Vhttp://dbpedia.org/resource/Null
p922
aaa(lp923
(lp924
a(lp925
a(lp926
a(lp927
a(lp928
a(lp929
Vhttp://dbpedia.org/resource/Null
p930
aa(lp931
a(lp932
a(lp933
a(lp934
a(lp935
aa(lp936
(lp937
a(lp938
a(lp939
a(lp940
a(lp941
a(lp942
a(lp943
Vhttp://dbpedia.org/resource/Null
p944
aa(lp945
Vhttp://dbpedia.org/resource/Null
p946
aa(lp947
Vhttp://dbpedia.org/resource/Null
p948
aa(lp949
Vhttp://dbpedia.org/resource/Null
p950
aa(lp951
Vhttp://dbpedia.org/resource/Null
p952
aaa(lp953
(lp954
a(lp955
a(lp956
a(lp957
a(lp958
a(lp959
Vhttp://dbpedia.org/resource/Null
p960
aa(lp961
Vhttp://dbpedia.org/resource/Null
p962
aa(lp963
Vhttp://dbpedia.org/resource/Null
p964
aa(lp965
Vhttp://dbpedia.org/resource/Null
p966
aa(lp967
Vhttp://dbpedia.org/resource/Null
p968
aa(lp969
Vhttp://dbpedia.org/resource/Null
p970
aaa(lp971
(lp972
a(lp973
a(lp974
a(lp975
a(lp976
a(lp977
Vhttp://dbpedia.org/resource/Null
p978
aa(lp979
Vhttp://dbpedia.org/resource/Null
p980
aa(lp981
Vhttp://dbpedia.org/resource/Null
p982
aa(lp983
Vhttp://dbpedia.org/resource/Null
p984
aa(lp985
Vhttp://dbpedia.org/resource/Null
p986
aa(lp987
Vhttp://dbpedia.org/resource/Null
p988
aaa(lp989
(lp990
a(lp991
a(lp992
a(lp993
a(lp994
a(lp995
Vhttp://dbpedia.org/resource/Null
p996
aa(lp997
Vhttp://dbpedia.org/resource/Null
p998
aa(lp999
Vhttp://dbpedia.org/resource/Null
p1000
aa(lp1001
Vhttp://dbpedia.org/resource/Null
p1002
aa(lp1003
Vhttp://dbpedia.org/resource/Null
p1004
aa(lp1005
Vhttp://dbpedia.org/resource/Null
p1006
aaa(lp1007
(lp1008
a(lp1009
a(lp1010
a(lp1011
a(lp1012
a(lp1013
Vhttp://dbpedia.org/resource/Null
p1014
aa(lp1015
Vhttp://dbpedia.org/resource/Null
p1016
aa(lp1017
Vhttp://dbpedia.org/resource/Null
p1018
aa(lp1019
Vhttp://dbpedia.org/resource/Null
p1020
aa(lp1021
Vhttp://dbpedia.org/resource/Null
p1022
aa(lp1023
Vhttp://dbpedia.org/resource/Null
p1024
aaa(lp1025
(lp1026
a(lp1027
a(lp1028
a(lp1029
a(lp1030
a(lp1031
a(lp1032
Vhttp://dbpedia.org/resource/Null
p1033
aa(lp1034
Vhttp://dbpedia.org/resource/Null
p1035
aa(lp1036
Vhttp://dbpedia.org/resource/Null
p1037
aa(lp1038
Vhttp://dbpedia.org/resource/Null
p1039
aa(lp1040
Vhttp://dbpedia.org/resource/Null
p1041
aaa(lp1042
(lp1043
a(lp1044
a(lp1045
a(lp1046
a(lp1047
a(lp1048
Vhttp://dbpedia.org/resource/Null
p1049
aa(lp1050
Vhttp://dbpedia.org/resource/Null
p1051
aa(lp1052
Vhttp://dbpedia.org/resource/Null
p1053
aa(lp1054
Vhttp://dbpedia.org/resource/Null
p1055
aa(lp1056
Vhttp://dbpedia.org/resource/Null
p1057
aa(lp1058
Vhttp://dbpedia.org/resource/Null
p1059
aaa(lp1060
(lp1061
a(lp1062
a(lp1063
a(lp1064
a(lp1065
a(lp1066
Vhttp://dbpedia.org/resource/Null
p1067
aa(lp1068
Vhttp://dbpedia.org/resource/Null
p1069
aa(lp1070
Vhttp://dbpedia.org/resource/Null
p1071
aa(lp1072
a(lp1073
a(lp1074
aa(lp1075
(lp1076
a(lp1077
a(lp1078
a(lp1079
a(lp1080
a(lp1081
a(lp1082
a(lp1083
a(lp1084
a(lp1085
a(lp1086
aa(lp1087
(lp1088
a(lp1089
a(lp1090
a(lp1091
a(lp1092
a(lp1093
a(lp1094
Vhttp://dbpedia.org/resource/Null
p1095
aa(lp1096
a(lp1097
a(lp1098
a(lp1099
Vhttp://dbpedia.org/resource/Null
p1100
aaa(lp1101
(lp1102
a(lp1103
a(lp1104
a(lp1105
a(lp1106
a(lp1107
Vhttp://dbpedia.org/resource/Null
p1108
aa(lp1109
a(lp1110
a(lp1111
a(lp1112
a(lp1113
aa(lp1114
(lp1115
a(lp1116
a(lp1117
a(lp1118
a(lp1119
a(lp1120
Vhttp://dbpedia.org/resource/Null
p1121
aa(lp1122
a(lp1123
a(lp1124
a(lp1125
a(lp1126
aa(lp1127
(lp1128
a(lp1129
a(lp1130
a(lp1131
a(lp1132
a(lp1133
Vhttp://dbpedia.org/resource/Null
p1134
aa(lp1135
Vhttp://dbpedia.org/resource/Null
p1136
aa(lp1137
Vhttp://dbpedia.org/resource/Null
p1138
aa(lp1139
a(lp1140
a(lp1141
aa(lp1142
(lp1143
a(lp1144
a(lp1145
a(lp1146
a(lp1147
a(lp1148
Vhttp://dbpedia.org/resource/Null
p1149
aa(lp1150
a(lp1151
a(lp1152
a(lp1153
a(lp1154
aa(lp1155
(lp1156
a(lp1157
a(lp1158
a(lp1159
a(lp1160
a(lp1161
Vhttp://dbpedia.org/resource/Null
p1162
aa(lp1163
a(lp1164
a(lp1165
a(lp1166
a(lp1167
aa(lp1168
(lp1169
a(lp1170
a(lp1171
a(lp1172
a(lp1173
a(lp1174
Vhttp://dbpedia.org/resource/Null
p1175
aa(lp1176
Vhttp://dbpedia.org/resource/Null
p1177
aa(lp1178
Vhttp://dbpedia.org/resource/Null
p1179
aa(lp1180
Vhttp://dbpedia.org/resource/Null
p1181
aa(lp1182
Vhttp://dbpedia.org/resource/Null
p1183
aa(lp1184
Vhttp://dbpedia.org/resource/Null
p1185
aaa(lp1186
(lp1187
a(lp1188
a(lp1189
a(lp1190
a(lp1191
a(lp1192
Vhttp://dbpedia.org/resource/Null
p1193
aa(lp1194
a(lp1195
a(lp1196
a(lp1197
a(lp1198
aa(lp1199
(lp1200
a(lp1201
a(lp1202
a(lp1203
a(lp1204
a(lp1205
Vhttp://dbpedia.org/resource/Null
p1206
aa(lp1207
a(lp1208
a(lp1209
a(lp1210
a(lp1211
aa(lp1212
(lp1213
a(lp1214
a(lp1215
a(lp1216
a(lp1217
a(lp1218
Vhttp://dbpedia.org/resource/Null
p1219
aa(lp1220
Vhttp://dbpedia.org/resource/Null
p1221
aa(lp1222
Vhttp://dbpedia.org/resource/Null
p1223
aa(lp1224
Vhttp://dbpedia.org/resource/Null
p1225
aa(lp1226
Vhttp://dbpedia.org/resource/Null
p1227
aa(lp1228
Vhttp://dbpedia.org/resource/Null
p1229
aaa(lp1230
(lp1231
a(lp1232
a(lp1233
a(lp1234
a(lp1235
a(lp1236
Vhttp://dbpedia.org/resource/Null
p1237
aa(lp1238
a(lp1239
a(lp1240
a(lp1241
a(lp1242
aa(lp1243
(lp1244
a(lp1245
Vhttp://dbpedia.org/resource/Harrison_Stickle
p1246
aa(lp1247
a(lp1248
a(lp1249
a(lp1250
Vhttp://dbpedia.org/resource/Null
p1251
aa(lp1252
Vhttp://dbpedia.org/resource/Null
p1253
aa(lp1254
a(lp1255
a(lp1256
a(lp1257
Vhttp://dbpedia.org/resource/Null
p1258
aaa(lp1259
(lp1260
a(lp1261
a(lp1262
a(lp1263
a(lp1264
a(lp1265
a(lp1266
Vhttp://dbpedia.org/resource/Null
p1267
aa(lp1268
Vhttp://dbpedia.org/resource/Null
p1269
aa(lp1270
Vhttp://dbpedia.org/resource/Null
p1271
aa(lp1272
Vhttp://dbpedia.org/resource/Null
p1273
aa(lp1274
Vhttp://dbpedia.org/resource/Null
p1275
aaa(lp1276
(lp1277
a(lp1278
a(lp1279
a(lp1280
a(lp1281
a(lp1282
a(lp1283
Vhttp://dbpedia.org/resource/Null
p1284
aa(lp1285
Vhttp://dbpedia.org/resource/Null
p1286
aa(lp1287
Vhttp://dbpedia.org/resource/Null
p1288
aa(lp1289
Vhttp://dbpedia.org/resource/Null
p1290
aa(lp1291
Vhttp://dbpedia.org/resource/Null
p1292
aaa(lp1293
(lp1294
a(lp1295
a(lp1296
a(lp1297
a(lp1298
a(lp1299
Vhttp://dbpedia.org/resource/Null
p1300
aa(lp1301
Vhttp://dbpedia.org/resource/Null
p1302
aa(lp1303
Vhttp://dbpedia.org/resource/Null
p1304
aa(lp1305
Vhttp://dbpedia.org/resource/Null
p1306
aa(lp1307
Vhttp://dbpedia.org/resource/Null
p1308
aa(lp1309
Vhttp://dbpedia.org/resource/Null
p1310
aaa(lp1311
(lp1312
a(lp1313
a(lp1314
a(lp1315
a(lp1316
a(lp1317
Vhttp://dbpedia.org/resource/Null
p1318
aa(lp1319
Vhttp://dbpedia.org/resource/Null
p1320
aa(lp1321
a(lp1322
a(lp1323
a(lp1324
Vhttp://dbpedia.org/resource/Null
p1325
aaa(lp1326
(lp1327
a(lp1328
Vhttp://dbpedia.org/resource/Hartsop_above_How
p1329
aa(lp1330
a(lp1331
a(lp1332
a(lp1333
Vhttp://dbpedia.org/resource/Null
p1334
aa(lp1335
Vhttp://dbpedia.org/resource/Null
p1336
aa(lp1337
Vhttp://dbpedia.org/resource/Null
p1338
aa(lp1339
Vhttp://dbpedia.org/resource/Null
p1340
aa(lp1341
Vhttp://dbpedia.org/resource/Null
p1342
aa(lp1343
Vhttp://dbpedia.org/resource/Null
p1344
aaa(lp1345
(lp1346
a(lp1347
a(lp1348
a(lp1349
a(lp1350
a(lp1351
a(lp1352
a(lp1353
a(lp1354
a(lp1355
a(lp1356
aa(lp1357
(lp1358
a(lp1359
a(lp1360
a(lp1361
a(lp1362
a(lp1363
Vhttp://dbpedia.org/resource/Null
p1364
aa(lp1365
a(lp1366
a(lp1367
a(lp1368
a(lp1369
aa(lp1370
(lp1371
a(lp1372
a(lp1373
a(lp1374
a(lp1375
a(lp1376
Vhttp://dbpedia.org/resource/Null
p1377
aa(lp1378
Vhttp://dbpedia.org/resource/Null
p1379
aa(lp1380
Vhttp://dbpedia.org/resource/Null
p1381
aa(lp1382
Vhttp://dbpedia.org/resource/Null
p1383
aa(lp1384
Vhttp://dbpedia.org/resource/Null
p1385
aa(lp1386
Vhttp://dbpedia.org/resource/Null
p1387
aaa(lp1388
(lp1389
a(lp1390
a(lp1391
a(lp1392
a(lp1393
a(lp1394
Vhttp://dbpedia.org/resource/Null
p1395
aa(lp1396
Vhttp://dbpedia.org/resource/Null
p1397
aa(lp1398
Vhttp://dbpedia.org/resource/Null
p1399
aa(lp1400
Vhttp://dbpedia.org/resource/Null
p1401
aa(lp1402
Vhttp://dbpedia.org/resource/Null
p1403
aa(lp1404
Vhttp://dbpedia.org/resource/Null
p1405
aaa(lp1406
(lp1407
a(lp1408
a(lp1409
a(lp1410
a(lp1411
a(lp1412
a(lp1413
Vhttp://dbpedia.org/resource/Null
p1414
aa(lp1415
Vhttp://dbpedia.org/resource/Null
p1416
aa(lp1417
Vhttp://dbpedia.org/resource/Null
p1418
aa(lp1419
Vhttp://dbpedia.org/resource/Null
p1420
aa(lp1421
Vhttp://dbpedia.org/resource/Null
p1422
aaa(lp1423
(lp1424
a(lp1425
a(lp1426
a(lp1427
a(lp1428
a(lp1429
Vhttp://dbpedia.org/resource/Null
p1430
aa(lp1431
a(lp1432
a(lp1433
a(lp1434
a(lp1435
aa(lp1436
(lp1437
a(lp1438
a(lp1439
a(lp1440
a(lp1441
a(lp1442
a(lp1443
Vhttp://dbpedia.org/resource/Null
p1444
aa(lp1445
Vhttp://dbpedia.org/resource/Null
p1446
aa(lp1447
Vhttp://dbpedia.org/resource/Null
p1448
aa(lp1449
Vhttp://dbpedia.org/resource/Null
p1450
aa(lp1451
Vhttp://dbpedia.org/resource/Null
p1452
aaa(lp1453
(lp1454
a(lp1455
a(lp1456
a(lp1457
a(lp1458
a(lp1459
a(lp1460
Vhttp://dbpedia.org/resource/Null
p1461
aa(lp1462
Vhttp://dbpedia.org/resource/Null
p1463
aa(lp1464
Vhttp://dbpedia.org/resource/Null
p1465
aa(lp1466
Vhttp://dbpedia.org/resource/Null
p1467
aa(lp1468
Vhttp://dbpedia.org/resource/Null
p1469
aaa(lp1470
(lp1471
a(lp1472
a(lp1473
a(lp1474
a(lp1475
a(lp1476
a(lp1477
Vhttp://dbpedia.org/resource/Null
p1478
aa(lp1479
a(lp1480
a(lp1481
a(lp1482
Vhttp://dbpedia.org/resource/Null
p1483
aaa(lp1484
(lp1485
a(lp1486
a(lp1487
a(lp1488
a(lp1489
a(lp1490
Vhttp://dbpedia.org/resource/Null
p1491
aa(lp1492
a(lp1493
a(lp1494
a(lp1495
a(lp1496
aa(lp1497
(lp1498
a(lp1499
a(lp1500
a(lp1501
a(lp1502
a(lp1503
a(lp1504
Vhttp://dbpedia.org/resource/Null
p1505
aa(lp1506
a(lp1507
a(lp1508
a(lp1509
Vhttp://dbpedia.org/resource/Null
p1510
aaa(lp1511
(lp1512
a(lp1513
a(lp1514
a(lp1515
a(lp1516
a(lp1517
Vhttp://dbpedia.org/resource/Null
p1518
aa(lp1519
Vhttp://dbpedia.org/resource/Null
p1520
aa(lp1521
a(lp1522
a(lp1523
a(lp1524
Vhttp://dbpedia.org/resource/Null
p1525
aaa(lp1526
(lp1527
a(lp1528
a(lp1529
a(lp1530
a(lp1531
a(lp1532
Vhttp://dbpedia.org/resource/Null
p1533
aa(lp1534
Vhttp://dbpedia.org/resource/Null
p1535
aa(lp1536
a(lp1537
a(lp1538
a(lp1539
Vhttp://dbpedia.org/resource/Null
p1540
aaa(lp1541
(lp1542
a(lp1543
a(lp1544
a(lp1545
a(lp1546
a(lp1547
Vhttp://dbpedia.org/resource/Null
p1548
aa(lp1549
Vhttp://dbpedia.org/resource/Null
p1550
aa(lp1551
a(lp1552
a(lp1553
a(lp1554
Vhttp://dbpedia.org/resource/Null
p1555
aaa(lp1556
(lp1557
a(lp1558
a(lp1559
a(lp1560
a(lp1561
a(lp1562
Vhttp://dbpedia.org/resource/Null
p1563
aa(lp1564
a(lp1565
a(lp1566
a(lp1567
a(lp1568
aa(lp1569
(lp1570
a(lp1571
a(lp1572
a(lp1573
a(lp1574
a(lp1575
Vhttp://dbpedia.org/resource/Null
p1576
aa(lp1577
a(lp1578
a(lp1579
a(lp1580
a(lp1581
aa(lp1582
(lp1583
a(lp1584
a(lp1585
a(lp1586
a(lp1587
a(lp1588
Vhttp://dbpedia.org/resource/Null
p1589
aa(lp1590
a(lp1591
a(lp1592
a(lp1593
a(lp1594
aa(lp1595
(lp1596
a(lp1597
Vhttp://dbpedia.org/resource/High_Street
p1598
aa(lp1599
a(lp1600
a(lp1601
a(lp1602
Vhttp://dbpedia.org/resource/Null
p1603
aa(lp1604
Vhttp://dbpedia.org/resource/Null
p1605
aa(lp1606
Vhttp://dbpedia.org/resource/Null
p1607
aa(lp1608
Vhttp://dbpedia.org/resource/Null
p1609
aa(lp1610
Vhttp://dbpedia.org/resource/Null
p1611
aa(lp1612
Vhttp://dbpedia.org/resource/Null
p1613
aaa(lp1614
(lp1615
a(lp1616
a(lp1617
a(lp1618
a(lp1619
a(lp1620
Vhttp://dbpedia.org/resource/Null
p1621
aa(lp1622
a(lp1623
a(lp1624
a(lp1625
a(lp1626
aa(lp1627
(lp1628
a(lp1629
a(lp1630
a(lp1631
a(lp1632
a(lp1633
Vhttp://dbpedia.org/resource/Null
p1634
aa(lp1635
a(lp1636
a(lp1637
a(lp1638
a(lp1639
aa(lp1640
(lp1641
a(lp1642
a(lp1643
a(lp1644
a(lp1645
a(lp1646
Vhttp://dbpedia.org/resource/Null
p1647
aa(lp1648
a(lp1649
a(lp1650
a(lp1651
a(lp1652
aa(lp1653
(lp1654
a(lp1655
a(lp1656
a(lp1657
a(lp1658
a(lp1659
Vhttp://dbpedia.org/resource/Null
p1660
aa(lp1661
a(lp1662
a(lp1663
a(lp1664
a(lp1665
aa(lp1666
(lp1667
a(lp1668
a(lp1669
a(lp1670
a(lp1671
a(lp1672
Vhttp://dbpedia.org/resource/Null
p1673
aa(lp1674
Vhttp://dbpedia.org/resource/Null
p1675
aa(lp1676
a(lp1677
a(lp1678
a(lp1679
Vhttp://dbpedia.org/resource/Null
p1680
aaa(lp1681
(lp1682
a(lp1683
a(lp1684
a(lp1685
a(lp1686
a(lp1687
Vhttp://dbpedia.org/resource/Null
p1688
aa(lp1689
Vhttp://dbpedia.org/resource/Null
p1690
aa(lp1691
Vhttp://dbpedia.org/resource/Null
p1692
aa(lp1693
Vhttp://dbpedia.org/resource/Null
p1694
aa(lp1695
Vhttp://dbpedia.org/resource/Null
p1696
aa(lp1697
Vhttp://dbpedia.org/resource/Null
p1698
aaa(lp1699
(lp1700
a(lp1701
a(lp1702
a(lp1703
a(lp1704
a(lp1705
Vhttp://dbpedia.org/resource/Null
p1706
aa(lp1707
Vhttp://dbpedia.org/resource/Null
p1708
aa(lp1709
a(lp1710
a(lp1711
a(lp1712
Vhttp://dbpedia.org/resource/Null
p1713
aaa(lp1714
(lp1715
a(lp1716
a(lp1717
a(lp1718
a(lp1719
a(lp1720
Vhttp://dbpedia.org/resource/Null
p1721
aa(lp1722
Vhttp://dbpedia.org/resource/Null
p1723
aa(lp1724
a(lp1725
a(lp1726
a(lp1727
Vhttp://dbpedia.org/resource/Null
p1728
aaa(lp1729
(lp1730
a(lp1731
a(lp1732
a(lp1733
a(lp1734
a(lp1735
a(lp1736
Vhttp://dbpedia.org/resource/Null
p1737
aa(lp1738
Vhttp://dbpedia.org/resource/Null
p1739
aa(lp1740
Vhttp://dbpedia.org/resource/Null
p1741
aa(lp1742
Vhttp://dbpedia.org/resource/Null
p1743
aa(lp1744
Vhttp://dbpedia.org/resource/Null
p1745
aaa(lp1746
(lp1747
a(lp1748
a(lp1749
a(lp1750
a(lp1751
a(lp1752
Vhttp://dbpedia.org/resource/Null
p1753
aa(lp1754
Vhttp://dbpedia.org/resource/Null
p1755
aa(lp1756
Vhttp://dbpedia.org/resource/Null
p1757
aa(lp1758
Vhttp://dbpedia.org/resource/Null
p1759
aa(lp1760
Vhttp://dbpedia.org/resource/Null
p1761
aa(lp1762
Vhttp://dbpedia.org/resource/Null
p1763
aaa(lp1764
(lp1765
a(lp1766
a(lp1767
a(lp1768
a(lp1769
a(lp1770
Vhttp://dbpedia.org/resource/Null
p1771
aa(lp1772
Vhttp://dbpedia.org/resource/Null
p1773
aa(lp1774
Vhttp://dbpedia.org/resource/Null
p1775
aa(lp1776
Vhttp://dbpedia.org/resource/Null
p1777
aa(lp1778
Vhttp://dbpedia.org/resource/Null
p1779
aa(lp1780
Vhttp://dbpedia.org/resource/Null
p1781
aaa(lp1782
(lp1783
a(lp1784
a(lp1785
a(lp1786
a(lp1787
a(lp1788
Vhttp://dbpedia.org/resource/Null
p1789
aa(lp1790
Vhttp://dbpedia.org/resource/Null
p1791
aa(lp1792
a(lp1793
a(lp1794
a(lp1795
Vhttp://dbpedia.org/resource/Null
p1796
aaa(lp1797
(lp1798
a(lp1799
a(lp1800
a(lp1801
a(lp1802
a(lp1803
Vhttp://dbpedia.org/resource/Null
p1804
aa(lp1805
a(lp1806
a(lp1807
a(lp1808
a(lp1809
aa(lp1810
(lp1811
a(lp1812
a(lp1813
a(lp1814
a(lp1815
a(lp1816
Vhttp://dbpedia.org/resource/Null
p1817
aa(lp1818
a(lp1819
a(lp1820
a(lp1821
a(lp1822
aa(lp1823
(lp1824
a(lp1825
a(lp1826
a(lp1827
a(lp1828
a(lp1829
Vhttp://dbpedia.org/resource/Null
p1830
aa(lp1831
a(lp1832
a(lp1833
a(lp1834
a(lp1835
aa(lp1836
(lp1837
a(lp1838
a(lp1839
a(lp1840
a(lp1841
a(lp1842
Vhttp://dbpedia.org/resource/Null
p1843
aa(lp1844
Vhttp://dbpedia.org/resource/Null
p1845
aa(lp1846
Vhttp://dbpedia.org/resource/Null
p1847
aa(lp1848
Vhttp://dbpedia.org/resource/Null
p1849
aa(lp1850
Vhttp://dbpedia.org/resource/Null
p1851
aa(lp1852
Vhttp://dbpedia.org/resource/Null
p1853
aaa(lp1854
(lp1855
a(lp1856
a(lp1857
a(lp1858
a(lp1859
a(lp1860
Vhttp://dbpedia.org/resource/Null
p1861
aa(lp1862
a(lp1863
a(lp1864
a(lp1865
a(lp1866
aa(lp1867
(lp1868
a(lp1869
a(lp1870
a(lp1871
a(lp1872
a(lp1873
a(lp1874
Vhttp://dbpedia.org/resource/Null
p1875
aa(lp1876
a(lp1877
a(lp1878
a(lp1879
Vhttp://dbpedia.org/resource/Null
p1880
aaa(lp1881
(lp1882
a(lp1883
a(lp1884
a(lp1885
a(lp1886
a(lp1887
a(lp1888
a(lp1889
a(lp1890
a(lp1891
a(lp1892
aa(lp1893
(lp1894
a(lp1895
a(lp1896
a(lp1897
a(lp1898
a(lp1899
Vhttp://dbpedia.org/resource/Null
p1900
aa(lp1901
Vhttp://dbpedia.org/resource/Null
p1902
aa(lp1903
a(lp1904
a(lp1905
a(lp1906
Vhttp://dbpedia.org/resource/Null
p1907
aaa(lp1908
(lp1909
a(lp1910
a(lp1911
a(lp1912
a(lp1913
a(lp1914
Vhttp://dbpedia.org/resource/Null
p1915
aa(lp1916
a(lp1917
a(lp1918
a(lp1919
a(lp1920
aa(lp1921
(lp1922
a(lp1923
a(lp1924
a(lp1925
a(lp1926
a(lp1927
Vhttp://dbpedia.org/resource/Null
p1928
aa(lp1929
a(lp1930
a(lp1931
a(lp1932
a(lp1933
aa(lp1934
(lp1935
a(lp1936
a(lp1937
a(lp1938
a(lp1939
a(lp1940
Vhttp://dbpedia.org/resource/Null
p1941
aa(lp1942
a(lp1943
a(lp1944
a(lp1945
a(lp1946
aa(lp1947
(lp1948
a(lp1949
a(lp1950
a(lp1951
a(lp1952
a(lp1953
Vhttp://dbpedia.org/resource/Null
p1954
aa(lp1955
a(lp1956
a(lp1957
a(lp1958
a(lp1959
aa(lp1960
(lp1961
a(lp1962
Vhttp://dbpedia.org/resource/Lord's_Seat
p1963
aa(lp1964
a(lp1965
a(lp1966
a(lp1967
Vhttp://dbpedia.org/resource/Null
p1968
aa(lp1969
a(lp1970
a(lp1971
a(lp1972
a(lp1973
aa(lp1974
(lp1975
a(lp1976
a(lp1977
a(lp1978
a(lp1979
a(lp1980
Vhttp://dbpedia.org/resource/Null
p1981
aa(lp1982
a(lp1983
a(lp1984
a(lp1985
a(lp1986
aa(lp1987
(lp1988
a(lp1989
a(lp1990
a(lp1991
a(lp1992
a(lp1993
Vhttp://dbpedia.org/resource/Null
p1994
aa(lp1995
a(lp1996
a(lp1997
a(lp1998
a(lp1999
aa(lp2000
(lp2001
a(lp2002
a(lp2003
a(lp2004
a(lp2005
a(lp2006
a(lp2007
Vhttp://dbpedia.org/resource/Null
p2008
aa(lp2009
a(lp2010
a(lp2011
a(lp2012
Vhttp://dbpedia.org/resource/Null
p2013
aaa(lp2014
(lp2015
a(lp2016
a(lp2017
a(lp2018
a(lp2019
a(lp2020
Vhttp://dbpedia.org/resource/Null
p2021
aa(lp2022
a(lp2023
a(lp2024
a(lp2025
a(lp2026
aa(lp2027
(lp2028
a(lp2029
a(lp2030
a(lp2031
a(lp2032
a(lp2033
Vhttp://dbpedia.org/resource/Null
p2034
aa(lp2035
Vhttp://dbpedia.org/resource/Null
p2036
aa(lp2037
a(lp2038
a(lp2039
a(lp2040
Vhttp://dbpedia.org/resource/Null
p2041
aaa(lp2042
(lp2043
a(lp2044
a(lp2045
a(lp2046
a(lp2047
a(lp2048
Vhttp://dbpedia.org/resource/Null
p2049
aa(lp2050
a(lp2051
a(lp2052
a(lp2053
a(lp2054
aa(lp2055
(lp2056
a(lp2057
a(lp2058
a(lp2059
a(lp2060
a(lp2061
Vhttp://dbpedia.org/resource/Null
p2062
aa(lp2063
a(lp2064
a(lp2065
a(lp2066
a(lp2067
aa(lp2068
(lp2069
a(lp2070
a(lp2071
a(lp2072
a(lp2073
a(lp2074
a(lp2075
a(lp2076
a(lp2077
a(lp2078
a(lp2079
aa(lp2080
(lp2081
a(lp2082
a(lp2083
a(lp2084
a(lp2085
a(lp2086
Vhttp://dbpedia.org/resource/Null
p2087
aa(lp2088
a(lp2089
a(lp2090
a(lp2091
a(lp2092
aa(lp2093
(lp2094
a(lp2095
Vhttp://dbpedia.org/resource/Mungrisdale_Common
p2096
aa(lp2097
a(lp2098
a(lp2099
a(lp2100
Vhttp://dbpedia.org/resource/Null
p2101
aa(lp2102
a(lp2103
a(lp2104
a(lp2105
a(lp2106
aa(lp2107
(lp2108
a(lp2109
a(lp2110
a(lp2111
a(lp2112
a(lp2113
a(lp2114
Vhttp://dbpedia.org/resource/Null
p2115
aa(lp2116
Vhttp://dbpedia.org/resource/Null
p2117
aa(lp2118
Vhttp://dbpedia.org/resource/Null
p2119
aa(lp2120
Vhttp://dbpedia.org/resource/Null
p2121
aa(lp2122
Vhttp://dbpedia.org/resource/Null
p2123
aaa(lp2124
(lp2125
a(lp2126
a(lp2127
a(lp2128
a(lp2129
a(lp2130
Vhttp://dbpedia.org/resource/Null
p2131
aa(lp2132
a(lp2133
a(lp2134
a(lp2135
a(lp2136
aa(lp2137
(lp2138
a(lp2139
a(lp2140
a(lp2141
a(lp2142
a(lp2143
a(lp2144
Vhttp://dbpedia.org/resource/Null
p2145
aa(lp2146
a(lp2147
a(lp2148
a(lp2149
aa(lp2150
(lp2151
a(lp2152
a(lp2153
a(lp2154
a(lp2155
a(lp2156
Vhttp://dbpedia.org/resource/Null
p2157
aa(lp2158
a(lp2159
a(lp2160
a(lp2161
a(lp2162
aa(lp2163
(lp2164
a(lp2165
a(lp2166
a(lp2167
a(lp2168
a(lp2169
Vhttp://dbpedia.org/resource/Null
p2170
aa(lp2171
Vhttp://dbpedia.org/resource/Null
p2172
aa(lp2173
Vhttp://dbpedia.org/resource/Null
p2174
aa(lp2175
Vhttp://dbpedia.org/resource/Null
p2176
aa(lp2177
Vhttp://dbpedia.org/resource/Null
p2178
aa(lp2179
Vhttp://dbpedia.org/resource/Null
p2180
aaa(lp2181
(lp2182
a(lp2183
a(lp2184
a(lp2185
a(lp2186
a(lp2187
Vhttp://dbpedia.org/resource/Null
p2188
aa(lp2189
Vhttp://dbpedia.org/resource/Null
p2190
aa(lp2191
Vhttp://dbpedia.org/resource/Null
p2192
aa(lp2193
Vhttp://dbpedia.org/resource/Null
p2194
aa(lp2195
Vhttp://dbpedia.org/resource/Null
p2196
aa(lp2197
Vhttp://dbpedia.org/resource/Null
p2198
aaa(lp2199
(lp2200
a(lp2201
a(lp2202
a(lp2203
a(lp2204
a(lp2205
Vhttp://dbpedia.org/resource/Null
p2206
aa(lp2207
Vhttp://dbpedia.org/resource/Null
p2208
aa(lp2209
a(lp2210
a(lp2211
a(lp2212
Vhttp://dbpedia.org/resource/Null
p2213
aaa(lp2214
(lp2215
a(lp2216
a(lp2217
a(lp2218
a(lp2219
a(lp2220
a(lp2221
Vhttp://dbpedia.org/resource/Null
p2222
aa(lp2223
Vhttp://dbpedia.org/resource/Null
p2224
aa(lp2225
Vhttp://dbpedia.org/resource/Null
p2226
aa(lp2227
Vhttp://dbpedia.org/resource/Null
p2228
aa(lp2229
Vhttp://dbpedia.org/resource/Null
p2230
aaa(lp2231
(lp2232
a(lp2233
a(lp2234
a(lp2235
a(lp2236
a(lp2237
Vhttp://dbpedia.org/resource/Null
p2238
aa(lp2239
Vhttp://dbpedia.org/resource/Null
p2240
aa(lp2241
Vhttp://dbpedia.org/resource/Null
p2242
aa(lp2243
Vhttp://dbpedia.org/resource/Null
p2244
aa(lp2245
Vhttp://dbpedia.org/resource/Null
p2246
aa(lp2247
Vhttp://dbpedia.org/resource/Null
p2248
aaa(lp2249
(lp2250
a(lp2251
a(lp2252
a(lp2253
a(lp2254
a(lp2255
a(lp2256
Vhttp://dbpedia.org/resource/Null
p2257
aa(lp2258
a(lp2259
a(lp2260
a(lp2261
Vhttp://dbpedia.org/resource/Null
p2262
aaa(lp2263
(lp2264
a(lp2265
a(lp2266
a(lp2267
a(lp2268
a(lp2269
Vhttp://dbpedia.org/resource/Null
p2270
aa(lp2271
Vhttp://dbpedia.org/resource/Null
p2272
aa(lp2273
a(lp2274
a(lp2275
a(lp2276
Vhttp://dbpedia.org/resource/Null
p2277
aaa(lp2278
(lp2279
a(lp2280
Vhttp://dbpedia.org/resource/Rannerdale_Knotts
p2281
aa(lp2282
a(lp2283
a(lp2284
a(lp2285
Vhttp://dbpedia.org/resource/Null
p2286
aa(lp2287
Vhttp://dbpedia.org/resource/Null
p2288
aa(lp2289
Vhttp://dbpedia.org/resource/Null
p2290
aa(lp2291
Vhttp://dbpedia.org/resource/Null
p2292
aa(lp2293
Vhttp://dbpedia.org/resource/Null
p2294
aa(lp2295
Vhttp://dbpedia.org/resource/Null
p2296
aaa(lp2297
(lp2298
a(lp2299
a(lp2300
a(lp2301
a(lp2302
a(lp2303
Vhttp://dbpedia.org/resource/Null
p2304
aa(lp2305
Vhttp://dbpedia.org/resource/Null
p2306
aa(lp2307
Vhttp://dbpedia.org/resource/Null
p2308
aa(lp2309
Vhttp://dbpedia.org/resource/Null
p2310
aa(lp2311
Vhttp://dbpedia.org/resource/Null
p2312
aa(lp2313
Vhttp://dbpedia.org/resource/Null
p2314
aaa(lp2315
(lp2316
a(lp2317
a(lp2318
a(lp2319
a(lp2320
a(lp2321
a(lp2322
Vhttp://dbpedia.org/resource/Null
p2323
aa(lp2324
Vhttp://dbpedia.org/resource/Null
p2325
aa(lp2326
Vhttp://dbpedia.org/resource/Null
p2327
aa(lp2328
Vhttp://dbpedia.org/resource/Null
p2329
aa(lp2330
Vhttp://dbpedia.org/resource/Null
p2331
aaa(lp2332
(lp2333
a(lp2334
a(lp2335
a(lp2336
a(lp2337
a(lp2338
Vhttp://dbpedia.org/resource/Null
p2339
aa(lp2340
Vhttp://dbpedia.org/resource/Null
p2341
aa(lp2342
Vhttp://dbpedia.org/resource/Null
p2343
aa(lp2344
Vhttp://dbpedia.org/resource/Null
p2345
aa(lp2346
Vhttp://dbpedia.org/resource/Null
p2347
aa(lp2348
Vhttp://dbpedia.org/resource/Null
p2349
aaa(lp2350
(lp2351
a(lp2352
a(lp2353
a(lp2354
a(lp2355
a(lp2356
a(lp2357
Vhttp://dbpedia.org/resource/Null
p2358
aa(lp2359
Vhttp://dbpedia.org/resource/Null
p2360
aa(lp2361
Vhttp://dbpedia.org/resource/Null
p2362
aa(lp2363
Vhttp://dbpedia.org/resource/Null
p2364
aa(lp2365
Vhttp://dbpedia.org/resource/Null
p2366
aaa(lp2367
(lp2368
a(lp2369
a(lp2370
a(lp2371
a(lp2372
a(lp2373
a(lp2374
Vhttp://dbpedia.org/resource/Null
p2375
aa(lp2376
a(lp2377
a(lp2378
a(lp2379
Vhttp://dbpedia.org/resource/Null
p2380
aaa(lp2381
(lp2382
a(lp2383
a(lp2384
a(lp2385
a(lp2386
a(lp2387
Vhttp://dbpedia.org/resource/Null
p2388
aa(lp2389
a(lp2390
a(lp2391
a(lp2392
a(lp2393
aa(lp2394
(lp2395
a(lp2396
a(lp2397
a(lp2398
a(lp2399
a(lp2400
Vhttp://dbpedia.org/resource/Null
p2401
aa(lp2402
a(lp2403
a(lp2404
a(lp2405
a(lp2406
aa(lp2407
(lp2408
a(lp2409
a(lp2410
a(lp2411
a(lp2412
a(lp2413
Vhttp://dbpedia.org/resource/Null
p2414
aa(lp2415
a(lp2416
a(lp2417
a(lp2418
a(lp2419
aa(lp2420
(lp2421
a(lp2422
a(lp2423
a(lp2424
a(lp2425
a(lp2426
Vhttp://dbpedia.org/resource/Null
p2427
aa(lp2428
a(lp2429
a(lp2430
a(lp2431
a(lp2432
aa(lp2433
(lp2434
a(lp2435
a(lp2436
a(lp2437
a(lp2438
a(lp2439
a(lp2440
Vhttp://dbpedia.org/resource/Null
p2441
aa(lp2442
Vhttp://dbpedia.org/resource/Null
p2443
aa(lp2444
Vhttp://dbpedia.org/resource/Null
p2445
aa(lp2446
Vhttp://dbpedia.org/resource/Null
p2447
aa(lp2448
Vhttp://dbpedia.org/resource/Null
p2449
aaa(lp2450
(lp2451
a(lp2452
a(lp2453
a(lp2454
a(lp2455
a(lp2456
Vhttp://dbpedia.org/resource/Null
p2457
aa(lp2458
a(lp2459
a(lp2460
a(lp2461
a(lp2462
aa(lp2463
(lp2464
a(lp2465
a(lp2466
a(lp2467
a(lp2468
a(lp2469
Vhttp://dbpedia.org/resource/Null
p2470
aa(lp2471
Vhttp://dbpedia.org/resource/Null
p2472
aa(lp2473
a(lp2474
a(lp2475
a(lp2476
Vhttp://dbpedia.org/resource/Null
p2477
aaa(lp2478
(lp2479
a(lp2480
a(lp2481
a(lp2482
a(lp2483
a(lp2484
Vhttp://dbpedia.org/resource/Null
p2485
aa(lp2486
a(lp2487
a(lp2488
a(lp2489
a(lp2490
aa(lp2491
(lp2492
a(lp2493
a(lp2494
a(lp2495
a(lp2496
a(lp2497
Vhttp://dbpedia.org/resource/Null
p2498
aa(lp2499
Vhttp://dbpedia.org/resource/Null
p2500
aa(lp2501
Vhttp://dbpedia.org/resource/Null
p2502
aa(lp2503
Vhttp://dbpedia.org/resource/Null
p2504
aa(lp2505
Vhttp://dbpedia.org/resource/Null
p2506
aa(lp2507
Vhttp://dbpedia.org/resource/Null
p2508
aaa(lp2509
(lp2510
a(lp2511
a(lp2512
a(lp2513
a(lp2514
a(lp2515
Vhttp://dbpedia.org/resource/Null
p2516
aa(lp2517
Vhttp://dbpedia.org/resource/Null
p2518
aa(lp2519
Vhttp://dbpedia.org/resource/Null
p2520
aa(lp2521
Vhttp://dbpedia.org/resource/Null
p2522
aa(lp2523
Vhttp://dbpedia.org/resource/Null
p2524
aa(lp2525
Vhttp://dbpedia.org/resource/Null
p2526
aaa(lp2527
(lp2528
a(lp2529
a(lp2530
a(lp2531
a(lp2532
a(lp2533
a(lp2534
Vhttp://dbpedia.org/resource/Null
p2535
aa(lp2536
Vhttp://dbpedia.org/resource/Null
p2537
aa(lp2538
Vhttp://dbpedia.org/resource/Null
p2539
aa(lp2540
Vhttp://dbpedia.org/resource/Null
p2541
aa(lp2542
Vhttp://dbpedia.org/resource/Null
p2543
aaa(lp2544
(lp2545
a(lp2546
a(lp2547
a(lp2548
a(lp2549
a(lp2550
a(lp2551
Vhttp://dbpedia.org/resource/Null
p2552
aa(lp2553
Vhttp://dbpedia.org/resource/Null
p2554
aa(lp2555
Vhttp://dbpedia.org/resource/Null
p2556
aa(lp2557
Vhttp://dbpedia.org/resource/Null
p2558
aa(lp2559
Vhttp://dbpedia.org/resource/Null
p2560
aaa(lp2561
(lp2562
a(lp2563
a(lp2564
a(lp2565
a(lp2566
a(lp2567
Vhttp://dbpedia.org/resource/Null
p2568
aa(lp2569
Vhttp://dbpedia.org/resource/Null
p2570
aa(lp2571
Vhttp://dbpedia.org/resource/Null
p2572
aa(lp2573
Vhttp://dbpedia.org/resource/Null
p2574
aa(lp2575
Vhttp://dbpedia.org/resource/Null
p2576
aa(lp2577
Vhttp://dbpedia.org/resource/Null
p2578
aaa(lp2579
(lp2580
a(lp2581
a(lp2582
a(lp2583
a(lp2584
a(lp2585
Vhttp://dbpedia.org/resource/Null
p2586
aa(lp2587
Vhttp://dbpedia.org/resource/Null
p2588
aa(lp2589
Vhttp://dbpedia.org/resource/Null
p2590
aa(lp2591
Vhttp://dbpedia.org/resource/Null
p2592
aa(lp2593
Vhttp://dbpedia.org/resource/Null
p2594
aa(lp2595
Vhttp://dbpedia.org/resource/Null
p2596
aaa(lp2597
(lp2598
a(lp2599
a(lp2600
a(lp2601
a(lp2602
a(lp2603
Vhttp://dbpedia.org/resource/Null
p2604
aa(lp2605
Vhttp://dbpedia.org/resource/Null
p2606
aa(lp2607
Vhttp://dbpedia.org/resource/Null
p2608
aa(lp2609
Vhttp://dbpedia.org/resource/Null
p2610
aa(lp2611
Vhttp://dbpedia.org/resource/Null
p2612
aa(lp2613
Vhttp://dbpedia.org/resource/Null
p2614
aaa(lp2615
(lp2616
a(lp2617
a(lp2618
a(lp2619
a(lp2620
a(lp2621
Vhttp://dbpedia.org/resource/Null
p2622
aa(lp2623
Vhttp://dbpedia.org/resource/Null
p2624
aa(lp2625
Vhttp://dbpedia.org/resource/Null
p2626
aa(lp2627
a(lp2628
a(lp2629
Vhttp://dbpedia.org/resource/Null
p2630
aaa(lp2631
(lp2632
a(lp2633
a(lp2634
a(lp2635
a(lp2636
a(lp2637
Vhttp://dbpedia.org/resource/Null
p2638
aa(lp2639
a(lp2640
a(lp2641
a(lp2642
a(lp2643
aa(lp2644
(lp2645
a(lp2646
a(lp2647
a(lp2648
a(lp2649
a(lp2650
a(lp2651
Vhttp://dbpedia.org/resource/Null
p2652
aa(lp2653
Vhttp://dbpedia.org/resource/Null
p2654
aa(lp2655
Vhttp://dbpedia.org/resource/Null
p2656
aa(lp2657
Vhttp://dbpedia.org/resource/Null
p2658
aa(lp2659
Vhttp://dbpedia.org/resource/Null
p2660
aaa(lp2661
(lp2662
a(lp2663
a(lp2664
a(lp2665
a(lp2666
a(lp2667
Vhttp://dbpedia.org/resource/Null
p2668
aa(lp2669
Vhttp://dbpedia.org/resource/Null
p2670
aa(lp2671
a(lp2672
a(lp2673
a(lp2674
Vhttp://dbpedia.org/resource/Null
p2675
aaa(lp2676
(lp2677
a(lp2678
a(lp2679
a(lp2680
a(lp2681
a(lp2682
Vhttp://dbpedia.org/resource/Null
p2683
aa(lp2684
a(lp2685
a(lp2686
a(lp2687
a(lp2688
aa(lp2689
(lp2690
a(lp2691
a(lp2692
a(lp2693
a(lp2694
a(lp2695
Vhttp://dbpedia.org/resource/Null
p2696
aa(lp2697
a(lp2698
a(lp2699
a(lp2700
a(lp2701
aa(lp2702
(lp2703
a(lp2704
a(lp2705
a(lp2706
a(lp2707
a(lp2708
Vhttp://dbpedia.org/resource/Null
p2709
aa(lp2710
a(lp2711
a(lp2712
a(lp2713
a(lp2714
aa(lp2715
(lp2716
a(lp2717
a(lp2718
a(lp2719
a(lp2720
a(lp2721
Vhttp://dbpedia.org/resource/Null
p2722
aa(lp2723
a(lp2724
a(lp2725
a(lp2726
a(lp2727
aa(lp2728
(lp2729
a(lp2730
a(lp2731
a(lp2732
a(lp2733
a(lp2734
Vhttp://dbpedia.org/resource/Null
p2735
aa(lp2736
Vhttp://dbpedia.org/resource/Null
p2737
aa(lp2738
a(lp2739
a(lp2740
a(lp2741
Vhttp://dbpedia.org/resource/Null
p2742
aaa(lp2743
(lp2744
a(lp2745
a(lp2746
a(lp2747
a(lp2748
a(lp2749
Vhttp://dbpedia.org/resource/Null
p2750
aa(lp2751
a(lp2752
a(lp2753
a(lp2754
a(lp2755
aa(lp2756
(lp2757
a(lp2758
a(lp2759
a(lp2760
a(lp2761
a(lp2762
a(lp2763
Vhttp://dbpedia.org/resource/Null
p2764
aa(lp2765
Vhttp://dbpedia.org/resource/Null
p2766
aa(lp2767
Vhttp://dbpedia.org/resource/Null
p2768
aa(lp2769
Vhttp://dbpedia.org/resource/Null
p2770
aa(lp2771
Vhttp://dbpedia.org/resource/Null
p2772
aaa(lp2773
(lp2774
a(lp2775
a(lp2776
a(lp2777
a(lp2778
a(lp2779
Vhttp://dbpedia.org/resource/Null
p2780
aa(lp2781
Vhttp://dbpedia.org/resource/Null
p2782
aa(lp2783
Vhttp://dbpedia.org/resource/Null
p2784
aa(lp2785
Vhttp://dbpedia.org/resource/Null
p2786
aa(lp2787
Vhttp://dbpedia.org/resource/Null
p2788
aa(lp2789
Vhttp://dbpedia.org/resource/Null
p2790
aaa(lp2791
(lp2792
a(lp2793
a(lp2794
a(lp2795
a(lp2796
a(lp2797
Vhttp://dbpedia.org/resource/Null
p2798
aa(lp2799
Vhttp://dbpedia.org/resource/Null
p2800
aa(lp2801
Vhttp://dbpedia.org/resource/Null
p2802
aa(lp2803
Vhttp://dbpedia.org/resource/Null
p2804
aa(lp2805
Vhttp://dbpedia.org/resource/Null
p2806
aa(lp2807
Vhttp://dbpedia.org/resource/Null
p2808
aaa(lp2809
(lp2810
a(lp2811
a(lp2812
a(lp2813
a(lp2814
a(lp2815
Vhttp://dbpedia.org/resource/Null
p2816
aa(lp2817
Vhttp://dbpedia.org/resource/Null
p2818
aa(lp2819
Vhttp://dbpedia.org/resource/Null
p2820
aa(lp2821
Vhttp://dbpedia.org/resource/Null
p2822
aa(lp2823
Vhttp://dbpedia.org/resource/Null
p2824
aa(lp2825
Vhttp://dbpedia.org/resource/Null
p2826
aaa(lp2827
(lp2828
a(lp2829
a(lp2830
a(lp2831
a(lp2832
a(lp2833
a(lp2834
Vhttp://dbpedia.org/resource/Null
p2835
aa(lp2836
Vhttp://dbpedia.org/resource/Null
p2837
aa(lp2838
Vhttp://dbpedia.org/resource/Null
p2839
aa(lp2840
Vhttp://dbpedia.org/resource/Null
p2841
aa(lp2842
Vhttp://dbpedia.org/resource/Null
p2843
aaa(lp2844
(lp2845
a(lp2846
a(lp2847
a(lp2848
a(lp2849
a(lp2850
a(lp2851
Vhttp://dbpedia.org/resource/Null
p2852
aa(lp2853
Vhttp://dbpedia.org/resource/Null
p2854
aa(lp2855
Vhttp://dbpedia.org/resource/Null
p2856
aa(lp2857
Vhttp://dbpedia.org/resource/Null
p2858
aa(lp2859
Vhttp://dbpedia.org/resource/Null
p2860
aaa(lp2861
(lp2862
a(lp2863
a(lp2864
a(lp2865
a(lp2866
a(lp2867
Vhttp://dbpedia.org/resource/Null
p2868
aa(lp2869
Vhttp://dbpedia.org/resource/Null
p2870
aa(lp2871
Vhttp://dbpedia.org/resource/Null
p2872
aa(lp2873
Vhttp://dbpedia.org/resource/Null
p2874
aa(lp2875
Vhttp://dbpedia.org/resource/Null
p2876
aa(lp2877
Vhttp://dbpedia.org/resource/Null
p2878
aaa(lp2879
(lp2880
a(lp2881
a(lp2882
a(lp2883
a(lp2884
a(lp2885
Vhttp://dbpedia.org/resource/Null
p2886
aa(lp2887
Vhttp://dbpedia.org/resource/Null
p2888
aa(lp2889
Vhttp://dbpedia.org/resource/Null
p2890
aa(lp2891
Vhttp://dbpedia.org/resource/Null
p2892
aa(lp2893
Vhttp://dbpedia.org/resource/Null
p2894
aa(lp2895
Vhttp://dbpedia.org/resource/Null
p2896
aaa(lp2897
(lp2898
a(lp2899
a(lp2900
a(lp2901
a(lp2902
a(lp2903
Vhttp://dbpedia.org/resource/Null
p2904
aa(lp2905
Vhttp://dbpedia.org/resource/Null
p2906
aa(lp2907
a(lp2908
a(lp2909
a(lp2910
Vhttp://dbpedia.org/resource/Null
p2911
aaa(lp2912
(lp2913
a(lp2914
Vhttp://dbpedia.org/resource/Thornthwaite_Crag
p2915
aa(lp2916
a(lp2917
a(lp2918
a(lp2919
Vhttp://dbpedia.org/resource/Null
p2920
aa(lp2921
Vhttp://dbpedia.org/resource/Null
p2922
aa(lp2923
Vhttp://dbpedia.org/resource/Null
p2924
aa(lp2925
Vhttp://dbpedia.org/resource/Null
p2926
aa(lp2927
Vhttp://dbpedia.org/resource/Null
p2928
aa(lp2929
Vhttp://dbpedia.org/resource/Null
p2930
aaa(lp2931
(lp2932
a(lp2933
a(lp2934
a(lp2935
a(lp2936
a(lp2937
Vhttp://dbpedia.org/resource/Null
p2938
aa(lp2939
Vhttp://dbpedia.org/resource/Null
p2940
aa(lp2941
a(lp2942
a(lp2943
a(lp2944
Vhttp://dbpedia.org/resource/Null
p2945
aaa(lp2946
(lp2947
a(lp2948
Vhttp://dbpedia.org/resource/Troutbeck_Tongue
p2949
aa(lp2950
a(lp2951
a(lp2952
a(lp2953
Vhttp://dbpedia.org/resource/Null
p2954
aa(lp2955
Vhttp://dbpedia.org/resource/Null
p2956
aa(lp2957
Vhttp://dbpedia.org/resource/Null
p2958
aa(lp2959
Vhttp://dbpedia.org/resource/Null
p2960
aa(lp2961
Vhttp://dbpedia.org/resource/Null
p2962
aa(lp2963
Vhttp://dbpedia.org/resource/Null
p2964
aaa(lp2965
(lp2966
a(lp2967
a(lp2968
a(lp2969
a(lp2970
a(lp2971
Vhttp://dbpedia.org/resource/Null
p2972
aa(lp2973
a(lp2974
a(lp2975
a(lp2976
a(lp2977
aa(lp2978
(lp2979
a(lp2980
a(lp2981
a(lp2982
a(lp2983
a(lp2984
Vhttp://dbpedia.org/resource/Null
p2985
aa(lp2986
Vhttp://dbpedia.org/resource/Null
p2987
aa(lp2988
a(lp2989
a(lp2990
a(lp2991
Vhttp://dbpedia.org/resource/Null
p2992
aaa(lp2993
(lp2994
a(lp2995
a(lp2996
a(lp2997
a(lp2998
a(lp2999
Vhttp://dbpedia.org/resource/Null
p3000
aa(lp3001
a(lp3002
a(lp3003
a(lp3004
a(lp3005
aa(lp3006
(lp3007
a(lp3008
a(lp3009
a(lp3010
a(lp3011
a(lp3012
Vhttp://dbpedia.org/resource/Null
p3013
aa(lp3014
a(lp3015
a(lp3016
a(lp3017
a(lp3018
aa(lp3019
(lp3020
a(lp3021
a(lp3022
a(lp3023
a(lp3024
a(lp3025
Vhttp://dbpedia.org/resource/Null
p3026
aa(lp3027
Vhttp://dbpedia.org/resource/Null
p3028
aa(lp3029
Vhttp://dbpedia.org/resource/Null
p3030
aa(lp3031
Vhttp://dbpedia.org/resource/Null
p3032
aa(lp3033
Vhttp://dbpedia.org/resource/Null
p3034
aa(lp3035
Vhttp://dbpedia.org/resource/Null
p3036
aaa(lp3037
(lp3038
a(lp3039
a(lp3040
a(lp3041
a(lp3042
a(lp3043
a(lp3044
Vhttp://dbpedia.org/resource/Null
p3045
aa(lp3046
Vhttp://dbpedia.org/resource/Null
p3047
aa(lp3048
Vhttp://dbpedia.org/resource/Null
p3049
aa(lp3050
Vhttp://dbpedia.org/resource/Null
p3051
aa(lp3052
Vhttp://dbpedia.org/resource/Null
p3053
aaa(lp3054
(lp3055
a(lp3056
a(lp3057
a(lp3058
a(lp3059
a(lp3060
Vhttp://dbpedia.org/resource/Null
p3061
aa(lp3062
Vhttp://dbpedia.org/resource/Null
p3063
aa(lp3064
a(lp3065
a(lp3066
a(lp3067
Vhttp://dbpedia.org/resource/Null
p3068
aaa(lp3069
(lp3070
a(lp3071
a(lp3072
a(lp3073
a(lp3074
a(lp3075
Vhttp://dbpedia.org/resource/Null
p3076
aa(lp3077
a(lp3078
a(lp3079
a(lp3080
a(lp3081
aa(lp3082
(lp3083
a(lp3084
a(lp3085
a(lp3086
a(lp3087
a(lp3088
Vhttp://dbpedia.org/resource/Null
p3089
aa(lp3090
Vhttp://dbpedia.org/resource/Null
p3091
aa(lp3092
Vhttp://dbpedia.org/resource/Null
p3093
aa(lp3094
Vhttp://dbpedia.org/resource/Null
p3095
aa(lp3096
Vhttp://dbpedia.org/resource/Null
p3097
aa(lp3098
Vhttp://dbpedia.org/resource/Null
p3099
aaa(lp3100
(lp3101
a(lp3102
a(lp3103
a(lp3104
a(lp3105
a(lp3106
Vhttp://dbpedia.org/resource/Null
p3107
aa(lp3108
a(lp3109
a(lp3110
a(lp3111
a(lp3112
aa(lp3113
(lp3114
a(lp3115
a(lp3116
a(lp3117
a(lp3118
a(lp3119
a(lp3120
Vhttp://dbpedia.org/resource/Null
p3121
aa(lp3122
a(lp3123
a(lp3124
a(lp3125
Vhttp://dbpedia.org/resource/Null
p3126
aaa(lp3127
(lp3128
a(lp3129
a(lp3130
a(lp3131
a(lp3132
a(lp3133
Vhttp://dbpedia.org/resource/Null
p3134
aa(lp3135
a(lp3136
a(lp3137
a(lp3138
a(lp3139
aa(lp3140
(lp3141
a(lp3142
a(lp3143
a(lp3144
a(lp3145
a(lp3146
Vhttp://dbpedia.org/resource/Null
p3147
aa(lp3148
a(lp3149
a(lp3150
a(lp3151
a(lp3152
aa(lp3153
(lp3154
a(lp3155
a(lp3156
a(lp3157
a(lp3158
a(lp3159
Vhttp://dbpedia.org/resource/Null
p3160
aa(lp3161
a(lp3162
a(lp3163
a(lp3164
a(lp3165
aa(lp3166
(lp3167
a(lp3168
a(lp3169
a(lp3170
a(lp3171
a(lp3172
Vhttp://dbpedia.org/resource/Null
p3173
aa(lp3174
Vhttp://dbpedia.org/resource/Null
p3175
aa(lp3176
a(lp3177
a(lp3178
a(lp3179
Vhttp://dbpedia.org/resource/Null
p3180
aaa(lp3181
(lp3182
a(lp3183
a(lp3184
a(lp3185
a(lp3186
a(lp3187
Vhttp://dbpedia.org/resource/Null
p3188
aa(lp3189
a(lp3190
a(lp3191
a(lp3192
a(lp3193
aa(lp3194
(lp3195
a(lp3196
a(lp3197
a(lp3198
a(lp3199
a(lp3200
Vhttp://dbpedia.org/resource/Null
p3201
aa(lp3202
a(lp3203
a(lp3204
a(lp3205
a(lp3206
aa(lp3207
(lp3208
a(lp3209
a(lp3210
a(lp3211
a(lp3212
a(lp3213
Vhttp://dbpedia.org/resource/Null
p3214
aa(lp3215
a(lp3216
a(lp3217
a(lp3218
a(lp3219
aa(lp3220
(lp3221
a(lp3222
Vhttp://dbpedia.org/resource/Pen-y-ghent
p3223
aa(lp3224
a(lp3225
a(lp3226
a(lp3227
Vhttp://dbpedia.org/resource/Null
p3228
aa(lp3229
Vhttp://dbpedia.org/resource/Null
p3230
aa(lp3231
Vhttp://dbpedia.org/resource/Null
p3232
aa(lp3233
Vhttp://dbpedia.org/resource/Null
p3234
aa(lp3235
Vhttp://dbpedia.org/resource/Null
p3236
aa(lp3237
Vhttp://dbpedia.org/resource/Null
p3238
aaa(lp3239
(lp3240
a(lp3241
a(lp3242
a(lp3243
a(lp3244
a(lp3245
Vhttp://dbpedia.org/resource/Null
p3246
aa(lp3247
Vhttp://dbpedia.org/resource/Null
p3248
aa(lp3249
Vhttp://dbpedia.org/resource/Null
p3250
aa(lp3251
Vhttp://dbpedia.org/resource/Null
p3252
aa(lp3253
Vhttp://dbpedia.org/resource/Null
p3254
aa(lp3255
Vhttp://dbpedia.org/resource/Null
p3256
aaa(lp3257
(lp3258
a(lp3259
Vhttp://dbpedia.org/resource/Ingleborough
p3260
aa(lp3261
a(lp3262
a(lp3263
a(lp3264
Vhttp://dbpedia.org/resource/Null
p3265
aa(lp3266
Vhttp://dbpedia.org/resource/Null
p3267
aa(lp3268
Vhttp://dbpedia.org/resource/Null
p3269
aa(lp3270
Vhttp://dbpedia.org/resource/Null
p3271
aa(lp3272
Vhttp://dbpedia.org/resource/Null
p3273
aa(lp3274
Vhttp://dbpedia.org/resource/Null
p3275
aaa(lp3276
(lp3277
a(lp3278
a(lp3279
a(lp3280
a(lp3281
a(lp3282
Vhttp://dbpedia.org/resource/Null
p3283
aa(lp3284
a(lp3285
a(lp3286
a(lp3287
a(lp3288
aa(lp3289
(lp3290
a(lp3291
Vhttp://dbpedia.org/resource/Wales
p3292
aa(lp3293
a(lp3294
a(lp3295
a(lp3296
a(lp3297
a(lp3298
a(lp3299
a(lp3300
a(lp3301
aa(lp3302
(lp3303
a(lp3304
a(lp3305
a(lp3306
a(lp3307
a(lp3308
Vhttp://dbpedia.org/resource/Null
p3309
aa(lp3310
Vhttp://dbpedia.org/resource/Null
p3311
aa(lp3312
Vhttp://dbpedia.org/resource/Null
p3313
aa(lp3314
Vhttp://dbpedia.org/resource/Null
p3315
aa(lp3316
Vhttp://dbpedia.org/resource/Null
p3317
aa(lp3318
Vhttp://dbpedia.org/resource/Null
p3319
aaa(lp3320
(lp3321
a(lp3322
a(lp3323
a(lp3324
a(lp3325
a(lp3326
a(lp3327
a(lp3328
a(lp3329
a(lp3330
a(lp3331
aa.