(lp1
(lp2
(lp3
((lp4
Vhttp://www.w3.org/2002/07/owl#Thing
p5
aVhttp://dbpedia.org/ontology/Place
p6
aVhttp://dbpedia.org/ontology/Location
p7
aVhttp://www.wikidata.org/entity/Q486972
p8
aVhttp://www.wikidata.org/entity/Q6256
p9
aVhttp://dbpedia.org/ontology/Country
p10
aVhttp://dbpedia.org/ontology/PopulatedPlace
p11
aVhttp://www.w3.org/2003/01/geo/wgs84_pos#SpatialThing
p12
aVhttp://schema.org/Country
p13
aVhttp://schema.org/Place
p14
aVhttp://umbel.org/umbel/rc/Country
p15
aVhttp://umbel.org/umbel/rc/Location_Underspecified
p16
aVhttp://umbel.org/umbel/rc/PopulatedPlace
p17
aVhttp://dbpedia.org/class/yago/Abstraction100002137
p18
aVhttp://dbpedia.org/class/yago/AdministrativeDistrict108491826
p19
aVhttp://dbpedia.org/class/yago/Country108544813
p20
aVhttp://dbpedia.org/class/yago/District108552138
p21
aVhttp://dbpedia.org/class/yago/Economy108366753
p22
aVhttp://dbpedia.org/class/yago/Group100031264
p23
aVhttp://dbpedia.org/class/yago/Location100027167
p24
aVhttp://dbpedia.org/class/yago/Object100002684
p25
aVhttp://dbpedia.org/class/yago/Region108630985
p26
aVhttp://dbpedia.org/class/yago/System108435388
p27
aVhttp://dbpedia.org/class/yago/YagoGeoEntity
p28
aVhttp://dbpedia.org/class/yago/YagoLegalActorGeo
p29
aVhttp://dbpedia.org/class/yago/CountriesBorderingTheAtlanticOcean
p30
aVhttp://dbpedia.org/class/yago/Dutch-speakingCountries
p31
aVhttp://dbpedia.org/class/yago/EuropeanCountries
p32
aVhttp://dbpedia.org/class/yago/EuropeanUnionMemberEconomies
p33
aVhttp://dbpedia.org/class/yago/FederalCountries
p34
aVhttp://dbpedia.org/class/yago/French-speakingCountries
p35
aVhttp://dbpedia.org/class/yago/PhysicalEntity100001930
p36
aVhttp://dbpedia.org/class/yago/YagoPermanentlyLocatedEntity
p37
aVhttp://dbpedia.org/class/yago/German-speakingCountries
p38
aVhttp://dbpedia.org/class/yago/MemberStatesOfLaFrancophonie
p39
aVhttp://dbpedia.org/class/yago/MemberStatesOfNATO
p40
aVhttp://dbpedia.org/class/yago/MemberStatesOfTheCouncilOfEurope
p41
aVhttp://dbpedia.org/class/yago/MemberStatesOfTheDutchLanguageUnion
p42
aVhttp://dbpedia.org/class/yago/MemberStatesOfTheEuropeanUnion
p43
aVhttp://dbpedia.org/class/yago/MemberStatesOfTheUnionForTheMediterranean
p44
aVhttp://dbpedia.org/class/yago/MemberStatesOfTheUnitedNations
p45
aVhttp://dbpedia.org/class/yago/StatesAndTerritoriesEstablishedIn1830
p46
aVhttp://dbpedia.org/resource/Belgium
tp47
aa(lp48
a(lp49
((lVhttp://dbpedia.org/resource/EUR-Lex
tp50
aa(lp51
a(lp52
aa(lp53
(lp54
((lp55
Vhttp://dbpedia.org/class/yago/Island109316454
p56
aVhttp://dbpedia.org/class/yago/Land109334396
p57
aVhttp://dbpedia.org/class/yago/Object100002684
p58
aVhttp://dbpedia.org/class/yago/YagoGeoEntity
p59
aVhttp://dbpedia.org/class/yago/PhysicalEntity100001930
p60
aVhttp://dbpedia.org/class/yago/YagoPermanentlyLocatedEntity
p61
aVhttp://dbpedia.org/class/yago/IslandsOfGreenland
p62
aVhttp://dbpedia.org/resource/Danmark_Island
tp63
aa(lp64
a(lp65
((lVhttp://dbpedia.org/resource/DKK
tp66
aa(lp67
a(lp68
aa(lp69
(lp70
((lp71
Vhttp://www.w3.org/2002/07/owl#Thing
p72
aVhttp://dbpedia.org/ontology/Place
p73
aVhttp://dbpedia.org/ontology/Location
p74
aVhttp://www.wikidata.org/entity/Q486972
p75
aVhttp://www.wikidata.org/entity/Q6256
p76
aVhttp://dbpedia.org/ontology/Country
p77
aVhttp://dbpedia.org/ontology/PopulatedPlace
p78
aVhttp://www.w3.org/2003/01/geo/wgs84_pos#SpatialThing
p79
aVhttp://schema.org/Country
p80
aVhttp://schema.org/Place
p81
aVhttp://umbel.org/umbel/rc/Country
p82
aVhttp://umbel.org/umbel/rc/Location_Underspecified
p83
aVhttp://umbel.org/umbel/rc/PopulatedPlace
p84
aVhttp://dbpedia.org/class/yago/Abstraction100002137
p85
aVhttp://dbpedia.org/class/yago/AdministrativeDistrict108491826
p86
aVhttp://dbpedia.org/class/yago/AlpineCountries
p87
aVhttp://dbpedia.org/class/yago/Country108544813
p88
aVhttp://dbpedia.org/class/yago/District108552138
p89
aVhttp://dbpedia.org/class/yago/Economy108366753
p90
aVhttp://dbpedia.org/class/yago/Group100031264
p91
aVhttp://dbpedia.org/class/yago/Location100027167
p92
aVhttp://dbpedia.org/class/yago/Object100002684
p93
aVhttp://dbpedia.org/class/yago/Region108630985
p94
aVhttp://dbpedia.org/class/yago/System108435388
p95
aVhttp://dbpedia.org/class/yago/YagoGeoEntity
p96
aVhttp://dbpedia.org/class/yago/YagoLegalActorGeo
p97
aVhttp://dbpedia.org/class/yago/CountriesBorderingTheAtlanticOcean
p98
aVhttp://dbpedia.org/class/yago/CountriesBorderingTheBalticSea
p99
aVhttp://dbpedia.org/class/yago/EuropeanCountries
p100
aVhttp://dbpedia.org/class/yago/EuropeanUnionMemberEconomies
p101
aVhttp://dbpedia.org/class/yago/FederalCountries
p102
aVhttp://dbpedia.org/class/yago/PhysicalEntity100001930
p103
aVhttp://dbpedia.org/class/yago/YagoPermanentlyLocatedEntity
p104
aVhttp://dbpedia.org/class/yago/German-speakingCountries
p105
aVhttp://dbpedia.org/class/yago/MemberStatesOfNATO
p106
aVhttp://dbpedia.org/class/yago/MemberStatesOfTheEuropeanUnion
p107
aVhttp://dbpedia.org/class/yago/MemberStatesOfTheUnionForTheMediterranean
p108
aVhttp://dbpedia.org/class/yago/MemberStatesOfTheUnitedNations
p109
aVhttp://dbpedia.org/class/yago/StatesAndTerritoriesEstablishedIn1871
p110
aVhttp://dbpedia.org/resource/Germany
tp111
aa(lp112
a(lp113
((lVhttp://dbpedia.org/resource/EUR-Lex
tp114
aa(lp115
a(lp116
aa(lp117
(lp118
((lp119
Vhttp://www.w3.org/2002/07/owl#Thing
p120
aVhttp://dbpedia.org/ontology/Place
p121
aVhttp://dbpedia.org/ontology/Location
p122
aVhttp://www.wikidata.org/entity/Q486972
p123
aVhttp://www.wikidata.org/entity/Q6256
p124
aVhttp://dbpedia.org/ontology/Country
p125
aVhttp://dbpedia.org/ontology/PopulatedPlace
p126
aVhttp://www.w3.org/2003/01/geo/wgs84_pos#SpatialThing
p127
aVhttp://schema.org/Country
p128
aVhttp://schema.org/Place
p129
aVhttp://umbel.org/umbel/rc/Country
p130
aVhttp://umbel.org/umbel/rc/Location_Underspecified
p131
aVhttp://umbel.org/umbel/rc/PopulatedPlace
p132
aVhttp://dbpedia.org/class/yago/Abstraction100002137
p133
aVhttp://dbpedia.org/class/yago/AdministrativeDistrict108491826
p134
aVhttp://dbpedia.org/class/yago/AlpineCountries
p135
aVhttp://dbpedia.org/class/yago/Country108544813
p136
aVhttp://dbpedia.org/class/yago/District108552138
p137
aVhttp://dbpedia.org/class/yago/Economy108366753
p138
aVhttp://dbpedia.org/class/yago/Group100031264
p139
aVhttp://dbpedia.org/class/yago/Location100027167
p140
aVhttp://dbpedia.org/class/yago/Object100002684
p141
aVhttp://dbpedia.org/class/yago/Region108630985
p142
aVhttp://dbpedia.org/class/yago/System108435388
p143
aVhttp://dbpedia.org/class/yago/YagoGeoEntity
p144
aVhttp://dbpedia.org/class/yago/YagoLegalActorGeo
p145
aVhttp://dbpedia.org/class/yago/EuropeanCountries
p146
aVhttp://dbpedia.org/class/yago/FederalCountries
p147
aVhttp://dbpedia.org/class/yago/French-speakingCountries
p148
aVhttp://dbpedia.org/class/yago/PhysicalEntity100001930
p149
aVhttp://dbpedia.org/class/yago/YagoPermanentlyLocatedEntity
p150
aVhttp://dbpedia.org/class/yago/German-speakingCountries
p151
aVhttp://dbpedia.org/class/yago/Italian-speakingCountries
p152
aVhttp://dbpedia.org/class/yago/LandlockedCountries
p153
aVhttp://dbpedia.org/class/yago/MemberStatesOfLaFrancophonie
p154
aVhttp://dbpedia.org/class/yago/MemberStatesOfTheUnitedNations
p155
aVhttp://dbpedia.org/class/yago/StatesAndTerritoriesEstablishedIn1291
p156
aVhttp://dbpedia.org/class/yago/WorldTradeOrganizationMemberEconomies
p157
aVhttp://dbpedia.org/resource/Switzerland
tp158
aa(lp159
a(lp160
((lVhttp://dbpedia.org/resource/EUR-Lex
tp161
aa(lp162
a(lp163
aa(lp164
(lp165
((lp166
Vhttp://www.w3.org/2002/07/owl#Thing
p167
aVhttp://dbpedia.org/ontology/Place
p168
aVhttp://dbpedia.org/ontology/Location
p169
aVhttp://www.wikidata.org/entity/Q486972
p170
aVhttp://www.wikidata.org/entity/Q6256
p171
aVhttp://dbpedia.org/ontology/Country
p172
aVhttp://dbpedia.org/ontology/PopulatedPlace
p173
aVhttp://www.w3.org/2003/01/geo/wgs84_pos#SpatialThing
p174
aVhttp://schema.org/Country
p175
aVhttp://schema.org/Place
p176
aVhttp://umbel.org/umbel/rc/Country
p177
aVhttp://umbel.org/umbel/rc/Location_Underspecified
p178
aVhttp://umbel.org/umbel/rc/PopulatedPlace
p179
aVhttp://dbpedia.org/class/yago/Abstraction100002137
p180
aVhttp://dbpedia.org/class/yago/AdministrativeDistrict108491826
p181
aVhttp://dbpedia.org/class/yago/Attribute100024264
p182
aVhttp://dbpedia.org/class/yago/BicontinentalCountries
p183
aVhttp://dbpedia.org/class/yago/Condition113920835
p184
aVhttp://dbpedia.org/class/yago/Country108544813
p185
aVhttp://dbpedia.org/class/yago/Difficulty114408086
p186
aVhttp://dbpedia.org/class/yago/District108552138
p187
aVhttp://dbpedia.org/class/yago/Economy108366753
p188
aVhttp://dbpedia.org/class/yago/Event100029378
p189
aVhttp://dbpedia.org/class/yago/Group100031264
p190
aVhttp://dbpedia.org/class/yago/Happening107283608
p191
aVhttp://dbpedia.org/class/yago/Location100027167
p192
aVhttp://dbpedia.org/class/yago/Noise107387509
p193
aVhttp://dbpedia.org/class/yago/Object100002684
p194
aVhttp://dbpedia.org/class/yago/Region108630985
p195
aVhttp://dbpedia.org/class/yago/Sound107371293
p196
aVhttp://dbpedia.org/class/yago/State100024720
p197
aVhttp://dbpedia.org/class/yago/System108435388
p198
aVhttp://dbpedia.org/class/yago/YagoGeoEntity
p199
aVhttp://dbpedia.org/class/yago/YagoLegalActorGeo
p200
aVhttp://dbpedia.org/class/yago/Clang107380144
p201
aVhttp://dbpedia.org/class/yago/CountriesOfTheMediterraneanSea
p202
aVhttp://dbpedia.org/class/yago/Crisis113933560
p203
aVhttp://dbpedia.org/class/yago/EasternMediterraneanCountries
p204
aVhttp://dbpedia.org/class/yago/EuropeanCountries
p205
aVhttp://dbpedia.org/class/yago/EuropeanUnionMemberEconomies
p206
aVhttp://dbpedia.org/class/yago/FinancialCrises
p207
aVhttp://dbpedia.org/class/yago/PhysicalEntity100001930
p208
aVhttp://dbpedia.org/class/yago/PsychologicalFeature100023100
p209
aVhttp://dbpedia.org/class/yago/Situation114411243
p210
aVhttp://dbpedia.org/class/yago/YagoPermanentlyLocatedEntity
p211
aVhttp://dbpedia.org/class/yago/MemberStatesOfLaFrancophonie
p212
aVhttp://dbpedia.org/class/yago/MemberStatesOfNATO
p213
aVhttp://dbpedia.org/class/yago/MemberStatesOfTheCouncilOfEurope
p214
aVhttp://dbpedia.org/class/yago/MemberStatesOfTheEuropeanUnion
p215
aVhttp://dbpedia.org/class/yago/MemberStatesOfTheUnionForTheMediterranean
p216
aVhttp://dbpedia.org/class/yago/MemberStatesOfTheUnitedNations
p217
aVhttp://dbpedia.org/class/yago/StatesAndTerritoriesEstablishedIn1821
p218
aVhttp://dbpedia.org/class/yago/StockMarketCrashes
p219
aVhttp://dbpedia.org/resource/Greece
tp220
aa(lp221
a(lp222
((lVhttp://dbpedia.org/resource/EUR-Lex
tp223
aa(lp224
a(lp225
aa(lp226
(lp227
((lp228
Vhttp://www.w3.org/2002/07/owl#Thing
p229
aVhttp://dbpedia.org/ontology/Place
p230
aVhttp://dbpedia.org/ontology/Location
p231
aVhttp://www.wikidata.org/entity/Q486972
p232
aVhttp://www.wikidata.org/entity/Q6256
p233
aVhttp://dbpedia.org/ontology/Country
p234
aVhttp://dbpedia.org/ontology/PopulatedPlace
p235
aVhttp://www.w3.org/2003/01/geo/wgs84_pos#SpatialThing
p236
aVhttp://schema.org/Country
p237
aVhttp://schema.org/Place
p238
aVhttp://umbel.org/umbel/rc/Country
p239
aVhttp://umbel.org/umbel/rc/Location_Underspecified
p240
aVhttp://umbel.org/umbel/rc/PopulatedPlace
p241
aVhttp://dbpedia.org/class/yago/Abstraction100002137
p242
aVhttp://dbpedia.org/class/yago/AdministrativeDistrict108491826
p243
aVhttp://dbpedia.org/class/yago/Country108544813
p244
aVhttp://dbpedia.org/class/yago/District108552138
p245
aVhttp://dbpedia.org/class/yago/Economy108366753
p246
aVhttp://dbpedia.org/class/yago/Group100031264
p247
aVhttp://dbpedia.org/class/yago/Location100027167
p248
aVhttp://dbpedia.org/class/yago/Object100002684
p249
aVhttp://dbpedia.org/class/yago/Region108630985
p250
aVhttp://dbpedia.org/class/yago/System108435388
p251
aVhttp://dbpedia.org/class/yago/YagoGeoEntity
p252
aVhttp://dbpedia.org/class/yago/YagoLegalActorGeo
p253
aVhttp://dbpedia.org/class/yago/CountriesBorderingTheAtlanticOcean
p254
aVhttp://dbpedia.org/class/yago/English-speakingCountriesAndTerritories
p255
aVhttp://dbpedia.org/class/yago/EuropeanCountries
p256
aVhttp://dbpedia.org/class/yago/EuropeanUnionMemberEconomies
p257
aVhttp://dbpedia.org/class/yago/PhysicalEntity100001930
p258
aVhttp://dbpedia.org/class/yago/YagoPermanentlyLocatedEntity
p259
aVhttp://dbpedia.org/class/yago/IslandCountries
p260
aVhttp://dbpedia.org/class/yago/MemberStatesOfNATO
p261
aVhttp://dbpedia.org/class/yago/MemberStatesOfTheCommonwealthOfNations
p262
aVhttp://dbpedia.org/class/yago/MemberStatesOfTheCouncilOfEurope
p263
aVhttp://dbpedia.org/class/yago/MemberStatesOfTheEuropeanUnion
p264
aVhttp://dbpedia.org/class/yago/MemberStatesOfTheUnionForTheMediterranean
p265
aVhttp://dbpedia.org/class/yago/MemberStatesOfTheUnitedNations
p266
aVhttp://dbpedia.org/resource/United_Kingdom
tp267
aa(lp268
a(lp269
((lp270
Vhttp://www.w3.org/2002/07/owl#Thing
p271
aVhttp://www.ontologydesignpatterns.org/ont/dul/DUL.owl#Agent
p272
aVhttp://www.ontologydesignpatterns.org/ont/dul/DUL.owl#SocialPerson
p273
aVhttp://www.wikidata.org/entity/Q43229
p274
aVhttp://dbpedia.org/ontology/Agent
p275
aVhttp://dbpedia.org/ontology/Organisation
p276
aVhttp://dbpedia.org/ontology/SportsTeam
p277
aVhttp://schema.org/Organization
p278
aVhttp://schema.org/SportsTeam
p279
aVhttp://umbel.org/umbel/rc/Club_Organization
p280
aVhttp://umbel.org/umbel/rc/Organization
p281
aVhttp://umbel.org/umbel/rc/OrganizationOfOrganizations
p282
aVhttp://dbpedia.org/class/yago/Abstraction100002137
p283
aVhttp://dbpedia.org/class/yago/Association108049401
p284
aVhttp://dbpedia.org/class/yago/Club108227214
p285
aVhttp://dbpedia.org/class/yago/Company108058098
p286
aVhttp://dbpedia.org/class/yago/Group100031264
p287
aVhttp://dbpedia.org/class/yago/Institution108053576
p288
aVhttp://dbpedia.org/class/yago/Organization108008335
p289
aVhttp://dbpedia.org/class/yago/SocialGroup107950920
p290
aVhttp://dbpedia.org/class/yago/Team108208560
p291
aVhttp://dbpedia.org/class/yago/Unit108189659
p292
aVhttp://dbpedia.org/class/yago/YagoLegalActorGeo
p293
aVhttp://dbpedia.org/class/yago/YagoPermanentlyLocatedEntity
p294
aVhttp://dbpedia.org/class/yago/NationalFootballLeagueTeams
p295
aVhttp://dbpedia.org/class/yago/YagoLegalActor
p296
aVhttp://dbpedia.org/class/yago/PubliclyTradedSportsCompanies
p297
aVhttp://dbpedia.org/class/yago/SportsClubsEstablishedIn1919
p298
aVhttp://dbpedia.org/resource/Green_Bay_Packers
tp299
aa(lp300
a(lp301
aa(lp302
(lp303
((lp304
Vhttp://www.w3.org/2002/07/owl#Thing
p305
aVhttp://dbpedia.org/ontology/Place
p306
aVhttp://dbpedia.org/ontology/Location
p307
aVhttp://www.wikidata.org/entity/Q486972
p308
aVhttp://www.wikidata.org/entity/Q6256
p309
aVhttp://dbpedia.org/ontology/Country
p310
aVhttp://dbpedia.org/ontology/PopulatedPlace
p311
aVhttp://www.w3.org/2003/01/geo/wgs84_pos#SpatialThing
p312
aVhttp://schema.org/Country
p313
aVhttp://schema.org/Place
p314
aVhttp://umbel.org/umbel/rc/Country
p315
aVhttp://umbel.org/umbel/rc/Location_Underspecified
p316
aVhttp://umbel.org/umbel/rc/PopulatedPlace
p317
aVhttp://dbpedia.org/class/yago/Abstraction100002137
p318
aVhttp://dbpedia.org/class/yago/AdministrativeDistrict108491826
p319
aVhttp://dbpedia.org/class/yago/BicontinentalCountries
p320
aVhttp://dbpedia.org/class/yago/Country108544813
p321
aVhttp://dbpedia.org/class/yago/District108552138
p322
aVhttp://dbpedia.org/class/yago/Economy108366753
p323
aVhttp://dbpedia.org/class/yago/Group100031264
p324
aVhttp://dbpedia.org/class/yago/Location100027167
p325
aVhttp://dbpedia.org/class/yago/Object100002684
p326
aVhttp://dbpedia.org/class/yago/Region108630985
p327
aVhttp://dbpedia.org/class/yago/System108435388
p328
aVhttp://dbpedia.org/class/yago/YagoGeoEntity
p329
aVhttp://dbpedia.org/class/yago/YagoLegalActorGeo
p330
aVhttp://dbpedia.org/class/yago/CountriesBorderingTheAtlanticOcean
p331
aVhttp://dbpedia.org/class/yago/CountriesOfTheMediterraneanSea
p332
aVhttp://dbpedia.org/class/yago/EuropeanCountries
p333
aVhttp://dbpedia.org/class/yago/EuropeanUnionMemberEconomies
p334
aVhttp://dbpedia.org/class/yago/PhysicalEntity100001930
p335
aVhttp://dbpedia.org/class/yago/YagoPermanentlyLocatedEntity
p336
aVhttp://dbpedia.org/class/yago/MemberStatesOfNATO
p337
aVhttp://dbpedia.org/class/yago/MemberStatesOfTheEuropeanUnion
p338
aVhttp://dbpedia.org/class/yago/MemberStatesOfTheUnionForTheMediterranean
p339
aVhttp://dbpedia.org/class/yago/MemberStatesOfTheUnitedNations
p340
aVhttp://dbpedia.org/class/yago/Spanish-speakingCountries
p341
aVhttp://dbpedia.org/class/yago/WorldTradeOrganizationMemberEconomies
p342
aVhttp://dbpedia.org/resource/Spain
tp343
aa(lp344
a(lp345
((lVhttp://dbpedia.org/resource/EUR-Lex
tp346
aa(lp347
a(lp348
aa(lp349
(lp350
((lp351
Vhttp://www.w3.org/2002/07/owl#Thing
p352
aVhttp://dbpedia.org/ontology/Place
p353
aVhttp://dbpedia.org/ontology/Location
p354
aVhttp://www.wikidata.org/entity/Q486972
p355
aVhttp://www.wikidata.org/entity/Q6256
p356
aVhttp://dbpedia.org/ontology/Country
p357
aVhttp://dbpedia.org/ontology/PopulatedPlace
p358
aVhttp://www.w3.org/2003/01/geo/wgs84_pos#SpatialThing
p359
aVhttp://schema.org/Country
p360
aVhttp://schema.org/Place
p361
aVhttp://umbel.org/umbel/rc/Country
p362
aVhttp://umbel.org/umbel/rc/Location_Underspecified
p363
aVhttp://umbel.org/umbel/rc/PopulatedPlace
p364
aVhttp://dbpedia.org/class/yago/Abstraction100002137
p365
aVhttp://dbpedia.org/class/yago/AdministrativeDistrict108491826
p366
aVhttp://dbpedia.org/class/yago/Country108544813
p367
aVhttp://dbpedia.org/class/yago/District108552138
p368
aVhttp://dbpedia.org/class/yago/Economy108366753
p369
aVhttp://dbpedia.org/class/yago/Group100031264
p370
aVhttp://dbpedia.org/class/yago/Location100027167
p371
aVhttp://dbpedia.org/class/yago/Object100002684
p372
aVhttp://dbpedia.org/class/yago/Region108630985
p373
aVhttp://dbpedia.org/class/yago/System108435388
p374
aVhttp://dbpedia.org/class/yago/YagoGeoEntity
p375
aVhttp://dbpedia.org/class/yago/YagoLegalActorGeo
p376
aVhttp://dbpedia.org/class/yago/CountriesBorderingTheBalticSea
p377
aVhttp://dbpedia.org/class/yago/EuropeanCountries
p378
aVhttp://dbpedia.org/class/yago/EuropeanUnionMemberEconomies
p379
aVhttp://dbpedia.org/class/yago/PhysicalEntity100001930
p380
aVhttp://dbpedia.org/class/yago/YagoPermanentlyLocatedEntity
p381
aVhttp://dbpedia.org/class/yago/MemberStatesOfTheCouncilOfEurope
p382
aVhttp://dbpedia.org/class/yago/MemberStatesOfTheEuropeanUnion
p383
aVhttp://dbpedia.org/class/yago/MemberStatesOfTheUnionForTheMediterranean
p384
aVhttp://dbpedia.org/class/yago/MemberStatesOfTheUnitedNations
p385
aVhttp://dbpedia.org/class/yago/NordicCountries
p386
aVhttp://dbpedia.org/class/yago/StatesAndTerritoriesEstablishedIn1918
p387
aVhttp://dbpedia.org/resource/Finland
tp388
aa(lp389
a(lp390
((lVhttp://dbpedia.org/resource/EUR-Lex
tp391
aa(lp392
a(lp393
aa(lp394
(lp395
((lp396
Vhttp://www.w3.org/2002/07/owl#Thing
p397
aVhttp://umbel.org/umbel/rc/Business
p398
aVhttp://umbel.org/umbel/rc/Organization
p399
aVhttp://dbpedia.org/resource/France_2
tp400
aa(lp401
a(lp402
((lVhttp://dbpedia.org/resource/EUR-Lex
tp403
aa(lp404
a(lp405
aa(lp406
(lp407
((lp408
Vhttp://www.w3.org/2002/07/owl#Thing
p409
aVhttp://dbpedia.org/ontology/Place
p410
aVhttp://dbpedia.org/ontology/Location
p411
aVhttp://www.wikidata.org/entity/Q486972
p412
aVhttp://www.wikidata.org/entity/Q6256
p413
aVhttp://dbpedia.org/ontology/Country
p414
aVhttp://dbpedia.org/ontology/PopulatedPlace
p415
aVhttp://www.w3.org/2003/01/geo/wgs84_pos#SpatialThing
p416
aVhttp://schema.org/Country
p417
aVhttp://schema.org/Place
p418
aVhttp://umbel.org/umbel/rc/Country
p419
aVhttp://umbel.org/umbel/rc/Location_Underspecified
p420
aVhttp://umbel.org/umbel/rc/PopulatedPlace
p421
aVhttp://dbpedia.org/class/yago/Abstraction100002137
p422
aVhttp://dbpedia.org/class/yago/AdministrativeDistrict108491826
p423
aVhttp://dbpedia.org/class/yago/AlpineCountries
p424
aVhttp://dbpedia.org/class/yago/Country108544813
p425
aVhttp://dbpedia.org/class/yago/District108552138
p426
aVhttp://dbpedia.org/class/yago/Economy108366753
p427
aVhttp://dbpedia.org/class/yago/Group100031264
p428
aVhttp://dbpedia.org/class/yago/Location100027167
p429
aVhttp://dbpedia.org/class/yago/Object100002684
p430
aVhttp://dbpedia.org/class/yago/Region108630985
p431
aVhttp://dbpedia.org/class/yago/System108435388
p432
aVhttp://dbpedia.org/class/yago/YagoGeoEntity
p433
aVhttp://dbpedia.org/class/yago/YagoLegalActorGeo
p434
aVhttp://dbpedia.org/class/yago/EuropeanCountries
p435
aVhttp://dbpedia.org/class/yago/FederalCountries
p436
aVhttp://dbpedia.org/class/yago/French-speakingCountries
p437
aVhttp://dbpedia.org/class/yago/PhysicalEntity100001930
p438
aVhttp://dbpedia.org/class/yago/YagoPermanentlyLocatedEntity
p439
aVhttp://dbpedia.org/class/yago/German-speakingCountries
p440
aVhttp://dbpedia.org/class/yago/Italian-speakingCountries
p441
aVhttp://dbpedia.org/class/yago/LandlockedCountries
p442
aVhttp://dbpedia.org/class/yago/MemberStatesOfLaFrancophonie
p443
aVhttp://dbpedia.org/class/yago/MemberStatesOfTheUnitedNations
p444
aVhttp://dbpedia.org/class/yago/StatesAndTerritoriesEstablishedIn1291
p445
aVhttp://dbpedia.org/class/yago/WorldTradeOrganizationMemberEconomies
p446
aVhttp://dbpedia.org/resource/Switzerland
tp447
aa(lp448
a(lp449
((lVhttp://dbpedia.org/resource/EUR-Lex
tp450
aa(lp451
a(lp452
aa(lp453
(lp454
((lp455
Vhttp://www.w3.org/2002/07/owl#Thing
p456
aVhttp://dbpedia.org/ontology/Place
p457
aVhttp://dbpedia.org/ontology/Location
p458
aVhttp://www.wikidata.org/entity/Q486972
p459
aVhttp://www.wikidata.org/entity/Q6256
p460
aVhttp://dbpedia.org/ontology/Country
p461
aVhttp://dbpedia.org/ontology/PopulatedPlace
p462
aVhttp://www.w3.org/2003/01/geo/wgs84_pos#SpatialThing
p463
aVhttp://schema.org/Country
p464
aVhttp://schema.org/Place
p465
aVhttp://umbel.org/umbel/rc/Country
p466
aVhttp://umbel.org/umbel/rc/Location_Underspecified
p467
aVhttp://umbel.org/umbel/rc/PopulatedPlace
p468
aVhttp://dbpedia.org/class/yago/Abstraction100002137
p469
aVhttp://dbpedia.org/class/yago/AdministrativeDistrict108491826
p470
aVhttp://dbpedia.org/class/yago/AlpineCountries
p471
aVhttp://dbpedia.org/class/yago/BicontinentalCountries
p472
aVhttp://dbpedia.org/class/yago/Country108544813
p473
aVhttp://dbpedia.org/class/yago/District108552138
p474
aVhttp://dbpedia.org/class/yago/Economy108366753
p475
aVhttp://dbpedia.org/class/yago/Group100031264
p476
aVhttp://dbpedia.org/class/yago/Location100027167
p477
aVhttp://dbpedia.org/class/yago/Object100002684
p478
aVhttp://dbpedia.org/class/yago/Region108630985
p479
aVhttp://dbpedia.org/class/yago/System108435388
p480
aVhttp://dbpedia.org/class/yago/YagoGeoEntity
p481
aVhttp://dbpedia.org/class/yago/YagoLegalActorGeo
p482
aVhttp://dbpedia.org/class/yago/CountriesOfTheMediterraneanSea
p483
aVhttp://dbpedia.org/class/yago/EuropeanCountries
p484
aVhttp://dbpedia.org/class/yago/EuropeanUnionMemberEconomies
p485
aVhttp://dbpedia.org/class/yago/PhysicalEntity100001930
p486
aVhttp://dbpedia.org/class/yago/YagoPermanentlyLocatedEntity
p487
aVhttp://dbpedia.org/class/yago/Italian-speakingCountries
p488
aVhttp://dbpedia.org/class/yago/MemberStatesOfNATO
p489
aVhttp://dbpedia.org/class/yago/MemberStatesOfTheCouncilOfEurope
p490
aVhttp://dbpedia.org/class/yago/MemberStatesOfTheEuropeanUnion
p491
aVhttp://dbpedia.org/class/yago/MemberStatesOfTheUnionForTheMediterranean
p492
aVhttp://dbpedia.org/class/yago/MemberStatesOfTheUnitedNations
p493
aVhttp://dbpedia.org/class/yago/StatesAndTerritoriesEstablishedIn1861
p494
aVhttp://dbpedia.org/resource/Italy
tp495
aa(lp496
a(lp497
((lVhttp://dbpedia.org/resource/EUR-Lex
tp498
aa(lp499
a(lp500
aa(lp501
(lp502
((lp503
Vhttp://www.w3.org/2002/07/owl#Thing
p504
aVhttp://dbpedia.org/ontology/Place
p505
aVhttp://dbpedia.org/ontology/Location
p506
aVhttp://www.wikidata.org/entity/Q486972
p507
aVhttp://www.wikidata.org/entity/Q6256
p508
aVhttp://dbpedia.org/ontology/Country
p509
aVhttp://dbpedia.org/ontology/PopulatedPlace
p510
aVhttp://www.w3.org/2003/01/geo/wgs84_pos#SpatialThing
p511
aVhttp://schema.org/Country
p512
aVhttp://schema.org/Place
p513
aVhttp://umbel.org/umbel/rc/Country
p514
aVhttp://umbel.org/umbel/rc/Location_Underspecified
p515
aVhttp://umbel.org/umbel/rc/PopulatedPlace
p516
aVhttp://dbpedia.org/class/yago/Abstraction100002137
p517
aVhttp://dbpedia.org/class/yago/AdministrativeDistrict108491826
p518
aVhttp://dbpedia.org/class/yago/AlpineCountries
p519
aVhttp://dbpedia.org/class/yago/Country108544813
p520
aVhttp://dbpedia.org/class/yago/District108552138
p521
aVhttp://dbpedia.org/class/yago/Economy108366753
p522
aVhttp://dbpedia.org/class/yago/Group100031264
p523
aVhttp://dbpedia.org/class/yago/Location100027167
p524
aVhttp://dbpedia.org/class/yago/Object100002684
p525
aVhttp://dbpedia.org/class/yago/Region108630985
p526
aVhttp://dbpedia.org/class/yago/System108435388
p527
aVhttp://dbpedia.org/class/yago/YagoGeoEntity
p528
aVhttp://dbpedia.org/class/yago/YagoLegalActorGeo
p529
aVhttp://dbpedia.org/class/yago/EuropeanCountries
p530
aVhttp://dbpedia.org/class/yago/FederalCountries
p531
aVhttp://dbpedia.org/class/yago/French-speakingCountries
p532
aVhttp://dbpedia.org/class/yago/PhysicalEntity100001930
p533
aVhttp://dbpedia.org/class/yago/YagoPermanentlyLocatedEntity
p534
aVhttp://dbpedia.org/class/yago/German-speakingCountries
p535
aVhttp://dbpedia.org/class/yago/Italian-speakingCountries
p536
aVhttp://dbpedia.org/class/yago/LandlockedCountries
p537
aVhttp://dbpedia.org/class/yago/MemberStatesOfLaFrancophonie
p538
aVhttp://dbpedia.org/class/yago/MemberStatesOfTheUnitedNations
p539
aVhttp://dbpedia.org/class/yago/StatesAndTerritoriesEstablishedIn1291
p540
aVhttp://dbpedia.org/class/yago/WorldTradeOrganizationMemberEconomies
p541
aVhttp://dbpedia.org/resource/Switzerland
tp542
aa(lp543
a(lp544
((lVhttp://dbpedia.org/resource/EUR-Lex
tp545
aa(lp546
a(lp547
aa(lp548
(lp549
((lp550
Vhttp://www.w3.org/2002/07/owl#Thing
p551
aVhttp://dbpedia.org/ontology/Place
p552
aVhttp://dbpedia.org/ontology/Location
p553
aVhttp://www.wikidata.org/entity/Q486972
p554
aVhttp://www.wikidata.org/entity/Q6256
p555
aVhttp://dbpedia.org/ontology/Country
p556
aVhttp://dbpedia.org/ontology/PopulatedPlace
p557
aVhttp://www.w3.org/2003/01/geo/wgs84_pos#SpatialThing
p558
aVhttp://schema.org/Country
p559
aVhttp://schema.org/Place
p560
aVhttp://umbel.org/umbel/rc/Country
p561
aVhttp://umbel.org/umbel/rc/Location_Underspecified
p562
aVhttp://umbel.org/umbel/rc/PopulatedPlace
p563
aVhttp://dbpedia.org/class/yago/Abstraction100002137
p564
aVhttp://dbpedia.org/class/yago/AdministrativeDistrict108491826
p565
aVhttp://dbpedia.org/class/yago/Country108544813
p566
aVhttp://dbpedia.org/class/yago/District108552138
p567
aVhttp://dbpedia.org/class/yago/Economy108366753
p568
aVhttp://dbpedia.org/class/yago/Group100031264
p569
aVhttp://dbpedia.org/class/yago/Location100027167
p570
aVhttp://dbpedia.org/class/yago/Object100002684
p571
aVhttp://dbpedia.org/class/yago/Region108630039
p572
aVhttp://dbpedia.org/class/yago/Region108630985
p573
aVhttp://dbpedia.org/class/yago/System108435388
p574
aVhttp://dbpedia.org/class/yago/YagoGeoEntity
p575
aVhttp://dbpedia.org/class/yago/YagoLegalActorGeo
p576
aVhttp://dbpedia.org/class/yago/DividedRegions
p577
aVhttp://dbpedia.org/class/yago/EuropeanCountries
p578
aVhttp://dbpedia.org/class/yago/EuropeanUnionMemberEconomies
p579
aVhttp://dbpedia.org/class/yago/French-speakingCountries
p580
aVhttp://dbpedia.org/class/yago/PhysicalEntity100001930
p581
aVhttp://dbpedia.org/class/yago/YagoPermanentlyLocatedEntity
p582
aVhttp://dbpedia.org/class/yago/German-speakingCountries
p583
aVhttp://dbpedia.org/class/yago/LandlockedCountries
p584
aVhttp://dbpedia.org/class/yago/MemberStatesOfLaFrancophonie
p585
aVhttp://dbpedia.org/class/yago/MemberStatesOfNATO
p586
aVhttp://dbpedia.org/class/yago/MemberStatesOfTheEuropeanUnion
p587
aVhttp://dbpedia.org/class/yago/MemberStatesOfTheUnionForTheMediterranean
p588
aVhttp://dbpedia.org/class/yago/MemberStatesOfTheUnitedNations
p589
aVhttp://dbpedia.org/class/yago/NUTS1StatisticalRegionsOfTheEuropeanUnion
p590
aVhttp://dbpedia.org/class/yago/NUTS2StatisticalRegionsOfTheEuropeanUnion
p591
aVhttp://dbpedia.org/class/yago/StatesAndTerritoriesEstablishedIn1815
p592
aVhttp://dbpedia.org/class/yago/StatesOfTheGermanConfederation
p593
aVhttp://dbpedia.org/resource/Luxembourg
tp594
aa(lp595
a(lp596
((lVhttp://dbpedia.org/resource/EUR-Lex
tp597
aa(lp598
a(lp599
aa(lp600
(lp601
((lp602
Vhttp://www.w3.org/2002/07/owl#Thing
p603
aVhttp://dbpedia.org/ontology/Place
p604
aVhttp://dbpedia.org/ontology/Location
p605
aVhttp://www.wikidata.org/entity/Q486972
p606
aVhttp://www.wikidata.org/entity/Q6256
p607
aVhttp://dbpedia.org/ontology/Country
p608
aVhttp://dbpedia.org/ontology/PopulatedPlace
p609
aVhttp://www.w3.org/2003/01/geo/wgs84_pos#SpatialThing
p610
aVhttp://schema.org/Country
p611
aVhttp://schema.org/Place
p612
aVhttp://umbel.org/umbel/rc/Country
p613
aVhttp://umbel.org/umbel/rc/Location_Underspecified
p614
aVhttp://umbel.org/umbel/rc/PopulatedPlace
p615
aVhttp://dbpedia.org/class/yago/Abstraction100002137
p616
aVhttp://dbpedia.org/class/yago/AdministrativeDistrict108491826
p617
aVhttp://dbpedia.org/class/yago/BicontinentalCountries
p618
aVhttp://dbpedia.org/class/yago/CaribbeanCountries
p619
aVhttp://dbpedia.org/class/yago/Country108544813
p620
aVhttp://dbpedia.org/class/yago/District108552138
p621
aVhttp://dbpedia.org/class/yago/Economy108366753
p622
aVhttp://dbpedia.org/class/yago/Group100031264
p623
aVhttp://dbpedia.org/class/yago/Location100027167
p624
aVhttp://dbpedia.org/class/yago/Object100002684
p625
aVhttp://dbpedia.org/class/yago/Region108630985
p626
aVhttp://dbpedia.org/class/yago/System108435388
p627
aVhttp://dbpedia.org/class/yago/YagoGeoEntity
p628
aVhttp://dbpedia.org/class/yago/YagoLegalActorGeo
p629
aVhttp://dbpedia.org/class/yago/CountriesBorderingTheAtlanticOcean
p630
aVhttp://dbpedia.org/class/yago/Dutch-speakingCountries
p631
aVhttp://dbpedia.org/class/yago/EuropeanCountries
p632
aVhttp://dbpedia.org/class/yago/EuropeanUnionMemberEconomies
p633
aVhttp://dbpedia.org/class/yago/PhysicalEntity100001930
p634
aVhttp://dbpedia.org/class/yago/YagoPermanentlyLocatedEntity
p635
aVhttp://dbpedia.org/class/yago/MemberStatesOfNATO
p636
aVhttp://dbpedia.org/class/yago/MemberStatesOfTheDutchLanguageUnion
p637
aVhttp://dbpedia.org/class/yago/MemberStatesOfTheEuropeanUnion
p638
aVhttp://dbpedia.org/class/yago/MemberStatesOfTheUnionForTheMediterranean
p639
aVhttp://dbpedia.org/resource/Netherlands
tp640
aa(lp641
a(lp642
((lVhttp://dbpedia.org/resource/EUR-Lex
tp643
aa(lp644
a(lp645
aa(lp646
(lp647
((lp648
Vhttp://www.w3.org/2002/07/owl#Thing
p649
aVhttp://umbel.org/umbel/rc/Country
p650
aVhttp://umbel.org/umbel/rc/Location_Underspecified
p651
aVhttp://umbel.org/umbel/rc/PopulatedPlace
p652
aVhttp://dbpedia.org/class/yago/Abstraction100002137
p653
aVhttp://dbpedia.org/class/yago/AdministrativeDistrict108491826
p654
aVhttp://dbpedia.org/class/yago/Country108544813
p655
aVhttp://dbpedia.org/class/yago/District108552138
p656
aVhttp://dbpedia.org/class/yago/Economy108366753
p657
aVhttp://dbpedia.org/class/yago/Group100031264
p658
aVhttp://dbpedia.org/class/yago/Location100027167
p659
aVhttp://dbpedia.org/class/yago/Object100002684
p660
aVhttp://dbpedia.org/class/yago/Region108630985
p661
aVhttp://dbpedia.org/class/yago/System108435388
p662
aVhttp://dbpedia.org/class/yago/YagoGeoEntity
p663
aVhttp://dbpedia.org/class/yago/YagoLegalActorGeo
p664
aVhttp://dbpedia.org/class/yago/CountriesBorderingTheArcticOcean
p665
aVhttp://dbpedia.org/class/yago/CountriesBorderingTheAtlanticOcean
p666
aVhttp://dbpedia.org/class/yago/EuropeanCountries
p667
aVhttp://dbpedia.org/class/yago/PhysicalEntity100001930
p668
aVhttp://dbpedia.org/class/yago/YagoPermanentlyLocatedEntity
p669
aVhttp://dbpedia.org/class/yago/MemberStatesOfNATO
p670
aVhttp://dbpedia.org/class/yago/MemberStatesOfTheUnitedNations
p671
aVhttp://dbpedia.org/class/yago/NordicCountries
p672
aVhttp://dbpedia.org/class/yago/StatesAndTerritoriesEstablishedIn1905
p673
aVhttp://dbpedia.org/class/yago/StatesAndTerritoriesEstablishedIn872
p674
aVhttp://dbpedia.org/class/yago/WorldTradeOrganizationMemberEconomies
p675
aVhttp://dbpedia.org/resource/Norway
tp676
aa(lp677
a(lp678
((lp679
Vhttp://www.w3.org/2002/07/owl#Thing
p680
aVhttp://dbpedia.org/ontology/Company
p681
aVhttp://www.ontologydesignpatterns.org/ont/dul/DUL.owl#Agent
p682
aVhttp://www.ontologydesignpatterns.org/ont/dul/DUL.owl#SocialPerson
p683
aVhttp://www.wikidata.org/entity/Q43229
p684
aVhttp://dbpedia.org/ontology/Agent
p685
aVhttp://dbpedia.org/ontology/Organisation
p686
aVhttp://schema.org/Organization
p687
aVhttp://umbel.org/umbel/rc/Business
p688
aVhttp://dbpedia.org/class/yago/Abstraction100002137
p689
aVhttp://dbpedia.org/class/yago/Business108061042
p690
aVhttp://dbpedia.org/class/yago/Company108058098
p691
aVhttp://dbpedia.org/class/yago/Enterprise108056231
p692
aVhttp://dbpedia.org/class/yago/Group100031264
p693
aVhttp://dbpedia.org/class/yago/Institution108053576
p694
aVhttp://dbpedia.org/class/yago/Manufacturer108060446
p695
aVhttp://dbpedia.org/class/yago/Organization108008335
p696
aVhttp://dbpedia.org/class/yago/SocialGroup107950920
p697
aVhttp://dbpedia.org/class/yago/TelephoneCompany108186221
p698
aVhttp://dbpedia.org/class/yago/Utility108185758
p699
aVhttp://dbpedia.org/class/yago/YagoLegalActorGeo
p700
aVhttp://dbpedia.org/class/yago/CompaniesBasedInEspoo
p701
aVhttp://dbpedia.org/class/yago/CompaniesEstablishedIn1865
p702
aVhttp://dbpedia.org/class/yago/CompaniesListedOnTheHelsinkiStockExchange
p703
aVhttp://dbpedia.org/class/yago/CompaniesOfFinland
p704
aVhttp://dbpedia.org/class/yago/DisplayTechnologyCompanies
p705
aVhttp://dbpedia.org/class/yago/ElectronicsCompaniesOfFinland
p706
aVhttp://dbpedia.org/class/yago/ElectronicsCompany108003035
p707
aVhttp://dbpedia.org/class/yago/YagoPermanentlyLocatedEntity
p708
aVhttp://dbpedia.org/class/yago/MobilePhoneCompaniesOfFinland
p709
aVhttp://dbpedia.org/class/yago/MobilePhoneManufacturers
p710
aVhttp://dbpedia.org/class/yago/YagoLegalActor
p711
aVhttp://dbpedia.org/class/yago/Service108186047
p712
aVhttp://dbpedia.org/resource/Nokia
tp713
aa(lp714
a(lp715
aa(lp716
(lp717
((lVhttp://dbpedia.org/resource/Other
tp718
aa(lp719
a(lp720
((lVhttp://dbpedia.org/resource/EUR-Lex
tp721
aa(lp722
a(lp723
aa(lp724
(lp725
((lp726
Vhttp://www.w3.org/2002/07/owl#Thing
p727
aVhttp://dbpedia.org/ontology/Place
p728
aVhttp://dbpedia.org/ontology/Location
p729
aVhttp://www.wikidata.org/entity/Q486972
p730
aVhttp://www.wikidata.org/entity/Q6256
p731
aVhttp://dbpedia.org/ontology/Country
p732
aVhttp://dbpedia.org/ontology/PopulatedPlace
p733
aVhttp://www.w3.org/2003/01/geo/wgs84_pos#SpatialThing
p734
aVhttp://schema.org/Country
p735
aVhttp://schema.org/Place
p736
aVhttp://umbel.org/umbel/rc/Country
p737
aVhttp://umbel.org/umbel/rc/Location_Underspecified
p738
aVhttp://umbel.org/umbel/rc/PopulatedPlace
p739
aVhttp://dbpedia.org/class/yago/Abstraction100002137
p740
aVhttp://dbpedia.org/class/yago/AdministrativeDistrict108491826
p741
aVhttp://dbpedia.org/class/yago/Country108544813
p742
aVhttp://dbpedia.org/class/yago/District108552138
p743
aVhttp://dbpedia.org/class/yago/Economy108366753
p744
aVhttp://dbpedia.org/class/yago/Group100031264
p745
aVhttp://dbpedia.org/class/yago/Location100027167
p746
aVhttp://dbpedia.org/class/yago/Object100002684
p747
aVhttp://dbpedia.org/class/yago/Region108630985
p748
aVhttp://dbpedia.org/class/yago/System108435388
p749
aVhttp://dbpedia.org/class/yago/YagoGeoEntity
p750
aVhttp://dbpedia.org/class/yago/YagoLegalActorGeo
p751
aVhttp://dbpedia.org/class/yago/CountriesBorderingTheAtlanticOcean
p752
aVhttp://dbpedia.org/class/yago/EuropeanCountries
p753
aVhttp://dbpedia.org/class/yago/EuropeanUnionMemberEconomies
p754
aVhttp://dbpedia.org/class/yago/PhysicalEntity100001930
p755
aVhttp://dbpedia.org/class/yago/YagoPermanentlyLocatedEntity
p756
aVhttp://dbpedia.org/class/yago/MemberStatesOfNATO
p757
aVhttp://dbpedia.org/class/yago/MemberStatesOfTheCommunityOfPortugueseLanguageCountries
p758
aVhttp://dbpedia.org/class/yago/MemberStatesOfTheEuropeanUnion
p759
aVhttp://dbpedia.org/class/yago/MemberStatesOfTheUnionForTheMediterranean
p760
aVhttp://dbpedia.org/class/yago/MemberStatesOfTheUnitedNations
p761
aVhttp://dbpedia.org/class/yago/Portuguese-speakingCountries
p762
aVhttp://dbpedia.org/class/yago/WorldTradeOrganizationMemberEconomies
p763
aVhttp://dbpedia.org/resource/Portugal
tp764
aa(lp765
a(lp766
((lVhttp://dbpedia.org/resource/EUR-Lex
tp767
aa(lp768
a(lp769
aa(lp770
(lp771
((lp772
Vhttp://www.w3.org/2002/07/owl#Thing
p773
aVhttp://dbpedia.org/ontology/Place
p774
aVhttp://dbpedia.org/ontology/Location
p775
aVhttp://www.wikidata.org/entity/Q486972
p776
aVhttp://www.wikidata.org/entity/Q6256
p777
aVhttp://dbpedia.org/ontology/Country
p778
aVhttp://dbpedia.org/ontology/PopulatedPlace
p779
aVhttp://www.w3.org/2003/01/geo/wgs84_pos#SpatialThing
p780
aVhttp://schema.org/Country
p781
aVhttp://schema.org/Place
p782
aVhttp://umbel.org/umbel/rc/Country
p783
aVhttp://umbel.org/umbel/rc/Location_Underspecified
p784
aVhttp://umbel.org/umbel/rc/PopulatedPlace
p785
aVhttp://dbpedia.org/class/yago/Abstraction100002137
p786
aVhttp://dbpedia.org/class/yago/AdministrativeDistrict108491826
p787
aVhttp://dbpedia.org/class/yago/Country108544813
p788
aVhttp://dbpedia.org/class/yago/District108552138
p789
aVhttp://dbpedia.org/class/yago/Economy108366753
p790
aVhttp://dbpedia.org/class/yago/Group100031264
p791
aVhttp://dbpedia.org/class/yago/Location100027167
p792
aVhttp://dbpedia.org/class/yago/Object100002684
p793
aVhttp://dbpedia.org/class/yago/Region108630985
p794
aVhttp://dbpedia.org/class/yago/System108435388
p795
aVhttp://dbpedia.org/class/yago/YagoGeoEntity
p796
aVhttp://dbpedia.org/class/yago/YagoLegalActorGeo
p797
aVhttp://dbpedia.org/class/yago/CountriesBorderingTheAtlanticOcean
p798
aVhttp://dbpedia.org/class/yago/CountriesBorderingTheBalticSea
p799
aVhttp://dbpedia.org/class/yago/EuropeanCountries
p800
aVhttp://dbpedia.org/class/yago/EuropeanUnionMemberEconomies
p801
aVhttp://dbpedia.org/class/yago/PhysicalEntity100001930
p802
aVhttp://dbpedia.org/class/yago/YagoPermanentlyLocatedEntity
p803
aVhttp://dbpedia.org/class/yago/MemberStatesOfTheEuropeanUnion
p804
aVhttp://dbpedia.org/class/yago/MemberStatesOfTheUnionForTheMediterranean
p805
aVhttp://dbpedia.org/class/yago/MemberStatesOfTheUnitedNations
p806
aVhttp://dbpedia.org/class/yago/NordicCountries
p807
aVhttp://dbpedia.org/resource/Sweden
tp808
aa(lp809
a(lp810
((lp811
Vhttp://www.w3.org/2002/07/owl#Thing
p812
aVhttp://www.ontologydesignpatterns.org/ont/dul/DUL.owl#Agent
p813
aVhttp://www.ontologydesignpatterns.org/ont/dul/DUL.owl#SocialPerson
p814
aVhttp://www.wikidata.org/entity/Q176799
p815
aVhttp://www.wikidata.org/entity/Q43229
p816
aVhttp://dbpedia.org/ontology/Agent
p817
aVhttp://dbpedia.org/ontology/MilitaryUnit
p818
aVhttp://dbpedia.org/ontology/Organisation
p819
aVhttp://schema.org/Organization
p820
aVhttp://dbpedia.org/class/yago/Abstraction100002137
p821
aVhttp://dbpedia.org/class/yago/Attribute100024264
p822
aVhttp://dbpedia.org/class/yago/DefiniteQuantity113576101
p823
aVhttp://dbpedia.org/class/yago/Force105194578
p824
aVhttp://dbpedia.org/class/yago/Power105190804
p825
aVhttp://dbpedia.org/class/yago/Quality104723816
p826
aVhttp://dbpedia.org/class/yago/UnitOfMeasurement113583724
p827
aVhttp://dbpedia.org/class/yago/Influence105194151
p828
aVhttp://dbpedia.org/class/yago/Measure100033615
p829
aVhttp://dbpedia.org/class/yago/PoliceUnitsOfGermany
p830
aVhttp://dbpedia.org/class/yago/SpecialForcesOfGermany
p831
aVhttp://dbpedia.org/resource/Spezialeinsatzkommando
tp832
aa(lp833
a(lp834
aa(lp835
(lp836
((lp837
Vhttp://www.w3.org/2002/07/owl#Thing
p838
aVhttp://dbpedia.org/ontology/Place
p839
aVhttp://dbpedia.org/ontology/Location
p840
aVhttp://www.wikidata.org/entity/Q486972
p841
aVhttp://www.wikidata.org/entity/Q6256
p842
aVhttp://dbpedia.org/ontology/Country
p843
aVhttp://dbpedia.org/ontology/PopulatedPlace
p844
aVhttp://www.w3.org/2003/01/geo/wgs84_pos#SpatialThing
p845
aVhttp://schema.org/Country
p846
aVhttp://schema.org/Place
p847
aVhttp://umbel.org/umbel/rc/Country
p848
aVhttp://umbel.org/umbel/rc/Location_Underspecified
p849
aVhttp://umbel.org/umbel/rc/PopulatedPlace
p850
aVhttp://dbpedia.org/class/yago/Abstraction100002137
p851
aVhttp://dbpedia.org/class/yago/AdministrativeDistrict108491826
p852
aVhttp://dbpedia.org/class/yago/AlpineCountries
p853
aVhttp://dbpedia.org/class/yago/Country108544813
p854
aVhttp://dbpedia.org/class/yago/District108552138
p855
aVhttp://dbpedia.org/class/yago/Economy108366753
p856
aVhttp://dbpedia.org/class/yago/Group100031264
p857
aVhttp://dbpedia.org/class/yago/Location100027167
p858
aVhttp://dbpedia.org/class/yago/Object100002684
p859
aVhttp://dbpedia.org/class/yago/Point108620061
p860
aVhttp://dbpedia.org/class/yago/Region108630985
p861
aVhttp://dbpedia.org/class/yago/System108435388
p862
aVhttp://dbpedia.org/class/yago/TopographicPoint108664443
p863
aVhttp://dbpedia.org/class/yago/YagoGeoEntity
p864
aVhttp://dbpedia.org/class/yago/YagoLegalActorGeo
p865
aVhttp://dbpedia.org/class/yago/Zone108688247
p866
aVhttp://dbpedia.org/class/yago/EuropeanCountries
p867
aVhttp://dbpedia.org/class/yago/EuropeanUnionMemberEconomies
p868
aVhttp://dbpedia.org/class/yago/FederalCountries
p869
aVhttp://dbpedia.org/class/yago/PhysicalEntity100001930
p870
aVhttp://dbpedia.org/class/yago/YagoPermanentlyLocatedEntity
p871
aVhttp://dbpedia.org/class/yago/German-speakingCountries
p872
aVhttp://dbpedia.org/class/yago/LandlockedCountries
p873
aVhttp://dbpedia.org/class/yago/MemberStatesOfTheCouncilOfEurope
p874
aVhttp://dbpedia.org/class/yago/MemberStatesOfTheEuropeanUnion
p875
aVhttp://dbpedia.org/class/yago/MemberStatesOfTheUnionForTheMediterranean
p876
aVhttp://dbpedia.org/class/yago/MemberStatesOfTheUnitedNations
p877
aVhttp://dbpedia.org/class/yago/Nuclear-freeZones
p878
aVhttp://dbpedia.org/class/yago/StatesAndTerritoriesEstablishedIn1955
p879
aVhttp://dbpedia.org/resource/Austria
tp880
aa(lp881
a(lp882
((lVhttp://dbpedia.org/resource/EUR-Lex
p883
tp884
aa(lp885
a(lp886
aa.