(lp1
(lp2
(lp3
a(lp4
aa(lp5
(lp6
a(lp7
aa(lp8
(lp9
a(lp10
aa(lp11
(lp12
a(lp13
aa(lp14
(lp15
a(lp16
aa(lp17
(lp18
a(lp19
aa(lp20
(lp21
a(lp22
aa(lp23
(lp24
a(lp25
aa(lp26
(lp27
Vhttp://dbpedia.org/resource/Age/sex/location
p28
aa(lp29
aa(lp30
(lp31
a(lp32
aa(lp33
(lp34
a(lp35
aa(lp36
(lp37
a(lp38
aa(lp39
(lp40
a(lp41
aa(lp42
(lp43
a(lp44
aa(lp45
(lp46
a(lp47
aa.