(lp1
(lp2
a(lp3
(dp4
Vstart
p5
I0
sS'classes'
p6
(lp7
Vhttp://dbpedia.org/class/yago/Abstraction100002137
p8
aVhttp://dbpedia.org/class/yago/Chemical114806838
p9
aVhttp://dbpedia.org/class/yago/Compound114818238
p10
aVhttp://dbpedia.org/class/yago/Macromolecule114944888
p11
aVhttp://dbpedia.org/class/yago/Material114580897
p12
aVhttp://dbpedia.org/class/yago/Matter100020827
p13
aVhttp://dbpedia.org/class/yago/OrganicCompound114727670
p14
aVhttp://dbpedia.org/class/yago/Part113809207
p15
aVhttp://dbpedia.org/class/yago/Protein114728724
p16
aVhttp://dbpedia.org/class/yago/Relation100031921
p17
aVhttp://dbpedia.org/class/yago/Substance100019613
p18
aVhttp://dbpedia.org/class/yago/Thing100002452
p19
aVhttp://dbpedia.org/class/yago/Molecule114682133
p20
aVhttp://dbpedia.org/class/yago/PhysicalEntity100001930
p21
aVhttp://dbpedia.org/class/yago/Unit109465459
p22
aVhttp://dbpedia.org/class/yago/TransportProteins
p23
asVdisambiguatedURL
p24
Vhttp://dbpedia.org/resource/Karyopherin
p25
sVnamedEntity
p26
Vb
sVoffset
p27
I1
saa(lp28
a(lp29
a.