(lp1
(lp2
(lp3
Vhttp://dbpedia.org/resource/Quantum_1/f_noise
p4
aa(lp5
a(lp6
a(lp7
Vhttp://dbpedia.org/resource/Barrel_(unit)
p8
aa(lp9
a(lp10
a(lp11
a(lp12
a(lp13
a(lp14
a(lp15
a(lp16
a(lp17
a(lp18
a(lp19
a(lp20
a(lp21
a(lp22
a(lp23
a(lp24
a(lp25
a(lp26
a(lp27
a(lp28
a(lp29
a(lp30
a(lp31
aa(lp32
(lp33
a(lp34
a(lp35
Vhttp://dbpedia.org/resource/Karyopherin
p36
aa(lp37
a(lp38
a(lp39
a(lp40
Vhttp://dbpedia.org/resource/ISO_639:y
p41
aaa(lp42
(lp43
a(lp44
a(lp45
Vhttp://dbpedia.org/resource/Sailing_ship
p46
aa(lp47
a(lp48
a(lp49
a(lp50
a(lp51
a(lp52
a(lp53
a(lp54
a(lp55
a(lp56
a(lp57
a(lp58
a(lp59
a(lp60
a(lp61
a(lp62
a(lp63
Vhttp://dbpedia.org/resource/Barrel_(unit)
p64
aa(lp65
a(lp66
Vhttp://dbpedia.org/resource/Programmed_input/output
p67
aaa(lp68
(lp69
Vhttp://dbpedia.org/resource/ISO_639:w
p70
aa(lp71
a(lp72
a(lp73
a(lp74
Vhttp://dbpedia.org/resource/Gray_(unit)
p75
aa(lp76
a(lp77
aa.