(lp1
(lp2
(lp3
a(lp4
a(lp5
a(lp6
a(lp7
aa(lp8
(lp9
a(lp10
a(lp11
a(lp12
a(lp13
((lVhttp://dbpedia.org/resource/Null
tp14
aaa(lp15
(lp16
a(lp17
a(lp18
((lVhttp://dbpedia.org/resource/Null
tp19
aa(lp20
a(lp21
((lVhttp://dbpedia.org/resource/Null
tp22
aaa(lp23
(lp24
((lVhttp://dbpedia.org/resource/Null
tp25
aa(lp26
((lVhttp://dbpedia.org/resource/Null
tp27
aa(lp28
((lVhttp://dbpedia.org/resource/Null
tp29
aa(lp30
((lVhttp://dbpedia.org/resource/Null
tp31
aa(lp32
((lVhttp://dbpedia.org/resource/Null
tp33
aaa(lp34
(lp35
a(lp36
a(lp37
a(lp38
((lVhttp://dbpedia.org/resource/Null
tp39
aa(lp40
((lVhttp://dbpedia.org/resource/Null
tp41
aaa(lp42
(lp43
a(lp44
a(lp45
a(lp46
a(lp47
aa(lp48
(lp49
a(lp50
a(lp51
a(lp52
a(lp53
((lVhttp://dbpedia.org/resource/Null
tp54
aaa(lp55
(lp56
a(lp57
a(lp58
a(lp59
a(lp60
((lVhttp://dbpedia.org/resource/Null
tp61
aaa(lp62
(lp63
a(lp64
a(lp65
a(lp66
a(lp67
((lVhttp://dbpedia.org/resource/Null
tp68
aaa(lp69
(lp70
a(lp71
a(lp72
a(lp73
a(lp74
((lVhttp://dbpedia.org/resource/Null
tp75
aaa(lp76
(lp77
a(lp78
a(lp79
a(lp80
a(lp81
((lVhttp://dbpedia.org/resource/Null
tp82
aaa(lp83
(lp84
a(lp85
a(lp86
a(lp87
a(lp88
((lVhttp://dbpedia.org/resource/Null
tp89
aaa(lp90
(lp91
a(lp92
a(lp93
a(lp94
a(lp95
((lVhttp://dbpedia.org/resource/Null
tp96
aaa(lp97
(lp98
((lVhttp://dbpedia.org/resource/Null
tp99
aa(lp100
((lVhttp://dbpedia.org/resource/Null
tp101
aa(lp102
((lVhttp://dbpedia.org/resource/Null
tp103
aa(lp104
((lVhttp://dbpedia.org/resource/Null
tp105
aa(lp106
((lVhttp://dbpedia.org/resource/Null
tp107
aaa(lp108
(lp109
a(lp110
a(lp111
a(lp112
((lVhttp://dbpedia.org/resource/Null
tp113
aa(lp114
((lVhttp://dbpedia.org/resource/Null
tp115
aaa(lp116
(lp117
a(lp118
a(lp119
a(lp120
a(lp121
aa(lp122
(lp123
a(lp124
a(lp125
((lVhttp://dbpedia.org/resource/Null
tp126
aa(lp127
a(lp128
((lVhttp://dbpedia.org/resource/Null
tp129
aaa(lp130
(lp131
a(lp132
a(lp133
((lVhttp://dbpedia.org/resource/Null
tp134
aa(lp135
a(lp136
((lVhttp://dbpedia.org/resource/Null
tp137
aaa(lp138
(lp139
a(lp140
a(lp141
a(lp142
a(lp143
((lVhttp://dbpedia.org/resource/Null
tp144
aaa(lp145
(lp146
a(lp147
a(lp148
a(lp149
a(lp150
((lVhttp://dbpedia.org/resource/Null
p151
tp152
aaa.