(lp1
(lp2
(lp3
((lVhttp://dbpedia.org/resource/Annam_(name)
tp4
aa(lp5
((lVhttp://dbpedia.org/resource/Hue
tp6
aa(lp7
a(lp8
((lp9
Vhttp://www.w3.org/2002/07/owl#Thing
p10
aVhttp://dbpedia.org/resource/History_of_China
tp11
aa(lp12
((lVhttp://dbpedia.org/resource/Null
tp13
aaa(lp14
(lp15
((lp16
Vhttp://www.w3.org/2002/07/owl#Thing
p17
aVhttp://dbpedia.org/class/yago/Land109334396
p18
aVhttp://dbpedia.org/class/yago/Location100027167
p19
aVhttp://dbpedia.org/class/yago/Object100002684
p20
aVhttp://dbpedia.org/class/yago/Peninsula109388848
p21
aVhttp://dbpedia.org/class/yago/Region108630039
p22
aVhttp://dbpedia.org/class/yago/YagoGeoEntity
p23
aVhttp://dbpedia.org/class/yago/YagoLegalActorGeo
p24
aVhttp://dbpedia.org/class/yago/PhysicalEntity100001930
p25
aVhttp://dbpedia.org/class/yago/YagoPermanentlyLocatedEntity
p26
aVhttp://dbpedia.org/class/yago/PeninsulasOfAsia
p27
aVhttp://dbpedia.org/class/yago/RegionsOfAsia
p28
aVhttp://dbpedia.org/resource/Arabian_Peninsula
tp29
aa(lp30
((lp31
Vhttp://www.w3.org/2002/07/owl#Thing
p32
aVhttp://dbpedia.org/ontology/Place
p33
aVhttp://dbpedia.org/ontology/Location
p34
aVhttp://www.wikidata.org/entity/Q486972
p35
aVhttp://dbpedia.org/ontology/PopulatedPlace
p36
aVhttp://dbpedia.org/ontology/Settlement
p37
aVhttp://www.w3.org/2003/01/geo/wgs84_pos#SpatialThing
p38
aVhttp://schema.org/Place
p39
aVhttp://umbel.org/umbel/rc/Location_Underspecified
p40
aVhttp://umbel.org/umbel/rc/PopulatedPlace
p41
aVhttp://umbel.org/umbel/rc/Village
p42
aVhttp://dbpedia.org/class/yago/AdministrativeDistrict108491826
p43
aVhttp://dbpedia.org/class/yago/Area108497294
p44
aVhttp://dbpedia.org/class/yago/Capital108518505
p45
aVhttp://dbpedia.org/class/yago/CapitalsInAsia
p46
aVhttp://dbpedia.org/class/yago/Center108523483
p47
aVhttp://dbpedia.org/class/yago/City108524735
p48
aVhttp://dbpedia.org/class/yago/District108552138
p49
aVhttp://dbpedia.org/class/yago/Location100027167
p50
aVhttp://dbpedia.org/class/yago/Object100002684
p51
aVhttp://dbpedia.org/class/yago/Region108630985
p52
aVhttp://dbpedia.org/class/yago/Seat108647945
p53
aVhttp://dbpedia.org/class/yago/Site108651247
p54
aVhttp://dbpedia.org/class/yago/Tract108673395
p55
aVhttp://dbpedia.org/class/yago/UrbanArea108675967
p56
aVhttp://dbpedia.org/class/yago/YagoGeoEntity
p57
aVhttp://dbpedia.org/class/yago/YagoLegalActorGeo
p58
aVhttp://dbpedia.org/class/yago/GeographicalArea108574314
p59
aVhttp://dbpedia.org/class/yago/Municipality108626283
p60
aVhttp://dbpedia.org/class/yago/PhysicalEntity100001930
p61
aVhttp://dbpedia.org/class/yago/YagoPermanentlyLocatedEntity
p62
aVhttp://dbpedia.org/class/yago/ProvincialCapital108695198
p63
aVhttp://dbpedia.org/class/yago/PopulatedPlacesInRiyadhProvince
p64
aVhttp://dbpedia.org/class/yago/ProvincialCapitalsOfSaudiArabia
p65
aVhttp://dbpedia.org/resource/Riyadh
tp66
aa(lp67
a(lp68
((lp69
Vhttp://www.w3.org/2002/07/owl#Thing
p70
aVhttp://dbpedia.org/ontology/Place
p71
aVhttp://dbpedia.org/ontology/Location
p72
aVhttp://www.wikidata.org/entity/Q486972
p73
aVhttp://www.wikidata.org/entity/Q6256
p74
aVhttp://dbpedia.org/ontology/Country
p75
aVhttp://dbpedia.org/ontology/PopulatedPlace
p76
aVhttp://schema.org/Country
p77
aVhttp://schema.org/Place
p78
aVhttp://umbel.org/umbel/rc/Country
p79
aVhttp://umbel.org/umbel/rc/Location_Underspecified
p80
aVhttp://umbel.org/umbel/rc/PopulatedPlace
p81
aVhttp://dbpedia.org/class/yago/AdministrativeDistrict108491826
p82
aVhttp://dbpedia.org/class/yago/Country108544813
p83
aVhttp://dbpedia.org/class/yago/District108552138
p84
aVhttp://dbpedia.org/class/yago/Domain108556491
p85
aVhttp://dbpedia.org/class/yago/Location100027167
p86
aVhttp://dbpedia.org/class/yago/Object100002684
p87
aVhttp://dbpedia.org/class/yago/Region108630985
p88
aVhttp://dbpedia.org/class/yago/YagoGeoEntity
p89
aVhttp://dbpedia.org/class/yago/YagoLegalActorGeo
p90
aVhttp://dbpedia.org/class/yago/Empire108557482
p91
aVhttp://dbpedia.org/class/yago/Empires
p92
aVhttp://dbpedia.org/class/yago/PhysicalEntity100001930
p93
aVhttp://dbpedia.org/class/yago/YagoPermanentlyLocatedEntity
p94
aVhttp://dbpedia.org/class/yago/OverseasEmpires
p95
aVhttp://dbpedia.org/resource/British_Empire
tp96
aa(lp97
((lVhttp://dbpedia.org/resource/Null
tp98
aaa(lp99
(lp100
((lp101
Vhttp://www.w3.org/2002/07/owl#Thing
p102
aVhttp://dbpedia.org/ontology/Place
p103
aVhttp://dbpedia.org/ontology/Location
p104
aVhttp://www.wikidata.org/entity/Q486972
p105
aVhttp://www.wikidata.org/entity/Q6256
p106
aVhttp://dbpedia.org/ontology/Country
p107
aVhttp://dbpedia.org/ontology/PopulatedPlace
p108
aVhttp://www.w3.org/2003/01/geo/wgs84_pos#SpatialThing
p109
aVhttp://schema.org/Country
p110
aVhttp://schema.org/Place
p111
aVhttp://umbel.org/umbel/rc/Country
p112
aVhttp://umbel.org/umbel/rc/Location_Underspecified
p113
aVhttp://umbel.org/umbel/rc/PopulatedPlace
p114
aVhttp://dbpedia.org/class/yago/Abstraction100002137
p115
aVhttp://dbpedia.org/class/yago/AdministrativeDistrict108491826
p116
aVhttp://dbpedia.org/class/yago/Country108544813
p117
aVhttp://dbpedia.org/class/yago/District108552138
p118
aVhttp://dbpedia.org/class/yago/Economy108366753
p119
aVhttp://dbpedia.org/class/yago/Group100031264
p120
aVhttp://dbpedia.org/class/yago/Location100027167
p121
aVhttp://dbpedia.org/class/yago/Object100002684
p122
aVhttp://dbpedia.org/class/yago/Region108630985
p123
aVhttp://dbpedia.org/class/yago/System108435388
p124
aVhttp://dbpedia.org/class/yago/YagoGeoEntity
p125
aVhttp://dbpedia.org/class/yago/YagoLegalActorGeo
p126
aVhttp://dbpedia.org/class/yago/CountriesBorderingTheSouthChinaSea
p127
aVhttp://dbpedia.org/class/yago/PhysicalEntity100001930
p128
aVhttp://dbpedia.org/class/yago/YagoPermanentlyLocatedEntity
p129
aVhttp://dbpedia.org/class/yago/IslandCountries
p130
aVhttp://dbpedia.org/class/yago/Malay-speakingCountriesAndTerritories
p131
aVhttp://dbpedia.org/class/yago/MemberStatesOfTheAssociationOfSoutheastAsianNations
p132
aVhttp://dbpedia.org/class/yago/MemberStatesOfTheCommonwealthOfNations
p133
aVhttp://dbpedia.org/class/yago/MemberStatesOfTheOrganisationOfIslamicCooperation
p134
aVhttp://dbpedia.org/class/yago/MemberStatesOfTheUnitedNations
p135
aVhttp://dbpedia.org/class/yago/SoutheastAsianCountries
p136
aVhttp://dbpedia.org/class/yago/StatesAndTerritoriesEstablishedIn1984
p137
aVhttp://dbpedia.org/class/yago/Sultanate108896327
p138
aVhttp://dbpedia.org/class/yago/Sultanates
p139
aVhttp://dbpedia.org/class/yago/WorldTradeOrganizationMemberEconomies
p140
aVhttp://dbpedia.org/resource/Brunei
tp141
aa(lp142
((lp143
Vhttp://www.w3.org/2002/07/owl#Thing
p144
aVhttp://dbpedia.org/ontology/Place
p145
aVhttp://dbpedia.org/ontology/Location
p146
aVhttp://www.wikidata.org/entity/Q486972
p147
aVhttp://dbpedia.org/ontology/PopulatedPlace
p148
aVhttp://dbpedia.org/ontology/Settlement
p149
aVhttp://www.w3.org/2003/01/geo/wgs84_pos#SpatialThing
p150
aVhttp://schema.org/Place
p151
aVhttp://umbel.org/umbel/rc/Location_Underspecified
p152
aVhttp://umbel.org/umbel/rc/PopulatedPlace
p153
aVhttp://umbel.org/umbel/rc/Village
p154
aVhttp://dbpedia.org/class/yago/AdministrativeDistrict108491826
p155
aVhttp://dbpedia.org/class/yago/Area108497294
p156
aVhttp://dbpedia.org/class/yago/Capital108518505
p157
aVhttp://dbpedia.org/class/yago/CapitalsInAsia
p158
aVhttp://dbpedia.org/class/yago/Center108523483
p159
aVhttp://dbpedia.org/class/yago/District108552138
p160
aVhttp://dbpedia.org/class/yago/Location100027167
p161
aVhttp://dbpedia.org/class/yago/Object100002684
p162
aVhttp://dbpedia.org/class/yago/Region108630985
p163
aVhttp://dbpedia.org/class/yago/Seat108647945
p164
aVhttp://dbpedia.org/class/yago/Site108651247
p165
aVhttp://dbpedia.org/class/yago/Tract108673395
p166
aVhttp://dbpedia.org/class/yago/YagoGeoEntity
p167
aVhttp://dbpedia.org/class/yago/YagoLegalActorGeo
p168
aVhttp://dbpedia.org/class/yago/GeographicalArea108574314
p169
aVhttp://dbpedia.org/class/yago/PhysicalEntity100001930
p170
aVhttp://dbpedia.org/class/yago/YagoPermanentlyLocatedEntity
p171
aVhttp://dbpedia.org/class/yago/PopulatedPlacesInBrunei
p172
aVhttp://dbpedia.org/resource/Bandar_Seri_Begawan
tp173
aa(lp174
a(lp175
((lp176
Vhttp://www.w3.org/2002/07/owl#Thing
p177
aVhttp://dbpedia.org/resource/History_of_China
tp178
aa(lp179
((lVhttp://dbpedia.org/resource/Null
tp180
aaa(lp181
(lp182
((lp183
Vhttp://www.w3.org/2002/07/owl#Thing
p184
aVhttp://dbpedia.org/ontology/Place
p185
aVhttp://dbpedia.org/ontology/Location
p186
aVhttp://www.wikidata.org/entity/Q486972
p187
aVhttp://www.wikidata.org/entity/Q515
p188
aVhttp://dbpedia.org/ontology/City
p189
aVhttp://dbpedia.org/ontology/PopulatedPlace
p190
aVhttp://dbpedia.org/ontology/Settlement
p191
aVhttp://www.w3.org/2003/01/geo/wgs84_pos#SpatialThing
p192
aVhttp://schema.org/City
p193
aVhttp://schema.org/Place
p194
aVhttp://dbpedia.org/class/yago/AdministrativeDistrict108491826
p195
aVhttp://dbpedia.org/class/yago/City108524735
p196
aVhttp://dbpedia.org/class/yago/District108552138
p197
aVhttp://dbpedia.org/class/yago/Location100027167
p198
aVhttp://dbpedia.org/class/yago/Object100002684
p199
aVhttp://dbpedia.org/class/yago/Region108630985
p200
aVhttp://dbpedia.org/class/yago/Site108651247
p201
aVhttp://dbpedia.org/class/yago/Tract108673395
p202
aVhttp://dbpedia.org/class/yago/UrbanArea108675967
p203
aVhttp://dbpedia.org/class/yago/YagoGeoEntity
p204
aVhttp://dbpedia.org/class/yago/YagoLegalActorGeo
p205
aVhttp://dbpedia.org/class/yago/CitiesAndTownsInErnakulamDistrict
p206
aVhttp://dbpedia.org/class/yago/FormerIndianCapitalCities
p207
aVhttp://dbpedia.org/class/yago/GeographicalArea108574314
p208
aVhttp://dbpedia.org/class/yago/Municipality108626283
p209
aVhttp://dbpedia.org/class/yago/PhysicalEntity100001930
p210
aVhttp://dbpedia.org/class/yago/YagoPermanentlyLocatedEntity
p211
aVhttp://dbpedia.org/class/yago/PopulatedCoastalPlacesInIndia
p212
aVhttp://dbpedia.org/class/yago/PortCitiesInIndia
p213
aVhttp://dbpedia.org/resource/Kochi
tp214
aa(lp215
((lp216
Vhttp://www.w3.org/2002/07/owl#Thing
p217
aVhttp://dbpedia.org/ontology/Place
p218
aVhttp://dbpedia.org/ontology/Location
p219
aVhttp://www.wikidata.org/entity/Q486972
p220
aVhttp://dbpedia.org/ontology/PopulatedPlace
p221
aVhttp://dbpedia.org/ontology/Settlement
p222
aVhttp://www.w3.org/2003/01/geo/wgs84_pos#SpatialThing
p223
aVhttp://schema.org/Place
p224
aVhttp://umbel.org/umbel/rc/City
p225
aVhttp://umbel.org/umbel/rc/Location_Underspecified
p226
aVhttp://umbel.org/umbel/rc/PopulatedPlace
p227
aVhttp://umbel.org/umbel/rc/Village
p228
aVhttp://dbpedia.org/class/yago/AdministrativeDistrict108491826
p229
aVhttp://dbpedia.org/class/yago/Area108497294
p230
aVhttp://dbpedia.org/class/yago/Capital108518505
p231
aVhttp://dbpedia.org/class/yago/Center108523483
p232
aVhttp://dbpedia.org/class/yago/City108524735
p233
aVhttp://dbpedia.org/class/yago/District108552138
p234
aVhttp://dbpedia.org/class/yago/Location100027167
p235
aVhttp://dbpedia.org/class/yago/Object100002684
p236
aVhttp://dbpedia.org/class/yago/Region108630985
p237
aVhttp://dbpedia.org/class/yago/Seat108647945
p238
aVhttp://dbpedia.org/class/yago/Site108651247
p239
aVhttp://dbpedia.org/class/yago/Tract108673395
p240
aVhttp://dbpedia.org/class/yago/UrbanArea108675967
p241
aVhttp://dbpedia.org/class/yago/YagoGeoEntity
p242
aVhttp://dbpedia.org/class/yago/YagoLegalActorGeo
p243
aVhttp://dbpedia.org/class/yago/CitiesInVietnam
p244
aVhttp://dbpedia.org/class/yago/DistrictCapitalsInVietnam
p245
aVhttp://dbpedia.org/class/yago/GeographicalArea108574314
p246
aVhttp://dbpedia.org/class/yago/Municipality108626283
p247
aVhttp://dbpedia.org/class/yago/PhysicalEntity100001930
p248
aVhttp://dbpedia.org/class/yago/YagoPermanentlyLocatedEntity
p249
aVhttp://dbpedia.org/class/yago/PopulatedPlacesInHoChiMinhCity
p250
aVhttp://dbpedia.org/class/yago/PortCitiesInVietnam
p251
aVhttp://dbpedia.org/resource/Ho_Chi_Minh_City
tp252
aa(lp253
a(lp254
((lp255
Vhttp://www.w3.org/2002/07/owl#Thing
p256
aVhttp://dbpedia.org/resource/History_of_China
tp257
aa(lp258
((lVhttp://dbpedia.org/resource/Null
tp259
aaa(lp260
(lp261
((lp262
Vhttp://www.w3.org/2002/07/owl#Thing
p263
aVhttp://dbpedia.org/ontology/Place
p264
aVhttp://dbpedia.org/ontology/Location
p265
aVhttp://www.wikidata.org/entity/Q486972
p266
aVhttp://dbpedia.org/ontology/PopulatedPlace
p267
aVhttp://schema.org/Place
p268
aVhttp://dbpedia.org/class/yago/Location100027167
p269
aVhttp://dbpedia.org/class/yago/Object100002684
p270
aVhttp://dbpedia.org/class/yago/Region108630039
p271
aVhttp://dbpedia.org/class/yago/YagoGeoEntity
p272
aVhttp://dbpedia.org/class/yago/YagoLegalActorGeo
p273
aVhttp://dbpedia.org/class/yago/CulturalRegions
p274
aVhttp://dbpedia.org/class/yago/DividedRegions
p275
aVhttp://dbpedia.org/class/yago/PhysicalEntity100001930
p276
aVhttp://dbpedia.org/class/yago/YagoPermanentlyLocatedEntity
p277
aVhttp://dbpedia.org/resource/Kurdistan
tp278
aa(lp279
((lVhttp://dbpedia.org/resource/Van
tp280
aa(lp281
((lp282
Vhttp://dbpedia.org/class/yago/Abstraction100002137
p283
aVhttp://dbpedia.org/class/yago/Alphabet106497459
p284
aVhttp://dbpedia.org/class/yago/ArabicAlphabets
p285
aVhttp://dbpedia.org/class/yago/CharacterSet106488880
p286
aVhttp://dbpedia.org/class/yago/Communication100033020
p287
aVhttp://dbpedia.org/class/yago/Information106634376
p288
aVhttp://dbpedia.org/class/yago/List106481320
p289
aVhttp://dbpedia.org/class/yago/Message106598915
p290
aVhttp://dbpedia.org/class/yago/Orthography106351202
p291
aVhttp://dbpedia.org/class/yago/Script106351613
p292
aVhttp://dbpedia.org/class/yago/Writing106359877
p293
aVhttp://dbpedia.org/class/yago/Database106637824
p294
aVhttp://dbpedia.org/class/yago/WrittenCommunication106349220
p295
aVhttp://dbpedia.org/class/yago/LatinAlphabets
p296
aVhttp://dbpedia.org/resource/Kurdish_alphabets
tp297
aa(lp298
a(lp299
((lVhttp://dbpedia.org/resource/Null
tp300
aaa(lp301
(lp302
((lp303
Vhttp://www.w3.org/2002/07/owl#Thing
p304
aVhttp://dbpedia.org/ontology/Place
p305
aVhttp://dbpedia.org/ontology/Location
p306
aVhttp://www.wikidata.org/entity/Q486972
p307
aVhttp://www.wikidata.org/entity/Q6256
p308
aVhttp://dbpedia.org/ontology/Country
p309
aVhttp://dbpedia.org/ontology/PopulatedPlace
p310
aVhttp://www.w3.org/2003/01/geo/wgs84_pos#SpatialThing
p311
aVhttp://schema.org/Country
p312
aVhttp://schema.org/Place
p313
aVhttp://umbel.org/umbel/rc/Country
p314
aVhttp://umbel.org/umbel/rc/Location_Underspecified
p315
aVhttp://umbel.org/umbel/rc/PopulatedPlace
p316
aVhttp://dbpedia.org/class/yago/Abstraction100002137
p317
aVhttp://dbpedia.org/class/yago/AdministrativeDistrict108491826
p318
aVhttp://dbpedia.org/class/yago/Arabic-speakingCountriesAndTerritories
p319
aVhttp://dbpedia.org/class/yago/Country108544813
p320
aVhttp://dbpedia.org/class/yago/District108552138
p321
aVhttp://dbpedia.org/class/yago/Domain108556491
p322
aVhttp://dbpedia.org/class/yago/Economy108366753
p323
aVhttp://dbpedia.org/class/yago/Group100031264
p324
aVhttp://dbpedia.org/class/yago/Location100027167
p325
aVhttp://dbpedia.org/class/yago/Object100002684
p326
aVhttp://dbpedia.org/class/yago/Region108630985
p327
aVhttp://dbpedia.org/class/yago/System108435388
p328
aVhttp://dbpedia.org/class/yago/YagoGeoEntity
p329
aVhttp://dbpedia.org/class/yago/YagoLegalActorGeo
p330
aVhttp://dbpedia.org/class/yago/Emirate108557396
p331
aVhttp://dbpedia.org/class/yago/Emirates
p332
aVhttp://dbpedia.org/class/yago/PhysicalEntity100001930
p333
aVhttp://dbpedia.org/class/yago/YagoPermanentlyLocatedEntity
p334
aVhttp://dbpedia.org/class/yago/MemberStatesOfOPEC
p335
aVhttp://dbpedia.org/class/yago/MemberStatesOfTheArabLeague
p336
aVhttp://dbpedia.org/class/yago/MemberStatesOfTheCooperationCouncilForTheArabStatesOfTheGulf
p337
aVhttp://dbpedia.org/class/yago/MemberStatesOfTheOrganisationOfIslamicCooperation
p338
aVhttp://dbpedia.org/class/yago/MemberStatesOfTheUnitedNations
p339
aVhttp://dbpedia.org/class/yago/MiddleEasternCountries
p340
aVhttp://dbpedia.org/class/yago/PersianGulfCountries
p341
aVhttp://dbpedia.org/class/yago/StatesAndTerritoriesEstablishedIn1961
p342
aVhttp://dbpedia.org/class/yago/WesternAsianCountries
p343
aVhttp://dbpedia.org/class/yago/WorldTradeOrganizationMemberEconomies
p344
aVhttp://dbpedia.org/resource/Kuwait
tp345
aa(lp346
((lp347
Vhttp://www.w3.org/2002/07/owl#Thing
p348
aVhttp://dbpedia.org/ontology/Place
p349
aVhttp://dbpedia.org/ontology/Location
p350
aVhttp://www.wikidata.org/entity/Q486972
p351
aVhttp://dbpedia.org/ontology/PopulatedPlace
p352
aVhttp://dbpedia.org/ontology/Settlement
p353
aVhttp://www.w3.org/2003/01/geo/wgs84_pos#SpatialThing
p354
aVhttp://schema.org/Place
p355
aVhttp://umbel.org/umbel/rc/Location_Underspecified
p356
aVhttp://umbel.org/umbel/rc/PopulatedPlace
p357
aVhttp://umbel.org/umbel/rc/Village
p358
aVhttp://dbpedia.org/class/yago/AdministrativeDistrict108491826
p359
aVhttp://dbpedia.org/class/yago/Area108497294
p360
aVhttp://dbpedia.org/class/yago/Capital108518505
p361
aVhttp://dbpedia.org/class/yago/CapitalsInAsia
p362
aVhttp://dbpedia.org/class/yago/Center108523483
p363
aVhttp://dbpedia.org/class/yago/City108524735
p364
aVhttp://dbpedia.org/class/yago/District108552138
p365
aVhttp://dbpedia.org/class/yago/Location100027167
p366
aVhttp://dbpedia.org/class/yago/Object100002684
p367
aVhttp://dbpedia.org/class/yago/Region108630985
p368
aVhttp://dbpedia.org/class/yago/Seat108647945
p369
aVhttp://dbpedia.org/class/yago/Site108651247
p370
aVhttp://dbpedia.org/class/yago/Tract108673395
p371
aVhttp://dbpedia.org/class/yago/UrbanArea108675967
p372
aVhttp://dbpedia.org/class/yago/YagoGeoEntity
p373
aVhttp://dbpedia.org/class/yago/YagoLegalActorGeo
p374
aVhttp://dbpedia.org/class/yago/DistrictsOfAlAsimahGovernorate(Kuwait)
p375
aVhttp://dbpedia.org/class/yago/GeographicalArea108574314
p376
aVhttp://dbpedia.org/class/yago/Municipality108626283
p377
aVhttp://dbpedia.org/class/yago/PhysicalEntity100001930
p378
aVhttp://dbpedia.org/class/yago/YagoPermanentlyLocatedEntity
p379
aVhttp://dbpedia.org/class/yago/PopulatedCoastalPlacesInKuwait
p380
aVhttp://dbpedia.org/class/yago/PopulatedPlacesInKuwait
p381
aVhttp://dbpedia.org/class/yago/PortCitiesAndTownsInKuwait
p382
aVhttp://dbpedia.org/class/yago/PortCitiesAndTownsOfThePersianGulf
p383
aVhttp://dbpedia.org/resource/Kuwait_City
tp384
aa(lp385
((lVhttp://dbpedia.org/resource/Arabic_English
tp386
aa(lp387
((lp388
Vhttp://www.w3.org/2002/07/owl#Thing
p389
aVhttp://dbpedia.org/ontology/Place
p390
aVhttp://dbpedia.org/ontology/Location
p391
aVhttp://www.wikidata.org/entity/Q486972
p392
aVhttp://www.wikidata.org/entity/Q6256
p393
aVhttp://dbpedia.org/ontology/Country
p394
aVhttp://dbpedia.org/ontology/PopulatedPlace
p395
aVhttp://schema.org/Country
p396
aVhttp://schema.org/Place
p397
aVhttp://umbel.org/umbel/rc/Country
p398
aVhttp://umbel.org/umbel/rc/Location_Underspecified
p399
aVhttp://umbel.org/umbel/rc/PopulatedPlace
p400
aVhttp://dbpedia.org/class/yago/AdministrativeDistrict108491826
p401
aVhttp://dbpedia.org/class/yago/Country108544813
p402
aVhttp://dbpedia.org/class/yago/District108552138
p403
aVhttp://dbpedia.org/class/yago/Domain108556491
p404
aVhttp://dbpedia.org/class/yago/Location100027167
p405
aVhttp://dbpedia.org/class/yago/Object100002684
p406
aVhttp://dbpedia.org/class/yago/Region108630985
p407
aVhttp://dbpedia.org/class/yago/YagoGeoEntity
p408
aVhttp://dbpedia.org/class/yago/YagoLegalActorGeo
p409
aVhttp://dbpedia.org/class/yago/Empire108557482
p410
aVhttp://dbpedia.org/class/yago/Empires
p411
aVhttp://dbpedia.org/class/yago/PhysicalEntity100001930
p412
aVhttp://dbpedia.org/class/yago/YagoPermanentlyLocatedEntity
p413
aVhttp://dbpedia.org/class/yago/OverseasEmpires
p414
aVhttp://dbpedia.org/resource/British_Empire
tp415
aa(lp416
((lVhttp://dbpedia.org/resource/Null
tp417
aaa(lp418
(lp419
((lp420
Vhttp://www.w3.org/2002/07/owl#Thing
p421
aVhttp://dbpedia.org/ontology/Place
p422
aVhttp://dbpedia.org/ontology/Location
p423
aVhttp://www.wikidata.org/entity/Q486972
p424
aVhttp://www.wikidata.org/entity/Q6256
p425
aVhttp://dbpedia.org/ontology/Country
p426
aVhttp://dbpedia.org/ontology/PopulatedPlace
p427
aVhttp://www.w3.org/2003/01/geo/wgs84_pos#SpatialThing
p428
aVhttp://schema.org/Country
p429
aVhttp://schema.org/Place
p430
aVhttp://umbel.org/umbel/rc/Country
p431
aVhttp://umbel.org/umbel/rc/Location_Underspecified
p432
aVhttp://umbel.org/umbel/rc/PopulatedPlace
p433
aVhttp://dbpedia.org/class/yago/Abstraction100002137
p434
aVhttp://dbpedia.org/class/yago/AdministrativeDistrict108491826
p435
aVhttp://dbpedia.org/class/yago/Arabic-speakingCountriesAndTerritories
p436
aVhttp://dbpedia.org/class/yago/Country108544813
p437
aVhttp://dbpedia.org/class/yago/District108552138
p438
aVhttp://dbpedia.org/class/yago/Economy108366753
p439
aVhttp://dbpedia.org/class/yago/Group100031264
p440
aVhttp://dbpedia.org/class/yago/Location100027167
p441
aVhttp://dbpedia.org/class/yago/Object100002684
p442
aVhttp://dbpedia.org/class/yago/Region108630985
p443
aVhttp://dbpedia.org/class/yago/System108435388
p444
aVhttp://dbpedia.org/class/yago/YagoGeoEntity
p445
aVhttp://dbpedia.org/class/yago/YagoLegalActorGeo
p446
aVhttp://dbpedia.org/class/yago/PhysicalEntity100001930
p447
aVhttp://dbpedia.org/class/yago/YagoPermanentlyLocatedEntity
p448
aVhttp://dbpedia.org/class/yago/MemberStatesOfOPEC
p449
aVhttp://dbpedia.org/class/yago/MemberStatesOfTheArabLeague
p450
aVhttp://dbpedia.org/class/yago/MemberStatesOfTheOrganisationOfIslamicCooperation
p451
aVhttp://dbpedia.org/class/yago/MemberStatesOfTheUnitedNations
p452
aVhttp://dbpedia.org/class/yago/MiddleEasternCountries
p453
aVhttp://dbpedia.org/class/yago/NearEasternCountries
p454
aVhttp://dbpedia.org/class/yago/PersianGulfCountries
p455
aVhttp://dbpedia.org/class/yago/StatesAndTerritoriesEstablishedIn1932
p456
aVhttp://dbpedia.org/class/yago/WesternAsianCountries
p457
aVhttp://dbpedia.org/resource/Iraq
tp458
aa(lp459
((lp460
Vhttp://www.w3.org/2002/07/owl#Thing
p461
aVhttp://dbpedia.org/ontology/Place
p462
aVhttp://dbpedia.org/ontology/Location
p463
aVhttp://www.wikidata.org/entity/Q486972
p464
aVhttp://www.wikidata.org/entity/Q515
p465
aVhttp://dbpedia.org/ontology/City
p466
aVhttp://dbpedia.org/ontology/PopulatedPlace
p467
aVhttp://dbpedia.org/ontology/Settlement
p468
aVhttp://www.w3.org/2003/01/geo/wgs84_pos#SpatialThing
p469
aVhttp://schema.org/City
p470
aVhttp://schema.org/Place
p471
aVhttp://umbel.org/umbel/rc/Location_Underspecified
p472
aVhttp://umbel.org/umbel/rc/PopulatedPlace
p473
aVhttp://umbel.org/umbel/rc/Village
p474
aVhttp://dbpedia.org/class/yago/AdministrativeDistrict108491826
p475
aVhttp://dbpedia.org/class/yago/Area108497294
p476
aVhttp://dbpedia.org/class/yago/Capital108518505
p477
aVhttp://dbpedia.org/class/yago/CapitalsInAsia
p478
aVhttp://dbpedia.org/class/yago/Center108523483
p479
aVhttp://dbpedia.org/class/yago/City108524735
p480
aVhttp://dbpedia.org/class/yago/District108552138
p481
aVhttp://dbpedia.org/class/yago/Location100027167
p482
aVhttp://dbpedia.org/class/yago/Object100002684
p483
aVhttp://dbpedia.org/class/yago/Region108630985
p484
aVhttp://dbpedia.org/class/yago/Seat108647945
p485
aVhttp://dbpedia.org/class/yago/Site108651247
p486
aVhttp://dbpedia.org/class/yago/Tract108673395
p487
aVhttp://dbpedia.org/class/yago/UrbanArea108675967
p488
aVhttp://dbpedia.org/class/yago/YagoGeoEntity
p489
aVhttp://dbpedia.org/class/yago/YagoLegalActorGeo
p490
aVhttp://dbpedia.org/class/yago/CitiesInIraq
p491
aVhttp://dbpedia.org/class/yago/GeographicalArea108574314
p492
aVhttp://dbpedia.org/class/yago/Municipality108626283
p493
aVhttp://dbpedia.org/class/yago/PhysicalEntity100001930
p494
aVhttp://dbpedia.org/class/yago/YagoPermanentlyLocatedEntity
p495
aVhttp://dbpedia.org/class/yago/PopulatedPlacesEstablishedInThe8thCentury
p496
aVhttp://dbpedia.org/resource/Baghdad
tp497
aa(lp498
((lVhttp://dbpedia.org/resource/Arabic_English
tp499
aa(lp500
((lp501
Vhttp://www.w3.org/2002/07/owl#Thing
p502
aVhttp://dbpedia.org/ontology/Place
p503
aVhttp://dbpedia.org/ontology/Location
p504
aVhttp://www.wikidata.org/entity/Q486972
p505
aVhttp://www.wikidata.org/entity/Q6256
p506
aVhttp://dbpedia.org/ontology/Country
p507
aVhttp://dbpedia.org/ontology/PopulatedPlace
p508
aVhttp://schema.org/Country
p509
aVhttp://schema.org/Place
p510
aVhttp://umbel.org/umbel/rc/Country
p511
aVhttp://umbel.org/umbel/rc/Location_Underspecified
p512
aVhttp://umbel.org/umbel/rc/PopulatedPlace
p513
aVhttp://dbpedia.org/class/yago/AdministrativeDistrict108491826
p514
aVhttp://dbpedia.org/class/yago/Country108544813
p515
aVhttp://dbpedia.org/class/yago/District108552138
p516
aVhttp://dbpedia.org/class/yago/Domain108556491
p517
aVhttp://dbpedia.org/class/yago/Location100027167
p518
aVhttp://dbpedia.org/class/yago/Object100002684
p519
aVhttp://dbpedia.org/class/yago/Region108630985
p520
aVhttp://dbpedia.org/class/yago/YagoGeoEntity
p521
aVhttp://dbpedia.org/class/yago/YagoLegalActorGeo
p522
aVhttp://dbpedia.org/class/yago/Empire108557482
p523
aVhttp://dbpedia.org/class/yago/Empires
p524
aVhttp://dbpedia.org/class/yago/PhysicalEntity100001930
p525
aVhttp://dbpedia.org/class/yago/YagoPermanentlyLocatedEntity
p526
aVhttp://dbpedia.org/class/yago/OverseasEmpires
p527
aVhttp://dbpedia.org/resource/British_Empire
tp528
aa(lp529
((lVhttp://dbpedia.org/resource/Null
tp530
aaa(lp531
(lp532
((lp533
Vhttp://www.w3.org/2002/07/owl#Thing
p534
aVhttp://dbpedia.org/ontology/Place
p535
aVhttp://dbpedia.org/ontology/Location
p536
aVhttp://www.wikidata.org/entity/Q486972
p537
aVhttp://www.wikidata.org/entity/Q6256
p538
aVhttp://dbpedia.org/ontology/Country
p539
aVhttp://dbpedia.org/ontology/PopulatedPlace
p540
aVhttp://www.w3.org/2003/01/geo/wgs84_pos#SpatialThing
p541
aVhttp://schema.org/Country
p542
aVhttp://schema.org/Place
p543
aVhttp://umbel.org/umbel/rc/Country
p544
aVhttp://umbel.org/umbel/rc/Location_Underspecified
p545
aVhttp://umbel.org/umbel/rc/PopulatedPlace
p546
aVhttp://dbpedia.org/class/yago/Abstraction100002137
p547
aVhttp://dbpedia.org/class/yago/AdministrativeDistrict108491826
p548
aVhttp://dbpedia.org/class/yago/Country108544813
p549
aVhttp://dbpedia.org/class/yago/District108552138
p550
aVhttp://dbpedia.org/class/yago/Domain108556491
p551
aVhttp://dbpedia.org/class/yago/Economy108366753
p552
aVhttp://dbpedia.org/class/yago/Group100031264
p553
aVhttp://dbpedia.org/class/yago/Location100027167
p554
aVhttp://dbpedia.org/class/yago/Object100002684
p555
aVhttp://dbpedia.org/class/yago/Region108630985
p556
aVhttp://dbpedia.org/class/yago/System108435388
p557
aVhttp://dbpedia.org/class/yago/YagoGeoEntity
p558
aVhttp://dbpedia.org/class/yago/YagoLegalActorGeo
p559
aVhttp://dbpedia.org/class/yago/CountriesBorderingThePacificOcean
p560
aVhttp://dbpedia.org/class/yago/CountriesBorderingThePhilippineSea
p561
aVhttp://dbpedia.org/class/yago/EastAsianCountries
p562
aVhttp://dbpedia.org/class/yago/Empire108557482
p563
aVhttp://dbpedia.org/class/yago/Empires
p564
aVhttp://dbpedia.org/class/yago/PhysicalEntity100001930
p565
aVhttp://dbpedia.org/class/yago/YagoPermanentlyLocatedEntity
p566
aVhttp://dbpedia.org/class/yago/IslandCountries
p567
aVhttp://dbpedia.org/class/yago/MemberStatesOfTheUnitedNations
p568
aVhttp://dbpedia.org/class/yago/StatesAndTerritoriesEstablishedIn660BC
p569
aVhttp://dbpedia.org/resource/Japan
tp570
aa(lp571
((lp572
Vhttp://www.w3.org/2002/07/owl#Thing
p573
aVhttp://dbpedia.org/ontology/Place
p574
aVhttp://dbpedia.org/ontology/Location
p575
aVhttp://www.wikidata.org/entity/Q486972
p576
aVhttp://www.wikidata.org/entity/Q515
p577
aVhttp://dbpedia.org/ontology/City
p578
aVhttp://dbpedia.org/ontology/PopulatedPlace
p579
aVhttp://dbpedia.org/ontology/Settlement
p580
aVhttp://www.w3.org/2003/01/geo/wgs84_pos#SpatialThing
p581
aVhttp://schema.org/City
p582
aVhttp://schema.org/Place
p583
aVhttp://umbel.org/umbel/rc/Location_Underspecified
p584
aVhttp://umbel.org/umbel/rc/PopulatedPlace
p585
aVhttp://umbel.org/umbel/rc/Village
p586
aVhttp://dbpedia.org/class/yago/AdministrativeDistrict108491826
p587
aVhttp://dbpedia.org/class/yago/Area108497294
p588
aVhttp://dbpedia.org/class/yago/Capital108518505
p589
aVhttp://dbpedia.org/class/yago/CapitalsInAsia
p590
aVhttp://dbpedia.org/class/yago/Center108523483
p591
aVhttp://dbpedia.org/class/yago/City108524735
p592
aVhttp://dbpedia.org/class/yago/District108552138
p593
aVhttp://dbpedia.org/class/yago/Location100027167
p594
aVhttp://dbpedia.org/class/yago/Object100002684
p595
aVhttp://dbpedia.org/class/yago/Prefecture108626947
p596
aVhttp://dbpedia.org/class/yago/Region108630985
p597
aVhttp://dbpedia.org/class/yago/Seat108647945
p598
aVhttp://dbpedia.org/class/yago/Site108651247
p599
aVhttp://dbpedia.org/class/yago/Tract108673395
p600
aVhttp://dbpedia.org/class/yago/UrbanArea108675967
p601
aVhttp://dbpedia.org/class/yago/YagoGeoEntity
p602
aVhttp://dbpedia.org/class/yago/YagoLegalActorGeo
p603
aVhttp://dbpedia.org/class/yago/GeographicalArea108574314
p604
aVhttp://dbpedia.org/class/yago/Municipality108626283
p605
aVhttp://dbpedia.org/class/yago/PhysicalEntity100001930
p606
aVhttp://dbpedia.org/class/yago/YagoPermanentlyLocatedEntity
p607
aVhttp://dbpedia.org/class/yago/HostCitiesOfTheSummerOlympicGames
p608
aVhttp://dbpedia.org/class/yago/PopulatedCoastalPlacesInJapan
p609
aVhttp://dbpedia.org/class/yago/PopulatedPlacesEstablishedIn1457
p610
aVhttp://dbpedia.org/class/yago/PortSettlementsInJapan
p611
aVhttp://dbpedia.org/class/yago/PrefecturesOfJapan
p612
aVhttp://dbpedia.org/resource/Tokyo
tp613
aa(lp614
((lp615
Vhttp://dbpedia.org/class/yago/Abstraction100002137
p616
aVhttp://dbpedia.org/class/yago/BuyeoLanguages
p617
aVhttp://dbpedia.org/class/yago/Class107997703
p618
aVhttp://dbpedia.org/class/yago/Collection107951464
p619
aVhttp://dbpedia.org/class/yago/Communication100033020
p620
aVhttp://dbpedia.org/class/yago/Group100031264
p621
aVhttp://dbpedia.org/class/yago/Language106282651
p622
aVhttp://dbpedia.org/class/yago/JaponicLanguages
p623
aVhttp://dbpedia.org/resource/Japonic_languages
tp624
aa(lp625
((lp626
Vhttp://www.w3.org/2002/07/owl#Thing
p627
aVhttp://dbpedia.org/ontology/Place
p628
aVhttp://dbpedia.org/ontology/Location
p629
aVhttp://www.wikidata.org/entity/Q486972
p630
aVhttp://www.wikidata.org/entity/Q6256
p631
aVhttp://dbpedia.org/ontology/Country
p632
aVhttp://dbpedia.org/ontology/PopulatedPlace
p633
aVhttp://www.w3.org/2003/01/geo/wgs84_pos#SpatialThing
p634
aVhttp://schema.org/Country
p635
aVhttp://schema.org/Place
p636
aVhttp://umbel.org/umbel/rc/Country
p637
aVhttp://umbel.org/umbel/rc/Location_Underspecified
p638
aVhttp://umbel.org/umbel/rc/PopulatedPlace
p639
aVhttp://dbpedia.org/class/yago/AdministrativeDistrict108491826
p640
aVhttp://dbpedia.org/class/yago/Country108544813
p641
aVhttp://dbpedia.org/class/yago/District108552138
p642
aVhttp://dbpedia.org/class/yago/Location100027167
p643
aVhttp://dbpedia.org/class/yago/Object100002684
p644
aVhttp://dbpedia.org/class/yago/Region108630985
p645
aVhttp://dbpedia.org/class/yago/YagoGeoEntity
p646
aVhttp://dbpedia.org/class/yago/YagoLegalActorGeo
p647
aVhttp://dbpedia.org/class/yago/PhysicalEntity100001930
p648
aVhttp://dbpedia.org/class/yago/YagoPermanentlyLocatedEntity
p649
aVhttp://dbpedia.org/class/yago/StatesAndTerritoriesEstablishedIn1868
p650
aVhttp://dbpedia.org/resource/Empire_of_Japan
tp651
aa(lp652
((lVhttp://dbpedia.org/resource/Null
tp653
aaa(lp654
(lp655
((lp656
Vhttp://www.w3.org/2002/07/owl#Thing
p657
aVhttp://www.ontologydesignpatterns.org/ont/dul/DUL.owl#Agent
p658
aVhttp://www.ontologydesignpatterns.org/ont/dul/DUL.owl#SocialPerson
p659
aVhttp://www.wikidata.org/entity/Q43229
p660
aVhttp://dbpedia.org/ontology/Agent
p661
aVhttp://dbpedia.org/ontology/Organisation
p662
aVhttp://schema.org/Organization
p663
aVhttp://umbel.org/umbel/rc/Country
p664
aVhttp://dbpedia.org/class/yago/AdministrativeDistrict108491826
p665
aVhttp://dbpedia.org/class/yago/Country108544813
p666
aVhttp://dbpedia.org/class/yago/District108552138
p667
aVhttp://dbpedia.org/class/yago/Location100027167
p668
aVhttp://dbpedia.org/class/yago/Object100002684
p669
aVhttp://dbpedia.org/class/yago/Region108630039
p670
aVhttp://dbpedia.org/class/yago/Region108630985
p671
aVhttp://dbpedia.org/class/yago/YagoGeoEntity
p672
aVhttp://dbpedia.org/class/yago/YagoLegalActorGeo
p673
aVhttp://dbpedia.org/class/yago/DisputedTerritoriesInAsia
p674
aVhttp://dbpedia.org/class/yago/DividedRegions
p675
aVhttp://dbpedia.org/class/yago/PhysicalEntity100001930
p676
aVhttp://dbpedia.org/class/yago/YagoPermanentlyLocatedEntity
p677
aVhttp://dbpedia.org/resource/Korea
tp678
aa(lp679
((lp680
Vhttp://www.w3.org/2002/07/owl#Thing
p681
aVhttp://dbpedia.org/ontology/Place
p682
aVhttp://dbpedia.org/ontology/Location
p683
aVhttp://www.wikidata.org/entity/Q486972
p684
aVhttp://www.wikidata.org/entity/Q515
p685
aVhttp://dbpedia.org/ontology/City
p686
aVhttp://dbpedia.org/ontology/PopulatedPlace
p687
aVhttp://dbpedia.org/ontology/Settlement
p688
aVhttp://www.w3.org/2003/01/geo/wgs84_pos#SpatialThing
p689
aVhttp://schema.org/City
p690
aVhttp://schema.org/Place
p691
aVhttp://umbel.org/umbel/rc/City
p692
aVhttp://umbel.org/umbel/rc/Location_Underspecified
p693
aVhttp://umbel.org/umbel/rc/PopulatedPlace
p694
aVhttp://umbel.org/umbel/rc/Village
p695
aVhttp://dbpedia.org/class/yago/AdministrativeDistrict108491826
p696
aVhttp://dbpedia.org/class/yago/Area108497294
p697
aVhttp://dbpedia.org/class/yago/Capital108518505
p698
aVhttp://dbpedia.org/class/yago/CapitalsInAsia
p699
aVhttp://dbpedia.org/class/yago/Center108523483
p700
aVhttp://dbpedia.org/class/yago/City108524735
p701
aVhttp://dbpedia.org/class/yago/District108552138
p702
aVhttp://dbpedia.org/class/yago/Location100027167
p703
aVhttp://dbpedia.org/class/yago/Object100002684
p704
aVhttp://dbpedia.org/class/yago/Region108630985
p705
aVhttp://dbpedia.org/class/yago/Seat108647945
p706
aVhttp://dbpedia.org/class/yago/UrbanArea108675967
p707
aVhttp://dbpedia.org/class/yago/YagoGeoEntity
p708
aVhttp://dbpedia.org/class/yago/YagoLegalActorGeo
p709
aVhttp://dbpedia.org/class/yago/GeographicalArea108574314
p710
aVhttp://dbpedia.org/class/yago/Municipality108626283
p711
aVhttp://dbpedia.org/class/yago/PhysicalEntity100001930
p712
aVhttp://dbpedia.org/class/yago/YagoPermanentlyLocatedEntity
p713
aVhttp://dbpedia.org/class/yago/HostCitiesOfTheSummerOlympicGames
p714
aVhttp://dbpedia.org/class/yago/SpecialCitiesAndMetropolitanCitiesOfSouthKorea
p715
aVhttp://dbpedia.org/resource/Seoul
tp716
aa(lp717
((lp718
Vhttp://www.w3.org/2002/07/owl#Thing
p719
aVhttp://dbpedia.org/ontology/Place
p720
aVhttp://dbpedia.org/ontology/Location
p721
aVhttp://schema.org/Place
p722
aVhttp://dbpedia.org/class/yago/Land109334396
p723
aVhttp://dbpedia.org/class/yago/Object100002684
p724
aVhttp://dbpedia.org/class/yago/Peninsula109388848
p725
aVhttp://dbpedia.org/class/yago/YagoGeoEntity
p726
aVhttp://dbpedia.org/class/yago/PhysicalEntity100001930
p727
aVhttp://dbpedia.org/class/yago/YagoPermanentlyLocatedEntity
p728
aVhttp://dbpedia.org/class/yago/PeninsulasOfAsia
p729
aVhttp://dbpedia.org/resource/Korean_Peninsula
tp730
aa(lp731
((lp732
Vhttp://www.w3.org/2002/07/owl#Thing
p733
aVhttp://dbpedia.org/resource/History_of_China
tp734
aa(lp735
((lVhttp://dbpedia.org/resource/Null
tp736
aaa(lp737
(lp738
((lp739
Vhttp://www.w3.org/2002/07/owl#Thing
p740
aVhttp://dbpedia.org/ontology/Place
p741
aVhttp://dbpedia.org/ontology/Location
p742
aVhttp://www.wikidata.org/entity/Q486972
p743
aVhttp://dbpedia.org/ontology/PopulatedPlace
p744
aVhttp://dbpedia.org/ontology/Settlement
p745
aVhttp://www.w3.org/2003/01/geo/wgs84_pos#SpatialThing
p746
aVhttp://schema.org/Place
p747
aVhttp://dbpedia.org/resource/Malacca
tp748
aa(lp749
((lp750
Vhttp://www.w3.org/2002/07/owl#Thing
p751
aVhttp://dbpedia.org/ontology/Place
p752
aVhttp://dbpedia.org/ontology/Location
p753
aVhttp://www.wikidata.org/entity/Q486972
p754
aVhttp://dbpedia.org/ontology/PopulatedPlace
p755
aVhttp://dbpedia.org/ontology/Settlement
p756
aVhttp://www.w3.org/2003/01/geo/wgs84_pos#SpatialThing
p757
aVhttp://schema.org/Place
p758
aVhttp://dbpedia.org/resource/Malacca
tp759
aa(lp760
a(lp761
((lp762
Vhttp://www.w3.org/2002/07/owl#Thing
p763
aVhttp://dbpedia.org/resource/History_of_China
tp764
aa(lp765
((lVhttp://dbpedia.org/resource/Null
tp766
aaa(lp767
(lp768
((lp769
Vhttp://www.w3.org/2002/07/owl#Thing
p770
aVhttp://dbpedia.org/ontology/Place
p771
aVhttp://dbpedia.org/ontology/Location
p772
aVhttp://www.wikidata.org/entity/Q486972
p773
aVhttp://www.wikidata.org/entity/Q6256
p774
aVhttp://dbpedia.org/ontology/Country
p775
aVhttp://dbpedia.org/ontology/PopulatedPlace
p776
aVhttp://www.w3.org/2003/01/geo/wgs84_pos#SpatialThing
p777
aVhttp://schema.org/Country
p778
aVhttp://schema.org/Place
p779
aVhttp://umbel.org/umbel/rc/Country
p780
aVhttp://umbel.org/umbel/rc/Location_Underspecified
p781
aVhttp://umbel.org/umbel/rc/PopulatedPlace
p782
aVhttp://dbpedia.org/class/yago/Abstraction100002137
p783
aVhttp://dbpedia.org/class/yago/AdministrativeDistrict108491826
p784
aVhttp://dbpedia.org/class/yago/Country108544813
p785
aVhttp://dbpedia.org/class/yago/District108552138
p786
aVhttp://dbpedia.org/class/yago/Economy108366753
p787
aVhttp://dbpedia.org/class/yago/Group100031264
p788
aVhttp://dbpedia.org/class/yago/Location100027167
p789
aVhttp://dbpedia.org/class/yago/Object100002684
p790
aVhttp://dbpedia.org/class/yago/Region108630985
p791
aVhttp://dbpedia.org/class/yago/System108435388
p792
aVhttp://dbpedia.org/class/yago/YagoGeoEntity
p793
aVhttp://dbpedia.org/class/yago/YagoLegalActorGeo
p794
aVhttp://dbpedia.org/class/yago/FederalCountries
p795
aVhttp://dbpedia.org/class/yago/PhysicalEntity100001930
p796
aVhttp://dbpedia.org/class/yago/YagoPermanentlyLocatedEntity
p797
aVhttp://dbpedia.org/class/yago/LandlockedCountries
p798
aVhttp://dbpedia.org/class/yago/LeastDevelopedCountries
p799
aVhttp://dbpedia.org/class/yago/MemberStatesOfTheSouthAsianAssociationForRegionalCooperation
p800
aVhttp://dbpedia.org/class/yago/MemberStatesOfTheUnitedNations
p801
aVhttp://dbpedia.org/class/yago/SouthAsianCountries
p802
aVhttp://dbpedia.org/class/yago/StatesAndTerritoriesEstablishedIn1768
p803
aVhttp://dbpedia.org/class/yago/WorldTradeOrganizationMemberEconomies
p804
aVhttp://dbpedia.org/resource/Nepal
tp805
aa(lp806
((lp807
Vhttp://www.w3.org/2002/07/owl#Thing
p808
aVhttp://dbpedia.org/ontology/Place
p809
aVhttp://dbpedia.org/ontology/Location
p810
aVhttp://www.wikidata.org/entity/Q486972
p811
aVhttp://dbpedia.org/ontology/PopulatedPlace
p812
aVhttp://dbpedia.org/ontology/Settlement
p813
aVhttp://www.w3.org/2003/01/geo/wgs84_pos#SpatialThing
p814
aVhttp://schema.org/Place
p815
aVhttp://umbel.org/umbel/rc/Location_Underspecified
p816
aVhttp://umbel.org/umbel/rc/PopulatedPlace
p817
aVhttp://umbel.org/umbel/rc/Village
p818
aVhttp://dbpedia.org/class/yago/Area108497294
p819
aVhttp://dbpedia.org/class/yago/Capital108518505
p820
aVhttp://dbpedia.org/class/yago/CapitalsInAsia
p821
aVhttp://dbpedia.org/class/yago/Center108523483
p822
aVhttp://dbpedia.org/class/yago/Location100027167
p823
aVhttp://dbpedia.org/class/yago/Object100002684
p824
aVhttp://dbpedia.org/class/yago/Region108630985
p825
aVhttp://dbpedia.org/class/yago/Seat108647945
p826
aVhttp://dbpedia.org/class/yago/Site108651247
p827
aVhttp://dbpedia.org/class/yago/Tract108673395
p828
aVhttp://dbpedia.org/class/yago/YagoGeoEntity
p829
aVhttp://dbpedia.org/class/yago/YagoLegalActorGeo
p830
aVhttp://dbpedia.org/class/yago/GeographicalArea108574314
p831
aVhttp://dbpedia.org/class/yago/PhysicalEntity100001930
p832
aVhttp://dbpedia.org/class/yago/YagoPermanentlyLocatedEntity
p833
aVhttp://dbpedia.org/class/yago/PopulatedPlacesInNepal
p834
aVhttp://dbpedia.org/resource/Kathmandu
tp835
aa(lp836
((lp837
Vhttp://www.w3.org/2002/07/owl#Thing
p838
aVhttp://www.ontologydesignpatterns.org/ont/dul/DUL.owl#Agent
p839
aVhttp://www.ontologydesignpatterns.org/ont/dul/DUL.owl#SocialPerson
p840
aVhttp://www.wikidata.org/entity/Q43229
p841
aVhttp://www.wikidata.org/entity/Q7278
p842
aVhttp://dbpedia.org/ontology/Agent
p843
aVhttp://dbpedia.org/ontology/Organisation
p844
aVhttp://dbpedia.org/ontology/PoliticalParty
p845
aVhttp://schema.org/Organization
p846
aVhttp://dbpedia.org/class/yago/Abstraction100002137
p847
aVhttp://dbpedia.org/class/yago/Group100031264
p848
aVhttp://dbpedia.org/class/yago/Organization108008335
p849
aVhttp://dbpedia.org/class/yago/Party108256968
p850
aVhttp://dbpedia.org/class/yago/SocialGroup107950920
p851
aVhttp://dbpedia.org/class/yago/YagoLegalActorGeo
p852
aVhttp://dbpedia.org/class/yago/YagoPermanentlyLocatedEntity
p853
aVhttp://dbpedia.org/class/yago/PoliticalPartiesInNepal
p854
aVhttp://dbpedia.org/class/yago/YagoLegalActor
p855
aVhttp://dbpedia.org/class/yago/SocialDemocraticParties
p856
aVhttp://dbpedia.org/resource/Nepali_Congress
tp857
aa(lp858
((lp859
Vhttp://www.w3.org/2002/07/owl#Thing
p860
aVhttp://dbpedia.org/resource/History_of_China
tp861
aa(lp862
((lVhttp://dbpedia.org/resource/Null
tp863
aaa(lp864
(lp865
((lp866
Vhttp://www.w3.org/2002/07/owl#Thing
p867
aVhttp://dbpedia.org/ontology/Place
p868
aVhttp://dbpedia.org/ontology/Location
p869
aVhttp://www.wikidata.org/entity/Q486972
p870
aVhttp://www.wikidata.org/entity/Q6256
p871
aVhttp://dbpedia.org/ontology/Country
p872
aVhttp://dbpedia.org/ontology/PopulatedPlace
p873
aVhttp://www.w3.org/2003/01/geo/wgs84_pos#SpatialThing
p874
aVhttp://schema.org/Country
p875
aVhttp://schema.org/Place
p876
aVhttp://umbel.org/umbel/rc/Country
p877
aVhttp://umbel.org/umbel/rc/Location_Underspecified
p878
aVhttp://umbel.org/umbel/rc/PopulatedPlace
p879
aVhttp://dbpedia.org/class/yago/Abstraction100002137
p880
aVhttp://dbpedia.org/class/yago/AdministrativeDistrict108491826
p881
aVhttp://dbpedia.org/class/yago/Arabic-speakingCountriesAndTerritories
p882
aVhttp://dbpedia.org/class/yago/Country108544813
p883
aVhttp://dbpedia.org/class/yago/District108552138
p884
aVhttp://dbpedia.org/class/yago/Economy108366753
p885
aVhttp://dbpedia.org/class/yago/Group100031264
p886
aVhttp://dbpedia.org/class/yago/Location100027167
p887
aVhttp://dbpedia.org/class/yago/Object100002684
p888
aVhttp://dbpedia.org/class/yago/Region108630985
p889
aVhttp://dbpedia.org/class/yago/System108435388
p890
aVhttp://dbpedia.org/class/yago/YagoGeoEntity
p891
aVhttp://dbpedia.org/class/yago/YagoLegalActorGeo
p892
aVhttp://dbpedia.org/class/yago/PhysicalEntity100001930
p893
aVhttp://dbpedia.org/class/yago/YagoPermanentlyLocatedEntity
p894
aVhttp://dbpedia.org/class/yago/IslamicStates
p895
aVhttp://dbpedia.org/class/yago/MemberStatesOfTheArabLeague
p896
aVhttp://dbpedia.org/class/yago/MemberStatesOfTheCooperationCouncilForTheArabStatesOfTheGulf
p897
aVhttp://dbpedia.org/class/yago/MemberStatesOfTheOrganisationOfIslamicCooperation
p898
aVhttp://dbpedia.org/class/yago/MemberStatesOfTheUnitedNations
p899
aVhttp://dbpedia.org/class/yago/MiddleEasternCountries
p900
aVhttp://dbpedia.org/class/yago/PersianGulfCountries
p901
aVhttp://dbpedia.org/class/yago/StatesAndTerritoriesEstablishedIn751
p902
aVhttp://dbpedia.org/class/yago/Sultanate108896327
p903
aVhttp://dbpedia.org/class/yago/Sultanates
p904
aVhttp://dbpedia.org/class/yago/WesternAsianCountries
p905
aVhttp://dbpedia.org/class/yago/WorldTradeOrganizationMemberEconomies
p906
aVhttp://dbpedia.org/resource/Oman
tp907
aa(lp908
((lp909
Vhttp://www.w3.org/2002/07/owl#Thing
p910
aVhttp://xmlns.com/foaf/0.1/Person
p911
aVhttp://dbpedia.org/ontology/Person
p912
aVhttp://www.ontologydesignpatterns.org/ont/dul/DUL.owl#Agent
p913
aVhttp://www.ontologydesignpatterns.org/ont/dul/DUL.owl#NaturalPerson
p914
aVhttp://www.wikidata.org/entity/Q215627
p915
aVhttp://www.wikidata.org/entity/Q5
p916
aVhttp://dbpedia.org/ontology/Agent
p917
aVhttp://dbpedia.org/ontology/OfficeHolder
p918
aVhttp://schema.org/Person
p919
aVhttp://dbpedia.org/class/yago/CausalAgent100007347
p920
aVhttp://dbpedia.org/class/yago/Leader109623038
p921
aVhttp://dbpedia.org/class/yago/LivingThing100004258
p922
aVhttp://dbpedia.org/class/yago/Object100002684
p923
aVhttp://dbpedia.org/class/yago/Organism100004475
p924
aVhttp://dbpedia.org/class/yago/Person100007846
p925
aVhttp://dbpedia.org/class/yago/Politician110451263
p926
aVhttp://dbpedia.org/class/yago/Whole100003553
p927
aVhttp://dbpedia.org/class/yago/YagoLegalActorGeo
p928
aVhttp://dbpedia.org/class/yago/PhysicalEntity100001930
p929
aVhttp://dbpedia.org/class/yago/LabourParty(Malta)Politicians
p930
aVhttp://dbpedia.org/class/yago/LeadersOfTheOpposition(Malta)
p931
aVhttp://dbpedia.org/class/yago/LivingPeople
p932
aVhttp://dbpedia.org/class/yago/PeopleFromPiet%C3%A0,Malta
p933
aVhttp://dbpedia.org/class/yago/YagoLegalActor
p934
aVhttp://dbpedia.org/resource/Joseph_Muscat
tp935
aa(lp936
((lVhttp://dbpedia.org/resource/Arabic_English
tp937
aa(lp938
a(lp939
((lVhttp://dbpedia.org/resource/Null
tp940
aaa(lp941
(lp942
((lp943
Vhttp://www.w3.org/2002/07/owl#Thing
p944
aVhttp://dbpedia.org/class/yago/Location100027167
p945
aVhttp://dbpedia.org/class/yago/Object100002684
p946
aVhttp://dbpedia.org/class/yago/Region108630039
p947
aVhttp://dbpedia.org/class/yago/YagoGeoEntity
p948
aVhttp://dbpedia.org/class/yago/YagoLegalActorGeo
p949
aVhttp://dbpedia.org/class/yago/DividedRegions
p950
aVhttp://dbpedia.org/class/yago/PhysicalEntity100001930
p951
aVhttp://dbpedia.org/class/yago/YagoPermanentlyLocatedEntity
p952
aVhttp://dbpedia.org/resource/Palestine
tp953
aa(lp954
((lp955
Vhttp://www.w3.org/2002/07/owl#Thing
p956
aVhttp://dbpedia.org/ontology/Place
p957
aVhttp://dbpedia.org/ontology/Location
p958
aVhttp://www.wikidata.org/entity/Q486972
p959
aVhttp://www.wikidata.org/entity/Q515
p960
aVhttp://dbpedia.org/ontology/City
p961
aVhttp://dbpedia.org/ontology/PopulatedPlace
p962
aVhttp://dbpedia.org/ontology/Settlement
p963
aVhttp://www.w3.org/2003/01/geo/wgs84_pos#SpatialThing
p964
aVhttp://schema.org/City
p965
aVhttp://schema.org/Place
p966
aVhttp://umbel.org/umbel/rc/Location_Underspecified
p967
aVhttp://umbel.org/umbel/rc/PopulatedPlace
p968
aVhttp://umbel.org/umbel/rc/Village
p969
aVhttp://dbpedia.org/class/yago/AdministrativeDistrict108491826
p970
aVhttp://dbpedia.org/class/yago/AmarnaLettersLocations
p971
aVhttp://dbpedia.org/class/yago/Area108497294
p972
aVhttp://dbpedia.org/class/yago/Capital108518505
p973
aVhttp://dbpedia.org/class/yago/CapitalsInAsia
p974
aVhttp://dbpedia.org/class/yago/Center108523483
p975
aVhttp://dbpedia.org/class/yago/City108524735
p976
aVhttp://dbpedia.org/class/yago/District108552138
p977
aVhttp://dbpedia.org/class/yago/Location100027167
p978
aVhttp://dbpedia.org/class/yago/Object100002684
p979
aVhttp://dbpedia.org/class/yago/Point108620061
p980
aVhttp://dbpedia.org/class/yago/Region108630985
p981
aVhttp://dbpedia.org/class/yago/Seat108647945
p982
aVhttp://dbpedia.org/class/yago/TopographicPoint108664443
p983
aVhttp://dbpedia.org/class/yago/UrbanArea108675967
p984
aVhttp://dbpedia.org/class/yago/YagoGeoEntity
p985
aVhttp://dbpedia.org/class/yago/YagoLegalActorGeo
p986
aVhttp://dbpedia.org/class/yago/CitiesInIsrael
p987
aVhttp://dbpedia.org/class/yago/CitiesInThePalestinianTerritories
p988
aVhttp://dbpedia.org/class/yago/DisputedTerritoriesInAsia
p989
aVhttp://dbpedia.org/class/yago/GeographicalArea108574314
p990
aVhttp://dbpedia.org/class/yago/Municipality108626283
p991
aVhttp://dbpedia.org/class/yago/PhysicalEntity100001930
p992
aVhttp://dbpedia.org/class/yago/YagoPermanentlyLocatedEntity
p993
aVhttp://dbpedia.org/class/yago/HebrewBibleCities
p994
aVhttp://dbpedia.org/class/yago/HolyCities
p995
aVhttp://dbpedia.org/class/yago/HolyPlace108585056
p996
aVhttp://dbpedia.org/class/yago/IslamicHolyPlaces
p997
aVhttp://dbpedia.org/class/yago/JewishHolyPlaces
p998
aVhttp://dbpedia.org/class/yago/NewTestamentCities
p999
aVhttp://dbpedia.org/class/yago/TorahCities
p1000
aVhttp://dbpedia.org/resource/Jerusalem
tp1001
aa(lp1002
a(lp1003
((lp1004
Vhttp://www.w3.org/2002/07/owl#Thing
p1005
aVhttp://dbpedia.org/ontology/Place
p1006
aVhttp://dbpedia.org/ontology/Location
p1007
aVhttp://www.wikidata.org/entity/Q486972
p1008
aVhttp://www.wikidata.org/entity/Q6256
p1009
aVhttp://dbpedia.org/ontology/Country
p1010
aVhttp://dbpedia.org/ontology/PopulatedPlace
p1011
aVhttp://schema.org/Country
p1012
aVhttp://schema.org/Place
p1013
aVhttp://umbel.org/umbel/rc/Country
p1014
aVhttp://umbel.org/umbel/rc/Location_Underspecified
p1015
aVhttp://umbel.org/umbel/rc/PopulatedPlace
p1016
aVhttp://dbpedia.org/class/yago/AdministrativeDistrict108491826
p1017
aVhttp://dbpedia.org/class/yago/Country108544813
p1018
aVhttp://dbpedia.org/class/yago/District108552138
p1019
aVhttp://dbpedia.org/class/yago/Domain108556491
p1020
aVhttp://dbpedia.org/class/yago/Location100027167
p1021
aVhttp://dbpedia.org/class/yago/Object100002684
p1022
aVhttp://dbpedia.org/class/yago/Region108630985
p1023
aVhttp://dbpedia.org/class/yago/YagoGeoEntity
p1024
aVhttp://dbpedia.org/class/yago/YagoLegalActorGeo
p1025
aVhttp://dbpedia.org/class/yago/Empire108557482
p1026
aVhttp://dbpedia.org/class/yago/Empires
p1027
aVhttp://dbpedia.org/class/yago/PhysicalEntity100001930
p1028
aVhttp://dbpedia.org/class/yago/YagoPermanentlyLocatedEntity
p1029
aVhttp://dbpedia.org/class/yago/OverseasEmpires
p1030
aVhttp://dbpedia.org/resource/British_Empire
tp1031
aa(lp1032
((lVhttp://dbpedia.org/resource/Null
tp1033
aaa(lp1034
(lp1035
((lp1036
Vhttp://www.w3.org/2002/07/owl#Thing
p1037
aVhttp://dbpedia.org/ontology/Place
p1038
aVhttp://dbpedia.org/ontology/Location
p1039
aVhttp://www.wikidata.org/entity/Q486972
p1040
aVhttp://www.wikidata.org/entity/Q6256
p1041
aVhttp://dbpedia.org/ontology/Country
p1042
aVhttp://dbpedia.org/ontology/PopulatedPlace
p1043
aVhttp://www.w3.org/2003/01/geo/wgs84_pos#SpatialThing
p1044
aVhttp://schema.org/Country
p1045
aVhttp://schema.org/Place
p1046
aVhttp://umbel.org/umbel/rc/Country
p1047
aVhttp://umbel.org/umbel/rc/Location_Underspecified
p1048
aVhttp://umbel.org/umbel/rc/PopulatedPlace
p1049
aVhttp://dbpedia.org/class/yago/Abstraction100002137
p1050
aVhttp://dbpedia.org/class/yago/AdministrativeDistrict108491826
p1051
aVhttp://dbpedia.org/class/yago/Country108544813
p1052
aVhttp://dbpedia.org/class/yago/District108552138
p1053
aVhttp://dbpedia.org/class/yago/Economy108366753
p1054
aVhttp://dbpedia.org/class/yago/Group100031264
p1055
aVhttp://dbpedia.org/class/yago/Island109316454
p1056
aVhttp://dbpedia.org/class/yago/Land109334396
p1057
aVhttp://dbpedia.org/class/yago/Location100027167
p1058
aVhttp://dbpedia.org/class/yago/Object100002684
p1059
aVhttp://dbpedia.org/class/yago/Region108630985
p1060
aVhttp://dbpedia.org/class/yago/System108435388
p1061
aVhttp://dbpedia.org/class/yago/YagoGeoEntity
p1062
aVhttp://dbpedia.org/class/yago/YagoLegalActorGeo
p1063
aVhttp://dbpedia.org/class/yago/CountriesBorderingThePacificOcean
p1064
aVhttp://dbpedia.org/class/yago/CountriesBorderingThePhilippineSea
p1065
aVhttp://dbpedia.org/class/yago/CountriesBorderingTheSouthChinaSea
p1066
aVhttp://dbpedia.org/class/yago/English-speakingCountriesAndTerritories
p1067
aVhttp://dbpedia.org/class/yago/PhysicalEntity100001930
p1068
aVhttp://dbpedia.org/class/yago/YagoPermanentlyLocatedEntity
p1069
aVhttp://dbpedia.org/class/yago/IslandCountries
p1070
aVhttp://dbpedia.org/class/yago/MemberStatesOfTheAssociationOfSoutheastAsianNations
p1071
aVhttp://dbpedia.org/class/yago/MemberStatesOfTheUnitedNations
p1072
aVhttp://dbpedia.org/class/yago/SoutheastAsianCountries
p1073
aVhttp://dbpedia.org/class/yago/StatesAndTerritoriesEstablishedIn1565
p1074
aVhttp://dbpedia.org/class/yago/StatesAndTerritoriesEstablishedIn1898
p1075
aVhttp://dbpedia.org/class/yago/StatesAndTerritoriesEstablishedIn1946
p1076
aVhttp://dbpedia.org/class/yago/VolcanicArcIslands
p1077
aVhttp://dbpedia.org/class/yago/WorldTradeOrganizationMemberEconomies
p1078
aVhttp://dbpedia.org/resource/Philippines
tp1079
aa(lp1080
((lp1081
Vhttp://www.w3.org/2002/07/owl#Thing
p1082
aVhttp://dbpedia.org/ontology/Place
p1083
aVhttp://dbpedia.org/ontology/Location
p1084
aVhttp://www.wikidata.org/entity/Q486972
p1085
aVhttp://www.wikidata.org/entity/Q515
p1086
aVhttp://dbpedia.org/ontology/City
p1087
aVhttp://dbpedia.org/ontology/PopulatedPlace
p1088
aVhttp://dbpedia.org/ontology/Settlement
p1089
aVhttp://www.w3.org/2003/01/geo/wgs84_pos#SpatialThing
p1090
aVhttp://schema.org/City
p1091
aVhttp://schema.org/Place
p1092
aVhttp://dbpedia.org/resource/Manila
tp1093
aa(lp1094
a(lp1095
((lp1096
Vhttp://www.w3.org/2002/07/owl#Thing
p1097
aVhttp://dbpedia.org/resource/History_of_China
tp1098
aa(lp1099
((lVhttp://dbpedia.org/resource/Null
tp1100
aaa(lp1101
(lp1102
((lp1103
Vhttp://www.w3.org/2002/07/owl#Thing
p1104
aVhttp://dbpedia.org/ontology/Place
p1105
aVhttp://dbpedia.org/ontology/Location
p1106
aVhttp://www.wikidata.org/entity/Q486972
p1107
aVhttp://www.wikidata.org/entity/Q6256
p1108
aVhttp://dbpedia.org/ontology/Country
p1109
aVhttp://dbpedia.org/ontology/PopulatedPlace
p1110
aVhttp://www.w3.org/2003/01/geo/wgs84_pos#SpatialThing
p1111
aVhttp://schema.org/Country
p1112
aVhttp://schema.org/Place
p1113
aVhttp://umbel.org/umbel/rc/Country
p1114
aVhttp://umbel.org/umbel/rc/Location_Underspecified
p1115
aVhttp://umbel.org/umbel/rc/PopulatedPlace
p1116
aVhttp://dbpedia.org/class/yago/Abstraction100002137
p1117
aVhttp://dbpedia.org/class/yago/AdministrativeDistrict108491826
p1118
aVhttp://dbpedia.org/class/yago/Country108544813
p1119
aVhttp://dbpedia.org/class/yago/District108552138
p1120
aVhttp://dbpedia.org/class/yago/Economy108366753
p1121
aVhttp://dbpedia.org/class/yago/Group100031264
p1122
aVhttp://dbpedia.org/class/yago/Location100027167
p1123
aVhttp://dbpedia.org/class/yago/Object100002684
p1124
aVhttp://dbpedia.org/class/yago/Region108630985
p1125
aVhttp://dbpedia.org/class/yago/System108435388
p1126
aVhttp://dbpedia.org/class/yago/YagoGeoEntity
p1127
aVhttp://dbpedia.org/class/yago/YagoLegalActorGeo
p1128
aVhttp://dbpedia.org/class/yago/CountriesBorderingTheSouthChinaSea
p1129
aVhttp://dbpedia.org/class/yago/CountriesOfTheIndianOcean
p1130
aVhttp://dbpedia.org/class/yago/PhysicalEntity100001930
p1131
aVhttp://dbpedia.org/class/yago/YagoPermanentlyLocatedEntity
p1132
aVhttp://dbpedia.org/class/yago/MemberStatesOfTheAssociationOfSoutheastAsianNations
p1133
aVhttp://dbpedia.org/class/yago/MemberStatesOfTheUnitedNations
p1134
aVhttp://dbpedia.org/class/yago/SoutheastAsianCountries
p1135
aVhttp://dbpedia.org/class/yago/WorldTradeOrganizationMemberEconomies
p1136
aVhttp://dbpedia.org/resource/Thailand
tp1137
aa(lp1138
((lp1139
Vhttp://www.w3.org/2002/07/owl#Thing
p1140
aVhttp://dbpedia.org/ontology/Place
p1141
aVhttp://dbpedia.org/ontology/Location
p1142
aVhttp://www.wikidata.org/entity/Q3455524
p1143
aVhttp://www.wikidata.org/entity/Q486972
p1144
aVhttp://dbpedia.org/ontology/AdministrativeRegion
p1145
aVhttp://dbpedia.org/ontology/PopulatedPlace
p1146
aVhttp://dbpedia.org/ontology/Region
p1147
aVhttp://www.w3.org/2003/01/geo/wgs84_pos#SpatialThing
p1148
aVhttp://schema.org/AdministrativeArea
p1149
aVhttp://schema.org/Place
p1150
aVhttp://umbel.org/umbel/rc/Location_Underspecified
p1151
aVhttp://umbel.org/umbel/rc/PopulatedPlace
p1152
aVhttp://umbel.org/umbel/rc/Village
p1153
aVhttp://dbpedia.org/class/yago/AdministrativeDistrict108491826
p1154
aVhttp://dbpedia.org/class/yago/Area108497294
p1155
aVhttp://dbpedia.org/class/yago/Capital108518505
p1156
aVhttp://dbpedia.org/class/yago/CapitalsInAsia
p1157
aVhttp://dbpedia.org/class/yago/Center108523483
p1158
aVhttp://dbpedia.org/class/yago/District108552138
p1159
aVhttp://dbpedia.org/class/yago/Location100027167
p1160
aVhttp://dbpedia.org/class/yago/Object100002684
p1161
aVhttp://dbpedia.org/class/yago/Region108630985
p1162
aVhttp://dbpedia.org/class/yago/Seat108647945
p1163
aVhttp://dbpedia.org/class/yago/Site108651247
p1164
aVhttp://dbpedia.org/class/yago/State108654360
p1165
aVhttp://dbpedia.org/class/yago/Tract108673395
p1166
aVhttp://dbpedia.org/class/yago/YagoGeoEntity
p1167
aVhttp://dbpedia.org/class/yago/YagoLegalActorGeo
p1168
aVhttp://dbpedia.org/class/yago/GeographicalArea108574314
p1169
aVhttp://dbpedia.org/class/yago/PhysicalEntity100001930
p1170
aVhttp://dbpedia.org/class/yago/YagoPermanentlyLocatedEntity
p1171
aVhttp://dbpedia.org/class/yago/PopulatedPlacesEstablishedInThe18thCentury
p1172
aVhttp://dbpedia.org/class/yago/PopulatedPlacesInThailand
p1173
aVhttp://dbpedia.org/class/yago/ProvincesOfThailand
p1174
aVhttp://dbpedia.org/resource/Bangkok
tp1175
aa(lp1176
a(lp1177
((lp1178
Vhttp://www.w3.org/2002/07/owl#Thing
p1179
aVhttp://dbpedia.org/resource/History_of_China
tp1180
aa(lp1181
((lVhttp://dbpedia.org/resource/Null
tp1182
aaa(lp1183
(lp1184
((lp1185
Vhttp://www.w3.org/2002/07/owl#Thing
p1186
aVhttp://dbpedia.org/ontology/Place
p1187
aVhttp://dbpedia.org/ontology/Location
p1188
aVhttp://www.wikidata.org/entity/Q486972
p1189
aVhttp://www.wikidata.org/entity/Q6256
p1190
aVhttp://dbpedia.org/ontology/Country
p1191
aVhttp://dbpedia.org/ontology/PopulatedPlace
p1192
aVhttp://www.w3.org/2003/01/geo/wgs84_pos#SpatialThing
p1193
aVhttp://schema.org/Country
p1194
aVhttp://schema.org/Place
p1195
aVhttp://umbel.org/umbel/rc/Country
p1196
aVhttp://umbel.org/umbel/rc/Location_Underspecified
p1197
aVhttp://umbel.org/umbel/rc/PopulatedPlace
p1198
aVhttp://dbpedia.org/class/yago/Abstraction100002137
p1199
aVhttp://dbpedia.org/class/yago/AdministrativeDistrict108491826
p1200
aVhttp://dbpedia.org/class/yago/Arabic-speakingCountriesAndTerritories
p1201
aVhttp://dbpedia.org/class/yago/Country108544813
p1202
aVhttp://dbpedia.org/class/yago/District108552138
p1203
aVhttp://dbpedia.org/class/yago/Economy108366753
p1204
aVhttp://dbpedia.org/class/yago/Group100031264
p1205
aVhttp://dbpedia.org/class/yago/Location100027167
p1206
aVhttp://dbpedia.org/class/yago/Object100002684
p1207
aVhttp://dbpedia.org/class/yago/Region108630985
p1208
aVhttp://dbpedia.org/class/yago/System108435388
p1209
aVhttp://dbpedia.org/class/yago/YagoGeoEntity
p1210
aVhttp://dbpedia.org/class/yago/YagoLegalActorGeo
p1211
aVhttp://dbpedia.org/class/yago/CountriesOfTheMediterraneanSea
p1212
aVhttp://dbpedia.org/class/yago/EasternMediterraneanCountries
p1213
aVhttp://dbpedia.org/class/yago/PhysicalEntity100001930
p1214
aVhttp://dbpedia.org/class/yago/YagoPermanentlyLocatedEntity
p1215
aVhttp://dbpedia.org/class/yago/MemberStatesOfTheArabLeague
p1216
aVhttp://dbpedia.org/class/yago/MemberStatesOfTheOrganisationOfIslamicCooperation
p1217
aVhttp://dbpedia.org/class/yago/MemberStatesOfTheUnionForTheMediterranean
p1218
aVhttp://dbpedia.org/class/yago/MemberStatesOfTheUnitedNations
p1219
aVhttp://dbpedia.org/class/yago/MiddleEasternCountries
p1220
aVhttp://dbpedia.org/class/yago/NearEasternCountries
p1221
aVhttp://dbpedia.org/class/yago/SocialistStates
p1222
aVhttp://dbpedia.org/class/yago/StatesAndTerritoriesEstablishedIn1946
p1223
aVhttp://dbpedia.org/class/yago/WesternAsianCountries
p1224
aVhttp://dbpedia.org/resource/Syria
tp1225
aa(lp1226
((lp1227
Vhttp://www.w3.org/2002/07/owl#Thing
p1228
aVhttp://dbpedia.org/ontology/Place
p1229
aVhttp://dbpedia.org/ontology/Location
p1230
aVhttp://www.wikidata.org/entity/Q486972
p1231
aVhttp://dbpedia.org/ontology/PopulatedPlace
p1232
aVhttp://dbpedia.org/ontology/Settlement
p1233
aVhttp://www.w3.org/2003/01/geo/wgs84_pos#SpatialThing
p1234
aVhttp://schema.org/Place
p1235
aVhttp://umbel.org/umbel/rc/Location_Underspecified
p1236
aVhttp://umbel.org/umbel/rc/PopulatedPlace
p1237
aVhttp://umbel.org/umbel/rc/Village
p1238
aVhttp://dbpedia.org/class/yago/AdministrativeDistrict108491826
p1239
aVhttp://dbpedia.org/class/yago/AmarnaLettersLocations
p1240
aVhttp://dbpedia.org/class/yago/AncientGreekSitesInSyria
p1241
aVhttp://dbpedia.org/class/yago/ArchaeologicalSitesInSyria
p1242
aVhttp://dbpedia.org/class/yago/Area108497294
p1243
aVhttp://dbpedia.org/class/yago/Capital108518505
p1244
aVhttp://dbpedia.org/class/yago/CapitalsInAsia
p1245
aVhttp://dbpedia.org/class/yago/Center108523483
p1246
aVhttp://dbpedia.org/class/yago/District108552138
p1247
aVhttp://dbpedia.org/class/yago/Location100027167
p1248
aVhttp://dbpedia.org/class/yago/Object100002684
p1249
aVhttp://dbpedia.org/class/yago/Region108630985
p1250
aVhttp://dbpedia.org/class/yago/Seat108647945
p1251
aVhttp://dbpedia.org/class/yago/Site108651247
p1252
aVhttp://dbpedia.org/class/yago/Tract108673395
p1253
aVhttp://dbpedia.org/class/yago/YagoGeoEntity
p1254
aVhttp://dbpedia.org/class/yago/YagoLegalActorGeo
p1255
aVhttp://dbpedia.org/class/yago/GeographicalArea108574314
p1256
aVhttp://dbpedia.org/class/yago/PhysicalEntity100001930
p1257
aVhttp://dbpedia.org/class/yago/YagoPermanentlyLocatedEntity
p1258
aVhttp://dbpedia.org/resource/Damascus
tp1259
aa(lp1260
a(lp1261
((lp1262
Vhttp://www.w3.org/2002/07/owl#Thing
p1263
aVhttp://umbel.org/umbel/rc/Country
p1264
aVhttp://umbel.org/umbel/rc/Location_Underspecified
p1265
aVhttp://umbel.org/umbel/rc/PopulatedPlace
p1266
aVhttp://dbpedia.org/class/yago/Domain108556491
p1267
aVhttp://dbpedia.org/class/yago/Location100027167
p1268
aVhttp://dbpedia.org/class/yago/Object100002684
p1269
aVhttp://dbpedia.org/class/yago/Region108630985
p1270
aVhttp://dbpedia.org/class/yago/YagoGeoEntity
p1271
aVhttp://dbpedia.org/class/yago/YagoLegalActorGeo
p1272
aVhttp://dbpedia.org/class/yago/Empire108557482
p1273
aVhttp://dbpedia.org/class/yago/PhysicalEntity100001930
p1274
aVhttp://dbpedia.org/class/yago/YagoPermanentlyLocatedEntity
p1275
aVhttp://dbpedia.org/class/yago/OverseasEmpires
p1276
aVhttp://dbpedia.org/resource/French_colonial_empire
tp1277
aa(lp1278
((lVhttp://dbpedia.org/resource/Null
tp1279
aaa(lp1280
(lp1281
((lp1282
Vhttp://www.w3.org/2002/07/owl#Thing
p1283
aVhttp://dbpedia.org/class/yago/Location100027167
p1284
aVhttp://dbpedia.org/class/yago/Object100002684
p1285
aVhttp://dbpedia.org/class/yago/Region108630039
p1286
aVhttp://dbpedia.org/class/yago/YagoGeoEntity
p1287
aVhttp://dbpedia.org/class/yago/YagoLegalActorGeo
p1288
aVhttp://dbpedia.org/class/yago/CulturalRegions
p1289
aVhttp://dbpedia.org/class/yago/PhysicalEntity100001930
p1290
aVhttp://dbpedia.org/class/yago/YagoPermanentlyLocatedEntity
p1291
aVhttp://dbpedia.org/resource/Tibet
tp1292
aa(lp1293
((lp1294
Vhttp://www.w3.org/2002/07/owl#Thing
p1295
aVhttp://dbpedia.org/ontology/Place
p1296
aVhttp://dbpedia.org/ontology/Location
p1297
aVhttp://www.wikidata.org/entity/Q486972
p1298
aVhttp://www.wikidata.org/entity/Q515
p1299
aVhttp://dbpedia.org/ontology/City
p1300
aVhttp://dbpedia.org/ontology/PopulatedPlace
p1301
aVhttp://dbpedia.org/ontology/Settlement
p1302
aVhttp://www.w3.org/2003/01/geo/wgs84_pos#SpatialThing
p1303
aVhttp://schema.org/City
p1304
aVhttp://schema.org/Place
p1305
aVhttp://dbpedia.org/class/yago/AdministrativeDistrict108491826
p1306
aVhttp://dbpedia.org/class/yago/Area108497294
p1307
aVhttp://dbpedia.org/class/yago/Capital108518505
p1308
aVhttp://dbpedia.org/class/yago/CapitalsOfFormerNations
p1309
aVhttp://dbpedia.org/class/yago/Center108523483
p1310
aVhttp://dbpedia.org/class/yago/City108524735
p1311
aVhttp://dbpedia.org/class/yago/District108552138
p1312
aVhttp://dbpedia.org/class/yago/Location100027167
p1313
aVhttp://dbpedia.org/class/yago/Object100002684
p1314
aVhttp://dbpedia.org/class/yago/Prefecture108626947
p1315
aVhttp://dbpedia.org/class/yago/Region108630985
p1316
aVhttp://dbpedia.org/class/yago/Seat108647945
p1317
aVhttp://dbpedia.org/class/yago/Site108651247
p1318
aVhttp://dbpedia.org/class/yago/Tract108673395
p1319
aVhttp://dbpedia.org/class/yago/UrbanArea108675967
p1320
aVhttp://dbpedia.org/class/yago/YagoGeoEntity
p1321
aVhttp://dbpedia.org/class/yago/YagoLegalActorGeo
p1322
aVhttp://dbpedia.org/class/yago/GeographicalArea108574314
p1323
aVhttp://dbpedia.org/class/yago/Municipality108626283
p1324
aVhttp://dbpedia.org/class/yago/PhysicalEntity100001930
p1325
aVhttp://dbpedia.org/class/yago/YagoPermanentlyLocatedEntity
p1326
aVhttp://dbpedia.org/class/yago/HolyCities
p1327
aVhttp://dbpedia.org/class/yago/PopulatedPlacesInTibet
p1328
aVhttp://dbpedia.org/class/yago/PrefecturesOfTibet
p1329
aVhttp://dbpedia.org/resource/Lhasa
tp1330
aa(lp1331
((lp1332
Vhttp://dbpedia.org/class/yago/Abstraction100002137
p1333
aVhttp://dbpedia.org/class/yago/Community108223802
p1334
aVhttp://dbpedia.org/class/yago/EthnicGroup107967382
p1335
aVhttp://dbpedia.org/class/yago/Gathering107975026
p1336
aVhttp://dbpedia.org/class/yago/Group100031264
p1337
aVhttp://dbpedia.org/class/yago/SocialGroup107950920
p1338
aVhttp://dbpedia.org/class/yago/EthnicGroupsInChina
p1339
aVhttp://dbpedia.org/class/yago/MuslimCommunities
p1340
aVhttp://dbpedia.org/class/yago/MuslimCommunitiesOfChina
p1341
aVhttp://dbpedia.org/resource/Tibetan_Muslims
tp1342
aa(lp1343
((lp1344
Vhttp://www.w3.org/2002/07/owl#Thing
p1345
aVhttp://dbpedia.org/resource/History_of_China
tp1346
aa(lp1347
((lVhttp://dbpedia.org/resource/Null
tp1348
aaa(lp1349
(lp1350
((lp1351
Vhttp://www.w3.org/2002/07/owl#Thing
p1352
aVhttp://dbpedia.org/ontology/Place
p1353
aVhttp://dbpedia.org/ontology/Location
p1354
aVhttp://www.wikidata.org/entity/Q486972
p1355
aVhttp://dbpedia.org/ontology/PopulatedPlace
p1356
aVhttp://schema.org/Place
p1357
aVhttp://dbpedia.org/class/yago/AdministrativeDistrict108491826
p1358
aVhttp://dbpedia.org/class/yago/Country108544813
p1359
aVhttp://dbpedia.org/class/yago/District108552138
p1360
aVhttp://dbpedia.org/class/yago/Location100027167
p1361
aVhttp://dbpedia.org/class/yago/Object100002684
p1362
aVhttp://dbpedia.org/class/yago/Region108630985
p1363
aVhttp://dbpedia.org/class/yago/YagoGeoEntity
p1364
aVhttp://dbpedia.org/class/yago/YagoLegalActorGeo
p1365
aVhttp://dbpedia.org/class/yago/FormerCountriesInVietnameseHistory
p1366
aVhttp://dbpedia.org/class/yago/PhysicalEntity100001930
p1367
aVhttp://dbpedia.org/class/yago/YagoPermanentlyLocatedEntity
p1368
aVhttp://dbpedia.org/resource/Tonkin
tp1369
aa(lp1370
((lp1371
Vhttp://www.w3.org/2002/07/owl#Thing
p1372
aVhttp://dbpedia.org/ontology/Place
p1373
aVhttp://dbpedia.org/ontology/Location
p1374
aVhttp://www.wikidata.org/entity/Q486972
p1375
aVhttp://dbpedia.org/ontology/PopulatedPlace
p1376
aVhttp://dbpedia.org/ontology/Settlement
p1377
aVhttp://www.w3.org/2003/01/geo/wgs84_pos#SpatialThing
p1378
aVhttp://schema.org/Place
p1379
aVhttp://umbel.org/umbel/rc/City
p1380
aVhttp://umbel.org/umbel/rc/Location_Underspecified
p1381
aVhttp://umbel.org/umbel/rc/PopulatedPlace
p1382
aVhttp://umbel.org/umbel/rc/Village
p1383
aVhttp://dbpedia.org/class/yago/AdministrativeDistrict108491826
p1384
aVhttp://dbpedia.org/class/yago/Area108497294
p1385
aVhttp://dbpedia.org/class/yago/Capital108518505
p1386
aVhttp://dbpedia.org/class/yago/CapitalsInAsia
p1387
aVhttp://dbpedia.org/class/yago/Center108523483
p1388
aVhttp://dbpedia.org/class/yago/City108524735
p1389
aVhttp://dbpedia.org/class/yago/District108552138
p1390
aVhttp://dbpedia.org/class/yago/Location100027167
p1391
aVhttp://dbpedia.org/class/yago/Object100002684
p1392
aVhttp://dbpedia.org/class/yago/Region108630985
p1393
aVhttp://dbpedia.org/class/yago/Seat108647945
p1394
aVhttp://dbpedia.org/class/yago/Site108651247
p1395
aVhttp://dbpedia.org/class/yago/Tract108673395
p1396
aVhttp://dbpedia.org/class/yago/UrbanArea108675967
p1397
aVhttp://dbpedia.org/class/yago/YagoGeoEntity
p1398
aVhttp://dbpedia.org/class/yago/YagoLegalActorGeo
p1399
aVhttp://dbpedia.org/class/yago/CitiesInVietnam
p1400
aVhttp://dbpedia.org/class/yago/DistrictCapitalsInVietnam
p1401
aVhttp://dbpedia.org/class/yago/GeographicalArea108574314
p1402
aVhttp://dbpedia.org/class/yago/Municipality108626283
p1403
aVhttp://dbpedia.org/class/yago/PhysicalEntity100001930
p1404
aVhttp://dbpedia.org/class/yago/YagoPermanentlyLocatedEntity
p1405
aVhttp://dbpedia.org/class/yago/PopulatedPlacesEstablishedInThe11thCentury
p1406
aVhttp://dbpedia.org/class/yago/PopulatedPlacesInHanoi
p1407
aVhttp://dbpedia.org/class/yago/PortCitiesInVietnam
p1408
aVhttp://dbpedia.org/resource/Hanoi
tp1409
aa(lp1410
a(lp1411
((lp1412
Vhttp://www.w3.org/2002/07/owl#Thing
p1413
aVhttp://dbpedia.org/resource/History_of_China
tp1414
aa(lp1415
((lVhttp://dbpedia.org/resource/Null
tp1416
aaa(lp1417
(lp1418
((lp1419
Vhttp://www.w3.org/2002/07/owl#Thing
p1420
aVhttp://dbpedia.org/ontology/Place
p1421
aVhttp://dbpedia.org/ontology/Location
p1422
aVhttp://www.wikidata.org/entity/Q486972
p1423
aVhttp://www.wikidata.org/entity/Q6256
p1424
aVhttp://dbpedia.org/ontology/Country
p1425
aVhttp://dbpedia.org/ontology/PopulatedPlace
p1426
aVhttp://www.w3.org/2003/01/geo/wgs84_pos#SpatialThing
p1427
aVhttp://schema.org/Country
p1428
aVhttp://schema.org/Place
p1429
aVhttp://umbel.org/umbel/rc/Country
p1430
aVhttp://umbel.org/umbel/rc/Location_Underspecified
p1431
aVhttp://umbel.org/umbel/rc/PopulatedPlace
p1432
aVhttp://dbpedia.org/resource/Turkey
tp1433
aa(lp1434
((lp1435
Vhttp://www.w3.org/2002/07/owl#Thing
p1436
aVhttp://dbpedia.org/ontology/Place
p1437
aVhttp://dbpedia.org/ontology/Location
p1438
aVhttp://www.wikidata.org/entity/Q486972
p1439
aVhttp://dbpedia.org/ontology/PopulatedPlace
p1440
aVhttp://dbpedia.org/ontology/Settlement
p1441
aVhttp://www.w3.org/2003/01/geo/wgs84_pos#SpatialThing
p1442
aVhttp://schema.org/Place
p1443
aVhttp://umbel.org/umbel/rc/Location_Underspecified
p1444
aVhttp://umbel.org/umbel/rc/PopulatedPlace
p1445
aVhttp://umbel.org/umbel/rc/Village
p1446
aVhttp://dbpedia.org/class/yago/AdministrativeDistrict108491826
p1447
aVhttp://dbpedia.org/class/yago/Area108497294
p1448
aVhttp://dbpedia.org/class/yago/Capital108518505
p1449
aVhttp://dbpedia.org/class/yago/CapitalsInAsia
p1450
aVhttp://dbpedia.org/class/yago/CapitalsInEurope
p1451
aVhttp://dbpedia.org/class/yago/Center108523483
p1452
aVhttp://dbpedia.org/class/yago/District108552138
p1453
aVhttp://dbpedia.org/class/yago/Location100027167
p1454
aVhttp://dbpedia.org/class/yago/Object100002684
p1455
aVhttp://dbpedia.org/class/yago/Region108630985
p1456
aVhttp://dbpedia.org/class/yago/Seat108647945
p1457
aVhttp://dbpedia.org/class/yago/Site108651247
p1458
aVhttp://dbpedia.org/class/yago/Tract108673395
p1459
aVhttp://dbpedia.org/class/yago/YagoGeoEntity
p1460
aVhttp://dbpedia.org/class/yago/YagoLegalActorGeo
p1461
aVhttp://dbpedia.org/class/yago/DistrictsOfAnkaraProvince
p1462
aVhttp://dbpedia.org/class/yago/GeographicalArea108574314
p1463
aVhttp://dbpedia.org/class/yago/PhysicalEntity100001930
p1464
aVhttp://dbpedia.org/class/yago/YagoPermanentlyLocatedEntity
p1465
aVhttp://dbpedia.org/class/yago/PopulatedPlacesInAnkaraProvince
p1466
aVhttp://dbpedia.org/resource/Ankara
tp1467
aa(lp1468
a(lp1469
((lp1470
Vhttp://www.w3.org/2002/07/owl#Thing
p1471
aVhttp://dbpedia.org/ontology/Place
p1472
aVhttp://dbpedia.org/ontology/Location
p1473
aVhttp://www.wikidata.org/entity/Q486972
p1474
aVhttp://www.wikidata.org/entity/Q6256
p1475
aVhttp://dbpedia.org/ontology/Country
p1476
aVhttp://dbpedia.org/ontology/PopulatedPlace
p1477
aVhttp://schema.org/Country
p1478
aVhttp://schema.org/Place
p1479
aVhttp://umbel.org/umbel/rc/Country
p1480
aVhttp://umbel.org/umbel/rc/Location_Underspecified
p1481
aVhttp://umbel.org/umbel/rc/PopulatedPlace
p1482
aVhttp://dbpedia.org/class/yago/AdministrativeDistrict108491826
p1483
aVhttp://dbpedia.org/class/yago/ByzantineEmpireSuccessorStates
p1484
aVhttp://dbpedia.org/class/yago/Country108544813
p1485
aVhttp://dbpedia.org/class/yago/District108552138
p1486
aVhttp://dbpedia.org/class/yago/Location100027167
p1487
aVhttp://dbpedia.org/class/yago/Object100002684
p1488
aVhttp://dbpedia.org/class/yago/Region108630985
p1489
aVhttp://dbpedia.org/class/yago/YagoGeoEntity
p1490
aVhttp://dbpedia.org/class/yago/YagoLegalActorGeo
p1491
aVhttp://dbpedia.org/class/yago/PhysicalEntity100001930
p1492
aVhttp://dbpedia.org/class/yago/YagoPermanentlyLocatedEntity
p1493
aVhttp://dbpedia.org/class/yago/HistoricalTurkicStates
p1494
aVhttp://dbpedia.org/class/yago/StatesAndTerritoriesEstablishedIn1299
p1495
aVhttp://dbpedia.org/class/yago/StatesInMedievalAnatolia
p1496
aVhttp://dbpedia.org/resource/Ottoman_Empire
tp1497
aa(lp1498
((lVhttp://dbpedia.org/resource/Null
tp1499
aaa(lp1500
(lp1501
((lp1502
Vhttp://www.w3.org/2002/07/owl#Thing
p1503
aVhttp://dbpedia.org/ontology/Place
p1504
aVhttp://dbpedia.org/ontology/Location
p1505
aVhttp://www.wikidata.org/entity/Q486972
p1506
aVhttp://www.wikidata.org/entity/Q6256
p1507
aVhttp://dbpedia.org/ontology/Country
p1508
aVhttp://dbpedia.org/ontology/PopulatedPlace
p1509
aVhttp://www.w3.org/2003/01/geo/wgs84_pos#SpatialThing
p1510
aVhttp://schema.org/Country
p1511
aVhttp://schema.org/Place
p1512
aVhttp://umbel.org/umbel/rc/Country
p1513
aVhttp://umbel.org/umbel/rc/Location_Underspecified
p1514
aVhttp://umbel.org/umbel/rc/PopulatedPlace
p1515
aVhttp://dbpedia.org/class/yago/Abstraction100002137
p1516
aVhttp://dbpedia.org/class/yago/AdministrativeDistrict108491826
p1517
aVhttp://dbpedia.org/class/yago/Arabic-speakingCountriesAndTerritories
p1518
aVhttp://dbpedia.org/class/yago/Country108544813
p1519
aVhttp://dbpedia.org/class/yago/District108552138
p1520
aVhttp://dbpedia.org/class/yago/Economy108366753
p1521
aVhttp://dbpedia.org/class/yago/Group100031264
p1522
aVhttp://dbpedia.org/class/yago/Location100027167
p1523
aVhttp://dbpedia.org/class/yago/Object100002684
p1524
aVhttp://dbpedia.org/class/yago/Region108630985
p1525
aVhttp://dbpedia.org/class/yago/System108435388
p1526
aVhttp://dbpedia.org/class/yago/YagoGeoEntity
p1527
aVhttp://dbpedia.org/class/yago/YagoLegalActorGeo
p1528
aVhttp://dbpedia.org/class/yago/CountriesBorderingTheRedSea
p1529
aVhttp://dbpedia.org/class/yago/CountriesOfTheIndianOcean
p1530
aVhttp://dbpedia.org/class/yago/PhysicalEntity100001930
p1531
aVhttp://dbpedia.org/class/yago/YagoPermanentlyLocatedEntity
p1532
aVhttp://dbpedia.org/class/yago/IslamicStates
p1533
aVhttp://dbpedia.org/class/yago/LeastDevelopedCountries
p1534
aVhttp://dbpedia.org/class/yago/MemberStatesOfTheArabLeague
p1535
aVhttp://dbpedia.org/class/yago/MemberStatesOfTheOrganisationOfIslamicCooperation
p1536
aVhttp://dbpedia.org/class/yago/MemberStatesOfTheUnitedNations
p1537
aVhttp://dbpedia.org/class/yago/MiddleEasternCountries
p1538
aVhttp://dbpedia.org/class/yago/StatesAndTerritoriesEstablishedIn1990
p1539
aVhttp://dbpedia.org/class/yago/WesternAsianCountries
p1540
aVhttp://dbpedia.org/resource/Yemen
tp1541
aa(lp1542
((lp1543
Vhttp://www.w3.org/2002/07/owl#Thing
p1544
aVhttp://xmlns.com/foaf/0.1/Person
p1545
aVhttp://dbpedia.org/ontology/Person
p1546
aVhttp://www.ontologydesignpatterns.org/ont/dul/DUL.owl#Agent
p1547
aVhttp://www.ontologydesignpatterns.org/ont/dul/DUL.owl#NaturalPerson
p1548
aVhttp://www.wikidata.org/entity/Q215627
p1549
aVhttp://www.wikidata.org/entity/Q36180
p1550
aVhttp://www.wikidata.org/entity/Q483501
p1551
aVhttp://www.wikidata.org/entity/Q5
p1552
aVhttp://dbpedia.org/ontology/Agent
p1553
aVhttp://dbpedia.org/ontology/Artist
p1554
aVhttp://dbpedia.org/ontology/Writer
p1555
aVhttp://schema.org/Person
p1556
aVhttp://umbel.org/umbel/rc/Artist
p1557
aVhttp://umbel.org/umbel/rc/Writer
p1558
aVhttp://dbpedia.org/class/yago/12th-centuryWriters
p1559
aVhttp://dbpedia.org/class/yago/CausalAgent100007347
p1560
aVhttp://dbpedia.org/class/yago/Communicator109610660
p1561
aVhttp://dbpedia.org/class/yago/LivingThing100004258
p1562
aVhttp://dbpedia.org/class/yago/Object100002684
p1563
aVhttp://dbpedia.org/class/yago/Organism100004475
p1564
aVhttp://dbpedia.org/class/yago/Person100007846
p1565
aVhttp://dbpedia.org/class/yago/Poet110444194
p1566
aVhttp://dbpedia.org/class/yago/Whole100003553
p1567
aVhttp://dbpedia.org/class/yago/Writer110794014
p1568
aVhttp://dbpedia.org/class/yago/YagoLegalActorGeo
p1569
aVhttp://dbpedia.org/class/yago/PhysicalEntity100001930
p1570
aVhttp://dbpedia.org/class/yago/MedievalPoets
p1571
aVhttp://dbpedia.org/class/yago/PersianPoets
p1572
aVhttp://dbpedia.org/class/yago/YagoLegalActor
p1573
aVhttp://dbpedia.org/class/yago/SufiPoets
p1574
aVhttp://dbpedia.org/class/yago/TajikPoets
p1575
aVhttp://dbpedia.org/resource/Sanai
tp1576
aa(lp1577
((lVhttp://dbpedia.org/resource/Arabic_English
tp1578
aa(lp1579
((lp1580
Vhttp://www.w3.org/2002/07/owl#Thing
p1581
aVhttp://dbpedia.org/ontology/Place
p1582
aVhttp://dbpedia.org/ontology/Location
p1583
aVhttp://www.wikidata.org/entity/Q486972
p1584
aVhttp://www.wikidata.org/entity/Q6256
p1585
aVhttp://dbpedia.org/ontology/Country
p1586
aVhttp://dbpedia.org/ontology/PopulatedPlace
p1587
aVhttp://schema.org/Country
p1588
aVhttp://schema.org/Place
p1589
aVhttp://umbel.org/umbel/rc/Country
p1590
aVhttp://umbel.org/umbel/rc/Location_Underspecified
p1591
aVhttp://umbel.org/umbel/rc/PopulatedPlace
p1592
aVhttp://dbpedia.org/class/yago/AdministrativeDistrict108491826
p1593
aVhttp://dbpedia.org/class/yago/Country108544813
p1594
aVhttp://dbpedia.org/class/yago/District108552138
p1595
aVhttp://dbpedia.org/class/yago/Domain108556491
p1596
aVhttp://dbpedia.org/class/yago/Location100027167
p1597
aVhttp://dbpedia.org/class/yago/Object100002684
p1598
aVhttp://dbpedia.org/class/yago/Region108630985
p1599
aVhttp://dbpedia.org/class/yago/YagoGeoEntity
p1600
aVhttp://dbpedia.org/class/yago/YagoLegalActorGeo
p1601
aVhttp://dbpedia.org/class/yago/Empire108557482
p1602
aVhttp://dbpedia.org/class/yago/Empires
p1603
aVhttp://dbpedia.org/class/yago/PhysicalEntity100001930
p1604
aVhttp://dbpedia.org/class/yago/YagoPermanentlyLocatedEntity
p1605
aVhttp://dbpedia.org/class/yago/OverseasEmpires
p1606
aVhttp://dbpedia.org/resource/British_Empire
tp1607
aa(lp1608
((lVhttp://dbpedia.org/resource/Null
p1609
tp1610
aaa.