ccollections
defaultdict
p1
(c__builtin__
dict
p2
tRp3
I0
(dp4
I1
(lp5
Vhttp://www.w3.org/2000/01/rdf-schema#seeAlso
p6
aVhttp://dbpedia.org/ontology/wikiPageExternalLink
p7
aVhttp://dbpedia.org/property/locale
p8
aVhttp://dbpedia.org/ontology/location
p9
aVhttp://www.w3.org/2000/01/rdf-schema#comment
p10
aVhttp://dbpedia.org/ontology/country
p11
aVhttp://dbpedia.org/ontology/abstract
p12
aVhttp://dbpedia.org/property/country
p13
aVhttp://dbpedia.org/property/place
p14
aVhttp://dbpedia.org/property/location
p15
aVhttp://dbpedia.org/property/city
p16
aVhttp://dbpedia.org/ontology/locationCountry
p17
aVhttp://dbpedia.org/ontology/city
p18
aVhttp://dbpedia.org/property/caption
p19
aVhttp://dbpedia.org/property/fullname
p20
aVhttp://dbpedia.org/property/subdivisionName
p21
asI2
(lp22
sI3
(lp23
sI4
(lp24
ssI1
(dp25
I1
(lp26
Vhttp://www.w3.org/2000/01/rdf-schema#seeAlso
p27
aVhttp://dbpedia.org/property/origin
p28
aVhttp://dbpedia.org/property/ground
p29
aVhttp://dbpedia.org/property/today
p30
aVhttp://dbpedia.org/property/caption
p31
aVhttp://dbpedia.org/ontology/regionServed
p32
aVhttp://dbpedia.org/ontology/country
p33
aVhttp://dbpedia.org/property/locationCountry
p34
aVhttp://dbpedia.org/ontology/ground
p35
aVhttp://dbpedia.org/property/image
p36
aVhttp://dbpedia.org/property/owner
p37
aVhttp://dbpedia.org/property/country
p38
aVhttp://dbpedia.org/property/state
p39
aVhttp://dbpedia.org/property/areaServed
p40
aVhttp://dbpedia.org/ontology/abstract
p41
aVhttp://dbpedia.org/property/location
p42
aVhttp://dbpedia.org/ontology/locationCountry
p43
aVhttp://dbpedia.org/ontology/city
p44
aVhttp://dbpedia.org/property/subdivisionName
p45
aVhttp://dbpedia.org/property/headquarters
p46
aVhttp://dbpedia.org/property/locale
p47
aVhttp://dbpedia.org/ontology/state
p48
aVhttp://dbpedia.org/ontology/territory
p49
aVhttp://dbpedia.org/ontology/location
p50
aVhttp://www.w3.org/2000/01/rdf-schema#comment
p51
aVhttp://dbpedia.org/ontology/hometown
p52
aVhttp://dbpedia.org/property/basedIn
p53
asI2
(lp54
sI3
(lp55
sI4
(lp56
ssI2
(dp57
I1
(lp58
Vhttp://www.w3.org/2000/01/rdf-schema#seeAlso
p59
aVhttp://dbpedia.org/ontology/country
p60
aVhttp://dbpedia.org/property/locale
p61
aVhttp://dbpedia.org/ontology/location
p62
aVhttp://dbpedia.org/property/origin
p63
aVhttp://www.w3.org/2000/01/rdf-schema#comment
p64
aVhttp://dbpedia.org/ontology/abstract
p65
aVhttp://dbpedia.org/property/location
p66
aVhttp://dbpedia.org/ontology/ground
p67
aVhttp://dbpedia.org/property/cityServed
p68
aVhttp://dbpedia.org/ontology/hometown
p69
aVhttp://dbpedia.org/ontology/locationCountry
p70
aVhttp://dbpedia.org/property/country
p71
aVhttp://dbpedia.org/ontology/city
p72
aVhttp://dbpedia.org/property/locationCountry
p73
asI2
(lp74
Vhttp://www.w3.org/2000/01/rdf-schema#seeAlso
p75
aVhttp://dbpedia.org/ontology/ideology
p76
aVhttp://dbpedia.org/ontology/origin
p77
aVhttp://dbpedia.org/property/place
p78
aVhttp://dbpedia.org/ontology/jurisdiction
p79
aVhttp://dbpedia.org/property/territory
p80
aVhttp://dbpedia.org/ontology/demonym
p81
aVhttp://dbpedia.org/ontology/officialLanguage
p82
aVhttp://dbpedia.org/property/religion
p83
aVhttp://dbpedia.org/property/reason
p84
aVhttp://dbpedia.org/property/region
p85
aVhttp://dbpedia.org/property/empire
p86
aVhttp://dbpedia.org/property/site
p87
aVhttp://dbpedia.org/property/birthPlace
p88
aVhttp://dbpedia.org/property/headquarters
p89
aVhttp://dbpedia.org/ontology/place
p90
aVhttp://dbpedia.org/property/placeOfBirth
p91
aVhttp://dbpedia.org/property/counties
p92
aVhttp://dbpedia.org/property/country
p93
aVhttp://dbpedia.org/property/establishedEvent
p94
aVhttp://dbpedia.org/ontology/county
p95
aVhttp://dbpedia.org/property/locale
p96
aVhttp://purl.org/dc/terms/subject
p97
aVhttp://dbpedia.org/ontology/populationPlace
p98
aVhttp://dbpedia.org/property/origin
p99
aVhttp://dbpedia.org/ontology/country
p100
aVhttp://dbpedia.org/property/ideology
p101
aVhttp://dbpedia.org/ontology/abstract
p102
aVhttp://dbpedia.org/property/location
p103
aVhttp://dbpedia.org/ontology/usingCountry
p104
aVhttp://dbpedia.org/property/states
p105
aVhttp://dbpedia.org/ontology/locationCountry
p106
aVhttp://dbpedia.org/ontology/headquarter
p107
aVhttp://dbpedia.org/ontology/similar
p108
aVhttp://dbpedia.org/ontology/language
p109
aVhttp://dbpedia.org/property/officialLanguages
p110
aVhttp://dbpedia.org/ontology/homeport
p111
aVhttp://dbpedia.org/property/jurisdiction
p112
aVhttp://dbpedia.org/ontology/location
p113
aVhttp://www.w3.org/2000/01/rdf-schema#comment
p114
aVhttp://dbpedia.org/ontology/birthPlace
p115
aVhttp://dbpedia.org/ontology/builder
p116
aVhttp://dbpedia.org/ontology/hometown
p117
aVhttp://dbpedia.org/ontology/garrison
p118
aVhttp://dbpedia.org/property/areaServed
p119
aVhttp://dbpedia.org/ontology/spokenIn
p120
aVhttp://dbpedia.org/property/garrison
p121
aVhttp://dbpedia.org/property/locationCountry
p122
aVhttp://dbpedia.org/property/observedby
p123
asI3
(lp124
sI4
(lp125
ssI3
(dp126
I1
(lp127
sI2
(lp128
sI3
(lp129
sI4
(lp130
ssI4
(dp131
I1
(lp132
Vhttp://www.w3.org/2000/01/rdf-schema#seeAlso
p133
aVhttp://dbpedia.org/property/origin
p134
aVhttp://dbpedia.org/property/basedIn
p135
aVhttp://dbpedia.org/ontology/origin
p136
aVhttp://dbpedia.org/property/restingPlace
p137
aVhttp://dbpedia.org/property/place
p138
aVhttp://dbpedia.org/property/stateParty
p139
aVhttp://dbpedia.org/ontology/foundationPlace
p140
aVhttp://dbpedia.org/property/namedFor
p141
aVhttp://dbpedia.org/property/city
p142
aVhttp://dbpedia.org/property/caption
p143
aVhttp://dbpedia.org/property/capital
p144
aVhttp://dbpedia.org/ontology/country
p145
aVhttp://dbpedia.org/property/region
p146
aVhttp://dbpedia.org/ontology/capital
p147
aVhttp://dbpedia.org/property/locationCountry
p148
aVhttp://dbpedia.org/property/birthPlace
p149
aVhttp://dbpedia.org/ontology/ground
p150
aVhttp://dbpedia.org/property/venue
p151
aVhttp://dbpedia.org/ontology/nationality
p152
aVhttp://dbpedia.org/property/image
p153
aVhttp://dbpedia.org/ontology/place
p154
aVhttp://dbpedia.org/property/nationalOrigin
p155
aVhttp://dbpedia.org/property/nationality
p156
aVhttp://dbpedia.org/property/country
p157
aVhttp://dbpedia.org/property/placeOfBirth
p158
aVhttp://dbpedia.org/property/dateOfBirth
p159
aVhttp://dbpedia.org/ontology/residence
p160
aVhttp://dbpedia.org/ontology/abstract
p161
aVhttp://dbpedia.org/ontology/recordedIn
p162
aVhttp://dbpedia.org/property/endowment
p163
aVhttp://dbpedia.org/property/location
p164
aVhttp://dbpedia.org/property/cityServed
p165
aVhttp://dbpedia.org/ontology/locationCountry
p166
aVhttp://dbpedia.org/ontology/headquarter
p167
aVhttp://dbpedia.org/ontology/city
p168
aVhttp://dbpedia.org/ontology/language
p169
aVhttp://dbpedia.org/property/headquarters
p170
aVhttp://dbpedia.org/property/locale
p171
aVhttp://dbpedia.org/property/states
p172
aVhttp://dbpedia.org/property/residence
p173
aVhttp://dbpedia.org/ontology/location
p174
aVhttp://www.w3.org/2000/01/rdf-schema#comment
p175
aVhttp://dbpedia.org/ontology/birthPlace
p176
aVhttp://dbpedia.org/ontology/hometown
p177
aVhttp://dbpedia.org/property/stadium
p178
aVhttp://dbpedia.org/ontology/spokenIn
p179
aVhttp://dbpedia.org/ontology/stateOfOrigin
p180
aVhttp://dbpedia.org/property/dateOfDeath
p181
aVhttp://www.w3.org/2002/07/owl#sameAs
p182
aVhttp://dbpedia.org/ontology/homeStadium
p183
asI2
(lp184
Vhttp://dbpedia.org/property/origin
p185
aVhttp://dbpedia.org/property/placeOfDeath
p186
aVhttp://dbpedia.org/property/broadcastArea
p187
aVhttp://dbpedia.org/property/sovereigntyType
p188
aVhttp://www.w3.org/ns/prov#wasDerivedFrom
p189
aVhttp://dbpedia.org/ontology/fastestDriverCountry
p190
aVhttp://dbpedia.org/ontology/demonym
p191
aVhttp://dbpedia.org/ontology/regionServed
p192
aVhttp://dbpedia.org/ontology/nationality
p193
aVhttp://xmlns.com/foaf/0.1/isPrimaryTopicOf
p194
aVhttp://dbpedia.org/property/byCountry
p195
aVhttp://dbpedia.org/property/nat
p196
aVhttp://dbpedia.org/property/nationality
p197
aVhttp://dbpedia.org/ontology/abstract
p198
aVhttp://dbpedia.org/ontology/recordedIn
p199
aVhttp://dbpedia.org/ontology/architecturalStyle
p200
aVhttp://dbpedia.org/ontology/location
p201
aVhttp://dbpedia.org/property/imageMap
p202
aVhttp://dbpedia.org/property/officialLanguages
p203
aVhttp://dbpedia.org/property/area
p204
aVhttp://dbpedia.org/ontology/hometown
p205
aVhttp://dbpedia.org/ontology/spokenIn
p206
aVhttp://dbpedia.org/property/leaderTitle
p207
aVhttp://www.w3.org/2000/01/rdf-schema#seeAlso
p208
aVhttp://dbpedia.org/ontology/wikiPageExternalLink
p209
aVhttp://dbpedia.org/property/hostCity
p210
aVhttp://dbpedia.org/property/conventionalLongName
p211
aVhttp://dbpedia.org/ontology/foundationPlace
p212
aVhttp://dbpedia.org/ontology/poleDriverCountry
p213
aVhttp://dbpedia.org/ontology/locatedInArea
p214
aVhttp://dbpedia.org/ontology/officialLanguage
p215
aVhttp://dbpedia.org/ontology/country
p216
aVhttp://dbpedia.org/property/birthPlace
p217
aVhttp://dbpedia.org/property/country/region
p218
aVhttp://dbpedia.org/property/country
p219
aVhttp://dbpedia.org/ontology/county
p220
aVhttp://xmlns.com/foaf/0.1/primaryTopic
p221
aVhttp://dbpedia.org/ontology/campus
p222
aVhttp://dbpedia.org/ontology/firstDriverCountry
p223
aVhttp://dbpedia.org/property/states
p224
aVhttp://dbpedia.org/ontology/locationCountry
p225
aVhttp://dbpedia.org/ontology/deathPlace
p226
aVhttp://dbpedia.org/property/hasPhotoCollection
p227
aVhttp://dbpedia.org/property/headquarters
p228
aVhttp://dbpedia.org/ontology/birthPlace
p229
aVhttp://dbpedia.org/ontology/wikiPageRedirects
p230
aVhttp://dbpedia.org/property/citizenship
p231
aVhttp://dbpedia.org/property/imageCoat
p232
aVhttp://dbpedia.org/ontology/stateOfOrigin
p233
aVhttp://www.w3.org/2002/07/owl#sameAs
p234
aVhttp://dbpedia.org/property/recorded
p235
aVhttp://dbpedia.org/property/winnerOrigin
p236
aVhttp://dbpedia.org/ontology/longName
p237
aVhttp://www.w3.org/1999/02/22-rdf-syntax-ns#type
p238
aVhttp://dbpedia.org/property/locationCountry
p239
aVhttp://dbpedia.org/ontology/secondDriverCountry
p240
aVhttp://dbpedia.org/property/locationSigned
p241
aVhttp://dbpedia.org/property/namedAfter
p242
aVhttp://dbpedia.org/property/title
p243
aVhttp://dbpedia.org/property/placeOfBirth
p244
aVhttp://xmlns.com/foaf/0.1/depiction
p245
aVhttp://dbpedia.org/property/observedby
p246
aVhttp://dbpedia.org/ontology/flag
p247
aVhttp://dbpedia.org/property/commonName
p248
aVhttp://dbpedia.org/property/subdivisionName
p249
aVhttp://dbpedia.org/property/shipCountry
p250
aVhttp://dbpedia.org/property/locationCity
p251
aVhttp://dbpedia.org/property/establishedEvent
p252
aVhttp://dbpedia.org/property/stadium
p253
aVhttp://dbpedia.org/property/place
p254
aVhttp://dbpedia.org/property/footnoteA
p255
aVhttp://dbpedia.org/property/caption
p256
aVhttp://dbpedia.org/ontology/thirdDriverCountry
p257
aVhttp://www.w3.org/2002/07/owl#differentFrom
p258
aVhttp://dbpedia.org/property/upperHouse
p259
aVhttp://dbpedia.org/property/locations
p260
aVhttp://dbpedia.org/ontology/place
p261
aVhttp://dbpedia.org/property/language
p262
aVhttp://dbpedia.org/property/demonym
p263
aVhttp://dbpedia.org/ontology/wikiPageDisambiguates
p264
aVhttp://purl.org/dc/terms/subject
p265
aVhttp://dbpedia.org/ontology/populationPlace
p266
aVhttp://dbpedia.org/property/location
p267
aVhttp://dbpedia.org/property/armiger
p268
aVhttp://dbpedia.org/ontology/headquarter
p269
aVhttp://dbpedia.org/property/foundation
p270
aVhttp://www.w3.org/2000/01/rdf-schema#label
p271
aVhttp://dbpedia.org/ontology/language
p272
aVhttp://dbpedia.org/ontology/broadcastArea
p273
aVhttp://dbpedia.org/property/basinCountries
p274
aVhttp://www.w3.org/2000/01/rdf-schema#comment
p275
aVhttp://dbpedia.org/property/seat
p276
aVhttp://dbpedia.org/property/imageFlag
p277
aVhttp://dbpedia.org/property/regionServed
p278
aVhttp://xmlns.com/foaf/0.1/name
p279
aVhttp://dbpedia.org/ontology/locationCity
p280
aVhttp://dbpedia.org/property/buried
p281
aVhttp://dbpedia.org/ontology/thumbnail
p282
asI3
(lp283
sI4
(lp284
Vhttp://dbpedia.org/ontology/country
p285
aVhttp://dbpedia.org/ontology/birthPlace
p286
aVhttp://dbpedia.org/property/birthPlace
p287
aVhttp://dbpedia.org/property/country
p288
assI5
(dp289
I1
(lp290
Vhttp://www.w3.org/2000/01/rdf-schema#seeAlso
p291
aVhttp://dbpedia.org/property/placeOfDeath
p292
aVhttp://dbpedia.org/ontology/type
p293
aVhttp://dbpedia.org/property/ground
p294
aVhttp://dbpedia.org/property/place
p295
aVhttp://dbpedia.org/property/namedFor
p296
aVhttp://dbpedia.org/property/city
p297
aVhttp://dbpedia.org/ontology/ground
p298
aVhttp://dbpedia.org/ontology/country
p299
aVhttp://dbpedia.org/ontology/capital
p300
aVhttp://dbpedia.org/property/locationCountry
p301
aVhttp://dbpedia.org/property/capital
p302
aVhttp://dbpedia.org/property/birthPlace
p303
aVhttp://dbpedia.org/ontology/place
p304
aVhttp://dbpedia.org/property/placeOfBirth
p305
aVhttp://dbpedia.org/property/stateParty
p306
aVhttp://dbpedia.org/property/owner
p307
aVhttp://dbpedia.org/property/country
p308
aVhttp://dbpedia.org/ontology/abstract
p309
aVhttp://dbpedia.org/property/deathPlace
p310
aVhttp://dbpedia.org/property/location
p311
aVhttp://dbpedia.org/ontology/locationCountry
p312
aVhttp://dbpedia.org/ontology/deathPlace
p313
aVhttp://dbpedia.org/ontology/city
p314
aVhttp://dbpedia.org/property/subdivisionName
p315
aVhttp://dbpedia.org/property/headquarters
p316
aVhttp://dbpedia.org/property/locale
p317
aVhttp://dbpedia.org/ontology/location
p318
aVhttp://www.w3.org/2000/01/rdf-schema#comment
p319
aVhttp://dbpedia.org/ontology/birthPlace
p320
aVhttp://dbpedia.org/property/countriesAffected
p321
asI2
(lp322
Vhttp://www.w3.org/2000/01/rdf-schema#seeAlso
p323
aVhttp://dbpedia.org/property/origin
p324
aVhttp://dbpedia.org/ontology/origin
p325
aVhttp://dbpedia.org/property/place
p326
aVhttp://dbpedia.org/property/footnoteA
p327
aVhttp://dbpedia.org/ontology/demonym
p328
aVhttp://dbpedia.org/ontology/officialLanguage
p329
aVhttp://dbpedia.org/ontology/country
p330
aVhttp://dbpedia.org/property/usingCountries
p331
aVhttp://dbpedia.org/property/headquarters
p332
aVhttp://dbpedia.org/property/winnerOrigin
p333
aVhttp://dbpedia.org/property/foundedPlace
p334
aVhttp://dbpedia.org/property/country
p335
aVhttp://dbpedia.org/ontology/wikiPageExternalLink
p336
aVhttp://dbpedia.org/ontology/populationPlace
p337
aVhttp://dbpedia.org/ontology/abstract
p338
aVhttp://dbpedia.org/property/location
p339
aVhttp://dbpedia.org/ontology/usingCountry
p340
aVhttp://dbpedia.org/property/regions
p341
aVhttp://dbpedia.org/ontology/headquarter
p342
aVhttp://dbpedia.org/property/shipNamesake
p343
aVhttp://dbpedia.org/ontology/language
p344
aVhttp://dbpedia.org/ontology/location
p345
aVhttp://dbpedia.org/property/states
p346
aVhttp://dbpedia.org/property/officialLanguages
p347
aVhttp://www.w3.org/2000/01/rdf-schema#comment
p348
aVhttp://dbpedia.org/ontology/birthPlace
p349
aVhttp://dbpedia.org/ontology/wikiPageRedirects
p350
aVhttp://dbpedia.org/property/area
p351
aVhttp://dbpedia.org/ontology/hometown
p352
aVhttp://dbpedia.org/property/demonym
p353
aVhttp://dbpedia.org/ontology/spokenIn
p354
aVhttp://dbpedia.org/property/foundingLocation
p355
aVhttp://dbpedia.org/property/jurisdiction
p356
aVhttp://dbpedia.org/property/popplace
p357
asI3
(lp358
sI4
(lp359
ssI6
(dp360
I1
(lp361
Vhttp://www.w3.org/2000/01/rdf-schema#seeAlso
p362
aVhttp://dbpedia.org/property/nameorigin
p363
aVhttp://dbpedia.org/property/place
p364
aVhttp://dbpedia.org/property/city
p365
aVhttp://dbpedia.org/ontology/locatedInArea
p366
aVhttp://dbpedia.org/ontology/country
p367
aVhttp://dbpedia.org/property/region
p368
aVhttp://dbpedia.org/ontology/ground
p369
aVhttp://dbpedia.org/ontology/place
p370
aVhttp://dbpedia.org/property/stateParty
p371
aVhttp://dbpedia.org/property/country
p372
aVhttp://dbpedia.org/ontology/picture
p373
aVhttp://dbpedia.org/ontology/abstract
p374
aVhttp://dbpedia.org/property/location
p375
aVhttp://dbpedia.org/property/cityServed
p376
aVhttp://dbpedia.org/ontology/city
p377
aVhttp://dbpedia.org/property/shipNamesake
p378
aVhttp://dbpedia.org/property/headquarters
p379
aVhttp://dbpedia.org/property/locale
p380
aVhttp://dbpedia.org/ontology/location
p381
aVhttp://www.w3.org/2000/01/rdf-schema#comment
p382
aVhttp://dbpedia.org/property/address
p383
aVhttp://dbpedia.org/ontology/nonFictionSubject
p384
asI2
(lp385
sI3
(lp386
sI4
(lp387
ssI7
(dp388
I1
(lp389
Vhttp://www.w3.org/2000/01/rdf-schema#seeAlso
p390
aVhttp://dbpedia.org/property/placeOfDeath
p391
aVhttp://dbpedia.org/ontology/majorShrine
p392
aVhttp://dbpedia.org/property/place
p393
aVhttp://dbpedia.org/ontology/poleDriverCountry
p394
aVhttp://dbpedia.org/ontology/country
p395
aVhttp://dbpedia.org/property/assembly
p396
aVhttp://dbpedia.org/property/majorShrine
p397
aVhttp://dbpedia.org/property/parties
p398
aVhttp://dbpedia.org/ontology/nationality
p399
aVhttp://dbpedia.org/property/birthPlace
p400
aVhttp://dbpedia.org/ontology/place
p401
aVhttp://dbpedia.org/property/nationalOrigin
p402
aVhttp://dbpedia.org/property/locationSigned
p403
aVhttp://dbpedia.org/property/country
p404
aVhttp://dbpedia.org/property/placeOfBirth
p405
aVhttp://dbpedia.org/property/nationality
p406
aVhttp://dbpedia.org/ontology/abstract
p407
aVhttp://dbpedia.org/ontology/firstDriverCountry
p408
aVhttp://dbpedia.org/property/deathPlace
p409
aVhttp://dbpedia.org/property/location
p410
aVhttp://dbpedia.org/ontology/deathPlace
p411
aVhttp://dbpedia.org/property/fullname
p412
aVhttp://dbpedia.org/ontology/language
p413
aVhttp://dbpedia.org/property/locale
p414
aVhttp://dbpedia.org/ontology/assembly
p415
aVhttp://dbpedia.org/ontology/location
p416
aVhttp://dbpedia.org/ontology/birthPlace
p417
asI2
(lp418
sI3
(lp419
sI4
(lp420
Vhttp://dbpedia.org/ontology/birthPlace
p421
aVhttp://dbpedia.org/property/birthPlace
p422
aVhttp://dbpedia.org/property/placeOfBirth
p423
assI8
(dp424
I1
(lp425
Vhttp://www.w3.org/2000/01/rdf-schema#seeAlso
p426
aVhttp://dbpedia.org/property/recorded
p427
aVhttp://dbpedia.org/property/shipRegistry
p428
aVhttp://dbpedia.org/property/stateParty
p429
aVhttp://dbpedia.org/property/city
p430
aVhttp://dbpedia.org/property/capital
p431
aVhttp://dbpedia.org/ontology/country
p432
aVhttp://dbpedia.org/property/region
p433
aVhttp://dbpedia.org/property/footnoteB
p434
aVhttp://dbpedia.org/ontology/capital
p435
aVhttp://dbpedia.org/property/locationCountry
p436
aVhttp://dbpedia.org/ontology/ground
p437
aVhttp://dbpedia.org/property/locationSigned
p438
aVhttp://dbpedia.org/property/country
p439
aVhttp://dbpedia.org/property/shipCountry
p440
aVhttp://dbpedia.org/ontology/abstract
p441
aVhttp://dbpedia.org/ontology/recordedIn
p442
aVhttp://dbpedia.org/property/location
p443
aVhttp://dbpedia.org/property/cityServed
p444
aVhttp://dbpedia.org/property/territory
p445
aVhttp://dbpedia.org/ontology/city
p446
aVhttp://dbpedia.org/property/subdivisionName
p447
aVhttp://dbpedia.org/ontology/language
p448
aVhttp://dbpedia.org/ontology/location
p449
aVhttp://dbpedia.org/property/locale
p450
aVhttp://dbpedia.org/property/headquarters
p451
aVhttp://www.w3.org/2000/01/rdf-schema#comment
p452
asI2
(lp453
sI3
(lp454
sI4
(lp455
ssI9
(dp456
I1
(lp457
Vhttp://www.w3.org/2000/01/rdf-schema#seeAlso
p458
aVhttp://dbpedia.org/property/origin
p459
aVhttp://dbpedia.org/property/hostCity
p460
aVhttp://dbpedia.org/property/place
p461
aVhttp://dbpedia.org/property/cityOrRegion
p462
aVhttp://dbpedia.org/ontology/regionServed
p463
aVhttp://dbpedia.org/ontology/country
p464
aVhttp://dbpedia.org/property/locationCountry
p465
aVhttp://dbpedia.org/property/country
p466
aVhttp://dbpedia.org/ontology/abstract
p467
aVhttp://dbpedia.org/property/location
p468
aVhttp://dbpedia.org/property/cityServed
p469
aVhttp://dbpedia.org/ontology/locationCountry
p470
aVhttp://dbpedia.org/ontology/headquarter
p471
aVhttp://dbpedia.org/ontology/city
p472
aVhttp://dbpedia.org/property/fullname
p473
aVhttp://dbpedia.org/property/subdivisionName
p474
aVhttp://dbpedia.org/property/locale
p475
aVhttp://dbpedia.org/property/shipBuilder
p476
aVhttp://dbpedia.org/ontology/location
p477
aVhttp://www.w3.org/2000/01/rdf-schema#comment
p478
aVhttp://dbpedia.org/ontology/builder
p479
aVhttp://dbpedia.org/ontology/hometown
p480
asI2
(lp481
Vhttp://www.w3.org/2000/01/rdf-schema#seeAlso
p482
aVhttp://dbpedia.org/property/origin
p483
aVhttp://dbpedia.org/property/awardedBy
p484
aVhttp://dbpedia.org/property/place
p485
aVhttp://dbpedia.org/property/northwest
p486
aVhttp://dbpedia.org/property/placeOfDeath
p487
aVhttp://dbpedia.org/ontology/regionServed
p488
aVhttp://dbpedia.org/ontology/country
p489
aVhttp://dbpedia.org/property/region
p490
aVhttp://dbpedia.org/property/locationCountry
p491
aVhttp://dbpedia.org/property/allegiance
p492
aVhttp://dbpedia.org/property/combatant
p493
aVhttp://dbpedia.org/ontology/place
p494
aVhttp://dbpedia.org/property/placeOfBirth
p495
aVhttp://dbpedia.org/property/office
p496
aVhttp://dbpedia.org/property/owner
p497
aVhttp://dbpedia.org/property/country
p498
aVhttp://dbpedia.org/property/areaServed
p499
aVhttp://dbpedia.org/ontology/abstract
p500
aVhttp://dbpedia.org/property/regionServed
p501
aVhttp://dbpedia.org/property/location
p502
aVhttp://dbpedia.org/ontology/usingCountry
p503
aVhttp://dbpedia.org/property/states
p504
aVhttp://dbpedia.org/ontology/locationCountry
p505
aVhttp://dbpedia.org/ontology/deathPlace
p506
aVhttp://dbpedia.org/property/observedby
p507
aVhttp://dbpedia.org/property/foundation
p508
aVhttp://dbpedia.org/ontology/foundationPlace
p509
aVhttp://dbpedia.org/property/headquarters
p510
aVhttp://dbpedia.org/property/basinCountries
p511
aVhttp://dbpedia.org/ontology/location
p512
aVhttp://www.w3.org/2000/01/rdf-schema#comment
p513
aVhttp://dbpedia.org/ontology/birthPlace
p514
aVhttp://dbpedia.org/ontology/wikiPageRedirects
p515
aVhttp://dbpedia.org/ontology/hometown
p516
aVhttp://dbpedia.org/ontology/spokenIn
p517
aVhttp://dbpedia.org/ontology/headquarter
p518
asI3
(lp519
sI4
(lp520
ssI10
(dp521
I1
(lp522
Vhttp://www.w3.org/2000/01/rdf-schema#seeAlso
p523
aVhttp://dbpedia.org/property/origin
p524
aVhttp://dbpedia.org/property/place
p525
aVhttp://dbpedia.org/property/territory
p526
aVhttp://dbpedia.org/ontology/country
p527
aVhttp://dbpedia.org/property/locationCountry
p528
aVhttp://dbpedia.org/ontology/ground
p529
aVhttp://dbpedia.org/ontology/place
p530
aVhttp://dbpedia.org/property/stateParty
p531
aVhttp://dbpedia.org/property/country
p532
aVhttp://dbpedia.org/property/establishedEvent
p533
aVhttp://dbpedia.org/property/locationSigned
p534
aVhttp://dbpedia.org/property/location
p535
aVhttp://dbpedia.org/property/district
p536
aVhttp://dbpedia.org/property/cityServed
p537
aVhttp://dbpedia.org/ontology/locationCountry
p538
aVhttp://dbpedia.org/ontology/district
p539
aVhttp://dbpedia.org/ontology/city
p540
aVhttp://dbpedia.org/property/subdivisionName
p541
aVhttp://dbpedia.org/property/locale
p542
aVhttp://dbpedia.org/ontology/location
p543
aVhttp://dbpedia.org/ontology/hometown
p544
aVhttp://dbpedia.org/ontology/spokenIn
p545
asI2
(lp546
sI3
(lp547
sI4
(lp548
ssI11
(dp549
I1
(lp550
Vhttp://www.w3.org/2000/01/rdf-schema#seeAlso
p551
aVhttp://dbpedia.org/ontology/country
p552
aVhttp://dbpedia.org/property/locale
p553
aVhttp://dbpedia.org/property/origin
p554
aVhttp://dbpedia.org/ontology/hometown
p555
aVhttp://dbpedia.org/property/place
p556
aVhttp://dbpedia.org/property/location
p557
aVhttp://dbpedia.org/property/cityServed
p558
aVhttp://dbpedia.org/property/city
p559
aVhttp://dbpedia.org/property/country
p560
aVhttp://dbpedia.org/ontology/city
p561
aVhttp://dbpedia.org/property/div
p562
asI2
(lp563
Vhttp://www.w3.org/2000/01/rdf-schema#seeAlso
p564
aVhttp://dbpedia.org/property/origin
p565
aVhttp://dbpedia.org/ontology/origin
p566
aVhttp://dbpedia.org/property/conventionalLongName
p567
aVhttp://dbpedia.org/ontology/garrison
p568
aVhttp://dbpedia.org/ontology/longName
p569
aVhttp://dbpedia.org/property/footnoteA
p570
aVhttp://dbpedia.org/ontology/demonym
p571
aVhttp://dbpedia.org/ontology/officialLanguage
p572
aVhttp://dbpedia.org/ontology/country
p573
aVhttp://dbpedia.org/property/region
p574
aVhttp://www.w3.org/1999/02/22-rdf-syntax-ns#type
p575
aVhttp://dbpedia.org/property/birthPlace
p576
aVhttp://dbpedia.org/property/headquarters
p577
aVhttp://dbpedia.org/ontology/place
p578
aVhttp://dbpedia.org/ontology/ethnicGroup
p579
aVhttp://dbpedia.org/property/country
p580
aVhttp://dbpedia.org/property/shipCountry
p581
aVhttp://dbpedia.org/property/establishedEvent
p582
aVhttp://dbpedia.org/property/placeOfBirth
p583
aVhttp://dbpedia.org/ontology/wikiPageExternalLink
p584
aVhttp://purl.org/dc/terms/subject
p585
aVhttp://dbpedia.org/ontology/abstract
p586
aVhttp://dbpedia.org/property/regionServed
p587
aVhttp://dbpedia.org/property/location
p588
aVhttp://dbpedia.org/ontology/usingCountry
p589
aVhttp://dbpedia.org/property/states
p590
aVhttp://dbpedia.org/ontology/headquarter
p591
aVhttp://dbpedia.org/property/builder
p592
aVhttp://dbpedia.org/ontology/language
p593
aVhttp://dbpedia.org/ontology/location
p594
aVhttp://dbpedia.org/property/jurisdiction
p595
aVhttp://dbpedia.org/property/officialLanguages
p596
aVhttp://www.w3.org/2000/01/rdf-schema#comment
p597
aVhttp://dbpedia.org/ontology/birthPlace
p598
aVhttp://dbpedia.org/ontology/wikiPageRedirects
p599
aVhttp://dbpedia.org/ontology/hometown
p600
aVhttp://dbpedia.org/property/demonym
p601
aVhttp://dbpedia.org/ontology/spokenIn
p602
aVhttp://dbpedia.org/property/garrison
p603
asI3
(lp604
sI4
(lp605
ssI12
(dp606
I1
(lp607
Vhttp://www.w3.org/2000/01/rdf-schema#seeAlso
p608
aVhttp://dbpedia.org/ontology/country
p609
aVhttp://dbpedia.org/ontology/state
p610
aVhttp://dbpedia.org/property/locale
p611
aVhttp://dbpedia.org/ontology/location
p612
aVhttp://dbpedia.org/property/subdivisionName
p613
aVhttp://www.w3.org/2000/01/rdf-schema#comment
p614
aVhttp://dbpedia.org/ontology/abstract
p615
aVhttp://dbpedia.org/ontology/recordedIn
p616
aVhttp://dbpedia.org/property/location
p617
aVhttp://dbpedia.org/property/discoverySite
p618
aVhttp://dbpedia.org/ontology/ground
p619
aVhttp://dbpedia.org/property/city
p620
aVhttp://dbpedia.org/ontology/garrison
p621
aVhttp://dbpedia.org/property/ground
p622
aVhttp://dbpedia.org/property/country
p623
aVhttp://dbpedia.org/ontology/city
p624
aVhttp://dbpedia.org/property/fullname
p625
aVhttp://dbpedia.org/property/garrison
p626
aVhttp://dbpedia.org/property/state
p627
aVhttp://dbpedia.org/property/headquarters
p628
asI2
(lp629
Vhttp://www.w3.org/2000/01/rdf-schema#seeAlso
p630
aVhttp://dbpedia.org/property/origin
p631
aVhttp://dbpedia.org/ontology/wikiPageRedirects
p632
aVhttp://dbpedia.org/ontology/poleDriverCountry
p633
aVhttp://dbpedia.org/ontology/demonym
p634
aVhttp://dbpedia.org/ontology/country
p635
aVhttp://www.w3.org/1999/02/22-rdf-syntax-ns#type
p636
aVhttp://dbpedia.org/property/locationCountry
p637
aVhttp://dbpedia.org/ontology/secondDriverCountry
p638
aVhttp://dbpedia.org/property/allegiance
p639
aVhttp://dbpedia.org/property/locationCity
p640
aVhttp://dbpedia.org/property/birthPlace
p641
aVhttp://dbpedia.org/ontology/place
p642
aVhttp://dbpedia.org/ontology/ethnicGroup
p643
aVhttp://dbpedia.org/property/office
p644
aVhttp://dbpedia.org/property/country
p645
aVhttp://dbpedia.org/property/shipCountry
p646
aVhttp://dbpedia.org/property/areaServed
p647
aVhttp://dbpedia.org/property/placeOfBirth
p648
aVhttp://dbpedia.org/ontology/ideology
p649
aVhttp://purl.org/dc/terms/subject
p650
aVhttp://dbpedia.org/property/ideology
p651
aVhttp://dbpedia.org/ontology/abstract
p652
aVhttp://dbpedia.org/ontology/firstDriverCountry
p653
aVhttp://dbpedia.org/property/location
p654
aVhttp://dbpedia.org/property/states
p655
aVhttp://dbpedia.org/ontology/locationCountry
p656
aVhttp://dbpedia.org/ontology/headquarter
p657
aVhttp://dbpedia.org/ontology/language
p658
aVhttp://dbpedia.org/property/headquarters
p659
aVhttp://dbpedia.org/property/languages
p660
aVhttp://dbpedia.org/ontology/territory
p661
aVhttp://dbpedia.org/property/shipBuilder
p662
aVhttp://dbpedia.org/ontology/location
p663
aVhttp://www.w3.org/2000/01/rdf-schema#comment
p664
aVhttp://dbpedia.org/ontology/birthPlace
p665
aVhttp://dbpedia.org/ontology/builder
p666
aVhttp://dbpedia.org/ontology/hometown
p667
aVhttp://dbpedia.org/ontology/garrison
p668
aVhttp://dbpedia.org/property/demonym
p669
aVhttp://dbpedia.org/ontology/spokenIn
p670
aVhttp://dbpedia.org/property/jurisdiction
p671
aVhttp://dbpedia.org/property/garrison
p672
aVhttp://dbpedia.org/ontology/locationCity
p673
aVhttp://dbpedia.org/ontology/deathPlace
p674
asI3
(lp675
Vhttp://dbpedia.org/ontology/abstract
p676
asI4
(lp677
Vhttp://dbpedia.org/ontology/country
p678
aVhttp://dbpedia.org/property/subdivisionName
p679
assI13
(dp680
I1
(lp681
Vhttp://dbpedia.org/property/locale
p682
aVhttp://dbpedia.org/ontology/country
p683
aVhttp://dbpedia.org/ontology/location
p684
aVhttp://dbpedia.org/property/origin
p685
aVhttp://dbpedia.org/property/city
p686
aVhttp://dbpedia.org/ontology/abstract
p687
aVhttp://dbpedia.org/property/hostCity
p688
aVhttp://dbpedia.org/property/place
p689
aVhttp://dbpedia.org/property/location
p690
aVhttp://dbpedia.org/property/currentHostCity
p691
aVhttp://dbpedia.org/property/subdivisionName
p692
aVhttp://dbpedia.org/property/cityServed
p693
aVhttp://dbpedia.org/ontology/hometown
p694
aVhttp://dbpedia.org/property/curlingClub
p695
aVhttp://dbpedia.org/property/country
p696
aVhttp://dbpedia.org/property/nation
p697
aVhttp://dbpedia.org/ontology/city
p698
aVhttp://dbpedia.org/property/namedFor
p699
aVhttp://dbpedia.org/property/locationCountry
p700
aVhttp://dbpedia.org/ontology/language
p701
aVhttp://dbpedia.org/property/headquarters
p702
asI2
(lp703
Vhttp://www.w3.org/2000/01/rdf-schema#seeAlso
p704
aVhttp://dbpedia.org/property/currency
p705
aVhttp://dbpedia.org/ontology/currency
p706
aVhttp://dbpedia.org/property/place
p707
aVhttp://dbpedia.org/ontology/foundationPlace
p708
aVhttp://dbpedia.org/property/territorialExtent
p709
aVhttp://dbpedia.org/ontology/poleDriverCountry
p710
aVhttp://dbpedia.org/property/foundation
p711
aVhttp://dbpedia.org/ontology/thirdDriverCountry
p712
aVhttp://dbpedia.org/ontology/demonym
p713
aVhttp://dbpedia.org/ontology/officialLanguage
p714
aVhttp://dbpedia.org/ontology/regionServed
p715
aVhttp://dbpedia.org/ontology/country
p716
aVhttp://dbpedia.org/property/locationCountry
p717
aVhttp://dbpedia.org/ontology/secondDriverCountry
p718
aVhttp://dbpedia.org/property/allegiance
p719
aVhttp://dbpedia.org/property/site
p720
aVhttp://dbpedia.org/ontology/nationality
p721
aVhttp://dbpedia.org/property/birthPlace
p722
aVhttp://dbpedia.org/property/headquarters
p723
aVhttp://dbpedia.org/ontology/place
p724
aVhttp://dbpedia.org/property/nationalOrigin
p725
aVhttp://dbpedia.org/property/office
p726
aVhttp://dbpedia.org/property/country
p727
aVhttp://dbpedia.org/property/areaServed
p728
aVhttp://dbpedia.org/property/placeOfBirth
p729
aVhttp://purl.org/dc/terms/subject
p730
aVhttp://dbpedia.org/ontology/populationPlace
p731
aVhttp://dbpedia.org/property/origin
p732
aVhttp://dbpedia.org/ontology/abstract
p733
aVhttp://dbpedia.org/property/regionServed
p734
aVhttp://dbpedia.org/property/location
p735
aVhttp://dbpedia.org/property/states
p736
aVhttp://dbpedia.org/ontology/locationCountry
p737
aVhttp://dbpedia.org/ontology/headquarter
p738
aVhttp://dbpedia.org/ontology/city
p739
aVhttp://dbpedia.org/ontology/language
p740
aVhttp://dbpedia.org/ontology/location
p741
aVhttp://dbpedia.org/property/officialLanguages
p742
aVhttp://www.w3.org/2000/01/rdf-schema#comment
p743
aVhttp://dbpedia.org/ontology/birthPlace
p744
aVhttp://dbpedia.org/property/hostcity
p745
aVhttp://dbpedia.org/ontology/wikiPageRedirects
p746
aVhttp://dbpedia.org/ontology/hometown
p747
aVhttp://dbpedia.org/property/bankOf
p748
aVhttp://dbpedia.org/property/locationCity
p749
aVhttp://dbpedia.org/ontology/spokenIn
p750
aVhttp://dbpedia.org/property/jurisdiction
p751
aVhttp://dbpedia.org/ontology/locationCity
p752
aVhttp://dbpedia.org/ontology/deathPlace
p753
asI3
(lp754
sI4
(lp755
ssI14
(dp756
I1
(lp757
Vhttp://www.w3.org/2000/01/rdf-schema#seeAlso
p758
aVhttp://dbpedia.org/property/placeOfDeath
p759
aVhttp://dbpedia.org/property/hostCity
p760
aVhttp://dbpedia.org/ontology/origin
p761
aVhttp://dbpedia.org/ontology/routeStart
p762
aVhttp://dbpedia.org/property/city
p763
aVhttp://dbpedia.org/ontology/locatedInArea
p764
aVhttp://www.w3.org/2002/07/owl#differentFrom
p765
aVhttp://dbpedia.org/ontology/country
p766
aVhttp://dbpedia.org/property/locationCountry
p767
aVhttp://dbpedia.org/ontology/nationality
p768
aVhttp://dbpedia.org/property/birthPlace
p769
aVhttp://dbpedia.org/ontology/education
p770
aVhttp://dbpedia.org/property/placeOfBirth
p771
aVhttp://dbpedia.org/property/nationality
p772
aVhttp://dbpedia.org/property/country
p773
aVhttp://dbpedia.org/property/start
p774
aVhttp://dbpedia.org/ontology/residence
p775
aVhttp://dbpedia.org/ontology/abstract
p776
aVhttp://dbpedia.org/property/stateParty
p777
aVhttp://dbpedia.org/property/deathPlace
p778
aVhttp://dbpedia.org/property/location
p779
aVhttp://dbpedia.org/property/cityServed
p780
aVhttp://dbpedia.org/ontology/locationCountry
p781
aVhttp://dbpedia.org/ontology/headquarter
p782
aVhttp://dbpedia.org/ontology/city
p783
aVhttp://dbpedia.org/property/usedBy
p784
aVhttp://dbpedia.org/property/headquarters
p785
aVhttp://dbpedia.org/property/locale
p786
aVhttp://dbpedia.org/property/residence
p787
aVhttp://dbpedia.org/ontology/location
p788
aVhttp://www.w3.org/2000/01/rdf-schema#comment
p789
aVhttp://dbpedia.org/ontology/birthPlace
p790
aVhttp://dbpedia.org/ontology/citizenship
p791
aVhttp://dbpedia.org/property/locationCity
p792
aVhttp://dbpedia.org/property/citizenship
p793
aVhttp://dbpedia.org/ontology/stateOfOrigin
p794
aVhttp://dbpedia.org/ontology/locationCity
p795
aVhttp://dbpedia.org/ontology/deathPlace
p796
asI2
(lp797
sI3
(lp798
sI4
(lp799
Vhttp://dbpedia.org/property/placeOfDeath
p800
aVhttp://dbpedia.org/ontology/deathPlace
p801
aVhttp://dbpedia.org/property/deathPlace
p802
assI15
(dp803
I1
(lp804
Vhttp://www.w3.org/2000/01/rdf-schema#seeAlso
p805
aVhttp://dbpedia.org/property/origin
p806
aVhttp://dbpedia.org/property/recorded
p807
aVhttp://dbpedia.org/ontology/origin
p808
aVhttp://dbpedia.org/property/place
p809
aVhttp://dbpedia.org/ontology/foundationPlace
p810
aVhttp://dbpedia.org/property/city
p811
aVhttp://dbpedia.org/property/foundation
p812
aVhttp://dbpedia.org/ontology/regionServed
p813
aVhttp://dbpedia.org/ontology/country
p814
aVhttp://dbpedia.org/ontology/capital
p815
aVhttp://dbpedia.org/property/locationCountry
p816
aVhttp://dbpedia.org/property/capital
p817
aVhttp://dbpedia.org/ontology/nationality
p818
aVhttp://dbpedia.org/property/birthPlace
p819
aVhttp://dbpedia.org/property/headquarters
p820
aVhttp://dbpedia.org/property/placeOfBirth
p821
aVhttp://dbpedia.org/property/locationSigned
p822
aVhttp://dbpedia.org/property/owner
p823
aVhttp://dbpedia.org/property/country
p824
aVhttp://dbpedia.org/property/shipCountry
p825
aVhttp://dbpedia.org/property/meetingPlace
p826
aVhttp://dbpedia.org/property/areaServed
p827
aVhttp://dbpedia.org/ontology/abstract
p828
aVhttp://dbpedia.org/ontology/recordedIn
p829
aVhttp://dbpedia.org/property/location
p830
aVhttp://dbpedia.org/property/cityServed
p831
aVhttp://dbpedia.org/ontology/locationCountry
p832
aVhttp://dbpedia.org/ontology/headquarter
p833
aVhttp://dbpedia.org/ontology/city
p834
aVhttp://dbpedia.org/property/subdivisionName
p835
aVhttp://dbpedia.org/property/nationalOrigin
p836
aVhttp://dbpedia.org/ontology/broadcastArea
p837
aVhttp://dbpedia.org/ontology/location
p838
aVhttp://dbpedia.org/property/address
p839
aVhttp://dbpedia.org/ontology/birthPlace
p840
aVhttp://dbpedia.org/property/area
p841
aVhttp://dbpedia.org/ontology/hometown
p842
aVhttp://dbpedia.org/property/regionServed
p843
aVhttp://dbpedia.org/property/data
p844
asI2
(lp845
sI3
(lp846
Vhttp://dbpedia.org/ontology/abstract
p847
asI4
(lp848
ss.