ccollections
defaultdict
p1
(c__builtin__
dict
p2
tRp3
I1
(dp4
I4
(lp5
ssI2
(dp6
I1
(lp7
Vhttp://www.w3.org/2000/01/rdf-schema#seeAlso
p8
aVhttp://dbpedia.org/ontology/country
p9
aVhttp://dbpedia.org/property/locale
p10
aVhttp://dbpedia.org/ontology/location
p11
aVhttp://dbpedia.org/property/origin
p12
aVhttp://www.w3.org/2000/01/rdf-schema#comment
p13
aVhttp://dbpedia.org/ontology/abstract
p14
aVhttp://dbpedia.org/property/location
p15
aVhttp://dbpedia.org/ontology/ground
p16
aVhttp://dbpedia.org/property/cityServed
p17
aVhttp://dbpedia.org/ontology/hometown
p18
aVhttp://dbpedia.org/ontology/locationCountry
p19
aVhttp://dbpedia.org/property/country
p20
aVhttp://dbpedia.org/ontology/city
p21
aVhttp://dbpedia.org/property/locationCountry
p22
asI2
(lp23
Vhttp://www.w3.org/2000/01/rdf-schema#seeAlso
p24
aVhttp://dbpedia.org/ontology/ideology
p25
aVhttp://dbpedia.org/ontology/origin
p26
aVhttp://dbpedia.org/property/place
p27
aVhttp://dbpedia.org/ontology/jurisdiction
p28
aVhttp://dbpedia.org/property/territory
p29
aVhttp://dbpedia.org/ontology/demonym
p30
aVhttp://dbpedia.org/ontology/officialLanguage
p31
aVhttp://dbpedia.org/property/religion
p32
aVhttp://dbpedia.org/property/reason
p33
aVhttp://dbpedia.org/property/region
p34
aVhttp://dbpedia.org/property/empire
p35
aVhttp://dbpedia.org/property/site
p36
aVhttp://dbpedia.org/property/birthPlace
p37
aVhttp://dbpedia.org/property/headquarters
p38
aVhttp://dbpedia.org/ontology/place
p39
aVhttp://dbpedia.org/property/placeOfBirth
p40
aVhttp://dbpedia.org/property/counties
p41
aVhttp://dbpedia.org/property/country
p42
aVhttp://dbpedia.org/property/establishedEvent
p43
aVhttp://dbpedia.org/ontology/county
p44
aVhttp://dbpedia.org/property/locale
p45
aVhttp://purl.org/dc/terms/subject
p46
aVhttp://dbpedia.org/ontology/populationPlace
p47
aVhttp://dbpedia.org/property/origin
p48
aVhttp://dbpedia.org/ontology/country
p49
aVhttp://dbpedia.org/property/ideology
p50
aVhttp://dbpedia.org/ontology/abstract
p51
aVhttp://dbpedia.org/property/location
p52
aVhttp://dbpedia.org/ontology/usingCountry
p53
aVhttp://dbpedia.org/property/states
p54
aVhttp://dbpedia.org/ontology/locationCountry
p55
aVhttp://dbpedia.org/ontology/headquarter
p56
aVhttp://dbpedia.org/ontology/similar
p57
aVhttp://dbpedia.org/ontology/language
p58
aVhttp://dbpedia.org/property/officialLanguages
p59
aVhttp://dbpedia.org/ontology/homeport
p60
aVhttp://dbpedia.org/property/jurisdiction
p61
aVhttp://dbpedia.org/ontology/location
p62
aVhttp://www.w3.org/2000/01/rdf-schema#comment
p63
aVhttp://dbpedia.org/ontology/birthPlace
p64
aVhttp://dbpedia.org/ontology/builder
p65
aVhttp://dbpedia.org/ontology/hometown
p66
aVhttp://dbpedia.org/ontology/garrison
p67
aVhttp://dbpedia.org/property/areaServed
p68
aVhttp://dbpedia.org/ontology/spokenIn
p69
aVhttp://dbpedia.org/property/garrison
p70
aVhttp://dbpedia.org/property/locationCountry
p71
aVhttp://dbpedia.org/property/observedby
p72
asI4
(lp73
ssI3
(dp74
I1
(lp75
ssI4
(dp76
I1
(lp77
Vhttp://www.w3.org/2000/01/rdf-schema#seeAlso
p78
aVhttp://dbpedia.org/property/origin
p79
aVhttp://dbpedia.org/property/basedIn
p80
aVhttp://dbpedia.org/ontology/origin
p81
aVhttp://dbpedia.org/property/restingPlace
p82
aVhttp://dbpedia.org/property/place
p83
aVhttp://dbpedia.org/property/stateParty
p84
aVhttp://dbpedia.org/ontology/foundationPlace
p85
aVhttp://dbpedia.org/property/namedFor
p86
aVhttp://dbpedia.org/property/city
p87
aVhttp://dbpedia.org/property/caption
p88
aVhttp://dbpedia.org/property/capital
p89
aVhttp://dbpedia.org/ontology/country
p90
aVhttp://dbpedia.org/property/region
p91
aVhttp://dbpedia.org/ontology/capital
p92
aVhttp://dbpedia.org/property/locationCountry
p93
aVhttp://dbpedia.org/property/birthPlace
p94
aVhttp://dbpedia.org/ontology/ground
p95
aVhttp://dbpedia.org/property/venue
p96
aVhttp://dbpedia.org/ontology/nationality
p97
aVhttp://dbpedia.org/property/image
p98
aVhttp://dbpedia.org/ontology/place
p99
aVhttp://dbpedia.org/property/nationalOrigin
p100
aVhttp://dbpedia.org/property/nationality
p101
aVhttp://dbpedia.org/property/country
p102
aVhttp://dbpedia.org/property/placeOfBirth
p103
aVhttp://dbpedia.org/property/dateOfBirth
p104
aVhttp://dbpedia.org/ontology/residence
p105
aVhttp://dbpedia.org/ontology/abstract
p106
aVhttp://dbpedia.org/ontology/recordedIn
p107
aVhttp://dbpedia.org/property/endowment
p108
aVhttp://dbpedia.org/property/location
p109
aVhttp://dbpedia.org/property/cityServed
p110
aVhttp://dbpedia.org/ontology/locationCountry
p111
aVhttp://dbpedia.org/ontology/headquarter
p112
aVhttp://dbpedia.org/ontology/city
p113
aVhttp://dbpedia.org/ontology/language
p114
aVhttp://dbpedia.org/property/headquarters
p115
aVhttp://dbpedia.org/property/locale
p116
aVhttp://dbpedia.org/property/states
p117
aVhttp://dbpedia.org/property/residence
p118
aVhttp://dbpedia.org/ontology/location
p119
aVhttp://www.w3.org/2000/01/rdf-schema#comment
p120
aVhttp://dbpedia.org/ontology/birthPlace
p121
aVhttp://dbpedia.org/ontology/hometown
p122
aVhttp://dbpedia.org/property/stadium
p123
aVhttp://dbpedia.org/ontology/spokenIn
p124
aVhttp://dbpedia.org/ontology/stateOfOrigin
p125
aVhttp://dbpedia.org/property/dateOfDeath
p126
aVhttp://www.w3.org/2002/07/owl#sameAs
p127
aVhttp://dbpedia.org/ontology/homeStadium
p128
asI2
(lp129
Vhttp://dbpedia.org/property/origin
p130
aVhttp://dbpedia.org/property/placeOfDeath
p131
aVhttp://dbpedia.org/property/broadcastArea
p132
aVhttp://dbpedia.org/property/sovereigntyType
p133
aVhttp://www.w3.org/ns/prov#wasDerivedFrom
p134
aVhttp://dbpedia.org/ontology/fastestDriverCountry
p135
aVhttp://dbpedia.org/ontology/demonym
p136
aVhttp://dbpedia.org/ontology/regionServed
p137
aVhttp://dbpedia.org/ontology/nationality
p138
aVhttp://xmlns.com/foaf/0.1/isPrimaryTopicOf
p139
aVhttp://dbpedia.org/property/byCountry
p140
aVhttp://dbpedia.org/property/nat
p141
aVhttp://dbpedia.org/property/nationality
p142
aVhttp://dbpedia.org/ontology/abstract
p143
aVhttp://dbpedia.org/ontology/recordedIn
p144
aVhttp://dbpedia.org/ontology/architecturalStyle
p145
aVhttp://dbpedia.org/ontology/location
p146
aVhttp://dbpedia.org/property/imageMap
p147
aVhttp://dbpedia.org/property/officialLanguages
p148
aVhttp://dbpedia.org/property/area
p149
aVhttp://dbpedia.org/ontology/hometown
p150
aVhttp://dbpedia.org/ontology/spokenIn
p151
aVhttp://dbpedia.org/property/leaderTitle
p152
aVhttp://www.w3.org/2000/01/rdf-schema#seeAlso
p153
aVhttp://dbpedia.org/ontology/wikiPageExternalLink
p154
aVhttp://dbpedia.org/property/hostCity
p155
aVhttp://dbpedia.org/property/conventionalLongName
p156
aVhttp://dbpedia.org/ontology/foundationPlace
p157
aVhttp://dbpedia.org/ontology/poleDriverCountry
p158
aVhttp://dbpedia.org/ontology/locatedInArea
p159
aVhttp://dbpedia.org/ontology/officialLanguage
p160
aVhttp://dbpedia.org/ontology/country
p161
aVhttp://dbpedia.org/property/birthPlace
p162
aVhttp://dbpedia.org/property/country/region
p163
aVhttp://dbpedia.org/property/country
p164
aVhttp://dbpedia.org/ontology/county
p165
aVhttp://xmlns.com/foaf/0.1/primaryTopic
p166
aVhttp://dbpedia.org/ontology/campus
p167
aVhttp://dbpedia.org/ontology/firstDriverCountry
p168
aVhttp://dbpedia.org/property/states
p169
aVhttp://dbpedia.org/ontology/locationCountry
p170
aVhttp://dbpedia.org/ontology/deathPlace
p171
aVhttp://dbpedia.org/property/hasPhotoCollection
p172
aVhttp://dbpedia.org/property/headquarters
p173
aVhttp://dbpedia.org/ontology/birthPlace
p174
aVhttp://dbpedia.org/ontology/wikiPageRedirects
p175
aVhttp://dbpedia.org/property/citizenship
p176
aVhttp://dbpedia.org/property/imageCoat
p177
aVhttp://dbpedia.org/ontology/stateOfOrigin
p178
aVhttp://www.w3.org/2002/07/owl#sameAs
p179
aVhttp://dbpedia.org/property/recorded
p180
aVhttp://dbpedia.org/property/winnerOrigin
p181
aVhttp://dbpedia.org/ontology/longName
p182
aVhttp://www.w3.org/1999/02/22-rdf-syntax-ns#type
p183
aVhttp://dbpedia.org/property/locationCountry
p184
aVhttp://dbpedia.org/ontology/secondDriverCountry
p185
aVhttp://dbpedia.org/property/locationSigned
p186
aVhttp://dbpedia.org/property/namedAfter
p187
aVhttp://dbpedia.org/property/title
p188
aVhttp://dbpedia.org/property/placeOfBirth
p189
aVhttp://xmlns.com/foaf/0.1/depiction
p190
aVhttp://dbpedia.org/property/observedby
p191
aVhttp://dbpedia.org/ontology/flag
p192
aVhttp://dbpedia.org/property/commonName
p193
aVhttp://dbpedia.org/property/subdivisionName
p194
aVhttp://dbpedia.org/property/shipCountry
p195
aVhttp://dbpedia.org/property/locationCity
p196
aVhttp://dbpedia.org/property/establishedEvent
p197
aVhttp://dbpedia.org/property/stadium
p198
aVhttp://dbpedia.org/property/place
p199
aVhttp://dbpedia.org/property/footnoteA
p200
aVhttp://dbpedia.org/property/caption
p201
aVhttp://dbpedia.org/ontology/thirdDriverCountry
p202
aVhttp://www.w3.org/2002/07/owl#differentFrom
p203
aVhttp://dbpedia.org/property/upperHouse
p204
aVhttp://dbpedia.org/property/locations
p205
aVhttp://dbpedia.org/ontology/place
p206
aVhttp://dbpedia.org/property/language
p207
aVhttp://dbpedia.org/property/demonym
p208
aVhttp://dbpedia.org/ontology/wikiPageDisambiguates
p209
aVhttp://purl.org/dc/terms/subject
p210
aVhttp://dbpedia.org/ontology/populationPlace
p211
aVhttp://dbpedia.org/property/location
p212
aVhttp://dbpedia.org/property/armiger
p213
aVhttp://dbpedia.org/ontology/headquarter
p214
aVhttp://dbpedia.org/property/foundation
p215
aVhttp://www.w3.org/2000/01/rdf-schema#label
p216
aVhttp://dbpedia.org/ontology/language
p217
aVhttp://dbpedia.org/ontology/broadcastArea
p218
aVhttp://dbpedia.org/property/basinCountries
p219
aVhttp://www.w3.org/2000/01/rdf-schema#comment
p220
aVhttp://dbpedia.org/property/seat
p221
aVhttp://dbpedia.org/property/imageFlag
p222
aVhttp://dbpedia.org/property/regionServed
p223
aVhttp://xmlns.com/foaf/0.1/name
p224
aVhttp://dbpedia.org/ontology/locationCity
p225
aVhttp://dbpedia.org/property/buried
p226
aVhttp://dbpedia.org/ontology/thumbnail
p227
asI4
(lp228
Vhttp://dbpedia.org/ontology/country
p229
aVhttp://dbpedia.org/ontology/birthPlace
p230
aVhttp://dbpedia.org/property/birthPlace
p231
aVhttp://dbpedia.org/property/country
p232
assI5
(dp233
I1
(lp234
Vhttp://www.w3.org/2000/01/rdf-schema#seeAlso
p235
aVhttp://dbpedia.org/property/placeOfDeath
p236
aVhttp://dbpedia.org/ontology/type
p237
aVhttp://dbpedia.org/property/ground
p238
aVhttp://dbpedia.org/property/place
p239
aVhttp://dbpedia.org/property/namedFor
p240
aVhttp://dbpedia.org/property/city
p241
aVhttp://dbpedia.org/ontology/ground
p242
aVhttp://dbpedia.org/ontology/country
p243
aVhttp://dbpedia.org/ontology/capital
p244
aVhttp://dbpedia.org/property/locationCountry
p245
aVhttp://dbpedia.org/property/capital
p246
aVhttp://dbpedia.org/property/birthPlace
p247
aVhttp://dbpedia.org/ontology/place
p248
aVhttp://dbpedia.org/property/placeOfBirth
p249
aVhttp://dbpedia.org/property/stateParty
p250
aVhttp://dbpedia.org/property/owner
p251
aVhttp://dbpedia.org/property/country
p252
aVhttp://dbpedia.org/ontology/abstract
p253
aVhttp://dbpedia.org/property/deathPlace
p254
aVhttp://dbpedia.org/property/location
p255
aVhttp://dbpedia.org/ontology/locationCountry
p256
aVhttp://dbpedia.org/ontology/deathPlace
p257
aVhttp://dbpedia.org/ontology/city
p258
aVhttp://dbpedia.org/property/subdivisionName
p259
aVhttp://dbpedia.org/property/headquarters
p260
aVhttp://dbpedia.org/property/locale
p261
aVhttp://dbpedia.org/ontology/location
p262
aVhttp://www.w3.org/2000/01/rdf-schema#comment
p263
aVhttp://dbpedia.org/ontology/birthPlace
p264
aVhttp://dbpedia.org/property/countriesAffected
p265
asI2
(lp266
Vhttp://www.w3.org/2000/01/rdf-schema#seeAlso
p267
aVhttp://dbpedia.org/property/origin
p268
aVhttp://dbpedia.org/ontology/origin
p269
aVhttp://dbpedia.org/property/place
p270
aVhttp://dbpedia.org/property/footnoteA
p271
aVhttp://dbpedia.org/ontology/demonym
p272
aVhttp://dbpedia.org/ontology/officialLanguage
p273
aVhttp://dbpedia.org/ontology/country
p274
aVhttp://dbpedia.org/property/usingCountries
p275
aVhttp://dbpedia.org/property/headquarters
p276
aVhttp://dbpedia.org/property/winnerOrigin
p277
aVhttp://dbpedia.org/property/foundedPlace
p278
aVhttp://dbpedia.org/property/country
p279
aVhttp://dbpedia.org/ontology/wikiPageExternalLink
p280
aVhttp://dbpedia.org/ontology/populationPlace
p281
aVhttp://dbpedia.org/ontology/abstract
p282
aVhttp://dbpedia.org/property/location
p283
aVhttp://dbpedia.org/ontology/usingCountry
p284
aVhttp://dbpedia.org/property/regions
p285
aVhttp://dbpedia.org/ontology/headquarter
p286
aVhttp://dbpedia.org/property/shipNamesake
p287
aVhttp://dbpedia.org/ontology/language
p288
aVhttp://dbpedia.org/ontology/location
p289
aVhttp://dbpedia.org/property/states
p290
aVhttp://dbpedia.org/property/officialLanguages
p291
aVhttp://www.w3.org/2000/01/rdf-schema#comment
p292
aVhttp://dbpedia.org/ontology/birthPlace
p293
aVhttp://dbpedia.org/ontology/wikiPageRedirects
p294
aVhttp://dbpedia.org/property/area
p295
aVhttp://dbpedia.org/ontology/hometown
p296
aVhttp://dbpedia.org/property/demonym
p297
aVhttp://dbpedia.org/ontology/spokenIn
p298
aVhttp://dbpedia.org/property/foundingLocation
p299
aVhttp://dbpedia.org/property/jurisdiction
p300
aVhttp://dbpedia.org/property/popplace
p301
asI3
(lp302
sI4
(lp303
ssI7
(dp304
I1
(lp305
Vhttp://www.w3.org/2000/01/rdf-schema#seeAlso
p306
aVhttp://dbpedia.org/property/placeOfDeath
p307
aVhttp://dbpedia.org/ontology/majorShrine
p308
aVhttp://dbpedia.org/property/place
p309
aVhttp://dbpedia.org/ontology/poleDriverCountry
p310
aVhttp://dbpedia.org/ontology/country
p311
aVhttp://dbpedia.org/property/assembly
p312
aVhttp://dbpedia.org/property/majorShrine
p313
aVhttp://dbpedia.org/property/parties
p314
aVhttp://dbpedia.org/ontology/nationality
p315
aVhttp://dbpedia.org/property/birthPlace
p316
aVhttp://dbpedia.org/ontology/place
p317
aVhttp://dbpedia.org/property/nationalOrigin
p318
aVhttp://dbpedia.org/property/locationSigned
p319
aVhttp://dbpedia.org/property/country
p320
aVhttp://dbpedia.org/property/placeOfBirth
p321
aVhttp://dbpedia.org/property/nationality
p322
aVhttp://dbpedia.org/ontology/abstract
p323
aVhttp://dbpedia.org/ontology/firstDriverCountry
p324
aVhttp://dbpedia.org/property/deathPlace
p325
aVhttp://dbpedia.org/property/location
p326
aVhttp://dbpedia.org/ontology/deathPlace
p327
aVhttp://dbpedia.org/property/fullname
p328
aVhttp://dbpedia.org/ontology/language
p329
aVhttp://dbpedia.org/property/locale
p330
aVhttp://dbpedia.org/ontology/assembly
p331
aVhttp://dbpedia.org/ontology/location
p332
aVhttp://dbpedia.org/ontology/birthPlace
p333
assI8
(dp334
I1
(lp335
Vhttp://www.w3.org/2000/01/rdf-schema#seeAlso
p336
aVhttp://dbpedia.org/property/recorded
p337
aVhttp://dbpedia.org/property/shipRegistry
p338
aVhttp://dbpedia.org/property/stateParty
p339
aVhttp://dbpedia.org/property/city
p340
aVhttp://dbpedia.org/property/capital
p341
aVhttp://dbpedia.org/ontology/country
p342
aVhttp://dbpedia.org/property/region
p343
aVhttp://dbpedia.org/property/footnoteB
p344
aVhttp://dbpedia.org/ontology/capital
p345
aVhttp://dbpedia.org/property/locationCountry
p346
aVhttp://dbpedia.org/ontology/ground
p347
aVhttp://dbpedia.org/property/locationSigned
p348
aVhttp://dbpedia.org/property/country
p349
aVhttp://dbpedia.org/property/shipCountry
p350
aVhttp://dbpedia.org/ontology/abstract
p351
aVhttp://dbpedia.org/ontology/recordedIn
p352
aVhttp://dbpedia.org/property/location
p353
aVhttp://dbpedia.org/property/cityServed
p354
aVhttp://dbpedia.org/property/territory
p355
aVhttp://dbpedia.org/ontology/city
p356
aVhttp://dbpedia.org/property/subdivisionName
p357
aVhttp://dbpedia.org/ontology/language
p358
aVhttp://dbpedia.org/ontology/location
p359
aVhttp://dbpedia.org/property/locale
p360
aVhttp://dbpedia.org/property/headquarters
p361
aVhttp://www.w3.org/2000/01/rdf-schema#comment
p362
asI4
(lp363
ssI9
(dp364
I1
(lp365
Vhttp://www.w3.org/2000/01/rdf-schema#seeAlso
p366
aVhttp://dbpedia.org/property/origin
p367
aVhttp://dbpedia.org/property/hostCity
p368
aVhttp://dbpedia.org/property/place
p369
aVhttp://dbpedia.org/property/cityOrRegion
p370
aVhttp://dbpedia.org/ontology/regionServed
p371
aVhttp://dbpedia.org/ontology/country
p372
aVhttp://dbpedia.org/property/locationCountry
p373
aVhttp://dbpedia.org/property/country
p374
aVhttp://dbpedia.org/ontology/abstract
p375
aVhttp://dbpedia.org/property/location
p376
aVhttp://dbpedia.org/property/cityServed
p377
aVhttp://dbpedia.org/ontology/locationCountry
p378
aVhttp://dbpedia.org/ontology/headquarter
p379
aVhttp://dbpedia.org/ontology/city
p380
aVhttp://dbpedia.org/property/fullname
p381
aVhttp://dbpedia.org/property/subdivisionName
p382
aVhttp://dbpedia.org/property/locale
p383
aVhttp://dbpedia.org/property/shipBuilder
p384
aVhttp://dbpedia.org/ontology/location
p385
aVhttp://www.w3.org/2000/01/rdf-schema#comment
p386
aVhttp://dbpedia.org/ontology/builder
p387
aVhttp://dbpedia.org/ontology/hometown
p388
asI2
(lp389
Vhttp://www.w3.org/2000/01/rdf-schema#seeAlso
p390
aVhttp://dbpedia.org/property/origin
p391
aVhttp://dbpedia.org/property/awardedBy
p392
aVhttp://dbpedia.org/property/place
p393
aVhttp://dbpedia.org/property/northwest
p394
aVhttp://dbpedia.org/property/placeOfDeath
p395
aVhttp://dbpedia.org/ontology/regionServed
p396
aVhttp://dbpedia.org/ontology/country
p397
aVhttp://dbpedia.org/property/region
p398
aVhttp://dbpedia.org/property/locationCountry
p399
aVhttp://dbpedia.org/property/allegiance
p400
aVhttp://dbpedia.org/property/combatant
p401
aVhttp://dbpedia.org/ontology/place
p402
aVhttp://dbpedia.org/property/placeOfBirth
p403
aVhttp://dbpedia.org/property/office
p404
aVhttp://dbpedia.org/property/owner
p405
aVhttp://dbpedia.org/property/country
p406
aVhttp://dbpedia.org/property/areaServed
p407
aVhttp://dbpedia.org/ontology/abstract
p408
aVhttp://dbpedia.org/property/regionServed
p409
aVhttp://dbpedia.org/property/location
p410
aVhttp://dbpedia.org/ontology/usingCountry
p411
aVhttp://dbpedia.org/property/states
p412
aVhttp://dbpedia.org/ontology/locationCountry
p413
aVhttp://dbpedia.org/ontology/deathPlace
p414
aVhttp://dbpedia.org/property/observedby
p415
aVhttp://dbpedia.org/property/foundation
p416
aVhttp://dbpedia.org/ontology/foundationPlace
p417
aVhttp://dbpedia.org/property/headquarters
p418
aVhttp://dbpedia.org/property/basinCountries
p419
aVhttp://dbpedia.org/ontology/location
p420
aVhttp://www.w3.org/2000/01/rdf-schema#comment
p421
aVhttp://dbpedia.org/ontology/birthPlace
p422
aVhttp://dbpedia.org/ontology/wikiPageRedirects
p423
aVhttp://dbpedia.org/ontology/hometown
p424
aVhttp://dbpedia.org/ontology/spokenIn
p425
aVhttp://dbpedia.org/ontology/headquarter
p426
asI3
(lp427
ssI10
(dp428
I1
(lp429
Vhttp://www.w3.org/2000/01/rdf-schema#seeAlso
p430
aVhttp://dbpedia.org/property/origin
p431
aVhttp://dbpedia.org/property/place
p432
aVhttp://dbpedia.org/property/territory
p433
aVhttp://dbpedia.org/ontology/country
p434
aVhttp://dbpedia.org/property/locationCountry
p435
aVhttp://dbpedia.org/ontology/ground
p436
aVhttp://dbpedia.org/ontology/place
p437
aVhttp://dbpedia.org/property/stateParty
p438
aVhttp://dbpedia.org/property/country
p439
aVhttp://dbpedia.org/property/establishedEvent
p440
aVhttp://dbpedia.org/property/locationSigned
p441
aVhttp://dbpedia.org/property/location
p442
aVhttp://dbpedia.org/property/district
p443
aVhttp://dbpedia.org/property/cityServed
p444
aVhttp://dbpedia.org/ontology/locationCountry
p445
aVhttp://dbpedia.org/ontology/district
p446
aVhttp://dbpedia.org/ontology/city
p447
aVhttp://dbpedia.org/property/subdivisionName
p448
aVhttp://dbpedia.org/property/locale
p449
aVhttp://dbpedia.org/ontology/location
p450
aVhttp://dbpedia.org/ontology/hometown
p451
aVhttp://dbpedia.org/ontology/spokenIn
p452
assI11
(dp453
I2
(lp454
Vhttp://www.w3.org/2000/01/rdf-schema#seeAlso
p455
aVhttp://dbpedia.org/property/origin
p456
aVhttp://dbpedia.org/ontology/origin
p457
aVhttp://dbpedia.org/property/conventionalLongName
p458
aVhttp://dbpedia.org/ontology/garrison
p459
aVhttp://dbpedia.org/ontology/longName
p460
aVhttp://dbpedia.org/property/footnoteA
p461
aVhttp://dbpedia.org/ontology/demonym
p462
aVhttp://dbpedia.org/ontology/officialLanguage
p463
aVhttp://dbpedia.org/ontology/country
p464
aVhttp://dbpedia.org/property/region
p465
aVhttp://www.w3.org/1999/02/22-rdf-syntax-ns#type
p466
aVhttp://dbpedia.org/property/birthPlace
p467
aVhttp://dbpedia.org/property/headquarters
p468
aVhttp://dbpedia.org/ontology/place
p469
aVhttp://dbpedia.org/ontology/ethnicGroup
p470
aVhttp://dbpedia.org/property/country
p471
aVhttp://dbpedia.org/property/shipCountry
p472
aVhttp://dbpedia.org/property/establishedEvent
p473
aVhttp://dbpedia.org/property/placeOfBirth
p474
aVhttp://dbpedia.org/ontology/wikiPageExternalLink
p475
aVhttp://purl.org/dc/terms/subject
p476
aVhttp://dbpedia.org/ontology/abstract
p477
aVhttp://dbpedia.org/property/regionServed
p478
aVhttp://dbpedia.org/property/location
p479
aVhttp://dbpedia.org/ontology/usingCountry
p480
aVhttp://dbpedia.org/property/states
p481
aVhttp://dbpedia.org/ontology/headquarter
p482
aVhttp://dbpedia.org/property/builder
p483
aVhttp://dbpedia.org/ontology/language
p484
aVhttp://dbpedia.org/ontology/location
p485
aVhttp://dbpedia.org/property/jurisdiction
p486
aVhttp://dbpedia.org/property/officialLanguages
p487
aVhttp://www.w3.org/2000/01/rdf-schema#comment
p488
aVhttp://dbpedia.org/ontology/birthPlace
p489
aVhttp://dbpedia.org/ontology/wikiPageRedirects
p490
aVhttp://dbpedia.org/ontology/hometown
p491
aVhttp://dbpedia.org/property/demonym
p492
aVhttp://dbpedia.org/ontology/spokenIn
p493
aVhttp://dbpedia.org/property/garrison
p494
assI12
(dp495
I1
(lp496
Vhttp://www.w3.org/2000/01/rdf-schema#seeAlso
p497
aVhttp://dbpedia.org/ontology/country
p498
aVhttp://dbpedia.org/ontology/state
p499
aVhttp://dbpedia.org/property/locale
p500
aVhttp://dbpedia.org/ontology/location
p501
aVhttp://dbpedia.org/property/subdivisionName
p502
aVhttp://www.w3.org/2000/01/rdf-schema#comment
p503
aVhttp://dbpedia.org/ontology/abstract
p504
aVhttp://dbpedia.org/ontology/recordedIn
p505
aVhttp://dbpedia.org/property/location
p506
aVhttp://dbpedia.org/property/discoverySite
p507
aVhttp://dbpedia.org/ontology/ground
p508
aVhttp://dbpedia.org/property/city
p509
aVhttp://dbpedia.org/ontology/garrison
p510
aVhttp://dbpedia.org/property/ground
p511
aVhttp://dbpedia.org/property/country
p512
aVhttp://dbpedia.org/ontology/city
p513
aVhttp://dbpedia.org/property/fullname
p514
aVhttp://dbpedia.org/property/garrison
p515
aVhttp://dbpedia.org/property/state
p516
aVhttp://dbpedia.org/property/headquarters
p517
asI2
(lp518
Vhttp://www.w3.org/2000/01/rdf-schema#seeAlso
p519
aVhttp://dbpedia.org/property/origin
p520
aVhttp://dbpedia.org/ontology/wikiPageRedirects
p521
aVhttp://dbpedia.org/ontology/poleDriverCountry
p522
aVhttp://dbpedia.org/ontology/demonym
p523
aVhttp://dbpedia.org/ontology/country
p524
aVhttp://www.w3.org/1999/02/22-rdf-syntax-ns#type
p525
aVhttp://dbpedia.org/property/locationCountry
p526
aVhttp://dbpedia.org/ontology/secondDriverCountry
p527
aVhttp://dbpedia.org/property/allegiance
p528
aVhttp://dbpedia.org/property/locationCity
p529
aVhttp://dbpedia.org/property/birthPlace
p530
aVhttp://dbpedia.org/ontology/place
p531
aVhttp://dbpedia.org/ontology/ethnicGroup
p532
aVhttp://dbpedia.org/property/office
p533
aVhttp://dbpedia.org/property/country
p534
aVhttp://dbpedia.org/property/shipCountry
p535
aVhttp://dbpedia.org/property/areaServed
p536
aVhttp://dbpedia.org/property/placeOfBirth
p537
aVhttp://dbpedia.org/ontology/ideology
p538
aVhttp://purl.org/dc/terms/subject
p539
aVhttp://dbpedia.org/property/ideology
p540
aVhttp://dbpedia.org/ontology/abstract
p541
aVhttp://dbpedia.org/ontology/firstDriverCountry
p542
aVhttp://dbpedia.org/property/location
p543
aVhttp://dbpedia.org/property/states
p544
aVhttp://dbpedia.org/ontology/locationCountry
p545
aVhttp://dbpedia.org/ontology/headquarter
p546
aVhttp://dbpedia.org/ontology/language
p547
aVhttp://dbpedia.org/property/headquarters
p548
aVhttp://dbpedia.org/property/languages
p549
aVhttp://dbpedia.org/ontology/territory
p550
aVhttp://dbpedia.org/property/shipBuilder
p551
aVhttp://dbpedia.org/ontology/location
p552
aVhttp://www.w3.org/2000/01/rdf-schema#comment
p553
aVhttp://dbpedia.org/ontology/birthPlace
p554
aVhttp://dbpedia.org/ontology/builder
p555
aVhttp://dbpedia.org/ontology/hometown
p556
aVhttp://dbpedia.org/ontology/garrison
p557
aVhttp://dbpedia.org/property/demonym
p558
aVhttp://dbpedia.org/ontology/spokenIn
p559
aVhttp://dbpedia.org/property/jurisdiction
p560
aVhttp://dbpedia.org/property/garrison
p561
aVhttp://dbpedia.org/ontology/locationCity
p562
aVhttp://dbpedia.org/ontology/deathPlace
p563
assI13
(dp564
I1
(lp565
Vhttp://dbpedia.org/property/locale
p566
aVhttp://dbpedia.org/ontology/country
p567
aVhttp://dbpedia.org/ontology/location
p568
aVhttp://dbpedia.org/property/origin
p569
aVhttp://dbpedia.org/property/city
p570
aVhttp://dbpedia.org/ontology/abstract
p571
aVhttp://dbpedia.org/property/hostCity
p572
aVhttp://dbpedia.org/property/place
p573
aVhttp://dbpedia.org/property/location
p574
aVhttp://dbpedia.org/property/currentHostCity
p575
aVhttp://dbpedia.org/property/subdivisionName
p576
aVhttp://dbpedia.org/property/cityServed
p577
aVhttp://dbpedia.org/ontology/hometown
p578
aVhttp://dbpedia.org/property/curlingClub
p579
aVhttp://dbpedia.org/property/country
p580
aVhttp://dbpedia.org/property/nation
p581
aVhttp://dbpedia.org/ontology/city
p582
aVhttp://dbpedia.org/property/namedFor
p583
aVhttp://dbpedia.org/property/locationCountry
p584
aVhttp://dbpedia.org/ontology/language
p585
aVhttp://dbpedia.org/property/headquarters
p586
asI2
(lp587
Vhttp://www.w3.org/2000/01/rdf-schema#seeAlso
p588
aVhttp://dbpedia.org/property/currency
p589
aVhttp://dbpedia.org/ontology/currency
p590
aVhttp://dbpedia.org/property/place
p591
aVhttp://dbpedia.org/ontology/foundationPlace
p592
aVhttp://dbpedia.org/property/territorialExtent
p593
aVhttp://dbpedia.org/ontology/poleDriverCountry
p594
aVhttp://dbpedia.org/property/foundation
p595
aVhttp://dbpedia.org/ontology/thirdDriverCountry
p596
aVhttp://dbpedia.org/ontology/demonym
p597
aVhttp://dbpedia.org/ontology/officialLanguage
p598
aVhttp://dbpedia.org/ontology/regionServed
p599
aVhttp://dbpedia.org/ontology/country
p600
aVhttp://dbpedia.org/property/locationCountry
p601
aVhttp://dbpedia.org/ontology/secondDriverCountry
p602
aVhttp://dbpedia.org/property/allegiance
p603
aVhttp://dbpedia.org/property/site
p604
aVhttp://dbpedia.org/ontology/nationality
p605
aVhttp://dbpedia.org/property/birthPlace
p606
aVhttp://dbpedia.org/property/headquarters
p607
aVhttp://dbpedia.org/ontology/place
p608
aVhttp://dbpedia.org/property/nationalOrigin
p609
aVhttp://dbpedia.org/property/office
p610
aVhttp://dbpedia.org/property/country
p611
aVhttp://dbpedia.org/property/areaServed
p612
aVhttp://dbpedia.org/property/placeOfBirth
p613
aVhttp://purl.org/dc/terms/subject
p614
aVhttp://dbpedia.org/ontology/populationPlace
p615
aVhttp://dbpedia.org/property/origin
p616
aVhttp://dbpedia.org/ontology/abstract
p617
aVhttp://dbpedia.org/property/regionServed
p618
aVhttp://dbpedia.org/property/location
p619
aVhttp://dbpedia.org/property/states
p620
aVhttp://dbpedia.org/ontology/locationCountry
p621
aVhttp://dbpedia.org/ontology/headquarter
p622
aVhttp://dbpedia.org/ontology/city
p623
aVhttp://dbpedia.org/ontology/language
p624
aVhttp://dbpedia.org/ontology/location
p625
aVhttp://dbpedia.org/property/officialLanguages
p626
aVhttp://www.w3.org/2000/01/rdf-schema#comment
p627
aVhttp://dbpedia.org/ontology/birthPlace
p628
aVhttp://dbpedia.org/property/hostcity
p629
aVhttp://dbpedia.org/ontology/wikiPageRedirects
p630
aVhttp://dbpedia.org/ontology/hometown
p631
aVhttp://dbpedia.org/property/bankOf
p632
aVhttp://dbpedia.org/property/locationCity
p633
aVhttp://dbpedia.org/ontology/spokenIn
p634
aVhttp://dbpedia.org/property/jurisdiction
p635
aVhttp://dbpedia.org/ontology/locationCity
p636
aVhttp://dbpedia.org/ontology/deathPlace
p637
assI14
(dp638
I1
(lp639
Vhttp://www.w3.org/2000/01/rdf-schema#seeAlso
p640
aVhttp://dbpedia.org/property/placeOfDeath
p641
aVhttp://dbpedia.org/property/hostCity
p642
aVhttp://dbpedia.org/ontology/origin
p643
aVhttp://dbpedia.org/ontology/routeStart
p644
aVhttp://dbpedia.org/property/city
p645
aVhttp://dbpedia.org/ontology/locatedInArea
p646
aVhttp://www.w3.org/2002/07/owl#differentFrom
p647
aVhttp://dbpedia.org/ontology/country
p648
aVhttp://dbpedia.org/property/locationCountry
p649
aVhttp://dbpedia.org/ontology/nationality
p650
aVhttp://dbpedia.org/property/birthPlace
p651
aVhttp://dbpedia.org/ontology/education
p652
aVhttp://dbpedia.org/property/placeOfBirth
p653
aVhttp://dbpedia.org/property/nationality
p654
aVhttp://dbpedia.org/property/country
p655
aVhttp://dbpedia.org/property/start
p656
aVhttp://dbpedia.org/ontology/residence
p657
aVhttp://dbpedia.org/ontology/abstract
p658
aVhttp://dbpedia.org/property/stateParty
p659
aVhttp://dbpedia.org/property/deathPlace
p660
aVhttp://dbpedia.org/property/location
p661
aVhttp://dbpedia.org/property/cityServed
p662
aVhttp://dbpedia.org/ontology/locationCountry
p663
aVhttp://dbpedia.org/ontology/headquarter
p664
aVhttp://dbpedia.org/ontology/city
p665
aVhttp://dbpedia.org/property/usedBy
p666
aVhttp://dbpedia.org/property/headquarters
p667
aVhttp://dbpedia.org/property/locale
p668
aVhttp://dbpedia.org/property/residence
p669
aVhttp://dbpedia.org/ontology/location
p670
aVhttp://www.w3.org/2000/01/rdf-schema#comment
p671
aVhttp://dbpedia.org/ontology/birthPlace
p672
aVhttp://dbpedia.org/ontology/citizenship
p673
aVhttp://dbpedia.org/property/locationCity
p674
aVhttp://dbpedia.org/property/citizenship
p675
aVhttp://dbpedia.org/ontology/stateOfOrigin
p676
aVhttp://dbpedia.org/ontology/locationCity
p677
aVhttp://dbpedia.org/ontology/deathPlace
p678
ass.