(lp1
(lp2
(dp3
Vstart
p4
I0
sVdisambiguatedURL
p5
NsVnamedEntity
p6
V\u30c8\u30c3\u30d7\u30da\u30fc\u30b8\u30c7\u30b6\u30a4\u30f3\uff08a4\uff09
p7
sVoffset
p8
I14
saa(lp9
(dp10
Vstart
p11
I0
sVdisambiguatedURL
p12
NsVnamedEntity
p13
V\u4e0b\u5c64\u30da\u30fc\u30b8\u30c7\u30b6\u30a4\u30f3\uff08a4\uff09
p14
sVoffset
p15
I13
saa(lp16
(dp17
Vstart
p18
I0
sVdisambiguatedURL
p19
NsVnamedEntity
p20
V\u30c8\u30c3\u30d7\u30da\u30fc\u30b8\u30b3\u30fc\u30c7\u30a3\u30f3\u30b0\uff08a4\uff09
p21
sVoffset
p22
I16
saa(lp23
(dp24
Vstart
p25
I0
sVdisambiguatedURL
p26
NsVnamedEntity
p27
V\u4e0b\u5c64\u30da\u30fc\u30b8\u30b3\u30fc\u30c7\u30a3\u30f3\u30b0\uff08a4\uff09
p28
sVoffset
p29
I15
saa(lp30
(dp31
Vstart
p32
I0
sVdisambiguatedURL
p33
NsVnamedEntity
p34
V\u30ef\u30fc\u30c9\u30d7\u30ec\u30b9\u5c0e\u5165
p35
sVoffset
p36
I8
saa(lp37
(dp38
Vstart
p39
I0
sVdisambiguatedURL
p40
NsVnamedEntity
p41
V\u304a\u554f\u3044\u5408\u308f\u305b\u30d5\u30a9\u30fc\u30e0\u8a2d\u7f6e
p42
sVoffset
p43
I12
saa(lp44
(dp45
Vstart
p46
I0
sVdisambiguatedURL
p47
NsVnamedEntity
p48
Vflash\u5236\u4f5c\uff08\u30b9\u30e9\u30a4\u30c9\u30b7\u30e7\u30fc\uff09
p49
sVoffset
p50
I16
saa(lp51
(dp52
Vstart
p53
I0
sVdisambiguatedURL
p54
NsVnamedEntity
p55
Vflash\u30d7\u30ed\u30b0\u30e9\u30df\u30f3\u30b0
p56
sVoffset
p57
I12
saa(lp58
(dp59
Vstart
p60
I0
sVdisambiguatedURL
p61
NsVnamedEntity
p62
V\u30b7\u30b9\u30c6\u30e0\u69cb\u7bc9\uff08php\uff09
p63
sVoffset
p64
I11
saa.