ccollections
defaultdict
p1
(c__builtin__
dict
p2
tRp3
I18
(dp4
I0
(lp5
Vhttp://dbpedia.org/ontology/wikiPageExternalLink
p6
aVhttp://dbpedia.org/property/website
p7
aVhttp://xmlns.com/foaf/0.1/homepage
p8
asI1
(lp9
sI3
(lp10
sI4
(lp11
Vhttp://www.w3.org/ns/prov#wasDerivedFrom
p12
assI13
(dp13
I0
(lp14
Vhttp://dbpedia.org/ontology/wikiPageExternalLink
p15
aVhttp://xmlns.com/foaf/0.1/homepage
p16
aVhttp://dbpedia.org/property/homepage
p17
asI1
(lp18
sI3
(lp19
sI4
(lp20
Vhttp://www.w3.org/ns/prov#wasDerivedFrom
p21
ass.