(lp1
(lp2
(lp3
Vhttp://dbpedia.org/resource/Germany
p4
aa(lp5
a(lp6
a(lp7
a(lp8
Vhttp://dbpedia.org/resource/Alemannia_Aachen
p9
aaa(lp10
(lp11
Vhttp://dbpedia.org/resource/Germany
p12
aa(lp13
a(lp14
a(lp15
a(lp16
aa(lp17
(lp18
Vhttp://dbpedia.org/resource/Germany
p19
aa(lp20
a(lp21
a(lp22
a(lp23
aa(lp24
(lp25
Vhttp://dbpedia.org/resource/Germany
p26
aa(lp27
a(lp28
a(lp29
a(lp30
aa(lp31
(lp32
Vhttp://dbpedia.org/resource/Germany
p33
aa(lp34
a(lp35
a(lp36
a(lp37
aa(lp38
(lp39
Vhttp://dbpedia.org/resource/Germany
p40
aa(lp41
a(lp42
Vhttp://dbpedia.org/resource/Wersestadion
p43
aa(lp44
a(lp45
aa(lp46
(lp47
Vhttp://dbpedia.org/resource/Germany
p48
aa(lp49
a(lp50
a(lp51
a(lp52
aa(lp53
(lp54
Vhttp://dbpedia.org/resource/Germany
p55
aa(lp56
a(lp57
a(lp58
a(lp59
aa(lp60
(lp61
Vhttp://dbpedia.org/resource/Germany
p62
aa(lp63
a(lp64
a(lp65
a(lp66
aa(lp67
(lp68
Vhttp://dbpedia.org/resource/Germany
p69
aa(lp70
a(lp71
a(lp72
a(lp73
aa(lp74
(lp75
Vhttp://dbpedia.org/resource/Germany
p76
aa(lp77
a(lp78
a(lp79
a(lp80
aa(lp81
(lp82
Vhttp://dbpedia.org/resource/Germany
p83
aa(lp84
a(lp85
Vhttp://dbpedia.org/resource/Waldstadion_Homburg
p86
aa(lp87
a(lp88
aa(lp89
(lp90
Vhttp://dbpedia.org/resource/Germany
p91
aa(lp92
a(lp93
a(lp94
a(lp95
aa(lp96
(lp97
Vhttp://dbpedia.org/resource/Germany
p98
aa(lp99
a(lp100
a(lp101
a(lp102
aa(lp103
(lp104
Vhttp://dbpedia.org/resource/Germany
p105
aa(lp106
a(lp107
a(lp108
a(lp109
aa(lp110
(lp111
Vhttp://dbpedia.org/resource/Germany
p112
aa(lp113
Vhttp://dbpedia.org/resource/Aschaffenburg
p114
aa(lp115
a(lp116
a(lp117
Vhttp://dbpedia.org/resource/Viktoria_Aschaffenburg
p118
aaa(lp119
(lp120
Vhttp://dbpedia.org/resource/Germany
p121
aa(lp122
a(lp123
Vhttp://dbpedia.org/resource/Sportpark_Aschheim
p124
aa(lp125
a(lp126
aa(lp127
(lp128
Vhttp://dbpedia.org/resource/Germany
p129
aa(lp130
a(lp131
a(lp132
a(lp133
aa(lp134
(lp135
Vhttp://dbpedia.org/resource/Germany
p136
aa(lp137
a(lp138
Vhttp://dbpedia.org/resource/Sparkassen-Erzgebirgsstadion
p139
aa(lp140
a(lp141
aa(lp142
(lp143
Vhttp://dbpedia.org/resource/Germany
p144
aa(lp145
a(lp146
a(lp147
a(lp148
aa.