(lp1
(lp2
(dp3
Vstart
p4
I0
sVdisambiguatedURL
p5
NsVnamedEntity
p6
Vbold phrase
p7
sVoffset
p8
I11
saa(lp9
(dp10
Vstart
p11
I0
sVdisambiguatedURL
p12
NsVnamedEntity
p13
Vitalic phrase
p14
sVoffset
p15
I13
saa(lp16
(dp17
Vstart
p18
I0
sVdisambiguatedURL
p19
NsVnamedEntity
p20
Vbulleted listbulleted list
p21
sVoffset
p22
I26
saa(lp23
(dp24
Vstart
p25
I0
sVdisambiguatedURL
p26
NsVnamedEntity
p27
Vnumbered list            numbered list
p28
sVoffset
p29
I38
saa(lp30
(dp31
Vstart
p32
I0
sVdisambiguatedURL
p33
NsVnamedEntity
p34
Vindented block
p35
sVoffset
p36
I14
saa(lp37
(dp38
Vstart
p39
I0
sVdisambiguatedURL
p40
NsVnamedEntity
p41
Vbig header
p42
sVoffset
p43
I10
saa(lp44
(dp45
Vstart
p46
I0
sVdisambiguatedURL
p47
NsVnamedEntity
p48
Vnormal header
p49
sVoffset
p50
I13
saa(lp51
(dp52
Vstart
p53
I0
sVdisambiguatedURL
p54
NsVnamedEntity
p55
V30elm.com
p56
sVoffset
p57
I9
saa.