(lp1
(lp2
(lp3
a(lp4
((lp5
Vhttp://www.w3.org/2002/07/owl#Thing
p6
aVhttp://xmlns.com/foaf/0.1/Person
p7
aVhttp://dbpedia.org/ontology/Person
p8
aVhttp://www.ontologydesignpatterns.org/ont/dul/DUL.owl#Agent
p9
aVhttp://www.ontologydesignpatterns.org/ont/dul/DUL.owl#NaturalPerson
p10
aVhttp://www.wikidata.org/entity/Q14128148
p11
aVhttp://www.wikidata.org/entity/Q215627
p12
aVhttp://www.wikidata.org/entity/Q5
p13
aVhttp://dbpedia.org/ontology/Agent
p14
aVhttp://dbpedia.org/ontology/AmericanFootballPlayer
p15
aVhttp://dbpedia.org/ontology/Athlete
p16
aVhttp://dbpedia.org/ontology/GridironFootballPlayer
p17
aVhttp://schema.org/Person
p18
aVhttp://dbpedia.org/class/yago/Athlete109820263
p19
aVhttp://dbpedia.org/class/yago/CausalAgent100007347
p20
aVhttp://dbpedia.org/class/yago/Contestant109613191
p21
aVhttp://dbpedia.org/class/yago/FootballPlayer110101634
p22
aVhttp://dbpedia.org/class/yago/LivingThing100004258
p23
aVhttp://dbpedia.org/class/yago/Object100002684
p24
aVhttp://dbpedia.org/class/yago/Organism100004475
p25
aVhttp://dbpedia.org/class/yago/Person100007846
p26
aVhttp://dbpedia.org/class/yago/Player110439851
p27
aVhttp://dbpedia.org/class/yago/Whole100003553
p28
aVhttp://dbpedia.org/class/yago/YagoLegalActorGeo
p29
aVhttp://dbpedia.org/class/yago/PhysicalEntity100001930
p30
aVhttp://dbpedia.org/class/yago/IndianapolisColtsPlayers
p31
aVhttp://dbpedia.org/class/yago/LivingPeople
p32
aVhttp://dbpedia.org/class/yago/MichiganWolverinesFootballPlayers
p33
aVhttp://dbpedia.org/class/yago/PlayersOfAmericanFootballFromColorado
p34
aVhttp://dbpedia.org/class/yago/YagoLegalActor
p35
aVhttp://dbpedia.org/resource/Josh_Williams_(American_football)
tp36
aa(lp37
a(lp38
a(lp39
a(lp40
a(lp41
((lVhttp://dbpedia.org/resource/Null
tp42
aaa(lp43
(lp44
a(lp45
((lp46
Vhttp://www.w3.org/2002/07/owl#Thing
p47
aVhttp://xmlns.com/foaf/0.1/Person
p48
aVhttp://dbpedia.org/ontology/Person
p49
aVhttp://www.ontologydesignpatterns.org/ont/dul/DUL.owl#Agent
p50
aVhttp://www.ontologydesignpatterns.org/ont/dul/DUL.owl#NaturalPerson
p51
aVhttp://www.wikidata.org/entity/Q14128148
p52
aVhttp://www.wikidata.org/entity/Q215627
p53
aVhttp://www.wikidata.org/entity/Q5
p54
aVhttp://dbpedia.org/ontology/Agent
p55
aVhttp://dbpedia.org/ontology/AmericanFootballPlayer
p56
aVhttp://dbpedia.org/ontology/Athlete
p57
aVhttp://dbpedia.org/ontology/GridironFootballPlayer
p58
aVhttp://schema.org/Person
p59
aVhttp://dbpedia.org/class/yago/Athlete109820263
p60
aVhttp://dbpedia.org/class/yago/CausalAgent100007347
p61
aVhttp://dbpedia.org/class/yago/Contestant109613191
p62
aVhttp://dbpedia.org/class/yago/FootballPlayer110101634
p63
aVhttp://dbpedia.org/class/yago/LivingThing100004258
p64
aVhttp://dbpedia.org/class/yago/Object100002684
p65
aVhttp://dbpedia.org/class/yago/Organism100004475
p66
aVhttp://dbpedia.org/class/yago/Person100007846
p67
aVhttp://dbpedia.org/class/yago/Player110439851
p68
aVhttp://dbpedia.org/class/yago/Whole100003553
p69
aVhttp://dbpedia.org/class/yago/YagoLegalActorGeo
p70
aVhttp://dbpedia.org/class/yago/PhysicalEntity100001930
p71
aVhttp://dbpedia.org/class/yago/IndianapolisColtsPlayers
p72
aVhttp://dbpedia.org/class/yago/LivingPeople
p73
aVhttp://dbpedia.org/class/yago/MichiganWolverinesFootballPlayers
p74
aVhttp://dbpedia.org/class/yago/PlayersOfAmericanFootballFromColorado
p75
aVhttp://dbpedia.org/class/yago/YagoLegalActor
p76
aVhttp://dbpedia.org/resource/Josh_Williams_(American_football)
tp77
aa(lp78
a(lp79
a(lp80
a(lp81
a(lp82
((lVhttp://dbpedia.org/resource/Null
tp83
aaa(lp84
(lp85
a(lp86
((lp87
Vhttp://www.w3.org/2002/07/owl#Thing
p88
aVhttp://xmlns.com/foaf/0.1/Person
p89
aVhttp://dbpedia.org/ontology/Person
p90
aVhttp://www.ontologydesignpatterns.org/ont/dul/DUL.owl#Agent
p91
aVhttp://www.ontologydesignpatterns.org/ont/dul/DUL.owl#NaturalPerson
p92
aVhttp://www.wikidata.org/entity/Q14128148
p93
aVhttp://www.wikidata.org/entity/Q215627
p94
aVhttp://www.wikidata.org/entity/Q5
p95
aVhttp://dbpedia.org/ontology/Agent
p96
aVhttp://dbpedia.org/ontology/AmericanFootballPlayer
p97
aVhttp://dbpedia.org/ontology/Athlete
p98
aVhttp://dbpedia.org/ontology/GridironFootballPlayer
p99
aVhttp://schema.org/Person
p100
aVhttp://dbpedia.org/class/yago/Athlete109820263
p101
aVhttp://dbpedia.org/class/yago/CausalAgent100007347
p102
aVhttp://dbpedia.org/class/yago/Contestant109613191
p103
aVhttp://dbpedia.org/class/yago/FootballPlayer110101634
p104
aVhttp://dbpedia.org/class/yago/LivingThing100004258
p105
aVhttp://dbpedia.org/class/yago/Object100002684
p106
aVhttp://dbpedia.org/class/yago/Organism100004475
p107
aVhttp://dbpedia.org/class/yago/Person100007846
p108
aVhttp://dbpedia.org/class/yago/Player110439851
p109
aVhttp://dbpedia.org/class/yago/Whole100003553
p110
aVhttp://dbpedia.org/class/yago/YagoLegalActorGeo
p111
aVhttp://dbpedia.org/class/yago/PhysicalEntity100001930
p112
aVhttp://dbpedia.org/class/yago/IndianapolisColtsPlayers
p113
aVhttp://dbpedia.org/class/yago/LivingPeople
p114
aVhttp://dbpedia.org/class/yago/MichiganWolverinesFootballPlayers
p115
aVhttp://dbpedia.org/class/yago/PlayersOfAmericanFootballFromColorado
p116
aVhttp://dbpedia.org/class/yago/YagoLegalActor
p117
aVhttp://dbpedia.org/resource/Josh_Williams_(American_football)
tp118
aa(lp119
a(lp120
a(lp121
a(lp122
a(lp123
((lVhttp://dbpedia.org/resource/Null
tp124
aaa(lp125
(lp126
a(lp127
((lVhttp://dbpedia.org/resource/Electromechanics
tp128
aa(lp129
a(lp130
a(lp131
a(lp132
a(lp133
((lVhttp://dbpedia.org/resource/Null
tp134
aaa(lp135
(lp136
a(lp137
((lp138
Vhttp://www.w3.org/2002/07/owl#Thing
p139
aVhttp://xmlns.com/foaf/0.1/Person
p140
aVhttp://dbpedia.org/ontology/Person
p141
aVhttp://www.ontologydesignpatterns.org/ont/dul/DUL.owl#Agent
p142
aVhttp://www.ontologydesignpatterns.org/ont/dul/DUL.owl#NaturalPerson
p143
aVhttp://www.wikidata.org/entity/Q14128148
p144
aVhttp://www.wikidata.org/entity/Q215627
p145
aVhttp://www.wikidata.org/entity/Q5
p146
aVhttp://dbpedia.org/ontology/Agent
p147
aVhttp://dbpedia.org/ontology/AmericanFootballPlayer
p148
aVhttp://dbpedia.org/ontology/Athlete
p149
aVhttp://dbpedia.org/ontology/GridironFootballPlayer
p150
aVhttp://schema.org/Person
p151
aVhttp://dbpedia.org/class/yago/Athlete109820263
p152
aVhttp://dbpedia.org/class/yago/CausalAgent100007347
p153
aVhttp://dbpedia.org/class/yago/Contestant109613191
p154
aVhttp://dbpedia.org/class/yago/FootballPlayer110101634
p155
aVhttp://dbpedia.org/class/yago/LivingThing100004258
p156
aVhttp://dbpedia.org/class/yago/Object100002684
p157
aVhttp://dbpedia.org/class/yago/Organism100004475
p158
aVhttp://dbpedia.org/class/yago/Person100007846
p159
aVhttp://dbpedia.org/class/yago/Player110439851
p160
aVhttp://dbpedia.org/class/yago/Whole100003553
p161
aVhttp://dbpedia.org/class/yago/YagoLegalActorGeo
p162
aVhttp://dbpedia.org/class/yago/PhysicalEntity100001930
p163
aVhttp://dbpedia.org/class/yago/IndianapolisColtsPlayers
p164
aVhttp://dbpedia.org/class/yago/LivingPeople
p165
aVhttp://dbpedia.org/class/yago/MichiganWolverinesFootballPlayers
p166
aVhttp://dbpedia.org/class/yago/PlayersOfAmericanFootballFromColorado
p167
aVhttp://dbpedia.org/class/yago/YagoLegalActor
p168
aVhttp://dbpedia.org/resource/Josh_Williams_(American_football)
tp169
aa(lp170
a(lp171
a(lp172
a(lp173
a(lp174
((lVhttp://dbpedia.org/resource/Null
tp175
aaa(lp176
(lp177
a(lp178
((lp179
Vhttp://www.w3.org/2002/07/owl#Thing
p180
aVhttp://xmlns.com/foaf/0.1/Person
p181
aVhttp://dbpedia.org/ontology/Person
p182
aVhttp://www.ontologydesignpatterns.org/ont/dul/DUL.owl#Agent
p183
aVhttp://www.ontologydesignpatterns.org/ont/dul/DUL.owl#NaturalPerson
p184
aVhttp://www.wikidata.org/entity/Q14128148
p185
aVhttp://www.wikidata.org/entity/Q215627
p186
aVhttp://www.wikidata.org/entity/Q5
p187
aVhttp://dbpedia.org/ontology/Agent
p188
aVhttp://dbpedia.org/ontology/AmericanFootballPlayer
p189
aVhttp://dbpedia.org/ontology/Athlete
p190
aVhttp://dbpedia.org/ontology/GridironFootballPlayer
p191
aVhttp://schema.org/Person
p192
aVhttp://dbpedia.org/class/yago/Athlete109820263
p193
aVhttp://dbpedia.org/class/yago/CausalAgent100007347
p194
aVhttp://dbpedia.org/class/yago/Contestant109613191
p195
aVhttp://dbpedia.org/class/yago/FootballPlayer110101634
p196
aVhttp://dbpedia.org/class/yago/LivingThing100004258
p197
aVhttp://dbpedia.org/class/yago/Object100002684
p198
aVhttp://dbpedia.org/class/yago/Organism100004475
p199
aVhttp://dbpedia.org/class/yago/Person100007846
p200
aVhttp://dbpedia.org/class/yago/Player110439851
p201
aVhttp://dbpedia.org/class/yago/Whole100003553
p202
aVhttp://dbpedia.org/class/yago/YagoLegalActorGeo
p203
aVhttp://dbpedia.org/class/yago/PhysicalEntity100001930
p204
aVhttp://dbpedia.org/class/yago/IndianapolisColtsPlayers
p205
aVhttp://dbpedia.org/class/yago/LivingPeople
p206
aVhttp://dbpedia.org/class/yago/MichiganWolverinesFootballPlayers
p207
aVhttp://dbpedia.org/class/yago/PlayersOfAmericanFootballFromColorado
p208
aVhttp://dbpedia.org/class/yago/YagoLegalActor
p209
aVhttp://dbpedia.org/resource/Josh_Williams_(American_football)
tp210
aa(lp211
a(lp212
a(lp213
a(lp214
a(lp215
((lVhttp://dbpedia.org/resource/Null
tp216
aaa(lp217
(lp218
a(lp219
((lp220
Vhttp://www.w3.org/2002/07/owl#Thing
p221
aVhttp://xmlns.com/foaf/0.1/Person
p222
aVhttp://dbpedia.org/ontology/Person
p223
aVhttp://www.ontologydesignpatterns.org/ont/dul/DUL.owl#Agent
p224
aVhttp://www.ontologydesignpatterns.org/ont/dul/DUL.owl#NaturalPerson
p225
aVhttp://www.wikidata.org/entity/Q14128148
p226
aVhttp://www.wikidata.org/entity/Q215627
p227
aVhttp://www.wikidata.org/entity/Q5
p228
aVhttp://dbpedia.org/ontology/Agent
p229
aVhttp://dbpedia.org/ontology/AmericanFootballPlayer
p230
aVhttp://dbpedia.org/ontology/Athlete
p231
aVhttp://dbpedia.org/ontology/GridironFootballPlayer
p232
aVhttp://schema.org/Person
p233
aVhttp://dbpedia.org/class/yago/Athlete109820263
p234
aVhttp://dbpedia.org/class/yago/CausalAgent100007347
p235
aVhttp://dbpedia.org/class/yago/Contestant109613191
p236
aVhttp://dbpedia.org/class/yago/FootballPlayer110101634
p237
aVhttp://dbpedia.org/class/yago/LivingThing100004258
p238
aVhttp://dbpedia.org/class/yago/Object100002684
p239
aVhttp://dbpedia.org/class/yago/Organism100004475
p240
aVhttp://dbpedia.org/class/yago/Person100007846
p241
aVhttp://dbpedia.org/class/yago/Player110439851
p242
aVhttp://dbpedia.org/class/yago/Whole100003553
p243
aVhttp://dbpedia.org/class/yago/YagoLegalActorGeo
p244
aVhttp://dbpedia.org/class/yago/PhysicalEntity100001930
p245
aVhttp://dbpedia.org/class/yago/IndianapolisColtsPlayers
p246
aVhttp://dbpedia.org/class/yago/LivingPeople
p247
aVhttp://dbpedia.org/class/yago/MichiganWolverinesFootballPlayers
p248
aVhttp://dbpedia.org/class/yago/PlayersOfAmericanFootballFromColorado
p249
aVhttp://dbpedia.org/class/yago/YagoLegalActor
p250
aVhttp://dbpedia.org/resource/Josh_Williams_(American_football)
tp251
aa(lp252
a(lp253
a(lp254
a(lp255
a(lp256
((lVhttp://dbpedia.org/resource/Null
tp257
aaa(lp258
(lp259
((lp260
Vhttp://www.w3.org/2002/07/owl#Thing
p261
aVhttp://xmlns.com/foaf/0.1/Person
p262
aVhttp://dbpedia.org/ontology/Person
p263
aVhttp://www.ontologydesignpatterns.org/ont/dul/DUL.owl#Agent
p264
aVhttp://www.ontologydesignpatterns.org/ont/dul/DUL.owl#NaturalPerson
p265
aVhttp://www.wikidata.org/entity/Q215627
p266
aVhttp://www.wikidata.org/entity/Q483501
p267
aVhttp://www.wikidata.org/entity/Q5
p268
aVhttp://dbpedia.org/ontology/Agent
p269
aVhttp://dbpedia.org/ontology/Artist
p270
aVhttp://dbpedia.org/ontology/MusicalArtist
p271
aVhttp://schema.org/MusicGroup
p272
aVhttp://schema.org/Person
p273
aVhttp://umbel.org/umbel/rc/MusicalPerformer
p274
aVhttp://dbpedia.org/class/yago/Artist109812338
p275
aVhttp://dbpedia.org/class/yago/CausalAgent100007347
p276
aVhttp://dbpedia.org/class/yago/Creator109614315
p277
aVhttp://dbpedia.org/class/yago/Entertainer109616922
p278
aVhttp://dbpedia.org/class/yago/Guitarist110151760
p279
aVhttp://dbpedia.org/class/yago/LivingThing100004258
p280
aVhttp://dbpedia.org/class/yago/Musician110339966
p281
aVhttp://dbpedia.org/class/yago/Musician110340312
p282
aVhttp://dbpedia.org/class/yago/Object100002684
p283
aVhttp://dbpedia.org/class/yago/Organism100004475
p284
aVhttp://dbpedia.org/class/yago/Performer110415638
p285
aVhttp://dbpedia.org/class/yago/Person100007846
p286
aVhttp://dbpedia.org/class/yago/Singer110599806
p287
aVhttp://dbpedia.org/class/yago/Whole100003553
p288
aVhttp://dbpedia.org/class/yago/YagoLegalActorGeo
p289
aVhttp://dbpedia.org/class/yago/PhysicalEntity100001930
p290
aVhttp://dbpedia.org/class/yago/GermanHeavyMetalBassGuitarists
p291
aVhttp://dbpedia.org/class/yago/GermanHeavyMetalSingers
p292
aVhttp://dbpedia.org/class/yago/GermanMaleSingers
p293
aVhttp://dbpedia.org/class/yago/LivingPeople
p294
aVhttp://dbpedia.org/class/yago/PeopleFromGelsenkirchen
p295
aVhttp://dbpedia.org/class/yago/YagoLegalActor
p296
aVhttp://dbpedia.org/resource/Tom_Angelripper
tp297
aa(lp298
((lp299
Vhttp://www.w3.org/2002/07/owl#Thing
p300
aVhttp://xmlns.com/foaf/0.1/Person
p301
aVhttp://dbpedia.org/ontology/Person
p302
aVhttp://www.ontologydesignpatterns.org/ont/dul/DUL.owl#Agent
p303
aVhttp://www.ontologydesignpatterns.org/ont/dul/DUL.owl#NaturalPerson
p304
aVhttp://www.wikidata.org/entity/Q14128148
p305
aVhttp://www.wikidata.org/entity/Q215627
p306
aVhttp://www.wikidata.org/entity/Q5
p307
aVhttp://dbpedia.org/ontology/Agent
p308
aVhttp://dbpedia.org/ontology/AmericanFootballPlayer
p309
aVhttp://dbpedia.org/ontology/Athlete
p310
aVhttp://dbpedia.org/ontology/GridironFootballPlayer
p311
aVhttp://schema.org/Person
p312
aVhttp://dbpedia.org/class/yago/Athlete109820263
p313
aVhttp://dbpedia.org/class/yago/CausalAgent100007347
p314
aVhttp://dbpedia.org/class/yago/Contestant109613191
p315
aVhttp://dbpedia.org/class/yago/FootballPlayer110101634
p316
aVhttp://dbpedia.org/class/yago/LivingThing100004258
p317
aVhttp://dbpedia.org/class/yago/Object100002684
p318
aVhttp://dbpedia.org/class/yago/Organism100004475
p319
aVhttp://dbpedia.org/class/yago/Person100007846
p320
aVhttp://dbpedia.org/class/yago/Player110439851
p321
aVhttp://dbpedia.org/class/yago/Whole100003553
p322
aVhttp://dbpedia.org/class/yago/YagoLegalActorGeo
p323
aVhttp://dbpedia.org/class/yago/PhysicalEntity100001930
p324
aVhttp://dbpedia.org/class/yago/IndianapolisColtsPlayers
p325
aVhttp://dbpedia.org/class/yago/LivingPeople
p326
aVhttp://dbpedia.org/class/yago/MichiganWolverinesFootballPlayers
p327
aVhttp://dbpedia.org/class/yago/PlayersOfAmericanFootballFromColorado
p328
aVhttp://dbpedia.org/class/yago/YagoLegalActor
p329
aVhttp://dbpedia.org/resource/Josh_Williams_(American_football)
tp330
aa(lp331
a(lp332
a(lp333
a(lp334
a(lp335
((lVhttp://dbpedia.org/resource/Null
tp336
aaa(lp337
(lp338
a(lp339
((lp340
Vhttp://www.w3.org/2002/07/owl#Thing
p341
aVhttp://xmlns.com/foaf/0.1/Person
p342
aVhttp://dbpedia.org/ontology/Person
p343
aVhttp://www.ontologydesignpatterns.org/ont/dul/DUL.owl#Agent
p344
aVhttp://www.ontologydesignpatterns.org/ont/dul/DUL.owl#NaturalPerson
p345
aVhttp://www.wikidata.org/entity/Q14128148
p346
aVhttp://www.wikidata.org/entity/Q215627
p347
aVhttp://www.wikidata.org/entity/Q5
p348
aVhttp://dbpedia.org/ontology/Agent
p349
aVhttp://dbpedia.org/ontology/AmericanFootballPlayer
p350
aVhttp://dbpedia.org/ontology/Athlete
p351
aVhttp://dbpedia.org/ontology/GridironFootballPlayer
p352
aVhttp://schema.org/Person
p353
aVhttp://dbpedia.org/class/yago/Athlete109820263
p354
aVhttp://dbpedia.org/class/yago/CausalAgent100007347
p355
aVhttp://dbpedia.org/class/yago/Contestant109613191
p356
aVhttp://dbpedia.org/class/yago/FootballPlayer110101634
p357
aVhttp://dbpedia.org/class/yago/LivingThing100004258
p358
aVhttp://dbpedia.org/class/yago/Object100002684
p359
aVhttp://dbpedia.org/class/yago/Organism100004475
p360
aVhttp://dbpedia.org/class/yago/Person100007846
p361
aVhttp://dbpedia.org/class/yago/Player110439851
p362
aVhttp://dbpedia.org/class/yago/Whole100003553
p363
aVhttp://dbpedia.org/class/yago/YagoLegalActorGeo
p364
aVhttp://dbpedia.org/class/yago/PhysicalEntity100001930
p365
aVhttp://dbpedia.org/class/yago/IndianapolisColtsPlayers
p366
aVhttp://dbpedia.org/class/yago/LivingPeople
p367
aVhttp://dbpedia.org/class/yago/MichiganWolverinesFootballPlayers
p368
aVhttp://dbpedia.org/class/yago/PlayersOfAmericanFootballFromColorado
p369
aVhttp://dbpedia.org/class/yago/YagoLegalActor
p370
aVhttp://dbpedia.org/resource/Josh_Williams_(American_football)
tp371
aa(lp372
a(lp373
a(lp374
a(lp375
a(lp376
((lVhttp://dbpedia.org/resource/Null
tp377
aaa(lp378
(lp379
a(lp380
((lp381
Vhttp://www.w3.org/2002/07/owl#Thing
p382
aVhttp://xmlns.com/foaf/0.1/Person
p383
aVhttp://dbpedia.org/ontology/Person
p384
aVhttp://www.ontologydesignpatterns.org/ont/dul/DUL.owl#Agent
p385
aVhttp://www.ontologydesignpatterns.org/ont/dul/DUL.owl#NaturalPerson
p386
aVhttp://www.wikidata.org/entity/Q14128148
p387
aVhttp://www.wikidata.org/entity/Q215627
p388
aVhttp://www.wikidata.org/entity/Q5
p389
aVhttp://dbpedia.org/ontology/Agent
p390
aVhttp://dbpedia.org/ontology/AmericanFootballPlayer
p391
aVhttp://dbpedia.org/ontology/Athlete
p392
aVhttp://dbpedia.org/ontology/GridironFootballPlayer
p393
aVhttp://schema.org/Person
p394
aVhttp://dbpedia.org/class/yago/Athlete109820263
p395
aVhttp://dbpedia.org/class/yago/CausalAgent100007347
p396
aVhttp://dbpedia.org/class/yago/Contestant109613191
p397
aVhttp://dbpedia.org/class/yago/FootballPlayer110101634
p398
aVhttp://dbpedia.org/class/yago/LivingThing100004258
p399
aVhttp://dbpedia.org/class/yago/Object100002684
p400
aVhttp://dbpedia.org/class/yago/Organism100004475
p401
aVhttp://dbpedia.org/class/yago/Person100007846
p402
aVhttp://dbpedia.org/class/yago/Player110439851
p403
aVhttp://dbpedia.org/class/yago/Whole100003553
p404
aVhttp://dbpedia.org/class/yago/YagoLegalActorGeo
p405
aVhttp://dbpedia.org/class/yago/PhysicalEntity100001930
p406
aVhttp://dbpedia.org/class/yago/IndianapolisColtsPlayers
p407
aVhttp://dbpedia.org/class/yago/LivingPeople
p408
aVhttp://dbpedia.org/class/yago/MichiganWolverinesFootballPlayers
p409
aVhttp://dbpedia.org/class/yago/PlayersOfAmericanFootballFromColorado
p410
aVhttp://dbpedia.org/class/yago/YagoLegalActor
p411
aVhttp://dbpedia.org/resource/Josh_Williams_(American_football)
tp412
aa(lp413
a(lp414
a(lp415
a(lp416
a(lp417
((lVhttp://dbpedia.org/resource/Null
tp418
aaa(lp419
(lp420
a(lp421
((lVhttp://dbpedia.org/resource/Electromechanics
tp422
aa(lp423
a(lp424
a(lp425
a(lp426
a(lp427
((lVhttp://dbpedia.org/resource/Null
tp428
aaa(lp429
(lp430
a(lp431
((lVhttp://dbpedia.org/resource/Electromechanics
tp432
aa(lp433
a(lp434
a(lp435
a(lp436
a(lp437
((lVhttp://dbpedia.org/resource/Null
tp438
aaa(lp439
(lp440
a(lp441
((lp442
Vhttp://www.w3.org/2002/07/owl#Thing
p443
aVhttp://xmlns.com/foaf/0.1/Person
p444
aVhttp://dbpedia.org/ontology/Person
p445
aVhttp://www.ontologydesignpatterns.org/ont/dul/DUL.owl#Agent
p446
aVhttp://www.ontologydesignpatterns.org/ont/dul/DUL.owl#NaturalPerson
p447
aVhttp://www.wikidata.org/entity/Q14128148
p448
aVhttp://www.wikidata.org/entity/Q215627
p449
aVhttp://www.wikidata.org/entity/Q5
p450
aVhttp://dbpedia.org/ontology/Agent
p451
aVhttp://dbpedia.org/ontology/AmericanFootballPlayer
p452
aVhttp://dbpedia.org/ontology/Athlete
p453
aVhttp://dbpedia.org/ontology/GridironFootballPlayer
p454
aVhttp://schema.org/Person
p455
aVhttp://dbpedia.org/class/yago/Athlete109820263
p456
aVhttp://dbpedia.org/class/yago/CausalAgent100007347
p457
aVhttp://dbpedia.org/class/yago/Contestant109613191
p458
aVhttp://dbpedia.org/class/yago/FootballPlayer110101634
p459
aVhttp://dbpedia.org/class/yago/LivingThing100004258
p460
aVhttp://dbpedia.org/class/yago/Object100002684
p461
aVhttp://dbpedia.org/class/yago/Organism100004475
p462
aVhttp://dbpedia.org/class/yago/Person100007846
p463
aVhttp://dbpedia.org/class/yago/Player110439851
p464
aVhttp://dbpedia.org/class/yago/Whole100003553
p465
aVhttp://dbpedia.org/class/yago/YagoLegalActorGeo
p466
aVhttp://dbpedia.org/class/yago/PhysicalEntity100001930
p467
aVhttp://dbpedia.org/class/yago/IndianapolisColtsPlayers
p468
aVhttp://dbpedia.org/class/yago/LivingPeople
p469
aVhttp://dbpedia.org/class/yago/MichiganWolverinesFootballPlayers
p470
aVhttp://dbpedia.org/class/yago/PlayersOfAmericanFootballFromColorado
p471
aVhttp://dbpedia.org/class/yago/YagoLegalActor
p472
aVhttp://dbpedia.org/resource/Josh_Williams_(American_football)
tp473
aa(lp474
a(lp475
a(lp476
a(lp477
a(lp478
((lVhttp://dbpedia.org/resource/Null
tp479
aaa(lp480
(lp481
a(lp482
a(lp483
a(lp484
a(lp485
a(lp486
a(lp487
aa(lp488
(lp489
a(lp490
((lp491
Vhttp://www.w3.org/2002/07/owl#Thing
p492
aVhttp://xmlns.com/foaf/0.1/Person
p493
aVhttp://dbpedia.org/ontology/Person
p494
aVhttp://www.ontologydesignpatterns.org/ont/dul/DUL.owl#Agent
p495
aVhttp://www.ontologydesignpatterns.org/ont/dul/DUL.owl#NaturalPerson
p496
aVhttp://www.wikidata.org/entity/Q14128148
p497
aVhttp://www.wikidata.org/entity/Q215627
p498
aVhttp://www.wikidata.org/entity/Q5
p499
aVhttp://dbpedia.org/ontology/Agent
p500
aVhttp://dbpedia.org/ontology/AmericanFootballPlayer
p501
aVhttp://dbpedia.org/ontology/Athlete
p502
aVhttp://dbpedia.org/ontology/GridironFootballPlayer
p503
aVhttp://schema.org/Person
p504
aVhttp://dbpedia.org/class/yago/Athlete109820263
p505
aVhttp://dbpedia.org/class/yago/CausalAgent100007347
p506
aVhttp://dbpedia.org/class/yago/Contestant109613191
p507
aVhttp://dbpedia.org/class/yago/FootballPlayer110101634
p508
aVhttp://dbpedia.org/class/yago/LivingThing100004258
p509
aVhttp://dbpedia.org/class/yago/Object100002684
p510
aVhttp://dbpedia.org/class/yago/Organism100004475
p511
aVhttp://dbpedia.org/class/yago/Person100007846
p512
aVhttp://dbpedia.org/class/yago/Player110439851
p513
aVhttp://dbpedia.org/class/yago/Whole100003553
p514
aVhttp://dbpedia.org/class/yago/YagoLegalActorGeo
p515
aVhttp://dbpedia.org/class/yago/PhysicalEntity100001930
p516
aVhttp://dbpedia.org/class/yago/IndianapolisColtsPlayers
p517
aVhttp://dbpedia.org/class/yago/LivingPeople
p518
aVhttp://dbpedia.org/class/yago/MichiganWolverinesFootballPlayers
p519
aVhttp://dbpedia.org/class/yago/PlayersOfAmericanFootballFromColorado
p520
aVhttp://dbpedia.org/class/yago/YagoLegalActor
p521
aVhttp://dbpedia.org/resource/Josh_Williams_(American_football)
tp522
aa(lp523
a(lp524
a(lp525
a(lp526
a(lp527
((lVhttp://dbpedia.org/resource/Null
tp528
aaa(lp529
(lp530
a(lp531
((lVhttp://dbpedia.org/resource/Electromechanics
tp532
aa(lp533
a(lp534
a(lp535
a(lp536
a(lp537
((lVhttp://dbpedia.org/resource/Null
tp538
aaa(lp539
(lp540
a(lp541
((lp542
Vhttp://www.w3.org/2002/07/owl#Thing
p543
aVhttp://xmlns.com/foaf/0.1/Person
p544
aVhttp://dbpedia.org/ontology/Person
p545
aVhttp://www.ontologydesignpatterns.org/ont/dul/DUL.owl#Agent
p546
aVhttp://www.ontologydesignpatterns.org/ont/dul/DUL.owl#NaturalPerson
p547
aVhttp://www.wikidata.org/entity/Q14128148
p548
aVhttp://www.wikidata.org/entity/Q215627
p549
aVhttp://www.wikidata.org/entity/Q5
p550
aVhttp://dbpedia.org/ontology/Agent
p551
aVhttp://dbpedia.org/ontology/AmericanFootballPlayer
p552
aVhttp://dbpedia.org/ontology/Athlete
p553
aVhttp://dbpedia.org/ontology/GridironFootballPlayer
p554
aVhttp://schema.org/Person
p555
aVhttp://dbpedia.org/class/yago/Athlete109820263
p556
aVhttp://dbpedia.org/class/yago/CausalAgent100007347
p557
aVhttp://dbpedia.org/class/yago/Contestant109613191
p558
aVhttp://dbpedia.org/class/yago/FootballPlayer110101634
p559
aVhttp://dbpedia.org/class/yago/LivingThing100004258
p560
aVhttp://dbpedia.org/class/yago/Object100002684
p561
aVhttp://dbpedia.org/class/yago/Organism100004475
p562
aVhttp://dbpedia.org/class/yago/Person100007846
p563
aVhttp://dbpedia.org/class/yago/Player110439851
p564
aVhttp://dbpedia.org/class/yago/Whole100003553
p565
aVhttp://dbpedia.org/class/yago/YagoLegalActorGeo
p566
aVhttp://dbpedia.org/class/yago/PhysicalEntity100001930
p567
aVhttp://dbpedia.org/class/yago/IndianapolisColtsPlayers
p568
aVhttp://dbpedia.org/class/yago/LivingPeople
p569
aVhttp://dbpedia.org/class/yago/MichiganWolverinesFootballPlayers
p570
aVhttp://dbpedia.org/class/yago/PlayersOfAmericanFootballFromColorado
p571
aVhttp://dbpedia.org/class/yago/YagoLegalActor
p572
aVhttp://dbpedia.org/resource/Josh_Williams_(American_football)
tp573
aa(lp574
a(lp575
a(lp576
a(lp577
a(lp578
((lVhttp://dbpedia.org/resource/Null
tp579
aaa(lp580
(lp581
((lVhttp://dbpedia.org/resource/Four_Corners_(disambiguation)
tp582
aa(lp583
((lVhttp://dbpedia.org/resource/Electromechanics
tp584
aa(lp585
a(lp586
a(lp587
a(lp588
a(lp589
((lVhttp://dbpedia.org/resource/Null
tp590
aaa(lp591
(lp592
a(lp593
a(lp594
a(lp595
a(lp596
a(lp597
a(lp598
((lVhttp://dbpedia.org/resource/Null
tp599
aaa(lp600
(lp601
a(lp602
a(lp603
a(lp604
a(lp605
a(lp606
a(lp607
((lVhttp://dbpedia.org/resource/Null
p608
tp609
aaa.