(lp1
(lp2
(dp3
Vstart
p4
I0
sS'classes'
p5
(lp6
Vhttp://www.w3.org/2002/07/owl#Thing
p7
aVhttp://xmlns.com/foaf/0.1/Person
p8
aVhttp://dbpedia.org/ontology/Person
p9
aVhttp://www.ontologydesignpatterns.org/ont/dul/DUL.owl#Agent
p10
aVhttp://www.ontologydesignpatterns.org/ont/dul/DUL.owl#NaturalPerson
p11
aVhttp://www.wikidata.org/entity/Q14128148
p12
aVhttp://www.wikidata.org/entity/Q215627
p13
aVhttp://www.wikidata.org/entity/Q5
p14
aVhttp://dbpedia.org/ontology/Agent
p15
aVhttp://dbpedia.org/ontology/AmericanFootballPlayer
p16
aVhttp://dbpedia.org/ontology/Athlete
p17
aVhttp://dbpedia.org/ontology/GridironFootballPlayer
p18
aVhttp://schema.org/Person
p19
aVhttp://dbpedia.org/class/yago/Athlete109820263
p20
aVhttp://dbpedia.org/class/yago/CausalAgent100007347
p21
aVhttp://dbpedia.org/class/yago/Contestant109613191
p22
aVhttp://dbpedia.org/class/yago/FootballPlayer110101634
p23
aVhttp://dbpedia.org/class/yago/LivingThing100004258
p24
aVhttp://dbpedia.org/class/yago/Object100002684
p25
aVhttp://dbpedia.org/class/yago/Organism100004475
p26
aVhttp://dbpedia.org/class/yago/Person100007846
p27
aVhttp://dbpedia.org/class/yago/Player110439851
p28
aVhttp://dbpedia.org/class/yago/Whole100003553
p29
aVhttp://dbpedia.org/class/yago/YagoLegalActorGeo
p30
aVhttp://dbpedia.org/class/yago/PhysicalEntity100001930
p31
aVhttp://dbpedia.org/class/yago/IndianapolisColtsPlayers
p32
aVhttp://dbpedia.org/class/yago/LivingPeople
p33
aVhttp://dbpedia.org/class/yago/MichiganWolverinesFootballPlayers
p34
aVhttp://dbpedia.org/class/yago/PlayersOfAmericanFootballFromColorado
p35
aVhttp://dbpedia.org/class/yago/YagoLegalActor
p36
asVdisambiguatedURL
p37
Vhttp://dbpedia.org/resource/Josh_Williams_(American_football)
p38
sVnamedEntity
p39
Voriginal
p40
sVoffset
p41
I8
saa(lp42
(dp43
Vstart
p44
I0
sg5
(lp45
Vhttp://www.w3.org/2002/07/owl#Thing
p46
aVhttp://xmlns.com/foaf/0.1/Person
p47
aVhttp://dbpedia.org/ontology/Person
p48
aVhttp://www.ontologydesignpatterns.org/ont/dul/DUL.owl#Agent
p49
aVhttp://www.ontologydesignpatterns.org/ont/dul/DUL.owl#NaturalPerson
p50
aVhttp://www.wikidata.org/entity/Q14128148
p51
aVhttp://www.wikidata.org/entity/Q215627
p52
aVhttp://www.wikidata.org/entity/Q5
p53
aVhttp://dbpedia.org/ontology/Agent
p54
aVhttp://dbpedia.org/ontology/AmericanFootballPlayer
p55
aVhttp://dbpedia.org/ontology/Athlete
p56
aVhttp://dbpedia.org/ontology/GridironFootballPlayer
p57
aVhttp://schema.org/Person
p58
aVhttp://dbpedia.org/class/yago/Athlete109820263
p59
aVhttp://dbpedia.org/class/yago/CausalAgent100007347
p60
aVhttp://dbpedia.org/class/yago/Contestant109613191
p61
aVhttp://dbpedia.org/class/yago/FootballPlayer110101634
p62
aVhttp://dbpedia.org/class/yago/LivingThing100004258
p63
aVhttp://dbpedia.org/class/yago/Object100002684
p64
aVhttp://dbpedia.org/class/yago/Organism100004475
p65
aVhttp://dbpedia.org/class/yago/Person100007846
p66
aVhttp://dbpedia.org/class/yago/Player110439851
p67
aVhttp://dbpedia.org/class/yago/Whole100003553
p68
aVhttp://dbpedia.org/class/yago/YagoLegalActorGeo
p69
aVhttp://dbpedia.org/class/yago/PhysicalEntity100001930
p70
aVhttp://dbpedia.org/class/yago/IndianapolisColtsPlayers
p71
aVhttp://dbpedia.org/class/yago/LivingPeople
p72
aVhttp://dbpedia.org/class/yago/MichiganWolverinesFootballPlayers
p73
aVhttp://dbpedia.org/class/yago/PlayersOfAmericanFootballFromColorado
p74
aVhttp://dbpedia.org/class/yago/YagoLegalActor
p75
asVdisambiguatedURL
p76
Vhttp://dbpedia.org/resource/Josh_Williams_(American_football)
p77
sVnamedEntity
p78
Voriginal
p79
sVoffset
p80
I8
saa(lp81
(dp82
Vstart
p83
I0
sg5
(lp84
Vhttp://www.w3.org/2002/07/owl#Thing
p85
aVhttp://xmlns.com/foaf/0.1/Person
p86
aVhttp://dbpedia.org/ontology/Person
p87
aVhttp://www.ontologydesignpatterns.org/ont/dul/DUL.owl#Agent
p88
aVhttp://www.ontologydesignpatterns.org/ont/dul/DUL.owl#NaturalPerson
p89
aVhttp://www.wikidata.org/entity/Q14128148
p90
aVhttp://www.wikidata.org/entity/Q215627
p91
aVhttp://www.wikidata.org/entity/Q5
p92
aVhttp://dbpedia.org/ontology/Agent
p93
aVhttp://dbpedia.org/ontology/AmericanFootballPlayer
p94
aVhttp://dbpedia.org/ontology/Athlete
p95
aVhttp://dbpedia.org/ontology/GridironFootballPlayer
p96
aVhttp://schema.org/Person
p97
aVhttp://dbpedia.org/class/yago/Athlete109820263
p98
aVhttp://dbpedia.org/class/yago/CausalAgent100007347
p99
aVhttp://dbpedia.org/class/yago/Contestant109613191
p100
aVhttp://dbpedia.org/class/yago/FootballPlayer110101634
p101
aVhttp://dbpedia.org/class/yago/LivingThing100004258
p102
aVhttp://dbpedia.org/class/yago/Object100002684
p103
aVhttp://dbpedia.org/class/yago/Organism100004475
p104
aVhttp://dbpedia.org/class/yago/Person100007846
p105
aVhttp://dbpedia.org/class/yago/Player110439851
p106
aVhttp://dbpedia.org/class/yago/Whole100003553
p107
aVhttp://dbpedia.org/class/yago/YagoLegalActorGeo
p108
aVhttp://dbpedia.org/class/yago/PhysicalEntity100001930
p109
aVhttp://dbpedia.org/class/yago/IndianapolisColtsPlayers
p110
aVhttp://dbpedia.org/class/yago/LivingPeople
p111
aVhttp://dbpedia.org/class/yago/MichiganWolverinesFootballPlayers
p112
aVhttp://dbpedia.org/class/yago/PlayersOfAmericanFootballFromColorado
p113
aVhttp://dbpedia.org/class/yago/YagoLegalActor
p114
asVdisambiguatedURL
p115
Vhttp://dbpedia.org/resource/Josh_Williams_(American_football)
p116
sVnamedEntity
p117
Voriginal
p118
sVoffset
p119
I8
saa(lp120
a(lp121
(dp122
Vstart
p123
I0
sg5
(lp124
Vhttp://www.w3.org/2002/07/owl#Thing
p125
aVhttp://xmlns.com/foaf/0.1/Person
p126
aVhttp://dbpedia.org/ontology/Person
p127
aVhttp://www.ontologydesignpatterns.org/ont/dul/DUL.owl#Agent
p128
aVhttp://www.ontologydesignpatterns.org/ont/dul/DUL.owl#NaturalPerson
p129
aVhttp://www.wikidata.org/entity/Q14128148
p130
aVhttp://www.wikidata.org/entity/Q215627
p131
aVhttp://www.wikidata.org/entity/Q5
p132
aVhttp://dbpedia.org/ontology/Agent
p133
aVhttp://dbpedia.org/ontology/AmericanFootballPlayer
p134
aVhttp://dbpedia.org/ontology/Athlete
p135
aVhttp://dbpedia.org/ontology/GridironFootballPlayer
p136
aVhttp://schema.org/Person
p137
aVhttp://dbpedia.org/class/yago/Athlete109820263
p138
aVhttp://dbpedia.org/class/yago/CausalAgent100007347
p139
aVhttp://dbpedia.org/class/yago/Contestant109613191
p140
aVhttp://dbpedia.org/class/yago/FootballPlayer110101634
p141
aVhttp://dbpedia.org/class/yago/LivingThing100004258
p142
aVhttp://dbpedia.org/class/yago/Object100002684
p143
aVhttp://dbpedia.org/class/yago/Organism100004475
p144
aVhttp://dbpedia.org/class/yago/Person100007846
p145
aVhttp://dbpedia.org/class/yago/Player110439851
p146
aVhttp://dbpedia.org/class/yago/Whole100003553
p147
aVhttp://dbpedia.org/class/yago/YagoLegalActorGeo
p148
aVhttp://dbpedia.org/class/yago/PhysicalEntity100001930
p149
aVhttp://dbpedia.org/class/yago/IndianapolisColtsPlayers
p150
aVhttp://dbpedia.org/class/yago/LivingPeople
p151
aVhttp://dbpedia.org/class/yago/MichiganWolverinesFootballPlayers
p152
aVhttp://dbpedia.org/class/yago/PlayersOfAmericanFootballFromColorado
p153
aVhttp://dbpedia.org/class/yago/YagoLegalActor
p154
asVdisambiguatedURL
p155
Vhttp://dbpedia.org/resource/Josh_Williams_(American_football)
p156
sVnamedEntity
p157
Voriginal
p158
sVoffset
p159
I8
saa(lp160
(dp161
Vstart
p162
I0
sg5
(lp163
Vhttp://www.w3.org/2002/07/owl#Thing
p164
aVhttp://xmlns.com/foaf/0.1/Person
p165
aVhttp://dbpedia.org/ontology/Person
p166
aVhttp://www.ontologydesignpatterns.org/ont/dul/DUL.owl#Agent
p167
aVhttp://www.ontologydesignpatterns.org/ont/dul/DUL.owl#NaturalPerson
p168
aVhttp://www.wikidata.org/entity/Q14128148
p169
aVhttp://www.wikidata.org/entity/Q215627
p170
aVhttp://www.wikidata.org/entity/Q5
p171
aVhttp://dbpedia.org/ontology/Agent
p172
aVhttp://dbpedia.org/ontology/AmericanFootballPlayer
p173
aVhttp://dbpedia.org/ontology/Athlete
p174
aVhttp://dbpedia.org/ontology/GridironFootballPlayer
p175
aVhttp://schema.org/Person
p176
aVhttp://dbpedia.org/class/yago/Athlete109820263
p177
aVhttp://dbpedia.org/class/yago/CausalAgent100007347
p178
aVhttp://dbpedia.org/class/yago/Contestant109613191
p179
aVhttp://dbpedia.org/class/yago/FootballPlayer110101634
p180
aVhttp://dbpedia.org/class/yago/LivingThing100004258
p181
aVhttp://dbpedia.org/class/yago/Object100002684
p182
aVhttp://dbpedia.org/class/yago/Organism100004475
p183
aVhttp://dbpedia.org/class/yago/Person100007846
p184
aVhttp://dbpedia.org/class/yago/Player110439851
p185
aVhttp://dbpedia.org/class/yago/Whole100003553
p186
aVhttp://dbpedia.org/class/yago/YagoLegalActorGeo
p187
aVhttp://dbpedia.org/class/yago/PhysicalEntity100001930
p188
aVhttp://dbpedia.org/class/yago/IndianapolisColtsPlayers
p189
aVhttp://dbpedia.org/class/yago/LivingPeople
p190
aVhttp://dbpedia.org/class/yago/MichiganWolverinesFootballPlayers
p191
aVhttp://dbpedia.org/class/yago/PlayersOfAmericanFootballFromColorado
p192
aVhttp://dbpedia.org/class/yago/YagoLegalActor
p193
asVdisambiguatedURL
p194
Vhttp://dbpedia.org/resource/Josh_Williams_(American_football)
p195
sVnamedEntity
p196
Voriginal
p197
sVoffset
p198
I8
saa(lp199
(dp200
Vstart
p201
I0
sg5
(lp202
Vhttp://www.w3.org/2002/07/owl#Thing
p203
aVhttp://xmlns.com/foaf/0.1/Person
p204
aVhttp://dbpedia.org/ontology/Person
p205
aVhttp://www.ontologydesignpatterns.org/ont/dul/DUL.owl#Agent
p206
aVhttp://www.ontologydesignpatterns.org/ont/dul/DUL.owl#NaturalPerson
p207
aVhttp://www.wikidata.org/entity/Q14128148
p208
aVhttp://www.wikidata.org/entity/Q215627
p209
aVhttp://www.wikidata.org/entity/Q5
p210
aVhttp://dbpedia.org/ontology/Agent
p211
aVhttp://dbpedia.org/ontology/AmericanFootballPlayer
p212
aVhttp://dbpedia.org/ontology/Athlete
p213
aVhttp://dbpedia.org/ontology/GridironFootballPlayer
p214
aVhttp://schema.org/Person
p215
aVhttp://dbpedia.org/class/yago/Athlete109820263
p216
aVhttp://dbpedia.org/class/yago/CausalAgent100007347
p217
aVhttp://dbpedia.org/class/yago/Contestant109613191
p218
aVhttp://dbpedia.org/class/yago/FootballPlayer110101634
p219
aVhttp://dbpedia.org/class/yago/LivingThing100004258
p220
aVhttp://dbpedia.org/class/yago/Object100002684
p221
aVhttp://dbpedia.org/class/yago/Organism100004475
p222
aVhttp://dbpedia.org/class/yago/Person100007846
p223
aVhttp://dbpedia.org/class/yago/Player110439851
p224
aVhttp://dbpedia.org/class/yago/Whole100003553
p225
aVhttp://dbpedia.org/class/yago/YagoLegalActorGeo
p226
aVhttp://dbpedia.org/class/yago/PhysicalEntity100001930
p227
aVhttp://dbpedia.org/class/yago/IndianapolisColtsPlayers
p228
aVhttp://dbpedia.org/class/yago/LivingPeople
p229
aVhttp://dbpedia.org/class/yago/MichiganWolverinesFootballPlayers
p230
aVhttp://dbpedia.org/class/yago/PlayersOfAmericanFootballFromColorado
p231
aVhttp://dbpedia.org/class/yago/YagoLegalActor
p232
asVdisambiguatedURL
p233
Vhttp://dbpedia.org/resource/Josh_Williams_(American_football)
p234
sVnamedEntity
p235
Voriginal
p236
sVoffset
p237
I8
saa(lp238
(dp239
Vstart
p240
I0
sg5
(lp241
Vhttp://www.w3.org/2002/07/owl#Thing
p242
aVhttp://xmlns.com/foaf/0.1/Person
p243
aVhttp://dbpedia.org/ontology/Person
p244
aVhttp://www.ontologydesignpatterns.org/ont/dul/DUL.owl#Agent
p245
aVhttp://www.ontologydesignpatterns.org/ont/dul/DUL.owl#NaturalPerson
p246
aVhttp://www.wikidata.org/entity/Q14128148
p247
aVhttp://www.wikidata.org/entity/Q215627
p248
aVhttp://www.wikidata.org/entity/Q5
p249
aVhttp://dbpedia.org/ontology/Agent
p250
aVhttp://dbpedia.org/ontology/AmericanFootballPlayer
p251
aVhttp://dbpedia.org/ontology/Athlete
p252
aVhttp://dbpedia.org/ontology/GridironFootballPlayer
p253
aVhttp://schema.org/Person
p254
aVhttp://dbpedia.org/class/yago/Athlete109820263
p255
aVhttp://dbpedia.org/class/yago/CausalAgent100007347
p256
aVhttp://dbpedia.org/class/yago/Contestant109613191
p257
aVhttp://dbpedia.org/class/yago/FootballPlayer110101634
p258
aVhttp://dbpedia.org/class/yago/LivingThing100004258
p259
aVhttp://dbpedia.org/class/yago/Object100002684
p260
aVhttp://dbpedia.org/class/yago/Organism100004475
p261
aVhttp://dbpedia.org/class/yago/Person100007846
p262
aVhttp://dbpedia.org/class/yago/Player110439851
p263
aVhttp://dbpedia.org/class/yago/Whole100003553
p264
aVhttp://dbpedia.org/class/yago/YagoLegalActorGeo
p265
aVhttp://dbpedia.org/class/yago/PhysicalEntity100001930
p266
aVhttp://dbpedia.org/class/yago/IndianapolisColtsPlayers
p267
aVhttp://dbpedia.org/class/yago/LivingPeople
p268
aVhttp://dbpedia.org/class/yago/MichiganWolverinesFootballPlayers
p269
aVhttp://dbpedia.org/class/yago/PlayersOfAmericanFootballFromColorado
p270
aVhttp://dbpedia.org/class/yago/YagoLegalActor
p271
asVdisambiguatedURL
p272
Vhttp://dbpedia.org/resource/Josh_Williams_(American_football)
p273
sVnamedEntity
p274
Voriginal
p275
sVoffset
p276
I8
saa(lp277
(dp278
Vstart
p279
I0
sg5
(lp280
Vhttp://www.w3.org/2002/07/owl#Thing
p281
aVhttp://xmlns.com/foaf/0.1/Person
p282
aVhttp://dbpedia.org/ontology/Person
p283
aVhttp://www.ontologydesignpatterns.org/ont/dul/DUL.owl#Agent
p284
aVhttp://www.ontologydesignpatterns.org/ont/dul/DUL.owl#NaturalPerson
p285
aVhttp://www.wikidata.org/entity/Q14128148
p286
aVhttp://www.wikidata.org/entity/Q215627
p287
aVhttp://www.wikidata.org/entity/Q5
p288
aVhttp://dbpedia.org/ontology/Agent
p289
aVhttp://dbpedia.org/ontology/AmericanFootballPlayer
p290
aVhttp://dbpedia.org/ontology/Athlete
p291
aVhttp://dbpedia.org/ontology/GridironFootballPlayer
p292
aVhttp://schema.org/Person
p293
aVhttp://dbpedia.org/class/yago/Athlete109820263
p294
aVhttp://dbpedia.org/class/yago/CausalAgent100007347
p295
aVhttp://dbpedia.org/class/yago/Contestant109613191
p296
aVhttp://dbpedia.org/class/yago/FootballPlayer110101634
p297
aVhttp://dbpedia.org/class/yago/LivingThing100004258
p298
aVhttp://dbpedia.org/class/yago/Object100002684
p299
aVhttp://dbpedia.org/class/yago/Organism100004475
p300
aVhttp://dbpedia.org/class/yago/Person100007846
p301
aVhttp://dbpedia.org/class/yago/Player110439851
p302
aVhttp://dbpedia.org/class/yago/Whole100003553
p303
aVhttp://dbpedia.org/class/yago/YagoLegalActorGeo
p304
aVhttp://dbpedia.org/class/yago/PhysicalEntity100001930
p305
aVhttp://dbpedia.org/class/yago/IndianapolisColtsPlayers
p306
aVhttp://dbpedia.org/class/yago/LivingPeople
p307
aVhttp://dbpedia.org/class/yago/MichiganWolverinesFootballPlayers
p308
aVhttp://dbpedia.org/class/yago/PlayersOfAmericanFootballFromColorado
p309
aVhttp://dbpedia.org/class/yago/YagoLegalActor
p310
asVdisambiguatedURL
p311
Vhttp://dbpedia.org/resource/Josh_Williams_(American_football)
p312
sVnamedEntity
p313
Voriginal
p314
sVoffset
p315
I8
saa(lp316
(dp317
Vstart
p318
I0
sg5
(lp319
Vhttp://www.w3.org/2002/07/owl#Thing
p320
aVhttp://xmlns.com/foaf/0.1/Person
p321
aVhttp://dbpedia.org/ontology/Person
p322
aVhttp://www.ontologydesignpatterns.org/ont/dul/DUL.owl#Agent
p323
aVhttp://www.ontologydesignpatterns.org/ont/dul/DUL.owl#NaturalPerson
p324
aVhttp://www.wikidata.org/entity/Q14128148
p325
aVhttp://www.wikidata.org/entity/Q215627
p326
aVhttp://www.wikidata.org/entity/Q5
p327
aVhttp://dbpedia.org/ontology/Agent
p328
aVhttp://dbpedia.org/ontology/AmericanFootballPlayer
p329
aVhttp://dbpedia.org/ontology/Athlete
p330
aVhttp://dbpedia.org/ontology/GridironFootballPlayer
p331
aVhttp://schema.org/Person
p332
aVhttp://dbpedia.org/class/yago/Athlete109820263
p333
aVhttp://dbpedia.org/class/yago/CausalAgent100007347
p334
aVhttp://dbpedia.org/class/yago/Contestant109613191
p335
aVhttp://dbpedia.org/class/yago/FootballPlayer110101634
p336
aVhttp://dbpedia.org/class/yago/LivingThing100004258
p337
aVhttp://dbpedia.org/class/yago/Object100002684
p338
aVhttp://dbpedia.org/class/yago/Organism100004475
p339
aVhttp://dbpedia.org/class/yago/Person100007846
p340
aVhttp://dbpedia.org/class/yago/Player110439851
p341
aVhttp://dbpedia.org/class/yago/Whole100003553
p342
aVhttp://dbpedia.org/class/yago/YagoLegalActorGeo
p343
aVhttp://dbpedia.org/class/yago/PhysicalEntity100001930
p344
aVhttp://dbpedia.org/class/yago/IndianapolisColtsPlayers
p345
aVhttp://dbpedia.org/class/yago/LivingPeople
p346
aVhttp://dbpedia.org/class/yago/MichiganWolverinesFootballPlayers
p347
aVhttp://dbpedia.org/class/yago/PlayersOfAmericanFootballFromColorado
p348
aVhttp://dbpedia.org/class/yago/YagoLegalActor
p349
asVdisambiguatedURL
p350
Vhttp://dbpedia.org/resource/Josh_Williams_(American_football)
p351
sVnamedEntity
p352
Voriginal
p353
sVoffset
p354
I8
saa(lp355
a(lp356
a(lp357
(dp358
Vstart
p359
I0
sg5
(lp360
Vhttp://www.w3.org/2002/07/owl#Thing
p361
aVhttp://xmlns.com/foaf/0.1/Person
p362
aVhttp://dbpedia.org/ontology/Person
p363
aVhttp://www.ontologydesignpatterns.org/ont/dul/DUL.owl#Agent
p364
aVhttp://www.ontologydesignpatterns.org/ont/dul/DUL.owl#NaturalPerson
p365
aVhttp://www.wikidata.org/entity/Q14128148
p366
aVhttp://www.wikidata.org/entity/Q215627
p367
aVhttp://www.wikidata.org/entity/Q5
p368
aVhttp://dbpedia.org/ontology/Agent
p369
aVhttp://dbpedia.org/ontology/AmericanFootballPlayer
p370
aVhttp://dbpedia.org/ontology/Athlete
p371
aVhttp://dbpedia.org/ontology/GridironFootballPlayer
p372
aVhttp://schema.org/Person
p373
aVhttp://dbpedia.org/class/yago/Athlete109820263
p374
aVhttp://dbpedia.org/class/yago/CausalAgent100007347
p375
aVhttp://dbpedia.org/class/yago/Contestant109613191
p376
aVhttp://dbpedia.org/class/yago/FootballPlayer110101634
p377
aVhttp://dbpedia.org/class/yago/LivingThing100004258
p378
aVhttp://dbpedia.org/class/yago/Object100002684
p379
aVhttp://dbpedia.org/class/yago/Organism100004475
p380
aVhttp://dbpedia.org/class/yago/Person100007846
p381
aVhttp://dbpedia.org/class/yago/Player110439851
p382
aVhttp://dbpedia.org/class/yago/Whole100003553
p383
aVhttp://dbpedia.org/class/yago/YagoLegalActorGeo
p384
aVhttp://dbpedia.org/class/yago/PhysicalEntity100001930
p385
aVhttp://dbpedia.org/class/yago/IndianapolisColtsPlayers
p386
aVhttp://dbpedia.org/class/yago/LivingPeople
p387
aVhttp://dbpedia.org/class/yago/MichiganWolverinesFootballPlayers
p388
aVhttp://dbpedia.org/class/yago/PlayersOfAmericanFootballFromColorado
p389
aVhttp://dbpedia.org/class/yago/YagoLegalActor
p390
asVdisambiguatedURL
p391
Vhttp://dbpedia.org/resource/Josh_Williams_(American_football)
p392
sVnamedEntity
p393
Voriginal
p394
sVoffset
p395
I8
saa(lp396
a(lp397
(dp398
Vstart
p399
I0
sg5
(lp400
Vhttp://www.w3.org/2002/07/owl#Thing
p401
aVhttp://xmlns.com/foaf/0.1/Person
p402
aVhttp://dbpedia.org/ontology/Person
p403
aVhttp://www.ontologydesignpatterns.org/ont/dul/DUL.owl#Agent
p404
aVhttp://www.ontologydesignpatterns.org/ont/dul/DUL.owl#NaturalPerson
p405
aVhttp://www.wikidata.org/entity/Q14128148
p406
aVhttp://www.wikidata.org/entity/Q215627
p407
aVhttp://www.wikidata.org/entity/Q5
p408
aVhttp://dbpedia.org/ontology/Agent
p409
aVhttp://dbpedia.org/ontology/AmericanFootballPlayer
p410
aVhttp://dbpedia.org/ontology/Athlete
p411
aVhttp://dbpedia.org/ontology/GridironFootballPlayer
p412
aVhttp://schema.org/Person
p413
aVhttp://dbpedia.org/class/yago/Athlete109820263
p414
aVhttp://dbpedia.org/class/yago/CausalAgent100007347
p415
aVhttp://dbpedia.org/class/yago/Contestant109613191
p416
aVhttp://dbpedia.org/class/yago/FootballPlayer110101634
p417
aVhttp://dbpedia.org/class/yago/LivingThing100004258
p418
aVhttp://dbpedia.org/class/yago/Object100002684
p419
aVhttp://dbpedia.org/class/yago/Organism100004475
p420
aVhttp://dbpedia.org/class/yago/Person100007846
p421
aVhttp://dbpedia.org/class/yago/Player110439851
p422
aVhttp://dbpedia.org/class/yago/Whole100003553
p423
aVhttp://dbpedia.org/class/yago/YagoLegalActorGeo
p424
aVhttp://dbpedia.org/class/yago/PhysicalEntity100001930
p425
aVhttp://dbpedia.org/class/yago/IndianapolisColtsPlayers
p426
aVhttp://dbpedia.org/class/yago/LivingPeople
p427
aVhttp://dbpedia.org/class/yago/MichiganWolverinesFootballPlayers
p428
aVhttp://dbpedia.org/class/yago/PlayersOfAmericanFootballFromColorado
p429
aVhttp://dbpedia.org/class/yago/YagoLegalActor
p430
asVdisambiguatedURL
p431
Vhttp://dbpedia.org/resource/Josh_Williams_(American_football)
p432
sVnamedEntity
p433
Voriginal
p434
sVoffset
p435
I8
saa(lp436
a(lp437
(dp438
Vstart
p439
I0
sg5
(lp440
Vhttp://www.w3.org/2002/07/owl#Thing
p441
aVhttp://xmlns.com/foaf/0.1/Person
p442
aVhttp://dbpedia.org/ontology/Person
p443
aVhttp://www.ontologydesignpatterns.org/ont/dul/DUL.owl#Agent
p444
aVhttp://www.ontologydesignpatterns.org/ont/dul/DUL.owl#NaturalPerson
p445
aVhttp://www.wikidata.org/entity/Q14128148
p446
aVhttp://www.wikidata.org/entity/Q215627
p447
aVhttp://www.wikidata.org/entity/Q5
p448
aVhttp://dbpedia.org/ontology/Agent
p449
aVhttp://dbpedia.org/ontology/AmericanFootballPlayer
p450
aVhttp://dbpedia.org/ontology/Athlete
p451
aVhttp://dbpedia.org/ontology/GridironFootballPlayer
p452
aVhttp://schema.org/Person
p453
aVhttp://dbpedia.org/class/yago/Athlete109820263
p454
aVhttp://dbpedia.org/class/yago/CausalAgent100007347
p455
aVhttp://dbpedia.org/class/yago/Contestant109613191
p456
aVhttp://dbpedia.org/class/yago/FootballPlayer110101634
p457
aVhttp://dbpedia.org/class/yago/LivingThing100004258
p458
aVhttp://dbpedia.org/class/yago/Object100002684
p459
aVhttp://dbpedia.org/class/yago/Organism100004475
p460
aVhttp://dbpedia.org/class/yago/Person100007846
p461
aVhttp://dbpedia.org/class/yago/Player110439851
p462
aVhttp://dbpedia.org/class/yago/Whole100003553
p463
aVhttp://dbpedia.org/class/yago/YagoLegalActorGeo
p464
aVhttp://dbpedia.org/class/yago/PhysicalEntity100001930
p465
aVhttp://dbpedia.org/class/yago/IndianapolisColtsPlayers
p466
aVhttp://dbpedia.org/class/yago/LivingPeople
p467
aVhttp://dbpedia.org/class/yago/MichiganWolverinesFootballPlayers
p468
aVhttp://dbpedia.org/class/yago/PlayersOfAmericanFootballFromColorado
p469
aVhttp://dbpedia.org/class/yago/YagoLegalActor
p470
asVdisambiguatedURL
p471
Vhttp://dbpedia.org/resource/Josh_Williams_(American_football)
p472
sVnamedEntity
p473
Voriginal
p474
sVoffset
p475
I8
saa(lp476
a(lp477
a(lp478
a.