(lp1
(lp2
(dp3
Vstart
p4
I0
sVdisambiguatedURL
p5
NsVnamedEntity
p6
V
sVoffset
p7
I0
saa(lp8
(dp9
Vstart
p10
I0
sVdisambiguatedURL
p11
Vhttp://dbpedia.org/resource/Argentina
p12
sVnamedEntity
p13
VArgentina
p14
sVoffset
p15
I9
saa(lp16
(dp17
Vstart
p18
I0
sVdisambiguatedURL
p19
Vhttp://dbpedia.org/resource/Bolivia
p20
sVnamedEntity
p21
VBolivia
p22
sVoffset
p23
I7
saa(lp24
(dp25
Vstart
p26
I0
sVdisambiguatedURL
p27
Vhttp://dbpedia.org/resource/Brazil
p28
sVnamedEntity
p29
VBrazil
p30
sVoffset
p31
I6
saa(lp32
(dp33
Vstart
p34
I0
sVdisambiguatedURL
p35
Vhttp://dbpedia.org/resource/Chile
p36
sVnamedEntity
p37
VChile
p38
sVoffset
p39
I5
saa(lp40
(dp41
Vstart
p42
I0
sVdisambiguatedURL
p43
Vhttp://dbpedia.org/resource/Costa_Rica
p44
sVnamedEntity
p45
VCosta Rica
p46
sVoffset
p47
I10
saa(lp48
(dp49
Vstart
p50
I0
sVdisambiguatedURL
p51
Vhttp://dbpedia.org/resource/Ecuador
p52
sVnamedEntity
p53
VEcuador
p54
sVoffset
p55
I7
saa.