ccollections
defaultdict
p1
(c__builtin__
dict
p2
tRp3
I1
(dp4
I1
(lp5
sI2
(lp6
sI3
(lp7
sI4
(lp8
ssI2
(dp9
I1
(lp10
sI2
(lp11
sI3
(lp12
sI4
(lp13
ssI3
(dp14
I1
(lp15
sI2
(lp16
sI3
(lp17
sI4
(lp18
ssI4
(dp19
I1
(lp20
sI2
(lp21
sI3
(lp22
sI4
(lp23
ssI5
(dp24
I1
(lp25
sI2
(lp26
sI3
(lp27
sI4
(lp28
ssI6
(dp29
I1
(lp30
sI2
(lp31
sI3
(lp32
sI4
(lp33
ss.