(lp1
(dp2
I0
(dp3
I0
(lp4
sI1
(lp5
sI2
(lp6
sI3
(lp7
sI4
(lp8
sI5
(lp9
sI6
(lp10
ssI1
(dp11
I0
g5
sI1
(lp12
sI2
(lp13
sI3
(lp14
sI4
(lp15
sI5
(lp16
sI6
(lp17
ssI2
(dp18
I0
g6
sI1
g13
sI2
(lp19
sI3
(lp20
sI4
(lp21
sI5
(lp22
sI6
(lp23
ssI3
(dp24
I0
g7
sI1
g14
sI2
g20
sI3
(lp25
sI4
(lp26
sI5
(lp27
sI6
(lp28
ssI4
(dp29
I0
g8
sI1
g15
sI2
g21
sI3
g26
sI4
(lp30
sI5
(lp31
sI6
(lp32
ssI5
(dp33
I0
g9
sI1
g16
sI2
g22
sI3
g27
sI4
g31
sI5
(lp34
sI6
(lp35
ssI6
(dp36
I0
g10
sI1
g17
sI2
g23
sI3
g28
sI4
g32
sI5
g35
sI6
(lp37
ssa(dp38
I0
(dp39
I0
(lp40
sI1
(lp41
sI2
(lp42
sI3
(lp43
sI4
(lp44
sI5
(lp45
sI6
(lp46
ssI1
(dp47
I0
g41
sI1
(lp48
sI2
(lp49
sI3
(lp50
sI4
(lp51
sI5
(lp52
sI6
(lp53
ssI2
(dp54
I0
g42
sI1
g49
sI2
(lp55
sI3
(lp56
sI4
(lp57
sI5
(lp58
sI6
(lp59
ssI3
(dp60
I0
g43
sI1
g50
sI2
g56
sI3
(lp61
sI4
(lp62
sI5
(lp63
sI6
(lp64
ssI4
(dp65
I0
g44
sI1
g51
sI2
g57
sI3
g62
sI4
(lp66
sI5
(lp67
sI6
(lp68
ssI5
(dp69
I0
g45
sI1
g52
sI2
g58
sI3
g63
sI4
g67
sI5
(lp70
sI6
(lp71
ssI6
(dp72
I0
g46
sI1
g53
sI2
g59
sI3
g64
sI4
g68
sI5
g71
sI6
(lp73
ssa(dp74
I0
(dp75
I0
(lp76
sI1
(lp77
sI2
(lp78
sI3
(lp79
sI4
(lp80
sI5
(lp81
sI6
(lp82
ssI1
(dp83
I0
g77
sI1
(lp84
sI2
(lp85
sI3
(lp86
sI4
(lp87
sI5
(lp88
sI6
(lp89
ssI2
(dp90
I0
g78
sI1
g85
sI2
(lp91
sI3
(lp92
sI4
(lp93
sI5
(lp94
sI6
(lp95
ssI3
(dp96
I0
g79
sI1
g86
sI3
(lp97
sI4
(lp98
sI5
(lp99
sI6
(lp100
ssI4
(dp101
I0
g80
sI1
g87
sI2
g93
sI3
g98
sI4
(lp102
sI5
(lp103
sI6
(lp104
ssI5
(dp105
I0
g81
sI1
g88
sI2
g94
sI3
g99
sI4
g103
sI5
(lp106
sI6
(lp107
ssI6
(dp108
I0
g82
sI1
g89
sI4
g104
sI5
g107
sI6
(lp109
ssa(dp110
I0
(dp111
I0
(lp112
sI1
(lp113
sI2
(lp114
sI3
(lp115
sI4
(lp116
sI5
(lp117
sI6
(lp118
ssI1
(dp119
I0
g113
sI1
(lp120
sI2
(lp121
sI3
(lp122
sI4
(lp123
sI5
(lp124
sI6
(lp125
ssI2
(dp126
I0
g114
sI1
g121
sI2
(lp127
sI3
(lp128
sI4
(lp129
sI5
(lp130
sI6
(lp131
ssI3
(dp132
I0
g115
sI1
g122
sI2
g128
sI3
(lp133
sI4
(lp134
sI5
(lp135
sI6
(lp136
ssI4
(dp137
I0
g116
sI1
g123
sI2
g129
sI3
g134
sI4
(lp138
sI5
(lp139
sI6
(lp140
ssI5
(dp141
I0
g117
sI1
g124
sI2
g130
sI3
g135
sI4
g139
sI5
(lp142
sI6
(lp143
ssI6
(dp144
I0
g118
sI1
g125
sI2
g131
sI3
g136
sI4
g140
sI5
g143
sI6
(lp145
ssa(dp146
I0
(dp147
I0
(lp148
sI1
(lp149
sI2
(lp150
sI3
(lp151
sI4
(lp152
sI5
(lp153
sI6
(lp154
ssI1
(dp155
I0
g149
sI1
(lp156
sI2
(lp157
sI3
(lp158
sI4
(lp159
sI5
(lp160
sI6
(lp161
ssI2
(dp162
I0
g150
sI1
g157
sI2
(lp163
sI3
(lp164
sI4
(lp165
sI5
(lp166
sI6
(lp167
ssI3
(dp168
I0
g151
sI1
g158
sI2
g164
sI3
(lp169
sI4
(lp170
sI5
(lp171
sI6
(lp172
ssI4
(dp173
I0
g152
sI1
g159
sI2
g165
sI3
g170
sI4
(lp174
sI5
(lp175
sI6
(lp176
ssI5
(dp177
I0
g153
sI1
g160
sI2
g166
sI3
g171
sI4
g175
sI5
(lp178
sI6
(lp179
ssI6
(dp180
I0
g154
sI1
g161
sI2
g167
sI3
g172
sI4
g176
sI5
g179
sI6
(lp181
ssa(dp182
I0
(dp183
I0
(lp184
sI1
(lp185
sI2
(lp186
sI3
(lp187
sI4
(lp188
sI5
(lp189
sI6
(lp190
ssI1
(dp191
I0
g185
sI1
(lp192
sI2
(lp193
sI3
(lp194
sI4
(lp195
sI5
(lp196
sI6
(lp197
ssI2
(dp198
I0
g186
sI1
g193
sI2
(lp199
sI3
(lp200
sI4
(lp201
sI5
(lp202
sI6
(lp203
ssI3
(dp204
I0
g187
sI1
g194
sI2
g200
sI3
(lp205
sI4
(lp206
sI5
(lp207
sI6
(lp208
ssI4
(dp209
I0
g188
sI1
g195
sI2
g201
sI3
g206
sI4
(lp210
sI5
(lp211
sI6
(lp212
ssI5
(dp213
I0
g189
sI1
g196
sI2
g202
sI3
g207
sI4
g211
sI5
(lp214
sI6
(lp215
ssI6
(dp216
I0
g190
sI1
g197
sI2
g203
sI3
g208
sI4
g212
sI6
(lp217
ssa(dp218
I0
(dp219
I0
(lp220
sI1
(lp221
sI2
(lp222
sI3
(lp223
sI4
(lp224
sI5
(lp225
sI6
(lp226
ssI1
(dp227
I0
g221
sI1
(lp228
sI2
(lp229
sI3
(lp230
sI4
(lp231
sI5
(lp232
sI6
(lp233
ssI2
(dp234
I0
g222
sI1
g229
sI2
(lp235
sI3
(lp236
sI4
(lp237
sI5
(lp238
sI6
(lp239
ssI3
(dp240
I0
g223
sI1
g230
sI2
g236
sI3
(lp241
sI4
(lp242
sI5
(lp243
sI6
(lp244
ssI4
(dp245
I0
g224
sI1
g231
sI2
g237
sI3
g242
sI4
(lp246
sI5
(lp247
sI6
(lp248
ssI5
(dp249
I0
g225
sI1
g232
sI2
g238
sI3
g243
sI4
g247
sI5
(lp250
sI6
(lp251
ssI6
(dp252
I0
g226
sI1
g233
sI2
g239
sI3
g244
sI4
g248
sI5
g251
sI6
(lp253
ssa(dp254
I0
(dp255
I0
(lp256
sI1
(lp257
sI2
(lp258
sI3
(lp259
sI4
(lp260
sI5
(lp261
sI6
(lp262
ssI1
(dp263
I0
g257
sI1
(lp264
sI2
(lp265
sI3
(lp266
sI4
(lp267
sI5
(lp268
sI6
(lp269
ssI2
(dp270
I0
g258
sI1
g265
sI2
(lp271
sI3
(lp272
sI4
(lp273
sI5
(lp274
sI6
(lp275
ssI3
(dp276
I0
g259
sI1
g266
sI3
(lp277
sI4
(lp278
sI5
(lp279
sI6
(lp280
ssI4
(dp281
I0
g260
sI1
g267
sI2
g273
sI3
g278
sI4
(lp282
sI5
(lp283
sI6
(lp284
ssI5
(dp285
I0
g261
sI1
g268
sI2
g274
sI3
g279
sI4
g283
sI5
(lp286
sI6
(lp287
ssI6
(dp288
I0
g262
sI1
g269
sI2
g275
sI3
g280
sI4
g284
sI5
g287
sI6
(lp289
ssa(dp290
I0
(dp291
I0
(lp292
sI1
(lp293
sI2
(lp294
sI3
(lp295
sI4
(lp296
sI5
(lp297
sI6
(lp298
ssI1
(dp299
I0
g293
sI1
(lp300
sI2
(lp301
sI3
(lp302
sI4
(lp303
sI5
(lp304
sI6
(lp305
ssI2
(dp306
I0
g294
sI1
g301
sI2
(lp307
sI3
(lp308
sI4
(lp309
sI5
(lp310
sI6
(lp311
ssI3
(dp312
I0
g295
sI1
g302
sI2
g308
sI3
(lp313
sI4
(lp314
sI5
(lp315
sI6
(lp316
ssI4
(dp317
I0
g296
sI1
g303
sI2
g309
sI3
g314
sI4
(lp318
sI5
(lp319
sI6
(lp320
ssI5
(dp321
I0
g297
sI1
g304
sI2
g310
sI3
g315
sI4
g319
sI5
(lp322
sI6
(lp323
ssI6
(dp324
I0
g298
sI1
g305
sI2
g311
sI3
g316
sI4
g320
sI5
g323
sI6
(lp325
ssa(dp326
I0
(dp327
I0
(lp328
sI1
(lp329
sI2
(lp330
sI3
(lp331
sI4
(lp332
sI5
(lp333
sI6
(lp334
ssI1
(dp335
I0
g329
sI1
(lp336
sI2
(lp337
sI3
(lp338
sI4
(lp339
sI5
(lp340
sI6
(lp341
ssI2
(dp342
I0
g330
sI1
g337
sI2
(lp343
sI3
(lp344
sI4
(lp345
sI5
(lp346
sI6
(lp347
ssI3
(dp348
I0
g331
sI1
g338
sI2
g344
sI3
(lp349
sI4
(lp350
sI5
(lp351
sI6
(lp352
ssI4
(dp353
I0
g332
sI1
g339
sI2
g345
sI3
g350
sI4
(lp354
sI5
(lp355
sI6
(lp356
ssI5
(dp357
I0
g333
sI1
g340
sI2
g346
sI3
g351
sI4
g355
sI5
(lp358
sI6
(lp359
ssI6
(dp360
I0
g334
sI1
g341
sI2
g347
sI3
g352
sI4
g356
sI5
g359
sI6
(lp361
ssa(dp362
I0
(dp363
I0
(lp364
sI1
(lp365
sI2
(lp366
sI3
(lp367
sI4
(lp368
sI5
(lp369
sI6
(lp370
ssI1
(dp371
I0
g365
sI1
(lp372
sI2
(lp373
sI3
(lp374
sI4
(lp375
sI5
(lp376
sI6
(lp377
ssI2
(dp378
I0
g366
sI1
g373
sI2
(lp379
sI3
(lp380
sI4
(lp381
sI5
(lp382
sI6
(lp383
ssI3
(dp384
I0
g367
sI1
g374
sI2
g380
sI3
(lp385
sI4
(lp386
sI5
(lp387
sI6
(lp388
ssI4
(dp389
I0
g368
sI1
g375
sI2
g381
sI3
g386
sI4
(lp390
sI5
(lp391
sI6
(lp392
ssI5
(dp393
I0
g369
sI1
g376
sI2
g382
sI4
g391
sI5
(lp394
sI6
(lp395
ssI6
(dp396
I0
g370
sI1
g377
sI2
g383
sI4
g392
sI6
(lp397
ssa(dp398
I0
(dp399
I0
(lp400
sI1
(lp401
sI2
(lp402
sI3
(lp403
sI4
(lp404
sI5
(lp405
sI6
(lp406
ssI1
(dp407
I0
g401
sI1
(lp408
sI2
(lp409
sI3
(lp410
sI4
(lp411
sI5
(lp412
sI6
(lp413
ssI2
(dp414
I0
g402
sI1
g409
sI2
(lp415
sI3
(lp416
sI4
(lp417
sI5
(lp418
sI6
(lp419
ssI3
(dp420
I0
g403
sI1
g410
sI2
g416
sI3
(lp421
sI4
(lp422
sI5
(lp423
sI6
(lp424
ssI4
(dp425
I0
g404
sI1
g411
sI2
g417
sI3
g422
sI4
(lp426
sI5
(lp427
sI6
(lp428
ssI5
(dp429
I0
g405
sI1
g412
sI2
g418
sI3
g423
sI4
g427
sI5
(lp430
sI6
(lp431
ssI6
(dp432
I0
g406
sI1
g413
sI2
g419
sI3
g424
sI4
g428
sI5
g431
sI6
(lp433
ssa(dp434
I0
(dp435
I0
(lp436
sI1
(lp437
sI2
(lp438
sI3
(lp439
sI4
(lp440
sI5
(lp441
sI6
(lp442
ssI1
(dp443
I0
g437
sI1
(lp444
sI2
(lp445
sI3
(lp446
sI4
(lp447
sI5
(lp448
sI6
(lp449
ssI2
(dp450
I0
g438
sI2
(lp451
sI3
(lp452
sI4
(lp453
sI5
(lp454
sI6
(lp455
ssI3
(dp456
I0
g439
sI3
(lp457
sI4
(lp458
sI5
(lp459
sI6
(lp460
ssI4
(dp461
I0
g440
sI1
g447
sI2
g453
sI3
g458
sI4
(lp462
sI5
(lp463
sI6
(lp464
ssI5
(dp465
I0
g441
sI1
g448
sI2
g454
sI3
g459
sI4
g463
sI5
(lp466
sI6
(lp467
ssI6
(dp468
I0
g442
sI4
g464
sI5
g467
sI6
(lp469
ssa(dp470
I0
(dp471
I0
(lp472
sI1
(lp473
sI2
(lp474
sI3
(lp475
sI4
(lp476
sI5
(lp477
sI6
(lp478
ssI1
(dp479
I0
g473
sI1
(lp480
sI2
(lp481
sI3
(lp482
sI4
(lp483
sI5
(lp484
sI6
(lp485
ssI2
(dp486
I0
g474
sI1
g481
sI2
(lp487
sI3
(lp488
sI4
(lp489
sI5
(lp490
sI6
(lp491
ssI3
(dp492
I0
g475
sI1
g482
sI3
(lp493
sI4
(lp494
sI5
(lp495
sI6
(lp496
ssI4
(dp497
I0
g476
sI1
g483
sI2
g489
sI3
g494
sI4
(lp498
sI5
(lp499
sI6
(lp500
ssI5
(dp501
I0
g477
sI1
g484
sI2
g490
sI3
g495
sI4
g499
sI5
(lp502
sI6
(lp503
ssI6
(dp504
I0
g478
sI1
g485
sI2
g491
sI3
g496
sI4
g500
sI5
g503
sI6
(lp505
ssa(dp506
I0
(dp507
I0
(lp508
sI1
(lp509
sI2
(lp510
sI3
(lp511
sI4
(lp512
sI5
(lp513
sI6
(lp514
ssI1
(dp515
I0
g509
sI1
(lp516
sI2
(lp517
sI3
(lp518
sI4
(lp519
sI5
(lp520
sI6
(lp521
ssI2
(dp522
I0
g510
sI1
g517
sI2
(lp523
sI3
(lp524
sI4
(lp525
sI5
(lp526
sI6
(lp527
ssI3
(dp528
I0
g511
sI1
g518
sI2
g524
sI3
(lp529
sI4
(lp530
sI5
(lp531
sI6
(lp532
ssI4
(dp533
I0
g512
sI1
g519
sI2
g525
sI3
g530
sI4
(lp534
sI5
(lp535
sI6
(lp536
ssI5
(dp537
I0
g513
sI1
g520
sI2
g526
sI3
g531
sI4
g535
sI5
(lp538
sI6
(lp539
ssI6
(dp540
I0
g514
sI1
g521
sI2
g527
sI3
g532
sI4
g536
sI5
g539
sI6
(lp541
ssa(dp542
I0
(dp543
I0
(lp544
sI1
(lp545
sI2
(lp546
sI3
(lp547
sI4
(lp548
sI5
(lp549
sI6
(lp550
ssI1
(dp551
I0
g545
sI1
(lp552
sI2
(lp553
sI3
(lp554
sI4
(lp555
sI5
(lp556
sI6
(lp557
ssI2
(dp558
I0
g546
sI1
g553
sI2
(lp559
sI3
(lp560
sI4
(lp561
sI5
(lp562
sI6
(lp563
ssI3
(dp564
I0
g547
sI1
g554
sI3
(lp565
sI4
(lp566
sI5
(lp567
sI6
(lp568
ssI4
(dp569
I0
g548
sI1
g555
sI2
g561
sI3
g566
sI4
(lp570
sI5
(lp571
sI6
(lp572
ssI5
(dp573
I0
g549
sI1
g556
sI2
g562
sI3
g567
sI4
g571
sI5
(lp574
sI6
(lp575
ssI6
(dp576
I0
g550
sI1
g557
sI2
g563
sI3
g568
sI4
g572
sI5
g575
sI6
(lp577
ssa(dp578
I0
(dp579
I0
(lp580
sI1
(lp581
sI2
(lp582
sI3
(lp583
sI4
(lp584
sI5
(lp585
sI6
(lp586
ssI1
(dp587
I0
g581
sI1
(lp588
sI2
(lp589
sI3
(lp590
sI4
(lp591
sI5
(lp592
sI6
(lp593
ssI2
(dp594
I0
g582
sI1
g589
sI2
(lp595
sI3
(lp596
sI4
(lp597
sI5
(lp598
sI6
(lp599
ssI3
(dp600
I0
g583
sI1
g590
sI2
g596
sI3
(lp601
sI4
(lp602
sI5
(lp603
sI6
(lp604
ssI4
(dp605
I0
g584
sI1
g591
sI2
g597
sI3
g602
sI4
(lp606
sI5
(lp607
sI6
(lp608
ssI5
(dp609
I0
g585
sI1
g592
sI2
g598
sI3
g603
sI4
g607
sI5
(lp610
sI6
(lp611
ssI6
(dp612
I0
g586
sI1
g593
sI2
g599
sI3
g604
sI4
g608
sI5
g611
sI6
(lp613
ssa(dp614
I0
(dp615
I0
(lp616
sI1
(lp617
sI2
(lp618
sI3
(lp619
sI4
(lp620
sI5
(lp621
sI6
(lp622
ssI1
(dp623
I0
g617
sI1
(lp624
sI2
(lp625
sI3
(lp626
sI4
(lp627
sI5
(lp628
sI6
(lp629
ssI2
(dp630
I0
g618
sI1
g625
sI2
(lp631
sI3
(lp632
sI4
(lp633
sI5
(lp634
sI6
(lp635
ssI3
(dp636
I0
g619
sI1
g626
sI2
g632
sI3
(lp637
sI4
(lp638
sI5
(lp639
sI6
(lp640
ssI4
(dp641
I0
g620
sI1
g627
sI2
g633
sI3
g638
sI4
(lp642
sI5
(lp643
sI6
(lp644
ssI5
(dp645
I0
g621
sI1
g628
sI2
g634
sI3
g639
sI4
g643
sI5
(lp646
sI6
(lp647
ssI6
(dp648
I0
g622
sI1
g629
sI2
g635
sI3
g640
sI4
g644
sI5
g647
sI6
(lp649
ssa(dp650
I0
(dp651
I0
(lp652
sI1
(lp653
sI2
(lp654
sI3
(lp655
sI4
(lp656
sI5
(lp657
sI6
(lp658
ssI1
(dp659
I0
g653
sI1
(lp660
sI2
(lp661
sI3
(lp662
sI4
(lp663
sI5
(lp664
sI6
(lp665
ssI2
(dp666
I0
g654
sI1
g661
sI2
(lp667
sI3
(lp668
sI4
(lp669
sI5
(lp670
sI6
(lp671
ssI3
(dp672
I0
g655
sI1
g662
sI3
(lp673
sI4
(lp674
sI5
(lp675
sI6
(lp676
ssI4
(dp677
I0
g656
sI1
g663
sI2
g669
sI3
g674
sI4
(lp678
sI5
(lp679
sI6
(lp680
ssI5
(dp681
I0
g657
sI1
g664
sI4
g679
sI5
(lp682
sI6
(lp683
ssI6
(dp684
I0
g658
sI1
g665
sI4
g680
sI6
(lp685
ssa(dp686
I0
(dp687
I0
(lp688
sI1
(lp689
sI2
(lp690
sI3
(lp691
sI4
(lp692
sI5
(lp693
sI6
(lp694
ssI1
(dp695
I0
g689
sI1
(lp696
sI2
(lp697
sI3
(lp698
sI4
(lp699
sI5
(lp700
sI6
(lp701
ssI2
(dp702
I0
g690
sI1
g697
sI2
(lp703
sI3
(lp704
sI4
(lp705
sI5
(lp706
sI6
(lp707
ssI3
(dp708
I0
g691
sI1
g698
sI2
g704
sI3
(lp709
sI4
(lp710
sI5
(lp711
sI6
(lp712
ssI4
(dp713
I0
g692
sI1
g699
sI2
g705
sI3
g710
sI4
(lp714
sI5
(lp715
sI6
(lp716
ssI5
(dp717
I0
g693
sI1
g700
sI2
g706
sI3
g711
sI4
g715
sI5
(lp718
sI6
(lp719
ssI6
(dp720
I0
g694
sI1
g701
sI2
g707
sI3
g712
sI4
g716
sI6
(lp721
ssa.