(lp1
(dp2
I0
(dp3
I0
(lp4
sI1
(lp5
sI2
(lp6
sI3
(lp7
sI4
(lp8
ssI1
(dp9
I1
(lp10
sI2
(lp11
sI3
(lp12
sI4
(lp13
ssI2
(dp14
I0
g6
sI1
g11
sI2
(lp15
sI3
(lp16
sI4
(lp17
ssI3
(dp18
I0
g7
sI1
g12
sI2
g16
sI3
(lp19
sI4
(lp20
ssI4
(dp21
I0
g8
sI1
g13
sI2
g17
sI3
g20
sI4
(lp22
ssa(dp23
I0
(dp24
I0
(lp25
sI1
(lp26
sI2
(lp27
Vhttp://purl.org/voc/vrank#hasRank
p28
asI3
(lp29
sI4
(lp30
ssI1
(dp31
I0
g26
sI1
(lp32
sI2
(lp33
sI3
(lp34
sI4
(lp35
ssI2
(dp36
I0
g27
sI1
g33
sI2
(lp37
sI3
(lp38
sI4
(lp39
ssI3
(dp40
I0
g29
sI1
g34
sI2
g38
sI3
(lp41
sI4
(lp42
ssI4
(dp43
I0
g30
sI1
g35
sI2
g39
sI3
g42
sI4
(lp44
ssa(dp45
I0
(dp46
I0
(lp47
sI1
(lp48
sI2
(lp49
Vhttp://purl.org/voc/vrank#hasRank
p50
asI3
(lp51
Vhttp://www.w3.org/2002/07/owl#sameAs
p52
asI4
(lp53
ssI1
(dp54
I0
g48
sI1
(lp55
sI2
(lp56
sI3
(lp57
sI4
(lp58
ssI2
(dp59
I0
g49
sI1
g56
sI2
(lp60
sI3
(lp61
sI4
(lp62
ssI3
(dp63
I0
g51
sI1
g57
sI2
g61
sI3
(lp64
sI4
(lp65
ssI4
(dp66
I0
g53
sI1
g58
sI2
g62
sI3
g65
sI4
(lp67
ssa(dp68
I0
(dp69
I0
(lp70
sI1
(lp71
sI2
(lp72
Vhttp://purl.org/voc/vrank#hasRank
p73
asI3
(lp74
sI4
(lp75
ssI1
(dp76
I0
g71
sI1
(lp77
sI2
(lp78
sI3
(lp79
sI4
(lp80
ssI2
(dp81
I0
g72
sI1
g78
sI2
(lp82
sI3
(lp83
sI4
(lp84
ssI3
(dp85
I0
g74
sI1
g79
sI2
g83
sI3
(lp86
sI4
(lp87
ssI4
(dp88
I0
g75
sI1
g80
sI2
g84
sI3
g87
sI4
(lp89
ssa(dp90
I0
(dp91
I0
(lp92
sI1
(lp93
sI2
(lp94
Vhttp://purl.org/voc/vrank#hasRank
p95
asI3
(lp96
Vhttp://purl.org/voc/vrank#hasRank
p97
aVhttp://www.w3.org/2002/07/owl#sameAs
p98
asI4
(lp99
ssI1
(dp100
I0
g93
sI1
(lp101
sI2
(lp102
sI3
(lp103
sI4
(lp104
ssI2
(dp105
I0
g94
sI1
g102
sI2
(lp106
sI3
(lp107
sI4
(lp108
ssI3
(dp109
I0
g96
sI1
g103
sI2
g107
sI3
(lp110
sI4
(lp111
ssI4
(dp112
I0
g99
sI1
g104
sI2
g108
sI3
g111
sI4
(lp113
ssa(dp114
I0
(dp115
I0
(lp116
sI1
(lp117
sI2
(lp118
Vhttp://purl.org/voc/vrank#hasRank
p119
asI3
(lp120
sI4
(lp121
ssI1
(dp122
I0
g117
sI1
(lp123
sI2
(lp124
sI3
(lp125
sI4
(lp126
ssI2
(dp127
I0
g118
sI1
g124
sI2
(lp128
sI3
(lp129
sI4
(lp130
ssI3
(dp131
I0
g120
sI1
g125
sI2
g129
sI3
(lp132
sI4
(lp133
ssI4
(dp134
I0
g121
sI1
g126
sI2
g130
sI3
g133
sI4
(lp135
ssa.