(lp1
(lp2
(lp3
Vhttp://dbpedia.org/resource/HDFC_Bank
p4
aa(lp5
Vhttp://dbpedia.org/resource/India
p6
aa(lp7
a(lp8
a(lp9
a(lp10
Vhttp://dbpedia.org/resource/Bank
p11
aaa(lp12
(lp13
Vhttp://dbpedia.org/resource/Mahindra_Satyam
p14
aa(lp15
Vhttp://dbpedia.org/resource/India
p16
aa(lp17
a(lp18
a(lp19
a(lp20
Vhttp://dbpedia.org/resource/Data_processing
p21
aaa(lp22
(lp23
Vhttp://dbpedia.org/resource/Asian_Paints
p24
aa(lp25
Vhttp://dbpedia.org/resource/India
p26
aa(lp27
a(lp28
a(lp29
a(lp30
Vhttp://dbpedia.org/resource/Chemical_substance
p31
aaa(lp32
(lp33
Vhttp://dbpedia.org/resource/Cipla
p34
aa(lp35
Vhttp://dbpedia.org/resource/India
p36
aa(lp37
a(lp38
a(lp39
a(lp40
Vhttp://dbpedia.org/resource/Drug
p41
aaa(lp42
(lp43
Vhttp://dbpedia.org/resource/Great_Eastern_Shipping
p44
aa(lp45
Vhttp://dbpedia.org/resource/India
p46
aa(lp47
a(lp48
a(lp49
a(lp50
Vhttp://dbpedia.org/resource/Maritime_(band)
p51
aaa(lp52
(lp53
Vhttp://dbpedia.org/resource/Ballarpur_Industries_Limited
p54
aa(lp55
Vhttp://dbpedia.org/resource/India
p56
aa(lp57
a(lp58
a(lp59
a(lp60
Vhttp://dbpedia.org/resource/Forest_product
p61
aaa(lp62
(lp63
Vhttp://dbpedia.org/resource/Bharat_Forge
p64
aa(lp65
Vhttp://dbpedia.org/resource/India
p66
aa(lp67
a(lp68
a(lp69
a(lp70
Vhttp://dbpedia.org/resource/Metal_fabrication
p71
aaa(lp72
(lp73
a(lp74
Vhttp://dbpedia.org/resource/India
p75
aa(lp76
a(lp77
a(lp78
a(lp79
Vhttp://dbpedia.org/resource/Personal_care
p80
aaa(lp81
(lp82
a(lp83
Vhttp://dbpedia.org/resource/India
p84
aa(lp85
a(lp86
a(lp87
a(lp88
Vhttp://dbpedia.org/resource/Building_material
p89
aaa(lp90
(lp91
a(lp92
Vhttp://dbpedia.org/resource/India
p93
aa(lp94
a(lp95
a(lp96
a(lp97
Vhttp://dbpedia.org/resource/Drug
p98
aaa(lp99
(lp100
Vhttp://dbpedia.org/resource/Zee_Entertainment_Enterprises
p101
aa(lp102
Vhttp://dbpedia.org/resource/India
p103
aa(lp104
a(lp105
a(lp106
a(lp107
Vhttp://dbpedia.org/resource/Broadcasting
p108
aaa(lp109
(lp110
Vhttp://dbpedia.org/resource/Thermax
p111
aa(lp112
Vhttp://dbpedia.org/resource/India
p113
aa(lp114
a(lp115
a(lp116
a(lp117
aa(lp118
(lp119
Vhttp://dbpedia.org/resource/Sun_Pharmaceutical
p120
aa(lp121
Vhttp://dbpedia.org/resource/India
p122
aa(lp123
a(lp124
a(lp125
a(lp126
Vhttp://dbpedia.org/resource/Drug
p127
aaa(lp128
(lp129
a(lp130
Vhttp://dbpedia.org/resource/India
p131
aa(lp132
a(lp133
a(lp134
a(lp135
Vhttp://dbpedia.org/resource/Wood_processing
p136
aaa(lp137
(lp138
a(lp139
Vhttp://dbpedia.org/resource/India
p140
aa(lp141
a(lp142
a(lp143
a(lp144
Vhttp://dbpedia.org/resource/Construction
p145
aaa(lp146
(lp147
Vhttp://dbpedia.org/resource/Essel_Propack
p148
aa(lp149
Vhttp://dbpedia.org/resource/India
p150
aa(lp151
a(lp152
a(lp153
a(lp154
Vhttp://dbpedia.org/resource/Packaging_and_labeling
p155
aaa(lp156
(lp157
Vhttp://dbpedia.org/resource/Sarnoff_Corporation
p158
aa(lp159
Vhttp://dbpedia.org/resource/India
p160
aa(lp161
a(lp162
a(lp163
a(lp164
Vhttp://dbpedia.org/resource/Drug
p165
aaa(lp166
(lp167
a(lp168
Vhttp://dbpedia.org/resource/India
p169
aa(lp170
a(lp171
a(lp172
a(lp173
Vhttp://dbpedia.org/resource/Chemical_substance
p174
aaa(lp175
(lp176
a(lp177
Vhttp://dbpedia.org/resource/India
p178
aa(lp179
a(lp180
a(lp181
a(lp182
Vhttp://dbpedia.org/resource/Software
p183
aaa(lp184
(lp185
a(lp186
Vhttp://dbpedia.org/resource/India
p187
aa(lp188
a(lp189
a(lp190
a(lp191
Vhttp://dbpedia.org/resource/Oil_refinery
p192
aaa.