(lp1
(lp2
a(lp3
a(lp4
a(lp5
a(lp6
a(lp7
a(lp8
a(lp9
a(lp10
a(lp11
a(lp12
a(lp13
a(lp14
a(lp15
(dp16
Vstart
p17
I0
sS'classes'
p18
(lp19
Vhttp://www.w3.org/2002/07/owl#Thing
p20
aVhttp://dbpedia.org/class/yago/Abstraction100002137
p21
aVhttp://dbpedia.org/class/yago/DefiniteQuantity113576101
p22
aVhttp://dbpedia.org/class/yago/UnitOfMeasurement113583724
p23
aVhttp://dbpedia.org/class/yago/Measure100033615
p24
aVhttp://dbpedia.org/class/yago/UnitsOfFlow
p25
aVhttp://dbpedia.org/class/yago/UnitsOfInformation
p26
asVdisambiguatedURL
p27
Vhttp://dbpedia.org/resource/Data_rate_units
p28
sVnamedEntity
p29
Vs
sVoffset
p30
I1
saa(lp31
(dp32
Vstart
p33
I0
sg18
(lp34
Vhttp://www.w3.org/2002/07/owl#Thing
p35
aVhttp://dbpedia.org/class/yago/Abstraction100002137
p36
aVhttp://dbpedia.org/class/yago/DefiniteQuantity113576101
p37
aVhttp://dbpedia.org/class/yago/UnitOfMeasurement113583724
p38
aVhttp://dbpedia.org/class/yago/Measure100033615
p39
aVhttp://dbpedia.org/class/yago/UnitsOfFlow
p40
aVhttp://dbpedia.org/class/yago/UnitsOfInformation
p41
asVdisambiguatedURL
p42
Vhttp://dbpedia.org/resource/Data_rate_units
p43
sVnamedEntity
p44
Vs
sVoffset
p45
I1
saa(lp46
(dp47
Vstart
p48
I0
sg18
(lp49
Vhttp://www.w3.org/2002/07/owl#Thing
p50
aVhttp://dbpedia.org/class/yago/Abstraction100002137
p51
aVhttp://dbpedia.org/class/yago/DefiniteQuantity113576101
p52
aVhttp://dbpedia.org/class/yago/UnitOfMeasurement113583724
p53
aVhttp://dbpedia.org/class/yago/Measure100033615
p54
aVhttp://dbpedia.org/class/yago/UnitsOfFlow
p55
aVhttp://dbpedia.org/class/yago/UnitsOfInformation
p56
asVdisambiguatedURL
p57
Vhttp://dbpedia.org/resource/Data_rate_units
p58
sVnamedEntity
p59
Vs
sVoffset
p60
I1
saa(lp61
(dp62
Vstart
p63
I0
sg18
(lp64
Vhttp://www.w3.org/2002/07/owl#Thing
p65
aVhttp://dbpedia.org/class/yago/Abstraction100002137
p66
aVhttp://dbpedia.org/class/yago/DefiniteQuantity113576101
p67
aVhttp://dbpedia.org/class/yago/UnitOfMeasurement113583724
p68
aVhttp://dbpedia.org/class/yago/Measure100033615
p69
aVhttp://dbpedia.org/class/yago/UnitsOfFlow
p70
aVhttp://dbpedia.org/class/yago/UnitsOfInformation
p71
asVdisambiguatedURL
p72
Vhttp://dbpedia.org/resource/Data_rate_units
p73
sVnamedEntity
p74
Vs
sVoffset
p75
I1
saa(lp76
(dp77
Vstart
p78
I0
sg18
(lp79
Vhttp://www.w3.org/2002/07/owl#Thing
p80
aVhttp://dbpedia.org/class/yago/Abstraction100002137
p81
aVhttp://dbpedia.org/class/yago/DefiniteQuantity113576101
p82
aVhttp://dbpedia.org/class/yago/UnitOfMeasurement113583724
p83
aVhttp://dbpedia.org/class/yago/Measure100033615
p84
aVhttp://dbpedia.org/class/yago/UnitsOfFlow
p85
aVhttp://dbpedia.org/class/yago/UnitsOfInformation
p86
asVdisambiguatedURL
p87
Vhttp://dbpedia.org/resource/Data_rate_units
p88
sVnamedEntity
p89
Vs
sVoffset
p90
I1
saa(lp91
a(lp92
a.