(lp1
(lp2
(dp3
Vstart
p4
I0
sVdisambiguatedURL
p5
NsVnamedEntity
p6
VUp to 1 day
p7
sVoffset
p8
I11
saa(lp9
(dp10
Vstart
p11
I0
sVdisambiguatedURL
p12
NsVnamedEntity
p13
V2 days
p14
sVoffset
p15
I6
saa(lp16
(dp17
Vstart
p18
I0
sVdisambiguatedURL
p19
Vhttp://dbpedia.org/resource/Three_Days
p20
sVnamedEntity
p21
V3 days
p22
sVoffset
p23
I6
saa(lp24
(dp25
Vstart
p26
I0
sVdisambiguatedURL
p27
NsVnamedEntity
p28
VThere after- Per day
p29
sVoffset
p30
I20
saa.