(lp1
(dp2
I0
(dp3
I0
(lp4
sI1
(lp5
Vhttp://dbpedia.org/property/domain
p6
aVhttp://dbpedia.org/ontology/domain
p7
asI2
(lp8
sI3
(lp9
Vhttp://xmlns.com/foaf/0.1/primaryTopic
p10
aVhttp://dbpedia.org/property/genus
p11
aVhttp://www.w3.org/2000/01/rdf-schema#comment
p12
aVhttp://dbpedia.org/ontology/abstract
p13
aVhttp://dbpedia.org/property/binomial
p14
aVhttp://dbpedia.org/property/name
p15
aVhttp://xmlns.com/foaf/0.1/name
p16
aVhttp://dbpedia.org/ontology/genus
p17
aVhttp://xmlns.com/foaf/0.1/isPrimaryTopicOf
p18
aVhttp://www.w3.org/ns/prov#wasDerivedFrom
p19
aVhttp://www.w3.org/2000/01/rdf-schema#label
p20
asI4
(lp21
Vhttp://www.w3.org/ns/prov#wasDerivedFrom
p22
asI5
(lp23
Vhttp://dbpedia.org/property/binomialAuthority
p24
asI6
(lp25
sI7
(lp26
Vhttp://dbpedia.org/property/familia
p27
aVhttp://dbpedia.org/ontology/family
p28
asI8
(lp29
Vhttp://dbpedia.org/property/phylum
p30
aVhttp://dbpedia.org/ontology/phylum
p31
aVhttp://dbpedia.org/ontology/class
p32
aVhttp://dbpedia.org/property/classis
p33
assI1
(dp34
I0
g5
sI1
(lp35
sI2
(lp36
sI3
(lp37
sI4
(lp38
sI5
(lp39
sI6
(lp40
Vhttp://dbpedia.org/property/domain
p41
aVhttp://dbpedia.org/ontology/domain
p42
asI7
(lp43
sI8
(lp44
ssI2
(dp45
I0
g8
sI1
g36
sI2
(lp46
sI3
(lp47
sI4
(lp48
sI5
(lp49
sI6
(lp50
sI7
(lp51
sI8
(lp52
ssI3
(dp53
I0
g9
sI1
g37
sI2
g47
sI3
(lp54
sI4
(lp55
sI5
(lp56
sI6
(lp57
Vhttp://xmlns.com/foaf/0.1/primaryTopic
p58
aVhttp://dbpedia.org/property/genus
p59
aVhttp://www.w3.org/2000/01/rdf-schema#comment
p60
aVhttp://dbpedia.org/ontology/abstract
p61
aVhttp://dbpedia.org/property/binomial
p62
aVhttp://dbpedia.org/property/name
p63
aVhttp://xmlns.com/foaf/0.1/name
p64
aVhttp://dbpedia.org/ontology/genus
p65
aVhttp://xmlns.com/foaf/0.1/isPrimaryTopicOf
p66
aVhttp://www.w3.org/ns/prov#wasDerivedFrom
p67
aVhttp://www.w3.org/2000/01/rdf-schema#label
p68
asI7
(lp69
sI8
(lp70
ssI4
(dp71
I0
g21
sI1
g38
sI2
g48
sI3
g55
sI4
(lp72
sI5
(lp73
sI6
(lp74
Vhttp://www.w3.org/ns/prov#wasDerivedFrom
p75
asI7
(lp76
sI8
(lp77
ssI5
(dp78
I0
g23
sI1
g39
sI2
g49
sI3
g56
sI4
g73
sI5
(lp79
sI6
(lp80
Vhttp://dbpedia.org/property/binomialAuthority
p81
asI7
(lp82
sI8
(lp83
ssI6
(dp84
I1
g40
sI2
g50
sI3
g57
sI4
g74
sI5
g80
sI6
(lp85
sI7
(lp86
Vhttp://dbpedia.org/property/familia
p87
aVhttp://dbpedia.org/ontology/family
p88
asI8
(lp89
Vhttp://dbpedia.org/property/phylum
p90
aVhttp://dbpedia.org/ontology/phylum
p91
aVhttp://dbpedia.org/ontology/class
p92
aVhttp://dbpedia.org/property/classis
p93
assI7
(dp94
I0
g26
sI1
g43
sI2
g51
sI3
g69
sI4
g76
sI5
g82
sI6
g86
sI7
(lp95
sI8
(lp96
ssI8
(dp97
I0
g29
sI1
g44
sI2
g52
sI3
g70
sI4
g77
sI5
g83
sI6
g89
sI7
g96
sI8
(lp98
ssa(dp99
I0
(dp100
I0
(lp101
sI1
(lp102
sI2
(lp103
sI3
(lp104
sI4
(lp105
sI5
(lp106
sI6
(lp107
sI7
(lp108
sI8
(lp109
ssI1
(dp110
I0
g102
sI1
(lp111
sI2
(lp112
sI3
(lp113
sI4
(lp114
sI5
(lp115
sI6
(lp116
sI7
(lp117
sI8
(lp118
ssI2
(dp119
I0
g103
sI1
g112
sI2
(lp120
sI3
(lp121
sI4
(lp122
sI5
(lp123
sI6
(lp124
sI7
(lp125
sI8
(lp126
ssI3
(dp127
I0
g104
sI1
g113
sI2
g121
sI3
(lp128
sI4
(lp129
sI5
(lp130
sI6
(lp131
sI7
(lp132
sI8
(lp133
ssI4
(dp134
I0
g105
sI1
g114
sI2
g122
sI3
g129
sI4
(lp135
sI5
(lp136
sI6
(lp137
sI7
(lp138
sI8
(lp139
ssI5
(dp140
I0
g106
sI1
g115
sI2
g123
sI3
g130
sI4
g136
sI5
(lp141
sI6
(lp142
sI7
(lp143
sI8
(lp144
ssI6
(dp145
I1
g116
sI2
g124
sI3
g131
sI4
g137
sI5
g142
sI6
(lp146
sI7
(lp147
sI8
(lp148
ssI7
(dp149
I0
g108
sI1
g117
sI2
g125
sI3
g132
sI4
g138
sI5
g143
sI6
g147
sI7
(lp150
sI8
(lp151
ssI8
(dp152
I0
g109
sI1
g118
sI2
g126
sI3
g133
sI4
g139
sI5
g144
sI6
g148
sI7
g151
sI8
(lp153
ssa(dp154
I0
(dp155
I0
(lp156
sI1
(lp157
sI2
(lp158
sI3
(lp159
sI4
(lp160
sI5
(lp161
sI6
(lp162
sI7
(lp163
sI8
(lp164
ssI1
(dp165
I0
g157
sI1
(lp166
sI2
(lp167
sI3
(lp168
sI4
(lp169
sI5
(lp170
sI6
(lp171
sI7
(lp172
sI8
(lp173
ssI2
(dp174
I0
g158
sI1
g167
sI2
(lp175
sI3
(lp176
sI4
(lp177
sI5
(lp178
sI6
(lp179
sI7
(lp180
sI8
(lp181
ssI3
(dp182
I0
g159
sI2
g176
sI3
(lp183
sI4
(lp184
sI5
(lp185
sI6
(lp186
sI7
(lp187
sI8
(lp188
ssI4
(dp189
I0
g160
sI1
g169
sI2
g177
sI3
g184
sI4
(lp190
sI5
(lp191
sI6
(lp192
sI7
(lp193
sI8
(lp194
ssI5
(dp195
I0
g161
sI1
g170
sI2
g178
sI3
g185
sI4
g191
sI5
(lp196
sI6
(lp197
sI7
(lp198
sI8
(lp199
ssI6
(dp200
I1
g171
sI2
g179
sI3
g186
sI4
g192
sI5
g197
sI6
(lp201
sI7
(lp202
sI8
(lp203
ssI7
(dp204
I0
g163
sI2
g180
sI4
g193
sI5
g198
sI6
g202
sI7
(lp205
sI8
(lp206
ssI8
(dp207
I0
g164
sI1
g173
sI2
g181
sI3
g188
sI4
g194
sI5
g199
sI6
g203
sI7
g206
sI8
(lp208
ssa(dp209
I0
(dp210
I0
(lp211
sI1
(lp212
sI2
(lp213
sI3
(lp214
sI4
(lp215
sI5
(lp216
sI6
(lp217
sI7
(lp218
sI8
(lp219
ssI1
(dp220
I0
g212
sI1
(lp221
sI2
(lp222
sI3
(lp223
sI4
(lp224
sI5
(lp225
sI6
(lp226
sI7
(lp227
sI8
(lp228
ssI2
(dp229
I0
g213
sI1
g222
sI2
(lp230
sI3
(lp231
sI4
(lp232
sI5
(lp233
sI6
(lp234
sI7
(lp235
sI8
(lp236
ssI3
(dp237
I0
g214
sI2
g231
sI3
(lp238
sI4
(lp239
sI5
(lp240
sI6
(lp241
sI7
(lp242
sI8
(lp243
ssI4
(dp244
I0
g215
sI1
g224
sI2
g232
sI3
g239
sI4
(lp245
sI5
(lp246
sI6
(lp247
sI7
(lp248
sI8
(lp249
ssI5
(dp250
I0
g216
sI2
g233
sI4
g246
sI5
(lp251
sI6
(lp252
sI7
(lp253
sI8
(lp254
ssI6
(dp255
I0
g217
sI2
g234
sI4
g247
sI6
(lp256
sI7
(lp257
sI8
(lp258
ssI7
(dp259
I0
g218
sI8
(lp260
sI2
g235
sI4
g248
sI7
(lp261
ssI8
(dp262
I0
g219
sI8
(lp263
sI2
g236
sI4
g249
ssa(dp264
I0
(dp265
I0
(lp266
sI1
(lp267
sI2
(lp268
sI3
(lp269
sI4
(lp270
sI5
(lp271
sI6
(lp272
sI7
(lp273
sI8
(lp274
ssI1
(dp275
I0
g267
sI1
(lp276
sI2
(lp277
sI3
(lp278
sI4
(lp279
sI5
(lp280
sI6
(lp281
sI7
(lp282
sI8
(lp283
ssI2
(dp284
I0
g268
sI1
g277
sI2
(lp285
sI3
(lp286
sI4
(lp287
sI5
(lp288
sI6
(lp289
sI7
(lp290
sI8
(lp291
ssI3
(dp292
I0
g269
sI2
g286
sI3
(lp293
sI4
(lp294
sI5
(lp295
sI6
(lp296
sI7
(lp297
sI8
(lp298
ssI4
(dp299
I0
g270
sI1
g279
sI2
g287
sI3
g294
sI4
(lp300
sI5
(lp301
sI6
(lp302
sI7
(lp303
sI8
(lp304
ssI5
(dp305
I0
g271
sI2
g288
sI4
g301
sI5
(lp306
sI6
(lp307
sI7
(lp308
sI8
(lp309
ssI6
(dp310
I0
g272
sI2
g289
sI4
g302
sI6
(lp311
sI7
(lp312
sI8
(lp313
ssI7
(dp314
I0
g273
sI8
(lp315
sI2
g290
sI4
g303
sI7
(lp316
ssI8
(dp317
I0
g274
sI8
(lp318
sI2
g291
sI4
g304
ssa(dp319
I0
(dp320
I0
(lp321
sI1
(lp322
sI2
(lp323
sI3
(lp324
sI4
(lp325
sI5
(lp326
sI6
(lp327
sI7
(lp328
sI8
(lp329
ssI1
(dp330
I0
g322
sI1
(lp331
sI2
(lp332
sI3
(lp333
sI4
(lp334
sI5
(lp335
sI6
(lp336
sI7
(lp337
sI8
(lp338
ssI2
(dp339
I0
g323
sI2
(lp340
sI3
(lp341
sI4
(lp342
sI5
(lp343
sI6
(lp344
sI7
(lp345
sI8
(lp346
ssI3
(dp347
I0
g324
sI3
(lp348
sI4
(lp349
sI5
(lp350
sI6
(lp351
sI7
(lp352
sI8
(lp353
ssI4
(dp354
I0
g325
sI4
(lp355
sI5
(lp356
sI6
(lp357
sI7
(lp358
sI8
(lp359
ssI5
(dp360
I0
g326
sI8
(lp361
sI5
(lp362
sI6
(lp363
sI7
(lp364
ssI6
(dp365
I0
g327
sI8
(lp366
sI6
(lp367
sI7
(lp368
ssI7
(dp369
I0
g328
sI8
(lp370
sI7
(lp371
ssI8
(dp372
I0
g329
sI8
(lp373
ssa(dp374
I0
(dp375
I0
(lp376
sI1
(lp377
sI2
(lp378
sI3
(lp379
sI4
(lp380
sI5
(lp381
sI6
(lp382
sI7
(lp383
sI8
(lp384
ssI1
(dp385
I0
g377
sI1
(lp386
sI2
(lp387
sI3
(lp388
sI4
(lp389
sI5
(lp390
sI6
(lp391
sI7
(lp392
sI8
(lp393
ssI2
(dp394
I0
g378
sI1
g387
sI2
(lp395
sI3
(lp396
sI4
(lp397
sI5
(lp398
sI6
(lp399
sI7
(lp400
sI8
(lp401
ssI3
(dp402
I0
g379
sI2
g396
sI3
(lp403
sI4
(lp404
sI5
(lp405
sI6
(lp406
sI7
(lp407
sI8
(lp408
ssI4
(dp409
I0
g380
sI2
g397
sI4
(lp410
sI5
(lp411
sI6
(lp412
sI7
(lp413
sI8
(lp414
ssI5
(dp415
I0
g381
sI2
g398
sI5
(lp416
sI6
(lp417
sI7
(lp418
sI8
(lp419
ssI6
(dp420
I0
g382
sI8
(lp421
sI2
g399
sI6
(lp422
sI7
(lp423
ssI7
(dp424
I0
g383
sI8
(lp425
sI2
g400
sI7
(lp426
ssI8
(dp427
I0
g384
sI8
(lp428
sI2
g401
ssa(dp429
I0
(dp430
I0
(lp431
sI1
(lp432
sI2
(lp433
sI3
(lp434
sI4
(lp435
sI5
(lp436
sI6
(lp437
sI7
(lp438
sI8
(lp439
ssI1
(dp440
I0
g432
sI1
(lp441
sI2
(lp442
sI3
(lp443
sI4
(lp444
sI5
(lp445
sI6
(lp446
sI7
(lp447
sI8
(lp448
ssI2
(dp449
I0
g433
sI1
g442
sI2
(lp450
sI3
(lp451
sI4
(lp452
sI5
(lp453
sI6
(lp454
sI7
(lp455
sI8
(lp456
ssI3
(dp457
I0
g434
sI2
g451
sI3
(lp458
sI4
(lp459
sI5
(lp460
sI6
(lp461
sI7
(lp462
sI8
(lp463
ssI4
(dp464
I0
g435
sI1
g444
sI2
g452
sI3
g459
sI4
(lp465
sI5
(lp466
sI6
(lp467
sI7
(lp468
sI8
(lp469
ssI5
(dp470
I0
g436
sI2
g453
sI4
g466
sI5
(lp471
sI6
(lp472
sI7
(lp473
sI8
(lp474
ssI6
(dp475
I0
g437
sI2
g454
sI4
g467
sI6
(lp476
sI7
(lp477
sI8
(lp478
ssI7
(dp479
I0
g438
sI8
(lp480
sI2
g455
sI4
g468
sI7
(lp481
ssI8
(dp482
I0
g439
sI8
(lp483
sI2
g456
sI4
g469
ssa(dp484
I0
(dp485
I0
(lp486
sI1
(lp487
sI2
(lp488
sI3
(lp489
sI4
(lp490
sI5
(lp491
sI6
(lp492
sI7
(lp493
sI8
(lp494
ssI1
(dp495
I0
g487
sI1
(lp496
sI2
(lp497
sI3
(lp498
sI4
(lp499
sI5
(lp500
sI6
(lp501
sI7
(lp502
sI8
(lp503
ssI2
(dp504
I0
g488
sI1
g497
sI2
(lp505
sI3
(lp506
sI4
(lp507
sI5
(lp508
sI6
(lp509
sI7
(lp510
sI8
(lp511
ssI3
(dp512
I0
g489
sI2
g506
sI3
(lp513
sI4
(lp514
sI5
(lp515
sI6
(lp516
sI7
(lp517
sI8
(lp518
ssI4
(dp519
I0
g490
sI1
g499
sI2
g507
sI3
g514
sI4
(lp520
sI5
(lp521
sI6
(lp522
sI7
(lp523
sI8
(lp524
ssI5
(dp525
I0
g491
sI1
g500
sI2
g508
sI3
g515
sI4
g521
sI5
(lp526
sI6
(lp527
sI7
(lp528
sI8
(lp529
ssI6
(dp530
I1
g501
sI2
g509
sI3
g516
sI4
g522
sI5
g527
sI6
(lp531
sI7
(lp532
sI8
(lp533
ssI7
(dp534
I0
g493
sI2
g510
sI4
g523
sI5
g528
sI6
g532
sI7
(lp535
sI8
(lp536
ssI8
(dp537
I0
g494
sI2
g511
sI4
g524
sI5
g529
sI6
g533
sI8
(lp538
ssa(dp539
I0
(dp540
I0
(lp541
sI1
(lp542
sI2
(lp543
sI3
(lp544
sI4
(lp545
sI5
(lp546
sI6
(lp547
sI7
(lp548
sI8
(lp549
ssI1
(dp550
I0
g542
sI1
(lp551
sI2
(lp552
sI3
(lp553
sI4
(lp554
sI5
(lp555
sI6
(lp556
sI7
(lp557
sI8
(lp558
ssI2
(dp559
I0
g543
sI1
g552
sI2
(lp560
sI3
(lp561
sI4
(lp562
sI5
(lp563
sI6
(lp564
sI7
(lp565
sI8
(lp566
ssI3
(dp567
I0
g544
sI2
g561
sI3
(lp568
sI4
(lp569
sI5
(lp570
sI6
(lp571
sI7
(lp572
sI8
(lp573
ssI4
(dp574
I0
g545
sI1
g554
sI2
g562
sI3
g569
sI4
(lp575
sI5
(lp576
sI6
(lp577
sI7
(lp578
sI8
(lp579
ssI5
(dp580
I0
g546
sI2
g563
sI4
g576
sI5
(lp581
sI6
(lp582
sI7
(lp583
sI8
(lp584
ssI6
(dp585
I0
g547
sI2
g564
sI4
g577
sI6
(lp586
sI7
(lp587
sI8
(lp588
ssI7
(dp589
I0
g548
sI8
(lp590
sI2
g565
sI4
g578
sI7
(lp591
ssI8
(dp592
I0
g549
sI8
(lp593
sI2
g566
sI4
g579
ssa(dp594
I0
(dp595
I0
(lp596
sI1
(lp597
sI2
(lp598
sI3
(lp599
sI4
(lp600
sI5
(lp601
sI6
(lp602
sI7
(lp603
sI8
(lp604
ssI1
(dp605
I0
g597
sI1
(lp606
sI2
(lp607
sI3
(lp608
sI4
(lp609
sI5
(lp610
sI6
(lp611
sI7
(lp612
sI8
(lp613
ssI2
(dp614
I0
g598
sI1
g607
sI2
(lp615
sI3
(lp616
sI4
(lp617
sI5
(lp618
sI6
(lp619
sI7
(lp620
sI8
(lp621
ssI3
(dp622
I0
g599
sI1
g608
sI2
g616
sI3
(lp623
sI4
(lp624
sI5
(lp625
sI6
(lp626
sI7
(lp627
sI8
(lp628
ssI4
(dp629
I0
g600
sI1
g609
sI2
g617
sI3
g624
sI4
(lp630
sI5
(lp631
sI6
(lp632
sI7
(lp633
sI8
(lp634
ssI5
(dp635
I0
g601
sI1
g610
sI2
g618
sI3
g625
sI4
g631
sI5
(lp636
sI6
(lp637
sI7
(lp638
sI8
(lp639
ssI6
(dp640
I1
g611
sI2
g619
sI3
g626
sI4
g632
sI5
g637
sI6
(lp641
sI7
(lp642
sI8
(lp643
ssI7
(dp644
I0
g603
sI1
g612
sI2
g620
sI4
g633
sI5
g638
sI6
g642
sI7
(lp645
sI8
(lp646
ssI8
(dp647
I0
g604
sI1
g613
sI2
g621
sI3
g628
sI4
g634
sI5
g639
sI6
g643
sI7
g646
sI8
(lp648
ssa(dp649
I0
(dp650
I0
(lp651
sI1
(lp652
sI2
(lp653
sI3
(lp654
sI4
(lp655
sI5
(lp656
sI6
(lp657
sI7
(lp658
sI8
(lp659
ssI1
(dp660
I0
g652
sI1
(lp661
sI2
(lp662
sI3
(lp663
sI4
(lp664
sI5
(lp665
sI6
(lp666
sI7
(lp667
sI8
(lp668
ssI2
(dp669
I0
g653
sI1
g662
sI2
(lp670
sI3
(lp671
sI4
(lp672
sI5
(lp673
sI6
(lp674
sI7
(lp675
sI8
(lp676
ssI3
(dp677
I0
g654
sI1
g663
sI2
g671
sI3
(lp678
sI4
(lp679
sI5
(lp680
sI6
(lp681
sI7
(lp682
sI8
(lp683
ssI4
(dp684
I0
g655
sI1
g664
sI2
g672
sI3
g679
sI4
(lp685
sI5
(lp686
sI6
(lp687
sI7
(lp688
sI8
(lp689
ssI5
(dp690
I0
g656
sI1
g665
sI2
g673
sI3
g680
sI4
g686
sI5
(lp691
sI6
(lp692
sI7
(lp693
sI8
(lp694
ssI6
(dp695
I1
g666
sI2
g674
sI3
g681
sI4
g687
sI5
g692
sI6
(lp696
sI7
(lp697
sI8
(lp698
ssI7
(dp699
I0
g658
sI1
g667
sI2
g675
sI3
g682
sI4
g688
sI5
g693
sI6
g697
sI7
(lp700
sI8
(lp701
ssI8
(dp702
I0
g659
sI1
g668
sI2
g676
sI3
g683
sI4
g689
sI5
g694
sI6
g698
sI7
g701
sI8
(lp703
ssa(dp704
I0
(dp705
I0
(lp706
sI1
(lp707
sI2
(lp708
sI3
(lp709
sI4
(lp710
sI5
(lp711
sI6
(lp712
sI7
(lp713
sI8
(lp714
ssI1
(dp715
I0
g707
sI1
(lp716
sI2
(lp717
sI3
(lp718
sI4
(lp719
sI5
(lp720
sI6
(lp721
sI7
(lp722
sI8
(lp723
ssI2
(dp724
I0
g708
sI1
g717
sI2
(lp725
sI3
(lp726
sI4
(lp727
sI5
(lp728
sI6
(lp729
sI7
(lp730
sI8
(lp731
ssI3
(dp732
I0
g709
sI1
g718
sI2
g726
sI3
(lp733
sI4
(lp734
sI5
(lp735
sI6
(lp736
sI7
(lp737
sI8
(lp738
ssI4
(dp739
I0
g710
sI1
g719
sI2
g727
sI3
g734
sI4
(lp740
sI5
(lp741
sI6
(lp742
sI7
(lp743
sI8
(lp744
ssI5
(dp745
I0
g711
sI1
g720
sI2
g728
sI3
g735
sI4
g741
sI5
(lp746
sI6
(lp747
sI7
(lp748
sI8
(lp749
ssI6
(dp750
I1
g721
sI2
g729
sI3
g736
sI4
g742
sI5
g747
sI6
(lp751
sI7
(lp752
sI8
(lp753
ssI7
(dp754
I0
g713
sI1
g722
sI2
g730
sI3
g737
sI4
g743
sI5
g748
sI6
g752
sI7
(lp755
sI8
(lp756
ssI8
(dp757
I0
g714
sI1
g723
sI2
g731
sI3
g738
sI4
g744
sI5
g749
sI6
g753
sI7
g756
sI8
(lp758
ssa(dp759
I0
(dp760
I0
(lp761
sI1
(lp762
sI2
(lp763
sI3
(lp764
sI4
(lp765
sI5
(lp766
sI6
(lp767
sI7
(lp768
sI8
(lp769
ssI1
(dp770
I0
g762
sI1
(lp771
sI2
(lp772
sI3
(lp773
sI4
(lp774
sI5
(lp775
sI6
(lp776
sI7
(lp777
sI8
(lp778
ssI2
(dp779
I0
g763
sI2
(lp780
sI3
(lp781
sI4
(lp782
sI5
(lp783
sI6
(lp784
sI7
(lp785
sI8
(lp786
ssI3
(dp787
I0
g764
sI3
(lp788
sI4
(lp789
sI5
(lp790
sI6
(lp791
sI7
(lp792
sI8
(lp793
ssI4
(dp794
I0
g765
sI4
(lp795
sI5
(lp796
sI6
(lp797
sI7
(lp798
sI8
(lp799
ssI5
(dp800
I0
g766
sI8
(lp801
sI5
(lp802
sI6
(lp803
sI7
(lp804
ssI6
(dp805
I0
g767
sI8
(lp806
sI6
(lp807
sI7
(lp808
ssI7
(dp809
I0
g768
sI8
(lp810
sI7
(lp811
ssI8
(dp812
I0
g769
sI8
(lp813
ssa(dp814
I0
(dp815
I0
(lp816
sI1
(lp817
sI2
(lp818
sI3
(lp819
sI4
(lp820
sI5
(lp821
sI6
(lp822
sI7
(lp823
sI8
(lp824
ssI1
(dp825
I0
g817
sI1
(lp826
sI2
(lp827
sI3
(lp828
sI4
(lp829
sI5
(lp830
sI6
(lp831
sI7
(lp832
sI8
(lp833
ssI2
(dp834
I0
g818
sI1
g827
sI2
(lp835
sI3
(lp836
sI4
(lp837
sI5
(lp838
sI6
(lp839
sI7
(lp840
sI8
(lp841
ssI3
(dp842
I0
g819
sI1
g828
sI2
g836
sI3
(lp843
sI4
(lp844
sI5
(lp845
sI6
(lp846
sI7
(lp847
sI8
(lp848
ssI4
(dp849
I0
g820
sI1
g829
sI2
g837
sI3
g844
sI4
(lp850
sI5
(lp851
sI6
(lp852
sI7
(lp853
sI8
(lp854
ssI5
(dp855
I0
g821
sI1
g830
sI2
g838
sI4
g851
sI5
(lp856
sI6
(lp857
sI7
(lp858
sI8
(lp859
ssI6
(dp860
I0
g822
sI1
g831
sI2
g839
sI4
g852
sI6
(lp861
sI7
(lp862
sI8
(lp863
ssI7
(dp864
I1
g832
sI2
g840
sI3
g847
sI4
g853
sI5
g858
sI6
g862
sI7
(lp865
sI8
(lp866
ssI8
(dp867
I0
g824
sI1
g833
sI2
g841
sI3
g848
sI4
g854
sI5
g859
sI6
g863
sI7
g866
sI8
(lp868
ssa(dp869
I0
(dp870
I0
(lp871
sI1
(lp872
sI2
(lp873
sI3
(lp874
sI4
(lp875
sI5
(lp876
sI6
(lp877
sI7
(lp878
sI8
(lp879
ssI1
(dp880
I0
g872
sI1
(lp881
sI2
(lp882
sI3
(lp883
sI4
(lp884
sI5
(lp885
sI6
(lp886
sI7
(lp887
sI8
(lp888
ssI2
(dp889
I0
g873
sI2
(lp890
sI3
(lp891
sI4
(lp892
sI5
(lp893
sI6
(lp894
sI7
(lp895
sI8
(lp896
ssI3
(dp897
I0
g874
sI3
(lp898
sI4
(lp899
sI5
(lp900
sI6
(lp901
sI7
(lp902
sI8
(lp903
ssI4
(dp904
I0
g875
sI4
(lp905
sI5
(lp906
sI6
(lp907
sI7
(lp908
sI8
(lp909
ssI5
(dp910
I0
g876
sI8
(lp911
sI5
(lp912
sI6
(lp913
sI7
(lp914
ssI6
(dp915
I0
g877
sI8
(lp916
sI6
(lp917
sI7
(lp918
ssI7
(dp919
I0
g878
sI8
(lp920
sI7
(lp921
ssI8
(dp922
I0
g879
sI8
(lp923
ssa(dp924
I0
(dp925
I0
(lp926
sI1
(lp927
sI2
(lp928
sI3
(lp929
sI4
(lp930
sI5
(lp931
sI6
(lp932
sI7
(lp933
sI8
(lp934
ssI1
(dp935
I0
g927
sI1
(lp936
sI2
(lp937
sI3
(lp938
sI4
(lp939
sI5
(lp940
sI6
(lp941
sI7
(lp942
sI8
(lp943
ssI2
(dp944
I0
g928
sI1
g937
sI2
(lp945
sI3
(lp946
sI4
(lp947
sI5
(lp948
sI6
(lp949
sI7
(lp950
sI8
(lp951
ssI3
(dp952
I0
g929
sI1
g938
sI2
g946
sI3
(lp953
sI4
(lp954
sI5
(lp955
sI6
(lp956
sI7
(lp957
sI8
(lp958
ssI4
(dp959
I0
g930
sI1
g939
sI2
g947
sI3
g954
sI4
(lp960
sI5
(lp961
sI6
(lp962
sI7
(lp963
sI8
(lp964
ssI5
(dp965
I0
g931
sI1
g940
sI2
g948
sI3
g955
sI4
g961
sI5
(lp966
sI6
(lp967
sI7
(lp968
sI8
(lp969
ssI6
(dp970
I1
g941
sI2
g949
sI3
g956
sI4
g962
sI5
g967
sI6
(lp971
sI7
(lp972
sI8
(lp973
ssI7
(dp974
I0
g933
sI1
g942
sI2
g950
sI3
g957
sI4
g963
sI5
g968
sI6
g972
sI7
(lp975
sI8
(lp976
ssI8
(dp977
I0
g934
sI1
g943
sI2
g951
sI3
g958
sI4
g964
sI5
g969
sI6
g973
sI7
g976
sI8
(lp978
ssa(dp979
I0
(dp980
I0
(lp981
sI1
(lp982
sI2
(lp983
sI3
(lp984
sI4
(lp985
sI5
(lp986
sI6
(lp987
sI7
(lp988
sI8
(lp989
ssI1
(dp990
I0
g982
sI1
(lp991
sI2
(lp992
sI3
(lp993
sI4
(lp994
sI5
(lp995
sI6
(lp996
sI7
(lp997
sI8
(lp998
ssI2
(dp999
I0
g983
sI1
g992
sI2
(lp1000
sI3
(lp1001
sI4
(lp1002
sI5
(lp1003
sI6
(lp1004
sI7
(lp1005
sI8
(lp1006
ssI3
(dp1007
I0
g984
sI2
g1001
sI3
(lp1008
sI4
(lp1009
sI5
(lp1010
sI6
(lp1011
sI7
(lp1012
sI8
(lp1013
ssI4
(dp1014
I0
g985
sI1
g994
sI2
g1002
sI3
g1009
sI4
(lp1015
sI5
(lp1016
sI6
(lp1017
sI7
(lp1018
sI8
(lp1019
ssI5
(dp1020
I0
g986
sI2
g1003
sI4
g1016
sI5
(lp1021
sI6
(lp1022
sI7
(lp1023
sI8
(lp1024
ssI6
(dp1025
I1
g996
sI2
g1004
sI3
g1011
sI4
g1017
sI5
g1022
sI6
(lp1026
sI7
(lp1027
sI8
(lp1028
ssI7
(dp1029
I0
g988
sI2
g1005
sI4
g1018
sI6
g1027
sI7
(lp1030
sI8
(lp1031
ssI8
(dp1032
I0
g989
sI8
(lp1033
sI2
g1006
sI4
g1019
sI6
g1028
ssa(dp1034
I0
(dp1035
I0
(lp1036
sI1
(lp1037
sI2
(lp1038
sI3
(lp1039
sI4
(lp1040
sI5
(lp1041
sI6
(lp1042
sI7
(lp1043
sI8
(lp1044
ssI1
(dp1045
I0
g1037
sI1
(lp1046
sI2
(lp1047
sI3
(lp1048
sI4
(lp1049
sI5
(lp1050
sI6
(lp1051
sI7
(lp1052
sI8
(lp1053
ssI2
(dp1054
I0
g1038
sI1
g1047
sI2
(lp1055
sI3
(lp1056
sI4
(lp1057
sI5
(lp1058
sI6
(lp1059
sI7
(lp1060
sI8
(lp1061
ssI3
(dp1062
I0
g1039
sI2
g1056
sI3
(lp1063
sI4
(lp1064
sI5
(lp1065
sI6
(lp1066
sI7
(lp1067
sI8
(lp1068
ssI4
(dp1069
I0
g1040
sI1
g1049
sI2
g1057
sI3
g1064
sI4
(lp1070
sI5
(lp1071
sI6
(lp1072
sI7
(lp1073
sI8
(lp1074
ssI5
(dp1075
I0
g1041
sI2
g1058
sI4
g1071
sI5
(lp1076
sI6
(lp1077
sI7
(lp1078
sI8
(lp1079
ssI6
(dp1080
I0
g1042
sI2
g1059
sI4
g1072
sI6
(lp1081
sI7
(lp1082
sI8
(lp1083
ssI7
(dp1084
I0
g1043
sI8
(lp1085
sI2
g1060
sI4
g1073
sI7
(lp1086
ssI8
(dp1087
I0
g1044
sI8
(lp1088
sI2
g1061
sI4
g1074
ssa.