(lp1
(lp2
(lp3
a(lp4
a(lp5
a(lp6
a(lp7
a(lp8
a(lp9
aa(lp10
(lp11
a(lp12
a(lp13
a(lp14
a(lp15
a(lp16
a(lp17
aa(lp18
(lp19
((lVhttp://dbpedia.org/resource/Three_Days
p20
tp21
aa(lp22
a(lp23
a(lp24
a(lp25
a(lp26
a(lp27
aa(lp28
(lp29
a(lp30
a(lp31
a(lp32
a(lp33
a(lp34
a(lp35
aa.