(lp1
(lp2
(lp3
a(lp4
a(lp5
a(lp6
aa(lp7
(lp8
a(lp9
a(lp10
a(lp11
aa(lp12
(lp13
a(lp14
a(lp15
((lp16
Vhttp://dbpedia.org/class/yago/Artifact100021939
p17
aVhttp://dbpedia.org/class/yago/Object100002684
p18
aVhttp://dbpedia.org/class/yago/System104377057
p19
aVhttp://dbpedia.org/class/yago/Whole100003553
p20
aVhttp://dbpedia.org/class/yago/Instrumentality103575240
p21
aVhttp://dbpedia.org/class/yago/PhysicalEntity100001930
p22
aVhttp://dbpedia.org/class/yago/PaymentSystems
p23
aVhttp://dbpedia.org/resource/Wire_transfer
tp24
aa(lp25
aa(lp26
(lp27
a(lp28
a(lp29
((lp30
Vhttp://dbpedia.org/class/yago/Artifact100021939
p31
aVhttp://dbpedia.org/class/yago/Object100002684
p32
aVhttp://dbpedia.org/class/yago/System104377057
p33
aVhttp://dbpedia.org/class/yago/Whole100003553
p34
aVhttp://dbpedia.org/class/yago/Instrumentality103575240
p35
aVhttp://dbpedia.org/class/yago/PhysicalEntity100001930
p36
aVhttp://dbpedia.org/class/yago/PaymentSystems
p37
aVhttp://dbpedia.org/resource/Wire_transfer
tp38
aa(lp39
aa(lp40
(lp41
a(lp42
a(lp43
((lp44
Vhttp://dbpedia.org/class/yago/Artifact100021939
p45
aVhttp://dbpedia.org/class/yago/Object100002684
p46
aVhttp://dbpedia.org/class/yago/System104377057
p47
aVhttp://dbpedia.org/class/yago/Whole100003553
p48
aVhttp://dbpedia.org/class/yago/Instrumentality103575240
p49
aVhttp://dbpedia.org/class/yago/PhysicalEntity100001930
p50
aVhttp://dbpedia.org/class/yago/PaymentSystems
p51
aVhttp://dbpedia.org/resource/Wire_transfer
tp52
aa(lp53
aa(lp54
(lp55
a(lp56
a(lp57
a(lp58
aa(lp59
(lp60
a(lp61
a(lp62
((lp63
Vhttp://dbpedia.org/class/yago/Artifact100021939
p64
aVhttp://dbpedia.org/class/yago/Object100002684
p65
aVhttp://dbpedia.org/class/yago/System104377057
p66
aVhttp://dbpedia.org/class/yago/Whole100003553
p67
aVhttp://dbpedia.org/class/yago/Instrumentality103575240
p68
aVhttp://dbpedia.org/class/yago/PhysicalEntity100001930
p69
aVhttp://dbpedia.org/class/yago/PaymentSystems
p70
aVhttp://dbpedia.org/resource/Wire_transfer
tp71
aa(lp72
aa(lp73
(lp74
a(lp75
a(lp76
a(lp77
aa(lp78
(lp79
((lVhttp://dbpedia.org/resource/Null
tp80
aa(lp81
((lVhttp://dbpedia.org/resource/Null
tp82
aa(lp83
((lVhttp://dbpedia.org/resource/Null
tp84
aa(lp85
((lVhttp://dbpedia.org/resource/Null
p86
tp87
aaa.