ccollections
defaultdict
p1
(c__builtin__
dict
p2
tRp3
I2
(dp4
I0
(lp5
sI1
(lp6
sI3
(lp7
ssI3
(dp8
I0
(lp9
sI1
(lp10
sI3
(lp11
ssI4
(dp12
I0
(lp13
sI1
(lp14
sI3
(lp15
ssI6
(dp16
I0
(lp17
sI1
(lp18
sI3
(lp19
ss.