(lp1
(lp2
(lp3
a(lp4
a(lp5
a(lp6
a(lp7
a(lp8
aa(lp9
(lp10
a(lp11
a(lp12
a(lp13
a(lp14
a(lp15
aa(lp16
(lp17
((lVhttp://dbpedia.org/resource/Null
tp18
aa(lp19
a(lp20
a(lp21
a(lp22
a(lp23
aa(lp24
(lp25
((lVhttp://dbpedia.org/resource/Null
tp26
aa(lp27
a(lp28
a(lp29
a(lp30
a(lp31
aa(lp32
(lp33
a(lp34
a(lp35
a(lp36
a(lp37
a(lp38
aa(lp39
(lp40
a(lp41
a(lp42
a(lp43
a(lp44
a(lp45
aa(lp46
(lp47
((lVhttp://dbpedia.org/resource/Null
tp48
aa(lp49
a(lp50
a(lp51
a(lp52
a(lp53
aa(lp54
(lp55
((lVhttp://dbpedia.org/resource/Null
p56
tp57
aa(lp58
a(lp59
a(lp60
a(lp61
a(lp62
aa.