(lp1
(lp2
(lp3
((lp4
Vhttp://dbpedia.org/class/yago/AsianGamesMedalistsInBadminton
p5
aVhttp://dbpedia.org/class/yago/BadmintonPlayersAtThe2008SummerOlympics
p6
aVhttp://dbpedia.org/class/yago/CausalAgent100007347
p7
aVhttp://dbpedia.org/class/yago/Contestant109613191
p8
aVhttp://dbpedia.org/class/yago/LivingThing100004258
p9
aVhttp://dbpedia.org/class/yago/Medalist110305062
p10
aVhttp://dbpedia.org/class/yago/Object100002684
p11
aVhttp://dbpedia.org/class/yago/Organism100004475
p12
aVhttp://dbpedia.org/class/yago/Person100007846
p13
aVhttp://dbpedia.org/class/yago/Player110439851
p14
aVhttp://dbpedia.org/class/yago/Whole100003553
p15
aVhttp://dbpedia.org/class/yago/YagoLegalActorGeo
p16
aVhttp://www.w3.org/2002/07/owl#Thing
p17
aVhttp://xmlns.com/foaf/0.1/Person
p18
aVhttp://dbpedia.org/ontology/Person
p19
aVhttp://www.ontologydesignpatterns.org/ont/dul/DUL.owl#Agent
p20
aVhttp://www.ontologydesignpatterns.org/ont/dul/DUL.owl#NaturalPerson
p21
aVhttp://www.wikidata.org/entity/Q215627
p22
aVhttp://www.wikidata.org/entity/Q5
p23
aVhttp://dbpedia.org/ontology/Agent
p24
aVhttp://dbpedia.org/ontology/Athlete
p25
aVhttp://dbpedia.org/ontology/BadmintonPlayer
p26
aVhttp://schema.org/Person
p27
aVhttp://umbel.org/umbel/rc/Athlete
p28
aVhttp://dbpedia.org/class/yago/OlympicBadmintonPlayersOfIndonesia
p29
aVhttp://dbpedia.org/class/yago/YagoLegalActor
p30
aVhttp://dbpedia.org/class/yago/IndonesianBadmintonPlayers
p31
aVhttp://dbpedia.org/class/yago/LivingPeople
p32
aVhttp://dbpedia.org/class/yago/PhysicalEntity100001930
p33
aVhttp://dbpedia.org/class/yago/Winner110782940
p34
aVhttp://dbpedia.org/resource/Luluk_Hadiyanto
tp35
aa(lp36
((lp37
Vhttp://dbpedia.org/class/yago/BadmintonPlayersAtThe2004SummerOlympics
p38
aVhttp://dbpedia.org/class/yago/CausalAgent100007347
p39
aVhttp://dbpedia.org/class/yago/Contestant109613191
p40
aVhttp://dbpedia.org/class/yago/LivingThing100004258
p41
aVhttp://dbpedia.org/class/yago/Object100002684
p42
aVhttp://dbpedia.org/class/yago/Organism100004475
p43
aVhttp://dbpedia.org/class/yago/Person100007846
p44
aVhttp://dbpedia.org/class/yago/Player110439851
p45
aVhttp://dbpedia.org/class/yago/Whole100003553
p46
aVhttp://dbpedia.org/class/yago/YagoLegalActorGeo
p47
aVhttp://dbpedia.org/class/yago/RussianBadmintonPlayers
p48
aVhttp://dbpedia.org/class/yago/SwedishBadmintonPlayers
p49
aVhttp://www.w3.org/2002/07/owl#Thing
p50
aVhttp://xmlns.com/foaf/0.1/Person
p51
aVhttp://dbpedia.org/ontology/Person
p52
aVhttp://www.ontologydesignpatterns.org/ont/dul/DUL.owl#Agent
p53
aVhttp://www.ontologydesignpatterns.org/ont/dul/DUL.owl#NaturalPerson
p54
aVhttp://www.wikidata.org/entity/Q215627
p55
aVhttp://www.wikidata.org/entity/Q5
p56
aVhttp://dbpedia.org/ontology/Agent
p57
aVhttp://dbpedia.org/ontology/Athlete
p58
aVhttp://dbpedia.org/ontology/BadmintonPlayer
p59
aVhttp://schema.org/Person
p60
aVhttp://umbel.org/umbel/rc/Athlete
p61
aVhttp://dbpedia.org/class/yago/YagoLegalActor
p62
aVhttp://dbpedia.org/class/yago/LivingPeople
p63
aVhttp://dbpedia.org/class/yago/PhysicalEntity100001930
p64
aVhttp://dbpedia.org/resource/Marina_Andrievskaya
tp65
aa(lp66
((lp67
Vhttp://dbpedia.org/class/yago/BadmintonPlayersAtThe2004SummerOlympics
p68
aVhttp://dbpedia.org/class/yago/BadmintonPlayersAtThe2008SummerOlympics
p69
aVhttp://dbpedia.org/class/yago/CausalAgent100007347
p70
aVhttp://dbpedia.org/class/yago/Contestant109613191
p71
aVhttp://dbpedia.org/class/yago/LivingThing100004258
p72
aVhttp://dbpedia.org/class/yago/Object100002684
p73
aVhttp://dbpedia.org/class/yago/Organism100004475
p74
aVhttp://dbpedia.org/class/yago/Person100007846
p75
aVhttp://dbpedia.org/class/yago/Player110439851
p76
aVhttp://dbpedia.org/class/yago/Whole100003553
p77
aVhttp://dbpedia.org/class/yago/YagoLegalActorGeo
p78
aVhttp://www.w3.org/2002/07/owl#Thing
p79
aVhttp://xmlns.com/foaf/0.1/Person
p80
aVhttp://dbpedia.org/ontology/Person
p81
aVhttp://www.ontologydesignpatterns.org/ont/dul/DUL.owl#Agent
p82
aVhttp://www.ontologydesignpatterns.org/ont/dul/DUL.owl#NaturalPerson
p83
aVhttp://www.wikidata.org/entity/Q215627
p84
aVhttp://www.wikidata.org/entity/Q5
p85
aVhttp://dbpedia.org/ontology/Agent
p86
aVhttp://dbpedia.org/ontology/Athlete
p87
aVhttp://dbpedia.org/ontology/BadmintonPlayer
p88
aVhttp://schema.org/Person
p89
aVhttp://umbel.org/umbel/rc/Athlete
p90
aVhttp://dbpedia.org/class/yago/DanishBadmintonPlayers
p91
aVhttp://dbpedia.org/class/yago/OlympicBadmintonPlayersOfDenmark
p92
aVhttp://dbpedia.org/class/yago/PeopleFromKolding
p93
aVhttp://dbpedia.org/class/yago/YagoLegalActor
p94
aVhttp://dbpedia.org/class/yago/LivingPeople
p95
aVhttp://dbpedia.org/class/yago/PhysicalEntity100001930
p96
aVhttp://dbpedia.org/resource/Martin_Lundgaard_Hansen
tp97
aa(lp98
((lp99
Vhttp://dbpedia.org/class/yago/BadmintonPlayersAtThe1996SummerOlympics
p100
aVhttp://dbpedia.org/class/yago/BadmintonPlayersAtThe2000SummerOlympics
p101
aVhttp://dbpedia.org/class/yago/BadmintonPlayersAtThe2004SummerOlympics
p102
aVhttp://dbpedia.org/class/yago/CausalAgent100007347
p103
aVhttp://dbpedia.org/class/yago/Contestant109613191
p104
aVhttp://dbpedia.org/class/yago/LivingThing100004258
p105
aVhttp://dbpedia.org/class/yago/Medalist110305062
p106
aVhttp://dbpedia.org/class/yago/Object100002684
p107
aVhttp://dbpedia.org/class/yago/Organism100004475
p108
aVhttp://dbpedia.org/class/yago/Person100007846
p109
aVhttp://dbpedia.org/class/yago/Player110439851
p110
aVhttp://dbpedia.org/class/yago/Whole100003553
p111
aVhttp://dbpedia.org/class/yago/YagoLegalActorGeo
p112
aVhttp://www.w3.org/2002/07/owl#Thing
p113
aVhttp://xmlns.com/foaf/0.1/Person
p114
aVhttp://dbpedia.org/ontology/Person
p115
aVhttp://www.ontologydesignpatterns.org/ont/dul/DUL.owl#Agent
p116
aVhttp://www.ontologydesignpatterns.org/ont/dul/DUL.owl#NaturalPerson
p117
aVhttp://www.wikidata.org/entity/Q215627
p118
aVhttp://www.wikidata.org/entity/Q5
p119
aVhttp://dbpedia.org/ontology/Agent
p120
aVhttp://dbpedia.org/ontology/Athlete
p121
aVhttp://dbpedia.org/ontology/BadmintonPlayer
p122
aVhttp://schema.org/Person
p123
aVhttp://umbel.org/umbel/rc/Athlete
p124
aVhttp://dbpedia.org/class/yago/DutchBadmintonPlayers
p125
aVhttp://dbpedia.org/class/yago/OlympicBadmintonPlayersOfIndonesia
p126
aVhttp://dbpedia.org/class/yago/OlympicBadmintonPlayersOfTheNetherlands
p127
aVhttp://dbpedia.org/class/yago/OlympicMedalistsInBadminton
p128
aVhttp://dbpedia.org/class/yago/OlympicSilverMedalistsForIndonesia
p129
aVhttp://dbpedia.org/class/yago/OlympicSilverMedalistsForTheNetherlands
p130
aVhttp://dbpedia.org/class/yago/YagoLegalActor
p131
aVhttp://dbpedia.org/class/yago/IndoPeople
p132
aVhttp://dbpedia.org/class/yago/IndonesianBadmintonPlayers
p133
aVhttp://dbpedia.org/class/yago/IndonesianPeopleOfChineseDescent
p134
aVhttp://dbpedia.org/class/yago/LivingPeople
p135
aVhttp://dbpedia.org/class/yago/PhysicalEntity100001930
p136
aVhttp://dbpedia.org/class/yago/Winner110782940
p137
aVhttp://dbpedia.org/resource/Mia_Audina
tp138
aa(lp139
((lp140
Vhttp://dbpedia.org/class/yago/BadmintonPlayersAtThe2000SummerOlympics
p141
aVhttp://dbpedia.org/class/yago/BadmintonPlayersAtThe2004SummerOlympics
p142
aVhttp://dbpedia.org/class/yago/BadmintonPlayersAtThe2008SummerOlympics
p143
aVhttp://dbpedia.org/class/yago/CausalAgent100007347
p144
aVhttp://dbpedia.org/class/yago/Contestant109613191
p145
aVhttp://dbpedia.org/class/yago/LivingThing100004258
p146
aVhttp://dbpedia.org/class/yago/Object100002684
p147
aVhttp://dbpedia.org/class/yago/Organism100004475
p148
aVhttp://dbpedia.org/class/yago/Person100007846
p149
aVhttp://dbpedia.org/class/yago/Player110439851
p150
aVhttp://dbpedia.org/class/yago/Whole100003553
p151
aVhttp://dbpedia.org/class/yago/YagoLegalActorGeo
p152
aVhttp://www.w3.org/2002/07/owl#Thing
p153
aVhttp://xmlns.com/foaf/0.1/Person
p154
aVhttp://dbpedia.org/ontology/Person
p155
aVhttp://www.ontologydesignpatterns.org/ont/dul/DUL.owl#Agent
p156
aVhttp://www.ontologydesignpatterns.org/ont/dul/DUL.owl#NaturalPerson
p157
aVhttp://www.wikidata.org/entity/Q215627
p158
aVhttp://www.wikidata.org/entity/Q5
p159
aVhttp://dbpedia.org/ontology/Agent
p160
aVhttp://dbpedia.org/ontology/Athlete
p161
aVhttp://dbpedia.org/ontology/BadmintonPlayer
p162
aVhttp://schema.org/Person
p163
aVhttp://umbel.org/umbel/rc/Athlete
p164
aVhttp://dbpedia.org/class/yago/OlympicBadmintonPlayersOfPoland
p165
aVhttp://dbpedia.org/class/yago/PeopleFromP%C5%82ock
p166
aVhttp://dbpedia.org/class/yago/PolishBadmintonPlayers
p167
aVhttp://dbpedia.org/class/yago/YagoLegalActor
p168
aVhttp://dbpedia.org/class/yago/LivingPeople
p169
aVhttp://dbpedia.org/class/yago/PhysicalEntity100001930
p170
aVhttp://dbpedia.org/resource/Micha\u0142_\u0141ogosz
tp171
aa(lp172
((lp173
Vhttp://dbpedia.org/class/yago/BadmintonPlayersAtThe2004SummerOlympics
p174
aVhttp://dbpedia.org/class/yago/CausalAgent100007347
p175
aVhttp://dbpedia.org/class/yago/Contestant109613191
p176
aVhttp://dbpedia.org/class/yago/LivingThing100004258
p177
aVhttp://dbpedia.org/class/yago/Object100002684
p178
aVhttp://dbpedia.org/class/yago/Organism100004475
p179
aVhttp://dbpedia.org/class/yago/Person100007846
p180
aVhttp://dbpedia.org/class/yago/Player110439851
p181
aVhttp://dbpedia.org/class/yago/Whole100003553
p182
aVhttp://dbpedia.org/class/yago/YagoLegalActorGeo
p183
aVhttp://www.w3.org/2002/07/owl#Thing
p184
aVhttp://xmlns.com/foaf/0.1/Person
p185
aVhttp://dbpedia.org/ontology/Person
p186
aVhttp://www.ontologydesignpatterns.org/ont/dul/DUL.owl#Agent
p187
aVhttp://www.ontologydesignpatterns.org/ont/dul/DUL.owl#NaturalPerson
p188
aVhttp://www.wikidata.org/entity/Q215627
p189
aVhttp://www.wikidata.org/entity/Q5
p190
aVhttp://dbpedia.org/ontology/Agent
p191
aVhttp://dbpedia.org/ontology/Athlete
p192
aVhttp://dbpedia.org/ontology/BadmintonPlayer
p193
aVhttp://schema.org/Person
p194
aVhttp://umbel.org/umbel/rc/Athlete
p195
aVhttp://dbpedia.org/class/yago/OlympicBadmintonPlayersOfIndia
p196
aVhttp://dbpedia.org/class/yago/PeopleFromPune
p197
aVhttp://dbpedia.org/class/yago/YagoLegalActor
p198
aVhttp://dbpedia.org/class/yago/IndianBadmintonPlayers
p199
aVhttp://dbpedia.org/class/yago/LivingPeople
p200
aVhttp://dbpedia.org/class/yago/PhysicalEntity100001930
p201
aVhttp://dbpedia.org/resource/Nikhil_Kanetkar
tp202
aa(lp203
((lp204
Vhttp://dbpedia.org/class/yago/AsianGamesMedalistsInBadminton
p205
aVhttp://dbpedia.org/class/yago/BadmintonPlayersAtThe2004SummerOlympics
p206
aVhttp://dbpedia.org/class/yago/BadmintonPlayersAtThe2008SummerOlympics
p207
aVhttp://dbpedia.org/class/yago/CausalAgent100007347
p208
aVhttp://dbpedia.org/class/yago/Contestant109613191
p209
aVhttp://dbpedia.org/class/yago/LivingThing100004258
p210
aVhttp://dbpedia.org/class/yago/Medalist110305062
p211
aVhttp://dbpedia.org/class/yago/Object100002684
p212
aVhttp://dbpedia.org/class/yago/Organism100004475
p213
aVhttp://dbpedia.org/class/yago/Person100007846
p214
aVhttp://dbpedia.org/class/yago/Player110439851
p215
aVhttp://dbpedia.org/class/yago/Whole100003553
p216
aVhttp://dbpedia.org/class/yago/YagoLegalActorGeo
p217
aVhttp://www.w3.org/2002/07/owl#Thing
p218
aVhttp://xmlns.com/foaf/0.1/Person
p219
aVhttp://dbpedia.org/ontology/Person
p220
aVhttp://www.ontologydesignpatterns.org/ont/dul/DUL.owl#Agent
p221
aVhttp://www.ontologydesignpatterns.org/ont/dul/DUL.owl#NaturalPerson
p222
aVhttp://www.wikidata.org/entity/Q215627
p223
aVhttp://www.wikidata.org/entity/Q5
p224
aVhttp://dbpedia.org/ontology/Agent
p225
aVhttp://dbpedia.org/ontology/Athlete
p226
aVhttp://dbpedia.org/ontology/BadmintonPlayer
p227
aVhttp://schema.org/Person
p228
aVhttp://umbel.org/umbel/rc/Athlete
p229
aVhttp://dbpedia.org/class/yago/OlympicBadmintonPlayersOfIndonesia
p230
aVhttp://dbpedia.org/class/yago/OlympicMedalistsInBadminton
p231
aVhttp://dbpedia.org/class/yago/OlympicSilverMedalistsForIndonesia
p232
aVhttp://dbpedia.org/class/yago/YagoLegalActor
p233
aVhttp://dbpedia.org/class/yago/IndonesianBadmintonPlayers
p234
aVhttp://dbpedia.org/class/yago/LivingPeople
p235
aVhttp://dbpedia.org/class/yago/PhysicalEntity100001930
p236
aVhttp://dbpedia.org/class/yago/Winner110782940
p237
aVhttp://dbpedia.org/resource/Nova_Widianto
tp238
aa(lp239
((lp240
Vhttp://dbpedia.org/class/yago/BadmintonPlayersAtThe2000SummerOlympics
p241
aVhttp://dbpedia.org/class/yago/BadmintonPlayersAtThe2004SummerOlympics
p242
aVhttp://dbpedia.org/class/yago/CausalAgent100007347
p243
aVhttp://dbpedia.org/class/yago/Contestant109613191
p244
aVhttp://dbpedia.org/class/yago/LivingThing100004258
p245
aVhttp://dbpedia.org/class/yago/Object100002684
p246
aVhttp://dbpedia.org/class/yago/Organism100004475
p247
aVhttp://dbpedia.org/class/yago/Person100007846
p248
aVhttp://dbpedia.org/class/yago/Player110439851
p249
aVhttp://dbpedia.org/class/yago/Whole100003553
p250
aVhttp://dbpedia.org/class/yago/YagoLegalActorGeo
p251
aVhttp://www.w3.org/2002/07/owl#Thing
p252
aVhttp://xmlns.com/foaf/0.1/Person
p253
aVhttp://dbpedia.org/ontology/Person
p254
aVhttp://www.ontologydesignpatterns.org/ont/dul/DUL.owl#Agent
p255
aVhttp://www.ontologydesignpatterns.org/ont/dul/DUL.owl#NaturalPerson
p256
aVhttp://www.wikidata.org/entity/Q215627
p257
aVhttp://www.wikidata.org/entity/Q5
p258
aVhttp://dbpedia.org/ontology/Agent
p259
aVhttp://dbpedia.org/ontology/Athlete
p260
aVhttp://dbpedia.org/ontology/BadmintonPlayer
p261
aVhttp://schema.org/Person
p262
aVhttp://umbel.org/umbel/rc/Athlete
p263
aVhttp://dbpedia.org/class/yago/DanishBadmintonPlayers
p264
aVhttp://dbpedia.org/class/yago/OlympicBadmintonPlayersOfDenmark
p265
aVhttp://dbpedia.org/class/yago/YagoLegalActor
p266
aVhttp://dbpedia.org/class/yago/LivingPeople
p267
aVhttp://dbpedia.org/class/yago/PhysicalEntity100001930
p268
aVhttp://dbpedia.org/resource/Rikke_Olsen
tp269
aa(lp270
((lp271
Vhttp://dbpedia.org/class/yago/BadmintonPlayersAtThe2000SummerOlympics
p272
aVhttp://dbpedia.org/class/yago/BadmintonPlayersAtThe2004SummerOlympics
p273
aVhttp://dbpedia.org/class/yago/BadmintonPlayersAtThe2008SummerOlympics
p274
aVhttp://dbpedia.org/class/yago/CausalAgent100007347
p275
aVhttp://dbpedia.org/class/yago/Contestant109613191
p276
aVhttp://dbpedia.org/class/yago/LivingThing100004258
p277
aVhttp://dbpedia.org/class/yago/Object100002684
p278
aVhttp://dbpedia.org/class/yago/Organism100004475
p279
aVhttp://dbpedia.org/class/yago/Person100007846
p280
aVhttp://dbpedia.org/class/yago/Player110439851
p281
aVhttp://dbpedia.org/class/yago/Whole100003553
p282
aVhttp://dbpedia.org/class/yago/YagoLegalActorGeo
p283
aVhttp://www.w3.org/2002/07/owl#Thing
p284
aVhttp://xmlns.com/foaf/0.1/Person
p285
aVhttp://dbpedia.org/ontology/Person
p286
aVhttp://www.ontologydesignpatterns.org/ont/dul/DUL.owl#Agent
p287
aVhttp://www.ontologydesignpatterns.org/ont/dul/DUL.owl#NaturalPerson
p288
aVhttp://www.wikidata.org/entity/Q215627
p289
aVhttp://www.wikidata.org/entity/Q5
p290
aVhttp://dbpedia.org/ontology/Agent
p291
aVhttp://dbpedia.org/ontology/Athlete
p292
aVhttp://dbpedia.org/ontology/BadmintonPlayer
p293
aVhttp://schema.org/Person
p294
aVhttp://umbel.org/umbel/rc/Athlete
p295
aVhttp://dbpedia.org/class/yago/OlympicBadmintonPlayersOfPoland
p296
aVhttp://dbpedia.org/class/yago/PeopleFromWo%C5%82omin
p297
aVhttp://dbpedia.org/class/yago/PolishBadmintonPlayers
p298
aVhttp://dbpedia.org/class/yago/YagoLegalActor
p299
aVhttp://dbpedia.org/class/yago/LivingPeople
p300
aVhttp://dbpedia.org/class/yago/PhysicalEntity100001930
p301
aVhttp://dbpedia.org/resource/Robert_Mateusiak
tp302
aa(lp303
((lp304
Vhttp://dbpedia.org/class/yago/BadmintonPlayersAtThe2004SummerOlympics
p305
aVhttp://dbpedia.org/class/yago/CausalAgent100007347
p306
aVhttp://dbpedia.org/class/yago/Contestant109613191
p307
aVhttp://dbpedia.org/class/yago/LivingThing100004258
p308
aVhttp://dbpedia.org/class/yago/Object100002684
p309
aVhttp://dbpedia.org/class/yago/Organism100004475
p310
aVhttp://dbpedia.org/class/yago/Person100007846
p311
aVhttp://dbpedia.org/class/yago/Player110439851
p312
aVhttp://dbpedia.org/class/yago/Whole100003553
p313
aVhttp://dbpedia.org/class/yago/YagoLegalActorGeo
p314
aVhttp://www.w3.org/2002/07/owl#Thing
p315
aVhttp://xmlns.com/foaf/0.1/Person
p316
aVhttp://dbpedia.org/ontology/Person
p317
aVhttp://www.ontologydesignpatterns.org/ont/dul/DUL.owl#Agent
p318
aVhttp://www.ontologydesignpatterns.org/ont/dul/DUL.owl#NaturalPerson
p319
aVhttp://www.wikidata.org/entity/Q215627
p320
aVhttp://www.wikidata.org/entity/Q5
p321
aVhttp://dbpedia.org/ontology/Agent
p322
aVhttp://dbpedia.org/ontology/Athlete
p323
aVhttp://dbpedia.org/ontology/BadmintonPlayer
p324
aVhttp://schema.org/Person
p325
aVhttp://umbel.org/umbel/rc/Athlete
p326
aVhttp://dbpedia.org/class/yago/PeopleFromKotaBharu
p327
aVhttp://dbpedia.org/class/yago/YagoLegalActor
p328
aVhttp://dbpedia.org/class/yago/LivingPeople
p329
aVhttp://dbpedia.org/class/yago/MalaysianBadmintonPlayers
p330
aVhttp://dbpedia.org/class/yago/MalaysianMalayPeople
p331
aVhttp://dbpedia.org/class/yago/PhysicalEntity100001930
p332
aVhttp://dbpedia.org/resource/Roslin_Hashim
tp333
aa(lp334
((lp335
Vhttp://dbpedia.org/class/yago/AsianGamesMedalistsInBadminton
p336
aVhttp://dbpedia.org/class/yago/BadmintonPlayersAtThe2004SummerOlympics
p337
aVhttp://dbpedia.org/class/yago/BadmintonPlayersAtThe2008SummerOlympics
p338
aVhttp://dbpedia.org/class/yago/CausalAgent100007347
p339
aVhttp://dbpedia.org/class/yago/Contestant109613191
p340
aVhttp://dbpedia.org/class/yago/LivingThing100004258
p341
aVhttp://dbpedia.org/class/yago/Medalist110305062
p342
aVhttp://dbpedia.org/class/yago/Object100002684
p343
aVhttp://dbpedia.org/class/yago/Organism100004475
p344
aVhttp://dbpedia.org/class/yago/Person100007846
p345
aVhttp://dbpedia.org/class/yago/Player110439851
p346
aVhttp://dbpedia.org/class/yago/Whole100003553
p347
aVhttp://dbpedia.org/class/yago/YagoLegalActorGeo
p348
aVhttp://www.w3.org/2002/07/owl#Thing
p349
aVhttp://xmlns.com/foaf/0.1/Person
p350
aVhttp://dbpedia.org/ontology/Person
p351
aVhttp://www.ontologydesignpatterns.org/ont/dul/DUL.owl#Agent
p352
aVhttp://www.ontologydesignpatterns.org/ont/dul/DUL.owl#NaturalPerson
p353
aVhttp://www.wikidata.org/entity/Q215627
p354
aVhttp://www.wikidata.org/entity/Q5
p355
aVhttp://dbpedia.org/ontology/Agent
p356
aVhttp://dbpedia.org/ontology/Athlete
p357
aVhttp://dbpedia.org/ontology/BadmintonPlayer
p358
aVhttp://schema.org/Person
p359
aVhttp://umbel.org/umbel/rc/Athlete
p360
aVhttp://dbpedia.org/class/yago/OlympicBadmintonPlayersOfIndonesia
p361
aVhttp://dbpedia.org/class/yago/OlympicBronzeMedalistsForIndonesia
p362
aVhttp://dbpedia.org/class/yago/OlympicMedalistsInBadminton
p363
aVhttp://dbpedia.org/class/yago/PeopleFromSurabaya
p364
aVhttp://dbpedia.org/class/yago/YagoLegalActor
p365
aVhttp://dbpedia.org/class/yago/IndonesianBadmintonPlayers
p366
aVhttp://dbpedia.org/class/yago/LivingPeople
p367
aVhttp://dbpedia.org/class/yago/PhysicalEntity100001930
p368
aVhttp://dbpedia.org/class/yago/Winner110782940
p369
aVhttp://dbpedia.org/resource/Sony_Dwi_Kuncoro
tp370
aa(lp371
((lp372
Vhttp://dbpedia.org/class/yago/AsianGamesMedalistsInBadminton
p373
aVhttp://dbpedia.org/class/yago/BadmintonPlayersAtThe2004SummerOlympics
p374
aVhttp://dbpedia.org/class/yago/BadmintonPlayersAtThe2008SummerOlympics
p375
aVhttp://dbpedia.org/class/yago/CausalAgent100007347
p376
aVhttp://dbpedia.org/class/yago/Contestant109613191
p377
aVhttp://dbpedia.org/class/yago/LivingThing100004258
p378
aVhttp://dbpedia.org/class/yago/Medalist110305062
p379
aVhttp://dbpedia.org/class/yago/Object100002684
p380
aVhttp://dbpedia.org/class/yago/Organism100004475
p381
aVhttp://dbpedia.org/class/yago/Person100007846
p382
aVhttp://dbpedia.org/class/yago/Player110439851
p383
aVhttp://dbpedia.org/class/yago/Whole100003553
p384
aVhttp://dbpedia.org/class/yago/YagoLegalActorGeo
p385
aVhttp://www.w3.org/2002/07/owl#Thing
p386
aVhttp://xmlns.com/foaf/0.1/Person
p387
aVhttp://dbpedia.org/ontology/Person
p388
aVhttp://www.ontologydesignpatterns.org/ont/dul/DUL.owl#Agent
p389
aVhttp://www.ontologydesignpatterns.org/ont/dul/DUL.owl#NaturalPerson
p390
aVhttp://www.wikidata.org/entity/Q215627
p391
aVhttp://www.wikidata.org/entity/Q5
p392
aVhttp://dbpedia.org/ontology/Agent
p393
aVhttp://dbpedia.org/ontology/Athlete
p394
aVhttp://dbpedia.org/ontology/BadmintonPlayer
p395
aVhttp://schema.org/Person
p396
aVhttp://umbel.org/umbel/rc/Athlete
p397
aVhttp://dbpedia.org/class/yago/OlympicBadmintonPlayersOfThailand
p398
aVhttp://dbpedia.org/class/yago/YagoLegalActor
p399
aVhttp://dbpedia.org/class/yago/LivingPeople
p400
aVhttp://dbpedia.org/class/yago/PhysicalEntity100001930
p401
aVhttp://dbpedia.org/class/yago/Winner110782940
p402
aVhttp://dbpedia.org/class/yago/ThaiBadmintonPlayers
p403
aVhttp://dbpedia.org/resource/Sudket_Prapakamol
tp404
aa(lp405
((lp406
Vhttp://dbpedia.org/class/yago/AsianGamesMedalistsInBadminton
p407
aVhttp://dbpedia.org/class/yago/BadmintonPlayersAtThe2000SummerOlympics
p408
aVhttp://dbpedia.org/class/yago/BadmintonPlayersAtThe2004SummerOlympics
p409
aVhttp://dbpedia.org/class/yago/BadmintonPlayersAtThe2008SummerOlympics
p410
aVhttp://dbpedia.org/class/yago/CausalAgent100007347
p411
aVhttp://dbpedia.org/class/yago/Contestant109613191
p412
aVhttp://dbpedia.org/class/yago/LivingThing100004258
p413
aVhttp://dbpedia.org/class/yago/Medalist110305062
p414
aVhttp://dbpedia.org/class/yago/Object100002684
p415
aVhttp://dbpedia.org/class/yago/Organism100004475
p416
aVhttp://dbpedia.org/class/yago/Person100007846
p417
aVhttp://dbpedia.org/class/yago/Player110439851
p418
aVhttp://dbpedia.org/class/yago/Whole100003553
p419
aVhttp://dbpedia.org/class/yago/YagoLegalActorGeo
p420
aVhttp://dbpedia.org/class/yago/SundanesePeople
p421
aVhttp://www.w3.org/2002/07/owl#Thing
p422
aVhttp://xmlns.com/foaf/0.1/Person
p423
aVhttp://dbpedia.org/ontology/Person
p424
aVhttp://www.ontologydesignpatterns.org/ont/dul/DUL.owl#Agent
p425
aVhttp://www.ontologydesignpatterns.org/ont/dul/DUL.owl#NaturalPerson
p426
aVhttp://www.wikidata.org/entity/Q215627
p427
aVhttp://www.wikidata.org/entity/Q5
p428
aVhttp://dbpedia.org/ontology/Agent
p429
aVhttp://dbpedia.org/ontology/Athlete
p430
aVhttp://dbpedia.org/ontology/BadmintonPlayer
p431
aVhttp://schema.org/Person
p432
aVhttp://umbel.org/umbel/rc/Athlete
p433
aVhttp://dbpedia.org/class/yago/OlympicBadmintonPlayersOfIndonesia
p434
aVhttp://dbpedia.org/class/yago/OlympicGoldMedalistsForIndonesia
p435
aVhttp://dbpedia.org/class/yago/OlympicMedalistsInBadminton
p436
aVhttp://dbpedia.org/class/yago/PeopleFromBandung
p437
aVhttp://dbpedia.org/class/yago/YagoLegalActor
p438
aVhttp://dbpedia.org/class/yago/IndonesianBadmintonPlayers
p439
aVhttp://dbpedia.org/class/yago/LivingPeople
p440
aVhttp://dbpedia.org/class/yago/PhysicalEntity100001930
p441
aVhttp://dbpedia.org/class/yago/Winner110782940
p442
aVhttp://dbpedia.org/resource/Taufik_Hidayat
tp443
aa(lp444
((lp445
Vhttp://dbpedia.org/class/yago/BadmintonPlayersAtThe2004SummerOlympics
p446
aVhttp://dbpedia.org/class/yago/BadmintonPlayersAtThe2006CommonwealthGames
p447
aVhttp://dbpedia.org/class/yago/BadmintonPlayersAtThe2008SummerOlympics
p448
aVhttp://dbpedia.org/class/yago/CausalAgent100007347
p449
aVhttp://dbpedia.org/class/yago/Contestant109613191
p450
aVhttp://dbpedia.org/class/yago/LivingThing100004258
p451
aVhttp://dbpedia.org/class/yago/Object100002684
p452
aVhttp://dbpedia.org/class/yago/Organism100004475
p453
aVhttp://dbpedia.org/class/yago/Person100007846
p454
aVhttp://dbpedia.org/class/yago/Player110439851
p455
aVhttp://dbpedia.org/class/yago/Rival110533013
p456
aVhttp://dbpedia.org/class/yago/Whole100003553
p457
aVhttp://dbpedia.org/class/yago/YagoLegalActorGeo
p458
aVhttp://www.w3.org/2002/07/owl#Thing
p459
aVhttp://xmlns.com/foaf/0.1/Person
p460
aVhttp://dbpedia.org/ontology/Person
p461
aVhttp://www.ontologydesignpatterns.org/ont/dul/DUL.owl#Agent
p462
aVhttp://www.ontologydesignpatterns.org/ont/dul/DUL.owl#NaturalPerson
p463
aVhttp://www.wikidata.org/entity/Q215627
p464
aVhttp://www.wikidata.org/entity/Q5
p465
aVhttp://dbpedia.org/ontology/Agent
p466
aVhttp://dbpedia.org/ontology/Athlete
p467
aVhttp://dbpedia.org/ontology/BadmintonPlayer
p468
aVhttp://schema.org/Person
p469
aVhttp://umbel.org/umbel/rc/Athlete
p470
aVhttp://dbpedia.org/class/yago/CommonwealthGamesBadmintonPlayers
p471
aVhttp://dbpedia.org/class/yago/CommonwealthGamesCompetitorsForEngland
p472
aVhttp://dbpedia.org/class/yago/EnglishBadmintonPlayers
p473
aVhttp://dbpedia.org/class/yago/OlympicBadmintonPlayersOfGreatBritain
p474
aVhttp://dbpedia.org/class/yago/YagoLegalActor
p475
aVhttp://dbpedia.org/class/yago/LivingPeople
p476
aVhttp://dbpedia.org/class/yago/PhysicalEntity100001930
p477
aVhttp://dbpedia.org/resource/Tracey_Hallam
tp478
aa(lp479
((lp480
Vhttp://dbpedia.org/class/yago/AsianGamesMedalistsInBadminton
p481
aVhttp://dbpedia.org/class/yago/BadmintonPlayersAtThe1996SummerOlympics
p482
aVhttp://dbpedia.org/class/yago/BadmintonPlayersAtThe2000SummerOlympics
p483
aVhttp://dbpedia.org/class/yago/BadmintonPlayersAtThe2004SummerOlympics
p484
aVhttp://dbpedia.org/class/yago/CausalAgent100007347
p485
aVhttp://dbpedia.org/class/yago/Contestant109613191
p486
aVhttp://dbpedia.org/class/yago/LivingThing100004258
p487
aVhttp://dbpedia.org/class/yago/Medalist110305062
p488
aVhttp://dbpedia.org/class/yago/Object100002684
p489
aVhttp://dbpedia.org/class/yago/Organism100004475
p490
aVhttp://dbpedia.org/class/yago/Person100007846
p491
aVhttp://dbpedia.org/class/yago/Player110439851
p492
aVhttp://dbpedia.org/class/yago/Whole100003553
p493
aVhttp://dbpedia.org/class/yago/YagoLegalActorGeo
p494
aVhttp://www.w3.org/2002/07/owl#Thing
p495
aVhttp://xmlns.com/foaf/0.1/Person
p496
aVhttp://dbpedia.org/ontology/Person
p497
aVhttp://www.ontologydesignpatterns.org/ont/dul/DUL.owl#Agent
p498
aVhttp://www.ontologydesignpatterns.org/ont/dul/DUL.owl#NaturalPerson
p499
aVhttp://www.wikidata.org/entity/Q215627
p500
aVhttp://www.wikidata.org/entity/Q5
p501
aVhttp://dbpedia.org/ontology/Agent
p502
aVhttp://dbpedia.org/ontology/Athlete
p503
aVhttp://dbpedia.org/ontology/BadmintonPlayer
p504
aVhttp://schema.org/Person
p505
aVhttp://umbel.org/umbel/rc/Athlete
p506
aVhttp://dbpedia.org/class/yago/OlympicBadmintonPlayersOfIndonesia
p507
aVhttp://dbpedia.org/class/yago/OlympicMedalistsInBadminton
p508
aVhttp://dbpedia.org/class/yago/OlympicSilverMedalistsForIndonesia
p509
aVhttp://dbpedia.org/class/yago/YagoLegalActor
p510
aVhttp://dbpedia.org/class/yago/IndonesianBadmintonPlayers
p511
aVhttp://dbpedia.org/class/yago/LivingPeople
p512
aVhttp://dbpedia.org/class/yago/PhysicalEntity100001930
p513
aVhttp://dbpedia.org/class/yago/Winner110782940
p514
aVhttp://dbpedia.org/resource/Tri_Kusharjanto
tp515
aa(lp516
((lp517
Vhttp://dbpedia.org/class/yago/BadmintonPlayersAtThe2004SummerOlympics
p518
aVhttp://dbpedia.org/class/yago/CausalAgent100007347
p519
aVhttp://dbpedia.org/class/yago/Contestant109613191
p520
aVhttp://dbpedia.org/class/yago/LivingThing100004258
p521
aVhttp://dbpedia.org/class/yago/Object100002684
p522
aVhttp://dbpedia.org/class/yago/Organism100004475
p523
aVhttp://dbpedia.org/class/yago/Person100007846
p524
aVhttp://dbpedia.org/class/yago/Player110439851
p525
aVhttp://dbpedia.org/class/yago/Whole100003553
p526
aVhttp://dbpedia.org/class/yago/YagoLegalActorGeo
p527
aVhttp://dbpedia.org/class/yago/TaiwaneseBadmintonPlayers
p528
aVhttp://www.w3.org/2002/07/owl#Thing
p529
aVhttp://xmlns.com/foaf/0.1/Person
p530
aVhttp://dbpedia.org/ontology/Person
p531
aVhttp://www.ontologydesignpatterns.org/ont/dul/DUL.owl#Agent
p532
aVhttp://www.ontologydesignpatterns.org/ont/dul/DUL.owl#NaturalPerson
p533
aVhttp://www.wikidata.org/entity/Q215627
p534
aVhttp://www.wikidata.org/entity/Q5
p535
aVhttp://dbpedia.org/ontology/Agent
p536
aVhttp://dbpedia.org/ontology/Athlete
p537
aVhttp://dbpedia.org/ontology/BadmintonPlayer
p538
aVhttp://schema.org/Person
p539
aVhttp://dbpedia.org/class/yago/OlympicBadmintonPlayersOfTaiwan
p540
aVhttp://dbpedia.org/class/yago/YagoLegalActor
p541
aVhttp://dbpedia.org/class/yago/LivingPeople
p542
aVhttp://dbpedia.org/class/yago/PhysicalEntity100001930
p543
aVhttp://dbpedia.org/resource/Tsai_Chia-hsin
tp544
aa(lp545
((lp546
Vhttp://dbpedia.org/class/yago/AsianGamesMedalistsInBadminton
p547
aVhttp://dbpedia.org/class/yago/BadmintonPlayersAtThe2004SummerOlympics
p548
aVhttp://dbpedia.org/class/yago/BadmintonPlayersAtThe2008SummerOlympics
p549
aVhttp://dbpedia.org/class/yago/CausalAgent100007347
p550
aVhttp://dbpedia.org/class/yago/Contestant109613191
p551
aVhttp://dbpedia.org/class/yago/LivingThing100004258
p552
aVhttp://dbpedia.org/class/yago/Medalist110305062
p553
aVhttp://dbpedia.org/class/yago/Object100002684
p554
aVhttp://dbpedia.org/class/yago/Organism100004475
p555
aVhttp://dbpedia.org/class/yago/Person100007846
p556
aVhttp://dbpedia.org/class/yago/Player110439851
p557
aVhttp://dbpedia.org/class/yago/Whole100003553
p558
aVhttp://dbpedia.org/class/yago/YagoLegalActorGeo
p559
aVhttp://www.w3.org/2002/07/owl#Thing
p560
aVhttp://xmlns.com/foaf/0.1/Person
p561
aVhttp://dbpedia.org/ontology/Person
p562
aVhttp://www.ontologydesignpatterns.org/ont/dul/DUL.owl#Agent
p563
aVhttp://www.ontologydesignpatterns.org/ont/dul/DUL.owl#NaturalPerson
p564
aVhttp://www.wikidata.org/entity/Q215627
p565
aVhttp://www.wikidata.org/entity/Q5
p566
aVhttp://dbpedia.org/ontology/Agent
p567
aVhttp://dbpedia.org/ontology/Athlete
p568
aVhttp://dbpedia.org/ontology/BadmintonPlayer
p569
aVhttp://schema.org/Person
p570
aVhttp://umbel.org/umbel/rc/Athlete
p571
aVhttp://dbpedia.org/class/yago/OlympicBadmintonPlayersOfMalaysia
p572
aVhttp://dbpedia.org/class/yago/YagoLegalActor
p573
aVhttp://dbpedia.org/class/yago/LivingPeople
p574
aVhttp://dbpedia.org/class/yago/MalaysianBadmintonPlayers
p575
aVhttp://dbpedia.org/class/yago/MalaysianChinesePeople
p576
aVhttp://dbpedia.org/class/yago/PhysicalEntity100001930
p577
aVhttp://dbpedia.org/class/yago/Winner110782940
p578
aVhttp://dbpedia.org/resource/Wong_Pei_Tty
tp579
aa(lp580
((lp581
Vhttp://www.w3.org/2002/07/owl#Thing
p582
aVhttp://xmlns.com/foaf/0.1/Person
p583
aVhttp://dbpedia.org/ontology/Person
p584
aVhttp://www.ontologydesignpatterns.org/ont/dul/DUL.owl#Agent
p585
aVhttp://www.ontologydesignpatterns.org/ont/dul/DUL.owl#NaturalPerson
p586
aVhttp://www.wikidata.org/entity/Q215627
p587
aVhttp://www.wikidata.org/entity/Q5
p588
aVhttp://dbpedia.org/ontology/Agent
p589
aVhttp://dbpedia.org/ontology/Athlete
p590
aVhttp://dbpedia.org/ontology/BadmintonPlayer
p591
aVhttp://schema.org/Person
p592
aVhttp://dbpedia.org/resource/Ade_Yusuf
tp593
aa(lp594
((lp595
Vhttp://www.w3.org/2002/07/owl#Thing
p596
aVhttp://xmlns.com/foaf/0.1/Person
p597
aVhttp://dbpedia.org/ontology/Person
p598
aVhttp://www.ontologydesignpatterns.org/ont/dul/DUL.owl#Agent
p599
aVhttp://www.ontologydesignpatterns.org/ont/dul/DUL.owl#NaturalPerson
p600
aVhttp://www.wikidata.org/entity/Q215627
p601
aVhttp://www.wikidata.org/entity/Q5
p602
aVhttp://dbpedia.org/ontology/Agent
p603
aVhttp://dbpedia.org/ontology/Athlete
p604
aVhttp://dbpedia.org/ontology/BadmintonPlayer
p605
aVhttp://schema.org/Person
p606
aVhttp://dbpedia.org/resource/Kevin_Sanjaya_Sukamuljo
p607
tp608
aaa.