ccollections
defaultdict
p1
(c__builtin__
dict
p2
tRp3
I3
(dp4
I0
(lp5
Vhttp://dbpedia.org/property/secondDriver
p6
aVhttp://www.w3.org/1999/02/22-rdf-syntax-ns#type
p7
aVhttp://purl.org/dc/terms/subject
p8
aVhttp://www.w3.org/2000/01/rdf-schema#comment
p9
aVhttp://dbpedia.org/property/fastDriver
p10
aVhttp://dbpedia.org/ontology/abstract
p11
aVhttp://dbpedia.org/ontology/firstDriver
p12
aVhttp://dbpedia.org/ontology/thirdDriver
p13
aVhttp://dbpedia.org/property/before
p14
aVhttp://dbpedia.org/property/thirdDriver
p15
aVhttp://purl.org/voc/vrank#hasRank
p16
aVhttp://dbpedia.org/ontology/secondDriver
p17
aVhttp://dbpedia.org/property/firstDriver
p18
aVhttp://dbpedia.org/property/poleDriver
p19
aVhttp://dbpedia.org/ontology/poleDriver
p20
aVhttp://www.w3.org/ns/prov#wasDerivedFrom
p21
aVhttp://dbpedia.org/ontology/viafId
p22
aVhttp://dbpedia.org/property/years
p23
aVhttp://dbpedia.org/ontology/fastestDriver
p24
aVhttp://www.w3.org/2002/07/owl#sameAs
p25
asI2
(lp26
Vhttp://dbpedia.org/ontology/abstract
p27
aVhttp://purl.org/dc/terms/subject
p28
aVhttp://www.w3.org/2000/01/rdf-schema#comment
p29
asI3
(lp30
sI4
(lp31
Vhttp://dbpedia.org/ontology/abstract
p32
aVhttp://www.w3.org/1999/02/22-rdf-syntax-ns#type
p33
aVhttp://purl.org/dc/terms/subject
p34
aVhttp://www.w3.org/2000/01/rdf-schema#comment
p35
asI5
(lp36
Vhttp://www.w3.org/1999/02/22-rdf-syntax-ns#type
p37
aVhttp://www.w3.org/2000/01/rdf-schema#comment
p38
aVhttp://dbpedia.org/ontology/abstract
p39
aVhttp://dbpedia.org/property/before
p40
aVhttp://dbpedia.org/property/thirdDriver
p41
aVhttp://dbpedia.org/ontology/thirdDriver
p42
aVhttp://dbpedia.org/property/after
p43
aVhttp://www.w3.org/ns/prov#wasDerivedFrom
p44
aVhttp://dbpedia.org/ontology/viafId
p45
aVhttp://dbpedia.org/property/years
p46
aVhttp://dbpedia.org/property/alt
p47
aVhttp://www.w3.org/2002/07/owl#sameAs
p48
assI7
(dp49
I0
(lp50
Vhttp://www.w3.org/1999/02/22-rdf-syntax-ns#type
p51
aVhttp://www.w3.org/2000/01/rdf-schema#comment
p52
aVhttp://dbpedia.org/ontology/abstract
p53
aVhttp://dbpedia.org/property/before
p54
aVhttp://dbpedia.org/property/thirdDriver
p55
aVhttp://dbpedia.org/property/after
p56
aVhttp://www.w3.org/ns/prov#wasDerivedFrom
p57
aVhttp://dbpedia.org/property/fastDriver
p58
asI2
(lp59
Vhttp://dbpedia.org/ontology/abstract
p60
aVhttp://dbpedia.org/property/team(s)_
p61
aVhttp://www.w3.org/2000/01/rdf-schema#comment
p62
asI3
(lp63
sI4
(lp64
sI5
(lp65
Vhttp://www.w3.org/1999/02/22-rdf-syntax-ns#type
p66
assI8
(dp67
I0
(lp68
Vhttp://www.w3.org/1999/02/22-rdf-syntax-ns#type
p69
aVhttp://purl.org/dc/terms/subject
p70
aVhttp://dbpedia.org/property/rd1Team
p71
aVhttp://www.w3.org/2000/01/rdf-schema#comment
p72
aVhttp://dbpedia.org/ontology/abstract
p73
aVhttp://dbpedia.org/ontology/lastRace
p74
aVhttp://dbpedia.org/ontology/firstRace
p75
aVhttp://dbpedia.org/ontology/thirdDriver
p76
aVhttp://dbpedia.org/property/after
p77
aVhttp://www.w3.org/ns/prov#wasDerivedFrom
p78
aVhttp://dbpedia.org/property/before
p79
aVhttp://dbpedia.org/property/thirdDriver
p80
aVhttp://www.w3.org/2002/07/owl#sameAs
p81
asI2
(lp82
Vhttp://dbpedia.org/ontology/abstract
p83
aVhttp://dbpedia.org/property/team(s)_
p84
asI3
(lp85
sI4
(lp86
sI5
(lp87
Vhttp://www.w3.org/ns/prov#wasDerivedFrom
p88
aVhttp://dbpedia.org/ontology/abstract
p89
assI11
(dp90
I0
(lp91
Vhttp://dbpedia.org/ontology/abstract
p92
aVhttp://www.w3.org/1999/02/22-rdf-syntax-ns#type
p93
aVhttp://www.w3.org/2000/01/rdf-schema#comment
p94
asI2
(lp95
Vhttp://www.w3.org/1999/02/22-rdf-syntax-ns#type
p96
aVhttp://purl.org/dc/terms/subject
p97
aVhttp://www.w3.org/2000/01/rdf-schema#comment
p98
aVhttp://dbpedia.org/ontology/abstract
p99
aVhttp://xmlns.com/foaf/0.1/depiction
p100
aVhttp://dbpedia.org/ontology/thumbnail
p101
aVhttp://dbpedia.org/property/team(s)_
p102
asI3
(lp103
sI4
(lp104
sI5
(lp105
Vhttp://dbpedia.org/ontology/abstract
p106
aVhttp://www.w3.org/2000/01/rdf-schema#comment
p107
assI12
(dp108
I0
(lp109
sI2
(lp110
Vhttp://dbpedia.org/ontology/abstract
p111
aVhttp://www.w3.org/1999/02/22-rdf-syntax-ns#type
p112
aVhttp://purl.org/dc/terms/subject
p113
asI3
(lp114
sI4
(lp115
sI5
(lp116
Vhttp://dbpedia.org/ontology/wikiPageExternalLink
p117
aVhttp://dbpedia.org/property/secondDriver
p118
aVhttp://www.w3.org/1999/02/22-rdf-syntax-ns#type
p119
aVhttp://purl.org/dc/terms/subject
p120
aVhttp://www.w3.org/2000/01/rdf-schema#comment
p121
aVhttp://dbpedia.org/property/fastDriver
p122
aVhttp://dbpedia.org/ontology/abstract
p123
aVhttp://dbpedia.org/ontology/firstDriver
p124
aVhttp://dbpedia.org/ontology/thirdDriver
p125
aVhttp://purl.org/voc/vrank#hasRank
p126
aVhttp://dbpedia.org/ontology/secondDriver
p127
aVhttp://dbpedia.org/property/firstDriver
p128
aVhttp://dbpedia.org/ontology/poleDriver
p129
aVhttp://dbpedia.org/property/rd1Team
p130
aVhttp://dbpedia.org/property/caption
p131
aVhttp://dbpedia.org/property/thirdDriver
p132
aVhttp://dbpedia.org/ontology/fastestDriver
p133
aVhttp://dbpedia.org/property/poleDriver
p134
assI17
(dp135
I0
(lp136
sI2
(lp137
Vhttp://dbpedia.org/property/team(s)_
p138
aVhttp://dbpedia.org/ontology/abstract
p139
aVhttp://www.w3.org/1999/02/22-rdf-syntax-ns#type
p140
aVhttp://purl.org/dc/terms/subject
p141
aVhttp://www.w3.org/2000/01/rdf-schema#comment
p142
asI3
(lp143
sI4
(lp144
sI5
(lp145
Vhttp://dbpedia.org/ontology/abstract
p146
assI18
(dp147
I0
(lp148
Vhttp://dbpedia.org/property/secondDriver
p149
aVhttp://www.w3.org/1999/02/22-rdf-syntax-ns#type
p150
aVhttp://purl.org/dc/terms/subject
p151
aVhttp://www.w3.org/2000/01/rdf-schema#comment
p152
aVhttp://dbpedia.org/property/fastDriver
p153
aVhttp://dbpedia.org/ontology/abstract
p154
aVhttp://xmlns.com/foaf/0.1/depiction
p155
aVhttp://dbpedia.org/property/rd2Team
p156
aVhttp://dbpedia.org/ontology/thirdDriver
p157
aVhttp://dbpedia.org/ontology/lastRace
p158
aVhttp://purl.org/voc/vrank#hasRank
p159
aVhttp://dbpedia.org/ontology/secondDriver
p160
aVhttp://dbpedia.org/ontology/thumbnail
p161
aVhttp://dbpedia.org/ontology/poleDriver
p162
aVhttp://dbpedia.org/ontology/firstRace
p163
aVhttp://dbpedia.org/property/caption
p164
aVhttp://dbpedia.org/property/thirdDriver
p165
aVhttp://dbpedia.org/ontology/fastestDriver
p166
asI2
(lp167
Vhttp://dbpedia.org/property/team(s)_
p168
aVhttp://dbpedia.org/ontology/abstract
p169
aVhttp://purl.org/dc/terms/subject
p170
aVhttp://www.w3.org/2000/01/rdf-schema#comment
p171
asI3
(lp172
sI4
(lp173
sI5
(lp174
Vhttp://www.w3.org/2002/07/owl#sameAs
p175
ass.