(lp1
(lp2
(lp3
a(lp4
a(lp5
a(lp6
a(lp7
a(lp8
aa(lp9
(lp10
a(lp11
a(lp12
a(lp13
a(lp14
a(lp15
aa(lp16
(lp17
a(lp18
a(lp19
a(lp20
a(lp21
a(lp22
aa(lp23
(lp24
a(lp25
Vhttp://dbpedia.org/resource/Rubens_Barrichello
p26
aa(lp27
a(lp28
a(lp29
a(lp30
aa(lp31
(lp32
a(lp33
a(lp34
a(lp35
a(lp36
a(lp37
aa(lp38
(lp39
a(lp40
a(lp41
a(lp42
a(lp43
a(lp44
aa(lp45
(lp46
a(lp47
a(lp48
a(lp49
a(lp50
Vhttp://dbpedia.org/resource/Null
p51
aa(lp52
aa(lp53
(lp54
a(lp55
Vhttp://dbpedia.org/resource/Christian_Fittipaldi
p56
aa(lp57
a(lp58
a(lp59
Vhttp://dbpedia.org/resource/Null
p60
aa(lp61
aa(lp62
(lp63
a(lp64
Vhttp://dbpedia.org/resource/Gianni_Morbidelli
p65
aa(lp66
a(lp67
a(lp68
Vhttp://dbpedia.org/resource/Null
p69
aa(lp70
aa(lp71
(lp72
a(lp73
a(lp74
a(lp75
a(lp76
Vhttp://dbpedia.org/resource/Null
p77
aa(lp78
aa(lp79
(lp80
a(lp81
a(lp82
a(lp83
a(lp84
Vhttp://dbpedia.org/resource/Null
p85
aa(lp86
aa(lp87
(lp88
a(lp89
Vhttp://dbpedia.org/resource/Pierluigi_Martini
p90
aa(lp91
a(lp92
a(lp93
Vhttp://dbpedia.org/resource/Null
p94
aa(lp95
aa(lp96
(lp97
a(lp98
Vhttp://dbpedia.org/resource/Michele_Alboreto
p99
aa(lp100
a(lp101
a(lp102
Vhttp://dbpedia.org/resource/Null
p103
aa(lp104
aa(lp105
(lp106
a(lp107
a(lp108
a(lp109
a(lp110
Vhttp://dbpedia.org/resource/Null
p111
aa(lp112
aa(lp113
(lp114
a(lp115
a(lp116
a(lp117
a(lp118
Vhttp://dbpedia.org/resource/Null
p119
aa(lp120
aa(lp121
(lp122
a(lp123
a(lp124
a(lp125
a(lp126
Vhttp://dbpedia.org/resource/Null
p127
aa(lp128
aa(lp129
(lp130
a(lp131
a(lp132
a(lp133
a(lp134
Vhttp://dbpedia.org/resource/Null
p135
aa(lp136
aa(lp137
(lp138
a(lp139
Vhttp://dbpedia.org/resource/JJ_Lehto
p140
aa(lp141
a(lp142
a(lp143
Vhttp://dbpedia.org/resource/Null
p144
aa(lp145
aa(lp146
(lp147
a(lp148
Vhttp://dbpedia.org/resource/Andrea_de_Cesaris
p149
aa(lp150
a(lp151
a(lp152
Vhttp://dbpedia.org/resource/Null
p153
aa(lp154
aa.