(lp1
(dp2
I0
(dp3
I0
(lp4
sI1
(lp5
sI2
(lp6
sI3
(lp7
sI4
(lp8
sI5
(lp9
ssI1
(dp10
I0
g5
sI1
(lp11
sI2
(lp12
sI3
(lp13
sI4
(lp14
sI5
(lp15
ssI2
(dp16
I0
g6
sI1
g12
sI2
(lp17
sI3
(lp18
sI4
(lp19
sI5
(lp20
ssI3
(dp21
I0
g7
sI1
g13
sI2
g18
sI3
(lp22
sI4
(lp23
sI5
(lp24
ssI4
(dp25
I0
g8
sI1
g14
sI2
g19
sI3
g23
sI4
(lp26
sI5
(lp27
ssI5
(dp28
I0
g9
sI1
g15
sI2
g20
sI3
g24
sI4
g27
sI5
(lp29
ssa(dp30
I0
(dp31
I0
(lp32
sI1
(lp33
sI2
(lp34
sI3
(lp35
sI4
(lp36
sI5
(lp37
ssI1
(dp38
I0
g33
sI1
(lp39
sI2
(lp40
sI3
(lp41
sI4
(lp42
sI5
(lp43
ssI2
(dp44
I0
g34
sI1
g40
sI2
(lp45
sI3
(lp46
sI4
(lp47
sI5
(lp48
ssI3
(dp49
I0
g35
sI1
g41
sI2
g46
sI3
(lp50
sI4
(lp51
sI5
(lp52
ssI4
(dp53
I0
g36
sI1
g42
sI2
g47
sI3
g51
sI4
(lp54
sI5
(lp55
ssI5
(dp56
I0
g37
sI1
g43
sI2
g48
sI3
g52
sI4
g55
sI5
(lp57
ssa(dp58
I0
(dp59
I0
(lp60
sI1
(lp61
sI2
(lp62
sI3
(lp63
sI4
(lp64
sI5
(lp65
ssI1
(dp66
I0
g61
sI1
(lp67
sI2
(lp68
sI3
(lp69
sI4
(lp70
sI5
(lp71
ssI2
(dp72
I0
g62
sI1
g68
sI2
(lp73
sI3
(lp74
sI4
(lp75
sI5
(lp76
ssI3
(dp77
I0
g63
sI1
g69
sI2
g74
sI3
(lp78
sI4
(lp79
sI5
(lp80
ssI4
(dp81
I0
g64
sI1
g70
sI2
g75
sI3
g79
sI4
(lp82
sI5
(lp83
ssI5
(dp84
I0
g65
sI1
g71
sI2
g76
sI3
g80
sI4
g83
sI5
(lp85
ssa(dp86
I0
(dp87
I0
(lp88
sI1
(lp89
Vhttp://www.w3.org/1999/02/22-rdf-syntax-ns#type
p90
aVhttp://purl.org/dc/terms/subject
p91
aVhttp://www.w3.org/2000/01/rdf-schema#comment
p92
aVhttp://dbpedia.org/property/fastDriver
p93
aVhttp://dbpedia.org/ontology/abstract
p94
aVhttp://dbpedia.org/ontology/firstDriver
p95
aVhttp://dbpedia.org/ontology/secondDriver
p96
aVhttp://dbpedia.org/property/years
p97
aVhttp://dbpedia.org/property/before
p98
aVhttp://dbpedia.org/property/thirdDriver
p99
aVhttp://dbpedia.org/ontology/thirdDriver
p100
aVhttp://dbpedia.org/property/firstDriver
p101
aVhttp://www.w3.org/2002/07/owl#sameAs
p102
aVhttp://dbpedia.org/ontology/poleDriver
p103
aVhttp://www.w3.org/ns/prov#wasDerivedFrom
p104
aVhttp://dbpedia.org/ontology/fastestDriver
p105
aVhttp://purl.org/voc/vrank#hasRank
p106
aVhttp://dbpedia.org/ontology/viafId
p107
aVhttp://dbpedia.org/property/secondDriver
p108
aVhttp://dbpedia.org/property/poleDriver
p109
asI2
(lp110
sI3
(lp111
sI4
(lp112
sI5
(lp113
ssI1
(dp114
I0
g89
sI1
(lp115
sI2
(lp116
Vhttp://dbpedia.org/ontology/abstract
p117
aVhttp://purl.org/dc/terms/subject
p118
aVhttp://www.w3.org/2000/01/rdf-schema#comment
p119
asI3
(lp120
sI4
(lp121
Vhttp://dbpedia.org/ontology/abstract
p122
aVhttp://www.w3.org/1999/02/22-rdf-syntax-ns#type
p123
aVhttp://purl.org/dc/terms/subject
p124
aVhttp://www.w3.org/2000/01/rdf-schema#comment
p125
asI5
(lp126
Vhttp://www.w3.org/1999/02/22-rdf-syntax-ns#type
p127
aVhttp://www.w3.org/2000/01/rdf-schema#comment
p128
aVhttp://dbpedia.org/property/thirdDriver
p129
aVhttp://dbpedia.org/property/before
p130
aVhttp://dbpedia.org/ontology/thirdDriver
p131
aVhttp://dbpedia.org/property/after
p132
aVhttp://dbpedia.org/property/alt
p133
aVhttp://www.w3.org/ns/prov#wasDerivedFrom
p134
aVhttp://dbpedia.org/ontology/viafId
p135
aVhttp://dbpedia.org/property/years
p136
aVhttp://dbpedia.org/ontology/abstract
p137
aVhttp://www.w3.org/2002/07/owl#sameAs
p138
assI2
(dp139
I0
g110
sI1
g116
sI2
(lp140
sI3
(lp141
sI4
(lp142
sI5
(lp143
ssI3
(dp144
I0
g111
sI1
g120
sI2
g141
sI3
(lp145
sI4
(lp146
sI5
(lp147
ssI4
(dp148
I0
g112
sI1
g121
sI2
g142
sI3
g146
sI4
(lp149
sI5
(lp150
ssI5
(dp151
I0
g113
sI1
g126
sI2
g143
sI3
g147
sI4
g150
sI5
(lp152
ssa(dp153
I0
(dp154
I0
(lp155
sI1
(lp156
sI2
(lp157
sI3
(lp158
sI4
(lp159
sI5
(lp160
ssI1
(dp161
I0
g156
sI1
(lp162
sI2
(lp163
sI3
(lp164
sI4
(lp165
sI5
(lp166
ssI2
(dp167
I0
g157
sI1
g163
sI2
(lp168
sI3
(lp169
sI4
(lp170
sI5
(lp171
ssI3
(dp172
I0
g158
sI1
g164
sI2
g169
sI3
(lp173
sI4
(lp174
sI5
(lp175
ssI4
(dp176
I0
g159
sI1
g165
sI2
g170
sI3
g174
sI4
(lp177
sI5
(lp178
ssI5
(dp179
I0
g160
sI1
g166
sI2
g171
sI3
g175
sI4
g178
sI5
(lp180
ssa(dp181
I0
(dp182
I0
(lp183
sI1
(lp184
sI2
(lp185
sI3
(lp186
sI4
(lp187
sI5
(lp188
ssI1
(dp189
I0
g184
sI1
(lp190
sI2
(lp191
sI3
(lp192
sI4
(lp193
sI5
(lp194
ssI2
(dp195
I0
g185
sI1
g191
sI2
(lp196
sI3
(lp197
sI4
(lp198
sI5
(lp199
ssI3
(dp200
I0
g186
sI1
g192
sI2
g197
sI3
(lp201
sI4
(lp202
sI5
(lp203
ssI4
(dp204
I0
g187
sI1
g193
sI2
g198
sI3
g202
sI4
(lp205
sI5
(lp206
ssI5
(dp207
I0
g188
sI1
g194
sI2
g199
sI3
g203
sI4
g206
sI5
(lp208
ssa(dp209
I0
(dp210
I0
(lp211
sI1
(lp212
sI2
(lp213
sI3
(lp214
sI4
(lp215
Vhttp://www.w3.org/ns/prov#wasDerivedFrom
p216
aVhttp://purl.org/voc/vrank#hasRank
p217
aVhttp://www.w3.org/2002/07/owl#sameAs
p218
asI5
(lp219
ssI1
(dp220
I0
g212
sI1
(lp221
sI2
(lp222
sI3
(lp223
sI4
(lp224
sI5
(lp225
ssI2
(dp226
I0
g213
sI1
g222
sI2
(lp227
sI3
(lp228
sI4
(lp229
sI5
(lp230
ssI3
(dp231
I0
g214
sI1
g223
sI2
g228
sI3
(lp232
sI4
(lp233
sI5
(lp234
ssI4
(dp235
I0
g215
sI1
g224
sI2
g229
sI3
g233
sI4
(lp236
sI5
(lp237
Vhttp://www.w3.org/2002/07/owl#sameAs
p238
assI5
(dp239
I0
g219
sI1
g225
sI2
g230
sI3
g234
sI4
g237
sI5
(lp240
ssa(dp241
I0
(dp242
I0
(lp243
sI1
(lp244
Vhttp://www.w3.org/1999/02/22-rdf-syntax-ns#type
p245
aVhttp://www.w3.org/2000/01/rdf-schema#comment
p246
aVhttp://dbpedia.org/property/fastDriver
p247
aVhttp://dbpedia.org/property/thirdDriver
p248
aVhttp://dbpedia.org/property/before
p249
aVhttp://dbpedia.org/property/after
p250
aVhttp://www.w3.org/ns/prov#wasDerivedFrom
p251
aVhttp://dbpedia.org/ontology/abstract
p252
asI2
(lp253
sI3
(lp254
sI4
(lp255
Vhttp://www.w3.org/ns/prov#wasDerivedFrom
p256
aVhttp://purl.org/voc/vrank#hasRank
p257
aVhttp://www.w3.org/2002/07/owl#sameAs
p258
asI5
(lp259
ssI1
(dp260
I0
g244
sI1
(lp261
sI2
(lp262
Vhttp://dbpedia.org/ontology/abstract
p263
aVhttp://dbpedia.org/property/team(s)_
p264
aVhttp://www.w3.org/2000/01/rdf-schema#comment
p265
asI3
(lp266
sI4
(lp267
sI5
(lp268
Vhttp://www.w3.org/1999/02/22-rdf-syntax-ns#type
p269
assI2
(dp270
I0
g253
sI1
g262
sI2
(lp271
sI3
(lp272
sI4
(lp273
sI5
(lp274
ssI3
(dp275
I0
g254
sI1
g266
sI2
g272
sI3
(lp276
sI4
(lp277
sI5
(lp278
ssI4
(dp279
I0
g255
sI1
g267
sI2
g273
sI3
g277
sI4
(lp280
sI5
(lp281
Vhttp://www.w3.org/2002/07/owl#sameAs
p282
assI5
(dp283
I0
g259
sI1
g268
sI2
g274
sI3
g278
sI4
g281
sI5
(lp284
ssa(dp285
I0
(dp286
I0
(lp287
sI1
(lp288
Vhttp://dbpedia.org/property/rd1Team
p289
aVhttp://purl.org/dc/terms/subject
p290
aVhttp://www.w3.org/2000/01/rdf-schema#comment
p291
aVhttp://dbpedia.org/ontology/abstract
p292
aVhttp://dbpedia.org/ontology/lastRace
p293
aVhttp://www.w3.org/ns/prov#wasDerivedFrom
p294
aVhttp://dbpedia.org/ontology/thirdDriver
p295
aVhttp://www.w3.org/1999/02/22-rdf-syntax-ns#type
p296
aVhttp://dbpedia.org/ontology/firstRace
p297
aVhttp://dbpedia.org/property/before
p298
aVhttp://dbpedia.org/property/thirdDriver
p299
aVhttp://dbpedia.org/property/after
p300
aVhttp://www.w3.org/2002/07/owl#sameAs
p301
asI2
(lp302
sI3
(lp303
sI4
(lp304
Vhttp://www.w3.org/ns/prov#wasDerivedFrom
p305
aVhttp://purl.org/voc/vrank#hasRank
p306
aVhttp://www.w3.org/2002/07/owl#sameAs
p307
asI5
(lp308
ssI1
(dp309
I0
g288
sI1
(lp310
sI2
(lp311
Vhttp://dbpedia.org/ontology/abstract
p312
aVhttp://dbpedia.org/property/team(s)_
p313
asI3
(lp314
sI4
(lp315
sI5
(lp316
Vhttp://www.w3.org/ns/prov#wasDerivedFrom
p317
aVhttp://dbpedia.org/ontology/abstract
p318
assI2
(dp319
I0
g302
sI1
g311
sI2
(lp320
sI3
(lp321
sI4
(lp322
sI5
(lp323
ssI3
(dp324
I0
g303
sI1
g314
sI2
g321
sI3
(lp325
sI4
(lp326
sI5
(lp327
ssI4
(dp328
I0
g304
sI1
g315
sI2
g322
sI3
g326
sI4
(lp329
sI5
(lp330
ssI5
(dp331
I0
g308
sI1
g316
sI2
g323
sI3
g327
sI4
g330
sI5
(lp332
ssa(dp333
I0
(dp334
I0
(lp335
sI1
(lp336
sI2
(lp337
sI3
(lp338
sI4
(lp339
sI5
(lp340
ssI1
(dp341
I0
g336
sI1
(lp342
sI2
(lp343
sI3
(lp344
sI4
(lp345
sI5
(lp346
ssI2
(dp347
I0
g337
sI1
g343
sI2
(lp348
sI3
(lp349
sI4
(lp350
sI5
(lp351
ssI3
(dp352
I0
g338
sI1
g344
sI2
g349
sI3
(lp353
sI4
(lp354
sI5
(lp355
ssI4
(dp356
I0
g339
sI1
g345
sI2
g350
sI3
g354
sI4
(lp357
sI5
(lp358
ssI5
(dp359
I0
g340
sI1
g346
sI2
g351
sI3
g355
sI4
g358
sI5
(lp360
ssa(dp361
I0
(dp362
I0
(lp363
sI1
(lp364
sI2
(lp365
sI3
(lp366
sI4
(lp367
Vhttp://www.w3.org/2002/07/owl#sameAs
p368
asI5
(lp369
ssI1
(dp370
I0
g364
sI1
(lp371
sI2
(lp372
sI3
(lp373
sI4
(lp374
sI5
(lp375
ssI2
(dp376
I0
g365
sI1
g372
sI2
(lp377
sI3
(lp378
sI4
(lp379
sI5
(lp380
ssI3
(dp381
I0
g366
sI1
g373
sI2
g378
sI3
(lp382
sI4
(lp383
sI5
(lp384
ssI4
(dp385
I0
g367
sI1
g374
sI2
g379
sI3
g383
sI4
(lp386
sI5
(lp387
Vhttp://purl.org/voc/vrank#hasRank
p388
assI5
(dp389
I0
g369
sI1
g375
sI2
g380
sI3
g384
sI4
g387
sI5
(lp390
ssa(dp391
I0
(dp392
I0
(lp393
sI1
(lp394
Vhttp://dbpedia.org/ontology/abstract
p395
aVhttp://www.w3.org/1999/02/22-rdf-syntax-ns#type
p396
aVhttp://www.w3.org/2000/01/rdf-schema#comment
p397
asI2
(lp398
sI3
(lp399
sI4
(lp400
sI5
(lp401
ssI1
(dp402
I0
g394
sI1
(lp403
sI2
(lp404
Vhttp://www.w3.org/1999/02/22-rdf-syntax-ns#type
p405
aVhttp://purl.org/dc/terms/subject
p406
aVhttp://www.w3.org/2000/01/rdf-schema#comment
p407
aVhttp://dbpedia.org/ontology/abstract
p408
aVhttp://xmlns.com/foaf/0.1/depiction
p409
aVhttp://dbpedia.org/ontology/thumbnail
p410
aVhttp://dbpedia.org/property/team(s)_
p411
asI3
(lp412
sI4
(lp413
sI5
(lp414
Vhttp://dbpedia.org/ontology/abstract
p415
aVhttp://www.w3.org/2000/01/rdf-schema#comment
p416
assI2
(dp417
I0
g398
sI1
g404
sI2
(lp418
sI3
(lp419
sI4
(lp420
sI5
(lp421
ssI3
(dp422
I0
g399
sI1
g412
sI2
g419
sI3
(lp423
sI4
(lp424
sI5
(lp425
ssI4
(dp426
I0
g400
sI1
g413
sI2
g420
sI3
g424
sI4
(lp427
sI5
(lp428
ssI5
(dp429
I0
g401
sI1
g414
sI2
g421
sI3
g425
sI4
g428
sI5
(lp430
ssa(dp431
I0
(dp432
I0
(lp433
sI1
(lp434
sI2
(lp435
sI3
(lp436
sI4
(lp437
Vhttp://www.w3.org/2002/07/owl#sameAs
p438
asI5
(lp439
ssI1
(dp440
I0
g434
sI1
(lp441
sI2
(lp442
Vhttp://dbpedia.org/ontology/abstract
p443
aVhttp://www.w3.org/1999/02/22-rdf-syntax-ns#type
p444
aVhttp://purl.org/dc/terms/subject
p445
asI3
(lp446
sI4
(lp447
sI5
(lp448
Vhttp://dbpedia.org/ontology/wikiPageExternalLink
p449
aVhttp://www.w3.org/1999/02/22-rdf-syntax-ns#type
p450
aVhttp://purl.org/dc/terms/subject
p451
aVhttp://www.w3.org/2000/01/rdf-schema#comment
p452
aVhttp://dbpedia.org/property/secondDriver
p453
aVhttp://dbpedia.org/ontology/firstDriver
p454
aVhttp://dbpedia.org/ontology/secondDriver
p455
aVhttp://dbpedia.org/ontology/fastestDriver
p456
aVhttp://purl.org/voc/vrank#hasRank
p457
aVhttp://dbpedia.org/ontology/thirdDriver
p458
aVhttp://dbpedia.org/property/firstDriver
p459
aVhttp://dbpedia.org/ontology/abstract
p460
aVhttp://dbpedia.org/ontology/poleDriver
p461
aVhttp://dbpedia.org/property/rd1Team
p462
aVhttp://dbpedia.org/property/caption
p463
aVhttp://dbpedia.org/property/thirdDriver
p464
aVhttp://dbpedia.org/property/fastDriver
p465
aVhttp://dbpedia.org/property/poleDriver
p466
assI2
(dp467
I0
g435
sI1
g442
sI2
(lp468
sI3
(lp469
sI4
(lp470
sI5
(lp471
ssI3
(dp472
I0
g436
sI1
g446
sI2
g469
sI3
(lp473
sI4
(lp474
sI5
(lp475
ssI4
(dp476
I0
g437
sI1
g447
sI2
g470
sI3
g474
sI4
(lp477
sI5
(lp478
ssI5
(dp479
I0
g439
sI1
g448
sI2
g471
sI3
g475
sI4
g478
sI5
(lp480
ssa(dp481
I0
(dp482
I0
(lp483
sI1
(lp484
sI2
(lp485
sI3
(lp486
sI4
(lp487
sI5
(lp488
ssI1
(dp489
I0
g484
sI1
(lp490
sI2
(lp491
sI3
(lp492
sI4
(lp493
sI5
(lp494
ssI2
(dp495
I0
g485
sI1
g491
sI2
(lp496
sI3
(lp497
sI4
(lp498
sI5
(lp499
ssI3
(dp500
I0
g486
sI1
g492
sI2
g497
sI3
(lp501
sI4
(lp502
sI5
(lp503
ssI4
(dp504
I0
g487
sI1
g493
sI2
g498
sI3
g502
sI4
(lp505
sI5
(lp506
ssI5
(dp507
I0
g488
sI1
g494
sI2
g499
sI3
g503
sI4
g506
sI5
(lp508
ssa(dp509
I0
(dp510
I0
(lp511
sI1
(lp512
sI2
(lp513
sI3
(lp514
sI4
(lp515
sI5
(lp516
ssI1
(dp517
I0
g512
sI1
(lp518
sI2
(lp519
sI3
(lp520
sI4
(lp521
sI5
(lp522
ssI2
(dp523
I0
g513
sI1
g519
sI2
(lp524
sI3
(lp525
sI4
(lp526
sI5
(lp527
ssI3
(dp528
I0
g514
sI1
g520
sI2
g525
sI3
(lp529
sI4
(lp530
sI5
(lp531
ssI4
(dp532
I0
g515
sI1
g521
sI2
g526
sI3
g530
sI4
(lp533
sI5
(lp534
ssI5
(dp535
I0
g516
sI1
g522
sI2
g527
sI3
g531
sI4
g534
sI5
(lp536
ssa(dp537
I0
(dp538
I0
(lp539
sI1
(lp540
sI2
(lp541
sI3
(lp542
sI4
(lp543
sI5
(lp544
ssI1
(dp545
I0
g540
sI1
(lp546
sI2
(lp547
sI3
(lp548
sI4
(lp549
sI5
(lp550
ssI2
(dp551
I0
g541
sI1
g547
sI2
(lp552
sI3
(lp553
sI4
(lp554
sI5
(lp555
ssI3
(dp556
I0
g542
sI1
g548
sI2
g553
sI3
(lp557
sI4
(lp558
sI5
(lp559
ssI4
(dp560
I0
g543
sI1
g549
sI2
g554
sI3
g558
sI4
(lp561
sI5
(lp562
ssI5
(dp563
I0
g544
sI1
g550
sI2
g555
sI3
g559
sI4
g562
sI5
(lp564
ssa(dp565
I0
(dp566
I0
(lp567
sI1
(lp568
sI2
(lp569
sI3
(lp570
sI4
(lp571
Vhttp://purl.org/voc/vrank#hasRank
p572
aVhttp://www.w3.org/2002/07/owl#sameAs
p573
asI5
(lp574
ssI1
(dp575
I0
g568
sI1
(lp576
sI2
(lp577
sI3
(lp578
sI4
(lp579
sI5
(lp580
ssI2
(dp581
I0
g569
sI1
g577
sI2
(lp582
sI3
(lp583
sI4
(lp584
sI5
(lp585
ssI3
(dp586
I0
g570
sI1
g578
sI2
g583
sI3
(lp587
sI4
(lp588
sI5
(lp589
ssI4
(dp590
I0
g571
sI1
g579
sI2
g584
sI3
g588
sI4
(lp591
sI5
(lp592
ssI5
(dp593
I0
g574
sI1
g580
sI2
g585
sI3
g589
sI4
g592
sI5
(lp594
ssa(dp595
I0
(dp596
I0
(lp597
sI1
(lp598
sI2
(lp599
sI3
(lp600
sI4
(lp601
sI5
(lp602
ssI1
(dp603
I0
g598
sI1
(lp604
sI2
(lp605
Vhttp://purl.org/dc/terms/subject
p606
aVhttp://dbpedia.org/ontology/abstract
p607
aVhttp://www.w3.org/1999/02/22-rdf-syntax-ns#type
p608
aVhttp://dbpedia.org/property/team(s)_
p609
aVhttp://www.w3.org/2000/01/rdf-schema#comment
p610
asI3
(lp611
sI4
(lp612
sI5
(lp613
Vhttp://dbpedia.org/ontology/abstract
p614
assI2
(dp615
I0
g599
sI1
g605
sI2
(lp616
sI3
(lp617
sI4
(lp618
sI5
(lp619
ssI3
(dp620
I0
g600
sI1
g611
sI2
g617
sI3
(lp621
sI4
(lp622
sI5
(lp623
ssI4
(dp624
I0
g601
sI1
g612
sI2
g618
sI3
g622
sI4
(lp625
sI5
(lp626
ssI5
(dp627
I0
g602
sI1
g613
sI2
g619
sI3
g623
sI4
g626
sI5
(lp628
ssa(dp629
I0
(dp630
I0
(lp631
sI1
(lp632
Vhttp://www.w3.org/1999/02/22-rdf-syntax-ns#type
p633
aVhttp://purl.org/dc/terms/subject
p634
aVhttp://www.w3.org/2000/01/rdf-schema#comment
p635
aVhttp://dbpedia.org/property/fastDriver
p636
aVhttp://dbpedia.org/ontology/abstract
p637
aVhttp://xmlns.com/foaf/0.1/depiction
p638
aVhttp://dbpedia.org/ontology/secondDriver
p639
aVhttp://dbpedia.org/ontology/lastRace
p640
aVhttp://dbpedia.org/ontology/fastestDriver
p641
aVhttp://dbpedia.org/property/rd2Team
p642
aVhttp://dbpedia.org/ontology/thirdDriver
p643
aVhttp://dbpedia.org/ontology/thumbnail
p644
aVhttp://dbpedia.org/ontology/poleDriver
p645
aVhttp://dbpedia.org/ontology/firstRace
p646
aVhttp://dbpedia.org/property/caption
p647
aVhttp://purl.org/voc/vrank#hasRank
p648
aVhttp://dbpedia.org/property/thirdDriver
p649
aVhttp://dbpedia.org/property/secondDriver
p650
asI2
(lp651
sI3
(lp652
sI4
(lp653
sI5
(lp654
ssI1
(dp655
I0
g632
sI1
(lp656
sI2
(lp657
Vhttp://purl.org/dc/terms/subject
p658
aVhttp://dbpedia.org/ontology/abstract
p659
aVhttp://dbpedia.org/property/team(s)_
p660
aVhttp://www.w3.org/2000/01/rdf-schema#comment
p661
asI3
(lp662
sI4
(lp663
sI5
(lp664
Vhttp://www.w3.org/2002/07/owl#sameAs
p665
assI2
(dp666
I0
g651
sI1
g657
sI2
(lp667
sI3
(lp668
sI4
(lp669
sI5
(lp670
ssI3
(dp671
I0
g652
sI1
g662
sI2
g668
sI3
(lp672
sI4
(lp673
sI5
(lp674
ssI4
(dp675
I0
g653
sI1
g663
sI2
g669
sI3
g673
sI4
(lp676
sI5
(lp677
Vhttp://purl.org/voc/vrank#hasRank
p678
aVhttp://www.w3.org/2002/07/owl#sameAs
p679
assI5
(dp680
I0
g654
sI1
g664
sI2
g670
sI3
g674
sI4
g677
sI5
(lp681
ssa(dp682
I0
(dp683
I0
(lp684
sI1
(lp685
sI2
(lp686
sI3
(lp687
sI4
(lp688
Vhttp://purl.org/voc/vrank#hasRank
p689
asI5
(lp690
ssI1
(dp691
I0
g685
sI1
(lp692
sI2
(lp693
sI3
(lp694
sI4
(lp695
sI5
(lp696
ssI2
(dp697
I0
g686
sI1
g693
sI2
(lp698
sI3
(lp699
sI4
(lp700
sI5
(lp701
ssI3
(dp702
I0
g687
sI1
g694
sI2
g699
sI3
(lp703
sI4
(lp704
sI5
(lp705
ssI4
(dp706
I0
g688
sI1
g695
sI2
g700
sI3
g704
sI4
(lp707
sI5
(lp708
Vhttp://www.w3.org/ns/prov#wasDerivedFrom
p709
assI5
(dp710
I0
g690
sI1
g696
sI2
g701
sI3
g705
sI4
g708
sI5
(lp711
ssa(dp712
I0
(dp713
I0
(lp714
sI1
(lp715
sI2
(lp716
sI3
(lp717
sI4
(lp718
sI5
(lp719
ssI1
(dp720
I0
g715
sI1
(lp721
sI2
(lp722
sI3
(lp723
sI4
(lp724
sI5
(lp725
ssI2
(dp726
I0
g716
sI1
g722
sI2
(lp727
sI3
(lp728
sI4
(lp729
sI5
(lp730
ssI3
(dp731
I0
g717
sI1
g723
sI2
g728
sI3
(lp732
sI4
(lp733
sI5
(lp734
ssI4
(dp735
I0
g718
sI1
g724
sI2
g729
sI3
g733
sI4
(lp736
sI5
(lp737
ssI5
(dp738
I0
g719
sI1
g725
sI2
g730
sI3
g734
sI4
g737
sI5
(lp739
ssa(dp740
I0
(dp741
I0
(lp742
sI1
(lp743
sI2
(lp744
sI3
(lp745
sI4
(lp746
sI5
(lp747
ssI1
(dp748
I0
g743
sI1
(lp749
sI2
(lp750
sI3
(lp751
sI4
(lp752
sI5
(lp753
ssI2
(dp754
I0
g744
sI1
g750
sI2
(lp755
sI3
(lp756
sI4
(lp757
sI5
(lp758
ssI3
(dp759
I0
g745
sI1
g751
sI2
g756
sI3
(lp760
sI4
(lp761
sI5
(lp762
ssI4
(dp763
I0
g746
sI1
g752
sI2
g757
sI3
g761
sI4
(lp764
sI5
(lp765
Vhttp://www.w3.org/ns/prov#wasDerivedFrom
p766
aVhttp://purl.org/voc/vrank#hasRank
p767
aVhttp://www.w3.org/2002/07/owl#sameAs
p768
assI5
(dp769
I0
g747
sI1
g753
sI2
g758
sI3
g762
sI4
g765
sI5
(lp770
ssa(dp771
I0
(dp772
I0
(lp773
sI1
(lp774
sI2
(lp775
sI3
(lp776
sI4
(lp777
sI5
(lp778
ssI1
(dp779
I0
g774
sI1
(lp780
sI2
(lp781
sI3
(lp782
sI4
(lp783
sI5
(lp784
ssI2
(dp785
I0
g775
sI1
g781
sI2
(lp786
sI3
(lp787
sI4
(lp788
sI5
(lp789
ssI3
(dp790
I0
g776
sI1
g782
sI2
g787
sI3
(lp791
sI4
(lp792
sI5
(lp793
ssI4
(dp794
I0
g777
sI1
g783
sI2
g788
sI3
g792
sI4
(lp795
sI5
(lp796
ssI5
(dp797
I0
g778
sI1
g784
sI2
g789
sI3
g793
sI4
g796
sI5
(lp798
ssa(dp799
I0
(dp800
I0
(lp801
sI1
(lp802
sI2
(lp803
sI3
(lp804
sI4
(lp805
sI5
(lp806
ssI1
(dp807
I0
g802
sI1
(lp808
sI2
(lp809
sI3
(lp810
sI4
(lp811
sI5
(lp812
ssI2
(dp813
I0
g803
sI1
g809
sI2
(lp814
sI3
(lp815
sI4
(lp816
sI5
(lp817
ssI3
(dp818
I0
g804
sI1
g810
sI2
g815
sI3
(lp819
sI4
(lp820
sI5
(lp821
ssI4
(dp822
I0
g805
sI1
g811
sI2
g816
sI3
g820
sI4
(lp823
sI5
(lp824
Vhttp://www.w3.org/ns/prov#wasDerivedFrom
p825
assI5
(dp826
I0
g806
sI1
g812
sI2
g817
sI3
g821
sI4
g824
sI5
(lp827
ssa(dp828
I0
(dp829
I0
(lp830
sI1
(lp831
sI2
(lp832
sI3
(lp833
sI4
(lp834
sI5
(lp835
ssI1
(dp836
I0
g831
sI1
(lp837
sI2
(lp838
sI3
(lp839
sI4
(lp840
sI5
(lp841
ssI2
(dp842
I0
g832
sI1
g838
sI2
(lp843
sI3
(lp844
sI4
(lp845
sI5
(lp846
ssI3
(dp847
I0
g833
sI1
g839
sI2
g844
sI3
(lp848
sI4
(lp849
sI5
(lp850
ssI4
(dp851
I0
g834
sI1
g840
sI2
g845
sI3
g849
sI4
(lp852
sI5
(lp853
Vhttp://purl.org/voc/vrank#hasRank
p854
aVhttp://www.w3.org/2002/07/owl#sameAs
p855
assI5
(dp856
I0
g835
sI1
g841
sI2
g846
sI3
g850
sI4
g853
sI5
(lp857
ssa(dp858
I0
(dp859
I0
(lp860
sI1
(lp861
sI2
(lp862
sI3
(lp863
sI4
(lp864
sI5
(lp865
ssI1
(dp866
I0
g861
sI1
(lp867
sI2
(lp868
sI3
(lp869
sI4
(lp870
sI5
(lp871
ssI2
(dp872
I0
g862
sI1
g868
sI2
(lp873
sI3
(lp874
sI4
(lp875
sI5
(lp876
ssI3
(dp877
I0
g863
sI1
g869
sI2
g874
sI3
(lp878
sI4
(lp879
sI5
(lp880
ssI4
(dp881
I0
g864
sI1
g870
sI2
g875
sI3
g879
sI4
(lp882
sI5
(lp883
Vhttp://purl.org/voc/vrank#hasRank
p884
assI5
(dp885
I0
g865
sI1
g871
sI2
g876
sI3
g880
sI4
g883
sI5
(lp886
ssa(dp887
I0
(dp888
I0
(lp889
sI1
(lp890
sI2
(lp891
sI3
(lp892
sI4
(lp893
sI5
(lp894
ssI1
(dp895
I0
g890
sI1
(lp896
sI2
(lp897
sI3
(lp898
sI4
(lp899
sI5
(lp900
ssI2
(dp901
I0
g891
sI1
g897
sI2
(lp902
sI3
(lp903
sI4
(lp904
sI5
(lp905
ssI3
(dp906
I0
g892
sI1
g898
sI2
g903
sI3
(lp907
sI4
(lp908
sI5
(lp909
ssI4
(dp910
I0
g893
sI1
g899
sI2
g904
sI3
g908
sI4
(lp911
sI5
(lp912
Vhttp://purl.org/voc/vrank#hasRank
p913
assI5
(dp914
I0
g894
sI1
g900
sI2
g905
sI3
g909
sI4
g912
sI5
(lp915
ssa(dp916
I0
(dp917
I0
(lp918
sI1
(lp919
sI2
(lp920
sI3
(lp921
sI4
(lp922
sI5
(lp923
ssI1
(dp924
I0
g919
sI1
(lp925
sI2
(lp926
sI3
(lp927
sI4
(lp928
sI5
(lp929
ssI2
(dp930
I0
g920
sI1
g926
sI2
(lp931
sI3
(lp932
sI4
(lp933
sI5
(lp934
ssI3
(dp935
I0
g921
sI1
g927
sI2
g932
sI3
(lp936
sI4
(lp937
sI5
(lp938
ssI4
(dp939
I0
g922
sI1
g928
sI2
g933
sI3
g937
sI4
(lp940
sI5
(lp941
ssI5
(dp942
I0
g923
sI1
g929
sI2
g934
sI3
g938
sI4
g941
sI5
(lp943
ssa.