(lp1
(lp2
(lp3
a(lp4
a(lp5
a(lp6
a(lp7
a(lp8
aa(lp9
(lp10
a(lp11
((lp12
Vhttp://www.w3.org/2002/07/owl#Thing
p13
aVhttp://dbpedia.org/ontology/Company
p14
aVhttp://www.ontologydesignpatterns.org/ont/dul/DUL.owl#Agent
p15
aVhttp://www.ontologydesignpatterns.org/ont/dul/DUL.owl#SocialPerson
p16
aVhttp://www.wikidata.org/entity/Q43229
p17
aVhttp://dbpedia.org/ontology/Agent
p18
aVhttp://dbpedia.org/ontology/Organisation
p19
aVhttp://schema.org/Organization
p20
aVhttp://umbel.org/umbel/rc/Business
p21
aVhttp://umbel.org/umbel/rc/Organization
p22
aVhttp://dbpedia.org/class/yago/Abstraction100002137
p23
aVhttp://dbpedia.org/class/yago/AutomotiveCompaniesOfTheUnitedStates
p24
aVhttp://dbpedia.org/class/yago/Company108058098
p25
aVhttp://dbpedia.org/class/yago/Group100031264
p26
aVhttp://dbpedia.org/class/yago/Institution108053576
p27
aVhttp://dbpedia.org/class/yago/OilCompany108069241
p28
aVhttp://dbpedia.org/class/yago/Organization108008335
p29
aVhttp://dbpedia.org/class/yago/SocialGroup107950920
p30
aVhttp://dbpedia.org/class/yago/Utility108185758
p31
aVhttp://dbpedia.org/class/yago/YagoLegalActorGeo
p32
aVhttp://dbpedia.org/class/yago/ChemicalCompaniesOfTheUnitedStates
p33
aVhttp://dbpedia.org/class/yago/CompaniesBasedInFairfax,Virginia
p34
aVhttp://dbpedia.org/class/yago/CompaniesBasedInHouston,Texas
p35
aVhttp://dbpedia.org/class/yago/CompaniesBasedInIrving,Texas
p36
aVhttp://dbpedia.org/class/yago/CompaniesEstablishedIn1999
p37
aVhttp://dbpedia.org/class/yago/YagoPermanentlyLocatedEntity
p38
aVhttp://dbpedia.org/class/yago/GasCompany108186655
p39
aVhttp://dbpedia.org/class/yago/MultinationalCompanies
p40
aVhttp://dbpedia.org/class/yago/MultinationalCompaniesHeadquarteredInTheUnitedStates
p41
aVhttp://dbpedia.org/class/yago/NaturalGasCompaniesOfTheUnitedStates
p42
aVhttp://dbpedia.org/class/yago/OilCompaniesOfTheUnitedStates
p43
aVhttp://dbpedia.org/class/yago/YagoLegalActor
p44
aVhttp://dbpedia.org/class/yago/PubliclyTradedCompaniesOfTheUnitedStates
p45
aVhttp://dbpedia.org/class/yago/Service108186047
p46
aVhttp://dbpedia.org/resource/ExxonMobil
tp47
aa(lp48
((lVhttp://dbpedia.org/resource/Oil_refinery
tp49
aa(lp50
a(lp51
a(lp52
aa(lp53
(lp54
a(lp55
a(lp56
((lVhttp://dbpedia.org/resource/Oil_refinery
tp57
aa(lp58
((lp59
Vhttp://www.w3.org/2002/07/owl#Thing
p60
aVhttp://xmlns.com/foaf/0.1/Person
p61
aVhttp://dbpedia.org/ontology/Person
p62
aVhttp://www.ontologydesignpatterns.org/ont/dul/DUL.owl#Agent
p63
aVhttp://www.ontologydesignpatterns.org/ont/dul/DUL.owl#NaturalPerson
p64
aVhttp://www.wikidata.org/entity/Q215627
p65
aVhttp://www.wikidata.org/entity/Q5
p66
aVhttp://dbpedia.org/ontology/Agent
p67
aVhttp://schema.org/Person
p68
aVhttp://dbpedia.org/class/yago/CausalAgent100007347
p69
aVhttp://dbpedia.org/class/yago/LivingThing100004258
p70
aVhttp://dbpedia.org/class/yago/Object100002684
p71
aVhttp://dbpedia.org/class/yago/Organism100004475
p72
aVhttp://dbpedia.org/class/yago/Person100007846
p73
aVhttp://dbpedia.org/class/yago/Whole100003553
p74
aVhttp://dbpedia.org/class/yago/YagoLegalActorGeo
p75
aVhttp://dbpedia.org/class/yago/PhysicalEntity100001930
p76
aVhttp://dbpedia.org/class/yago/PeopleFromJakarta
p77
aVhttp://dbpedia.org/class/yago/YagoLegalActor
p78
aVhttp://dbpedia.org/resource/Jean_Baptiste_August_Kessler
tp79
aa(lp80
a(lp81
aa(lp82
(lp83
a(lp84
a(lp85
((lVhttp://dbpedia.org/resource/Oil_refinery
tp86
aa(lp87
a(lp88
a(lp89
aa(lp90
(lp91
a(lp92
a(lp93
a(lp94
a(lp95
a(lp96
aa(lp97
(lp98
a(lp99
a(lp100
((lVhttp://dbpedia.org/resource/Oil_refinery
tp101
aa(lp102
a(lp103
a(lp104
aa(lp105
(lp106
a(lp107
a(lp108
a(lp109
a(lp110
a(lp111
aa(lp112
(lp113
a(lp114
a(lp115
((lVhttp://dbpedia.org/resource/Oil_refinery
tp116
aa(lp117
a(lp118
a(lp119
aa(lp120
(lp121
a(lp122
((lp123
Vhttp://www.w3.org/2002/07/owl#Thing
p124
aVhttp://dbpedia.org/ontology/Company
p125
aVhttp://www.ontologydesignpatterns.org/ont/dul/DUL.owl#Agent
p126
aVhttp://www.ontologydesignpatterns.org/ont/dul/DUL.owl#SocialPerson
p127
aVhttp://www.wikidata.org/entity/Q43229
p128
aVhttp://dbpedia.org/ontology/Agent
p129
aVhttp://dbpedia.org/ontology/Organisation
p130
aVhttp://schema.org/Organization
p131
aVhttp://umbel.org/umbel/rc/Business
p132
aVhttp://umbel.org/umbel/rc/Organization
p133
aVhttp://dbpedia.org/class/yago/Abstraction100002137
p134
aVhttp://dbpedia.org/class/yago/BatteryElectricVehicleManufacturers
p135
aVhttp://dbpedia.org/class/yago/Business108061042
p136
aVhttp://dbpedia.org/class/yago/CarManufacturer108066763
p137
aVhttp://dbpedia.org/class/yago/CarManufacturersOfTheUnitedStates
p138
aVhttp://dbpedia.org/class/yago/Company108058098
p139
aVhttp://dbpedia.org/class/yago/Enterprise108056231
p140
aVhttp://dbpedia.org/class/yago/Group100031264
p141
aVhttp://dbpedia.org/class/yago/HoldingCompany108185369
p142
aVhttp://dbpedia.org/class/yago/Institution108053576
p143
aVhttp://dbpedia.org/class/yago/Manufacturer108060446
p144
aVhttp://dbpedia.org/class/yago/Organization108008335
p145
aVhttp://dbpedia.org/class/yago/SocialGroup107950920
p146
aVhttp://dbpedia.org/class/yago/YagoLegalActorGeo
p147
aVhttp://dbpedia.org/class/yago/CompaniesBasedInDetroit,Michigan
p148
aVhttp://dbpedia.org/class/yago/CompaniesEstablishedIn1908
p149
aVhttp://dbpedia.org/class/yago/CompaniesEstablishedIn2009
p150
aVhttp://dbpedia.org/class/yago/ElectricVehicleManufacturers
p151
aVhttp://dbpedia.org/class/yago/YagoPermanentlyLocatedEntity
p152
aVhttp://dbpedia.org/class/yago/HoldingCompanies
p153
aVhttp://dbpedia.org/class/yago/HybridElectricBusManufacturers
p154
aVhttp://dbpedia.org/class/yago/MotorVehicleManufacturersBasedInMichigan
p155
aVhttp://dbpedia.org/class/yago/MotorVehicleManufacturersOfTheUnitedStates
p156
aVhttp://dbpedia.org/class/yago/YagoLegalActor
p157
aVhttp://dbpedia.org/class/yago/Re-establishedCompanies
p158
aVhttp://dbpedia.org/resource/General_Motors
tp159
aa(lp160
a(lp161
a(lp162
a(lp163
aa(lp164
(lp165
a(lp166
((lp167
Vhttp://www.w3.org/2002/07/owl#Thing
p168
aVhttp://dbpedia.org/ontology/Company
p169
aVhttp://www.ontologydesignpatterns.org/ont/dul/DUL.owl#Agent
p170
aVhttp://www.ontologydesignpatterns.org/ont/dul/DUL.owl#SocialPerson
p171
aVhttp://www.wikidata.org/entity/Q43229
p172
aVhttp://dbpedia.org/ontology/Agent
p173
aVhttp://dbpedia.org/ontology/Organisation
p174
aVhttp://schema.org/Organization
p175
aVhttp://umbel.org/umbel/rc/Business
p176
aVhttp://umbel.org/umbel/rc/Organization
p177
aVhttp://dbpedia.org/class/yago/Abstraction100002137
p178
aVhttp://dbpedia.org/class/yago/Company108058098
p179
aVhttp://dbpedia.org/class/yago/Group100031264
p180
aVhttp://dbpedia.org/class/yago/Institution108053576
p181
aVhttp://dbpedia.org/class/yago/OilCompany108069241
p182
aVhttp://dbpedia.org/class/yago/Organization108008335
p183
aVhttp://dbpedia.org/class/yago/SocialGroup107950920
p184
aVhttp://dbpedia.org/class/yago/YagoLegalActorGeo
p185
aVhttp://dbpedia.org/class/yago/ChemicalCompaniesOfTheUnitedStates
p186
aVhttp://dbpedia.org/class/yago/CompaniesBasedInHouston,Texas
p187
aVhttp://dbpedia.org/class/yago/CompaniesEstablishedIn2002
p188
aVhttp://dbpedia.org/class/yago/YagoPermanentlyLocatedEntity
p189
aVhttp://dbpedia.org/class/yago/MultinationalCompaniesHeadquarteredInTheUnitedStates
p190
aVhttp://dbpedia.org/class/yago/OilCompaniesOfTheUnitedStates
p191
aVhttp://dbpedia.org/class/yago/YagoLegalActor
p192
aVhttp://dbpedia.org/class/yago/PubliclyTradedCompaniesOfTheUnitedStates
p193
aVhttp://dbpedia.org/resource/ConocoPhillips
tp194
aa(lp195
((lVhttp://dbpedia.org/resource/Oil_refinery
tp196
aa(lp197
a(lp198
a(lp199
aa(lp200
(lp201
a(lp202
a(lp203
a(lp204
a(lp205
a(lp206
aa(lp207
(lp208
a(lp209
((lp210
Vhttp://www.w3.org/2002/07/owl#Thing
p211
aVhttp://dbpedia.org/ontology/Company
p212
aVhttp://www.ontologydesignpatterns.org/ont/dul/DUL.owl#Agent
p213
aVhttp://www.ontologydesignpatterns.org/ont/dul/DUL.owl#SocialPerson
p214
aVhttp://www.wikidata.org/entity/Q43229
p215
aVhttp://dbpedia.org/ontology/Agent
p216
aVhttp://dbpedia.org/ontology/Organisation
p217
aVhttp://schema.org/Organization
p218
aVhttp://umbel.org/umbel/rc/Business
p219
aVhttp://umbel.org/umbel/rc/Organization
p220
aVhttp://dbpedia.org/class/yago/Abstraction100002137
p221
aVhttp://dbpedia.org/class/yago/Business108061042
p222
aVhttp://dbpedia.org/class/yago/Company108058098
p223
aVhttp://dbpedia.org/class/yago/Enterprise108056231
p224
aVhttp://dbpedia.org/class/yago/Group100031264
p225
aVhttp://dbpedia.org/class/yago/Institution108053576
p226
aVhttp://dbpedia.org/class/yago/Manufacturer108060446
p227
aVhttp://dbpedia.org/class/yago/Organization108008335
p228
aVhttp://dbpedia.org/class/yago/SocialGroup107950920
p229
aVhttp://dbpedia.org/class/yago/YagoLegalActorGeo
p230
aVhttp://dbpedia.org/class/yago/CompaniesBasedInFairfieldCounty,Connecticut
p231
aVhttp://dbpedia.org/class/yago/CompaniesEstablishedIn1892
p232
aVhttp://dbpedia.org/class/yago/CompaniesListedOnTheNewYorkStockExchange
p233
aVhttp://dbpedia.org/class/yago/ConglomerateCompanies
p234
aVhttp://dbpedia.org/class/yago/YagoPermanentlyLocatedEntity
p235
aVhttp://dbpedia.org/class/yago/GISCompanies
p236
aVhttp://dbpedia.org/class/yago/MarineEngineManufacturers
p237
aVhttp://dbpedia.org/class/yago/MedicalEquipmentManufacturers
p238
aVhttp://dbpedia.org/class/yago/PhotographyCompaniesOfTheUnitedStates
p239
aVhttp://dbpedia.org/class/yago/YagoLegalActor
p240
aVhttp://dbpedia.org/resource/General_Electric
tp241
aa(lp242
((lp243
Vhttp://dbpedia.org/class/yago/Abstraction100002137
p244
aVhttp://dbpedia.org/class/yago/Act100030358
p245
aVhttp://dbpedia.org/class/yago/Activity100407535
p246
aVhttp://dbpedia.org/class/yago/Event100029378
p247
aVhttp://dbpedia.org/class/yago/Service100577525
p248
aVhttp://dbpedia.org/class/yago/Work100575741
p249
aVhttp://dbpedia.org/class/yago/FinancialServices
p250
aVhttp://dbpedia.org/class/yago/PsychologicalFeature100023100
p251
aVhttp://dbpedia.org/class/yago/YagoPermanentlyLocatedEntity
p252
aVhttp://dbpedia.org/resource/Diversified_financial
tp253
aa(lp254
((lp255
Vhttp://www.w3.org/2002/07/owl#Thing
p256
aVhttp://xmlns.com/foaf/0.1/Person
p257
aVhttp://dbpedia.org/ontology/Person
p258
aVhttp://www.ontologydesignpatterns.org/ont/dul/DUL.owl#Agent
p259
aVhttp://www.ontologydesignpatterns.org/ont/dul/DUL.owl#NaturalPerson
p260
aVhttp://www.wikidata.org/entity/Q215627
p261
aVhttp://www.wikidata.org/entity/Q5
p262
aVhttp://dbpedia.org/ontology/Agent
p263
aVhttp://schema.org/Person
p264
aVhttp://umbel.org/umbel/rc/PersonWithOccupation
p265
aVhttp://dbpedia.org/class/yago/AmericanInventors
p266
aVhttp://dbpedia.org/class/yago/AmericanPeopleOfCanadianDescent
p267
aVhttp://dbpedia.org/class/yago/AmericanPeopleOfDutchDescent
p268
aVhttp://dbpedia.org/class/yago/AmericanPeopleOfEnglishDescent
p269
aVhttp://dbpedia.org/class/yago/AmericanPeopleOfScottishDescent
p270
aVhttp://dbpedia.org/class/yago/AmericanScientists
p271
aVhttp://dbpedia.org/class/yago/CausalAgent100007347
p272
aVhttp://dbpedia.org/class/yago/Creator109614315
p273
aVhttp://dbpedia.org/class/yago/Inventor110214637
p274
aVhttp://dbpedia.org/class/yago/LivingThing100004258
p275
aVhttp://dbpedia.org/class/yago/NonreligiousPerson109625789
p276
aVhttp://dbpedia.org/class/yago/Object100002684
p277
aVhttp://dbpedia.org/class/yago/Organism100004475
p278
aVhttp://dbpedia.org/class/yago/Person100007846
p279
aVhttp://dbpedia.org/class/yago/Pioneer110434725
p280
aVhttp://dbpedia.org/class/yago/Scientist110560637
p281
aVhttp://dbpedia.org/class/yago/Whole100003553
p282
aVhttp://dbpedia.org/class/yago/YagoLegalActorGeo
p283
aVhttp://dbpedia.org/class/yago/CinemaPioneers
p284
aVhttp://dbpedia.org/class/yago/DeafPeople
p285
aVhttp://dbpedia.org/class/yago/DeafPerson109996481
p286
aVhttp://dbpedia.org/class/yago/Deist110000459
p287
aVhttp://dbpedia.org/class/yago/Deists
p288
aVhttp://dbpedia.org/class/yago/Originator110383816
p289
aVhttp://dbpedia.org/class/yago/PhysicalEntity100001930
p290
aVhttp://dbpedia.org/class/yago/PeopleAssociatedWithElectricity
p291
aVhttp://dbpedia.org/class/yago/PeopleFromFortMyers,Florida
p292
aVhttp://dbpedia.org/class/yago/PeopleFromMilan,Ohio
p293
aVhttp://dbpedia.org/class/yago/PeopleOfUnitedEmpireLoyalistDescent
p294
aVhttp://dbpedia.org/class/yago/YagoLegalActor
p295
aVhttp://dbpedia.org/resource/Thomas_Edison
tp296
aa(lp297
a(lp298
aa(lp299
(lp300
a(lp301
a(lp302
a(lp303
a(lp304
a(lp305
aa(lp306
(lp307
a(lp308
a(lp309
a(lp310
a(lp311
a(lp312
aa(lp313
(lp314
a(lp315
a(lp316
a(lp317
a(lp318
a(lp319
aa(lp320
(lp321
a(lp322
a(lp323
((lVhttp://dbpedia.org/resource/Oil_refinery
tp324
aa(lp325
a(lp326
a(lp327
aa(lp328
(lp329
a(lp330
a(lp331
a(lp332
a(lp333
a(lp334
aa(lp335
(lp336
a(lp337
a(lp338
a(lp339
((lp340
Vhttp://www.w3.org/2002/07/owl#Thing
p341
aVhttp://xmlns.com/foaf/0.1/Person
p342
aVhttp://dbpedia.org/ontology/Person
p343
aVhttp://www.ontologydesignpatterns.org/ont/dul/DUL.owl#Agent
p344
aVhttp://www.ontologydesignpatterns.org/ont/dul/DUL.owl#NaturalPerson
p345
aVhttp://www.wikidata.org/entity/Q215627
p346
aVhttp://www.wikidata.org/entity/Q5
p347
aVhttp://www.wikidata.org/entity/Q81096
p348
aVhttp://dbpedia.org/ontology/Agent
p349
aVhttp://dbpedia.org/ontology/Engineer
p350
aVhttp://schema.org/Person
p351
aVhttp://dbpedia.org/class/yago/AustrianEmigrantsToGermany
p352
aVhttp://dbpedia.org/class/yago/AustrianEngineers
p353
aVhttp://dbpedia.org/class/yago/AustrianPeopleOfBohemianGermanDescent
p354
aVhttp://dbpedia.org/class/yago/AutomotivePioneers
p355
aVhttp://dbpedia.org/class/yago/Bohemian-GermanPeople
p356
aVhttp://dbpedia.org/class/yago/CausalAgent100007347
p357
aVhttp://dbpedia.org/class/yago/Creator109614315
p358
aVhttp://dbpedia.org/class/yago/Emigrant110051975
p359
aVhttp://dbpedia.org/class/yago/Engineer109615807
p360
aVhttp://dbpedia.org/class/yago/Expert109617867
p361
aVhttp://dbpedia.org/class/yago/InteriorDesigner110210648
p362
aVhttp://dbpedia.org/class/yago/Inventor110214637
p363
aVhttp://dbpedia.org/class/yago/LivingThing100004258
p364
aVhttp://dbpedia.org/class/yago/MilitaryOfficer110317007
p365
aVhttp://dbpedia.org/class/yago/Object100002684
p366
aVhttp://dbpedia.org/class/yago/Organism100004475
p367
aVhttp://dbpedia.org/class/yago/Person100007846
p368
aVhttp://dbpedia.org/class/yago/Pioneer110434725
p369
aVhttp://dbpedia.org/class/yago/Serviceman110582746
p370
aVhttp://dbpedia.org/class/yago/SkilledWorker110605985
p371
aVhttp://dbpedia.org/class/yago/Specialist110631941
p372
aVhttp://dbpedia.org/class/yago/Traveler109629752
p373
aVhttp://dbpedia.org/class/yago/Whole100003553
p374
aVhttp://dbpedia.org/class/yago/Worker109632518
p375
aVhttp://dbpedia.org/class/yago/YagoLegalActorGeo
p376
aVhttp://dbpedia.org/class/yago/Migrant110314952
p377
aVhttp://dbpedia.org/class/yago/Originator110383816
p378
aVhttp://dbpedia.org/class/yago/PhysicalEntity100001930
p379
aVhttp://dbpedia.org/class/yago/GermanAutomobileDesigners
p380
aVhttp://dbpedia.org/class/yago/GermanInventors
p381
aVhttp://dbpedia.org/class/yago/GermanPeopleOfBohemianGermanDescent
p382
aVhttp://dbpedia.org/class/yago/PeopleFromLiberecDistrict
p383
aVhttp://dbpedia.org/class/yago/YagoLegalActor
p384
aVhttp://dbpedia.org/class/yago/SSOfficers
p385
aVhttp://dbpedia.org/resource/Ferdinand_Porsche
tp386
aa(lp387
a(lp388
aa(lp389
(lp390
a(lp391
a(lp392
a(lp393
a(lp394
a(lp395
aa(lp396
(lp397
a(lp398
((lp399
Vhttp://www.w3.org/2002/07/owl#Thing
p400
aVhttp://dbpedia.org/ontology/Company
p401
aVhttp://www.ontologydesignpatterns.org/ont/dul/DUL.owl#Agent
p402
aVhttp://www.ontologydesignpatterns.org/ont/dul/DUL.owl#SocialPerson
p403
aVhttp://www.wikidata.org/entity/Q43229
p404
aVhttp://dbpedia.org/ontology/Agent
p405
aVhttp://dbpedia.org/ontology/Bank
p406
aVhttp://dbpedia.org/ontology/Organisation
p407
aVhttp://schema.org/BankOrCreditUnion
p408
aVhttp://schema.org/Organization
p409
aVhttp://umbel.org/umbel/rc/Business
p410
aVhttp://umbel.org/umbel/rc/Organization
p411
aVhttp://dbpedia.org/class/yago/Abstraction100002137
p412
aVhttp://dbpedia.org/class/yago/BanksEstablishedIn1865
p413
aVhttp://dbpedia.org/class/yago/Company108058098
p414
aVhttp://dbpedia.org/class/yago/DepositoryFinancialInstitution108420278
p415
aVhttp://dbpedia.org/class/yago/FinancialInstitution108054721
p416
aVhttp://dbpedia.org/class/yago/Group100031264
p417
aVhttp://dbpedia.org/class/yago/HoldingCompany108185369
p418
aVhttp://dbpedia.org/class/yago/Institution108053576
p419
aVhttp://dbpedia.org/class/yago/Organization108008335
p420
aVhttp://dbpedia.org/class/yago/SocialGroup107950920
p421
aVhttp://dbpedia.org/class/yago/YagoLegalActorGeo
p422
aVhttp://dbpedia.org/class/yago/CompaniesListedOnTheLondonStockExchange
p423
aVhttp://dbpedia.org/class/yago/CompaniesListedOnTheNewYorkStockExchange
p424
aVhttp://dbpedia.org/class/yago/CompaniesOfHongKong
p425
aVhttp://dbpedia.org/class/yago/FinancialServicesCompaniesBasedInLondon
p426
aVhttp://dbpedia.org/class/yago/YagoPermanentlyLocatedEntity
p427
aVhttp://dbpedia.org/class/yago/HoldingCompanies
p428
aVhttp://dbpedia.org/class/yago/HoldingCompaniesEstablishedIn1991
p429
aVhttp://dbpedia.org/class/yago/HoldingCompaniesOfUnitedKingdom
p430
aVhttp://dbpedia.org/class/yago/InvestmentBanks
p431
aVhttp://dbpedia.org/class/yago/YagoLegalActor
p432
aVhttp://dbpedia.org/class/yago/RegisteredBanksOfNewZealand
p433
aVhttp://dbpedia.org/resource/HSBC
tp434
aa(lp435
a(lp436
((lp437
Vhttp://www.w3.org/2002/07/owl#Thing
p438
aVhttp://xmlns.com/foaf/0.1/Person
p439
aVhttp://dbpedia.org/ontology/Person
p440
aVhttp://www.ontologydesignpatterns.org/ont/dul/DUL.owl#Agent
p441
aVhttp://www.ontologydesignpatterns.org/ont/dul/DUL.owl#NaturalPerson
p442
aVhttp://www.wikidata.org/entity/Q215627
p443
aVhttp://www.wikidata.org/entity/Q5
p444
aVhttp://dbpedia.org/ontology/Agent
p445
aVhttp://schema.org/Person
p446
aVhttp://dbpedia.org/class/yago/AlumniOfTheUniversityOfAberdeen
p447
aVhttp://dbpedia.org/class/yago/Alumnus109786338
p448
aVhttp://dbpedia.org/class/yago/Banker109837824
p449
aVhttp://dbpedia.org/class/yago/Capitalist109609232
p450
aVhttp://dbpedia.org/class/yago/CausalAgent100007347
p451
aVhttp://dbpedia.org/class/yago/Financier110090020
p452
aVhttp://dbpedia.org/class/yago/Intellectual109621545
p453
aVhttp://dbpedia.org/class/yago/LivingThing100004258
p454
aVhttp://dbpedia.org/class/yago/Object100002684
p455
aVhttp://dbpedia.org/class/yago/Organism100004475
p456
aVhttp://dbpedia.org/class/yago/Person100007846
p457
aVhttp://dbpedia.org/class/yago/Scholar110557854
p458
aVhttp://dbpedia.org/class/yago/Whole100003553
p459
aVhttp://dbpedia.org/class/yago/YagoLegalActorGeo
p460
aVhttp://dbpedia.org/class/yago/PhysicalEntity100001930
p461
aVhttp://dbpedia.org/class/yago/HSBCPeople
p462
aVhttp://dbpedia.org/class/yago/YagoLegalActor
p463
aVhttp://dbpedia.org/class/yago/ScottishBankers
p464
aVhttp://dbpedia.org/resource/Thomas_Sutherland_(banker)
p465
tp466
aa(lp467
a(lp468
aa.