(lp1
(dp2
I0
(dp3
I0
(lp4
sI1
(lp5
sI2
(lp6
sI3
(lp7
sI4
(lp8
ssI1
(dp9
I0
g5
sI1
(lp10
sI2
(lp11
sI3
(lp12
sI4
(lp13
ssI2
(dp14
I0
g6
sI1
g11
sI2
(lp15
sI3
(lp16
sI4
(lp17
ssI3
(dp18
I0
g7
sI1
g12
sI2
g16
sI3
(lp19
sI4
(lp20
ssI4
(dp21
I0
g8
sI1
g13
sI2
g17
sI3
g20
sI4
(lp22
ssa(dp23
I0
(dp24
I0
(lp25
sI1
(lp26
sI2
(lp27
sI3
(lp28
sI4
(lp29
ssI1
(dp30
I0
g26
sI1
(lp31
sI2
(lp32
sI3
(lp33
sI4
(lp34
ssI2
(dp35
I0
g27
sI1
g32
sI2
(lp36
sI3
(lp37
sI4
(lp38
ssI3
(dp39
I0
g28
sI1
g33
sI2
g37
sI3
(lp40
sI4
(lp41
ssI4
(dp42
I0
g29
sI1
g34
sI2
g38
sI3
g41
sI4
(lp43
ssa(dp44
I0
(dp45
I0
(lp46
sI1
(lp47
sI2
(lp48
sI3
(lp49
sI4
(lp50
ssI1
(dp51
I0
g47
sI1
(lp52
sI2
(lp53
sI3
(lp54
sI4
(lp55
ssI2
(dp56
I0
g48
sI1
g53
sI2
(lp57
sI3
(lp58
sI4
(lp59
ssI3
(dp60
I0
g49
sI1
g54
sI2
g58
sI3
(lp61
sI4
(lp62
ssI4
(dp63
I0
g50
sI1
g55
sI2
g59
sI3
g62
sI4
(lp64
ssa(dp65
I0
(dp66
I0
(lp67
sI1
(lp68
sI2
(lp69
sI3
(lp70
sI4
(lp71
ssI1
(dp72
I0
g68
sI1
(lp73
sI2
(lp74
sI3
(lp75
sI4
(lp76
ssI2
(dp77
I0
g69
sI1
g74
sI2
(lp78
sI3
(lp79
sI4
(lp80
ssI3
(dp81
I0
g70
sI1
g75
sI2
g79
sI3
(lp82
sI4
(lp83
ssI4
(dp84
I0
g71
sI1
g76
sI2
g80
sI3
g83
sI4
(lp85
ssa(dp86
I0
(dp87
I0
(lp88
sI1
(lp89
sI2
(lp90
sI3
(lp91
sI4
(lp92
ssI1
(dp93
I0
g89
sI1
(lp94
sI2
(lp95
sI3
(lp96
sI4
(lp97
ssI2
(dp98
I0
g90
sI1
g95
sI2
(lp99
sI3
(lp100
sI4
(lp101
ssI3
(dp102
I0
g91
sI1
g96
sI2
g100
sI3
(lp103
sI4
(lp104
ssI4
(dp105
I0
g92
sI1
g97
sI2
g101
sI3
g104
sI4
(lp106
ssa(dp107
I0
(dp108
I0
(lp109
sI1
(lp110
sI2
(lp111
sI3
(lp112
sI4
(lp113
ssI1
(dp114
I0
g110
sI1
(lp115
sI2
(lp116
sI3
(lp117
sI4
(lp118
ssI2
(dp119
I0
g111
sI1
g116
sI2
(lp120
sI3
(lp121
sI4
(lp122
ssI3
(dp123
I0
g112
sI1
g117
sI2
g121
sI3
(lp124
sI4
(lp125
ssI4
(dp126
I0
g113
sI1
g118
sI2
g122
sI3
g125
sI4
(lp127
ssa(dp128
I0
(dp129
I0
(lp130
sI1
(lp131
sI2
(lp132
sI3
(lp133
sI4
(lp134
ssI1
(dp135
I1
(lp136
sI2
(lp137
sI3
(lp138
sI4
(lp139
ssI2
(dp140
I2
(lp141
sI3
(lp142
sI4
(lp143
ssI3
(dp144
I3
(lp145
sI4
(lp146
ssI4
(dp147
I4
(lp148
ssa.