(lp1
(lp2
a(lp3
a(lp4
a(lp5
a(lp6
a(lp7
a(lp8
a(lp9
a(lp10
a(lp11
a(lp12
(dp13
Vstart
p14
I0
sS'classes'
p15
(lp16
Vhttp://www.w3.org/2002/07/owl#Thing
p17
aVhttp://dbpedia.org/ontology/Place
p18
aVhttp://dbpedia.org/ontology/Location
p19
aVhttp://www.wikidata.org/entity/Q486972
p20
aVhttp://www.wikidata.org/entity/Q6256
p21
aVhttp://dbpedia.org/ontology/Country
p22
aVhttp://dbpedia.org/ontology/PopulatedPlace
p23
aVhttp://www.w3.org/2003/01/geo/wgs84_pos#SpatialThing
p24
aVhttp://schema.org/Country
p25
aVhttp://schema.org/Place
p26
aVhttp://umbel.org/umbel/rc/Country
p27
aVhttp://umbel.org/umbel/rc/Location_Underspecified
p28
aVhttp://umbel.org/umbel/rc/PopulatedPlace
p29
aVhttp://dbpedia.org/class/yago/Abstraction100002137
p30
aVhttp://dbpedia.org/class/yago/AdministrativeDistrict108491826
p31
aVhttp://dbpedia.org/class/yago/Country108544813
p32
aVhttp://dbpedia.org/class/yago/District108552138
p33
aVhttp://dbpedia.org/class/yago/Economy108366753
p34
aVhttp://dbpedia.org/class/yago/Group100031264
p35
aVhttp://dbpedia.org/class/yago/Location100027167
p36
aVhttp://dbpedia.org/class/yago/Object100002684
p37
aVhttp://dbpedia.org/class/yago/Region108630985
p38
aVhttp://dbpedia.org/class/yago/System108435388
p39
aVhttp://dbpedia.org/class/yago/YagoGeoEntity
p40
aVhttp://dbpedia.org/class/yago/YagoLegalActorGeo
p41
aVhttp://dbpedia.org/class/yago/English-speakingCountriesAndTerritories
p42
aVhttp://dbpedia.org/class/yago/PhysicalEntity100001930
p43
aVhttp://dbpedia.org/class/yago/YagoPermanentlyLocatedEntity
p44
aVhttp://dbpedia.org/class/yago/Hindustani-speakingCountriesAndTerritories
p45
aVhttp://dbpedia.org/class/yago/IslandCountries
p46
aVhttp://dbpedia.org/class/yago/MemberStatesOfTheUnitedNations
p47
aVhttp://dbpedia.org/class/yago/OceanianCountries
p48
aVhttp://dbpedia.org/class/yago/StatesAndTerritoriesEstablishedIn1970
p49
aVhttp://dbpedia.org/class/yago/WorldTradeOrganizationMemberEconomies
p50
asVdisambiguatedURL
p51
Vhttp://dbpedia.org/resource/Fiji
p52
sVnamedEntity
p53
VFiji Islands
p54
sVoffset
p55
I12
saa(lp56
(dp57
Vstart
p58
I0
sg15
(lp59
Vhttp://www.w3.org/2002/07/owl#Thing
p60
aVhttp://dbpedia.org/ontology/Place
p61
aVhttp://dbpedia.org/ontology/Location
p62
aVhttp://www.wikidata.org/entity/Q486972
p63
aVhttp://www.wikidata.org/entity/Q6256
p64
aVhttp://dbpedia.org/ontology/Country
p65
aVhttp://dbpedia.org/ontology/PopulatedPlace
p66
aVhttp://www.w3.org/2003/01/geo/wgs84_pos#SpatialThing
p67
aVhttp://schema.org/Country
p68
aVhttp://schema.org/Place
p69
aVhttp://umbel.org/umbel/rc/Country
p70
aVhttp://umbel.org/umbel/rc/Location_Underspecified
p71
aVhttp://umbel.org/umbel/rc/PopulatedPlace
p72
aVhttp://dbpedia.org/class/yago/Abstraction100002137
p73
aVhttp://dbpedia.org/class/yago/AdministrativeDistrict108491826
p74
aVhttp://dbpedia.org/class/yago/Country108544813
p75
aVhttp://dbpedia.org/class/yago/District108552138
p76
aVhttp://dbpedia.org/class/yago/Economy108366753
p77
aVhttp://dbpedia.org/class/yago/Group100031264
p78
aVhttp://dbpedia.org/class/yago/Location100027167
p79
aVhttp://dbpedia.org/class/yago/Object100002684
p80
aVhttp://dbpedia.org/class/yago/Region108630985
p81
aVhttp://dbpedia.org/class/yago/System108435388
p82
aVhttp://dbpedia.org/class/yago/YagoGeoEntity
p83
aVhttp://dbpedia.org/class/yago/YagoLegalActorGeo
p84
aVhttp://dbpedia.org/class/yago/English-speakingCountriesAndTerritories
p85
aVhttp://dbpedia.org/class/yago/PhysicalEntity100001930
p86
aVhttp://dbpedia.org/class/yago/YagoPermanentlyLocatedEntity
p87
aVhttp://dbpedia.org/class/yago/Hindustani-speakingCountriesAndTerritories
p88
aVhttp://dbpedia.org/class/yago/IslandCountries
p89
aVhttp://dbpedia.org/class/yago/MemberStatesOfTheUnitedNations
p90
aVhttp://dbpedia.org/class/yago/OceanianCountries
p91
aVhttp://dbpedia.org/class/yago/StatesAndTerritoriesEstablishedIn1970
p92
aVhttp://dbpedia.org/class/yago/WorldTradeOrganizationMemberEconomies
p93
asVdisambiguatedURL
p94
Vhttp://dbpedia.org/resource/Fiji
p95
sVnamedEntity
p96
VFiji Islands
p97
sVoffset
p98
I12
saa(lp99
(dp100
Vstart
p101
I0
sg15
(lp102
Vhttp://www.w3.org/2002/07/owl#Thing
p103
aVhttp://dbpedia.org/ontology/Place
p104
aVhttp://dbpedia.org/ontology/Location
p105
aVhttp://www.wikidata.org/entity/Q486972
p106
aVhttp://www.wikidata.org/entity/Q6256
p107
aVhttp://dbpedia.org/ontology/Country
p108
aVhttp://dbpedia.org/ontology/PopulatedPlace
p109
aVhttp://www.w3.org/2003/01/geo/wgs84_pos#SpatialThing
p110
aVhttp://schema.org/Country
p111
aVhttp://schema.org/Place
p112
aVhttp://umbel.org/umbel/rc/Country
p113
aVhttp://umbel.org/umbel/rc/Location_Underspecified
p114
aVhttp://umbel.org/umbel/rc/PopulatedPlace
p115
aVhttp://dbpedia.org/class/yago/Abstraction100002137
p116
aVhttp://dbpedia.org/class/yago/AdministrativeDistrict108491826
p117
aVhttp://dbpedia.org/class/yago/Country108544813
p118
aVhttp://dbpedia.org/class/yago/District108552138
p119
aVhttp://dbpedia.org/class/yago/Economy108366753
p120
aVhttp://dbpedia.org/class/yago/Group100031264
p121
aVhttp://dbpedia.org/class/yago/Location100027167
p122
aVhttp://dbpedia.org/class/yago/Object100002684
p123
aVhttp://dbpedia.org/class/yago/Region108630985
p124
aVhttp://dbpedia.org/class/yago/System108435388
p125
aVhttp://dbpedia.org/class/yago/YagoGeoEntity
p126
aVhttp://dbpedia.org/class/yago/YagoLegalActorGeo
p127
aVhttp://dbpedia.org/class/yago/English-speakingCountriesAndTerritories
p128
aVhttp://dbpedia.org/class/yago/PhysicalEntity100001930
p129
aVhttp://dbpedia.org/class/yago/YagoPermanentlyLocatedEntity
p130
aVhttp://dbpedia.org/class/yago/Hindustani-speakingCountriesAndTerritories
p131
aVhttp://dbpedia.org/class/yago/IslandCountries
p132
aVhttp://dbpedia.org/class/yago/MemberStatesOfTheUnitedNations
p133
aVhttp://dbpedia.org/class/yago/OceanianCountries
p134
aVhttp://dbpedia.org/class/yago/StatesAndTerritoriesEstablishedIn1970
p135
aVhttp://dbpedia.org/class/yago/WorldTradeOrganizationMemberEconomies
p136
asVdisambiguatedURL
p137
Vhttp://dbpedia.org/resource/Fiji
p138
sVnamedEntity
p139
VFiji Islands
p140
sVoffset
p141
I12
saa(lp142
(dp143
Vstart
p144
I0
sg15
(lp145
Vhttp://www.w3.org/2002/07/owl#Thing
p146
aVhttp://dbpedia.org/ontology/Place
p147
aVhttp://dbpedia.org/ontology/Location
p148
aVhttp://www.wikidata.org/entity/Q486972
p149
aVhttp://www.wikidata.org/entity/Q6256
p150
aVhttp://dbpedia.org/ontology/Country
p151
aVhttp://dbpedia.org/ontology/PopulatedPlace
p152
aVhttp://www.w3.org/2003/01/geo/wgs84_pos#SpatialThing
p153
aVhttp://schema.org/Country
p154
aVhttp://schema.org/Place
p155
aVhttp://umbel.org/umbel/rc/Country
p156
aVhttp://umbel.org/umbel/rc/Location_Underspecified
p157
aVhttp://umbel.org/umbel/rc/PopulatedPlace
p158
aVhttp://dbpedia.org/class/yago/Abstraction100002137
p159
aVhttp://dbpedia.org/class/yago/AdministrativeDistrict108491826
p160
aVhttp://dbpedia.org/class/yago/Country108544813
p161
aVhttp://dbpedia.org/class/yago/District108552138
p162
aVhttp://dbpedia.org/class/yago/Economy108366753
p163
aVhttp://dbpedia.org/class/yago/Group100031264
p164
aVhttp://dbpedia.org/class/yago/Location100027167
p165
aVhttp://dbpedia.org/class/yago/Object100002684
p166
aVhttp://dbpedia.org/class/yago/Region108630985
p167
aVhttp://dbpedia.org/class/yago/System108435388
p168
aVhttp://dbpedia.org/class/yago/YagoGeoEntity
p169
aVhttp://dbpedia.org/class/yago/YagoLegalActorGeo
p170
aVhttp://dbpedia.org/class/yago/English-speakingCountriesAndTerritories
p171
aVhttp://dbpedia.org/class/yago/PhysicalEntity100001930
p172
aVhttp://dbpedia.org/class/yago/YagoPermanentlyLocatedEntity
p173
aVhttp://dbpedia.org/class/yago/Hindustani-speakingCountriesAndTerritories
p174
aVhttp://dbpedia.org/class/yago/IslandCountries
p175
aVhttp://dbpedia.org/class/yago/MemberStatesOfTheUnitedNations
p176
aVhttp://dbpedia.org/class/yago/OceanianCountries
p177
aVhttp://dbpedia.org/class/yago/StatesAndTerritoriesEstablishedIn1970
p178
aVhttp://dbpedia.org/class/yago/WorldTradeOrganizationMemberEconomies
p179
asVdisambiguatedURL
p180
Vhttp://dbpedia.org/resource/Fiji
p181
sVnamedEntity
p182
VFiji Islands
p183
sVoffset
p184
I12
saa(lp185
(dp186
Vstart
p187
I0
sg15
(lp188
Vhttp://www.w3.org/2002/07/owl#Thing
p189
aVhttp://dbpedia.org/ontology/Place
p190
aVhttp://dbpedia.org/ontology/Location
p191
aVhttp://www.wikidata.org/entity/Q486972
p192
aVhttp://www.wikidata.org/entity/Q6256
p193
aVhttp://dbpedia.org/ontology/Country
p194
aVhttp://dbpedia.org/ontology/PopulatedPlace
p195
aVhttp://www.w3.org/2003/01/geo/wgs84_pos#SpatialThing
p196
aVhttp://schema.org/Country
p197
aVhttp://schema.org/Place
p198
aVhttp://umbel.org/umbel/rc/Country
p199
aVhttp://umbel.org/umbel/rc/Location_Underspecified
p200
aVhttp://umbel.org/umbel/rc/PopulatedPlace
p201
aVhttp://dbpedia.org/class/yago/Abstraction100002137
p202
aVhttp://dbpedia.org/class/yago/AdministrativeDistrict108491826
p203
aVhttp://dbpedia.org/class/yago/Country108544813
p204
aVhttp://dbpedia.org/class/yago/District108552138
p205
aVhttp://dbpedia.org/class/yago/Economy108366753
p206
aVhttp://dbpedia.org/class/yago/Group100031264
p207
aVhttp://dbpedia.org/class/yago/Location100027167
p208
aVhttp://dbpedia.org/class/yago/Object100002684
p209
aVhttp://dbpedia.org/class/yago/Region108630985
p210
aVhttp://dbpedia.org/class/yago/System108435388
p211
aVhttp://dbpedia.org/class/yago/YagoGeoEntity
p212
aVhttp://dbpedia.org/class/yago/YagoLegalActorGeo
p213
aVhttp://dbpedia.org/class/yago/English-speakingCountriesAndTerritories
p214
aVhttp://dbpedia.org/class/yago/PhysicalEntity100001930
p215
aVhttp://dbpedia.org/class/yago/YagoPermanentlyLocatedEntity
p216
aVhttp://dbpedia.org/class/yago/Hindustani-speakingCountriesAndTerritories
p217
aVhttp://dbpedia.org/class/yago/IslandCountries
p218
aVhttp://dbpedia.org/class/yago/MemberStatesOfTheUnitedNations
p219
aVhttp://dbpedia.org/class/yago/OceanianCountries
p220
aVhttp://dbpedia.org/class/yago/StatesAndTerritoriesEstablishedIn1970
p221
aVhttp://dbpedia.org/class/yago/WorldTradeOrganizationMemberEconomies
p222
asVdisambiguatedURL
p223
Vhttp://dbpedia.org/resource/Fiji
p224
sVnamedEntity
p225
VFiji Islands
p226
sVoffset
p227
I12
saa(lp228
(dp229
Vstart
p230
I0
sg15
(lp231
Vhttp://www.w3.org/2002/07/owl#Thing
p232
aVhttp://dbpedia.org/ontology/Place
p233
aVhttp://dbpedia.org/ontology/Location
p234
aVhttp://www.wikidata.org/entity/Q486972
p235
aVhttp://www.wikidata.org/entity/Q6256
p236
aVhttp://dbpedia.org/ontology/Country
p237
aVhttp://dbpedia.org/ontology/PopulatedPlace
p238
aVhttp://www.w3.org/2003/01/geo/wgs84_pos#SpatialThing
p239
aVhttp://schema.org/Country
p240
aVhttp://schema.org/Place
p241
aVhttp://umbel.org/umbel/rc/Country
p242
aVhttp://umbel.org/umbel/rc/Location_Underspecified
p243
aVhttp://umbel.org/umbel/rc/PopulatedPlace
p244
aVhttp://dbpedia.org/class/yago/Abstraction100002137
p245
aVhttp://dbpedia.org/class/yago/AdministrativeDistrict108491826
p246
aVhttp://dbpedia.org/class/yago/Country108544813
p247
aVhttp://dbpedia.org/class/yago/District108552138
p248
aVhttp://dbpedia.org/class/yago/Economy108366753
p249
aVhttp://dbpedia.org/class/yago/Group100031264
p250
aVhttp://dbpedia.org/class/yago/Location100027167
p251
aVhttp://dbpedia.org/class/yago/Object100002684
p252
aVhttp://dbpedia.org/class/yago/Region108630985
p253
aVhttp://dbpedia.org/class/yago/System108435388
p254
aVhttp://dbpedia.org/class/yago/YagoGeoEntity
p255
aVhttp://dbpedia.org/class/yago/YagoLegalActorGeo
p256
aVhttp://dbpedia.org/class/yago/English-speakingCountriesAndTerritories
p257
aVhttp://dbpedia.org/class/yago/PhysicalEntity100001930
p258
aVhttp://dbpedia.org/class/yago/YagoPermanentlyLocatedEntity
p259
aVhttp://dbpedia.org/class/yago/Hindustani-speakingCountriesAndTerritories
p260
aVhttp://dbpedia.org/class/yago/IslandCountries
p261
aVhttp://dbpedia.org/class/yago/MemberStatesOfTheUnitedNations
p262
aVhttp://dbpedia.org/class/yago/OceanianCountries
p263
aVhttp://dbpedia.org/class/yago/StatesAndTerritoriesEstablishedIn1970
p264
aVhttp://dbpedia.org/class/yago/WorldTradeOrganizationMemberEconomies
p265
asVdisambiguatedURL
p266
Vhttp://dbpedia.org/resource/Fiji
p267
sVnamedEntity
p268
VFiji Islands
p269
sVoffset
p270
I12
saa(lp271
(dp272
Vstart
p273
I0
sg15
(lp274
Vhttp://www.w3.org/2002/07/owl#Thing
p275
aVhttp://dbpedia.org/ontology/Place
p276
aVhttp://dbpedia.org/ontology/Location
p277
aVhttp://www.wikidata.org/entity/Q486972
p278
aVhttp://www.wikidata.org/entity/Q6256
p279
aVhttp://dbpedia.org/ontology/Country
p280
aVhttp://dbpedia.org/ontology/PopulatedPlace
p281
aVhttp://www.w3.org/2003/01/geo/wgs84_pos#SpatialThing
p282
aVhttp://schema.org/Country
p283
aVhttp://schema.org/Place
p284
aVhttp://umbel.org/umbel/rc/Country
p285
aVhttp://umbel.org/umbel/rc/Location_Underspecified
p286
aVhttp://umbel.org/umbel/rc/PopulatedPlace
p287
aVhttp://dbpedia.org/class/yago/Abstraction100002137
p288
aVhttp://dbpedia.org/class/yago/AdministrativeDistrict108491826
p289
aVhttp://dbpedia.org/class/yago/Country108544813
p290
aVhttp://dbpedia.org/class/yago/District108552138
p291
aVhttp://dbpedia.org/class/yago/Economy108366753
p292
aVhttp://dbpedia.org/class/yago/Group100031264
p293
aVhttp://dbpedia.org/class/yago/Location100027167
p294
aVhttp://dbpedia.org/class/yago/Object100002684
p295
aVhttp://dbpedia.org/class/yago/Region108630985
p296
aVhttp://dbpedia.org/class/yago/System108435388
p297
aVhttp://dbpedia.org/class/yago/YagoGeoEntity
p298
aVhttp://dbpedia.org/class/yago/YagoLegalActorGeo
p299
aVhttp://dbpedia.org/class/yago/English-speakingCountriesAndTerritories
p300
aVhttp://dbpedia.org/class/yago/PhysicalEntity100001930
p301
aVhttp://dbpedia.org/class/yago/YagoPermanentlyLocatedEntity
p302
aVhttp://dbpedia.org/class/yago/Hindustani-speakingCountriesAndTerritories
p303
aVhttp://dbpedia.org/class/yago/IslandCountries
p304
aVhttp://dbpedia.org/class/yago/MemberStatesOfTheUnitedNations
p305
aVhttp://dbpedia.org/class/yago/OceanianCountries
p306
aVhttp://dbpedia.org/class/yago/StatesAndTerritoriesEstablishedIn1970
p307
aVhttp://dbpedia.org/class/yago/WorldTradeOrganizationMemberEconomies
p308
asVdisambiguatedURL
p309
Vhttp://dbpedia.org/resource/Fiji
p310
sVnamedEntity
p311
VFiji Islands
p312
sVoffset
p313
I12
saa(lp314
a(lp315
a(lp316
(dp317
Vstart
p318
I0
sg15
(lp319
Vhttp://dbpedia.org/class/yago/Island109316454
p320
aVhttp://dbpedia.org/class/yago/Land109334396
p321
aVhttp://dbpedia.org/class/yago/Object100002684
p322
aVhttp://dbpedia.org/class/yago/YagoGeoEntity
p323
aVhttp://dbpedia.org/class/yago/PhysicalEntity100001930
p324
aVhttp://dbpedia.org/class/yago/YagoPermanentlyLocatedEntity
p325
aVhttp://dbpedia.org/class/yago/IslandsOfTheCookIslands
p326
asVdisambiguatedURL
p327
Vhttp://dbpedia.org/resource/Mangaia
p328
sVnamedEntity
p329
VMangaia Island
p330
sVoffset
p331
I14
saa.