(lp1
(lp2
(lp3
a(lp4
Vhttp://dbpedia.org/resource/English,_Indiana
p5
aa(lp6
a(lp7
a(lp8
aa(lp9
(lp10
a(lp11
Vhttp://dbpedia.org/resource/English,_Indiana
p12
aa(lp13
a(lp14
a(lp15
aa(lp16
(lp17
a(lp18
Vhttp://dbpedia.org/resource/English,_Indiana
p19
aa(lp20
a(lp21
a(lp22
aa(lp23
(lp24
a(lp25
Vhttp://dbpedia.org/resource/French_River_(Ontario)
p26
aa(lp27
a(lp28
a(lp29
aa(lp30
(lp31
a(lp32
Vhttp://dbpedia.org/resource/French_River_(Ontario)
p33
aa(lp34
a(lp35
a(lp36
aa(lp37
(lp38
a(lp39
Vhttp://dbpedia.org/resource/Japonic_languages
p40
aa(lp41
a(lp42
a(lp43
aa(lp44
(lp45
a(lp46
Vhttp://dbpedia.org/resource/Spanish,_Ontario
p47
aa(lp48
a(lp49
a(lp50
aa(lp51
(lp52
a(lp53
Vhttp://dbpedia.org/resource/Spanish,_Ontario
p54
aa(lp55
a(lp56
a(lp57
aa(lp58
(lp59
a(lp60
Vhttp://dbpedia.org/resource/English,_Indiana
p61
aa(lp62
a(lp63
a(lp64
aa(lp65
(lp66
a(lp67
Vhttp://dbpedia.org/resource/Spanish,_Ontario
p68
aa(lp69
a(lp70
a(lp71
aa(lp72
(lp73
Vhttp://dbpedia.org/resource/Fiji
p74
aa(lp75
Vhttp://dbpedia.org/resource/Culture_of_Fiji
p76
aa(lp77
a(lp78
a(lp79
aa(lp80
(lp81
Vhttp://dbpedia.org/resource/Fiji
p82
aa(lp83
Vhttp://dbpedia.org/resource/Culture_of_Fiji
p84
aa(lp85
a(lp86
a(lp87
aa(lp88
(lp89
Vhttp://dbpedia.org/resource/Fiji
p90
aa(lp91
Vhttp://dbpedia.org/resource/Culture_of_Fiji
p92
aa(lp93
a(lp94
a(lp95
aa(lp96
(lp97
Vhttp://dbpedia.org/resource/Fiji
p98
aa(lp99
Vhttp://dbpedia.org/resource/Culture_of_Fiji
p100
aa(lp101
a(lp102
a(lp103
aa(lp104
(lp105
Vhttp://dbpedia.org/resource/Fiji
p106
aa(lp107
Vhttp://dbpedia.org/resource/Culture_of_Fiji
p108
aa(lp109
a(lp110
a(lp111
aa(lp112
(lp113
Vhttp://dbpedia.org/resource/Fiji
p114
aa(lp115
Vhttp://dbpedia.org/resource/Culture_of_Fiji
p116
aa(lp117
a(lp118
a(lp119
aa(lp120
(lp121
Vhttp://dbpedia.org/resource/Fiji
p122
aa(lp123
Vhttp://dbpedia.org/resource/Culture_of_Fiji
p124
aa(lp125
a(lp126
a(lp127
aa(lp128
(lp129
a(lp130
Vhttp://dbpedia.org/resource/Eusebio_Chamorro
p131
aa(lp132
a(lp133
a(lp134
aa(lp135
(lp136
a(lp137
Vhttp://dbpedia.org/resource/English,_Indiana
p138
aa(lp139
a(lp140
a(lp141
aa(lp142
(lp143
Vhttp://dbpedia.org/resource/Mangaia
p144
aa(lp145
Vhttp://dbpedia.org/resource/Maina_(Cook_Islands)
p146
aa(lp147
a(lp148
a(lp149
aa.