(lp1
(lp2
(lp3
a(lp4
a(lp5
aa(lp6
(lp7
a(lp8
Vhttp://dbpedia.org/resource/Bedroom_Eyes_(musician)
p9
aa(lp10
aa(lp11
(lp12
a(lp13
Vhttp://dbpedia.org/resource/Girls_on_Top
p14
aa(lp15
aa(lp16
(lp17
a(lp18
a(lp19
aa(lp20
(lp21
a(lp22
a(lp23
aa(lp24
(lp25
Vhttp://dbpedia.org/resource/12:01_PM
p26
aa(lp27
a(lp28
aa(lp29
(lp30
a(lp31
a(lp32
aa(lp33
(lp34
a(lp35
a(lp36
aa(lp37
(lp38
a(lp39
a(lp40
aa(lp41
(lp42
a(lp43
a(lp44
aa(lp45
(lp46
a(lp47
a(lp48
aa(lp49
(lp50
a(lp51
a(lp52
aa(lp53
(lp54
a(lp55
a(lp56
aa(lp57
(lp58
a(lp59
Vhttp://dbpedia.org/resource/All_American_Racers
p60
aa(lp61
aa(lp62
(lp63
a(lp64
a(lp65
aa(lp66
(lp67
Vhttp://dbpedia.org/resource/Noon
p68
aa(lp69
a(lp70
aa(lp71
(lp72
Vhttp://dbpedia.org/resource/Noon
p73
aa(lp74
a(lp75
aa(lp76
(lp77
a(lp78
a(lp79
aa(lp80
(lp81
a(lp82
Vhttp://dbpedia.org/resource/All_American_Racers
p83
aa(lp84
aa(lp85
(lp86
a(lp87
a(lp88
aa.