(lp1
(lp2
(lp3
((lVhttp://dbpedia.org/resource/Claremont_Shale
tp4
aa(lp5
a(lp6
a(lp7
a(lp8
a(lp9
a(lp10
a(lp11
a(lp12
a(lp13
a(lp14
((lp15
Vhttp://www.w3.org/2002/07/owl#Thing
p16
aVhttp://www.ontologydesignpatterns.org/ont/dul/DUL.owl#Agent
p17
aVhttp://www.ontologydesignpatterns.org/ont/dul/DUL.owl#SocialPerson
p18
aVhttp://www.wikidata.org/entity/Q43229
p19
aVhttp://dbpedia.org/ontology/Agent
p20
aVhttp://dbpedia.org/ontology/Organisation
p21
aVhttp://dbpedia.org/ontology/SportsTeam
p22
aVhttp://schema.org/Organization
p23
aVhttp://schema.org/SportsTeam
p24
aVhttp://dbpedia.org/resource/Clondegad_GAA
tp25
aa(lp26
a(lp27
a(lp28
((lVhttp://dbpedia.org/resource/Club_7
p29
tp30
aa(lp31
a(lp32
a(lp33
a(lp34
a(lp35
aa.