(lp1
(lp2
(lp3
Vhttp://dbpedia.org/resource/Claremont_Shale
p4
aa(lp5
a(lp6
a(lp7
a(lp8
a(lp9
a(lp10
a(lp11
a(lp12
a(lp13
a(lp14
Vhttp://dbpedia.org/resource/Clondegad_GAA
p15
aa(lp16
a(lp17
a(lp18
Vhttp://dbpedia.org/resource/Club_7
p19
aa(lp20
a(lp21
a(lp22
a(lp23
a(lp24
aa.