(lp1
(lp2
(dp3
Vstart
p4
I0
sVdisambiguatedURL
p5
NsVnamedEntity
p6
V2
sVoffset
p7
I1
saa(lp8
(dp9
Vstart
p10
I0
sVdisambiguatedURL
p11
NsVnamedEntity
p12
V1
sVoffset
p13
I1
saa(lp14
(dp15
Vstart
p16
I0
sVdisambiguatedURL
p17
NsVnamedEntity
p18
V3
sVoffset
p19
I1
saa(lp20
(dp21
Vstart
p22
I0
sVdisambiguatedURL
p23
NsVnamedEntity
p24
V3
sVoffset
p25
I1
saa(lp26
(dp27
Vstart
p28
I0
sVdisambiguatedURL
p29
NsVnamedEntity
p30
V4
sVoffset
p31
I1
saa(lp32
(dp33
Vstart
p34
I0
sVdisambiguatedURL
p35
NsVnamedEntity
p36
V4
sVoffset
p37
I1
saa(lp38
(dp39
Vstart
p40
I0
sVdisambiguatedURL
p41
NsVnamedEntity
p42
V4
sVoffset
p43
I1
saa(lp44
(dp45
Vstart
p46
I0
sVdisambiguatedURL
p47
NsVnamedEntity
p48
V2
sVoffset
p49
I1
saa(lp50
(dp51
Vstart
p52
I0
sVdisambiguatedURL
p53
NsVnamedEntity
p54
V1
sVoffset
p55
I1
saa(lp56
(dp57
Vstart
p58
I0
sVdisambiguatedURL
p59
NsVnamedEntity
p60
V7
sVoffset
p61
I1
saa(lp62
(dp63
Vstart
p64
I0
sVdisambiguatedURL
p65
NsVnamedEntity
p66
V3
sVoffset
p67
I1
saa(lp68
(dp69
Vstart
p70
I0
sVdisambiguatedURL
p71
NsVnamedEntity
p72
V3
sVoffset
p73
I1
saa(lp74
(dp75
Vstart
p76
I0
sVdisambiguatedURL
p77
NsVnamedEntity
p78
V5
sVoffset
p79
I1
saa(lp80
(dp81
Vstart
p82
I0
sVdisambiguatedURL
p83
NsVnamedEntity
p84
V3 vol. 1
p85
sVoffset
p86
I8
saa(lp87
(dp88
Vstart
p89
I0
sVdisambiguatedURL
p90
NsVnamedEntity
p91
V2
sVoffset
p92
I1
saa(lp93
(dp94
Vstart
p95
I0
sVdisambiguatedURL
p96
NsVnamedEntity
p97
V2
sVoffset
p98
I1
saa(lp99
(dp100
Vstart
p101
I0
sVdisambiguatedURL
p102
NsVnamedEntity
p103
V2
sVoffset
p104
I1
saa(lp105
(dp106
Vstart
p107
I0
sVdisambiguatedURL
p108
NsVnamedEntity
p109
V4
sVoffset
p110
I1
saa(lp111
(dp112
Vstart
p113
I0
sVdisambiguatedURL
p114
NsVnamedEntity
p115
V1
sVoffset
p116
I1
saa(lp117
(dp118
Vstart
p119
I0
sVdisambiguatedURL
p120
NsVnamedEntity
p121
V3
sVoffset
p122
I1
saa.