(lp1
(lp2
(lp3
((lp4
Vhttp://www.w3.org/2002/07/owl#Thing
p5
aVhttp://umbel.org/umbel/rc/Business
p6
aVhttp://umbel.org/umbel/rc/Organization
p7
aVhttp://dbpedia.org/resource/France_2
tp8
aa(lp9
a(lp10
aa(lp11
(lp12
((lp13
Vhttp://www.w3.org/2002/07/owl#Thing
p14
aVhttp://umbel.org/umbel/rc/Business
p15
aVhttp://umbel.org/umbel/rc/Organization
p16
aVhttp://dbpedia.org/resource/France_2
tp17
aa(lp18
((lp19
Vhttp://umbel.org/umbel/rc/EducationalOrganization
p20
aVhttp://umbel.org/umbel/rc/Organization
p21
aVhttp://umbel.org/umbel/rc/University
p22
aVhttp://dbpedia.org/resource/Lille_University_of_Science_and_Technology
tp23
aa(lp24
((lp25
Vhttp://www.w3.org/2002/07/owl#Thing
p26
aVhttp://dbpedia.org/ontology/Place
p27
aVhttp://dbpedia.org/ontology/Location
p28
aVhttp://www.wikidata.org/entity/Q4022
p29
aVhttp://www.wikidata.org/entity/Q47521
p30
aVhttp://dbpedia.org/ontology/BodyOfWater
p31
aVhttp://dbpedia.org/ontology/NaturalPlace
p32
aVhttp://dbpedia.org/ontology/River
p33
aVhttp://dbpedia.org/ontology/Stream
p34
aVhttp://schema.org/BodyOfWater
p35
aVhttp://schema.org/Place
p36
aVhttp://schema.org/RiverBodyOfWater
p37
aVhttp://umbel.org/umbel/rc/BodyOfWater
p38
aVhttp://umbel.org/umbel/rc/River
p39
aVhttp://umbel.org/umbel/rc/Stream
p40
aVhttp://dbpedia.org/class/yago/BodyOfWater109225146
p41
aVhttp://dbpedia.org/class/yago/Branch109228324
p42
aVhttp://dbpedia.org/class/yago/CanadianHeritageRivers
p43
aVhttp://dbpedia.org/class/yago/River109411430
p44
aVhttp://dbpedia.org/class/yago/Stream109448361
p45
aVhttp://dbpedia.org/class/yago/Thing100002452
p46
aVhttp://dbpedia.org/class/yago/YagoGeoEntity
p47
aVhttp://dbpedia.org/class/yago/Feeder109278997
p48
aVhttp://dbpedia.org/class/yago/PhysicalEntity100001930
p49
aVhttp://dbpedia.org/class/yago/YagoPermanentlyLocatedEntity
p50
aVhttp://dbpedia.org/class/yago/RiversOfOntario
p51
aVhttp://dbpedia.org/class/yago/TributariesOfLakeHuron
p52
aVhttp://dbpedia.org/resource/French_River_(Ontario)
tp53
aaa(lp54
(lp55
((lp56
Vhttp://www.w3.org/2002/07/owl#Thing
p57
aVhttp://umbel.org/umbel/rc/Business
p58
aVhttp://umbel.org/umbel/rc/Organization
p59
aVhttp://dbpedia.org/resource/France_2
tp60
aa(lp61
a(lp62
((lp63
Vhttp://www.w3.org/2002/07/owl#Thing
p64
aVhttp://dbpedia.org/ontology/Place
p65
aVhttp://dbpedia.org/ontology/Location
p66
aVhttp://www.wikidata.org/entity/Q4022
p67
aVhttp://www.wikidata.org/entity/Q47521
p68
aVhttp://dbpedia.org/ontology/BodyOfWater
p69
aVhttp://dbpedia.org/ontology/NaturalPlace
p70
aVhttp://dbpedia.org/ontology/River
p71
aVhttp://dbpedia.org/ontology/Stream
p72
aVhttp://schema.org/BodyOfWater
p73
aVhttp://schema.org/Place
p74
aVhttp://schema.org/RiverBodyOfWater
p75
aVhttp://umbel.org/umbel/rc/BodyOfWater
p76
aVhttp://umbel.org/umbel/rc/River
p77
aVhttp://umbel.org/umbel/rc/Stream
p78
aVhttp://dbpedia.org/class/yago/BodyOfWater109225146
p79
aVhttp://dbpedia.org/class/yago/Branch109228324
p80
aVhttp://dbpedia.org/class/yago/CanadianHeritageRivers
p81
aVhttp://dbpedia.org/class/yago/River109411430
p82
aVhttp://dbpedia.org/class/yago/Stream109448361
p83
aVhttp://dbpedia.org/class/yago/Thing100002452
p84
aVhttp://dbpedia.org/class/yago/YagoGeoEntity
p85
aVhttp://dbpedia.org/class/yago/Feeder109278997
p86
aVhttp://dbpedia.org/class/yago/PhysicalEntity100001930
p87
aVhttp://dbpedia.org/class/yago/YagoPermanentlyLocatedEntity
p88
aVhttp://dbpedia.org/class/yago/RiversOfOntario
p89
aVhttp://dbpedia.org/class/yago/TributariesOfLakeHuron
p90
aVhttp://dbpedia.org/resource/French_River_(Ontario)
tp91
aaa(lp92
(lp93
((lp94
Vhttp://www.w3.org/2002/07/owl#Thing
p95
aVhttp://dbpedia.org/ontology/Place
p96
aVhttp://dbpedia.org/ontology/Location
p97
aVhttp://www.wikidata.org/entity/Q486972
p98
aVhttp://www.wikidata.org/entity/Q6256
p99
aVhttp://dbpedia.org/ontology/Country
p100
aVhttp://dbpedia.org/ontology/PopulatedPlace
p101
aVhttp://www.w3.org/2003/01/geo/wgs84_pos#SpatialThing
p102
aVhttp://schema.org/Country
p103
aVhttp://schema.org/Place
p104
aVhttp://umbel.org/umbel/rc/Country
p105
aVhttp://umbel.org/umbel/rc/Location_Underspecified
p106
aVhttp://umbel.org/umbel/rc/PopulatedPlace
p107
aVhttp://dbpedia.org/class/yago/Abstraction100002137
p108
aVhttp://dbpedia.org/class/yago/AdministrativeDistrict108491826
p109
aVhttp://dbpedia.org/class/yago/AlpineCountries
p110
aVhttp://dbpedia.org/class/yago/Country108544813
p111
aVhttp://dbpedia.org/class/yago/District108552138
p112
aVhttp://dbpedia.org/class/yago/Economy108366753
p113
aVhttp://dbpedia.org/class/yago/Group100031264
p114
aVhttp://dbpedia.org/class/yago/Location100027167
p115
aVhttp://dbpedia.org/class/yago/Object100002684
p116
aVhttp://dbpedia.org/class/yago/Region108630985
p117
aVhttp://dbpedia.org/class/yago/System108435388
p118
aVhttp://dbpedia.org/class/yago/YagoGeoEntity
p119
aVhttp://dbpedia.org/class/yago/YagoLegalActorGeo
p120
aVhttp://dbpedia.org/class/yago/CountriesBorderingTheAtlanticOcean
p121
aVhttp://dbpedia.org/class/yago/CountriesBorderingTheBalticSea
p122
aVhttp://dbpedia.org/class/yago/EuropeanCountries
p123
aVhttp://dbpedia.org/class/yago/EuropeanUnionMemberEconomies
p124
aVhttp://dbpedia.org/class/yago/FederalCountries
p125
aVhttp://dbpedia.org/class/yago/PhysicalEntity100001930
p126
aVhttp://dbpedia.org/class/yago/YagoPermanentlyLocatedEntity
p127
aVhttp://dbpedia.org/class/yago/German-speakingCountries
p128
aVhttp://dbpedia.org/class/yago/MemberStatesOfNATO
p129
aVhttp://dbpedia.org/class/yago/MemberStatesOfTheEuropeanUnion
p130
aVhttp://dbpedia.org/class/yago/MemberStatesOfTheUnionForTheMediterranean
p131
aVhttp://dbpedia.org/class/yago/MemberStatesOfTheUnitedNations
p132
aVhttp://dbpedia.org/class/yago/StatesAndTerritoriesEstablishedIn1871
p133
aVhttp://dbpedia.org/resource/Germany
tp134
aa(lp135
a(lp136
((lp137
Vhttp://www.w3.org/2002/07/owl#Thing
p138
aVhttp://dbpedia.org/ontology/Place
p139
aVhttp://dbpedia.org/ontology/Location
p140
aVhttp://www.wikidata.org/entity/Q486972
p141
aVhttp://www.wikidata.org/entity/Q6256
p142
aVhttp://dbpedia.org/ontology/Country
p143
aVhttp://dbpedia.org/ontology/PopulatedPlace
p144
aVhttp://www.w3.org/2003/01/geo/wgs84_pos#SpatialThing
p145
aVhttp://schema.org/Country
p146
aVhttp://schema.org/Place
p147
aVhttp://umbel.org/umbel/rc/Country
p148
aVhttp://umbel.org/umbel/rc/Location_Underspecified
p149
aVhttp://umbel.org/umbel/rc/PopulatedPlace
p150
aVhttp://dbpedia.org/class/yago/Abstraction100002137
p151
aVhttp://dbpedia.org/class/yago/AdministrativeDistrict108491826
p152
aVhttp://dbpedia.org/class/yago/AlpineCountries
p153
aVhttp://dbpedia.org/class/yago/Country108544813
p154
aVhttp://dbpedia.org/class/yago/District108552138
p155
aVhttp://dbpedia.org/class/yago/Economy108366753
p156
aVhttp://dbpedia.org/class/yago/Group100031264
p157
aVhttp://dbpedia.org/class/yago/Location100027167
p158
aVhttp://dbpedia.org/class/yago/Object100002684
p159
aVhttp://dbpedia.org/class/yago/Region108630985
p160
aVhttp://dbpedia.org/class/yago/System108435388
p161
aVhttp://dbpedia.org/class/yago/YagoGeoEntity
p162
aVhttp://dbpedia.org/class/yago/YagoLegalActorGeo
p163
aVhttp://dbpedia.org/class/yago/CountriesBorderingTheAtlanticOcean
p164
aVhttp://dbpedia.org/class/yago/CountriesBorderingTheBalticSea
p165
aVhttp://dbpedia.org/class/yago/EuropeanCountries
p166
aVhttp://dbpedia.org/class/yago/EuropeanUnionMemberEconomies
p167
aVhttp://dbpedia.org/class/yago/FederalCountries
p168
aVhttp://dbpedia.org/class/yago/PhysicalEntity100001930
p169
aVhttp://dbpedia.org/class/yago/YagoPermanentlyLocatedEntity
p170
aVhttp://dbpedia.org/class/yago/German-speakingCountries
p171
aVhttp://dbpedia.org/class/yago/MemberStatesOfNATO
p172
aVhttp://dbpedia.org/class/yago/MemberStatesOfTheEuropeanUnion
p173
aVhttp://dbpedia.org/class/yago/MemberStatesOfTheUnionForTheMediterranean
p174
aVhttp://dbpedia.org/class/yago/MemberStatesOfTheUnitedNations
p175
aVhttp://dbpedia.org/class/yago/StatesAndTerritoriesEstablishedIn1871
p176
aVhttp://dbpedia.org/resource/Germany
tp177
aaa(lp178
(lp179
((lp180
Vhttp://www.w3.org/2002/07/owl#Thing
p181
aVhttp://dbpedia.org/ontology/Place
p182
aVhttp://dbpedia.org/ontology/Location
p183
aVhttp://www.wikidata.org/entity/Q486972
p184
aVhttp://www.wikidata.org/entity/Q6256
p185
aVhttp://dbpedia.org/ontology/Country
p186
aVhttp://dbpedia.org/ontology/PopulatedPlace
p187
aVhttp://www.w3.org/2003/01/geo/wgs84_pos#SpatialThing
p188
aVhttp://schema.org/Country
p189
aVhttp://schema.org/Place
p190
aVhttp://umbel.org/umbel/rc/Country
p191
aVhttp://umbel.org/umbel/rc/Location_Underspecified
p192
aVhttp://umbel.org/umbel/rc/PopulatedPlace
p193
aVhttp://dbpedia.org/class/yago/Abstraction100002137
p194
aVhttp://dbpedia.org/class/yago/AdministrativeDistrict108491826
p195
aVhttp://dbpedia.org/class/yago/AlpineCountries
p196
aVhttp://dbpedia.org/class/yago/Country108544813
p197
aVhttp://dbpedia.org/class/yago/District108552138
p198
aVhttp://dbpedia.org/class/yago/Economy108366753
p199
aVhttp://dbpedia.org/class/yago/Group100031264
p200
aVhttp://dbpedia.org/class/yago/Location100027167
p201
aVhttp://dbpedia.org/class/yago/Object100002684
p202
aVhttp://dbpedia.org/class/yago/Region108630985
p203
aVhttp://dbpedia.org/class/yago/System108435388
p204
aVhttp://dbpedia.org/class/yago/YagoGeoEntity
p205
aVhttp://dbpedia.org/class/yago/YagoLegalActorGeo
p206
aVhttp://dbpedia.org/class/yago/CountriesBorderingTheAtlanticOcean
p207
aVhttp://dbpedia.org/class/yago/CountriesBorderingTheBalticSea
p208
aVhttp://dbpedia.org/class/yago/EuropeanCountries
p209
aVhttp://dbpedia.org/class/yago/EuropeanUnionMemberEconomies
p210
aVhttp://dbpedia.org/class/yago/FederalCountries
p211
aVhttp://dbpedia.org/class/yago/PhysicalEntity100001930
p212
aVhttp://dbpedia.org/class/yago/YagoPermanentlyLocatedEntity
p213
aVhttp://dbpedia.org/class/yago/German-speakingCountries
p214
aVhttp://dbpedia.org/class/yago/MemberStatesOfNATO
p215
aVhttp://dbpedia.org/class/yago/MemberStatesOfTheEuropeanUnion
p216
aVhttp://dbpedia.org/class/yago/MemberStatesOfTheUnionForTheMediterranean
p217
aVhttp://dbpedia.org/class/yago/MemberStatesOfTheUnitedNations
p218
aVhttp://dbpedia.org/class/yago/StatesAndTerritoriesEstablishedIn1871
p219
aVhttp://dbpedia.org/resource/Germany
tp220
aa(lp221
a(lp222
((lp223
Vhttp://www.w3.org/2002/07/owl#Thing
p224
aVhttp://dbpedia.org/ontology/Place
p225
aVhttp://dbpedia.org/ontology/Location
p226
aVhttp://www.wikidata.org/entity/Q486972
p227
aVhttp://www.wikidata.org/entity/Q6256
p228
aVhttp://dbpedia.org/ontology/Country
p229
aVhttp://dbpedia.org/ontology/PopulatedPlace
p230
aVhttp://www.w3.org/2003/01/geo/wgs84_pos#SpatialThing
p231
aVhttp://schema.org/Country
p232
aVhttp://schema.org/Place
p233
aVhttp://umbel.org/umbel/rc/Country
p234
aVhttp://umbel.org/umbel/rc/Location_Underspecified
p235
aVhttp://umbel.org/umbel/rc/PopulatedPlace
p236
aVhttp://dbpedia.org/class/yago/Abstraction100002137
p237
aVhttp://dbpedia.org/class/yago/AdministrativeDistrict108491826
p238
aVhttp://dbpedia.org/class/yago/AlpineCountries
p239
aVhttp://dbpedia.org/class/yago/Country108544813
p240
aVhttp://dbpedia.org/class/yago/District108552138
p241
aVhttp://dbpedia.org/class/yago/Economy108366753
p242
aVhttp://dbpedia.org/class/yago/Group100031264
p243
aVhttp://dbpedia.org/class/yago/Location100027167
p244
aVhttp://dbpedia.org/class/yago/Object100002684
p245
aVhttp://dbpedia.org/class/yago/Region108630985
p246
aVhttp://dbpedia.org/class/yago/System108435388
p247
aVhttp://dbpedia.org/class/yago/YagoGeoEntity
p248
aVhttp://dbpedia.org/class/yago/YagoLegalActorGeo
p249
aVhttp://dbpedia.org/class/yago/CountriesBorderingTheAtlanticOcean
p250
aVhttp://dbpedia.org/class/yago/CountriesBorderingTheBalticSea
p251
aVhttp://dbpedia.org/class/yago/EuropeanCountries
p252
aVhttp://dbpedia.org/class/yago/EuropeanUnionMemberEconomies
p253
aVhttp://dbpedia.org/class/yago/FederalCountries
p254
aVhttp://dbpedia.org/class/yago/PhysicalEntity100001930
p255
aVhttp://dbpedia.org/class/yago/YagoPermanentlyLocatedEntity
p256
aVhttp://dbpedia.org/class/yago/German-speakingCountries
p257
aVhttp://dbpedia.org/class/yago/MemberStatesOfNATO
p258
aVhttp://dbpedia.org/class/yago/MemberStatesOfTheEuropeanUnion
p259
aVhttp://dbpedia.org/class/yago/MemberStatesOfTheUnionForTheMediterranean
p260
aVhttp://dbpedia.org/class/yago/MemberStatesOfTheUnitedNations
p261
aVhttp://dbpedia.org/class/yago/StatesAndTerritoriesEstablishedIn1871
p262
aVhttp://dbpedia.org/resource/Germany
tp263
aaa(lp264
(lp265
((lp266
Vhttp://www.w3.org/2002/07/owl#Thing
p267
aVhttp://dbpedia.org/ontology/Place
p268
aVhttp://dbpedia.org/ontology/Location
p269
aVhttp://www.wikidata.org/entity/Q486972
p270
aVhttp://www.wikidata.org/entity/Q6256
p271
aVhttp://dbpedia.org/ontology/Country
p272
aVhttp://dbpedia.org/ontology/PopulatedPlace
p273
aVhttp://www.w3.org/2003/01/geo/wgs84_pos#SpatialThing
p274
aVhttp://schema.org/Country
p275
aVhttp://schema.org/Place
p276
aVhttp://umbel.org/umbel/rc/Country
p277
aVhttp://umbel.org/umbel/rc/Location_Underspecified
p278
aVhttp://umbel.org/umbel/rc/PopulatedPlace
p279
aVhttp://dbpedia.org/class/yago/Abstraction100002137
p280
aVhttp://dbpedia.org/class/yago/AdministrativeDistrict108491826
p281
aVhttp://dbpedia.org/class/yago/BlackSeaCountries
p282
aVhttp://dbpedia.org/class/yago/Country108544813
p283
aVhttp://dbpedia.org/class/yago/District108552138
p284
aVhttp://dbpedia.org/class/yago/Economy108366753
p285
aVhttp://dbpedia.org/class/yago/Group100031264
p286
aVhttp://dbpedia.org/class/yago/Location100027167
p287
aVhttp://dbpedia.org/class/yago/Object100002684
p288
aVhttp://dbpedia.org/class/yago/Region108630985
p289
aVhttp://dbpedia.org/class/yago/System108435388
p290
aVhttp://dbpedia.org/class/yago/YagoGeoEntity
p291
aVhttp://dbpedia.org/class/yago/YagoLegalActorGeo
p292
aVhttp://dbpedia.org/class/yago/EuropeanCountries
p293
aVhttp://dbpedia.org/class/yago/EuropeanUnionMemberEconomies
p294
aVhttp://dbpedia.org/class/yago/PhysicalEntity100001930
p295
aVhttp://dbpedia.org/class/yago/YagoPermanentlyLocatedEntity
p296
aVhttp://dbpedia.org/class/yago/MemberStatesOfNATO
p297
aVhttp://dbpedia.org/class/yago/MemberStatesOfTheEuropeanUnion
p298
aVhttp://dbpedia.org/class/yago/MemberStatesOfTheUnionForTheMediterranean
p299
aVhttp://dbpedia.org/class/yago/MemberStatesOfTheUnitedNations
p300
aVhttp://dbpedia.org/class/yago/Romanian-speakingCountriesAndTerritories
p301
aVhttp://dbpedia.org/class/yago/StatesAndTerritoriesEstablishedIn1878
p302
aVhttp://dbpedia.org/resource/Romania
tp303
aa(lp304
((lp305
Vhttp://www.w3.org/2002/07/owl#Thing
p306
aVhttp://www.ontologydesignpatterns.org/ont/dul/DUL.owl#Agent
p307
aVhttp://www.ontologydesignpatterns.org/ont/dul/DUL.owl#SocialPerson
p308
aVhttp://www.wikidata.org/entity/Q3918
p309
aVhttp://www.wikidata.org/entity/Q43229
p310
aVhttp://dbpedia.org/ontology/Agent
p311
aVhttp://dbpedia.org/ontology/EducationalInstitution
p312
aVhttp://dbpedia.org/ontology/Organisation
p313
aVhttp://dbpedia.org/ontology/University
p314
aVhttp://schema.org/CollegeOrUniversity
p315
aVhttp://schema.org/EducationalOrganization
p316
aVhttp://schema.org/Organization
p317
aVhttp://dbpedia.org/class/yago/Abstraction100002137
p318
aVhttp://dbpedia.org/class/yago/EducationalInstitution108276342
p319
aVhttp://dbpedia.org/class/yago/Group100031264
p320
aVhttp://dbpedia.org/class/yago/Institution108053576
p321
aVhttp://dbpedia.org/class/yago/Organization108008335
p322
aVhttp://dbpedia.org/class/yago/SocialGroup107950920
p323
aVhttp://dbpedia.org/class/yago/University108286569
p324
aVhttp://dbpedia.org/class/yago/YagoLegalActorGeo
p325
aVhttp://dbpedia.org/class/yago/EducationalInstitutionsEstablishedIn1860
p326
aVhttp://dbpedia.org/class/yago/YagoPermanentlyLocatedEntity
p327
aVhttp://dbpedia.org/class/yago/YagoLegalActor
p328
aVhttp://dbpedia.org/class/yago/UniversitiesInIa%C5%9Fi
p329
aVhttp://dbpedia.org/resource/Alexandru_Ioan_Cuza_University
tp330
aa(lp331
aa(lp332
(lp333
((lp334
Vhttp://www.w3.org/2002/07/owl#Thing
p335
aVhttp://dbpedia.org/ontology/Place
p336
aVhttp://dbpedia.org/ontology/Location
p337
aVhttp://www.wikidata.org/entity/Q486972
p338
aVhttp://www.wikidata.org/entity/Q6256
p339
aVhttp://dbpedia.org/ontology/Country
p340
aVhttp://dbpedia.org/ontology/PopulatedPlace
p341
aVhttp://www.w3.org/2003/01/geo/wgs84_pos#SpatialThing
p342
aVhttp://schema.org/Country
p343
aVhttp://schema.org/Place
p344
aVhttp://umbel.org/umbel/rc/Country
p345
aVhttp://umbel.org/umbel/rc/Location_Underspecified
p346
aVhttp://umbel.org/umbel/rc/PopulatedPlace
p347
aVhttp://dbpedia.org/class/yago/Abstraction100002137
p348
aVhttp://dbpedia.org/class/yago/AdministrativeDistrict108491826
p349
aVhttp://dbpedia.org/class/yago/BicontinentalCountries
p350
aVhttp://dbpedia.org/class/yago/Country108544813
p351
aVhttp://dbpedia.org/class/yago/District108552138
p352
aVhttp://dbpedia.org/class/yago/Economy108366753
p353
aVhttp://dbpedia.org/class/yago/Group100031264
p354
aVhttp://dbpedia.org/class/yago/Location100027167
p355
aVhttp://dbpedia.org/class/yago/Object100002684
p356
aVhttp://dbpedia.org/class/yago/Region108630985
p357
aVhttp://dbpedia.org/class/yago/System108435388
p358
aVhttp://dbpedia.org/class/yago/YagoGeoEntity
p359
aVhttp://dbpedia.org/class/yago/YagoLegalActorGeo
p360
aVhttp://dbpedia.org/class/yago/CountriesBorderingTheAtlanticOcean
p361
aVhttp://dbpedia.org/class/yago/CountriesOfTheMediterraneanSea
p362
aVhttp://dbpedia.org/class/yago/EuropeanCountries
p363
aVhttp://dbpedia.org/class/yago/EuropeanUnionMemberEconomies
p364
aVhttp://dbpedia.org/class/yago/PhysicalEntity100001930
p365
aVhttp://dbpedia.org/class/yago/YagoPermanentlyLocatedEntity
p366
aVhttp://dbpedia.org/class/yago/MemberStatesOfNATO
p367
aVhttp://dbpedia.org/class/yago/MemberStatesOfTheEuropeanUnion
p368
aVhttp://dbpedia.org/class/yago/MemberStatesOfTheUnionForTheMediterranean
p369
aVhttp://dbpedia.org/class/yago/MemberStatesOfTheUnitedNations
p370
aVhttp://dbpedia.org/class/yago/Spanish-speakingCountries
p371
aVhttp://dbpedia.org/class/yago/WorldTradeOrganizationMemberEconomies
p372
aVhttp://dbpedia.org/resource/Spain
tp373
aa(lp374
a(lp375
((lp376
Vhttp://www.w3.org/2002/07/owl#Thing
p377
aVhttp://dbpedia.org/ontology/Place
p378
aVhttp://dbpedia.org/ontology/Location
p379
aVhttp://www.wikidata.org/entity/Q3957
p380
aVhttp://www.wikidata.org/entity/Q486972
p381
aVhttp://dbpedia.org/ontology/PopulatedPlace
p382
aVhttp://dbpedia.org/ontology/Settlement
p383
aVhttp://dbpedia.org/ontology/Town
p384
aVhttp://www.w3.org/2003/01/geo/wgs84_pos#SpatialThing
p385
aVhttp://schema.org/Place
p386
aVhttp://dbpedia.org/class/yago/AdministrativeDistrict108491826
p387
aVhttp://dbpedia.org/class/yago/District108552138
p388
aVhttp://dbpedia.org/class/yago/Location100027167
p389
aVhttp://dbpedia.org/class/yago/Object100002684
p390
aVhttp://dbpedia.org/class/yago/Region108630985
p391
aVhttp://dbpedia.org/class/yago/Town108665504
p392
aVhttp://dbpedia.org/class/yago/UrbanArea108675967
p393
aVhttp://dbpedia.org/class/yago/YagoGeoEntity
p394
aVhttp://dbpedia.org/class/yago/YagoLegalActorGeo
p395
aVhttp://dbpedia.org/class/yago/GeographicalArea108574314
p396
aVhttp://dbpedia.org/class/yago/Municipality108626283
p397
aVhttp://dbpedia.org/class/yago/PhysicalEntity100001930
p398
aVhttp://dbpedia.org/class/yago/YagoPermanentlyLocatedEntity
p399
aVhttp://dbpedia.org/class/yago/MunicipalitiesInAlgomaDistrict
p400
aVhttp://dbpedia.org/class/yago/TownsInOntario
p401
aVhttp://dbpedia.org/resource/Spanish,_Ontario
tp402
aaa(lp403
(lp404
((lp405
Vhttp://www.w3.org/2002/07/owl#Thing
p406
aVhttp://dbpedia.org/ontology/Place
p407
aVhttp://dbpedia.org/ontology/Location
p408
aVhttp://www.wikidata.org/entity/Q486972
p409
aVhttp://www.wikidata.org/entity/Q6256
p410
aVhttp://dbpedia.org/ontology/Country
p411
aVhttp://dbpedia.org/ontology/PopulatedPlace
p412
aVhttp://www.w3.org/2003/01/geo/wgs84_pos#SpatialThing
p413
aVhttp://schema.org/Country
p414
aVhttp://schema.org/Place
p415
aVhttp://umbel.org/umbel/rc/Country
p416
aVhttp://umbel.org/umbel/rc/Location_Underspecified
p417
aVhttp://umbel.org/umbel/rc/PopulatedPlace
p418
aVhttp://dbpedia.org/class/yago/Abstraction100002137
p419
aVhttp://dbpedia.org/class/yago/AdministrativeDistrict108491826
p420
aVhttp://dbpedia.org/class/yago/AlpineCountries
p421
aVhttp://dbpedia.org/class/yago/Country108544813
p422
aVhttp://dbpedia.org/class/yago/District108552138
p423
aVhttp://dbpedia.org/class/yago/Economy108366753
p424
aVhttp://dbpedia.org/class/yago/Group100031264
p425
aVhttp://dbpedia.org/class/yago/Location100027167
p426
aVhttp://dbpedia.org/class/yago/Object100002684
p427
aVhttp://dbpedia.org/class/yago/Region108630985
p428
aVhttp://dbpedia.org/class/yago/System108435388
p429
aVhttp://dbpedia.org/class/yago/YagoGeoEntity
p430
aVhttp://dbpedia.org/class/yago/YagoLegalActorGeo
p431
aVhttp://dbpedia.org/class/yago/EuropeanCountries
p432
aVhttp://dbpedia.org/class/yago/FederalCountries
p433
aVhttp://dbpedia.org/class/yago/French-speakingCountries
p434
aVhttp://dbpedia.org/class/yago/PhysicalEntity100001930
p435
aVhttp://dbpedia.org/class/yago/YagoPermanentlyLocatedEntity
p436
aVhttp://dbpedia.org/class/yago/German-speakingCountries
p437
aVhttp://dbpedia.org/class/yago/Italian-speakingCountries
p438
aVhttp://dbpedia.org/class/yago/LandlockedCountries
p439
aVhttp://dbpedia.org/class/yago/MemberStatesOfLaFrancophonie
p440
aVhttp://dbpedia.org/class/yago/MemberStatesOfTheUnitedNations
p441
aVhttp://dbpedia.org/class/yago/StatesAndTerritoriesEstablishedIn1291
p442
aVhttp://dbpedia.org/class/yago/WorldTradeOrganizationMemberEconomies
p443
aVhttp://dbpedia.org/resource/Switzerland
tp444
aa(lp445
a(lp446
((lp447
Vhttp://www.w3.org/2002/07/owl#Thing
p448
aVhttp://dbpedia.org/ontology/Place
p449
aVhttp://dbpedia.org/ontology/Location
p450
aVhttp://www.wikidata.org/entity/Q486972
p451
aVhttp://www.wikidata.org/entity/Q6256
p452
aVhttp://dbpedia.org/ontology/Country
p453
aVhttp://dbpedia.org/ontology/PopulatedPlace
p454
aVhttp://www.w3.org/2003/01/geo/wgs84_pos#SpatialThing
p455
aVhttp://schema.org/Country
p456
aVhttp://schema.org/Place
p457
aVhttp://umbel.org/umbel/rc/Country
p458
aVhttp://umbel.org/umbel/rc/Location_Underspecified
p459
aVhttp://umbel.org/umbel/rc/PopulatedPlace
p460
aVhttp://dbpedia.org/class/yago/Abstraction100002137
p461
aVhttp://dbpedia.org/class/yago/AdministrativeDistrict108491826
p462
aVhttp://dbpedia.org/class/yago/AlpineCountries
p463
aVhttp://dbpedia.org/class/yago/Country108544813
p464
aVhttp://dbpedia.org/class/yago/District108552138
p465
aVhttp://dbpedia.org/class/yago/Economy108366753
p466
aVhttp://dbpedia.org/class/yago/Group100031264
p467
aVhttp://dbpedia.org/class/yago/Location100027167
p468
aVhttp://dbpedia.org/class/yago/Object100002684
p469
aVhttp://dbpedia.org/class/yago/Region108630985
p470
aVhttp://dbpedia.org/class/yago/System108435388
p471
aVhttp://dbpedia.org/class/yago/YagoGeoEntity
p472
aVhttp://dbpedia.org/class/yago/YagoLegalActorGeo
p473
aVhttp://dbpedia.org/class/yago/CountriesBorderingTheAtlanticOcean
p474
aVhttp://dbpedia.org/class/yago/CountriesBorderingTheBalticSea
p475
aVhttp://dbpedia.org/class/yago/EuropeanCountries
p476
aVhttp://dbpedia.org/class/yago/EuropeanUnionMemberEconomies
p477
aVhttp://dbpedia.org/class/yago/FederalCountries
p478
aVhttp://dbpedia.org/class/yago/PhysicalEntity100001930
p479
aVhttp://dbpedia.org/class/yago/YagoPermanentlyLocatedEntity
p480
aVhttp://dbpedia.org/class/yago/German-speakingCountries
p481
aVhttp://dbpedia.org/class/yago/MemberStatesOfNATO
p482
aVhttp://dbpedia.org/class/yago/MemberStatesOfTheEuropeanUnion
p483
aVhttp://dbpedia.org/class/yago/MemberStatesOfTheUnionForTheMediterranean
p484
aVhttp://dbpedia.org/class/yago/MemberStatesOfTheUnitedNations
p485
aVhttp://dbpedia.org/class/yago/StatesAndTerritoriesEstablishedIn1871
p486
aVhttp://dbpedia.org/resource/Germany
p487
tp488
aaa.