(lp1
(lp2
(dp3
Vstart
p4
I0
sVdisambiguatedURL
p5
Vhttp://dbpedia.org/resource/France_2
p6
sVnamedEntity
p7
VFrance
p8
sVoffset
p9
I6
saa(lp10
(dp11
Vstart
p12
I0
sVdisambiguatedURL
p13
Vhttp://dbpedia.org/resource/France_2
p14
sVnamedEntity
p15
VFrance
p16
sVoffset
p17
I6
saa(lp18
(dp19
Vstart
p20
I0
sVdisambiguatedURL
p21
Vhttp://dbpedia.org/resource/France_2
p22
sVnamedEntity
p23
VFrance
p24
sVoffset
p25
I6
saa(lp26
(dp27
Vstart
p28
I0
sVdisambiguatedURL
p29
Vhttp://dbpedia.org/resource/Germany
p30
sVnamedEntity
p31
VGermany
p32
sVoffset
p33
I7
saa(lp34
(dp35
Vstart
p36
I0
sVdisambiguatedURL
p37
Vhttp://dbpedia.org/resource/Germany
p38
sVnamedEntity
p39
VGermany
p40
sVoffset
p41
I7
saa(lp42
(dp43
Vstart
p44
I0
sVdisambiguatedURL
p45
Vhttp://dbpedia.org/resource/Romania
p46
sVnamedEntity
p47
VRomania
p48
sVoffset
p49
I7
saa(lp50
(dp51
Vstart
p52
I0
sVdisambiguatedURL
p53
Vhttp://dbpedia.org/resource/Spain
p54
sVnamedEntity
p55
VSpain
p56
sVoffset
p57
I5
saa(lp58
(dp59
Vstart
p60
I0
sVdisambiguatedURL
p61
Vhttp://dbpedia.org/resource/Switzerland
p62
sVnamedEntity
p63
VSwitzerland
p64
sVoffset
p65
I11
saa.