ccollections
defaultdict
p1
(c__builtin__
dict
p2
tRp3
I0
(dp4
I1
(lp5
sI2
(lp6
ssI1
(dp7
I1
(lp8
sI2
(lp9
Vhttp://dbpedia.org/ontology/abstract
p10
aVhttp://purl.org/dc/terms/subject
p11
aVhttp://www.w3.org/2000/01/rdf-schema#comment
p12
assI2
(dp13
I1
(lp14
sI2
(lp15
Vhttp://dbpedia.org/ontology/abstract
p16
aVhttp://purl.org/dc/terms/subject
p17
aVhttp://www.w3.org/2000/01/rdf-schema#comment
p18
assI3
(dp19
I1
(lp20
sI2
(lp21
Vhttp://dbpedia.org/property/origin
p22
aVhttp://dbpedia.org/property/placeOfDeath
p23
aVhttp://dbpedia.org/property/broadcastArea
p24
aVhttp://dbpedia.org/property/sovereigntyType
p25
aVhttp://www.w3.org/ns/prov#wasDerivedFrom
p26
aVhttp://dbpedia.org/ontology/fastestDriverCountry
p27
aVhttp://dbpedia.org/ontology/demonym
p28
aVhttp://dbpedia.org/ontology/regionServed
p29
aVhttp://dbpedia.org/ontology/nationality
p30
aVhttp://xmlns.com/foaf/0.1/isPrimaryTopicOf
p31
aVhttp://dbpedia.org/property/byCountry
p32
aVhttp://dbpedia.org/property/nat
p33
aVhttp://dbpedia.org/property/nationality
p34
aVhttp://dbpedia.org/ontology/abstract
p35
aVhttp://dbpedia.org/ontology/recordedIn
p36
aVhttp://dbpedia.org/ontology/architecturalStyle
p37
aVhttp://dbpedia.org/ontology/location
p38
aVhttp://dbpedia.org/property/imageMap
p39
aVhttp://dbpedia.org/property/officialLanguages
p40
aVhttp://dbpedia.org/property/area
p41
aVhttp://dbpedia.org/ontology/hometown
p42
aVhttp://dbpedia.org/ontology/spokenIn
p43
aVhttp://dbpedia.org/property/leaderTitle
p44
aVhttp://www.w3.org/2000/01/rdf-schema#seeAlso
p45
aVhttp://dbpedia.org/ontology/wikiPageExternalLink
p46
aVhttp://dbpedia.org/property/hostCity
p47
aVhttp://dbpedia.org/property/conventionalLongName
p48
aVhttp://dbpedia.org/ontology/foundationPlace
p49
aVhttp://dbpedia.org/ontology/poleDriverCountry
p50
aVhttp://dbpedia.org/ontology/locatedInArea
p51
aVhttp://dbpedia.org/ontology/officialLanguage
p52
aVhttp://dbpedia.org/ontology/country
p53
aVhttp://dbpedia.org/property/birthPlace
p54
aVhttp://dbpedia.org/property/country/region
p55
aVhttp://dbpedia.org/property/country
p56
aVhttp://dbpedia.org/ontology/county
p57
aVhttp://xmlns.com/foaf/0.1/primaryTopic
p58
aVhttp://dbpedia.org/ontology/campus
p59
aVhttp://dbpedia.org/ontology/firstDriverCountry
p60
aVhttp://dbpedia.org/property/states
p61
aVhttp://dbpedia.org/ontology/locationCountry
p62
aVhttp://dbpedia.org/ontology/deathPlace
p63
aVhttp://dbpedia.org/property/hasPhotoCollection
p64
aVhttp://dbpedia.org/property/headquarters
p65
aVhttp://dbpedia.org/ontology/birthPlace
p66
aVhttp://dbpedia.org/ontology/wikiPageRedirects
p67
aVhttp://dbpedia.org/property/citizenship
p68
aVhttp://dbpedia.org/property/imageCoat
p69
aVhttp://dbpedia.org/ontology/stateOfOrigin
p70
aVhttp://www.w3.org/2002/07/owl#sameAs
p71
aVhttp://dbpedia.org/property/recorded
p72
aVhttp://dbpedia.org/property/winnerOrigin
p73
aVhttp://dbpedia.org/ontology/longName
p74
aVhttp://www.w3.org/1999/02/22-rdf-syntax-ns#type
p75
aVhttp://dbpedia.org/property/locationCountry
p76
aVhttp://dbpedia.org/ontology/secondDriverCountry
p77
aVhttp://dbpedia.org/property/locationSigned
p78
aVhttp://dbpedia.org/property/namedAfter
p79
aVhttp://dbpedia.org/property/title
p80
aVhttp://dbpedia.org/property/placeOfBirth
p81
aVhttp://xmlns.com/foaf/0.1/depiction
p82
aVhttp://dbpedia.org/property/observedby
p83
aVhttp://dbpedia.org/ontology/flag
p84
aVhttp://dbpedia.org/property/commonName
p85
aVhttp://dbpedia.org/property/subdivisionName
p86
aVhttp://dbpedia.org/property/shipCountry
p87
aVhttp://dbpedia.org/property/locationCity
p88
aVhttp://dbpedia.org/property/establishedEvent
p89
aVhttp://dbpedia.org/property/stadium
p90
aVhttp://dbpedia.org/property/place
p91
aVhttp://dbpedia.org/property/footnoteA
p92
aVhttp://dbpedia.org/property/caption
p93
aVhttp://dbpedia.org/ontology/thirdDriverCountry
p94
aVhttp://www.w3.org/2002/07/owl#differentFrom
p95
aVhttp://dbpedia.org/property/upperHouse
p96
aVhttp://dbpedia.org/property/locations
p97
aVhttp://dbpedia.org/ontology/place
p98
aVhttp://dbpedia.org/property/language
p99
aVhttp://dbpedia.org/property/demonym
p100
aVhttp://dbpedia.org/ontology/wikiPageDisambiguates
p101
aVhttp://purl.org/dc/terms/subject
p102
aVhttp://dbpedia.org/ontology/populationPlace
p103
aVhttp://dbpedia.org/property/location
p104
aVhttp://dbpedia.org/property/armiger
p105
aVhttp://dbpedia.org/ontology/headquarter
p106
aVhttp://dbpedia.org/property/foundation
p107
aVhttp://www.w3.org/2000/01/rdf-schema#label
p108
aVhttp://dbpedia.org/ontology/language
p109
aVhttp://dbpedia.org/ontology/broadcastArea
p110
aVhttp://dbpedia.org/property/basinCountries
p111
aVhttp://www.w3.org/2000/01/rdf-schema#comment
p112
aVhttp://dbpedia.org/property/seat
p113
aVhttp://dbpedia.org/property/imageFlag
p114
aVhttp://dbpedia.org/property/regionServed
p115
aVhttp://xmlns.com/foaf/0.1/name
p116
aVhttp://dbpedia.org/ontology/locationCity
p117
aVhttp://dbpedia.org/property/buried
p118
aVhttp://dbpedia.org/ontology/thumbnail
p119
assI4
(dp120
I1
(lp121
sI2
(lp122
Vhttp://dbpedia.org/property/origin
p123
aVhttp://dbpedia.org/property/placeOfDeath
p124
aVhttp://dbpedia.org/property/broadcastArea
p125
aVhttp://dbpedia.org/property/sovereigntyType
p126
aVhttp://www.w3.org/ns/prov#wasDerivedFrom
p127
aVhttp://dbpedia.org/ontology/fastestDriverCountry
p128
aVhttp://dbpedia.org/ontology/demonym
p129
aVhttp://dbpedia.org/ontology/regionServed
p130
aVhttp://dbpedia.org/ontology/nationality
p131
aVhttp://xmlns.com/foaf/0.1/isPrimaryTopicOf
p132
aVhttp://dbpedia.org/property/byCountry
p133
aVhttp://dbpedia.org/property/nat
p134
aVhttp://dbpedia.org/property/nationality
p135
aVhttp://dbpedia.org/ontology/abstract
p136
aVhttp://dbpedia.org/ontology/recordedIn
p137
aVhttp://dbpedia.org/ontology/architecturalStyle
p138
aVhttp://dbpedia.org/ontology/location
p139
aVhttp://dbpedia.org/property/imageMap
p140
aVhttp://dbpedia.org/property/officialLanguages
p141
aVhttp://dbpedia.org/property/area
p142
aVhttp://dbpedia.org/ontology/hometown
p143
aVhttp://dbpedia.org/ontology/spokenIn
p144
aVhttp://dbpedia.org/property/leaderTitle
p145
aVhttp://www.w3.org/2000/01/rdf-schema#seeAlso
p146
aVhttp://dbpedia.org/ontology/wikiPageExternalLink
p147
aVhttp://dbpedia.org/property/hostCity
p148
aVhttp://dbpedia.org/property/conventionalLongName
p149
aVhttp://dbpedia.org/ontology/foundationPlace
p150
aVhttp://dbpedia.org/ontology/poleDriverCountry
p151
aVhttp://dbpedia.org/ontology/locatedInArea
p152
aVhttp://dbpedia.org/ontology/officialLanguage
p153
aVhttp://dbpedia.org/ontology/country
p154
aVhttp://dbpedia.org/property/birthPlace
p155
aVhttp://dbpedia.org/property/country/region
p156
aVhttp://dbpedia.org/property/country
p157
aVhttp://dbpedia.org/ontology/county
p158
aVhttp://xmlns.com/foaf/0.1/primaryTopic
p159
aVhttp://dbpedia.org/ontology/campus
p160
aVhttp://dbpedia.org/ontology/firstDriverCountry
p161
aVhttp://dbpedia.org/property/states
p162
aVhttp://dbpedia.org/ontology/locationCountry
p163
aVhttp://dbpedia.org/ontology/deathPlace
p164
aVhttp://dbpedia.org/property/hasPhotoCollection
p165
aVhttp://dbpedia.org/property/headquarters
p166
aVhttp://dbpedia.org/ontology/birthPlace
p167
aVhttp://dbpedia.org/ontology/wikiPageRedirects
p168
aVhttp://dbpedia.org/property/citizenship
p169
aVhttp://dbpedia.org/property/imageCoat
p170
aVhttp://dbpedia.org/ontology/stateOfOrigin
p171
aVhttp://www.w3.org/2002/07/owl#sameAs
p172
aVhttp://dbpedia.org/property/recorded
p173
aVhttp://dbpedia.org/property/winnerOrigin
p174
aVhttp://dbpedia.org/ontology/longName
p175
aVhttp://www.w3.org/1999/02/22-rdf-syntax-ns#type
p176
aVhttp://dbpedia.org/property/locationCountry
p177
aVhttp://dbpedia.org/ontology/secondDriverCountry
p178
aVhttp://dbpedia.org/property/locationSigned
p179
aVhttp://dbpedia.org/property/namedAfter
p180
aVhttp://dbpedia.org/property/title
p181
aVhttp://dbpedia.org/property/placeOfBirth
p182
aVhttp://xmlns.com/foaf/0.1/depiction
p183
aVhttp://dbpedia.org/property/observedby
p184
aVhttp://dbpedia.org/ontology/flag
p185
aVhttp://dbpedia.org/property/commonName
p186
aVhttp://dbpedia.org/property/subdivisionName
p187
aVhttp://dbpedia.org/property/shipCountry
p188
aVhttp://dbpedia.org/property/locationCity
p189
aVhttp://dbpedia.org/property/establishedEvent
p190
aVhttp://dbpedia.org/property/stadium
p191
aVhttp://dbpedia.org/property/place
p192
aVhttp://dbpedia.org/property/footnoteA
p193
aVhttp://dbpedia.org/property/caption
p194
aVhttp://dbpedia.org/ontology/thirdDriverCountry
p195
aVhttp://www.w3.org/2002/07/owl#differentFrom
p196
aVhttp://dbpedia.org/property/upperHouse
p197
aVhttp://dbpedia.org/property/locations
p198
aVhttp://dbpedia.org/ontology/place
p199
aVhttp://dbpedia.org/property/language
p200
aVhttp://dbpedia.org/property/demonym
p201
aVhttp://dbpedia.org/ontology/wikiPageDisambiguates
p202
aVhttp://purl.org/dc/terms/subject
p203
aVhttp://dbpedia.org/ontology/populationPlace
p204
aVhttp://dbpedia.org/property/location
p205
aVhttp://dbpedia.org/property/armiger
p206
aVhttp://dbpedia.org/ontology/headquarter
p207
aVhttp://dbpedia.org/property/foundation
p208
aVhttp://www.w3.org/2000/01/rdf-schema#label
p209
aVhttp://dbpedia.org/ontology/language
p210
aVhttp://dbpedia.org/ontology/broadcastArea
p211
aVhttp://dbpedia.org/property/basinCountries
p212
aVhttp://www.w3.org/2000/01/rdf-schema#comment
p213
aVhttp://dbpedia.org/property/seat
p214
aVhttp://dbpedia.org/property/imageFlag
p215
aVhttp://dbpedia.org/property/regionServed
p216
aVhttp://xmlns.com/foaf/0.1/name
p217
aVhttp://dbpedia.org/ontology/locationCity
p218
aVhttp://dbpedia.org/property/buried
p219
aVhttp://dbpedia.org/ontology/thumbnail
p220
assI5
(dp221
I1
(lp222
sI2
(lp223
ssI6
(dp224
I1
(lp225
sI2
(lp226
Vhttp://www.w3.org/2000/01/rdf-schema#seeAlso
p227
aVhttp://dbpedia.org/property/origin
p228
aVhttp://dbpedia.org/ontology/wikiPageRedirects
p229
aVhttp://dbpedia.org/ontology/poleDriverCountry
p230
aVhttp://dbpedia.org/ontology/demonym
p231
aVhttp://dbpedia.org/ontology/country
p232
aVhttp://www.w3.org/1999/02/22-rdf-syntax-ns#type
p233
aVhttp://dbpedia.org/property/locationCountry
p234
aVhttp://dbpedia.org/ontology/secondDriverCountry
p235
aVhttp://dbpedia.org/property/allegiance
p236
aVhttp://dbpedia.org/property/locationCity
p237
aVhttp://dbpedia.org/property/birthPlace
p238
aVhttp://dbpedia.org/ontology/place
p239
aVhttp://dbpedia.org/ontology/ethnicGroup
p240
aVhttp://dbpedia.org/property/office
p241
aVhttp://dbpedia.org/property/country
p242
aVhttp://dbpedia.org/property/shipCountry
p243
aVhttp://dbpedia.org/property/areaServed
p244
aVhttp://dbpedia.org/property/placeOfBirth
p245
aVhttp://dbpedia.org/ontology/ideology
p246
aVhttp://purl.org/dc/terms/subject
p247
aVhttp://dbpedia.org/property/ideology
p248
aVhttp://dbpedia.org/ontology/abstract
p249
aVhttp://dbpedia.org/ontology/firstDriverCountry
p250
aVhttp://dbpedia.org/property/location
p251
aVhttp://dbpedia.org/property/states
p252
aVhttp://dbpedia.org/ontology/locationCountry
p253
aVhttp://dbpedia.org/ontology/headquarter
p254
aVhttp://dbpedia.org/ontology/language
p255
aVhttp://dbpedia.org/property/headquarters
p256
aVhttp://dbpedia.org/property/languages
p257
aVhttp://dbpedia.org/ontology/territory
p258
aVhttp://dbpedia.org/property/shipBuilder
p259
aVhttp://dbpedia.org/ontology/location
p260
aVhttp://www.w3.org/2000/01/rdf-schema#comment
p261
aVhttp://dbpedia.org/ontology/birthPlace
p262
aVhttp://dbpedia.org/ontology/builder
p263
aVhttp://dbpedia.org/ontology/hometown
p264
aVhttp://dbpedia.org/ontology/garrison
p265
aVhttp://dbpedia.org/property/demonym
p266
aVhttp://dbpedia.org/ontology/spokenIn
p267
aVhttp://dbpedia.org/property/jurisdiction
p268
aVhttp://dbpedia.org/property/garrison
p269
aVhttp://dbpedia.org/ontology/locationCity
p270
aVhttp://dbpedia.org/ontology/deathPlace
p271
assI7
(dp272
I1
(lp273
sI2
(lp274
Vhttp://dbpedia.org/property/languages
p275
aVhttp://dbpedia.org/ontology/country
p276
aVhttp://www.w3.org/1999/02/22-rdf-syntax-ns#type
p277
aVhttp://purl.org/dc/terms/subject
p278
aVhttp://www.w3.org/2000/01/rdf-schema#comment
p279
aVhttp://dbpedia.org/ontology/abstract
p280
aVhttp://dbpedia.org/property/broadcastArea
p281
aVhttp://dbpedia.org/property/location
p282
aVhttp://dbpedia.org/property/placeOfBirth
p283
aVhttp://dbpedia.org/property/states
p284
aVhttp://dbpedia.org/property/winnerOrigin
p285
aVhttp://dbpedia.org/property/birthPlace
p286
aVhttp://dbpedia.org/ontology/place
p287
aVhttp://dbpedia.org/ontology/routeEnd
p288
aVhttp://dbpedia.org/ontology/spokenIn
p289
aVhttp://dbpedia.org/property/regionServed
p290
aVhttp://dbpedia.org/ontology/birthPlace
p291
aVhttp://dbpedia.org/ontology/language
p292
aVhttp://dbpedia.org/ontology/regionServed
p293
ass.