(lp1
(lp2
(dp3
Vstart
p4
I0
sVdisambiguatedURL
p5
NsVnamedEntity
p6
V1
sVoffset
p7
I1
saa(lp8
(dp9
Vstart
p10
I0
sVdisambiguatedURL
p11
NsVnamedEntity
p12
V2
sVoffset
p13
I1
saa(lp14
(dp15
Vstart
p16
I0
sVdisambiguatedURL
p17
NsVnamedEntity
p18
V3
sVoffset
p19
I1
saa(lp20
(dp21
Vstart
p22
I0
sVdisambiguatedURL
p23
NsVnamedEntity
p24
V4
sVoffset
p25
I1
saa(lp26
(dp27
Vstart
p28
I0
sVdisambiguatedURL
p29
NsVnamedEntity
p30
V5
sVoffset
p31
I1
saa(lp32
(dp33
Vstart
p34
I0
sVdisambiguatedURL
p35
NsVnamedEntity
p36
V6
sVoffset
p37
I1
saa(lp38
(dp39
Vstart
p40
I0
sVdisambiguatedURL
p41
NsVnamedEntity
p42
V7
sVoffset
p43
I1
saa(lp44
(dp45
Vstart
p46
I0
sVdisambiguatedURL
p47
NsVnamedEntity
p48
V8
sVoffset
p49
I1
saa(lp50
(dp51
Vstart
p52
I0
sVdisambiguatedURL
p53
NsVnamedEntity
p54
V9
sVoffset
p55
I1
saa(lp56
(dp57
Vstart
p58
I0
sVdisambiguatedURL
p59
NsVnamedEntity
p60
V10
p61
sVoffset
p62
I2
saa(lp63
(dp64
Vstart
p65
I0
sVdisambiguatedURL
p66
NsVnamedEntity
p67
V11
p68
sVoffset
p69
I2
saa(lp70
(dp71
Vstart
p72
I0
sVdisambiguatedURL
p73
NsVnamedEntity
p74
V12
p75
sVoffset
p76
I2
saa(lp77
(dp78
Vstart
p79
I0
sVdisambiguatedURL
p80
NsVnamedEntity
p81
V13
p82
sVoffset
p83
I2
saa(lp84
(dp85
Vstart
p86
I0
sVdisambiguatedURL
p87
NsVnamedEntity
p88
V14
p89
sVoffset
p90
I2
saa.