(lp1
(lp2
(lp3
Vhttp://dbpedia.org/resource/MARRS
p4
aa(lp5
a(lp6
Vhttp://dbpedia.org/resource/Agricultural_law
p7
aaa(lp8
(lp9
Vhttp://dbpedia.org/resource/MARRS
p10
aa(lp11
a(lp12
aa(lp13
(lp14
Vhttp://dbpedia.org/resource/MARRS
p15
aa(lp16
a(lp17
aa(lp18
(lp19
Vhttp://dbpedia.org/resource/MARRS
p20
aa(lp21
a(lp22
aa(lp23
(lp24
Vhttp://dbpedia.org/resource/MARRS
p25
aa(lp26
a(lp27
aa(lp28
(lp29
Vhttp://dbpedia.org/resource/MARRS
p30
aa(lp31
a(lp32
aa.