(lp1
(lp2
(dp3
Vstart
p4
I0
sVdisambiguatedURL
p5
Vhttp://dbpedia.org/resource/MARRS
p6
sVnamedEntity
p7
VS
sVoffset
p8
I1
saa(lp9
(dp10
Vstart
p11
I0
sVdisambiguatedURL
p12
Vhttp://dbpedia.org/resource/MARRS
p13
sVnamedEntity
p14
VS
sVoffset
p15
I1
saa(lp16
(dp17
Vstart
p18
I0
sVdisambiguatedURL
p19
Vhttp://dbpedia.org/resource/MARRS
p20
sVnamedEntity
p21
VS
sVoffset
p22
I1
saa(lp23
(dp24
Vstart
p25
I0
sVdisambiguatedURL
p26
Vhttp://dbpedia.org/resource/MARRS
p27
sVnamedEntity
p28
VS
sVoffset
p29
I1
saa(lp30
(dp31
Vstart
p32
I0
sVdisambiguatedURL
p33
Vhttp://dbpedia.org/resource/MARRS
p34
sVnamedEntity
p35
VS
sVoffset
p36
I1
saa(lp37
(dp38
Vstart
p39
I0
sVdisambiguatedURL
p40
Vhttp://dbpedia.org/resource/MARRS
p41
sVnamedEntity
p42
VS
sVoffset
p43
I1
saa.