(lp1
(lp2
(lp3
a(lp4
a(lp5
Vhttp://dbpedia.org/resource/Data_rate_units
p6
aa(lp7
a(lp8
a(lp9
a(lp10
a(lp11
aa(lp12
(lp13
Vhttp://dbpedia.org/resource/Specific_activity
p14
aa(lp15
a(lp16
Vhttp://dbpedia.org/resource/Data_rate_units
p17
aa(lp18
a(lp19
a(lp20
aa(lp21
(lp22
Vhttp://dbpedia.org/resource/Principal_quantum_number
p23
aa(lp24
Vhttp://dbpedia.org/resource/Brillouin_zone
p25
aa(lp26
Vhttp://dbpedia.org/resource/Canon_L_lens
p27
aa(lp28
Vhttp://dbpedia.org/resource/Canon_L_lens
p29
aaa.