(lp1
(lp2
a(lp3
(dp4
Vstart
p5
I0
sS'classes'
p6
(lp7
Vhttp://www.w3.org/2002/07/owl#Thing
p8
asVdisambiguatedURL
p9
Vhttp://dbpedia.org/resource/Sugar
p10
sVnamedEntity
p11
VRaw Sugar
p12
sVoffset
p13
I9
saa(lp14
(dp15
Vstart
p16
I0
sg6
(lp17
Vhttp://www.w3.org/2002/07/owl#Thing
p18
aVhttp://umbel.org/umbel/rc/BiologicalLivingObject
p19
aVhttp://umbel.org/umbel/rc/EukaryoticCell
p20
aVhttp://umbel.org/umbel/rc/Plant
p21
asVdisambiguatedURL
p22
Vhttp://dbpedia.org/resource/Sugarcane
p23
sVnamedEntity
p24
VSugar Cane
p25
sVoffset
p26
I10
saa(lp27
(dp28
Vstart
p29
I0
sg6
(lp30
Vhttp://www.w3.org/2002/07/owl#Thing
p31
asVdisambiguatedURL
p32
Vhttp://dbpedia.org/resource/Molasses
p33
sVnamedEntity
p34
VMolasses
p35
sVoffset
p36
I8
saa(lp37
(dp38
Vstart
p39
I0
sg6
(lp40
Vhttp://www.w3.org/2002/07/owl#Thing
p41
aVhttp://dbpedia.org/class/yago/Artifact100021939
p42
aVhttp://dbpedia.org/class/yago/Commodity103076708
p43
aVhttp://dbpedia.org/class/yago/Merchandise103748886
p44
aVhttp://dbpedia.org/class/yago/Object100002684
p45
aVhttp://dbpedia.org/class/yago/Whole100003553
p46
aVhttp://dbpedia.org/class/yago/PhysicalEntity100001930
p47
aVhttp://dbpedia.org/class/yago/SoyProducts
p48
asVdisambiguatedURL
p49
Vhttp://dbpedia.org/resource/Textured_vegetable_protein
p50
sVnamedEntity
p51
VSoya Bean
p52
sVoffset
p53
I9
saa(lp54
a(lp55
a(lp56
a(lp57
a(lp58
a(lp59
a.