(lp1
(lp2
(dp3
Vstart
p4
I0
sS'classes'
p5
(lp6
Vhttp://www.w3.org/2002/07/owl#Thing
p7
aVhttp://dbpedia.org/ontology/Place
p8
aVhttp://dbpedia.org/ontology/Location
p9
aVhttp://www.wikidata.org/entity/Q486972
p10
aVhttp://www.wikidata.org/entity/Q6256
p11
aVhttp://dbpedia.org/ontology/Country
p12
aVhttp://dbpedia.org/ontology/PopulatedPlace
p13
aVhttp://www.w3.org/2003/01/geo/wgs84_pos#SpatialThing
p14
aVhttp://schema.org/Country
p15
aVhttp://schema.org/Place
p16
aVhttp://umbel.org/umbel/rc/Country
p17
aVhttp://umbel.org/umbel/rc/Location_Underspecified
p18
aVhttp://umbel.org/umbel/rc/PopulatedPlace
p19
aVhttp://dbpedia.org/class/yago/Abstraction100002137
p20
aVhttp://dbpedia.org/class/yago/AdministrativeDistrict108491826
p21
aVhttp://dbpedia.org/class/yago/Country108544813
p22
aVhttp://dbpedia.org/class/yago/District108552138
p23
aVhttp://dbpedia.org/class/yago/Economy108366753
p24
aVhttp://dbpedia.org/class/yago/Group100031264
p25
aVhttp://dbpedia.org/class/yago/Location100027167
p26
aVhttp://dbpedia.org/class/yago/Object100002684
p27
aVhttp://dbpedia.org/class/yago/Region108630985
p28
aVhttp://dbpedia.org/class/yago/System108435388
p29
aVhttp://dbpedia.org/class/yago/YagoGeoEntity
p30
aVhttp://dbpedia.org/class/yago/YagoLegalActorGeo
p31
aVhttp://dbpedia.org/class/yago/CountriesBorderingTheAtlanticOcean
p32
aVhttp://dbpedia.org/class/yago/FederalCountries
p33
aVhttp://dbpedia.org/class/yago/PhysicalEntity100001930
p34
aVhttp://dbpedia.org/class/yago/YagoPermanentlyLocatedEntity
p35
aVhttp://dbpedia.org/class/yago/MemberStatesOfMercosur
p36
aVhttp://dbpedia.org/class/yago/MemberStatesOfTheUnionOfSouthAmericanNations
p37
aVhttp://dbpedia.org/class/yago/MemberStatesOfTheUnitedNations
p38
aVhttp://dbpedia.org/class/yago/SouthAmericanCountries
p39
aVhttp://dbpedia.org/class/yago/Spanish-speakingCountries
p40
aVhttp://dbpedia.org/class/yago/StatesAndTerritoriesEstablishedIn1816
p41
aVhttp://dbpedia.org/class/yago/WorldTradeOrganizationMemberEconomies
p42
asVdisambiguatedURL
p43
Vhttp://dbpedia.org/resource/Argentina
p44
sVnamedEntity
p45
VArgentina
p46
sVoffset
p47
I9
saa(lp48
(dp49
Vstart
p50
I0
sg5
(lp51
Vhttp://www.w3.org/2002/07/owl#Thing
p52
aVhttp://dbpedia.org/ontology/Place
p53
aVhttp://dbpedia.org/ontology/Location
p54
aVhttp://www.wikidata.org/entity/Q486972
p55
aVhttp://www.wikidata.org/entity/Q6256
p56
aVhttp://dbpedia.org/ontology/Country
p57
aVhttp://dbpedia.org/ontology/PopulatedPlace
p58
aVhttp://schema.org/Country
p59
aVhttp://schema.org/Place
p60
aVhttp://umbel.org/umbel/rc/Country
p61
aVhttp://umbel.org/umbel/rc/Location_Underspecified
p62
aVhttp://umbel.org/umbel/rc/PopulatedPlace
p63
aVhttp://dbpedia.org/class/yago/Abstraction100002137
p64
aVhttp://dbpedia.org/class/yago/AdministrativeDistrict108491826
p65
aVhttp://dbpedia.org/class/yago/Country108544813
p66
aVhttp://dbpedia.org/class/yago/District108552138
p67
aVhttp://dbpedia.org/class/yago/Economy108366753
p68
aVhttp://dbpedia.org/class/yago/Group100031264
p69
aVhttp://dbpedia.org/class/yago/Location100027167
p70
aVhttp://dbpedia.org/class/yago/Object100002684
p71
aVhttp://dbpedia.org/class/yago/Region108630985
p72
aVhttp://dbpedia.org/class/yago/System108435388
p73
aVhttp://dbpedia.org/class/yago/YagoGeoEntity
p74
aVhttp://dbpedia.org/class/yago/YagoLegalActorGeo
p75
aVhttp://dbpedia.org/class/yago/PhysicalEntity100001930
p76
aVhttp://dbpedia.org/class/yago/YagoPermanentlyLocatedEntity
p77
aVhttp://dbpedia.org/class/yago/LandlockedCountries
p78
aVhttp://dbpedia.org/class/yago/MemberStatesOfTheUnionOfSouthAmericanNations
p79
aVhttp://dbpedia.org/class/yago/MemberStatesOfTheUnitedNations
p80
aVhttp://dbpedia.org/class/yago/SouthAmericanCountries
p81
aVhttp://dbpedia.org/class/yago/Spanish-speakingCountries
p82
aVhttp://dbpedia.org/class/yago/StatesAndTerritoriesEstablishedIn1825
p83
aVhttp://dbpedia.org/class/yago/WorldTradeOrganizationMemberEconomies
p84
asVdisambiguatedURL
p85
Vhttp://dbpedia.org/resource/Bolivia
p86
sVnamedEntity
p87
VBolivia
p88
sVoffset
p89
I7
saa(lp90
(dp91
Vstart
p92
I0
sg5
(lp93
Vhttp://www.w3.org/2002/07/owl#Thing
p94
aVhttp://dbpedia.org/ontology/Place
p95
aVhttp://dbpedia.org/ontology/Location
p96
aVhttp://www.wikidata.org/entity/Q486972
p97
aVhttp://www.wikidata.org/entity/Q6256
p98
aVhttp://dbpedia.org/ontology/Country
p99
aVhttp://dbpedia.org/ontology/PopulatedPlace
p100
aVhttp://www.w3.org/2003/01/geo/wgs84_pos#SpatialThing
p101
aVhttp://schema.org/Country
p102
aVhttp://schema.org/Place
p103
aVhttp://umbel.org/umbel/rc/Country
p104
aVhttp://umbel.org/umbel/rc/Location_Underspecified
p105
aVhttp://umbel.org/umbel/rc/PopulatedPlace
p106
aVhttp://dbpedia.org/class/yago/Abstraction100002137
p107
aVhttp://dbpedia.org/class/yago/AdministrativeDistrict108491826
p108
aVhttp://dbpedia.org/class/yago/Country108544813
p109
aVhttp://dbpedia.org/class/yago/District108552138
p110
aVhttp://dbpedia.org/class/yago/Economy108366753
p111
aVhttp://dbpedia.org/class/yago/Group100031264
p112
aVhttp://dbpedia.org/class/yago/Location100027167
p113
aVhttp://dbpedia.org/class/yago/Object100002684
p114
aVhttp://dbpedia.org/class/yago/Region108630985
p115
aVhttp://dbpedia.org/class/yago/System108435388
p116
aVhttp://dbpedia.org/class/yago/YagoGeoEntity
p117
aVhttp://dbpedia.org/class/yago/YagoLegalActorGeo
p118
aVhttp://dbpedia.org/class/yago/CountriesBorderingTheAtlanticOcean
p119
aVhttp://dbpedia.org/class/yago/FederalCountries
p120
aVhttp://dbpedia.org/class/yago/PhysicalEntity100001930
p121
aVhttp://dbpedia.org/class/yago/YagoPermanentlyLocatedEntity
p122
aVhttp://dbpedia.org/class/yago/LatinAmericanCountries
p123
aVhttp://dbpedia.org/class/yago/MemberStatesOfMercosur
p124
aVhttp://dbpedia.org/class/yago/MemberStatesOfTheCommunityOfPortugueseLanguageCountries
p125
aVhttp://dbpedia.org/class/yago/MemberStatesOfTheUnionOfSouthAmericanNations
p126
aVhttp://dbpedia.org/class/yago/MemberStatesOfTheUnitedNations
p127
aVhttp://dbpedia.org/class/yago/Portuguese-speakingCountries
p128
aVhttp://dbpedia.org/class/yago/SouthAmericanCountries
p129
aVhttp://dbpedia.org/class/yago/StatesAndTerritoriesEstablishedIn1822
p130
aVhttp://dbpedia.org/class/yago/WorldTradeOrganizationMemberEconomies
p131
asVdisambiguatedURL
p132
Vhttp://dbpedia.org/resource/Brazil
p133
sVnamedEntity
p134
VBrazil
p135
sVoffset
p136
I6
saa(lp137
(dp138
Vstart
p139
I0
sg5
(lp140
Vhttp://www.w3.org/2002/07/owl#Thing
p141
aVhttp://dbpedia.org/ontology/Place
p142
aVhttp://dbpedia.org/ontology/Location
p143
aVhttp://www.wikidata.org/entity/Q486972
p144
aVhttp://www.wikidata.org/entity/Q6256
p145
aVhttp://dbpedia.org/ontology/Country
p146
aVhttp://dbpedia.org/ontology/PopulatedPlace
p147
aVhttp://www.w3.org/2003/01/geo/wgs84_pos#SpatialThing
p148
aVhttp://schema.org/Country
p149
aVhttp://schema.org/Place
p150
aVhttp://umbel.org/umbel/rc/Country
p151
aVhttp://umbel.org/umbel/rc/Location_Underspecified
p152
aVhttp://umbel.org/umbel/rc/PopulatedPlace
p153
aVhttp://dbpedia.org/class/yago/Abstraction100002137
p154
aVhttp://dbpedia.org/class/yago/AdministrativeDistrict108491826
p155
aVhttp://dbpedia.org/class/yago/Country108544813
p156
aVhttp://dbpedia.org/class/yago/District108552138
p157
aVhttp://dbpedia.org/class/yago/Economy108366753
p158
aVhttp://dbpedia.org/class/yago/Group100031264
p159
aVhttp://dbpedia.org/class/yago/Location100027167
p160
aVhttp://dbpedia.org/class/yago/Object100002684
p161
aVhttp://dbpedia.org/class/yago/Region108630985
p162
aVhttp://dbpedia.org/class/yago/System108435388
p163
aVhttp://dbpedia.org/class/yago/YagoGeoEntity
p164
aVhttp://dbpedia.org/class/yago/YagoLegalActorGeo
p165
aVhttp://dbpedia.org/class/yago/CountriesBorderingThePacificOcean
p166
aVhttp://dbpedia.org/class/yago/PhysicalEntity100001930
p167
aVhttp://dbpedia.org/class/yago/YagoPermanentlyLocatedEntity
p168
aVhttp://dbpedia.org/class/yago/MemberStatesOfTheUnionOfSouthAmericanNations
p169
aVhttp://dbpedia.org/class/yago/MemberStatesOfTheUnitedNations
p170
aVhttp://dbpedia.org/class/yago/SouthAmericanCountries
p171
aVhttp://dbpedia.org/class/yago/Spanish-speakingCountries
p172
aVhttp://dbpedia.org/class/yago/StatesAndTerritoriesEstablishedIn1818
p173
aVhttp://dbpedia.org/class/yago/WorldTradeOrganizationMemberEconomies
p174
asVdisambiguatedURL
p175
Vhttp://dbpedia.org/resource/Chile
p176
sVnamedEntity
p177
VChile
p178
sVoffset
p179
I5
saa(lp180
(dp181
Vstart
p182
I0
sg5
(lp183
Vhttp://www.w3.org/2002/07/owl#Thing
p184
aVhttp://dbpedia.org/ontology/Place
p185
aVhttp://dbpedia.org/ontology/Location
p186
aVhttp://www.wikidata.org/entity/Q486972
p187
aVhttp://www.wikidata.org/entity/Q6256
p188
aVhttp://dbpedia.org/ontology/Country
p189
aVhttp://dbpedia.org/ontology/PopulatedPlace
p190
aVhttp://www.w3.org/2003/01/geo/wgs84_pos#SpatialThing
p191
aVhttp://schema.org/Country
p192
aVhttp://schema.org/Place
p193
aVhttp://umbel.org/umbel/rc/Country
p194
aVhttp://umbel.org/umbel/rc/Location_Underspecified
p195
aVhttp://umbel.org/umbel/rc/PopulatedPlace
p196
aVhttp://dbpedia.org/class/yago/Abstraction100002137
p197
aVhttp://dbpedia.org/class/yago/AdministrativeDistrict108491826
p198
aVhttp://dbpedia.org/class/yago/CaribbeanCountries
p199
aVhttp://dbpedia.org/class/yago/Country108544813
p200
aVhttp://dbpedia.org/class/yago/District108552138
p201
aVhttp://dbpedia.org/class/yago/Economy108366753
p202
aVhttp://dbpedia.org/class/yago/Group100031264
p203
aVhttp://dbpedia.org/class/yago/Location100027167
p204
aVhttp://dbpedia.org/class/yago/Object100002684
p205
aVhttp://dbpedia.org/class/yago/Region108630985
p206
aVhttp://dbpedia.org/class/yago/System108435388
p207
aVhttp://dbpedia.org/class/yago/YagoGeoEntity
p208
aVhttp://dbpedia.org/class/yago/YagoLegalActorGeo
p209
aVhttp://dbpedia.org/class/yago/CountriesBorderingThePacificOcean
p210
aVhttp://dbpedia.org/class/yago/PhysicalEntity100001930
p211
aVhttp://dbpedia.org/class/yago/YagoPermanentlyLocatedEntity
p212
aVhttp://dbpedia.org/class/yago/MemberStatesOfTheUnionOfSouthAmericanNations
p213
aVhttp://dbpedia.org/class/yago/MemberStatesOfTheUnitedNations
p214
aVhttp://dbpedia.org/class/yago/SouthAmericanCountries
p215
aVhttp://dbpedia.org/class/yago/Spanish-speakingCountries
p216
aVhttp://dbpedia.org/class/yago/StatesAndTerritoriesEstablishedIn1810
p217
aVhttp://dbpedia.org/class/yago/WorldTradeOrganizationMemberEconomies
p218
asVdisambiguatedURL
p219
Vhttp://dbpedia.org/resource/Colombia
p220
sVnamedEntity
p221
VColombia
p222
sVoffset
p223
I8
saa(lp224
(dp225
Vstart
p226
I0
sg5
(lp227
Vhttp://www.w3.org/2002/07/owl#Thing
p228
aVhttp://dbpedia.org/ontology/Place
p229
aVhttp://dbpedia.org/ontology/Location
p230
aVhttp://www.wikidata.org/entity/Q486972
p231
aVhttp://www.wikidata.org/entity/Q6256
p232
aVhttp://dbpedia.org/ontology/Country
p233
aVhttp://dbpedia.org/ontology/PopulatedPlace
p234
aVhttp://www.w3.org/2003/01/geo/wgs84_pos#SpatialThing
p235
aVhttp://schema.org/Country
p236
aVhttp://schema.org/Place
p237
aVhttp://umbel.org/umbel/rc/Country
p238
aVhttp://umbel.org/umbel/rc/Location_Underspecified
p239
aVhttp://umbel.org/umbel/rc/PopulatedPlace
p240
aVhttp://dbpedia.org/class/yago/Abstraction100002137
p241
aVhttp://dbpedia.org/class/yago/AdministrativeDistrict108491826
p242
aVhttp://dbpedia.org/class/yago/Country108544813
p243
aVhttp://dbpedia.org/class/yago/District108552138
p244
aVhttp://dbpedia.org/class/yago/Economy108366753
p245
aVhttp://dbpedia.org/class/yago/Group100031264
p246
aVhttp://dbpedia.org/class/yago/Location100027167
p247
aVhttp://dbpedia.org/class/yago/Object100002684
p248
aVhttp://dbpedia.org/class/yago/Region108630985
p249
aVhttp://dbpedia.org/class/yago/System108435388
p250
aVhttp://dbpedia.org/class/yago/YagoGeoEntity
p251
aVhttp://dbpedia.org/class/yago/YagoLegalActorGeo
p252
aVhttp://dbpedia.org/class/yago/CountriesBorderingThePacificOcean
p253
aVhttp://dbpedia.org/class/yago/PhysicalEntity100001930
p254
aVhttp://dbpedia.org/class/yago/YagoPermanentlyLocatedEntity
p255
aVhttp://dbpedia.org/class/yago/MemberStatesOfOPEC
p256
aVhttp://dbpedia.org/class/yago/MemberStatesOfTheUnionOfSouthAmericanNations
p257
aVhttp://dbpedia.org/class/yago/MemberStatesOfTheUnitedNations
p258
aVhttp://dbpedia.org/class/yago/SouthAmericanCountries
p259
aVhttp://dbpedia.org/class/yago/Spanish-speakingCountries
p260
aVhttp://dbpedia.org/class/yago/StatesAndTerritoriesEstablishedIn1830
p261
aVhttp://dbpedia.org/class/yago/WorldTradeOrganizationMemberEconomies
p262
asVdisambiguatedURL
p263
Vhttp://dbpedia.org/resource/Ecuador
p264
sVnamedEntity
p265
VEcuador
p266
sVoffset
p267
I7
saa(lp268
a(lp269
a(lp270
(dp271
Vstart
p272
I0
sg5
(lp273
Vhttp://www.w3.org/2002/07/owl#Thing
p274
aVhttp://dbpedia.org/ontology/Place
p275
aVhttp://dbpedia.org/ontology/Location
p276
aVhttp://www.wikidata.org/entity/Q486972
p277
aVhttp://www.wikidata.org/entity/Q6256
p278
aVhttp://dbpedia.org/ontology/Country
p279
aVhttp://dbpedia.org/ontology/PopulatedPlace
p280
aVhttp://www.w3.org/2003/01/geo/wgs84_pos#SpatialThing
p281
aVhttp://schema.org/Country
p282
aVhttp://schema.org/Place
p283
aVhttp://umbel.org/umbel/rc/Country
p284
aVhttp://umbel.org/umbel/rc/Location_Underspecified
p285
aVhttp://umbel.org/umbel/rc/PopulatedPlace
p286
aVhttp://dbpedia.org/class/yago/Abstraction100002137
p287
aVhttp://dbpedia.org/class/yago/AdministrativeDistrict108491826
p288
aVhttp://dbpedia.org/class/yago/CaribbeanCountries
p289
aVhttp://dbpedia.org/class/yago/Country108544813
p290
aVhttp://dbpedia.org/class/yago/District108552138
p291
aVhttp://dbpedia.org/class/yago/Economy108366753
p292
aVhttp://dbpedia.org/class/yago/Group100031264
p293
aVhttp://dbpedia.org/class/yago/Location100027167
p294
aVhttp://dbpedia.org/class/yago/Object100002684
p295
aVhttp://dbpedia.org/class/yago/Region108630985
p296
aVhttp://dbpedia.org/class/yago/System108435388
p297
aVhttp://dbpedia.org/class/yago/YagoGeoEntity
p298
aVhttp://dbpedia.org/class/yago/YagoLegalActorGeo
p299
aVhttp://dbpedia.org/class/yago/CountriesBorderingTheAtlanticOcean
p300
aVhttp://dbpedia.org/class/yago/English-speakingCountriesAndTerritories
p301
aVhttp://dbpedia.org/class/yago/PhysicalEntity100001930
p302
aVhttp://dbpedia.org/class/yago/YagoPermanentlyLocatedEntity
p303
aVhttp://dbpedia.org/class/yago/MemberStatesOfTheCaribbeanCommunity
p304
aVhttp://dbpedia.org/class/yago/MemberStatesOfTheCommonwealthOfNations
p305
aVhttp://dbpedia.org/class/yago/MemberStatesOfTheOrganisationOfIslamicCooperation
p306
aVhttp://dbpedia.org/class/yago/MemberStatesOfTheUnionOfSouthAmericanNations
p307
aVhttp://dbpedia.org/class/yago/MemberStatesOfTheUnitedNations
p308
aVhttp://dbpedia.org/class/yago/SouthAmericanCountries
p309
aVhttp://dbpedia.org/class/yago/StatesAndTerritoriesEstablishedIn1966
p310
aVhttp://dbpedia.org/class/yago/WorldTradeOrganizationMemberEconomies
p311
asVdisambiguatedURL
p312
Vhttp://dbpedia.org/resource/Guyana
p313
sVnamedEntity
p314
VGuyana
p315
sVoffset
p316
I6
saa(lp317
(dp318
Vstart
p319
I0
sg5
(lp320
Vhttp://www.w3.org/2002/07/owl#Thing
p321
aVhttp://dbpedia.org/ontology/Place
p322
aVhttp://dbpedia.org/ontology/Location
p323
aVhttp://www.wikidata.org/entity/Q486972
p324
aVhttp://www.wikidata.org/entity/Q6256
p325
aVhttp://dbpedia.org/ontology/Country
p326
aVhttp://dbpedia.org/ontology/PopulatedPlace
p327
aVhttp://www.w3.org/2003/01/geo/wgs84_pos#SpatialThing
p328
aVhttp://schema.org/Country
p329
aVhttp://schema.org/Place
p330
aVhttp://umbel.org/umbel/rc/Country
p331
aVhttp://umbel.org/umbel/rc/Location_Underspecified
p332
aVhttp://umbel.org/umbel/rc/PopulatedPlace
p333
aVhttp://dbpedia.org/class/yago/Abstraction100002137
p334
aVhttp://dbpedia.org/class/yago/AdministrativeDistrict108491826
p335
aVhttp://dbpedia.org/class/yago/Country108544813
p336
aVhttp://dbpedia.org/class/yago/District108552138
p337
aVhttp://dbpedia.org/class/yago/Economy108366753
p338
aVhttp://dbpedia.org/class/yago/Group100031264
p339
aVhttp://dbpedia.org/class/yago/Location100027167
p340
aVhttp://dbpedia.org/class/yago/Object100002684
p341
aVhttp://dbpedia.org/class/yago/Region108630985
p342
aVhttp://dbpedia.org/class/yago/System108435388
p343
aVhttp://dbpedia.org/class/yago/YagoGeoEntity
p344
aVhttp://dbpedia.org/class/yago/YagoLegalActorGeo
p345
aVhttp://dbpedia.org/class/yago/PhysicalEntity100001930
p346
aVhttp://dbpedia.org/class/yago/YagoPermanentlyLocatedEntity
p347
aVhttp://dbpedia.org/class/yago/LandlockedCountries
p348
aVhttp://dbpedia.org/class/yago/MemberStatesOfMercosur
p349
aVhttp://dbpedia.org/class/yago/MemberStatesOfTheUnionOfSouthAmericanNations
p350
aVhttp://dbpedia.org/class/yago/MemberStatesOfTheUnitedNations
p351
aVhttp://dbpedia.org/class/yago/SouthAmericanCountries
p352
aVhttp://dbpedia.org/class/yago/Spanish-speakingCountries
p353
aVhttp://dbpedia.org/class/yago/StatesAndTerritoriesEstablishedIn1811
p354
aVhttp://dbpedia.org/class/yago/WorldTradeOrganizationMemberEconomies
p355
asVdisambiguatedURL
p356
Vhttp://dbpedia.org/resource/Paraguay
p357
sVnamedEntity
p358
VParaguay
p359
sVoffset
p360
I8
saa(lp361
(dp362
Vstart
p363
I0
sg5
(lp364
Vhttp://www.w3.org/2002/07/owl#Thing
p365
aVhttp://dbpedia.org/ontology/Place
p366
aVhttp://dbpedia.org/ontology/Location
p367
aVhttp://www.wikidata.org/entity/Q486972
p368
aVhttp://www.wikidata.org/entity/Q6256
p369
aVhttp://dbpedia.org/ontology/Country
p370
aVhttp://dbpedia.org/ontology/PopulatedPlace
p371
aVhttp://www.w3.org/2003/01/geo/wgs84_pos#SpatialThing
p372
aVhttp://schema.org/Country
p373
aVhttp://schema.org/Place
p374
aVhttp://umbel.org/umbel/rc/Country
p375
aVhttp://umbel.org/umbel/rc/Location_Underspecified
p376
aVhttp://umbel.org/umbel/rc/PopulatedPlace
p377
aVhttp://dbpedia.org/class/yago/Abstraction100002137
p378
aVhttp://dbpedia.org/class/yago/AdministrativeDistrict108491826
p379
aVhttp://dbpedia.org/class/yago/Country108544813
p380
aVhttp://dbpedia.org/class/yago/District108552138
p381
aVhttp://dbpedia.org/class/yago/Economy108366753
p382
aVhttp://dbpedia.org/class/yago/Group100031264
p383
aVhttp://dbpedia.org/class/yago/Location100027167
p384
aVhttp://dbpedia.org/class/yago/Object100002684
p385
aVhttp://dbpedia.org/class/yago/Region108630985
p386
aVhttp://dbpedia.org/class/yago/System108435388
p387
aVhttp://dbpedia.org/class/yago/YagoGeoEntity
p388
aVhttp://dbpedia.org/class/yago/YagoLegalActorGeo
p389
aVhttp://dbpedia.org/class/yago/CountriesBorderingThePacificOcean
p390
aVhttp://dbpedia.org/class/yago/PhysicalEntity100001930
p391
aVhttp://dbpedia.org/class/yago/YagoPermanentlyLocatedEntity
p392
aVhttp://dbpedia.org/class/yago/MemberStatesOfTheUnionOfSouthAmericanNations
p393
aVhttp://dbpedia.org/class/yago/MemberStatesOfTheUnitedNations
p394
aVhttp://dbpedia.org/class/yago/SouthAmericanCountries
p395
aVhttp://dbpedia.org/class/yago/Spanish-speakingCountries
p396
aVhttp://dbpedia.org/class/yago/StatesAndTerritoriesEstablishedIn1821
p397
aVhttp://dbpedia.org/class/yago/WorldTradeOrganizationMemberEconomies
p398
asVdisambiguatedURL
p399
Vhttp://dbpedia.org/resource/Peru
p400
sVnamedEntity
p401
VPeru
p402
sVoffset
p403
I4
saa(lp404
(dp405
Vstart
p406
I0
sg5
(lp407
Vhttp://www.w3.org/2002/07/owl#Thing
p408
aVhttp://dbpedia.org/ontology/Place
p409
aVhttp://dbpedia.org/ontology/Location
p410
aVhttp://www.wikidata.org/entity/Q486972
p411
aVhttp://www.wikidata.org/entity/Q6256
p412
aVhttp://dbpedia.org/ontology/Country
p413
aVhttp://dbpedia.org/ontology/PopulatedPlace
p414
aVhttp://www.w3.org/2003/01/geo/wgs84_pos#SpatialThing
p415
aVhttp://schema.org/Country
p416
aVhttp://schema.org/Place
p417
aVhttp://umbel.org/umbel/rc/Country
p418
aVhttp://umbel.org/umbel/rc/Location_Underspecified
p419
aVhttp://umbel.org/umbel/rc/PopulatedPlace
p420
asVdisambiguatedURL
p421
Vhttp://dbpedia.org/resource/South_Georgia_and_the_South_Sandwich_Islands
p422
sVnamedEntity
p423
VSouth Georgia and South Sandwich Islands
p424
sVoffset
p425
I40
saa(lp426
(dp427
Vstart
p428
I0
sg5
(lp429
Vhttp://www.w3.org/2002/07/owl#Thing
p430
aVhttp://dbpedia.org/ontology/Place
p431
aVhttp://dbpedia.org/ontology/Location
p432
aVhttp://www.wikidata.org/entity/Q486972
p433
aVhttp://www.wikidata.org/entity/Q6256
p434
aVhttp://dbpedia.org/ontology/Country
p435
aVhttp://dbpedia.org/ontology/PopulatedPlace
p436
aVhttp://www.w3.org/2003/01/geo/wgs84_pos#SpatialThing
p437
aVhttp://schema.org/Country
p438
aVhttp://schema.org/Place
p439
aVhttp://umbel.org/umbel/rc/Country
p440
aVhttp://umbel.org/umbel/rc/Location_Underspecified
p441
aVhttp://umbel.org/umbel/rc/PopulatedPlace
p442
aVhttp://dbpedia.org/class/yago/Abstraction100002137
p443
aVhttp://dbpedia.org/class/yago/AdministrativeDistrict108491826
p444
aVhttp://dbpedia.org/class/yago/CaribbeanCountries
p445
aVhttp://dbpedia.org/class/yago/Country108544813
p446
aVhttp://dbpedia.org/class/yago/District108552138
p447
aVhttp://dbpedia.org/class/yago/Economy108366753
p448
aVhttp://dbpedia.org/class/yago/Group100031264
p449
aVhttp://dbpedia.org/class/yago/Location100027167
p450
aVhttp://dbpedia.org/class/yago/Object100002684
p451
aVhttp://dbpedia.org/class/yago/Region108630985
p452
aVhttp://dbpedia.org/class/yago/System108435388
p453
aVhttp://dbpedia.org/class/yago/YagoGeoEntity
p454
aVhttp://dbpedia.org/class/yago/YagoLegalActorGeo
p455
aVhttp://dbpedia.org/class/yago/CountriesBorderingTheAtlanticOcean
p456
aVhttp://dbpedia.org/class/yago/Dutch-speakingCountries
p457
aVhttp://dbpedia.org/class/yago/PhysicalEntity100001930
p458
aVhttp://dbpedia.org/class/yago/YagoPermanentlyLocatedEntity
p459
aVhttp://dbpedia.org/class/yago/MemberStatesOfTheCaribbeanCommunity
p460
aVhttp://dbpedia.org/class/yago/MemberStatesOfTheDutchLanguageUnion
p461
aVhttp://dbpedia.org/class/yago/MemberStatesOfTheOrganisationOfIslamicCooperation
p462
aVhttp://dbpedia.org/class/yago/MemberStatesOfTheUnionOfSouthAmericanNations
p463
aVhttp://dbpedia.org/class/yago/MemberStatesOfTheUnitedNations
p464
aVhttp://dbpedia.org/class/yago/SouthAmericanCountries
p465
aVhttp://dbpedia.org/class/yago/StatesAndTerritoriesEstablishedIn1975
p466
aVhttp://dbpedia.org/class/yago/WorldTradeOrganizationMemberEconomies
p467
asVdisambiguatedURL
p468
Vhttp://dbpedia.org/resource/Suriname
p469
sVnamedEntity
p470
VSuriname
p471
sVoffset
p472
I8
saa(lp473
(dp474
Vstart
p475
I0
sg5
(lp476
Vhttp://www.w3.org/2002/07/owl#Thing
p477
aVhttp://dbpedia.org/ontology/Place
p478
aVhttp://dbpedia.org/ontology/Location
p479
aVhttp://www.wikidata.org/entity/Q486972
p480
aVhttp://www.wikidata.org/entity/Q6256
p481
aVhttp://dbpedia.org/ontology/Country
p482
aVhttp://dbpedia.org/ontology/PopulatedPlace
p483
aVhttp://www.w3.org/2003/01/geo/wgs84_pos#SpatialThing
p484
aVhttp://schema.org/Country
p485
aVhttp://schema.org/Place
p486
aVhttp://umbel.org/umbel/rc/Country
p487
aVhttp://umbel.org/umbel/rc/Location_Underspecified
p488
aVhttp://umbel.org/umbel/rc/PopulatedPlace
p489
aVhttp://dbpedia.org/class/yago/Abstraction100002137
p490
aVhttp://dbpedia.org/class/yago/AdministrativeDistrict108491826
p491
aVhttp://dbpedia.org/class/yago/Country108544813
p492
aVhttp://dbpedia.org/class/yago/District108552138
p493
aVhttp://dbpedia.org/class/yago/Economy108366753
p494
aVhttp://dbpedia.org/class/yago/Group100031264
p495
aVhttp://dbpedia.org/class/yago/Location100027167
p496
aVhttp://dbpedia.org/class/yago/Object100002684
p497
aVhttp://dbpedia.org/class/yago/Region108630985
p498
aVhttp://dbpedia.org/class/yago/System108435388
p499
aVhttp://dbpedia.org/class/yago/YagoGeoEntity
p500
aVhttp://dbpedia.org/class/yago/YagoLegalActorGeo
p501
aVhttp://dbpedia.org/class/yago/CountriesBorderingTheAtlanticOcean
p502
aVhttp://dbpedia.org/class/yago/PhysicalEntity100001930
p503
aVhttp://dbpedia.org/class/yago/YagoPermanentlyLocatedEntity
p504
aVhttp://dbpedia.org/class/yago/MemberStatesOfMercosur
p505
aVhttp://dbpedia.org/class/yago/MemberStatesOfTheUnionOfSouthAmericanNations
p506
aVhttp://dbpedia.org/class/yago/MemberStatesOfTheUnitedNations
p507
aVhttp://dbpedia.org/class/yago/SouthAmericanCountries
p508
aVhttp://dbpedia.org/class/yago/Spanish-speakingCountries
p509
aVhttp://dbpedia.org/class/yago/StatesAndTerritoriesEstablishedIn1825
p510
aVhttp://dbpedia.org/class/yago/WorldTradeOrganizationMemberEconomies
p511
asVdisambiguatedURL
p512
Vhttp://dbpedia.org/resource/Uruguay
p513
sVnamedEntity
p514
VUruguay
p515
sVoffset
p516
I7
saa(lp517
(dp518
Vstart
p519
I0
sg5
(lp520
Vhttp://www.w3.org/2002/07/owl#Thing
p521
aVhttp://dbpedia.org/ontology/Place
p522
aVhttp://dbpedia.org/ontology/Location
p523
aVhttp://www.wikidata.org/entity/Q486972
p524
aVhttp://www.wikidata.org/entity/Q6256
p525
aVhttp://dbpedia.org/ontology/Country
p526
aVhttp://dbpedia.org/ontology/PopulatedPlace
p527
aVhttp://www.w3.org/2003/01/geo/wgs84_pos#SpatialThing
p528
aVhttp://schema.org/Country
p529
aVhttp://schema.org/Place
p530
aVhttp://umbel.org/umbel/rc/Country
p531
aVhttp://umbel.org/umbel/rc/Location_Underspecified
p532
aVhttp://umbel.org/umbel/rc/PopulatedPlace
p533
aVhttp://dbpedia.org/class/yago/Abstraction100002137
p534
aVhttp://dbpedia.org/class/yago/AdministrativeDistrict108491826
p535
aVhttp://dbpedia.org/class/yago/CaribbeanCountries
p536
aVhttp://dbpedia.org/class/yago/Country108544813
p537
aVhttp://dbpedia.org/class/yago/District108552138
p538
aVhttp://dbpedia.org/class/yago/Economy108366753
p539
aVhttp://dbpedia.org/class/yago/Group100031264
p540
aVhttp://dbpedia.org/class/yago/Location100027167
p541
aVhttp://dbpedia.org/class/yago/Object100002684
p542
aVhttp://dbpedia.org/class/yago/Region108630985
p543
aVhttp://dbpedia.org/class/yago/System108435388
p544
aVhttp://dbpedia.org/class/yago/YagoGeoEntity
p545
aVhttp://dbpedia.org/class/yago/YagoLegalActorGeo
p546
aVhttp://dbpedia.org/class/yago/FederalCountries
p547
aVhttp://dbpedia.org/class/yago/PhysicalEntity100001930
p548
aVhttp://dbpedia.org/class/yago/YagoPermanentlyLocatedEntity
p549
aVhttp://dbpedia.org/class/yago/MemberStatesOfOPEC
p550
aVhttp://dbpedia.org/class/yago/MemberStatesOfTheUnionOfSouthAmericanNations
p551
aVhttp://dbpedia.org/class/yago/MemberStatesOfTheUnitedNations
p552
aVhttp://dbpedia.org/class/yago/SouthAmericanCountries
p553
aVhttp://dbpedia.org/class/yago/Spanish-speakingCountries
p554
aVhttp://dbpedia.org/class/yago/StatesAndTerritoriesEstablishedIn1811
p555
aVhttp://dbpedia.org/class/yago/WorldTradeOrganizationMemberEconomies
p556
asVdisambiguatedURL
p557
Vhttp://dbpedia.org/resource/Venezuela
p558
sVnamedEntity
p559
VVenezuela
p560
sVoffset
p561
I9
saa(lp562
a.