(lp1
(lp2
(lp3
Vhttp://dbpedia.org/resource/Argentina
p4
aa(lp5
a(lp6
a(lp7
a(lp8
Vhttp://dbpedia.org/resource/Buenos_Aires
p9
aaa(lp10
(lp11
Vhttp://dbpedia.org/resource/Bolivia
p12
aa(lp13
a(lp14
a(lp15
a(lp16
aa(lp17
(lp18
Vhttp://dbpedia.org/resource/Brazil
p19
aa(lp20
a(lp21
a(lp22
a(lp23
aa(lp24
(lp25
Vhttp://dbpedia.org/resource/Chile
p26
aa(lp27
a(lp28
a(lp29
a(lp30
aa(lp31
(lp32
Vhttp://dbpedia.org/resource/Colombia
p33
aa(lp34
a(lp35
a(lp36
a(lp37
aa(lp38
(lp39
Vhttp://dbpedia.org/resource/Ecuador
p40
aa(lp41
a(lp42
a(lp43
a(lp44
Vhttp://dbpedia.org/resource/Quito
p45
aaa(lp46
(lp47
a(lp48
a(lp49
a(lp50
a(lp51
Vhttp://dbpedia.org/resource/Stanley_Motor_Carriage_Company
p52
aaa(lp53
(lp54
a(lp55
a(lp56
a(lp57
a(lp58
Vhttp://dbpedia.org/resource/Cayenne
p59
aaa(lp60
(lp61
Vhttp://dbpedia.org/resource/Guyana
p62
aa(lp63
a(lp64
a(lp65
a(lp66
Vhttp://dbpedia.org/resource/Georgetown_University
p67
aaa(lp68
(lp69
Vhttp://dbpedia.org/resource/Paraguay
p70
aa(lp71
a(lp72
a(lp73
a(lp74
aa(lp75
(lp76
Vhttp://dbpedia.org/resource/Peru
p77
aa(lp78
a(lp79
a(lp80
a(lp81
Vhttp://dbpedia.org/resource/Lima
p82
aaa(lp83
(lp84
Vhttp://dbpedia.org/resource/South_Georgia_and_the_South_Sandwich_Islands
p85
aa(lp86
a(lp87
a(lp88
a(lp89
Vhttp://dbpedia.org/resource/Grytviken
p90
aaa(lp91
(lp92
Vhttp://dbpedia.org/resource/Suriname
p93
aa(lp94
a(lp95
a(lp96
a(lp97
Vhttp://dbpedia.org/resource/Paramaribo
p98
aaa(lp99
(lp100
Vhttp://dbpedia.org/resource/Uruguay
p101
aa(lp102
a(lp103
a(lp104
a(lp105
Vhttp://dbpedia.org/resource/Montevideo
p106
aaa(lp107
(lp108
Vhttp://dbpedia.org/resource/Venezuela
p109
aa(lp110
a(lp111
a(lp112
a(lp113
Vhttp://dbpedia.org/resource/Caracas
p114
aaa(lp115
(lp116
Vhttp://dbpedia.org/resource/Total!
p117
aa(lp118
a(lp119
a(lp120
a(lp121
aa.