(lp1
(lp2
(dp3
Vstart
p4
I0
sVdisambiguatedURL
p5
NsVnamedEntity
p6
V3m
p7
sVoffset
p8
I2
saa(lp9
(dp10
Vstart
p11
I0
sVdisambiguatedURL
p12
NsVnamedEntity
p13
Valcoa
p14
sVoffset
p15
I5
saa(lp16
(dp17
Vstart
p18
I0
sVdisambiguatedURL
p19
NsVnamedEntity
p20
Vamerican   express
p21
sVoffset
p22
I18
saa(lp23
(dp24
Vstart
p25
I0
sVdisambiguatedURL
p26
NsVnamedEntity
p27
Vat&amp;t
p28
sVoffset
p29
I8
saa(lp30
(dp31
Vstart
p32
I0
sVdisambiguatedURL
p33
NsVnamedEntity
p34
Vbank of   america
p35
sVoffset
p36
I17
saa(lp37
(dp38
Vstart
p39
I0
sVdisambiguatedURL
p40
NsVnamedEntity
p41
Vboeing
p42
sVoffset
p43
I6
saa(lp44
(dp45
Vstart
p46
I0
sVdisambiguatedURL
p47
Vhttp://dbpedia.org/resource/Caterpillar
p48
sVnamedEntity
p49
Vcaterpillar
p50
sVoffset
p51
I11
saa(lp52
(dp53
Vstart
p54
I0
sVdisambiguatedURL
p55
NsVnamedEntity
p56
Vchevron   corporation
p57
sVoffset
p58
I21
saa(lp59
(dp60
Vstart
p61
I0
sVdisambiguatedURL
p62
NsVnamedEntity
p63
Vcitigroup
p64
sVoffset
p65
I9
saa(lp66
(dp67
Vstart
p68
I0
sVdisambiguatedURL
p69
NsVnamedEntity
p70
Vcoca-cola
p71
sVoffset
p72
I9
saa(lp73
(dp74
Vstart
p75
I0
sVdisambiguatedURL
p76
NsVnamedEntity
p77
Vdupont
p78
sVoffset
p79
I6
saa(lp80
(dp81
Vstart
p82
I0
sVdisambiguatedURL
p83
NsVnamedEntity
p84
Vexxonmobil
p85
sVoffset
p86
I10
saa(lp87
(dp88
Vstart
p89
I0
sVdisambiguatedURL
p90
NsVnamedEntity
p91
Vgeneral   electric
p92
sVoffset
p93
I18
saa(lp94
(dp95
Vstart
p96
I0
sVdisambiguatedURL
p97
NsVnamedEntity
p98
Vgeneral   motors
p99
sVoffset
p100
I16
saa(lp101
(dp102
Vstart
p103
I0
sVdisambiguatedURL
p104
Vhttp://dbpedia.org/resource/Hewlett-Packard
p105
sVnamedEntity
p106
Vhewlett-packard
p107
sVoffset
p108
I15
saa(lp109
(dp110
Vstart
p111
I0
sVdisambiguatedURL
p112
NsVnamedEntity
p113
Vhome   depot
p114
sVoffset
p115
I12
saa(lp116
(dp117
Vstart
p118
I0
sVdisambiguatedURL
p119
NsVnamedEntity
p120
Vintel
p121
sVoffset
p122
I5
saa(lp123
(dp124
Vstart
p125
I0
sVdisambiguatedURL
p126
NsVnamedEntity
p127
Vibm
p128
sVoffset
p129
I3
saa(lp130
(dp131
Vstart
p132
I0
sVdisambiguatedURL
p133
NsVnamedEntity
p134
Vjohnson   &amp; johnson
p135
sVoffset
p136
I23
saa(lp137
(dp138
Vstart
p139
I0
sVdisambiguatedURL
p140
NsVnamedEntity
p141
Vjpmorgan   chase
p142
sVoffset
p143
I16
saa.