(lp1
(dp2
I0
(dp3
I0
(lp4
sI1
(lp5
sI2
(lp6
sI3
(lp7
ssI1
(dp8
I0
g5
sI1
(lp9
sI2
(lp10
sI3
(lp11
ssI2
(dp12
I0
g6
sI1
g10
sI2
(lp13
sI3
(lp14
ssI3
(dp15
I0
g7
sI1
g11
sI2
g14
sI3
(lp16
ssa(dp17
I0
(dp18
I0
(lp19
sI1
(lp20
sI2
(lp21
sI3
(lp22
ssI1
(dp23
I0
g20
sI1
(lp24
sI2
(lp25
sI3
(lp26
ssI2
(dp27
I0
g21
sI1
g25
sI2
(lp28
sI3
(lp29
ssI3
(dp30
I0
g22
sI1
g26
sI2
g29
sI3
(lp31
ssa(dp32
I0
(dp33
I0
(lp34
sI1
(lp35
sI2
(lp36
sI3
(lp37
ssI1
(dp38
I0
g35
sI1
(lp39
sI2
(lp40
sI3
(lp41
ssI2
(dp42
I0
g36
sI1
g40
sI2
(lp43
sI3
(lp44
ssI3
(dp45
I0
g37
sI1
g41
sI2
g44
sI3
(lp46
ssa(dp47
I0
(dp48
I0
(lp49
sI1
(lp50
sI2
(lp51
sI3
(lp52
ssI1
(dp53
I0
g50
sI1
(lp54
sI2
(lp55
Vhttp://www.w3.org/2000/01/rdf-schema#seeAlso
p56
aVhttp://dbpedia.org/ontology/type
p57
aVhttp://dbpedia.org/property/sponsor
p58
aVhttp://xmlns.com/foaf/0.1/primaryTopic
p59
aVhttp://dbpedia.org/ontology/wikiPageRedirects
p60
aVhttp://dbpedia.org/ontology/academicDiscipline
p61
aVhttp://dbpedia.org/ontology/knownFor
p62
aVhttp://dbpedia.org/property/occupation
p63
aVhttp://www.w3.org/ns/prov#wasDerivedFrom
p64
aVhttp://dbpedia.org/ontology/industry
p65
aVhttp://dbpedia.org/property/field
p66
aVhttp://dbpedia.org/ontology/field
p67
aVhttp://dbpedia.org/property/discipline
p68
aVhttp://dbpedia.org/ontology/product
p69
aVhttp://dbpedia.org/property/education
p70
aVhttp://dbpedia.org/ontology/education
p71
aVhttp://dbpedia.org/property/products
p72
aVhttp://xmlns.com/foaf/0.1/isPrimaryTopicOf
p73
aVhttp://dbpedia.org/property/services
p74
aVhttp://dbpedia.org/ontology/wikiPageDisambiguates
p75
aVhttp://dbpedia.org/property/genre
p76
aVhttp://dbpedia.org/ontology/wikiPageExternalLink
p77
aVhttp://dbpedia.org/property/industry
p78
aVhttp://purl.org/dc/terms/subject
p79
aVhttp://dbpedia.org/ontology/significantProject
p80
aVhttp://dbpedia.org/property/significantProjects
p81
aVhttp://dbpedia.org/ontology/abstract
p82
aVhttp://xmlns.com/foaf/0.1/depiction
p83
aVhttp://dbpedia.org/property/type
p84
aVhttp://dbpedia.org/ontology/service
p85
aVhttp://dbpedia.org/ontology/division
p86
aVhttp://dbpedia.org/property/profession
p87
aVhttp://dbpedia.org/ontology/thumbnail
p88
aVhttp://dbpedia.org/property/missionType
p89
aVhttp://dbpedia.org/ontology/parentCompany
p90
aVhttp://dbpedia.org/property/hasPhotoCollection
p91
aVhttp://www.w3.org/2000/01/rdf-schema#label
p92
aVhttp://dbpedia.org/property/companyType
p93
aVhttp://dbpedia.org/property/title
p94
aVhttp://dbpedia.org/ontology/genre
p95
aVhttp://dbpedia.org/property/department
p96
aVhttp://www.w3.org/2000/01/rdf-schema#comment
p97
aVhttp://dbpedia.org/ontology/nonFictionSubject
p98
aVhttp://dbpedia.org/property/specialization
p99
aVhttp://dbpedia.org/ontology/keyPerson
p100
aVhttp://www.w3.org/2002/07/owl#sameAs
p101
aVhttp://dbpedia.org/property/url
p102
aVhttp://dbpedia.org/property/buildingType
p103
aVhttp://dbpedia.org/ontology/profession
p104
aVhttp://dbpedia.org/property/knownFor
p105
aVhttp://dbpedia.org/ontology/occupation
p106
asI3
(lp107
ssI2
(dp108
I0
g51
sI1
g55
sI2
(lp109
sI3
(lp110
ssI3
(dp111
I0
g52
sI1
g107
sI2
g110
sI3
(lp112
ssa(dp113
I0
(dp114
I0
(lp115
sI1
(lp116
sI2
(lp117
sI3
(lp118
ssI1
(dp119
I0
g116
sI1
(lp120
sI2
(lp121
sI3
(lp122
ssI2
(dp123
I0
g117
sI1
g121
sI2
(lp124
sI3
(lp125
ssI3
(dp126
I0
g118
sI1
g122
sI2
g125
sI3
(lp127
ssa(dp128
I0
(dp129
I0
(lp130
sI1
(lp131
sI2
(lp132
sI3
(lp133
ssI1
(dp134
I0
g131
sI1
(lp135
sI2
(lp136
sI3
(lp137
ssI2
(dp138
I0
g132
sI1
g136
sI2
(lp139
sI3
(lp140
ssI3
(dp141
I0
g133
sI1
g137
sI2
g140
sI3
(lp142
ssa(dp143
I0
(dp144
I0
(lp145
sI1
(lp146
Vhttp://dbpedia.org/ontology/wikiPageExternalLink
p147
aVhttp://xmlns.com/foaf/0.1/primaryTopic
p148
aVhttp://purl.org/dc/terms/subject
p149
aVhttp://www.w3.org/2000/01/rdf-schema#comment
p150
aVhttp://www.w3.org/2000/01/rdf-schema#label
p151
aVhttp://dbpedia.org/ontology/abstract
p152
aVhttp://dbpedia.org/ontology/wikiPageRedirects
p153
aVhttp://xmlns.com/foaf/0.1/isPrimaryTopicOf
p154
aVhttp://www.w3.org/ns/prov#wasDerivedFrom
p155
aVhttp://dbpedia.org/property/hasPhotoCollection
p156
aVhttp://dbpedia.org/ontology/wikiPageDisambiguates
p157
aVhttp://dbpedia.org/ontology/species
p158
aVhttp://dbpedia.org/property/species
p159
asI2
(lp160
sI3
(lp161
ssI1
(dp162
I0
g146
sI1
(lp163
sI2
(lp164
sI3
(lp165
ssI2
(dp166
I0
g160
sI1
g164
sI2
(lp167
sI3
(lp168
ssI3
(dp169
I0
g161
sI1
g165
sI2
g168
sI3
(lp170
ssa(dp171
I0
(dp172
I0
(lp173
sI1
(lp174
sI2
(lp175
sI3
(lp176
ssI1
(dp177
I0
g174
sI1
(lp178
sI2
(lp179
sI3
(lp180
ssI2
(dp181
I0
g175
sI1
g179
sI2
(lp182
sI3
(lp183
ssI3
(dp184
I0
g176
sI1
g180
sI2
g183
sI3
(lp185
ssa(dp186
I0
(dp187
I0
(lp188
sI1
(lp189
sI2
(lp190
sI3
(lp191
ssI1
(dp192
I0
g189
sI1
(lp193
sI2
(lp194
sI3
(lp195
ssI2
(dp196
I0
g190
sI1
g194
sI2
(lp197
sI3
(lp198
ssI3
(dp199
I0
g191
sI1
g195
sI2
g198
sI3
(lp200
ssa(dp201
I0
(dp202
I0
(lp203
sI1
(lp204
sI2
(lp205
sI3
(lp206
ssI1
(dp207
I0
g204
sI1
(lp208
sI2
(lp209
sI3
(lp210
ssI2
(dp211
I0
g205
sI1
g209
sI2
(lp212
sI3
(lp213
ssI3
(dp214
I0
g206
sI1
g210
sI2
g213
sI3
(lp215
ssa(dp216
I0
(dp217
I0
(lp218
sI1
(lp219
sI2
(lp220
sI3
(lp221
ssI1
(dp222
I0
g219
sI1
(lp223
sI2
(lp224
sI3
(lp225
ssI2
(dp226
I0
g220
sI1
g224
sI2
(lp227
sI3
(lp228
ssI3
(dp229
I0
g221
sI1
g225
sI2
g228
sI3
(lp230
ssa(dp231
I0
(dp232
I0
(lp233
sI1
(lp234
sI2
(lp235
sI3
(lp236
ssI1
(dp237
I0
g234
sI1
(lp238
sI2
(lp239
sI3
(lp240
ssI2
(dp241
I0
g235
sI1
g239
sI2
(lp242
sI3
(lp243
ssI3
(dp244
I0
g236
sI1
g240
sI2
g243
sI3
(lp245
ssa(dp246
I0
(dp247
I0
(lp248
sI1
(lp249
sI2
(lp250
sI3
(lp251
ssI1
(dp252
I0
g249
sI1
(lp253
sI2
(lp254
sI3
(lp255
ssI2
(dp256
I0
g250
sI1
g254
sI2
(lp257
sI3
(lp258
ssI3
(dp259
I0
g251
sI1
g255
sI2
g258
sI3
(lp260
ssa(dp261
I0
(dp262
I0
(lp263
sI1
(lp264
sI2
(lp265
sI3
(lp266
ssI1
(dp267
I0
g264
sI1
(lp268
sI2
(lp269
sI3
(lp270
ssI2
(dp271
I0
g265
sI1
g269
sI2
(lp272
sI3
(lp273
ssI3
(dp274
I0
g266
sI1
g270
sI2
g273
sI3
(lp275
ssa(dp276
I0
(dp277
I0
(lp278
sI1
(lp279
Vhttp://dbpedia.org/property/symbol
p280
aVhttp://dbpedia.org/ontology/abstract
p281
aVhttp://dbpedia.org/ontology/wikiPageRedirects
p282
aVhttp://www.w3.org/2000/01/rdf-schema#comment
p283
asI2
(lp284
sI3
(lp285
ssI1
(dp286
I0
g279
sI1
(lp287
sI2
(lp288
sI3
(lp289
ssI2
(dp290
I0
g284
sI1
g288
sI2
(lp291
sI3
(lp292
ssI3
(dp293
I0
g285
sI1
g289
sI2
g292
sI3
(lp294
ssa(dp295
I0
(dp296
I0
(lp297
sI1
(lp298
sI2
(lp299
sI3
(lp300
ssI1
(dp301
I0
g298
sI1
(lp302
sI2
(lp303
sI3
(lp304
ssI2
(dp305
I0
g299
sI1
g303
sI2
(lp306
sI3
(lp307
ssI3
(dp308
I0
g300
sI1
g304
sI2
g307
sI3
(lp309
ssa(dp310
I0
(dp311
I0
(lp312
sI1
(lp313
sI2
(lp314
Vhttp://dbpedia.org/ontology/industry
p315
aVhttp://dbpedia.org/property/industry
p316
asI3
(lp317
ssI1
(dp318
I0
g313
sI1
(lp319
sI2
(lp320
sI3
(lp321
ssI2
(dp322
I0
g314
sI1
g320
sI2
(lp323
sI3
(lp324
ssI3
(dp325
I0
g317
sI1
g321
sI2
g324
sI3
(lp326
ssa(dp327
I0
(dp328
I0
(lp329
sI1
(lp330
sI2
(lp331
Vhttp://dbpedia.org/ontology/service
p332
asI3
(lp333
ssI1
(dp334
I1
(lp335
sI2
(lp336
Vhttp://dbpedia.org/ontology/service
p337
asI3
(lp338
ssI2
(dp339
I0
g331
sI1
g336
sI2
(lp340
sI3
(lp341
ssI3
(dp342
I0
g333
sI1
g338
sI2
g341
sI3
(lp343
ssa(dp344
I0
(dp345
I0
(lp346
sI1
(lp347
sI2
(lp348
sI3
(lp349
ssI1
(dp350
I0
g347
sI1
(lp351
sI2
(lp352
sI3
(lp353
ssI2
(dp354
I0
g348
sI1
g352
sI2
(lp355
sI3
(lp356
ssI3
(dp357
I0
g349
sI1
g353
sI2
g356
sI3
(lp358
ssa(dp359
I0
(dp360
I0
(lp361
sI1
(lp362
sI2
(lp363
sI3
(lp364
ssI1
(dp365
I0
g362
sI1
(lp366
sI2
(lp367
sI3
(lp368
ssI2
(dp369
I0
g363
sI1
g367
sI2
(lp370
sI3
(lp371
ssI3
(dp372
I0
g364
sI1
g368
sI2
g371
sI3
(lp373
ssa.