(lp1
(lp2
(lp3
a(lp4
Vhttp://dbpedia.org/resource/Military_ranks_and_insignia_of_the_Japan_Self-Defense_Forces
p5
aa(lp6
a(lp7
a(lp8
a(lp9
a(lp10
a(lp11
a(lp12
a(lp13
a(lp14
a(lp15
a(lp16
Vhttp://dbpedia.org/resource/Faroese_kr%C3%B3na
p17
aa(lp18
a(lp19
a(lp20
a(lp21
a(lp22
Vhttp://dbpedia.org/resource/Paraguayan_guaran%C3%AD
p23
aa(lp24
aa.