(lp1
(lp2
(lp3
a(lp4
aa(lp5
(lp6
a(lp7
aa(lp8
(lp9
a(lp10
aa(lp11
(lp12
((lVhttp://dbpedia.org/resource/Personal_care
tp13
aa(lp14
aa(lp15
(lp16
((lVhttp://dbpedia.org/resource/Business-to-business
tp17
aa(lp18
aa(lp19
(lp20
a(lp21
aa(lp22
(lp23
((lp24
Vhttp://www.w3.org/2002/07/owl#Thing
p25
aVhttp://dbpedia.org/resource/Construction
tp26
aa(lp27
aa(lp28
(lp29
a(lp30
aa(lp31
(lp32
a(lp33
aa(lp34
(lp35
a(lp36
aa(lp37
(lp38
((lp39
Vhttp://www.w3.org/2002/07/owl#Thing
p40
aVhttp://dbpedia.org/resource/Government_agency
tp41
aa(lp42
aa(lp43
(lp44
a(lp45
aa(lp46
(lp47
((lp48
Vhttp://dbpedia.org/class/yago/Abstraction100002137
p49
aVhttp://dbpedia.org/class/yago/Arrangement105726596
p50
aVhttp://dbpedia.org/class/yago/Cognition100023271
p51
aVhttp://dbpedia.org/class/yago/Structure105726345
p52
aVhttp://dbpedia.org/class/yago/ClassificationSystem105727220
p53
aVhttp://dbpedia.org/class/yago/ComputerFileSystems
p54
aVhttp://dbpedia.org/class/yago/FileSystem105732614
p55
aVhttp://dbpedia.org/class/yago/PsychologicalFeature100023100
p56
aVhttp://dbpedia.org/resource/Home_directory
tp57
aa(lp58
aa(lp59
(lp60
a(lp61
aa(lp62
(lp63
a(lp64
aa(lp65
(lp66
a(lp67
aa(lp68
(lp69
((lVhttp://dbpedia.org/resource/Real_estate
p70
tp71
aa(lp72
aa(lp73
(lp74
a(lp75
aa(lp76
(lp77
a(lp78
aa(lp79
(lp80
a(lp81
aa.