(lp1
(lp2
(lp3
a(lp4
aa(lp5
(lp6
a(lp7
aa(lp8
(lp9
a(lp10
aa(lp11
(lp12
Vhttp://dbpedia.org/resource/Personal_care
p13
aa(lp14
aa(lp15
(lp16
Vhttp://dbpedia.org/resource/Business-to-business
p17
aa(lp18
aa(lp19
(lp20
a(lp21
aa(lp22
(lp23
Vhttp://dbpedia.org/resource/Construction
p24
aa(lp25
aa(lp26
(lp27
a(lp28
aa(lp29
(lp30
a(lp31
aa(lp32
(lp33
a(lp34
aa(lp35
(lp36
Vhttp://dbpedia.org/resource/Government_agency
p37
aa(lp38
aa(lp39
(lp40
a(lp41
aa(lp42
(lp43
Vhttp://dbpedia.org/resource/Home_directory
p44
aa(lp45
aa(lp46
(lp47
a(lp48
aa(lp49
(lp50
a(lp51
aa(lp52
(lp53
a(lp54
aa(lp55
(lp56
Vhttp://dbpedia.org/resource/Real_estate
p57
aa(lp58
aa(lp59
(lp60
a(lp61
aa(lp62
(lp63
a(lp64
aa(lp65
(lp66
a(lp67
aa.