(lp1
(lp2
(lp3
a(lp4
a(lp5
a(lp6
((lp7
Vhttp://dbpedia.org/class/yago/Artifact100021939
p8
aVhttp://dbpedia.org/class/yago/Beacon102814860
p9
aVhttp://dbpedia.org/class/yago/Object100002684
p10
aVhttp://dbpedia.org/class/yago/Structure104341686
p11
aVhttp://dbpedia.org/class/yago/Tower104460130
p12
aVhttp://dbpedia.org/class/yago/Whole100003553
p13
aVhttp://dbpedia.org/class/yago/YagoGeoEntity
p14
aVhttp://www.w3.org/2002/07/owl#Thing
p15
aVhttp://dbpedia.org/ontology/Place
p16
aVhttp://dbpedia.org/ontology/Location
p17
aVhttp://www.wikidata.org/entity/Q12518
p18
aVhttp://www.wikidata.org/entity/Q39715
p19
aVhttp://dbpedia.org/ontology/ArchitecturalStructure
p20
aVhttp://dbpedia.org/ontology/Lighthouse
p21
aVhttp://dbpedia.org/ontology/Tower
p22
aVhttp://schema.org/Place
p23
aVhttp://dbpedia.org/class/yago/YagoPermanentlyLocatedEntity
p24
aVhttp://dbpedia.org/class/yago/PhysicalEntity100001930
p25
aVhttp://dbpedia.org/resource/Punta_Carena_Lighthouse
tp26
aaa(lp27
(lp28
a(lp29
a(lp30
a(lp31
aa(lp32
(lp33
a(lp34
a(lp35
a(lp36
aa(lp37
(lp38
a(lp39
a(lp40
a(lp41
aa(lp42
(lp43
a(lp44
a(lp45
a(lp46
((lp47
Vhttp://dbpedia.org/class/yago/Artifact100021939
p48
aVhttp://dbpedia.org/class/yago/Beacon102814860
p49
aVhttp://dbpedia.org/class/yago/Object100002684
p50
aVhttp://dbpedia.org/class/yago/Structure104341686
p51
aVhttp://dbpedia.org/class/yago/Tower104460130
p52
aVhttp://dbpedia.org/class/yago/Whole100003553
p53
aVhttp://dbpedia.org/class/yago/YagoGeoEntity
p54
aVhttp://www.w3.org/2002/07/owl#Thing
p55
aVhttp://dbpedia.org/ontology/Place
p56
aVhttp://dbpedia.org/ontology/Location
p57
aVhttp://www.wikidata.org/entity/Q12518
p58
aVhttp://www.wikidata.org/entity/Q39715
p59
aVhttp://dbpedia.org/ontology/ArchitecturalStructure
p60
aVhttp://dbpedia.org/ontology/Lighthouse
p61
aVhttp://dbpedia.org/ontology/Tower
p62
aVhttp://schema.org/Place
p63
aVhttp://umbel.org/umbel/rc/Lighhouse
p64
aVhttp://dbpedia.org/class/yago/YagoPermanentlyLocatedEntity
p65
aVhttp://dbpedia.org/class/yago/PhysicalEntity100001930
p66
aVhttp://dbpedia.org/resource/Bedok_Lighthouse
tp67
aaa(lp68
(lp69
a(lp70
a(lp71
a(lp72
((lp73
Vhttp://dbpedia.org/class/yago/Artifact100021939
p74
aVhttp://dbpedia.org/class/yago/Beacon102814860
p75
aVhttp://dbpedia.org/class/yago/GeologicalFormation109287968
p76
aVhttp://dbpedia.org/class/yago/Object100002684
p77
aVhttp://dbpedia.org/class/yago/Structure104341686
p78
aVhttp://dbpedia.org/class/yago/Tower104460130
p79
aVhttp://dbpedia.org/class/yago/Whole100003553
p80
aVhttp://dbpedia.org/class/yago/YagoGeoEntity
p81
aVhttp://www.w3.org/2002/07/owl#Thing
p82
aVhttp://dbpedia.org/ontology/Place
p83
aVhttp://dbpedia.org/ontology/Location
p84
aVhttp://www.wikidata.org/entity/Q12518
p85
aVhttp://www.wikidata.org/entity/Q39715
p86
aVhttp://dbpedia.org/ontology/ArchitecturalStructure
p87
aVhttp://dbpedia.org/ontology/Lighthouse
p88
aVhttp://dbpedia.org/ontology/Tower
p89
aVhttp://www.w3.org/2003/01/geo/wgs84_pos#SpatialThing
p90
aVhttp://schema.org/Place
p91
aVhttp://umbel.org/umbel/rc/Building
p92
aVhttp://umbel.org/umbel/rc/Lighhouse
p93
aVhttp://dbpedia.org/class/yago/YagoPermanentlyLocatedEntity
p94
aVhttp://dbpedia.org/class/yago/HeadlandsOfWesternAustralia
p95
aVhttp://dbpedia.org/class/yago/NaturalElevation109366317
p96
aVhttp://dbpedia.org/class/yago/PhysicalEntity100001930
p97
aVhttp://dbpedia.org/class/yago/Promontory109399592
p98
aVhttp://dbpedia.org/resource/Cape_Leveque
tp99
aaa(lp100
(lp101
a(lp102
a(lp103
a(lp104
((lp105
Vhttp://dbpedia.org/class/yago/Artifact100021939
p106
aVhttp://dbpedia.org/class/yago/Beacon102814860
p107
aVhttp://dbpedia.org/class/yago/Object100002684
p108
aVhttp://dbpedia.org/class/yago/Structure104341686
p109
aVhttp://dbpedia.org/class/yago/Tower104460130
p110
aVhttp://dbpedia.org/class/yago/Whole100003553
p111
aVhttp://dbpedia.org/class/yago/YagoGeoEntity
p112
aVhttp://www.w3.org/2002/07/owl#Thing
p113
aVhttp://dbpedia.org/ontology/Place
p114
aVhttp://dbpedia.org/ontology/Location
p115
aVhttp://www.wikidata.org/entity/Q12518
p116
aVhttp://www.wikidata.org/entity/Q39715
p117
aVhttp://dbpedia.org/ontology/ArchitecturalStructure
p118
aVhttp://dbpedia.org/ontology/Lighthouse
p119
aVhttp://dbpedia.org/ontology/Tower
p120
aVhttp://www.w3.org/2003/01/geo/wgs84_pos#SpatialThing
p121
aVhttp://schema.org/Place
p122
aVhttp://umbel.org/umbel/rc/Building
p123
aVhttp://umbel.org/umbel/rc/Lighhouse
p124
aVhttp://dbpedia.org/class/yago/YagoPermanentlyLocatedEntity
p125
aVhttp://dbpedia.org/class/yago/PhysicalEntity100001930
p126
aVhttp://dbpedia.org/resource/Horsburgh_Lighthouse
tp127
aaa(lp128
(lp129
a(lp130
a(lp131
a(lp132
((lp133
Vhttp://dbpedia.org/class/yago/Artifact100021939
p134
aVhttp://dbpedia.org/class/yago/Beacon102814860
p135
aVhttp://dbpedia.org/class/yago/Island109316454
p136
aVhttp://dbpedia.org/class/yago/Land109334396
p137
aVhttp://dbpedia.org/class/yago/Object100002684
p138
aVhttp://dbpedia.org/class/yago/Structure104341686
p139
aVhttp://dbpedia.org/class/yago/Tower104460130
p140
aVhttp://dbpedia.org/class/yago/Whole100003553
p141
aVhttp://dbpedia.org/class/yago/YagoGeoEntity
p142
aVhttp://www.w3.org/2002/07/owl#Thing
p143
aVhttp://dbpedia.org/ontology/Place
p144
aVhttp://dbpedia.org/ontology/Location
p145
aVhttp://www.wikidata.org/entity/Q12518
p146
aVhttp://www.wikidata.org/entity/Q39715
p147
aVhttp://dbpedia.org/ontology/ArchitecturalStructure
p148
aVhttp://dbpedia.org/ontology/Lighthouse
p149
aVhttp://dbpedia.org/ontology/Tower
p150
aVhttp://www.w3.org/2003/01/geo/wgs84_pos#SpatialThing
p151
aVhttp://schema.org/Place
p152
aVhttp://umbel.org/umbel/rc/Lighhouse
p153
aVhttp://dbpedia.org/class/yago/YagoPermanentlyLocatedEntity
p154
aVhttp://dbpedia.org/class/yago/IslandsOfSingapore
p155
aVhttp://dbpedia.org/class/yago/PhysicalEntity100001930
p156
aVhttp://dbpedia.org/class/yago/WesternIslandsPlanningArea
p157
aVhttp://dbpedia.org/resource/Raffles_Lighthouse
tp158
aaa(lp159
(lp160
a(lp161
a(lp162
a(lp163
((lp164
Vhttp://www.w3.org/2002/07/owl#Thing
p165
aVhttp://dbpedia.org/ontology/Place
p166
aVhttp://dbpedia.org/ontology/Location
p167
aVhttp://www.wikidata.org/entity/Q12518
p168
aVhttp://www.wikidata.org/entity/Q39715
p169
aVhttp://dbpedia.org/ontology/ArchitecturalStructure
p170
aVhttp://dbpedia.org/ontology/Lighthouse
p171
aVhttp://dbpedia.org/ontology/Tower
p172
aVhttp://schema.org/Place
p173
aVhttp://dbpedia.org/resource/Slettnes_Lighthouse
tp174
aaa(lp175
(lp176
a(lp177
a(lp178
a(lp179
((lp180
Vhttp://dbpedia.org/class/yago/Artifact100021939
p181
aVhttp://dbpedia.org/class/yago/Beacon102814860
p182
aVhttp://dbpedia.org/class/yago/Island109316454
p183
aVhttp://dbpedia.org/class/yago/Land109334396
p184
aVhttp://dbpedia.org/class/yago/Object100002684
p185
aVhttp://dbpedia.org/class/yago/Structure104341686
p186
aVhttp://dbpedia.org/class/yago/Tower104460130
p187
aVhttp://dbpedia.org/class/yago/Whole100003553
p188
aVhttp://dbpedia.org/class/yago/YagoGeoEntity
p189
aVhttp://www.w3.org/2002/07/owl#Thing
p190
aVhttp://dbpedia.org/ontology/Place
p191
aVhttp://dbpedia.org/ontology/Location
p192
aVhttp://www.wikidata.org/entity/Q12518
p193
aVhttp://www.wikidata.org/entity/Q39715
p194
aVhttp://dbpedia.org/ontology/ArchitecturalStructure
p195
aVhttp://dbpedia.org/ontology/Lighthouse
p196
aVhttp://dbpedia.org/ontology/Tower
p197
aVhttp://schema.org/Place
p198
aVhttp://umbel.org/umbel/rc/Lighhouse
p199
aVhttp://dbpedia.org/class/yago/YagoPermanentlyLocatedEntity
p200
aVhttp://dbpedia.org/class/yago/PhysicalEntity100001930
p201
aVhttp://dbpedia.org/class/yago/WesternIslandsPlanningArea
p202
aVhttp://dbpedia.org/resource/Sultan_Shoal_Lighthouse
tp203
aaa(lp204
(lp205
a(lp206
a(lp207
a(lp208
((lp209
Vhttp://dbpedia.org/class/yago/Artifact100021939
p210
aVhttp://dbpedia.org/class/yago/Beacon102814860
p211
aVhttp://dbpedia.org/class/yago/Object100002684
p212
aVhttp://dbpedia.org/class/yago/Structure104341686
p213
aVhttp://dbpedia.org/class/yago/Tower104460130
p214
aVhttp://dbpedia.org/class/yago/Whole100003553
p215
aVhttp://dbpedia.org/class/yago/YagoGeoEntity
p216
aVhttp://www.w3.org/2002/07/owl#Thing
p217
aVhttp://dbpedia.org/ontology/Place
p218
aVhttp://dbpedia.org/ontology/Location
p219
aVhttp://www.wikidata.org/entity/Q12518
p220
aVhttp://www.wikidata.org/entity/Q39715
p221
aVhttp://dbpedia.org/ontology/ArchitecturalStructure
p222
aVhttp://dbpedia.org/ontology/Lighthouse
p223
aVhttp://dbpedia.org/ontology/Tower
p224
aVhttp://schema.org/Place
p225
aVhttp://dbpedia.org/class/yago/YagoPermanentlyLocatedEntity
p226
aVhttp://dbpedia.org/class/yago/PhysicalEntity100001930
p227
aVhttp://dbpedia.org/resource/West_Channel_Pile_Light
tp228
aaa(lp229
(lp230
a(lp231
a(lp232
a(lp233
((lp234
Vhttp://dbpedia.org/class/yago/Artifact100021939
p235
aVhttp://dbpedia.org/class/yago/Beacon102814860
p236
aVhttp://dbpedia.org/class/yago/Location100027167
p237
aVhttp://dbpedia.org/class/yago/Object100002684
p238
aVhttp://dbpedia.org/class/yago/Region108630985
p239
aVhttp://dbpedia.org/class/yago/Site108651247
p240
aVhttp://dbpedia.org/class/yago/Structure104341686
p241
aVhttp://dbpedia.org/class/yago/Tower104460130
p242
aVhttp://dbpedia.org/class/yago/Tract108673395
p243
aVhttp://dbpedia.org/class/yago/Whole100003553
p244
aVhttp://dbpedia.org/class/yago/YagoGeoEntity
p245
aVhttp://dbpedia.org/class/yago/YagoLegalActorGeo
p246
aVhttp://www.w3.org/2002/07/owl#Thing
p247
aVhttp://dbpedia.org/ontology/Place
p248
aVhttp://dbpedia.org/ontology/Location
p249
aVhttp://www.wikidata.org/entity/Q12518
p250
aVhttp://www.wikidata.org/entity/Q39715
p251
aVhttp://dbpedia.org/ontology/ArchitecturalStructure
p252
aVhttp://dbpedia.org/ontology/Lighthouse
p253
aVhttp://dbpedia.org/ontology/Tower
p254
aVhttp://schema.org/Place
p255
aVhttp://umbel.org/umbel/rc/Building
p256
aVhttp://umbel.org/umbel/rc/Lighhouse
p257
aVhttp://dbpedia.org/class/yago/YagoPermanentlyLocatedEntity
p258
aVhttp://dbpedia.org/class/yago/GeographicalArea108574314
p259
aVhttp://dbpedia.org/class/yago/HeritagePlacesOfWesternAustralia
p260
aVhttp://dbpedia.org/class/yago/PhysicalEntity100001930
p261
aVhttp://dbpedia.org/resource/Woodman_Light
tp262
aaa(lp263
(lp264
a(lp265
a(lp266
a(lp267
((lp268
Vhttp://dbpedia.org/class/yago/Artifact100021939
p269
aVhttp://dbpedia.org/class/yago/Beacon102814860
p270
aVhttp://dbpedia.org/class/yago/Object100002684
p271
aVhttp://dbpedia.org/class/yago/Structure104341686
p272
aVhttp://dbpedia.org/class/yago/Tower104460130
p273
aVhttp://dbpedia.org/class/yago/Whole100003553
p274
aVhttp://dbpedia.org/class/yago/YagoGeoEntity
p275
aVhttp://www.w3.org/2002/07/owl#Thing
p276
aVhttp://dbpedia.org/ontology/Place
p277
aVhttp://dbpedia.org/ontology/Location
p278
aVhttp://www.wikidata.org/entity/Q12518
p279
aVhttp://www.wikidata.org/entity/Q39715
p280
aVhttp://dbpedia.org/ontology/ArchitecturalStructure
p281
aVhttp://dbpedia.org/ontology/Lighthouse
p282
aVhttp://dbpedia.org/ontology/Tower
p283
aVhttp://schema.org/Place
p284
aVhttp://umbel.org/umbel/rc/Building
p285
aVhttp://umbel.org/umbel/rc/Lighhouse
p286
aVhttp://dbpedia.org/class/yago/YagoPermanentlyLocatedEntity
p287
aVhttp://dbpedia.org/class/yago/PhysicalEntity100001930
p288
aVhttp://dbpedia.org/resource/Bass_Harbor_Head_Light
tp289
aaa(lp290
(lp291
a(lp292
a(lp293
a(lp294
((lp295
Vhttp://dbpedia.org/class/yago/Artifact100021939
p296
aVhttp://dbpedia.org/class/yago/Beacon102814860
p297
aVhttp://dbpedia.org/class/yago/Depository103177349
p298
aVhttp://dbpedia.org/class/yago/Facility103315023
p299
aVhttp://dbpedia.org/class/yago/Museum103800563
p300
aVhttp://dbpedia.org/class/yago/Object100002684
p301
aVhttp://dbpedia.org/class/yago/Structure104341686
p302
aVhttp://dbpedia.org/class/yago/Tower104460130
p303
aVhttp://dbpedia.org/class/yago/Whole100003553
p304
aVhttp://dbpedia.org/class/yago/YagoGeoEntity
p305
aVhttp://umbel.org/umbel/rc/Building
p306
aVhttp://umbel.org/umbel/rc/Lighhouse
p307
aVhttp://dbpedia.org/class/yago/YagoPermanentlyLocatedEntity
p308
aVhttp://dbpedia.org/class/yago/MuseumsInAtlanticCounty,NewJersey
p309
aVhttp://dbpedia.org/class/yago/LighthouseMuseumsInNewJersey
p310
aVhttp://dbpedia.org/class/yago/PhysicalEntity100001930
p311
aVhttp://dbpedia.org/resource/Absecon_Light
tp312
aaa(lp313
(lp314
a(lp315
a(lp316
a(lp317
((lp318
Vhttp://dbpedia.org/class/yago/Artifact100021939
p319
aVhttp://dbpedia.org/class/yago/Building102913152
p320
aVhttp://dbpedia.org/class/yago/BuildingsAndStructuresCompletedIn1823
p321
aVhttp://dbpedia.org/class/yago/BuildingsAndStructuresInBridgeport,Connecticut
p322
aVhttp://dbpedia.org/class/yago/Object100002684
p323
aVhttp://dbpedia.org/class/yago/Structure104341686
p324
aVhttp://dbpedia.org/class/yago/Whole100003553
p325
aVhttp://dbpedia.org/class/yago/YagoGeoEntity
p326
aVhttp://www.w3.org/2002/07/owl#Thing
p327
aVhttp://dbpedia.org/ontology/Place
p328
aVhttp://dbpedia.org/ontology/Location
p329
aVhttp://www.wikidata.org/entity/Q12518
p330
aVhttp://www.wikidata.org/entity/Q39715
p331
aVhttp://dbpedia.org/ontology/ArchitecturalStructure
p332
aVhttp://dbpedia.org/ontology/Lighthouse
p333
aVhttp://dbpedia.org/ontology/Tower
p334
aVhttp://schema.org/Place
p335
aVhttp://umbel.org/umbel/rc/Building
p336
aVhttp://umbel.org/umbel/rc/Lighhouse
p337
aVhttp://dbpedia.org/class/yago/YagoPermanentlyLocatedEntity
p338
aVhttp://dbpedia.org/class/yago/PhysicalEntity100001930
p339
aVhttp://dbpedia.org/resource/Black_Rock_Harbor_Light
tp340
aaa(lp341
(lp342
a(lp343
a(lp344
a(lp345
((lp346
Vhttp://www.w3.org/2002/07/owl#Thing
p347
aVhttp://dbpedia.org/ontology/Place
p348
aVhttp://dbpedia.org/ontology/Location
p349
aVhttp://www.wikidata.org/entity/Q12518
p350
aVhttp://www.wikidata.org/entity/Q39715
p351
aVhttp://dbpedia.org/ontology/ArchitecturalStructure
p352
aVhttp://dbpedia.org/ontology/Lighthouse
p353
aVhttp://dbpedia.org/ontology/Tower
p354
aVhttp://schema.org/Place
p355
aVhttp://umbel.org/umbel/rc/Place
p356
aVhttp://dbpedia.org/resource/Block_Island_North_Light
tp357
aaa(lp358
(lp359
a(lp360
a(lp361
a(lp362
((lp363
Vhttp://dbpedia.org/class/yago/Artifact100021939
p364
aVhttp://dbpedia.org/class/yago/Depository103177349
p365
aVhttp://dbpedia.org/class/yago/Facility103315023
p366
aVhttp://dbpedia.org/class/yago/Landmark108624891
p367
aVhttp://dbpedia.org/class/yago/Location100027167
p368
aVhttp://dbpedia.org/class/yago/Museum103800563
p369
aVhttp://dbpedia.org/class/yago/Object100002684
p370
aVhttp://dbpedia.org/class/yago/Point108620061
p371
aVhttp://dbpedia.org/class/yago/Position108621598
p372
aVhttp://dbpedia.org/class/yago/Whole100003553
p373
aVhttp://dbpedia.org/class/yago/YagoGeoEntity
p374
aVhttp://dbpedia.org/class/yago/YagoLegalActorGeo
p375
aVhttp://www.w3.org/2002/07/owl#Thing
p376
aVhttp://dbpedia.org/ontology/Place
p377
aVhttp://dbpedia.org/ontology/Location
p378
aVhttp://www.wikidata.org/entity/Q12518
p379
aVhttp://www.wikidata.org/entity/Q39715
p380
aVhttp://dbpedia.org/ontology/ArchitecturalStructure
p381
aVhttp://dbpedia.org/ontology/Lighthouse
p382
aVhttp://dbpedia.org/ontology/Tower
p383
aVhttp://schema.org/Place
p384
aVhttp://umbel.org/umbel/rc/Place
p385
aVhttp://dbpedia.org/class/yago/YagoPermanentlyLocatedEntity
p386
aVhttp://dbpedia.org/class/yago/MuseumsInWashingtonCounty,RhodeIsland
p387
aVhttp://dbpedia.org/class/yago/NationalHistoricLandmarksInRhodeIsland
p388
aVhttp://dbpedia.org/class/yago/LighthouseMuseumsInRhodeIsland
p389
aVhttp://dbpedia.org/class/yago/PhysicalEntity100001930
p390
aVhttp://dbpedia.org/resource/Block_Island_Southeast_Light
tp391
aaa(lp392
(lp393
a(lp394
a(lp395
a(lp396
((lp397
Vhttp://dbpedia.org/class/yago/Artifact100021939
p398
aVhttp://dbpedia.org/class/yago/Beacon102814860
p399
aVhttp://dbpedia.org/class/yago/Object100002684
p400
aVhttp://dbpedia.org/class/yago/Structure104341686
p401
aVhttp://dbpedia.org/class/yago/Tower104460130
p402
aVhttp://dbpedia.org/class/yago/Whole100003553
p403
aVhttp://dbpedia.org/class/yago/YagoGeoEntity
p404
aVhttp://www.w3.org/2002/07/owl#Thing
p405
aVhttp://dbpedia.org/ontology/Place
p406
aVhttp://dbpedia.org/ontology/Location
p407
aVhttp://www.wikidata.org/entity/Q12518
p408
aVhttp://www.wikidata.org/entity/Q39715
p409
aVhttp://dbpedia.org/ontology/ArchitecturalStructure
p410
aVhttp://dbpedia.org/ontology/Lighthouse
p411
aVhttp://dbpedia.org/ontology/Tower
p412
aVhttp://schema.org/Place
p413
aVhttp://umbel.org/umbel/rc/Building
p414
aVhttp://umbel.org/umbel/rc/Lighhouse
p415
aVhttp://dbpedia.org/class/yago/YagoPermanentlyLocatedEntity
p416
aVhttp://dbpedia.org/class/yago/PhysicalEntity100001930
p417
aVhttp://dbpedia.org/resource/Alpena_Light
tp418
aaa(lp419
(lp420
a(lp421
a(lp422
a(lp423
((lp424
Vhttp://dbpedia.org/class/yago/Artifact100021939
p425
aVhttp://dbpedia.org/class/yago/Beacon102814860
p426
aVhttp://dbpedia.org/class/yago/Depository103177349
p427
aVhttp://dbpedia.org/class/yago/Facility103315023
p428
aVhttp://dbpedia.org/class/yago/Museum103800563
p429
aVhttp://dbpedia.org/class/yago/Object100002684
p430
aVhttp://dbpedia.org/class/yago/Structure104341686
p431
aVhttp://dbpedia.org/class/yago/Tower104460130
p432
aVhttp://dbpedia.org/class/yago/Whole100003553
p433
aVhttp://dbpedia.org/class/yago/YagoGeoEntity
p434
aVhttp://www.w3.org/2002/07/owl#Thing
p435
aVhttp://dbpedia.org/ontology/Place
p436
aVhttp://dbpedia.org/ontology/Location
p437
aVhttp://www.wikidata.org/entity/Q12518
p438
aVhttp://www.wikidata.org/entity/Q39715
p439
aVhttp://dbpedia.org/ontology/ArchitecturalStructure
p440
aVhttp://dbpedia.org/ontology/Lighthouse
p441
aVhttp://dbpedia.org/ontology/Tower
p442
aVhttp://schema.org/Place
p443
aVhttp://umbel.org/umbel/rc/Lighhouse
p444
aVhttp://dbpedia.org/class/yago/YagoPermanentlyLocatedEntity
p445
aVhttp://dbpedia.org/class/yago/MuseumsInPierceCounty,Washington
p446
aVhttp://dbpedia.org/class/yago/LighthouseMuseumsInWashington(state)
p447
aVhttp://dbpedia.org/class/yago/MaritimeMuseumsInWashington(state)
p448
aVhttp://dbpedia.org/class/yago/PhysicalEntity100001930
p449
aVhttp://dbpedia.org/resource/Browns_Point_Light
p450
tp451
aaa.