(lp1
(lp2
(lp3
a(lp4
a(lp5
Vhttp://dbpedia.org/resource/Philadelphia
p6
aa(lp7
a(lp8
aa(lp9
(lp10
a(lp11
a(lp12
Vhttp://dbpedia.org/resource/Filesystem_Hierarchy_Standard
p13
aa(lp14
a(lp15
aa(lp16
(lp17
a(lp18
a(lp19
a(lp20
a(lp21
aa(lp22
(lp23
a(lp24
a(lp25
Vhttp://dbpedia.org/resource/Conshohocken,_Pennsylvania
p26
aa(lp27
a(lp28
aa(lp29
(lp30
a(lp31
a(lp32
a(lp33
a(lp34
aa(lp35
(lp36
a(lp37
a(lp38
a(lp39
a(lp40
aa(lp41
(lp42
a(lp43
a(lp44
a(lp45
a(lp46
aa(lp47
(lp48
a(lp49
a(lp50
a(lp51
a(lp52
aa(lp53
(lp54
a(lp55
a(lp56
a(lp57
a(lp58
aa.