(lp1
(lp2
(lp3
Vhttp://dbpedia.org/resource/LG_Corp
p4
aa(lp5
Vhttp://dbpedia.org/resource/South_Korea
p6
aa(lp7
a(lp8
a(lp9
Vhttp://dbpedia.org/resource/Conglomerate_(record_label)
p10
aaa(lp11
(lp12
Vhttp://dbpedia.org/resource/Foxconn
p13
aa(lp14
Vhttp://dbpedia.org/resource/Taiwan
p15
aa(lp16
a(lp17
a(lp18
aa(lp19
(lp20
Vhttp://dbpedia.org/resource/BHP_Billiton
p21
aa(lp22
Vhttp://dbpedia.org/resource/Australia
p23
aa(lp24
a(lp25
a(lp26
Vhttp://dbpedia.org/resource/Materials_(journal)
p27
aaa(lp28
(lp29
Vhttp://dbpedia.org/resource/China_Mobile
p30
aa(lp31
Vhttp://dbpedia.org/resource/China
p32
aa(lp33
a(lp34
a(lp35
Vhttp://dbpedia.org/resource/Telecommunications_service_provider
p36
aaa(lp37
(lp38
Vhttp://dbpedia.org/resource/Woolworth
p39
aa(lp40
Vhttp://dbpedia.org/resource/Australia
p41
aa(lp42
a(lp43
a(lp44
Vhttp://dbpedia.org/resource/Food_marketing
p45
aaa(lp46
(lp47
Vhttp://dbpedia.org/resource/Reliance_Industries
p48
aa(lp49
Vhttp://dbpedia.org/resource/India
p50
aa(lp51
a(lp52
a(lp53
aa(lp54
(lp55
a(lp56
Vhttp://dbpedia.org/resource/Taiwan
p57
aa(lp58
a(lp59
a(lp60
aa(lp61
(lp62
Vhttp://dbpedia.org/resource/Lenovo
p63
aa(lp64
Vhttp://dbpedia.org/resource/China
p65
aa(lp66
a(lp67
a(lp68
aa(lp69
(lp70
Vhttp://dbpedia.org/resource/Noble_Group
p71
aa(lp72
Vhttp://dbpedia.org/resource/Hong_Kong
p73
aa(lp74
a(lp75
a(lp76
Vhttp://dbpedia.org/resource/Conglomerate_(record_label)
p77
aaa(lp78
(lp79
Vhttp://dbpedia.org/resource/Yamada_Denki
p80
aa(lp81
Vhttp://dbpedia.org/resource/Japan
p82
aa(lp83
a(lp84
a(lp85
Vhttp://dbpedia.org/resource/Retail
p86
aaa(lp87
(lp88
Vhttp://dbpedia.org/resource/Compal_Electronics
p89
aa(lp90
Vhttp://dbpedia.org/resource/Taiwan
p91
aa(lp92
a(lp93
a(lp94
aa(lp95
(lp96
Vhttp://dbpedia.org/resource/Acer_Inc.
p97
aa(lp98
Vhttp://dbpedia.org/resource/Taiwan
p99
aa(lp100
a(lp101
a(lp102
aa(lp103
(lp104
Vhttp://dbpedia.org/resource/China_National_Offshore_Oil_Corporation
p105
aa(lp106
Vhttp://dbpedia.org/resource/China
p107
aa(lp108
a(lp109
a(lp110
aa(lp111
(lp112
Vhttp://dbpedia.org/resource/Minmetals_Development
p113
aa(lp114
Vhttp://dbpedia.org/resource/China
p115
aa(lp116
a(lp117
a(lp118
aa(lp119
(lp120
Vhttp://dbpedia.org/resource/ICICI_Bank
p121
aa(lp122
Vhttp://dbpedia.org/resource/India
p123
aa(lp124
a(lp125
a(lp126
Vhttp://dbpedia.org/resource/Bank
p127
aaa(lp128
(lp129
Vhttp://dbpedia.org/resource/TSMC
p130
aa(lp131
Vhttp://dbpedia.org/resource/Taiwan
p132
aa(lp133
a(lp134
a(lp135
Vhttp://dbpedia.org/resource/Semiconductor
p136
aaa(lp137
(lp138
Vhttp://dbpedia.org/resource/Toyota_Boshoku
p139
aa(lp140
Vhttp://dbpedia.org/resource/Japan
p141
aa(lp142
a(lp143
a(lp144
Vhttp://dbpedia.org/resource/Durable_good
p145
aaa(lp146
(lp147
Vhttp://dbpedia.org/resource/Li_&_Fung
p148
aa(lp149
Vhttp://dbpedia.org/resource/Hong_Kong
p150
aa(lp151
a(lp152
a(lp153
aa(lp154
(lp155
Vhttp://dbpedia.org/resource/China_Shenhua_Energy_Company
p156
aa(lp157
Vhttp://dbpedia.org/resource/China
p158
aa(lp159
a(lp160
a(lp161
Vhttp://dbpedia.org/resource/Materials_(journal)
p162
aaa(lp163
(lp164
Vhttp://dbpedia.org/resource/Nintendo
p165
aa(lp166
Vhttp://dbpedia.org/resource/Japan
p167
aa(lp168
a(lp169
a(lp170
aa.