(lp1
(lp2
(dp3
Vstart
p4
I0
sVdisambiguatedURL
p5
NsVnamedEntity
p6
V1
sVoffset
p7
I1
saa(lp8
(dp9
Vstart
p10
I0
sVdisambiguatedURL
p11
NsVnamedEntity
p12
V2
sVoffset
p13
I1
saa(lp14
(dp15
Vstart
p16
I0
sVdisambiguatedURL
p17
NsVnamedEntity
p18
V3
sVoffset
p19
I1
saa(lp20
(dp21
Vstart
p22
I0
sVdisambiguatedURL
p23
NsVnamedEntity
p24
V4
sVoffset
p25
I1
saa(lp26
(dp27
Vstart
p28
I0
sVdisambiguatedURL
p29
NsVnamedEntity
p30
V5=
p31
sVoffset
p32
I2
saa(lp33
(dp34
Vstart
p35
I0
sVdisambiguatedURL
p36
NsVnamedEntity
p37
V5=
p38
sVoffset
p39
I2
saa(lp40
(dp41
Vstart
p42
I0
sVdisambiguatedURL
p43
NsVnamedEntity
p44
V7
sVoffset
p45
I1
saa(lp46
(dp47
Vstart
p48
I0
sVdisambiguatedURL
p49
NsVnamedEntity
p50
V8
sVoffset
p51
I1
saa(lp52
(dp53
Vstart
p54
I0
sVdisambiguatedURL
p55
NsVnamedEntity
p56
V9
sVoffset
p57
I1
saa(lp58
(dp59
Vstart
p60
I0
sVdisambiguatedURL
p61
NsVnamedEntity
p62
V10
p63
sVoffset
p64
I2
saa(lp65
(dp66
Vstart
p67
I0
sVdisambiguatedURL
p68
NsVnamedEntity
p69
V11
p70
sVoffset
p71
I2
saa(lp72
(dp73
Vstart
p74
I0
sVdisambiguatedURL
p75
NsVnamedEntity
p76
V12
p77
sVoffset
p78
I2
saa(lp79
(dp80
Vstart
p81
I0
sVdisambiguatedURL
p82
NsVnamedEntity
p83
V13
p84
sVoffset
p85
I2
saa(lp86
(dp87
Vstart
p88
I0
sVdisambiguatedURL
p89
NsVnamedEntity
p90
V14
p91
sVoffset
p92
I2
saa(lp93
(dp94
Vstart
p95
I0
sVdisambiguatedURL
p96
NsVnamedEntity
p97
V15
p98
sVoffset
p99
I2
saa(lp100
(dp101
Vstart
p102
I0
sVdisambiguatedURL
p103
NsVnamedEntity
p104
V16
p105
sVoffset
p106
I2
saa(lp107
(dp108
Vstart
p109
I0
sVdisambiguatedURL
p110
NsVnamedEntity
p111
V17
p112
sVoffset
p113
I2
saa(lp114
(dp115
Vstart
p116
I0
sVdisambiguatedURL
p117
NsVnamedEntity
p118
V18
p119
sVoffset
p120
I2
saa(lp121
(dp122
Vstart
p123
I0
sVdisambiguatedURL
p124
NsVnamedEntity
p125
V19
p126
sVoffset
p127
I2
saa(lp128
(dp129
Vstart
p130
I0
sVdisambiguatedURL
p131
NsVnamedEntity
p132
V20
p133
sVoffset
p134
I2
saa.