ccollections
defaultdict
p1
(c__builtin__
dict
p2
tRp3
I0
(dp4
I1
(lp5
Vhttp://www.w3.org/2000/01/rdf-schema#seeAlso
p6
aVhttp://dbpedia.org/property/currency
p7
aVhttp://dbpedia.org/ontology/currency
p8
aVhttp://dbpedia.org/property/place
p9
aVhttp://www.w3.org/ns/prov#wasDerivedFrom
p10
aVhttp://dbpedia.org/ontology/garrison
p11
aVhttp://dbpedia.org/property/placeOfDeath
p12
aVhttp://dbpedia.org/ontology/longName
p13
aVhttp://dbpedia.org/property/legislature
p14
aVhttp://www.w3.org/2002/07/owl#differentFrom
p15
aVhttp://dbpedia.org/property/hasPhotoCollection
p16
aVhttp://dbpedia.org/ontology/country
p17
aVhttp://dbpedia.org/property/nationalAnthem
p18
aVhttp://www.w3.org/2000/01/rdf-schema#label
p19
aVhttp://dbpedia.org/property/upperHouse
p20
aVhttp://dbpedia.org/ontology/county
p21
aVhttp://dbpedia.org/property/available
p22
aVhttp://dbpedia.org/ontology/deathPlace
p23
aVhttp://dbpedia.org/property/lowerHouse
p24
aVhttp://dbpedia.org/ontology/place
p25
aVhttp://xmlns.com/foaf/0.1/isPrimaryTopicOf
p26
aVhttp://dbpedia.org/property/body
p27
aVhttp://dbpedia.org/property/imageFlag
p28
aVhttp://dbpedia.org/ontology/wikiPageDisambiguates
p29
aVhttp://dbpedia.org/property/areaServed
p30
aVhttp://dbpedia.org/ontology/wikiPageExternalLink
p31
aVhttp://xmlns.com/foaf/0.1/primaryTopic
p32
aVhttp://purl.org/dc/terms/subject
p33
aVhttp://dbpedia.org/property/ideology
p34
aVhttp://dbpedia.org/ontology/abstract
p35
aVhttp://xmlns.com/foaf/0.1/depiction
p36
aVhttp://dbpedia.org/property/deathPlace
p37
aVhttp://dbpedia.org/property/location
p38
aVhttp://dbpedia.org/property/armiger
p39
aVhttp://dbpedia.org/ontology/locationCountry
p40
aVhttp://dbpedia.org/ontology/nationalAffiliation
p41
aVhttp://dbpedia.org/ontology/thumbnail
p42
aVhttp://dbpedia.org/property/country
p43
aVhttp://dbpedia.org/ontology/flag
p44
aVhttp://dbpedia.org/property/commonName
p45
aVhttp://dbpedia.org/property/subdivisionName
p46
aVhttp://dbpedia.org/property/headquarters
p47
aVhttp://dbpedia.org/property/imageMap
p48
aVhttp://dbpedia.org/property/residence
p49
aVhttp://dbpedia.org/ontology/location
p50
aVhttp://www.w3.org/2000/01/rdf-schema#comment
p51
aVhttp://dbpedia.org/property/countryName
p52
aVhttp://dbpedia.org/property/through
p53
aVhttp://dbpedia.org/property/countriesAffected
p54
aVhttp://dbpedia.org/ontology/wikiPageRedirects
p55
aVhttp://dbpedia.org/property/area
p56
aVhttp://dbpedia.org/ontology/jurisdiction
p57
aVhttp://dbpedia.org/property/callingCode
p58
aVhttp://dbpedia.org/property/citizenship
p59
aVhttp://dbpedia.org/property/imageCoat
p60
aVhttp://xmlns.com/foaf/0.1/name
p61
aVhttp://dbpedia.org/property/jurisdiction
p62
aVhttp://dbpedia.org/ontology/premierePlace
p63
aVhttp://dbpedia.org/property/leaderTitle
p64
aVhttp://www.w3.org/2002/07/owl#sameAs
p65
aVhttp://dbpedia.org/ontology/headquarter
p66
asI2
(lp67
Vhttp://dbpedia.org/ontology/country
p68
aVhttp://dbpedia.org/property/nationality
p69
aVhttp://dbpedia.org/ontology/birthPlace
p70
aVhttp://dbpedia.org/property/place
p71
aVhttp://dbpedia.org/ontology/nationality
p72
aVhttp://dbpedia.org/property/birthPlace
p73
aVhttp://dbpedia.org/ontology/place
p74
aVhttp://dbpedia.org/property/placeOfBirth
p75
aVhttp://dbpedia.org/ontology/stateOfOrigin
p76
asI3
(lp77
Vhttp://www.w3.org/2000/01/rdf-schema#seeAlso
p78
aVhttp://dbpedia.org/property/place
p79
aVhttp://dbpedia.org/property/debuts
p80
aVhttp://dbpedia.org/ontology/PopulatedPlace/areaTotal
p81
aVhttp://dbpedia.org/ontology/garrison
p82
aVhttp://www.w3.org/ns/prov#wasDerivedFrom
p83
aVhttp://dbpedia.org/ontology/PopulatedPlace/populationDensity
p84
aVhttp://dbpedia.org/property/areaRank
p85
aVhttp://www.w3.org/1999/02/22-rdf-syntax-ns#type
p86
aVhttp://dbpedia.org/property/withdraws
p87
aVhttp://dbpedia.org/ontology/place
p88
aVhttp://dbpedia.org/property/placeOfBirth
p89
aVhttp://dbpedia.org/property/gdpNominal
p90
aVhttp://dbpedia.org/ontology/wikiPageExternalLink
p91
aVhttp://purl.org/dc/terms/subject
p92
aVhttp://dbpedia.org/ontology/country
p93
aVhttp://dbpedia.org/ontology/abstract
p94
aVhttp://dbpedia.org/property/location
p95
aVhttp://dbpedia.org/property/establishedDate
p96
aVhttp://www.georss.org/georss/point
p97
aVhttp://www.w3.org/2000/01/rdf-schema#comment
p98
aVhttp://dbpedia.org/ontology/birthPlace
p99
aVhttp://dbpedia.org/ontology/wikiPageRedirects
p100
aVhttp://purl.org/voc/vrank#hasRank
p101
aVhttp://dbpedia.org/property/garrison
p102
aVhttp://www.w3.org/2002/07/owl#sameAs
p103
asI4
(lp104
Vhttp://dbpedia.org/property/placeOfDeath
p105
aVhttp://dbpedia.org/property/cctld
p106
aVhttp://dbpedia.org/ontology/garrison
p107
aVhttp://www.w3.org/ns/prov#wasDerivedFrom
p108
aVhttp://dbpedia.org/ontology/demonym
p109
aVhttp://dbpedia.org/property/broadcastArea
p110
aVhttp://dbpedia.org/ontology/nationality
p111
aVhttp://dbpedia.org/property/shortDescription
p112
aVhttp://xmlns.com/foaf/0.1/isPrimaryTopicOf
p113
aVhttp://dbpedia.org/property/establishedEvent
p114
aVhttp://dbpedia.org/property/nationality
p115
aVhttp://dbpedia.org/ontology/abstract
p116
aVhttp://dbpedia.org/property/leaderName
p117
aVhttp://dbpedia.org/property/imageMap
p118
aVhttp://dbpedia.org/ontology/location
p119
aVhttp://dbpedia.org/property/countriesAffected
p120
aVhttp://dbpedia.org/ontology/wikiPageExternalLink
p121
aVhttp://dbpedia.org/property/area
p122
aVhttp://dbpedia.org/ontology/restingPlace
p123
aVhttp://dbpedia.org/ontology/spokenIn
p124
aVhttp://dbpedia.org/property/jurisdiction
p125
aVhttp://dbpedia.org/property/leaderTitle
p126
aVhttp://www.w3.org/2000/01/rdf-schema#seeAlso
p127
aVhttp://dbpedia.org/property/currency
p128
aVhttp://dbpedia.org/property/restingPlace
p129
aVhttp://dbpedia.org/property/team1Name
p130
aVhttp://dbpedia.org/property/legislature
p131
aVhttp://dbpedia.org/property/site
p132
aVhttp://dbpedia.org/ontology/country
p133
aVhttp://dbpedia.org/property/nationalAnthem
p134
aVhttp://dbpedia.org/property/birthPlace
p135
aVhttp://dbpedia.org/property/country
p136
aVhttp://dbpedia.org/property/areaServed
p137
aVhttp://dbpedia.org/ontology/county
p138
aVhttp://xmlns.com/foaf/0.1/primaryTopic
p139
aVhttp://dbpedia.org/property/location
p140
aVhttp://dbpedia.org/property/states
p141
aVhttp://dbpedia.org/ontology/locationCountry
p142
aVhttp://dbpedia.org/ontology/deathPlace
p143
aVhttp://dbpedia.org/ontology/thumbnail
p144
aVhttp://dbpedia.org/property/hasPhotoCollection
p145
aVhttp://dbpedia.org/property/headquarters
p146
aVhttp://dbpedia.org/property/countryName
p147
aVhttp://dbpedia.org/ontology/anthem
p148
aVhttp://dbpedia.org/ontology/birthPlace
p149
aVhttp://dbpedia.org/ontology/wikiPageRedirects
p150
aVhttp://dbpedia.org/property/citizenship
p151
aVhttp://dbpedia.org/property/imageCoat
p152
aVhttp://dbpedia.org/ontology/stateOfOrigin
p153
aVhttp://www.w3.org/2002/07/owl#sameAs
p154
aVhttp://dbpedia.org/ontology/leader
p155
aVhttp://dbpedia.org/ontology/origin
p156
aVhttp://dbpedia.org/ontology/currency
p157
aVhttp://dbpedia.org/property/residence
p158
aVhttp://dbpedia.org/ontology/longName
p159
aVhttp://dbpedia.org/property/locationCountry
p160
aVhttp://dbpedia.org/ontology/ground
p161
aVhttp://dbpedia.org/property/lowerHouse
p162
aVhttp://dbpedia.org/property/countryCode
p163
aVhttp://dbpedia.org/property/placeOfBirth
p164
aVhttp://dbpedia.org/property/ideology
p165
aVhttp://xmlns.com/foaf/0.1/depiction
p166
aVhttp://dbpedia.org/property/observedby
p167
aVhttp://dbpedia.org/ontology/flag
p168
aVhttp://dbpedia.org/property/commonName
p169
aVhttp://dbpedia.org/property/subdivisionName
p170
aVhttp://dbpedia.org/property/destination
p171
aVhttp://dbpedia.org/property/order
p172
aVhttp://dbpedia.org/property/imageFlag
p173
aVhttp://dbpedia.org/property/place
p174
aVhttp://dbpedia.org/ontology/jurisdiction
p175
aVhttp://dbpedia.org/property/lastStopover
p176
aVhttp://www.w3.org/2002/07/owl#differentFrom
p177
aVhttp://dbpedia.org/property/upperHouse
p178
aVhttp://dbpedia.org/property/available
p179
aVhttp://dbpedia.org/ontology/place
p180
aVhttp://dbpedia.org/property/office
p181
aVhttp://dbpedia.org/ontology/residence
p182
aVhttp://dbpedia.org/property/body
p183
aVhttp://dbpedia.org/property/callingCode
p184
aVhttp://dbpedia.org/ontology/wikiPageDisambiguates
p185
aVhttp://purl.org/dc/terms/subject
p186
aVhttp://dbpedia.org/ontology/populationPlace
p187
aVhttp://dbpedia.org/property/deathPlace
p188
aVhttp://dbpedia.org/property/armiger
p189
aVhttp://dbpedia.org/ontology/nationalAffiliation
p190
aVhttp://dbpedia.org/ontology/headquarter
p191
aVhttp://dbpedia.org/property/stopover
p192
aVhttp://www.w3.org/2000/01/rdf-schema#label
p193
aVhttp://dbpedia.org/property/title
p194
aVhttp://dbpedia.org/property/locale
p195
aVhttp://dbpedia.org/property/currencyCode
p196
aVhttp://dbpedia.org/property/garrison
p197
aVhttp://www.w3.org/2000/01/rdf-schema#comment
p198
aVhttp://dbpedia.org/property/demonym
p199
aVhttp://xmlns.com/foaf/0.1/name
p200
aVhttp://dbpedia.org/ontology/premierePlace
p201
aVhttp://dbpedia.org/property/through
p202
aVhttp://dbpedia.org/ontology/occupation
p203
asI5
(lp204
ssI8
(dp205
I1
(lp206
sI2
(lp207
Vhttp://dbpedia.org/property/currencyCode
p208
asI3
(lp209
sI4
(lp210
sI5
(lp211
ssI3
(dp212
I1
(lp213
sI2
(lp214
Vhttp://dbpedia.org/property/currencyCode
p215
asI3
(lp216
sI4
(lp217
Vhttp://dbpedia.org/property/origin
p218
aVhttp://dbpedia.org/property/placeOfDeath
p219
aVhttp://dbpedia.org/ontology/nationality
p220
aVhttp://dbpedia.org/property/cctld
p221
aVhttp://dbpedia.org/ontology/PopulatedPlace/areaTotal
p222
aVhttp://dbpedia.org/property/sovereigntyType
p223
aVhttp://www.w3.org/ns/prov#wasDerivedFrom
p224
aVhttp://dbpedia.org/property/territory
p225
aVhttp://dbpedia.org/ontology/demonym
p226
aVhttp://dbpedia.org/property/focusCities
p227
aVhttp://dbpedia.org/ontology/isPartOf
p228
aVhttp://dbpedia.org/property/timeZone
p229
aVhttp://xmlns.com/foaf/0.1/isPrimaryTopicOf
p230
aVhttp://dbpedia.org/property/establishedEvent
p231
aVhttp://dbpedia.org/ontology/residence
p232
aVhttp://dbpedia.org/ontology/abstract
p233
aVhttp://dbpedia.org/property/countryAdminDivisions
p234
aVhttp://dbpedia.org/property/gdpPpp
p235
aVhttp://dbpedia.org/property/officialLanguages
p236
aVhttp://dbpedia.org/property/imageMap
p237
aVhttp://dbpedia.org/ontology/location
p238
aVhttp://dbpedia.org/property/city
p239
aVhttp://dbpedia.org/property/governmentType
p240
aVhttp://dbpedia.org/property/area
p241
aVhttp://dbpedia.org/ontology/hometown
p242
aVhttp://dbpedia.org/ontology/restingPlace
p243
aVhttp://dbpedia.org/property/leaderTitle
p244
aVhttp://www.w3.org/2000/01/rdf-schema#seeAlso
p245
aVhttp://dbpedia.org/property/currency
p246
aVhttp://dbpedia.org/ontology/knownFor
p247
aVhttp://dbpedia.org/property/conventionalLongName
p248
aVhttp://dbpedia.org/ontology/foundationPlace
p249
aVhttp://dbpedia.org/property/legislature
p250
aVhttp://dbpedia.org/ontology/locatedInArea
p251
aVhttp://dbpedia.org/ontology/officialLanguage
p252
aVhttp://dbpedia.org/property/officialWebsite
p253
aVhttp://dbpedia.org/ontology/country
p254
aVhttp://dbpedia.org/property/nationalAnthem
p255
aVhttp://dbpedia.org/property/birthPlace
p256
aVhttp://dbpedia.org/property/country
p257
aVhttp://dbpedia.org/ontology/wikiPageExternalLink
p258
aVhttp://xmlns.com/foaf/0.1/primaryTopic
p259
aVhttp://dbpedia.org/property/county
p260
aVhttp://dbpedia.org/property/location
p261
aVhttp://dbpedia.org/ontology/locationCountry
p262
aVhttp://dbpedia.org/ontology/deathPlace
p263
aVhttp://dbpedia.org/property/hasPhotoCollection
p264
aVhttp://dbpedia.org/property/status
p265
aVhttp://dbpedia.org/ontology/territory
p266
aVhttp://dbpedia.org/property/drivesOn
p267
aVhttp://dbpedia.org/property/headquarters
p268
aVhttp://dbpedia.org/ontology/anthem
p269
aVhttp://dbpedia.org/ontology/birthPlace
p270
aVhttp://dbpedia.org/ontology/wikiPageRedirects
p271
aVhttp://purl.org/voc/vrank#hasRank
p272
aVhttp://dbpedia.org/property/imageCoat
p273
aVhttp://xmlns.com/foaf/0.1/homepage
p274
aVhttp://dbpedia.org/ontology/stateOfOrigin
p275
aVhttp://www.w3.org/2002/07/owl#sameAs
p276
aVhttp://dbpedia.org/ontology/leader
p277
aVhttp://dbpedia.org/ontology/currency
p278
aVhttp://dbpedia.org/ontology/longName
p279
aVhttp://dbpedia.org/ontology/ground
p280
aVhttp://dbpedia.org/property/billed
p281
aVhttp://www.w3.org/1999/02/22-rdf-syntax-ns#type
p282
aVhttp://dbpedia.org/ontology/capital
p283
aVhttp://dbpedia.org/property/locationCountry
p284
aVhttp://dbpedia.org/property/largestCity
p285
aVhttp://dbpedia.org/property/capital
p286
aVhttp://dbpedia.org/property/lowerHouse
p287
aVhttp://dbpedia.org/ontology/ethnicGroup
p288
aVhttp://dbpedia.org/property/countryCode
p289
aVhttp://dbpedia.org/property/placeOfBirth
p290
aVhttp://xmlns.com/foaf/0.1/depiction
p291
aVhttp://dbpedia.org/property/gdpPppPerCapita
p292
aVhttp://dbpedia.org/ontology/thumbnail
p293
aVhttp://dbpedia.org/ontology/city
p294
aVhttp://dbpedia.org/ontology/flag
p295
aVhttp://dbpedia.org/property/commonName
p296
aVhttp://dbpedia.org/property/subdivisionName
p297
aVhttp://dbpedia.org/ontology/governmentType
p298
aVhttp://dbpedia.org/property/imageFlag
p299
aVhttp://dbpedia.org/property/ground
p300
aVhttp://dbpedia.org/property/symbolType
p301
aVhttp://www.w3.org/2002/07/owl#differentFrom
p302
aVhttp://dbpedia.org/ontology/PopulatedPlace/populationDensity
p303
aVhttp://dbpedia.org/ontology/leaderTitle
p304
aVhttp://dbpedia.org/property/upperHouse
p305
aVhttp://dbpedia.org/property/nationality
p306
aVhttp://dbpedia.org/property/callingCode
p307
aVhttp://dbpedia.org/ontology/wikiPageDisambiguates
p308
aVhttp://purl.org/dc/terms/subject
p309
aVhttp://dbpedia.org/ontology/populationPlace
p310
aVhttp://dbpedia.org/property/state
p311
aVhttp://dbpedia.org/property/deathPlace
p312
aVhttp://dbpedia.org/property/armiger
p313
aVhttp://dbpedia.org/ontology/headquarter
p314
aVhttp://www.w3.org/2000/01/rdf-schema#label
p315
aVhttp://dbpedia.org/ontology/language
p316
aVhttp://dbpedia.org/ontology/broadcastArea
p317
aVhttp://dbpedia.org/property/currencyCode
p318
aVhttp://www.w3.org/2000/01/rdf-schema#comment
p319
aVhttp://dbpedia.org/property/demonym
p320
aVhttp://dbpedia.org/ontology/largestCity
p321
aVhttp://xmlns.com/foaf/0.1/name
p322
aVhttp://dbpedia.org/property/areas
p323
aVhttp://dbpedia.org/ontology/occupation
p324
asI5
(lp325
ssI12
(dp326
I1
(lp327
sI2
(lp328
sI3
(lp329
Vhttp://www.w3.org/1999/02/22-rdf-syntax-ns#type
p330
asI4
(lp331
Vhttp://www.w3.org/2000/01/rdf-schema#seeAlso
p332
aVhttp://xmlns.com/foaf/0.1/primaryTopic
p333
aVhttp://dbpedia.org/property/cities
p334
aVhttp://purl.org/dc/terms/subject
p335
aVhttp://dbpedia.org/ontology/wikiPageRedirects
p336
aVhttp://dbpedia.org/property/areaServed
p337
aVhttp://dbpedia.org/ontology/place
p338
aVhttp://xmlns.com/foaf/0.1/isPrimaryTopicOf
p339
aVhttp://dbpedia.org/property/caption
p340
aVhttp://dbpedia.org/property/hasPhotoCollection
p341
aVhttp://dbpedia.org/ontology/regionServed
p342
aVhttp://www.w3.org/2000/01/rdf-schema#label
p343
aVhttp://www.w3.org/2002/07/owl#sameAs
p344
aVhttp://dbpedia.org/property/title
p345
asI5
(lp346
ss.