(lp1
(lp2
(lp3
Vhttp://dbpedia.org/resource/DVD
p4
aa(lp5
a(lp6
a(lp7
aa(lp8
(lp9
Vhttp://dbpedia.org/resource/DVD
p10
aa(lp11
a(lp12
a(lp13
aa(lp14
(lp15
Vhttp://dbpedia.org/resource/DVD
p16
aa(lp17
a(lp18
a(lp19
aa(lp20
(lp21
Vhttp://dbpedia.org/resource/DVD
p22
aa(lp23
a(lp24
a(lp25
aa(lp26
(lp27
Vhttp://dbpedia.org/resource/Compact_disc
p28
aa(lp29
Vhttp://dbpedia.org/resource/Compact_disc
p30
aa(lp31
Vhttp://dbpedia.org/resource/Compact_disc
p32
aa(lp33
Vhttp://dbpedia.org/resource/Compact_disc
p34
aaa(lp35
(lp36
a(lp37
a(lp38
a(lp39
aa(lp40
(lp41
a(lp42
a(lp43
a(lp44
aa(lp45
(lp46
a(lp47
a(lp48
a(lp49
aa(lp50
(lp51
Vhttp://dbpedia.org/resource/Financial_Times
p52
aa(lp53
Vhttp://dbpedia.org/resource/WFT
p54
aa(lp55
a(lp56
aa.