(lp1
(lp2
(lp3
a(lp4
a(lp5
a(lp6
a(lp7
a(lp8
a(lp9
((lVhttp://dbpedia.org/resource/Programmed_input/output
tp10
aa(lp11
a(lp12
((lp13
Vhttp://www.w3.org/2002/07/owl#Thing
p14
aVhttp://dbpedia.org/class/yago/Abstraction100002137
p15
aVhttp://dbpedia.org/class/yago/DefiniteQuantity113576101
p16
aVhttp://dbpedia.org/class/yago/UnitOfMeasurement113583724
p17
aVhttp://dbpedia.org/class/yago/Measure100033615
p18
aVhttp://dbpedia.org/class/yago/UnitsOfFlow
p19
aVhttp://dbpedia.org/class/yago/UnitsOfInformation
p20
aVhttp://dbpedia.org/resource/Data_rate_units
tp21
aaa(lp22
(lp23
a(lp24
a(lp25
((lp26
Vhttp://www.w3.org/2002/07/owl#Thing
p27
aVhttp://dbpedia.org/class/yago/Abstraction100002137
p28
aVhttp://dbpedia.org/class/yago/DefiniteQuantity113576101
p29
aVhttp://dbpedia.org/class/yago/UnitOfMeasurement113583724
p30
aVhttp://dbpedia.org/class/yago/Measure100033615
p31
aVhttp://dbpedia.org/class/yago/UnitsOfFlow
p32
aVhttp://dbpedia.org/class/yago/UnitsOfInformation
p33
aVhttp://dbpedia.org/resource/Data_rate_units
tp34
aa(lp35
((lp36
Vhttp://dbpedia.org/class/yago/Abstraction100002137
p37
aVhttp://dbpedia.org/class/yago/DefiniteQuantity113576101
p38
aVhttp://dbpedia.org/class/yago/UnitOfMeasurement113583724
p39
aVhttp://dbpedia.org/class/yago/Measure100033615
p40
aVhttp://dbpedia.org/class/yago/SIDerivedUnits
p41
aVhttp://dbpedia.org/class/yago/UnitsOfRadiationDose
p42
aVhttp://dbpedia.org/resource/Gray_(unit)
tp43
aa(lp44
a(lp45
a(lp46
a(lp47
a(lp48
a(lp49
((lp50
Vhttp://www.w3.org/2002/07/owl#Thing
p51
aVhttp://dbpedia.org/class/yago/Abstraction100002137
p52
aVhttp://dbpedia.org/class/yago/DefiniteQuantity113576101
p53
aVhttp://dbpedia.org/class/yago/UnitOfMeasurement113583724
p54
aVhttp://dbpedia.org/class/yago/Measure100033615
p55
aVhttp://dbpedia.org/class/yago/UnitsOfFlow
p56
aVhttp://dbpedia.org/class/yago/UnitsOfInformation
p57
aVhttp://dbpedia.org/resource/Data_rate_units
tp58
aa(lp59
a(lp60
a(lp61
a(lp62
((lVhttp://dbpedia.org/resource/Sailing_ship
tp63
aa(lp64
a(lp65
((lp66
Vhttp://www.w3.org/2002/07/owl#Thing
p67
aVhttp://dbpedia.org/class/yago/Abstraction100002137
p68
aVhttp://dbpedia.org/class/yago/DefiniteQuantity113576101
p69
aVhttp://dbpedia.org/class/yago/UnitOfMeasurement113583724
p70
aVhttp://dbpedia.org/class/yago/Measure100033615
p71
aVhttp://dbpedia.org/class/yago/UnitsOfFlow
p72
aVhttp://dbpedia.org/class/yago/UnitsOfInformation
p73
aVhttp://dbpedia.org/resource/Data_rate_units
tp74
aa(lp75
a(lp76
a(lp77
a(lp78
((lp79
Vhttp://dbpedia.org/class/yago/Abstraction100002137
p80
aVhttp://dbpedia.org/class/yago/DefiniteQuantity113576101
p81
aVhttp://dbpedia.org/class/yago/UnitOfMeasurement113583724
p82
aVhttp://dbpedia.org/class/yago/CustomaryUnitsInTheUnitedStates
p83
aVhttp://dbpedia.org/class/yago/Measure100033615
p84
aVhttp://dbpedia.org/class/yago/ImperialUnits
p85
aVhttp://dbpedia.org/class/yago/UnitsOfVolume
p86
aVhttp://dbpedia.org/resource/Barrel_(unit)
tp87
aa(lp88
a(lp89
((lp90
Vhttp://www.w3.org/2002/07/owl#Thing
p91
aVhttp://dbpedia.org/class/yago/Abstraction100002137
p92
aVhttp://dbpedia.org/class/yago/DefiniteQuantity113576101
p93
aVhttp://dbpedia.org/class/yago/UnitOfMeasurement113583724
p94
aVhttp://dbpedia.org/class/yago/Measure100033615
p95
aVhttp://dbpedia.org/class/yago/UnitsOfFlow
p96
aVhttp://dbpedia.org/class/yago/UnitsOfInformation
p97
aVhttp://dbpedia.org/resource/Data_rate_units
tp98
aa(lp99
((lp100
Vhttp://dbpedia.org/class/yago/Abstraction100002137
p101
aVhttp://dbpedia.org/class/yago/DefiniteQuantity113576101
p102
aVhttp://dbpedia.org/class/yago/UnitOfMeasurement113583724
p103
aVhttp://dbpedia.org/class/yago/Measure100033615
p104
aVhttp://dbpedia.org/class/yago/SIDerivedUnits
p105
aVhttp://dbpedia.org/class/yago/UnitsOfRadiationDose
p106
aVhttp://dbpedia.org/resource/Gray_(unit)
tp107
aa(lp108
a(lp109
((lVhttp://dbpedia.org/resource/ISO_639:w
tp110
aa(lp111
a(lp112
((lp113
Vhttp://www.w3.org/2002/07/owl#Thing
p114
aVhttp://dbpedia.org/class/yago/Abstraction100002137
p115
aVhttp://dbpedia.org/class/yago/DefiniteQuantity113576101
p116
aVhttp://dbpedia.org/class/yago/UnitOfMeasurement113583724
p117
aVhttp://dbpedia.org/class/yago/Measure100033615
p118
aVhttp://dbpedia.org/class/yago/UnitsOfFlow
p119
aVhttp://dbpedia.org/class/yago/UnitsOfInformation
p120
aVhttp://dbpedia.org/resource/Data_rate_units
tp121
aaa(lp122
(lp123
((lVhttp://dbpedia.org/resource/Quantum_1/f_noise
tp124
aa(lp125
a(lp126
a(lp127
a(lp128
a(lp129
((lVhttp://dbpedia.org/resource/Quantum_1/f_noise
tp130
aa(lp131
a(lp132
((lVhttp://dbpedia.org/resource/Programmed_input/output
tp133
aa(lp134
a(lp135
((lp136
Vhttp://www.w3.org/2002/07/owl#Thing
p137
aVhttp://dbpedia.org/class/yago/Abstraction100002137
p138
aVhttp://dbpedia.org/class/yago/DefiniteQuantity113576101
p139
aVhttp://dbpedia.org/class/yago/UnitOfMeasurement113583724
p140
aVhttp://dbpedia.org/class/yago/Measure100033615
p141
aVhttp://dbpedia.org/class/yago/UnitsOfFlow
p142
aVhttp://dbpedia.org/class/yago/UnitsOfInformation
p143
aVhttp://dbpedia.org/resource/Data_rate_units
tp144
aaa(lp145
(lp146
((lp147
Vhttp://dbpedia.org/class/yago/Abstraction100002137
p148
aVhttp://dbpedia.org/class/yago/DefiniteQuantity113576101
p149
aVhttp://dbpedia.org/class/yago/UnitOfMeasurement113583724
p150
aVhttp://dbpedia.org/class/yago/CustomaryUnitsInTheUnitedStates
p151
aVhttp://dbpedia.org/class/yago/Measure100033615
p152
aVhttp://dbpedia.org/class/yago/ImperialUnits
p153
aVhttp://dbpedia.org/class/yago/UnitsOfVolume
p154
aVhttp://dbpedia.org/resource/Barrel_(unit)
tp155
aa(lp156
a(lp157
((lp158
Vhttp://www.w3.org/2002/07/owl#Thing
p159
aVhttp://dbpedia.org/class/yago/Abstraction100002137
p160
aVhttp://dbpedia.org/class/yago/DefiniteQuantity113576101
p161
aVhttp://dbpedia.org/class/yago/UnitOfMeasurement113583724
p162
aVhttp://dbpedia.org/class/yago/Measure100033615
p163
aVhttp://dbpedia.org/class/yago/UnitsOfFlow
p164
aVhttp://dbpedia.org/class/yago/UnitsOfInformation
p165
aVhttp://dbpedia.org/resource/Data_rate_units
tp166
aa(lp167
a(lp168
((lp169
Vhttp://dbpedia.org/class/yago/Abstraction100002137
p170
aVhttp://dbpedia.org/class/yago/DefiniteQuantity113576101
p171
aVhttp://dbpedia.org/class/yago/UnitOfMeasurement113583724
p172
aVhttp://dbpedia.org/class/yago/Measure100033615
p173
aVhttp://dbpedia.org/class/yago/UnitsOfRadioactivity
p174
aVhttp://dbpedia.org/resource/Specific_activity
tp175
aa(lp176
a(lp177
a(lp178
((lp179
Vhttp://dbpedia.org/class/yago/Abstraction100002137
p180
aVhttp://dbpedia.org/class/yago/DefiniteQuantity113576101
p181
aVhttp://dbpedia.org/class/yago/UnitOfMeasurement113583724
p182
aVhttp://dbpedia.org/class/yago/CustomaryUnitsInTheUnitedStates
p183
aVhttp://dbpedia.org/class/yago/Measure100033615
p184
aVhttp://dbpedia.org/class/yago/ImperialUnits
p185
aVhttp://dbpedia.org/class/yago/UnitsOfVolume
p186
aVhttp://dbpedia.org/resource/Barrel_(unit)
tp187
aa(lp188
a(lp189
a(lp190
((lVhttp://dbpedia.org/resource/Programmed_input/output
tp191
aa(lp192
a(lp193
a(lp194
a(lp195
a(lp196
((lp197
Vhttp://www.w3.org/2002/07/owl#Thing
p198
aVhttp://dbpedia.org/class/yago/Abstraction100002137
p199
aVhttp://dbpedia.org/class/yago/DefiniteQuantity113576101
p200
aVhttp://dbpedia.org/class/yago/UnitOfMeasurement113583724
p201
aVhttp://dbpedia.org/class/yago/Measure100033615
p202
aVhttp://dbpedia.org/class/yago/UnitsOfFlow
p203
aVhttp://dbpedia.org/class/yago/UnitsOfInformation
p204
aVhttp://dbpedia.org/resource/Data_rate_units
tp205
aa(lp206
a(lp207
((lp208
Vhttp://dbpedia.org/class/yago/Abstraction100002137
p209
aVhttp://dbpedia.org/class/yago/Chemical114806838
p210
aVhttp://dbpedia.org/class/yago/Compound114818238
p211
aVhttp://dbpedia.org/class/yago/Macromolecule114944888
p212
aVhttp://dbpedia.org/class/yago/Material114580897
p213
aVhttp://dbpedia.org/class/yago/Matter100020827
p214
aVhttp://dbpedia.org/class/yago/OrganicCompound114727670
p215
aVhttp://dbpedia.org/class/yago/Part113809207
p216
aVhttp://dbpedia.org/class/yago/Protein114728724
p217
aVhttp://dbpedia.org/class/yago/Relation100031921
p218
aVhttp://dbpedia.org/class/yago/Substance100019613
p219
aVhttp://dbpedia.org/class/yago/Thing100002452
p220
aVhttp://dbpedia.org/class/yago/Molecule114682133
p221
aVhttp://dbpedia.org/class/yago/PhysicalEntity100001930
p222
aVhttp://dbpedia.org/class/yago/Unit109465459
p223
aVhttp://dbpedia.org/class/yago/TransportProteins
p224
aVhttp://dbpedia.org/resource/Karyopherin
tp225
aa(lp226
a(lp227
a(lp228
a(lp229
((lp230
Vhttp://www.w3.org/2002/07/owl#Thing
p231
aVhttp://dbpedia.org/class/yago/Abstraction100002137
p232
aVhttp://dbpedia.org/class/yago/DefiniteQuantity113576101
p233
aVhttp://dbpedia.org/class/yago/UnitOfMeasurement113583724
p234
aVhttp://dbpedia.org/class/yago/Measure100033615
p235
aVhttp://dbpedia.org/class/yago/UnitsOfFlow
p236
aVhttp://dbpedia.org/class/yago/UnitsOfInformation
p237
aVhttp://dbpedia.org/resource/Data_rate_units
tp238
aa(lp239
a(lp240
a(lp241
a(lp242
((lp243
Vhttp://dbpedia.org/class/yago/Abstraction100002137
p244
aVhttp://dbpedia.org/class/yago/DefiniteQuantity113576101
p245
aVhttp://dbpedia.org/class/yago/UnitOfMeasurement113583724
p246
aVhttp://dbpedia.org/class/yago/CustomaryUnitsInTheUnitedStates
p247
aVhttp://dbpedia.org/class/yago/Measure100033615
p248
aVhttp://dbpedia.org/class/yago/ImperialUnits
p249
aVhttp://dbpedia.org/class/yago/UnitsOfVolume
p250
aVhttp://dbpedia.org/resource/Barrel_(unit)
tp251
aa(lp252
a(lp253
((lp254
Vhttp://dbpedia.org/class/yago/Abstraction100002137
p255
aVhttp://dbpedia.org/class/yago/Chemical114806838
p256
aVhttp://dbpedia.org/class/yago/Compound114818238
p257
aVhttp://dbpedia.org/class/yago/Macromolecule114944888
p258
aVhttp://dbpedia.org/class/yago/Material114580897
p259
aVhttp://dbpedia.org/class/yago/Matter100020827
p260
aVhttp://dbpedia.org/class/yago/OrganicCompound114727670
p261
aVhttp://dbpedia.org/class/yago/Part113809207
p262
aVhttp://dbpedia.org/class/yago/Protein114728724
p263
aVhttp://dbpedia.org/class/yago/Relation100031921
p264
aVhttp://dbpedia.org/class/yago/Substance100019613
p265
aVhttp://dbpedia.org/class/yago/Thing100002452
p266
aVhttp://dbpedia.org/class/yago/Molecule114682133
p267
aVhttp://dbpedia.org/class/yago/PhysicalEntity100001930
p268
aVhttp://dbpedia.org/class/yago/Unit109465459
p269
aVhttp://dbpedia.org/class/yago/TransportProteins
p270
aVhttp://dbpedia.org/resource/Karyopherin
tp271
aa(lp272
a(lp273
((lp274
Vhttp://dbpedia.org/class/yago/Abstraction100002137
p275
aVhttp://dbpedia.org/class/yago/DefiniteQuantity113576101
p276
aVhttp://dbpedia.org/class/yago/UnitOfMeasurement113583724
p277
aVhttp://dbpedia.org/class/yago/Measure100033615
p278
aVhttp://dbpedia.org/class/yago/UnitsOfRadioactivity
p279
aVhttp://dbpedia.org/resource/Specific_activity
tp280
aa(lp281
((lp282
Vhttp://www.w3.org/2002/07/owl#Thing
p283
aVhttp://dbpedia.org/class/yago/Abstraction100002137
p284
aVhttp://dbpedia.org/class/yago/DefiniteQuantity113576101
p285
aVhttp://dbpedia.org/class/yago/UnitOfMeasurement113583724
p286
aVhttp://dbpedia.org/class/yago/Measure100033615
p287
aVhttp://dbpedia.org/class/yago/UnitsOfFlow
p288
aVhttp://dbpedia.org/class/yago/UnitsOfInformation
p289
aVhttp://dbpedia.org/resource/Data_rate_units
tp290
aaa(lp291
(lp292
a(lp293
a(lp294
a(lp295
a(lp296
a(lp297
a(lp298
((lVhttp://dbpedia.org/resource/Programmed_input/output
tp299
aa(lp300
a(lp301
((lp302
Vhttp://dbpedia.org/class/yago/Abstraction100002137
p303
aVhttp://dbpedia.org/class/yago/DefiniteQuantity113576101
p304
aVhttp://dbpedia.org/class/yago/UnitOfMeasurement113583724
p305
aVhttp://dbpedia.org/class/yago/Measure100033615
p306
aVhttp://dbpedia.org/class/yago/SIDerivedUnits
p307
aVhttp://dbpedia.org/class/yago/UnitsOfRadiationDose
p308
aVhttp://dbpedia.org/resource/Gray_(unit)
tp309
aa(lp310
a(lp311
a(lp312
((lp313
Vhttp://dbpedia.org/class/yago/Abstraction100002137
p314
aVhttp://dbpedia.org/class/yago/DefiniteQuantity113576101
p315
aVhttp://dbpedia.org/class/yago/UnitOfMeasurement113583724
p316
aVhttp://dbpedia.org/class/yago/Measure100033615
p317
aVhttp://dbpedia.org/class/yago/UnitsOfRadioactivity
p318
aVhttp://dbpedia.org/resource/Specific_activity
tp319
aa(lp320
a(lp321
a(lp322
a(lp323
a(lp324
a(lp325
((lp326
Vhttp://www.w3.org/2002/07/owl#Thing
p327
aVhttp://dbpedia.org/class/yago/Abstraction100002137
p328
aVhttp://dbpedia.org/class/yago/DefiniteQuantity113576101
p329
aVhttp://dbpedia.org/class/yago/UnitOfMeasurement113583724
p330
aVhttp://dbpedia.org/class/yago/Measure100033615
p331
aVhttp://dbpedia.org/class/yago/UnitsOfFlow
p332
aVhttp://dbpedia.org/class/yago/UnitsOfInformation
p333
aVhttp://dbpedia.org/resource/Data_rate_units
tp334
aa(lp335
((lVhttp://dbpedia.org/resource/Programmed_input/output
tp336
aa(lp337
a(lp338
a(lp339
a(lp340
((lp341
Vhttp://www.w3.org/2002/07/owl#Thing
p342
aVhttp://dbpedia.org/class/yago/Abstraction100002137
p343
aVhttp://dbpedia.org/class/yago/DefiniteQuantity113576101
p344
aVhttp://dbpedia.org/class/yago/UnitOfMeasurement113583724
p345
aVhttp://dbpedia.org/class/yago/Measure100033615
p346
aVhttp://dbpedia.org/class/yago/UnitsOfFlow
p347
aVhttp://dbpedia.org/class/yago/UnitsOfInformation
p348
aVhttp://dbpedia.org/resource/Data_rate_units
p349
tp350
aaa.