(lp1
(lp2
(lp3
((lp4
Vhttp://dbpedia.org/class/yago/Animal100015388
p5
aVhttp://dbpedia.org/class/yago/AquaticVertebrate101473806
p6
aVhttp://dbpedia.org/class/yago/BonyFish102514825
p7
aVhttp://dbpedia.org/class/yago/Colt102376791
p8
aVhttp://dbpedia.org/class/yago/Fish102512053
p9
aVhttp://dbpedia.org/class/yago/LivingThing100004258
p10
aVhttp://dbpedia.org/class/yago/Male101321230
p11
aVhttp://dbpedia.org/class/yago/Object100002684
p12
aVhttp://dbpedia.org/class/yago/Organism100004475
p13
aVhttp://dbpedia.org/class/yago/PercoidFish102554730
p14
aVhttp://dbpedia.org/class/yago/Spiny-finnedFish102552171
p15
aVhttp://dbpedia.org/class/yago/Vertebrate101471682
p16
aVhttp://dbpedia.org/class/yago/Whole100003553
p17
aVhttp://dbpedia.org/class/yago/YoungMammal101321854
p18
aVhttp://dbpedia.org/class/yago/Chordate101466257
p19
aVhttp://dbpedia.org/class/yago/Dolphinfish102581957
p20
aVhttp://dbpedia.org/class/yago/Foal102376542
p21
aVhttp://dbpedia.org/class/yago/PhysicalEntity100001930
p22
aVhttp://dbpedia.org/class/yago/TeleostFish102528163
p23
aVhttp://dbpedia.org/class/yago/IndianapolisColts
p24
aVhttp://dbpedia.org/class/yago/MiamiDolphins
p25
aVhttp://dbpedia.org/class/yago/Young101321579
p26
aVhttp://dbpedia.org/resource/AFC_East
tp27
aa(lp28
a(lp29
a(lp30
a(lp31
aa(lp32
(lp33
((lp34
Vhttp://dbpedia.org/class/yago/Abstraction100002137
p35
aVhttp://dbpedia.org/class/yago/Association108049401
p36
aVhttp://dbpedia.org/class/yago/Club108227214
p37
aVhttp://dbpedia.org/class/yago/Group100031264
p38
aVhttp://dbpedia.org/class/yago/Organization108008335
p39
aVhttp://dbpedia.org/class/yago/SocialGroup107950920
p40
aVhttp://dbpedia.org/class/yago/YagoLegalActorGeo
p41
aVhttp://dbpedia.org/class/yago/FootballClubsInWales
p42
aVhttp://dbpedia.org/class/yago/YagoPermanentlyLocatedEntity
p43
aVhttp://dbpedia.org/class/yago/YagoLegalActor
p44
aVhttp://dbpedia.org/resource/AFC_Porth
tp45
aa(lp46
a(lp47
a(lp48
a(lp49
aa(lp50
(lp51
((lp52
Vhttp://dbpedia.org/class/yago/Adult109605289
p53
aVhttp://dbpedia.org/class/yago/CausalAgent100007347
p54
aVhttp://dbpedia.org/class/yago/ImportantPerson110200781
p55
aVhttp://dbpedia.org/class/yago/LivingThing100004258
p56
aVhttp://dbpedia.org/class/yago/Object100002684
p57
aVhttp://dbpedia.org/class/yago/Organism100004475
p58
aVhttp://dbpedia.org/class/yago/Person100007846
p59
aVhttp://dbpedia.org/class/yago/Whole100003553
p60
aVhttp://dbpedia.org/class/yago/YagoLegalActorGeo
p61
aVhttp://dbpedia.org/class/yago/Colossus109938991
p62
aVhttp://dbpedia.org/class/yago/PhysicalEntity100001930
p63
aVhttp://dbpedia.org/class/yago/YagoLegalActor
p64
aVhttp://dbpedia.org/class/yago/TennesseeTitans
p65
aVhttp://dbpedia.org/resource/AFC_South
tp66
aa(lp67
a(lp68
a(lp69
a(lp70
aa(lp71
(lp72
((lp73
Vhttp://dbpedia.org/class/yago/BadPerson109831962
p74
aVhttp://dbpedia.org/class/yago/CausalAgent100007347
p75
aVhttp://dbpedia.org/class/yago/Criminal109977660
p76
aVhttp://dbpedia.org/class/yago/Head110162991
p77
aVhttp://dbpedia.org/class/yago/Leader109623038
p78
aVhttp://dbpedia.org/class/yago/LivingThing100004258
p79
aVhttp://dbpedia.org/class/yago/Object100002684
p80
aVhttp://dbpedia.org/class/yago/Organism100004475
p81
aVhttp://dbpedia.org/class/yago/Person100007846
p82
aVhttp://dbpedia.org/class/yago/Pirate110435367
p83
aVhttp://dbpedia.org/class/yago/Plunderer110443170
p84
aVhttp://dbpedia.org/class/yago/Thief110707804
p85
aVhttp://dbpedia.org/class/yago/Whole100003553
p86
aVhttp://dbpedia.org/class/yago/Wrongdoer109633969
p87
aVhttp://dbpedia.org/class/yago/YagoLegalActorGeo
p88
aVhttp://dbpedia.org/class/yago/PhysicalEntity100001930
p89
aVhttp://dbpedia.org/class/yago/Principal110474950
p90
aVhttp://dbpedia.org/class/yago/KansasCityChiefs
p91
aVhttp://dbpedia.org/class/yago/OaklandRaiders
p92
aVhttp://dbpedia.org/class/yago/YagoLegalActor
p93
aVhttp://dbpedia.org/class/yago/TampaBayBuccaneers
p94
aVhttp://dbpedia.org/resource/AFC_West
tp95
aa(lp96
a(lp97
a(lp98
a(lp99
aa(lp100
(lp101
((lp102
Vhttp://dbpedia.org/class/yago/ArizonaCardinals
p103
aVhttp://dbpedia.org/class/yago/Bishop109857200
p104
aVhttp://dbpedia.org/class/yago/Cardinal109894143
p105
aVhttp://dbpedia.org/class/yago/CausalAgent100007347
p106
aVhttp://dbpedia.org/class/yago/Clergyman109927451
p107
aVhttp://dbpedia.org/class/yago/Employee110053808
p108
aVhttp://dbpedia.org/class/yago/GoodPerson110138767
p109
aVhttp://dbpedia.org/class/yago/Laborer110241300
p110
aVhttp://dbpedia.org/class/yago/Leader109623038
p111
aVhttp://dbpedia.org/class/yago/LivingThing100004258
p112
aVhttp://dbpedia.org/class/yago/Object100002684
p113
aVhttp://dbpedia.org/class/yago/Organism100004475
p114
aVhttp://dbpedia.org/class/yago/Person100007846
p115
aVhttp://dbpedia.org/class/yago/Priest110470779
p116
aVhttp://dbpedia.org/class/yago/Saint110546850
p117
aVhttp://dbpedia.org/class/yago/SpiritualLeader109505153
p118
aVhttp://dbpedia.org/class/yago/Whole100003553
p119
aVhttp://dbpedia.org/class/yago/Worker109632518
p120
aVhttp://dbpedia.org/class/yago/Workman110791221
p121
aVhttp://dbpedia.org/class/yago/YagoLegalActorGeo
p122
aVhttp://dbpedia.org/class/yago/Cowboy109972661
p123
aVhttp://dbpedia.org/class/yago/DallasCowboys
p124
aVhttp://dbpedia.org/class/yago/HiredHand110176679
p125
aVhttp://dbpedia.org/class/yago/PhysicalEntity100001930
p126
aVhttp://dbpedia.org/class/yago/RanchHand110506544
p127
aVhttp://dbpedia.org/class/yago/NewOrleansSaints
p128
aVhttp://dbpedia.org/class/yago/YagoLegalActor
p129
aVhttp://dbpedia.org/resource/NFC_East
tp130
aa(lp131
a(lp132
a(lp133
a(lp134
aa(lp135
(lp136
((lp137
Vhttp://dbpedia.org/class/yago/BadPerson109831962
p138
aVhttp://dbpedia.org/class/yago/CausalAgent100007347
p139
aVhttp://dbpedia.org/class/yago/Criminal109977660
p140
aVhttp://dbpedia.org/class/yago/Employee110053808
p141
aVhttp://dbpedia.org/class/yago/LivingThing100004258
p142
aVhttp://dbpedia.org/class/yago/Object100002684
p143
aVhttp://dbpedia.org/class/yago/Organism100004475
p144
aVhttp://dbpedia.org/class/yago/Packer110390427
p145
aVhttp://dbpedia.org/class/yago/Person100007846
p146
aVhttp://dbpedia.org/class/yago/Pirate110435367
p147
aVhttp://dbpedia.org/class/yago/Plunderer110443170
p148
aVhttp://dbpedia.org/class/yago/Thief110707804
p149
aVhttp://dbpedia.org/class/yago/Whole100003553
p150
aVhttp://dbpedia.org/class/yago/Worker109632518
p151
aVhttp://dbpedia.org/class/yago/Workman110791221
p152
aVhttp://dbpedia.org/class/yago/Wrongdoer109633969
p153
aVhttp://dbpedia.org/class/yago/YagoLegalActorGeo
p154
aVhttp://dbpedia.org/class/yago/PhysicalEntity100001930
p155
aVhttp://dbpedia.org/class/yago/Principal110474950
p156
aVhttp://dbpedia.org/class/yago/GreenBayPackers
p157
aVhttp://dbpedia.org/class/yago/YagoLegalActor
p158
aVhttp://dbpedia.org/class/yago/TampaBayBuccaneers
p159
aVhttp://dbpedia.org/resource/NFC_North
tp160
aa(lp161
a(lp162
a(lp163
a(lp164
aa(lp165
(lp166
((lp167
Vhttp://dbpedia.org/class/yago/BadPerson109831962
p168
aVhttp://dbpedia.org/class/yago/CausalAgent100007347
p169
aVhttp://dbpedia.org/class/yago/Criminal109977660
p170
aVhttp://dbpedia.org/class/yago/GoodPerson110138767
p171
aVhttp://dbpedia.org/class/yago/LivingThing100004258
p172
aVhttp://dbpedia.org/class/yago/Object100002684
p173
aVhttp://dbpedia.org/class/yago/Organism100004475
p174
aVhttp://dbpedia.org/class/yago/Person100007846
p175
aVhttp://dbpedia.org/class/yago/Pirate110435367
p176
aVhttp://dbpedia.org/class/yago/Plunderer110443170
p177
aVhttp://dbpedia.org/class/yago/Saint110546850
p178
aVhttp://dbpedia.org/class/yago/Thief110707804
p179
aVhttp://dbpedia.org/class/yago/Whole100003553
p180
aVhttp://dbpedia.org/class/yago/Wrongdoer109633969
p181
aVhttp://dbpedia.org/class/yago/YagoLegalActorGeo
p182
aVhttp://dbpedia.org/class/yago/PhysicalEntity100001930
p183
aVhttp://dbpedia.org/class/yago/Principal110474950
p184
aVhttp://dbpedia.org/class/yago/NewOrleansSaints
p185
aVhttp://dbpedia.org/class/yago/YagoLegalActor
p186
aVhttp://dbpedia.org/class/yago/TampaBayBuccaneers
p187
aVhttp://dbpedia.org/resource/NFC_South
tp188
aa(lp189
a(lp190
a(lp191
a(lp192
aa(lp193
(lp194
((lp195
Vhttp://dbpedia.org/class/yago/ArizonaCardinals
p196
aVhttp://dbpedia.org/class/yago/Bishop109857200
p197
aVhttp://dbpedia.org/class/yago/Cardinal109894143
p198
aVhttp://dbpedia.org/class/yago/CausalAgent100007347
p199
aVhttp://dbpedia.org/class/yago/Clergyman109927451
p200
aVhttp://dbpedia.org/class/yago/GoodPerson110138767
p201
aVhttp://dbpedia.org/class/yago/Leader109623038
p202
aVhttp://dbpedia.org/class/yago/LivingThing100004258
p203
aVhttp://dbpedia.org/class/yago/Object100002684
p204
aVhttp://dbpedia.org/class/yago/Organism100004475
p205
aVhttp://dbpedia.org/class/yago/Person100007846
p206
aVhttp://dbpedia.org/class/yago/Priest110470779
p207
aVhttp://dbpedia.org/class/yago/Saint110546850
p208
aVhttp://dbpedia.org/class/yago/SpiritualLeader109505153
p209
aVhttp://dbpedia.org/class/yago/Whole100003553
p210
aVhttp://dbpedia.org/class/yago/YagoLegalActorGeo
p211
aVhttp://dbpedia.org/class/yago/PhysicalEntity100001930
p212
aVhttp://dbpedia.org/class/yago/NewOrleansSaints
p213
aVhttp://dbpedia.org/class/yago/YagoLegalActor
p214
aVhttp://dbpedia.org/resource/NFC_West
p215
tp216
aa(lp217
a(lp218
a(lp219
a(lp220
aa.