(lp1
(dp2
I0
(dp3
I0
(lp4
sI1
(lp5
sI2
(lp6
sI3
(lp7
ssI1
(dp8
I0
g5
sI1
(lp9
sI2
(lp10
sI3
(lp11
ssI2
(dp12
I0
g6
sI1
g10
sI2
(lp13
sI3
(lp14
ssI3
(dp15
I0
g7
sI1
g11
sI2
g14
sI3
(lp16
ssa(dp17
I0
(dp18
I0
(lp19
sI1
(lp20
sI2
(lp21
sI3
(lp22
ssI1
(dp23
I0
g20
sI1
(lp24
sI2
(lp25
sI3
(lp26
ssI2
(dp27
I0
g21
sI1
g25
sI2
(lp28
sI3
(lp29
ssI3
(dp30
I0
g22
sI2
g29
sI3
(lp31
ssa(dp32
I0
(dp33
I0
(lp34
sI1
(lp35
sI2
(lp36
sI3
(lp37
ssI1
(dp38
I0
g35
sI1
(lp39
sI2
(lp40
sI3
(lp41
ssI2
(dp42
I0
g36
sI1
g40
sI2
(lp43
sI3
(lp44
ssI3
(dp45
I0
g37
sI1
g41
sI2
g44
sI3
(lp46
ssa(dp47
I0
(dp48
I0
(lp49
sI1
(lp50
sI2
(lp51
sI3
(lp52
ssI1
(dp53
I0
g50
sI1
(lp54
sI2
(lp55
Vhttp://www.w3.org/ns/prov#wasDerivedFrom
p56
asI3
(lp57
ssI2
(dp58
I0
g51
sI1
g55
sI2
(lp59
sI3
(lp60
Vhttp://dbpedia.org/ontology/wikiPageExternalLink
p61
aVhttp://xmlns.com/foaf/0.1/homepage
p62
assI3
(dp63
I0
g52
sI1
g57
sI2
g60
sI3
(lp64
ssa(dp65
I0
(dp66
I0
(lp67
sI1
(lp68
sI2
(lp69
sI3
(lp70
ssI1
(dp71
I1
(lp72
sI2
(lp73
sI3
(lp74
ssI2
(dp75
I0
g69
sI1
g73
sI2
(lp76
sI3
(lp77
ssI3
(dp78
I2
g77
sI3
(lp79
ssa(dp80
I0
(dp81
I0
(lp82
sI1
(lp83
sI2
(lp84
sI3
(lp85
ssI1
(dp86
I0
g83
sI1
(lp87
sI2
(lp88
sI3
(lp89
ssI2
(dp90
I0
g84
sI1
g88
sI2
(lp91
sI3
(lp92
ssI3
(dp93
I0
g85
sI1
g89
sI2
g92
sI3
(lp94
ssa(dp95
I0
(dp96
I0
(lp97
sI1
(lp98
sI2
(lp99
sI3
(lp100
ssI1
(dp101
I0
g98
sI1
(lp102
sI2
(lp103
sI3
(lp104
ssI2
(dp105
I0
g99
sI1
g103
sI2
(lp106
sI3
(lp107
ssI3
(dp108
I0
g100
sI1
g104
sI2
g107
sI3
(lp109
ssa(dp110
I0
(dp111
I0
(lp112
sI1
(lp113
sI2
(lp114
sI3
(lp115
ssI1
(dp116
I0
g113
sI1
(lp117
sI2
(lp118
sI3
(lp119
ssI2
(dp120
I0
g114
sI1
g118
sI2
(lp121
sI3
(lp122
ssI3
(dp123
I0
g115
sI1
g119
sI2
g122
sI3
(lp124
ssa(dp125
I0
(dp126
I0
(lp127
sI1
(lp128
sI2
(lp129
sI3
(lp130
ssI1
(dp131
I0
g128
sI1
(lp132
sI2
(lp133
sI3
(lp134
ssI2
(dp135
I0
g129
sI1
g133
sI2
(lp136
sI3
(lp137
ssI3
(dp138
I0
g130
sI1
g134
sI2
g137
sI3
(lp139
ssa.