(lp1
(dp2
I0
(dp3
I0
(lp4
sI1
(lp5
Vhttp://xmlns.com/foaf/0.1/primaryTopic
p6
aVhttp://www.w3.org/1999/02/22-rdf-syntax-ns#type
p7
aVhttp://purl.org/dc/terms/subject
p8
aVhttp://www.w3.org/2000/01/rdf-schema#comment
p9
aVhttp://dbpedia.org/ontology/abstract
p10
aVhttp://dbpedia.org/ontology/wikiPageRedirects
p11
aVhttp://purl.org/voc/vrank#hasRank
p12
aVhttp://xmlns.com/foaf/0.1/isPrimaryTopicOf
p13
aVhttp://www.w3.org/ns/prov#wasDerivedFrom
p14
aVhttp://dbpedia.org/property/hasPhotoCollection
p15
aVhttp://www.w3.org/2002/07/owl#sameAs
p16
asI2
(lp17
ssI1
(dp18
I0
g5
sI1
(lp19
sI2
(lp20
ssI2
(dp21
I0
g17
sI1
g20
sI2
(lp22
ssa(dp23
I0
(dp24
I0
(lp25
sI1
(lp26
sI2
(lp27
ssI1
(dp28
I0
g26
sI1
(lp29
sI2
(lp30
ssI2
(dp31
I0
g27
sI1
g30
sI2
(lp32
ssa(dp33
I0
(dp34
I0
(lp35
sI1
(lp36
Vhttp://dbpedia.org/ontology/wikiPageExternalLink
p37
aVhttp://xmlns.com/foaf/0.1/primaryTopic
p38
aVhttp://www.w3.org/1999/02/22-rdf-syntax-ns#type
p39
aVhttp://purl.org/dc/terms/subject
p40
aVhttp://dbpedia.org/ontology/birthPlace
p41
aVhttp://xmlns.com/foaf/0.1/depiction
p42
aVhttp://dbpedia.org/ontology/wikiPageRedirects
p43
aVhttp://purl.org/voc/vrank#hasRank
p44
aVhttp://dbpedia.org/property/birthPlace
p45
aVhttp://dbpedia.org/property/placeOfBirth
p46
aVhttp://dbpedia.org/ontology/thumbnail
p47
aVhttp://www.w3.org/ns/prov#wasDerivedFrom
p48
aVhttp://dbpedia.org/property/hasPhotoCollection
p49
aVhttp://dbpedia.org/ontology/wikiPageDisambiguates
p50
aVhttp://www.w3.org/2002/07/owl#sameAs
p51
aVhttp://xmlns.com/foaf/0.1/isPrimaryTopicOf
p52
asI2
(lp53
ssI1
(dp54
I0
g36
sI1
(lp55
sI2
(lp56
ssI2
(dp57
I0
g53
sI1
g56
sI2
(lp58
ssa(dp59
I0
(dp60
I0
(lp61
sI1
(lp62
sI2
(lp63
ssI1
(dp64
I0
g62
sI1
(lp65
sI2
(lp66
ssI2
(dp67
I0
g63
sI1
g66
sI2
(lp68
ssa(dp69
I0
(dp70
I0
(lp71
sI1
(lp72
sI2
(lp73
ssI1
(dp74
I0
g72
sI1
(lp75
sI2
(lp76
ssI2
(dp77
I0
g73
sI1
g76
sI2
(lp78
ssa.