(lp1
(lp2
(lp3
Vhttp://dbpedia.org/resource/George_William_Bulmer
p4
aa(lp5
a(lp6
aa(lp7
(lp8
a(lp9
a(lp10
aa(lp11
(lp12
a(lp13
a(lp14
aa(lp15
(lp16
a(lp17
a(lp18
aa(lp19
(lp20
a(lp21
a(lp22
aa(lp23
(lp24
a(lp25
a(lp26
aa(lp27
(lp28
a(lp29
a(lp30
aa(lp31
(lp32
a(lp33
a(lp34
aa(lp35
(lp36
a(lp37
a(lp38
aa(lp39
(lp40
Vhttp://dbpedia.org/resource/Hugo_Salcedo
p41
aa(lp42
a(lp43
aa(lp44
(lp45
a(lp46
a(lp47
aa(lp48
(lp49
a(lp50
a(lp51
aa.