(lp1
(lp2
(lp3
a(lp4
a(lp5
a(lp6
aa(lp7
(lp8
a(lp9
Vhttp://dbpedia.org/resource/Metropolitan_Museum_of_Art
p10
aa(lp11
a(lp12
aa(lp13
(lp14
a(lp15
a(lp16
a(lp17
aa(lp18
(lp19
a(lp20
Vhttp://dbpedia.org/resource/National_Gallery_of_Art
p21
aa(lp22
a(lp23
aa(lp24
(lp25
a(lp26
Vhttp://dbpedia.org/resource/Victoria_and_Albert_Museum
p27
aa(lp28
Vhttp://dbpedia.org/resource/United_Kingdom
p29
aa(lp30
aa(lp31
(lp32
a(lp33
a(lp34
a(lp35
aa(lp36
(lp37
a(lp38
Vhttp://dbpedia.org/resource/Deutsches_Historisches_Museum
p39
aa(lp40
a(lp41
aa(lp42
(lp43
a(lp44
a(lp45
a(lp46
aa(lp47
(lp48
a(lp49
Vhttp://dbpedia.org/resource/Hermitage_Museum
p50
aa(lp51
a(lp52
aa(lp53
(lp54
a(lp55
Vhttp://dbpedia.org/resource/Brooklyn_Museum
p56
aa(lp57
a(lp58
aa(lp59
(lp60
a(lp61
Vhttp://dbpedia.org/resource/National_Maritime_Museum
p62
aa(lp63
Vhttp://dbpedia.org/resource/United_Kingdom
p64
aa(lp65
aa(lp66
(lp67
a(lp68
a(lp69
a(lp70
aa(lp71
(lp72
a(lp73
Vhttp://dbpedia.org/resource/National_Gallery
p74
aa(lp75
Vhttp://dbpedia.org/resource/United_Kingdom
p76
aa(lp77
aa(lp78
(lp79
a(lp80
Vhttp://dbpedia.org/resource/Rijksmuseum
p81
aa(lp82
Vhttp://dbpedia.org/resource/Netherlands
p83
aa(lp84
aa(lp85
(lp86
a(lp87
Vhttp://dbpedia.org/resource/Museo_del_Prado
p88
aa(lp89
a(lp90
aa(lp91
(lp92
a(lp93
Vhttp://dbpedia.org/resource/Royal_Academy_of_Arts
p94
aa(lp95
Vhttp://dbpedia.org/resource/United_Kingdom
p96
aa(lp97
aa(lp98
(lp99
a(lp100
a(lp101
Vhttp://dbpedia.org/resource/United_Kingdom
p102
aa(lp103
aa(lp104
(lp105
a(lp106
Vhttp://dbpedia.org/resource/Museum_of_New_Zealand_Te_Papa_Tongarewa
p107
aa(lp108
Vhttp://dbpedia.org/resource/New_Zealand
p109
aa(lp110
aa(lp111
(lp112
a(lp113
Vhttp://dbpedia.org/resource/Philadelphia_Museum_of_Art
p114
aa(lp115
a(lp116
aa(lp117
(lp118
a(lp119
Vhttp://dbpedia.org/resource/Minneapolis_Institute_of_Arts
p120
aa(lp121
a(lp122
aa.