(lp1
(lp2
(lp3
a(lp4
a(lp5
aa(lp6
(lp7
a(lp8
a(lp9
aa(lp10
(lp11
a(lp12
((lp13
Vhttp://www.w3.org/2002/07/owl#Thing
p14
aVhttp://xmlns.com/foaf/0.1/Person
p15
aVhttp://dbpedia.org/ontology/Person
p16
aVhttp://www.ontologydesignpatterns.org/ont/dul/DUL.owl#Agent
p17
aVhttp://www.ontologydesignpatterns.org/ont/dul/DUL.owl#NaturalPerson
p18
aVhttp://www.wikidata.org/entity/Q215627
p19
aVhttp://www.wikidata.org/entity/Q5
p20
aVhttp://www.wikidata.org/entity/Q901
p21
aVhttp://dbpedia.org/ontology/Agent
p22
aVhttp://dbpedia.org/ontology/Scientist
p23
aVhttp://schema.org/Person
p24
aVhttp://dbpedia.org/class/yago/CausalAgent100007347
p25
aVhttp://dbpedia.org/class/yago/LivingThing100004258
p26
aVhttp://dbpedia.org/class/yago/Object100002684
p27
aVhttp://dbpedia.org/class/yago/Organism100004475
p28
aVhttp://dbpedia.org/class/yago/Person100007846
p29
aVhttp://dbpedia.org/class/yago/Scientist110560637
p30
aVhttp://dbpedia.org/class/yago/Whole100003553
p31
aVhttp://dbpedia.org/class/yago/YagoLegalActorGeo
p32
aVhttp://dbpedia.org/class/yago/PhysicalEntity100001930
p33
aVhttp://dbpedia.org/class/yago/LivingPeople
p34
aVhttp://dbpedia.org/class/yago/YagoLegalActor
p35
aVhttp://dbpedia.org/resource/John_Daugman
tp36
aa(lp37
aa(lp38
(lp39
a(lp40
a(lp41
aa(lp42
(lp43
a(lp44
a(lp45
aa(lp46
(lp47
a(lp48
((lVhttp://dbpedia.org/resource/Piotr_Zieli\u0144ski
p49
tp50
aa(lp51
aa.