(lp1
(lp2
(dp3
Vstart
p4
I0
sS'classes'
p5
(lp6
Vhttp://www.w3.org/2002/07/owl#Thing
p7
aVhttp://dbpedia.org/ontology/Place
p8
aVhttp://dbpedia.org/ontology/Location
p9
aVhttp://www.wikidata.org/entity/Q23397
p10
aVhttp://dbpedia.org/ontology/BodyOfWater
p11
aVhttp://dbpedia.org/ontology/Lake
p12
aVhttp://dbpedia.org/ontology/NaturalPlace
p13
aVhttp://schema.org/BodyOfWater
p14
aVhttp://schema.org/LakeBodyOfWater
p15
aVhttp://schema.org/Place
p16
aVhttp://umbel.org/umbel/rc/BodyOfWater
p17
aVhttp://umbel.org/umbel/rc/Lake
p18
aVhttp://dbpedia.org/class/yago/BodyOfWater109225146
p19
aVhttp://dbpedia.org/class/yago/Lake109328904
p20
aVhttp://dbpedia.org/class/yago/Location100027167
p21
aVhttp://dbpedia.org/class/yago/Object100002684
p22
aVhttp://dbpedia.org/class/yago/Region108630985
p23
aVhttp://dbpedia.org/class/yago/Site108651247
p24
aVhttp://dbpedia.org/class/yago/Thing100002452
p25
aVhttp://dbpedia.org/class/yago/Tract108673395
p26
aVhttp://dbpedia.org/class/yago/YagoGeoEntity
p27
aVhttp://dbpedia.org/class/yago/YagoLegalActorGeo
p28
aVhttp://dbpedia.org/class/yago/GeographicalArea108574314
p29
aVhttp://dbpedia.org/class/yago/PhysicalEntity100001930
p30
aVhttp://dbpedia.org/class/yago/YagoPermanentlyLocatedEntity
p31
aVhttp://dbpedia.org/class/yago/LakesOfSwitzerland
p32
aVhttp://dbpedia.org/class/yago/RamsarSitesInSwitzerland
p33
asVdisambiguatedURL
p34
Vhttp://dbpedia.org/resource/Klingnauer_Stausee
p35
sVnamedEntity
p36
Vklingnauer stausee
p37
sVoffset
p38
I18
saa(lp39
a(lp40
(dp41
Vstart
p42
I0
sg5
(lp43
Vhttp://www.w3.org/2002/07/owl#Thing
p44
aVhttp://dbpedia.org/ontology/Place
p45
aVhttp://dbpedia.org/ontology/Location
p46
aVhttp://www.wikidata.org/entity/Q23397
p47
aVhttp://dbpedia.org/ontology/BodyOfWater
p48
aVhttp://dbpedia.org/ontology/Lake
p49
aVhttp://dbpedia.org/ontology/NaturalPlace
p50
aVhttp://schema.org/BodyOfWater
p51
aVhttp://schema.org/LakeBodyOfWater
p52
aVhttp://schema.org/Place
p53
aVhttp://umbel.org/umbel/rc/BodyOfWater
p54
aVhttp://umbel.org/umbel/rc/Lake
p55
aVhttp://dbpedia.org/class/yago/BodyOfWater109225146
p56
aVhttp://dbpedia.org/class/yago/Lake109328904
p57
aVhttp://dbpedia.org/class/yago/Thing100002452
p58
aVhttp://dbpedia.org/class/yago/YagoGeoEntity
p59
aVhttp://dbpedia.org/class/yago/PhysicalEntity100001930
p60
aVhttp://dbpedia.org/class/yago/YagoPermanentlyLocatedEntity
p61
aVhttp://dbpedia.org/class/yago/LakesOfValais
p62
asVdisambiguatedURL
p63
Vhttp://dbpedia.org/resource/Stausee_Ferden
p64
sVnamedEntity
p65
Vstausee ferden
p66
sVoffset
p67
I14
saa(lp68
a(lp69
a(lp70
(dp71
Vstart
p72
I0
sg5
(lp73
Vhttp://www.w3.org/2002/07/owl#Thing
p74
aVhttp://dbpedia.org/ontology/Place
p75
aVhttp://dbpedia.org/ontology/Location
p76
aVhttp://www.wikidata.org/entity/Q23397
p77
aVhttp://dbpedia.org/ontology/BodyOfWater
p78
aVhttp://dbpedia.org/ontology/Lake
p79
aVhttp://dbpedia.org/ontology/NaturalPlace
p80
aVhttp://schema.org/BodyOfWater
p81
aVhttp://schema.org/LakeBodyOfWater
p82
aVhttp://schema.org/Place
p83
aVhttp://umbel.org/umbel/rc/BodyOfWater
p84
aVhttp://umbel.org/umbel/rc/Lake
p85
aVhttp://dbpedia.org/class/yago/BodyOfWater109225146
p86
aVhttp://dbpedia.org/class/yago/Lake109328904
p87
aVhttp://dbpedia.org/class/yago/Thing100002452
p88
aVhttp://dbpedia.org/class/yago/YagoGeoEntity
p89
aVhttp://dbpedia.org/class/yago/PhysicalEntity100001930
p90
aVhttp://dbpedia.org/class/yago/YagoPermanentlyLocatedEntity
p91
aVhttp://dbpedia.org/class/yago/LakesOfNewZealand
p92
asVdisambiguatedURL
p93
Vhttp://dbpedia.org/resource/Lake_Arapuni
p94
sVnamedEntity
p95
Vlake arapuni
p96
sVoffset
p97
I12
saa(lp98
(dp99
Vstart
p100
I0
sg5
(lp101
Vhttp://www.w3.org/2002/07/owl#Thing
p102
aVhttp://dbpedia.org/ontology/Place
p103
aVhttp://dbpedia.org/ontology/Location
p104
aVhttp://www.wikidata.org/entity/Q23397
p105
aVhttp://dbpedia.org/ontology/BodyOfWater
p106
aVhttp://dbpedia.org/ontology/Lake
p107
aVhttp://dbpedia.org/ontology/NaturalPlace
p108
aVhttp://schema.org/BodyOfWater
p109
aVhttp://schema.org/LakeBodyOfWater
p110
aVhttp://schema.org/Place
p111
aVhttp://umbel.org/umbel/rc/BodyOfWater
p112
aVhttp://umbel.org/umbel/rc/Lake
p113
aVhttp://dbpedia.org/class/yago/BodyOfWater109225146
p114
aVhttp://dbpedia.org/class/yago/Lake109328904
p115
aVhttp://dbpedia.org/class/yago/Thing100002452
p116
aVhttp://dbpedia.org/class/yago/YagoGeoEntity
p117
aVhttp://dbpedia.org/class/yago/PhysicalEntity100001930
p118
aVhttp://dbpedia.org/class/yago/YagoPermanentlyLocatedEntity
p119
aVhttp://dbpedia.org/class/yago/LakesOfNewHampshire
p120
aVhttp://dbpedia.org/class/yago/LakesOfYorkCounty,Maine
p121
asVdisambiguatedURL
p122
Vhttp://dbpedia.org/resource/Milton_Pond
p123
sVnamedEntity
p124
Vmilton pond
p125
sVoffset
p126
I11
saa(lp127
a(lp128
a(lp129
(dp130
Vstart
p131
I0
sg5
(lp132
Vhttp://www.w3.org/2002/07/owl#Thing
p133
aVhttp://dbpedia.org/ontology/Place
p134
aVhttp://dbpedia.org/ontology/Location
p135
aVhttp://www.wikidata.org/entity/Q23397
p136
aVhttp://dbpedia.org/ontology/BodyOfWater
p137
aVhttp://dbpedia.org/ontology/Lake
p138
aVhttp://dbpedia.org/ontology/NaturalPlace
p139
aVhttp://schema.org/BodyOfWater
p140
aVhttp://schema.org/LakeBodyOfWater
p141
aVhttp://schema.org/Place
p142
aVhttp://umbel.org/umbel/rc/BodyOfWater
p143
aVhttp://umbel.org/umbel/rc/Lake
p144
aVhttp://dbpedia.org/class/yago/1964SummerOlympicVenues
p145
aVhttp://dbpedia.org/class/yago/Area108497294
p146
aVhttp://dbpedia.org/class/yago/ArtificialLakes
p147
aVhttp://dbpedia.org/class/yago/BodyOfWater109225146
p148
aVhttp://dbpedia.org/class/yago/Lake109328904
p149
aVhttp://dbpedia.org/class/yago/Location100027167
p150
aVhttp://dbpedia.org/class/yago/Object100002684
p151
aVhttp://dbpedia.org/class/yago/Region108630985
p152
aVhttp://dbpedia.org/class/yago/Reservoir104078747
p153
aVhttp://dbpedia.org/class/yago/Thing100002452
p154
aVhttp://dbpedia.org/class/yago/Venue108677628
p155
aVhttp://dbpedia.org/class/yago/YagoGeoEntity
p156
aVhttp://dbpedia.org/class/yago/YagoLegalActorGeo
p157
aVhttp://dbpedia.org/class/yago/PhysicalEntity100001930
p158
aVhttp://dbpedia.org/class/yago/Scene108645963
p159
aVhttp://dbpedia.org/class/yago/YagoPermanentlyLocatedEntity
p160
aVhttp://dbpedia.org/class/yago/LakesOfJapan
p161
asVdisambiguatedURL
p162
Vhttp://dbpedia.org/resource/Lake_Sagami
p163
sVnamedEntity
p164
Vlake sagami
p165
sVoffset
p166
I11
saa(lp167
(dp168
Vstart
p169
I0
sg5
(lp170
Vhttp://www.w3.org/2002/07/owl#Thing
p171
aVhttp://dbpedia.org/ontology/Place
p172
aVhttp://dbpedia.org/ontology/Location
p173
aVhttp://www.wikidata.org/entity/Q23397
p174
aVhttp://dbpedia.org/ontology/BodyOfWater
p175
aVhttp://dbpedia.org/ontology/Lake
p176
aVhttp://dbpedia.org/ontology/NaturalPlace
p177
aVhttp://schema.org/BodyOfWater
p178
aVhttp://schema.org/LakeBodyOfWater
p179
aVhttp://schema.org/Place
p180
aVhttp://umbel.org/umbel/rc/BodyOfWater
p181
aVhttp://umbel.org/umbel/rc/Lake
p182
aVhttp://dbpedia.org/class/yago/BodyOfWater109225146
p183
aVhttp://dbpedia.org/class/yago/Lake109328904
p184
aVhttp://dbpedia.org/class/yago/Thing100002452
p185
aVhttp://dbpedia.org/class/yago/YagoGeoEntity
p186
aVhttp://dbpedia.org/class/yago/PhysicalEntity100001930
p187
aVhttp://dbpedia.org/class/yago/YagoPermanentlyLocatedEntity
p188
aVhttp://dbpedia.org/class/yago/LakesOfTicino
p189
asVdisambiguatedURL
p190
Vhttp://dbpedia.org/resource/Lake_Cristallina
p191
sVnamedEntity
p192
Vlake cristallina
p193
sVoffset
p194
I16
saa(lp195
(dp196
Vstart
p197
I0
sg5
(lp198
Vhttp://www.w3.org/2002/07/owl#Thing
p199
aVhttp://dbpedia.org/ontology/Place
p200
aVhttp://dbpedia.org/ontology/Location
p201
aVhttp://www.wikidata.org/entity/Q23397
p202
aVhttp://dbpedia.org/ontology/BodyOfWater
p203
aVhttp://dbpedia.org/ontology/Lake
p204
aVhttp://dbpedia.org/ontology/NaturalPlace
p205
aVhttp://schema.org/BodyOfWater
p206
aVhttp://schema.org/LakeBodyOfWater
p207
aVhttp://schema.org/Place
p208
aVhttp://umbel.org/umbel/rc/BodyOfWater
p209
aVhttp://umbel.org/umbel/rc/Lake
p210
aVhttp://dbpedia.org/class/yago/BodyOfWater109225146
p211
aVhttp://dbpedia.org/class/yago/Lake109328904
p212
aVhttp://dbpedia.org/class/yago/Thing100002452
p213
aVhttp://dbpedia.org/class/yago/YagoGeoEntity
p214
aVhttp://dbpedia.org/class/yago/PhysicalEntity100001930
p215
aVhttp://dbpedia.org/class/yago/YagoPermanentlyLocatedEntity
p216
aVhttp://dbpedia.org/class/yago/LakesOfNewHampshire
p217
aVhttp://dbpedia.org/class/yago/LakesOfYorkCounty,Maine
p218
asVdisambiguatedURL
p219
Vhttp://dbpedia.org/resource/Northeast_Pond
p220
sVnamedEntity
p221
Vnortheast pond
p222
sVoffset
p223
I14
saa(lp224
(dp225
Vstart
p226
I0
sg5
(lp227
Vhttp://www.w3.org/2002/07/owl#Thing
p228
aVhttp://dbpedia.org/ontology/Place
p229
aVhttp://dbpedia.org/ontology/Location
p230
aVhttp://www.wikidata.org/entity/Q23397
p231
aVhttp://dbpedia.org/ontology/BodyOfWater
p232
aVhttp://dbpedia.org/ontology/Lake
p233
aVhttp://dbpedia.org/ontology/NaturalPlace
p234
aVhttp://schema.org/BodyOfWater
p235
aVhttp://schema.org/LakeBodyOfWater
p236
aVhttp://schema.org/Place
p237
asVdisambiguatedURL
p238
Vhttp://dbpedia.org/resource/Brandy_Pond
p239
sVnamedEntity
p240
Vbrandy pond
p241
sVoffset
p242
I11
saa(lp243
(dp244
Vstart
p245
I0
sg5
(lp246
Vhttp://www.w3.org/2002/07/owl#Thing
p247
aVhttp://dbpedia.org/ontology/Place
p248
aVhttp://dbpedia.org/ontology/Location
p249
aVhttp://www.wikidata.org/entity/Q23397
p250
aVhttp://dbpedia.org/ontology/BodyOfWater
p251
aVhttp://dbpedia.org/ontology/Lake
p252
aVhttp://dbpedia.org/ontology/NaturalPlace
p253
aVhttp://schema.org/BodyOfWater
p254
aVhttp://schema.org/LakeBodyOfWater
p255
aVhttp://schema.org/Place
p256
aVhttp://umbel.org/umbel/rc/BodyOfWater
p257
aVhttp://umbel.org/umbel/rc/Lake
p258
aVhttp://dbpedia.org/class/yago/BodyOfWater109225146
p259
aVhttp://dbpedia.org/class/yago/GeologicalFormation109287968
p260
aVhttp://dbpedia.org/class/yago/Lake109328904
p261
aVhttp://dbpedia.org/class/yago/Object100002684
p262
aVhttp://dbpedia.org/class/yago/Thing100002452
p263
aVhttp://dbpedia.org/class/yago/YagoGeoEntity
p264
aVhttp://dbpedia.org/class/yago/PhysicalEntity100001930
p265
aVhttp://dbpedia.org/class/yago/YagoPermanentlyLocatedEntity
p266
aVhttp://dbpedia.org/class/yago/HotSpring109305898
p267
aVhttp://dbpedia.org/class/yago/HotSpringsOfNewZealand
p268
aVhttp://dbpedia.org/class/yago/LakesOfNewZealand
p269
aVhttp://dbpedia.org/class/yago/Spring109443453
p270
asVdisambiguatedURL
p271
Vhttp://dbpedia.org/resource/Champagne_Pool
p272
sVnamedEntity
p273
Vchampagne pool
p274
sVoffset
p275
I14
saa(lp276
(dp277
Vstart
p278
I0
sg5
(lp279
Vhttp://www.w3.org/2002/07/owl#Thing
p280
aVhttp://dbpedia.org/ontology/Place
p281
aVhttp://dbpedia.org/ontology/Location
p282
aVhttp://www.wikidata.org/entity/Q12323
p283
aVhttp://dbpedia.org/ontology/ArchitecturalStructure
p284
aVhttp://dbpedia.org/ontology/Dam
p285
aVhttp://dbpedia.org/ontology/Infrastructure
p286
aVhttp://www.w3.org/2003/01/geo/wgs84_pos#SpatialThing
p287
aVhttp://schema.org/Place
p288
aVhttp://dbpedia.org/class/yago/BodyOfWater109225146
p289
aVhttp://dbpedia.org/class/yago/Lake109328904
p290
aVhttp://dbpedia.org/class/yago/Thing100002452
p291
aVhttp://dbpedia.org/class/yago/YagoGeoEntity
p292
aVhttp://dbpedia.org/class/yago/PhysicalEntity100001930
p293
aVhttp://dbpedia.org/class/yago/YagoPermanentlyLocatedEntity
p294
asVdisambiguatedURL
p295
Vhttp://dbpedia.org/resource/Prospect_Reservoir
p296
sVnamedEntity
p297
Vprospect reservoir
p298
sVoffset
p299
I18
saa(lp300
a(lp301
(dp302
Vstart
p303
I0
sg5
(lp304
Vhttp://www.w3.org/2002/07/owl#Thing
p305
aVhttp://dbpedia.org/ontology/Place
p306
aVhttp://dbpedia.org/ontology/Location
p307
aVhttp://www.wikidata.org/entity/Q23397
p308
aVhttp://dbpedia.org/ontology/BodyOfWater
p309
aVhttp://dbpedia.org/ontology/Lake
p310
aVhttp://dbpedia.org/ontology/NaturalPlace
p311
aVhttp://schema.org/BodyOfWater
p312
aVhttp://schema.org/LakeBodyOfWater
p313
aVhttp://schema.org/Place
p314
aVhttp://umbel.org/umbel/rc/BodyOfWater
p315
aVhttp://umbel.org/umbel/rc/Lake
p316
aVhttp://dbpedia.org/class/yago/BodyOfWater109225146
p317
aVhttp://dbpedia.org/class/yago/Lake109328904
p318
aVhttp://dbpedia.org/class/yago/Thing100002452
p319
aVhttp://dbpedia.org/class/yago/YagoGeoEntity
p320
aVhttp://dbpedia.org/class/yago/PhysicalEntity100001930
p321
aVhttp://dbpedia.org/class/yago/YagoPermanentlyLocatedEntity
p322
aVhttp://dbpedia.org/class/yago/LakesOfOregon
p323
asVdisambiguatedURL
p324
Vhttp://dbpedia.org/resource/Devils_Lake_(Lincoln_County,_Oregon)
p325
sVnamedEntity
p326
Vdevils lake
p327
sVoffset
p328
I11
saa(lp329
a(lp330
(dp331
Vstart
p332
I0
sg5
(lp333
Vhttp://www.w3.org/2002/07/owl#Thing
p334
aVhttp://dbpedia.org/ontology/Place
p335
aVhttp://dbpedia.org/ontology/Location
p336
aVhttp://www.wikidata.org/entity/Q23397
p337
aVhttp://dbpedia.org/ontology/BodyOfWater
p338
aVhttp://dbpedia.org/ontology/Lake
p339
aVhttp://dbpedia.org/ontology/NaturalPlace
p340
aVhttp://schema.org/BodyOfWater
p341
aVhttp://schema.org/LakeBodyOfWater
p342
aVhttp://schema.org/Place
p343
aVhttp://umbel.org/umbel/rc/BodyOfWater
p344
aVhttp://umbel.org/umbel/rc/Lake
p345
aVhttp://dbpedia.org/class/yago/BodyOfWater109225146
p346
aVhttp://dbpedia.org/class/yago/Lake109328904
p347
aVhttp://dbpedia.org/class/yago/Thing100002452
p348
aVhttp://dbpedia.org/class/yago/YagoGeoEntity
p349
aVhttp://dbpedia.org/class/yago/PhysicalEntity100001930
p350
aVhttp://dbpedia.org/class/yago/YagoPermanentlyLocatedEntity
p351
aVhttp://dbpedia.org/class/yago/LakesOfCumbria
p352
asVdisambiguatedURL
p353
Vhttp://dbpedia.org/resource/Derwentwater
p354
sVnamedEntity
p355
Vderwent water
p356
sVoffset
p357
I13
saa(lp358
a.