ccollections
defaultdict
p1
(c__builtin__
dict
p2
tRp3
I0
(dp4
I0
(lp5
Vhttp://www.w3.org/1999/02/22-rdf-syntax-ns#type
p6
aVhttp://purl.org/dc/terms/subject
p7
aVhttp://www.w3.org/2000/01/rdf-schema#comment
p8
aVhttp://dbpedia.org/ontology/league
p9
aVhttp://dbpedia.org/ontology/abstract
p10
aVhttp://dbpedia.org/ontology/wikiPageRedirects
p11
aVhttp://dbpedia.org/property/competition
p12
aVhttp://purl.org/voc/vrank#hasRank
p13
aVhttp://dbpedia.org/property/caption
p14
aVhttp://dbpedia.org/property/league
p15
aVhttp://dbpedia.org/ontology/currentSeason
p16
aVhttp://www.w3.org/2002/07/owl#sameAs
p17
aVhttp://dbpedia.org/property/team
p18
asI1
(lp19
ssI2
(dp20
I0
(lp21
Vhttp://www.w3.org/1999/02/22-rdf-syntax-ns#type
p22
aVhttp://www.w3.org/2000/01/rdf-schema#comment
p23
aVhttp://dbpedia.org/ontology/league
p24
aVhttp://dbpedia.org/ontology/abstract
p25
aVhttp://xmlns.com/foaf/0.1/depiction
p26
aVhttp://dbpedia.org/property/promotion
p27
aVhttp://dbpedia.org/property/competition
p28
aVhttp://dbpedia.org/property/successor
p29
aVhttp://purl.org/voc/vrank#hasRank
p30
aVhttp://dbpedia.org/ontology/thumbnail
p31
aVhttp://dbpedia.org/ontology/team
p32
aVhttp://www.w3.org/ns/prov#wasDerivedFrom
p33
aVhttp://dbpedia.org/property/caption
p34
aVhttp://dbpedia.org/property/league
p35
aVhttp://dbpedia.org/ontology/currentSeason
p36
aVhttp://dbpedia.org/property/round
p37
asI1
(lp38
ssI3
(dp39
I0
(lp40
Vhttp://www.w3.org/1999/02/22-rdf-syntax-ns#type
p41
aVhttp://www.w3.org/2002/07/owl#sameAs
p42
asI1
(lp43
ss.