(lp1
(lp2
(dp3
Vstart
p4
I0
sVdisambiguatedURL
p5
NsVnamedEntity
p6
V?:
p7
sVoffset
p8
I2
saa(lp9
(dp10
Vstart
p11
I0
sVdisambiguatedURL
p12
NsVnamedEntity
p13
V/:
p14
sVoffset
p15
I2
saa(lp16
(dp17
Vstart
p18
I0
sVdisambiguatedURL
p19
NsVnamedEntity
p20
Valt+h:
p21
sVoffset
p22
I6
saa(lp23
(dp24
Vstart
p25
I0
sVdisambiguatedURL
p26
NsVnamedEntity
p27
Valt+a:
p28
sVoffset
p29
I6
saa(lp30
(dp31
Vstart
p32
I0
sVdisambiguatedURL
p33
NsVnamedEntity
p34
Valt+t:
p35
sVoffset
p36
I6
saa(lp37
(dp38
Vstart
p39
I0
sVdisambiguatedURL
p40
NsVnamedEntity
p41
Valt+s:
p42
sVoffset
p43
I6
saa(lp44
(dp45
Vstart
p46
I0
sVdisambiguatedURL
p47
NsVnamedEntity
p48
Valt+p:
p49
sVoffset
p50
I6
saa(lp51
(dp52
Vstart
p53
I0
sVdisambiguatedURL
p54
NsVnamedEntity
p55
Vj:
p56
sVoffset
p57
I2
saa(lp58
(dp59
Vstart
p60
I0
sVdisambiguatedURL
p61
NsVnamedEntity
p62
Vk:
p63
sVoffset
p64
I2
saa(lp65
(dp66
Vstart
p67
I0
sVdisambiguatedURL
p68
NsVnamedEntity
p69
Vh:
p70
sVoffset
p71
I2
saa(lp72
(dp73
Vstart
p74
I0
sVdisambiguatedURL
p75
NsVnamedEntity
p76
Vl:
p77
sVoffset
p78
I2
saa(lp79
(dp80
Vstart
p81
I0
sVdisambiguatedURL
p82
NsVnamedEntity
p83
Venter:
p84
sVoffset
p85
I6
saa(lp86
(dp87
Vstart
p88
I0
sVdisambiguatedURL
p89
NsVnamedEntity
p90
Vesc:
p91
sVoffset
p92
I4
saa(lp93
(dp94
Vstart
p95
I0
sVdisambiguatedURL
p96
NsVnamedEntity
p97
Vtab:
p98
sVoffset
p99
I4
saa(lp100
(dp101
Vstart
p102
I0
sVdisambiguatedURL
p103
NsVnamedEntity
p104
Vshift+tab:
p105
sVoffset
p106
I10
saa.