(lp1
(lp2
(lp3
((lVhttp://dbpedia.org/resource/2011_end_times_prediction
tp4
aa(lp5
((lp6
Vhttp://www.w3.org/2002/07/owl#Thing
p7
aVhttp://www.wikidata.org/entity/Q245068
p8
aVhttp://www.wikidata.org/entity/Q386724
p9
aVhttp://www.wikidata.org/entity/Q8274
p10
aVhttp://dbpedia.org/ontology/Comic
p11
aVhttp://dbpedia.org/ontology/Manga
p12
aVhttp://dbpedia.org/ontology/Work
p13
aVhttp://dbpedia.org/ontology/WrittenWork
p14
aVhttp://schema.org/CreativeWork
p15
aVhttp://dbpedia.org/class/yago/2010JapaneseTelevisionSeriesDebuts
p16
aVhttp://dbpedia.org/class/yago/2010JapaneseTelevisionSeriesEndings
p17
aVhttp://dbpedia.org/class/yago/Abstraction100002137
p18
aVhttp://dbpedia.org/class/yago/Act100030358
p19
aVhttp://dbpedia.org/class/yago/Action100037396
p20
aVhttp://dbpedia.org/class/yago/Activity100407535
p21
aVhttp://dbpedia.org/class/yago/Beginning100235435
p22
aVhttp://dbpedia.org/class/yago/Change100191142
p23
aVhttp://dbpedia.org/class/yago/ChangeOfState100199130
p24
aVhttp://dbpedia.org/class/yago/Diversion100426928
p25
aVhttp://dbpedia.org/class/yago/Ending106308765
p26
aVhttp://dbpedia.org/class/yago/Entertainment100429048
p27
aVhttp://dbpedia.org/class/yago/Event100029378
p28
aVhttp://dbpedia.org/class/yago/Introduction100238022
p29
aVhttp://dbpedia.org/class/yago/Morpheme106306233
p30
aVhttp://dbpedia.org/class/yago/Part113809207
p31
aVhttp://dbpedia.org/class/yago/Relation100031921
p32
aVhttp://dbpedia.org/class/yago/Show100520257
p33
aVhttp://dbpedia.org/class/yago/LanguageUnit106284225
p34
aVhttp://dbpedia.org/class/yago/PsychologicalFeature100023100
p35
aVhttp://dbpedia.org/class/yago/YagoPermanentlyLocatedEntity
p36
aVhttp://dbpedia.org/class/yago/TVTokyoShows
p37
aVhttp://dbpedia.org/resource/Hanamaru_Kindergarten
tp38
aa(lp39
a(lp40
a(lp41
aa(lp42
(lp43
((lVhttp://dbpedia.org/resource/2011_end_times_prediction
tp44
aa(lp45
a(lp46
a(lp47
a(lp48
aa(lp49
(lp50
((lVhttp://dbpedia.org/resource/2011_end_times_prediction
tp51
aa(lp52
((lp53
Vhttp://www.w3.org/2002/07/owl#Thing
p54
aVhttp://www.wikidata.org/entity/Q245068
p55
aVhttp://www.wikidata.org/entity/Q386724
p56
aVhttp://www.wikidata.org/entity/Q8274
p57
aVhttp://dbpedia.org/ontology/Comic
p58
aVhttp://dbpedia.org/ontology/Manga
p59
aVhttp://dbpedia.org/ontology/Work
p60
aVhttp://dbpedia.org/ontology/WrittenWork
p61
aVhttp://schema.org/CreativeWork
p62
aVhttp://dbpedia.org/class/yago/2006JapaneseTelevisionSeriesDebuts
p63
aVhttp://dbpedia.org/class/yago/2010JapaneseTelevisionSeriesDebuts
p64
aVhttp://dbpedia.org/class/yago/2010JapaneseTelevisionSeriesEndings
p65
aVhttp://dbpedia.org/class/yago/2011JapaneseTelevisionSeriesDebuts
p66
aVhttp://dbpedia.org/class/yago/2011JapaneseTelevisionSeriesEndings
p67
aVhttp://dbpedia.org/class/yago/Abstraction100002137
p68
aVhttp://dbpedia.org/class/yago/Act100030358
p69
aVhttp://dbpedia.org/class/yago/Action100037396
p70
aVhttp://dbpedia.org/class/yago/Activity100407535
p71
aVhttp://dbpedia.org/class/yago/Beginning100235435
p72
aVhttp://dbpedia.org/class/yago/Change100191142
p73
aVhttp://dbpedia.org/class/yago/ChangeOfState100199130
p74
aVhttp://dbpedia.org/class/yago/Communication100033020
p75
aVhttp://dbpedia.org/class/yago/Diversion100426928
p76
aVhttp://dbpedia.org/class/yago/Ending106308765
p77
aVhttp://dbpedia.org/class/yago/Entertainment100429048
p78
aVhttp://dbpedia.org/class/yago/Event100029378
p79
aVhttp://dbpedia.org/class/yago/Introduction100238022
p80
aVhttp://dbpedia.org/class/yago/LiteraryComposition106364329
p81
aVhttp://dbpedia.org/class/yago/Morpheme106306233
p82
aVhttp://dbpedia.org/class/yago/Novel106367879
p83
aVhttp://dbpedia.org/class/yago/Part113809207
p84
aVhttp://dbpedia.org/class/yago/Relation100031921
p85
aVhttp://dbpedia.org/class/yago/Show100520257
p86
aVhttp://dbpedia.org/class/yago/Writing106362953
p87
aVhttp://dbpedia.org/class/yago/Fiction106367107
p88
aVhttp://dbpedia.org/class/yago/LanguageUnit106284225
p89
aVhttp://dbpedia.org/class/yago/PsychologicalFeature100023100
p90
aVhttp://dbpedia.org/class/yago/WrittenCommunication106349220
p91
aVhttp://dbpedia.org/class/yago/YagoPermanentlyLocatedEntity
p92
aVhttp://dbpedia.org/class/yago/LightNovels
p93
aVhttp://dbpedia.org/class/yago/TVTokyoShows
p94
aVhttp://dbpedia.org/resource/Gin_Tama
tp95
aa(lp96
a(lp97
a(lp98
aa(lp99
(lp100
((lVhttp://dbpedia.org/resource/2011_end_times_prediction
tp101
aa(lp102
a(lp103
a(lp104
a(lp105
((lp106
Vhttp://www.w3.org/2002/07/owl#Thing
p107
aVhttp://xmlns.com/foaf/0.1/Person
p108
aVhttp://dbpedia.org/ontology/Person
p109
aVhttp://www.ontologydesignpatterns.org/ont/dul/DUL.owl#Agent
p110
aVhttp://www.ontologydesignpatterns.org/ont/dul/DUL.owl#NaturalPerson
p111
aVhttp://www.wikidata.org/entity/Q215627
p112
aVhttp://www.wikidata.org/entity/Q5
p113
aVhttp://dbpedia.org/ontology/Agent
p114
aVhttp://dbpedia.org/ontology/OfficeHolder
p115
aVhttp://schema.org/Person
p116
aVhttp://umbel.org/umbel/rc/Politician
p117
aVhttp://umbel.org/umbel/rc/PrimeMinister_HeadOfGovernment
p118
aVhttp://dbpedia.org/class/yago/Alumnus109786338
p119
aVhttp://dbpedia.org/class/yago/CausalAgent100007347
p120
aVhttp://dbpedia.org/class/yago/Holder110180178
p121
aVhttp://dbpedia.org/class/yago/Intellectual109621545
p122
aVhttp://dbpedia.org/class/yago/Leader109623038
p123
aVhttp://dbpedia.org/class/yago/LivingThing100004258
p124
aVhttp://dbpedia.org/class/yago/Object100002684
p125
aVhttp://dbpedia.org/class/yago/Official110372373
p126
aVhttp://dbpedia.org/class/yago/Organism100004475
p127
aVhttp://dbpedia.org/class/yago/Person100007846
p128
aVhttp://dbpedia.org/class/yago/Scholar110557854
p129
aVhttp://dbpedia.org/class/yago/SkilledWorker110605985
p130
aVhttp://dbpedia.org/class/yago/Whole100003553
p131
aVhttp://dbpedia.org/class/yago/Worker109632518
p132
aVhttp://dbpedia.org/class/yago/YagoLegalActorGeo
p133
aVhttp://dbpedia.org/class/yago/PhysicalEntity100001930
p134
aVhttp://dbpedia.org/class/yago/LeadersOfTheAustralianHouseOfRepresentatives
p135
aVhttp://dbpedia.org/class/yago/LivingPeople
p136
aVhttp://dbpedia.org/class/yago/Officeholder110371450
p137
aVhttp://dbpedia.org/class/yago/Owner110389398
p138
aVhttp://dbpedia.org/class/yago/MonashUniversityAlumni
p139
aVhttp://dbpedia.org/class/yago/PeopleEducatedAtBrightonGrammarSchool
p140
aVhttp://dbpedia.org/class/yago/YagoLegalActor
p141
aVhttp://dbpedia.org/resource/Peter_Reith
tp142
aaa(lp143
(lp144
((lVhttp://dbpedia.org/resource/2011_end_times_prediction
tp145
aa(lp146
a(lp147
a(lp148
a(lp149
((lp150
Vhttp://www.w3.org/2002/07/owl#Thing
p151
aVhttp://xmlns.com/foaf/0.1/Person
p152
aVhttp://dbpedia.org/ontology/Person
p153
aVhttp://www.ontologydesignpatterns.org/ont/dul/DUL.owl#Agent
p154
aVhttp://www.ontologydesignpatterns.org/ont/dul/DUL.owl#NaturalPerson
p155
aVhttp://www.wikidata.org/entity/Q215627
p156
aVhttp://www.wikidata.org/entity/Q5
p157
aVhttp://dbpedia.org/ontology/Agent
p158
aVhttp://dbpedia.org/ontology/OfficeHolder
p159
aVhttp://schema.org/Person
p160
aVhttp://umbel.org/umbel/rc/Politician
p161
aVhttp://umbel.org/umbel/rc/PrimeMinister_HeadOfGovernment
p162
aVhttp://dbpedia.org/class/yago/Alumnus109786338
p163
aVhttp://dbpedia.org/class/yago/CausalAgent100007347
p164
aVhttp://dbpedia.org/class/yago/Holder110180178
p165
aVhttp://dbpedia.org/class/yago/Intellectual109621545
p166
aVhttp://dbpedia.org/class/yago/Leader109623038
p167
aVhttp://dbpedia.org/class/yago/LivingThing100004258
p168
aVhttp://dbpedia.org/class/yago/Object100002684
p169
aVhttp://dbpedia.org/class/yago/Official110372373
p170
aVhttp://dbpedia.org/class/yago/Organism100004475
p171
aVhttp://dbpedia.org/class/yago/Person100007846
p172
aVhttp://dbpedia.org/class/yago/Scholar110557854
p173
aVhttp://dbpedia.org/class/yago/SkilledWorker110605985
p174
aVhttp://dbpedia.org/class/yago/Whole100003553
p175
aVhttp://dbpedia.org/class/yago/Worker109632518
p176
aVhttp://dbpedia.org/class/yago/YagoLegalActorGeo
p177
aVhttp://dbpedia.org/class/yago/PhysicalEntity100001930
p178
aVhttp://dbpedia.org/class/yago/LeadersOfTheAustralianHouseOfRepresentatives
p179
aVhttp://dbpedia.org/class/yago/LivingPeople
p180
aVhttp://dbpedia.org/class/yago/Officeholder110371450
p181
aVhttp://dbpedia.org/class/yago/Owner110389398
p182
aVhttp://dbpedia.org/class/yago/MonashUniversityAlumni
p183
aVhttp://dbpedia.org/class/yago/PeopleEducatedAtBrightonGrammarSchool
p184
aVhttp://dbpedia.org/class/yago/YagoLegalActor
p185
aVhttp://dbpedia.org/resource/Peter_Reith
tp186
aaa(lp187
(lp188
((lVhttp://dbpedia.org/resource/2011_end_times_prediction
tp189
aa(lp190
a(lp191
a(lp192
a(lp193
((lp194
Vhttp://www.w3.org/2002/07/owl#Thing
p195
aVhttp://xmlns.com/foaf/0.1/Person
p196
aVhttp://dbpedia.org/ontology/Person
p197
aVhttp://www.ontologydesignpatterns.org/ont/dul/DUL.owl#Agent
p198
aVhttp://www.ontologydesignpatterns.org/ont/dul/DUL.owl#NaturalPerson
p199
aVhttp://www.wikidata.org/entity/Q215627
p200
aVhttp://www.wikidata.org/entity/Q5
p201
aVhttp://dbpedia.org/ontology/Agent
p202
aVhttp://dbpedia.org/ontology/OfficeHolder
p203
aVhttp://schema.org/Person
p204
aVhttp://umbel.org/umbel/rc/Politician
p205
aVhttp://umbel.org/umbel/rc/PrimeMinister_HeadOfGovernment
p206
aVhttp://dbpedia.org/class/yago/Alumnus109786338
p207
aVhttp://dbpedia.org/class/yago/CausalAgent100007347
p208
aVhttp://dbpedia.org/class/yago/Holder110180178
p209
aVhttp://dbpedia.org/class/yago/Intellectual109621545
p210
aVhttp://dbpedia.org/class/yago/Leader109623038
p211
aVhttp://dbpedia.org/class/yago/LivingThing100004258
p212
aVhttp://dbpedia.org/class/yago/Object100002684
p213
aVhttp://dbpedia.org/class/yago/Official110372373
p214
aVhttp://dbpedia.org/class/yago/Organism100004475
p215
aVhttp://dbpedia.org/class/yago/Person100007846
p216
aVhttp://dbpedia.org/class/yago/Scholar110557854
p217
aVhttp://dbpedia.org/class/yago/SkilledWorker110605985
p218
aVhttp://dbpedia.org/class/yago/Whole100003553
p219
aVhttp://dbpedia.org/class/yago/Worker109632518
p220
aVhttp://dbpedia.org/class/yago/YagoLegalActorGeo
p221
aVhttp://dbpedia.org/class/yago/PhysicalEntity100001930
p222
aVhttp://dbpedia.org/class/yago/LeadersOfTheAustralianHouseOfRepresentatives
p223
aVhttp://dbpedia.org/class/yago/LivingPeople
p224
aVhttp://dbpedia.org/class/yago/Officeholder110371450
p225
aVhttp://dbpedia.org/class/yago/Owner110389398
p226
aVhttp://dbpedia.org/class/yago/MonashUniversityAlumni
p227
aVhttp://dbpedia.org/class/yago/PeopleEducatedAtBrightonGrammarSchool
p228
aVhttp://dbpedia.org/class/yago/YagoLegalActor
p229
aVhttp://dbpedia.org/resource/Peter_Reith
tp230
aaa(lp231
(lp232
((lVhttp://dbpedia.org/resource/2011_end_times_prediction
tp233
aa(lp234
((lp235
Vhttp://www.w3.org/2002/07/owl#Thing
p236
aVhttp://www.wikidata.org/entity/Q245068
p237
aVhttp://www.wikidata.org/entity/Q386724
p238
aVhttp://www.wikidata.org/entity/Q8274
p239
aVhttp://dbpedia.org/ontology/Comic
p240
aVhttp://dbpedia.org/ontology/Manga
p241
aVhttp://dbpedia.org/ontology/Work
p242
aVhttp://dbpedia.org/ontology/WrittenWork
p243
aVhttp://schema.org/CreativeWork
p244
aVhttp://dbpedia.org/resource/A_Town_Where_You_Live
tp245
aa(lp246
a(lp247
a(lp248
aa(lp249
(lp250
((lVhttp://dbpedia.org/resource/2011_end_times_prediction
tp251
aa(lp252
((lVhttp://dbpedia.org/resource/List_of_series_run_in_Weekly_Sh\u014dnen_Jump
tp253
aa(lp254
a(lp255
a(lp256
aa(lp257
(lp258
((lVhttp://dbpedia.org/resource/2011_end_times_prediction
tp259
aa(lp260
a(lp261
a(lp262
a(lp263
aa(lp264
(lp265
((lVhttp://dbpedia.org/resource/2011_end_times_prediction
p266
tp267
aa(lp268
a(lp269
a(lp270
a(lp271
aa.