ccollections
defaultdict
p1
(c__builtin__
dict
p2
tRp3
I1
(dp4
I1
(lp5
sI2
(lp6
sI3
(lp7
ssI2
(dp8
I1
(lp9
sI2
(lp10
sI3
(lp11
ssI3
(dp12
I1
(lp13
sI2
(lp14
Vhttp://dbpedia.org/ontology/status
p15
aVhttp://dbpedia.org/property/status
p16
aVhttp://www.w3.org/1999/02/22-rdf-syntax-ns#type
p17
aVhttp://purl.org/dc/terms/subject
p18
asI3
(lp19
ssI7
(dp20
I1
(lp21
sI2
(lp22
sI3
(lp23
ssI9
(dp24
I1
(lp25
sI2
(lp26
sI3
(lp27
ssI11
(dp28
I1
(lp29
sI2
(lp30
Vhttp://dbpedia.org/property/industry
p31
aVhttp://www.w3.org/2000/01/rdf-schema#comment
p32
aVhttp://dbpedia.org/ontology/abstract
p33
aVhttp://dbpedia.org/ontology/service
p34
aVhttp://dbpedia.org/property/products
p35
aVhttp://dbpedia.org/property/services
p36
aVhttp://dbpedia.org/ontology/industry
p37
aVhttp://dbpedia.org/ontology/product
p38
asI3
(lp39
ss.