(lp1
(lp2
(lp3
a(lp4
aa(lp5
(lp6
a(lp7
aa(lp8
(lp9
a(lp10
aa(lp11
(lp12
a(lp13
aa(lp14
(lp15
a(lp16
aa(lp17
(lp18
a(lp19
aa(lp20
(lp21
a(lp22
aa(lp23
(lp24
((lVhttp://dbpedia.org/resource/Pharmacogenomics
tp25
aa(lp26
aa(lp27
(lp28
a(lp29
aa(lp30
(lp31
a(lp32
aa(lp33
(lp34
a(lp35
aa(lp36
(lp37
a(lp38
aa(lp39
(lp40
a(lp41
aa(lp42
(lp43
a(lp44
aa(lp45
(lp46
a(lp47
aa(lp48
(lp49
a(lp50
aa(lp51
(lp52
a(lp53
aa(lp54
(lp55
((lp56
Vhttp://dbpedia.org/class/yago/Abstraction100002137
p57
aVhttp://dbpedia.org/class/yago/Group100031264
p58
aVhttp://dbpedia.org/class/yago/Organization108008335
p59
aVhttp://dbpedia.org/class/yago/SocialGroup107950920
p60
aVhttp://dbpedia.org/class/yago/YagoLegalActorGeo
p61
aVhttp://dbpedia.org/class/yago/YagoPermanentlyLocatedEntity
p62
aVhttp://dbpedia.org/class/yago/OrganizationsBasedInWashington,D.C.
p63
aVhttp://dbpedia.org/class/yago/YagoLegalActor
p64
aVhttp://dbpedia.org/resource/Biological_Society_of_Washington
p65
tp66
aa(lp67
aa(lp68
(lp69
a(lp70
aa.