ccollections
defaultdict
p1
(c__builtin__
dict
p2
tRp3
I8
(dp4
I0
(lp5
sI1
(lp6
Vhttp://www.w3.org/ns/prov#wasDerivedFrom
p7
asI3
(lp8
Vhttp://dbpedia.org/ontology/wikiPageExternalLink
p9
aVhttp://xmlns.com/foaf/0.1/homepage
p10
aVhttp://dbpedia.org/property/homepage
p11
assI9
(dp12
I0
(lp13
sI1
(lp14
Vhttp://www.w3.org/ns/prov#wasDerivedFrom
p15
asI3
(lp16
ssI14
(dp17
I0
(lp18
sI1
(lp19
Vhttp://www.w3.org/ns/prov#wasDerivedFrom
p20
asI3
(lp21
Vhttp://dbpedia.org/ontology/wikiPageExternalLink
p22
aVhttp://xmlns.com/foaf/0.1/homepage
p23
assI6
(dp24
I0
(lp25
sI1
(lp26
Vhttp://www.w3.org/ns/prov#wasDerivedFrom
p27
asI3
(lp28
Vhttp://dbpedia.org/ontology/wikiPageExternalLink
p29
aVhttp://dbpedia.org/property/website
p30
aVhttp://xmlns.com/foaf/0.1/homepage
p31
assI7
(dp32
I0
(lp33
sI1
(lp34
sI3
(lp35
ss.