(lp1
(lp2
(lp3
a(lp4
a(lp5
a(lp6
aa(lp7
(lp8
a(lp9
a(lp10
a(lp11
aa(lp12
(lp13
a(lp14
a(lp15
a(lp16
aa(lp17
(lp18
a(lp19
a(lp20
a(lp21
aa(lp22
(lp23
a(lp24
a(lp25
a(lp26
aa(lp27
(lp28
a(lp29
a(lp30
a(lp31
aa(lp32
(lp33
a(lp34
a(lp35
Vhttp://dbpedia.org/resource/Canada_at_Mister_International
p36
aa(lp37
aa(lp38
(lp39
a(lp40
a(lp41
Vhttp://dbpedia.org/resource/Canada_men's_national_basketball_team
p42
aa(lp43
aa(lp44
(lp45
a(lp46
a(lp47
Vhttp://dbpedia.org/resource/Canadian_American_Business_Council
p48
aa(lp49
aa(lp50
(lp51
a(lp52
a(lp53
Vhttp://dbpedia.org/resource/Canadian_Centre_for_Gender_and_Sexual_Diversity
p54
aa(lp55
aa(lp56
(lp57
a(lp58
a(lp59
a(lp60
aa(lp61
(lp62
a(lp63
a(lp64
a(lp65
aa(lp66
(lp67
a(lp68
a(lp69
a(lp70
aa(lp71
(lp72
a(lp73
a(lp74
a(lp75
aa(lp76
(lp77
a(lp78
a(lp79
Vhttp://dbpedia.org/resource/Capital_Impact_Partners
p80
aa(lp81
aa(lp82
(lp83
a(lp84
a(lp85
a(lp86
aa(lp87
(lp88
a(lp89
a(lp90
a(lp91
aa(lp92
(lp93
a(lp94
a(lp95
a(lp96
aa(lp97
(lp98
a(lp99
a(lp100
a(lp101
aa.