(lp1
(lp2
(lp3
a(lp4
aa(lp5
(lp6
Vhttp://dbpedia.org/resource/Dan_Corson
p7
aa(lp8
aa(lp9
(lp10
a(lp11
aa(lp12
(lp13
a(lp14
aa(lp15
(lp16
a(lp17
aa(lp18
(lp19
a(lp20
aa(lp21
(lp22
a(lp23
aa(lp24
(lp25
Vhttp://dbpedia.org/resource/Daniel_Parker_(Baptist)
p26
aa(lp27
aa(lp28
(lp29
Vhttp://dbpedia.org/resource/Daniel_Skye
p30
aa(lp31
aa(lp32
(lp33
a(lp34
aa(lp35
(lp36
a(lp37
aa(lp38
(lp39
a(lp40
aa(lp41
(lp42
a(lp43
aa(lp44
(lp45
Vhttp://dbpedia.org/resource/Danny_Jelaca
p46
aa(lp47
aa(lp48
(lp49
Vhttp://dbpedia.org/resource/Darcy_Michael
p50
aa(lp51
aa(lp52
(lp53
a(lp54
aa(lp55
(lp56
a(lp57
aa.