(lp1
(lp2
(lp3
a(lp4
a(lp5
a(lp6
aa(lp7
(lp8
a(lp9
a(lp10
a(lp11
aa(lp12
(lp13
a(lp14
a(lp15
a(lp16
aa(lp17
(lp18
a(lp19
a(lp20
a(lp21
aa(lp22
(lp23
a(lp24
a(lp25
a(lp26
aa(lp27
(lp28
a(lp29
a(lp30
a(lp31
((lp32
Vhttp://dbpedia.org/class/yago/Abstraction100002137
p33
aVhttp://dbpedia.org/class/yago/Company108058098
p34
aVhttp://dbpedia.org/class/yago/Group100031264
p35
aVhttp://dbpedia.org/class/yago/Institution108053576
p36
aVhttp://dbpedia.org/class/yago/Organization108008335
p37
aVhttp://dbpedia.org/class/yago/SocialGroup107950920
p38
aVhttp://dbpedia.org/class/yago/YagoLegalActorGeo
p39
aVhttp://dbpedia.org/class/yago/CompaniesBasedInSanFrancisco,California
p40
aVhttp://dbpedia.org/class/yago/YagoPermanentlyLocatedEntity
p41
aVhttp://dbpedia.org/class/yago/YagoLegalActor
p42
aVhttp://dbpedia.org/resource/Franz-porcelains
tp43
aaa(lp44
(lp45
a(lp46
a(lp47
a(lp48
aa(lp49
(lp50
a(lp51
a(lp52
a(lp53
aa(lp54
(lp55
a(lp56
a(lp57
a(lp58
aa(lp59
(lp60
a(lp61
a(lp62
a(lp63
aa(lp64
(lp65
a(lp66
a(lp67
a(lp68
aa(lp69
(lp70
a(lp71
a(lp72
a(lp73
aa(lp74
(lp75
a(lp76
a(lp77
a(lp78
((lp79
Vhttp://www.w3.org/2002/07/owl#Thing
p80
aVhttp://www.ontologydesignpatterns.org/ont/dul/DUL.owl#Agent
p81
aVhttp://www.ontologydesignpatterns.org/ont/dul/DUL.owl#SocialPerson
p82
aVhttp://www.wikidata.org/entity/Q43229
p83
aVhttp://dbpedia.org/ontology/Agent
p84
aVhttp://dbpedia.org/ontology/Organisation
p85
aVhttp://schema.org/Organization
p86
aVhttp://dbpedia.org/resource/French_Federation_of_Ice_Sports
tp87
aaa(lp88
(lp89
a(lp90
a(lp91
a(lp92
aa(lp93
(lp94
a(lp95
a(lp96
a(lp97
aa(lp98
(lp99
a(lp100
a(lp101
a(lp102
aa(lp103
(lp104
a(lp105
a(lp106
a(lp107
((lp108
Vhttp://dbpedia.org/class/yago/Abstraction100002137
p109
aVhttp://dbpedia.org/class/yago/CancerOrganizations
p110
aVhttp://dbpedia.org/class/yago/Charity108406619
p111
aVhttp://dbpedia.org/class/yago/FinancialInstitution108054721
p112
aVhttp://dbpedia.org/class/yago/Group100031264
p113
aVhttp://dbpedia.org/class/yago/Institution108053576
p114
aVhttp://dbpedia.org/class/yago/Organization108008335
p115
aVhttp://dbpedia.org/class/yago/SocialGroup107950920
p116
aVhttp://dbpedia.org/class/yago/YagoLegalActorGeo
p117
aVhttp://www.w3.org/2002/07/owl#Thing
p118
aVhttp://www.ontologydesignpatterns.org/ont/dul/DUL.owl#Agent
p119
aVhttp://www.ontologydesignpatterns.org/ont/dul/DUL.owl#SocialPerson
p120
aVhttp://www.wikidata.org/entity/Q43229
p121
aVhttp://dbpedia.org/ontology/Agent
p122
aVhttp://dbpedia.org/ontology/Organisation
p123
aVhttp://schema.org/Organization
p124
aVhttp://dbpedia.org/class/yago/CharitiesBasedInTheUnitedStates
p125
aVhttp://dbpedia.org/class/yago/Foundation108406486
p126
aVhttp://dbpedia.org/class/yago/YagoPermanentlyLocatedEntity
p127
aVhttp://dbpedia.org/class/yago/YagoLegalActor
p128
aVhttp://dbpedia.org/class/yago/HealthCharities
p129
aVhttp://dbpedia.org/resource/Friends_of_Cancer_Research
p130
tp131
aaa(lp132
(lp133
a(lp134
a(lp135
a(lp136
aa(lp137
(lp138
a(lp139
a(lp140
a(lp141
aa.