(lp1
(lp2
(lp3
a(lp4
aa(lp5
(lp6
a(lp7
aa(lp8
(lp9
Vhttp://dbpedia.org/resource/Aneesh_Upasana
p10
aa(lp11
aa(lp12
(lp13
a(lp14
aa(lp15
(lp16
a(lp17
aa(lp18
(lp19
Vhttp://dbpedia.org/resource/Angella_Nazarian
p20
aa(lp21
aa(lp22
(lp23
a(lp24
aa(lp25
(lp26
a(lp27
aa(lp28
(lp29
Vhttp://dbpedia.org/resource/Anita_Finlay
p30
aa(lp31
aa(lp32
(lp33
Vhttp://dbpedia.org/resource/Anita_Fuentes
p34
aa(lp35
aa(lp36
(lp37
Vhttp://dbpedia.org/resource/Ankur_Warikoo
p38
aa(lp39
aa(lp40
(lp41
a(lp42
aa(lp43
(lp44
a(lp45
aa(lp46
(lp47
Vhttp://dbpedia.org/resource/Anna_Kontula
p48
aa(lp49
aa(lp50
(lp51
a(lp52
aa(lp53
(lp54
a(lp55
aa(lp56
(lp57
a(lp58
aa(lp59
(lp60
a(lp61
aa(lp62
(lp63
Vhttp://dbpedia.org/resource/Anne_Ishii
p64
aa(lp65
aa.