(lp1
(lp2
(lp3
a(lp4
a(lp5
a(lp6
a(lp7
a(lp8
((lp9
Vhttp://dbpedia.org/class/yago/Artifact100021939
p10
aVhttp://dbpedia.org/class/yago/Building102913152
p11
aVhttp://dbpedia.org/class/yago/Object100002684
p12
aVhttp://dbpedia.org/class/yago/PlaceOfWorship103953416
p13
aVhttp://dbpedia.org/class/yago/Structure104341686
p14
aVhttp://dbpedia.org/class/yago/Synagogue104374735
p15
aVhttp://dbpedia.org/class/yago/Whole100003553
p16
aVhttp://dbpedia.org/class/yago/YagoGeoEntity
p17
aVhttp://dbpedia.org/class/yago/SynagoguesInTheUnitedStates
p18
aVhttp://dbpedia.org/class/yago/YagoPermanentlyLocatedEntity
p19
aVhttp://dbpedia.org/class/yago/PhysicalEntity100001930
p20
aVhttp://dbpedia.org/resource/Congregation_Tifereth_Israel
tp21
aa(lp22
((lp23
Vhttp://dbpedia.org/class/yago/District108552138
p24
aVhttp://dbpedia.org/class/yago/Location100027167
p25
aVhttp://dbpedia.org/class/yago/Object100002684
p26
aVhttp://dbpedia.org/class/yago/Region108630985
p27
aVhttp://dbpedia.org/class/yago/YagoGeoEntity
p28
aVhttp://dbpedia.org/class/yago/YagoLegalActorGeo
p29
aVhttp://umbel.org/umbel/rc/Place
p30
aVhttp://dbpedia.org/class/yago/YagoPermanentlyLocatedEntity
p31
aVhttp://dbpedia.org/class/yago/HistoricDistrictsInIllinois
p32
aVhttp://dbpedia.org/class/yago/PhysicalEntity100001930
p33
aVhttp://dbpedia.org/resource/White_Place_Historic_District
p34
tp35
aa(lp36
a(lp37
a(lp38
a(lp39
a(lp40
a(lp41
a(lp42
a(lp43
a(lp44
a(lp45
a(lp46
a(lp47
aa.