(lp1
(lp2
(lp3
a(lp4
aa(lp5
(lp6
a(lp7
aa(lp8
(lp9
a(lp10
aa(lp11
(lp12
((lVhttp://dbpedia.org/resource/M%C3%A1laga_Public_Library
p13
tp14
aa(lp15
aa(lp16
(lp17
a(lp18
aa(lp19
(lp20
a(lp21
aa(lp22
(lp23
a(lp24
aa(lp25
(lp26
a(lp27
aa(lp28
(lp29
a(lp30
aa(lp31
(lp32
a(lp33
aa(lp34
(lp35
a(lp36
aa(lp37
(lp38
a(lp39
aa(lp40
(lp41
a(lp42
aa(lp43
(lp44
a(lp45
aa(lp46
(lp47
a(lp48
aa(lp49
(lp50
a(lp51
aa(lp52
(lp53
a(lp54
aa(lp55
(lp56
a(lp57
aa(lp58
(lp59
a(lp60
aa.