ccollections
defaultdict
p1
(c__builtin__
dict
p2
tRp3
I0
(dp4
I0
(lp5
Vhttp://dbpedia.org/ontology/series
p6
aVhttp://dbpedia.org/ontology/abstract
p7
aVhttp://www.w3.org/2000/01/rdf-schema#comment
p8
asI1
(lp9
sI2
(lp10
Vhttp://dbpedia.org/ontology/abstract
p11
aVhttp://www.w3.org/2000/01/rdf-schema#label
p12
aVhttp://www.w3.org/2000/01/rdf-schema#comment
p13
asI4
(lp14
sI5
(lp15
ss.