(lp1
(lp2
(lp3
((lp4
Vhttp://dbpedia.org/class/yago/Artifact100021939
p5
aVhttp://dbpedia.org/class/yago/Depository103177349
p6
aVhttp://dbpedia.org/class/yago/Facility103315023
p7
aVhttp://dbpedia.org/class/yago/Garrison103420559
p8
aVhttp://dbpedia.org/class/yago/Landmark108624891
p9
aVhttp://dbpedia.org/class/yago/Location100027167
p10
aVhttp://dbpedia.org/class/yago/MilitaryInstallation103763133
p11
aVhttp://dbpedia.org/class/yago/Museum103800563
p12
aVhttp://dbpedia.org/class/yago/Object100002684
p13
aVhttp://dbpedia.org/class/yago/Park108615149
p14
aVhttp://dbpedia.org/class/yago/Point108620061
p15
aVhttp://dbpedia.org/class/yago/Position108621598
p16
aVhttp://dbpedia.org/class/yago/Region108630985
p17
aVhttp://dbpedia.org/class/yago/Site108651247
p18
aVhttp://dbpedia.org/class/yago/Tract108673395
p19
aVhttp://dbpedia.org/class/yago/Whole100003553
p20
aVhttp://dbpedia.org/class/yago/YagoGeoEntity
p21
aVhttp://dbpedia.org/class/yago/YagoLegalActorGeo
p22
aVhttp://www.w3.org/2002/07/owl#Thing
p23
aVhttp://dbpedia.org/ontology/Place
p24
aVhttp://dbpedia.org/ontology/Location
p25
aVhttp://dbpedia.org/ontology/ArchitecturalStructure
p26
aVhttp://dbpedia.org/ontology/MilitaryStructure
p27
aVhttp://schema.org/Place
p28
aVhttp://umbel.org/umbel/rc/Place
p29
aVhttp://dbpedia.org/class/yago/ColonialFortsInNewYork
p30
aVhttp://dbpedia.org/class/yago/FortsInNewYork
p31
aVhttp://dbpedia.org/class/yago/FrenchFortsInTheUnitedStates
p32
aVhttp://dbpedia.org/class/yago/YagoPermanentlyLocatedEntity
p33
aVhttp://dbpedia.org/class/yago/MuseumsInNiagaraCounty,NewYork
p34
aVhttp://dbpedia.org/class/yago/NationalHistoricLandmarksInNewYork
p35
aVhttp://dbpedia.org/class/yago/NewYorkStateHistoricSites
p36
aVhttp://dbpedia.org/class/yago/ParksInNiagaraCounty,NewYork
p37
aVhttp://dbpedia.org/class/yago/GeographicalArea108574314
p38
aVhttp://dbpedia.org/class/yago/MilitaryPost103763403
p39
aVhttp://dbpedia.org/class/yago/PhysicalEntity100001930
p40
aVhttp://dbpedia.org/resource/Fort_Niagara
tp41
aa(lp42
((lp43
Vhttp://dbpedia.org/class/yago/Artifact100021939
p44
aVhttp://dbpedia.org/class/yago/Facility103315023
p45
aVhttp://dbpedia.org/class/yago/Object100002684
p46
aVhttp://dbpedia.org/class/yago/Station104306080
p47
aVhttp://dbpedia.org/class/yago/Whole100003553
p48
aVhttp://dbpedia.org/class/yago/YagoGeoEntity
p49
aVhttp://www.w3.org/2002/07/owl#Thing
p50
aVhttp://dbpedia.org/ontology/Place
p51
aVhttp://dbpedia.org/ontology/Location
p52
aVhttp://dbpedia.org/ontology/ArchitecturalStructure
p53
aVhttp://dbpedia.org/ontology/MilitaryStructure
p54
aVhttp://www.w3.org/2003/01/geo/wgs84_pos#SpatialThing
p55
aVhttp://schema.org/Place
p56
aVhttp://dbpedia.org/class/yago/YagoPermanentlyLocatedEntity
p57
aVhttp://dbpedia.org/class/yago/MilitaryFacilitiesInIllinois
p58
aVhttp://dbpedia.org/class/yago/PhysicalEntity100001930
p59
aVhttp://dbpedia.org/class/yago/UnitedStatesCoastGuardStations
p60
aVhttp://dbpedia.org/resource/Coast_Guard_Station_Calumet_Harbor
tp61
aa(lp62
((lp63
Vhttp://dbpedia.org/class/yago/Artifact100021939
p64
aVhttp://dbpedia.org/class/yago/Facility103315023
p65
aVhttp://dbpedia.org/class/yago/Garrison103420559
p66
aVhttp://dbpedia.org/class/yago/MilitaryInstallation103763133
p67
aVhttp://dbpedia.org/class/yago/Object100002684
p68
aVhttp://dbpedia.org/class/yago/Whole100003553
p69
aVhttp://dbpedia.org/class/yago/YagoGeoEntity
p70
aVhttp://www.w3.org/2002/07/owl#Thing
p71
aVhttp://dbpedia.org/ontology/Place
p72
aVhttp://dbpedia.org/ontology/Location
p73
aVhttp://dbpedia.org/ontology/ArchitecturalStructure
p74
aVhttp://dbpedia.org/ontology/MilitaryStructure
p75
aVhttp://www.w3.org/2003/01/geo/wgs84_pos#SpatialThing
p76
aVhttp://schema.org/Place
p77
aVhttp://dbpedia.org/class/yago/ColonialFortsInMinnesota
p78
aVhttp://dbpedia.org/class/yago/FortsInMinnesota
p79
aVhttp://dbpedia.org/class/yago/FrenchFortsInTheUnitedStates
p80
aVhttp://dbpedia.org/class/yago/YagoPermanentlyLocatedEntity
p81
aVhttp://dbpedia.org/class/yago/MilitaryPost103763403
p82
aVhttp://dbpedia.org/class/yago/PhysicalEntity100001930
p83
aVhttp://dbpedia.org/resource/Fort_Saint_Charles
tp84
aa(lp85
((lp86
Vhttp://dbpedia.org/class/yago/Area108497294
p87
aVhttp://dbpedia.org/class/yago/Artifact100021939
p88
aVhttp://dbpedia.org/class/yago/Facility103315023
p89
aVhttp://dbpedia.org/class/yago/Garrison103420559
p90
aVhttp://dbpedia.org/class/yago/Location100027167
p91
aVhttp://dbpedia.org/class/yago/MilitaryInstallation103763133
p92
aVhttp://dbpedia.org/class/yago/Object100002684
p93
aVhttp://dbpedia.org/class/yago/Park108615149
p94
aVhttp://dbpedia.org/class/yago/Region108630985
p95
aVhttp://dbpedia.org/class/yago/Tract108673395
p96
aVhttp://dbpedia.org/class/yago/Whole100003553
p97
aVhttp://dbpedia.org/class/yago/YagoGeoEntity
p98
aVhttp://dbpedia.org/class/yago/YagoLegalActorGeo
p99
aVhttp://dbpedia.org/class/yago/ProtectedAreasOfNewportCounty,RhodeIsland
p100
aVhttp://dbpedia.org/class/yago/RhodeIslandStateParks
p101
aVhttp://www.w3.org/2002/07/owl#Thing
p102
aVhttp://dbpedia.org/ontology/Place
p103
aVhttp://dbpedia.org/ontology/Location
p104
aVhttp://dbpedia.org/ontology/ArchitecturalStructure
p105
aVhttp://dbpedia.org/ontology/MilitaryStructure
p106
aVhttp://schema.org/Place
p107
aVhttp://umbel.org/umbel/rc/Place
p108
aVhttp://dbpedia.org/class/yago/FortsInRhodeIsland
p109
aVhttp://dbpedia.org/class/yago/YagoPermanentlyLocatedEntity
p110
aVhttp://dbpedia.org/class/yago/GeographicalArea108574314
p111
aVhttp://dbpedia.org/class/yago/MilitaryFacilitiesOnTheNationalRegisterOfHistoricPlacesInRhodeIsland
p112
aVhttp://dbpedia.org/class/yago/MilitaryPost103763403
p113
aVhttp://dbpedia.org/class/yago/PhysicalEntity100001930
p114
aVhttp://dbpedia.org/resource/Fort_Wetherill
tp115
aa(lp116
((lp117
Vhttp://dbpedia.org/class/yago/Artifact100021939
p118
aVhttp://dbpedia.org/class/yago/Facility103315023
p119
aVhttp://dbpedia.org/class/yago/Garrison103420559
p120
aVhttp://dbpedia.org/class/yago/MilitaryInstallation103763133
p121
aVhttp://dbpedia.org/class/yago/Object100002684
p122
aVhttp://dbpedia.org/class/yago/Whole100003553
p123
aVhttp://dbpedia.org/class/yago/YagoGeoEntity
p124
aVhttp://www.w3.org/2002/07/owl#Thing
p125
aVhttp://dbpedia.org/ontology/Place
p126
aVhttp://dbpedia.org/ontology/Location
p127
aVhttp://dbpedia.org/ontology/ArchitecturalStructure
p128
aVhttp://dbpedia.org/ontology/MilitaryStructure
p129
aVhttp://www.w3.org/2003/01/geo/wgs84_pos#SpatialThing
p130
aVhttp://schema.org/Place
p131
aVhttp://dbpedia.org/class/yago/FormerUnitedStatesArmyFacilities
p132
aVhttp://dbpedia.org/class/yago/FortsInNewMexico
p133
aVhttp://dbpedia.org/class/yago/YagoPermanentlyLocatedEntity
p134
aVhttp://dbpedia.org/class/yago/MilitaryPost103763403
p135
aVhttp://dbpedia.org/class/yago/PhysicalEntity100001930
p136
aVhttp://dbpedia.org/resource/Fort_Wingate
tp137
aa(lp138
((lp139
Vhttp://dbpedia.org/class/yago/Airfield102687992
p140
aVhttp://dbpedia.org/class/yago/AirfieldsOfTheUnitedStatesArmyAirForcesInNorthDakota
p141
aVhttp://dbpedia.org/class/yago/Airport102692232
p142
aVhttp://dbpedia.org/class/yago/AirportsInNorthDakota
p143
aVhttp://dbpedia.org/class/yago/Artifact100021939
p144
aVhttp://dbpedia.org/class/yago/Facility103315023
p145
aVhttp://dbpedia.org/class/yago/Object100002684
p146
aVhttp://dbpedia.org/class/yago/Whole100003553
p147
aVhttp://dbpedia.org/class/yago/YagoGeoEntity
p148
aVhttp://www.w3.org/2002/07/owl#Thing
p149
aVhttp://dbpedia.org/ontology/Place
p150
aVhttp://dbpedia.org/ontology/Location
p151
aVhttp://www.wikidata.org/entity/Q1248784
p152
aVhttp://dbpedia.org/ontology/Airport
p153
aVhttp://dbpedia.org/ontology/ArchitecturalStructure
p154
aVhttp://dbpedia.org/ontology/Infrastructure
p155
aVhttp://www.w3.org/2003/01/geo/wgs84_pos#SpatialThing
p156
aVhttp://schema.org/Airport
p157
aVhttp://schema.org/Place
p158
aVhttp://umbel.org/umbel/rc/Airport_Physical
p159
aVhttp://umbel.org/umbel/rc/Building
p160
aVhttp://dbpedia.org/class/yago/FacilitiesOfTheUnitedStatesAirNationalGuard
p161
aVhttp://dbpedia.org/class/yago/YagoPermanentlyLocatedEntity
p162
aVhttp://dbpedia.org/class/yago/MilitaryFacilitiesInNorthDakota
p163
aVhttp://dbpedia.org/class/yago/PhysicalEntity100001930
p164
aVhttp://dbpedia.org/class/yago/USAAFAirTransportCommandAirfields-NorthAmerica
p165
aVhttp://dbpedia.org/resource/Hector_International_Airport
tp166
aa(lp167
((lp168
Vhttp://dbpedia.org/class/yago/Airfield102687992
p169
aVhttp://dbpedia.org/class/yago/AirfieldsOfTheUnitedStatesArmyAirForcesOnPapuaNewGuinea
p170
aVhttp://dbpedia.org/class/yago/Artifact100021939
p171
aVhttp://dbpedia.org/class/yago/Facility103315023
p172
aVhttp://dbpedia.org/class/yago/Object100002684
p173
aVhttp://dbpedia.org/class/yago/Whole100003553
p174
aVhttp://dbpedia.org/class/yago/YagoGeoEntity
p175
aVhttp://www.w3.org/2002/07/owl#Thing
p176
aVhttp://dbpedia.org/ontology/Place
p177
aVhttp://dbpedia.org/ontology/Location
p178
aVhttp://dbpedia.org/ontology/ArchitecturalStructure
p179
aVhttp://dbpedia.org/ontology/MilitaryStructure
p180
aVhttp://www.w3.org/2003/01/geo/wgs84_pos#SpatialThing
p181
aVhttp://schema.org/Place
p182
aVhttp://dbpedia.org/class/yago/YagoPermanentlyLocatedEntity
p183
aVhttp://dbpedia.org/class/yago/PhysicalEntity100001930
p184
aVhttp://dbpedia.org/resource/Durand_Airfield
tp185
aa(lp186
((lp187
Vhttp://dbpedia.org/class/yago/Area108497294
p188
aVhttp://dbpedia.org/class/yago/Artifact100021939
p189
aVhttp://dbpedia.org/class/yago/Facility103315023
p190
aVhttp://dbpedia.org/class/yago/Garrison103420559
p191
aVhttp://dbpedia.org/class/yago/Location100027167
p192
aVhttp://dbpedia.org/class/yago/MilitaryInstallation103763133
p193
aVhttp://dbpedia.org/class/yago/Object100002684
p194
aVhttp://dbpedia.org/class/yago/Park108615149
p195
aVhttp://dbpedia.org/class/yago/Region108630985
p196
aVhttp://dbpedia.org/class/yago/Tract108673395
p197
aVhttp://dbpedia.org/class/yago/Whole100003553
p198
aVhttp://dbpedia.org/class/yago/YagoGeoEntity
p199
aVhttp://dbpedia.org/class/yago/YagoLegalActorGeo
p200
aVhttp://dbpedia.org/class/yago/ProtectedAreasOfDefianceCounty,Ohio
p201
aVhttp://www.w3.org/2002/07/owl#Thing
p202
aVhttp://dbpedia.org/ontology/Place
p203
aVhttp://dbpedia.org/ontology/Location
p204
aVhttp://dbpedia.org/ontology/ArchitecturalStructure
p205
aVhttp://dbpedia.org/ontology/MilitaryStructure
p206
aVhttp://schema.org/Place
p207
aVhttp://umbel.org/umbel/rc/Place
p208
aVhttp://dbpedia.org/class/yago/FortsInOhio
p209
aVhttp://dbpedia.org/class/yago/YagoPermanentlyLocatedEntity
p210
aVhttp://dbpedia.org/class/yago/ParksInOhio
p211
aVhttp://dbpedia.org/class/yago/GeographicalArea108574314
p212
aVhttp://dbpedia.org/class/yago/MilitaryFacilitiesOnTheNationalRegisterOfHistoricPlacesInOhio
p213
aVhttp://dbpedia.org/class/yago/MilitaryPost103763403
p214
aVhttp://dbpedia.org/class/yago/PhysicalEntity100001930
p215
aVhttp://dbpedia.org/resource/Fort_Defiance_(Ohio)
tp216
aa(lp217
((lp218
Vhttp://dbpedia.org/class/yago/Artifact100021939
p219
aVhttp://dbpedia.org/class/yago/Facility103315023
p220
aVhttp://dbpedia.org/class/yago/Garrison103420559
p221
aVhttp://dbpedia.org/class/yago/MilitaryInstallation103763133
p222
aVhttp://dbpedia.org/class/yago/Object100002684
p223
aVhttp://dbpedia.org/class/yago/Whole100003553
p224
aVhttp://dbpedia.org/class/yago/YagoGeoEntity
p225
aVhttp://www.w3.org/2002/07/owl#Thing
p226
aVhttp://dbpedia.org/ontology/Place
p227
aVhttp://dbpedia.org/ontology/Location
p228
aVhttp://dbpedia.org/ontology/ArchitecturalStructure
p229
aVhttp://dbpedia.org/ontology/MilitaryStructure
p230
aVhttp://schema.org/Place
p231
aVhttp://dbpedia.org/class/yago/FortsInPennsylvania
p232
aVhttp://dbpedia.org/class/yago/YagoPermanentlyLocatedEntity
p233
aVhttp://dbpedia.org/class/yago/MilitaryPost103763403
p234
aVhttp://dbpedia.org/class/yago/PhysicalEntity100001930
p235
aVhttp://dbpedia.org/resource/Fort_Deshler
tp236
aa(lp237
((lp238
Vhttp://dbpedia.org/class/yago/AmericanRevolutionaryWarForts
p239
aVhttp://dbpedia.org/class/yago/Artifact100021939
p240
aVhttp://dbpedia.org/class/yago/Facility103315023
p241
aVhttp://dbpedia.org/class/yago/Garrison103420559
p242
aVhttp://dbpedia.org/class/yago/MilitaryInstallation103763133
p243
aVhttp://dbpedia.org/class/yago/Object100002684
p244
aVhttp://dbpedia.org/class/yago/Whole100003553
p245
aVhttp://dbpedia.org/class/yago/YagoGeoEntity
p246
aVhttp://www.w3.org/2002/07/owl#Thing
p247
aVhttp://dbpedia.org/ontology/Place
p248
aVhttp://dbpedia.org/ontology/Location
p249
aVhttp://dbpedia.org/ontology/ArchitecturalStructure
p250
aVhttp://dbpedia.org/ontology/MilitaryStructure
p251
aVhttp://www.w3.org/2003/01/geo/wgs84_pos#SpatialThing
p252
aVhttp://schema.org/Place
p253
aVhttp://dbpedia.org/class/yago/ColonialFortsInMichigan
p254
aVhttp://dbpedia.org/class/yago/FortsInMichigan
p255
aVhttp://dbpedia.org/class/yago/FrenchFortsInTheUnitedStates
p256
aVhttp://dbpedia.org/class/yago/YagoPermanentlyLocatedEntity
p257
aVhttp://dbpedia.org/class/yago/MilitaryPost103763403
p258
aVhttp://dbpedia.org/class/yago/PhysicalEntity100001930
p259
aVhttp://dbpedia.org/resource/Fort_Detroit
tp260
aa(lp261
((lp262
Vhttp://dbpedia.org/class/yago/Artifact100021939
p263
aVhttp://dbpedia.org/class/yago/CanadianAutomobiles
p264
aVhttp://dbpedia.org/class/yago/Car102958343
p265
aVhttp://dbpedia.org/class/yago/Container103094503
p266
aVhttp://dbpedia.org/class/yago/Conveyance103100490
p267
aVhttp://dbpedia.org/class/yago/MotorVehicle103791235
p268
aVhttp://dbpedia.org/class/yago/Object100002684
p269
aVhttp://dbpedia.org/class/yago/Self-propelledVehicle104170037
p270
aVhttp://dbpedia.org/class/yago/Vehicle104524313
p271
aVhttp://dbpedia.org/class/yago/WheeledVehicle104576211
p272
aVhttp://dbpedia.org/class/yago/Whole100003553
p273
aVhttp://www.w3.org/2002/07/owl#Thing
p274
aVhttp://www.ontologydesignpatterns.org/ont/dul/DUL.owl#DesignedArtifact
p275
aVhttp://dbpedia.org/ontology/MeanOfTransportation
p276
aVhttp://schema.org/Product
p277
aVhttp://dbpedia.org/class/yago/Instrumentality103575240
p278
aVhttp://dbpedia.org/class/yago/PhysicalEntity100001930
p279
aVhttp://dbpedia.org/class/yago/VehiclesIntroducedIn1960
p280
aVhttp://dbpedia.org/resource/Ford_Frontenac
tp281
aa(lp282
((lp283
Vhttp://dbpedia.org/class/yago/Airfield102687992
p284
aVhttp://dbpedia.org/class/yago/AirfieldsOfTheUnitedStatesArmyAirForcesInTexas
p285
aVhttp://dbpedia.org/class/yago/Airport102692232
p286
aVhttp://dbpedia.org/class/yago/Artifact100021939
p287
aVhttp://dbpedia.org/class/yago/Facility103315023
p288
aVhttp://dbpedia.org/class/yago/Location100027167
p289
aVhttp://dbpedia.org/class/yago/Object100002684
p290
aVhttp://dbpedia.org/class/yago/Region108630985
p291
aVhttp://dbpedia.org/class/yago/Site108651247
p292
aVhttp://dbpedia.org/class/yago/Tract108673395
p293
aVhttp://dbpedia.org/class/yago/Whole100003553
p294
aVhttp://dbpedia.org/class/yago/YagoGeoEntity
p295
aVhttp://dbpedia.org/class/yago/YagoLegalActorGeo
p296
aVhttp://www.w3.org/2002/07/owl#Thing
p297
aVhttp://dbpedia.org/ontology/Place
p298
aVhttp://dbpedia.org/ontology/Location
p299
aVhttp://dbpedia.org/ontology/ArchitecturalStructure
p300
aVhttp://dbpedia.org/ontology/MilitaryStructure
p301
aVhttp://schema.org/Place
p302
aVhttp://umbel.org/umbel/rc/Airport_Physical
p303
aVhttp://umbel.org/umbel/rc/Building
p304
aVhttp://umbel.org/umbel/rc/Location_Underspecified
p305
aVhttp://dbpedia.org/class/yago/Census-designatedPlacesInTexas
p306
aVhttp://dbpedia.org/class/yago/YagoPermanentlyLocatedEntity
p307
aVhttp://dbpedia.org/class/yago/GeographicalArea108574314
p308
aVhttp://dbpedia.org/class/yago/MilitaryFacilitiesInTexas
p309
aVhttp://dbpedia.org/class/yago/PhysicalEntity100001930
p310
aVhttp://dbpedia.org/resource/Laughlin_Air_Force_Base
tp311
aa(lp312
((lp313
Vhttp://www.w3.org/2002/07/owl#Thing
p314
aVhttp://dbpedia.org/ontology/Place
p315
aVhttp://dbpedia.org/ontology/Location
p316
aVhttp://dbpedia.org/ontology/ArchitecturalStructure
p317
aVhttp://dbpedia.org/ontology/MilitaryStructure
p318
aVhttp://www.w3.org/2003/01/geo/wgs84_pos#SpatialThing
p319
aVhttp://schema.org/Place
p320
aVhttp://umbel.org/umbel/rc/Airport_Physical
p321
aVhttp://umbel.org/umbel/rc/Building
p322
aVhttp://dbpedia.org/resource/McGuire_Air_Force_Base
tp323
aa(lp324
((lp325
Vhttp://www.w3.org/2002/07/owl#Thing
p326
aVhttp://dbpedia.org/ontology/Place
p327
aVhttp://dbpedia.org/ontology/Location
p328
aVhttp://dbpedia.org/ontology/ArchitecturalStructure
p329
aVhttp://dbpedia.org/ontology/MilitaryStructure
p330
aVhttp://schema.org/Place
p331
aVhttp://dbpedia.org/resource/John_Chisholm_(soldier)
tp332
aa(lp333
((lp334
Vhttp://dbpedia.org/class/yago/AerospaceDefenseCommandMilitaryInstallations
p335
aVhttp://dbpedia.org/class/yago/Artifact100021939
p336
aVhttp://dbpedia.org/class/yago/Facility103315023
p337
aVhttp://dbpedia.org/class/yago/MilitaryInstallation103763133
p338
aVhttp://dbpedia.org/class/yago/Object100002684
p339
aVhttp://dbpedia.org/class/yago/Station104306080
p340
aVhttp://dbpedia.org/class/yago/Whole100003553
p341
aVhttp://dbpedia.org/class/yago/YagoGeoEntity
p342
aVhttp://dbpedia.org/class/yago/RadarStationsOfTheUnitedStatesAirForce
p343
aVhttp://www.w3.org/2002/07/owl#Thing
p344
aVhttp://dbpedia.org/ontology/Place
p345
aVhttp://dbpedia.org/ontology/Location
p346
aVhttp://dbpedia.org/ontology/ArchitecturalStructure
p347
aVhttp://dbpedia.org/ontology/MilitaryStructure
p348
aVhttp://www.w3.org/2003/01/geo/wgs84_pos#SpatialThing
p349
aVhttp://schema.org/Place
p350
aVhttp://dbpedia.org/class/yago/ClosedFacilitiesOfTheUnitedStatesAirForce
p351
aVhttp://dbpedia.org/class/yago/YagoPermanentlyLocatedEntity
p352
aVhttp://dbpedia.org/class/yago/MilitaryFacilitiesInTexas
p353
aVhttp://dbpedia.org/class/yago/PhysicalEntity100001930
p354
aVhttp://dbpedia.org/resource/Killeen_Air_Force_Station
tp355
aa(lp356
((lp357
Vhttp://dbpedia.org/class/yago/Artifact100021939
p358
aVhttp://dbpedia.org/class/yago/Building102913152
p359
aVhttp://dbpedia.org/class/yago/House103544360
p360
aVhttp://dbpedia.org/class/yago/Housing103546340
p361
aVhttp://dbpedia.org/class/yago/Object100002684
p362
aVhttp://dbpedia.org/class/yago/Palace103878066
p363
aVhttp://dbpedia.org/class/yago/Structure104341686
p364
aVhttp://dbpedia.org/class/yago/Whole100003553
p365
aVhttp://dbpedia.org/class/yago/YagoGeoEntity
p366
aVhttp://www.w3.org/2002/07/owl#Thing
p367
aVhttp://dbpedia.org/ontology/Place
p368
aVhttp://dbpedia.org/ontology/Location
p369
aVhttp://dbpedia.org/ontology/ArchitecturalStructure
p370
aVhttp://dbpedia.org/ontology/MilitaryStructure
p371
aVhttp://schema.org/Place
p372
aVhttp://dbpedia.org/class/yago/CastlesInSomerset
p373
aVhttp://dbpedia.org/class/yago/YagoPermanentlyLocatedEntity
p374
aVhttp://dbpedia.org/class/yago/Dwelling103259505
p375
aVhttp://dbpedia.org/class/yago/Mansion103719053
p376
aVhttp://dbpedia.org/class/yago/PhysicalEntity100001930
p377
aVhttp://dbpedia.org/resource/Locking_Castle
tp378
aa(lp379
((lp380
Vhttp://www.w3.org/2002/07/owl#Thing
p381
aVhttp://dbpedia.org/ontology/Place
p382
aVhttp://dbpedia.org/ontology/Location
p383
aVhttp://dbpedia.org/ontology/ArchitecturalStructure
p384
aVhttp://dbpedia.org/ontology/MilitaryStructure
p385
aVhttp://schema.org/Place
p386
aVhttp://dbpedia.org/resource/Moment_space_surveillance_complex
tp387
aa(lp388
((lp389
Vhttp://dbpedia.org/class/yago/Artifact100021939
p390
aVhttp://dbpedia.org/class/yago/Facility103315023
p391
aVhttp://dbpedia.org/class/yago/Location100027167
p392
aVhttp://dbpedia.org/class/yago/Object100002684
p393
aVhttp://dbpedia.org/class/yago/Region108630985
p394
aVhttp://dbpedia.org/class/yago/Site108651247
p395
aVhttp://dbpedia.org/class/yago/Tract108673395
p396
aVhttp://dbpedia.org/class/yago/Whole100003553
p397
aVhttp://dbpedia.org/class/yago/YagoGeoEntity
p398
aVhttp://dbpedia.org/class/yago/YagoLegalActorGeo
p399
aVhttp://www.w3.org/2002/07/owl#Thing
p400
aVhttp://dbpedia.org/ontology/Place
p401
aVhttp://dbpedia.org/ontology/Location
p402
aVhttp://dbpedia.org/ontology/ArchitecturalStructure
p403
aVhttp://dbpedia.org/ontology/MilitaryStructure
p404
aVhttp://schema.org/Place
p405
aVhttp://dbpedia.org/class/yago/YagoPermanentlyLocatedEntity
p406
aVhttp://dbpedia.org/class/yago/PopulatedPlacesEstablishedIn1911
p407
aVhttp://dbpedia.org/class/yago/GeographicalArea108574314
p408
aVhttp://dbpedia.org/class/yago/MilitaryFacilitiesInIllinois
p409
aVhttp://dbpedia.org/class/yago/MilitaryFacilitiesOnTheNationalRegisterOfHistoricPlacesInIllinois
p410
aVhttp://dbpedia.org/class/yago/PhysicalEntity100001930
p411
aVhttp://dbpedia.org/resource/Naval_Station_Great_Lakes
tp412
aa(lp413
((lp414
Vhttp://www.w3.org/2002/07/owl#Thing
p415
aVhttp://dbpedia.org/ontology/Place
p416
aVhttp://dbpedia.org/ontology/Location
p417
aVhttp://dbpedia.org/ontology/ArchitecturalStructure
p418
aVhttp://dbpedia.org/ontology/MilitaryStructure
p419
aVhttp://schema.org/Place
p420
aVhttp://dbpedia.org/resource/Nevada_Test_Site
p421
tp422
aaa.