(lp1
(lp2
(lp3
a(lp4
a(lp5
aa(lp6
(lp7
a(lp8
Vhttp://dbpedia.org/resource/Services_&_Advocacy_for_GLBT_Elders
p9
aa(lp10
aa(lp11
(lp12
a(lp13
Vhttp://dbpedia.org/resource/Society_for_Conservation_Biology
p14
aa(lp15
aa(lp16
(lp17
a(lp18
Vhttp://dbpedia.org/resource/Society_for_Industrial_Microbiology_and_Biotechnology
p19
aa(lp20
aa(lp21
(lp22
a(lp23
a(lp24
aa(lp25
(lp26
a(lp27
Vhttp://dbpedia.org/resource/Susan_B._Anthony_List
p28
aa(lp29
aa(lp30
(lp31
a(lp32
Vhttp://dbpedia.org/resource/The_Document_Foundation
p33
aa(lp34
aa(lp35
(lp36
a(lp37
Vhttp://dbpedia.org/resource/Town_and_Country_Planning_Association
p38
aa(lp39
aa(lp40
(lp41
a(lp42
Vhttp://dbpedia.org/resource/Transportation_Alternatives
p43
aa(lp44
aa(lp45
(lp46
a(lp47
Vhttp://dbpedia.org/resource/Type_Directors_Club
p48
aa(lp49
aa(lp50
(lp51
a(lp52
Vhttp://dbpedia.org/resource/Vanguard_Public_Foundation
p53
aa(lp54
aa(lp55
(lp56
a(lp57
Vhttp://dbpedia.org/resource/Alkarama
p58
aa(lp59
aa(lp60
(lp61
a(lp62
Vhttp://dbpedia.org/resource/American_Institute_for_Stuttering
p63
aa(lp64
aa(lp65
(lp66
a(lp67
Vhttp://dbpedia.org/resource/Business_for_Scotland
p68
aa(lp69
aa(lp70
(lp71
a(lp72
a(lp73
aa(lp74
(lp75
a(lp76
a(lp77
aa(lp78
(lp79
a(lp80
Vhttp://dbpedia.org/resource/National_Programme_on_Technology_Enhanced_Learning
p81
aa(lp82
aa(lp83
(lp84
a(lp85
Vhttp://dbpedia.org/resource/Solar_Electric_Light_Fund
p86
aa(lp87
aa(lp88
(lp89
a(lp90
Vhttp://dbpedia.org/resource/Stop_Huntingdon_Animal_Cruelty
p91
aa(lp92
aa.