(lp1
(lp2
(lp3
a(lp4
a(lp5
a(lp6
a(lp7
a(lp8
a(lp9
a(lp10
a(lp11
a(lp12
a(lp13
a(lp14
a(lp15
a(lp16
a(lp17
a(lp18
a(lp19
a(lp20
((lp21
Vhttp://www.w3.org/2002/07/owl#Thing
p22
aVhttp://www.wikidata.org/entity/Q4936952
p23
aVhttp://dbpedia.org/ontology/AnatomicalStructure
p24
aVhttp://dbpedia.org/resource/Subscapular_nerves
p25
tp26
aa(lp27
aa.