(lp1
(lp2
(lp3
a(lp4
a(lp5
Vhttp://dbpedia.org/resource/Aamir_Zaki
p6
aaa(lp7
(lp8
a(lp9
a(lp10
Vhttp://dbpedia.org/resource/Abdul_Latif_(cricketer)
p11
aaa(lp12
(lp13
a(lp14
a(lp15
aa(lp16
(lp17
a(lp18
a(lp19
aa(lp20
(lp21
a(lp22
a(lp23
aa(lp24
(lp25
a(lp26
a(lp27
aa(lp28
(lp29
a(lp30
a(lp31
aa(lp32
(lp33
a(lp34
a(lp35
aa(lp36
(lp37
a(lp38
a(lp39
Vhttp://dbpedia.org/resource/Alessandro_Motti
p40
aaa(lp41
(lp42
a(lp43
a(lp44
aa(lp45
(lp46
a(lp47
a(lp48
aa(lp49
(lp50
a(lp51
a(lp52
aa(lp53
(lp54
a(lp55
a(lp56
aa(lp57
(lp58
a(lp59
a(lp60
aa(lp61
(lp62
a(lp63
a(lp64
aa(lp65
(lp66
a(lp67
a(lp68
aa(lp69
(lp70
a(lp71
a(lp72
aa.