(lp1
(lp2
(lp3
a(lp4
a(lp5
a(lp6
a(lp7
a(lp8
a(lp9
a(lp10
a(lp11
a(lp12
((lVhttp://dbpedia.org/resource/Hungarian_Rhapsody_No._6
tp13
aa(lp14
a(lp15
a(lp16
a(lp17
a(lp18
a(lp19
a(lp20
((lp21
Vhttp://dbpedia.org/class/yago/Abstraction100002137
p22
aVhttp://dbpedia.org/class/yago/Act100030358
p23
aVhttp://dbpedia.org/class/yago/Activity100407535
p24
aVhttp://dbpedia.org/class/yago/Adventure100796315
p25
aVhttp://dbpedia.org/class/yago/Communication100033020
p26
aVhttp://dbpedia.org/class/yago/Event100029378
p27
aVhttp://dbpedia.org/class/yago/LiteraryComposition106364329
p28
aVhttp://dbpedia.org/class/yago/Novel106367879
p29
aVhttp://dbpedia.org/class/yago/Undertaking100795720
p30
aVhttp://dbpedia.org/class/yago/Work100575741
p31
aVhttp://dbpedia.org/class/yago/Writing106362953
p32
aVhttp://www.w3.org/2002/07/owl#Thing
p33
aVhttp://purl.org/ontology/bibo/Book
p34
aVhttp://www.wikidata.org/entity/Q386724
p35
aVhttp://www.wikidata.org/entity/Q571
p36
aVhttp://dbpedia.org/ontology/Book
p37
aVhttp://dbpedia.org/ontology/Work
p38
aVhttp://dbpedia.org/ontology/WrittenWork
p39
aVhttp://schema.org/Book
p40
aVhttp://schema.org/CreativeWork
p41
aVhttp://dbpedia.org/class/yago/EleventhDoctorNovels
p42
aVhttp://dbpedia.org/class/yago/PsychologicalFeature100023100
p43
aVhttp://dbpedia.org/class/yago/WrittenCommunication106349220
p44
aVhttp://dbpedia.org/class/yago/YagoPermanentlyLocatedEntity
p45
aVhttp://dbpedia.org/class/yago/NewSeriesAdventures
p46
aVhttp://dbpedia.org/class/yago/Fiction106367107
p47
aVhttp://dbpedia.org/resource/The_Forgotten_Army
p48
tp49
aa(lp50
aa.