(lp1
(lp2
(lp3
a(lp4
a(lp5
a(lp6
((lp7
Vhttp://www.w3.org/2002/07/owl#Thing
p8
aVhttp://www.ontologydesignpatterns.org/ont/dul/DUL.owl#Agent
p9
aVhttp://www.ontologydesignpatterns.org/ont/dul/DUL.owl#SocialPerson
p10
aVhttp://www.wikidata.org/entity/Q43229
p11
aVhttp://www.wikidata.org/entity/Q476028
p12
aVhttp://dbpedia.org/ontology/Agent
p13
aVhttp://dbpedia.org/ontology/Organisation
p14
aVhttp://dbpedia.org/ontology/SportsTeam
p15
aVhttp://www.w3.org/2003/01/geo/wgs84_pos#SpatialThing
p16
aVhttp://schema.org/Organization
p17
aVhttp://schema.org/SportsTeam
p18
aVhttp://dbpedia.org/resource/Charlestown_Sarsfields_GAA
tp19
aa(lp20
a(lp21
((lp22
Vhttp://dbpedia.org/class/yago/Abstraction100002137
p23
aVhttp://dbpedia.org/class/yago/Body107965085
p24
aVhttp://dbpedia.org/class/yago/Constituency108238156
p25
aVhttp://dbpedia.org/class/yago/Group100031264
p26
aVhttp://dbpedia.org/class/yago/SocialGroup107950920
p27
aVhttp://www.w3.org/2003/01/geo/wgs84_pos#SpatialThing
p28
aVhttp://dbpedia.org/class/yago/ParliamentaryConstituenciesInCheshire(historic)
p29
aVhttp://dbpedia.org/class/yago/UnitedKingdomParliamentaryConstituenciesEstablishedIn1832
p30
aVhttp://dbpedia.org/resource/South_Cheshire_(UK_Parliament_constituency)
tp31
aa(lp32
a(lp33
a(lp34
a(lp35
a(lp36
a(lp37
a(lp38
((lp39
Vhttp://www.w3.org/2002/07/owl#Thing
p40
aVhttp://www.ontologydesignpatterns.org/ont/dul/DUL.owl#Agent
p41
aVhttp://www.ontologydesignpatterns.org/ont/dul/DUL.owl#SocialPerson
p42
aVhttp://www.wikidata.org/entity/Q43229
p43
aVhttp://dbpedia.org/ontology/Agent
p44
aVhttp://dbpedia.org/ontology/Organisation
p45
aVhttp://schema.org/Organization
p46
aVhttp://dbpedia.org/resource/China_Aid
tp47
aa(lp48
a(lp49
a(lp50
((lp51
Vhttp://dbpedia.org/class/yago/Abstraction100002137
p52
aVhttp://dbpedia.org/class/yago/EducationalInstitution108276342
p53
aVhttp://dbpedia.org/class/yago/GraduateSchool108282696
p54
aVhttp://dbpedia.org/class/yago/Group100031264
p55
aVhttp://dbpedia.org/class/yago/Institution108053576
p56
aVhttp://dbpedia.org/class/yago/MedicalSchool108283507
p57
aVhttp://dbpedia.org/class/yago/Organization108008335
p58
aVhttp://dbpedia.org/class/yago/School108276720
p59
aVhttp://dbpedia.org/class/yago/SocialGroup107950920
p60
aVhttp://dbpedia.org/class/yago/University108286569
p61
aVhttp://dbpedia.org/class/yago/YagoLegalActorGeo
p62
aVhttp://dbpedia.org/class/yago/SchoolsOfMedicineInChina
p63
aVhttp://www.w3.org/2002/07/owl#Thing
p64
aVhttp://www.ontologydesignpatterns.org/ont/dul/DUL.owl#Agent
p65
aVhttp://www.ontologydesignpatterns.org/ont/dul/DUL.owl#SocialPerson
p66
aVhttp://www.wikidata.org/entity/Q3918
p67
aVhttp://www.wikidata.org/entity/Q43229
p68
aVhttp://dbpedia.org/ontology/Agent
p69
aVhttp://dbpedia.org/ontology/EducationalInstitution
p70
aVhttp://dbpedia.org/ontology/Organisation
p71
aVhttp://schema.org/CollegeOrUniversity
p72
aVhttp://schema.org/EducationalOrganization
p73
aVhttp://schema.org/Organization
p74
aVhttp://dbpedia.org/class/yago/EducationalInstitutionsEstablishedIn1906
p75
aVhttp://dbpedia.org/class/yago/YagoPermanentlyLocatedEntity
p76
aVhttp://dbpedia.org/class/yago/YagoLegalActor
p77
aVhttp://dbpedia.org/class/yago/UniversitiesAndCollegesInBeijing
p78
aVhttp://dbpedia.org/resource/Peking_Union_Medical_College
p79
tp80
aa(lp81
a(lp82
a(lp83
aa.