(lp1
(lp2
(lp3
a(lp4
a(lp5
aa(lp6
(lp7
a(lp8
a(lp9
Vhttp://dbpedia.org/resource/Michael_Read
p10
aaa(lp11
(lp12
a(lp13
a(lp14
Vhttp://dbpedia.org/resource/Abe_Cohn
p15
aaa(lp16
(lp17
a(lp18
a(lp19
aa(lp20
(lp21
a(lp22
a(lp23
aa(lp24
(lp25
a(lp26
a(lp27
aa(lp28
(lp29
a(lp30
a(lp31
Vhttp://dbpedia.org/resource/Bill_Armstrong_(coach)
p32
aaa(lp33
(lp34
a(lp35
a(lp36
Vhttp://dbpedia.org/resource/Bill_Russo_(American_football)
p37
aaa(lp38
(lp39
a(lp40
a(lp41
aa(lp42
(lp43
a(lp44
a(lp45
aa(lp46
(lp47
a(lp48
a(lp49
aa(lp50
(lp51
a(lp52
a(lp53
Vhttp://dbpedia.org/resource/J._J._Goodwin
p54
aaa(lp55
(lp56
a(lp57
a(lp58
aa(lp59
(lp60
a(lp61
a(lp62
aa(lp63
(lp64
a(lp65
a(lp66
aa(lp67
(lp68
a(lp69
a(lp70
Vhttp://dbpedia.org/resource/Chris_Jones_(punter)
p71
aaa(lp72
(lp73
a(lp74
a(lp75
aa(lp76
(lp77
a(lp78
a(lp79
aa.