(lp1
(lp2
(lp3
a(lp4
((lp5
Vhttp://dbpedia.org/class/yago/Adjudicator109769636
p6
aVhttp://dbpedia.org/class/yago/CausalAgent100007347
p7
aVhttp://dbpedia.org/class/yago/Judge110225219
p8
aVhttp://dbpedia.org/class/yago/LivingThing100004258
p9
aVhttp://dbpedia.org/class/yago/Object100002684
p10
aVhttp://dbpedia.org/class/yago/Official110372373
p11
aVhttp://dbpedia.org/class/yago/Organism100004475
p12
aVhttp://dbpedia.org/class/yago/Person100007846
p13
aVhttp://dbpedia.org/class/yago/SkilledWorker110605985
p14
aVhttp://dbpedia.org/class/yago/Whole100003553
p15
aVhttp://dbpedia.org/class/yago/Worker109632518
p16
aVhttp://dbpedia.org/class/yago/YagoLegalActorGeo
p17
aVhttp://www.w3.org/2002/07/owl#Thing
p18
aVhttp://xmlns.com/foaf/0.1/Person
p19
aVhttp://dbpedia.org/ontology/Person
p20
aVhttp://www.ontologydesignpatterns.org/ont/dul/DUL.owl#Agent
p21
aVhttp://www.ontologydesignpatterns.org/ont/dul/DUL.owl#NaturalPerson
p22
aVhttp://www.wikidata.org/entity/Q16533
p23
aVhttp://www.wikidata.org/entity/Q215627
p24
aVhttp://www.wikidata.org/entity/Q5
p25
aVhttp://dbpedia.org/ontology/Agent
p26
aVhttp://dbpedia.org/ontology/Judge
p27
aVhttp://schema.org/Person
p28
aVhttp://dbpedia.org/class/yago/ChiefJustice109916788
p29
aVhttp://dbpedia.org/class/yago/ChiefJusticesOfTheLouisianaSupremeCourt
p30
aVhttp://dbpedia.org/class/yago/YagoLegalActor
p31
aVhttp://dbpedia.org/class/yago/JudgesOfTheUnitedStatesCircuitCourts
p32
aVhttp://dbpedia.org/class/yago/JudgesOfTheUnitedStatesDistrictCourtForTheDistrictOfLouisiana
p33
aVhttp://dbpedia.org/class/yago/PhysicalEntity100001930
p34
aVhttp://dbpedia.org/class/yago/UnitedStatesFederalJudgesAppointedByJamesMadison
p35
aVhttp://dbpedia.org/class/yago/UnitedStatesFederalJudgesAppointedByThomasJefferson
p36
aVhttp://dbpedia.org/class/yago/UnitedStatesTerritorialJudges
p37
aVhttp://dbpedia.org/resource/Dominic_Augustin_Hall
tp38
aa(lp39
a(lp40
a(lp41
a(lp42
a(lp43
a(lp44
a(lp45
a(lp46
a(lp47
a(lp48
a(lp49
((lp50
Vhttp://dbpedia.org/class/yago/Abstraction100002137
p51
aVhttp://dbpedia.org/class/yago/Group100031264
p52
aVhttp://dbpedia.org/class/yago/MusicalOrganization108246613
p53
aVhttp://dbpedia.org/class/yago/Organization108008335
p54
aVhttp://dbpedia.org/class/yago/SocialGroup107950920
p55
aVhttp://dbpedia.org/class/yago/YagoLegalActorGeo
p56
aVhttp://www.w3.org/2002/07/owl#Thing
p57
aVhttp://www.ontologydesignpatterns.org/ont/dul/DUL.owl#Agent
p58
aVhttp://www.ontologydesignpatterns.org/ont/dul/DUL.owl#SocialPerson
p59
aVhttp://www.wikidata.org/entity/Q215380
p60
aVhttp://www.wikidata.org/entity/Q43229
p61
aVhttp://dbpedia.org/ontology/Agent
p62
aVhttp://dbpedia.org/ontology/Band
p63
aVhttp://dbpedia.org/ontology/Group
p64
aVhttp://dbpedia.org/ontology/Organisation
p65
aVhttp://schema.org/MusicGroup
p66
aVhttp://schema.org/Organization
p67
aVhttp://umbel.org/umbel/rc/Band_MusicGroup
p68
aVhttp://umbel.org/umbel/rc/Organization
p69
aVhttp://dbpedia.org/class/yago/YagoPermanentlyLocatedEntity
p70
aVhttp://dbpedia.org/class/yago/MusicalGroupsEstablishedIn1996
p71
aVhttp://dbpedia.org/class/yago/YagoLegalActor
p72
aVhttp://dbpedia.org/class/yago/GoaTranceMusicalGroups
p73
aVhttp://dbpedia.org/resource/Infected_Mushroom
p74
tp75
aa(lp76
a(lp77
a(lp78
a(lp79
a(lp80
a(lp81
aa.