(lp1
(lp2
(lp3
a(lp4
a(lp5
aa(lp6
(lp7
a(lp8
a(lp9
aa(lp10
(lp11
a(lp12
a(lp13
aa(lp14
(lp15
((lp16
Vhttp://dbpedia.org/class/yago/Abstraction100002137
p17
aVhttp://dbpedia.org/class/yago/Assembly108163792
p18
aVhttp://dbpedia.org/class/yago/Gathering107975026
p19
aVhttp://dbpedia.org/class/yago/Group100031264
p20
aVhttp://dbpedia.org/class/yago/Legislature108163273
p21
aVhttp://dbpedia.org/class/yago/SocialGroup107950920
p22
aVhttp://dbpedia.org/class/yago/StateLegislaturesOfNigeria
p23
aVhttp://dbpedia.org/resource/Lagos_State_House_of_Assembly
tp24
aa(lp25
a(lp26
aa(lp27
(lp28
a(lp29
a(lp30
aa(lp31
(lp32
a(lp33
a(lp34
aa(lp35
(lp36
((lp37
Vhttp://dbpedia.org/class/yago/Abstraction100002137
p38
aVhttp://dbpedia.org/class/yago/Assembly108163792
p39
aVhttp://dbpedia.org/class/yago/Gathering107975026
p40
aVhttp://dbpedia.org/class/yago/Group100031264
p41
aVhttp://dbpedia.org/class/yago/Legislature108163273
p42
aVhttp://dbpedia.org/class/yago/SocialGroup107950920
p43
aVhttp://dbpedia.org/class/yago/StateLegislaturesOfNigeria
p44
aVhttp://dbpedia.org/resource/Lagos_State_House_of_Assembly
tp45
aa(lp46
a(lp47
aa(lp48
(lp49
((lp50
Vhttp://dbpedia.org/class/yago/Abstraction100002137
p51
aVhttp://dbpedia.org/class/yago/Assembly108163792
p52
aVhttp://dbpedia.org/class/yago/Gathering107975026
p53
aVhttp://dbpedia.org/class/yago/Group100031264
p54
aVhttp://dbpedia.org/class/yago/Legislature108163273
p55
aVhttp://dbpedia.org/class/yago/SocialGroup107950920
p56
aVhttp://dbpedia.org/class/yago/StateLegislaturesOfNigeria
p57
aVhttp://dbpedia.org/resource/Lagos_State_House_of_Assembly
tp58
aa(lp59
a(lp60
aa(lp61
(lp62
a(lp63
a(lp64
aa(lp65
(lp66
((lp67
Vhttp://dbpedia.org/class/yago/Abstraction100002137
p68
aVhttp://dbpedia.org/class/yago/Assembly108163792
p69
aVhttp://dbpedia.org/class/yago/Gathering107975026
p70
aVhttp://dbpedia.org/class/yago/Group100031264
p71
aVhttp://dbpedia.org/class/yago/Legislature108163273
p72
aVhttp://dbpedia.org/class/yago/SocialGroup107950920
p73
aVhttp://dbpedia.org/class/yago/StateLegislaturesOfNigeria
p74
aVhttp://dbpedia.org/resource/Lagos_State_House_of_Assembly
tp75
aa(lp76
a(lp77
aa(lp78
(lp79
a(lp80
a(lp81
aa(lp82
(lp83
a(lp84
a(lp85
aa(lp86
(lp87
((lp88
Vhttp://dbpedia.org/class/yago/Abstraction100002137
p89
aVhttp://dbpedia.org/class/yago/Assembly108163792
p90
aVhttp://dbpedia.org/class/yago/Gathering107975026
p91
aVhttp://dbpedia.org/class/yago/Group100031264
p92
aVhttp://dbpedia.org/class/yago/Legislature108163273
p93
aVhttp://dbpedia.org/class/yago/SocialGroup107950920
p94
aVhttp://dbpedia.org/class/yago/StateLegislaturesOfNigeria
p95
aVhttp://dbpedia.org/resource/Lagos_State_House_of_Assembly
p96
tp97
aa(lp98
a(lp99
aa(lp100
(lp101
a(lp102
a(lp103
aa(lp104
(lp105
a(lp106
a(lp107
aa(lp108
(lp109
a(lp110
a(lp111
aa(lp112
(lp113
a(lp114
a(lp115
aa(lp116
(lp117
a(lp118
a(lp119
aa(lp120
(lp121
a(lp122
a(lp123
aa.