(lp1
(lp2
(lp3
a(lp4
Vhttp://dbpedia.org/resource/Andre_Wlodarczyk
p5
aa(lp6
Vhttp://dbpedia.org/resource/Andrea_Heuser
p7
aa(lp8
a(lp9
Vhttp://dbpedia.org/resource/Andrea_Tidona
p10
aa(lp11
a(lp12
a(lp13
a(lp14
a(lp15
Vhttp://dbpedia.org/resource/Andrej_Dojkic
p16
aa(lp17
a(lp18
a(lp19
a(lp20
Vhttp://dbpedia.org/resource/Andrew_Sampson
p21
aa(lp22
a(lp23
a(lp24
Vhttp://dbpedia.org/resource/Andy_McMillan_(designer)
p25
aa(lp26
Vhttp://dbpedia.org/resource/Ann_Richards_(singer)
p27
aa(lp28
aa.