(lp1
(lp2
(lp3
a(lp4
a(lp5
aa(lp6
(lp7
Vhttp://dbpedia.org/resource/Amarilli_Nizza
p8
aa(lp9
a(lp10
aa(lp11
(lp12
Vhttp://dbpedia.org/resource/Amber_Kirk-Ford
p13
aa(lp14
a(lp15
aa(lp16
(lp17
Vhttp://dbpedia.org/resource/Ambroise_Abdo
p18
aa(lp19
a(lp20
aa(lp21
(lp22
a(lp23
a(lp24
aa(lp25
(lp26
Vhttp://dbpedia.org/resource/Amos_Yee
p27
aa(lp28
a(lp29
Vhttp://dbpedia.org/resource/Singapore,_Michigan
p30
aaa(lp31
(lp32
Vhttp://dbpedia.org/resource/Amrit_Maghera
p33
aa(lp34
a(lp35
aa(lp36
(lp37
a(lp38
a(lp39
aa(lp40
(lp41
Vhttp://dbpedia.org/resource/Analyn_Barro
p42
aa(lp43
a(lp44
aa(lp45
(lp46
Vhttp://dbpedia.org/resource/Ananda_Shankar_Jayant
p47
aa(lp48
a(lp49
aa(lp50
(lp51
Vhttp://dbpedia.org/resource/Anar_Alizade
p52
aa(lp53
a(lp54
aa(lp55
(lp56
Vhttp://dbpedia.org/resource/Anastasia_Lin
p57
aa(lp58
a(lp59
aa(lp60
(lp61
Vhttp://dbpedia.org/resource/Anders_Hvenare
p62
aa(lp63
a(lp64
aa(lp65
(lp66
a(lp67
a(lp68
aa(lp69
(lp70
a(lp71
a(lp72
aa(lp73
(lp74
a(lp75
a(lp76
aa.