(lp1
(lp2
(lp3
a(lp4
Vhttp://dbpedia.org/resource/Crystal_River_3_Nuclear_Power_Plant
p5
aa(lp6
Vhttp://dbpedia.org/resource/Gibson_Generating_Station
p7
aa(lp8
Vhttp://dbpedia.org/resource/Dresden_Generating_Station
p9
aa(lp10
Vhttp://dbpedia.org/resource/Fisk_Generating_Station
p11
aa(lp12
a(lp13
a(lp14
a(lp15
a(lp16
Vhttp://dbpedia.org/resource/H._B._Robinson_Nuclear_Generating_Station
p17
aa(lp18
Vhttp://dbpedia.org/resource/Oak_Creek_Power_Plant
p19
aa(lp20
Vhttp://dbpedia.org/resource/Independence_Power_Plant
p21
aa(lp22
a(lp23
a(lp24
Vhttp://dbpedia.org/resource/Kr\u0161ko_Nuclear_Power_Plant
p25
aa(lp26
Vhttp://dbpedia.org/resource/Laguna_Verde_Nuclear_Power_Station
p27
aa(lp28
Vhttp://dbpedia.org/resource/Valley_Power_Plant
p29
aa(lp30
a(lp31
Vhttp://dbpedia.org/resource/Wolf_Creek_Generating_Station
p32
aaa.