(lp1
(lp2
(lp3
a(lp4
((lp5
Vhttp://www.w3.org/2002/07/owl#Thing
p6
aVhttp://xmlns.com/foaf/0.1/Person
p7
aVhttp://dbpedia.org/ontology/Person
p8
aVhttp://www.ontologydesignpatterns.org/ont/dul/DUL.owl#Agent
p9
aVhttp://www.ontologydesignpatterns.org/ont/dul/DUL.owl#NaturalPerson
p10
aVhttp://www.wikidata.org/entity/Q215627
p11
aVhttp://www.wikidata.org/entity/Q5
p12
aVhttp://dbpedia.org/ontology/Agent
p13
aVhttp://schema.org/Person
p14
aVhttp://dbpedia.org/resource/Baptiste_Lecaplain
tp15
aa(lp16
aa(lp17
(lp18
a(lp19
((lp20
Vhttp://www.w3.org/2002/07/owl#Thing
p21
aVhttp://xmlns.com/foaf/0.1/Person
p22
aVhttp://dbpedia.org/ontology/Person
p23
aVhttp://www.ontologydesignpatterns.org/ont/dul/DUL.owl#Agent
p24
aVhttp://www.ontologydesignpatterns.org/ont/dul/DUL.owl#NaturalPerson
p25
aVhttp://www.wikidata.org/entity/Q215627
p26
aVhttp://www.wikidata.org/entity/Q5
p27
aVhttp://dbpedia.org/ontology/Agent
p28
aVhttp://schema.org/Person
p29
aVhttp://dbpedia.org/resource/Barbara_Clare_Foley
tp30
aa(lp31
aa(lp32
(lp33
a(lp34
((lp35
Vhttp://www.w3.org/2002/07/owl#Thing
p36
aVhttp://xmlns.com/foaf/0.1/Person
p37
aVhttp://dbpedia.org/ontology/Person
p38
aVhttp://www.ontologydesignpatterns.org/ont/dul/DUL.owl#Agent
p39
aVhttp://www.ontologydesignpatterns.org/ont/dul/DUL.owl#NaturalPerson
p40
aVhttp://www.wikidata.org/entity/Q215627
p41
aVhttp://www.wikidata.org/entity/Q5
p42
aVhttp://dbpedia.org/ontology/Agent
p43
aVhttp://schema.org/Person
p44
aVhttp://dbpedia.org/resource/Barbara_Earl_Thomas
tp45
aa(lp46
aa(lp47
(lp48
a(lp49
a(lp50
aa(lp51
(lp52
a(lp53
((lp54
Vhttp://www.w3.org/2002/07/owl#Thing
p55
aVhttp://xmlns.com/foaf/0.1/Person
p56
aVhttp://dbpedia.org/ontology/Person
p57
aVhttp://www.ontologydesignpatterns.org/ont/dul/DUL.owl#Agent
p58
aVhttp://www.ontologydesignpatterns.org/ont/dul/DUL.owl#NaturalPerson
p59
aVhttp://www.wikidata.org/entity/Q215627
p60
aVhttp://www.wikidata.org/entity/Q5
p61
aVhttp://dbpedia.org/ontology/Agent
p62
aVhttp://schema.org/Person
p63
aVhttp://dbpedia.org/resource/Barbara_Magnolfi
tp64
aa(lp65
aa(lp66
(lp67
a(lp68
((lp69
Vhttp://www.w3.org/2002/07/owl#Thing
p70
aVhttp://xmlns.com/foaf/0.1/Person
p71
aVhttp://dbpedia.org/ontology/Person
p72
aVhttp://www.ontologydesignpatterns.org/ont/dul/DUL.owl#Agent
p73
aVhttp://www.ontologydesignpatterns.org/ont/dul/DUL.owl#NaturalPerson
p74
aVhttp://www.wikidata.org/entity/Q215627
p75
aVhttp://www.wikidata.org/entity/Q5
p76
aVhttp://dbpedia.org/ontology/Agent
p77
aVhttp://schema.org/Person
p78
aVhttp://dbpedia.org/resource/Barbara_Stauffacher_Solomon
tp79
aa(lp80
aa(lp81
(lp82
a(lp83
a(lp84
aa(lp85
(lp86
a(lp87
a(lp88
aa(lp89
(lp90
a(lp91
a(lp92
aa(lp93
(lp94
a(lp95
((lp96
Vhttp://www.w3.org/2002/07/owl#Thing
p97
aVhttp://xmlns.com/foaf/0.1/Person
p98
aVhttp://dbpedia.org/ontology/Person
p99
aVhttp://www.ontologydesignpatterns.org/ont/dul/DUL.owl#Agent
p100
aVhttp://www.ontologydesignpatterns.org/ont/dul/DUL.owl#NaturalPerson
p101
aVhttp://www.wikidata.org/entity/Q215627
p102
aVhttp://www.wikidata.org/entity/Q5
p103
aVhttp://dbpedia.org/ontology/Agent
p104
aVhttp://schema.org/Person
p105
aVhttp://dbpedia.org/resource/Bayyinah_Bello
tp106
aa(lp107
aa(lp108
(lp109
a(lp110
a(lp111
aa(lp112
(lp113
a(lp114
a(lp115
aa(lp116
(lp117
a(lp118
a(lp119
aa(lp120
(lp121
a(lp122
((lp123
Vhttp://www.w3.org/2002/07/owl#Thing
p124
aVhttp://xmlns.com/foaf/0.1/Person
p125
aVhttp://dbpedia.org/ontology/Person
p126
aVhttp://www.ontologydesignpatterns.org/ont/dul/DUL.owl#Agent
p127
aVhttp://www.ontologydesignpatterns.org/ont/dul/DUL.owl#NaturalPerson
p128
aVhttp://www.wikidata.org/entity/Q215627
p129
aVhttp://www.wikidata.org/entity/Q5
p130
aVhttp://dbpedia.org/ontology/Agent
p131
aVhttp://schema.org/Person
p132
aVhttp://dbpedia.org/resource/Bellamy_Hunt
p133
tp134
aa(lp135
aa(lp136
(lp137
a(lp138
a(lp139
aa(lp140
(lp141
a(lp142
a(lp143
aa(lp144
(lp145
a(lp146
a(lp147
aa(lp148
(lp149
a(lp150
a(lp151
aa.