(lp1
(lp2
(lp3
((lp4
Vhttp://dbpedia.org/class/yago/AustralianNetballPlayers
p5
aVhttp://dbpedia.org/class/yago/CausalAgent100007347
p6
aVhttp://dbpedia.org/class/yago/Contestant109613191
p7
aVhttp://dbpedia.org/class/yago/LivingThing100004258
p8
aVhttp://dbpedia.org/class/yago/Object100002684
p9
aVhttp://dbpedia.org/class/yago/Organism100004475
p10
aVhttp://dbpedia.org/class/yago/Person100007846
p11
aVhttp://dbpedia.org/class/yago/Player110439851
p12
aVhttp://dbpedia.org/class/yago/Whole100003553
p13
aVhttp://dbpedia.org/class/yago/YagoLegalActorGeo
p14
aVhttp://www.w3.org/2002/07/owl#Thing
p15
aVhttp://xmlns.com/foaf/0.1/Person
p16
aVhttp://dbpedia.org/ontology/Person
p17
aVhttp://www.ontologydesignpatterns.org/ont/dul/DUL.owl#Agent
p18
aVhttp://www.ontologydesignpatterns.org/ont/dul/DUL.owl#NaturalPerson
p19
aVhttp://www.wikidata.org/entity/Q215627
p20
aVhttp://www.wikidata.org/entity/Q5
p21
aVhttp://dbpedia.org/ontology/Agent
p22
aVhttp://dbpedia.org/ontology/Athlete
p23
aVhttp://dbpedia.org/ontology/NetballPlayer
p24
aVhttp://schema.org/Person
p25
aVhttp://dbpedia.org/class/yago/YagoLegalActor
p26
aVhttp://dbpedia.org/class/yago/LivingPeople
p27
aVhttp://dbpedia.org/class/yago/PhysicalEntity100001930
p28
aVhttp://dbpedia.org/resource/Jessica_Mansell
tp29
aa(lp30
((lp31
Vhttp://dbpedia.org/class/yago/CausalAgent100007347
p32
aVhttp://dbpedia.org/class/yago/Coach109931640
p33
aVhttp://dbpedia.org/class/yago/Contestant109613191
p34
aVhttp://dbpedia.org/class/yago/Leader109623038
p35
aVhttp://dbpedia.org/class/yago/LivingThing100004258
p36
aVhttp://dbpedia.org/class/yago/Object100002684
p37
aVhttp://dbpedia.org/class/yago/Organism100004475
p38
aVhttp://dbpedia.org/class/yago/Person100007846
p39
aVhttp://dbpedia.org/class/yago/Player110439851
p40
aVhttp://dbpedia.org/class/yago/Rival110533013
p41
aVhttp://dbpedia.org/class/yago/Trainer110722575
p42
aVhttp://dbpedia.org/class/yago/Whole100003553
p43
aVhttp://dbpedia.org/class/yago/YagoLegalActorGeo
p44
aVhttp://www.w3.org/2002/07/owl#Thing
p45
aVhttp://xmlns.com/foaf/0.1/Person
p46
aVhttp://dbpedia.org/ontology/Person
p47
aVhttp://www.ontologydesignpatterns.org/ont/dul/DUL.owl#Agent
p48
aVhttp://www.ontologydesignpatterns.org/ont/dul/DUL.owl#NaturalPerson
p49
aVhttp://www.wikidata.org/entity/Q215627
p50
aVhttp://www.wikidata.org/entity/Q5
p51
aVhttp://dbpedia.org/ontology/Agent
p52
aVhttp://dbpedia.org/ontology/Athlete
p53
aVhttp://dbpedia.org/ontology/NetballPlayer
p54
aVhttp://schema.org/Person
p55
aVhttp://dbpedia.org/class/yago/CommonwealthGamesCompetitorsForMalawi
p56
aVhttp://dbpedia.org/class/yago/NetballCoaches
p57
aVhttp://dbpedia.org/class/yago/NetballPlayersAtThe1998CommonwealthGames
p58
aVhttp://dbpedia.org/class/yago/NetballPlayersAtThe2006CommonwealthGames
p59
aVhttp://dbpedia.org/class/yago/NetballPlayersAtThe2010CommonwealthGames
p60
aVhttp://dbpedia.org/class/yago/YagoLegalActor
p61
aVhttp://dbpedia.org/class/yago/LivingPeople
p62
aVhttp://dbpedia.org/class/yago/MalawianNetballPlayers
p63
aVhttp://dbpedia.org/class/yago/PhysicalEntity100001930
p64
aVhttp://dbpedia.org/resource/Mary_Waya
tp65
aa(lp66
((lp67
Vhttp://dbpedia.org/class/yago/CausalAgent100007347
p68
aVhttp://dbpedia.org/class/yago/Contestant109613191
p69
aVhttp://dbpedia.org/class/yago/LivingThing100004258
p70
aVhttp://dbpedia.org/class/yago/Object100002684
p71
aVhttp://dbpedia.org/class/yago/Organism100004475
p72
aVhttp://dbpedia.org/class/yago/Person100007846
p73
aVhttp://dbpedia.org/class/yago/Player110439851
p74
aVhttp://dbpedia.org/class/yago/Whole100003553
p75
aVhttp://dbpedia.org/class/yago/YagoLegalActorGeo
p76
aVhttp://www.w3.org/2002/07/owl#Thing
p77
aVhttp://xmlns.com/foaf/0.1/Person
p78
aVhttp://dbpedia.org/ontology/Person
p79
aVhttp://www.ontologydesignpatterns.org/ont/dul/DUL.owl#Agent
p80
aVhttp://www.ontologydesignpatterns.org/ont/dul/DUL.owl#NaturalPerson
p81
aVhttp://www.wikidata.org/entity/Q215627
p82
aVhttp://www.wikidata.org/entity/Q5
p83
aVhttp://dbpedia.org/ontology/Agent
p84
aVhttp://dbpedia.org/ontology/Athlete
p85
aVhttp://dbpedia.org/ontology/NetballPlayer
p86
aVhttp://schema.org/Person
p87
aVhttp://dbpedia.org/class/yago/NewZealandNetballPlayers
p88
aVhttp://dbpedia.org/class/yago/YagoLegalActor
p89
aVhttp://dbpedia.org/class/yago/LivingPeople
p90
aVhttp://dbpedia.org/class/yago/PhysicalEntity100001930
p91
aVhttp://dbpedia.org/resource/Neesha_Wieser
tp92
aa(lp93
((lp94
Vhttp://dbpedia.org/class/yago/AustralianNetballPlayers
p95
aVhttp://dbpedia.org/class/yago/CausalAgent100007347
p96
aVhttp://dbpedia.org/class/yago/Contestant109613191
p97
aVhttp://dbpedia.org/class/yago/LivingThing100004258
p98
aVhttp://dbpedia.org/class/yago/Object100002684
p99
aVhttp://dbpedia.org/class/yago/Organism100004475
p100
aVhttp://dbpedia.org/class/yago/Person100007846
p101
aVhttp://dbpedia.org/class/yago/Player110439851
p102
aVhttp://dbpedia.org/class/yago/Whole100003553
p103
aVhttp://dbpedia.org/class/yago/YagoLegalActorGeo
p104
aVhttp://www.w3.org/2002/07/owl#Thing
p105
aVhttp://xmlns.com/foaf/0.1/Person
p106
aVhttp://dbpedia.org/ontology/Person
p107
aVhttp://www.ontologydesignpatterns.org/ont/dul/DUL.owl#Agent
p108
aVhttp://www.ontologydesignpatterns.org/ont/dul/DUL.owl#NaturalPerson
p109
aVhttp://www.wikidata.org/entity/Q215627
p110
aVhttp://www.wikidata.org/entity/Q5
p111
aVhttp://dbpedia.org/ontology/Agent
p112
aVhttp://dbpedia.org/ontology/Athlete
p113
aVhttp://dbpedia.org/ontology/NetballPlayer
p114
aVhttp://schema.org/Person
p115
aVhttp://dbpedia.org/class/yago/YagoLegalActor
p116
aVhttp://dbpedia.org/class/yago/LivingPeople
p117
aVhttp://dbpedia.org/class/yago/PhysicalEntity100001930
p118
aVhttp://dbpedia.org/resource/April_Letton
tp119
aa(lp120
((lp121
Vhttp://dbpedia.org/class/yago/CausalAgent100007347
p122
aVhttp://dbpedia.org/class/yago/Contestant109613191
p123
aVhttp://dbpedia.org/class/yago/LivingThing100004258
p124
aVhttp://dbpedia.org/class/yago/Object100002684
p125
aVhttp://dbpedia.org/class/yago/Organism100004475
p126
aVhttp://dbpedia.org/class/yago/Person100007846
p127
aVhttp://dbpedia.org/class/yago/Player110439851
p128
aVhttp://dbpedia.org/class/yago/Rival110533013
p129
aVhttp://dbpedia.org/class/yago/Whole100003553
p130
aVhttp://dbpedia.org/class/yago/YagoLegalActorGeo
p131
aVhttp://dbpedia.org/class/yago/SouthAfricanNetballPlayers
p132
aVhttp://www.w3.org/2002/07/owl#Thing
p133
aVhttp://xmlns.com/foaf/0.1/Person
p134
aVhttp://dbpedia.org/ontology/Person
p135
aVhttp://www.ontologydesignpatterns.org/ont/dul/DUL.owl#Agent
p136
aVhttp://www.ontologydesignpatterns.org/ont/dul/DUL.owl#NaturalPerson
p137
aVhttp://www.wikidata.org/entity/Q215627
p138
aVhttp://www.wikidata.org/entity/Q5
p139
aVhttp://dbpedia.org/ontology/Agent
p140
aVhttp://dbpedia.org/ontology/Athlete
p141
aVhttp://dbpedia.org/ontology/NetballPlayer
p142
aVhttp://schema.org/Person
p143
aVhttp://dbpedia.org/class/yago/CommonwealthGamesCompetitorsForSouthAfrica
p144
aVhttp://dbpedia.org/class/yago/NetballPlayersAtThe2010CommonwealthGames
p145
aVhttp://dbpedia.org/class/yago/YagoLegalActor
p146
aVhttp://dbpedia.org/class/yago/LivingPeople
p147
aVhttp://dbpedia.org/class/yago/PhysicalEntity100001930
p148
aVhttp://dbpedia.org/resource/Chrisna_Bootha
tp149
aa(lp150
((lp151
Vhttp://dbpedia.org/class/yago/CausalAgent100007347
p152
aVhttp://dbpedia.org/class/yago/Contestant109613191
p153
aVhttp://dbpedia.org/class/yago/LivingThing100004258
p154
aVhttp://dbpedia.org/class/yago/Object100002684
p155
aVhttp://dbpedia.org/class/yago/Organism100004475
p156
aVhttp://dbpedia.org/class/yago/Person100007846
p157
aVhttp://dbpedia.org/class/yago/Player110439851
p158
aVhttp://dbpedia.org/class/yago/Whole100003553
p159
aVhttp://dbpedia.org/class/yago/YagoLegalActorGeo
p160
aVhttp://dbpedia.org/class/yago/SouthAfricanNetballPlayers
p161
aVhttp://www.w3.org/2002/07/owl#Thing
p162
aVhttp://xmlns.com/foaf/0.1/Person
p163
aVhttp://dbpedia.org/ontology/Person
p164
aVhttp://www.ontologydesignpatterns.org/ont/dul/DUL.owl#Agent
p165
aVhttp://www.ontologydesignpatterns.org/ont/dul/DUL.owl#NaturalPerson
p166
aVhttp://www.wikidata.org/entity/Q215627
p167
aVhttp://www.wikidata.org/entity/Q5
p168
aVhttp://dbpedia.org/ontology/Agent
p169
aVhttp://dbpedia.org/ontology/Athlete
p170
aVhttp://dbpedia.org/ontology/NetballPlayer
p171
aVhttp://schema.org/Person
p172
aVhttp://dbpedia.org/class/yago/YagoLegalActor
p173
aVhttp://dbpedia.org/class/yago/LivingPeople
p174
aVhttp://dbpedia.org/class/yago/PhysicalEntity100001930
p175
aVhttp://dbpedia.org/resource/Thuli_Qegu
tp176
aa(lp177
((lp178
Vhttp://dbpedia.org/class/yago/AustralianNetballPlayers
p179
aVhttp://dbpedia.org/class/yago/CausalAgent100007347
p180
aVhttp://dbpedia.org/class/yago/Contestant109613191
p181
aVhttp://dbpedia.org/class/yago/LivingThing100004258
p182
aVhttp://dbpedia.org/class/yago/Object100002684
p183
aVhttp://dbpedia.org/class/yago/Organism100004475
p184
aVhttp://dbpedia.org/class/yago/Person100007846
p185
aVhttp://dbpedia.org/class/yago/Player110439851
p186
aVhttp://dbpedia.org/class/yago/Whole100003553
p187
aVhttp://dbpedia.org/class/yago/YagoLegalActorGeo
p188
aVhttp://www.w3.org/2002/07/owl#Thing
p189
aVhttp://xmlns.com/foaf/0.1/Person
p190
aVhttp://dbpedia.org/ontology/Person
p191
aVhttp://www.ontologydesignpatterns.org/ont/dul/DUL.owl#Agent
p192
aVhttp://www.ontologydesignpatterns.org/ont/dul/DUL.owl#NaturalPerson
p193
aVhttp://www.wikidata.org/entity/Q215627
p194
aVhttp://www.wikidata.org/entity/Q5
p195
aVhttp://dbpedia.org/ontology/Agent
p196
aVhttp://dbpedia.org/ontology/Athlete
p197
aVhttp://dbpedia.org/ontology/NetballPlayer
p198
aVhttp://schema.org/Person
p199
aVhttp://dbpedia.org/class/yago/YagoLegalActor
p200
aVhttp://dbpedia.org/class/yago/LivingPeople
p201
aVhttp://dbpedia.org/class/yago/PhysicalEntity100001930
p202
aVhttp://dbpedia.org/resource/Brooke_Thompson
tp203
aa(lp204
((lp205
Vhttp://dbpedia.org/class/yago/AustralianNetballPlayers
p206
aVhttp://dbpedia.org/class/yago/CausalAgent100007347
p207
aVhttp://dbpedia.org/class/yago/Contestant109613191
p208
aVhttp://dbpedia.org/class/yago/LivingThing100004258
p209
aVhttp://dbpedia.org/class/yago/Medalist110305062
p210
aVhttp://dbpedia.org/class/yago/Object100002684
p211
aVhttp://dbpedia.org/class/yago/Organism100004475
p212
aVhttp://dbpedia.org/class/yago/Person100007846
p213
aVhttp://dbpedia.org/class/yago/Player110439851
p214
aVhttp://dbpedia.org/class/yago/Rival110533013
p215
aVhttp://dbpedia.org/class/yago/Whole100003553
p216
aVhttp://dbpedia.org/class/yago/YagoLegalActorGeo
p217
aVhttp://www.w3.org/2002/07/owl#Thing
p218
aVhttp://xmlns.com/foaf/0.1/Person
p219
aVhttp://dbpedia.org/ontology/Person
p220
aVhttp://www.ontologydesignpatterns.org/ont/dul/DUL.owl#Agent
p221
aVhttp://www.ontologydesignpatterns.org/ont/dul/DUL.owl#NaturalPerson
p222
aVhttp://www.wikidata.org/entity/Q215627
p223
aVhttp://www.wikidata.org/entity/Q5
p224
aVhttp://dbpedia.org/ontology/Agent
p225
aVhttp://dbpedia.org/ontology/Athlete
p226
aVhttp://dbpedia.org/ontology/NetballPlayer
p227
aVhttp://schema.org/Person
p228
aVhttp://dbpedia.org/class/yago/CommonwealthGamesCompetitorsForAustralia
p229
aVhttp://dbpedia.org/class/yago/CommonwealthGamesSilverMedallistsForAustralia
p230
aVhttp://dbpedia.org/class/yago/NetballPlayersAtThe2006CommonwealthGames
p231
aVhttp://dbpedia.org/class/yago/YagoLegalActor
p232
aVhttp://dbpedia.org/class/yago/LivingPeople
p233
aVhttp://dbpedia.org/class/yago/PhysicalEntity100001930
p234
aVhttp://dbpedia.org/class/yago/Winner110782940
p235
aVhttp://dbpedia.org/resource/Natalie_Avellino
tp236
aa(lp237
((lp238
Vhttp://dbpedia.org/class/yago/AdelaideThunderbirdsPlayers
p239
aVhttp://dbpedia.org/class/yago/AustralianNetballPlayers
p240
aVhttp://dbpedia.org/class/yago/CausalAgent100007347
p241
aVhttp://dbpedia.org/class/yago/Contestant109613191
p242
aVhttp://dbpedia.org/class/yago/LivingThing100004258
p243
aVhttp://dbpedia.org/class/yago/Object100002684
p244
aVhttp://dbpedia.org/class/yago/Organism100004475
p245
aVhttp://dbpedia.org/class/yago/Person100007846
p246
aVhttp://dbpedia.org/class/yago/Player110439851
p247
aVhttp://dbpedia.org/class/yago/Whole100003553
p248
aVhttp://dbpedia.org/class/yago/YagoLegalActorGeo
p249
aVhttp://www.w3.org/2002/07/owl#Thing
p250
aVhttp://xmlns.com/foaf/0.1/Person
p251
aVhttp://dbpedia.org/ontology/Person
p252
aVhttp://www.ontologydesignpatterns.org/ont/dul/DUL.owl#Agent
p253
aVhttp://www.ontologydesignpatterns.org/ont/dul/DUL.owl#NaturalPerson
p254
aVhttp://www.wikidata.org/entity/Q215627
p255
aVhttp://www.wikidata.org/entity/Q5
p256
aVhttp://dbpedia.org/ontology/Agent
p257
aVhttp://dbpedia.org/ontology/Athlete
p258
aVhttp://dbpedia.org/ontology/NetballPlayer
p259
aVhttp://schema.org/Person
p260
aVhttp://dbpedia.org/class/yago/PeopleFromPerth,WesternAustralia
p261
aVhttp://dbpedia.org/class/yago/YagoLegalActor
p262
aVhttp://dbpedia.org/class/yago/LivingPeople
p263
aVhttp://dbpedia.org/class/yago/PhysicalEntity100001930
p264
aVhttp://dbpedia.org/class/yago/WestCoastFeverPlayers
p265
aVhttp://dbpedia.org/resource/Jasmine_Keene
tp266
aa(lp267
((lp268
Vhttp://dbpedia.org/class/yago/AustralianNetballPlayers
p269
aVhttp://dbpedia.org/class/yago/CausalAgent100007347
p270
aVhttp://dbpedia.org/class/yago/Contestant109613191
p271
aVhttp://dbpedia.org/class/yago/LivingThing100004258
p272
aVhttp://dbpedia.org/class/yago/Medalist110305062
p273
aVhttp://dbpedia.org/class/yago/Object100002684
p274
aVhttp://dbpedia.org/class/yago/Organism100004475
p275
aVhttp://dbpedia.org/class/yago/Person100007846
p276
aVhttp://dbpedia.org/class/yago/Player110439851
p277
aVhttp://dbpedia.org/class/yago/Whole100003553
p278
aVhttp://dbpedia.org/class/yago/YagoLegalActorGeo
p279
aVhttp://www.w3.org/2002/07/owl#Thing
p280
aVhttp://xmlns.com/foaf/0.1/Person
p281
aVhttp://dbpedia.org/ontology/Person
p282
aVhttp://www.ontologydesignpatterns.org/ont/dul/DUL.owl#Agent
p283
aVhttp://www.ontologydesignpatterns.org/ont/dul/DUL.owl#NaturalPerson
p284
aVhttp://www.wikidata.org/entity/Q215627
p285
aVhttp://www.wikidata.org/entity/Q5
p286
aVhttp://dbpedia.org/ontology/Agent
p287
aVhttp://dbpedia.org/ontology/Athlete
p288
aVhttp://dbpedia.org/ontology/NetballPlayer
p289
aVhttp://schema.org/Person
p290
aVhttp://dbpedia.org/class/yago/CommonwealthGamesSilverMedallistsForAustralia
p291
aVhttp://dbpedia.org/class/yago/NetballPlayersAtThe2006CommonwealthGames
p292
aVhttp://dbpedia.org/class/yago/YagoLegalActor
p293
aVhttp://dbpedia.org/class/yago/LivingPeople
p294
aVhttp://dbpedia.org/class/yago/PhysicalEntity100001930
p295
aVhttp://dbpedia.org/class/yago/Winner110782940
p296
aVhttp://dbpedia.org/resource/Jessica_Shynn
tp297
aa(lp298
((lp299
Vhttp://dbpedia.org/class/yago/CanterburyTactixPlayers
p300
aVhttp://dbpedia.org/class/yago/CausalAgent100007347
p301
aVhttp://dbpedia.org/class/yago/Contestant109613191
p302
aVhttp://dbpedia.org/class/yago/LivingThing100004258
p303
aVhttp://dbpedia.org/class/yago/Object100002684
p304
aVhttp://dbpedia.org/class/yago/Organism100004475
p305
aVhttp://dbpedia.org/class/yago/Person100007846
p306
aVhttp://dbpedia.org/class/yago/Player110439851
p307
aVhttp://dbpedia.org/class/yago/Whole100003553
p308
aVhttp://dbpedia.org/class/yago/YagoLegalActorGeo
p309
aVhttp://dbpedia.org/class/yago/SouthernSteelPlayers
p310
aVhttp://www.w3.org/2002/07/owl#Thing
p311
aVhttp://xmlns.com/foaf/0.1/Person
p312
aVhttp://dbpedia.org/ontology/Person
p313
aVhttp://www.ontologydesignpatterns.org/ont/dul/DUL.owl#Agent
p314
aVhttp://www.ontologydesignpatterns.org/ont/dul/DUL.owl#NaturalPerson
p315
aVhttp://www.wikidata.org/entity/Q215627
p316
aVhttp://www.wikidata.org/entity/Q5
p317
aVhttp://dbpedia.org/ontology/Agent
p318
aVhttp://dbpedia.org/ontology/Athlete
p319
aVhttp://dbpedia.org/ontology/NetballPlayer
p320
aVhttp://schema.org/Person
p321
aVhttp://dbpedia.org/class/yago/NewZealandNetballPlayers
p322
aVhttp://dbpedia.org/class/yago/PeopleFromChristchurch
p323
aVhttp://dbpedia.org/class/yago/YagoLegalActor
p324
aVhttp://dbpedia.org/class/yago/LivingPeople
p325
aVhttp://dbpedia.org/class/yago/PhysicalEntity100001930
p326
aVhttp://dbpedia.org/resource/Megan_Hutton
tp327
aa(lp328
((lp329
Vhttp://dbpedia.org/class/yago/AustralianNetballPlayers
p330
aVhttp://dbpedia.org/class/yago/CausalAgent100007347
p331
aVhttp://dbpedia.org/class/yago/Contestant109613191
p332
aVhttp://dbpedia.org/class/yago/LivingThing100004258
p333
aVhttp://dbpedia.org/class/yago/Object100002684
p334
aVhttp://dbpedia.org/class/yago/Organism100004475
p335
aVhttp://dbpedia.org/class/yago/Person100007846
p336
aVhttp://dbpedia.org/class/yago/Player110439851
p337
aVhttp://dbpedia.org/class/yago/Whole100003553
p338
aVhttp://dbpedia.org/class/yago/YagoLegalActorGeo
p339
aVhttp://www.w3.org/2002/07/owl#Thing
p340
aVhttp://xmlns.com/foaf/0.1/Person
p341
aVhttp://dbpedia.org/ontology/Person
p342
aVhttp://www.ontologydesignpatterns.org/ont/dul/DUL.owl#Agent
p343
aVhttp://www.ontologydesignpatterns.org/ont/dul/DUL.owl#NaturalPerson
p344
aVhttp://www.wikidata.org/entity/Q215627
p345
aVhttp://www.wikidata.org/entity/Q5
p346
aVhttp://dbpedia.org/ontology/Agent
p347
aVhttp://dbpedia.org/ontology/Athlete
p348
aVhttp://dbpedia.org/ontology/NetballPlayer
p349
aVhttp://schema.org/Person
p350
aVhttp://dbpedia.org/class/yago/YagoLegalActor
p351
aVhttp://dbpedia.org/class/yago/LivingPeople
p352
aVhttp://dbpedia.org/class/yago/PhysicalEntity100001930
p353
aVhttp://dbpedia.org/resource/Amanda_Burton_(netballer)
tp354
aa(lp355
((lp356
Vhttp://dbpedia.org/class/yago/AustralianNetballPlayers
p357
aVhttp://dbpedia.org/class/yago/CausalAgent100007347
p358
aVhttp://dbpedia.org/class/yago/Contestant109613191
p359
aVhttp://dbpedia.org/class/yago/LivingThing100004258
p360
aVhttp://dbpedia.org/class/yago/Medalist110305062
p361
aVhttp://dbpedia.org/class/yago/Object100002684
p362
aVhttp://dbpedia.org/class/yago/Organism100004475
p363
aVhttp://dbpedia.org/class/yago/Person100007846
p364
aVhttp://dbpedia.org/class/yago/Player110439851
p365
aVhttp://dbpedia.org/class/yago/Whole100003553
p366
aVhttp://dbpedia.org/class/yago/YagoLegalActorGeo
p367
aVhttp://www.w3.org/2002/07/owl#Thing
p368
aVhttp://xmlns.com/foaf/0.1/Person
p369
aVhttp://dbpedia.org/ontology/Person
p370
aVhttp://www.ontologydesignpatterns.org/ont/dul/DUL.owl#Agent
p371
aVhttp://www.ontologydesignpatterns.org/ont/dul/DUL.owl#NaturalPerson
p372
aVhttp://www.wikidata.org/entity/Q215627
p373
aVhttp://www.wikidata.org/entity/Q5
p374
aVhttp://dbpedia.org/ontology/Agent
p375
aVhttp://dbpedia.org/ontology/Athlete
p376
aVhttp://dbpedia.org/ontology/NetballPlayer
p377
aVhttp://schema.org/Person
p378
aVhttp://dbpedia.org/class/yago/CommonwealthGamesGoldMedallistsForAustralia
p379
aVhttp://dbpedia.org/class/yago/CommonwealthGamesSilverMedallistsForAustralia
p380
aVhttp://dbpedia.org/class/yago/NetballPlayersAtThe1998CommonwealthGames
p381
aVhttp://dbpedia.org/class/yago/NetballPlayersAtThe2002CommonwealthGames
p382
aVhttp://dbpedia.org/class/yago/NetballPlayersAtThe2006CommonwealthGames
p383
aVhttp://dbpedia.org/class/yago/YagoLegalActor
p384
aVhttp://dbpedia.org/class/yago/LivingPeople
p385
aVhttp://dbpedia.org/class/yago/PhysicalEntity100001930
p386
aVhttp://dbpedia.org/class/yago/Winner110782940
p387
aVhttp://dbpedia.org/resource/Janine_Ilitch
tp388
aa(lp389
((lp390
Vhttp://dbpedia.org/class/yago/AustralianNetballPlayers
p391
aVhttp://dbpedia.org/class/yago/CausalAgent100007347
p392
aVhttp://dbpedia.org/class/yago/Contestant109613191
p393
aVhttp://dbpedia.org/class/yago/LivingThing100004258
p394
aVhttp://dbpedia.org/class/yago/Medalist110305062
p395
aVhttp://dbpedia.org/class/yago/Object100002684
p396
aVhttp://dbpedia.org/class/yago/Organism100004475
p397
aVhttp://dbpedia.org/class/yago/Person100007846
p398
aVhttp://dbpedia.org/class/yago/Player110439851
p399
aVhttp://dbpedia.org/class/yago/Whole100003553
p400
aVhttp://dbpedia.org/class/yago/YagoLegalActorGeo
p401
aVhttp://www.w3.org/2002/07/owl#Thing
p402
aVhttp://xmlns.com/foaf/0.1/Person
p403
aVhttp://dbpedia.org/ontology/Person
p404
aVhttp://www.ontologydesignpatterns.org/ont/dul/DUL.owl#Agent
p405
aVhttp://www.ontologydesignpatterns.org/ont/dul/DUL.owl#NaturalPerson
p406
aVhttp://www.wikidata.org/entity/Q215627
p407
aVhttp://www.wikidata.org/entity/Q5
p408
aVhttp://dbpedia.org/ontology/Agent
p409
aVhttp://dbpedia.org/ontology/Athlete
p410
aVhttp://dbpedia.org/ontology/NetballPlayer
p411
aVhttp://schema.org/Person
p412
aVhttp://dbpedia.org/class/yago/CommonwealthGamesGoldMedallistsForAustralia
p413
aVhttp://dbpedia.org/class/yago/NetballPlayersAtThe1998CommonwealthGames
p414
aVhttp://dbpedia.org/class/yago/NetballPlayersAtThe2002CommonwealthGames
p415
aVhttp://dbpedia.org/class/yago/YagoLegalActor
p416
aVhttp://dbpedia.org/class/yago/LivingPeople
p417
aVhttp://dbpedia.org/class/yago/PhysicalEntity100001930
p418
aVhttp://dbpedia.org/class/yago/Winner110782940
p419
aVhttp://dbpedia.org/resource/Kathryn_Harby-Williams
tp420
aa(lp421
((lp422
Vhttp://dbpedia.org/class/yago/AustralianNetballPlayers
p423
aVhttp://dbpedia.org/class/yago/CausalAgent100007347
p424
aVhttp://dbpedia.org/class/yago/Contestant109613191
p425
aVhttp://dbpedia.org/class/yago/LivingThing100004258
p426
aVhttp://dbpedia.org/class/yago/Medalist110305062
p427
aVhttp://dbpedia.org/class/yago/Object100002684
p428
aVhttp://dbpedia.org/class/yago/Organism100004475
p429
aVhttp://dbpedia.org/class/yago/Person100007846
p430
aVhttp://dbpedia.org/class/yago/Player110439851
p431
aVhttp://dbpedia.org/class/yago/Whole100003553
p432
aVhttp://dbpedia.org/class/yago/YagoLegalActorGeo
p433
aVhttp://www.w3.org/2002/07/owl#Thing
p434
aVhttp://xmlns.com/foaf/0.1/Person
p435
aVhttp://dbpedia.org/ontology/Person
p436
aVhttp://www.ontologydesignpatterns.org/ont/dul/DUL.owl#Agent
p437
aVhttp://www.ontologydesignpatterns.org/ont/dul/DUL.owl#NaturalPerson
p438
aVhttp://www.wikidata.org/entity/Q215627
p439
aVhttp://www.wikidata.org/entity/Q5
p440
aVhttp://dbpedia.org/ontology/Agent
p441
aVhttp://dbpedia.org/ontology/Athlete
p442
aVhttp://dbpedia.org/ontology/NetballPlayer
p443
aVhttp://schema.org/Person
p444
aVhttp://dbpedia.org/class/yago/CommonwealthGamesGoldMedallistsForAustralia
p445
aVhttp://dbpedia.org/class/yago/NetballPlayersAtThe1998CommonwealthGames
p446
aVhttp://dbpedia.org/class/yago/YagoLegalActor
p447
aVhttp://dbpedia.org/class/yago/LivingPeople
p448
aVhttp://dbpedia.org/class/yago/PhysicalEntity100001930
p449
aVhttp://dbpedia.org/class/yago/Winner110782940
p450
aVhttp://dbpedia.org/resource/Shelley_O'Donnell
tp451
aa(lp452
((lp453
Vhttp://dbpedia.org/class/yago/AustralianNetballPlayers
p454
aVhttp://dbpedia.org/class/yago/CausalAgent100007347
p455
aVhttp://dbpedia.org/class/yago/Contestant109613191
p456
aVhttp://dbpedia.org/class/yago/LivingThing100004258
p457
aVhttp://dbpedia.org/class/yago/Object100002684
p458
aVhttp://dbpedia.org/class/yago/Organism100004475
p459
aVhttp://dbpedia.org/class/yago/Person100007846
p460
aVhttp://dbpedia.org/class/yago/Player110439851
p461
aVhttp://dbpedia.org/class/yago/Whole100003553
p462
aVhttp://dbpedia.org/class/yago/YagoLegalActorGeo
p463
aVhttp://www.w3.org/2002/07/owl#Thing
p464
aVhttp://xmlns.com/foaf/0.1/Person
p465
aVhttp://dbpedia.org/ontology/Person
p466
aVhttp://www.ontologydesignpatterns.org/ont/dul/DUL.owl#Agent
p467
aVhttp://www.ontologydesignpatterns.org/ont/dul/DUL.owl#NaturalPerson
p468
aVhttp://www.wikidata.org/entity/Q215627
p469
aVhttp://www.wikidata.org/entity/Q5
p470
aVhttp://dbpedia.org/ontology/Agent
p471
aVhttp://dbpedia.org/ontology/Athlete
p472
aVhttp://dbpedia.org/ontology/NetballPlayer
p473
aVhttp://schema.org/Person
p474
aVhttp://dbpedia.org/class/yago/YagoLegalActor
p475
aVhttp://dbpedia.org/class/yago/LivingPeople
p476
aVhttp://dbpedia.org/class/yago/PhysicalEntity100001930
p477
aVhttp://dbpedia.org/resource/Chelsey_Tregear
tp478
aa(lp479
((lp480
Vhttp://dbpedia.org/class/yago/CausalAgent100007347
p481
aVhttp://dbpedia.org/class/yago/Coach109931640
p482
aVhttp://dbpedia.org/class/yago/Contestant109613191
p483
aVhttp://dbpedia.org/class/yago/Leader109623038
p484
aVhttp://dbpedia.org/class/yago/LivingThing100004258
p485
aVhttp://dbpedia.org/class/yago/Object100002684
p486
aVhttp://dbpedia.org/class/yago/Organism100004475
p487
aVhttp://dbpedia.org/class/yago/Person100007846
p488
aVhttp://dbpedia.org/class/yago/Player110439851
p489
aVhttp://dbpedia.org/class/yago/Trainer110722575
p490
aVhttp://dbpedia.org/class/yago/Whole100003553
p491
aVhttp://dbpedia.org/class/yago/YagoLegalActorGeo
p492
aVhttp://www.w3.org/2002/07/owl#Thing
p493
aVhttp://xmlns.com/foaf/0.1/Person
p494
aVhttp://dbpedia.org/ontology/Person
p495
aVhttp://www.ontologydesignpatterns.org/ont/dul/DUL.owl#Agent
p496
aVhttp://www.ontologydesignpatterns.org/ont/dul/DUL.owl#NaturalPerson
p497
aVhttp://www.wikidata.org/entity/Q215627
p498
aVhttp://www.wikidata.org/entity/Q5
p499
aVhttp://dbpedia.org/ontology/Agent
p500
aVhttp://dbpedia.org/ontology/Athlete
p501
aVhttp://dbpedia.org/ontology/NetballPlayer
p502
aVhttp://schema.org/Person
p503
aVhttp://dbpedia.org/class/yago/NewZealandInternationalNetballPlayers
p504
aVhttp://dbpedia.org/class/yago/NewZealandNetballCoaches
p505
aVhttp://dbpedia.org/class/yago/YagoLegalActor
p506
aVhttp://dbpedia.org/class/yago/LivingPeople
p507
aVhttp://dbpedia.org/class/yago/PhysicalEntity100001930
p508
aVhttp://dbpedia.org/resource/Debbie_Fuller_(netball)
tp509
aa(lp510
((lp511
Vhttp://dbpedia.org/class/yago/CausalAgent100007347
p512
aVhttp://dbpedia.org/class/yago/Contestant109613191
p513
aVhttp://dbpedia.org/class/yago/LivingThing100004258
p514
aVhttp://dbpedia.org/class/yago/Object100002684
p515
aVhttp://dbpedia.org/class/yago/Organism100004475
p516
aVhttp://dbpedia.org/class/yago/Person100007846
p517
aVhttp://dbpedia.org/class/yago/Player110439851
p518
aVhttp://dbpedia.org/class/yago/Whole100003553
p519
aVhttp://dbpedia.org/class/yago/YagoLegalActorGeo
p520
aVhttp://www.w3.org/2002/07/owl#Thing
p521
aVhttp://xmlns.com/foaf/0.1/Person
p522
aVhttp://dbpedia.org/ontology/Person
p523
aVhttp://www.ontologydesignpatterns.org/ont/dul/DUL.owl#Agent
p524
aVhttp://www.ontologydesignpatterns.org/ont/dul/DUL.owl#NaturalPerson
p525
aVhttp://www.wikidata.org/entity/Q215627
p526
aVhttp://www.wikidata.org/entity/Q5
p527
aVhttp://dbpedia.org/ontology/Agent
p528
aVhttp://dbpedia.org/ontology/Athlete
p529
aVhttp://dbpedia.org/ontology/NetballPlayer
p530
aVhttp://schema.org/Person
p531
aVhttp://dbpedia.org/class/yago/NewZealandNetballPlayers
p532
aVhttp://dbpedia.org/class/yago/YagoLegalActor
p533
aVhttp://dbpedia.org/class/yago/LivingPeople
p534
aVhttp://dbpedia.org/class/yago/PhysicalEntity100001930
p535
aVhttp://dbpedia.org/resource/Amigene_Metcalfe
tp536
aa(lp537
((lp538
Vhttp://dbpedia.org/class/yago/CausalAgent100007347
p539
aVhttp://dbpedia.org/class/yago/Contestant109613191
p540
aVhttp://dbpedia.org/class/yago/LivingThing100004258
p541
aVhttp://dbpedia.org/class/yago/Object100002684
p542
aVhttp://dbpedia.org/class/yago/Organism100004475
p543
aVhttp://dbpedia.org/class/yago/Person100007846
p544
aVhttp://dbpedia.org/class/yago/Player110439851
p545
aVhttp://dbpedia.org/class/yago/Whole100003553
p546
aVhttp://dbpedia.org/class/yago/YagoLegalActorGeo
p547
aVhttp://www.w3.org/2002/07/owl#Thing
p548
aVhttp://xmlns.com/foaf/0.1/Person
p549
aVhttp://dbpedia.org/ontology/Person
p550
aVhttp://www.ontologydesignpatterns.org/ont/dul/DUL.owl#Agent
p551
aVhttp://www.ontologydesignpatterns.org/ont/dul/DUL.owl#NaturalPerson
p552
aVhttp://www.wikidata.org/entity/Q215627
p553
aVhttp://www.wikidata.org/entity/Q5
p554
aVhttp://dbpedia.org/ontology/Agent
p555
aVhttp://dbpedia.org/ontology/Athlete
p556
aVhttp://dbpedia.org/ontology/NetballPlayer
p557
aVhttp://schema.org/Person
p558
aVhttp://dbpedia.org/class/yago/NewZealandNetballPlayers
p559
aVhttp://dbpedia.org/class/yago/YagoLegalActor
p560
aVhttp://dbpedia.org/class/yago/LivingPeople
p561
aVhttp://dbpedia.org/class/yago/PhysicalEntity100001930
p562
aVhttp://dbpedia.org/resource/Angelina_Yates
p563
tp564
aaa.