(lp1
(lp2
(lp3
a(lp4
((lp5
Vhttp://dbpedia.org/class/yago/Location100027167
p6
aVhttp://dbpedia.org/class/yago/Object100002684
p7
aVhttp://dbpedia.org/class/yago/Region108630985
p8
aVhttp://dbpedia.org/class/yago/Site108651247
p9
aVhttp://dbpedia.org/class/yago/Tract108673395
p10
aVhttp://dbpedia.org/class/yago/YagoGeoEntity
p11
aVhttp://dbpedia.org/class/yago/YagoLegalActorGeo
p12
aVhttp://dbpedia.org/class/yago/PopulatedPlacesInMadagascar
p13
aVhttp://www.w3.org/2003/01/geo/wgs84_pos#SpatialThing
p14
aVhttp://dbpedia.org/class/yago/YagoPermanentlyLocatedEntity
p15
aVhttp://dbpedia.org/class/yago/GeographicalArea108574314
p16
aVhttp://dbpedia.org/class/yago/PhysicalEntity100001930
p17
aVhttp://dbpedia.org/resource/Ampitsikinana
tp18
aa(lp19
((lp20
Vhttp://dbpedia.org/class/yago/Location100027167
p21
aVhttp://dbpedia.org/class/yago/Object100002684
p22
aVhttp://dbpedia.org/class/yago/Region108630985
p23
aVhttp://dbpedia.org/class/yago/Site108651247
p24
aVhttp://dbpedia.org/class/yago/Tract108673395
p25
aVhttp://dbpedia.org/class/yago/YagoGeoEntity
p26
aVhttp://dbpedia.org/class/yago/YagoLegalActorGeo
p27
aVhttp://dbpedia.org/class/yago/PopulatedPlacesInMadagascar
p28
aVhttp://www.w3.org/2003/01/geo/wgs84_pos#SpatialThing
p29
aVhttp://dbpedia.org/class/yago/YagoPermanentlyLocatedEntity
p30
aVhttp://dbpedia.org/class/yago/GeographicalArea108574314
p31
aVhttp://dbpedia.org/class/yago/PhysicalEntity100001930
p32
aVhttp://dbpedia.org/resource/Ampombiantambo
tp33
aa(lp34
a(lp35
a(lp36
a(lp37
a(lp38
a(lp39
a(lp40
((lp41
Vhttp://dbpedia.org/class/yago/Location100027167
p42
aVhttp://dbpedia.org/class/yago/Object100002684
p43
aVhttp://dbpedia.org/class/yago/Region108630985
p44
aVhttp://dbpedia.org/class/yago/Site108651247
p45
aVhttp://dbpedia.org/class/yago/Tract108673395
p46
aVhttp://dbpedia.org/class/yago/YagoGeoEntity
p47
aVhttp://dbpedia.org/class/yago/YagoLegalActorGeo
p48
aVhttp://dbpedia.org/class/yago/PopulatedPlacesInNorthKorea
p49
aVhttp://www.w3.org/2003/01/geo/wgs84_pos#SpatialThing
p50
aVhttp://dbpedia.org/class/yago/YagoPermanentlyLocatedEntity
p51
aVhttp://dbpedia.org/class/yago/GeographicalArea108574314
p52
aVhttp://dbpedia.org/class/yago/PhysicalEntity100001930
p53
aVhttp://dbpedia.org/resource/Amsil
p54
tp55
aa(lp56
a(lp57
a(lp58
a(lp59
a(lp60
a(lp61
a(lp62
a(lp63
a(lp64
aa.