(lp1
(lp2
(lp3
a(lp4
a(lp5
a(lp6
a(lp7
a(lp8
a(lp9
a(lp10
a(lp11
a(lp12
a(lp13
((lVhttp://dbpedia.org/resource/Fiesta_Nacional_de_Espa%C3%B1a
tp14
aa(lp15
a(lp16
a(lp17
((lp18
Vhttp://dbpedia.org/class/yago/Adult109605289
p19
aVhttp://dbpedia.org/class/yago/AmericanActivists
p20
aVhttp://dbpedia.org/class/yago/AmericanAtheists
p21
aVhttp://dbpedia.org/class/yago/AmericanPeopleOfEnglishDescent
p22
aVhttp://dbpedia.org/class/yago/AmericanPeopleOfIrishDescent
p23
aVhttp://dbpedia.org/class/yago/AmericanPeopleOfScottishDescent
p24
aVhttp://dbpedia.org/class/yago/AmericanPoliticalPundits
p25
aVhttp://dbpedia.org/class/yago/AmericanTalkRadioHosts
p26
aVhttp://dbpedia.org/class/yago/AmericanTelevisionJournalists
p27
aVhttp://dbpedia.org/class/yago/AmericanTelevisionTalkShowHosts
p28
aVhttp://dbpedia.org/class/yago/Atheist109820044
p29
aVhttp://dbpedia.org/class/yago/CausalAgent100007347
p30
aVhttp://dbpedia.org/class/yago/Child109917593
p31
aVhttp://dbpedia.org/class/yago/Communicator109610660
p32
aVhttp://dbpedia.org/class/yago/Disbeliever110015897
p33
aVhttp://dbpedia.org/class/yago/Disputant109615465
p34
aVhttp://dbpedia.org/class/yago/Host110187130
p35
aVhttp://dbpedia.org/class/yago/Initiate110206887
p36
aVhttp://dbpedia.org/class/yago/Intellectual109621545
p37
aVhttp://dbpedia.org/class/yago/Journalist110224578
p38
aVhttp://dbpedia.org/class/yago/Juvenile109622049
p39
aVhttp://dbpedia.org/class/yago/LivingThing100004258
p40
aVhttp://dbpedia.org/class/yago/Militant110315837
p41
aVhttp://dbpedia.org/class/yago/NonreligiousPerson109625789
p42
aVhttp://dbpedia.org/class/yago/Object100002684
p43
aVhttp://dbpedia.org/class/yago/Organism100004475
p44
aVhttp://dbpedia.org/class/yago/Person100007846
p45
aVhttp://dbpedia.org/class/yago/Reformer110515194
p46
aVhttp://dbpedia.org/class/yago/Scholar110557854
p47
aVhttp://dbpedia.org/class/yago/Whole100003553
p48
aVhttp://dbpedia.org/class/yago/Writer110794014
p49
aVhttp://dbpedia.org/class/yago/YagoLegalActorGeo
p50
aVhttp://www.w3.org/2002/07/owl#Thing
p51
aVhttp://xmlns.com/foaf/0.1/Person
p52
aVhttp://dbpedia.org/ontology/Person
p53
aVhttp://www.ontologydesignpatterns.org/ont/dul/DUL.owl#Agent
p54
aVhttp://www.ontologydesignpatterns.org/ont/dul/DUL.owl#NaturalPerson
p55
aVhttp://www.wikidata.org/entity/Q215627
p56
aVhttp://www.wikidata.org/entity/Q5
p57
aVhttp://dbpedia.org/ontology/Agent
p58
aVhttp://schema.org/Person
p59
aVhttp://umbel.org/umbel/rc/PersonWithOccupation
p60
aVhttp://dbpedia.org/class/yago/ChildrenOfPresidentsOfTheUnitedStates
p61
aVhttp://dbpedia.org/class/yago/PeopleFromLosAngeles,California
p62
aVhttp://dbpedia.org/class/yago/PeopleFromSeattle,Washington
p63
aVhttp://dbpedia.org/class/yago/YagoLegalActor
p64
aVhttp://dbpedia.org/class/yago/LivingPeople
p65
aVhttp://dbpedia.org/class/yago/PhysicalEntity100001930
p66
aVhttp://dbpedia.org/class/yago/WritersFromCalifornia
p67
aVhttp://dbpedia.org/class/yago/WritersFromSeattle,Washington
p68
aVhttp://dbpedia.org/resource/Ron_Reagan
tp69
aa(lp70
a(lp71
a(lp72
((lp73
Vhttp://dbpedia.org/class/yago/Abstraction100002137
p74
aVhttp://dbpedia.org/class/yago/Anniversary115249799
p75
aVhttp://dbpedia.org/class/yago/CalendarDay115157041
p76
aVhttp://dbpedia.org/class/yago/Day115157225
p77
aVhttp://dbpedia.org/class/yago/ReligiousHoliday115183802
p78
aVhttp://dbpedia.org/class/yago/TimePeriod115113229
p79
aVhttp://dbpedia.org/class/yago/Shi'aDaysOfRemembrance
p80
aVhttp://www.w3.org/2002/07/owl#Thing
p81
aVhttp://www.ontologydesignpatterns.org/ont/dul/DUL.owl#TimeInterval
p82
aVhttp://www.wikidata.org/entity/Q1445650
p83
aVhttp://dbpedia.org/ontology/Holiday
p84
aVhttp://dbpedia.org/class/yago/FundamentalQuantity113575869
p85
aVhttp://dbpedia.org/class/yago/Holiday115183428
p86
aVhttp://dbpedia.org/class/yago/IslamicHolyDays
p87
aVhttp://dbpedia.org/class/yago/Measure100033615
p88
aVhttp://dbpedia.org/resource/Mawlid
tp89
aa(lp90
((lVhttp://dbpedia.org/resource/Rizal_Law
p91
tp92
aa(lp93
aa.