ccollections
defaultdict
p1
(c__builtin__
dict
p2
tRp3
I3
(dp4
I1
(lp5
sI2
(lp6
sI3
(lp7
ssI4
(dp8
I1
(lp9
sI2
(lp10
sI3
(lp11
ssI5
(dp12
I1
(lp13
sI2
(lp14
sI3
(lp15
ssI10
(dp16
I1
(lp17
Vhttp://dbpedia.org/ontology/abstract
p18
aVhttp://purl.org/dc/terms/subject
p19
aVhttp://www.w3.org/2000/01/rdf-schema#comment
p20
asI2
(lp21
Vhttp://dbpedia.org/ontology/birthPlace
p22
asI3
(lp23
ssI11
(dp24
I1
(lp25
sI2
(lp26
Vhttp://dbpedia.org/ontology/birthPlace
p27
aVhttp://dbpedia.org/ontology/deathPlace
p28
asI3
(lp29
ssI13
(dp30
I1
(lp31
sI2
(lp32
sI3
(lp33
ss.