(lp1
(lp2
(lp3
Vhttp://dbpedia.org/resource/Pegasus_(Efteling)
p4
aa(lp5
Vhttp://dbpedia.org/resource/Pegasus_(Mt._Olympus_Water_and_Theme_Park)
p6
aa(lp7
Vhttp://dbpedia.org/resource/Power_Surge_(water_ride)
p8
aa(lp9
Vhttp://dbpedia.org/resource/Revolution_(Pleasure_Beach_Blackpool)
p10
aa(lp11
Vhttp://dbpedia.org/resource/Revolution_(Six_Flags_Magic_Mountain)
p12
aa(lp13
Vhttp://dbpedia.org/resource/Roar_(roller_coaster)
p14
aa(lp15
a(lp16
Vhttp://dbpedia.org/resource/Saw_\u2013_The_Ride
p17
aa(lp18
Vhttp://dbpedia.org/resource/Scorpion_(roller_coaster)
p19
aa(lp20
Vhttp://dbpedia.org/resource/Scream_(Six_Flags)
p21
aa(lp22
Vhttp://dbpedia.org/resource/Scream_(roller_coaster)
p23
aa(lp24
Vhttp://dbpedia.org/resource/Snake_River_Ranch
p25
aa(lp26
Vhttp://dbpedia.org/resource/Speed:_No_Limits
p27
aa(lp28
Vhttp://dbpedia.org/resource/Speed_\u2013_The_Ride
p29
aa(lp30
Vhttp://dbpedia.org/resource/Storm_Runner
p31
aa(lp32
a(lp33
Vhttp://dbpedia.org/resource/The_Bat_(Kings_Island;_opened_1981)
p34
aa(lp35
Vhttp://dbpedia.org/resource/The_Bat_(Kings_Island;_opened_1981)
p36
aa(lp37
Vhttp://dbpedia.org/resource/The_Bobs_(roller_coaster)
p38
aaa.