(lp1
(lp2
(lp3
a(lp4
a(lp5
a(lp6
((lp7
Vhttp://dbpedia.org/class/yago/Location100027167
p8
aVhttp://dbpedia.org/class/yago/Object100002684
p9
aVhttp://dbpedia.org/class/yago/Region108630985
p10
aVhttp://dbpedia.org/class/yago/Site108651247
p11
aVhttp://dbpedia.org/class/yago/Tract108673395
p12
aVhttp://dbpedia.org/class/yago/YagoGeoEntity
p13
aVhttp://dbpedia.org/class/yago/YagoLegalActorGeo
p14
aVhttp://dbpedia.org/class/yago/PopulatedPlacesInPapuaNewGuinea
p15
aVhttp://www.w3.org/2003/01/geo/wgs84_pos#SpatialThing
p16
aVhttp://dbpedia.org/class/yago/YagoPermanentlyLocatedEntity
p17
aVhttp://dbpedia.org/class/yago/GeographicalArea108574314
p18
aVhttp://dbpedia.org/class/yago/PhysicalEntity100001930
p19
aVhttp://dbpedia.org/resource/Adumo
tp20
aa(lp21
a(lp22
((lVhttp://dbpedia.org/resource/Ad%C5%BEine_Livade
p23
tp24
aa(lp25
a(lp26
a(lp27
a(lp28
a(lp29
a(lp30
a(lp31
a(lp32
a(lp33
a(lp34
a(lp35
a(lp36
aa.