(lp1
(lp2
(lp3
a(lp4
a(lp5
Vhttp://dbpedia.org/resource/Nehru_Museum_of_Science_and_Technology
p6
aaa(lp7
(lp8
a(lp9
a(lp10
Vhttp://dbpedia.org/resource/Thakurdwara_(Assembly_constituency)
p11
aaa(lp12
(lp13
a(lp14
a(lp15
aa(lp16
(lp17
a(lp18
a(lp19
aa(lp20
(lp21
a(lp22
a(lp23
aa(lp24
(lp25
a(lp26
a(lp27
aa(lp28
(lp29
a(lp30
a(lp31
Vhttp://dbpedia.org/resource/The_National_Shooting_Centre_at_Bisley
p32
aaa(lp33
(lp34
a(lp35
a(lp36
aa(lp37
(lp38
a(lp39
a(lp40
aa(lp41
(lp42
a(lp43
a(lp44
aa(lp45
(lp46
a(lp47
a(lp48
aa(lp49
(lp50
a(lp51
a(lp52
aa(lp53
(lp54
a(lp55
a(lp56
aa(lp57
(lp58
a(lp59
a(lp60
aa(lp61
(lp62
a(lp63
a(lp64
aa(lp65
(lp66
a(lp67
a(lp68
aa(lp69
(lp70
a(lp71
a(lp72
aa(lp73
(lp74
a(lp75
a(lp76
aa(lp77
(lp78
a(lp79
a(lp80
aa.