(lp1
(dp2
I0
(dp3
I0
(lp4
sI1
(lp5
sI2
(lp6
sI3
(lp7
sI4
(lp8
sI5
(lp9
sI6
(lp10
ssI1
(dp11
I0
g5
sI1
(lp12
sI2
(lp13
sI3
(lp14
sI4
(lp15
sI5
(lp16
sI6
(lp17
ssI2
(dp18
I0
g6
sI1
g13
sI2
(lp19
sI3
(lp20
sI4
(lp21
sI5
(lp22
sI6
(lp23
ssI3
(dp24
I0
g7
sI1
g14
sI2
g20
sI3
(lp25
sI4
(lp26
sI5
(lp27
sI6
(lp28
ssI4
(dp29
I0
g8
sI1
g15
sI2
g21
sI3
g26
sI4
(lp30
sI5
(lp31
sI6
(lp32
ssI5
(dp33
I0
g9
sI1
g16
sI2
g22
sI3
g27
sI4
g31
sI5
(lp34
sI6
(lp35
ssI6
(dp36
I0
g10
sI1
g17
sI2
g23
sI3
g28
sI4
g32
sI5
g35
sI6
(lp37
ssa(dp38
I0
(dp39
I0
(lp40
sI1
(lp41
sI2
(lp42
sI3
(lp43
sI4
(lp44
sI5
(lp45
sI6
(lp46
ssI1
(dp47
I0
g41
sI1
(lp48
sI2
(lp49
sI3
(lp50
sI4
(lp51
sI5
(lp52
sI6
(lp53
ssI2
(dp54
I0
g42
sI1
g49
sI2
(lp55
sI3
(lp56
sI4
(lp57
sI5
(lp58
sI6
(lp59
ssI3
(dp60
I0
g43
sI1
g50
sI2
g56
sI3
(lp61
sI4
(lp62
sI5
(lp63
sI6
(lp64
ssI4
(dp65
I0
g44
sI1
g51
sI2
g57
sI3
g62
sI4
(lp66
sI5
(lp67
sI6
(lp68
ssI5
(dp69
I0
g45
sI1
g52
sI2
g58
sI3
g63
sI4
g67
sI5
(lp70
sI6
(lp71
ssI6
(dp72
I1
g53
sI2
g59
sI3
g64
sI4
g68
sI5
g71
sI6
(lp73
ssa(dp74
I0
(dp75
I0
(lp76
sI1
(lp77
sI2
(lp78
sI3
(lp79
sI4
(lp80
sI5
(lp81
sI6
(lp82
ssI1
(dp83
I0
g77
sI1
(lp84
sI2
(lp85
sI3
(lp86
sI4
(lp87
sI5
(lp88
sI6
(lp89
ssI2
(dp90
I0
g78
sI1
g85
sI2
(lp91
sI3
(lp92
sI4
(lp93
sI5
(lp94
sI6
(lp95
ssI3
(dp96
I0
g79
sI1
g86
sI2
g92
sI3
(lp97
sI4
(lp98
sI5
(lp99
sI6
(lp100
ssI4
(dp101
I0
g80
sI1
g87
sI2
g93
sI3
g98
sI4
(lp102
sI5
(lp103
sI6
(lp104
ssI5
(dp105
I1
g88
sI2
g94
sI3
g99
sI4
g103
sI5
(lp106
sI6
(lp107
ssI6
(dp108
I1
g89
sI2
g95
sI3
g100
sI4
g104
sI6
(lp109
ssa(dp110
I0
(dp111
I0
(lp112
sI1
(lp113
sI2
(lp114
sI3
(lp115
sI4
(lp116
sI5
(lp117
sI6
(lp118
ssI1
(dp119
I0
g113
sI1
(lp120
sI2
(lp121
sI3
(lp122
sI4
(lp123
sI5
(lp124
sI6
(lp125
ssI2
(dp126
I0
g114
sI1
g121
sI2
(lp127
sI3
(lp128
sI4
(lp129
sI5
(lp130
sI6
(lp131
ssI3
(dp132
I0
g115
sI1
g122
sI2
g128
sI3
(lp133
sI4
(lp134
sI5
(lp135
sI6
(lp136
ssI4
(dp137
I0
g116
sI1
g123
sI2
g129
sI3
g134
sI4
(lp138
sI5
(lp139
sI6
(lp140
ssI5
(dp141
I0
g117
sI1
g124
sI2
g130
sI3
g135
sI4
g139
sI5
(lp142
sI6
(lp143
ssI6
(dp144
I0
g118
sI1
g125
sI2
g131
sI3
g136
sI4
g140
sI6
(lp145
ssa(dp146
I0
(dp147
I0
(lp148
sI1
(lp149
sI2
(lp150
sI3
(lp151
sI4
(lp152
sI5
(lp153
sI6
(lp154
ssI1
(dp155
I0
g149
sI1
(lp156
sI2
(lp157
sI3
(lp158
sI4
(lp159
sI5
(lp160
sI6
(lp161
ssI2
(dp162
I1
g157
sI2
(lp163
sI3
(lp164
sI4
(lp165
sI5
(lp166
sI6
(lp167
ssI3
(dp168
I0
g151
sI1
g158
sI2
g164
sI3
(lp169
sI4
(lp170
sI5
(lp171
sI6
(lp172
ssI4
(dp173
I0
g152
sI1
g159
sI2
g165
sI3
g170
sI4
(lp174
sI5
(lp175
sI6
(lp176
ssI5
(dp177
I0
g153
sI1
g160
sI2
g166
sI3
g171
sI4
g175
sI5
(lp178
sI6
(lp179
ssI6
(dp180
I0
g154
sI1
g161
sI2
g167
sI3
g172
sI4
g176
sI5
g179
sI6
(lp181
ssa(dp182
I0
(dp183
I0
(lp184
sI1
(lp185
sI2
(lp186
sI3
(lp187
sI4
(lp188
sI5
(lp189
sI6
(lp190
ssI1
(dp191
I0
g185
sI1
(lp192
sI2
(lp193
sI3
(lp194
sI4
(lp195
sI5
(lp196
sI6
(lp197
ssI2
(dp198
I1
g193
sI2
(lp199
sI3
(lp200
sI4
(lp201
sI5
(lp202
sI6
(lp203
ssI3
(dp204
I0
g187
sI1
g194
sI2
g200
sI3
(lp205
sI4
(lp206
sI5
(lp207
sI6
(lp208
ssI4
(dp209
I0
g188
sI1
g195
sI2
g201
sI3
g206
sI4
(lp210
sI5
(lp211
sI6
(lp212
ssI5
(dp213
I0
g189
sI1
g196
sI2
g202
sI3
g207
sI4
g211
sI5
(lp214
sI6
(lp215
ssI6
(dp216
I0
g190
sI1
g197
sI2
g203
sI3
g208
sI4
g212
sI5
g215
sI6
(lp217
ssa(dp218
I0
(dp219
I0
(lp220
sI1
(lp221
sI2
(lp222
sI3
(lp223
sI4
(lp224
sI5
(lp225
sI6
(lp226
ssI1
(dp227
I0
g221
sI1
(lp228
sI2
(lp229
sI3
(lp230
sI4
(lp231
sI5
(lp232
sI6
(lp233
ssI2
(dp234
I1
g229
sI2
(lp235
sI3
(lp236
sI4
(lp237
sI5
(lp238
sI6
(lp239
ssI3
(dp240
I0
g223
sI1
g230
sI2
g236
sI3
(lp241
sI4
(lp242
sI5
(lp243
sI6
(lp244
ssI4
(dp245
I0
g224
sI1
g231
sI2
g237
sI3
g242
sI4
(lp246
sI5
(lp247
sI6
(lp248
ssI5
(dp249
I0
g225
sI1
g232
sI2
g238
sI3
g243
sI4
g247
sI5
(lp250
sI6
(lp251
ssI6
(dp252
I0
g226
sI1
g233
sI2
g239
sI3
g244
sI4
g248
sI5
g251
sI6
(lp253
ssa(dp254
I0
(dp255
I0
(lp256
sI1
(lp257
sI2
(lp258
sI3
(lp259
sI4
(lp260
sI5
(lp261
sI6
(lp262
ssI1
(dp263
I0
g257
sI1
(lp264
sI2
(lp265
sI3
(lp266
sI4
(lp267
sI5
(lp268
Vhttp://dbpedia.org/ontology/abstract
p269
aVhttp://www.w3.org/2000/01/rdf-schema#label
p270
aVhttp://www.w3.org/2000/01/rdf-schema#comment
p271
asI6
(lp272
ssI2
(dp273
I1
g265
sI2
(lp274
sI3
(lp275
sI4
(lp276
sI5
(lp277
sI6
(lp278
ssI3
(dp279
I0
g259
sI1
g266
sI2
g275
sI3
(lp280
sI4
(lp281
sI5
(lp282
sI6
(lp283
ssI4
(dp284
I0
g260
sI1
g267
sI2
g276
sI3
g281
sI4
(lp285
sI5
(lp286
sI6
(lp287
ssI5
(dp288
I0
g261
sI1
g268
sI2
g277
sI3
g282
sI4
g286
sI5
(lp289
sI6
(lp290
ssI6
(dp291
I1
g272
sI3
g283
sI4
g287
sI5
g290
sI6
(lp292
ssa(dp293
I0
(dp294
I0
(lp295
sI1
(lp296
sI2
(lp297
sI3
(lp298
sI4
(lp299
sI5
(lp300
sI6
(lp301
ssI1
(dp302
I0
g296
sI1
(lp303
sI2
(lp304
sI3
(lp305
sI4
(lp306
sI5
(lp307
sI6
(lp308
ssI2
(dp309
I0
g297
sI1
g304
sI2
(lp310
sI3
(lp311
sI4
(lp312
sI5
(lp313
sI6
(lp314
ssI3
(dp315
I0
g298
sI1
g305
sI2
g311
sI3
(lp316
sI4
(lp317
sI5
(lp318
sI6
(lp319
ssI4
(dp320
I0
g299
sI1
g306
sI2
g312
sI3
g317
sI4
(lp321
sI5
(lp322
sI6
(lp323
ssI5
(dp324
I1
g307
sI2
g313
sI3
g318
sI4
g322
sI5
(lp325
sI6
(lp326
ssI6
(dp327
I1
g308
sI2
g314
sI3
g319
sI4
g323
sI6
(lp328
ssa(dp329
I0
(dp330
I0
(lp331
sI1
(lp332
sI2
(lp333
sI3
(lp334
sI4
(lp335
sI5
(lp336
sI6
(lp337
ssI1
(dp338
I0
g332
sI1
(lp339
sI2
(lp340
sI3
(lp341
sI4
(lp342
sI5
(lp343
sI6
(lp344
ssI2
(dp345
I0
g333
sI1
g340
sI2
(lp346
sI3
(lp347
sI4
(lp348
sI5
(lp349
sI6
(lp350
ssI3
(dp351
I0
g334
sI1
g341
sI2
g347
sI3
(lp352
sI4
(lp353
sI5
(lp354
sI6
(lp355
ssI4
(dp356
I0
g335
sI1
g342
sI2
g348
sI3
g353
sI4
(lp357
sI5
(lp358
sI6
(lp359
ssI5
(dp360
I1
g343
sI2
g349
sI3
g354
sI4
g358
sI5
(lp361
sI6
(lp362
ssI6
(dp363
I1
g344
sI2
g350
sI3
g355
sI4
g359
sI6
(lp364
ssa(dp365
I0
(dp366
I0
(lp367
sI1
(lp368
sI2
(lp369
sI3
(lp370
sI4
(lp371
sI5
(lp372
sI6
(lp373
ssI1
(dp374
I0
g368
sI1
(lp375
sI2
(lp376
sI3
(lp377
sI4
(lp378
sI5
(lp379
sI6
(lp380
ssI2
(dp381
I0
g369
sI1
g376
sI2
(lp382
sI3
(lp383
sI4
(lp384
sI5
(lp385
sI6
(lp386
ssI3
(dp387
I0
g370
sI1
g377
sI2
g383
sI3
(lp388
sI4
(lp389
sI5
(lp390
sI6
(lp391
ssI4
(dp392
I0
g371
sI1
g378
sI2
g384
sI3
g389
sI4
(lp393
sI5
(lp394
sI6
(lp395
ssI5
(dp396
I0
g372
sI1
g379
sI2
g385
sI3
g390
sI4
g394
sI5
(lp397
sI6
(lp398
ssI6
(dp399
I1
g380
sI2
g386
sI3
g391
sI4
g395
sI5
g398
sI6
(lp400
ssa(dp401
I0
(dp402
I0
(lp403
sI1
(lp404
sI2
(lp405
sI3
(lp406
sI4
(lp407
sI5
(lp408
sI6
(lp409
ssI1
(dp410
I0
g404
sI1
(lp411
sI2
(lp412
sI3
(lp413
sI4
(lp414
sI5
(lp415
sI6
(lp416
ssI2
(dp417
I1
g412
sI2
(lp418
sI3
(lp419
sI4
(lp420
sI5
(lp421
sI6
(lp422
ssI3
(dp423
I0
g406
sI1
g413
sI2
g419
sI3
(lp424
sI4
(lp425
sI5
(lp426
sI6
(lp427
ssI4
(dp428
I0
g407
sI1
g414
sI2
g420
sI3
g425
sI4
(lp429
sI5
(lp430
sI6
(lp431
ssI5
(dp432
I0
g408
sI1
g415
sI2
g421
sI3
g426
sI4
g430
sI5
(lp433
sI6
(lp434
ssI6
(dp435
I0
g409
sI1
g416
sI2
g422
sI3
g427
sI4
g431
sI5
g434
sI6
(lp436
ssa(dp437
I0
(dp438
I0
(lp439
sI1
(lp440
sI2
(lp441
sI3
(lp442
sI4
(lp443
sI5
(lp444
sI6
(lp445
ssI1
(dp446
I0
g440
sI1
(lp447
sI2
(lp448
sI3
(lp449
sI4
(lp450
sI5
(lp451
sI6
(lp452
ssI2
(dp453
I1
g448
sI2
(lp454
sI3
(lp455
sI4
(lp456
sI5
(lp457
sI6
(lp458
ssI3
(dp459
I0
g442
sI1
g449
sI2
g455
sI3
(lp460
sI4
(lp461
sI5
(lp462
sI6
(lp463
ssI4
(dp464
I0
g443
sI1
g450
sI2
g456
sI3
g461
sI4
(lp465
sI5
(lp466
sI6
(lp467
ssI5
(dp468
I0
g444
sI1
g451
sI2
g457
sI3
g462
sI4
g466
sI5
(lp469
sI6
(lp470
ssI6
(dp471
I1
g452
sI3
g463
sI4
g467
sI5
g470
sI6
(lp472
ssa(dp473
I0
(dp474
I0
(lp475
sI1
(lp476
sI2
(lp477
sI3
(lp478
sI4
(lp479
sI5
(lp480
sI6
(lp481
ssI1
(dp482
I0
g476
sI1
(lp483
sI2
(lp484
sI3
(lp485
sI4
(lp486
sI5
(lp487
sI6
(lp488
ssI2
(dp489
I1
g484
sI2
(lp490
sI3
(lp491
sI4
(lp492
sI5
(lp493
sI6
(lp494
ssI3
(dp495
I0
g478
sI1
g485
sI2
g491
sI3
(lp496
sI4
(lp497
sI5
(lp498
sI6
(lp499
ssI4
(dp500
I0
g479
sI1
g486
sI2
g492
sI3
g497
sI4
(lp501
sI5
(lp502
sI6
(lp503
ssI5
(dp504
I0
g480
sI1
g487
sI2
g493
sI3
g498
sI4
g502
sI5
(lp505
sI6
(lp506
ssI6
(dp507
I1
g488
sI3
g499
sI4
g503
sI5
g506
sI6
(lp508
ssa(dp509
I0
(dp510
I0
(lp511
sI1
(lp512
sI2
(lp513
sI3
(lp514
sI4
(lp515
sI5
(lp516
sI6
(lp517
ssI1
(dp518
I0
g512
sI1
(lp519
sI2
(lp520
sI3
(lp521
sI4
(lp522
sI5
(lp523
sI6
(lp524
ssI2
(dp525
I1
g520
sI2
(lp526
sI3
(lp527
sI4
(lp528
sI5
(lp529
sI6
(lp530
ssI3
(dp531
I0
g514
sI1
g521
sI2
g527
sI3
(lp532
sI4
(lp533
sI5
(lp534
sI6
(lp535
ssI4
(dp536
I0
g515
sI1
g522
sI2
g528
sI3
g533
sI4
(lp537
sI5
(lp538
sI6
(lp539
ssI5
(dp540
I0
g516
sI1
g523
sI2
g529
sI3
g534
sI4
g538
sI5
(lp541
sI6
(lp542
ssI6
(dp543
I1
g524
sI3
g535
sI4
g539
sI5
g542
sI6
(lp544
ssa(dp545
I0
(dp546
I0
(lp547
sI1
(lp548
sI2
(lp549
sI3
(lp550
sI4
(lp551
sI5
(lp552
sI6
(lp553
ssI1
(dp554
I0
g548
sI1
(lp555
sI2
(lp556
sI3
(lp557
sI4
(lp558
sI5
(lp559
sI6
(lp560
ssI2
(dp561
I0
g549
sI1
g556
sI2
(lp562
sI3
(lp563
sI4
(lp564
sI5
(lp565
sI6
(lp566
ssI3
(dp567
I0
g550
sI1
g557
sI2
g563
sI3
(lp568
sI4
(lp569
sI5
(lp570
sI6
(lp571
ssI4
(dp572
I0
g551
sI1
g558
sI2
g564
sI3
g569
sI4
(lp573
sI5
(lp574
sI6
(lp575
ssI5
(dp576
I0
g552
sI1
g559
sI2
g565
sI3
g570
sI4
g574
sI5
(lp577
sI6
(lp578
ssI6
(dp579
I1
g560
sI2
g566
sI3
g571
sI4
g575
sI5
g578
sI6
(lp580
ssa(dp581
I0
(dp582
I0
(lp583
sI1
(lp584
sI2
(lp585
sI3
(lp586
sI4
(lp587
sI5
(lp588
sI6
(lp589
ssI1
(dp590
I0
g584
sI1
(lp591
sI2
(lp592
sI3
(lp593
sI4
(lp594
sI5
(lp595
sI6
(lp596
ssI2
(dp597
I0
g585
sI1
g592
sI2
(lp598
sI3
(lp599
sI4
(lp600
sI5
(lp601
sI6
(lp602
ssI3
(dp603
I0
g586
sI1
g593
sI2
g599
sI3
(lp604
sI4
(lp605
sI5
(lp606
sI6
(lp607
ssI4
(dp608
I0
g587
sI1
g594
sI2
g600
sI3
g605
sI4
(lp609
sI5
(lp610
sI6
(lp611
ssI5
(dp612
I0
g588
sI1
g595
sI2
g601
sI3
g606
sI4
g610
sI5
(lp613
sI6
(lp614
ssI6
(dp615
I1
g596
sI2
g602
sI3
g607
sI4
g611
sI5
g614
sI6
(lp616
ssa(dp617
I0
(dp618
I0
(lp619
sI1
(lp620
sI2
(lp621
sI3
(lp622
sI4
(lp623
sI5
(lp624
sI6
(lp625
ssI1
(dp626
I0
g620
sI1
(lp627
sI2
(lp628
sI3
(lp629
sI4
(lp630
sI5
(lp631
sI6
(lp632
ssI2
(dp633
I0
g621
sI1
g628
sI2
(lp634
sI3
(lp635
sI4
(lp636
sI5
(lp637
sI6
(lp638
ssI3
(dp639
I0
g622
sI1
g629
sI2
g635
sI3
(lp640
sI4
(lp641
sI5
(lp642
sI6
(lp643
ssI4
(dp644
I0
g623
sI1
g630
sI2
g636
sI3
g641
sI4
(lp645
sI5
(lp646
sI6
(lp647
ssI5
(dp648
I0
g624
sI1
g631
sI2
g637
sI3
g642
sI4
g646
sI5
(lp649
sI6
(lp650
ssI6
(dp651
I1
g632
sI2
g638
sI3
g643
sI4
g647
sI5
g650
sI6
(lp652
ssa(dp653
I0
(dp654
I0
(lp655
sI1
(lp656
sI2
(lp657
sI3
(lp658
sI4
(lp659
sI5
(lp660
sI6
(lp661
ssI1
(dp662
I0
g656
sI1
(lp663
sI2
(lp664
sI3
(lp665
sI4
(lp666
sI5
(lp667
sI6
(lp668
ssI2
(dp669
I0
g657
sI1
g664
sI2
(lp670
sI3
(lp671
sI4
(lp672
sI5
(lp673
sI6
(lp674
ssI3
(dp675
I0
g658
sI1
g665
sI2
g671
sI3
(lp676
sI4
(lp677
sI5
(lp678
sI6
(lp679
ssI4
(dp680
I0
g659
sI1
g666
sI2
g672
sI3
g677
sI4
(lp681
sI5
(lp682
sI6
(lp683
ssI5
(dp684
I0
g660
sI1
g667
sI2
g673
sI3
g678
sI4
g682
sI5
(lp685
sI6
(lp686
ssI6
(dp687
I1
g668
sI2
g674
sI3
g679
sI4
g683
sI5
g686
sI6
(lp688
ssa.