(lp1
(lp2
(lp3
a(lp4
((lp5
Vhttp://dbpedia.org/class/yago/Alumnus109786338
p6
aVhttp://dbpedia.org/class/yago/ArabPoliticians
p7
aVhttp://dbpedia.org/class/yago/CausalAgent100007347
p8
aVhttp://dbpedia.org/class/yago/CommissionedMilitaryOfficer109943239
p9
aVhttp://dbpedia.org/class/yago/Communicator109610660
p10
aVhttp://dbpedia.org/class/yago/FieldMarshal110086821
p11
aVhttp://dbpedia.org/class/yago/HeadOfState110164747
p12
aVhttp://dbpedia.org/class/yago/Holder110180178
p13
aVhttp://dbpedia.org/class/yago/Intellectual109621545
p14
aVhttp://dbpedia.org/class/yago/Leader109623038
p15
aVhttp://dbpedia.org/class/yago/LivingThing100004258
p16
aVhttp://dbpedia.org/class/yago/MilitaryOfficer110317007
p17
aVhttp://dbpedia.org/class/yago/Negotiator110351874
p18
aVhttp://dbpedia.org/class/yago/Object100002684
p19
aVhttp://dbpedia.org/class/yago/Official110372373
p20
aVhttp://dbpedia.org/class/yago/Organism100004475
p21
aVhttp://dbpedia.org/class/yago/Person100007846
p22
aVhttp://dbpedia.org/class/yago/Politician110450303
p23
aVhttp://dbpedia.org/class/yago/Politician110451263
p24
aVhttp://dbpedia.org/class/yago/President110467179
p25
aVhttp://dbpedia.org/class/yago/Representative110522035
p26
aVhttp://dbpedia.org/class/yago/Scholar110557854
p27
aVhttp://dbpedia.org/class/yago/Serviceman110582746
p28
aVhttp://dbpedia.org/class/yago/SkilledWorker110605985
p29
aVhttp://dbpedia.org/class/yago/Whole100003553
p30
aVhttp://dbpedia.org/class/yago/Worker109632518
p31
aVhttp://dbpedia.org/class/yago/YagoLegalActorGeo
p32
aVhttp://dbpedia.org/class/yago/PresidentsOfSudan
p33
aVhttp://www.w3.org/2002/07/owl#Thing
p34
aVhttp://xmlns.com/foaf/0.1/Person
p35
aVhttp://dbpedia.org/ontology/Person
p36
aVhttp://www.ontologydesignpatterns.org/ont/dul/DUL.owl#Agent
p37
aVhttp://www.ontologydesignpatterns.org/ont/dul/DUL.owl#NaturalPerson
p38
aVhttp://www.wikidata.org/entity/Q215627
p39
aVhttp://www.wikidata.org/entity/Q5
p40
aVhttp://dbpedia.org/ontology/Agent
p41
aVhttp://dbpedia.org/ontology/OfficeHolder
p42
aVhttp://schema.org/Person
p43
aVhttp://umbel.org/umbel/rc/PersonWithOccupation
p44
aVhttp://dbpedia.org/class/yago/CurrentNationalLeaders
p45
aVhttp://dbpedia.org/class/yago/EgyptianMilitaryAcademyAlumni
p46
aVhttp://dbpedia.org/class/yago/FieldMarshals
p47
aVhttp://dbpedia.org/class/yago/Statesman110650162
p48
aVhttp://dbpedia.org/class/yago/NationalCongress(Sudan)Politicians
p49
aVhttp://dbpedia.org/class/yago/PeopleFromRiverNile(state)
p50
aVhttp://dbpedia.org/class/yago/PeopleIndictedForGenocide
p51
aVhttp://dbpedia.org/class/yago/PeopleOfTheDarfurConflict
p52
aVhttp://dbpedia.org/class/yago/YagoLegalActor
p53
aVhttp://dbpedia.org/class/yago/CommissionedOfficer109942970
p54
aVhttp://dbpedia.org/class/yago/Fugitive110115082
p55
aVhttp://dbpedia.org/class/yago/FugitivesWantedByTheInternationalCriminalCourt
p56
aVhttp://dbpedia.org/class/yago/FugitivesWantedOnCrimesAgainstHumanityCharges
p57
aVhttp://dbpedia.org/class/yago/FugitivesWantedOnWarCrimesCharges
p58
aVhttp://dbpedia.org/class/yago/LeadersWhoTookPowerByCoup
p59
aVhttp://dbpedia.org/class/yago/LivingPeople
p60
aVhttp://dbpedia.org/class/yago/Marshal110296176
p61
aVhttp://dbpedia.org/class/yago/Officeholder110371450
p62
aVhttp://dbpedia.org/class/yago/Owner110389398
p63
aVhttp://dbpedia.org/class/yago/PhysicalEntity100001930
p64
aVhttp://dbpedia.org/resource/Omar_al-Bashir
tp65
aa(lp66
a(lp67
aa(lp68
(lp69
a(lp70
((lp71
Vhttp://dbpedia.org/class/yago/1852Novels
p72
aVhttp://dbpedia.org/class/yago/Abstraction100002137
p73
aVhttp://dbpedia.org/class/yago/Communication100033020
p74
aVhttp://dbpedia.org/class/yago/LiteraryComposition106364329
p75
aVhttp://dbpedia.org/class/yago/Novel106367879
p76
aVhttp://dbpedia.org/class/yago/Writing106362953
p77
aVhttp://www.w3.org/2002/07/owl#Thing
p78
aVhttp://purl.org/ontology/bibo/Book
p79
aVhttp://www.wikidata.org/entity/Q386724
p80
aVhttp://www.wikidata.org/entity/Q571
p81
aVhttp://dbpedia.org/ontology/Book
p82
aVhttp://dbpedia.org/ontology/Work
p83
aVhttp://dbpedia.org/ontology/WrittenWork
p84
aVhttp://schema.org/Book
p85
aVhttp://schema.org/CreativeWork
p86
aVhttp://dbpedia.org/class/yago/WrittenCommunication106349220
p87
aVhttp://dbpedia.org/class/yago/NovelsByWilkieCollins
p88
aVhttp://dbpedia.org/class/yago/Fiction106367107
p89
aVhttp://dbpedia.org/resource/Basil_(novel)
tp90
aa(lp91
a(lp92
aa(lp93
(lp94
a(lp95
a(lp96
a(lp97
aa(lp98
(lp99
a(lp100
((lp101
Vhttp://dbpedia.org/class/yago/Adult109605289
p102
aVhttp://dbpedia.org/class/yago/AustralianLaborPartyPoliticians
p103
aVhttp://dbpedia.org/class/yago/AustralianWomenInPolitics
p104
aVhttp://dbpedia.org/class/yago/CausalAgent100007347
p105
aVhttp://dbpedia.org/class/yago/Leader109623038
p106
aVhttp://dbpedia.org/class/yago/LivingThing100004258
p107
aVhttp://dbpedia.org/class/yago/Object100002684
p108
aVhttp://dbpedia.org/class/yago/Organism100004475
p109
aVhttp://dbpedia.org/class/yago/Person100007846
p110
aVhttp://dbpedia.org/class/yago/Politician110451263
p111
aVhttp://dbpedia.org/class/yago/Whole100003553
p112
aVhttp://dbpedia.org/class/yago/Woman110787470
p113
aVhttp://dbpedia.org/class/yago/YagoLegalActorGeo
p114
aVhttp://www.w3.org/2002/07/owl#Thing
p115
aVhttp://xmlns.com/foaf/0.1/Person
p116
aVhttp://dbpedia.org/ontology/Person
p117
aVhttp://www.ontologydesignpatterns.org/ont/dul/DUL.owl#Agent
p118
aVhttp://www.ontologydesignpatterns.org/ont/dul/DUL.owl#NaturalPerson
p119
aVhttp://www.wikidata.org/entity/Q215627
p120
aVhttp://www.wikidata.org/entity/Q486839
p121
aVhttp://www.wikidata.org/entity/Q5
p122
aVhttp://www.wikidata.org/entity/Q82955
p123
aVhttp://dbpedia.org/ontology/Agent
p124
aVhttp://dbpedia.org/ontology/MemberOfParliament
p125
aVhttp://dbpedia.org/ontology/Politician
p126
aVhttp://schema.org/Person
p127
aVhttp://umbel.org/umbel/rc/ParliamentMember
p128
aVhttp://umbel.org/umbel/rc/Politician
p129
aVhttp://dbpedia.org/class/yago/YagoLegalActor
p130
aVhttp://dbpedia.org/class/yago/Female109619168
p131
aVhttp://dbpedia.org/class/yago/LivingPeople
p132
aVhttp://dbpedia.org/class/yago/PhysicalEntity100001930
p133
aVhttp://dbpedia.org/resource/Belinda_Neal
tp134
aa(lp135
a(lp136
aa(lp137
(lp138
a(lp139
((lp140
Vhttp://dbpedia.org/class/yago/15th-centuryItalianPeople
p141
aVhttp://dbpedia.org/class/yago/Adult109605289
p142
aVhttp://dbpedia.org/class/yago/Aristocrat109807754
p143
aVhttp://dbpedia.org/class/yago/CausalAgent100007347
p144
aVhttp://dbpedia.org/class/yago/Duchess110038409
p145
aVhttp://dbpedia.org/class/yago/Leader109623038
p146
aVhttp://dbpedia.org/class/yago/LivingThing100004258
p147
aVhttp://dbpedia.org/class/yago/Noblewoman110242791
p148
aVhttp://dbpedia.org/class/yago/Object100002684
p149
aVhttp://dbpedia.org/class/yago/Organism100004475
p150
aVhttp://dbpedia.org/class/yago/Person100007846
p151
aVhttp://dbpedia.org/class/yago/Regent110516117
p152
aVhttp://dbpedia.org/class/yago/Ruler110541229
p153
aVhttp://dbpedia.org/class/yago/Whole100003553
p154
aVhttp://dbpedia.org/class/yago/Woman110787470
p155
aVhttp://dbpedia.org/class/yago/YagoLegalActorGeo
p156
aVhttp://www.w3.org/2002/07/owl#Thing
p157
aVhttp://xmlns.com/foaf/0.1/Person
p158
aVhttp://dbpedia.org/ontology/Person
p159
aVhttp://www.ontologydesignpatterns.org/ont/dul/DUL.owl#Agent
p160
aVhttp://www.ontologydesignpatterns.org/ont/dul/DUL.owl#NaturalPerson
p161
aVhttp://www.wikidata.org/entity/Q215627
p162
aVhttp://www.wikidata.org/entity/Q5
p163
aVhttp://dbpedia.org/ontology/Agent
p164
aVhttp://dbpedia.org/ontology/Noble
p165
aVhttp://schema.org/Person
p166
aVhttp://dbpedia.org/class/yago/DuchessesOfMilan
p167
aVhttp://dbpedia.org/class/yago/FemaleRegents
p168
aVhttp://dbpedia.org/class/yago/FemaleAristocrat110083823
p169
aVhttp://dbpedia.org/class/yago/PeopleFromTheProvinceOfPavia
p170
aVhttp://dbpedia.org/class/yago/YagoLegalActor
p171
aVhttp://dbpedia.org/class/yago/Female109619168
p172
aVhttp://dbpedia.org/class/yago/PhysicalEntity100001930
p173
aVhttp://dbpedia.org/class/yago/WomenOfMedievalItaly
p174
aVhttp://dbpedia.org/resource/Bianca_Maria_Visconti
tp175
aa(lp176
a(lp177
aa(lp178
(lp179
a(lp180
a(lp181
a(lp182
aa(lp183
(lp184
a(lp185
((lp186
Vhttp://www.w3.org/2002/07/owl#Thing
p187
aVhttp://xmlns.com/foaf/0.1/Person
p188
aVhttp://dbpedia.org/ontology/Person
p189
aVhttp://www.ontologydesignpatterns.org/ont/dul/DUL.owl#Agent
p190
aVhttp://www.ontologydesignpatterns.org/ont/dul/DUL.owl#NaturalPerson
p191
aVhttp://www.wikidata.org/entity/Q215627
p192
aVhttp://www.wikidata.org/entity/Q5
p193
aVhttp://www.wikidata.org/entity/Q901
p194
aVhttp://dbpedia.org/ontology/Agent
p195
aVhttp://dbpedia.org/ontology/Scientist
p196
aVhttp://schema.org/Person
p197
aVhttp://dbpedia.org/resource/Sir_Benjamin_Collins_Brodie,_2nd_Baronet
tp198
aa(lp199
a(lp200
aa(lp201
(lp202
a(lp203
a(lp204
a(lp205
aa(lp206
(lp207
a(lp208
a(lp209
a(lp210
aa(lp211
(lp212
a(lp213
a(lp214
a(lp215
aa(lp216
(lp217
a(lp218
((lp219
Vhttp://www.w3.org/2002/07/owl#Thing
p220
aVhttp://xmlns.com/foaf/0.1/Person
p221
aVhttp://dbpedia.org/ontology/Person
p222
aVhttp://www.ontologydesignpatterns.org/ont/dul/DUL.owl#Agent
p223
aVhttp://www.ontologydesignpatterns.org/ont/dul/DUL.owl#NaturalPerson
p224
aVhttp://www.wikidata.org/entity/Q215627
p225
aVhttp://www.wikidata.org/entity/Q483501
p226
aVhttp://www.wikidata.org/entity/Q5
p227
aVhttp://dbpedia.org/ontology/Agent
p228
aVhttp://dbpedia.org/ontology/Artist
p229
aVhttp://dbpedia.org/ontology/MusicalArtist
p230
aVhttp://schema.org/MusicGroup
p231
aVhttp://schema.org/Person
p232
aVhttp://dbpedia.org/resource/Casper_(rapper)
tp233
aa(lp234
a(lp235
aa(lp236
(lp237
a(lp238
((lp239
Vhttp://dbpedia.org/class/yago/6th-centuryRulersInEurope
p240
aVhttp://dbpedia.org/class/yago/7th-centuryRulersInEurope
p241
aVhttp://dbpedia.org/class/yago/CausalAgent100007347
p242
aVhttp://dbpedia.org/class/yago/Communicator109610660
p243
aVhttp://dbpedia.org/class/yago/HeadOfState110164747
p244
aVhttp://dbpedia.org/class/yago/King110231515
p245
aVhttp://dbpedia.org/class/yago/LivingThing100004258
p246
aVhttp://dbpedia.org/class/yago/Negotiator110351874
p247
aVhttp://dbpedia.org/class/yago/Object100002684
p248
aVhttp://dbpedia.org/class/yago/Organism100004475
p249
aVhttp://dbpedia.org/class/yago/Person100007846
p250
aVhttp://dbpedia.org/class/yago/Representative110522035
p251
aVhttp://dbpedia.org/class/yago/Ruler110541229
p252
aVhttp://dbpedia.org/class/yago/Sovereign110628644
p253
aVhttp://dbpedia.org/class/yago/Whole100003553
p254
aVhttp://dbpedia.org/class/yago/YagoLegalActorGeo
p255
aVhttp://www.w3.org/2002/07/owl#Thing
p256
aVhttp://xmlns.com/foaf/0.1/Person
p257
aVhttp://dbpedia.org/ontology/Person
p258
aVhttp://www.ontologydesignpatterns.org/ont/dul/DUL.owl#Agent
p259
aVhttp://www.ontologydesignpatterns.org/ont/dul/DUL.owl#NaturalPerson
p260
aVhttp://www.wikidata.org/entity/Q215627
p261
aVhttp://www.wikidata.org/entity/Q5
p262
aVhttp://dbpedia.org/ontology/Agent
p263
aVhttp://dbpedia.org/ontology/Royalty
p264
aVhttp://schema.org/Person
p265
aVhttp://dbpedia.org/class/yago/FrankishKings
p266
aVhttp://dbpedia.org/class/yago/YagoLegalActor
p267
aVhttp://dbpedia.org/class/yago/KingsOfBurgundy
p268
aVhttp://dbpedia.org/class/yago/MedievalChildRulers
p269
aVhttp://dbpedia.org/class/yago/PhysicalEntity100001930
p270
aVhttp://dbpedia.org/resource/Chlothar_II
tp271
aa(lp272
a(lp273
aa(lp274
(lp275
a(lp276
a(lp277
a(lp278
aa(lp279
(lp280
a(lp281
((lp282
Vhttp://dbpedia.org/class/yago/AdministrativeDistrict108491826
p283
aVhttp://dbpedia.org/class/yago/Area108497294
p284
aVhttp://dbpedia.org/class/yago/Center108523483
p285
aVhttp://dbpedia.org/class/yago/City108524735
p286
aVhttp://dbpedia.org/class/yago/District108552138
p287
aVhttp://dbpedia.org/class/yago/Location100027167
p288
aVhttp://dbpedia.org/class/yago/Object100002684
p289
aVhttp://dbpedia.org/class/yago/Region108630985
p290
aVhttp://dbpedia.org/class/yago/Seat108647945
p291
aVhttp://dbpedia.org/class/yago/Site108651247
p292
aVhttp://dbpedia.org/class/yago/Tract108673395
p293
aVhttp://dbpedia.org/class/yago/UrbanArea108675967
p294
aVhttp://dbpedia.org/class/yago/YagoGeoEntity
p295
aVhttp://dbpedia.org/class/yago/YagoLegalActorGeo
p296
aVhttp://dbpedia.org/class/yago/PopulatedPlacesInPonderaCounty,Montana
p297
aVhttp://www.w3.org/2002/07/owl#Thing
p298
aVhttp://dbpedia.org/ontology/Place
p299
aVhttp://dbpedia.org/ontology/Location
p300
aVhttp://www.wikidata.org/entity/Q486972
p301
aVhttp://www.wikidata.org/entity/Q515
p302
aVhttp://dbpedia.org/ontology/City
p303
aVhttp://dbpedia.org/ontology/PopulatedPlace
p304
aVhttp://dbpedia.org/ontology/Settlement
p305
aVhttp://www.w3.org/2003/01/geo/wgs84_pos#SpatialThing
p306
aVhttp://schema.org/City
p307
aVhttp://schema.org/Place
p308
aVhttp://umbel.org/umbel/rc/City
p309
aVhttp://dbpedia.org/class/yago/CitiesInMontana
p310
aVhttp://dbpedia.org/class/yago/CountySeat108547143
p311
aVhttp://dbpedia.org/class/yago/CountySeatsInMontana
p312
aVhttp://dbpedia.org/class/yago/YagoPermanentlyLocatedEntity
p313
aVhttp://dbpedia.org/class/yago/GeographicalArea108574314
p314
aVhttp://dbpedia.org/class/yago/Municipality108626283
p315
aVhttp://dbpedia.org/class/yago/PhysicalEntity100001930
p316
aVhttp://dbpedia.org/resource/Conrad,_Montana
tp317
aa(lp318
a(lp319
aa(lp320
(lp321
a(lp322
((lp323
Vhttp://dbpedia.org/class/yago/AlumniOfTheUniversityOfCambridge
p324
aVhttp://dbpedia.org/class/yago/AlumniOfTheUniversityOfOxford
p325
aVhttp://dbpedia.org/class/yago/AlumniOfUniversityCollegeLondon
p326
aVhttp://dbpedia.org/class/yago/Alumnus109786338
p327
aVhttp://dbpedia.org/class/yago/AmericanEmigrantsToScotland
p328
aVhttp://dbpedia.org/class/yago/AustralianPsychologists
p329
aVhttp://dbpedia.org/class/yago/AustralianTechnologyWriters
p330
aVhttp://dbpedia.org/class/yago/CanadianEmigrantsToTheUnitedStates
p331
aVhttp://dbpedia.org/class/yago/CausalAgent100007347
p332
aVhttp://dbpedia.org/class/yago/Communicator109610660
p333
aVhttp://dbpedia.org/class/yago/Emigrant110051975
p334
aVhttp://dbpedia.org/class/yago/Intellectual109621545
p335
aVhttp://dbpedia.org/class/yago/LivingThing100004258
p336
aVhttp://dbpedia.org/class/yago/Object100002684
p337
aVhttp://dbpedia.org/class/yago/Organism100004475
p338
aVhttp://dbpedia.org/class/yago/Person100007846
p339
aVhttp://dbpedia.org/class/yago/Psychologist110488865
p340
aVhttp://dbpedia.org/class/yago/Scholar110557854
p341
aVhttp://dbpedia.org/class/yago/Scientist110560637
p342
aVhttp://dbpedia.org/class/yago/Traveler109629752
p343
aVhttp://dbpedia.org/class/yago/Whole100003553
p344
aVhttp://dbpedia.org/class/yago/Writer110794014
p345
aVhttp://dbpedia.org/class/yago/YagoLegalActorGeo
p346
aVhttp://dbpedia.org/class/yago/ScottishEmigrantsToAustralia
p347
aVhttp://www.w3.org/2002/07/owl#Thing
p348
aVhttp://xmlns.com/foaf/0.1/Person
p349
aVhttp://dbpedia.org/ontology/Person
p350
aVhttp://www.ontologydesignpatterns.org/ont/dul/DUL.owl#Agent
p351
aVhttp://www.ontologydesignpatterns.org/ont/dul/DUL.owl#NaturalPerson
p352
aVhttp://www.wikidata.org/entity/Q215627
p353
aVhttp://www.wikidata.org/entity/Q36180
p354
aVhttp://www.wikidata.org/entity/Q5
p355
aVhttp://dbpedia.org/ontology/Agent
p356
aVhttp://dbpedia.org/ontology/Writer
p357
aVhttp://schema.org/Person
p358
aVhttp://dbpedia.org/class/yago/PeopleFromEdinburgh
p359
aVhttp://dbpedia.org/class/yago/PeopleFromToronto
p360
aVhttp://dbpedia.org/class/yago/YagoLegalActor
p361
aVhttp://dbpedia.org/class/yago/LivingPeople
p362
aVhttp://dbpedia.org/class/yago/Migrant110314952
p363
aVhttp://dbpedia.org/class/yago/PhysicalEntity100001930
p364
aVhttp://dbpedia.org/class/yago/WritersFromMelbourne
p365
aVhttp://dbpedia.org/resource/Cordelia_Fine
tp366
aa(lp367
a(lp368
aa(lp369
(lp370
a(lp371
((lp372
Vhttp://dbpedia.org/class/yago/7th-centuryRulersInEurope
p373
aVhttp://dbpedia.org/class/yago/CausalAgent100007347
p374
aVhttp://dbpedia.org/class/yago/Communicator109610660
p375
aVhttp://dbpedia.org/class/yago/HeadOfState110164747
p376
aVhttp://dbpedia.org/class/yago/King110231515
p377
aVhttp://dbpedia.org/class/yago/LivingThing100004258
p378
aVhttp://dbpedia.org/class/yago/Negotiator110351874
p379
aVhttp://dbpedia.org/class/yago/Object100002684
p380
aVhttp://dbpedia.org/class/yago/Organism100004475
p381
aVhttp://dbpedia.org/class/yago/Person100007846
p382
aVhttp://dbpedia.org/class/yago/Representative110522035
p383
aVhttp://dbpedia.org/class/yago/Ruler110541229
p384
aVhttp://dbpedia.org/class/yago/Sovereign110628644
p385
aVhttp://dbpedia.org/class/yago/Whole100003553
p386
aVhttp://dbpedia.org/class/yago/YagoLegalActorGeo
p387
aVhttp://www.w3.org/2002/07/owl#Thing
p388
aVhttp://xmlns.com/foaf/0.1/Person
p389
aVhttp://dbpedia.org/ontology/Person
p390
aVhttp://www.ontologydesignpatterns.org/ont/dul/DUL.owl#Agent
p391
aVhttp://www.ontologydesignpatterns.org/ont/dul/DUL.owl#NaturalPerson
p392
aVhttp://www.wikidata.org/entity/Q215627
p393
aVhttp://www.wikidata.org/entity/Q5
p394
aVhttp://dbpedia.org/ontology/Agent
p395
aVhttp://dbpedia.org/ontology/Royalty
p396
aVhttp://schema.org/Person
p397
aVhttp://umbel.org/umbel/rc/PersonWithOccupation
p398
aVhttp://umbel.org/umbel/rc/RoyalFamily
p399
aVhttp://dbpedia.org/class/yago/FrankishKings
p400
aVhttp://dbpedia.org/class/yago/YagoLegalActor
p401
aVhttp://dbpedia.org/class/yago/KingsOfBurgundy
p402
aVhttp://dbpedia.org/class/yago/PhysicalEntity100001930
p403
aVhttp://dbpedia.org/resource/Dagobert_I
tp404
aa(lp405
a(lp406
aa(lp407
(lp408
a(lp409
((lp410
Vhttp://dbpedia.org/class/yago/Animal100015388
p411
aVhttp://dbpedia.org/class/yago/Bear102131653
p412
aVhttp://dbpedia.org/class/yago/Carnivore102075296
p413
aVhttp://dbpedia.org/class/yago/LivingThing100004258
p414
aVhttp://dbpedia.org/class/yago/Mammal101861778
p415
aVhttp://dbpedia.org/class/yago/Object100002684
p416
aVhttp://dbpedia.org/class/yago/Organism100004475
p417
aVhttp://dbpedia.org/class/yago/Placental101886756
p418
aVhttp://dbpedia.org/class/yago/Vertebrate101471682
p419
aVhttp://dbpedia.org/class/yago/Whole100003553
p420
aVhttp://dbpedia.org/class/yago/Chordate101466257
p421
aVhttp://dbpedia.org/class/yago/IceBear102134084
p422
aVhttp://dbpedia.org/class/yago/IndividualPolarBears
p423
aVhttp://dbpedia.org/class/yago/PhysicalEntity100001930
p424
aVhttp://dbpedia.org/resource/Debby_(polar_bear)
tp425
aa(lp426
a(lp427
aa(lp428
(lp429
a(lp430
((lp431
Vhttp://www.w3.org/2002/07/owl#Thing
p432
aVhttp://dbpedia.org/ontology/Name
p433
aVhttp://www.wikidata.org/entity/Q202444
p434
aVhttp://www.wikidata.org/entity/Q82799
p435
aVhttp://dbpedia.org/ontology/GivenName
p436
aVhttp://dbpedia.org/resource/Desiree_(given_name)
p437
tp438
aa(lp439
a(lp440
aa(lp441
(lp442
a(lp443
a(lp444
a(lp445
aa.