(lp1
(lp2
(lp3
a(lp4
((lp5
Vhttp://dbpedia.org/class/yago/GeologicalFormation109287968
p6
aVhttp://dbpedia.org/class/yago/Object100002684
p7
aVhttp://dbpedia.org/class/yago/VolcanicCrater109472413
p8
aVhttp://dbpedia.org/class/yago/YagoGeoEntity
p9
aVhttp://dbpedia.org/class/yago/ProterozoicImpactCraters
p10
aVhttp://www.w3.org/2003/01/geo/wgs84_pos#SpatialThing
p11
aVhttp://dbpedia.org/class/yago/YagoPermanentlyLocatedEntity
p12
aVhttp://dbpedia.org/class/yago/ImpactCratersOfAustralia
p13
aVhttp://dbpedia.org/class/yago/PhysicalEntity100001930
p14
aVhttp://dbpedia.org/resource/Acraman_crater
tp15
aa(lp16
((lp17
Vhttp://dbpedia.org/class/yago/Island109316454
p18
aVhttp://dbpedia.org/class/yago/Land109334396
p19
aVhttp://dbpedia.org/class/yago/Object100002684
p20
aVhttp://dbpedia.org/class/yago/YagoGeoEntity
p21
aVhttp://www.w3.org/2003/01/geo/wgs84_pos#SpatialThing
p22
aVhttp://dbpedia.org/class/yago/YagoPermanentlyLocatedEntity
p23
aVhttp://dbpedia.org/class/yago/IslandsOfTasmania
p24
aVhttp://dbpedia.org/class/yago/PhysicalEntity100001930
p25
aVhttp://dbpedia.org/resource/Actaeon_Island
tp26
aa(lp27
a(lp28
a(lp29
((lp30
Vhttp://dbpedia.org/class/yago/Area108497294
p31
aVhttp://dbpedia.org/class/yago/Location100027167
p32
aVhttp://dbpedia.org/class/yago/Object100002684
p33
aVhttp://dbpedia.org/class/yago/Region108630985
p34
aVhttp://dbpedia.org/class/yago/Vicinity108641113
p35
aVhttp://dbpedia.org/class/yago/YagoGeoEntity
p36
aVhttp://dbpedia.org/class/yago/YagoLegalActorGeo
p37
aVhttp://www.w3.org/2003/01/geo/wgs84_pos#SpatialThing
p38
aVhttp://dbpedia.org/class/yago/YagoPermanentlyLocatedEntity
p39
aVhttp://dbpedia.org/class/yago/NeighborhoodsOfBelgrade
p40
aVhttp://dbpedia.org/class/yago/Section108648322
p41
aVhttp://dbpedia.org/class/yago/PhysicalEntity100001930
p42
aVhttp://dbpedia.org/resource/Ada_Huja
tp43
aa(lp44
((lp45
Vhttp://dbpedia.org/class/yago/Area108497294
p46
aVhttp://dbpedia.org/class/yago/Island109316454
p47
aVhttp://dbpedia.org/class/yago/Land109334396
p48
aVhttp://dbpedia.org/class/yago/Location100027167
p49
aVhttp://dbpedia.org/class/yago/Object100002684
p50
aVhttp://dbpedia.org/class/yago/Region108630985
p51
aVhttp://dbpedia.org/class/yago/Vicinity108641113
p52
aVhttp://dbpedia.org/class/yago/YagoGeoEntity
p53
aVhttp://dbpedia.org/class/yago/YagoLegalActorGeo
p54
aVhttp://dbpedia.org/class/yago/RiverIslandsOfEurope
p55
aVhttp://www.w3.org/2003/01/geo/wgs84_pos#SpatialThing
p56
aVhttp://dbpedia.org/class/yago/YagoPermanentlyLocatedEntity
p57
aVhttp://dbpedia.org/class/yago/NeighborhoodsOfBelgrade
p58
aVhttp://dbpedia.org/class/yago/Section108648322
p59
aVhttp://dbpedia.org/class/yago/IslandsOfSerbia
p60
aVhttp://dbpedia.org/class/yago/PhysicalEntity100001930
p61
aVhttp://dbpedia.org/resource/Ada_Me\u0111ica
tp62
aa(lp63
a(lp64
((lp65
Vhttp://dbpedia.org/class/yago/BodyOfWater109225146
p66
aVhttp://dbpedia.org/class/yago/River109411430
p67
aVhttp://dbpedia.org/class/yago/Stream109448361
p68
aVhttp://dbpedia.org/class/yago/Thing100002452
p69
aVhttp://dbpedia.org/class/yago/YagoGeoEntity
p70
aVhttp://dbpedia.org/class/yago/RiversOfTheCanterburyRegion
p71
aVhttp://dbpedia.org/class/yago/YagoPermanentlyLocatedEntity
p72
aVhttp://dbpedia.org/class/yago/PhysicalEntity100001930
p73
aVhttp://dbpedia.org/resource/Ada_River
tp74
aa(lp75
a(lp76
((lp77
Vhttp://dbpedia.org/class/yago/Island109316454
p78
aVhttp://dbpedia.org/class/yago/Land109334396
p79
aVhttp://dbpedia.org/class/yago/Object100002684
p80
aVhttp://dbpedia.org/class/yago/YagoGeoEntity
p81
aVhttp://www.w3.org/2003/01/geo/wgs84_pos#SpatialThing
p82
aVhttp://dbpedia.org/class/yago/YagoPermanentlyLocatedEntity
p83
aVhttp://dbpedia.org/class/yago/IslandsOfTheSolomonIslands
p84
aVhttp://dbpedia.org/class/yago/PhysicalEntity100001930
p85
aVhttp://dbpedia.org/resource/Adagege
p86
tp87
aa(lp88
a(lp89
a(lp90
a(lp91
a(lp92
a(lp93
a(lp94
aa.