(lp1
(dp2
I0
(dp3
I0
(lp4
sI1
(lp5
sI2
(lp6
sI3
(lp7
sI4
(lp8
sI5
(lp9
sI6
(lp10
sI7
(lp11
sI8
(lp12
sI9
(lp13
sI10
(lp14
sI11
(lp15
sI12
(lp16
sI13
(lp17
sI14
(lp18
sI15
(lp19
sI16
(lp20
sI17
(lp21
ssI1
(dp22
I0
g5
sI1
(lp23
sI2
(lp24
sI3
(lp25
sI4
(lp26
sI5
(lp27
sI6
(lp28
sI7
(lp29
sI8
(lp30
sI9
(lp31
sI10
(lp32
sI11
(lp33
sI12
(lp34
sI13
(lp35
sI14
(lp36
sI15
(lp37
sI16
(lp38
sI17
(lp39
ssI2
(dp40
I0
g6
sI1
g24
sI2
(lp41
sI3
(lp42
sI4
(lp43
sI5
(lp44
sI6
(lp45
sI7
(lp46
sI8
(lp47
sI9
(lp48
sI10
(lp49
sI11
(lp50
sI12
(lp51
sI13
(lp52
sI14
(lp53
sI15
(lp54
sI16
(lp55
sI17
(lp56
ssI3
(dp57
I0
g7
sI1
g25
sI2
g42
sI3
(lp58
sI4
(lp59
sI5
(lp60
sI6
(lp61
sI7
(lp62
sI8
(lp63
sI9
(lp64
sI10
(lp65
sI11
(lp66
sI12
(lp67
sI13
(lp68
sI14
(lp69
sI15
(lp70
sI16
(lp71
sI17
(lp72
ssI4
(dp73
I0
g8
sI1
g26
sI2
g43
sI3
g59
sI4
(lp74
sI5
(lp75
sI6
(lp76
Vhttp://dbpedia.org/ontology/abstract
p77
aVhttp://www.w3.org/2000/01/rdf-schema#comment
p78
asI7
(lp79
sI8
(lp80
sI9
(lp81
sI10
(lp82
sI11
(lp83
sI12
(lp84
sI13
(lp85
sI14
(lp86
sI15
(lp87
sI16
(lp88
sI17
(lp89
ssI5
(dp90
I0
g9
sI1
g27
sI2
g44
sI3
g60
sI4
g75
sI5
(lp91
sI6
(lp92
sI7
(lp93
sI8
(lp94
sI9
(lp95
sI10
(lp96
sI11
(lp97
sI12
(lp98
sI13
(lp99
sI14
(lp100
sI15
(lp101
sI16
(lp102
sI17
(lp103
ssI6
(dp104
I0
g10
sI1
g28
sI2
g45
sI3
g61
sI4
g76
sI5
g92
sI6
(lp105
sI7
(lp106
sI8
(lp107
sI9
(lp108
sI10
(lp109
sI11
(lp110
sI12
(lp111
sI13
(lp112
sI14
(lp113
sI15
(lp114
sI16
(lp115
sI17
(lp116
ssI7
(dp117
I0
g11
sI1
g29
sI2
g46
sI3
g62
sI4
g79
sI5
g93
sI6
g106
sI7
(lp118
sI8
(lp119
sI9
(lp120
sI10
(lp121
sI11
(lp122
sI12
(lp123
sI13
(lp124
sI14
(lp125
sI15
(lp126
sI16
(lp127
sI17
(lp128
ssI8
(dp129
I0
g12
sI1
g30
sI2
g47
sI3
g63
sI4
g80
sI5
g94
sI6
g107
sI7
g119
sI8
(lp130
sI9
(lp131
sI10
(lp132
sI11
(lp133
sI12
(lp134
sI13
(lp135
sI14
(lp136
sI15
(lp137
sI16
(lp138
sI17
(lp139
ssI9
(dp140
I0
g13
sI1
g31
sI2
g48
sI3
g64
sI4
g81
sI5
g95
sI6
g108
sI7
g120
sI8
g131
sI9
(lp141
sI10
(lp142
sI11
(lp143
sI12
(lp144
sI13
(lp145
sI14
(lp146
sI15
(lp147
sI16
(lp148
sI17
(lp149
ssI10
(dp150
I0
g14
sI1
g32
sI2
g49
sI3
g65
sI4
g82
sI5
g96
sI6
g109
sI7
g121
sI8
g132
sI9
g142
sI10
(lp151
sI11
(lp152
sI12
(lp153
sI13
(lp154
sI14
(lp155
sI15
(lp156
sI16
(lp157
sI17
(lp158
ssI11
(dp159
I0
g15
sI1
g33
sI2
g50
sI3
g66
sI4
g83
sI5
g97
sI6
g110
sI7
g122
sI8
g133
sI9
g143
sI10
g152
sI11
(lp160
sI12
(lp161
sI13
(lp162
sI14
(lp163
sI15
(lp164
sI16
(lp165
sI17
(lp166
ssI12
(dp167
I0
g16
sI1
g34
sI2
g51
sI3
g67
sI4
g84
sI5
g98
sI6
g111
sI7
g123
sI8
g134
sI9
g144
sI10
g153
sI11
g161
sI12
(lp168
sI13
(lp169
sI14
(lp170
sI15
(lp171
sI16
(lp172
sI17
(lp173
ssI13
(dp174
I0
g17
sI1
g35
sI2
g52
sI3
g68
sI4
g85
sI5
g99
sI6
g112
sI7
g124
sI8
g135
sI9
g145
sI10
g154
sI11
g162
sI12
g169
sI13
(lp175
sI14
(lp176
sI15
(lp177
sI16
(lp178
sI17
(lp179
ssI14
(dp180
I0
g18
sI1
g36
sI2
g53
sI3
g69
sI4
g86
sI5
g100
sI6
g113
sI7
g125
sI8
g136
sI9
g146
sI10
g155
sI11
g163
sI12
g170
sI13
g176
sI14
(lp181
sI15
(lp182
sI16
(lp183
sI17
(lp184
ssI15
(dp185
I0
g19
sI1
g37
sI2
g54
sI3
g70
sI4
g87
sI5
g101
sI6
g114
sI7
g126
sI8
g137
sI9
g147
sI10
g156
sI11
g164
sI12
g171
sI13
g177
sI14
g182
sI15
(lp186
sI16
(lp187
sI17
(lp188
ssI16
(dp189
I0
g20
sI1
g38
sI2
g55
sI3
g71
sI4
g88
sI5
g102
sI6
g115
sI7
g127
sI8
g138
sI9
g148
sI10
g157
sI11
g165
sI12
g172
sI13
g178
sI14
g183
sI15
g187
sI16
(lp190
sI17
(lp191
ssI17
(dp192
I0
g21
sI1
g39
sI2
g56
sI3
g72
sI4
g89
sI5
g103
sI6
g116
sI7
g128
sI8
g139
sI9
g149
sI10
g158
sI11
g166
sI12
g173
sI13
g179
sI14
g184
sI15
g188
sI16
g191
sI17
(lp193
ssa.