(lp1
(dp2
I0
(dp3
I0
(lp4
sI1
(lp5
ssI1
(dp6
I0
g5
sI1
(lp7
ssa(dp8
I0
(dp9
I0
(lp10
sI1
(lp11
Vhttp://dbpedia.org/ontology/birthPlace
p12
assI1
(dp13
I0
g11
sI1
(lp14
ssa(dp15
I0
(dp16
I0
(lp17
sI1
(lp18
ssI1
(dp19
I0
g18
sI1
(lp20
ssa(dp21
I0
(dp22
I0
(lp23
sI1
(lp24
ssI1
(dp25
I0
g24
sI1
(lp26
ssa(dp27
I0
(dp28
I0
(lp29
sI1
(lp30
ssI1
(dp31
I0
g30
sI1
(lp32
ssa(dp33
I0
(dp34
I0
(lp35
sI1
(lp36
ssI1
(dp37
I0
g36
sI1
(lp38
ssa(dp39
I0
(dp40
I0
(lp41
sI1
(lp42
ssI1
(dp43
I0
g42
sI1
(lp44
ssa(dp45
I0
(dp46
I0
(lp47
sI1
(lp48
ssI1
(dp49
I0
g48
sI1
(lp50
ssa(dp51
I0
(dp52
I0
(lp53
sI1
(lp54
ssI1
(dp55
I0
g54
sI1
(lp56
ssa(dp57
I0
(dp58
I0
(lp59
sI1
(lp60
Vhttp://dbpedia.org/ontology/birthPlace
p61
assI1
(dp62
I0
g60
sI1
(lp63
ssa(dp64
I0
(dp65
I0
(lp66
sI1
(lp67
Vhttp://dbpedia.org/ontology/birthPlace
p68
assI1
(dp69
I0
g67
sI1
(lp70
ssa(dp71
I0
(dp72
I0
(lp73
sI1
(lp74
ssI1
(dp75
I0
g74
sI1
(lp76
ssa(dp77
I0
(dp78
I0
(lp79
sI1
(lp80
Vhttp://dbpedia.org/ontology/hometown
p81
aVhttp://dbpedia.org/ontology/birthPlace
p82
assI1
(dp83
I0
g80
sI1
(lp84
ssa(dp85
I0
(dp86
I0
(lp87
sI1
(lp88
ssI1
(dp89
I0
g88
sI1
(lp90
ssa(dp91
I0
(dp92
I0
(lp93
sI1
(lp94
ssI1
(dp95
I0
g94
sI1
(lp96
ssa(dp97
I0
(dp98
I0
(lp99
sI1
(lp100
ssI1
(dp101
I0
g100
sI1
(lp102
ssa(dp103
I0
(dp104
I0
(lp105
sI1
(lp106
ssI1
(dp107
I0
g106
sI1
(lp108
ssa.