(lp1
(lp2
(lp3
((lp4
Vhttp://www.w3.org/2002/07/owl#Thing
p5
aVhttp://xmlns.com/foaf/0.1/Person
p6
aVhttp://dbpedia.org/ontology/Person
p7
aVhttp://www.ontologydesignpatterns.org/ont/dul/DUL.owl#Agent
p8
aVhttp://www.ontologydesignpatterns.org/ont/dul/DUL.owl#NaturalPerson
p9
aVhttp://www.wikidata.org/entity/Q215627
p10
aVhttp://www.wikidata.org/entity/Q5
p11
aVhttp://dbpedia.org/ontology/Agent
p12
aVhttp://schema.org/Person
p13
aVhttp://dbpedia.org/resource/Chase_Iron_Eyes
tp14
aa(lp15
a(lp16
a(lp17
a(lp18
a(lp19
((lp20
Vhttp://www.w3.org/2002/07/owl#Thing
p21
aVhttp://xmlns.com/foaf/0.1/Person
p22
aVhttp://dbpedia.org/ontology/Person
p23
aVhttp://www.ontologydesignpatterns.org/ont/dul/DUL.owl#Agent
p24
aVhttp://www.ontologydesignpatterns.org/ont/dul/DUL.owl#NaturalPerson
p25
aVhttp://www.wikidata.org/entity/Q215627
p26
aVhttp://www.wikidata.org/entity/Q5
p27
aVhttp://dbpedia.org/ontology/Agent
p28
aVhttp://schema.org/Person
p29
aVhttp://dbpedia.org/resource/Chevaan_Daniel
tp30
aa(lp31
a(lp32
a(lp33
a(lp34
((lp35
Vhttp://www.w3.org/2002/07/owl#Thing
p36
aVhttp://xmlns.com/foaf/0.1/Person
p37
aVhttp://dbpedia.org/ontology/Person
p38
aVhttp://www.ontologydesignpatterns.org/ont/dul/DUL.owl#Agent
p39
aVhttp://www.ontologydesignpatterns.org/ont/dul/DUL.owl#NaturalPerson
p40
aVhttp://www.wikidata.org/entity/Q215627
p41
aVhttp://www.wikidata.org/entity/Q5
p42
aVhttp://dbpedia.org/ontology/Agent
p43
aVhttp://schema.org/Person
p44
aVhttp://dbpedia.org/resource/Chris_Dorland
tp45
aa(lp46
((lp47
Vhttp://www.w3.org/2002/07/owl#Thing
p48
aVhttp://xmlns.com/foaf/0.1/Person
p49
aVhttp://dbpedia.org/ontology/Person
p50
aVhttp://www.ontologydesignpatterns.org/ont/dul/DUL.owl#Agent
p51
aVhttp://www.ontologydesignpatterns.org/ont/dul/DUL.owl#NaturalPerson
p52
aVhttp://www.wikidata.org/entity/Q215627
p53
aVhttp://www.wikidata.org/entity/Q5
p54
aVhttp://dbpedia.org/ontology/Agent
p55
aVhttp://schema.org/Person
p56
aVhttp://dbpedia.org/resource/Chris_Gayne
tp57
aa(lp58
a(lp59
a(lp60
((lp61
Vhttp://dbpedia.org/class/yago/Alumnus109786338
p62
aVhttp://dbpedia.org/class/yago/CausalAgent100007347
p63
aVhttp://dbpedia.org/class/yago/Intellectual109621545
p64
aVhttp://dbpedia.org/class/yago/LivingThing100004258
p65
aVhttp://dbpedia.org/class/yago/Object100002684
p66
aVhttp://dbpedia.org/class/yago/Organism100004475
p67
aVhttp://dbpedia.org/class/yago/Person100007846
p68
aVhttp://dbpedia.org/class/yago/Scholar110557854
p69
aVhttp://dbpedia.org/class/yago/Whole100003553
p70
aVhttp://dbpedia.org/class/yago/YagoLegalActorGeo
p71
aVhttp://dbpedia.org/class/yago/SanFranciscoStateUniversityAlumni
p72
aVhttp://dbpedia.org/class/yago/StanfordUniversityAlumni
p73
aVhttp://www.w3.org/2002/07/owl#Thing
p74
aVhttp://xmlns.com/foaf/0.1/Person
p75
aVhttp://dbpedia.org/ontology/Person
p76
aVhttp://www.ontologydesignpatterns.org/ont/dul/DUL.owl#Agent
p77
aVhttp://www.ontologydesignpatterns.org/ont/dul/DUL.owl#NaturalPerson
p78
aVhttp://www.wikidata.org/entity/Q215627
p79
aVhttp://www.wikidata.org/entity/Q5
p80
aVhttp://dbpedia.org/ontology/Agent
p81
aVhttp://schema.org/Person
p82
aVhttp://dbpedia.org/class/yago/YagoLegalActor
p83
aVhttp://dbpedia.org/class/yago/LivingPeople
p84
aVhttp://dbpedia.org/class/yago/PhysicalEntity100001930
p85
aVhttp://dbpedia.org/resource/Chris_Larsen
tp86
aa(lp87
((lp88
Vhttp://www.w3.org/2002/07/owl#Thing
p89
aVhttp://xmlns.com/foaf/0.1/Person
p90
aVhttp://www.ontologydesignpatterns.org/ont/dul/DUL.owl#Agent
p91
aVhttp://www.ontologydesignpatterns.org/ont/dul/DUL.owl#NaturalPerson
p92
aVhttp://www.wikidata.org/entity/Q215627
p93
aVhttp://www.wikidata.org/entity/Q5
p94
aVhttp://dbpedia.org/ontology/Agent
p95
aVhttp://schema.org/Person
p96
aVhttp://dbpedia.org/resource/Green_Party_of_Ontario_candidates,_2003_Ontario_provincial_election
tp97
aa(lp98
a(lp99
a(lp100
((lp101
Vhttp://www.w3.org/2002/07/owl#Thing
p102
aVhttp://xmlns.com/foaf/0.1/Person
p103
aVhttp://dbpedia.org/ontology/Person
p104
aVhttp://www.ontologydesignpatterns.org/ont/dul/DUL.owl#Agent
p105
aVhttp://www.ontologydesignpatterns.org/ont/dul/DUL.owl#NaturalPerson
p106
aVhttp://www.wikidata.org/entity/Q215627
p107
aVhttp://www.wikidata.org/entity/Q5
p108
aVhttp://dbpedia.org/ontology/Agent
p109
aVhttp://schema.org/Person
p110
aVhttp://dbpedia.org/resource/Chris_Rynning
tp111
aa(lp112
((lp113
Vhttp://www.w3.org/2002/07/owl#Thing
p114
aVhttp://xmlns.com/foaf/0.1/Person
p115
aVhttp://dbpedia.org/ontology/Person
p116
aVhttp://www.ontologydesignpatterns.org/ont/dul/DUL.owl#Agent
p117
aVhttp://www.ontologydesignpatterns.org/ont/dul/DUL.owl#NaturalPerson
p118
aVhttp://www.wikidata.org/entity/Q215627
p119
aVhttp://www.wikidata.org/entity/Q5
p120
aVhttp://dbpedia.org/ontology/Agent
p121
aVhttp://schema.org/Person
p122
aVhttp://dbpedia.org/resource/Chris_Soules
p123
tp124
aaa.