ccollections
defaultdict
p1
(c__builtin__
dict
p2
tRp3
I0
(dp4
I1
(lp5
ssI1
(dp6
I1
(lp7
ssI3
(dp8
I1
(lp9
Vhttp://dbpedia.org/ontology/abstract
p10
aVhttp://purl.org/dc/terms/subject
p11
aVhttp://www.w3.org/2000/01/rdf-schema#comment
p12
assI6
(dp13
I1
(lp14
ssI7
(dp15
I1
(lp16
ssI15
(dp17
I1
(lp18
ssI16
(dp19
I1
(lp20
ss.