(lp1
(lp2
(lp3
a(lp4
a(lp5
a(lp6
((lp7
Vhttp://dbpedia.org/class/yago/Location100027167
p8
aVhttp://dbpedia.org/class/yago/Object100002684
p9
aVhttp://dbpedia.org/class/yago/Region108630985
p10
aVhttp://dbpedia.org/class/yago/Site108651247
p11
aVhttp://dbpedia.org/class/yago/Tract108673395
p12
aVhttp://dbpedia.org/class/yago/YagoGeoEntity
p13
aVhttp://dbpedia.org/class/yago/YagoLegalActorGeo
p14
aVhttp://dbpedia.org/class/yago/PopulatedPlacesInSabaragamuwaProvince
p15
aVhttp://www.w3.org/2002/07/owl#Thing
p16
aVhttp://dbpedia.org/ontology/Place
p17
aVhttp://dbpedia.org/ontology/Location
p18
aVhttp://www.wikidata.org/entity/Q486972
p19
aVhttp://dbpedia.org/ontology/PopulatedPlace
p20
aVhttp://www.w3.org/2003/01/geo/wgs84_pos#SpatialThing
p21
aVhttp://schema.org/Place
p22
aVhttp://dbpedia.org/class/yago/YagoPermanentlyLocatedEntity
p23
aVhttp://dbpedia.org/class/yago/GeographicalArea108574314
p24
aVhttp://dbpedia.org/class/yago/PhysicalEntity100001930
p25
aVhttp://dbpedia.org/resource/Ambepussa
tp26
aa(lp27
a(lp28
((lp29
Vhttp://dbpedia.org/class/yago/BodyOfWater109225146
p30
aVhttp://dbpedia.org/class/yago/River109411430
p31
aVhttp://dbpedia.org/class/yago/Stream109448361
p32
aVhttp://dbpedia.org/class/yago/Thing100002452
p33
aVhttp://dbpedia.org/class/yago/YagoGeoEntity
p34
aVhttp://dbpedia.org/class/yago/RiversOfGujarat
p35
aVhttp://dbpedia.org/class/yago/RiversOfMaharashtra
p36
aVhttp://www.w3.org/2003/01/geo/wgs84_pos#SpatialThing
p37
aVhttp://dbpedia.org/class/yago/YagoPermanentlyLocatedEntity
p38
aVhttp://dbpedia.org/class/yago/PhysicalEntity100001930
p39
aVhttp://dbpedia.org/resource/Ambika_River
tp40
aa(lp41
a(lp42
a(lp43
a(lp44
a(lp45
a(lp46
a(lp47
a(lp48
a(lp49
a(lp50
((lp51
Vhttp://dbpedia.org/class/yago/Location100027167
p52
aVhttp://dbpedia.org/class/yago/Object100002684
p53
aVhttp://dbpedia.org/class/yago/Region108630985
p54
aVhttp://dbpedia.org/class/yago/Site108651247
p55
aVhttp://dbpedia.org/class/yago/Tract108673395
p56
aVhttp://dbpedia.org/class/yago/YagoGeoEntity
p57
aVhttp://dbpedia.org/class/yago/YagoLegalActorGeo
p58
aVhttp://dbpedia.org/class/yago/PopulatedPlacesInHauteMatsiatra
p59
aVhttp://www.w3.org/2003/01/geo/wgs84_pos#SpatialThing
p60
aVhttp://dbpedia.org/class/yago/YagoPermanentlyLocatedEntity
p61
aVhttp://dbpedia.org/class/yago/GeographicalArea108574314
p62
aVhttp://dbpedia.org/class/yago/PhysicalEntity100001930
p63
aVhttp://dbpedia.org/resource/Ambohimahamasina
tp64
aa(lp65
((lp66
Vhttp://dbpedia.org/class/yago/AdministrativeDistrict108491826
p67
aVhttp://dbpedia.org/class/yago/City108524735
p68
aVhttp://dbpedia.org/class/yago/District108552138
p69
aVhttp://dbpedia.org/class/yago/Location100027167
p70
aVhttp://dbpedia.org/class/yago/Object100002684
p71
aVhttp://dbpedia.org/class/yago/Region108630985
p72
aVhttp://dbpedia.org/class/yago/Site108651247
p73
aVhttp://dbpedia.org/class/yago/Tract108673395
p74
aVhttp://dbpedia.org/class/yago/UrbanArea108675967
p75
aVhttp://dbpedia.org/class/yago/YagoGeoEntity
p76
aVhttp://dbpedia.org/class/yago/YagoLegalActorGeo
p77
aVhttp://dbpedia.org/class/yago/PopulatedPlacesInHauteMatsiatra
p78
aVhttp://www.w3.org/2003/01/geo/wgs84_pos#SpatialThing
p79
aVhttp://dbpedia.org/class/yago/CitiesInMadagascar
p80
aVhttp://dbpedia.org/class/yago/YagoPermanentlyLocatedEntity
p81
aVhttp://dbpedia.org/class/yago/GeographicalArea108574314
p82
aVhttp://dbpedia.org/class/yago/Municipality108626283
p83
aVhttp://dbpedia.org/class/yago/PhysicalEntity100001930
p84
aVhttp://dbpedia.org/resource/Ambohimahasoa
p85
tp86
aa(lp87
a(lp88
aa.