(lp1
(lp2
(lp3
Vhttp://dbpedia.org/resource/Jim_Hall_(boxer)
p4
aa(lp5
Vhttp://dbpedia.org/resource/Joe_Brown_(boxer)
p6
aa(lp7
Vhttp://dbpedia.org/resource/Jorge_Castro_(boxer)
p8
aa(lp9
Vhttp://dbpedia.org/resource/Kevin_Anderson_(boxer)
p10
aa(lp11
Vhttp://dbpedia.org/resource/Kevin_Mitchell_(boxer)
p12
aa(lp13
Vhttp://dbpedia.org/resource/Lee_Sala
p14
aa(lp15
Vhttp://dbpedia.org/resource/Leonardo_Zappavigna
p16
aa(lp17
Vhttp://dbpedia.org/resource/Luis_Ortiz_(Puerto_Rican_boxer)
p18
aa(lp19
Vhttp://dbpedia.org/resource/Milo_Calhoun
p20
aa(lp21
Vhttp://dbpedia.org/resource/Napa_Kiatwanchai
p22
aa(lp23
a(lp24
Vhttp://dbpedia.org/resource/Paul_Jones_(boxer)
p25
aa(lp26
Vhttp://dbpedia.org/resource/Percy_Vear
p27
aa(lp28
Vhttp://dbpedia.org/resource/Satoshi_Shiki
p29
aa(lp30
Vhttp://dbpedia.org/resource/Satoshi_Shingaki
p31
aa(lp32
a(lp33
Vhttp://dbpedia.org/resource/Taurus_Sykes
p34
aa(lp35
Vhttp://dbpedia.org/resource/Terry_Marsh_(boxer)
p36
aa(lp37
Vhttp://dbpedia.org/resource/Tom_Sharkey
p38
aaa.