(lp1
(lp2
(lp3
Vhttp://dbpedia.org/resource/Kansas_City_Outlaws
p4
aa(lp5
Vhttp://dbpedia.org/resource/Kildonan_North_Stars
p6
aa(lp7
Vhttp://dbpedia.org/resource/Krefeld_Pinguine
p8
aa(lp9
Vhttp://dbpedia.org/resource/Los_Angeles_Blades
p10
aa(lp11
Vhttp://dbpedia.org/resource/Merritt_Centennials
p12
aa(lp13
Vhttp://dbpedia.org/resource/Minnesota_North_Stars
p14
aa(lp15
Vhttp://dbpedia.org/resource/Mississauga_Steelheads
p16
aa(lp17
Vhttp://dbpedia.org/resource/Mohawk_Valley_Comets_(ACHL)
p18
aa(lp19
Vhttp://dbpedia.org/resource/Mohawk_Valley_Comets_(ACHL)
p20
aa(lp21
Vhttp://dbpedia.org/resource/New_Mexico_Scorpions
p22
aa(lp23
Vhttp://dbpedia.org/resource/Nipissing_Alouettes
p24
aa(lp25
Vhttp://dbpedia.org/resource/Portland_Rosebuds_(ice_hockey)
p26
aa(lp27
Vhttp://dbpedia.org/resource/Richmond_Renegades
p28
aa(lp29
a(lp30
a(lp31
Vhttp://dbpedia.org/resource/Sarnia_Legionnaires_(1954\u201370)
p32
aa(lp33
Vhttp://dbpedia.org/resource/St._Charles_Mall
p34
aa(lp35
Vhttp://dbpedia.org/resource/Sydney_Bears
p36
aa(lp37
Vhttp://dbpedia.org/resource/Syracuse_Crunch
p38
aaa.