ccollections
defaultdict
p1
(c__builtin__
dict
p2
tRp3
I2
(dp4
I1
(lp5
Vhttp://www.w3.org/ns/prov#wasDerivedFrom
p6
asI2
(lp7
Vhttp://dbpedia.org/ontology/wikiPageExternalLink
p8
aVhttp://dbpedia.org/property/website
p9
aVhttp://xmlns.com/foaf/0.1/homepage
p10
asI3
(lp11
ss.