ccollections
defaultdict
p1
(c__builtin__
dict
p2
tRp3
I0
(dp4
I1
(lp5
sI2
(lp6
Vhttp://www.w3.org/ns/prov#wasDerivedFrom
p7
asI3
(lp8
Vhttp://dbpedia.org/ontology/wikiPageExternalLink
p9
aVhttp://xmlns.com/foaf/0.1/homepage
p10
aVhttp://dbpedia.org/property/homepage
p11
assI16
(dp12
I1
(lp13
sI2
(lp14
Vhttp://www.w3.org/ns/prov#wasDerivedFrom
p15
asI3
(lp16
Vhttp://dbpedia.org/ontology/wikiPageExternalLink
p17
aVhttp://dbpedia.org/property/website
p18
aVhttp://xmlns.com/foaf/0.1/homepage
p19
assI18
(dp20
I1
(lp21
sI2
(lp22
Vhttp://www.w3.org/ns/prov#wasDerivedFrom
p23
asI3
(lp24
Vhttp://dbpedia.org/ontology/wikiPageExternalLink
p25
aVhttp://dbpedia.org/property/website
p26
aVhttp://xmlns.com/foaf/0.1/homepage
p27
ass.