(lp1
(lp2
(lp3
a(lp4
a(lp5
a(lp6
aa(lp7
(lp8
a(lp9
a(lp10
a(lp11
aa(lp12
(lp13
a(lp14
a(lp15
a(lp16
aa(lp17
(lp18
a(lp19
a(lp20
a(lp21
aa(lp22
(lp23
a(lp24
a(lp25
a(lp26
aa(lp27
(lp28
a(lp29
a(lp30
a(lp31
aa(lp32
(lp33
a(lp34
a(lp35
a(lp36
((lp37
Vhttp://dbpedia.org/class/yago/Abstraction100002137
p38
aVhttp://dbpedia.org/class/yago/Act100030358
p39
aVhttp://dbpedia.org/class/yago/Activity100407535
p40
aVhttp://dbpedia.org/class/yago/Celebration100428000
p41
aVhttp://dbpedia.org/class/yago/Diversion100426928
p42
aVhttp://dbpedia.org/class/yago/Event100029378
p43
aVhttp://dbpedia.org/class/yago/Festival100517728
p44
aVhttp://dbpedia.org/class/yago/Festival115162388
p45
aVhttp://dbpedia.org/class/yago/FilmFestival100517418
p46
aVhttp://dbpedia.org/class/yago/TimePeriod115113229
p47
aVhttp://dbpedia.org/class/yago/FestivalsInMontreal
p48
aVhttp://dbpedia.org/class/yago/FilmFestivalsInQuebec
p49
aVhttp://dbpedia.org/class/yago/PsychologicalFeature100023100
p50
aVhttp://dbpedia.org/class/yago/YagoPermanentlyLocatedEntity
p51
aVhttp://dbpedia.org/class/yago/FundamentalQuantity113575869
p52
aVhttp://dbpedia.org/class/yago/InternationalFilmFestivals
p53
aVhttp://dbpedia.org/class/yago/Measure100033615
p54
aVhttp://dbpedia.org/resource/Cinemania_(film_festival)
p55
tp56
aaa(lp57
(lp58
a(lp59
a(lp60
a(lp61
aa(lp62
(lp63
a(lp64
a(lp65
a(lp66
aa(lp67
(lp68
a(lp69
a(lp70
a(lp71
aa(lp72
(lp73
a(lp74
a(lp75
a(lp76
aa(lp77
(lp78
a(lp79
a(lp80
a(lp81
aa(lp82
(lp83
a(lp84
a(lp85
a(lp86
aa(lp87
(lp88
a(lp89
a(lp90
a(lp91
aa(lp92
(lp93
a(lp94
a(lp95
a(lp96
aa(lp97
(lp98
a(lp99
a(lp100
a(lp101
aa(lp102
(lp103
a(lp104
a(lp105
a(lp106
aa(lp107
(lp108
a(lp109
a(lp110
a(lp111
aa(lp112
(lp113
a(lp114
a(lp115
a(lp116
aa.