(lp1
(lp2
(lp3
a(lp4
aa(lp5
(lp6
a(lp7
aa(lp8
(lp9
a(lp10
aa(lp11
(lp12
a(lp13
aa(lp14
(lp15
a(lp16
aa(lp17
(lp18
a(lp19
aa(lp20
(lp21
a(lp22
aa(lp23
(lp24
a(lp25
aa(lp26
(lp27
a(lp28
aa(lp29
(lp30
a(lp31
aa(lp32
(lp33
a(lp34
aa(lp35
(lp36
a(lp37
aa(lp38
(lp39
a(lp40
aa(lp41
(lp42
a(lp43
aa(lp44
(lp45
Vhttp://dbpedia.org/resource/The_Ghosts_of_Versailles
p46
aa(lp47
aa(lp48
(lp49
a(lp50
aa(lp51
(lp52
a(lp53
aa(lp54
(lp55
a(lp56
aa(lp57
(lp58
Vhttp://dbpedia.org/resource/The_Taming_of_the_Shrew_(Shebalin)
p59
aa(lp60
aa.