(lp1
(lp2
(lp3
((lVhttp://dbpedia.org/resource/Samoan_t%C4%81l%C4%81
tp4
aa(lp5
a(lp6
a(lp7
aa(lp8
(lp9
a(lp10
a(lp11
a(lp12
aa(lp13
(lp14
a(lp15
a(lp16
a(lp17
aa(lp18
(lp19
a(lp20
a(lp21
a(lp22
aa(lp23
(lp24
a(lp25
a(lp26
a(lp27
aa(lp28
(lp29
a(lp30
a(lp31
a(lp32
aa(lp33
(lp34
a(lp35
a(lp36
a(lp37
aa(lp38
(lp39
a(lp40
a(lp41
a(lp42
aa(lp43
(lp44
((lp45
Vhttp://dbpedia.org/class/yago/BodyOfWater109225146
p46
aVhttp://dbpedia.org/class/yago/Thing100002452
p47
aVhttp://dbpedia.org/class/yago/YagoGeoEntity
p48
aVhttp://dbpedia.org/class/yago/SeasOfTheAtlanticOcean
p49
aVhttp://www.w3.org/2002/07/owl#Thing
p50
aVhttp://dbpedia.org/ontology/Place
p51
aVhttp://dbpedia.org/ontology/Location
p52
aVhttp://www.wikidata.org/entity/Q486972
p53
aVhttp://dbpedia.org/ontology/PopulatedPlace
p54
aVhttp://www.w3.org/2003/01/geo/wgs84_pos#SpatialThing
p55
aVhttp://schema.org/Place
p56
aVhttp://dbpedia.org/class/yago/YagoPermanentlyLocatedEntity
p57
aVhttp://dbpedia.org/class/yago/MarginalSeasOfTheSouthernOcean
p58
aVhttp://dbpedia.org/class/yago/PhysicalEntity100001930
p59
aVhttp://dbpedia.org/class/yago/Sea109426788
p60
aVhttp://dbpedia.org/resource/Argentine_Sea
tp61
aa(lp62
a(lp63
a(lp64
aa(lp65
(lp66
a(lp67
a(lp68
a(lp69
aa(lp70
(lp71
((lp72
Vhttp://www.w3.org/2002/07/owl#Thing
p73
aVhttp://dbpedia.org/ontology/Currency
p74
aVhttp://dbpedia.org/resource/Japanese_government-issued_Oceanian_Pound
tp75
aa(lp76
a(lp77
a(lp78
aa(lp79
(lp80
a(lp81
a(lp82
a(lp83
aa(lp84
(lp85
a(lp86
a(lp87
a(lp88
aa(lp89
(lp90
a(lp91
a(lp92
a(lp93
aa(lp94
(lp95
((lVhttp://dbpedia.org/resource/History_of_the_Jews_in_El_Salvador
tp96
aa(lp97
a(lp98
a(lp99
aa(lp100
(lp101
((lVhttp://dbpedia.org/resource/Sardinian_wine
tp102
aa(lp103
a(lp104
a(lp105
aa(lp106
(lp107
a(lp108
a(lp109
a(lp110
aa(lp111
(lp112
a(lp113
a(lp114
a(lp115
aa(lp116
(lp117
((lp118
Vhttp://dbpedia.org/class/yago/Abstraction100002137
p119
aVhttp://dbpedia.org/class/yago/Group100031264
p120
aVhttp://dbpedia.org/class/yago/MilitaryUnit108198398
p121
aVhttp://dbpedia.org/class/yago/Organization108008335
p122
aVhttp://dbpedia.org/class/yago/SocialGroup107950920
p123
aVhttp://dbpedia.org/class/yago/Unit108189659
p124
aVhttp://dbpedia.org/class/yago/YagoLegalActorGeo
p125
aVhttp://www.w3.org/2002/07/owl#Thing
p126
aVhttp://www.ontologydesignpatterns.org/ont/dul/DUL.owl#Agent
p127
aVhttp://www.ontologydesignpatterns.org/ont/dul/DUL.owl#SocialPerson
p128
aVhttp://www.wikidata.org/entity/Q176799
p129
aVhttp://www.wikidata.org/entity/Q43229
p130
aVhttp://dbpedia.org/ontology/Agent
p131
aVhttp://dbpedia.org/ontology/MilitaryUnit
p132
aVhttp://dbpedia.org/ontology/Organisation
p133
aVhttp://schema.org/Organization
p134
aVhttp://dbpedia.org/class/yago/YagoPermanentlyLocatedEntity
p135
aVhttp://dbpedia.org/class/yago/YagoLegalActor
p136
aVhttp://dbpedia.org/class/yago/MilitaryUnitsAndFormationsEstablishedIn1992
p137
aVhttp://dbpedia.org/resource/Nagorno-Karabakh_Defense_Army
p138
tp139
aa(lp140
a(lp141
a(lp142
aa.