(lp1
(lp2
(lp3
a(lp4
a(lp5
((lp6
Vhttp://www.w3.org/2003/01/geo/wgs84_pos#SpatialThing
p7
aVhttp://dbpedia.org/resource/Alex\u0103ndre\u0219ti
tp8
aa(lp9
((lp10
Vhttp://dbpedia.org/class/yago/BodyOfWater109225146
p11
aVhttp://dbpedia.org/class/yago/River109411430
p12
aVhttp://dbpedia.org/class/yago/Stream109448361
p13
aVhttp://dbpedia.org/class/yago/Thing100002452
p14
aVhttp://dbpedia.org/class/yago/YagoGeoEntity
p15
aVhttp://dbpedia.org/class/yago/RiversOfAltaiKrai
p16
aVhttp://www.w3.org/2002/07/owl#Thing
p17
aVhttp://dbpedia.org/ontology/Place
p18
aVhttp://dbpedia.org/ontology/Location
p19
aVhttp://www.wikidata.org/entity/Q4022
p20
aVhttp://www.wikidata.org/entity/Q47521
p21
aVhttp://dbpedia.org/ontology/BodyOfWater
p22
aVhttp://dbpedia.org/ontology/NaturalPlace
p23
aVhttp://dbpedia.org/ontology/Stream
p24
aVhttp://www.w3.org/2003/01/geo/wgs84_pos#SpatialThing
p25
aVhttp://schema.org/BodyOfWater
p26
aVhttp://schema.org/Place
p27
aVhttp://schema.org/RiverBodyOfWater
p28
aVhttp://dbpedia.org/class/yago/YagoPermanentlyLocatedEntity
p29
aVhttp://dbpedia.org/class/yago/PhysicalEntity100001930
p30
aVhttp://dbpedia.org/resource/Aley_River
tp31
aa(lp32
a(lp33
a(lp34
a(lp35
((lp36
Vhttp://dbpedia.org/class/yago/Artifact100021939
p37
aVhttp://dbpedia.org/class/yago/Facility103315023
p38
aVhttp://dbpedia.org/class/yago/Island109316454
p39
aVhttp://dbpedia.org/class/yago/Land109334396
p40
aVhttp://dbpedia.org/class/yago/Object100002684
p41
aVhttp://dbpedia.org/class/yago/Station104306080
p42
aVhttp://dbpedia.org/class/yago/Whole100003553
p43
aVhttp://dbpedia.org/class/yago/YagoGeoEntity
p44
aVhttp://dbpedia.org/class/yago/ResearchStations
p45
aVhttp://www.w3.org/2003/01/geo/wgs84_pos#SpatialThing
p46
aVhttp://dbpedia.org/class/yago/CrozetIslands
p47
aVhttp://dbpedia.org/class/yago/YagoPermanentlyLocatedEntity
p48
aVhttp://dbpedia.org/class/yago/PhysicalEntity100001930
p49
aVhttp://dbpedia.org/resource/Alfred_Faure
tp50
aa(lp51
((lp52
Vhttp://dbpedia.org/class/yago/BodyOfWater109225146
p53
aVhttp://dbpedia.org/class/yago/River109411430
p54
aVhttp://dbpedia.org/class/yago/Stream109448361
p55
aVhttp://dbpedia.org/class/yago/Thing100002452
p56
aVhttp://dbpedia.org/class/yago/YagoGeoEntity
p57
aVhttp://dbpedia.org/class/yago/RiversOfTheTasmanRegion
p58
aVhttp://www.w3.org/2003/01/geo/wgs84_pos#SpatialThing
p59
aVhttp://dbpedia.org/class/yago/YagoPermanentlyLocatedEntity
p60
aVhttp://dbpedia.org/class/yago/PhysicalEntity100001930
p61
aVhttp://dbpedia.org/resource/Alfred_River
tp62
aa(lp63
a(lp64
((lVhttp://dbpedia.org/resource/Alfred%C3%B3wka
p65
tp66
aa(lp67
a(lp68
a(lp69
a(lp70
aa.