(lp1
(lp2
(lp3
((lp4
Vhttp://www.w3.org/2002/07/owl#Thing
p5
aVhttp://www.ontologydesignpatterns.org/ont/dul/DUL.owl#Event
p6
aVhttp://www.wikidata.org/entity/Q1656682
p7
aVhttp://www.wikidata.org/entity/Q500834
p8
aVhttp://dbpedia.org/ontology/Event
p9
aVhttp://dbpedia.org/ontology/SoccerTournament
p10
aVhttp://dbpedia.org/ontology/SocietalEvent
p11
aVhttp://dbpedia.org/ontology/SportsEvent
p12
aVhttp://dbpedia.org/ontology/Tournament
p13
aVhttp://schema.org/Event
p14
aVhttp://schema.org/SportsEvent
p15
aVhttp://dbpedia.org/resource/2011_Conference_USA_Men's_Soccer_Tournament
tp16
aa(lp17
a(lp18
a(lp19
aa(lp20
(lp21
((lp22
Vhttp://www.w3.org/2002/07/owl#Thing
p23
aVhttp://www.ontologydesignpatterns.org/ont/dul/DUL.owl#Event
p24
aVhttp://www.wikidata.org/entity/Q1656682
p25
aVhttp://www.wikidata.org/entity/Q500834
p26
aVhttp://dbpedia.org/ontology/Event
p27
aVhttp://dbpedia.org/ontology/SocietalEvent
p28
aVhttp://dbpedia.org/ontology/SportsEvent
p29
aVhttp://dbpedia.org/ontology/Tournament
p30
aVhttp://dbpedia.org/ontology/WomensTennisAssociationTournament
p31
aVhttp://www.w3.org/2003/01/geo/wgs84_pos#SpatialThing
p32
aVhttp://schema.org/Event
p33
aVhttp://schema.org/SportsEvent
p34
aVhttp://dbpedia.org/resource/U.S._National_Indoor_Tennis_Championships
tp35
aa(lp36
a(lp37
a(lp38
aa(lp39
(lp40
((lp41
Vhttp://www.w3.org/2002/07/owl#Thing
p42
aVhttp://www.ontologydesignpatterns.org/ont/dul/DUL.owl#Event
p43
aVhttp://www.wikidata.org/entity/Q1656682
p44
aVhttp://www.wikidata.org/entity/Q500834
p45
aVhttp://dbpedia.org/ontology/Event
p46
aVhttp://dbpedia.org/ontology/SoccerTournament
p47
aVhttp://dbpedia.org/ontology/SocietalEvent
p48
aVhttp://dbpedia.org/ontology/SportsEvent
p49
aVhttp://dbpedia.org/ontology/Tournament
p50
aVhttp://schema.org/Event
p51
aVhttp://schema.org/SportsEvent
p52
aVhttp://dbpedia.org/resource/2011_Conference_USA_Men's_Soccer_Tournament
tp53
aa(lp54
a(lp55
a(lp56
aa(lp57
(lp58
((lp59
Vhttp://www.w3.org/2002/07/owl#Thing
p60
aVhttp://www.ontologydesignpatterns.org/ont/dul/DUL.owl#Event
p61
aVhttp://www.wikidata.org/entity/Q1656682
p62
aVhttp://dbpedia.org/ontology/Event
p63
aVhttp://schema.org/Event
p64
aVhttp://dbpedia.org/resource/2007_Toulon_Tournament
tp65
aa(lp66
a(lp67
a(lp68
aa(lp69
(lp70
((lp71
Vhttp://www.w3.org/2002/07/owl#Thing
p72
aVhttp://www.ontologydesignpatterns.org/ont/dul/DUL.owl#Event
p73
aVhttp://www.wikidata.org/entity/Q1656682
p74
aVhttp://www.wikidata.org/entity/Q500834
p75
aVhttp://dbpedia.org/ontology/Event
p76
aVhttp://dbpedia.org/ontology/SoccerTournament
p77
aVhttp://dbpedia.org/ontology/SocietalEvent
p78
aVhttp://dbpedia.org/ontology/SportsEvent
p79
aVhttp://dbpedia.org/ontology/Tournament
p80
aVhttp://schema.org/Event
p81
aVhttp://schema.org/SportsEvent
p82
aVhttp://dbpedia.org/resource/2011_Conference_USA_Men's_Soccer_Tournament
tp83
aa(lp84
a(lp85
a(lp86
aa(lp87
(lp88
a(lp89
a(lp90
a(lp91
aa(lp92
(lp93
((lp94
Vhttp://www.w3.org/2002/07/owl#Thing
p95
aVhttp://www.ontologydesignpatterns.org/ont/dul/DUL.owl#Event
p96
aVhttp://www.wikidata.org/entity/Q1656682
p97
aVhttp://www.wikidata.org/entity/Q500834
p98
aVhttp://dbpedia.org/ontology/Event
p99
aVhttp://dbpedia.org/ontology/SoccerTournament
p100
aVhttp://dbpedia.org/ontology/SocietalEvent
p101
aVhttp://dbpedia.org/ontology/SportsEvent
p102
aVhttp://dbpedia.org/ontology/Tournament
p103
aVhttp://schema.org/Event
p104
aVhttp://schema.org/SportsEvent
p105
aVhttp://dbpedia.org/resource/2011_Conference_USA_Men's_Soccer_Tournament
tp106
aa(lp107
a(lp108
a(lp109
aa(lp110
(lp111
((lp112
Vhttp://www.w3.org/2002/07/owl#Thing
p113
aVhttp://www.ontologydesignpatterns.org/ont/dul/DUL.owl#Event
p114
aVhttp://www.wikidata.org/entity/Q1656682
p115
aVhttp://dbpedia.org/ontology/Event
p116
aVhttp://schema.org/Event
p117
aVhttp://dbpedia.org/resource/2008_Norwegian_Football_Cup_Final
tp118
aa(lp119
a(lp120
a(lp121
aa(lp122
(lp123
a(lp124
a(lp125
a(lp126
aa(lp127
(lp128
((lp129
Vhttp://www.w3.org/2002/07/owl#Thing
p130
aVhttp://www.ontologydesignpatterns.org/ont/dul/DUL.owl#Event
p131
aVhttp://www.wikidata.org/entity/Q1656682
p132
aVhttp://www.wikidata.org/entity/Q500834
p133
aVhttp://dbpedia.org/ontology/Event
p134
aVhttp://dbpedia.org/ontology/SoccerTournament
p135
aVhttp://dbpedia.org/ontology/SocietalEvent
p136
aVhttp://dbpedia.org/ontology/SportsEvent
p137
aVhttp://dbpedia.org/ontology/Tournament
p138
aVhttp://schema.org/Event
p139
aVhttp://schema.org/SportsEvent
p140
aVhttp://dbpedia.org/resource/2011_Conference_USA_Men's_Soccer_Tournament
tp141
aa(lp142
a(lp143
a(lp144
aa(lp145
(lp146
((lp147
Vhttp://www.w3.org/2002/07/owl#Thing
p148
aVhttp://www.ontologydesignpatterns.org/ont/dul/DUL.owl#Event
p149
aVhttp://www.wikidata.org/entity/Q1656682
p150
aVhttp://dbpedia.org/ontology/Event
p151
aVhttp://schema.org/Event
p152
aVhttp://dbpedia.org/resource/2009_Norwegian_Football_Cup_Final
tp153
aa(lp154
a(lp155
a(lp156
aa(lp157
(lp158
((lp159
Vhttp://www.w3.org/2002/07/owl#Thing
p160
aVhttp://www.ontologydesignpatterns.org/ont/dul/DUL.owl#Event
p161
aVhttp://www.wikidata.org/entity/Q1656682
p162
aVhttp://www.wikidata.org/entity/Q500834
p163
aVhttp://dbpedia.org/ontology/Event
p164
aVhttp://dbpedia.org/ontology/SoccerTournament
p165
aVhttp://dbpedia.org/ontology/SocietalEvent
p166
aVhttp://dbpedia.org/ontology/SportsEvent
p167
aVhttp://dbpedia.org/ontology/Tournament
p168
aVhttp://schema.org/Event
p169
aVhttp://schema.org/SportsEvent
p170
aVhttp://dbpedia.org/resource/2011_Conference_USA_Men's_Soccer_Tournament
tp171
aa(lp172
a(lp173
a(lp174
aa(lp175
(lp176
a(lp177
a(lp178
a(lp179
aa(lp180
(lp181
((lp182
Vhttp://www.w3.org/2002/07/owl#Thing
p183
aVhttp://www.ontologydesignpatterns.org/ont/dul/DUL.owl#Event
p184
aVhttp://www.wikidata.org/entity/Q1656682
p185
aVhttp://www.wikidata.org/entity/Q500834
p186
aVhttp://dbpedia.org/ontology/Event
p187
aVhttp://dbpedia.org/ontology/SoccerTournament
p188
aVhttp://dbpedia.org/ontology/SocietalEvent
p189
aVhttp://dbpedia.org/ontology/SportsEvent
p190
aVhttp://dbpedia.org/ontology/Tournament
p191
aVhttp://schema.org/Event
p192
aVhttp://schema.org/SportsEvent
p193
aVhttp://dbpedia.org/resource/2011_Conference_USA_Men's_Soccer_Tournament
tp194
aa(lp195
a(lp196
a(lp197
aa(lp198
(lp199
a(lp200
a(lp201
a(lp202
aa(lp203
(lp204
((lp205
Vhttp://www.w3.org/2002/07/owl#Thing
p206
aVhttp://www.ontologydesignpatterns.org/ont/dul/DUL.owl#Event
p207
aVhttp://www.wikidata.org/entity/Q1656682
p208
aVhttp://www.wikidata.org/entity/Q500834
p209
aVhttp://dbpedia.org/ontology/Event
p210
aVhttp://dbpedia.org/ontology/SoccerTournament
p211
aVhttp://dbpedia.org/ontology/SocietalEvent
p212
aVhttp://dbpedia.org/ontology/SportsEvent
p213
aVhttp://dbpedia.org/ontology/Tournament
p214
aVhttp://schema.org/Event
p215
aVhttp://schema.org/SportsEvent
p216
aVhttp://dbpedia.org/resource/2011_Conference_USA_Men's_Soccer_Tournament
p217
tp218
aa(lp219
a(lp220
a(lp221
aa(lp222
(lp223
a(lp224
a(lp225
a(lp226
aa(lp227
(lp228
a(lp229
a(lp230
a(lp231
aa(lp232
(lp233
a(lp234
a(lp235
a(lp236
aa.