(lp1
(lp2
(lp3
a(lp4
a(lp5
a(lp6
a(lp7
aa(lp8
(lp9
a(lp10
a(lp11
a(lp12
a(lp13
((lp14
Vhttp://dbpedia.org/class/yago/Location100027167
p15
aVhttp://dbpedia.org/class/yago/Object100002684
p16
aVhttp://dbpedia.org/class/yago/Park108615149
p17
aVhttp://dbpedia.org/class/yago/Region108630985
p18
aVhttp://dbpedia.org/class/yago/Tract108673395
p19
aVhttp://dbpedia.org/class/yago/YagoGeoEntity
p20
aVhttp://dbpedia.org/class/yago/YagoLegalActorGeo
p21
aVhttp://dbpedia.org/class/yago/ScienceParksInTheUnitedStates
p22
aVhttp://www.w3.org/2003/01/geo/wgs84_pos#SpatialThing
p23
aVhttp://dbpedia.org/class/yago/YagoPermanentlyLocatedEntity
p24
aVhttp://dbpedia.org/class/yago/GeographicalArea108574314
p25
aVhttp://dbpedia.org/class/yago/PhysicalEntity100001930
p26
aVhttp://dbpedia.org/resource/Rensselaer_Technology_Park
p27
tp28
aaa(lp29
(lp30
a(lp31
a(lp32
a(lp33
a(lp34
aa(lp35
(lp36
a(lp37
a(lp38
a(lp39
a(lp40
aa(lp41
(lp42
a(lp43
a(lp44
a(lp45
a(lp46
aa(lp47
(lp48
a(lp49
a(lp50
a(lp51
a(lp52
aa(lp53
(lp54
a(lp55
a(lp56
a(lp57
a(lp58
aa(lp59
(lp60
a(lp61
a(lp62
a(lp63
a(lp64
aa(lp65
(lp66
a(lp67
a(lp68
a(lp69
a(lp70
aa(lp71
(lp72
a(lp73
a(lp74
a(lp75
a(lp76
aa(lp77
(lp78
a(lp79
a(lp80
a(lp81
a(lp82
aa(lp83
(lp84
a(lp85
a(lp86
a(lp87
a(lp88
aa.