ccollections
defaultdict
p1
(c__builtin__
dict
p2
tRp3
I0
(dp4
I0
(lp5
sI1
(lp6
sI2
(lp7
Vhttp://dbpedia.org/ontology/birthPlace
p8
assI2
(dp9
I0
(lp10
sI1
(lp11
Vhttp://purl.org/dc/terms/subject
p12
asI2
(lp13
Vhttp://dbpedia.org/ontology/birthPlace
p14
assI5
(dp15
I0
(lp16
sI1
(lp17
sI2
(lp18
ssI10
(dp19
I0
(lp20
sI1
(lp21
sI2
(lp22
ssI11
(dp23
I0
(lp24
sI1
(lp25
sI2
(lp26
ssI12
(dp27
I0
(lp28
sI1
(lp29
sI2
(lp30
ss.