(lp1
(lp2
(lp3
((lp4
Vhttp://dbpedia.org/class/yago/13th-centuryHungarianPeople
p5
aVhttp://dbpedia.org/class/yago/13th-centuryLuxembourgianPeople
p6
aVhttp://dbpedia.org/class/yago/Adult109605289
p7
aVhttp://dbpedia.org/class/yago/CausalAgent100007347
p8
aVhttp://dbpedia.org/class/yago/Communicator109610660
p9
aVhttp://dbpedia.org/class/yago/HeadOfState110164747
p10
aVhttp://dbpedia.org/class/yago/LivingThing100004258
p11
aVhttp://dbpedia.org/class/yago/Negotiator110351874
p12
aVhttp://dbpedia.org/class/yago/Object100002684
p13
aVhttp://dbpedia.org/class/yago/Organism100004475
p14
aVhttp://dbpedia.org/class/yago/Person100007846
p15
aVhttp://dbpedia.org/class/yago/Representative110522035
p16
aVhttp://dbpedia.org/class/yago/Ruler110541229
p17
aVhttp://dbpedia.org/class/yago/Sovereign110628644
p18
aVhttp://dbpedia.org/class/yago/Whole100003553
p19
aVhttp://dbpedia.org/class/yago/Woman110787470
p20
aVhttp://dbpedia.org/class/yago/YagoLegalActorGeo
p21
aVhttp://www.w3.org/2002/07/owl#Thing
p22
aVhttp://xmlns.com/foaf/0.1/Person
p23
aVhttp://dbpedia.org/ontology/Person
p24
aVhttp://www.ontologydesignpatterns.org/ont/dul/DUL.owl#Agent
p25
aVhttp://www.ontologydesignpatterns.org/ont/dul/DUL.owl#NaturalPerson
p26
aVhttp://www.wikidata.org/entity/Q215627
p27
aVhttp://www.wikidata.org/entity/Q5
p28
aVhttp://dbpedia.org/ontology/Agent
p29
aVhttp://dbpedia.org/ontology/Royalty
p30
aVhttp://schema.org/Person
p31
aVhttp://umbel.org/umbel/rc/RoyalFamily
p32
aVhttp://dbpedia.org/class/yago/YagoLegalActor
p33
aVhttp://dbpedia.org/class/yago/Female109619168
p34
aVhttp://dbpedia.org/class/yago/HungarianPeopleOfLuxembourgianDescent
p35
aVhttp://dbpedia.org/class/yago/MedievalWomen
p36
aVhttp://dbpedia.org/class/yago/PhysicalEntity100001930
p37
aVhttp://dbpedia.org/resource/Beatrice_of_Luxembourg
tp38
aa(lp39
((lp40
Vhttp://dbpedia.org/class/yago/AustrianRoyalConsorts
p41
aVhttp://dbpedia.org/class/yago/CausalAgent100007347
p42
aVhttp://dbpedia.org/class/yago/Communicator109610660
p43
aVhttp://dbpedia.org/class/yago/Consort109958724
p44
aVhttp://dbpedia.org/class/yago/HeadOfState110164747
p45
aVhttp://dbpedia.org/class/yago/LivingThing100004258
p46
aVhttp://dbpedia.org/class/yago/Negotiator110351874
p47
aVhttp://dbpedia.org/class/yago/Object100002684
p48
aVhttp://dbpedia.org/class/yago/Organism100004475
p49
aVhttp://dbpedia.org/class/yago/Person100007846
p50
aVhttp://dbpedia.org/class/yago/Relative110235549
p51
aVhttp://dbpedia.org/class/yago/Representative110522035
p52
aVhttp://dbpedia.org/class/yago/Ruler110541229
p53
aVhttp://dbpedia.org/class/yago/Sovereign110628644
p54
aVhttp://dbpedia.org/class/yago/Spouse110640620
p55
aVhttp://dbpedia.org/class/yago/Whole100003553
p56
aVhttp://dbpedia.org/class/yago/YagoLegalActorGeo
p57
aVhttp://www.w3.org/2002/07/owl#Thing
p58
aVhttp://xmlns.com/foaf/0.1/Person
p59
aVhttp://dbpedia.org/ontology/Person
p60
aVhttp://www.ontologydesignpatterns.org/ont/dul/DUL.owl#Agent
p61
aVhttp://www.ontologydesignpatterns.org/ont/dul/DUL.owl#NaturalPerson
p62
aVhttp://www.wikidata.org/entity/Q215627
p63
aVhttp://www.wikidata.org/entity/Q5
p64
aVhttp://dbpedia.org/ontology/Agent
p65
aVhttp://dbpedia.org/ontology/Royalty
p66
aVhttp://schema.org/Person
p67
aVhttp://umbel.org/umbel/rc/RoyalFamily
p68
aVhttp://dbpedia.org/class/yago/YagoLegalActor
p69
aVhttp://dbpedia.org/class/yago/DomesticPartner110024362
p70
aVhttp://dbpedia.org/class/yago/PhysicalEntity100001930
p71
aVhttp://dbpedia.org/resource/Beatrice_of_Naples
tp72
aa(lp73
a(lp74
a(lp75
a(lp76
((lp77
Vhttp://dbpedia.org/class/yago/13th-centuryFemaleRulers
p78
aVhttp://dbpedia.org/class/yago/13th-centuryMonarchsInEurope
p79
aVhttp://dbpedia.org/class/yago/13th-centurySpanishPeople
p80
aVhttp://dbpedia.org/class/yago/13th-centuryViceregalRulers
p81
aVhttp://dbpedia.org/class/yago/Adult109605289
p82
aVhttp://dbpedia.org/class/yago/Aristocrat109807754
p83
aVhttp://dbpedia.org/class/yago/CausalAgent100007347
p84
aVhttp://dbpedia.org/class/yago/Communicator109610660
p85
aVhttp://dbpedia.org/class/yago/HeadOfState110164747
p86
aVhttp://dbpedia.org/class/yago/Leader109623038
p87
aVhttp://dbpedia.org/class/yago/LivingThing100004258
p88
aVhttp://dbpedia.org/class/yago/Negotiator110351874
p89
aVhttp://dbpedia.org/class/yago/Object100002684
p90
aVhttp://dbpedia.org/class/yago/Organism100004475
p91
aVhttp://dbpedia.org/class/yago/Person100007846
p92
aVhttp://dbpedia.org/class/yago/QueenConsort110500419
p93
aVhttp://dbpedia.org/class/yago/Representative110522035
p94
aVhttp://dbpedia.org/class/yago/Ruler110541229
p95
aVhttp://dbpedia.org/class/yago/Sovereign110628644
p96
aVhttp://dbpedia.org/class/yago/Whole100003553
p97
aVhttp://dbpedia.org/class/yago/Woman110787470
p98
aVhttp://dbpedia.org/class/yago/YagoLegalActorGeo
p99
aVhttp://dbpedia.org/class/yago/Queen110499857
p100
aVhttp://www.w3.org/2002/07/owl#Thing
p101
aVhttp://xmlns.com/foaf/0.1/Person
p102
aVhttp://dbpedia.org/ontology/Person
p103
aVhttp://www.ontologydesignpatterns.org/ont/dul/DUL.owl#Agent
p104
aVhttp://www.ontologydesignpatterns.org/ont/dul/DUL.owl#NaturalPerson
p105
aVhttp://www.wikidata.org/entity/Q215627
p106
aVhttp://www.wikidata.org/entity/Q5
p107
aVhttp://dbpedia.org/ontology/Agent
p108
aVhttp://dbpedia.org/ontology/Royalty
p109
aVhttp://schema.org/Person
p110
aVhttp://umbel.org/umbel/rc/RoyalFamily
p111
aVhttp://dbpedia.org/class/yago/CastilianMonarchs
p112
aVhttp://dbpedia.org/class/yago/FemaleAristocrat110083823
p113
aVhttp://dbpedia.org/class/yago/PeopleFromSegovia
p114
aVhttp://dbpedia.org/class/yago/YagoLegalActor
p115
aVhttp://dbpedia.org/class/yago/Female109619168
p116
aVhttp://dbpedia.org/class/yago/LeoneseQueenConsorts
p117
aVhttp://dbpedia.org/class/yago/PhysicalEntity100001930
p118
aVhttp://dbpedia.org/class/yago/WomenOfMedievalSpain
p119
aVhttp://dbpedia.org/resource/Berengaria_of_Castile
tp120
aa(lp121
((lp122
Vhttp://dbpedia.org/class/yago/Adult109605289
p123
aVhttp://dbpedia.org/class/yago/CausalAgent100007347
p124
aVhttp://dbpedia.org/class/yago/Communicator109610660
p125
aVhttp://dbpedia.org/class/yago/Consort109958724
p126
aVhttp://dbpedia.org/class/yago/HeadOfState110164747
p127
aVhttp://dbpedia.org/class/yago/LivingThing100004258
p128
aVhttp://dbpedia.org/class/yago/Negotiator110351874
p129
aVhttp://dbpedia.org/class/yago/Object100002684
p130
aVhttp://dbpedia.org/class/yago/Organism100004475
p131
aVhttp://dbpedia.org/class/yago/Person100007846
p132
aVhttp://dbpedia.org/class/yago/Relative110235549
p133
aVhttp://dbpedia.org/class/yago/Representative110522035
p134
aVhttp://dbpedia.org/class/yago/Ruler110541229
p135
aVhttp://dbpedia.org/class/yago/Sovereign110628644
p136
aVhttp://dbpedia.org/class/yago/Spouse110640620
p137
aVhttp://dbpedia.org/class/yago/Whole100003553
p138
aVhttp://dbpedia.org/class/yago/Woman110787470
p139
aVhttp://dbpedia.org/class/yago/YagoLegalActorGeo
p140
aVhttp://www.w3.org/2002/07/owl#Thing
p141
aVhttp://xmlns.com/foaf/0.1/Person
p142
aVhttp://dbpedia.org/ontology/Person
p143
aVhttp://www.ontologydesignpatterns.org/ont/dul/DUL.owl#Agent
p144
aVhttp://www.ontologydesignpatterns.org/ont/dul/DUL.owl#NaturalPerson
p145
aVhttp://www.wikidata.org/entity/Q215627
p146
aVhttp://www.wikidata.org/entity/Q5
p147
aVhttp://dbpedia.org/ontology/Agent
p148
aVhttp://dbpedia.org/ontology/Royalty
p149
aVhttp://schema.org/Person
p150
aVhttp://umbel.org/umbel/rc/RoyalFamily
p151
aVhttp://dbpedia.org/class/yago/DanishRoyalConsorts
p152
aVhttp://dbpedia.org/class/yago/YagoLegalActor
p153
aVhttp://dbpedia.org/class/yago/DomesticPartner110024362
p154
aVhttp://dbpedia.org/class/yago/Female109619168
p155
aVhttp://dbpedia.org/class/yago/PhysicalEntity100001930
p156
aVhttp://dbpedia.org/class/yago/WomenOfMedievalPortugal
p157
aVhttp://dbpedia.org/resource/Berengaria_of_Portugal
tp158
aa(lp159
((lp160
Vhttp://dbpedia.org/class/yago/Adult109605289
p161
aVhttp://dbpedia.org/class/yago/Aristocrat109807754
p162
aVhttp://dbpedia.org/class/yago/CausalAgent100007347
p163
aVhttp://dbpedia.org/class/yago/Communicator109610660
p164
aVhttp://dbpedia.org/class/yago/Duchess110038409
p165
aVhttp://dbpedia.org/class/yago/HeadOfState110164747
p166
aVhttp://dbpedia.org/class/yago/Leader109623038
p167
aVhttp://dbpedia.org/class/yago/LivingThing100004258
p168
aVhttp://dbpedia.org/class/yago/Negotiator110351874
p169
aVhttp://dbpedia.org/class/yago/Noblewoman110242791
p170
aVhttp://dbpedia.org/class/yago/Object100002684
p171
aVhttp://dbpedia.org/class/yago/Organism100004475
p172
aVhttp://dbpedia.org/class/yago/Person100007846
p173
aVhttp://dbpedia.org/class/yago/Representative110522035
p174
aVhttp://dbpedia.org/class/yago/Ruler110541229
p175
aVhttp://dbpedia.org/class/yago/Sovereign110628644
p176
aVhttp://dbpedia.org/class/yago/Whole100003553
p177
aVhttp://dbpedia.org/class/yago/Woman110787470
p178
aVhttp://dbpedia.org/class/yago/YagoLegalActorGeo
p179
aVhttp://www.w3.org/2002/07/owl#Thing
p180
aVhttp://xmlns.com/foaf/0.1/Person
p181
aVhttp://dbpedia.org/ontology/Person
p182
aVhttp://www.ontologydesignpatterns.org/ont/dul/DUL.owl#Agent
p183
aVhttp://www.ontologydesignpatterns.org/ont/dul/DUL.owl#NaturalPerson
p184
aVhttp://www.wikidata.org/entity/Q215627
p185
aVhttp://www.wikidata.org/entity/Q5
p186
aVhttp://dbpedia.org/ontology/Agent
p187
aVhttp://dbpedia.org/ontology/Royalty
p188
aVhttp://schema.org/Person
p189
aVhttp://dbpedia.org/class/yago/FemaleAristocrat110083823
p190
aVhttp://dbpedia.org/class/yago/PeopleFromVenice(city)
p191
aVhttp://dbpedia.org/class/yago/YagoLegalActor
p192
aVhttp://dbpedia.org/class/yago/DomesticPartner110024362
p193
aVhttp://dbpedia.org/class/yago/Female109619168
p194
aVhttp://dbpedia.org/class/yago/GrandDuchess110141930
p195
aVhttp://dbpedia.org/class/yago/GrandDuchessesOfTuscany
p196
aVhttp://dbpedia.org/class/yago/Lover109622745
p197
aVhttp://dbpedia.org/class/yago/Mistress110323752
p198
aVhttp://dbpedia.org/class/yago/MistressesOfItalianRoyalty
p199
aVhttp://dbpedia.org/class/yago/PhysicalEntity100001930
p200
aVhttp://dbpedia.org/resource/Bianca_Cappello
tp201
aa(lp202
((lp203
Vhttp://dbpedia.org/class/yago/15th-centuryItalianPeople
p204
aVhttp://dbpedia.org/class/yago/AustrianRoyalConsorts
p205
aVhttp://dbpedia.org/class/yago/CausalAgent100007347
p206
aVhttp://dbpedia.org/class/yago/Communicator109610660
p207
aVhttp://dbpedia.org/class/yago/Consort109958724
p208
aVhttp://dbpedia.org/class/yago/Emperor110053004
p209
aVhttp://dbpedia.org/class/yago/Empress110053439
p210
aVhttp://dbpedia.org/class/yago/HeadOfState110164747
p211
aVhttp://dbpedia.org/class/yago/LivingThing100004258
p212
aVhttp://dbpedia.org/class/yago/Negotiator110351874
p213
aVhttp://dbpedia.org/class/yago/Object100002684
p214
aVhttp://dbpedia.org/class/yago/Organism100004475
p215
aVhttp://dbpedia.org/class/yago/Person100007846
p216
aVhttp://dbpedia.org/class/yago/Relative110235549
p217
aVhttp://dbpedia.org/class/yago/Representative110522035
p218
aVhttp://dbpedia.org/class/yago/Ruler110541229
p219
aVhttp://dbpedia.org/class/yago/Sovereign110628644
p220
aVhttp://dbpedia.org/class/yago/Spouse110640620
p221
aVhttp://dbpedia.org/class/yago/Whole100003553
p222
aVhttp://dbpedia.org/class/yago/YagoLegalActorGeo
p223
aVhttp://www.w3.org/2002/07/owl#Thing
p224
aVhttp://xmlns.com/foaf/0.1/Person
p225
aVhttp://dbpedia.org/ontology/Person
p226
aVhttp://www.ontologydesignpatterns.org/ont/dul/DUL.owl#Agent
p227
aVhttp://www.ontologydesignpatterns.org/ont/dul/DUL.owl#NaturalPerson
p228
aVhttp://www.wikidata.org/entity/Q215627
p229
aVhttp://www.wikidata.org/entity/Q5
p230
aVhttp://dbpedia.org/ontology/Agent
p231
aVhttp://dbpedia.org/ontology/Royalty
p232
aVhttp://schema.org/Person
p233
aVhttp://umbel.org/umbel/rc/RoyalFamily
p234
aVhttp://dbpedia.org/class/yago/PeopleFromMilan
p235
aVhttp://dbpedia.org/class/yago/YagoLegalActor
p236
aVhttp://dbpedia.org/class/yago/DomesticPartner110024362
p237
aVhttp://dbpedia.org/class/yago/HolyRomanEmpresses
p238
aVhttp://dbpedia.org/class/yago/PhysicalEntity100001930
p239
aVhttp://dbpedia.org/resource/Bianca_Maria_Sforza
tp240
aa(lp241
((lp242
Vhttp://dbpedia.org/class/yago/4th-centuryPeople
p243
aVhttp://dbpedia.org/class/yago/CausalAgent100007347
p244
aVhttp://dbpedia.org/class/yago/Communicator109610660
p245
aVhttp://dbpedia.org/class/yago/HeadOfState110164747
p246
aVhttp://dbpedia.org/class/yago/LivingThing100004258
p247
aVhttp://dbpedia.org/class/yago/Negotiator110351874
p248
aVhttp://dbpedia.org/class/yago/Object100002684
p249
aVhttp://dbpedia.org/class/yago/Organism100004475
p250
aVhttp://dbpedia.org/class/yago/Person100007846
p251
aVhttp://dbpedia.org/class/yago/Representative110522035
p252
aVhttp://dbpedia.org/class/yago/Ruler110541229
p253
aVhttp://dbpedia.org/class/yago/Sovereign110628644
p254
aVhttp://dbpedia.org/class/yago/Whole100003553
p255
aVhttp://dbpedia.org/class/yago/YagoLegalActorGeo
p256
aVhttp://www.w3.org/2002/07/owl#Thing
p257
aVhttp://xmlns.com/foaf/0.1/Person
p258
aVhttp://dbpedia.org/ontology/Person
p259
aVhttp://www.ontologydesignpatterns.org/ont/dul/DUL.owl#Agent
p260
aVhttp://www.ontologydesignpatterns.org/ont/dul/DUL.owl#NaturalPerson
p261
aVhttp://www.wikidata.org/entity/Q215627
p262
aVhttp://www.wikidata.org/entity/Q5
p263
aVhttp://dbpedia.org/ontology/Agent
p264
aVhttp://dbpedia.org/ontology/Royalty
p265
aVhttp://schema.org/Person
p266
aVhttp://dbpedia.org/class/yago/EarlySlavicPeople
p267
aVhttp://dbpedia.org/class/yago/YagoLegalActor
p268
aVhttp://dbpedia.org/class/yago/PhysicalEntity100001930
p269
aVhttp://dbpedia.org/resource/Bozh
tp270
aa(lp271
((lp272
Vhttp://dbpedia.org/class/yago/7th-centuryRulersInEurope
p273
aVhttp://dbpedia.org/class/yago/CausalAgent100007347
p274
aVhttp://dbpedia.org/class/yago/Communicator109610660
p275
aVhttp://dbpedia.org/class/yago/HeadOfState110164747
p276
aVhttp://dbpedia.org/class/yago/LivingThing100004258
p277
aVhttp://dbpedia.org/class/yago/Negotiator110351874
p278
aVhttp://dbpedia.org/class/yago/Object100002684
p279
aVhttp://dbpedia.org/class/yago/Organism100004475
p280
aVhttp://dbpedia.org/class/yago/Person100007846
p281
aVhttp://dbpedia.org/class/yago/Representative110522035
p282
aVhttp://dbpedia.org/class/yago/Ruler110541229
p283
aVhttp://dbpedia.org/class/yago/Sovereign110628644
p284
aVhttp://dbpedia.org/class/yago/Whole100003553
p285
aVhttp://dbpedia.org/class/yago/YagoLegalActorGeo
p286
aVhttp://www.w3.org/2002/07/owl#Thing
p287
aVhttp://xmlns.com/foaf/0.1/Person
p288
aVhttp://dbpedia.org/ontology/Person
p289
aVhttp://www.ontologydesignpatterns.org/ont/dul/DUL.owl#Agent
p290
aVhttp://www.ontologydesignpatterns.org/ont/dul/DUL.owl#NaturalPerson
p291
aVhttp://www.wikidata.org/entity/Q215627
p292
aVhttp://www.wikidata.org/entity/Q5
p293
aVhttp://dbpedia.org/ontology/Agent
p294
aVhttp://dbpedia.org/ontology/Royalty
p295
aVhttp://schema.org/Person
p296
aVhttp://dbpedia.org/class/yago/MonarchsOfGwynedd
p297
aVhttp://dbpedia.org/class/yago/YagoLegalActor
p298
aVhttp://dbpedia.org/class/yago/PhysicalEntity100001930
p299
aVhttp://dbpedia.org/resource/Cadwallon_ap_Cadfan
tp300
aa(lp301
((lVhttp://dbpedia.org/resource/Canute_of_Sweden
tp302
aa(lp303
((lp304
Vhttp://dbpedia.org/class/yago/Adult109605289
p305
aVhttp://dbpedia.org/class/yago/CausalAgent100007347
p306
aVhttp://dbpedia.org/class/yago/Communicator109610660
p307
aVhttp://dbpedia.org/class/yago/HeadOfState110164747
p308
aVhttp://dbpedia.org/class/yago/LivingThing100004258
p309
aVhttp://dbpedia.org/class/yago/Negotiator110351874
p310
aVhttp://dbpedia.org/class/yago/Object100002684
p311
aVhttp://dbpedia.org/class/yago/Organism100004475
p312
aVhttp://dbpedia.org/class/yago/Person100007846
p313
aVhttp://dbpedia.org/class/yago/Representative110522035
p314
aVhttp://dbpedia.org/class/yago/Ruler110541229
p315
aVhttp://dbpedia.org/class/yago/Sovereign110628644
p316
aVhttp://dbpedia.org/class/yago/Whole100003553
p317
aVhttp://dbpedia.org/class/yago/Woman110787470
p318
aVhttp://dbpedia.org/class/yago/YagoLegalActorGeo
p319
aVhttp://dbpedia.org/class/yago/RoyalMistresses
p320
aVhttp://www.w3.org/2002/07/owl#Thing
p321
aVhttp://xmlns.com/foaf/0.1/Person
p322
aVhttp://dbpedia.org/ontology/Person
p323
aVhttp://www.ontologydesignpatterns.org/ont/dul/DUL.owl#Agent
p324
aVhttp://www.ontologydesignpatterns.org/ont/dul/DUL.owl#NaturalPerson
p325
aVhttp://www.wikidata.org/entity/Q215627
p326
aVhttp://www.wikidata.org/entity/Q5
p327
aVhttp://dbpedia.org/ontology/Agent
p328
aVhttp://dbpedia.org/ontology/Royalty
p329
aVhttp://schema.org/Person
p330
aVhttp://dbpedia.org/class/yago/PeopleFromBucharest
p331
aVhttp://dbpedia.org/class/yago/YagoLegalActor
p332
aVhttp://dbpedia.org/class/yago/DomesticPartner110024362
p333
aVhttp://dbpedia.org/class/yago/Female109619168
p334
aVhttp://dbpedia.org/class/yago/Lover109622745
p335
aVhttp://dbpedia.org/class/yago/Mistress110323752
p336
aVhttp://dbpedia.org/class/yago/PhysicalEntity100001930
p337
aVhttp://dbpedia.org/resource/Caroline_Lacroix
tp338
aa(lp339
((lp340
Vhttp://dbpedia.org/class/yago/Aristocrat109807754
p341
aVhttp://dbpedia.org/class/yago/Artist109812338
p342
aVhttp://dbpedia.org/class/yago/CausalAgent100007347
p343
aVhttp://dbpedia.org/class/yago/Communicator109610660
p344
aVhttp://dbpedia.org/class/yago/Creator109614315
p345
aVhttp://dbpedia.org/class/yago/Duke110038620
p346
aVhttp://dbpedia.org/class/yago/HeadOfState110164747
p347
aVhttp://dbpedia.org/class/yago/King110231515
p348
aVhttp://dbpedia.org/class/yago/Knight110238375
p349
aVhttp://dbpedia.org/class/yago/Leader109623038
p350
aVhttp://dbpedia.org/class/yago/LivingThing100004258
p351
aVhttp://dbpedia.org/class/yago/Maestro110280130
p352
aVhttp://dbpedia.org/class/yago/Negotiator110351874
p353
aVhttp://dbpedia.org/class/yago/Noble110271677
p354
aVhttp://dbpedia.org/class/yago/Object100002684
p355
aVhttp://dbpedia.org/class/yago/Organism100004475
p356
aVhttp://dbpedia.org/class/yago/Peer110412910
p357
aVhttp://dbpedia.org/class/yago/Person100007846
p358
aVhttp://dbpedia.org/class/yago/Prince110472799
p359
aVhttp://dbpedia.org/class/yago/Representative110522035
p360
aVhttp://dbpedia.org/class/yago/Ruler110541229
p361
aVhttp://dbpedia.org/class/yago/Sovereign110628644
p362
aVhttp://dbpedia.org/class/yago/Whole100003553
p363
aVhttp://dbpedia.org/class/yago/YagoLegalActorGeo
p364
aVhttp://dbpedia.org/class/yago/PrincesOfAsturias
p365
aVhttp://dbpedia.org/class/yago/PrincesOfGirona
p366
aVhttp://dbpedia.org/class/yago/RomanCatholicMonarchs
p367
aVhttp://dbpedia.org/class/yago/SpanishMonarchs
p368
aVhttp://dbpedia.org/class/yago/SpanishPeopleWithDisabilities
p369
aVhttp://www.w3.org/2002/07/owl#Thing
p370
aVhttp://xmlns.com/foaf/0.1/Person
p371
aVhttp://dbpedia.org/ontology/Person
p372
aVhttp://www.ontologydesignpatterns.org/ont/dul/DUL.owl#Agent
p373
aVhttp://www.ontologydesignpatterns.org/ont/dul/DUL.owl#NaturalPerson
p374
aVhttp://www.wikidata.org/entity/Q215627
p375
aVhttp://www.wikidata.org/entity/Q5
p376
aVhttp://dbpedia.org/ontology/Agent
p377
aVhttp://dbpedia.org/ontology/Royalty
p378
aVhttp://schema.org/Person
p379
aVhttp://umbel.org/umbel/rc/PersonWithOccupation
p380
aVhttp://umbel.org/umbel/rc/RoyalFamily
p381
aVhttp://dbpedia.org/class/yago/CountsOfCervera
p382
aVhttp://dbpedia.org/class/yago/CountsOfFlanders
p383
aVhttp://dbpedia.org/class/yago/CountsOfHainaut
p384
aVhttp://dbpedia.org/class/yago/DukesOfBrabant
p385
aVhttp://dbpedia.org/class/yago/DukesOfGuelders
p386
aVhttp://dbpedia.org/class/yago/DukesOfLothier
p387
aVhttp://dbpedia.org/class/yago/DukesOfLuxembourg
p388
aVhttp://dbpedia.org/class/yago/DukesOfMilan
p389
aVhttp://dbpedia.org/class/yago/DukesOfMontblanc
p390
aVhttp://dbpedia.org/class/yago/PeopleFromMadrid
p391
aVhttp://dbpedia.org/class/yago/PeopleWithEpilepsy
p392
aVhttp://dbpedia.org/class/yago/YagoLegalActor
p393
aVhttp://dbpedia.org/class/yago/Count109969218
p394
aVhttp://dbpedia.org/class/yago/GrandMastersOfTheOrderOfTheGoldenFleece
p395
aVhttp://dbpedia.org/class/yago/KingsOfSicily
p396
aVhttp://dbpedia.org/class/yago/KnightsOfSantiago
p397
aVhttp://dbpedia.org/class/yago/KnightsOfTheGoldenFleece
p398
aVhttp://dbpedia.org/class/yago/MaleAristocrat110285135
p399
aVhttp://dbpedia.org/class/yago/ModernChildRulers
p400
aVhttp://dbpedia.org/class/yago/PhysicalEntity100001930
p401
aVhttp://dbpedia.org/resource/Charles_II_of_Spain
tp402
aa(lp403
((lp404
Vhttp://dbpedia.org/class/yago/14th-centuryFrenchPeople
p405
aVhttp://dbpedia.org/class/yago/15th-centuryFrenchPeople
p406
aVhttp://dbpedia.org/class/yago/Aristocrat109807754
p407
aVhttp://dbpedia.org/class/yago/CausalAgent100007347
p408
aVhttp://dbpedia.org/class/yago/Communicator109610660
p409
aVhttp://dbpedia.org/class/yago/HeadOfState110164747
p410
aVhttp://dbpedia.org/class/yago/King110231515
p411
aVhttp://dbpedia.org/class/yago/Leader109623038
p412
aVhttp://dbpedia.org/class/yago/LivingThing100004258
p413
aVhttp://dbpedia.org/class/yago/Negotiator110351874
p414
aVhttp://dbpedia.org/class/yago/Noble110271677
p415
aVhttp://dbpedia.org/class/yago/Object100002684
p416
aVhttp://dbpedia.org/class/yago/Organism100004475
p417
aVhttp://dbpedia.org/class/yago/Person100007846
p418
aVhttp://dbpedia.org/class/yago/Representative110522035
p419
aVhttp://dbpedia.org/class/yago/Ruler110541229
p420
aVhttp://dbpedia.org/class/yago/Sovereign110628644
p421
aVhttp://dbpedia.org/class/yago/Whole100003553
p422
aVhttp://dbpedia.org/class/yago/YagoLegalActorGeo
p423
aVhttp://dbpedia.org/class/yago/RomanCatholicMonarchs
p424
aVhttp://www.w3.org/2002/07/owl#Thing
p425
aVhttp://xmlns.com/foaf/0.1/Person
p426
aVhttp://dbpedia.org/ontology/Person
p427
aVhttp://www.ontologydesignpatterns.org/ont/dul/DUL.owl#Agent
p428
aVhttp://www.ontologydesignpatterns.org/ont/dul/DUL.owl#NaturalPerson
p429
aVhttp://www.wikidata.org/entity/Q215627
p430
aVhttp://www.wikidata.org/entity/Q5
p431
aVhttp://dbpedia.org/ontology/Agent
p432
aVhttp://dbpedia.org/ontology/Royalty
p433
aVhttp://schema.org/Person
p434
aVhttp://umbel.org/umbel/rc/RoyalFamily
p435
aVhttp://dbpedia.org/class/yago/CountsOfLaMarche
p436
aVhttp://dbpedia.org/class/yago/FrenchMonarchs
p437
aVhttp://dbpedia.org/class/yago/NavarreseMonarchs
p438
aVhttp://dbpedia.org/class/yago/PeopleFromOise
p439
aVhttp://dbpedia.org/class/yago/YagoLegalActor
p440
aVhttp://dbpedia.org/class/yago/Count109969218
p441
aVhttp://dbpedia.org/class/yago/KingsOfFrance
p442
aVhttp://dbpedia.org/class/yago/MaleAristocrat110285135
p443
aVhttp://dbpedia.org/class/yago/PhysicalEntity100001930
p444
aVhttp://dbpedia.org/resource/Charles_IV_of_France
tp445
aa(lp446
((lp447
Vhttp://dbpedia.org/class/yago/5th-centuryMonarchsInEurope
p448
aVhttp://dbpedia.org/class/yago/CausalAgent100007347
p449
aVhttp://dbpedia.org/class/yago/Communicator109610660
p450
aVhttp://dbpedia.org/class/yago/HeadOfState110164747
p451
aVhttp://dbpedia.org/class/yago/King110231515
p452
aVhttp://dbpedia.org/class/yago/LivingThing100004258
p453
aVhttp://dbpedia.org/class/yago/Negotiator110351874
p454
aVhttp://dbpedia.org/class/yago/Object100002684
p455
aVhttp://dbpedia.org/class/yago/Organism100004475
p456
aVhttp://dbpedia.org/class/yago/Person100007846
p457
aVhttp://dbpedia.org/class/yago/Representative110522035
p458
aVhttp://dbpedia.org/class/yago/Ruler110541229
p459
aVhttp://dbpedia.org/class/yago/Sovereign110628644
p460
aVhttp://dbpedia.org/class/yago/Whole100003553
p461
aVhttp://dbpedia.org/class/yago/YagoLegalActorGeo
p462
aVhttp://www.w3.org/2002/07/owl#Thing
p463
aVhttp://xmlns.com/foaf/0.1/Person
p464
aVhttp://dbpedia.org/ontology/Person
p465
aVhttp://www.ontologydesignpatterns.org/ont/dul/DUL.owl#Agent
p466
aVhttp://www.ontologydesignpatterns.org/ont/dul/DUL.owl#NaturalPerson
p467
aVhttp://www.wikidata.org/entity/Q215627
p468
aVhttp://www.wikidata.org/entity/Q5
p469
aVhttp://dbpedia.org/ontology/Agent
p470
aVhttp://dbpedia.org/ontology/Royalty
p471
aVhttp://schema.org/Person
p472
aVhttp://umbel.org/umbel/rc/PersonWithOccupation
p473
aVhttp://umbel.org/umbel/rc/RoyalFamily
p474
aVhttp://dbpedia.org/class/yago/FrankishKings
p475
aVhttp://dbpedia.org/class/yago/YagoLegalActor
p476
aVhttp://dbpedia.org/class/yago/PhysicalEntity100001930
p477
aVhttp://dbpedia.org/resource/Childeric_I
tp478
aa(lp479
((lp480
Vhttp://dbpedia.org/class/yago/6th-centuryRulersInEurope
p481
aVhttp://dbpedia.org/class/yago/7th-centuryRulersInEurope
p482
aVhttp://dbpedia.org/class/yago/CausalAgent100007347
p483
aVhttp://dbpedia.org/class/yago/Communicator109610660
p484
aVhttp://dbpedia.org/class/yago/HeadOfState110164747
p485
aVhttp://dbpedia.org/class/yago/King110231515
p486
aVhttp://dbpedia.org/class/yago/LivingThing100004258
p487
aVhttp://dbpedia.org/class/yago/Negotiator110351874
p488
aVhttp://dbpedia.org/class/yago/Object100002684
p489
aVhttp://dbpedia.org/class/yago/Organism100004475
p490
aVhttp://dbpedia.org/class/yago/Person100007846
p491
aVhttp://dbpedia.org/class/yago/Representative110522035
p492
aVhttp://dbpedia.org/class/yago/Ruler110541229
p493
aVhttp://dbpedia.org/class/yago/Sovereign110628644
p494
aVhttp://dbpedia.org/class/yago/Whole100003553
p495
aVhttp://dbpedia.org/class/yago/YagoLegalActorGeo
p496
aVhttp://www.w3.org/2002/07/owl#Thing
p497
aVhttp://xmlns.com/foaf/0.1/Person
p498
aVhttp://dbpedia.org/ontology/Person
p499
aVhttp://www.ontologydesignpatterns.org/ont/dul/DUL.owl#Agent
p500
aVhttp://www.ontologydesignpatterns.org/ont/dul/DUL.owl#NaturalPerson
p501
aVhttp://www.wikidata.org/entity/Q215627
p502
aVhttp://www.wikidata.org/entity/Q5
p503
aVhttp://dbpedia.org/ontology/Agent
p504
aVhttp://dbpedia.org/ontology/Royalty
p505
aVhttp://schema.org/Person
p506
aVhttp://dbpedia.org/class/yago/FrankishKings
p507
aVhttp://dbpedia.org/class/yago/YagoLegalActor
p508
aVhttp://dbpedia.org/class/yago/KingsOfBurgundy
p509
aVhttp://dbpedia.org/class/yago/MedievalChildRulers
p510
aVhttp://dbpedia.org/class/yago/PhysicalEntity100001930
p511
aVhttp://dbpedia.org/resource/Chlothar_II
p512
tp513
aa(lp514
aa.