(lp1
(lp2
(lp3
a(lp4
a(lp5
a(lp6
a(lp7
((lp8
Vhttp://dbpedia.org/class/yago/Abstraction100002137
p9
aVhttp://dbpedia.org/class/yago/Government108050678
p10
aVhttp://dbpedia.org/class/yago/Group100031264
p11
aVhttp://dbpedia.org/class/yago/Organization108008335
p12
aVhttp://dbpedia.org/class/yago/SocialGroup107950920
p13
aVhttp://dbpedia.org/class/yago/YagoLegalActorGeo
p14
aVhttp://www.w3.org/2002/07/owl#Thing
p15
aVhttp://dbpedia.org/ontology/Place
p16
aVhttp://dbpedia.org/ontology/Location
p17
aVhttp://www.wikidata.org/entity/Q486972
p18
aVhttp://dbpedia.org/ontology/PopulatedPlace
p19
aVhttp://www.w3.org/2003/01/geo/wgs84_pos#SpatialThing
p20
aVhttp://schema.org/Place
p21
aVhttp://dbpedia.org/class/yago/FirstNationsGovernmentsInOntario
p22
aVhttp://dbpedia.org/class/yago/YagoPermanentlyLocatedEntity
p23
aVhttp://dbpedia.org/class/yago/YagoLegalActor
p24
aVhttp://dbpedia.org/class/yago/Polity108050385
p25
aVhttp://dbpedia.org/resource/Naotkamegwanning_First_Nation
p26
tp27
aaa(lp28
(lp29
a(lp30
a(lp31
a(lp32
a(lp33
aa(lp34
(lp35
a(lp36
a(lp37
a(lp38
a(lp39
aa(lp40
(lp41
a(lp42
a(lp43
a(lp44
a(lp45
aa(lp46
(lp47
a(lp48
a(lp49
a(lp50
a(lp51
aa(lp52
(lp53
a(lp54
a(lp55
a(lp56
a(lp57
aa(lp58
(lp59
a(lp60
a(lp61
a(lp62
a(lp63
aa(lp64
(lp65
a(lp66
a(lp67
a(lp68
a(lp69
aa(lp70
(lp71
a(lp72
a(lp73
a(lp74
a(lp75
aa(lp76
(lp77
a(lp78
a(lp79
a(lp80
a(lp81
aa(lp82
(lp83
a(lp84
a(lp85
a(lp86
a(lp87
aa(lp88
(lp89
a(lp90
a(lp91
a(lp92
a(lp93
aa(lp94
(lp95
a(lp96
a(lp97
a(lp98
a(lp99
aa(lp100
(lp101
a(lp102
a(lp103
a(lp104
a(lp105
aa(lp106
(lp107
a(lp108
a(lp109
a(lp110
a(lp111
aa(lp112
(lp113
a(lp114
a(lp115
a(lp116
a(lp117
aa(lp118
(lp119
a(lp120
a(lp121
a(lp122
a(lp123
aa(lp124
(lp125
a(lp126
a(lp127
a(lp128
a(lp129
aa(lp130
(lp131
a(lp132
a(lp133
a(lp134
a(lp135
aa.