ccollections
defaultdict
p1
(c__builtin__
dict
p2
tRp3
I8
(dp4
I0
(lp5
sI2
(lp6
ssI16
(dp7
I0
(lp8
Vhttp://www.w3.org/ns/prov#wasDerivedFrom
p9
asI2
(lp10
ssI10
(dp11
I0
(lp12
sI2
(lp13
ssI12
(dp14
I0
(lp15
sI2
(lp16
ssI17
(dp17
I0
(lp18
sI2
(lp19
ss.