(lp1
(lp2
(lp3
a(lp4
a(lp5
a(lp6
aa(lp7
(lp8
a(lp9
a(lp10
a(lp11
aa(lp12
(lp13
a(lp14
a(lp15
a(lp16
((lVhttp://dbpedia.org/resource/Land_of_Scoundrels
tp17
aaa(lp18
(lp19
a(lp20
a(lp21
a(lp22
aa(lp23
(lp24
a(lp25
a(lp26
a(lp27
aa(lp28
(lp29
a(lp30
a(lp31
a(lp32
aa(lp33
(lp34
a(lp35
a(lp36
a(lp37
((lVhttp://dbpedia.org/resource/Make_Something!!
p38
tp39
aaa(lp40
(lp41
a(lp42
a(lp43
a(lp44
aa(lp45
(lp46
a(lp47
a(lp48
a(lp49
aa(lp50
(lp51
a(lp52
a(lp53
a(lp54
aa(lp55
(lp56
a(lp57
a(lp58
a(lp59
aa(lp60
(lp61
a(lp62
a(lp63
a(lp64
aa(lp65
(lp66
a(lp67
a(lp68
a(lp69
aa(lp70
(lp71
a(lp72
a(lp73
a(lp74
aa(lp75
(lp76
a(lp77
a(lp78
a(lp79
aa(lp80
(lp81
a(lp82
a(lp83
a(lp84
aa(lp85
(lp86
a(lp87
a(lp88
a(lp89
aa(lp90
(lp91
a(lp92
a(lp93
a(lp94
aa(lp95
(lp96
a(lp97
a(lp98
a(lp99
aa.