ccollections
defaultdict
p1
(c__builtin__
dict
p2
tRp3
I8
(dp4
I0
(lp5
sI2
(lp6
ssI9
(dp7
I0
(lp8
Vhttp://dbpedia.org/ontology/birthPlace
p9
aVhttp://dbpedia.org/property/birthPlace
p10
asI2
(lp11
Vhttp://dbpedia.org/ontology/birthPlace
p12
aVhttp://dbpedia.org/property/birthPlace
p13
assI11
(dp14
I0
(lp15
sI2
(lp16
ssI4
(dp17
I0
(lp18
sI2
(lp19
Vhttp://dbpedia.org/ontology/birthPlace
p20
assI7
(dp21
I0
(lp22
sI2
(lp23
ss.