(lp1
(lp2
(lp3
a(lp4
a(lp5
aa(lp6
(lp7
a(lp8
((lVhttp://dbpedia.org/resource/Edward_Murphy
tp9
aa(lp10
aa(lp11
(lp12
a(lp13
a(lp14
aa(lp15
(lp16
a(lp17
a(lp18
aa(lp19
(lp20
a(lp21
((lp22
Vhttp://www.w3.org/2002/07/owl#Thing
p23
aVhttp://xmlns.com/foaf/0.1/Person
p24
aVhttp://dbpedia.org/ontology/Person
p25
aVhttp://www.ontologydesignpatterns.org/ont/dul/DUL.owl#Agent
p26
aVhttp://www.ontologydesignpatterns.org/ont/dul/DUL.owl#NaturalPerson
p27
aVhttp://www.wikidata.org/entity/Q215627
p28
aVhttp://www.wikidata.org/entity/Q5
p29
aVhttp://dbpedia.org/ontology/Agent
p30
aVhttp://schema.org/Person
p31
aVhttp://dbpedia.org/resource/Edgar_Moron
tp32
aa(lp33
aa(lp34
(lp35
a(lp36
a(lp37
aa(lp38
(lp39
a(lp40
a(lp41
aa(lp42
(lp43
a(lp44
((lp45
Vhttp://dbpedia.org/class/yago/Adult109605289
p46
aVhttp://dbpedia.org/class/yago/Associate109816771
p47
aVhttp://dbpedia.org/class/yago/CausalAgent100007347
p48
aVhttp://dbpedia.org/class/yago/Chemist109913824
p49
aVhttp://dbpedia.org/class/yago/Colleague109935990
p50
aVhttp://dbpedia.org/class/yago/Educator110045713
p51
aVhttp://dbpedia.org/class/yago/LivingThing100004258
p52
aVhttp://dbpedia.org/class/yago/Object100002684
p53
aVhttp://dbpedia.org/class/yago/Organism100004475
p54
aVhttp://dbpedia.org/class/yago/Peer109626238
p55
aVhttp://dbpedia.org/class/yago/Person100007846
p56
aVhttp://dbpedia.org/class/yago/Professional110480253
p57
aVhttp://dbpedia.org/class/yago/Scientist110560637
p58
aVhttp://dbpedia.org/class/yago/Teacher110694258
p59
aVhttp://dbpedia.org/class/yago/Whole100003553
p60
aVhttp://dbpedia.org/class/yago/YagoLegalActorGeo
p61
aVhttp://dbpedia.org/class/yago/ScienceTeachers
p62
aVhttp://www.w3.org/2002/07/owl#Thing
p63
aVhttp://xmlns.com/foaf/0.1/Person
p64
aVhttp://dbpedia.org/ontology/Person
p65
aVhttp://www.ontologydesignpatterns.org/ont/dul/DUL.owl#Agent
p66
aVhttp://www.ontologydesignpatterns.org/ont/dul/DUL.owl#NaturalPerson
p67
aVhttp://www.wikidata.org/entity/Q215627
p68
aVhttp://www.wikidata.org/entity/Q5
p69
aVhttp://dbpedia.org/ontology/Agent
p70
aVhttp://schema.org/Person
p71
aVhttp://dbpedia.org/class/yago/CornishScientists
p72
aVhttp://dbpedia.org/class/yago/EnglishChemists
p73
aVhttp://dbpedia.org/class/yago/EnglishScientists
p74
aVhttp://dbpedia.org/class/yago/FellowsOfTheRoyalSociety
p75
aVhttp://dbpedia.org/class/yago/ScienceTeacher110560548
p76
aVhttp://dbpedia.org/class/yago/PeopleFromPenzance
p77
aVhttp://dbpedia.org/class/yago/YagoLegalActor
p78
aVhttp://dbpedia.org/class/yago/PhysicalEntity100001930
p79
aVhttp://dbpedia.org/resource/Edmund_Davy
tp80
aa(lp81
aa(lp82
(lp83
a(lp84
((lp85
Vhttp://dbpedia.org/class/yago/Architect109805475
p86
aVhttp://dbpedia.org/class/yago/CausalAgent100007347
p87
aVhttp://dbpedia.org/class/yago/Creator109614315
p88
aVhttp://dbpedia.org/class/yago/LivingThing100004258
p89
aVhttp://dbpedia.org/class/yago/Object100002684
p90
aVhttp://dbpedia.org/class/yago/Organism100004475
p91
aVhttp://dbpedia.org/class/yago/Person100007846
p92
aVhttp://dbpedia.org/class/yago/Whole100003553
p93
aVhttp://dbpedia.org/class/yago/YagoLegalActorGeo
p94
aVhttp://www.w3.org/2002/07/owl#Thing
p95
aVhttp://xmlns.com/foaf/0.1/Person
p96
aVhttp://dbpedia.org/ontology/Person
p97
aVhttp://www.ontologydesignpatterns.org/ont/dul/DUL.owl#Agent
p98
aVhttp://www.ontologydesignpatterns.org/ont/dul/DUL.owl#NaturalPerson
p99
aVhttp://www.wikidata.org/entity/Q215627
p100
aVhttp://www.wikidata.org/entity/Q5
p101
aVhttp://dbpedia.org/ontology/Agent
p102
aVhttp://schema.org/Person
p103
aVhttp://dbpedia.org/class/yago/FrenchArchitects
p104
aVhttp://dbpedia.org/class/yago/YagoLegalActor
p105
aVhttp://dbpedia.org/class/yago/PhysicalEntity100001930
p106
aVhttp://dbpedia.org/resource/Edward_Blum
tp107
aa(lp108
aa(lp109
(lp110
a(lp111
((lp112
Vhttp://www.w3.org/2002/07/owl#Thing
p113
aVhttp://xmlns.com/foaf/0.1/Person
p114
aVhttp://dbpedia.org/ontology/Person
p115
aVhttp://www.ontologydesignpatterns.org/ont/dul/DUL.owl#Agent
p116
aVhttp://www.ontologydesignpatterns.org/ont/dul/DUL.owl#NaturalPerson
p117
aVhttp://www.wikidata.org/entity/Q215627
p118
aVhttp://www.wikidata.org/entity/Q5
p119
aVhttp://dbpedia.org/ontology/Agent
p120
aVhttp://schema.org/Person
p121
aVhttp://dbpedia.org/resource/Effie_Brown
tp122
aa(lp123
aa(lp124
(lp125
a(lp126
a(lp127
aa(lp128
(lp129
a(lp130
((lp131
Vhttp://dbpedia.org/class/yago/Actor109765278
p132
aVhttp://dbpedia.org/class/yago/ActorsFromOhio
p133
aVhttp://dbpedia.org/class/yago/AmericanFilmActors
p134
aVhttp://dbpedia.org/class/yago/AmericanTelevisionActors
p135
aVhttp://dbpedia.org/class/yago/CausalAgent100007347
p136
aVhttp://dbpedia.org/class/yago/Convert109962414
p137
aVhttp://dbpedia.org/class/yago/Entertainer109616922
p138
aVhttp://dbpedia.org/class/yago/LivingThing100004258
p139
aVhttp://dbpedia.org/class/yago/Object100002684
p140
aVhttp://dbpedia.org/class/yago/Organism100004475
p141
aVhttp://dbpedia.org/class/yago/Performer110415638
p142
aVhttp://dbpedia.org/class/yago/Person100007846
p143
aVhttp://dbpedia.org/class/yago/Whole100003553
p144
aVhttp://dbpedia.org/class/yago/YagoLegalActorGeo
p145
aVhttp://www.w3.org/2002/07/owl#Thing
p146
aVhttp://xmlns.com/foaf/0.1/Person
p147
aVhttp://dbpedia.org/ontology/Person
p148
aVhttp://www.ontologydesignpatterns.org/ont/dul/DUL.owl#Agent
p149
aVhttp://www.ontologydesignpatterns.org/ont/dul/DUL.owl#NaturalPerson
p150
aVhttp://www.wikidata.org/entity/Q215627
p151
aVhttp://www.wikidata.org/entity/Q5
p152
aVhttp://dbpedia.org/ontology/Agent
p153
aVhttp://schema.org/Person
p154
aVhttp://dbpedia.org/class/yago/ConvertsToJudaism
p155
aVhttp://dbpedia.org/class/yago/PeopleFromGreeneCounty,Ohio
p156
aVhttp://dbpedia.org/class/yago/YagoLegalActor
p157
aVhttp://dbpedia.org/class/yago/JewishActors
p158
aVhttp://dbpedia.org/class/yago/LivingPeople
p159
aVhttp://dbpedia.org/class/yago/PhysicalEntity100001930
p160
aVhttp://dbpedia.org/resource/Eleanor_Parker
p161
tp162
aa(lp163
aa.