(lp1
(lp2
(lp3
a(lp4
Vhttp://dbpedia.org/resource/German_submarine_U-139
p5
aa(lp6
a(lp7
Vhttp://dbpedia.org/resource/German_submarine_U-139
p8
aa(lp9
Vhttp://dbpedia.org/resource/German_submarine_U-139
p10
aa(lp11
Vhttp://dbpedia.org/resource/German_submarine_U-139
p12
aa(lp13
Vhttp://dbpedia.org/resource/German_submarine_U-139
p14
aa(lp15
a(lp16
a(lp17
a(lp18
a(lp19
a(lp20
a(lp21
a(lp22
a(lp23
a(lp24
a(lp25
a(lp26
aa.