ccollections
defaultdict
p1
(c__builtin__
dict
p2
tRp3
I0
(dp4
I1
(lp5
Vhttp://dbpedia.org/ontology/birthPlace
p6
aVhttp://dbpedia.org/property/birthPlace
p7
aVhttp://dbpedia.org/property/placeOfBirth
p8
asI2
(lp9
Vhttp://dbpedia.org/ontology/birthPlace
p10
aVhttp://dbpedia.org/property/birthPlace
p11
aVhttp://dbpedia.org/property/placeOfBirth
p12
assI1
(dp13
I1
(lp14
sI2
(lp15
ssI10
(dp16
I1
(lp17
Vhttp://dbpedia.org/ontology/birthPlace
p18
aVhttp://dbpedia.org/property/birthPlace
p19
aVhttp://dbpedia.org/property/placeOfBirth
p20
asI2
(lp21
Vhttp://dbpedia.org/ontology/birthPlace
p22
aVhttp://dbpedia.org/property/birthPlace
p23
aVhttp://dbpedia.org/property/placeOfBirth
p24
ass.