(lp1
(lp2
(lp3
a(lp4
a(lp5
a(lp6
aa(lp7
(lp8
a(lp9
a(lp10
a(lp11
aa(lp12
(lp13
a(lp14
a(lp15
a(lp16
aa(lp17
(lp18
a(lp19
a(lp20
a(lp21
((lp22
Vhttp://dbpedia.org/class/yago/CausalAgent100007347
p23
aVhttp://dbpedia.org/class/yago/Communicator109610660
p24
aVhttp://dbpedia.org/class/yago/Dramatist110030277
p25
aVhttp://dbpedia.org/class/yago/LivingThing100004258
p26
aVhttp://dbpedia.org/class/yago/Object100002684
p27
aVhttp://dbpedia.org/class/yago/Organism100004475
p28
aVhttp://dbpedia.org/class/yago/Person100007846
p29
aVhttp://dbpedia.org/class/yago/Whole100003553
p30
aVhttp://dbpedia.org/class/yago/Writer110794014
p31
aVhttp://dbpedia.org/class/yago/YagoLegalActorGeo
p32
aVhttp://www.w3.org/2002/07/owl#Thing
p33
aVhttp://xmlns.com/foaf/0.1/Person
p34
aVhttp://dbpedia.org/ontology/Person
p35
aVhttp://www.ontologydesignpatterns.org/ont/dul/DUL.owl#Agent
p36
aVhttp://www.ontologydesignpatterns.org/ont/dul/DUL.owl#NaturalPerson
p37
aVhttp://www.wikidata.org/entity/Q215627
p38
aVhttp://www.wikidata.org/entity/Q5
p39
aVhttp://dbpedia.org/ontology/Agent
p40
aVhttp://schema.org/Person
p41
aVhttp://dbpedia.org/class/yago/EnglishDramatistsAndPlaywrights
p42
aVhttp://dbpedia.org/class/yago/PeopleFromMiddleton,GreaterManchester
p43
aVhttp://dbpedia.org/class/yago/YagoLegalActor
p44
aVhttp://dbpedia.org/class/yago/LivingPeople
p45
aVhttp://dbpedia.org/class/yago/PhysicalEntity100001930
p46
aVhttp://dbpedia.org/resource/Jimmy_Chinn
tp47
aaa(lp48
(lp49
a(lp50
a(lp51
a(lp52
((lp53
Vhttp://dbpedia.org/class/yago/AmericanWriters
p54
aVhttp://dbpedia.org/class/yago/CausalAgent100007347
p55
aVhttp://dbpedia.org/class/yago/Communicator109610660
p56
aVhttp://dbpedia.org/class/yago/LivingThing100004258
p57
aVhttp://dbpedia.org/class/yago/Object100002684
p58
aVhttp://dbpedia.org/class/yago/Organism100004475
p59
aVhttp://dbpedia.org/class/yago/Person100007846
p60
aVhttp://dbpedia.org/class/yago/Whole100003553
p61
aVhttp://dbpedia.org/class/yago/Writer110794014
p62
aVhttp://dbpedia.org/class/yago/YagoLegalActorGeo
p63
aVhttp://www.w3.org/2002/07/owl#Thing
p64
aVhttp://xmlns.com/foaf/0.1/Person
p65
aVhttp://dbpedia.org/ontology/Person
p66
aVhttp://www.ontologydesignpatterns.org/ont/dul/DUL.owl#Agent
p67
aVhttp://www.ontologydesignpatterns.org/ont/dul/DUL.owl#NaturalPerson
p68
aVhttp://www.wikidata.org/entity/Q215627
p69
aVhttp://www.wikidata.org/entity/Q5
p70
aVhttp://dbpedia.org/ontology/Agent
p71
aVhttp://schema.org/Person
p72
aVhttp://dbpedia.org/class/yago/YagoLegalActor
p73
aVhttp://dbpedia.org/class/yago/LivingPeople
p74
aVhttp://dbpedia.org/class/yago/PhysicalEntity100001930
p75
aVhttp://dbpedia.org/resource/Joe_Hanson
tp76
aaa(lp77
(lp78
a(lp79
a(lp80
a(lp81
aa(lp82
(lp83
a(lp84
a(lp85
((lp86
Vhttp://dbpedia.org/class/yago/Location100027167
p87
aVhttp://dbpedia.org/class/yago/Object100002684
p88
aVhttp://dbpedia.org/class/yago/Region108630039
p89
aVhttp://dbpedia.org/class/yago/YagoGeoEntity
p90
aVhttp://dbpedia.org/class/yago/YagoLegalActorGeo
p91
aVhttp://www.w3.org/2003/01/geo/wgs84_pos#SpatialThing
p92
aVhttp://dbpedia.org/class/yago/YagoPermanentlyLocatedEntity
p93
aVhttp://dbpedia.org/class/yago/PhysicalEntity100001930
p94
aVhttp://dbpedia.org/class/yago/WineRegionsOfSpain
p95
aVhttp://dbpedia.org/resource/Valencia_(DO)
tp96
aa(lp97
aa(lp98
(lp99
a(lp100
a(lp101
a(lp102
aa(lp103
(lp104
a(lp105
a(lp106
a(lp107
aa(lp108
(lp109
a(lp110
a(lp111
a(lp112
((lp113
Vhttp://www.w3.org/2002/07/owl#Thing
p114
aVhttp://xmlns.com/foaf/0.1/Person
p115
aVhttp://dbpedia.org/ontology/Person
p116
aVhttp://www.ontologydesignpatterns.org/ont/dul/DUL.owl#Agent
p117
aVhttp://www.ontologydesignpatterns.org/ont/dul/DUL.owl#NaturalPerson
p118
aVhttp://www.wikidata.org/entity/Q215627
p119
aVhttp://www.wikidata.org/entity/Q5
p120
aVhttp://dbpedia.org/ontology/Agent
p121
aVhttp://schema.org/Person
p122
aVhttp://dbpedia.org/resource/Joanne_Leedom-Ackerman
tp123
aaa(lp124
(lp125
a(lp126
a(lp127
a(lp128
((lp129
Vhttp://www.w3.org/2002/07/owl#Thing
p130
aVhttp://xmlns.com/foaf/0.1/Person
p131
aVhttp://dbpedia.org/ontology/Person
p132
aVhttp://www.ontologydesignpatterns.org/ont/dul/DUL.owl#Agent
p133
aVhttp://www.ontologydesignpatterns.org/ont/dul/DUL.owl#NaturalPerson
p134
aVhttp://www.wikidata.org/entity/Q215627
p135
aVhttp://www.wikidata.org/entity/Q5
p136
aVhttp://dbpedia.org/ontology/Agent
p137
aVhttp://schema.org/Person
p138
aVhttp://dbpedia.org/resource/Joe_Kovacs_(puppeteer)
tp139
aaa(lp140
(lp141
a(lp142
a(lp143
a(lp144
aa(lp145
(lp146
a(lp147
a(lp148
a(lp149
aa(lp150
(lp151
a(lp152
a(lp153
a(lp154
((lp155
Vhttp://dbpedia.org/class/yago/AltoSaxophonist109786226
p156
aVhttp://dbpedia.org/class/yago/AmericanJazzAltoSaxophonists
p157
aVhttp://dbpedia.org/class/yago/AmericanJazzSopranoSaxophonists
p158
aVhttp://dbpedia.org/class/yago/Artist109812338
p159
aVhttp://dbpedia.org/class/yago/CausalAgent100007347
p160
aVhttp://dbpedia.org/class/yago/Creator109614315
p161
aVhttp://dbpedia.org/class/yago/Entertainer109616922
p162
aVhttp://dbpedia.org/class/yago/LivingThing100004258
p163
aVhttp://dbpedia.org/class/yago/Musician110339966
p164
aVhttp://dbpedia.org/class/yago/Musician110340312
p165
aVhttp://dbpedia.org/class/yago/Object100002684
p166
aVhttp://dbpedia.org/class/yago/Organism100004475
p167
aVhttp://dbpedia.org/class/yago/Performer110415638
p168
aVhttp://dbpedia.org/class/yago/Person100007846
p169
aVhttp://dbpedia.org/class/yago/Saxophonist110554243
p170
aVhttp://dbpedia.org/class/yago/Whole100003553
p171
aVhttp://dbpedia.org/class/yago/YagoLegalActorGeo
p172
aVhttp://www.w3.org/2002/07/owl#Thing
p173
aVhttp://xmlns.com/foaf/0.1/Person
p174
aVhttp://dbpedia.org/ontology/Person
p175
aVhttp://www.ontologydesignpatterns.org/ont/dul/DUL.owl#Agent
p176
aVhttp://www.ontologydesignpatterns.org/ont/dul/DUL.owl#NaturalPerson
p177
aVhttp://www.wikidata.org/entity/Q215627
p178
aVhttp://www.wikidata.org/entity/Q5
p179
aVhttp://dbpedia.org/ontology/Agent
p180
aVhttp://schema.org/Person
p181
aVhttp://dbpedia.org/class/yago/MusiciansFromNewYork
p182
aVhttp://dbpedia.org/class/yago/YagoLegalActor
p183
aVhttp://dbpedia.org/class/yago/LivingPeople
p184
aVhttp://dbpedia.org/class/yago/PhysicalEntity100001930
p185
aVhttp://dbpedia.org/resource/Joe_Ford_(musician)
p186
tp187
aaa(lp188
(lp189
a(lp190
a(lp191
a(lp192
aa.