(lp1
(lp2
(lp3
a(lp4
aa(lp5
(lp6
a(lp7
aa(lp8
(lp9
a(lp10
aa(lp11
(lp12
a(lp13
aa(lp14
(lp15
a(lp16
aa(lp17
(lp18
a(lp19
aa(lp20
(lp21
a(lp22
aa(lp23
(lp24
a(lp25
aa(lp26
(lp27
a(lp28
aa(lp29
(lp30
a(lp31
aa(lp32
(lp33
a(lp34
aa(lp35
(lp36
((lp37
Vhttp://www.w3.org/2002/07/owl#Thing
p38
aVhttp://dbpedia.org/ontology/AutomobileEngine
p39
aVhttp://dbpedia.org/ontology/Device
p40
aVhttp://dbpedia.org/ontology/Engine
p41
aVhttp://dbpedia.org/resource/BMW_M73
tp42
aa(lp43
aa(lp44
(lp45
a(lp46
aa(lp47
(lp48
((lp49
Vhttp://www.w3.org/2002/07/owl#Thing
p50
aVhttp://dbpedia.org/ontology/AutomobileEngine
p51
aVhttp://dbpedia.org/ontology/Device
p52
aVhttp://dbpedia.org/ontology/Engine
p53
aVhttp://dbpedia.org/resource/GM_Family_Z_engine
tp54
aa(lp55
aa(lp56
(lp57
((lp58
Vhttp://dbpedia.org/class/yago/Artifact100021939
p59
aVhttp://dbpedia.org/class/yago/Device103183080
p60
aVhttp://dbpedia.org/class/yago/Engine103287733
p61
aVhttp://dbpedia.org/class/yago/Machine103699975
p62
aVhttp://dbpedia.org/class/yago/Motor103789946
p63
aVhttp://dbpedia.org/class/yago/Object100002684
p64
aVhttp://dbpedia.org/class/yago/Whole100003553
p65
aVhttp://www.w3.org/2002/07/owl#Thing
p66
aVhttp://xmlns.com/foaf/0.1/Person
p67
aVhttp://dbpedia.org/ontology/Person
p68
aVhttp://www.ontologydesignpatterns.org/ont/dul/DUL.owl#Agent
p69
aVhttp://www.ontologydesignpatterns.org/ont/dul/DUL.owl#NaturalPerson
p70
aVhttp://www.wikidata.org/entity/Q215627
p71
aVhttp://www.wikidata.org/entity/Q5
p72
aVhttp://dbpedia.org/ontology/Agent
p73
aVhttp://schema.org/Person
p74
aVhttp://dbpedia.org/class/yago/NissanEngines
p75
aVhttp://dbpedia.org/class/yago/Instrumentality103575240
p76
aVhttp://dbpedia.org/class/yago/PhysicalEntity100001930
p77
aVhttp://dbpedia.org/resource/Nissan_L_engine
tp78
aa(lp79
aa(lp80
(lp81
((lp82
Vhttp://dbpedia.org/class/yago/Artifact100021939
p83
aVhttp://dbpedia.org/class/yago/Device103183080
p84
aVhttp://dbpedia.org/class/yago/Engine103287733
p85
aVhttp://dbpedia.org/class/yago/Machine103699975
p86
aVhttp://dbpedia.org/class/yago/Motor103789946
p87
aVhttp://dbpedia.org/class/yago/Object100002684
p88
aVhttp://dbpedia.org/class/yago/Whole100003553
p89
aVhttp://www.w3.org/2002/07/owl#Thing
p90
aVhttp://dbpedia.org/ontology/AutomobileEngine
p91
aVhttp://dbpedia.org/ontology/Device
p92
aVhttp://dbpedia.org/ontology/Engine
p93
aVhttp://dbpedia.org/class/yago/ChryslerEngines
p94
aVhttp://dbpedia.org/class/yago/Instrumentality103575240
p95
aVhttp://dbpedia.org/class/yago/PhysicalEntity100001930
p96
aVhttp://dbpedia.org/resource/Polyspheric
tp97
aa(lp98
aa(lp99
(lp100
((lp101
Vhttp://dbpedia.org/class/yago/Artifact100021939
p102
aVhttp://dbpedia.org/class/yago/Device103183080
p103
aVhttp://dbpedia.org/class/yago/Diesel103193107
p104
aVhttp://dbpedia.org/class/yago/Engine103287733
p105
aVhttp://dbpedia.org/class/yago/Machine103699975
p106
aVhttp://dbpedia.org/class/yago/Motor103789946
p107
aVhttp://dbpedia.org/class/yago/Object100002684
p108
aVhttp://dbpedia.org/class/yago/Whole100003553
p109
aVhttp://www.w3.org/2002/07/owl#Thing
p110
aVhttp://xmlns.com/foaf/0.1/Person
p111
aVhttp://dbpedia.org/ontology/Person
p112
aVhttp://www.ontologydesignpatterns.org/ont/dul/DUL.owl#Agent
p113
aVhttp://www.ontologydesignpatterns.org/ont/dul/DUL.owl#NaturalPerson
p114
aVhttp://www.wikidata.org/entity/Q215627
p115
aVhttp://www.wikidata.org/entity/Q5
p116
aVhttp://dbpedia.org/ontology/Agent
p117
aVhttp://schema.org/Person
p118
aVhttp://dbpedia.org/class/yago/DieselEnginesByModel
p119
aVhttp://dbpedia.org/class/yago/HeatEngine103507963
p120
aVhttp://dbpedia.org/class/yago/Instrumentality103575240
p121
aVhttp://dbpedia.org/class/yago/Internal-combustionEngine103579982
p122
aVhttp://dbpedia.org/class/yago/PhysicalEntity100001930
p123
aVhttp://dbpedia.org/class/yago/ToyotaEngines
p124
aVhttp://dbpedia.org/resource/Toyota_KZ_engine
tp125
aa(lp126
aa(lp127
(lp128
((lp129
Vhttp://www.w3.org/2002/07/owl#Thing
p130
aVhttp://dbpedia.org/ontology/AutomobileEngine
p131
aVhttp://dbpedia.org/ontology/Device
p132
aVhttp://dbpedia.org/ontology/Engine
p133
aVhttp://dbpedia.org/resource/BMW_M73
tp134
aa(lp135
aa(lp136
(lp137
((lp138
Vhttp://dbpedia.org/class/yago/Artifact100021939
p139
aVhttp://dbpedia.org/class/yago/Device103183080
p140
aVhttp://dbpedia.org/class/yago/Engine103287733
p141
aVhttp://dbpedia.org/class/yago/Machine103699975
p142
aVhttp://dbpedia.org/class/yago/Motor103789946
p143
aVhttp://dbpedia.org/class/yago/Object100002684
p144
aVhttp://dbpedia.org/class/yago/Whole100003553
p145
aVhttp://www.w3.org/2002/07/owl#Thing
p146
aVhttp://xmlns.com/foaf/0.1/Person
p147
aVhttp://dbpedia.org/ontology/Person
p148
aVhttp://www.ontologydesignpatterns.org/ont/dul/DUL.owl#Agent
p149
aVhttp://www.ontologydesignpatterns.org/ont/dul/DUL.owl#NaturalPerson
p150
aVhttp://www.wikidata.org/entity/Q215627
p151
aVhttp://www.wikidata.org/entity/Q5
p152
aVhttp://dbpedia.org/ontology/Agent
p153
aVhttp://schema.org/Person
p154
aVhttp://dbpedia.org/class/yago/NissanEngines
p155
aVhttp://dbpedia.org/class/yago/Instrumentality103575240
p156
aVhttp://dbpedia.org/class/yago/PhysicalEntity100001930
p157
aVhttp://dbpedia.org/resource/Nissan_L_engine
p158
tp159
aa(lp160
aa.