ccollections
defaultdict
p1
(c__builtin__
dict
p2
tRp3
I1
(dp4
I1
(lp5
ssI2
(dp6
I1
(lp7
Vhttp://dbpedia.org/ontology/abstract
p8
aVhttp://purl.org/dc/terms/subject
p9
aVhttp://www.w3.org/2000/01/rdf-schema#comment
p10
assI3
(dp11
I1
(lp12
ssI6
(dp13
I1
(lp14
ssI11
(dp15
I1
(lp16
ssI14
(dp17
I1
(lp18
ssI16
(dp19
I1
(lp20
Vhttp://dbpedia.org/ontology/abstract
p21
aVhttp://purl.org/dc/terms/subject
p22
aVhttp://www.w3.org/2000/01/rdf-schema#comment
p23
ass.