ccollections
defaultdict
p1
(c__builtin__
dict
p2
tRp3
I0
(dp4
I1
(lp5
Vhttp://dbpedia.org/ontology/birthPlace
p6
aVhttp://dbpedia.org/property/birthPlace
p7
assI1
(dp8
I1
(lp9
ssI2
(dp10
I1
(lp11
ssI3
(dp12
I1
(lp13
ssI4
(dp14
I1
(lp15
ssI5
(dp16
I1
(lp17
ssI6
(dp18
I1
(lp19
ssI7
(dp20
I1
(lp21
ssI8
(dp22
I1
(lp23
ssI9
(dp24
I1
(lp25
ssI10
(dp26
I1
(lp27
ssI11
(dp28
I1
(lp29
ssI12
(dp30
I1
(lp31
ssI13
(dp32
I1
(lp33
Vhttp://dbpedia.org/ontology/birthPlace
p34
aVhttp://dbpedia.org/property/birthPlace
p35
assI14
(dp36
I1
(lp37
Vhttp://dbpedia.org/ontology/birthPlace
p38
aVhttp://dbpedia.org/property/birthPlace
p39
assI15
(dp40
I1
(lp41
ssI18
(dp42
I1
(lp43
Vhttp://dbpedia.org/ontology/birthPlace
p44
aVhttp://dbpedia.org/property/birthPlace
p45
aVhttp://dbpedia.org/property/placeOfBirth
p46
ass.