(lp1
(lp2
(lp3
Vhttp://dbpedia.org/resource/Cole_Weston
p4
aa(lp5
Vhttp://dbpedia.org/resource/George_M._Cox
p6
aa(lp7
Vhttp://dbpedia.org/resource/Austin_Post
p8
aa(lp9
Vhttp://dbpedia.org/resource/Peter_Gimbel
p10
aa(lp11
Vhttp://dbpedia.org/resource/Stan_Waterman
p12
aa(lp13
a(lp14
a(lp15
a(lp16
Vhttp://dbpedia.org/resource/Len_Prince
p17
aa(lp18
Vhttp://dbpedia.org/resource/Stuart_Rome
p19
aa(lp20
a(lp21
Vhttp://dbpedia.org/resource/David_Bachrach
p22
aa(lp23
a(lp24
Vhttp://dbpedia.org/resource/Lorne_Resnick
p25
aa(lp26
Vhttp://dbpedia.org/resource/Malerie_Marder
p27
aa(lp28
Vhttp://dbpedia.org/resource/Evelyn_Hockstein
p29
aa(lp30
Vhttp://dbpedia.org/resource/Keith_Davis_(NY_Giants_linebacker)
p31
aa(lp32
Vhttp://dbpedia.org/resource/Francis_Wolff
p33
aa(lp34
Vhttp://dbpedia.org/resource/Jack_Aeby
p35
aaa.