(lp1
(lp2
(lp3
a(lp4
a(lp5
aa(lp6
(lp7
a(lp8
((lp9
Vhttp://www.w3.org/2002/07/owl#Thing
p10
aVhttp://xmlns.com/foaf/0.1/Person
p11
aVhttp://dbpedia.org/ontology/Person
p12
aVhttp://www.ontologydesignpatterns.org/ont/dul/DUL.owl#Agent
p13
aVhttp://www.ontologydesignpatterns.org/ont/dul/DUL.owl#NaturalPerson
p14
aVhttp://www.wikidata.org/entity/Q215627
p15
aVhttp://www.wikidata.org/entity/Q5
p16
aVhttp://dbpedia.org/ontology/Agent
p17
aVhttp://schema.org/Person
p18
aVhttp://dbpedia.org/resource/Amarilli_Nizza
tp19
aa(lp20
aa(lp21
(lp22
a(lp23
((lp24
Vhttp://www.w3.org/2002/07/owl#Thing
p25
aVhttp://xmlns.com/foaf/0.1/Person
p26
aVhttp://dbpedia.org/ontology/Person
p27
aVhttp://www.ontologydesignpatterns.org/ont/dul/DUL.owl#Agent
p28
aVhttp://www.ontologydesignpatterns.org/ont/dul/DUL.owl#NaturalPerson
p29
aVhttp://www.wikidata.org/entity/Q215627
p30
aVhttp://www.wikidata.org/entity/Q5
p31
aVhttp://dbpedia.org/ontology/Agent
p32
aVhttp://schema.org/Person
p33
aVhttp://dbpedia.org/resource/Amber_Kirk-Ford
tp34
aa(lp35
aa(lp36
(lp37
a(lp38
((lp39
Vhttp://www.w3.org/2002/07/owl#Thing
p40
aVhttp://xmlns.com/foaf/0.1/Person
p41
aVhttp://dbpedia.org/ontology/Person
p42
aVhttp://www.ontologydesignpatterns.org/ont/dul/DUL.owl#Agent
p43
aVhttp://www.ontologydesignpatterns.org/ont/dul/DUL.owl#NaturalPerson
p44
aVhttp://www.wikidata.org/entity/Q215627
p45
aVhttp://www.wikidata.org/entity/Q5
p46
aVhttp://dbpedia.org/ontology/Agent
p47
aVhttp://schema.org/Person
p48
aVhttp://dbpedia.org/resource/Ambroise_Abdo
tp49
aa(lp50
aa(lp51
(lp52
a(lp53
a(lp54
aa(lp55
(lp56
((lp57
Vhttp://dbpedia.org/class/yago/AdministrativeDistrict108491826
p58
aVhttp://dbpedia.org/class/yago/District108552138
p59
aVhttp://dbpedia.org/class/yago/Location100027167
p60
aVhttp://dbpedia.org/class/yago/Object100002684
p61
aVhttp://dbpedia.org/class/yago/Region108630985
p62
aVhttp://dbpedia.org/class/yago/Town108665504
p63
aVhttp://dbpedia.org/class/yago/UrbanArea108675967
p64
aVhttp://dbpedia.org/class/yago/YagoGeoEntity
p65
aVhttp://dbpedia.org/class/yago/YagoLegalActorGeo
p66
aVhttp://www.w3.org/2003/01/geo/wgs84_pos#SpatialThing
p67
aVhttp://dbpedia.org/class/yago/YagoPermanentlyLocatedEntity
p68
aVhttp://dbpedia.org/class/yago/GeographicalArea108574314
p69
aVhttp://dbpedia.org/class/yago/GhostTown108671509
p70
aVhttp://dbpedia.org/class/yago/GhostTownsInMichigan
p71
aVhttp://dbpedia.org/class/yago/Municipality108626283
p72
aVhttp://dbpedia.org/class/yago/PhysicalEntity100001930
p73
aVhttp://dbpedia.org/resource/Singapore,_Michigan
tp74
aa(lp75
((lp76
Vhttp://www.w3.org/2002/07/owl#Thing
p77
aVhttp://xmlns.com/foaf/0.1/Person
p78
aVhttp://dbpedia.org/ontology/Person
p79
aVhttp://www.ontologydesignpatterns.org/ont/dul/DUL.owl#Agent
p80
aVhttp://www.ontologydesignpatterns.org/ont/dul/DUL.owl#NaturalPerson
p81
aVhttp://www.wikidata.org/entity/Q215627
p82
aVhttp://www.wikidata.org/entity/Q5
p83
aVhttp://dbpedia.org/ontology/Agent
p84
aVhttp://schema.org/Person
p85
aVhttp://dbpedia.org/resource/Amos_Yee
tp86
aa(lp87
aa(lp88
(lp89
a(lp90
((lp91
Vhttp://www.w3.org/2002/07/owl#Thing
p92
aVhttp://xmlns.com/foaf/0.1/Person
p93
aVhttp://dbpedia.org/ontology/Person
p94
aVhttp://www.ontologydesignpatterns.org/ont/dul/DUL.owl#Agent
p95
aVhttp://www.ontologydesignpatterns.org/ont/dul/DUL.owl#NaturalPerson
p96
aVhttp://www.wikidata.org/entity/Q215627
p97
aVhttp://www.wikidata.org/entity/Q5
p98
aVhttp://dbpedia.org/ontology/Agent
p99
aVhttp://schema.org/Person
p100
aVhttp://dbpedia.org/resource/Amrit_Maghera
tp101
aa(lp102
aa(lp103
(lp104
a(lp105
a(lp106
aa(lp107
(lp108
a(lp109
((lp110
Vhttp://www.w3.org/2002/07/owl#Thing
p111
aVhttp://xmlns.com/foaf/0.1/Person
p112
aVhttp://dbpedia.org/ontology/Person
p113
aVhttp://www.ontologydesignpatterns.org/ont/dul/DUL.owl#Agent
p114
aVhttp://www.ontologydesignpatterns.org/ont/dul/DUL.owl#NaturalPerson
p115
aVhttp://www.wikidata.org/entity/Q215627
p116
aVhttp://www.wikidata.org/entity/Q5
p117
aVhttp://dbpedia.org/ontology/Agent
p118
aVhttp://schema.org/Person
p119
aVhttp://dbpedia.org/resource/Analyn_Barro
tp120
aa(lp121
aa(lp122
(lp123
a(lp124
((lp125
Vhttp://www.w3.org/2002/07/owl#Thing
p126
aVhttp://xmlns.com/foaf/0.1/Person
p127
aVhttp://dbpedia.org/ontology/Person
p128
aVhttp://www.ontologydesignpatterns.org/ont/dul/DUL.owl#Agent
p129
aVhttp://www.ontologydesignpatterns.org/ont/dul/DUL.owl#NaturalPerson
p130
aVhttp://www.wikidata.org/entity/Q215627
p131
aVhttp://www.wikidata.org/entity/Q5
p132
aVhttp://dbpedia.org/ontology/Agent
p133
aVhttp://schema.org/Person
p134
aVhttp://dbpedia.org/resource/Ananda_Shankar_Jayant
tp135
aa(lp136
aa(lp137
(lp138
a(lp139
((lp140
Vhttp://www.w3.org/2002/07/owl#Thing
p141
aVhttp://xmlns.com/foaf/0.1/Person
p142
aVhttp://dbpedia.org/ontology/Person
p143
aVhttp://www.ontologydesignpatterns.org/ont/dul/DUL.owl#Agent
p144
aVhttp://www.ontologydesignpatterns.org/ont/dul/DUL.owl#NaturalPerson
p145
aVhttp://www.wikidata.org/entity/Q215627
p146
aVhttp://www.wikidata.org/entity/Q5
p147
aVhttp://dbpedia.org/ontology/Agent
p148
aVhttp://schema.org/Person
p149
aVhttp://dbpedia.org/resource/Anar_Alizade
tp150
aa(lp151
aa(lp152
(lp153
a(lp154
((lp155
Vhttp://www.w3.org/2002/07/owl#Thing
p156
aVhttp://xmlns.com/foaf/0.1/Person
p157
aVhttp://dbpedia.org/ontology/Person
p158
aVhttp://www.ontologydesignpatterns.org/ont/dul/DUL.owl#Agent
p159
aVhttp://www.ontologydesignpatterns.org/ont/dul/DUL.owl#NaturalPerson
p160
aVhttp://www.wikidata.org/entity/Q215627
p161
aVhttp://www.wikidata.org/entity/Q5
p162
aVhttp://dbpedia.org/ontology/Agent
p163
aVhttp://schema.org/Person
p164
aVhttp://dbpedia.org/resource/Anastasia_Lin
tp165
aa(lp166
aa(lp167
(lp168
a(lp169
((lp170
Vhttp://www.w3.org/2002/07/owl#Thing
p171
aVhttp://xmlns.com/foaf/0.1/Person
p172
aVhttp://dbpedia.org/ontology/Person
p173
aVhttp://www.ontologydesignpatterns.org/ont/dul/DUL.owl#Agent
p174
aVhttp://www.ontologydesignpatterns.org/ont/dul/DUL.owl#NaturalPerson
p175
aVhttp://www.wikidata.org/entity/Q215627
p176
aVhttp://www.wikidata.org/entity/Q5
p177
aVhttp://dbpedia.org/ontology/Agent
p178
aVhttp://schema.org/Person
p179
aVhttp://dbpedia.org/resource/Anders_Hvenare
p180
tp181
aa(lp182
aa(lp183
(lp184
a(lp185
a(lp186
aa(lp187
(lp188
a(lp189
a(lp190
aa(lp191
(lp192
a(lp193
a(lp194
aa.