(lp1
(lp2
(lp3
((lVhttp://dbpedia.org/resource/Messier_70
tp4
aa(lp5
((lVhttp://dbpedia.org/resource/Messier_62
tp6
aa(lp7
a(lp8
a(lp9
a(lp10
a(lp11
((lVhttp://dbpedia.org/resource/NGC_406
tp12
aa(lp13
((lVhttp://dbpedia.org/resource/NGC_6072
tp14
aa(lp15
a(lp16
((lp17
Vhttp://dbpedia.org/class/yago/CaldwellObjects
p18
aVhttp://dbpedia.org/class/yago/Object100002684
p19
aVhttp://dbpedia.org/class/yago/NGCObjects
p20
aVhttp://dbpedia.org/class/yago/PhysicalEntity100001930
p21
aVhttp://dbpedia.org/resource/Veil_Nebula
tp22
aa(lp23
a(lp24
a(lp25
((lVhttp://dbpedia.org/resource/NGC_32
tp26
aa(lp27
a(lp28
((lVhttp://dbpedia.org/resource/NGC_32
tp29
aa(lp30
a(lp31
a(lp32
((lVhttp://dbpedia.org/resource/NGC_1261
tp33
aa(lp34
((lp35
Vhttp://dbpedia.org/class/yago/CaldwellObjects
p36
aVhttp://dbpedia.org/class/yago/Object100002684
p37
aVhttp://dbpedia.org/class/yago/SharplessObjects
p38
aVhttp://dbpedia.org/class/yago/NGCObjects
p39
aVhttp://dbpedia.org/class/yago/PhysicalEntity100001930
p40
aVhttp://dbpedia.org/resource/Crescent_Nebula
p41
tp42
aaa.