ccollections
defaultdict
p1
(c__builtin__
dict
p2
tRp3
I1
(dp4
I1
(lp5
sI2
(lp6
ssI2
(dp7
I1
(lp8
Vhttp://dbpedia.org/ontology/abstract
p9
aVhttp://purl.org/dc/terms/subject
p10
aVhttp://www.w3.org/2000/01/rdf-schema#comment
p11
asI2
(lp12
ssI3
(dp13
I1
(lp14
sI2
(lp15
ssI4
(dp16
I1
(lp17
sI2
(lp18
ssI5
(dp19
I1
(lp20
sI2
(lp21
ssI6
(dp22
I1
(lp23
sI2
(lp24
ssI7
(dp25
I1
(lp26
sI2
(lp27
ssI9
(dp28
I1
(lp29
sI2
(lp30
ssI10
(dp31
I1
(lp32
sI2
(lp33
ssI11
(dp34
I1
(lp35
sI2
(lp36
ssI12
(dp37
I1
(lp38
sI2
(lp39
ssI15
(dp40
I1
(lp41
sI2
(lp42
ssI17
(dp43
I1
(lp44
sI2
(lp45
ss.