(lp1
(lp2
(lp3
((lp4
Vhttp://dbpedia.org/class/yago/Artifact100021939
p5
aVhttp://dbpedia.org/class/yago/Facility103315023
p6
aVhttp://dbpedia.org/class/yago/Object100002684
p7
aVhttp://dbpedia.org/class/yago/PowerStation103996655
p8
aVhttp://dbpedia.org/class/yago/Station104306080
p9
aVhttp://dbpedia.org/class/yago/Whole100003553
p10
aVhttp://dbpedia.org/class/yago/YagoGeoEntity
p11
aVhttp://www.w3.org/2002/07/owl#Thing
p12
aVhttp://dbpedia.org/ontology/Place
p13
aVhttp://dbpedia.org/ontology/Location
p14
aVhttp://www.wikidata.org/entity/Q159719
p15
aVhttp://dbpedia.org/ontology/ArchitecturalStructure
p16
aVhttp://dbpedia.org/ontology/Infrastructure
p17
aVhttp://dbpedia.org/ontology/PowerStation
p18
aVhttp://www.w3.org/2003/01/geo/wgs84_pos#SpatialThing
p19
aVhttp://schema.org/Place
p20
aVhttp://dbpedia.org/class/yago/YagoPermanentlyLocatedEntity
p21
aVhttp://dbpedia.org/class/yago/NaturalGas-firedPowerStationsInWisconsin
p22
aVhttp://dbpedia.org/class/yago/PhysicalEntity100001930
p23
aVhttp://dbpedia.org/resource/Rock_River_Generating_Station
tp24
aa(lp25
((lp26
Vhttp://dbpedia.org/class/yago/Artifact100021939
p27
aVhttp://dbpedia.org/class/yago/Facility103315023
p28
aVhttp://dbpedia.org/class/yago/Object100002684
p29
aVhttp://dbpedia.org/class/yago/PowerStation103996655
p30
aVhttp://dbpedia.org/class/yago/Station104306080
p31
aVhttp://dbpedia.org/class/yago/Whole100003553
p32
aVhttp://dbpedia.org/class/yago/YagoGeoEntity
p33
aVhttp://www.w3.org/2002/07/owl#Thing
p34
aVhttp://dbpedia.org/ontology/Place
p35
aVhttp://dbpedia.org/ontology/Location
p36
aVhttp://www.wikidata.org/entity/Q159719
p37
aVhttp://dbpedia.org/ontology/ArchitecturalStructure
p38
aVhttp://dbpedia.org/ontology/Infrastructure
p39
aVhttp://dbpedia.org/ontology/PowerStation
p40
aVhttp://www.w3.org/2003/01/geo/wgs84_pos#SpatialThing
p41
aVhttp://schema.org/Place
p42
aVhttp://dbpedia.org/class/yago/EnergyResourceFacilitiesInNewYork
p43
aVhttp://dbpedia.org/class/yago/YagoPermanentlyLocatedEntity
p44
aVhttp://dbpedia.org/class/yago/NuclearPowerPlantsInNewYork
p45
aVhttp://dbpedia.org/class/yago/NuclearPowerStationsInTheUnitedStates
p46
aVhttp://dbpedia.org/class/yago/PhysicalEntity100001930
p47
aVhttp://dbpedia.org/resource/Shoreham_Nuclear_Power_Plant
tp48
aa(lp49
((lp50
Vhttp://dbpedia.org/class/yago/Artifact100021939
p51
aVhttp://dbpedia.org/class/yago/Facility103315023
p52
aVhttp://dbpedia.org/class/yago/Object100002684
p53
aVhttp://dbpedia.org/class/yago/PowerStation103996655
p54
aVhttp://dbpedia.org/class/yago/Station104306080
p55
aVhttp://dbpedia.org/class/yago/Whole100003553
p56
aVhttp://dbpedia.org/class/yago/YagoGeoEntity
p57
aVhttp://dbpedia.org/class/yago/PowerStationsInNorthEastEngland
p58
aVhttp://www.w3.org/2002/07/owl#Thing
p59
aVhttp://dbpedia.org/ontology/Place
p60
aVhttp://dbpedia.org/ontology/Location
p61
aVhttp://www.wikidata.org/entity/Q159719
p62
aVhttp://dbpedia.org/ontology/ArchitecturalStructure
p63
aVhttp://dbpedia.org/ontology/Infrastructure
p64
aVhttp://dbpedia.org/ontology/PowerStation
p65
aVhttp://www.w3.org/2003/01/geo/wgs84_pos#SpatialThing
p66
aVhttp://schema.org/Place
p67
aVhttp://dbpedia.org/class/yago/Coal-firedPowerStationsInEngland
p68
aVhttp://dbpedia.org/class/yago/DemolishedPowerStationsInTheUnitedKingdom
p69
aVhttp://dbpedia.org/class/yago/YagoPermanentlyLocatedEntity
p70
aVhttp://dbpedia.org/class/yago/PhysicalEntity100001930
p71
aVhttp://dbpedia.org/resource/Stella_power_stations
tp72
aa(lp73
((lp74
Vhttp://dbpedia.org/class/yago/Artifact100021939
p75
aVhttp://dbpedia.org/class/yago/Facility103315023
p76
aVhttp://dbpedia.org/class/yago/Object100002684
p77
aVhttp://dbpedia.org/class/yago/PowerStation103996655
p78
aVhttp://dbpedia.org/class/yago/Station104306080
p79
aVhttp://dbpedia.org/class/yago/Structure104341686
p80
aVhttp://dbpedia.org/class/yago/Tower104460130
p81
aVhttp://dbpedia.org/class/yago/Whole100003553
p82
aVhttp://dbpedia.org/class/yago/YagoGeoEntity
p83
aVhttp://www.w3.org/2002/07/owl#Thing
p84
aVhttp://dbpedia.org/ontology/Place
p85
aVhttp://dbpedia.org/ontology/Location
p86
aVhttp://www.wikidata.org/entity/Q159719
p87
aVhttp://dbpedia.org/ontology/ArchitecturalStructure
p88
aVhttp://dbpedia.org/ontology/Infrastructure
p89
aVhttp://dbpedia.org/ontology/PowerStation
p90
aVhttp://www.w3.org/2003/01/geo/wgs84_pos#SpatialThing
p91
aVhttp://schema.org/Place
p92
aVhttp://dbpedia.org/class/yago/YagoPermanentlyLocatedEntity
p93
aVhttp://dbpedia.org/class/yago/NuclearPowerPlantsInPennsylvania
p94
aVhttp://dbpedia.org/class/yago/PhysicalEntity100001930
p95
aVhttp://dbpedia.org/class/yago/TowersInPennsylvania
p96
aVhttp://dbpedia.org/resource/Susquehanna_Steam_Electric_Station
tp97
aa(lp98
a(lp99
((lp100
Vhttp://dbpedia.org/class/yago/Artifact100021939
p101
aVhttp://dbpedia.org/class/yago/Facility103315023
p102
aVhttp://dbpedia.org/class/yago/Object100002684
p103
aVhttp://dbpedia.org/class/yago/PowerStation103996655
p104
aVhttp://dbpedia.org/class/yago/Station104306080
p105
aVhttp://dbpedia.org/class/yago/Whole100003553
p106
aVhttp://dbpedia.org/class/yago/YagoGeoEntity
p107
aVhttp://www.w3.org/2002/07/owl#Thing
p108
aVhttp://dbpedia.org/ontology/Place
p109
aVhttp://dbpedia.org/ontology/Location
p110
aVhttp://www.wikidata.org/entity/Q159719
p111
aVhttp://dbpedia.org/ontology/ArchitecturalStructure
p112
aVhttp://dbpedia.org/ontology/Infrastructure
p113
aVhttp://dbpedia.org/ontology/PowerStation
p114
aVhttp://www.w3.org/2003/01/geo/wgs84_pos#SpatialThing
p115
aVhttp://schema.org/Place
p116
aVhttp://dbpedia.org/class/yago/EnergyResourceFacilitiesInSouthCarolina
p117
aVhttp://dbpedia.org/class/yago/YagoPermanentlyLocatedEntity
p118
aVhttp://dbpedia.org/class/yago/NuclearPowerPlantsInSouthCarolina
p119
aVhttp://dbpedia.org/class/yago/NuclearPowerStationsInTheUnitedStates
p120
aVhttp://dbpedia.org/class/yago/NuclearPowerStationsUsingAP1000Reactors
p121
aVhttp://dbpedia.org/class/yago/NuclearPowerStationsUsingPressurizedWaterReactors
p122
aVhttp://dbpedia.org/class/yago/NuclearPowerStationsWithReactorsUnderConstruction
p123
aVhttp://dbpedia.org/class/yago/PhysicalEntity100001930
p124
aVhttp://dbpedia.org/resource/Virgil_C._Summer_Nuclear_Generating_Station
tp125
aa(lp126
((lp127
Vhttp://dbpedia.org/class/yago/Artifact100021939
p128
aVhttp://dbpedia.org/class/yago/Facility103315023
p129
aVhttp://dbpedia.org/class/yago/Object100002684
p130
aVhttp://dbpedia.org/class/yago/PowerStation103996655
p131
aVhttp://dbpedia.org/class/yago/Station104306080
p132
aVhttp://dbpedia.org/class/yago/Whole100003553
p133
aVhttp://dbpedia.org/class/yago/YagoGeoEntity
p134
aVhttp://www.w3.org/2002/07/owl#Thing
p135
aVhttp://dbpedia.org/ontology/Place
p136
aVhttp://dbpedia.org/ontology/Location
p137
aVhttp://www.wikidata.org/entity/Q159719
p138
aVhttp://dbpedia.org/ontology/ArchitecturalStructure
p139
aVhttp://dbpedia.org/ontology/Infrastructure
p140
aVhttp://dbpedia.org/ontology/PowerStation
p141
aVhttp://www.w3.org/2003/01/geo/wgs84_pos#SpatialThing
p142
aVhttp://schema.org/Place
p143
aVhttp://dbpedia.org/class/yago/Coal-firedPowerStationsInMaryland
p144
aVhttp://dbpedia.org/class/yago/EnergyResourceFacilitiesInMaryland
p145
aVhttp://dbpedia.org/class/yago/YagoPermanentlyLocatedEntity
p146
aVhttp://dbpedia.org/class/yago/PhysicalEntity100001930
p147
aVhttp://dbpedia.org/resource/Warrior_Run_Generating_Station
tp148
aa(lp149
((lp150
Vhttp://dbpedia.org/class/yago/Artifact100021939
p151
aVhttp://dbpedia.org/class/yago/Facility103315023
p152
aVhttp://dbpedia.org/class/yago/Object100002684
p153
aVhttp://dbpedia.org/class/yago/PowerStation103996655
p154
aVhttp://dbpedia.org/class/yago/Station104306080
p155
aVhttp://dbpedia.org/class/yago/Whole100003553
p156
aVhttp://dbpedia.org/class/yago/YagoGeoEntity
p157
aVhttp://www.w3.org/2002/07/owl#Thing
p158
aVhttp://dbpedia.org/ontology/Place
p159
aVhttp://dbpedia.org/ontology/Location
p160
aVhttp://www.wikidata.org/entity/Q159719
p161
aVhttp://dbpedia.org/ontology/ArchitecturalStructure
p162
aVhttp://dbpedia.org/ontology/Infrastructure
p163
aVhttp://dbpedia.org/ontology/PowerStation
p164
aVhttp://schema.org/Place
p165
aVhttp://dbpedia.org/class/yago/YagoPermanentlyLocatedEntity
p166
aVhttp://dbpedia.org/class/yago/NaturalGas-firedPowerStationsInSaskatchewan
p167
aVhttp://dbpedia.org/class/yago/PhysicalEntity100001930
p168
aVhttp://dbpedia.org/resource/Yellowhead_Power_Station
tp169
aa(lp170
a(lp171
a(lp172
((lp173
Vhttp://www.w3.org/2002/07/owl#Thing
p174
aVhttp://dbpedia.org/ontology/Place
p175
aVhttp://dbpedia.org/ontology/Location
p176
aVhttp://www.wikidata.org/entity/Q159719
p177
aVhttp://dbpedia.org/ontology/ArchitecturalStructure
p178
aVhttp://dbpedia.org/ontology/Infrastructure
p179
aVhttp://dbpedia.org/ontology/PowerStation
p180
aVhttp://www.w3.org/2003/01/geo/wgs84_pos#SpatialThing
p181
aVhttp://schema.org/Place
p182
aVhttp://dbpedia.org/resource/Berkshire_Wind_Power_Project
tp183
aa(lp184
((lp185
Vhttp://dbpedia.org/class/yago/Artifact100021939
p186
aVhttp://dbpedia.org/class/yago/Facility103315023
p187
aVhttp://dbpedia.org/class/yago/Object100002684
p188
aVhttp://dbpedia.org/class/yago/PowerStation103996655
p189
aVhttp://dbpedia.org/class/yago/Station104306080
p190
aVhttp://dbpedia.org/class/yago/Whole100003553
p191
aVhttp://dbpedia.org/class/yago/YagoGeoEntity
p192
aVhttp://dbpedia.org/class/yago/SolarPowerStationsInGermany
p193
aVhttp://www.w3.org/2002/07/owl#Thing
p194
aVhttp://dbpedia.org/ontology/Place
p195
aVhttp://dbpedia.org/ontology/Location
p196
aVhttp://www.wikidata.org/entity/Q159719
p197
aVhttp://dbpedia.org/ontology/ArchitecturalStructure
p198
aVhttp://dbpedia.org/ontology/Infrastructure
p199
aVhttp://dbpedia.org/ontology/PowerStation
p200
aVhttp://www.w3.org/2003/01/geo/wgs84_pos#SpatialThing
p201
aVhttp://schema.org/Place
p202
aVhttp://dbpedia.org/class/yago/YagoPermanentlyLocatedEntity
p203
aVhttp://dbpedia.org/class/yago/PhotovoltaicPowerStations
p204
aVhttp://dbpedia.org/class/yago/PhysicalEntity100001930
p205
aVhttp://dbpedia.org/resource/Cottbus-Drewitz_Solarpark
tp206
aa(lp207
a(lp208
a(lp209
((lp210
Vhttp://dbpedia.org/class/yago/Artifact100021939
p211
aVhttp://dbpedia.org/class/yago/Facility103315023
p212
aVhttp://dbpedia.org/class/yago/Object100002684
p213
aVhttp://dbpedia.org/class/yago/PowerStation103996655
p214
aVhttp://dbpedia.org/class/yago/Station104306080
p215
aVhttp://dbpedia.org/class/yago/Whole100003553
p216
aVhttp://dbpedia.org/class/yago/YagoGeoEntity
p217
aVhttp://www.w3.org/2002/07/owl#Thing
p218
aVhttp://dbpedia.org/ontology/Place
p219
aVhttp://dbpedia.org/ontology/Location
p220
aVhttp://www.wikidata.org/entity/Q159719
p221
aVhttp://dbpedia.org/ontology/ArchitecturalStructure
p222
aVhttp://dbpedia.org/ontology/Infrastructure
p223
aVhttp://dbpedia.org/ontology/PowerStation
p224
aVhttp://www.w3.org/2003/01/geo/wgs84_pos#SpatialThing
p225
aVhttp://schema.org/Place
p226
aVhttp://dbpedia.org/class/yago/YagoPermanentlyLocatedEntity
p227
aVhttp://dbpedia.org/class/yago/NaturalGas-firedPowerStationsInOntario
p228
aVhttp://dbpedia.org/class/yago/PhysicalEntity100001930
p229
aVhttp://dbpedia.org/resource/Portlands_Energy_Centre
tp230
aa(lp231
a(lp232
((lp233
Vhttp://dbpedia.org/class/yago/Artifact100021939
p234
aVhttp://dbpedia.org/class/yago/Facility103315023
p235
aVhttp://dbpedia.org/class/yago/Object100002684
p236
aVhttp://dbpedia.org/class/yago/PowerStation103996655
p237
aVhttp://dbpedia.org/class/yago/Station104306080
p238
aVhttp://dbpedia.org/class/yago/Whole100003553
p239
aVhttp://dbpedia.org/class/yago/YagoGeoEntity
p240
aVhttp://dbpedia.org/class/yago/PowerStationsInTheEastMidlands
p241
aVhttp://www.w3.org/2002/07/owl#Thing
p242
aVhttp://dbpedia.org/ontology/Place
p243
aVhttp://dbpedia.org/ontology/Location
p244
aVhttp://www.wikidata.org/entity/Q159719
p245
aVhttp://dbpedia.org/ontology/ArchitecturalStructure
p246
aVhttp://dbpedia.org/ontology/Infrastructure
p247
aVhttp://dbpedia.org/ontology/PowerStation
p248
aVhttp://www.w3.org/2003/01/geo/wgs84_pos#SpatialThing
p249
aVhttp://schema.org/Place
p250
aVhttp://dbpedia.org/class/yago/Coal-firedPowerStationsInEngland
p251
aVhttp://dbpedia.org/class/yago/YagoPermanentlyLocatedEntity
p252
aVhttp://dbpedia.org/class/yago/NaturalGas-firedPowerStationsInEngland
p253
aVhttp://dbpedia.org/class/yago/PhysicalEntity100001930
p254
aVhttp://dbpedia.org/resource/West_Burton_power_stations
tp255
aa(lp256
((lp257
Vhttp://dbpedia.org/class/yago/Artifact100021939
p258
aVhttp://dbpedia.org/class/yago/Facility103315023
p259
aVhttp://dbpedia.org/class/yago/Object100002684
p260
aVhttp://dbpedia.org/class/yago/PowerStation103996655
p261
aVhttp://dbpedia.org/class/yago/Station104306080
p262
aVhttp://dbpedia.org/class/yago/Whole100003553
p263
aVhttp://dbpedia.org/class/yago/YagoGeoEntity
p264
aVhttp://dbpedia.org/class/yago/PowerStationsInNorthWestEngland
p265
aVhttp://www.w3.org/2002/07/owl#Thing
p266
aVhttp://dbpedia.org/ontology/Place
p267
aVhttp://dbpedia.org/ontology/Location
p268
aVhttp://www.wikidata.org/entity/Q159719
p269
aVhttp://dbpedia.org/ontology/ArchitecturalStructure
p270
aVhttp://dbpedia.org/ontology/Infrastructure
p271
aVhttp://dbpedia.org/ontology/PowerStation
p272
aVhttp://www.w3.org/2003/01/geo/wgs84_pos#SpatialThing
p273
aVhttp://schema.org/Place
p274
aVhttp://dbpedia.org/class/yago/Coal-firedPowerStationsInEngland
p275
aVhttp://dbpedia.org/class/yago/DemolishedPowerStationsInTheUnitedKingdom
p276
aVhttp://dbpedia.org/class/yago/YagoPermanentlyLocatedEntity
p277
aVhttp://dbpedia.org/class/yago/PhysicalEntity100001930
p278
aVhttp://dbpedia.org/resource/Agecroft_Power_Station
p279
tp280
aa(lp281
aa.