(lp1
(lp2
(lp3
a(lp4
a(lp5
aa(lp6
(lp7
a(lp8
a(lp9
aa(lp10
(lp11
a(lp12
a(lp13
aa(lp14
(lp15
a(lp16
a(lp17
aa(lp18
(lp19
a(lp20
a(lp21
aa(lp22
(lp23
a(lp24
a(lp25
aa(lp26
(lp27
a(lp28
a(lp29
((lp30
Vhttp://dbpedia.org/class/yago/Abstraction100002137
p31
aVhttp://dbpedia.org/class/yago/Group100031264
p32
aVhttp://dbpedia.org/class/yago/Organization108008335
p33
aVhttp://dbpedia.org/class/yago/Party108256968
p34
aVhttp://dbpedia.org/class/yago/SocialGroup107950920
p35
aVhttp://dbpedia.org/class/yago/YagoLegalActorGeo
p36
aVhttp://dbpedia.org/class/yago/SocialDemocraticParties
p37
aVhttp://www.w3.org/2002/07/owl#Thing
p38
aVhttp://www.ontologydesignpatterns.org/ont/dul/DUL.owl#Agent
p39
aVhttp://www.ontologydesignpatterns.org/ont/dul/DUL.owl#SocialPerson
p40
aVhttp://www.wikidata.org/entity/Q43229
p41
aVhttp://www.wikidata.org/entity/Q7278
p42
aVhttp://dbpedia.org/ontology/Agent
p43
aVhttp://dbpedia.org/ontology/Organisation
p44
aVhttp://dbpedia.org/ontology/PoliticalParty
p45
aVhttp://schema.org/Organization
p46
aVhttp://dbpedia.org/class/yago/YagoPermanentlyLocatedEntity
p47
aVhttp://dbpedia.org/class/yago/PoliticalPartiesEstablishedIn1863
p48
aVhttp://dbpedia.org/class/yago/PoliticalPartiesInGermany
p49
aVhttp://dbpedia.org/class/yago/PoliticalPartiesInWeimarGermany
p50
aVhttp://dbpedia.org/class/yago/PoliticalPartiesOfTheGermanEmpire
p51
aVhttp://dbpedia.org/class/yago/YagoLegalActor
p52
aVhttp://dbpedia.org/resource/Social_Democratic_Party_of_Germany
p53
tp54
aaa(lp55
(lp56
a(lp57
a(lp58
aa(lp59
(lp60
a(lp61
a(lp62
aa(lp63
(lp64
a(lp65
a(lp66
aa(lp67
(lp68
a(lp69
a(lp70
aa(lp71
(lp72
a(lp73
a(lp74
aa(lp75
(lp76
a(lp77
a(lp78
aa(lp79
(lp80
a(lp81
a(lp82
aa(lp83
(lp84
a(lp85
a(lp86
aa(lp87
(lp88
a(lp89
a(lp90
aa(lp91
(lp92
a(lp93
a(lp94
aa(lp95
(lp96
a(lp97
a(lp98
aa(lp99
(lp100
a(lp101
a(lp102
aa.