(lp1
(lp2
(lp3
a(lp4
a(lp5
a(lp6
aa(lp7
(lp8
a(lp9
a(lp10
a(lp11
aa(lp12
(lp13
a(lp14
a(lp15
a(lp16
aa(lp17
(lp18
a(lp19
a(lp20
a(lp21
aa(lp22
(lp23
a(lp24
a(lp25
a(lp26
aa(lp27
(lp28
a(lp29
a(lp30
a(lp31
aa(lp32
(lp33
a(lp34
a(lp35
a(lp36
aa(lp37
(lp38
a(lp39
a(lp40
a(lp41
aa(lp42
(lp43
a(lp44
a(lp45
a(lp46
((lp47
Vhttp://dbpedia.org/class/yago/Biologist109855630
p48
aVhttp://dbpedia.org/class/yago/CausalAgent100007347
p49
aVhttp://dbpedia.org/class/yago/LivingThing100004258
p50
aVhttp://dbpedia.org/class/yago/Microbiologist110313580
p51
aVhttp://dbpedia.org/class/yago/Object100002684
p52
aVhttp://dbpedia.org/class/yago/Organism100004475
p53
aVhttp://dbpedia.org/class/yago/Person100007846
p54
aVhttp://dbpedia.org/class/yago/Scientist110560637
p55
aVhttp://dbpedia.org/class/yago/Whole100003553
p56
aVhttp://dbpedia.org/class/yago/YagoLegalActorGeo
p57
aVhttp://www.w3.org/2002/07/owl#Thing
p58
aVhttp://xmlns.com/foaf/0.1/Person
p59
aVhttp://dbpedia.org/ontology/Person
p60
aVhttp://www.ontologydesignpatterns.org/ont/dul/DUL.owl#Agent
p61
aVhttp://www.ontologydesignpatterns.org/ont/dul/DUL.owl#NaturalPerson
p62
aVhttp://www.wikidata.org/entity/Q215627
p63
aVhttp://www.wikidata.org/entity/Q5
p64
aVhttp://dbpedia.org/ontology/Agent
p65
aVhttp://schema.org/Person
p66
aVhttp://dbpedia.org/class/yago/FrenchMicrobiologists
p67
aVhttp://dbpedia.org/class/yago/PeopleFromVal-de-Marne
p68
aVhttp://dbpedia.org/class/yago/YagoLegalActor
p69
aVhttp://dbpedia.org/class/yago/PhysicalEntity100001930
p70
aVhttp://dbpedia.org/resource/Jean_Binot
tp71
aaa(lp72
(lp73
a(lp74
a(lp75
a(lp76
aa(lp77
(lp78
a(lp79
a(lp80
a(lp81
aa(lp82
(lp83
a(lp84
a(lp85
a(lp86
((lp87
Vhttp://dbpedia.org/class/yago/CausalAgent100007347
p88
aVhttp://dbpedia.org/class/yago/LivingThing100004258
p89
aVhttp://dbpedia.org/class/yago/Object100002684
p90
aVhttp://dbpedia.org/class/yago/Organism100004475
p91
aVhttp://dbpedia.org/class/yago/Person100007846
p92
aVhttp://dbpedia.org/class/yago/Whole100003553
p93
aVhttp://dbpedia.org/class/yago/YagoLegalActorGeo
p94
aVhttp://www.w3.org/2002/07/owl#Thing
p95
aVhttp://xmlns.com/foaf/0.1/Person
p96
aVhttp://dbpedia.org/ontology/Person
p97
aVhttp://www.ontologydesignpatterns.org/ont/dul/DUL.owl#Agent
p98
aVhttp://www.ontologydesignpatterns.org/ont/dul/DUL.owl#NaturalPerson
p99
aVhttp://www.wikidata.org/entity/Q215627
p100
aVhttp://www.wikidata.org/entity/Q5
p101
aVhttp://dbpedia.org/ontology/Agent
p102
aVhttp://schema.org/Person
p103
aVhttp://dbpedia.org/class/yago/PeopleFromBrisbane
p104
aVhttp://dbpedia.org/class/yago/YagoLegalActor
p105
aVhttp://dbpedia.org/class/yago/LivingPeople
p106
aVhttp://dbpedia.org/class/yago/PhysicalEntity100001930
p107
aVhttp://dbpedia.org/resource/Rebecca_Wilson
p108
tp109
aaa(lp110
(lp111
a(lp112
a(lp113
a(lp114
aa(lp115
(lp116
a(lp117
a(lp118
a(lp119
aa(lp120
(lp121
a(lp122
a(lp123
a(lp124
aa.