(lp1
(lp2
(lp3
a(lp4
a(lp5
a(lp6
Vhttp://dbpedia.org/resource/October_2011
p7
aa(lp8
aa(lp9
(lp10
Vhttp://dbpedia.org/resource/Ph%C3%B9ng
p11
aa(lp12
a(lp13
a(lp14
a(lp15
aa(lp16
(lp17
a(lp18
a(lp19
a(lp20
a(lp21
aa(lp22
(lp23
Vhttp://dbpedia.org/resource/Couss%C3%A9
p24
aa(lp25
a(lp26
a(lp27
a(lp28
aa(lp29
(lp30
a(lp31
a(lp32
a(lp33
a(lp34
aa(lp35
(lp36
a(lp37
a(lp38
a(lp39
a(lp40
aa(lp41
(lp42
Vhttp://dbpedia.org/resource/Tower_(surname)
p43
aa(lp44
a(lp45
a(lp46
a(lp47
aa(lp48
(lp49
a(lp50
a(lp51
a(lp52
a(lp53
aa(lp54
(lp55
Vhttp://dbpedia.org/resource/Jen%C3%ADk
p56
aa(lp57
a(lp58
a(lp59
a(lp60
aa(lp61
(lp62
a(lp63
a(lp64
a(lp65
a(lp66
aa(lp67
(lp68
a(lp69
a(lp70
a(lp71
a(lp72
aa(lp73
(lp74
a(lp75
a(lp76
a(lp77
a(lp78
aa(lp79
(lp80
a(lp81
a(lp82
a(lp83
a(lp84
aa(lp85
(lp86
Vhttp://dbpedia.org/resource/H._L._Mencken
p87
aa(lp88
a(lp89
a(lp90
a(lp91
aa(lp92
(lp93
a(lp94
a(lp95
a(lp96
a(lp97
aa(lp98
(lp99
Vhttp://dbpedia.org/resource/Peraia
p100
aa(lp101
a(lp102
a(lp103
a(lp104
aa(lp105
(lp106
a(lp107
a(lp108
a(lp109
a(lp110
aa(lp111
(lp112
a(lp113
a(lp114
a(lp115
a(lp116
aa(lp117
(lp118
a(lp119
a(lp120
a(lp121
a(lp122
aa.