(lp1
(dp2
I0
(dp3
I0
(lp4
sI1
(lp5
Vhttp://dbpedia.org/property/origin
p6
aVhttp://dbpedia.org/property/placeOfDeath
p7
aVhttp://dbpedia.org/property/southrm
p8
aVhttp://dbpedia.org/ontology/type
p9
aVhttp://dbpedia.org/property/awardedBy
p10
aVhttp://dbpedia.org/property/broadcastArea
p11
aVhttp://dbpedia.org/property/destination
p12
aVhttp://dbpedia.org/property/allegiance
p13
aVhttp://dbpedia.org/property/represented
p14
aVhttp://dbpedia.org/property/city
p15
aVhttp://dbpedia.org/property/utcOffset
p16
aVhttp://dbpedia.org/ontology/regionServed
p17
aVhttp://dbpedia.org/property/assembly
p18
aVhttp://dbpedia.org/property/launchSite
p19
aVhttp://dbpedia.org/ontology/nationality
p20
aVhttp://dbpedia.org/property/placeOfBirth
p21
aVhttp://dbpedia.org/property/hometown
p22
aVhttp://dbpedia.org/property/establishedEvent
p23
aVhttp://dbpedia.org/property/language
p24
aVhttp://dbpedia.org/property/primaryUser
p25
aVhttp://dbpedia.org/property/nationality
p26
aVhttp://dbpedia.org/ontology/abstract
p27
aVhttp://dbpedia.org/ontology/recordedIn
p28
aVhttp://dbpedia.org/property/venue
p29
aVhttp://dbpedia.org/property/usedBy
p30
aVhttp://dbpedia.org/property/shipNamesake
p31
aVhttp://dbpedia.org/property/nationalOrigin
p32
aVhttp://www.georss.org/georss/point
p33
aVhttp://dbpedia.org/property/shipBuilder
p34
aVhttp://dbpedia.org/ontology/location
p35
aVhttp://dbpedia.org/ontology/PopulatedPlace/areaTotal
p36
aVhttp://dbpedia.org/property/countriesAffected
p37
aVhttp://dbpedia.org/property/factory
p38
aVhttp://dbpedia.org/property/area
p39
aVhttp://dbpedia.org/ontology/hometown
p40
aVhttp://dbpedia.org/property/ground
p41
aVhttp://dbpedia.org/property/foundingLocation
p42
aVhttp://dbpedia.org/property/countryOrigin
p43
aVhttp://dbpedia.org/property/rd4t1Loc
p44
aVhttp://www.w3.org/2000/01/rdf-schema#seeAlso
p45
aVhttp://dbpedia.org/ontology/citizenship
p46
aVhttp://dbpedia.org/ontology/countryWithFirstSatellite
p47
aVhttp://dbpedia.org/property/hostCity
p48
aVhttp://dbpedia.org/property/deathDate
p49
aVhttp://dbpedia.org/property/users
p50
aVhttp://dbpedia.org/ontology/foundationPlace
p51
aVhttp://dbpedia.org/property/countryOfOrigin
p52
aVhttp://dbpedia.org/property/birthplace
p53
aVhttp://dbpedia.org/property/base
p54
aVhttp://dbpedia.org/ontology/locatedInArea
p55
aVhttp://dbpedia.org/property/rd2t3Loc
p56
aVhttp://dbpedia.org/property/based
p57
aVhttp://dbpedia.org/ontology/fastestDriverCountry
p58
aVhttp://dbpedia.org/property/label
p59
aVhttp://dbpedia.org/ontology/country
p60
aVhttp://dbpedia.org/property/returns
p61
aVhttp://dbpedia.org/property/home
p62
aVhttp://dbpedia.org/property/rd1t5Loc
p63
aVhttp://dbpedia.org/property/championshipPlace
p64
aVhttp://dbpedia.org/property/discoverySite
p65
aVhttp://dbpedia.org/property/birthPlace
p66
aVhttp://dbpedia.org/property/areaAffected
p67
aVhttp://dbpedia.org/property/recLocation
p68
aVhttp://dbpedia.org/property/country
p69
aVhttp://dbpedia.org/ontology/billed
p70
aVhttp://dbpedia.org/property/areaServed
p71
aVhttp://dbpedia.org/property/areasAffected
p72
aVhttp://dbpedia.org/ontology/wikiPageExternalLink
p73
aVhttp://dbpedia.org/property/county
p74
aVhttp://dbpedia.org/property/runnersUp
p75
aVhttp://dbpedia.org/ontology/firstDriverCountry
p76
aVhttp://dbpedia.org/property/location
p77
aVhttp://dbpedia.org/property/states
p78
aVhttp://dbpedia.org/ontology/locationCountry
p79
aVhttp://dbpedia.org/ontology/deathPlace
p80
aVhttp://dbpedia.org/property/rd2t4Loc
p81
aVhttp://dbpedia.org/property/headquarters
p82
aVhttp://dbpedia.org/ontology/birthPlace
p83
aVhttp://dbpedia.org/ontology/wikiPageRedirects
p84
aVhttp://dbpedia.org/property/citizenship
p85
aVhttp://dbpedia.org/property/deathPlace
p86
aVhttp://dbpedia.org/ontology/stateOfOrigin
p87
aVhttp://www.w3.org/2002/07/owl#sameAs
p88
aVhttp://dbpedia.org/property/areas
p89
aVhttp://dbpedia.org/property/recorded
p90
aVhttp://dbpedia.org/property/resides
p91
aVhttp://dbpedia.org/ontology/origin
p92
aVhttp://dbpedia.org/property/worldPlace
p93
aVhttp://dbpedia.org/property/residence
p94
aVhttp://dbpedia.org/property/foundation
p95
aVhttp://www.w3.org/1999/02/22-rdf-syntax-ns#type
p96
aVhttp://dbpedia.org/property/locationCountry
p97
aVhttp://dbpedia.org/ontology/secondDriverCountry
p98
aVhttp://dbpedia.org/property/rd1t2Loc
p99
aVhttp://dbpedia.org/property/combatant
p100
aVhttp://dbpedia.org/property/withdraws
p101
aVhttp://dbpedia.org/property/winnerOrigin
p102
aVhttp://dbpedia.org/property/namedAfter
p103
aVhttp://dbpedia.org/property/shipCountry
p104
aVhttp://dbpedia.org/property/co
p105
aVhttp://dbpedia.org/property/l
p106
aVhttp://dbpedia.org/ontology/premierePlace
p107
aVhttp://dbpedia.org/ontology/countryOrigin
p108
aVhttp://dbpedia.org/property/femaleIndividualChampionTeam
p109
aVhttp://dbpedia.org/property/fightingOutOf
p110
aVhttp://dbpedia.org/property/executedBy
p111
aVhttp://dbpedia.org/property/target
p112
aVhttp://dbpedia.org/ontology/city
p113
aVhttp://dbpedia.org/property/fullname
p114
aVhttp://dbpedia.org/ontology/routeStart
p115
aVhttp://dbpedia.org/property/subdivisionName
p116
aVhttp://dbpedia.org/property/result
p117
aVhttp://dbpedia.org/ontology/homeport
p118
aVhttp://dbpedia.org/property/rd1t3Loc
p119
aVhttp://dbpedia.org/property/hostcity
p120
aVhttp://dbpedia.org/property/gdpNominalRank
p121
aVhttp://dbpedia.org/property/hqLocationCountry
p122
aVhttp://dbpedia.org/property/locationCity
p123
aVhttp://dbpedia.org/property/nat
p124
aVhttp://dbpedia.org/property/gdpPppRank
p125
aVhttp://dbpedia.org/property/operators
p126
aVhttp://dbpedia.org/property/stadium
p127
aVhttp://dbpedia.org/ontology/countryWithFirstAstronaut
p128
aVhttp://dbpedia.org/property/satServ
p129
aVhttp://dbpedia.org/property/place
p130
aVhttp://dbpedia.org/property/debuts
p131
aVhttp://dbpedia.org/property/utcOffsetDst
p132
aVhttp://dbpedia.org/property/transCoverage
p133
aVhttp://dbpedia.org/property/caption
p134
aVhttp://dbpedia.org/ontology/thirdDriverCountry
p135
aVhttp://dbpedia.org/ontology/PopulatedPlace/populationDensity
p136
aVhttp://dbpedia.org/property/asianPlaceQ
p137
aVhttp://dbpedia.org/ontology/nearestCity
p138
aVhttp://dbpedia.org/property/locations
p139
aVhttp://dbpedia.org/property/site
p140
aVhttp://dbpedia.org/property/image
p141
aVhttp://dbpedia.org/ontology/place
p142
aVhttp://dbpedia.org/property/asianPlaceF
p143
aVhttp://dbpedia.org/property/rd1t4Loc
p144
aVhttp://dbpedia.org/property/nearestCity
p145
aVhttp://dbpedia.org/property/tv
p146
aVhttp://dbpedia.org/property/rd1t8Loc
p147
aVhttp://purl.org/dc/terms/subject
p148
aVhttp://dbpedia.org/property/rd2t2Loc
p149
aVhttp://dbpedia.org/ontology/countryWithFirstSatelliteLaunched
p150
aVhttp://dbpedia.org/property/region
p151
aVhttp://dbpedia.org/property/cityServed
p152
aVhttp://dbpedia.org/property/rd3t2Loc
p153
aVhttp://dbpedia.org/ontology/headquarter
p154
aVhttp://dbpedia.org/property/stopover
p155
aVhttp://dbpedia.org/property/rd1t6Loc
p156
aVhttp://dbpedia.org/property/worldPlaceF
p157
aVhttp://dbpedia.org/ontology/language
p158
aVhttp://dbpedia.org/ontology/broadcastArea
p159
aVhttp://dbpedia.org/property/locale
p160
aVhttp://dbpedia.org/property/basinCountries
p161
aVhttp://dbpedia.org/property/asianPlace
p162
aVhttp://dbpedia.org/ontology/assembly
p163
aVhttp://dbpedia.org/property/rd2t1Loc
p164
aVhttp://www.w3.org/2000/01/rdf-schema#comment
p165
aVhttp://dbpedia.org/property/data
p166
aVhttp://dbpedia.org/ontology/releaseLocation
p167
aVhttp://dbpedia.org/property/olympicPlace
p168
aVhttp://dbpedia.org/property/rd1t1Loc
p169
aVhttp://dbpedia.org/property/rd3t1Loc
p170
aVhttp://dbpedia.org/property/south
p171
aVhttp://dbpedia.org/property/shipHomeport
p172
aVhttp://dbpedia.org/property/date
p173
aVhttp://dbpedia.org/property/setting
p174
aVhttp://dbpedia.org/ontology/locationCity
p175
asI2
(lp176
sI3
(lp177
ssI1
(dp178
I0
g5
sI1
(lp179
sI2
(lp180
sI3
(lp181
ssI2
(dp182
I0
g176
sI1
g180
sI2
(lp183
sI3
(lp184
ssI3
(dp185
I0
g177
sI1
g181
sI2
g184
sI3
(lp186
ssa(dp187
I0
(dp188
I0
(lp189
sI1
(lp190
Vhttp://dbpedia.org/ontology/wikiPageExternalLink
p191
aVhttp://dbpedia.org/property/broadcastArea
p192
aVhttp://dbpedia.org/property/caption
p193
aVhttp://www.w3.org/ns/prov#wasDerivedFrom
p194
aVhttp://dbpedia.org/property/width
p195
aVhttp://dbpedia.org/property/footer
p196
aVhttp://dbpedia.org/ontology/country
p197
aVhttp://www.w3.org/1999/02/22-rdf-syntax-ns#type
p198
aVhttp://dbpedia.org/property/image
p199
aVhttp://dbpedia.org/property/country
p200
aVhttp://dbpedia.org/ontology/regionServed
p201
aVhttp://dbpedia.org/property/areaServed
p202
aVhttp://dbpedia.org/property/color
p203
aVhttp://purl.org/dc/terms/subject
p204
aVhttp://dbpedia.org/ontology/publisher
p205
aVhttp://dbpedia.org/property/gdpNominalPerCapita
p206
aVhttp://dbpedia.org/ontology/abstract
p207
aVhttp://dbpedia.org/property/gdpPpp
p208
aVhttp://www.w3.org/2000/01/rdf-schema#comment
p209
aVhttp://dbpedia.org/ontology/wikiPageRedirects
p210
aVhttp://purl.org/voc/vrank#hasRank
p211
aVhttp://dbpedia.org/property/altFlag
p212
aVhttp://www.w3.org/2002/07/owl#sameAs
p213
asI2
(lp214
Vhttp://purl.org/voc/vrank#hasRank
p215
aVhttp://dbpedia.org/ontology/abstract
p216
aVhttp://purl.org/dc/terms/subject
p217
aVhttp://www.w3.org/2002/07/owl#sameAs
p218
aVhttp://www.w3.org/2000/01/rdf-schema#comment
p219
asI3
(lp220
ssI1
(dp221
I0
g190
sI1
(lp222
sI2
(lp223
Vhttp://www.w3.org/2000/01/rdf-schema#seeAlso
p224
aVhttp://dbpedia.org/property/currency
p225
aVhttp://dbpedia.org/property/mapCaption
p226
aVhttp://dbpedia.org/property/name
p227
aVhttp://dbpedia.org/ontology/jurisdiction
p228
aVhttp://dbpedia.org/property/sovereigntyType
p229
aVhttp://www.w3.org/ns/prov#wasDerivedFrom
p230
aVhttp://dbpedia.org/property/caption
p231
aVhttp://dbpedia.org/property/territory
p232
aVhttp://www.w3.org/2002/07/owl#differentFrom
p233
aVhttp://dbpedia.org/property/demonym
p234
aVhttp://dbpedia.org/ontology/regionServed
p235
aVhttp://dbpedia.org/ontology/country
p236
aVhttp://dbpedia.org/property/region
p237
aVhttp://www.w3.org/1999/02/22-rdf-syntax-ns#type
p238
aVhttp://dbpedia.org/property/copyright
p239
aVhttp://dbpedia.org/property/timeZone
p240
aVhttp://dbpedia.org/property/image
p241
aVhttp://xmlns.com/foaf/0.1/isPrimaryTopicOf
p242
aVhttp://dbpedia.org/property/owner
p243
aVhttp://dbpedia.org/property/country
p244
aVhttp://dbpedia.org/property/linkingName
p245
aVhttp://dbpedia.org/property/footer
p246
aVhttp://dbpedia.org/ontology/wikiPageDisambiguates
p247
aVhttp://dbpedia.org/property/areaServed
p248
aVhttp://dbpedia.org/ontology/wikiPageExternalLink
p249
aVhttp://xmlns.com/foaf/0.1/primaryTopic
p250
aVhttp://purl.org/dc/terms/subject
p251
aVhttp://dbpedia.org/property/officialWebsite
p252
aVhttp://dbpedia.org/property/free
p253
aVhttp://dbpedia.org/ontology/abstract
p254
aVhttp://xmlns.com/foaf/0.1/depiction
p255
aVhttp://dbpedia.org/property/location
p256
aVhttp://dbpedia.org/property/id
p257
aVhttp://dbpedia.org/ontology/thumbnail
p258
aVhttp://dbpedia.org/property/author
p259
aVhttp://dbpedia.org/property/edition
p260
aVhttp://dbpedia.org/property/hasPhotoCollection
p261
aVhttp://www.w3.org/2000/01/rdf-schema#label
p262
aVhttp://dbpedia.org/property/title
p263
aVhttp://dbpedia.org/property/imageMap
p264
aVhttp://www.w3.org/2000/01/rdf-schema#comment
p265
aVhttp://dbpedia.org/property/leaderTitle
p266
aVhttp://dbpedia.org/ontology/nonFictionSubject
p267
aVhttp://dbpedia.org/ontology/wikiPageRedirects
p268
aVhttp://dbpedia.org/property/founder
p269
aVhttp://dbpedia.org/property/parentOrganization
p270
aVhttp://dbpedia.org/ontology/owner
p271
aVhttp://dbpedia.org/property/timeZoneDst
p272
aVhttp://dbpedia.org/property/imageFlag
p273
aVhttp://dbpedia.org/property/regionServed
p274
aVhttp://dbpedia.org/property/jurisdiction
p275
aVhttp://dbpedia.org/property/data
p276
aVhttp://www.w3.org/2002/07/owl#sameAs
p277
aVhttp://dbpedia.org/property/observedby
p278
asI3
(lp279
Vhttp://www.w3.org/2000/01/rdf-schema#seeAlso
p280
aVhttp://dbpedia.org/property/currency
p281
aVhttp://dbpedia.org/property/mapCaption
p282
aVhttp://dbpedia.org/property/name
p283
aVhttp://dbpedia.org/ontology/jurisdiction
p284
aVhttp://dbpedia.org/property/sovereigntyType
p285
aVhttp://www.w3.org/ns/prov#wasDerivedFrom
p286
aVhttp://dbpedia.org/property/caption
p287
aVhttp://dbpedia.org/property/territory
p288
aVhttp://www.w3.org/2002/07/owl#differentFrom
p289
aVhttp://dbpedia.org/property/demonym
p290
aVhttp://dbpedia.org/ontology/regionServed
p291
aVhttp://dbpedia.org/ontology/country
p292
aVhttp://dbpedia.org/property/region
p293
aVhttp://www.w3.org/1999/02/22-rdf-syntax-ns#type
p294
aVhttp://dbpedia.org/property/copyright
p295
aVhttp://dbpedia.org/property/timeZone
p296
aVhttp://dbpedia.org/property/image
p297
aVhttp://xmlns.com/foaf/0.1/isPrimaryTopicOf
p298
aVhttp://dbpedia.org/property/owner
p299
aVhttp://dbpedia.org/property/country
p300
aVhttp://dbpedia.org/property/linkingName
p301
aVhttp://dbpedia.org/property/footer
p302
aVhttp://dbpedia.org/ontology/wikiPageDisambiguates
p303
aVhttp://dbpedia.org/property/areaServed
p304
aVhttp://dbpedia.org/ontology/wikiPageExternalLink
p305
aVhttp://xmlns.com/foaf/0.1/primaryTopic
p306
aVhttp://purl.org/dc/terms/subject
p307
aVhttp://dbpedia.org/property/officialWebsite
p308
aVhttp://dbpedia.org/property/free
p309
aVhttp://dbpedia.org/ontology/abstract
p310
aVhttp://xmlns.com/foaf/0.1/depiction
p311
aVhttp://dbpedia.org/property/location
p312
aVhttp://dbpedia.org/property/id
p313
aVhttp://dbpedia.org/ontology/thumbnail
p314
aVhttp://dbpedia.org/property/author
p315
aVhttp://dbpedia.org/property/edition
p316
aVhttp://dbpedia.org/property/hasPhotoCollection
p317
aVhttp://www.w3.org/2000/01/rdf-schema#label
p318
aVhttp://dbpedia.org/property/title
p319
aVhttp://dbpedia.org/property/imageMap
p320
aVhttp://dbpedia.org/ontology/location
p321
aVhttp://www.w3.org/2000/01/rdf-schema#comment
p322
aVhttp://dbpedia.org/property/leaderTitle
p323
aVhttp://dbpedia.org/ontology/nonFictionSubject
p324
aVhttp://dbpedia.org/ontology/wikiPageRedirects
p325
aVhttp://dbpedia.org/property/founder
p326
aVhttp://dbpedia.org/property/parentOrganization
p327
aVhttp://dbpedia.org/ontology/owner
p328
aVhttp://dbpedia.org/property/timeZoneDst
p329
aVhttp://dbpedia.org/property/imageFlag
p330
aVhttp://dbpedia.org/property/regionServed
p331
aVhttp://dbpedia.org/property/jurisdiction
p332
aVhttp://dbpedia.org/property/data
p333
aVhttp://www.w3.org/2002/07/owl#sameAs
p334
aVhttp://dbpedia.org/property/observedby
p335
assI2
(dp336
I0
g214
sI1
g223
sI2
(lp337
sI3
(lp338
Vhttp://xmlns.com/foaf/0.1/primaryTopic
p339
aVhttp://www.w3.org/2000/01/rdf-schema#comment
p340
aVhttp://www.w3.org/2000/01/rdf-schema#label
p341
aVhttp://dbpedia.org/ontology/abstract
p342
aVhttp://dbpedia.org/ontology/wikiPageRedirects
p343
aVhttp://xmlns.com/foaf/0.1/isPrimaryTopicOf
p344
aVhttp://www.w3.org/ns/prov#wasDerivedFrom
p345
aVhttp://dbpedia.org/property/hasPhotoCollection
p346
aVhttp://dbpedia.org/ontology/wikiPageDisambiguates
p347
assI3
(dp348
I0
g220
sI1
g279
sI2
g338
sI3
(lp349
ssa(dp350
I0
(dp351
I0
(lp352
sI1
(lp353
Vhttp://dbpedia.org/property/origin
p354
aVhttp://dbpedia.org/property/placeOfDeath
p355
aVhttp://dbpedia.org/property/twin1Country
p356
aVhttp://dbpedia.org/property/recorded
p357
aVhttp://dbpedia.org/property/producer
p358
aVhttp://dbpedia.org/property/hostCity
p359
aVhttp://dbpedia.org/ontology/origin
p360
aVhttp://dbpedia.org/property/assembly
p361
aVhttp://dbpedia.org/property/place
p362
aVhttp://dbpedia.org/ontology/foundationPlace
p363
aVhttp://dbpedia.org/ontology/PopulatedPlace/areaTotal
p364
aVhttp://dbpedia.org/ontology/garrison
p365
aVhttp://dbpedia.org/ontology/locationCity
p366
aVhttp://dbpedia.org/ontology/locatedInArea
p367
aVhttp://dbpedia.org/ontology/assembly
p368
aVhttp://dbpedia.org/ontology/PopulatedPlace/populationDensity
p369
aVhttp://dbpedia.org/ontology/format
p370
aVhttp://dbpedia.org/ontology/country
p371
aVhttp://dbpedia.org/property/region
p372
aVhttp://www.w3.org/1999/02/22-rdf-syntax-ns#type
p373
aVhttp://dbpedia.org/ontology/hometown
p374
aVhttp://dbpedia.org/property/hasPhotoCollection
p375
aVhttp://dbpedia.org/property/locationCountry
p376
aVhttp://dbpedia.org/property/madein
p377
aVhttp://dbpedia.org/property/site
p378
aVhttp://dbpedia.org/property/withdraws
p379
aVhttp://dbpedia.org/property/gamesPlaceQ
p380
aVhttp://dbpedia.org/property/birthPlace
p381
aVhttp://dbpedia.org/property/gamesPlace
p382
aVhttp://dbpedia.org/property/placeOfBirth
p383
aVhttp://dbpedia.org/property/title
p384
aVhttp://dbpedia.org/property/garrison
p385
aVhttp://dbpedia.org/property/country
p386
aVhttp://dbpedia.org/property/rd1t4Loc
p387
aVhttp://dbpedia.org/ontology/locationCountry
p388
aVhttp://dbpedia.org/ontology/sales
p389
aVhttp://dbpedia.org/property/areasAffected
p390
aVhttp://dbpedia.org/ontology/releaseLocation
p391
aVhttp://dbpedia.org/property/regionalScenes
p392
aVhttp://dbpedia.org/property/asianPlaceQ
p393
aVhttp://dbpedia.org/property/rd2t2Loc
p394
aVhttp://dbpedia.org/property/gdpNominalPerCapita
p395
aVhttp://dbpedia.org/ontology/abstract
p396
aVhttp://dbpedia.org/ontology/recordedIn
p397
aVhttp://dbpedia.org/property/venue
p398
aVhttp://dbpedia.org/property/returns
p399
aVhttp://dbpedia.org/property/deathPlace
p400
aVhttp://dbpedia.org/property/worldPlaceQ
p401
aVhttp://dbpedia.org/property/gdpPppPerCapita
p402
aVhttp://dbpedia.org/ontology/builder
p403
aVhttp://www.georss.org/georss/point
p404
aVhttp://dbpedia.org/ontology/deathPlace
p405
aVhttp://dbpedia.org/ontology/thumbnail
p406
aVhttp://dbpedia.org/ontology/city
p407
aVhttp://dbpedia.org/property/usedBy
p408
aVhttp://dbpedia.org/property/worldPlace
p409
aVhttp://dbpedia.org/property/nationalOrigin
p410
aVhttp://dbpedia.org/property/gamesPlaceF
p411
aVhttp://dbpedia.org/ontology/homeport
p412
aVhttp://dbpedia.org/property/cityServed
p413
aVhttp://dbpedia.org/property/countriesAffected
p414
aVhttp://dbpedia.org/property/shipCountry
p415
aVhttp://dbpedia.org/property/shipBuilder
p416
aVhttp://dbpedia.org/property/rd2t1Loc
p417
aVhttp://dbpedia.org/property/worldPlaceF
p418
aVhttp://dbpedia.org/property/city
p419
aVhttp://dbpedia.org/ontology/birthPlace
p420
aVhttp://dbpedia.org/property/location
p421
aVhttp://www.w3.org/2000/01/rdf-schema#comment
p422
aVhttp://dbpedia.org/property/1rpt1Loc
p423
aVhttp://dbpedia.org/ontology/wikiPageRedirects
p424
aVhttp://dbpedia.org/property/olympicPlace
p425
aVhttp://dbpedia.org/property/rd1t1Loc
p426
aVhttp://purl.org/voc/vrank#hasRank
p427
aVhttp://dbpedia.org/property/gdpNominalRank
p428
aVhttp://dbpedia.org/property/locationCity
p429
aVhttp://www.w3.org/2002/07/owl#sameAs
p430
aVhttp://dbpedia.org/property/host
p431
aVhttp://dbpedia.org/property/asianPlace
p432
aVhttp://dbpedia.org/property/states
p433
aVhttp://dbpedia.org/ontology/location
p434
aVhttp://dbpedia.org/property/stadium
p435
aVhttp://dbpedia.org/property/areas
p436
asI2
(lp437
sI3
(lp438
ssI1
(dp439
I0
g353
sI1
(lp440
sI2
(lp441
sI3
(lp442
Vhttp://dbpedia.org/property/placeOfDeath
p443
aVhttp://dbpedia.org/property/currency
p444
aVhttp://dbpedia.org/ontology/currency
p445
aVhttp://dbpedia.org/ontology/birthPlace
p446
aVhttp://dbpedia.org/property/deathPlace
p447
aVhttp://dbpedia.org/ontology/usingCountry
p448
aVhttp://dbpedia.org/property/location
p449
aVhttp://dbpedia.org/ontology/nationality
p450
aVhttp://dbpedia.org/property/birthPlace
p451
aVhttp://dbpedia.org/ontology/deathPlace
p452
aVhttp://dbpedia.org/property/nationality
p453
aVhttp://dbpedia.org/property/country
p454
aVhttp://dbpedia.org/property/placeOfBirth
p455
assI2
(dp456
I0
g437
sI1
g441
sI2
(lp457
sI3
(lp458
ssI3
(dp459
I0
g438
sI1
g442
sI2
g458
sI3
(lp460
ssa(dp461
I0
(dp462
I0
(lp463
sI1
(lp464
Vhttp://www.w3.org/2000/01/rdf-schema#seeAlso
p465
aVhttp://dbpedia.org/property/origin
p466
aVhttp://dbpedia.org/ontology/secondDriverCountry
p467
aVhttp://dbpedia.org/property/hostCity
p468
aVhttp://dbpedia.org/ontology/origin
p469
aVhttp://dbpedia.org/property/place
p470
aVhttp://dbpedia.org/property/allegiance
p471
aVhttp://dbpedia.org/property/territorialExtent
p472
aVhttp://dbpedia.org/ontology/PopulatedPlace/areaTotal
p473
aVhttp://dbpedia.org/ontology/garrison
p474
aVhttp://purl.org/voc/vrank#hasRank
p475
aVhttp://dbpedia.org/property/placeOfDeath
p476
aVhttp://www.w3.org/ns/prov#wasDerivedFrom
p477
aVhttp://dbpedia.org/ontology/fastestDriverCountry
p478
aVhttp://dbpedia.org/ontology/thirdDriverCountry
p479
aVhttp://dbpedia.org/ontology/PopulatedPlace/populationDensity
p480
aVhttp://dbpedia.org/ontology/regionServed
p481
aVhttp://dbpedia.org/ontology/country
p482
aVhttp://www.w3.org/1999/02/22-rdf-syntax-ns#type
p483
aVhttp://dbpedia.org/property/shipBuilder
p484
aVhttp://www.w3.org/2002/07/owl#sameAs
p485
aVhttp://dbpedia.org/property/locationCountry
p486
aVhttp://dbpedia.org/property/restingplace
p487
aVhttp://dbpedia.org/property/assembly
p488
aVhttp://dbpedia.org/property/locations
p489
aVhttp://dbpedia.org/property/site
p490
aVhttp://dbpedia.org/property/countryOrigin
p491
aVhttp://dbpedia.org/ontology/nationality
p492
aVhttp://dbpedia.org/property/birthPlace
p493
aVhttp://dbpedia.org/ontology/language
p494
aVhttp://dbpedia.org/ontology/countryOrigin
p495
aVhttp://dbpedia.org/property/country
p496
aVhttp://dbpedia.org/property/byCountry
p497
aVhttp://dbpedia.org/property/shipCountry
p498
aVhttp://dbpedia.org/property/l
p499
aVhttp://dbpedia.org/property/areaServed
p500
aVhttp://dbpedia.org/property/gdpNominal
p501
aVhttp://dbpedia.org/ontology/firstDriverCountry
p502
aVhttp://dbpedia.org/ontology/citizenship
p503
aVhttp://www.w3.org/2000/01/rdf-schema#comment
p504
aVhttp://dbpedia.org/property/gdpNominalPerCapita
p505
aVhttp://dbpedia.org/ontology/abstract
p506
aVhttp://dbpedia.org/ontology/recordedIn
p507
aVhttp://dbpedia.org/property/venue
p508
aVhttp://dbpedia.org/property/deathPlace
p509
aVhttp://dbpedia.org/property/location
p510
aVhttp://dbpedia.org/property/fightingOutOf
p511
aVhttp://dbpedia.org/property/gdpPppPerCapita
p512
aVhttp://dbpedia.org/ontology/locationCountry
p513
aVhttp://dbpedia.org/ontology/deathPlace
p514
aVhttp://dbpedia.org/property/nationality
p515
aVhttp://dbpedia.org/property/gdpPpp
p516
aVhttp://dbpedia.org/ontology/assembly
p517
aVhttp://dbpedia.org/property/builder
p518
aVhttp://dbpedia.org/property/worldPlace
p519
aVhttp://dbpedia.org/property/nationalOrigin
p520
aVhttp://dbpedia.org/property/shipRegistry
p521
aVhttp://dbpedia.org/property/locationSigned
p522
aVhttp://dbpedia.org/property/garrison
p523
aVhttp://dbpedia.org/property/moreUsers
p524
aVhttp://dbpedia.org/property/headquarters
p525
aVhttp://dbpedia.org/ontology/residence
p526
aVhttp://dbpedia.org/property/residence
p527
aVhttp://dbpedia.org/ontology/birthPlace
p528
aVhttp://dbpedia.org/property/countriesAffected
p529
aVhttp://dbpedia.org/ontology/builder
p530
aVhttp://dbpedia.org/property/placeOfBirth
p531
aVhttp://dbpedia.org/property/countries
p532
aVhttp://dbpedia.org/ontology/hometown
p533
aVhttp://dbpedia.org/ontology/restingPlace
p534
aVhttp://dbpedia.org/property/citizenship
p535
aVhttp://dbpedia.org/ontology/broadcastArea
p536
aVhttp://dbpedia.org/property/area
p537
aVhttp://dbpedia.org/property/asianPlace
p538
aVhttp://dbpedia.org/ontology/stateOfOrigin
p539
aVhttp://dbpedia.org/property/stadium
p540
aVhttp://dbpedia.org/ontology/location
p541
asI2
(lp542
sI3
(lp543
ssI1
(dp544
I0
g464
sI1
(lp545
sI2
(lp546
sI3
(lp547
Vhttp://dbpedia.org/property/currencyCode
p548
assI2
(dp549
I0
g542
sI1
g546
sI2
(lp550
sI3
(lp551
ssI3
(dp552
I0
g543
sI1
g547
sI2
g551
sI3
(lp553
ssa(dp554
I0
(dp555
I0
(lp556
sI1
(lp557
Vhttp://www.w3.org/2000/01/rdf-schema#seeAlso
p558
aVhttp://dbpedia.org/property/origin
p559
aVhttp://dbpedia.org/property/awardedBy
p560
aVhttp://dbpedia.org/property/hasPhotoCollection
p561
aVhttp://dbpedia.org/property/place
p562
aVhttp://dbpedia.org/property/worldPlace
p563
aVhttp://dbpedia.org/property/city
p564
aVhttp://dbpedia.org/property/birthplace
p565
aVhttp://dbpedia.org/property/populationEstimateRank
p566
aVhttp://dbpedia.org/property/utcOffsetDst
p567
aVhttp://dbpedia.org/property/placeOfDeath
p568
aVhttp://www.w3.org/ns/prov#wasDerivedFrom
p569
aVhttp://dbpedia.org/ontology/fastestDriverCountry
p570
aVhttp://dbpedia.org/property/rd2t3Loc
p571
aVhttp://dbpedia.org/property/utcOffset
p572
aVhttp://dbpedia.org/property/team
p573
aVhttp://dbpedia.org/ontology/country
p574
aVhttp://dbpedia.org/property/region
p575
aVhttp://dbpedia.org/ontology/countryWithFirstSpaceflight
p576
aVhttp://dbpedia.org/ontology/hometown
p577
aVhttp://dbpedia.org/property/home
p578
aVhttp://dbpedia.org/ontology/secondDriverCountry
p579
aVhttp://dbpedia.org/property/assembly
p580
aVhttp://dbpedia.org/property/rd1t2Loc
p581
aVhttp://dbpedia.org/property/withdraws
p582
aVhttp://dbpedia.org/property/birthPlace
p583
aVhttp://dbpedia.org/property/placeOfBirth
p584
aVhttp://dbpedia.org/property/asianPlaceF
p585
aVhttp://dbpedia.org/property/garrison
p586
aVhttp://dbpedia.org/property/country
p587
aVhttp://dbpedia.org/property/shipCountry
p588
aVhttp://dbpedia.org/property/l
p589
aVhttp://dbpedia.org/property/siteCityst
p590
aVhttp://dbpedia.org/property/rd2t2Loc
p591
aVhttp://dbpedia.org/property/venue
p592
aVhttp://dbpedia.org/ontology/abstract
p593
aVhttp://dbpedia.org/property/gamesPlace
p594
aVhttp://dbpedia.org/property/returns
p595
aVhttp://dbpedia.org/property/deathPlace
p596
aVhttp://www.w3.org/1999/02/22-rdf-syntax-ns#type
p597
aVhttp://dbpedia.org/ontology/deathPlace
p598
aVhttp://dbpedia.org/property/hometown
p599
aVhttp://dbpedia.org/ontology/city
p600
aVhttp://dbpedia.org/property/usedBy
p601
aVhttp://dbpedia.org/property/debuts
p602
aVhttp://dbpedia.org/property/youthclubs
p603
aVhttp://dbpedia.org/ontology/broadcastArea
p604
aVhttp://dbpedia.org/property/locale
p605
aVhttp://dbpedia.org/property/rd1t3Loc
p606
aVhttp://www.georss.org/georss/point
p607
aVhttp://dbpedia.org/ontology/assembly
p608
aVhttp://dbpedia.org/property/rd2t1Loc
p609
aVhttp://www.w3.org/2000/01/rdf-schema#comment
p610
aVhttp://dbpedia.org/property/location
p611
aVhttp://dbpedia.org/property/countriesAffected
p612
aVhttp://dbpedia.org/property/nationalOrigin
p613
aVhttp://dbpedia.org/property/olympicPlace
p614
aVhttp://dbpedia.org/property/area
p615
aVhttp://dbpedia.org/property/rd1t1Loc
p616
aVhttp://purl.org/voc/vrank#hasRank
p617
aVhttp://dbpedia.org/ontology/garrison
p618
aVhttp://dbpedia.org/ontology/poleDriverCountry
p619
aVhttp://www.w3.org/2002/07/owl#sameAs
p620
aVhttp://dbpedia.org/property/asianPlace
p621
aVhttp://dbpedia.org/ontology/birthPlace
p622
aVhttp://dbpedia.org/property/stadium
p623
aVhttp://dbpedia.org/ontology/location
p624
asI2
(lp625
sI3
(lp626
ssI1
(dp627
I0
g557
sI1
(lp628
sI2
(lp629
sI3
(lp630
ssI2
(dp631
I0
g625
sI1
g629
sI2
(lp632
sI3
(lp633
ssI3
(dp634
I0
g626
sI1
g630
sI2
g633
sI3
(lp635
ssa(dp636
I0
(dp637
I0
(lp638
sI1
(lp639
Vhttp://dbpedia.org/property/origin
p640
aVhttp://dbpedia.org/property/placeOfDeath
p641
aVhttp://dbpedia.org/ontology/origin
p642
aVhttp://dbpedia.org/property/worldPlace
p643
aVhttp://www.w3.org/ns/prov#wasDerivedFrom
p644
aVhttp://dbpedia.org/property/width
p645
aVhttp://dbpedia.org/property/rd2t3Loc
p646
aVhttp://dbpedia.org/ontology/PopulatedPlace/populationDensity
p647
aVhttp://dbpedia.org/property/address
p648
aVhttp://dbpedia.org/property/rd1t4Loc
p649
aVhttp://dbpedia.org/ontology/country
p650
aVhttp://dbpedia.org/property/returns
p651
aVhttp://www.w3.org/1999/02/22-rdf-syntax-ns#type
p652
aVhttp://dbpedia.org/property/locationCountry
p653
aVhttp://dbpedia.org/property/rd1t2Loc
p654
aVhttp://dbpedia.org/property/countryOfProduction
p655
aVhttp://dbpedia.org/property/withdraws
p656
aVhttp://dbpedia.org/property/birthPlace
p657
aVhttp://dbpedia.org/ontology/place
p658
aVhttp://dbpedia.org/property/placeOfBirth
p659
aVhttp://dbpedia.org/property/country
p660
aVhttp://dbpedia.org/property/gdpNominal
p661
aVhttp://dbpedia.org/ontology/wikiPageExternalLink
p662
aVhttp://www.w3.org/2000/01/rdf-schema#comment
p663
aVhttp://dbpedia.org/property/nationality
p664
aVhttp://dbpedia.org/ontology/abstract
p665
aVhttp://dbpedia.org/ontology/recordedIn
p666
aVhttp://dbpedia.org/property/venue
p667
aVhttp://dbpedia.org/property/deathPlace
p668
aVhttp://dbpedia.org/property/location
p669
aVhttp://dbpedia.org/ontology/deathPlace
p670
aVhttp://dbpedia.org/property/usedBy
p671
aVhttp://dbpedia.org/property/debuts
p672
aVhttp://dbpedia.org/property/subdivisionName
p673
aVhttp://dbpedia.org/property/locale
p674
aVhttp://dbpedia.org/property/rd1t3Loc
p675
aVhttp://www.georss.org/georss/point
p676
aVhttp://dbpedia.org/ontology/location
p677
aVhttp://dbpedia.org/property/countries
p678
aVhttp://dbpedia.org/ontology/birthPlace
p679
aVhttp://dbpedia.org/property/countriesAffected
p680
aVhttp://dbpedia.org/ontology/wikiPageRedirects
p681
aVhttp://purl.org/voc/vrank#hasRank
p682
aVhttp://dbpedia.org/property/twin2Country
p683
aVhttp://www.w3.org/2002/07/owl#sameAs
p684
aVhttp://dbpedia.org/property/host
p685
aVhttp://dbpedia.org/property/asianPlace
p686
aVhttp://dbpedia.org/property/stadium
p687
asI2
(lp688
sI3
(lp689
ssI1
(dp690
I0
g639
sI1
(lp691
sI2
(lp692
sI3
(lp693
ssI2
(dp694
I0
g688
sI1
g692
sI2
(lp695
sI3
(lp696
ssI3
(dp697
I0
g689
sI1
g693
sI2
g696
sI3
(lp698
ssa(dp699
I0
(dp700
I0
(lp701
sI1
(lp702
Vhttp://www.w3.org/2000/01/rdf-schema#seeAlso
p703
aVhttp://dbpedia.org/property/origin
p704
aVhttp://dbpedia.org/property/hostCity
p705
aVhttp://dbpedia.org/ontology/origin
p706
aVhttp://dbpedia.org/property/countriesAffected
p707
aVhttp://dbpedia.org/property/place
p708
aVhttp://dbpedia.org/property/locations
p709
aVhttp://dbpedia.org/property/city
p710
aVhttp://dbpedia.org/property/utcOffsetDst
p711
aVhttp://dbpedia.org/property/mouthCountry
p712
aVhttp://dbpedia.org/property/placeOfDeath
p713
aVhttp://www.w3.org/ns/prov#wasDerivedFrom
p714
aVhttp://dbpedia.org/ontology/PopulatedPlace/populationDensity
p715
aVhttp://dbpedia.org/ontology/country
p716
aVhttp://dbpedia.org/property/returns
p717
aVhttp://www.w3.org/1999/02/22-rdf-syntax-ns#type
p718
aVhttp://www.w3.org/2002/07/owl#sameAs
p719
aVhttp://dbpedia.org/property/locationCountry
p720
aVhttp://dbpedia.org/property/assembly
p721
aVhttp://dbpedia.org/property/nearestTown
p722
aVhttp://dbpedia.org/property/builder
p723
aVhttp://dbpedia.org/ontology/nationality
p724
aVhttp://dbpedia.org/property/birthPlace
p725
aVhttp://dbpedia.org/ontology/place
p726
aVhttp://dbpedia.org/property/placeOfBirth
p727
aVhttp://dbpedia.org/property/gdpNominalPerCapita
p728
aVhttp://dbpedia.org/property/debuts
p729
aVhttp://dbpedia.org/property/country
p730
aVhttp://dbpedia.org/property/shipCountry
p731
aVhttp://dbpedia.org/property/meetingPlace
p732
aVhttp://dbpedia.org/property/regionalLanguages
p733
aVhttp://dbpedia.org/property/worldPlace
p734
aVhttp://dbpedia.org/property/siteCityst
p735
aVhttp://purl.org/dc/terms/subject
p736
aVhttp://dbpedia.org/property/nationality
p737
aVhttp://dbpedia.org/ontology/abstract
p738
aVhttp://dbpedia.org/property/venue
p739
aVhttp://dbpedia.org/property/deathPlace
p740
aVhttp://dbpedia.org/property/location
p741
aVhttp://dbpedia.org/property/states
p742
aVhttp://dbpedia.org/ontology/locationCountry
p743
aVhttp://dbpedia.org/ontology/sportCountry
p744
aVhttp://dbpedia.org/ontology/deathPlace
p745
aVhttp://dbpedia.org/property/sourceCountry
p746
aVhttp://dbpedia.org/property/gdpPpp
p747
aVhttp://dbpedia.org/property/foundation
p748
aVhttp://dbpedia.org/property/usedBy
p749
aVhttp://dbpedia.org/ontology/foundationPlace
p750
aVhttp://dbpedia.org/property/subdivisionName
p751
aVhttp://dbpedia.org/property/nationalOrigin
p752
aVhttp://dbpedia.org/property/shipRegistry
p753
aVhttp://dbpedia.org/property/basinCountries
p754
aVhttp://dbpedia.org/property/rd1t3Loc
p755
aVhttp://www.georss.org/georss/point
p756
aVhttp://dbpedia.org/ontology/assembly
p757
aVhttp://dbpedia.org/property/rd2t1Loc
p758
aVhttp://dbpedia.org/ontology/PopulatedPlace/areaTotal
p759
aVhttp://dbpedia.org/ontology/birthPlace
p760
aVhttp://www.w3.org/2000/01/rdf-schema#comment
p761
aVhttp://dbpedia.org/ontology/wikiPageRedirects
p762
aVhttp://dbpedia.org/ontology/hometown
p763
aVhttp://dbpedia.org/property/officelocation
p764
aVhttp://dbpedia.org/property/rd1t2Loc
p765
aVhttp://dbpedia.org/ontology/builder
p766
aVhttp://dbpedia.org/property/areas
p767
aVhttp://dbpedia.org/property/residence
p768
aVhttp://dbpedia.org/property/stadium
p769
aVhttp://dbpedia.org/ontology/location
p770
asI2
(lp771
sI3
(lp772
ssI1
(dp773
I0
g702
sI1
(lp774
sI2
(lp775
sI3
(lp776
ssI2
(dp777
I0
g771
sI1
g775
sI2
(lp778
sI3
(lp779
ssI3
(dp780
I0
g772
sI1
g776
sI2
g779
sI3
(lp781
ssa(dp782
I0
(dp783
I0
(lp784
sI1
(lp785
Vhttp://dbpedia.org/property/cities
p786
aVhttp://dbpedia.org/property/broadcastArea
p787
aVhttp://dbpedia.org/property/place
p788
aVhttp://dbpedia.org/ontology/foundationPlace
p789
aVhttp://dbpedia.org/property/city
p790
aVhttp://dbpedia.org/property/utcOffsetDst
p791
aVhttp://www.w3.org/ns/prov#wasDerivedFrom
p792
aVhttp://dbpedia.org/property/utcOffset
p793
aVhttp://dbpedia.org/property/address
p794
aVhttp://dbpedia.org/property/team
p795
aVhttp://dbpedia.org/ontology/country
p796
aVhttp://dbpedia.org/property/returns
p797
aVhttp://www.w3.org/1999/02/22-rdf-syntax-ns#type
p798
aVhttp://dbpedia.org/property/firstRun
p799
aVhttp://dbpedia.org/property/available
p800
aVhttp://dbpedia.org/property/c
p801
aVhttp://dbpedia.org/ontology/place
p802
aVhttp://dbpedia.org/property/country
p803
aVhttp://dbpedia.org/ontology/regionServed
p804
aVhttp://dbpedia.org/property/areaServed
p805
aVhttp://dbpedia.org/ontology/wikiPageExternalLink
p806
aVhttp://dbpedia.org/ontology/homeport
p807
aVhttp://dbpedia.org/property/rd0t1Loc
p808
aVhttp://purl.org/dc/terms/subject
p809
aVhttp://dbpedia.org/ontology/abstract
p810
aVhttp://dbpedia.org/property/venue
p811
aVhttp://dbpedia.org/property/location
p812
aVhttp://dbpedia.org/ontology/builder
p813
aVhttp://dbpedia.org/property/shipNamesake
p814
aVhttp://dbpedia.org/ontology/location
p815
aVhttp://dbpedia.org/property/shipRoute
p816
aVhttp://www.georss.org/georss/point
p817
aVhttp://dbpedia.org/property/shipBuilder
p818
aVhttp://dbpedia.org/property/headquarters
p819
aVhttp://dbpedia.org/property/residence
p820
aVhttp://www.w3.org/2000/01/rdf-schema#comment
p821
aVhttp://dbpedia.org/ontology/wikiPageRedirects
p822
aVhttp://dbpedia.org/property/withdraws
p823
aVhttp://purl.org/voc/vrank#hasRank
p824
aVhttp://dbpedia.org/property/locationCity
p825
aVhttp://www.w3.org/2002/07/owl#sameAs
p826
aVhttp://dbpedia.org/property/debuts
p827
aVhttp://dbpedia.org/property/asianPlace
p828
aVhttp://dbpedia.org/ontology/locationCity
p829
aVhttp://dbpedia.org/property/stadium
p830
aVhttp://dbpedia.org/property/areas
p831
asI2
(lp832
sI3
(lp833
ssI1
(dp834
I0
g785
sI1
(lp835
sI2
(lp836
Vhttp://dbpedia.org/ontology/abstract
p837
asI3
(lp838
ssI2
(dp839
I0
g832
sI1
g836
sI2
(lp840
sI3
(lp841
ssI3
(dp842
I0
g833
sI1
g838
sI2
g841
sI3
(lp843
ssa(dp844
I0
(dp845
I0
(lp846
sI1
(lp847
Vhttp://dbpedia.org/property/origin
p848
aVhttp://dbpedia.org/property/placeOfDeath
p849
aVhttp://dbpedia.org/property/broadcastArea
p850
aVhttp://dbpedia.org/property/city
p851
aVhttp://www.w3.org/ns/prov#wasDerivedFrom
p852
aVhttp://dbpedia.org/property/rd3t4Loc
p853
aVhttp://dbpedia.org/property/assembly
p854
aVhttp://dbpedia.org/ontology/nationality
p855
aVhttp://dbpedia.org/property/shortDescription
p856
aVhttp://dbpedia.org/property/placeOfBirth
p857
aVhttp://dbpedia.org/property/hometown
p858
aVhttp://dbpedia.org/property/nationality
p859
aVhttp://dbpedia.org/ontology/abstract
p860
aVhttp://dbpedia.org/ontology/recordedIn
p861
aVhttp://dbpedia.org/property/venue
p862
aVhttp://dbpedia.org/property/usedBy
p863
aVhttp://dbpedia.org/property/nationalOrigin
p864
aVhttp://www.georss.org/georss/point
p865
aVhttp://dbpedia.org/property/shipBuilder
p866
aVhttp://dbpedia.org/ontology/location
p867
aVhttp://dbpedia.org/ontology/PopulatedPlace/areaTotal
p868
aVhttp://dbpedia.org/property/rd2t5Loc
p869
aVhttp://dbpedia.org/property/rd4t2Loc
p870
aVhttp://dbpedia.org/property/jurisdiction
p871
aVhttp://dbpedia.org/property/rd4t1Loc
p872
aVhttp://www.w3.org/2000/01/rdf-schema#seeAlso
p873
aVhttp://dbpedia.org/property/rd2t6Loc
p874
aVhttp://dbpedia.org/ontology/countryWithFirstSatellite
p875
aVhttp://dbpedia.org/property/hostCity
p876
aVhttp://dbpedia.org/property/deathDate
p877
aVhttp://dbpedia.org/property/birthplace
p878
aVhttp://dbpedia.org/ontology/poleDriverCountry
p879
aVhttp://dbpedia.org/property/rd2t3Loc
p880
aVhttp://dbpedia.org/property/label
p881
aVhttp://dbpedia.org/ontology/country
p882
aVhttp://dbpedia.org/property/returns
p883
aVhttp://dbpedia.org/ontology/hometown
p884
aVhttp://dbpedia.org/property/home
p885
aVhttp://dbpedia.org/property/rd1t5Loc
p886
aVhttp://dbpedia.org/property/birthPlace
p887
aVhttp://dbpedia.org/property/country
p888
aVhttp://dbpedia.org/ontology/wikiPageExternalLink
p889
aVhttp://dbpedia.org/property/deathPlace
p890
aVhttp://dbpedia.org/ontology/builder
p891
aVhttp://dbpedia.org/ontology/deathPlace
p892
aVhttp://dbpedia.org/property/rd2t4Loc
p893
aVhttp://dbpedia.org/property/headquarters
p894
aVhttp://dbpedia.org/ontology/birthPlace
p895
aVhttp://dbpedia.org/property/rd2t8Loc
p896
aVhttp://dbpedia.org/property/citizenship
p897
aVhttp://dbpedia.org/property/gold
p898
aVhttp://dbpedia.org/property/asianPlace
p899
aVhttp://www.w3.org/2002/07/owl#sameAs
p900
aVhttp://dbpedia.org/property/recorded
p901
aVhttp://dbpedia.org/ontology/origin
p902
aVhttp://dbpedia.org/property/worldPlace
p903
aVhttp://dbpedia.org/property/residence
p904
aVhttp://dbpedia.org/property/cityOrRegion
p905
aVhttp://www.w3.org/1999/02/22-rdf-syntax-ns#type
p906
aVhttp://dbpedia.org/property/affected
p907
aVhttp://dbpedia.org/property/birthDate
p908
aVhttp://dbpedia.org/property/rd3t3Loc
p909
aVhttp://dbpedia.org/property/locationCountry
p910
aVhttp://dbpedia.org/ontology/secondDriverCountry
p911
aVhttp://dbpedia.org/property/rd1t2Loc
p912
aVhttp://dbpedia.org/ontology/ground
p913
aVhttp://dbpedia.org/property/withdraws
p914
aVhttp://dbpedia.org/property/namedAfter
p915
aVhttp://dbpedia.org/property/shipCountry
p916
aVhttp://dbpedia.org/property/rd1t8Loc
p917
aVhttp://dbpedia.org/property/fightingOutOf
p918
aVhttp://dbpedia.org/property/rd2t7Loc
p919
aVhttp://dbpedia.org/ontology/city
p920
aVhttp://dbpedia.org/property/subdivisionName
p921
aVhttp://dbpedia.org/ontology/homeport
p922
aVhttp://dbpedia.org/property/rd1t3Loc
p923
aVhttp://dbpedia.org/property/rd5t1Loc
p924
aVhttp://dbpedia.org/property/stadium
p925
aVhttp://dbpedia.org/property/ground
p926
aVhttp://dbpedia.org/property/place
p927
aVhttp://dbpedia.org/property/debuts
p928
aVhttp://dbpedia.org/ontology/thirdDriverCountry
p929
aVhttp://dbpedia.org/ontology/PopulatedPlace/populationDensity
p930
aVhttp://dbpedia.org/property/footnoteG
p931
aVhttp://dbpedia.org/property/allegiance
p932
aVhttp://dbpedia.org/ontology/place
p933
aVhttp://dbpedia.org/property/rd2t2Loc
p934
aVhttp://dbpedia.org/property/location
p935
aVhttp://dbpedia.org/property/rd3t2Loc
p936
aVhttp://dbpedia.org/property/rd1t6Loc
p937
aVhttp://dbpedia.org/ontology/language
p938
aVhttp://dbpedia.org/property/locale
p939
aVhttp://dbpedia.org/property/basinCountries
p940
aVhttp://dbpedia.org/ontology/assembly
p941
aVhttp://dbpedia.org/property/rd2t1Loc
p942
aVhttp://www.w3.org/2000/01/rdf-schema#comment
p943
aVhttp://dbpedia.org/ontology/releaseLocation
p944
aVhttp://dbpedia.org/property/olympicPlace
p945
aVhttp://dbpedia.org/property/rd1t1Loc
p946
aVhttp://dbpedia.org/property/rd3t1Loc
p947
aVhttp://dbpedia.org/property/shipHomeport
p948
asI2
(lp949
sI3
(lp950
ssI1
(dp951
I0
g847
sI1
(lp952
sI2
(lp953
sI3
(lp954
ssI2
(dp955
I0
g949
sI1
g953
sI2
(lp956
sI3
(lp957
ssI3
(dp958
I0
g950
sI1
g954
sI2
g957
sI3
(lp959
ssa(dp960
I0
(dp961
I0
(lp962
sI1
(lp963
Vhttp://www.w3.org/2000/01/rdf-schema#seeAlso
p964
aVhttp://dbpedia.org/ontology/country
p965
aVhttp://www.w3.org/1999/02/22-rdf-syntax-ns#type
p966
aVhttp://dbpedia.org/ontology/assembly
p967
aVhttp://dbpedia.org/ontology/location
p968
aVhttp://www.w3.org/2000/01/rdf-schema#comment
p969
aVhttp://dbpedia.org/ontology/abstract
p970
aVhttp://dbpedia.org/property/nations
p971
aVhttp://dbpedia.org/property/venue
p972
aVhttp://dbpedia.org/property/location
p973
aVhttp://dbpedia.org/property/area
p974
aVhttp://dbpedia.org/property/withdraws
p975
aVhttp://dbpedia.org/property/city
p976
aVhttp://dbpedia.org/property/shipNamesake
p977
aVhttp://dbpedia.org/ontology/city
p978
aVhttp://dbpedia.org/ontology/regionServed
p979
aVhttp://dbpedia.org/property/country
p980
aVhttp://dbpedia.org/property/debuts
p981
aVhttp://dbpedia.org/ontology/locationCity
p982
aVhttp://dbpedia.org/property/areaServed
p983
aVhttp://dbpedia.org/property/title
p984
asI2
(lp985
sI3
(lp986
ssI1
(dp987
I0
g963
sI1
(lp988
sI2
(lp989
sI3
(lp990
ssI2
(dp991
I0
g985
sI1
g989
sI2
(lp992
sI3
(lp993
ssI3
(dp994
I0
g986
sI1
g990
sI2
g993
sI3
(lp995
ssa(dp996
I0
(dp997
I0
(lp998
sI1
(lp999
Vhttp://dbpedia.org/property/origin
p1000
aVhttp://dbpedia.org/ontology/country
p1001
aVhttp://dbpedia.org/property/returns
p1002
aVhttp://dbpedia.org/ontology/location
p1003
aVhttp://www.w3.org/2000/01/rdf-schema#comment
p1004
aVhttp://dbpedia.org/ontology/abstract
p1005
aVhttp://dbpedia.org/property/gamesPlace
p1006
aVhttp://dbpedia.org/property/location
p1007
aVhttp://dbpedia.org/property/worldPlace
p1008
aVhttp://dbpedia.org/property/rd1t1Loc
p1009
aVhttp://dbpedia.org/property/rd3t1Loc
p1010
aVhttp://dbpedia.org/ontology/city
p1011
aVhttp://www.w3.org/ns/prov#wasDerivedFrom
p1012
aVhttp://dbpedia.org/property/country
p1013
aVhttp://dbpedia.org/property/areasAffected
p1014
aVhttp://www.w3.org/2002/07/owl#sameAs
p1015
aVhttp://dbpedia.org/property/rd2t1Loc
p1016
asI2
(lp1017
sI3
(lp1018
ssI1
(dp1019
I0
g999
sI1
(lp1020
sI2
(lp1021
sI3
(lp1022
Vhttp://www.w3.org/2000/01/rdf-schema#seeAlso
p1023
aVhttp://dbpedia.org/property/origin
p1024
aVhttp://dbpedia.org/ontology/currency
p1025
aVhttp://dbpedia.org/ontology/leader
p1026
aVhttp://dbpedia.org/property/residence
p1027
aVhttp://dbpedia.org/property/placeOfDeath
p1028
aVhttp://dbpedia.org/ontology/locatedInArea
p1029
aVhttp://dbpedia.org/ontology/regionServed
p1030
aVhttp://dbpedia.org/ontology/country
p1031
aVhttp://dbpedia.org/property/usingCountries
p1032
aVhttp://dbpedia.org/property/locationCountry
p1033
aVhttp://dbpedia.org/property/allegiance
p1034
aVhttp://dbpedia.org/ontology/nationality
p1035
aVhttp://dbpedia.org/property/birthPlace
p1036
aVhttp://dbpedia.org/ontology/place
p1037
aVhttp://dbpedia.org/property/placeOfBirth
p1038
aVhttp://dbpedia.org/property/nationality
p1039
aVhttp://dbpedia.org/property/country
p1040
aVhttp://dbpedia.org/property/areaServed
p1041
aVhttp://dbpedia.org/ontology/residence
p1042
aVhttp://dbpedia.org/ontology/abstract
p1043
aVhttp://dbpedia.org/ontology/recordedIn
p1044
aVhttp://dbpedia.org/property/leaderName
p1045
aVhttp://dbpedia.org/property/deathPlace
p1046
aVhttp://dbpedia.org/ontology/usingCountry
p1047
aVhttp://dbpedia.org/property/location
p1048
aVhttp://dbpedia.org/property/fightingOutOf
p1049
aVhttp://dbpedia.org/ontology/deathPlace
p1050
aVhttp://dbpedia.org/property/subdivisionName
p1051
aVhttp://dbpedia.org/ontology/location
p1052
aVhttp://dbpedia.org/ontology/birthPlace
p1053
aVhttp://dbpedia.org/ontology/citizenship
p1054
aVhttp://dbpedia.org/property/area
p1055
aVhttp://dbpedia.org/ontology/hometown
p1056
aVhttp://dbpedia.org/property/citizenship
p1057
aVhttp://dbpedia.org/ontology/stateOfOrigin
p1058
aVhttp://dbpedia.org/property/data
p1059
aVhttp://dbpedia.org/ontology/award
p1060
aVhttp://dbpedia.org/property/areas
p1061
assI2
(dp1062
I0
g1017
sI1
g1021
sI2
(lp1063
sI3
(lp1064
ssI3
(dp1065
I0
g1018
sI1
g1022
sI2
g1064
sI3
(lp1066
ssa(dp1067
I0
(dp1068
I0
(lp1069
sI1
(lp1070
Vhttp://dbpedia.org/ontology/wikiPageExternalLink
p1071
aVhttp://dbpedia.org/ontology/country
p1072
aVhttp://dbpedia.org/property/returns
p1073
aVhttp://www.w3.org/1999/02/22-rdf-syntax-ns#type
p1074
aVhttp://dbpedia.org/ontology/location
p1075
aVhttp://dbpedia.org/property/place
p1076
aVhttp://dbpedia.org/ontology/abstract
p1077
aVhttp://dbpedia.org/property/venue
p1078
aVhttp://dbpedia.org/property/location
p1079
aVhttp://dbpedia.org/property/debuts
p1080
aVhttp://dbpedia.org/property/country/region
p1081
aVhttp://dbpedia.org/property/prev
p1082
aVhttp://dbpedia.org/property/country
p1083
aVhttp://dbpedia.org/property/stadium
p1084
asI2
(lp1085
sI3
(lp1086
ssI1
(dp1087
I0
g1070
sI1
(lp1088
sI2
(lp1089
sI3
(lp1090
ssI2
(dp1091
I0
g1085
sI1
g1089
sI2
(lp1092
sI3
(lp1093
ssI3
(dp1094
I0
g1086
sI1
g1090
sI2
g1093
sI3
(lp1095
ssa(dp1096
I0
(dp1097
I0
(lp1098
sI1
(lp1099
Vhttp://www.w3.org/2000/01/rdf-schema#seeAlso
p1100
aVhttp://dbpedia.org/ontology/country
p1101
aVhttp://dbpedia.org/property/returns
p1102
aVhttp://www.w3.org/1999/02/22-rdf-syntax-ns#type
p1103
aVhttp://dbpedia.org/property/origin
p1104
aVhttp://www.w3.org/2000/01/rdf-schema#comment
p1105
aVhttp://dbpedia.org/property/home
p1106
aVhttp://dbpedia.org/ontology/abstract
p1107
aVhttp://dbpedia.org/property/countries
p1108
aVhttp://dbpedia.org/property/venue
p1109
aVhttp://dbpedia.org/property/location
p1110
aVhttp://dbpedia.org/property/debuts
p1111
aVhttp://dbpedia.org/ontology/hometown
p1112
aVhttp://dbpedia.org/property/country
p1113
aVhttp://dbpedia.org/property/usedBy
p1114
aVhttp://dbpedia.org/property/hostCity
p1115
aVhttp://www.w3.org/2002/07/owl#sameAs
p1116
aVhttp://dbpedia.org/property/areasAffected
p1117
asI2
(lp1118
Vhttp://www.w3.org/ns/prov#wasDerivedFrom
p1119
aVhttp://www.w3.org/1999/02/22-rdf-syntax-ns#type
p1120
asI3
(lp1121
ssI1
(dp1122
I0
g1099
sI1
(lp1123
sI2
(lp1124
sI3
(lp1125
ssI2
(dp1126
I0
g1118
sI1
g1124
sI2
(lp1127
sI3
(lp1128
ssI3
(dp1129
I0
g1121
sI1
g1125
sI2
g1128
sI3
(lp1130
ssa(dp1131
I0
(dp1132
I0
(lp1133
sI1
(lp1134
sI2
(lp1135
sI3
(lp1136
ssI1
(dp1137
I0
g1134
sI1
(lp1138
sI2
(lp1139
sI3
(lp1140
ssI2
(dp1141
I0
g1135
sI1
g1139
sI2
(lp1142
sI3
(lp1143
ssI3
(dp1144
I0
g1136
sI1
g1140
sI2
g1143
sI3
(lp1145
ssa(dp1146
I0
(dp1147
I0
(lp1148
sI1
(lp1149
Vhttp://dbpedia.org/ontology/wikiPageExternalLink
p1150
aVhttp://dbpedia.org/ontology/country
p1151
aVhttp://dbpedia.org/ontology/assembly
p1152
aVhttp://dbpedia.org/ontology/location
p1153
aVhttp://dbpedia.org/property/origin
p1154
aVhttp://dbpedia.org/property/place
p1155
aVhttp://dbpedia.org/ontology/birthPlace
p1156
aVhttp://dbpedia.org/property/venue
p1157
aVhttp://dbpedia.org/property/location
p1158
aVhttp://dbpedia.org/property/available
p1159
aVhttp://dbpedia.org/property/birthPlace
p1160
aVhttp://dbpedia.org/ontology/place
p1161
aVhttp://dbpedia.org/property/placeOfBirth
p1162
aVhttp://dbpedia.org/property/country
p1163
aVhttp://dbpedia.org/ontology/builder
p1164
aVhttp://dbpedia.org/property/shipBuilder
p1165
aVhttp://purl.org/dc/terms/subject
p1166
asI2
(lp1167
sI3
(lp1168
ssI1
(dp1169
I0
g1149
sI1
(lp1170
sI2
(lp1171
Vhttp://dbpedia.org/property/currency
p1172
asI3
(lp1173
Vhttp://dbpedia.org/property/origin
p1174
aVhttp://dbpedia.org/property/placeOfDeath
p1175
aVhttp://dbpedia.org/ontology/twinCountry
p1176
aVhttp://dbpedia.org/ontology/type
p1177
aVhttp://dbpedia.org/property/broadcastArea
p1178
aVhttp://dbpedia.org/ontology/mouthCountry
p1179
aVhttp://dbpedia.org/property/allegiance
p1180
aVhttp://dbpedia.org/property/city
p1181
aVhttp://dbpedia.org/ontology/garrison
p1182
aVhttp://dbpedia.org/property/sovereigntyType
p1183
aVhttp://dbpedia.org/ontology/city
p1184
aVhttp://www.w3.org/ns/prov#wasDerivedFrom
p1185
aVhttp://dbpedia.org/ontology/demonym
p1186
aVhttp://dbpedia.org/ontology/regionServed
p1187
aVhttp://dbpedia.org/property/assembly
p1188
aVhttp://dbpedia.org/property/subdivisionName
p1189
aVhttp://dbpedia.org/ontology/nationality
p1190
aVhttp://xmlns.com/foaf/0.1/isPrimaryTopicOf
p1191
aVhttp://dbpedia.org/property/hometown
p1192
aVhttp://dbpedia.org/property/establishedEvent
p1193
aVhttp://dbpedia.org/property/start
p1194
aVhttp://dbpedia.org/property/mapCaption
p1195
aVhttp://dbpedia.org/ontology/sourcePlace
p1196
aVhttp://dbpedia.org/ontology/residence
p1197
aVhttp://dbpedia.org/ontology/abstract
p1198
aVhttp://dbpedia.org/ontology/recordedIn
p1199
aVhttp://dbpedia.org/property/venue
p1200
aVhttp://dbpedia.org/property/body
p1201
aVhttp://dbpedia.org/property/imageMap
p1202
aVhttp://dbpedia.org/property/shipBuilder
p1203
aVhttp://dbpedia.org/ontology/location
p1204
aVhttp://dbpedia.org/property/countries
p1205
aVhttp://dbpedia.org/ontology/wikiPageExternalLink
p1206
aVhttp://dbpedia.org/property/area
p1207
aVhttp://dbpedia.org/ontology/hometown
p1208
aVhttp://dbpedia.org/ontology/restingPlace
p1209
aVhttp://dbpedia.org/ontology/spokenIn
p1210
aVhttp://dbpedia.org/property/foundingLocation
p1211
aVhttp://dbpedia.org/property/jurisdiction
p1212
aVhttp://dbpedia.org/property/leaderTitle
p1213
aVhttp://www.w3.org/2000/01/rdf-schema#seeAlso
p1214
aVhttp://dbpedia.org/property/affiliation
p1215
aVhttp://dbpedia.org/ontology/knownFor
p1216
aVhttp://dbpedia.org/property/hostCity
p1217
aVhttp://dbpedia.org/property/conventionalLongName
p1218
aVhttp://dbpedia.org/ontology/longName
p1219
aVhttp://dbpedia.org/ontology/foundationPlace
p1220
aVhttp://dbpedia.org/property/legislature
p1221
aVhttp://dbpedia.org/ontology/locatedInArea
p1222
aVhttp://dbpedia.org/property/demonym
p1223
aVhttp://dbpedia.org/property/label
p1224
aVhttp://dbpedia.org/ontology/country
p1225
aVhttp://dbpedia.org/property/region
p1226
aVhttp://dbpedia.org/ontology/builder
p1227
aVhttp://dbpedia.org/property/birthPlace
p1228
aVhttp://dbpedia.org/property/country/region
p1229
aVhttp://dbpedia.org/property/royalHouse
p1230
aVhttp://dbpedia.org/property/stateParty
p1231
aVhttp://dbpedia.org/property/country
p1232
aVhttp://dbpedia.org/ontology/billed
p1233
aVhttp://dbpedia.org/property/nation
p1234
aVhttp://dbpedia.org/property/areaServed
p1235
aVhttp://dbpedia.org/ontology/county
p1236
aVhttp://xmlns.com/foaf/0.1/primaryTopic
p1237
aVhttp://dbpedia.org/ontology/campus
p1238
aVhttp://dbpedia.org/property/county
p1239
aVhttp://dbpedia.org/property/billed
p1240
aVhttp://dbpedia.org/property/deathPlace
p1241
aVhttp://dbpedia.org/property/states
p1242
aVhttp://dbpedia.org/ontology/locationCountry
p1243
aVhttp://dbpedia.org/ontology/deathPlace
p1244
aVhttp://dbpedia.org/property/hasPhotoCollection
p1245
aVhttp://dbpedia.org/property/voySearch
p1246
aVhttp://dbpedia.org/ontology/genre
p1247
aVhttp://dbpedia.org/ontology/sourceMountain
p1248
aVhttp://dbpedia.org/property/headquarters
p1249
aVhttp://dbpedia.org/property/countryName
p1250
aVhttp://dbpedia.org/ontology/birthPlace
p1251
aVhttp://dbpedia.org/ontology/wikiPageRedirects
p1252
aVhttp://dbpedia.org/property/parentOrganization
p1253
aVhttp://dbpedia.org/property/citizenship
p1254
aVhttp://dbpedia.org/property/imageCoat
p1255
aVhttp://dbpedia.org/ontology/stateOfOrigin
p1256
aVhttp://www.w3.org/2002/07/owl#sameAs
p1257
aVhttp://dbpedia.org/property/recorded
p1258
aVhttp://dbpedia.org/property/currency
p1259
aVhttp://dbpedia.org/ontology/origin
p1260
aVhttp://dbpedia.org/ontology/currency
p1261
aVhttp://dbpedia.org/property/imageCaption
p1262
aVhttp://dbpedia.org/property/residence
p1263
aVhttp://dbpedia.org/property/altMap
p1264
aVhttp://dbpedia.org/property/governingRegion
p1265
aVhttp://dbpedia.org/ontology/region
p1266
aVhttp://dbpedia.org/property/reason
p1267
aVhttp://www.w3.org/1999/02/22-rdf-syntax-ns#type
p1268
aVhttp://dbpedia.org/property/timeZone
p1269
aVhttp://dbpedia.org/property/locationCountry
p1270
aVhttp://dbpedia.org/ontology/ground
p1271
aVhttp://dbpedia.org/property/owner
p1272
aVhttp://dbpedia.org/property/placeOfBirth
p1273
aVhttp://xmlns.com/foaf/0.1/depiction
p1274
aVhttp://dbpedia.org/property/headquarter
p1275
aVhttp://dbpedia.org/ontology/usingCountry
p1276
aVhttp://dbpedia.org/ontology/province
p1277
aVhttp://dbpedia.org/ontology/thumbnail
p1278
aVhttp://dbpedia.org/property/row
p1279
aVhttp://dbpedia.org/property/homeTown
p1280
aVhttp://dbpedia.org/ontology/flag
p1281
aVhttp://dbpedia.org/property/commonName
p1282
aVhttp://dbpedia.org/property/availability
p1283
aVhttp://dbpedia.org/ontology/ethnicity
p1284
aVhttp://www.w3.org/2000/01/rdf-schema#comment
p1285
aVhttp://dbpedia.org/property/locationCity
p1286
aVhttp://dbpedia.org/property/almaMater
p1287
aVhttp://dbpedia.org/property/largestUrbanAgglomeration
p1288
aVhttp://dbpedia.org/property/ground
p1289
aVhttp://dbpedia.org/property/place
p1290
aVhttp://dbpedia.org/ontology/citizenship
p1291
aVhttp://dbpedia.org/property/territorialExtent
p1292
aVhttp://dbpedia.org/ontology/jurisdiction
p1293
aVhttp://dbpedia.org/property/caption
p1294
aVhttp://www.w3.org/2002/07/owl#differentFrom
p1295
aVhttp://dbpedia.org/ontology/locationCity
p1296
aVhttp://dbpedia.org/property/locations
p1297
aVhttp://dbpedia.org/property/countryOfProduction
p1298
aVhttp://dbpedia.org/property/available
p1299
aVhttp://dbpedia.org/property/combatant
p1300
aVhttp://dbpedia.org/ontology/place
p1301
aVhttp://dbpedia.org/property/office
p1302
aVhttp://dbpedia.org/property/nationality
p1303
aVhttp://dbpedia.org/property/foundedPlace
p1304
aVhttp://dbpedia.org/property/callingCode
p1305
aVhttp://dbpedia.org/ontology/wikiPageDisambiguates
p1306
aVhttp://dbpedia.org/ontology/ideology
p1307
aVhttp://purl.org/dc/terms/subject
p1308
aVhttp://dbpedia.org/ontology/populationPlace
p1309
aVhttp://dbpedia.org/property/free
p1310
aVhttp://dbpedia.org/property/gamesPlace
p1311
aVhttp://dbpedia.org/property/location
p1312
aVhttp://dbpedia.org/property/armiger
p1313
aVhttp://dbpedia.org/ontology/headquarter
p1314
aVhttp://dbpedia.org/property/foundation
p1315
aVhttp://dbpedia.org/property/builder
p1316
aVhttp://www.w3.org/2000/01/rdf-schema#label
p1317
aVhttp://dbpedia.org/ontology/sourceCountry
p1318
aVhttp://dbpedia.org/ontology/broadcastArea
p1319
aVhttp://dbpedia.org/property/locale
p1320
aVhttp://dbpedia.org/property/garrison
p1321
aVhttp://dbpedia.org/ontology/assembly
p1322
aVhttp://dbpedia.org/property/address
p1323
aVhttp://dbpedia.org/ontology/timeZone
p1324
aVhttp://dbpedia.org/property/northwest
p1325
aVhttp://dbpedia.org/property/seat
p1326
aVhttp://dbpedia.org/property/imageFlag
p1327
aVhttp://dbpedia.org/property/regionServed
p1328
aVhttp://xmlns.com/foaf/0.1/name
p1329
aVhttp://dbpedia.org/property/data
p1330
assI2
(dp1331
I0
g1167
sI1
g1171
sI2
(lp1332
sI3
(lp1333
ssI3
(dp1334
I0
g1168
sI1
g1173
sI2
g1333
sI3
(lp1335
ssa.