(lp1
(lp2
(lp3
a(lp4
a(lp5
a(lp6
a(lp7
a(lp8
a(lp9
a(lp10
a(lp11
a(lp12
a(lp13
a(lp14
((lp15
Vhttp://dbpedia.org/class/yago/1970sAutomobiles
p16
aVhttp://dbpedia.org/class/yago/1990sAutomobiles
p17
aVhttp://dbpedia.org/class/yago/2000sAutomobiles
p18
aVhttp://dbpedia.org/class/yago/Artifact100021939
p19
aVhttp://dbpedia.org/class/yago/Car102958343
p20
aVhttp://dbpedia.org/class/yago/CarsOfAustralia
p21
aVhttp://dbpedia.org/class/yago/Container103094503
p22
aVhttp://dbpedia.org/class/yago/Conveyance103100490
p23
aVhttp://dbpedia.org/class/yago/MotorVehicle103791235
p24
aVhttp://dbpedia.org/class/yago/Object100002684
p25
aVhttp://dbpedia.org/class/yago/Sedan104166281
p26
aVhttp://dbpedia.org/class/yago/Self-propelledVehicle104170037
p27
aVhttp://dbpedia.org/class/yago/Vehicle104524313
p28
aVhttp://dbpedia.org/class/yago/WheeledVehicle104576211
p29
aVhttp://dbpedia.org/class/yago/Whole100003553
p30
aVhttp://dbpedia.org/class/yago/Rear-wheel-driveVehicles
p31
aVhttp://dbpedia.org/class/yago/SportsSedans
p32
aVhttp://www.w3.org/2002/07/owl#Thing
p33
aVhttp://www.ontologydesignpatterns.org/ont/dul/DUL.owl#DesignedArtifact
p34
aVhttp://dbpedia.org/ontology/Automobile
p35
aVhttp://dbpedia.org/ontology/MeanOfTransportation
p36
aVhttp://schema.org/Product
p37
aVhttp://dbpedia.org/class/yago/FPVVehicles
p38
aVhttp://dbpedia.org/class/yago/MuscleCars
p39
aVhttp://dbpedia.org/class/yago/Instrumentality103575240
p40
aVhttp://dbpedia.org/class/yago/PhysicalEntity100001930
p41
aVhttp://dbpedia.org/class/yago/VehiclesIntroducedIn1967
p42
aVhttp://dbpedia.org/resource/Ford_Falcon_GT
tp43
aa(lp44
a(lp45
a(lp46
a(lp47
a(lp48
((lp49
Vhttp://dbpedia.org/class/yago/1960sAutomobiles
p50
aVhttp://dbpedia.org/class/yago/Artifact100021939
p51
aVhttp://dbpedia.org/class/yago/Car102958343
p52
aVhttp://dbpedia.org/class/yago/Container103094503
p53
aVhttp://dbpedia.org/class/yago/Conveyance103100490
p54
aVhttp://dbpedia.org/class/yago/MotorVehicle103791235
p55
aVhttp://dbpedia.org/class/yago/Object100002684
p56
aVhttp://dbpedia.org/class/yago/Self-propelledVehicle104170037
p57
aVhttp://dbpedia.org/class/yago/Vehicle104524313
p58
aVhttp://dbpedia.org/class/yago/WheeledVehicle104576211
p59
aVhttp://dbpedia.org/class/yago/Whole100003553
p60
aVhttp://dbpedia.org/class/yago/Rear-wheel-driveVehicles
p61
aVhttp://www.w3.org/2002/07/owl#Thing
p62
aVhttp://www.ontologydesignpatterns.org/ont/dul/DUL.owl#DesignedArtifact
p63
aVhttp://dbpedia.org/ontology/Automobile
p64
aVhttp://dbpedia.org/ontology/MeanOfTransportation
p65
aVhttp://schema.org/Product
p66
aVhttp://dbpedia.org/class/yago/Coupe103119396
p67
aVhttp://dbpedia.org/class/yago/Coupes
p68
aVhttp://dbpedia.org/class/yago/FordVehicles
p69
aVhttp://dbpedia.org/class/yago/MotorVehiclesManufacturedInTheUnitedStates
p70
aVhttp://dbpedia.org/class/yago/MuscleCars
p71
aVhttp://dbpedia.org/class/yago/Instrumentality103575240
p72
aVhttp://dbpedia.org/class/yago/PhysicalEntity100001930
p73
aVhttp://dbpedia.org/class/yago/VehiclesIntroducedIn1964
p74
aVhttp://dbpedia.org/resource/Ford_Fairlane_Thunderbolt
p75
tp76
aa(lp77
a(lp78
aa.