(lp1
(lp2
(lp3
((lp4
Vhttp://dbpedia.org/class/yago/Abstraction100002137
p5
aVhttp://dbpedia.org/class/yago/Cabal108241798
p6
aVhttp://dbpedia.org/class/yago/Clique108240633
p7
aVhttp://dbpedia.org/class/yago/Group100031264
p8
aVhttp://dbpedia.org/class/yago/Set108240169
p9
aVhttp://dbpedia.org/class/yago/SocialGroup107950920
p10
aVhttp://www.w3.org/2002/07/owl#Thing
p11
aVhttp://www.ontologydesignpatterns.org/ont/dul/DUL.owl#Agent
p12
aVhttp://www.ontologydesignpatterns.org/ont/dul/DUL.owl#SocialPerson
p13
aVhttp://www.wikidata.org/entity/Q163740
p14
aVhttp://www.wikidata.org/entity/Q43229
p15
aVhttp://dbpedia.org/ontology/Agent
p16
aVhttp://dbpedia.org/ontology/Non-ProfitOrganisation
p17
aVhttp://dbpedia.org/ontology/Organisation
p18
aVhttp://schema.org/Organization
p19
aVhttp://dbpedia.org/class/yago/PoliticalAdvocacyGroupsInTheUnitedStates
p20
aVhttp://dbpedia.org/class/yago/PoliticalPartyFactionsInTheUnitedStates
p21
aVhttp://dbpedia.org/resource/Christian_Coalition_of_America
tp22
aa(lp23
((lp24
Vhttp://dbpedia.org/class/yago/Abstraction100002137
p25
aVhttp://dbpedia.org/class/yago/Group100031264
p26
aVhttp://dbpedia.org/class/yago/Organization108008335
p27
aVhttp://dbpedia.org/class/yago/SocialGroup107950920
p28
aVhttp://dbpedia.org/class/yago/YagoLegalActorGeo
p29
aVhttp://www.w3.org/2002/07/owl#Thing
p30
aVhttp://www.ontologydesignpatterns.org/ont/dul/DUL.owl#Agent
p31
aVhttp://www.ontologydesignpatterns.org/ont/dul/DUL.owl#SocialPerson
p32
aVhttp://www.wikidata.org/entity/Q163740
p33
aVhttp://www.wikidata.org/entity/Q43229
p34
aVhttp://dbpedia.org/ontology/Agent
p35
aVhttp://dbpedia.org/ontology/Non-ProfitOrganisation
p36
aVhttp://dbpedia.org/ontology/Organisation
p37
aVhttp://schema.org/Organization
p38
aVhttp://dbpedia.org/class/yago/YagoPermanentlyLocatedEntity
p39
aVhttp://dbpedia.org/class/yago/OrganizationsBasedInIowa
p40
aVhttp://dbpedia.org/class/yago/OrganizationsEstablishedIn2005
p41
aVhttp://dbpedia.org/class/yago/YagoLegalActor
p42
aVhttp://dbpedia.org/resource/David_Lynch_Foundation
tp43
aa(lp44
((lp45
Vhttp://www.w3.org/2002/07/owl#Thing
p46
aVhttp://www.ontologydesignpatterns.org/ont/dul/DUL.owl#Agent
p47
aVhttp://www.ontologydesignpatterns.org/ont/dul/DUL.owl#SocialPerson
p48
aVhttp://www.wikidata.org/entity/Q163740
p49
aVhttp://www.wikidata.org/entity/Q43229
p50
aVhttp://dbpedia.org/ontology/Agent
p51
aVhttp://dbpedia.org/ontology/Non-ProfitOrganisation
p52
aVhttp://dbpedia.org/ontology/Organisation
p53
aVhttp://schema.org/Organization
p54
aVhttp://dbpedia.org/resource/Destination_Imagination
tp55
aa(lp56
((lp57
Vhttp://dbpedia.org/class/yago/Abstraction100002137
p58
aVhttp://dbpedia.org/class/yago/Group100031264
p59
aVhttp://dbpedia.org/class/yago/Organization108008335
p60
aVhttp://dbpedia.org/class/yago/SocialGroup107950920
p61
aVhttp://dbpedia.org/class/yago/YagoLegalActorGeo
p62
aVhttp://www.w3.org/2002/07/owl#Thing
p63
aVhttp://www.ontologydesignpatterns.org/ont/dul/DUL.owl#Agent
p64
aVhttp://www.ontologydesignpatterns.org/ont/dul/DUL.owl#SocialPerson
p65
aVhttp://www.wikidata.org/entity/Q163740
p66
aVhttp://www.wikidata.org/entity/Q43229
p67
aVhttp://dbpedia.org/ontology/Agent
p68
aVhttp://dbpedia.org/ontology/Non-ProfitOrganisation
p69
aVhttp://dbpedia.org/ontology/Organisation
p70
aVhttp://schema.org/Organization
p71
aVhttp://dbpedia.org/class/yago/EnvironmentalOrganizationsBasedInTheUnitedStates
p72
aVhttp://dbpedia.org/class/yago/YagoPermanentlyLocatedEntity
p73
aVhttp://dbpedia.org/class/yago/YagoLegalActor
p74
aVhttp://dbpedia.org/resource/Earth_Policy_Institute
tp75
aa(lp76
((lp77
Vhttp://dbpedia.org/class/yago/Abstraction100002137
p78
aVhttp://dbpedia.org/class/yago/Association108049401
p79
aVhttp://dbpedia.org/class/yago/Group100031264
p80
aVhttp://dbpedia.org/class/yago/Organization108008335
p81
aVhttp://dbpedia.org/class/yago/ProfessionalAssociation108242675
p82
aVhttp://dbpedia.org/class/yago/SocialGroup107950920
p83
aVhttp://dbpedia.org/class/yago/YagoLegalActorGeo
p84
aVhttp://dbpedia.org/class/yago/ProfessionalAssociationsBasedInCanada
p85
aVhttp://www.w3.org/2002/07/owl#Thing
p86
aVhttp://www.ontologydesignpatterns.org/ont/dul/DUL.owl#Agent
p87
aVhttp://www.ontologydesignpatterns.org/ont/dul/DUL.owl#SocialPerson
p88
aVhttp://www.wikidata.org/entity/Q163740
p89
aVhttp://www.wikidata.org/entity/Q43229
p90
aVhttp://dbpedia.org/ontology/Agent
p91
aVhttp://dbpedia.org/ontology/Non-ProfitOrganisation
p92
aVhttp://dbpedia.org/ontology/Organisation
p93
aVhttp://schema.org/Organization
p94
aVhttp://dbpedia.org/class/yago/EditorOrganizations
p95
aVhttp://dbpedia.org/class/yago/YagoPermanentlyLocatedEntity
p96
aVhttp://dbpedia.org/class/yago/YagoLegalActor
p97
aVhttp://dbpedia.org/resource/Editors'_Association_of_Canada
tp98
aa(lp99
((lp100
Vhttp://dbpedia.org/class/yago/Abstraction100002137
p101
aVhttp://dbpedia.org/class/yago/Charity108406619
p102
aVhttp://dbpedia.org/class/yago/FinancialInstitution108054721
p103
aVhttp://dbpedia.org/class/yago/Group100031264
p104
aVhttp://dbpedia.org/class/yago/Institution108053576
p105
aVhttp://dbpedia.org/class/yago/Organization108008335
p106
aVhttp://dbpedia.org/class/yago/SocialGroup107950920
p107
aVhttp://dbpedia.org/class/yago/YagoLegalActorGeo
p108
aVhttp://www.w3.org/2002/07/owl#Thing
p109
aVhttp://www.ontologydesignpatterns.org/ont/dul/DUL.owl#Agent
p110
aVhttp://www.ontologydesignpatterns.org/ont/dul/DUL.owl#SocialPerson
p111
aVhttp://www.wikidata.org/entity/Q163740
p112
aVhttp://www.wikidata.org/entity/Q43229
p113
aVhttp://dbpedia.org/ontology/Agent
p114
aVhttp://dbpedia.org/ontology/Non-ProfitOrganisation
p115
aVhttp://dbpedia.org/ontology/Organisation
p116
aVhttp://schema.org/Organization
p117
aVhttp://dbpedia.org/class/yago/EpilepsyOrganizations
p118
aVhttp://dbpedia.org/class/yago/Foundation108406486
p119
aVhttp://dbpedia.org/class/yago/YagoPermanentlyLocatedEntity
p120
aVhttp://dbpedia.org/class/yago/OrganisationsBasedInBuckinghamshire
p121
aVhttp://dbpedia.org/class/yago/OrganizationsEstablishedIn1892
p122
aVhttp://dbpedia.org/class/yago/YagoLegalActor
p123
aVhttp://dbpedia.org/class/yago/HealthCharitiesInTheUnitedKingdom
p124
aVhttp://dbpedia.org/resource/Epilepsy_Society
tp125
aa(lp126
((lp127
Vhttp://dbpedia.org/class/yago/Abstraction100002137
p128
aVhttp://dbpedia.org/class/yago/Company108058098
p129
aVhttp://dbpedia.org/class/yago/Group100031264
p130
aVhttp://dbpedia.org/class/yago/Institution108053576
p131
aVhttp://dbpedia.org/class/yago/Organization108008335
p132
aVhttp://dbpedia.org/class/yago/SocialGroup107950920
p133
aVhttp://dbpedia.org/class/yago/YagoLegalActorGeo
p134
aVhttp://www.w3.org/2002/07/owl#Thing
p135
aVhttp://www.ontologydesignpatterns.org/ont/dul/DUL.owl#Agent
p136
aVhttp://www.ontologydesignpatterns.org/ont/dul/DUL.owl#SocialPerson
p137
aVhttp://www.wikidata.org/entity/Q163740
p138
aVhttp://www.wikidata.org/entity/Q43229
p139
aVhttp://dbpedia.org/ontology/Agent
p140
aVhttp://dbpedia.org/ontology/Non-ProfitOrganisation
p141
aVhttp://dbpedia.org/ontology/Organisation
p142
aVhttp://schema.org/Organization
p143
aVhttp://umbel.org/umbel/rc/Business
p144
aVhttp://dbpedia.org/class/yago/ChristianOrganizations
p145
aVhttp://dbpedia.org/class/yago/Ex-gayOrganizations
p146
aVhttp://dbpedia.org/class/yago/YagoPermanentlyLocatedEntity
p147
aVhttp://dbpedia.org/class/yago/OrganizationsBasedInFlorida
p148
aVhttp://dbpedia.org/class/yago/OrganizationsEstablishedIn1976
p149
aVhttp://dbpedia.org/class/yago/YagoLegalActor
p150
aVhttp://dbpedia.org/resource/Exodus_International
tp151
aa(lp152
((lp153
Vhttp://dbpedia.org/class/yago/Abstraction100002137
p154
aVhttp://dbpedia.org/class/yago/Company108058098
p155
aVhttp://dbpedia.org/class/yago/Group100031264
p156
aVhttp://dbpedia.org/class/yago/Institution108053576
p157
aVhttp://dbpedia.org/class/yago/Organization108008335
p158
aVhttp://dbpedia.org/class/yago/SocialGroup107950920
p159
aVhttp://dbpedia.org/class/yago/YagoLegalActorGeo
p160
aVhttp://www.w3.org/2002/07/owl#Thing
p161
aVhttp://www.ontologydesignpatterns.org/ont/dul/DUL.owl#Agent
p162
aVhttp://www.ontologydesignpatterns.org/ont/dul/DUL.owl#SocialPerson
p163
aVhttp://www.wikidata.org/entity/Q163740
p164
aVhttp://www.wikidata.org/entity/Q43229
p165
aVhttp://dbpedia.org/ontology/Agent
p166
aVhttp://dbpedia.org/ontology/Non-ProfitOrganisation
p167
aVhttp://dbpedia.org/ontology/Organisation
p168
aVhttp://schema.org/Organization
p169
aVhttp://dbpedia.org/class/yago/ChristianMediaCompanies
p170
aVhttp://dbpedia.org/class/yago/CompaniesBasedInOakland,California
p171
aVhttp://dbpedia.org/class/yago/YagoPermanentlyLocatedEntity
p172
aVhttp://dbpedia.org/class/yago/YagoLegalActor
p173
aVhttp://dbpedia.org/resource/Family_Radio
tp174
aa(lp175
((lp176
Vhttp://dbpedia.org/class/yago/Abstraction100002137
p177
aVhttp://dbpedia.org/class/yago/Act100030358
p178
aVhttp://dbpedia.org/class/yago/Activity100407535
p179
aVhttp://dbpedia.org/class/yago/Event100029378
p180
aVhttp://dbpedia.org/class/yago/Group100031264
p181
aVhttp://dbpedia.org/class/yago/Service100577525
p182
aVhttp://dbpedia.org/class/yago/SocialGroup107950920
p183
aVhttp://dbpedia.org/class/yago/Society107966140
p184
aVhttp://dbpedia.org/class/yago/Work100575741
p185
aVhttp://www.w3.org/2002/07/owl#Thing
p186
aVhttp://www.ontologydesignpatterns.org/ont/dul/DUL.owl#Agent
p187
aVhttp://www.ontologydesignpatterns.org/ont/dul/DUL.owl#SocialPerson
p188
aVhttp://www.wikidata.org/entity/Q163740
p189
aVhttp://www.wikidata.org/entity/Q43229
p190
aVhttp://dbpedia.org/ontology/Agent
p191
aVhttp://dbpedia.org/ontology/Non-ProfitOrganisation
p192
aVhttp://dbpedia.org/ontology/Organisation
p193
aVhttp://schema.org/Organization
p194
aVhttp://dbpedia.org/class/yago/PsychologicalFeature100023100
p195
aVhttp://dbpedia.org/class/yago/YagoPermanentlyLocatedEntity
p196
aVhttp://dbpedia.org/class/yago/HospitalityServices
p197
aVhttp://dbpedia.org/class/yago/InternationalStudentSocieties
p198
aVhttp://dbpedia.org/resource/Hospitality_Club
tp199
aa(lp200
((lp201
Vhttp://dbpedia.org/class/yago/Abstraction100002137
p202
aVhttp://dbpedia.org/class/yago/Company108058098
p203
aVhttp://dbpedia.org/class/yago/Group100031264
p204
aVhttp://dbpedia.org/class/yago/Institution108053576
p205
aVhttp://dbpedia.org/class/yago/Organization108008335
p206
aVhttp://dbpedia.org/class/yago/SocialGroup107950920
p207
aVhttp://dbpedia.org/class/yago/YagoLegalActorGeo
p208
aVhttp://www.w3.org/2002/07/owl#Thing
p209
aVhttp://www.ontologydesignpatterns.org/ont/dul/DUL.owl#Agent
p210
aVhttp://www.ontologydesignpatterns.org/ont/dul/DUL.owl#SocialPerson
p211
aVhttp://www.wikidata.org/entity/Q163740
p212
aVhttp://www.wikidata.org/entity/Q43229
p213
aVhttp://dbpedia.org/ontology/Agent
p214
aVhttp://dbpedia.org/ontology/Non-ProfitOrganisation
p215
aVhttp://dbpedia.org/ontology/Organisation
p216
aVhttp://schema.org/Organization
p217
aVhttp://dbpedia.org/class/yago/CompaniesEstablishedIn1994
p218
aVhttp://dbpedia.org/class/yago/YagoPermanentlyLocatedEntity
p219
aVhttp://dbpedia.org/class/yago/Non-profitOrganizationsBasedInCalifornia
p220
aVhttp://dbpedia.org/class/yago/YagoLegalActor
p221
aVhttp://dbpedia.org/resource/Internet_Systems_Consortium
tp222
aa(lp223
((lp224
Vhttp://dbpedia.org/class/yago/Abstraction100002137
p225
aVhttp://dbpedia.org/class/yago/Association108049401
p226
aVhttp://dbpedia.org/class/yago/Group100031264
p227
aVhttp://dbpedia.org/class/yago/Organization108008335
p228
aVhttp://dbpedia.org/class/yago/ProfessionalAssociation108242675
p229
aVhttp://dbpedia.org/class/yago/SocialGroup107950920
p230
aVhttp://dbpedia.org/class/yago/YagoLegalActorGeo
p231
aVhttp://dbpedia.org/class/yago/ProfessionalAssociationsBasedInIreland
p232
aVhttp://www.w3.org/2002/07/owl#Thing
p233
aVhttp://www.ontologydesignpatterns.org/ont/dul/DUL.owl#Agent
p234
aVhttp://www.ontologydesignpatterns.org/ont/dul/DUL.owl#SocialPerson
p235
aVhttp://www.wikidata.org/entity/Q163740
p236
aVhttp://www.wikidata.org/entity/Q43229
p237
aVhttp://dbpedia.org/ontology/Agent
p238
aVhttp://dbpedia.org/ontology/Non-ProfitOrganisation
p239
aVhttp://dbpedia.org/ontology/Organisation
p240
aVhttp://schema.org/Organization
p241
aVhttp://umbel.org/umbel/rc/NonProfitOrganization
p242
aVhttp://dbpedia.org/class/yago/YagoPermanentlyLocatedEntity
p243
aVhttp://dbpedia.org/class/yago/MusicIndustryAssociations
p244
aVhttp://dbpedia.org/class/yago/YagoLegalActor
p245
aVhttp://dbpedia.org/class/yago/IrishMusicOrganisations
p246
aVhttp://dbpedia.org/class/yago/IrishMusicOrganisationsInTheRepublicOfIreland
p247
aVhttp://dbpedia.org/resource/Irish_Recorded_Music_Association
tp248
aa(lp249
((lp250
Vhttp://dbpedia.org/class/yago/Abstraction100002137
p251
aVhttp://dbpedia.org/class/yago/Group100031264
p252
aVhttp://dbpedia.org/class/yago/Organization108008335
p253
aVhttp://dbpedia.org/class/yago/SocialGroup107950920
p254
aVhttp://dbpedia.org/class/yago/YagoLegalActorGeo
p255
aVhttp://www.w3.org/2002/07/owl#Thing
p256
aVhttp://www.ontologydesignpatterns.org/ont/dul/DUL.owl#Agent
p257
aVhttp://www.ontologydesignpatterns.org/ont/dul/DUL.owl#SocialPerson
p258
aVhttp://www.wikidata.org/entity/Q163740
p259
aVhttp://www.wikidata.org/entity/Q43229
p260
aVhttp://dbpedia.org/ontology/Agent
p261
aVhttp://dbpedia.org/ontology/Non-ProfitOrganisation
p262
aVhttp://dbpedia.org/ontology/Organisation
p263
aVhttp://schema.org/Organization
p264
aVhttp://umbel.org/umbel/rc/NonProfitOrganization
p265
aVhttp://dbpedia.org/class/yago/YagoPermanentlyLocatedEntity
p266
aVhttp://dbpedia.org/class/yago/Non-profitOrganizations
p267
aVhttp://dbpedia.org/class/yago/YagoLegalActor
p268
aVhttp://dbpedia.org/class/yago/YouthOrganizations
p269
aVhttp://dbpedia.org/resource/Junior_Achievement
tp270
aa(lp271
((lp272
Vhttp://dbpedia.org/class/yago/Abstraction100002137
p273
aVhttp://dbpedia.org/class/yago/Charity108406619
p274
aVhttp://dbpedia.org/class/yago/FinancialInstitution108054721
p275
aVhttp://dbpedia.org/class/yago/Group100031264
p276
aVhttp://dbpedia.org/class/yago/Institution108053576
p277
aVhttp://dbpedia.org/class/yago/Organization108008335
p278
aVhttp://dbpedia.org/class/yago/SocialGroup107950920
p279
aVhttp://dbpedia.org/class/yago/YagoLegalActorGeo
p280
aVhttp://www.w3.org/2002/07/owl#Thing
p281
aVhttp://www.ontologydesignpatterns.org/ont/dul/DUL.owl#Agent
p282
aVhttp://www.ontologydesignpatterns.org/ont/dul/DUL.owl#SocialPerson
p283
aVhttp://www.wikidata.org/entity/Q163740
p284
aVhttp://www.wikidata.org/entity/Q43229
p285
aVhttp://dbpedia.org/ontology/Agent
p286
aVhttp://dbpedia.org/ontology/Non-ProfitOrganisation
p287
aVhttp://dbpedia.org/ontology/Organisation
p288
aVhttp://schema.org/Organization
p289
aVhttp://dbpedia.org/class/yago/CharitiesBasedInHampshire
p290
aVhttp://dbpedia.org/class/yago/Children'sCharitiesBasedInTheUnitedKingdom
p291
aVhttp://dbpedia.org/class/yago/Foundation108406486
p292
aVhttp://dbpedia.org/class/yago/YagoPermanentlyLocatedEntity
p293
aVhttp://dbpedia.org/class/yago/YagoLegalActor
p294
aVhttp://dbpedia.org/resource/Learning_through_Landscapes
tp295
aa(lp296
((lp297
Vhttp://dbpedia.org/class/yago/Abstraction100002137
p298
aVhttp://dbpedia.org/class/yago/Group100031264
p299
aVhttp://dbpedia.org/class/yago/Organization108008335
p300
aVhttp://dbpedia.org/class/yago/SocialGroup107950920
p301
aVhttp://dbpedia.org/class/yago/YagoLegalActorGeo
p302
aVhttp://www.w3.org/2002/07/owl#Thing
p303
aVhttp://www.ontologydesignpatterns.org/ont/dul/DUL.owl#Agent
p304
aVhttp://www.ontologydesignpatterns.org/ont/dul/DUL.owl#SocialPerson
p305
aVhttp://www.wikidata.org/entity/Q163740
p306
aVhttp://www.wikidata.org/entity/Q43229
p307
aVhttp://dbpedia.org/ontology/Agent
p308
aVhttp://dbpedia.org/ontology/Non-ProfitOrganisation
p309
aVhttp://dbpedia.org/ontology/Organisation
p310
aVhttp://schema.org/Organization
p311
aVhttp://dbpedia.org/class/yago/YagoPermanentlyLocatedEntity
p312
aVhttp://dbpedia.org/class/yago/Non-profitOrganizationsBasedInWashington,D.C.
p313
aVhttp://dbpedia.org/class/yago/YagoLegalActor
p314
aVhttp://dbpedia.org/resource/Media_Access_Project
tp315
aa(lp316
((lp317
Vhttp://dbpedia.org/class/yago/Abstraction100002137
p318
aVhttp://dbpedia.org/class/yago/Group100031264
p319
aVhttp://dbpedia.org/class/yago/Organization108008335
p320
aVhttp://dbpedia.org/class/yago/SocialGroup107950920
p321
aVhttp://dbpedia.org/class/yago/YagoLegalActorGeo
p322
aVhttp://www.w3.org/2002/07/owl#Thing
p323
aVhttp://www.ontologydesignpatterns.org/ont/dul/DUL.owl#Agent
p324
aVhttp://www.ontologydesignpatterns.org/ont/dul/DUL.owl#SocialPerson
p325
aVhttp://www.wikidata.org/entity/Q163740
p326
aVhttp://www.wikidata.org/entity/Q43229
p327
aVhttp://dbpedia.org/ontology/Agent
p328
aVhttp://dbpedia.org/ontology/Non-ProfitOrganisation
p329
aVhttp://dbpedia.org/ontology/Organisation
p330
aVhttp://schema.org/Organization
p331
aVhttp://dbpedia.org/class/yago/ConsumerOrganizations
p332
aVhttp://dbpedia.org/class/yago/YagoPermanentlyLocatedEntity
p333
aVhttp://dbpedia.org/class/yago/YagoLegalActor
p334
aVhttp://dbpedia.org/resource/National_Cyber_Security_Alliance
tp335
aa(lp336
((lp337
Vhttp://dbpedia.org/class/yago/Abstraction100002137
p338
aVhttp://dbpedia.org/class/yago/Group100031264
p339
aVhttp://dbpedia.org/class/yago/Organization108008335
p340
aVhttp://dbpedia.org/class/yago/SocialGroup107950920
p341
aVhttp://dbpedia.org/class/yago/YagoLegalActorGeo
p342
aVhttp://www.w3.org/2002/07/owl#Thing
p343
aVhttp://www.ontologydesignpatterns.org/ont/dul/DUL.owl#Agent
p344
aVhttp://www.ontologydesignpatterns.org/ont/dul/DUL.owl#SocialPerson
p345
aVhttp://www.wikidata.org/entity/Q163740
p346
aVhttp://www.wikidata.org/entity/Q43229
p347
aVhttp://dbpedia.org/ontology/Agent
p348
aVhttp://dbpedia.org/ontology/Non-ProfitOrganisation
p349
aVhttp://dbpedia.org/ontology/Organisation
p350
aVhttp://schema.org/Organization
p351
aVhttp://dbpedia.org/class/yago/YagoPermanentlyLocatedEntity
p352
aVhttp://dbpedia.org/class/yago/Non-profitOrganizationsBasedInTheUnitedStates
p353
aVhttp://dbpedia.org/class/yago/OrganizationsEstablishedIn1983
p354
aVhttp://dbpedia.org/class/yago/YagoLegalActor
p355
aVhttp://dbpedia.org/resource/National_Endowment_for_Democracy
tp356
aa(lp357
((lp358
Vhttp://www.w3.org/2002/07/owl#Thing
p359
aVhttp://www.ontologydesignpatterns.org/ont/dul/DUL.owl#Agent
p360
aVhttp://www.ontologydesignpatterns.org/ont/dul/DUL.owl#SocialPerson
p361
aVhttp://www.wikidata.org/entity/Q163740
p362
aVhttp://www.wikidata.org/entity/Q43229
p363
aVhttp://dbpedia.org/ontology/Agent
p364
aVhttp://dbpedia.org/ontology/Non-ProfitOrganisation
p365
aVhttp://dbpedia.org/ontology/Organisation
p366
aVhttp://www.w3.org/2003/01/geo/wgs84_pos#SpatialThing
p367
aVhttp://schema.org/Organization
p368
aVhttp://dbpedia.org/resource/Naval_Enlisted_Reserve_Association
tp369
aa(lp370
((lp371
Vhttp://dbpedia.org/class/yago/Abstraction100002137
p372
aVhttp://dbpedia.org/class/yago/Group100031264
p373
aVhttp://dbpedia.org/class/yago/Organization108008335
p374
aVhttp://dbpedia.org/class/yago/SocialGroup107950920
p375
aVhttp://dbpedia.org/class/yago/YagoLegalActorGeo
p376
aVhttp://www.w3.org/2002/07/owl#Thing
p377
aVhttp://www.ontologydesignpatterns.org/ont/dul/DUL.owl#Agent
p378
aVhttp://www.ontologydesignpatterns.org/ont/dul/DUL.owl#SocialPerson
p379
aVhttp://www.wikidata.org/entity/Q163740
p380
aVhttp://www.wikidata.org/entity/Q43229
p381
aVhttp://dbpedia.org/ontology/Agent
p382
aVhttp://dbpedia.org/ontology/Non-ProfitOrganisation
p383
aVhttp://dbpedia.org/ontology/Organisation
p384
aVhttp://schema.org/Organization
p385
aVhttp://dbpedia.org/class/yago/YagoPermanentlyLocatedEntity
p386
aVhttp://dbpedia.org/class/yago/OrganizationsEstablishedIn1938
p387
aVhttp://dbpedia.org/class/yago/YagoLegalActor
p388
aVhttp://dbpedia.org/class/yago/InternationalNon-profitOrganizations
p389
aVhttp://dbpedia.org/class/yago/InternationalNongovernmentalOrganizations
p390
aVhttp://dbpedia.org/class/yago/NongovernmentalOrganization108009834
p391
aVhttp://dbpedia.org/resource/POWERtalk_International
tp392
aa(lp393
((lp394
Vhttp://dbpedia.org/class/yago/Abstraction100002137
p395
aVhttp://dbpedia.org/class/yago/Group100031264
p396
aVhttp://dbpedia.org/class/yago/Organization108008335
p397
aVhttp://dbpedia.org/class/yago/SocialGroup107950920
p398
aVhttp://dbpedia.org/class/yago/YagoLegalActorGeo
p399
aVhttp://dbpedia.org/class/yago/RomanCatholicOrganizationsEstablishedInThe20thCentury
p400
aVhttp://www.w3.org/2002/07/owl#Thing
p401
aVhttp://www.ontologydesignpatterns.org/ont/dul/DUL.owl#Agent
p402
aVhttp://www.ontologydesignpatterns.org/ont/dul/DUL.owl#SocialPerson
p403
aVhttp://www.wikidata.org/entity/Q163740
p404
aVhttp://www.wikidata.org/entity/Q43229
p405
aVhttp://dbpedia.org/ontology/Agent
p406
aVhttp://dbpedia.org/ontology/Non-ProfitOrganisation
p407
aVhttp://dbpedia.org/ontology/Organisation
p408
aVhttp://schema.org/Organization
p409
aVhttp://umbel.org/umbel/rc/NonProfitOrganization
p410
aVhttp://dbpedia.org/class/yago/YagoPermanentlyLocatedEntity
p411
aVhttp://dbpedia.org/class/yago/Non-profitOrganizationsBasedInCalifornia
p412
aVhttp://dbpedia.org/class/yago/Non-profitOrganizationsBasedInVirginia
p413
aVhttp://dbpedia.org/class/yago/OrganizationsBasedInAlexandria,Virginia
p414
aVhttp://dbpedia.org/class/yago/OrganizationsBasedInLosAngeles,California
p415
aVhttp://dbpedia.org/class/yago/OrganizationsEstablishedIn1995
p416
aVhttp://dbpedia.org/class/yago/PoliticalOrganizationsInTheUnitedStates
p417
aVhttp://dbpedia.org/class/yago/YagoLegalActor
p418
aVhttp://dbpedia.org/class/yago/TelevisionOrganizationsInTheUnitedStates
p419
aVhttp://dbpedia.org/resource/Parents_Television_Council
p420
tp421
aaa.