ccollections
defaultdict
p1
(c__builtin__
dict
p2
tRp3
I0
(dp4
I0
(lp5
sI1
(lp6
Vhttp://www.w3.org/ns/prov#wasDerivedFrom
p7
assI1
(dp8
I0
(lp9
sI1
(lp10
ssI2
(dp11
I0
(lp12
sI1
(lp13
Vhttp://www.w3.org/ns/prov#wasDerivedFrom
p14
assI3
(dp15
I0
(lp16
sI1
(lp17
ssI5
(dp18
I0
(lp19
sI1
(lp20
Vhttp://www.w3.org/ns/prov#wasDerivedFrom
p21
assI6
(dp22
I0
(lp23
sI1
(lp24
ssI7
(dp25
I0
(lp26
sI1
(lp27
ssI8
(dp28
I0
(lp29
sI1
(lp30
ssI9
(dp31
I0
(lp32
sI1
(lp33
ssI10
(dp34
I0
(lp35
sI1
(lp36
ssI11
(dp37
I0
(lp38
sI1
(lp39
Vhttp://www.w3.org/ns/prov#wasDerivedFrom
p40
assI12
(dp41
I0
(lp42
sI1
(lp43
ssI13
(dp44
I0
(lp45
sI1
(lp46
Vhttp://www.w3.org/ns/prov#wasDerivedFrom
p47
assI14
(dp48
I0
(lp49
sI1
(lp50
ssI15
(dp51
I0
(lp52
sI1
(lp53
ssI16
(dp54
I0
(lp55
sI1
(lp56
ssI17
(dp57
I0
(lp58
sI1
(lp59
ssI18
(dp60
I0
(lp61
sI1
(lp62
ss.