(lp1
(lp2
(lp3
a(lp4
a(lp5
((lp6
Vhttp://www.w3.org/2002/07/owl#Thing
p7
aVhttp://dbpedia.org/ontology/Company
p8
aVhttp://www.ontologydesignpatterns.org/ont/dul/DUL.owl#Agent
p9
aVhttp://www.ontologydesignpatterns.org/ont/dul/DUL.owl#SocialPerson
p10
aVhttp://www.wikidata.org/entity/Q43229
p11
aVhttp://dbpedia.org/ontology/Agent
p12
aVhttp://dbpedia.org/ontology/Organisation
p13
aVhttp://schema.org/Organization
p14
aVhttp://umbel.org/umbel/rc/Business
p15
aVhttp://dbpedia.org/class/yago/Abstraction100002137
p16
aVhttp://dbpedia.org/class/yago/Company108058098
p17
aVhttp://dbpedia.org/class/yago/Group100031264
p18
aVhttp://dbpedia.org/class/yago/Institution108053576
p19
aVhttp://dbpedia.org/class/yago/Organization108008335
p20
aVhttp://dbpedia.org/class/yago/SocialGroup107950920
p21
aVhttp://dbpedia.org/class/yago/YagoLegalActorGeo
p22
aVhttp://dbpedia.org/class/yago/CompaniesEstablishedIn1956
p23
aVhttp://dbpedia.org/class/yago/CompaniesOfIceland
p24
aVhttp://dbpedia.org/class/yago/DrugCompany108002578
p25
aVhttp://dbpedia.org/class/yago/YagoPermanentlyLocatedEntity
p26
aVhttp://dbpedia.org/class/yago/MultinationalCompanies
p27
aVhttp://dbpedia.org/class/yago/PharmaceuticalCompanies
p28
aVhttp://dbpedia.org/class/yago/YagoLegalActor
p29
aVhttp://dbpedia.org/resource/Actavis
tp30
aaa(lp31
(lp32
a(lp33
a(lp34
((lp35
Vhttp://www.w3.org/2002/07/owl#Thing
p36
aVhttp://dbpedia.org/ontology/Company
p37
aVhttp://www.ontologydesignpatterns.org/ont/dul/DUL.owl#Agent
p38
aVhttp://www.ontologydesignpatterns.org/ont/dul/DUL.owl#SocialPerson
p39
aVhttp://www.wikidata.org/entity/Q43229
p40
aVhttp://dbpedia.org/ontology/Agent
p41
aVhttp://dbpedia.org/ontology/Organisation
p42
aVhttp://schema.org/Organization
p43
aVhttp://umbel.org/umbel/rc/Business
p44
aVhttp://dbpedia.org/class/yago/Abstraction100002137
p45
aVhttp://dbpedia.org/class/yago/Company108058098
p46
aVhttp://dbpedia.org/class/yago/Group100031264
p47
aVhttp://dbpedia.org/class/yago/Institution108053576
p48
aVhttp://dbpedia.org/class/yago/Organization108008335
p49
aVhttp://dbpedia.org/class/yago/SocialGroup107950920
p50
aVhttp://dbpedia.org/class/yago/YagoLegalActorGeo
p51
aVhttp://dbpedia.org/class/yago/CompaniesEstablishedIn1956
p52
aVhttp://dbpedia.org/class/yago/CompaniesOfIceland
p53
aVhttp://dbpedia.org/class/yago/DrugCompany108002578
p54
aVhttp://dbpedia.org/class/yago/YagoPermanentlyLocatedEntity
p55
aVhttp://dbpedia.org/class/yago/MultinationalCompanies
p56
aVhttp://dbpedia.org/class/yago/PharmaceuticalCompanies
p57
aVhttp://dbpedia.org/class/yago/YagoLegalActor
p58
aVhttp://dbpedia.org/resource/Actavis
tp59
aaa(lp60
(lp61
a(lp62
a(lp63
((lp64
Vhttp://www.w3.org/2002/07/owl#Thing
p65
aVhttp://dbpedia.org/ontology/Company
p66
aVhttp://www.ontologydesignpatterns.org/ont/dul/DUL.owl#Agent
p67
aVhttp://www.ontologydesignpatterns.org/ont/dul/DUL.owl#SocialPerson
p68
aVhttp://www.wikidata.org/entity/Q43229
p69
aVhttp://dbpedia.org/ontology/Agent
p70
aVhttp://dbpedia.org/ontology/Organisation
p71
aVhttp://schema.org/Organization
p72
aVhttp://umbel.org/umbel/rc/Business
p73
aVhttp://dbpedia.org/class/yago/Abstraction100002137
p74
aVhttp://dbpedia.org/class/yago/Company108058098
p75
aVhttp://dbpedia.org/class/yago/Group100031264
p76
aVhttp://dbpedia.org/class/yago/Institution108053576
p77
aVhttp://dbpedia.org/class/yago/Organization108008335
p78
aVhttp://dbpedia.org/class/yago/SocialGroup107950920
p79
aVhttp://dbpedia.org/class/yago/YagoLegalActorGeo
p80
aVhttp://dbpedia.org/class/yago/CompaniesEstablishedIn1956
p81
aVhttp://dbpedia.org/class/yago/CompaniesOfIceland
p82
aVhttp://dbpedia.org/class/yago/DrugCompany108002578
p83
aVhttp://dbpedia.org/class/yago/YagoPermanentlyLocatedEntity
p84
aVhttp://dbpedia.org/class/yago/MultinationalCompanies
p85
aVhttp://dbpedia.org/class/yago/PharmaceuticalCompanies
p86
aVhttp://dbpedia.org/class/yago/YagoLegalActor
p87
aVhttp://dbpedia.org/resource/Actavis
tp88
aaa(lp89
(lp90
a(lp91
a(lp92
((lp93
Vhttp://www.w3.org/2002/07/owl#Thing
p94
aVhttp://dbpedia.org/ontology/Company
p95
aVhttp://www.ontologydesignpatterns.org/ont/dul/DUL.owl#Agent
p96
aVhttp://www.ontologydesignpatterns.org/ont/dul/DUL.owl#SocialPerson
p97
aVhttp://www.wikidata.org/entity/Q43229
p98
aVhttp://dbpedia.org/ontology/Agent
p99
aVhttp://dbpedia.org/ontology/Organisation
p100
aVhttp://schema.org/Organization
p101
aVhttp://umbel.org/umbel/rc/Business
p102
aVhttp://dbpedia.org/class/yago/Abstraction100002137
p103
aVhttp://dbpedia.org/class/yago/Company108058098
p104
aVhttp://dbpedia.org/class/yago/Group100031264
p105
aVhttp://dbpedia.org/class/yago/Institution108053576
p106
aVhttp://dbpedia.org/class/yago/Organization108008335
p107
aVhttp://dbpedia.org/class/yago/SocialGroup107950920
p108
aVhttp://dbpedia.org/class/yago/YagoLegalActorGeo
p109
aVhttp://dbpedia.org/class/yago/CompaniesEstablishedIn1956
p110
aVhttp://dbpedia.org/class/yago/CompaniesOfIceland
p111
aVhttp://dbpedia.org/class/yago/DrugCompany108002578
p112
aVhttp://dbpedia.org/class/yago/YagoPermanentlyLocatedEntity
p113
aVhttp://dbpedia.org/class/yago/MultinationalCompanies
p114
aVhttp://dbpedia.org/class/yago/PharmaceuticalCompanies
p115
aVhttp://dbpedia.org/class/yago/YagoLegalActor
p116
aVhttp://dbpedia.org/resource/Actavis
tp117
aaa(lp118
(lp119
((lp120
Vhttp://www.w3.org/2002/07/owl#Thing
p121
aVhttp://www.ontologydesignpatterns.org/ont/dul/DUL.owl#Agent
p122
aVhttp://www.ontologydesignpatterns.org/ont/dul/DUL.owl#SocialPerson
p123
aVhttp://www.wikidata.org/entity/Q215380
p124
aVhttp://www.wikidata.org/entity/Q43229
p125
aVhttp://dbpedia.org/ontology/Agent
p126
aVhttp://dbpedia.org/ontology/Band
p127
aVhttp://dbpedia.org/ontology/Group
p128
aVhttp://dbpedia.org/ontology/Organisation
p129
aVhttp://schema.org/MusicGroup
p130
aVhttp://schema.org/Organization
p131
aVhttp://dbpedia.org/class/yago/Abstraction100002137
p132
aVhttp://dbpedia.org/class/yago/AmericanIndieRockGroups
p133
aVhttp://dbpedia.org/class/yago/DanceBand108249960
p134
aVhttp://dbpedia.org/class/yago/Group100031264
p135
aVhttp://dbpedia.org/class/yago/MusicalOrganization108246613
p136
aVhttp://dbpedia.org/class/yago/Organization108008335
p137
aVhttp://dbpedia.org/class/yago/RockGroup108250501
p138
aVhttp://dbpedia.org/class/yago/SocialGroup107950920
p139
aVhttp://dbpedia.org/class/yago/YagoLegalActorGeo
p140
aVhttp://dbpedia.org/class/yago/YagoPermanentlyLocatedEntity
p141
aVhttp://dbpedia.org/class/yago/MusicalGroupsDisestablishedIn1999
p142
aVhttp://dbpedia.org/class/yago/MusicalGroupsEstablishedIn1989
p143
aVhttp://dbpedia.org/class/yago/MusicalGroupsFromMassachusetts
p144
aVhttp://dbpedia.org/class/yago/YagoLegalActor
p145
aVhttp://dbpedia.org/resource/Morphine_(band)
tp146
aa(lp147
a(lp148
((lp149
Vhttp://www.w3.org/2002/07/owl#Thing
p150
aVhttp://dbpedia.org/ontology/Company
p151
aVhttp://www.ontologydesignpatterns.org/ont/dul/DUL.owl#Agent
p152
aVhttp://www.ontologydesignpatterns.org/ont/dul/DUL.owl#SocialPerson
p153
aVhttp://www.wikidata.org/entity/Q43229
p154
aVhttp://dbpedia.org/ontology/Agent
p155
aVhttp://dbpedia.org/ontology/Organisation
p156
aVhttp://schema.org/Organization
p157
aVhttp://umbel.org/umbel/rc/Business
p158
aVhttp://dbpedia.org/class/yago/Abstraction100002137
p159
aVhttp://dbpedia.org/class/yago/Company108058098
p160
aVhttp://dbpedia.org/class/yago/Group100031264
p161
aVhttp://dbpedia.org/class/yago/Institution108053576
p162
aVhttp://dbpedia.org/class/yago/Organization108008335
p163
aVhttp://dbpedia.org/class/yago/SocialGroup107950920
p164
aVhttp://dbpedia.org/class/yago/YagoLegalActorGeo
p165
aVhttp://dbpedia.org/class/yago/CompaniesEstablishedIn1956
p166
aVhttp://dbpedia.org/class/yago/CompaniesOfIceland
p167
aVhttp://dbpedia.org/class/yago/DrugCompany108002578
p168
aVhttp://dbpedia.org/class/yago/YagoPermanentlyLocatedEntity
p169
aVhttp://dbpedia.org/class/yago/MultinationalCompanies
p170
aVhttp://dbpedia.org/class/yago/PharmaceuticalCompanies
p171
aVhttp://dbpedia.org/class/yago/YagoLegalActor
p172
aVhttp://dbpedia.org/resource/Actavis
tp173
aaa(lp174
(lp175
((lp176
Vhttp://dbpedia.org/class/yago/Agent114778436
p177
aVhttp://dbpedia.org/class/yago/CausalAgent100007347
p178
aVhttp://dbpedia.org/class/yago/Drug103247620
p179
aVhttp://dbpedia.org/class/yago/Matter100020827
p180
aVhttp://dbpedia.org/class/yago/Medicine103740161
p181
aVhttp://dbpedia.org/class/yago/Ointment103845550
p182
aVhttp://dbpedia.org/class/yago/Remedy104074482
p183
aVhttp://dbpedia.org/class/yago/Substance100020090
p184
aVhttp://dbpedia.org/class/yago/PhysicalEntity100001930
p185
aVhttp://dbpedia.org/class/yago/Ointments
p186
aVhttp://dbpedia.org/resource/Heat_rub
tp187
aa(lp188
a(lp189
((lp190
Vhttp://www.w3.org/2002/07/owl#Thing
p191
aVhttp://dbpedia.org/ontology/Company
p192
aVhttp://www.ontologydesignpatterns.org/ont/dul/DUL.owl#Agent
p193
aVhttp://www.ontologydesignpatterns.org/ont/dul/DUL.owl#SocialPerson
p194
aVhttp://www.wikidata.org/entity/Q43229
p195
aVhttp://dbpedia.org/ontology/Agent
p196
aVhttp://dbpedia.org/ontology/Organisation
p197
aVhttp://schema.org/Organization
p198
aVhttp://umbel.org/umbel/rc/Business
p199
aVhttp://dbpedia.org/class/yago/Abstraction100002137
p200
aVhttp://dbpedia.org/class/yago/Company108058098
p201
aVhttp://dbpedia.org/class/yago/Group100031264
p202
aVhttp://dbpedia.org/class/yago/Institution108053576
p203
aVhttp://dbpedia.org/class/yago/Organization108008335
p204
aVhttp://dbpedia.org/class/yago/SocialGroup107950920
p205
aVhttp://dbpedia.org/class/yago/YagoLegalActorGeo
p206
aVhttp://dbpedia.org/class/yago/CompaniesEstablishedIn1956
p207
aVhttp://dbpedia.org/class/yago/CompaniesOfIceland
p208
aVhttp://dbpedia.org/class/yago/DrugCompany108002578
p209
aVhttp://dbpedia.org/class/yago/YagoPermanentlyLocatedEntity
p210
aVhttp://dbpedia.org/class/yago/MultinationalCompanies
p211
aVhttp://dbpedia.org/class/yago/PharmaceuticalCompanies
p212
aVhttp://dbpedia.org/class/yago/YagoLegalActor
p213
aVhttp://dbpedia.org/resource/Actavis
tp214
aaa(lp215
(lp216
a(lp217
a(lp218
((lp219
Vhttp://www.w3.org/2002/07/owl#Thing
p220
aVhttp://dbpedia.org/ontology/Company
p221
aVhttp://www.ontologydesignpatterns.org/ont/dul/DUL.owl#Agent
p222
aVhttp://www.ontologydesignpatterns.org/ont/dul/DUL.owl#SocialPerson
p223
aVhttp://www.wikidata.org/entity/Q43229
p224
aVhttp://dbpedia.org/ontology/Agent
p225
aVhttp://dbpedia.org/ontology/Organisation
p226
aVhttp://schema.org/Organization
p227
aVhttp://umbel.org/umbel/rc/Business
p228
aVhttp://dbpedia.org/class/yago/Abstraction100002137
p229
aVhttp://dbpedia.org/class/yago/Company108058098
p230
aVhttp://dbpedia.org/class/yago/Group100031264
p231
aVhttp://dbpedia.org/class/yago/Institution108053576
p232
aVhttp://dbpedia.org/class/yago/Organization108008335
p233
aVhttp://dbpedia.org/class/yago/SocialGroup107950920
p234
aVhttp://dbpedia.org/class/yago/YagoLegalActorGeo
p235
aVhttp://dbpedia.org/class/yago/CompaniesEstablishedIn1956
p236
aVhttp://dbpedia.org/class/yago/CompaniesOfIceland
p237
aVhttp://dbpedia.org/class/yago/DrugCompany108002578
p238
aVhttp://dbpedia.org/class/yago/YagoPermanentlyLocatedEntity
p239
aVhttp://dbpedia.org/class/yago/MultinationalCompanies
p240
aVhttp://dbpedia.org/class/yago/PharmaceuticalCompanies
p241
aVhttp://dbpedia.org/class/yago/YagoLegalActor
p242
aVhttp://dbpedia.org/resource/Actavis
tp243
aaa(lp244
(lp245
a(lp246
a(lp247
((lp248
Vhttp://www.w3.org/2002/07/owl#Thing
p249
aVhttp://dbpedia.org/ontology/Company
p250
aVhttp://www.ontologydesignpatterns.org/ont/dul/DUL.owl#Agent
p251
aVhttp://www.ontologydesignpatterns.org/ont/dul/DUL.owl#SocialPerson
p252
aVhttp://www.wikidata.org/entity/Q43229
p253
aVhttp://dbpedia.org/ontology/Agent
p254
aVhttp://dbpedia.org/ontology/Organisation
p255
aVhttp://schema.org/Organization
p256
aVhttp://umbel.org/umbel/rc/Business
p257
aVhttp://dbpedia.org/class/yago/Abstraction100002137
p258
aVhttp://dbpedia.org/class/yago/Company108058098
p259
aVhttp://dbpedia.org/class/yago/Group100031264
p260
aVhttp://dbpedia.org/class/yago/Institution108053576
p261
aVhttp://dbpedia.org/class/yago/Organization108008335
p262
aVhttp://dbpedia.org/class/yago/SocialGroup107950920
p263
aVhttp://dbpedia.org/class/yago/YagoLegalActorGeo
p264
aVhttp://dbpedia.org/class/yago/CompaniesEstablishedIn1956
p265
aVhttp://dbpedia.org/class/yago/CompaniesOfIceland
p266
aVhttp://dbpedia.org/class/yago/DrugCompany108002578
p267
aVhttp://dbpedia.org/class/yago/YagoPermanentlyLocatedEntity
p268
aVhttp://dbpedia.org/class/yago/MultinationalCompanies
p269
aVhttp://dbpedia.org/class/yago/PharmaceuticalCompanies
p270
aVhttp://dbpedia.org/class/yago/YagoLegalActor
p271
aVhttp://dbpedia.org/resource/Actavis
tp272
aaa(lp273
(lp274
a(lp275
a(lp276
((lp277
Vhttp://www.w3.org/2002/07/owl#Thing
p278
aVhttp://dbpedia.org/ontology/Company
p279
aVhttp://www.ontologydesignpatterns.org/ont/dul/DUL.owl#Agent
p280
aVhttp://www.ontologydesignpatterns.org/ont/dul/DUL.owl#SocialPerson
p281
aVhttp://www.wikidata.org/entity/Q43229
p282
aVhttp://dbpedia.org/ontology/Agent
p283
aVhttp://dbpedia.org/ontology/Organisation
p284
aVhttp://schema.org/Organization
p285
aVhttp://umbel.org/umbel/rc/Business
p286
aVhttp://dbpedia.org/class/yago/Abstraction100002137
p287
aVhttp://dbpedia.org/class/yago/Company108058098
p288
aVhttp://dbpedia.org/class/yago/Group100031264
p289
aVhttp://dbpedia.org/class/yago/Institution108053576
p290
aVhttp://dbpedia.org/class/yago/Organization108008335
p291
aVhttp://dbpedia.org/class/yago/SocialGroup107950920
p292
aVhttp://dbpedia.org/class/yago/YagoLegalActorGeo
p293
aVhttp://dbpedia.org/class/yago/CompaniesEstablishedIn1956
p294
aVhttp://dbpedia.org/class/yago/CompaniesOfIceland
p295
aVhttp://dbpedia.org/class/yago/DrugCompany108002578
p296
aVhttp://dbpedia.org/class/yago/YagoPermanentlyLocatedEntity
p297
aVhttp://dbpedia.org/class/yago/MultinationalCompanies
p298
aVhttp://dbpedia.org/class/yago/PharmaceuticalCompanies
p299
aVhttp://dbpedia.org/class/yago/YagoLegalActor
p300
aVhttp://dbpedia.org/resource/Actavis
tp301
aaa(lp302
(lp303
a(lp304
a(lp305
((lp306
Vhttp://www.w3.org/2002/07/owl#Thing
p307
aVhttp://dbpedia.org/ontology/Company
p308
aVhttp://www.ontologydesignpatterns.org/ont/dul/DUL.owl#Agent
p309
aVhttp://www.ontologydesignpatterns.org/ont/dul/DUL.owl#SocialPerson
p310
aVhttp://www.wikidata.org/entity/Q43229
p311
aVhttp://dbpedia.org/ontology/Agent
p312
aVhttp://dbpedia.org/ontology/Organisation
p313
aVhttp://schema.org/Organization
p314
aVhttp://umbel.org/umbel/rc/Business
p315
aVhttp://dbpedia.org/class/yago/Abstraction100002137
p316
aVhttp://dbpedia.org/class/yago/Company108058098
p317
aVhttp://dbpedia.org/class/yago/Group100031264
p318
aVhttp://dbpedia.org/class/yago/Institution108053576
p319
aVhttp://dbpedia.org/class/yago/Organization108008335
p320
aVhttp://dbpedia.org/class/yago/SocialGroup107950920
p321
aVhttp://dbpedia.org/class/yago/YagoLegalActorGeo
p322
aVhttp://dbpedia.org/class/yago/CompaniesEstablishedIn1956
p323
aVhttp://dbpedia.org/class/yago/CompaniesOfIceland
p324
aVhttp://dbpedia.org/class/yago/DrugCompany108002578
p325
aVhttp://dbpedia.org/class/yago/YagoPermanentlyLocatedEntity
p326
aVhttp://dbpedia.org/class/yago/MultinationalCompanies
p327
aVhttp://dbpedia.org/class/yago/PharmaceuticalCompanies
p328
aVhttp://dbpedia.org/class/yago/YagoLegalActor
p329
aVhttp://dbpedia.org/resource/Actavis
p330
tp331
aaa.