(lp1
(dp2
I0
(dp3
I0
(lp4
sI1
(lp5
sI2
(lp6
ssI1
(dp7
I0
g5
sI1
(lp8
sI2
(lp9
ssI2
(dp10
I0
g6
sI1
g9
sI2
(lp11
ssa(dp12
I0
(dp13
I0
(lp14
sI1
(lp15
Vhttp://www.w3.org/ns/prov#wasDerivedFrom
p16
asI2
(lp17
ssI1
(dp18
I0
g15
sI1
(lp19
sI2
(lp20
ssI2
(dp21
I0
g17
sI1
g20
sI2
(lp22
ssa(dp23
I0
(dp24
I0
(lp25
sI1
(lp26
sI2
(lp27
ssI1
(dp28
I0
g26
sI1
(lp29
sI2
(lp30
ssI2
(dp31
I1
g30
sI2
(lp32
ssa(dp33
I0
(dp34
I0
(lp35
sI1
(lp36
Vhttp://www.w3.org/ns/prov#wasDerivedFrom
p37
asI2
(lp38
ssI1
(dp39
I0
g36
sI1
(lp40
sI2
(lp41
ssI2
(dp42
I0
g38
sI1
g41
sI2
(lp43
ssa(dp44
I0
(dp45
I0
(lp46
sI1
(lp47
sI2
(lp48
ssI1
(dp49
I0
g47
sI1
(lp50
sI2
(lp51
ssI2
(dp52
I0
g48
sI1
g51
sI2
(lp53
ssa(dp54
I0
(dp55
I0
(lp56
sI1
(lp57
sI2
(lp58
ssI1
(dp59
I0
g57
sI1
(lp60
sI2
(lp61
ssI2
(dp62
I1
g61
sI2
(lp63
ssa(dp64
I0
(dp65
I0
(lp66
sI1
(lp67
sI2
(lp68
ssI1
(dp69
I0
g67
sI1
(lp70
sI2
(lp71
ssI2
(dp72
I1
g71
sI2
(lp73
ssa(dp74
I0
(dp75
I0
(lp76
sI1
(lp77
sI2
(lp78
ssI1
(dp79
I0
g77
sI1
(lp80
sI2
(lp81
ssI2
(dp82
I1
g81
sI2
(lp83
ssa(dp84
I0
(dp85
I0
(lp86
sI1
(lp87
sI2
(lp88
ssI1
(dp89
I0
g87
sI1
(lp90
sI2
(lp91
ssI2
(dp92
I1
g91
sI2
(lp93
ssa(dp94
I0
(dp95
I0
(lp96
sI1
(lp97
sI2
(lp98
ssI1
(dp99
I0
g97
sI1
(lp100
sI2
(lp101
ssI2
(dp102
I1
g101
sI2
(lp103
ssa(dp104
I0
(dp105
I0
(lp106
sI1
(lp107
sI2
(lp108
ssI1
(dp109
I0
g107
sI1
(lp110
sI2
(lp111
ssI2
(dp112
I1
g111
sI2
(lp113
ssa(dp114
I0
(dp115
I0
(lp116
sI1
(lp117
sI2
(lp118
ssI1
(dp119
I0
g117
sI1
(lp120
sI2
(lp121
ssI2
(dp122
I1
g121
sI2
(lp123
ssa(dp124
I0
(dp125
I0
(lp126
sI1
(lp127
sI2
(lp128
ssI1
(dp129
I0
g127
sI1
(lp130
sI2
(lp131
ssI2
(dp132
I1
g131
sI2
(lp133
ssa(dp134
I0
(dp135
I0
(lp136
sI1
(lp137
sI2
(lp138
ssI1
(dp139
I0
g137
sI1
(lp140
sI2
(lp141
ssI2
(dp142
I1
g141
sI2
(lp143
ssa(dp144
I0
(dp145
I0
(lp146
sI1
(lp147
sI2
(lp148
ssI1
(dp149
I0
g147
sI1
(lp150
sI2
(lp151
ssI2
(dp152
I1
g151
sI2
(lp153
ssa(dp154
I0
(dp155
I0
(lp156
sI1
(lp157
sI2
(lp158
ssI1
(dp159
I0
g157
sI1
(lp160
sI2
(lp161
ssI2
(dp162
I1
g161
sI2
(lp163
ssa(dp164
I0
(dp165
I0
(lp166
sI1
(lp167
sI2
(lp168
ssI1
(dp169
I0
g167
sI1
(lp170
sI2
(lp171
ssI2
(dp172
I0
g168
sI1
g171
sI2
(lp173
ssa(dp174
I0
(dp175
I0
(lp176
sI1
(lp177
sI2
(lp178
ssI1
(dp179
I0
g177
sI1
(lp180
sI2
(lp181
ssI2
(dp182
I0
g178
sI1
g181
sI2
(lp183
ssa(dp184
I0
(dp185
I0
(lp186
sI1
(lp187
Vhttp://www.w3.org/ns/prov#wasDerivedFrom
p188
asI2
(lp189
ssI1
(dp190
I0
g187
sI1
(lp191
sI2
(lp192
ssI2
(dp193
I0
g189
sI1
g192
sI2
(lp194
ssa.