ccollections
defaultdict
p1
(c__builtin__
dict
p2
tRp3
I4
(dp4
I0
(lp5
Vhttp://dbpedia.org/property/origin
p6
aVhttp://dbpedia.org/property/placeOfDeath
p7
aVhttp://dbpedia.org/property/hostCity
p8
aVhttp://dbpedia.org/ontology/PopulatedPlace/areaMetro
p9
aVhttp://dbpedia.org/property/city
p10
aVhttp://dbpedia.org/ontology/garrison
p11
aVhttp://www.w3.org/ns/prov#wasDerivedFrom
p12
aVhttp://dbpedia.org/property/caption
p13
aVhttp://www.w3.org/1999/02/22-rdf-syntax-ns#type
p14
aVhttp://dbpedia.org/property/rd3t3Loc
p15
aVhttp://dbpedia.org/property/assembly
p16
aVhttp://dbpedia.org/property/rd1t2Loc
p17
aVhttp://dbpedia.org/property/birthPlace
p18
aVhttp://dbpedia.org/property/placeOfBirth
p19
aVhttp://dbpedia.org/ontology/wikiPageExternalLink
p20
aVhttp://dbpedia.org/ontology/abstract
p21
aVhttp://dbpedia.org/property/venue
p22
aVhttp://dbpedia.org/property/deathPlace
p23
aVhttp://dbpedia.org/property/location
p24
aVhttp://dbpedia.org/property/homeState
p25
aVhttp://dbpedia.org/ontology/deathPlace
p26
aVhttp://dbpedia.org/ontology/city
p27
aVhttp://dbpedia.org/property/shipNamesake
p28
aVhttp://dbpedia.org/property/rd2t1Loc
p29
aVhttp://www.georss.org/georss/point
p30
aVhttp://dbpedia.org/ontology/assembly
p31
aVhttp://dbpedia.org/ontology/location
p32
aVhttp://www.w3.org/2000/01/rdf-schema#comment
p33
aVhttp://dbpedia.org/ontology/birthPlace
p34
aVhttp://dbpedia.org/property/rd1t1Loc
p35
aVhttp://purl.org/voc/vrank#hasRank
p36
aVhttp://dbpedia.org/property/rd3t1Loc
p37
aVhttp://dbpedia.org/property/stadium
p38
aVhttp://dbpedia.org/property/sedeFinale
p39
aVhttp://dbpedia.org/property/garrison
p40
aVhttp://www.w3.org/2002/07/owl#sameAs
p41
asI2
(lp42
Vhttp://www.w3.org/2000/01/rdf-schema#seeAlso
p43
aVhttp://dbpedia.org/property/origin
p44
aVhttp://dbpedia.org/property/terminusA
p45
aVhttp://dbpedia.org/ontology/routeStart
p46
aVhttp://dbpedia.org/property/timezone
p47
aVhttp://dbpedia.org/ontology/country
p48
aVhttp://dbpedia.org/property/region
p49
aVhttp://www.w3.org/1999/02/22-rdf-syntax-ns#type
p50
aVhttp://dbpedia.org/property/city
p51
aVhttp://dbpedia.org/ontology/capital
p52
aVhttp://dbpedia.org/property/capital
p53
aVhttp://dbpedia.org/property/birthPlace
p54
aVhttp://dbpedia.org/property/placeOfBirth
p55
aVhttp://dbpedia.org/property/state
p56
aVhttp://dbpedia.org/ontology/wikiPageExternalLink
p57
aVhttp://dbpedia.org/property/mapCaption
p58
aVhttp://purl.org/dc/terms/subject
p59
aVhttp://dbpedia.org/ontology/populationPlace
p60
aVhttp://dbpedia.org/ontology/abstract
p61
aVhttp://dbpedia.org/property/pushpinMap
p62
aVhttp://dbpedia.org/property/location
p63
aVhttp://dbpedia.org/ontology/province
p64
aVhttp://dbpedia.org/ontology/headquarter
p65
aVhttp://dbpedia.org/ontology/city
p66
aVhttp://dbpedia.org/property/subdivisionName
p67
aVhttp://dbpedia.org/property/headquarters
p68
aVhttp://dbpedia.org/ontology/state
p69
aVhttp://dbpedia.org/ontology/location
p70
aVhttp://www.w3.org/2000/01/rdf-schema#comment
p71
aVhttp://dbpedia.org/ontology/timeZone
p72
aVhttp://dbpedia.org/ontology/birthPlace
p73
aVhttp://dbpedia.org/ontology/wikiPageRedirects
p74
aVhttp://dbpedia.org/property/area
p75
aVhttp://dbpedia.org/property/locationCity
p76
aVhttp://dbpedia.org/property/province
p77
aVhttp://dbpedia.org/ontology/locationCity
p78
aVhttp://dbpedia.org/property/popplace
p79
aVhttp://dbpedia.org/property/stadium
p80
asI3
(lp81
sI4
(lp82
sI5
(lp83
ss.