(lp1
(lp2
(lp3
a(lp4
aa(lp5
(lp6
a(lp7
aa(lp8
(lp9
a(lp10
aa(lp11
(lp12
a(lp13
aa(lp14
(lp15
a(lp16
aa(lp17
(lp18
((lVhttp://dbpedia.org/resource/LG_GT365
tp19
aa(lp20
aa(lp21
(lp22
a(lp23
aa(lp24
(lp25
a(lp26
aa(lp27
(lp28
((lp29
Vhttp://dbpedia.org/class/yago/Artifact100021939
p30
aVhttp://dbpedia.org/class/yago/Automaton102761392
p31
aVhttp://dbpedia.org/class/yago/Device103183080
p32
aVhttp://dbpedia.org/class/yago/Mechanism103738472
p33
aVhttp://dbpedia.org/class/yago/Object100002684
p34
aVhttp://dbpedia.org/class/yago/Whole100003553
p35
aVhttp://dbpedia.org/class/yago/FictionalRobots
p36
aVhttp://dbpedia.org/class/yago/Instrumentality103575240
p37
aVhttp://dbpedia.org/class/yago/PhysicalEntity100001930
p38
aVhttp://dbpedia.org/resource/Replicant
p39
tp40
aa(lp41
aa(lp42
(lp43
a(lp44
aa(lp45
(lp46
a(lp47
aa(lp48
(lp49
a(lp50
aa(lp51
(lp52
a(lp53
aa(lp54
(lp55
a(lp56
aa(lp57
(lp58
a(lp59
aa(lp60
(lp61
a(lp62
aa(lp63
(lp64
a(lp65
aa(lp66
(lp67
a(lp68
aa(lp69
(lp70
a(lp71
aa.