(lp1
(lp2
(lp3
a(lp4
((lp5
Vhttp://www.w3.org/2002/07/owl#Thing
p6
aVhttp://dbpedia.org/ontology/Company
p7
aVhttp://www.ontologydesignpatterns.org/ont/dul/DUL.owl#Agent
p8
aVhttp://www.ontologydesignpatterns.org/ont/dul/DUL.owl#SocialPerson
p9
aVhttp://www.wikidata.org/entity/Q43229
p10
aVhttp://dbpedia.org/ontology/Agent
p11
aVhttp://dbpedia.org/ontology/Organisation
p12
aVhttp://schema.org/Organization
p13
aVhttp://dbpedia.org/class/yago/Abstraction100002137
p14
aVhttp://dbpedia.org/class/yago/Company108058098
p15
aVhttp://dbpedia.org/class/yago/Group100031264
p16
aVhttp://dbpedia.org/class/yago/Institution108053576
p17
aVhttp://dbpedia.org/class/yago/Organization108008335
p18
aVhttp://dbpedia.org/class/yago/SocialGroup107950920
p19
aVhttp://dbpedia.org/class/yago/YagoLegalActorGeo
p20
aVhttp://dbpedia.org/class/yago/CompaniesEstablishedIn2008
p21
aVhttp://dbpedia.org/class/yago/CompaniesOfBrazil
p22
aVhttp://dbpedia.org/class/yago/YagoPermanentlyLocatedEntity
p23
aVhttp://dbpedia.org/class/yago/MultinationalCompanies
p24
aVhttp://dbpedia.org/class/yago/YagoLegalActor
p25
aVhttp://dbpedia.org/resource/Anheuser-Busch_InBev
tp26
aa(lp27
((lp28
Vhttp://www.w3.org/2002/07/owl#Thing
p29
aVhttp://dbpedia.org/ontology/Place
p30
aVhttp://dbpedia.org/ontology/Location
p31
aVhttp://www.wikidata.org/entity/Q486972
p32
aVhttp://www.wikidata.org/entity/Q6256
p33
aVhttp://dbpedia.org/ontology/Country
p34
aVhttp://dbpedia.org/ontology/PopulatedPlace
p35
aVhttp://www.w3.org/2003/01/geo/wgs84_pos#SpatialThing
p36
aVhttp://schema.org/Country
p37
aVhttp://schema.org/Place
p38
aVhttp://umbel.org/umbel/rc/Country
p39
aVhttp://umbel.org/umbel/rc/Location_Underspecified
p40
aVhttp://umbel.org/umbel/rc/PopulatedPlace
p41
aVhttp://dbpedia.org/class/yago/Abstraction100002137
p42
aVhttp://dbpedia.org/class/yago/AdministrativeDistrict108491826
p43
aVhttp://dbpedia.org/class/yago/Country108544813
p44
aVhttp://dbpedia.org/class/yago/District108552138
p45
aVhttp://dbpedia.org/class/yago/Economy108366753
p46
aVhttp://dbpedia.org/class/yago/Group100031264
p47
aVhttp://dbpedia.org/class/yago/Location100027167
p48
aVhttp://dbpedia.org/class/yago/Object100002684
p49
aVhttp://dbpedia.org/class/yago/Region108630985
p50
aVhttp://dbpedia.org/class/yago/System108435388
p51
aVhttp://dbpedia.org/class/yago/YagoGeoEntity
p52
aVhttp://dbpedia.org/class/yago/YagoLegalActorGeo
p53
aVhttp://dbpedia.org/class/yago/CountriesBorderingTheAtlanticOcean
p54
aVhttp://dbpedia.org/class/yago/Dutch-speakingCountries
p55
aVhttp://dbpedia.org/class/yago/EuropeanCountries
p56
aVhttp://dbpedia.org/class/yago/EuropeanUnionMemberEconomies
p57
aVhttp://dbpedia.org/class/yago/FederalCountries
p58
aVhttp://dbpedia.org/class/yago/French-speakingCountries
p59
aVhttp://dbpedia.org/class/yago/PhysicalEntity100001930
p60
aVhttp://dbpedia.org/class/yago/YagoPermanentlyLocatedEntity
p61
aVhttp://dbpedia.org/class/yago/German-speakingCountries
p62
aVhttp://dbpedia.org/class/yago/MemberStatesOfLaFrancophonie
p63
aVhttp://dbpedia.org/class/yago/MemberStatesOfNATO
p64
aVhttp://dbpedia.org/class/yago/MemberStatesOfTheCouncilOfEurope
p65
aVhttp://dbpedia.org/class/yago/MemberStatesOfTheDutchLanguageUnion
p66
aVhttp://dbpedia.org/class/yago/MemberStatesOfTheEuropeanUnion
p67
aVhttp://dbpedia.org/class/yago/MemberStatesOfTheUnionForTheMediterranean
p68
aVhttp://dbpedia.org/class/yago/MemberStatesOfTheUnitedNations
p69
aVhttp://dbpedia.org/class/yago/StatesAndTerritoriesEstablishedIn1830
p70
aVhttp://dbpedia.org/resource/Belgium
tp71
aa(lp72
a(lp73
((lp74
Vhttp://dbpedia.org/class/yago/Abstraction100002137
p75
aVhttp://dbpedia.org/class/yago/Anheuser-BuschBeerBrands
p76
aVhttp://dbpedia.org/class/yago/Name106333653
p77
aVhttp://dbpedia.org/class/yago/Part113809207
p78
aVhttp://dbpedia.org/class/yago/Relation100031921
p79
aVhttp://dbpedia.org/class/yago/TradeName106845599
p80
aVhttp://dbpedia.org/class/yago/LanguageUnit106284225
p81
aVhttp://dbpedia.org/resource/Anheuser-Busch_brands
tp82
aaa(lp83
(lp84
a(lp85
((lp86
Vhttp://www.w3.org/2002/07/owl#Thing
p87
aVhttp://dbpedia.org/ontology/Company
p88
aVhttp://www.ontologydesignpatterns.org/ont/dul/DUL.owl#Agent
p89
aVhttp://www.ontologydesignpatterns.org/ont/dul/DUL.owl#SocialPerson
p90
aVhttp://www.wikidata.org/entity/Q43229
p91
aVhttp://dbpedia.org/ontology/Agent
p92
aVhttp://dbpedia.org/ontology/Organisation
p93
aVhttp://schema.org/Organization
p94
aVhttp://umbel.org/umbel/rc/Business
p95
aVhttp://dbpedia.org/class/yago/Abstraction100002137
p96
aVhttp://dbpedia.org/class/yago/Company108058098
p97
aVhttp://dbpedia.org/class/yago/Group100031264
p98
aVhttp://dbpedia.org/class/yago/Institution108053576
p99
aVhttp://dbpedia.org/class/yago/Organization108008335
p100
aVhttp://dbpedia.org/class/yago/SocialGroup107950920
p101
aVhttp://dbpedia.org/class/yago/YagoLegalActorGeo
p102
aVhttp://dbpedia.org/class/yago/CompaniesEstablishedIn1864
p103
aVhttp://dbpedia.org/class/yago/CompaniesOfTheNetherlands
p104
aVhttp://dbpedia.org/class/yago/YagoPermanentlyLocatedEntity
p105
aVhttp://dbpedia.org/class/yago/MultinationalCompaniesHeadquarteredInTheNetherlands
p106
aVhttp://dbpedia.org/class/yago/YagoLegalActor
p107
aVhttp://dbpedia.org/resource/Heineken_International
tp108
aa(lp109
((lp110
Vhttp://www.w3.org/2002/07/owl#Thing
p111
aVhttp://dbpedia.org/ontology/Place
p112
aVhttp://dbpedia.org/ontology/Location
p113
aVhttp://www.wikidata.org/entity/Q486972
p114
aVhttp://www.wikidata.org/entity/Q515
p115
aVhttp://dbpedia.org/ontology/City
p116
aVhttp://dbpedia.org/ontology/PopulatedPlace
p117
aVhttp://dbpedia.org/ontology/Settlement
p118
aVhttp://www.w3.org/2003/01/geo/wgs84_pos#SpatialThing
p119
aVhttp://schema.org/City
p120
aVhttp://schema.org/Place
p121
aVhttp://umbel.org/umbel/rc/City
p122
aVhttp://umbel.org/umbel/rc/Location_Underspecified
p123
aVhttp://umbel.org/umbel/rc/PopulatedPlace
p124
aVhttp://umbel.org/umbel/rc/Village
p125
aVhttp://dbpedia.org/class/yago/1928SummerOlympicVenues
p126
aVhttp://dbpedia.org/class/yago/AdministrativeDistrict108491826
p127
aVhttp://dbpedia.org/class/yago/Area108497294
p128
aVhttp://dbpedia.org/class/yago/Capital108518505
p129
aVhttp://dbpedia.org/class/yago/CapitalsInEurope
p130
aVhttp://dbpedia.org/class/yago/Center108523483
p131
aVhttp://dbpedia.org/class/yago/City108524735
p132
aVhttp://dbpedia.org/class/yago/District108552138
p133
aVhttp://dbpedia.org/class/yago/Location100027167
p134
aVhttp://dbpedia.org/class/yago/Object100002684
p135
aVhttp://dbpedia.org/class/yago/Region108630985
p136
aVhttp://dbpedia.org/class/yago/Seat108647945
p137
aVhttp://dbpedia.org/class/yago/Site108651247
p138
aVhttp://dbpedia.org/class/yago/Tract108673395
p139
aVhttp://dbpedia.org/class/yago/UrbanArea108675967
p140
aVhttp://dbpedia.org/class/yago/Venue108677628
p141
aVhttp://dbpedia.org/class/yago/YagoGeoEntity
p142
aVhttp://dbpedia.org/class/yago/YagoLegalActorGeo
p143
aVhttp://dbpedia.org/class/yago/CitiesInTheNetherlands
p144
aVhttp://dbpedia.org/class/yago/EuropeanCapitalsOfCulture
p145
aVhttp://dbpedia.org/class/yago/GeographicalArea108574314
p146
aVhttp://dbpedia.org/class/yago/Municipality108626283
p147
aVhttp://dbpedia.org/class/yago/PhysicalEntity100001930
p148
aVhttp://dbpedia.org/class/yago/Scene108645963
p149
aVhttp://dbpedia.org/class/yago/YagoPermanentlyLocatedEntity
p150
aVhttp://dbpedia.org/class/yago/HostCitiesOfTheSummerOlympicGames
p151
aVhttp://dbpedia.org/class/yago/PopulatedPlacesEstablishedInThe13thCentury
p152
aVhttp://dbpedia.org/class/yago/PopulatedPlacesInNorthHolland
p153
aVhttp://dbpedia.org/class/yago/PortCitiesAndTownsInTheNetherlands
p154
aVhttp://dbpedia.org/class/yago/PortCitiesAndTownsOfTheNorthSea
p155
aVhttp://dbpedia.org/resource/Amsterdam
tp156
aa(lp157
a(lp158
((lp159
Vhttp://www.w3.org/2002/07/owl#Thing
p160
aVhttp://dbpedia.org/ontology/Company
p161
aVhttp://www.ontologydesignpatterns.org/ont/dul/DUL.owl#Agent
p162
aVhttp://www.ontologydesignpatterns.org/ont/dul/DUL.owl#SocialPerson
p163
aVhttp://www.wikidata.org/entity/Q43229
p164
aVhttp://dbpedia.org/ontology/Agent
p165
aVhttp://dbpedia.org/ontology/Organisation
p166
aVhttp://schema.org/Organization
p167
aVhttp://umbel.org/umbel/rc/Business
p168
aVhttp://dbpedia.org/class/yago/Abstraction100002137
p169
aVhttp://dbpedia.org/class/yago/Company108058098
p170
aVhttp://dbpedia.org/class/yago/Group100031264
p171
aVhttp://dbpedia.org/class/yago/Institution108053576
p172
aVhttp://dbpedia.org/class/yago/Organization108008335
p173
aVhttp://dbpedia.org/class/yago/SocialGroup107950920
p174
aVhttp://dbpedia.org/class/yago/YagoLegalActorGeo
p175
aVhttp://dbpedia.org/class/yago/CompaniesEstablishedIn1864
p176
aVhttp://dbpedia.org/class/yago/CompaniesOfTheNetherlands
p177
aVhttp://dbpedia.org/class/yago/YagoPermanentlyLocatedEntity
p178
aVhttp://dbpedia.org/class/yago/MultinationalCompaniesHeadquarteredInTheNetherlands
p179
aVhttp://dbpedia.org/class/yago/YagoLegalActor
p180
aVhttp://dbpedia.org/resource/Heineken_International
tp181
aaa(lp182
(lp183
a(lp184
((lp185
Vhttp://www.w3.org/2002/07/owl#Thing
p186
aVhttp://dbpedia.org/ontology/Company
p187
aVhttp://www.ontologydesignpatterns.org/ont/dul/DUL.owl#Agent
p188
aVhttp://www.ontologydesignpatterns.org/ont/dul/DUL.owl#SocialPerson
p189
aVhttp://www.wikidata.org/entity/Q43229
p190
aVhttp://dbpedia.org/ontology/Agent
p191
aVhttp://dbpedia.org/ontology/Organisation
p192
aVhttp://schema.org/Organization
p193
aVhttp://umbel.org/umbel/rc/Business
p194
aVhttp://umbel.org/umbel/rc/Organization
p195
aVhttp://dbpedia.org/class/yago/Abstraction100002137
p196
aVhttp://dbpedia.org/class/yago/Company108058098
p197
aVhttp://dbpedia.org/class/yago/Group100031264
p198
aVhttp://dbpedia.org/class/yago/Institution108053576
p199
aVhttp://dbpedia.org/class/yago/Organization108008335
p200
aVhttp://dbpedia.org/class/yago/SocialGroup107950920
p201
aVhttp://dbpedia.org/class/yago/YagoLegalActorGeo
p202
aVhttp://dbpedia.org/class/yago/CompaniesBasedInLondon
p203
aVhttp://dbpedia.org/class/yago/CompaniesEstablishedIn1895
p204
aVhttp://dbpedia.org/class/yago/CompaniesListedOnTheLondonStockExchange
p205
aVhttp://dbpedia.org/class/yago/YagoPermanentlyLocatedEntity
p206
aVhttp://dbpedia.org/class/yago/YagoLegalActor
p207
aVhttp://dbpedia.org/resource/SABMiller
tp208
aa(lp209
((lp210
Vhttp://www.w3.org/2002/07/owl#Thing
p211
aVhttp://dbpedia.org/ontology/Place
p212
aVhttp://dbpedia.org/ontology/Location
p213
aVhttp://www.wikidata.org/entity/Q486972
p214
aVhttp://dbpedia.org/ontology/PopulatedPlace
p215
aVhttp://dbpedia.org/ontology/Settlement
p216
aVhttp://www.w3.org/2003/01/geo/wgs84_pos#SpatialThing
p217
aVhttp://schema.org/Place
p218
aVhttp://umbel.org/umbel/rc/Location_Underspecified
p219
aVhttp://umbel.org/umbel/rc/PopulatedPlace
p220
aVhttp://umbel.org/umbel/rc/Village
p221
aVhttp://dbpedia.org/class/yago/AdministrativeDistrict108491826
p222
aVhttp://dbpedia.org/class/yago/Area108497294
p223
aVhttp://dbpedia.org/class/yago/ArthurianLocations
p224
aVhttp://dbpedia.org/class/yago/BritishCapitals
p225
aVhttp://dbpedia.org/class/yago/Capital108518505
p226
aVhttp://dbpedia.org/class/yago/CapitalsInEurope
p227
aVhttp://dbpedia.org/class/yago/Center108523483
p228
aVhttp://dbpedia.org/class/yago/City108524735
p229
aVhttp://dbpedia.org/class/yago/District108552138
p230
aVhttp://dbpedia.org/class/yago/GeographicPoint108578706
p231
aVhttp://dbpedia.org/class/yago/Location100027167
p232
aVhttp://dbpedia.org/class/yago/Object100002684
p233
aVhttp://dbpedia.org/class/yago/Point108620061
p234
aVhttp://dbpedia.org/class/yago/Port108633957
p235
aVhttp://dbpedia.org/class/yago/Region108630985
p236
aVhttp://dbpedia.org/class/yago/Seat108647945
p237
aVhttp://dbpedia.org/class/yago/Site108651247
p238
aVhttp://dbpedia.org/class/yago/Tract108673395
p239
aVhttp://dbpedia.org/class/yago/UrbanArea108675967
p240
aVhttp://dbpedia.org/class/yago/YagoGeoEntity
p241
aVhttp://dbpedia.org/class/yago/YagoLegalActorGeo
p242
aVhttp://dbpedia.org/class/yago/GeographicalArea108574314
p243
aVhttp://dbpedia.org/class/yago/Municipality108626283
p244
aVhttp://dbpedia.org/class/yago/PhysicalEntity100001930
p245
aVhttp://dbpedia.org/class/yago/YagoPermanentlyLocatedEntity
p246
aVhttp://dbpedia.org/class/yago/HostCitiesOfTheCommonwealthGames
p247
aVhttp://dbpedia.org/class/yago/HostCitiesOfTheSummerOlympicGames
p248
aVhttp://dbpedia.org/class/yago/PopulatedPlacesEstablishedInThe1stCentury
p249
aVhttp://dbpedia.org/class/yago/PortCitiesAndTownsInTheUnitedKingdom
p250
aVhttp://dbpedia.org/class/yago/RobinHoodLocations
p251
aVhttp://dbpedia.org/class/yago/StaplePorts
p252
aVhttp://dbpedia.org/resource/London
tp253
aa(lp254
a(lp255
aa(lp256
(lp257
a(lp258
((lp259
Vhttp://www.w3.org/2002/07/owl#Thing
p260
aVhttp://dbpedia.org/ontology/Company
p261
aVhttp://www.ontologydesignpatterns.org/ont/dul/DUL.owl#Agent
p262
aVhttp://www.ontologydesignpatterns.org/ont/dul/DUL.owl#SocialPerson
p263
aVhttp://www.wikidata.org/entity/Q43229
p264
aVhttp://dbpedia.org/ontology/Agent
p265
aVhttp://dbpedia.org/ontology/Organisation
p266
aVhttp://schema.org/Organization
p267
aVhttp://umbel.org/umbel/rc/Business
p268
aVhttp://umbel.org/umbel/rc/Organization
p269
aVhttp://dbpedia.org/class/yago/Abstraction100002137
p270
aVhttp://dbpedia.org/class/yago/BeverageCompaniesOfTheUnitedKingdom
p271
aVhttp://dbpedia.org/class/yago/Company108058098
p272
aVhttp://dbpedia.org/class/yago/Group100031264
p273
aVhttp://dbpedia.org/class/yago/Institution108053576
p274
aVhttp://dbpedia.org/class/yago/Organization108008335
p275
aVhttp://dbpedia.org/class/yago/SocialGroup107950920
p276
aVhttp://dbpedia.org/class/yago/YagoLegalActorGeo
p277
aVhttp://dbpedia.org/class/yago/CompaniesEstablishedIn1997
p278
aVhttp://dbpedia.org/class/yago/CompaniesListedOnTheLondonStockExchange
p279
aVhttp://dbpedia.org/class/yago/FoodCompany108003427
p280
aVhttp://dbpedia.org/class/yago/YagoPermanentlyLocatedEntity
p281
aVhttp://dbpedia.org/class/yago/MultinationalFoodCompanies
p282
aVhttp://dbpedia.org/class/yago/YagoLegalActor
p283
aVhttp://dbpedia.org/resource/Diageo
tp284
aa(lp285
((lp286
Vhttp://www.w3.org/2002/07/owl#Thing
p287
aVhttp://dbpedia.org/ontology/Place
p288
aVhttp://dbpedia.org/ontology/Location
p289
aVhttp://www.wikidata.org/entity/Q486972
p290
aVhttp://dbpedia.org/ontology/PopulatedPlace
p291
aVhttp://dbpedia.org/ontology/Settlement
p292
aVhttp://www.w3.org/2003/01/geo/wgs84_pos#SpatialThing
p293
aVhttp://schema.org/Place
p294
aVhttp://umbel.org/umbel/rc/Location_Underspecified
p295
aVhttp://umbel.org/umbel/rc/PopulatedPlace
p296
aVhttp://umbel.org/umbel/rc/Village
p297
aVhttp://dbpedia.org/class/yago/AdministrativeDistrict108491826
p298
aVhttp://dbpedia.org/class/yago/Area108497294
p299
aVhttp://dbpedia.org/class/yago/ArthurianLocations
p300
aVhttp://dbpedia.org/class/yago/BritishCapitals
p301
aVhttp://dbpedia.org/class/yago/Capital108518505
p302
aVhttp://dbpedia.org/class/yago/CapitalsInEurope
p303
aVhttp://dbpedia.org/class/yago/Center108523483
p304
aVhttp://dbpedia.org/class/yago/City108524735
p305
aVhttp://dbpedia.org/class/yago/District108552138
p306
aVhttp://dbpedia.org/class/yago/GeographicPoint108578706
p307
aVhttp://dbpedia.org/class/yago/Location100027167
p308
aVhttp://dbpedia.org/class/yago/Object100002684
p309
aVhttp://dbpedia.org/class/yago/Point108620061
p310
aVhttp://dbpedia.org/class/yago/Port108633957
p311
aVhttp://dbpedia.org/class/yago/Region108630985
p312
aVhttp://dbpedia.org/class/yago/Seat108647945
p313
aVhttp://dbpedia.org/class/yago/Site108651247
p314
aVhttp://dbpedia.org/class/yago/Tract108673395
p315
aVhttp://dbpedia.org/class/yago/UrbanArea108675967
p316
aVhttp://dbpedia.org/class/yago/YagoGeoEntity
p317
aVhttp://dbpedia.org/class/yago/YagoLegalActorGeo
p318
aVhttp://dbpedia.org/class/yago/GeographicalArea108574314
p319
aVhttp://dbpedia.org/class/yago/Municipality108626283
p320
aVhttp://dbpedia.org/class/yago/PhysicalEntity100001930
p321
aVhttp://dbpedia.org/class/yago/YagoPermanentlyLocatedEntity
p322
aVhttp://dbpedia.org/class/yago/HostCitiesOfTheCommonwealthGames
p323
aVhttp://dbpedia.org/class/yago/HostCitiesOfTheSummerOlympicGames
p324
aVhttp://dbpedia.org/class/yago/PopulatedPlacesEstablishedInThe1stCentury
p325
aVhttp://dbpedia.org/class/yago/PortCitiesAndTownsInTheUnitedKingdom
p326
aVhttp://dbpedia.org/class/yago/RobinHoodLocations
p327
aVhttp://dbpedia.org/class/yago/StaplePorts
p328
aVhttp://dbpedia.org/resource/London
tp329
aa(lp330
a(lp331
((lp332
Vhttp://www.w3.org/2002/07/owl#Thing
p333
aVhttp://dbpedia.org/class/yago/Abstraction100002137
p334
aVhttp://dbpedia.org/class/yago/Family108078020
p335
aVhttp://dbpedia.org/class/yago/Group100031264
p336
aVhttp://dbpedia.org/class/yago/Organization108008335
p337
aVhttp://dbpedia.org/class/yago/SocialGroup107950920
p338
aVhttp://dbpedia.org/class/yago/Unit108189659
p339
aVhttp://dbpedia.org/class/yago/YagoLegalActorGeo
p340
aVhttp://dbpedia.org/class/yago/YagoPermanentlyLocatedEntity
p341
aVhttp://dbpedia.org/class/yago/IrishFamilies
p342
aVhttp://dbpedia.org/class/yago/YagoLegalActor
p343
aVhttp://dbpedia.org/resource/Guinness_family
tp344
aaa(lp345
(lp346
a(lp347
((lp348
Vhttp://www.w3.org/2002/07/owl#Thing
p349
aVhttp://dbpedia.org/ontology/Company
p350
aVhttp://www.ontologydesignpatterns.org/ont/dul/DUL.owl#Agent
p351
aVhttp://www.ontologydesignpatterns.org/ont/dul/DUL.owl#SocialPerson
p352
aVhttp://www.wikidata.org/entity/Q43229
p353
aVhttp://dbpedia.org/ontology/Agent
p354
aVhttp://dbpedia.org/ontology/Organisation
p355
aVhttp://schema.org/Organization
p356
aVhttp://dbpedia.org/class/yago/Abstraction100002137
p357
aVhttp://dbpedia.org/class/yago/Company108058098
p358
aVhttp://dbpedia.org/class/yago/Group100031264
p359
aVhttp://dbpedia.org/class/yago/Institution108053576
p360
aVhttp://dbpedia.org/class/yago/Organization108008335
p361
aVhttp://dbpedia.org/class/yago/SocialGroup107950920
p362
aVhttp://dbpedia.org/class/yago/YagoLegalActorGeo
p363
aVhttp://dbpedia.org/class/yago/CompaniesListedOnTheBolsaMexicanaDeValores
p364
aVhttp://dbpedia.org/class/yago/YagoPermanentlyLocatedEntity
p365
aVhttp://dbpedia.org/class/yago/YagoLegalActor
p366
aVhttp://dbpedia.org/resource/Grupo_Modelo
tp367
aa(lp368
a(lp369
a(lp370
aa(lp371
(lp372
a(lp373
a(lp374
((lp375
Vhttp://www.w3.org/2002/07/owl#Thing
p376
aVhttp://dbpedia.org/ontology/Place
p377
aVhttp://dbpedia.org/ontology/Location
p378
aVhttp://www.wikidata.org/entity/Q486972
p379
aVhttp://www.wikidata.org/entity/Q6256
p380
aVhttp://dbpedia.org/ontology/Country
p381
aVhttp://dbpedia.org/ontology/PopulatedPlace
p382
aVhttp://www.w3.org/2003/01/geo/wgs84_pos#SpatialThing
p383
aVhttp://schema.org/Country
p384
aVhttp://schema.org/Place
p385
aVhttp://umbel.org/umbel/rc/Country
p386
aVhttp://umbel.org/umbel/rc/Location_Underspecified
p387
aVhttp://umbel.org/umbel/rc/PopulatedPlace
p388
aVhttp://dbpedia.org/class/yago/Abstraction100002137
p389
aVhttp://dbpedia.org/class/yago/AdministrativeDistrict108491826
p390
aVhttp://dbpedia.org/class/yago/Country108544813
p391
aVhttp://dbpedia.org/class/yago/District108552138
p392
aVhttp://dbpedia.org/class/yago/Economy108366753
p393
aVhttp://dbpedia.org/class/yago/Group100031264
p394
aVhttp://dbpedia.org/class/yago/Island109316454
p395
aVhttp://dbpedia.org/class/yago/Land109334396
p396
aVhttp://dbpedia.org/class/yago/Location100027167
p397
aVhttp://dbpedia.org/class/yago/Object100002684
p398
aVhttp://dbpedia.org/class/yago/Region108630985
p399
aVhttp://dbpedia.org/class/yago/System108435388
p400
aVhttp://dbpedia.org/class/yago/YagoGeoEntity
p401
aVhttp://dbpedia.org/class/yago/YagoLegalActorGeo
p402
aVhttp://dbpedia.org/class/yago/CountriesBorderingThePacificOcean
p403
aVhttp://dbpedia.org/class/yago/CountriesOfTheIndianOcean
p404
aVhttp://dbpedia.org/class/yago/English-speakingCountriesAndTerritories
p405
aVhttp://dbpedia.org/class/yago/FederalCountries
p406
aVhttp://dbpedia.org/class/yago/PhysicalEntity100001930
p407
aVhttp://dbpedia.org/class/yago/YagoPermanentlyLocatedEntity
p408
aVhttp://dbpedia.org/class/yago/Islands
p409
aVhttp://dbpedia.org/class/yago/MemberStatesOfTheCommonwealthOfNations
p410
aVhttp://dbpedia.org/class/yago/MemberStatesOfTheUnitedNations
p411
aVhttp://dbpedia.org/class/yago/OceanianCountries
p412
aVhttp://dbpedia.org/class/yago/StatesAndTerritoriesEstablishedIn1901
p413
aVhttp://dbpedia.org/class/yago/WorldTradeOrganizationMemberEconomies
p414
aVhttp://dbpedia.org/resource/Australia
tp415
aa(lp416
a(lp417
aa(lp418
(lp419
a(lp420
((lp421
Vhttp://www.w3.org/2002/07/owl#Thing
p422
aVhttp://dbpedia.org/ontology/Company
p423
aVhttp://www.ontologydesignpatterns.org/ont/dul/DUL.owl#Agent
p424
aVhttp://www.ontologydesignpatterns.org/ont/dul/DUL.owl#SocialPerson
p425
aVhttp://www.wikidata.org/entity/Q43229
p426
aVhttp://dbpedia.org/ontology/Agent
p427
aVhttp://dbpedia.org/ontology/Organisation
p428
aVhttp://schema.org/Organization
p429
aVhttp://umbel.org/umbel/rc/Business
p430
aVhttp://umbel.org/umbel/rc/Organization
p431
aVhttp://dbpedia.org/class/yago/Abstraction100002137
p432
aVhttp://dbpedia.org/class/yago/Company108058098
p433
aVhttp://dbpedia.org/class/yago/Group100031264
p434
aVhttp://dbpedia.org/class/yago/Institution108053576
p435
aVhttp://dbpedia.org/class/yago/Organization108008335
p436
aVhttp://dbpedia.org/class/yago/SocialGroup107950920
p437
aVhttp://dbpedia.org/class/yago/YagoLegalActorGeo
p438
aVhttp://dbpedia.org/class/yago/CompaniesBasedInDenver,Colorado
p439
aVhttp://dbpedia.org/class/yago/CompaniesBasedInMontreal
p440
aVhttp://dbpedia.org/class/yago/CompaniesEstablishedIn2005
p441
aVhttp://dbpedia.org/class/yago/YagoPermanentlyLocatedEntity
p442
aVhttp://dbpedia.org/class/yago/YagoLegalActor
p443
aVhttp://dbpedia.org/resource/Molson_Coors_Brewing_Company
tp444
aa(lp445
((lp446
Vhttp://www.w3.org/2002/07/owl#Thing
p447
aVhttp://dbpedia.org/ontology/Place
p448
aVhttp://dbpedia.org/ontology/Location
p449
aVhttp://www.wikidata.org/entity/Q486972
p450
aVhttp://dbpedia.org/ontology/PopulatedPlace
p451
aVhttp://dbpedia.org/ontology/Settlement
p452
aVhttp://www.w3.org/2003/01/geo/wgs84_pos#SpatialThing
p453
aVhttp://schema.org/Place
p454
aVhttp://umbel.org/umbel/rc/City
p455
aVhttp://dbpedia.org/class/yago/AdministrativeDistrict108491826
p456
aVhttp://dbpedia.org/class/yago/Area108497294
p457
aVhttp://dbpedia.org/class/yago/Center108523483
p458
aVhttp://dbpedia.org/class/yago/City108524735
p459
aVhttp://dbpedia.org/class/yago/Country108544813
p460
aVhttp://dbpedia.org/class/yago/District108552138
p461
aVhttp://dbpedia.org/class/yago/Location100027167
p462
aVhttp://dbpedia.org/class/yago/Object100002684
p463
aVhttp://dbpedia.org/class/yago/Region108630985
p464
aVhttp://dbpedia.org/class/yago/Seat108647945
p465
aVhttp://dbpedia.org/class/yago/Site108651247
p466
aVhttp://dbpedia.org/class/yago/Tract108673395
p467
aVhttp://dbpedia.org/class/yago/UrbanArea108675967
p468
aVhttp://dbpedia.org/class/yago/YagoGeoEntity
p469
aVhttp://dbpedia.org/class/yago/YagoLegalActorGeo
p470
aVhttp://dbpedia.org/class/yago/CitiesInColorado
p471
aVhttp://dbpedia.org/class/yago/CountySeat108547143
p472
aVhttp://dbpedia.org/class/yago/CountySeatsInColorado
p473
aVhttp://dbpedia.org/class/yago/GeographicalArea108574314
p474
aVhttp://dbpedia.org/class/yago/Municipality108626283
p475
aVhttp://dbpedia.org/class/yago/PhysicalEntity100001930
p476
aVhttp://dbpedia.org/class/yago/YagoPermanentlyLocatedEntity
p477
aVhttp://dbpedia.org/class/yago/PopulatedPlacesInJeffersonCounty,Colorado
p478
aVhttp://dbpedia.org/class/yago/UnitedStatesColonialAndTerritorialCapitals
p479
aVhttp://dbpedia.org/resource/Golden,_Colorado
tp480
aa(lp481
a(lp482
aa(lp483
(lp484
a(lp485
((lp486
Vhttp://www.w3.org/2002/07/owl#Thing
p487
aVhttp://dbpedia.org/ontology/Company
p488
aVhttp://www.ontologydesignpatterns.org/ont/dul/DUL.owl#Agent
p489
aVhttp://www.ontologydesignpatterns.org/ont/dul/DUL.owl#SocialPerson
p490
aVhttp://www.wikidata.org/entity/Q43229
p491
aVhttp://dbpedia.org/ontology/Agent
p492
aVhttp://dbpedia.org/ontology/Organisation
p493
aVhttp://schema.org/Organization
p494
aVhttp://umbel.org/umbel/rc/Business
p495
aVhttp://dbpedia.org/class/yago/Abstraction100002137
p496
aVhttp://dbpedia.org/class/yago/Company108058098
p497
aVhttp://dbpedia.org/class/yago/Group100031264
p498
aVhttp://dbpedia.org/class/yago/Institution108053576
p499
aVhttp://dbpedia.org/class/yago/Organization108008335
p500
aVhttp://dbpedia.org/class/yago/SocialGroup107950920
p501
aVhttp://dbpedia.org/class/yago/YagoLegalActorGeo
p502
aVhttp://dbpedia.org/class/yago/CompaniesBasedInDuPageCounty,Illinois
p503
aVhttp://dbpedia.org/class/yago/CompaniesBasedInMilwaukee,Wisconsin
p504
aVhttp://dbpedia.org/class/yago/CompaniesEstablishedIn1844
p505
aVhttp://dbpedia.org/class/yago/YagoPermanentlyLocatedEntity
p506
aVhttp://dbpedia.org/class/yago/YagoLegalActor
p507
aVhttp://dbpedia.org/resource/Pabst_Brewing_Company
tp508
aa(lp509
((lp510
Vhttp://www.w3.org/2002/07/owl#Thing
p511
aVhttp://dbpedia.org/ontology/Place
p512
aVhttp://dbpedia.org/ontology/Location
p513
aVhttp://www.wikidata.org/entity/Q486972
p514
aVhttp://dbpedia.org/ontology/PopulatedPlace
p515
aVhttp://dbpedia.org/ontology/Settlement
p516
aVhttp://www.w3.org/2003/01/geo/wgs84_pos#SpatialThing
p517
aVhttp://schema.org/Place
p518
aVhttp://dbpedia.org/class/yago/Location100027167
p519
aVhttp://dbpedia.org/class/yago/Object100002684
p520
aVhttp://dbpedia.org/class/yago/Region108630985
p521
aVhttp://dbpedia.org/class/yago/Site108651247
p522
aVhttp://dbpedia.org/class/yago/Tract108673395
p523
aVhttp://dbpedia.org/class/yago/Village108672738
p524
aVhttp://dbpedia.org/class/yago/YagoGeoEntity
p525
aVhttp://dbpedia.org/class/yago/YagoLegalActorGeo
p526
aVhttp://dbpedia.org/class/yago/GeographicalArea108574314
p527
aVhttp://dbpedia.org/class/yago/PhysicalEntity100001930
p528
aVhttp://dbpedia.org/class/yago/YagoPermanentlyLocatedEntity
p529
aVhttp://dbpedia.org/class/yago/PopulatedPlacesEstablishedIn1959
p530
aVhttp://dbpedia.org/class/yago/PopulatedPlacesInCookCounty,Illinois
p531
aVhttp://dbpedia.org/class/yago/PopulatedPlacesInDuPageCounty,Illinois
p532
aVhttp://dbpedia.org/class/yago/PopulatedPlacesInWillCounty,Illinois
p533
aVhttp://dbpedia.org/class/yago/Settlement108672562
p534
aVhttp://dbpedia.org/class/yago/VillagesInIllinois
p535
aVhttp://dbpedia.org/resource/Woodridge,_Illinois
tp536
aa(lp537
a(lp538
aa(lp539
(lp540
a(lp541
((lp542
Vhttp://umbel.org/umbel/rc/Business
p543
aVhttp://dbpedia.org/class/yago/Abstraction100002137
p544
aVhttp://dbpedia.org/class/yago/Company108058098
p545
aVhttp://dbpedia.org/class/yago/Group100031264
p546
aVhttp://dbpedia.org/class/yago/Institution108053576
p547
aVhttp://dbpedia.org/class/yago/Organization108008335
p548
aVhttp://dbpedia.org/class/yago/SocialGroup107950920
p549
aVhttp://dbpedia.org/class/yago/YagoLegalActorGeo
p550
aVhttp://dbpedia.org/class/yago/CompaniesBasedInBoston,Massachusetts
p551
aVhttp://dbpedia.org/class/yago/CompaniesEstablishedIn1985
p552
aVhttp://dbpedia.org/class/yago/YagoPermanentlyLocatedEntity
p553
aVhttp://dbpedia.org/class/yago/YagoLegalActor
p554
aVhttp://dbpedia.org/resource/Samuel_Adams_(beer)
tp555
aa(lp556
((lp557
Vhttp://www.w3.org/2002/07/owl#Thing
p558
aVhttp://dbpedia.org/ontology/Place
p559
aVhttp://dbpedia.org/ontology/Location
p560
aVhttp://www.wikidata.org/entity/Q486972
p561
aVhttp://dbpedia.org/ontology/PopulatedPlace
p562
aVhttp://dbpedia.org/ontology/Settlement
p563
aVhttp://www.w3.org/2003/01/geo/wgs84_pos#SpatialThing
p564
aVhttp://schema.org/Place
p565
aVhttp://umbel.org/umbel/rc/City
p566
aVhttp://umbel.org/umbel/rc/Location_Underspecified
p567
aVhttp://umbel.org/umbel/rc/PopulatedPlace
p568
aVhttp://umbel.org/umbel/rc/Village
p569
aVhttp://dbpedia.org/class/yago/AdministrativeDistrict108491826
p570
aVhttp://dbpedia.org/class/yago/Area108497294
p571
aVhttp://dbpedia.org/class/yago/Center108523483
p572
aVhttp://dbpedia.org/class/yago/City108524735
p573
aVhttp://dbpedia.org/class/yago/District108552138
p574
aVhttp://dbpedia.org/class/yago/Location100027167
p575
aVhttp://dbpedia.org/class/yago/Object100002684
p576
aVhttp://dbpedia.org/class/yago/Region108630985
p577
aVhttp://dbpedia.org/class/yago/Seat108647945
p578
aVhttp://dbpedia.org/class/yago/Site108651247
p579
aVhttp://dbpedia.org/class/yago/Town108665504
p580
aVhttp://dbpedia.org/class/yago/Tract108673395
p581
aVhttp://dbpedia.org/class/yago/UrbanArea108675967
p582
aVhttp://dbpedia.org/class/yago/YagoGeoEntity
p583
aVhttp://dbpedia.org/class/yago/YagoLegalActorGeo
p584
aVhttp://dbpedia.org/class/yago/CitiesInMassachusetts
p585
aVhttp://dbpedia.org/class/yago/CountySeat108547143
p586
aVhttp://dbpedia.org/class/yago/CountySeatsInMassachusetts
p587
aVhttp://dbpedia.org/class/yago/GeographicalArea108574314
p588
aVhttp://dbpedia.org/class/yago/Municipality108626283
p589
aVhttp://dbpedia.org/class/yago/PhysicalEntity100001930
p590
aVhttp://dbpedia.org/class/yago/YagoPermanentlyLocatedEntity
p591
aVhttp://dbpedia.org/class/yago/PopulatedCoastalPlacesInMassachusetts
p592
aVhttp://dbpedia.org/class/yago/PopulatedPlacesEstablishedIn1630
p593
aVhttp://dbpedia.org/class/yago/PopulatedPlacesInSuffolkCounty,Massachusetts
p594
aVhttp://dbpedia.org/class/yago/PortSettlementsInTheUnitedStates
p595
aVhttp://dbpedia.org/class/yago/UniversityTownsInTheUnitedStates
p596
aVhttp://dbpedia.org/resource/Boston
tp597
aa(lp598
a(lp599
aa(lp600
(lp601
a(lp602
((lp603
Vhttp://www.w3.org/2002/07/owl#Thing
p604
aVhttp://dbpedia.org/ontology/Company
p605
aVhttp://www.ontologydesignpatterns.org/ont/dul/DUL.owl#Agent
p606
aVhttp://www.ontologydesignpatterns.org/ont/dul/DUL.owl#SocialPerson
p607
aVhttp://www.wikidata.org/entity/Q43229
p608
aVhttp://dbpedia.org/ontology/Agent
p609
aVhttp://dbpedia.org/ontology/Organisation
p610
aVhttp://schema.org/Organization
p611
aVhttp://dbpedia.org/class/yago/Abstraction100002137
p612
aVhttp://dbpedia.org/class/yago/Company108058098
p613
aVhttp://dbpedia.org/class/yago/Group100031264
p614
aVhttp://dbpedia.org/class/yago/Institution108053576
p615
aVhttp://dbpedia.org/class/yago/Organization108008335
p616
aVhttp://dbpedia.org/class/yago/SocialGroup107950920
p617
aVhttp://dbpedia.org/class/yago/YagoLegalActorGeo
p618
aVhttp://dbpedia.org/class/yago/CompaniesBasedInRochester,NewYork
p619
aVhttp://dbpedia.org/class/yago/YagoPermanentlyLocatedEntity
p620
aVhttp://dbpedia.org/class/yago/YagoLegalActor
p621
aVhttp://dbpedia.org/resource/North_American_Breweries
tp622
aa(lp623
((lp624
Vhttp://www.w3.org/2002/07/owl#Thing
p625
aVhttp://dbpedia.org/ontology/Place
p626
aVhttp://dbpedia.org/ontology/Location
p627
aVhttp://www.wikidata.org/entity/Q486972
p628
aVhttp://www.wikidata.org/entity/Q515
p629
aVhttp://dbpedia.org/ontology/City
p630
aVhttp://dbpedia.org/ontology/PopulatedPlace
p631
aVhttp://dbpedia.org/ontology/Settlement
p632
aVhttp://www.w3.org/2003/01/geo/wgs84_pos#SpatialThing
p633
aVhttp://schema.org/City
p634
aVhttp://schema.org/Place
p635
aVhttp://umbel.org/umbel/rc/City
p636
aVhttp://umbel.org/umbel/rc/Location_Underspecified
p637
aVhttp://umbel.org/umbel/rc/PopulatedPlace
p638
aVhttp://umbel.org/umbel/rc/Village
p639
aVhttp://dbpedia.org/class/yago/AdministrativeDistrict108491826
p640
aVhttp://dbpedia.org/class/yago/Area108497294
p641
aVhttp://dbpedia.org/class/yago/Center108523483
p642
aVhttp://dbpedia.org/class/yago/City108524735
p643
aVhttp://dbpedia.org/class/yago/District108552138
p644
aVhttp://dbpedia.org/class/yago/Location100027167
p645
aVhttp://dbpedia.org/class/yago/Object100002684
p646
aVhttp://dbpedia.org/class/yago/Region108630985
p647
aVhttp://dbpedia.org/class/yago/Seat108647945
p648
aVhttp://dbpedia.org/class/yago/Site108651247
p649
aVhttp://dbpedia.org/class/yago/Tract108673395
p650
aVhttp://dbpedia.org/class/yago/UrbanArea108675967
p651
aVhttp://dbpedia.org/class/yago/YagoGeoEntity
p652
aVhttp://dbpedia.org/class/yago/YagoLegalActorGeo
p653
aVhttp://dbpedia.org/class/yago/CitiesInNewYork
p654
aVhttp://dbpedia.org/class/yago/CountySeat108547143
p655
aVhttp://dbpedia.org/class/yago/CountySeatsInNewYork
p656
aVhttp://dbpedia.org/class/yago/GeographicalArea108574314
p657
aVhttp://dbpedia.org/class/yago/Municipality108626283
p658
aVhttp://dbpedia.org/class/yago/PhysicalEntity100001930
p659
aVhttp://dbpedia.org/class/yago/YagoPermanentlyLocatedEntity
p660
aVhttp://dbpedia.org/class/yago/PopulatedPlacesEstablishedInThe1810s
p661
aVhttp://dbpedia.org/class/yago/PopulatedPlacesInMonroeCounty,NewYork
p662
aVhttp://dbpedia.org/class/yago/PopulatedPlacesOnTheGreatLakes
p663
aVhttp://dbpedia.org/resource/Rochester,_New_York
tp664
aa(lp665
a(lp666
((lp667
Vhttp://www.w3.org/2002/07/owl#Thing
p668
aVhttp://dbpedia.org/ontology/Company
p669
aVhttp://www.ontologydesignpatterns.org/ont/dul/DUL.owl#Agent
p670
aVhttp://www.ontologydesignpatterns.org/ont/dul/DUL.owl#SocialPerson
p671
aVhttp://www.wikidata.org/entity/Q43229
p672
aVhttp://dbpedia.org/ontology/Agent
p673
aVhttp://dbpedia.org/ontology/Organisation
p674
aVhttp://schema.org/Organization
p675
aVhttp://dbpedia.org/class/yago/Abstraction100002137
p676
aVhttp://dbpedia.org/class/yago/CanadianSubsidiariesOfForeignCompanies
p677
aVhttp://dbpedia.org/class/yago/Company108058098
p678
aVhttp://dbpedia.org/class/yago/Group100031264
p679
aVhttp://dbpedia.org/class/yago/Institution108053576
p680
aVhttp://dbpedia.org/class/yago/Organization108008335
p681
aVhttp://dbpedia.org/class/yago/SocialGroup107950920
p682
aVhttp://dbpedia.org/class/yago/SubsidiaryCompany108003935
p683
aVhttp://dbpedia.org/class/yago/YagoLegalActorGeo
p684
aVhttp://dbpedia.org/class/yago/CompaniesBasedInLondon,Ontario
p685
aVhttp://dbpedia.org/class/yago/YagoPermanentlyLocatedEntity
p686
aVhttp://dbpedia.org/class/yago/YagoLegalActor
p687
aVhttp://dbpedia.org/resource/Labatt_Brewing_Company
tp688
aaa(lp689
(lp690
a(lp691
a(lp692
((lp693
Vhttp://www.w3.org/2002/07/owl#Thing
p694
aVhttp://dbpedia.org/ontology/Place
p695
aVhttp://dbpedia.org/ontology/Location
p696
aVhttp://www.wikidata.org/entity/Q486972
p697
aVhttp://www.wikidata.org/entity/Q515
p698
aVhttp://dbpedia.org/ontology/City
p699
aVhttp://dbpedia.org/ontology/PopulatedPlace
p700
aVhttp://dbpedia.org/ontology/Settlement
p701
aVhttp://www.w3.org/2003/01/geo/wgs84_pos#SpatialThing
p702
aVhttp://schema.org/City
p703
aVhttp://schema.org/Place
p704
aVhttp://dbpedia.org/class/yago/AdministrativeDistrict108491826
p705
aVhttp://dbpedia.org/class/yago/Area108497294
p706
aVhttp://dbpedia.org/class/yago/Center108523483
p707
aVhttp://dbpedia.org/class/yago/City108524735
p708
aVhttp://dbpedia.org/class/yago/District108552138
p709
aVhttp://dbpedia.org/class/yago/Location100027167
p710
aVhttp://dbpedia.org/class/yago/Object100002684
p711
aVhttp://dbpedia.org/class/yago/Region108630985
p712
aVhttp://dbpedia.org/class/yago/Seat108647945
p713
aVhttp://dbpedia.org/class/yago/Site108651247
p714
aVhttp://dbpedia.org/class/yago/Tract108673395
p715
aVhttp://dbpedia.org/class/yago/UrbanArea108675967
p716
aVhttp://dbpedia.org/class/yago/YagoGeoEntity
p717
aVhttp://dbpedia.org/class/yago/YagoLegalActorGeo
p718
aVhttp://dbpedia.org/class/yago/CitiesInPennsylvania
p719
aVhttp://dbpedia.org/class/yago/CountySeat108547143
p720
aVhttp://dbpedia.org/class/yago/CountySeatsInPennsylvania
p721
aVhttp://dbpedia.org/class/yago/GeographicalArea108574314
p722
aVhttp://dbpedia.org/class/yago/Municipality108626283
p723
aVhttp://dbpedia.org/class/yago/PhysicalEntity100001930
p724
aVhttp://dbpedia.org/class/yago/YagoPermanentlyLocatedEntity
p725
aVhttp://dbpedia.org/class/yago/MunicipalitiesOfTheAnthraciteCoalRegionOfPennsylvania
p726
aVhttp://dbpedia.org/class/yago/PopulatedPlacesEstablishedIn1806
p727
aVhttp://dbpedia.org/class/yago/PopulatedPlacesInSchuylkillCounty,Pennsylvania
p728
aVhttp://dbpedia.org/resource/Pottsville,_Pennsylvania
tp729
aa(lp730
a(lp731
aa(lp732
(lp733
a(lp734
((lp735
Vhttp://www.w3.org/2002/07/owl#Thing
p736
aVhttp://dbpedia.org/ontology/Company
p737
aVhttp://www.ontologydesignpatterns.org/ont/dul/DUL.owl#Agent
p738
aVhttp://www.ontologydesignpatterns.org/ont/dul/DUL.owl#SocialPerson
p739
aVhttp://www.wikidata.org/entity/Q43229
p740
aVhttp://dbpedia.org/ontology/Agent
p741
aVhttp://dbpedia.org/ontology/Organisation
p742
aVhttp://www.w3.org/2003/01/geo/wgs84_pos#SpatialThing
p743
aVhttp://schema.org/Organization
p744
aVhttp://dbpedia.org/class/yago/Abstraction100002137
p745
aVhttp://dbpedia.org/class/yago/Company108058098
p746
aVhttp://dbpedia.org/class/yago/Group100031264
p747
aVhttp://dbpedia.org/class/yago/Institution108053576
p748
aVhttp://dbpedia.org/class/yago/Organization108008335
p749
aVhttp://dbpedia.org/class/yago/SocialGroup107950920
p750
aVhttp://dbpedia.org/class/yago/YagoLegalActorGeo
p751
aVhttp://dbpedia.org/class/yago/CompaniesBasedInButteCounty,California
p752
aVhttp://dbpedia.org/class/yago/YagoPermanentlyLocatedEntity
p753
aVhttp://dbpedia.org/class/yago/YagoLegalActor
p754
aVhttp://dbpedia.org/resource/Sierra_Nevada_Brewing_Company
tp755
aa(lp756
a(lp757
a(lp758
((lp759
Vhttp://www.w3.org/2002/07/owl#Thing
p760
aVhttp://dbpedia.org/ontology/Company
p761
aVhttp://www.ontologydesignpatterns.org/ont/dul/DUL.owl#Agent
p762
aVhttp://www.ontologydesignpatterns.org/ont/dul/DUL.owl#SocialPerson
p763
aVhttp://www.wikidata.org/entity/Q43229
p764
aVhttp://dbpedia.org/ontology/Agent
p765
aVhttp://dbpedia.org/ontology/Organisation
p766
aVhttp://www.w3.org/2003/01/geo/wgs84_pos#SpatialThing
p767
aVhttp://schema.org/Organization
p768
aVhttp://dbpedia.org/class/yago/Abstraction100002137
p769
aVhttp://dbpedia.org/class/yago/Company108058098
p770
aVhttp://dbpedia.org/class/yago/Group100031264
p771
aVhttp://dbpedia.org/class/yago/Institution108053576
p772
aVhttp://dbpedia.org/class/yago/Organization108008335
p773
aVhttp://dbpedia.org/class/yago/SocialGroup107950920
p774
aVhttp://dbpedia.org/class/yago/YagoLegalActorGeo
p775
aVhttp://dbpedia.org/class/yago/CompaniesBasedInButteCounty,California
p776
aVhttp://dbpedia.org/class/yago/YagoPermanentlyLocatedEntity
p777
aVhttp://dbpedia.org/class/yago/YagoLegalActor
p778
aVhttp://dbpedia.org/resource/Sierra_Nevada_Brewing_Company
tp779
aaa(lp780
(lp781
a(lp782
((lp783
Vhttp://www.w3.org/2002/07/owl#Thing
p784
aVhttp://dbpedia.org/ontology/Company
p785
aVhttp://www.ontologydesignpatterns.org/ont/dul/DUL.owl#Agent
p786
aVhttp://www.ontologydesignpatterns.org/ont/dul/DUL.owl#SocialPerson
p787
aVhttp://www.wikidata.org/entity/Q43229
p788
aVhttp://dbpedia.org/ontology/Agent
p789
aVhttp://dbpedia.org/ontology/Organisation
p790
aVhttp://www.w3.org/2003/01/geo/wgs84_pos#SpatialThing
p791
aVhttp://schema.org/Organization
p792
aVhttp://umbel.org/umbel/rc/Business
p793
aVhttp://umbel.org/umbel/rc/Organization
p794
aVhttp://dbpedia.org/class/yago/Abstraction100002137
p795
aVhttp://dbpedia.org/class/yago/Company108058098
p796
aVhttp://dbpedia.org/class/yago/Group100031264
p797
aVhttp://dbpedia.org/class/yago/Institution108053576
p798
aVhttp://dbpedia.org/class/yago/Organization108008335
p799
aVhttp://dbpedia.org/class/yago/SocialGroup107950920
p800
aVhttp://dbpedia.org/class/yago/YagoLegalActorGeo
p801
aVhttp://dbpedia.org/class/yago/CompaniesBasedInFortCollins,Colorado
p802
aVhttp://dbpedia.org/class/yago/CompaniesEstablishedIn1991
p803
aVhttp://dbpedia.org/class/yago/YagoPermanentlyLocatedEntity
p804
aVhttp://dbpedia.org/class/yago/YagoLegalActor
p805
aVhttp://dbpedia.org/resource/New_Belgium_Brewing_Company
tp806
aa(lp807
((lp808
Vhttp://www.w3.org/2002/07/owl#Thing
p809
aVhttp://dbpedia.org/ontology/Place
p810
aVhttp://dbpedia.org/ontology/Location
p811
aVhttp://www.wikidata.org/entity/Q486972
p812
aVhttp://dbpedia.org/ontology/PopulatedPlace
p813
aVhttp://dbpedia.org/ontology/Settlement
p814
aVhttp://www.w3.org/2003/01/geo/wgs84_pos#SpatialThing
p815
aVhttp://schema.org/Place
p816
aVhttp://umbel.org/umbel/rc/City
p817
aVhttp://umbel.org/umbel/rc/Location_Underspecified
p818
aVhttp://umbel.org/umbel/rc/PopulatedPlace
p819
aVhttp://umbel.org/umbel/rc/Village
p820
aVhttp://dbpedia.org/class/yago/AdministrativeDistrict108491826
p821
aVhttp://dbpedia.org/class/yago/Area108497294
p822
aVhttp://dbpedia.org/class/yago/Center108523483
p823
aVhttp://dbpedia.org/class/yago/City108524735
p824
aVhttp://dbpedia.org/class/yago/District108552138
p825
aVhttp://dbpedia.org/class/yago/Location100027167
p826
aVhttp://dbpedia.org/class/yago/Object100002684
p827
aVhttp://dbpedia.org/class/yago/Region108630985
p828
aVhttp://dbpedia.org/class/yago/Seat108647945
p829
aVhttp://dbpedia.org/class/yago/Site108651247
p830
aVhttp://dbpedia.org/class/yago/Town108665504
p831
aVhttp://dbpedia.org/class/yago/Tract108673395
p832
aVhttp://dbpedia.org/class/yago/UrbanArea108675967
p833
aVhttp://dbpedia.org/class/yago/YagoGeoEntity
p834
aVhttp://dbpedia.org/class/yago/YagoLegalActorGeo
p835
aVhttp://dbpedia.org/class/yago/CitiesInColorado
p836
aVhttp://dbpedia.org/class/yago/CountySeat108547143
p837
aVhttp://dbpedia.org/class/yago/CountySeatsInColorado
p838
aVhttp://dbpedia.org/class/yago/GeographicalArea108574314
p839
aVhttp://dbpedia.org/class/yago/Municipality108626283
p840
aVhttp://dbpedia.org/class/yago/PhysicalEntity100001930
p841
aVhttp://dbpedia.org/class/yago/YagoPermanentlyLocatedEntity
p842
aVhttp://dbpedia.org/class/yago/PopulatedPlacesInLarimerCounty,Colorado
p843
aVhttp://dbpedia.org/class/yago/UniversityTownsInTheUnitedStates
p844
aVhttp://dbpedia.org/resource/Fort_Collins,_Colorado
tp845
aa(lp846
a(lp847
aa(lp848
(lp849
a(lp850
((lp851
Vhttp://www.w3.org/2002/07/owl#Thing
p852
aVhttp://dbpedia.org/ontology/Company
p853
aVhttp://www.ontologydesignpatterns.org/ont/dul/DUL.owl#Agent
p854
aVhttp://www.ontologydesignpatterns.org/ont/dul/DUL.owl#SocialPerson
p855
aVhttp://www.wikidata.org/entity/Q43229
p856
aVhttp://dbpedia.org/ontology/Agent
p857
aVhttp://dbpedia.org/ontology/Organisation
p858
aVhttp://schema.org/Organization
p859
aVhttp://dbpedia.org/resource/Craft_Brew_Alliance
tp860
aa(lp861
((lp862
Vhttp://www.w3.org/2002/07/owl#Thing
p863
aVhttp://dbpedia.org/ontology/Place
p864
aVhttp://dbpedia.org/ontology/Location
p865
aVhttp://www.wikidata.org/entity/Q486972
p866
aVhttp://www.wikidata.org/entity/Q515
p867
aVhttp://dbpedia.org/ontology/City
p868
aVhttp://dbpedia.org/ontology/PopulatedPlace
p869
aVhttp://dbpedia.org/ontology/Settlement
p870
aVhttp://www.w3.org/2003/01/geo/wgs84_pos#SpatialThing
p871
aVhttp://schema.org/City
p872
aVhttp://schema.org/Place
p873
aVhttp://umbel.org/umbel/rc/City
p874
aVhttp://dbpedia.org/class/yago/AdministrativeDistrict108491826
p875
aVhttp://dbpedia.org/class/yago/City108524735
p876
aVhttp://dbpedia.org/class/yago/District108552138
p877
aVhttp://dbpedia.org/class/yago/Location100027167
p878
aVhttp://dbpedia.org/class/yago/Object100002684
p879
aVhttp://dbpedia.org/class/yago/Region108630985
p880
aVhttp://dbpedia.org/class/yago/Site108651247
p881
aVhttp://dbpedia.org/class/yago/Tract108673395
p882
aVhttp://dbpedia.org/class/yago/UrbanArea108675967
p883
aVhttp://dbpedia.org/class/yago/YagoGeoEntity
p884
aVhttp://dbpedia.org/class/yago/YagoLegalActorGeo
p885
aVhttp://dbpedia.org/class/yago/CitiesInKingCounty,Washington
p886
aVhttp://dbpedia.org/class/yago/CitiesInTheSeattleMetropolitanArea
p887
aVhttp://dbpedia.org/class/yago/FormerCensus-designatedPlacesInWashington(state)
p888
aVhttp://dbpedia.org/class/yago/GeographicalArea108574314
p889
aVhttp://dbpedia.org/class/yago/Municipality108626283
p890
aVhttp://dbpedia.org/class/yago/PhysicalEntity100001930
p891
aVhttp://dbpedia.org/class/yago/YagoPermanentlyLocatedEntity
p892
aVhttp://dbpedia.org/class/yago/PopulatedPlacesEstablishedIn1870
p893
aVhttp://dbpedia.org/resource/Woodinville,_Washington
tp894
aa(lp895
a(lp896
aa(lp897
(lp898
a(lp899
a(lp900
((lp901
Vhttp://www.w3.org/2002/07/owl#Thing
p902
aVhttp://dbpedia.org/ontology/Place
p903
aVhttp://dbpedia.org/ontology/Location
p904
aVhttp://www.wikidata.org/entity/Q486972
p905
aVhttp://www.wikidata.org/entity/Q515
p906
aVhttp://dbpedia.org/ontology/City
p907
aVhttp://dbpedia.org/ontology/PopulatedPlace
p908
aVhttp://dbpedia.org/ontology/Settlement
p909
aVhttp://www.w3.org/2003/01/geo/wgs84_pos#SpatialThing
p910
aVhttp://schema.org/City
p911
aVhttp://schema.org/Place
p912
aVhttp://umbel.org/umbel/rc/City
p913
aVhttp://umbel.org/umbel/rc/Location_Underspecified
p914
aVhttp://umbel.org/umbel/rc/PopulatedPlace
p915
aVhttp://umbel.org/umbel/rc/Village
p916
aVhttp://dbpedia.org/class/yago/AdministrativeDistrict108491826
p917
aVhttp://dbpedia.org/class/yago/Area108497294
p918
aVhttp://dbpedia.org/class/yago/Center108523483
p919
aVhttp://dbpedia.org/class/yago/City108524735
p920
aVhttp://dbpedia.org/class/yago/Country108544813
p921
aVhttp://dbpedia.org/class/yago/District108552138
p922
aVhttp://dbpedia.org/class/yago/Location100027167
p923
aVhttp://dbpedia.org/class/yago/Object100002684
p924
aVhttp://dbpedia.org/class/yago/Region108630985
p925
aVhttp://dbpedia.org/class/yago/Seat108647945
p926
aVhttp://dbpedia.org/class/yago/Site108651247
p927
aVhttp://dbpedia.org/class/yago/Tract108673395
p928
aVhttp://dbpedia.org/class/yago/UrbanArea108675967
p929
aVhttp://dbpedia.org/class/yago/YagoGeoEntity
p930
aVhttp://dbpedia.org/class/yago/YagoLegalActorGeo
p931
aVhttp://dbpedia.org/class/yago/CitiesInTexas
p932
aVhttp://dbpedia.org/class/yago/CountySeat108547143
p933
aVhttp://dbpedia.org/class/yago/CountySeatsInTexas
p934
aVhttp://dbpedia.org/class/yago/GeographicalArea108574314
p935
aVhttp://dbpedia.org/class/yago/Municipality108626283
p936
aVhttp://dbpedia.org/class/yago/PhysicalEntity100001930
p937
aVhttp://dbpedia.org/class/yago/YagoPermanentlyLocatedEntity
p938
aVhttp://dbpedia.org/class/yago/PopulatedPlacesEstablishedIn1718
p939
aVhttp://dbpedia.org/class/yago/PopulatedPlacesInBexarCounty,Texas
p940
aVhttp://dbpedia.org/class/yago/PopulatedPlacesInComalCounty,Texas
p941
aVhttp://dbpedia.org/class/yago/PopulatedPlacesInTexasWithHispanicMajorityPopulations
p942
aVhttp://dbpedia.org/class/yago/UnitedStatesColonialAndTerritorialCapitals
p943
aVhttp://dbpedia.org/resource/San_Antonio
tp944
aa(lp945
((lVhttp://dbpedia.org/resource/100000000_(number)
tp946
aa(lp947
((lp948
Vhttp://www.w3.org/2002/07/owl#Thing
p949
aVhttp://dbpedia.org/ontology/Company
p950
aVhttp://www.ontologydesignpatterns.org/ont/dul/DUL.owl#Agent
p951
aVhttp://www.ontologydesignpatterns.org/ont/dul/DUL.owl#SocialPerson
p952
aVhttp://www.wikidata.org/entity/Q43229
p953
aVhttp://dbpedia.org/ontology/Agent
p954
aVhttp://dbpedia.org/ontology/Organisation
p955
aVhttp://www.w3.org/2003/01/geo/wgs84_pos#SpatialThing
p956
aVhttp://schema.org/Organization
p957
aVhttp://umbel.org/umbel/rc/Business
p958
aVhttp://umbel.org/umbel/rc/Organization
p959
aVhttp://dbpedia.org/class/yago/Abstraction100002137
p960
aVhttp://dbpedia.org/class/yago/Company108058098
p961
aVhttp://dbpedia.org/class/yago/Group100031264
p962
aVhttp://dbpedia.org/class/yago/Institution108053576
p963
aVhttp://dbpedia.org/class/yago/Organization108008335
p964
aVhttp://dbpedia.org/class/yago/SocialGroup107950920
p965
aVhttp://dbpedia.org/class/yago/YagoLegalActorGeo
p966
aVhttp://dbpedia.org/class/yago/CompaniesBasedInTexas
p967
aVhttp://dbpedia.org/class/yago/CompaniesEstablishedIn1909
p968
aVhttp://dbpedia.org/class/yago/YagoPermanentlyLocatedEntity
p969
aVhttp://dbpedia.org/class/yago/YagoLegalActor
p970
aVhttp://dbpedia.org/resource/Spoetzl_Brewery
tp971
aaa(lp972
(lp973
a(lp974
((lp975
Vhttp://www.w3.org/2003/01/geo/wgs84_pos#SpatialThing
p976
aVhttp://dbpedia.org/class/yago/Abstraction100002137
p977
aVhttp://dbpedia.org/class/yago/Company108058098
p978
aVhttp://dbpedia.org/class/yago/Group100031264
p979
aVhttp://dbpedia.org/class/yago/Institution108053576
p980
aVhttp://dbpedia.org/class/yago/Organization108008335
p981
aVhttp://dbpedia.org/class/yago/SocialGroup107950920
p982
aVhttp://dbpedia.org/class/yago/YagoLegalActorGeo
p983
aVhttp://dbpedia.org/class/yago/CompaniesBasedInBend,Oregon
p984
aVhttp://dbpedia.org/class/yago/CompaniesEstablishedIn1988
p985
aVhttp://dbpedia.org/class/yago/YagoPermanentlyLocatedEntity
p986
aVhttp://dbpedia.org/class/yago/YagoLegalActor
p987
aVhttp://dbpedia.org/class/yago/PrivatelyHeldCompaniesBasedInOregon
p988
aVhttp://dbpedia.org/resource/Deschutes_Brewery
tp989
aa(lp990
a(lp991
a(lp992
aa(lp993
(lp994
a(lp995
a(lp996
a(lp997
a(lp998
aa(lp999
(lp1000
a(lp1001
a(lp1002
((lp1003
Vhttp://www.w3.org/2002/07/owl#Thing
p1004
aVhttp://dbpedia.org/ontology/Place
p1005
aVhttp://dbpedia.org/ontology/Location
p1006
aVhttp://www.wikidata.org/entity/Q486972
p1007
aVhttp://www.wikidata.org/entity/Q515
p1008
aVhttp://dbpedia.org/ontology/City
p1009
aVhttp://dbpedia.org/ontology/PopulatedPlace
p1010
aVhttp://dbpedia.org/ontology/Settlement
p1011
aVhttp://www.w3.org/2003/01/geo/wgs84_pos#SpatialThing
p1012
aVhttp://schema.org/City
p1013
aVhttp://schema.org/Place
p1014
aVhttp://umbel.org/umbel/rc/City
p1015
aVhttp://dbpedia.org/class/yago/AdministrativeDistrict108491826
p1016
aVhttp://dbpedia.org/class/yago/City108524735
p1017
aVhttp://dbpedia.org/class/yago/District108552138
p1018
aVhttp://dbpedia.org/class/yago/Location100027167
p1019
aVhttp://dbpedia.org/class/yago/Object100002684
p1020
aVhttp://dbpedia.org/class/yago/Region108630985
p1021
aVhttp://dbpedia.org/class/yago/Site108651247
p1022
aVhttp://dbpedia.org/class/yago/Tract108673395
p1023
aVhttp://dbpedia.org/class/yago/UrbanArea108675967
p1024
aVhttp://dbpedia.org/class/yago/YagoGeoEntity
p1025
aVhttp://dbpedia.org/class/yago/YagoLegalActorGeo
p1026
aVhttp://dbpedia.org/class/yago/CitiesInMichigan
p1027
aVhttp://dbpedia.org/class/yago/GeographicalArea108574314
p1028
aVhttp://dbpedia.org/class/yago/Municipality108626283
p1029
aVhttp://dbpedia.org/class/yago/PhysicalEntity100001930
p1030
aVhttp://dbpedia.org/class/yago/YagoPermanentlyLocatedEntity
p1031
aVhttp://dbpedia.org/class/yago/PopulatedPlacesInKalamazooCounty,Michigan
p1032
aVhttp://dbpedia.org/resource/Galesburg,_Michigan
tp1033
aa(lp1034
a(lp1035
((lp1036
Vhttp://www.w3.org/2002/07/owl#Thing
p1037
aVhttp://dbpedia.org/ontology/Company
p1038
aVhttp://www.ontologydesignpatterns.org/ont/dul/DUL.owl#Agent
p1039
aVhttp://www.ontologydesignpatterns.org/ont/dul/DUL.owl#SocialPerson
p1040
aVhttp://www.wikidata.org/entity/Q43229
p1041
aVhttp://dbpedia.org/ontology/Agent
p1042
aVhttp://dbpedia.org/ontology/Organisation
p1043
aVhttp://schema.org/Organization
p1044
aVhttp://dbpedia.org/class/yago/Abstraction100002137
p1045
aVhttp://dbpedia.org/class/yago/Company108058098
p1046
aVhttp://dbpedia.org/class/yago/Group100031264
p1047
aVhttp://dbpedia.org/class/yago/Institution108053576
p1048
aVhttp://dbpedia.org/class/yago/Organization108008335
p1049
aVhttp://dbpedia.org/class/yago/SocialGroup107950920
p1050
aVhttp://dbpedia.org/class/yago/YagoLegalActorGeo
p1051
aVhttp://dbpedia.org/class/yago/CompaniesBasedInKalamazoo,Michigan
p1052
aVhttp://dbpedia.org/class/yago/YagoPermanentlyLocatedEntity
p1053
aVhttp://dbpedia.org/class/yago/OrganizationsEstablishedIn1983
p1054
aVhttp://dbpedia.org/class/yago/YagoLegalActor
p1055
aVhttp://dbpedia.org/resource/Bell's_Brewery
tp1056
aaa(lp1057
(lp1058
a(lp1059
((lp1060
Vhttp://www.w3.org/2002/07/owl#Thing
p1061
aVhttp://dbpedia.org/ontology/Company
p1062
aVhttp://www.ontologydesignpatterns.org/ont/dul/DUL.owl#Agent
p1063
aVhttp://www.ontologydesignpatterns.org/ont/dul/DUL.owl#SocialPerson
p1064
aVhttp://www.wikidata.org/entity/Q43229
p1065
aVhttp://dbpedia.org/ontology/Agent
p1066
aVhttp://dbpedia.org/ontology/Organisation
p1067
aVhttp://www.w3.org/2003/01/geo/wgs84_pos#SpatialThing
p1068
aVhttp://schema.org/Organization
p1069
aVhttp://dbpedia.org/class/yago/Artifact100021939
p1070
aVhttp://dbpedia.org/class/yago/Brewery102897237
p1071
aVhttp://dbpedia.org/class/yago/BuildingComplex102914991
p1072
aVhttp://dbpedia.org/class/yago/Object100002684
p1073
aVhttp://dbpedia.org/class/yago/Plant103956922
p1074
aVhttp://dbpedia.org/class/yago/Structure104341686
p1075
aVhttp://dbpedia.org/class/yago/Whole100003553
p1076
aVhttp://dbpedia.org/class/yago/YagoGeoEntity
p1077
aVhttp://dbpedia.org/class/yago/PhysicalEntity100001930
p1078
aVhttp://dbpedia.org/class/yago/YagoPermanentlyLocatedEntity
p1079
aVhttp://dbpedia.org/class/yago/Microbreweries
p1080
aVhttp://dbpedia.org/class/yago/Microbrewery103758992
p1081
aVhttp://dbpedia.org/resource/Harpoon_Brewery
tp1082
aa(lp1083
((lp1084
Vhttp://www.w3.org/2002/07/owl#Thing
p1085
aVhttp://dbpedia.org/ontology/Place
p1086
aVhttp://dbpedia.org/ontology/Location
p1087
aVhttp://www.wikidata.org/entity/Q486972
p1088
aVhttp://dbpedia.org/ontology/PopulatedPlace
p1089
aVhttp://dbpedia.org/ontology/Settlement
p1090
aVhttp://www.w3.org/2003/01/geo/wgs84_pos#SpatialThing
p1091
aVhttp://schema.org/Place
p1092
aVhttp://umbel.org/umbel/rc/City
p1093
aVhttp://umbel.org/umbel/rc/Location_Underspecified
p1094
aVhttp://umbel.org/umbel/rc/PopulatedPlace
p1095
aVhttp://umbel.org/umbel/rc/Village
p1096
aVhttp://dbpedia.org/class/yago/AdministrativeDistrict108491826
p1097
aVhttp://dbpedia.org/class/yago/Area108497294
p1098
aVhttp://dbpedia.org/class/yago/Center108523483
p1099
aVhttp://dbpedia.org/class/yago/City108524735
p1100
aVhttp://dbpedia.org/class/yago/District108552138
p1101
aVhttp://dbpedia.org/class/yago/Location100027167
p1102
aVhttp://dbpedia.org/class/yago/Object100002684
p1103
aVhttp://dbpedia.org/class/yago/Region108630985
p1104
aVhttp://dbpedia.org/class/yago/Seat108647945
p1105
aVhttp://dbpedia.org/class/yago/Site108651247
p1106
aVhttp://dbpedia.org/class/yago/Town108665504
p1107
aVhttp://dbpedia.org/class/yago/Tract108673395
p1108
aVhttp://dbpedia.org/class/yago/UrbanArea108675967
p1109
aVhttp://dbpedia.org/class/yago/YagoGeoEntity
p1110
aVhttp://dbpedia.org/class/yago/YagoLegalActorGeo
p1111
aVhttp://dbpedia.org/class/yago/CitiesInMassachusetts
p1112
aVhttp://dbpedia.org/class/yago/CountySeat108547143
p1113
aVhttp://dbpedia.org/class/yago/CountySeatsInMassachusetts
p1114
aVhttp://dbpedia.org/class/yago/GeographicalArea108574314
p1115
aVhttp://dbpedia.org/class/yago/Municipality108626283
p1116
aVhttp://dbpedia.org/class/yago/PhysicalEntity100001930
p1117
aVhttp://dbpedia.org/class/yago/YagoPermanentlyLocatedEntity
p1118
aVhttp://dbpedia.org/class/yago/PopulatedCoastalPlacesInMassachusetts
p1119
aVhttp://dbpedia.org/class/yago/PopulatedPlacesEstablishedIn1630
p1120
aVhttp://dbpedia.org/class/yago/PopulatedPlacesInSuffolkCounty,Massachusetts
p1121
aVhttp://dbpedia.org/class/yago/PortSettlementsInTheUnitedStates
p1122
aVhttp://dbpedia.org/class/yago/UniversityTownsInTheUnitedStates
p1123
aVhttp://dbpedia.org/resource/Boston
p1124
tp1125
aa(lp1126
a(lp1127
aa.