(lp1
(lp2
(lp3
a(lp4
aa(lp5
(lp6
a(lp7
aa(lp8
(lp9
a(lp10
aa(lp11
(lp12
a(lp13
aa(lp14
(lp15
a(lp16
aa(lp17
(lp18
a(lp19
aa(lp20
(lp21
((lp22
Vhttp://dbpedia.org/class/yago/Location100027167
p23
aVhttp://dbpedia.org/class/yago/Object100002684
p24
aVhttp://dbpedia.org/class/yago/Park108615149
p25
aVhttp://dbpedia.org/class/yago/Region108630985
p26
aVhttp://dbpedia.org/class/yago/Tract108673395
p27
aVhttp://dbpedia.org/class/yago/YagoGeoEntity
p28
aVhttp://dbpedia.org/class/yago/YagoLegalActorGeo
p29
aVhttp://www.w3.org/2002/07/owl#Thing
p30
aVhttp://dbpedia.org/ontology/Place
p31
aVhttp://dbpedia.org/ontology/Location
p32
aVhttp://dbpedia.org/ontology/Park
p33
aVhttp://www.w3.org/2003/01/geo/wgs84_pos#SpatialThing
p34
aVhttp://schema.org/Park
p35
aVhttp://schema.org/Place
p36
aVhttp://umbel.org/umbel/rc/Park
p37
aVhttp://dbpedia.org/class/yago/YagoPermanentlyLocatedEntity
p38
aVhttp://dbpedia.org/class/yago/ParksAndCommonsInLiverpool
p39
aVhttp://dbpedia.org/class/yago/GeographicalArea108574314
p40
aVhttp://dbpedia.org/class/yago/GradeII*HistoricParksInLiverpool
p41
aVhttp://dbpedia.org/class/yago/PhysicalEntity100001930
p42
aVhttp://dbpedia.org/class/yago/UrbanPublicParks
p43
aVhttp://dbpedia.org/resource/Sefton_Park
tp44
aa(lp45
aa(lp46
(lp47
a(lp48
aa(lp49
(lp50
a(lp51
aa(lp52
(lp53
((lp54
Vhttp://dbpedia.org/class/yago/CausalAgent100007347
p55
aVhttp://dbpedia.org/class/yago/Contestant109613191
p56
aVhttp://dbpedia.org/class/yago/LivingThing100004258
p57
aVhttp://dbpedia.org/class/yago/Object100002684
p58
aVhttp://dbpedia.org/class/yago/Organism100004475
p59
aVhttp://dbpedia.org/class/yago/Person100007846
p60
aVhttp://dbpedia.org/class/yago/Player110439851
p61
aVhttp://dbpedia.org/class/yago/Whole100003553
p62
aVhttp://dbpedia.org/class/yago/YagoLegalActorGeo
p63
aVhttp://www.w3.org/2002/07/owl#Thing
p64
aVhttp://xmlns.com/foaf/0.1/Person
p65
aVhttp://dbpedia.org/ontology/Person
p66
aVhttp://www.ontologydesignpatterns.org/ont/dul/DUL.owl#Agent
p67
aVhttp://www.ontologydesignpatterns.org/ont/dul/DUL.owl#NaturalPerson
p68
aVhttp://www.wikidata.org/entity/Q215627
p69
aVhttp://www.wikidata.org/entity/Q5
p70
aVhttp://dbpedia.org/ontology/Agent
p71
aVhttp://dbpedia.org/ontology/Athlete
p72
aVhttp://dbpedia.org/ontology/SnookerPlayer
p73
aVhttp://schema.org/Person
p74
aVhttp://dbpedia.org/class/yago/YagoLegalActor
p75
aVhttp://dbpedia.org/class/yago/LivingPeople
p76
aVhttp://dbpedia.org/class/yago/PhysicalEntity100001930
p77
aVhttp://dbpedia.org/class/yago/WelshSnookerPlayers
p78
aVhttp://dbpedia.org/resource/Paul_Davies_(snooker_player)
p79
tp80
aa(lp81
aa(lp82
(lp83
a(lp84
aa(lp85
(lp86
a(lp87
aa(lp88
(lp89
a(lp90
aa(lp91
(lp92
a(lp93
aa(lp94
(lp95
a(lp96
aa(lp97
(lp98
a(lp99
aa(lp100
(lp101
a(lp102
aa(lp103
(lp104
a(lp105
aa(lp106
(lp107
a(lp108
aa.