(lp1
(dp2
I0
(dp3
I0
(lp4
sI1
(lp5
sI2
(lp6
sI3
(lp7
sI4
(lp8
ssI1
(dp9
I0
g5
sI1
(lp10
sI2
(lp11
sI3
(lp12
sI4
(lp13
ssI2
(dp14
I0
g6
sI1
g11
sI2
(lp15
sI3
(lp16
sI4
(lp17
ssI3
(dp18
I0
g7
sI1
g12
sI2
g16
sI3
(lp19
sI4
(lp20
ssI4
(dp21
I0
g8
sI1
g13
sI2
g17
sI3
g20
sI4
(lp22
ssa(dp23
I0
(dp24
I0
(lp25
sI1
(lp26
sI2
(lp27
sI3
(lp28
sI4
(lp29
ssI1
(dp30
I0
g26
sI1
(lp31
sI2
(lp32
sI3
(lp33
sI4
(lp34
ssI2
(dp35
I0
g27
sI1
g32
sI2
(lp36
sI3
(lp37
sI4
(lp38
ssI3
(dp39
I0
g28
sI1
g33
sI2
g37
sI3
(lp40
sI4
(lp41
ssI4
(dp42
I0
g29
sI1
g34
sI2
g38
sI3
g41
sI4
(lp43
ssa(dp44
I0
(dp45
I0
(lp46
sI1
(lp47
Vhttp://www.w3.org/1999/02/22-rdf-syntax-ns#type
p48
asI2
(lp49
sI3
(lp50
sI4
(lp51
ssI1
(dp52
I0
g47
sI1
(lp53
sI2
(lp54
Vhttp://dbpedia.org/ontology/abstract
p55
aVhttp://www.w3.org/2000/01/rdf-schema#comment
p56
asI3
(lp57
Vhttp://dbpedia.org/ontology/abstract
p58
aVhttp://www.w3.org/2000/01/rdf-schema#comment
p59
asI4
(lp60
ssI2
(dp61
I0
g49
sI1
g54
sI2
(lp62
sI3
(lp63
sI4
(lp64
ssI3
(dp65
I0
g50
sI1
g57
sI2
g63
sI3
(lp66
sI4
(lp67
ssI4
(dp68
I0
g51
sI1
g60
sI2
g64
sI3
g67
sI4
(lp69
ssa(dp70
I0
(dp71
I0
(lp72
sI1
(lp73
sI2
(lp74
sI3
(lp75
sI4
(lp76
ssI1
(dp77
I0
g73
sI1
(lp78
sI2
(lp79
sI3
(lp80
sI4
(lp81
ssI2
(dp82
I0
g74
sI1
g79
sI2
(lp83
sI3
(lp84
sI4
(lp85
ssI3
(dp86
I0
g75
sI1
g80
sI2
g84
sI3
(lp87
sI4
(lp88
ssI4
(dp89
I0
g76
sI1
g81
sI2
g85
sI3
g88
sI4
(lp90
ssa(dp91
I0
(dp92
I0
(lp93
sI1
(lp94
sI2
(lp95
sI3
(lp96
sI4
(lp97
ssI1
(dp98
I0
g94
sI1
(lp99
sI2
(lp100
sI3
(lp101
sI4
(lp102
ssI2
(dp103
I0
g95
sI1
g100
sI2
(lp104
sI3
(lp105
sI4
(lp106
ssI3
(dp107
I0
g96
sI1
g101
sI2
g105
sI3
(lp108
sI4
(lp109
ssI4
(dp110
I0
g97
sI1
g102
sI2
g106
sI3
g109
sI4
(lp111
ssa(dp112
I0
(dp113
I0
(lp114
sI1
(lp115
sI2
(lp116
sI3
(lp117
sI4
(lp118
ssI1
(dp119
I0
g115
sI1
(lp120
sI2
(lp121
sI3
(lp122
sI4
(lp123
ssI2
(dp124
I0
g116
sI1
g121
sI2
(lp125
sI3
(lp126
sI4
(lp127
ssI3
(dp128
I0
g117
sI1
g122
sI2
g126
sI3
(lp129
sI4
(lp130
ssI4
(dp131
I0
g118
sI1
g123
sI2
g127
sI3
g130
sI4
(lp132
ssa(dp133
I0
(dp134
I0
(lp135
sI1
(lp136
sI2
(lp137
sI3
(lp138
sI4
(lp139
ssI1
(dp140
I0
g136
sI1
(lp141
sI2
(lp142
sI3
(lp143
sI4
(lp144
ssI2
(dp145
I0
g137
sI1
g142
sI2
(lp146
sI3
(lp147
sI4
(lp148
ssI3
(dp149
I0
g138
sI1
g143
sI2
g147
sI3
(lp150
sI4
(lp151
ssI4
(dp152
I0
g139
sI1
g144
sI2
g148
sI3
g151
sI4
(lp153
ssa(dp154
I0
(dp155
I0
(lp156
sI1
(lp157
sI2
(lp158
sI3
(lp159
sI4
(lp160
ssI1
(dp161
I0
g157
sI1
(lp162
sI2
(lp163
sI3
(lp164
sI4
(lp165
ssI2
(dp166
I0
g158
sI1
g163
sI2
(lp167
sI3
(lp168
sI4
(lp169
ssI3
(dp170
I0
g159
sI1
g164
sI2
g168
sI3
(lp171
sI4
(lp172
ssI4
(dp173
I0
g160
sI1
g165
sI2
g169
sI3
g172
sI4
(lp174
ssa(dp175
I0
(dp176
I0
(lp177
sI1
(lp178
sI2
(lp179
sI3
(lp180
Vhttp://www.w3.org/ns/prov#wasDerivedFrom
p181
asI4
(lp182
ssI1
(dp183
I0
g178
sI1
(lp184
sI2
(lp185
Vhttp://dbpedia.org/ontology/abstract
p186
aVhttp://www.w3.org/2000/01/rdf-schema#comment
p187
asI3
(lp188
sI4
(lp189
ssI2
(dp190
I0
g179
sI1
g185
sI2
(lp191
sI3
(lp192
Vhttp://dbpedia.org/ontology/director
p193
aVhttp://dbpedia.org/property/director
p194
aVhttp://dbpedia.org/ontology/abstract
p195
asI4
(lp196
ssI3
(dp197
I0
g180
sI1
g188
sI2
g192
sI3
(lp198
sI4
(lp199
ssI4
(dp200
I0
g182
sI1
g189
sI2
g196
sI3
g199
sI4
(lp201
ssa(dp202
I0
(dp203
I0
(lp204
sI1
(lp205
sI2
(lp206
sI3
(lp207
Vhttp://www.w3.org/1999/02/22-rdf-syntax-ns#type
p208
asI4
(lp209
ssI1
(dp210
I0
g205
sI1
(lp211
sI2
(lp212
sI3
(lp213
Vhttp://dbpedia.org/ontology/director
p214
aVhttp://dbpedia.org/ontology/starring
p215
aVhttp://dbpedia.org/ontology/abstract
p216
aVhttp://dbpedia.org/ontology/writer
p217
aVhttp://dbpedia.org/property/director
p218
aVhttp://dbpedia.org/property/starring
p219
asI4
(lp220
ssI2
(dp221
I0
g206
sI1
g212
sI2
(lp222
sI3
(lp223
Vhttp://dbpedia.org/ontology/abstract
p224
aVhttp://www.w3.org/2000/01/rdf-schema#comment
p225
asI4
(lp226
ssI3
(dp227
I0
g207
sI1
g213
sI2
g223
sI3
(lp228
sI4
(lp229
ssI4
(dp230
I0
g209
sI1
g220
sI2
g226
sI3
g229
sI4
(lp231
ssa(dp232
I0
(dp233
I0
(lp234
sI1
(lp235
sI2
(lp236
sI3
(lp237
sI4
(lp238
ssI1
(dp239
I0
g235
sI1
(lp240
sI2
(lp241
Vhttp://dbpedia.org/ontology/abstract
p242
aVhttp://www.w3.org/2000/01/rdf-schema#comment
p243
asI3
(lp244
Vhttp://dbpedia.org/ontology/abstract
p245
asI4
(lp246
ssI2
(dp247
I0
g236
sI1
g241
sI2
(lp248
sI3
(lp249
sI4
(lp250
ssI3
(dp251
I0
g237
sI1
g244
sI2
g249
sI3
(lp252
sI4
(lp253
ssI4
(dp254
I0
g238
sI1
g246
sI2
g250
sI3
g253
sI4
(lp255
ssa(dp256
I0
(dp257
I0
(lp258
sI1
(lp259
sI2
(lp260
sI3
(lp261
sI4
(lp262
ssI1
(dp263
I0
g259
sI1
(lp264
sI2
(lp265
sI3
(lp266
sI4
(lp267
ssI2
(dp268
I0
g260
sI1
g265
sI2
(lp269
sI3
(lp270
sI4
(lp271
ssI3
(dp272
I0
g261
sI1
g266
sI2
g270
sI3
(lp273
sI4
(lp274
ssI4
(dp275
I0
g262
sI1
g267
sI2
g271
sI3
g274
sI4
(lp276
ssa(dp277
I0
(dp278
I0
(lp279
sI1
(lp280
sI2
(lp281
sI3
(lp282
sI4
(lp283
ssI1
(dp284
I0
g280
sI1
(lp285
sI2
(lp286
sI3
(lp287
sI4
(lp288
ssI2
(dp289
I0
g281
sI1
g286
sI2
(lp290
sI3
(lp291
sI4
(lp292
ssI3
(dp293
I0
g282
sI1
g287
sI2
g291
sI3
(lp294
sI4
(lp295
ssI4
(dp296
I0
g283
sI1
g288
sI2
g292
sI3
g295
sI4
(lp297
ssa(dp298
I0
(dp299
I0
(lp300
sI1
(lp301
sI2
(lp302
sI3
(lp303
sI4
(lp304
ssI1
(dp305
I0
g301
sI1
(lp306
sI2
(lp307
sI3
(lp308
Vhttp://dbpedia.org/ontology/abstract
p309
asI4
(lp310
ssI2
(dp311
I0
g302
sI1
g307
sI2
(lp312
sI3
(lp313
Vhttp://dbpedia.org/ontology/abstract
p314
asI4
(lp315
ssI3
(dp316
I0
g303
sI1
g308
sI2
g313
sI3
(lp317
sI4
(lp318
ssI4
(dp319
I0
g304
sI1
g310
sI2
g315
sI3
g318
sI4
(lp320
ssa(dp321
I0
(dp322
I0
(lp323
sI1
(lp324
sI2
(lp325
sI3
(lp326
sI4
(lp327
ssI1
(dp328
I0
g324
sI1
(lp329
sI2
(lp330
sI3
(lp331
Vhttp://dbpedia.org/ontology/wikiPageExternalLink
p332
aVhttp://dbpedia.org/ontology/director
p333
aVhttp://www.w3.org/2000/01/rdf-schema#comment
p334
aVhttp://dbpedia.org/property/quote
p335
aVhttp://dbpedia.org/ontology/abstract
p336
aVhttp://dbpedia.org/ontology/writer
p337
aVhttp://dbpedia.org/property/director
p338
asI4
(lp339
ssI2
(dp340
I0
g325
sI1
g330
sI2
(lp341
sI3
(lp342
Vhttp://dbpedia.org/ontology/abstract
p343
aVhttp://www.w3.org/2000/01/rdf-schema#comment
p344
asI4
(lp345
ssI3
(dp346
I0
g326
sI1
g331
sI2
g342
sI3
(lp347
sI4
(lp348
ssI4
(dp349
I0
g327
sI1
g339
sI2
g345
sI3
g348
sI4
(lp350
ssa(dp351
I0
(dp352
I0
(lp353
sI1
(lp354
sI2
(lp355
sI3
(lp356
sI4
(lp357
ssI1
(dp358
I0
g354
sI1
(lp359
sI2
(lp360
Vhttp://dbpedia.org/ontology/abstract
p361
aVhttp://www.w3.org/2000/01/rdf-schema#comment
p362
asI3
(lp363
sI4
(lp364
ssI2
(dp365
I0
g355
sI1
g360
sI2
(lp366
sI3
(lp367
sI4
(lp368
ssI3
(dp369
I0
g356
sI1
g363
sI2
g367
sI3
(lp370
sI4
(lp371
Vhttp://www.w3.org/1999/02/22-rdf-syntax-ns#type
p372
assI4
(dp373
I0
g357
sI1
g364
sI2
g368
sI3
g371
sI4
(lp374
ssa(dp375
I0
(dp376
I0
(lp377
sI1
(lp378
sI2
(lp379
sI3
(lp380
sI4
(lp381
ssI1
(dp382
I0
g378
sI1
(lp383
sI2
(lp384
sI3
(lp385
sI4
(lp386
ssI2
(dp387
I0
g379
sI1
g384
sI2
(lp388
sI3
(lp389
sI4
(lp390
ssI3
(dp391
I0
g380
sI1
g385
sI2
g389
sI3
(lp392
sI4
(lp393
ssI4
(dp394
I0
g381
sI1
g386
sI2
g390
sI3
g393
sI4
(lp395
ssa(dp396
I0
(dp397
I0
(lp398
sI1
(lp399
sI2
(lp400
sI3
(lp401
Vhttp://dbpedia.org/ontology/director
p402
aVhttp://dbpedia.org/property/director
p403
aVhttp://dbpedia.org/ontology/abstract
p404
aVhttp://www.w3.org/1999/02/22-rdf-syntax-ns#type
p405
asI4
(lp406
ssI1
(dp407
I0
g399
sI1
(lp408
sI2
(lp409
sI3
(lp410
Vhttp://dbpedia.org/ontology/abstract
p411
aVhttp://www.w3.org/2000/01/rdf-schema#comment
p412
asI4
(lp413
ssI2
(dp414
I0
g400
sI1
g409
sI2
(lp415
sI3
(lp416
Vhttp://dbpedia.org/ontology/abstract
p417
aVhttp://www.w3.org/2000/01/rdf-schema#comment
p418
asI4
(lp419
ssI3
(dp420
I0
g401
sI1
g410
sI2
g416
sI3
(lp421
sI4
(lp422
ssI4
(dp423
I0
g406
sI1
g413
sI2
g419
sI3
g422
sI4
(lp424
ssa(dp425
I0
(dp426
I0
(lp427
sI1
(lp428
sI2
(lp429
sI3
(lp430
sI4
(lp431
ssI1
(dp432
I0
g428
sI1
(lp433
sI2
(lp434
sI3
(lp435
sI4
(lp436
ssI2
(dp437
I0
g429
sI1
g434
sI2
(lp438
sI3
(lp439
sI4
(lp440
ssI3
(dp441
I0
g430
sI1
g435
sI2
g439
sI3
(lp442
sI4
(lp443
ssI4
(dp444
I0
g431
sI1
g436
sI2
g440
sI3
g443
sI4
(lp445
ssa.