(lp1
(dp2
I0
(dp3
I0
(lp4
sI1
(lp5
sI2
(lp6
sI3
(lp7
sI4
(lp8
sI5
(lp9
ssI1
(dp10
I0
g5
sI1
(lp11
sI2
(lp12
sI3
(lp13
sI4
(lp14
sI5
(lp15
ssI2
(dp16
I0
g6
sI1
g12
sI2
(lp17
sI3
(lp18
sI4
(lp19
sI5
(lp20
ssI3
(dp21
I0
g7
sI1
g13
sI2
g18
sI3
(lp22
sI4
(lp23
sI5
(lp24
Vhttp://dbpedia.org/ontology/imdbId
p25
aVhttp://www.w3.org/1999/02/22-rdf-syntax-ns#type
p26
aVhttp://www.w3.org/2000/01/rdf-schema#comment
p27
aVhttp://dbpedia.org/ontology/abstract
p28
aVhttp://purl.org/voc/vrank#hasRank
p29
aVhttp://dbpedia.org/property/id
p30
aVhttp://www.w3.org/ns/prov#wasDerivedFrom
p31
aVhttp://www.w3.org/2002/07/owl#sameAs
p32
assI4
(dp33
I0
g8
sI1
g14
sI2
g19
sI3
g23
sI4
(lp34
sI5
(lp35
ssI5
(dp36
I0
g9
sI1
g15
sI2
g20
sI3
g24
sI4
g35
sI5
(lp37
ssa(dp38
I0
(dp39
I0
(lp40
sI1
(lp41
Vhttp://dbpedia.org/ontology/abstract
p42
aVhttp://www.w3.org/2000/01/rdf-schema#comment
p43
asI2
(lp44
sI3
(lp45
sI4
(lp46
sI5
(lp47
Vhttp://dbpedia.org/ontology/wikiPageExternalLink
p48
aVhttp://dbpedia.org/ontology/imdbId
p49
aVhttp://www.w3.org/1999/02/22-rdf-syntax-ns#type
p50
aVhttp://purl.org/dc/terms/subject
p51
aVhttp://www.w3.org/2000/01/rdf-schema#comment
p52
aVhttp://dbpedia.org/ontology/abstract
p53
aVhttp://xmlns.com/foaf/0.1/depiction
p54
aVhttp://dbpedia.org/property/wordnet_type
p55
aVhttp://dbpedia.org/ontology/thumbnail
p56
aVhttp://dbpedia.org/property/creator
p57
aVhttp://dbpedia.org/property/caption
p58
aVhttp://dbpedia.org/ontology/creator
p59
assI1
(dp60
I0
g41
sI1
(lp61
sI2
(lp62
sI3
(lp63
sI4
(lp64
sI5
(lp65
ssI2
(dp66
I0
g44
sI1
g62
sI2
(lp67
sI3
(lp68
sI4
(lp69
sI5
(lp70
ssI3
(dp71
I0
g45
sI1
g63
sI2
g68
sI3
(lp72
sI4
(lp73
sI5
(lp74
ssI4
(dp75
I0
g46
sI1
g64
sI2
g69
sI3
g73
sI4
(lp76
sI5
(lp77
ssI5
(dp78
I0
g47
sI1
g65
sI2
g70
sI3
g74
sI4
g77
sI5
(lp79
ssa(dp80
I0
(dp81
I0
(lp82
sI1
(lp83
sI2
(lp84
sI3
(lp85
sI4
(lp86
sI5
(lp87
ssI1
(dp88
I0
g83
sI1
(lp89
sI2
(lp90
sI3
(lp91
sI4
(lp92
sI5
(lp93
ssI2
(dp94
I0
g84
sI1
g90
sI2
(lp95
sI3
(lp96
sI4
(lp97
sI5
(lp98
ssI3
(dp99
I0
g85
sI1
g91
sI2
g96
sI3
(lp100
sI4
(lp101
sI5
(lp102
ssI4
(dp103
I0
g86
sI1
g92
sI2
g97
sI3
g101
sI4
(lp104
sI5
(lp105
ssI5
(dp106
I0
g87
sI1
g93
sI2
g98
sI3
g102
sI4
g105
sI5
(lp107
ssa(dp108
I0
(dp109
I0
(lp110
sI1
(lp111
sI2
(lp112
sI3
(lp113
sI4
(lp114
sI5
(lp115
ssI1
(dp116
I1
(lp117
sI2
(lp118
sI3
(lp119
sI4
(lp120
sI5
(lp121
ssI2
(dp122
I0
g112
sI1
g118
sI2
(lp123
sI3
(lp124
sI4
(lp125
sI5
(lp126
ssI3
(dp127
I0
g113
sI1
g119
sI2
g124
sI3
(lp128
sI4
(lp129
sI5
(lp130
ssI4
(dp131
I0
g114
sI1
g120
sI2
g125
sI3
g129
sI4
(lp132
sI5
(lp133
ssI5
(dp134
I2
g126
sI3
g130
sI4
g133
sI5
(lp135
ssa(dp136
I0
(dp137
I0
(lp138
sI1
(lp139
sI2
(lp140
sI3
(lp141
sI4
(lp142
sI5
(lp143
ssI1
(dp144
I0
g139
sI1
(lp145
sI2
(lp146
sI3
(lp147
sI4
(lp148
sI5
(lp149
ssI2
(dp150
I0
g140
sI1
g146
sI2
(lp151
sI3
(lp152
sI4
(lp153
sI5
(lp154
ssI3
(dp155
I0
g141
sI1
g147
sI2
g152
sI3
(lp156
sI4
(lp157
sI5
(lp158
ssI4
(dp159
I0
g142
sI1
g148
sI2
g153
sI3
g157
sI4
(lp160
sI5
(lp161
ssI5
(dp162
I0
g143
sI1
g149
sI2
g154
sI3
g158
sI4
g161
sI5
(lp163
ssa(dp164
I0
(dp165
I0
(lp166
sI1
(lp167
sI2
(lp168
sI3
(lp169
sI4
(lp170
sI5
(lp171
ssI1
(dp172
I1
(lp173
sI2
(lp174
sI3
(lp175
sI4
(lp176
sI5
(lp177
ssI2
(dp178
I0
g168
sI1
g174
sI2
(lp179
sI3
(lp180
sI4
(lp181
sI5
(lp182
ssI3
(dp183
I0
g169
sI1
g175
sI2
g180
sI3
(lp184
sI4
(lp185
sI5
(lp186
ssI4
(dp187
I0
g170
sI1
g176
sI2
g181
sI3
g185
sI4
(lp188
sI5
(lp189
ssI5
(dp190
I2
g182
sI3
g186
sI4
g189
sI5
(lp191
ssa(dp192
I0
(dp193
I0
(lp194
sI1
(lp195
sI2
(lp196
sI3
(lp197
sI4
(lp198
sI5
(lp199
ssI1
(dp200
I0
g195
sI1
(lp201
sI2
(lp202
sI3
(lp203
sI4
(lp204
sI5
(lp205
ssI2
(dp206
I0
g196
sI1
g202
sI2
(lp207
sI3
(lp208
sI4
(lp209
sI5
(lp210
ssI3
(dp211
I0
g197
sI1
g203
sI2
g208
sI3
(lp212
sI4
(lp213
sI5
(lp214
ssI4
(dp215
I0
g198
sI1
g204
sI2
g209
sI3
g213
sI4
(lp216
sI5
(lp217
ssI5
(dp218
I0
g199
sI1
g205
sI2
g210
sI3
g214
sI4
g217
sI5
(lp219
ssa(dp220
I0
(dp221
I0
(lp222
sI1
(lp223
sI2
(lp224
sI3
(lp225
sI4
(lp226
sI5
(lp227
ssI1
(dp228
I1
(lp229
sI2
(lp230
sI3
(lp231
sI4
(lp232
sI5
(lp233
ssI2
(dp234
I0
g224
sI1
g230
sI2
(lp235
sI3
(lp236
sI4
(lp237
sI5
(lp238
ssI3
(dp239
I0
g225
sI1
g231
sI2
g236
sI3
(lp240
sI4
(lp241
sI5
(lp242
ssI4
(dp243
I0
g226
sI1
g232
sI2
g237
sI3
g241
sI4
(lp244
sI5
(lp245
ssI5
(dp246
I2
g238
sI3
g242
sI4
g245
sI5
(lp247
ssa(dp248
I0
(dp249
I0
(lp250
sI1
(lp251
sI2
(lp252
sI3
(lp253
sI4
(lp254
sI5
(lp255
ssI1
(dp256
I0
g251
sI1
(lp257
sI2
(lp258
sI3
(lp259
sI4
(lp260
sI5
(lp261
ssI2
(dp262
I0
g252
sI1
g258
sI2
(lp263
sI3
(lp264
sI4
(lp265
sI5
(lp266
ssI3
(dp267
I0
g253
sI1
g259
sI2
g264
sI3
(lp268
sI4
(lp269
sI5
(lp270
ssI4
(dp271
I0
g254
sI1
g260
sI2
g265
sI3
g269
sI4
(lp272
sI5
(lp273
ssI5
(dp274
I0
g255
sI2
g266
sI3
g270
sI4
g273
sI5
(lp275
ssa(dp276
I0
(dp277
I0
(lp278
sI1
(lp279
sI2
(lp280
sI3
(lp281
sI4
(lp282
sI5
(lp283
ssI1
(dp284
I0
g279
sI1
(lp285
sI2
(lp286
sI3
(lp287
sI4
(lp288
sI5
(lp289
ssI2
(dp290
I0
g280
sI1
g286
sI2
(lp291
sI3
(lp292
sI4
(lp293
sI5
(lp294
ssI3
(dp295
I0
g281
sI1
g287
sI2
g292
sI3
(lp296
sI4
(lp297
sI5
(lp298
ssI4
(dp299
I0
g282
sI1
g288
sI2
g293
sI3
g297
sI4
(lp300
sI5
(lp301
ssI5
(dp302
I1
g289
sI2
g294
sI3
g298
sI4
g301
sI5
(lp303
ssa(dp304
I0
(dp305
I0
(lp306
sI1
(lp307
sI2
(lp308
sI3
(lp309
sI4
(lp310
sI5
(lp311
ssI1
(dp312
I0
g307
sI1
(lp313
sI2
(lp314
sI3
(lp315
sI4
(lp316
sI5
(lp317
Vhttp://dbpedia.org/ontology/wikiPageExternalLink
p318
aVhttp://xmlns.com/foaf/0.1/primaryTopic
p319
aVhttp://purl.org/dc/terms/subject
p320
aVhttp://www.w3.org/2000/01/rdf-schema#comment
p321
aVhttp://www.w3.org/2000/01/rdf-schema#label
p322
aVhttp://dbpedia.org/ontology/abstract
p323
aVhttp://dbpedia.org/ontology/wikiPageRedirects
p324
aVhttp://purl.org/voc/vrank#hasRank
p325
aVhttp://xmlns.com/foaf/0.1/isPrimaryTopicOf
p326
aVhttp://www.w3.org/ns/prov#wasDerivedFrom
p327
aVhttp://dbpedia.org/ontology/wikiPageDisambiguates
p328
aVhttp://www.w3.org/2002/07/owl#sameAs
p329
assI2
(dp330
I0
g308
sI1
g314
sI2
(lp331
sI3
(lp332
sI4
(lp333
sI5
(lp334
ssI3
(dp335
I0
g309
sI1
g315
sI2
g332
sI3
(lp336
sI4
(lp337
sI5
(lp338
ssI4
(dp339
I0
g310
sI1
g316
sI2
g333
sI3
g337
sI4
(lp340
sI5
(lp341
ssI5
(dp342
I0
g311
sI1
g317
sI2
g334
sI3
g338
sI4
g341
sI5
(lp343
ssa(dp344
I0
(dp345
I0
(lp346
sI1
(lp347
Vhttp://dbpedia.org/ontology/abstract
p348
aVhttp://www.w3.org/2000/01/rdf-schema#comment
p349
asI2
(lp350
sI3
(lp351
sI4
(lp352
sI5
(lp353
ssI1
(dp354
I0
g347
sI1
(lp355
sI2
(lp356
sI3
(lp357
sI4
(lp358
sI5
(lp359
ssI2
(dp360
I0
g350
sI1
g356
sI2
(lp361
sI3
(lp362
sI4
(lp363
sI5
(lp364
ssI3
(dp365
I0
g351
sI1
g357
sI2
g362
sI3
(lp366
sI4
(lp367
sI5
(lp368
ssI4
(dp369
I0
g352
sI1
g358
sI2
g363
sI3
g367
sI4
(lp370
sI5
(lp371
ssI5
(dp372
I0
g353
sI1
g359
sI2
g364
sI3
g368
sI4
g371
sI5
(lp373
ssa(dp374
I0
(dp375
I0
(lp376
sI1
(lp377
sI2
(lp378
sI3
(lp379
sI4
(lp380
sI5
(lp381
ssI1
(dp382
I0
g377
sI1
(lp383
sI2
(lp384
sI3
(lp385
sI4
(lp386
sI5
(lp387
ssI2
(dp388
I0
g378
sI1
g384
sI2
(lp389
sI3
(lp390
sI4
(lp391
sI5
(lp392
ssI3
(dp393
I0
g379
sI1
g385
sI2
g390
sI3
(lp394
sI4
(lp395
sI5
(lp396
ssI4
(dp397
I0
g380
sI1
g386
sI2
g391
sI3
g395
sI4
(lp398
sI5
(lp399
ssI5
(dp400
I1
g387
sI2
g392
sI3
g396
sI4
g399
sI5
(lp401
ssa(dp402
I0
(dp403
I0
(lp404
sI1
(lp405
sI2
(lp406
sI3
(lp407
sI4
(lp408
sI5
(lp409
ssI1
(dp410
I0
g405
sI1
(lp411
sI2
(lp412
sI3
(lp413
sI4
(lp414
sI5
(lp415
ssI2
(dp416
I0
g406
sI1
g412
sI2
(lp417
sI3
(lp418
sI4
(lp419
sI5
(lp420
ssI3
(dp421
I0
g407
sI1
g413
sI2
g418
sI3
(lp422
sI4
(lp423
sI5
(lp424
ssI4
(dp425
I0
g408
sI1
g414
sI2
g419
sI3
g423
sI4
(lp426
sI5
(lp427
ssI5
(dp428
I0
g409
sI1
g415
sI2
g420
sI3
g424
sI4
g427
sI5
(lp429
ssa(dp430
I0
(dp431
I0
(lp432
sI1
(lp433
sI2
(lp434
sI3
(lp435
sI4
(lp436
sI5
(lp437
ssI1
(dp438
I0
g433
sI1
(lp439
sI2
(lp440
sI3
(lp441
sI4
(lp442
sI5
(lp443
ssI2
(dp444
I0
g434
sI1
g440
sI2
(lp445
sI3
(lp446
sI4
(lp447
sI5
(lp448
ssI3
(dp449
I0
g435
sI1
g441
sI2
g446
sI3
(lp450
sI4
(lp451
sI5
(lp452
ssI4
(dp453
I0
g436
sI1
g442
sI2
g447
sI3
g451
sI4
(lp454
sI5
(lp455
ssI5
(dp456
I1
g443
sI2
g448
sI3
g452
sI4
g455
sI5
(lp457
ssa(dp458
I0
(dp459
I0
(lp460
sI1
(lp461
sI2
(lp462
sI3
(lp463
sI4
(lp464
sI5
(lp465
ssI1
(dp466
I0
g461
sI1
(lp467
sI2
(lp468
sI3
(lp469
sI4
(lp470
sI5
(lp471
ssI2
(dp472
I0
g462
sI1
g468
sI2
(lp473
sI3
(lp474
sI4
(lp475
sI5
(lp476
ssI3
(dp477
I0
g463
sI1
g469
sI2
g474
sI3
(lp478
sI4
(lp479
sI5
(lp480
ssI4
(dp481
I0
g464
sI1
g470
sI2
g475
sI3
g479
sI4
(lp482
sI5
(lp483
ssI5
(dp484
I1
g471
sI2
g476
sI3
g480
sI4
g483
sI5
(lp485
ssa(dp486
I0
(dp487
I0
(lp488
sI1
(lp489
sI2
(lp490
sI3
(lp491
sI4
(lp492
sI5
(lp493
ssI1
(dp494
I1
(lp495
sI2
(lp496
sI3
(lp497
sI4
(lp498
sI5
(lp499
ssI2
(dp500
I0
g490
sI1
g496
sI2
(lp501
sI3
(lp502
sI4
(lp503
sI5
(lp504
ssI3
(dp505
I0
g491
sI1
g497
sI2
g502
sI3
(lp506
sI4
(lp507
sI5
(lp508
ssI4
(dp509
I0
g492
sI1
g498
sI2
g503
sI3
g507
sI4
(lp510
sI5
(lp511
ssI5
(dp512
I2
g504
sI3
g508
sI4
g511
sI5
(lp513
ssa(dp514
I0
(dp515
I0
(lp516
sI1
(lp517
sI2
(lp518
sI3
(lp519
sI4
(lp520
sI5
(lp521
ssI1
(dp522
I0
g517
sI1
(lp523
sI2
(lp524
sI3
(lp525
sI4
(lp526
sI5
(lp527
ssI2
(dp528
I0
g518
sI1
g524
sI2
(lp529
sI3
(lp530
sI4
(lp531
sI5
(lp532
ssI3
(dp533
I0
g519
sI1
g525
sI2
g530
sI3
(lp534
sI4
(lp535
sI5
(lp536
ssI4
(dp537
I0
g520
sI1
g526
sI2
g531
sI3
g535
sI4
(lp538
sI5
(lp539
ssI5
(dp540
I0
g521
sI2
g532
sI3
g536
sI4
g539
sI5
(lp541
ssa(dp542
I0
(dp543
I0
(lp544
sI1
(lp545
sI2
(lp546
sI3
(lp547
sI4
(lp548
sI5
(lp549
ssI1
(dp550
I0
g545
sI1
(lp551
sI2
(lp552
sI3
(lp553
sI4
(lp554
sI5
(lp555
ssI2
(dp556
I0
g546
sI1
g552
sI2
(lp557
sI3
(lp558
sI4
(lp559
sI5
(lp560
ssI3
(dp561
I0
g547
sI1
g553
sI2
g558
sI3
(lp562
sI4
(lp563
sI5
(lp564
ssI4
(dp565
I0
g548
sI1
g554
sI2
g559
sI3
g563
sI4
(lp566
sI5
(lp567
ssI5
(dp568
I0
g549
sI2
g560
sI3
g564
sI4
g567
sI5
(lp569
ssa.