(lp1
(dp2
I0
(dp3
I0
(lp4
sI1
(lp5
sI2
(lp6
sI3
(lp7
ssI1
(dp8
I0
g5
sI1
(lp9
sI2
(lp10
sI3
(lp11
Vhttp://www.w3.org/ns/prov#wasDerivedFrom
p12
aVhttp://dbpedia.org/property/hasPhotoCollection
p13
aVhttp://dbpedia.org/ontology/thumbnail
p14
assI2
(dp15
I0
g6
sI1
g10
sI2
(lp16
sI3
(lp17
ssI3
(dp18
I0
g7
sI1
g11
sI2
g17
sI3
(lp19
ssa(dp20
I0
(dp21
I0
(lp22
sI1
(lp23
sI2
(lp24
sI3
(lp25
Vhttp://dbpedia.org/ontology/wikiPageExternalLink
p26
aVhttp://dbpedia.org/property/constructionCost
p27
aVhttp://www.georss.org/georss/point
p28
aVhttp://www.w3.org/2000/01/rdf-schema#comment
p29
aVhttp://dbpedia.org/ontology/abstract
p30
aVhttp://dbpedia.org/ontology/cost
p31
aVhttp://dbpedia.org/property/ballpark
p32
aVhttp://www.w3.org/ns/prov#wasDerivedFrom
p33
aVhttp://www.w3.org/1999/02/22-rdf-syntax-ns#type
p34
aVhttp://www.w3.org/2002/07/owl#sameAs
p35
assI1
(dp36
I0
g23
sI1
(lp37
sI2
(lp38
sI3
(lp39
ssI2
(dp40
I0
g24
sI1
g38
sI2
(lp41
sI3
(lp42
ssI3
(dp43
I0
g25
sI1
g39
sI2
g42
sI3
(lp44
ssa(dp45
I0
(dp46
I0
(lp47
sI1
(lp48
sI2
(lp49
sI3
(lp50
ssI1
(dp51
I0
g48
sI1
(lp52
sI2
(lp53
sI3
(lp54
ssI2
(dp55
I0
g49
sI1
g53
sI2
(lp56
sI3
(lp57
ssI3
(dp58
I0
g50
sI1
g54
sI2
g57
sI3
(lp59
ssa(dp60
I0
(dp61
I0
(lp62
sI1
(lp63
sI2
(lp64
sI3
(lp65
ssI1
(dp66
I0
g63
sI1
(lp67
sI2
(lp68
sI3
(lp69
ssI2
(dp70
I0
g64
sI1
g68
sI2
(lp71
sI3
(lp72
ssI3
(dp73
I0
g65
sI1
g69
sI2
g72
sI3
(lp74
ssa(dp75
I0
(dp76
I0
(lp77
sI1
(lp78
sI2
(lp79
sI3
(lp80
Vhttp://dbpedia.org/ontology/wikiPageExternalLink
p81
aVhttp://www.w3.org/1999/02/22-rdf-syntax-ns#type
p82
aVhttp://www.w3.org/2000/01/rdf-schema#comment
p83
aVhttp://dbpedia.org/ontology/revenue
p84
aVhttp://dbpedia.org/ontology/abstract
p85
aVhttp://xmlns.com/foaf/0.1/depiction
p86
aVhttp://dbpedia.org/property/wordnet_type
p87
aVhttp://purl.org/voc/vrank#hasRank
p88
aVhttp://dbpedia.org/ontology/thumbnail
p89
aVhttp://www.w3.org/ns/prov#wasDerivedFrom
p90
aVhttp://www.w3.org/2002/07/owl#sameAs
p91
aVhttp://dbpedia.org/property/revenue
p92
assI1
(dp93
I0
g78
sI1
(lp94
sI2
(lp95
sI3
(lp96
ssI2
(dp97
I0
g79
sI1
g95
sI2
(lp98
sI3
(lp99
ssI3
(dp100
I0
g80
sI1
g96
sI2
g99
sI3
(lp101
ssa(dp102
I0
(dp103
I0
(lp104
sI1
(lp105
sI2
(lp106
sI3
(lp107
ssI1
(dp108
I0
g105
sI1
(lp109
sI2
(lp110
sI3
(lp111
ssI2
(dp112
I0
g106
sI1
g110
sI2
(lp113
sI3
(lp114
ssI3
(dp115
I0
g107
sI1
g111
sI2
g114
sI3
(lp116
ssa(dp117
I0
(dp118
I0
(lp119
sI1
(lp120
sI2
(lp121
sI3
(lp122
Vhttp://www.w3.org/1999/02/22-rdf-syntax-ns#type
p123
aVhttp://purl.org/dc/terms/subject
p124
aVhttp://www.w3.org/2000/01/rdf-schema#comment
p125
aVhttp://dbpedia.org/ontology/abstract
p126
aVhttp://purl.org/voc/vrank#hasRank
p127
aVhttp://www.w3.org/2002/07/owl#sameAs
p128
assI1
(dp129
I0
g120
sI1
(lp130
sI2
(lp131
sI3
(lp132
ssI2
(dp133
I0
g121
sI1
g131
sI2
(lp134
sI3
(lp135
ssI3
(dp136
I0
g122
sI1
g132
sI2
g135
sI3
(lp137
ssa(dp138
I0
(dp139
I0
(lp140
sI1
(lp141
sI2
(lp142
sI3
(lp143
ssI1
(dp144
I0
g141
sI1
(lp145
sI2
(lp146
sI3
(lp147
ssI2
(dp148
I0
g142
sI1
g146
sI2
(lp149
sI3
(lp150
ssI3
(dp151
I0
g143
sI1
g147
sI2
g150
sI3
(lp152
ssa(dp153
I0
(dp154
I0
(lp155
sI1
(lp156
Vhttp://dbpedia.org/ontology/abstract
p157
asI2
(lp158
sI3
(lp159
Vhttp://www.w3.org/1999/02/22-rdf-syntax-ns#type
p160
aVhttp://www.w3.org/2000/01/rdf-schema#comment
p161
aVhttp://dbpedia.org/ontology/abstract
p162
aVhttp://dbpedia.org/property/hoovers
p163
aVhttp://purl.org/voc/vrank#hasRank
p164
aVhttp://www.w3.org/ns/prov#wasDerivedFrom
p165
aVhttp://dbpedia.org/ontology/viafId
p166
aVhttp://www.w3.org/2002/07/owl#sameAs
p167
assI1
(dp168
I0
g156
sI1
(lp169
sI2
(lp170
sI3
(lp171
Vhttp://dbpedia.org/ontology/wikiPageExternalLink
p172
aVhttp://dbpedia.org/property/available
p173
aVhttp://purl.org/voc/vrank#hasRank
p174
aVhttp://www.w3.org/ns/prov#wasDerivedFrom
p175
aVhttp://www.w3.org/2002/07/owl#sameAs
p176
aVhttp://dbpedia.org/ontology/broadcastArea
p177
assI2
(dp178
I0
g158
sI1
g170
sI2
(lp179
sI3
(lp180
ssI3
(dp181
I0
g159
sI1
g171
sI2
g180
sI3
(lp182
ssa(dp183
I0
(dp184
I0
(lp185
sI1
(lp186
sI2
(lp187
sI3
(lp188
ssI1
(dp189
I0
g186
sI1
(lp190
sI2
(lp191
sI3
(lp192
ssI2
(dp193
I0
g187
sI1
g191
sI2
(lp194
sI3
(lp195
ssI3
(dp196
I0
g188
sI1
g192
sI2
g195
sI3
(lp197
ssa(dp198
I0
(dp199
I0
(lp200
sI1
(lp201
sI2
(lp202
sI3
(lp203
ssI1
(dp204
I0
g201
sI1
(lp205
sI2
(lp206
sI3
(lp207
ssI2
(dp208
I0
g202
sI1
g206
sI2
(lp209
sI3
(lp210
ssI3
(dp211
I0
g203
sI1
g207
sI2
g210
sI3
(lp212
ssa(dp213
I0
(dp214
I0
(lp215
sI1
(lp216
sI2
(lp217
sI3
(lp218
ssI1
(dp219
I0
g216
sI1
(lp220
sI2
(lp221
sI3
(lp222
ssI2
(dp223
I0
g217
sI1
g221
sI2
(lp224
sI3
(lp225
ssI3
(dp226
I0
g218
sI1
g222
sI2
g225
sI3
(lp227
ssa(dp228
I0
(dp229
I0
(lp230
sI1
(lp231
sI2
(lp232
sI3
(lp233
Vhttp://www.georss.org/georss/point
p234
aVhttp://purl.org/dc/terms/subject
p235
aVhttp://www.w3.org/2000/01/rdf-schema#comment
p236
aVhttp://dbpedia.org/ontology/abstract
p237
aVhttp://dbpedia.org/property/wordnet_type
p238
aVhttp://purl.org/voc/vrank#hasRank
p239
aVhttp://www.w3.org/1999/02/22-rdf-syntax-ns#type
p240
aVhttp://www.w3.org/ns/prov#wasDerivedFrom
p241
aVhttp://www.w3.org/2002/07/owl#sameAs
p242
assI1
(dp243
I0
g231
sI1
(lp244
sI2
(lp245
sI3
(lp246
ssI2
(dp247
I0
g232
sI1
g245
sI2
(lp248
sI3
(lp249
ssI3
(dp250
I0
g233
sI1
g246
sI2
g249
sI3
(lp251
ssa(dp252
I0
(dp253
I0
(lp254
sI1
(lp255
sI2
(lp256
sI3
(lp257
ssI1
(dp258
I0
g255
sI1
(lp259
sI2
(lp260
sI3
(lp261
ssI2
(dp262
I0
g256
sI2
(lp263
sI3
(lp264
ssI3
(dp265
I0
g257
sI3
(lp266
ssa.