(lp1
(lp2
(lp3
a(lp4
a(lp5
aa(lp6
(lp7
a(lp8
Vhttp://dbpedia.org/resource/Tampa_International_Film_Festival
p9
aa(lp10
aa(lp11
(lp12
a(lp13
Vhttp://dbpedia.org/resource/Camden_International_Film_Festival
p14
aa(lp15
aa(lp16
(lp17
a(lp18
a(lp19
aa(lp20
(lp21
a(lp22
Vhttp://dbpedia.org/resource/Adelaide_Film_Festival
p23
aa(lp24
aa(lp25
(lp26
a(lp27
a(lp28
aa(lp29
(lp30
a(lp31
Vhttp://dbpedia.org/resource/BFI_London_Film_Festival
p32
aa(lp33
aa(lp34
(lp35
a(lp36
a(lp37
aa(lp38
(lp39
a(lp40
a(lp41
aa(lp42
(lp43
a(lp44
Vhttp://dbpedia.org/resource/KROK_International_Animated_Films_Festival
p45
aa(lp46
aa(lp47
(lp48
a(lp49
Vhttp://dbpedia.org/resource/24th_Fajr_International_Film_Festival
p50
aa(lp51
aa(lp52
(lp53
a(lp54
a(lp55
aa(lp56
(lp57
a(lp58
a(lp59
aa(lp60
(lp61
a(lp62
a(lp63
aa(lp64
(lp65
a(lp66
a(lp67
aa(lp68
(lp69
a(lp70
a(lp71
aa(lp72
(lp73
a(lp74
a(lp75
aa(lp76
(lp77
a(lp78
a(lp79
aa(lp80
(lp81
a(lp82
a(lp83
aa.