(lp1
(dp2
I0
(dp3
I0
(lp4
sI1
(lp5
sI2
(lp6
sI3
(lp7
sI4
(lp8
Vhttp://dbpedia.org/ontology/abstract
p9
aVhttp://www.w3.org/2000/01/rdf-schema#comment
p10
assI1
(dp11
I0
g5
sI1
(lp12
sI2
(lp13
sI3
(lp14
sI4
(lp15
ssI2
(dp16
I0
g6
sI1
g13
sI2
(lp17
sI3
(lp18
sI4
(lp19
ssI3
(dp20
I0
g7
sI1
g14
sI2
g18
sI3
(lp21
sI4
(lp22
ssI4
(dp23
I0
g8
sI1
g15
sI2
g19
sI3
g22
sI4
(lp24
ssa(dp25
I0
(dp26
I0
(lp27
sI1
(lp28
sI2
(lp29
sI3
(lp30
sI4
(lp31
Vhttp://www.w3.org/2000/01/rdf-schema#seeAlso
p32
aVhttp://dbpedia.org/ontology/country
p33
aVhttp://dbpedia.org/ontology/location
p34
aVhttp://dbpedia.org/ontology/capital
p35
aVhttp://dbpedia.org/ontology/birthPlace
p36
aVhttp://dbpedia.org/ontology/abstract
p37
aVhttp://dbpedia.org/property/countriesAffected
p38
aVhttp://dbpedia.org/property/place
p39
aVhttp://dbpedia.org/property/location
p40
aVhttp://dbpedia.org/property/capital
p41
aVhttp://www.w3.org/2000/01/rdf-schema#comment
p42
aVhttp://dbpedia.org/property/birthPlace
p43
aVhttp://dbpedia.org/property/ground
p44
aVhttp://dbpedia.org/property/placeOfBirth
p45
aVhttp://dbpedia.org/property/country
p46
aVhttp://dbpedia.org/property/locale
p47
aVhttp://dbpedia.org/ontology/ground
p48
aVhttp://dbpedia.org/property/subdivisionName
p49
assI1
(dp50
I0
g28
sI1
(lp51
sI2
(lp52
sI3
(lp53
sI4
(lp54
ssI2
(dp55
I0
g29
sI1
g52
sI2
(lp56
sI3
(lp57
sI4
(lp58
ssI3
(dp59
I0
g30
sI1
g53
sI2
g57
sI3
(lp60
sI4
(lp61
ssI4
(dp62
I0
g31
sI1
g54
sI2
g58
sI3
g61
sI4
(lp63
ssa(dp64
I0
(dp65
I0
(lp66
sI1
(lp67
sI2
(lp68
sI3
(lp69
sI4
(lp70
ssI1
(dp71
I0
g67
sI1
(lp72
sI2
(lp73
sI3
(lp74
sI4
(lp75
ssI2
(dp76
I0
g68
sI1
g73
sI2
(lp77
sI3
(lp78
sI4
(lp79
ssI3
(dp80
I0
g69
sI1
g74
sI2
g78
sI3
(lp81
sI4
(lp82
ssI4
(dp83
I0
g70
sI1
g75
sI2
g79
sI3
g82
sI4
(lp84
ssa(dp85
I0
(dp86
I0
(lp87
sI1
(lp88
sI2
(lp89
sI3
(lp90
sI4
(lp91
Vhttp://dbpedia.org/ontology/country
p92
aVhttp://dbpedia.org/ontology/location
p93
aVhttp://www.w3.org/2000/01/rdf-schema#comment
p94
aVhttp://dbpedia.org/ontology/timeZone
p95
aVhttp://dbpedia.org/ontology/abstract
p96
aVhttp://dbpedia.org/ontology/capital
p97
aVhttp://dbpedia.org/property/place
p98
aVhttp://dbpedia.org/property/location
p99
aVhttp://dbpedia.org/property/capital
p100
aVhttp://dbpedia.org/property/timeZone
p101
aVhttp://dbpedia.org/property/ground
p102
aVhttp://dbpedia.org/property/country
p103
aVhttp://dbpedia.org/ontology/ground
p104
aVhttp://dbpedia.org/property/establishedEvent
p105
aVhttp://dbpedia.org/ontology/broadcastArea
p106
assI1
(dp107
I0
g88
sI1
(lp108
sI2
(lp109
sI3
(lp110
sI4
(lp111
ssI2
(dp112
I0
g89
sI1
g109
sI2
(lp113
sI3
(lp114
sI4
(lp115
ssI3
(dp116
I0
g90
sI1
g110
sI2
g114
sI3
(lp117
sI4
(lp118
ssI4
(dp119
I0
g91
sI1
g111
sI2
g115
sI3
g118
sI4
(lp120
ssa(dp121
I0
(dp122
I0
(lp123
sI1
(lp124
sI2
(lp125
sI3
(lp126
sI4
(lp127
ssI1
(dp128
I0
g124
sI1
(lp129
sI2
(lp130
sI3
(lp131
sI4
(lp132
ssI2
(dp133
I0
g125
sI1
g130
sI2
(lp134
sI3
(lp135
sI4
(lp136
ssI3
(dp137
I0
g126
sI1
g131
sI2
g135
sI3
(lp138
sI4
(lp139
ssI4
(dp140
I0
g127
sI1
g132
sI2
g136
sI3
g139
sI4
(lp141
ssa(dp142
I0
(dp143
I0
(lp144
sI1
(lp145
sI2
(lp146
sI3
(lp147
sI4
(lp148
ssI1
(dp149
I0
g145
sI1
(lp150
sI2
(lp151
sI3
(lp152
sI4
(lp153
ssI2
(dp154
I0
g146
sI1
g151
sI2
(lp155
sI3
(lp156
sI4
(lp157
ssI3
(dp158
I0
g147
sI1
g152
sI2
g156
sI3
(lp159
sI4
(lp160
ssI4
(dp161
I0
g148
sI1
g153
sI2
g157
sI3
g160
sI4
(lp162
ssa.