ccollections
defaultdict
p1
(c__builtin__
dict
p2
tRp3
I11
(dp4
I0
(lp5
sI2
(lp6
Vhttp://www.w3.org/2000/01/rdf-schema#seeAlso
p7
aVhttp://dbpedia.org/ontology/type
p8
aVhttp://dbpedia.org/property/settlementType
p9
aVhttp://dbpedia.org/ontology/country
p10
aVhttp://www.w3.org/1999/02/22-rdf-syntax-ns#type
p11
aVhttp://dbpedia.org/property/postalCodeType
p12
aVhttp://dbpedia.org/property/birthPlace
p13
aVhttp://dbpedia.org/property/establishedTitle
p14
aVhttp://dbpedia.org/ontology/wikiPageExternalLink
p15
aVhttp://dbpedia.org/property/mapCaption
p16
aVhttp://purl.org/dc/terms/subject
p17
aVhttp://dbpedia.org/ontology/populationPlace
p18
aVhttp://dbpedia.org/ontology/abstract
p19
aVhttp://dbpedia.org/property/leaderName
p20
aVhttp://dbpedia.org/property/subdivisionName
p21
aVhttp://dbpedia.org/property/subdivisionType
p22
aVhttp://dbpedia.org/property/headquarters
p23
aVhttp://www.w3.org/2000/01/rdf-schema#comment
p24
aVhttp://dbpedia.org/property/popplace
p25
aVhttp://dbpedia.org/ontology/wikiPageRedirects
p26
aVhttp://dbpedia.org/property/leaderTitle
p27
aVhttp://dbpedia.org/ontology/birthPlace
p28
asI3
(lp29
sI4
(lp30
sI5
(lp31
ss.