(lp1
(lp2
(lp3
a(lp4
a(lp5
a(lp6
a(lp7
a(lp8
a(lp9
a(lp10
a(lp11
aa(lp12
(lp13
a(lp14
a(lp15
a(lp16
a(lp17
a(lp18
a(lp19
a(lp20
a(lp21
aa(lp22
(lp23
a(lp24
a(lp25
a(lp26
a(lp27
a(lp28
a(lp29
a(lp30
a(lp31
aa(lp32
(lp33
a(lp34
a(lp35
a(lp36
a(lp37
a(lp38
a(lp39
a(lp40
a(lp41
aa(lp42
(lp43
a(lp44
a(lp45
a(lp46
a(lp47
a(lp48
a(lp49
a(lp50
a(lp51
aa(lp52
(lp53
a(lp54
a(lp55
a(lp56
a(lp57
a(lp58
a(lp59
a(lp60
a(lp61
aa(lp62
(lp63
a(lp64
a(lp65
a(lp66
a(lp67
a(lp68
a(lp69
a(lp70
a(lp71
aa(lp72
(lp73
a(lp74
a(lp75
a(lp76
a(lp77
a(lp78
a(lp79
a(lp80
a(lp81
aa(lp82
(lp83
a(lp84
a(lp85
a(lp86
a(lp87
a(lp88
a(lp89
a(lp90
a(lp91
aa(lp92
(lp93
a(lp94
a(lp95
a(lp96
a(lp97
a(lp98
a(lp99
a(lp100
a(lp101
aa(lp102
(lp103
a(lp104
a(lp105
a(lp106
a(lp107
a(lp108
a(lp109
a(lp110
a(lp111
aa(lp112
(lp113
a(lp114
a(lp115
a(lp116
a(lp117
a(lp118
a(lp119
a(lp120
a(lp121
aa(lp122
(lp123
a(lp124
a(lp125
a(lp126
a(lp127
a(lp128
a(lp129
a(lp130
a(lp131
aa(lp132
(lp133
a(lp134
a(lp135
a(lp136
a(lp137
a(lp138
a(lp139
a(lp140
a(lp141
((lp142
Vhttp://dbpedia.org/class/yago/AdministrativeDistrict108491826
p143
aVhttp://dbpedia.org/class/yago/Artifact100021939
p144
aVhttp://dbpedia.org/class/yago/District108552138
p145
aVhttp://dbpedia.org/class/yago/Excavation103302121
p146
aVhttp://dbpedia.org/class/yago/Facility103315023
p147
aVhttp://dbpedia.org/class/yago/Location100027167
p148
aVhttp://dbpedia.org/class/yago/Mine103768346
p149
aVhttp://dbpedia.org/class/yago/Object100002684
p150
aVhttp://dbpedia.org/class/yago/Region108630985
p151
aVhttp://dbpedia.org/class/yago/Whole100003553
p152
aVhttp://dbpedia.org/class/yago/YagoGeoEntity
p153
aVhttp://dbpedia.org/class/yago/YagoLegalActorGeo
p154
aVhttp://www.w3.org/2002/07/owl#Thing
p155
aVhttp://dbpedia.org/ontology/Place
p156
aVhttp://dbpedia.org/ontology/Location
p157
aVhttp://www.wikidata.org/entity/Q486972
p158
aVhttp://dbpedia.org/ontology/PopulatedPlace
p159
aVhttp://dbpedia.org/ontology/Settlement
p160
aVhttp://www.w3.org/2003/01/geo/wgs84_pos#SpatialThing
p161
aVhttp://schema.org/Place
p162
aVhttp://dbpedia.org/class/yago/CopperMine103104147
p163
aVhttp://dbpedia.org/class/yago/CopperMinesInTheUnitedStates
p164
aVhttp://dbpedia.org/class/yago/YagoPermanentlyLocatedEntity
p165
aVhttp://dbpedia.org/class/yago/GoldMinesInTheUnitedStates
p166
aVhttp://dbpedia.org/class/yago/Goldmine103445217
p167
aVhttp://dbpedia.org/class/yago/MinesInAlaska
p168
aVhttp://dbpedia.org/class/yago/PhysicalEntity100001930
p169
aVhttp://dbpedia.org/class/yago/Source104263614
p170
aVhttp://dbpedia.org/resource/Pebble_Mine
p171
tp172
aaa(lp173
(lp174
a(lp175
a(lp176
a(lp177
a(lp178
a(lp179
a(lp180
a(lp181
a(lp182
aa(lp183
(lp184
a(lp185
a(lp186
a(lp187
a(lp188
a(lp189
a(lp190
a(lp191
a(lp192
aa(lp193
(lp194
a(lp195
a(lp196
a(lp197
a(lp198
a(lp199
a(lp200
a(lp201
a(lp202
aa(lp203
(lp204
a(lp205
a(lp206
a(lp207
a(lp208
a(lp209
a(lp210
a(lp211
a(lp212
aa(lp213
(lp214
a(lp215
a(lp216
a(lp217
a(lp218
a(lp219
a(lp220
a(lp221
a(lp222
aa.