(lp1
(lp2
(lp3
a(lp4
a(lp5
Vhttp://dbpedia.org/resource/2006_Korea_Open
p6
aa(lp7
a(lp8
a(lp9
a(lp10
a(lp11
a(lp12
a(lp13
a(lp14
Vhttp://dbpedia.org/resource/Open_GDF_Suez_de_Cagnes-sur-Mer_Alpes-Maritimes
p15
aa(lp16
a(lp17
a(lp18
a(lp19
a(lp20
a(lp21
a(lp22
a(lp23
aa.