(lp1
(lp2
(lp3
Vhttp://dbpedia.org/resource/U.S._National_Indoor_Tennis_Championships
p4
aa(lp5
a(lp6
a(lp7
a(lp8
a(lp9
Vhttp://dbpedia.org/resource/Men's_Rimouski_Challenger
p10
aa(lp11
Vhttp://dbpedia.org/resource/Coleman_Vision_Tennis_Championships
p12
aa(lp13
a(lp14
a(lp15
a(lp16
a(lp17
a(lp18
a(lp19
a(lp20
Vhttp://dbpedia.org/resource/Hall_of_Fame_Tennis_Championships
p21
aa(lp22
a(lp23
a(lp24
a(lp25
aa.