(lp1
(lp2
(lp3
Vhttp://dbpedia.org/resource/Saltoro_Mountains
p4
aa(lp5
Vhttp://dbpedia.org/resource/Satpura_Range
p6
aa(lp7
a(lp8
Vhttp://dbpedia.org/resource/Sierra_Madre_(Philippines)
p9
aa(lp10
Vhttp://dbpedia.org/resource/Snowy_Mountains
p11
aa(lp12
Vhttp://dbpedia.org/resource/Spenser_Mountains
p13
aa(lp14
a(lp15
Vhttp://dbpedia.org/resource/Suva_Planina
p16
aa(lp17
Vhttp://dbpedia.org/resource/Tanzawa_Mountains
p18
aa(lp19
Vhttp://dbpedia.org/resource/Teviot_Range
p20
aa(lp21
Vhttp://dbpedia.org/resource/Tian_Shan
p22
aa(lp23
Vhttp://dbpedia.org/resource/Tswapong_Hills
p24
aa(lp25
Vhttp://dbpedia.org/resource/Tweed_Range
p26
aa(lp27
Vhttp://dbpedia.org/resource/Ural_Mountains
p28
aa(lp29
Vhttp://dbpedia.org/resource/Verron_Range
p30
aa(lp31
Vhttp://dbpedia.org/resource/Vindhya_Range
p32
aa(lp33
Vhttp://dbpedia.org/resource/Western_Ghats
p34
aa(lp35
Vhttp://dbpedia.org/resource/Witwatersrand
p36
aa(lp37
Vhttp://dbpedia.org/resource/Wolkberg
p38
aaa.