(lp1
(lp2
(lp3
((lp4
Vhttp://www.w3.org/2002/07/owl#Thing
p5
aVhttp://dbpedia.org/ontology/Bacteria
p6
aVhttp://dbpedia.org/ontology/Species
p7
aVhttp://dbpedia.org/resource/Acaricomes_phytoseiuli
tp8
aa(lp9
a(lp10
a(lp11
a(lp12
a(lp13
a(lp14
((lp15
Vhttp://www.w3.org/2002/07/owl#Thing
p16
aVhttp://dbpedia.org/ontology/Bacteria
p17
aVhttp://dbpedia.org/ontology/Species
p18
aVhttp://dbpedia.org/resource/Acaricomes_phytoseiuli
p19
tp20
aa(lp21
a(lp22
aa(lp23
(lp24
a(lp25
a(lp26
a(lp27
a(lp28
a(lp29
a(lp30
a(lp31
a(lp32
aa(lp33
(lp34
a(lp35
a(lp36
a(lp37
a(lp38
a(lp39
a(lp40
a(lp41
a(lp42
aa(lp43
(lp44
a(lp45
a(lp46
a(lp47
a(lp48
a(lp49
a(lp50
a(lp51
a(lp52
aa(lp53
(lp54
a(lp55
a(lp56
a(lp57
a(lp58
a(lp59
a(lp60
a(lp61
a(lp62
aa(lp63
(lp64
a(lp65
a(lp66
a(lp67
a(lp68
a(lp69
a(lp70
a(lp71
a(lp72
aa(lp73
(lp74
a(lp75
a(lp76
a(lp77
a(lp78
a(lp79
a(lp80
a(lp81
a(lp82
aa(lp83
(lp84
a(lp85
a(lp86
a(lp87
a(lp88
a(lp89
a(lp90
a(lp91
a(lp92
aa(lp93
(lp94
a(lp95
a(lp96
a(lp97
a(lp98
a(lp99
a(lp100
a(lp101
a(lp102
aa(lp103
(lp104
a(lp105
a(lp106
a(lp107
a(lp108
a(lp109
a(lp110
a(lp111
a(lp112
aa(lp113
(lp114
a(lp115
a(lp116
a(lp117
a(lp118
a(lp119
a(lp120
a(lp121
a(lp122
aa(lp123
(lp124
a(lp125
a(lp126
a(lp127
a(lp128
a(lp129
a(lp130
a(lp131
a(lp132
aa(lp133
(lp134
a(lp135
a(lp136
a(lp137
a(lp138
a(lp139
a(lp140
a(lp141
a(lp142
aa(lp143
(lp144
a(lp145
a(lp146
a(lp147
a(lp148
a(lp149
a(lp150
a(lp151
a(lp152
aa(lp153
(lp154
a(lp155
a(lp156
a(lp157
a(lp158
a(lp159
a(lp160
a(lp161
a(lp162
aa(lp163
(lp164
a(lp165
a(lp166
a(lp167
a(lp168
a(lp169
a(lp170
a(lp171
a(lp172
aa(lp173
(lp174
a(lp175
a(lp176
a(lp177
a(lp178
a(lp179
a(lp180
a(lp181
a(lp182
aa(lp183
(lp184
a(lp185
a(lp186
a(lp187
a(lp188
a(lp189
a(lp190
a(lp191
a(lp192
aa(lp193
(lp194
a(lp195
a(lp196
a(lp197
a(lp198
a(lp199
a(lp200
a(lp201
a(lp202
aa.