(lp1
(lp2
(lp3
a(lp4
a(lp5
a(lp6
((lVhttp://dbpedia.org/resource/Messier_62
tp7
aa(lp8
((lVhttp://dbpedia.org/resource/Messier_62
tp9
aa(lp10
((lVhttp://dbpedia.org/resource/Messier_62
tp11
aa(lp12
((lVhttp://dbpedia.org/resource/Messier_62
tp13
aa(lp14
((lVhttp://dbpedia.org/resource/Messier_62
tp15
aa(lp16
((lVhttp://dbpedia.org/resource/Messier_62
tp17
aa(lp18
((lVhttp://dbpedia.org/resource/Messier_62
tp19
aa(lp20
((lVhttp://dbpedia.org/resource/Messier_62
tp21
aa(lp22
((lVhttp://dbpedia.org/resource/Messier_62
tp23
aa(lp24
((lVhttp://dbpedia.org/resource/Messier_62
tp25
aa(lp26
a(lp27
a(lp28
((lVhttp://dbpedia.org/resource/NGC_362
tp29
aa(lp30
a(lp31
a(lp32
((lVhttp://dbpedia.org/resource/Messier_70
p33
tp34
aaa.