(lp1
(lp2
(lp3
a(lp4
a(lp5
a(lp6
aa(lp7
(lp8
a(lp9
a(lp10
a(lp11
aa(lp12
(lp13
a(lp14
a(lp15
a(lp16
aa(lp17
(lp18
a(lp19
a(lp20
a(lp21
aa(lp22
(lp23
a(lp24
a(lp25
a(lp26
aa(lp27
(lp28
a(lp29
a(lp30
a(lp31
aa(lp32
(lp33
a(lp34
a(lp35
a(lp36
aa(lp37
(lp38
((lp39
Vhttp://dbpedia.org/class/yago/Abstraction100002137
p40
aVhttp://dbpedia.org/class/yago/Association108049401
p41
aVhttp://dbpedia.org/class/yago/Club108227214
p42
aVhttp://dbpedia.org/class/yago/Group100031264
p43
aVhttp://dbpedia.org/class/yago/Organization108008335
p44
aVhttp://dbpedia.org/class/yago/SocialGroup107950920
p45
aVhttp://dbpedia.org/class/yago/Team108208560
p46
aVhttp://dbpedia.org/class/yago/Unit108189659
p47
aVhttp://dbpedia.org/class/yago/YagoLegalActorGeo
p48
aVhttp://dbpedia.org/class/yago/SportsClubsEstablishedIn1946
p49
aVhttp://www.w3.org/2002/07/owl#Thing
p50
aVhttp://www.ontologydesignpatterns.org/ont/dul/DUL.owl#Agent
p51
aVhttp://www.ontologydesignpatterns.org/ont/dul/DUL.owl#SocialPerson
p52
aVhttp://www.wikidata.org/entity/Q43229
p53
aVhttp://dbpedia.org/ontology/Agent
p54
aVhttp://dbpedia.org/ontology/AmericanFootballTeam
p55
aVhttp://dbpedia.org/ontology/Organisation
p56
aVhttp://dbpedia.org/ontology/SportsTeam
p57
aVhttp://schema.org/Organization
p58
aVhttp://schema.org/SportsTeam
p59
aVhttp://umbel.org/umbel/rc/Club_Organization
p60
aVhttp://umbel.org/umbel/rc/OrganizationOfOrganizations
p61
aVhttp://dbpedia.org/class/yago/YagoPermanentlyLocatedEntity
p62
aVhttp://dbpedia.org/class/yago/NationalFootballLeagueTeams
p63
aVhttp://dbpedia.org/class/yago/YagoLegalActor
p64
aVhttp://dbpedia.org/resource/Cleveland_Browns
tp65
aa(lp66
a(lp67
a(lp68
aa(lp69
(lp70
a(lp71
a(lp72
a(lp73
aa(lp74
(lp75
a(lp76
a(lp77
a(lp78
aa(lp79
(lp80
a(lp81
a(lp82
a(lp83
aa(lp84
(lp85
a(lp86
a(lp87
a(lp88
aa(lp89
(lp90
a(lp91
a(lp92
a(lp93
aa(lp94
(lp95
a(lp96
a(lp97
a(lp98
aa(lp99
(lp100
a(lp101
a(lp102
a(lp103
aa(lp104
(lp105
((lVhttp://dbpedia.org/resource/1888_New_York_Giants_season
tp106
aa(lp107
a(lp108
a(lp109
aa(lp110
(lp111
((lVhttp://dbpedia.org/resource/List_of_Bossier\u2013Shreveport_Battle_Wings_seasons
p112
tp113
aa(lp114
a(lp115
a(lp116
aa(lp117
(lp118
a(lp119
a(lp120
a(lp121
aa(lp122
(lp123
a(lp124
a(lp125
a(lp126
aa.