(lp1
(lp2
(lp3
a(lp4
Vhttp://dbpedia.org/resource/Massachusetts
p5
aa(lp6
a(lp7
aa(lp8
(lp9
a(lp10
a(lp11
a(lp12
Vhttp://dbpedia.org/resource/Raina_Telgemeier
p13
aaa(lp14
(lp15
a(lp16
a(lp17
a(lp18
Vhttp://dbpedia.org/resource/Ron_Worley
p19
aaa(lp20
(lp21
a(lp22
a(lp23
a(lp24
Vhttp://dbpedia.org/resource/Teddy_Kristiansen
p25
aaa(lp26
(lp27
a(lp28
a(lp29
a(lp30
Vhttp://dbpedia.org/resource/Adrian_Smith_(illustrator)
p31
aaa(lp32
(lp33
a(lp34
a(lp35
a(lp36
Vhttp://dbpedia.org/resource/Charles_Thorson
p37
aaa(lp38
(lp39
a(lp40
a(lp41
a(lp42
Vhttp://dbpedia.org/resource/Fumiyo_K\u014dno
p43
aaa(lp44
(lp45
a(lp46
a(lp47
a(lp48
Vhttp://dbpedia.org/resource/Hakase_Mizuki
p49
aaa(lp50
(lp51
a(lp52
a(lp53
a(lp54
Vhttp://dbpedia.org/resource/Hans_Lindahl
p55
aaa(lp56
(lp57
a(lp58
a(lp59
a(lp60
Vhttp://dbpedia.org/resource/Hinako_Ashihara
p61
aaa(lp62
(lp63
a(lp64
a(lp65
a(lp66
Vhttp://dbpedia.org/resource/Joe_Zabel
p67
aaa(lp68
(lp69
a(lp70
a(lp71
a(lp72
Vhttp://dbpedia.org/resource/U.S._Agent
p73
aaa(lp74
(lp75
a(lp76
a(lp77
a(lp78
Vhttp://dbpedia.org/resource/Kimio_Yanagisawa
p79
aaa(lp80
(lp81
a(lp82
a(lp83
a(lp84
Vhttp://dbpedia.org/resource/Martin_Geraghty
p85
aaa(lp86
(lp87
a(lp88
a(lp89
a(lp90
Vhttp://dbpedia.org/resource/Mizuki_Kawashita
p91
aaa(lp92
(lp93
a(lp94
a(lp95
a(lp96
Vhttp://dbpedia.org/resource/Posy_Simmonds
p97
aaa(lp98
(lp99
a(lp100
a(lp101
a(lp102
Vhttp://dbpedia.org/resource/Richard_Burton_(comics)
p103
aaa(lp104
(lp105
a(lp106
a(lp107
a(lp108
Vhttp://dbpedia.org/resource/Zoran_Janjetov
p109
aaa(lp110
(lp111
a(lp112
a(lp113
a(lp114
aa.