(lp1
(dp2
I0
(dp3
I0
(lp4
sI1
(lp5
Vhttp://dbpedia.org/ontology/wikiPageExternalLink
p6
asI2
(lp7
sI3
(lp8
Vhttp://www.w3.org/ns/prov#wasDerivedFrom
p9
assI1
(dp10
I0
g5
sI1
(lp11
sI2
(lp12
sI3
(lp13
ssI2
(dp14
I0
g7
sI1
g12
sI2
(lp15
sI3
(lp16
ssI3
(dp17
I0
g8
sI1
g13
sI2
g16
sI3
(lp18
ssa(dp19
I0
(dp20
I0
(lp21
sI1
(lp22
sI2
(lp23
sI3
(lp24
ssI1
(dp25
I0
g22
sI1
(lp26
sI2
(lp27
sI3
(lp28
ssI2
(dp29
I0
g23
sI2
(lp30
sI3
(lp31
ssI3
(dp32
I0
g24
sI3
(lp33
ssa(dp34
I0
(dp35
I0
(lp36
sI1
(lp37
sI2
(lp38
sI3
(lp39
ssI1
(dp40
I0
g37
sI1
(lp41
sI2
(lp42
sI3
(lp43
ssI2
(dp44
I0
g38
sI2
(lp45
sI3
(lp46
ssI3
(dp47
I0
g39
sI3
(lp48
ssa(dp49
I0
(dp50
I0
(lp51
sI1
(lp52
sI2
(lp53
sI3
(lp54
ssI1
(dp55
I0
g52
sI1
(lp56
sI2
(lp57
sI3
(lp58
ssI2
(dp59
I0
g53
sI2
(lp60
sI3
(lp61
ssI3
(dp62
I0
g54
sI3
(lp63
ssa(dp64
I0
(dp65
I0
(lp66
sI1
(lp67
sI2
(lp68
sI3
(lp69
ssI1
(dp70
I0
g67
sI1
(lp71
sI2
(lp72
sI3
(lp73
ssI2
(dp74
I0
g68
sI1
g72
sI2
(lp75
sI3
(lp76
ssI3
(dp77
I0
g69
sI1
g73
sI2
g76
sI3
(lp78
ssa(dp79
I0
(dp80
I0
(lp81
sI1
(lp82
sI2
(lp83
sI3
(lp84
ssI1
(dp85
I0
g82
sI1
(lp86
sI2
(lp87
sI3
(lp88
ssI2
(dp89
I0
g83
sI2
(lp90
sI3
(lp91
ssI3
(dp92
I0
g84
sI3
(lp93
ssa(dp94
I0
(dp95
I0
(lp96
sI1
(lp97
sI2
(lp98
sI3
(lp99
ssI1
(dp100
I0
g97
sI1
(lp101
sI2
(lp102
sI3
(lp103
ssI2
(dp104
I0
g98
sI2
(lp105
sI3
(lp106
ssI3
(dp107
I0
g99
sI3
(lp108
ssa(dp109
I0
(dp110
I0
(lp111
sI1
(lp112
sI2
(lp113
sI3
(lp114
ssI1
(dp115
I0
g112
sI1
(lp116
sI2
(lp117
sI3
(lp118
ssI2
(dp119
I0
g113
sI2
(lp120
sI3
(lp121
ssI3
(dp122
I0
g114
sI3
(lp123
ssa(dp124
I0
(dp125
I0
(lp126
sI1
(lp127
sI2
(lp128
sI3
(lp129
ssI1
(dp130
I0
g127
sI1
(lp131
sI2
(lp132
sI3
(lp133
ssI2
(dp134
I0
g128
sI2
(lp135
sI3
(lp136
ssI3
(dp137
I0
g129
sI3
(lp138
ssa(dp139
I0
(dp140
I0
(lp141
sI1
(lp142
sI2
(lp143
sI3
(lp144
ssI1
(dp145
I0
g142
sI1
(lp146
sI2
(lp147
sI3
(lp148
ssI2
(dp149
I0
g143
sI1
g147
sI2
(lp150
sI3
(lp151
ssI3
(dp152
I0
g144
sI1
g148
sI2
g151
sI3
(lp153
ssa(dp154
I0
(dp155
I0
(lp156
sI1
(lp157
sI2
(lp158
sI3
(lp159
ssI1
(dp160
I0
g157
sI1
(lp161
sI2
(lp162
sI3
(lp163
ssI2
(dp164
I0
g158
sI2
(lp165
sI3
(lp166
ssI3
(dp167
I0
g159
sI3
(lp168
ssa(dp169
I0
(dp170
I0
(lp171
sI1
(lp172
sI2
(lp173
sI3
(lp174
ssI1
(dp175
I0
g172
sI1
(lp176
sI2
(lp177
sI3
(lp178
ssI2
(dp179
I0
g173
sI1
g177
sI2
(lp180
sI3
(lp181
ssI3
(dp182
I0
g174
sI1
g178
sI2
g181
sI3
(lp183
ssa(dp184
I0
(dp185
I0
(lp186
sI1
(lp187
Vhttp://dbpedia.org/ontology/wikiPageExternalLink
p188
aVhttp://xmlns.com/foaf/0.1/homepage
p189
asI2
(lp190
sI3
(lp191
Vhttp://www.w3.org/ns/prov#wasDerivedFrom
p192
assI1
(dp193
I0
g187
sI1
(lp194
sI2
(lp195
sI3
(lp196
ssI2
(dp197
I0
g190
sI1
g195
sI2
(lp198
sI3
(lp199
ssI3
(dp200
I0
g191
sI1
g196
sI2
g199
sI3
(lp201
ssa(dp202
I0
(dp203
I0
(lp204
sI1
(lp205
sI2
(lp206
sI3
(lp207
ssI1
(dp208
I0
g205
sI1
(lp209
sI2
(lp210
sI3
(lp211
ssI2
(dp212
I0
g206
sI1
g210
sI2
(lp213
sI3
(lp214
ssI3
(dp215
I0
g207
sI1
g211
sI2
g214
sI3
(lp216
ssa(dp217
I0
(dp218
I0
(lp219
sI1
(lp220
sI2
(lp221
sI3
(lp222
ssI1
(dp223
I0
g220
sI1
(lp224
sI2
(lp225
sI3
(lp226
ssI2
(dp227
I0
g221
sI2
(lp228
sI3
(lp229
ssI3
(dp230
I0
g222
sI3
(lp231
ssa(dp232
I0
(dp233
I0
(lp234
sI1
(lp235
sI2
(lp236
sI3
(lp237
ssI1
(dp238
I0
g235
sI1
(lp239
sI2
(lp240
sI3
(lp241
ssI2
(dp242
I0
g236
sI1
g240
sI2
(lp243
sI3
(lp244
ssI3
(dp245
I0
g237
sI1
g241
sI2
g244
sI3
(lp246
ssa(dp247
I0
(dp248
I0
(lp249
sI1
(lp250
sI2
(lp251
sI3
(lp252
ssI1
(dp253
I0
g250
sI1
(lp254
sI2
(lp255
sI3
(lp256
ssI2
(dp257
I0
g251
sI2
(lp258
sI3
(lp259
ssI3
(dp260
I0
g252
sI3
(lp261
ssa(dp262
I0
(dp263
I0
(lp264
sI1
(lp265
sI2
(lp266
sI3
(lp267
ssI1
(dp268
I0
g265
sI1
(lp269
sI2
(lp270
sI3
(lp271
ssI2
(dp272
I0
g266
sI2
(lp273
sI3
(lp274
ssI3
(dp275
I0
g267
sI3
(lp276
ssa(dp277
I0
(dp278
I0
(lp279
sI1
(lp280
sI2
(lp281
sI3
(lp282
ssI1
(dp283
I0
g280
sI1
(lp284
sI2
(lp285
sI3
(lp286
ssI2
(dp287
I0
g281
sI2
(lp288
sI3
(lp289
ssI3
(dp290
I0
g282
sI3
(lp291
ssa.