(lp1
(lp2
(lp3
Vhttp://dbpedia.org/resource/Francesca_Lubiani
p4
aa(lp5
Vhttp://dbpedia.org/resource/Francesca_Schiavone
p6
aa(lp7
Vhttp://dbpedia.org/resource/Hazel_Hotchkiss_Wightman
p8
aa(lp9
Vhttp://dbpedia.org/resource/Helga_Niessen_Masthoff
p10
aa(lp11
a(lp12
Vhttp://dbpedia.org/resource/Jill_Craybas
p13
aa(lp14
Vhttp://dbpedia.org/resource/John_Cooper_(tennis)
p15
aa(lp16
Vhttp://dbpedia.org/resource/John_James_(tennis)
p17
aa(lp18
Vhttp://dbpedia.org/resource/John_Richardson_(tennis)
p19
aa(lp20
Vhttp://dbpedia.org/resource/Katarzyna_Piter
p21
aa(lp22
Vhttp://dbpedia.org/resource/Kira_Nagy
p23
aa(lp24
Vhttp://dbpedia.org/resource/Laura_Albanese
p25
aa(lp26
a(lp27
a(lp28
Vhttp://dbpedia.org/resource/Mark_Hilton_(tennis)
p29
aa(lp30
a(lp31
a(lp32
Vhttp://dbpedia.org/resource/Nadia_Petrova
p33
aa(lp34
Vhttp://dbpedia.org/resource/Neuza_Silva
p35
aaa.