(lp1
(lp2
(lp3
a(lp4
aa(lp5
(lp6
Vhttp://dbpedia.org/resource/St._Brides_Correctional_Center
p7
aa(lp8
aa(lp9
(lp10
Vhttp://dbpedia.org/resource/Tihar_Jail
p11
aa(lp12
aa(lp13
(lp14
Vhttp://dbpedia.org/resource/Toowoomba_Prison
p15
aa(lp16
aa(lp17
(lp18
Vhttp://dbpedia.org/resource/Adelaide_Pre-Release_Centre
p19
aa(lp20
aa(lp21
(lp22
Vhttp://dbpedia.org/resource/Adelaide_Remand_Centre
p23
aa(lp24
aa(lp25
(lp26
Vhttp://dbpedia.org/resource/Adelaide_Women's_Prison
p27
aa(lp28
aa(lp29
(lp30
Vhttp://dbpedia.org/resource/Albany_Regional_Prison
p31
aa(lp32
aa(lp33
(lp34
Vhttp://dbpedia.org/resource/Bandyup_Women's_Prison
p35
aa(lp36
aa(lp37
(lp38
Vhttp://dbpedia.org/resource/Banksia_Hill_Juvenile_Detention_Centre
p39
aa(lp40
aa(lp41
(lp42
Vhttp://dbpedia.org/resource/Bathurst_Correctional_Complex
p43
aa(lp44
aa(lp45
(lp46
Vhttp://dbpedia.org/resource/Boronia_Pre-release_Centre_for_Women
p47
aa(lp48
aa(lp49
(lp50
Vhttp://dbpedia.org/resource/Brewarrina_(Yetta_Dhinnakkal)_Centre
p51
aa(lp52
aa(lp53
(lp54
Vhttp://dbpedia.org/resource/Brisbane_Women's_Correctional_Centre
p55
aa(lp56
aa(lp57
(lp58
Vhttp://dbpedia.org/resource/Bunbury_Regional_Prison
p59
aa(lp60
aa(lp61
(lp62
Vhttp://dbpedia.org/resource/Cooma_Correctional_Centre
p63
aa(lp64
aa(lp65
(lp66
Vhttp://dbpedia.org/resource/Dame_Phyllis_Frost_Centre
p67
aa(lp68
aa(lp69
(lp70
Vhttp://dbpedia.org/resource/Darling_Downs_Correctional_Centre
p71
aa(lp72
aa(lp73
(lp74
Vhttp://dbpedia.org/resource/Don_Jail
p75
aa(lp76
aa.