(lp1
(lp2
(lp3
a(lp4
a(lp5
Vhttp://dbpedia.org/resource/Davenport_Glacier
p6
aaa(lp7
(lp8
a(lp9
a(lp10
Vhttp://dbpedia.org/resource/Davidson_Glacier
p11
aaa(lp12
(lp13
a(lp14
a(lp15
Vhttp://dbpedia.org/resource/Dana_Glacier_(Washington)
p16
aaa(lp17
(lp18
a(lp19
a(lp20
aa(lp21
(lp22
a(lp23
a(lp24
Vhttp://dbpedia.org/resource/Dinwoody_Glacier
p25
aaa(lp26
(lp27
a(lp28
a(lp29
Vhttp://dbpedia.org/resource/Dixon_Glacier
p30
aaa(lp31
(lp32
a(lp33
a(lp34
aa(lp35
(lp36
a(lp37
a(lp38
Vhttp://dbpedia.org/resource/Douglas_Glacier_(Washington)
p39
aaa(lp40
(lp41
a(lp42
a(lp43
Vhttp://dbpedia.org/resource/Downer_Glacier
p44
aaa(lp45
(lp46
a(lp47
a(lp48
Vhttp://dbpedia.org/resource/Downs_Glacier
p49
aaa(lp50
(lp51
a(lp52
a(lp53
Vhttp://dbpedia.org/resource/DuNoir_Glacier
p54
aaa(lp55
(lp56
a(lp57
a(lp58
Vhttp://dbpedia.org/resource/Dusty_Glacier
p59
aaa(lp60
(lp61
a(lp62
a(lp63
Vhttp://dbpedia.org/resource/Easton_Glacier
p64
aaa(lp65
(lp66
a(lp67
a(lp68
Vhttp://dbpedia.org/resource/Foraker_Glacier
p69
aaa(lp70
(lp71
a(lp72
a(lp73
Vhttp://dbpedia.org/resource/Forbidden_Glacier
p74
aaa(lp75
(lp76
a(lp77
a(lp78
Vhttp://dbpedia.org/resource/Fremont_Glacier_(Washington)
p79
aaa(lp80
(lp81
a(lp82
a(lp83
Vhttp://dbpedia.org/resource/Fryingpan_Glacier
p84
aaa(lp85
(lp86
a(lp87
a(lp88
Vhttp://dbpedia.org/resource/Gannett_Glacier
p89
aaa(lp90
(lp91
a(lp92
a(lp93
aa.