(lp1
(lp2
(lp3
a(lp4
aa(lp5
(lp6
((lp7
Vhttp://www.w3.org/2002/07/owl#Thing
p8
aVhttp://xmlns.com/foaf/0.1/Person
p9
aVhttp://dbpedia.org/ontology/Person
p10
aVhttp://www.ontologydesignpatterns.org/ont/dul/DUL.owl#Agent
p11
aVhttp://www.ontologydesignpatterns.org/ont/dul/DUL.owl#NaturalPerson
p12
aVhttp://www.wikidata.org/entity/Q215627
p13
aVhttp://www.wikidata.org/entity/Q5
p14
aVhttp://www.wikidata.org/entity/Q95074
p15
aVhttp://dbpedia.org/ontology/Agent
p16
aVhttp://dbpedia.org/ontology/FictionalCharacter
p17
aVhttp://dbpedia.org/ontology/SoapCharacter
p18
aVhttp://schema.org/Person
p19
aVhttp://dbpedia.org/resource/List_of_Home_and_Away_characters_(2013)
tp20
aa(lp21
aa(lp22
(lp23
((lp24
Vhttp://dbpedia.org/class/yago/AmericanPeopleOfArmenianDescent
p25
aVhttp://dbpedia.org/class/yago/AmericanPeopleOfGreekDescent
p26
aVhttp://dbpedia.org/class/yago/CausalAgent100007347
p27
aVhttp://dbpedia.org/class/yago/Emigrant110051975
p28
aVhttp://dbpedia.org/class/yago/LivingThing100004258
p29
aVhttp://dbpedia.org/class/yago/Object100002684
p30
aVhttp://dbpedia.org/class/yago/Organism100004475
p31
aVhttp://dbpedia.org/class/yago/Person100007846
p32
aVhttp://dbpedia.org/class/yago/Traveler109629752
p33
aVhttp://dbpedia.org/class/yago/Whole100003553
p34
aVhttp://dbpedia.org/class/yago/YagoLegalActorGeo
p35
aVhttp://www.w3.org/2002/07/owl#Thing
p36
aVhttp://xmlns.com/foaf/0.1/Person
p37
aVhttp://dbpedia.org/ontology/Person
p38
aVhttp://www.ontologydesignpatterns.org/ont/dul/DUL.owl#Agent
p39
aVhttp://www.ontologydesignpatterns.org/ont/dul/DUL.owl#NaturalPerson
p40
aVhttp://www.wikidata.org/entity/Q215627
p41
aVhttp://www.wikidata.org/entity/Q36180
p42
aVhttp://www.wikidata.org/entity/Q5
p43
aVhttp://dbpedia.org/ontology/Agent
p44
aVhttp://dbpedia.org/ontology/Writer
p45
aVhttp://schema.org/Person
p46
aVhttp://umbel.org/umbel/rc/Artist
p47
aVhttp://umbel.org/umbel/rc/Writer
p48
aVhttp://dbpedia.org/class/yago/OttomanEmigrantsToTheUnitedStates
p49
aVhttp://dbpedia.org/class/yago/PeopleFromSamsun
p50
aVhttp://dbpedia.org/class/yago/YagoLegalActor
p51
aVhttp://dbpedia.org/class/yago/Migrant110314952
p52
aVhttp://dbpedia.org/class/yago/PhysicalEntity100001930
p53
aVhttp://dbpedia.org/resource/A._I._Bezzerides
tp54
aa(lp55
aa(lp56
(lp57
a(lp58
aa(lp59
(lp60
((lp61
Vhttp://www.w3.org/2002/07/owl#Thing
p62
aVhttp://xmlns.com/foaf/0.1/Person
p63
aVhttp://dbpedia.org/ontology/Person
p64
aVhttp://www.ontologydesignpatterns.org/ont/dul/DUL.owl#Agent
p65
aVhttp://www.ontologydesignpatterns.org/ont/dul/DUL.owl#NaturalPerson
p66
aVhttp://www.wikidata.org/entity/Q215627
p67
aVhttp://www.wikidata.org/entity/Q5
p68
aVhttp://www.wikidata.org/entity/Q95074
p69
aVhttp://dbpedia.org/ontology/Agent
p70
aVhttp://dbpedia.org/ontology/FictionalCharacter
p71
aVhttp://dbpedia.org/ontology/SoapCharacter
p72
aVhttp://schema.org/Person
p73
aVhttp://dbpedia.org/resource/List_of_Home_and_Away_characters_(2014)
tp74
aa(lp75
aa(lp76
(lp77
((lp78
Vhttp://www.w3.org/2002/07/owl#Thing
p79
aVhttp://xmlns.com/foaf/0.1/Person
p80
aVhttp://dbpedia.org/ontology/Person
p81
aVhttp://www.ontologydesignpatterns.org/ont/dul/DUL.owl#Agent
p82
aVhttp://www.ontologydesignpatterns.org/ont/dul/DUL.owl#NaturalPerson
p83
aVhttp://www.wikidata.org/entity/Q215627
p84
aVhttp://www.wikidata.org/entity/Q5
p85
aVhttp://www.wikidata.org/entity/Q95074
p86
aVhttp://dbpedia.org/ontology/Agent
p87
aVhttp://dbpedia.org/ontology/FictionalCharacter
p88
aVhttp://dbpedia.org/ontology/SoapCharacter
p89
aVhttp://schema.org/Person
p90
aVhttp://dbpedia.org/resource/List_of_Home_and_Away_characters_(2013)
tp91
aa(lp92
aa(lp93
(lp94
a(lp95
aa(lp96
(lp97
((lp98
Vhttp://dbpedia.org/class/yago/1985AustralianTelevisionSeriesDebuts
p99
aVhttp://dbpedia.org/class/yago/Abstraction100002137
p100
aVhttp://dbpedia.org/class/yago/Act100030358
p101
aVhttp://dbpedia.org/class/yago/Action100037396
p102
aVhttp://dbpedia.org/class/yago/Activity100407535
p103
aVhttp://dbpedia.org/class/yago/Announcement106746580
p104
aVhttp://dbpedia.org/class/yago/AustralianTelevisionSoapOperas
p105
aVhttp://dbpedia.org/class/yago/BBCTelevisionDramas
p106
aVhttp://dbpedia.org/class/yago/Beginning100235435
p107
aVhttp://dbpedia.org/class/yago/Broadcast106619428
p108
aVhttp://dbpedia.org/class/yago/Change100191142
p109
aVhttp://dbpedia.org/class/yago/ChangeOfState100199130
p110
aVhttp://dbpedia.org/class/yago/Communication100033020
p111
aVhttp://dbpedia.org/class/yago/Diversion100426928
p112
aVhttp://dbpedia.org/class/yago/DramaticComposition107007684
p113
aVhttp://dbpedia.org/class/yago/Entertainment100429048
p114
aVhttp://dbpedia.org/class/yago/Event100029378
p115
aVhttp://dbpedia.org/class/yago/Introduction100238022
p116
aVhttp://dbpedia.org/class/yago/Message106598915
p117
aVhttp://dbpedia.org/class/yago/Play107007945
p118
aVhttp://dbpedia.org/class/yago/Program106748466
p119
aVhttp://dbpedia.org/class/yago/Show100520257
p120
aVhttp://dbpedia.org/class/yago/Show106619065
p121
aVhttp://dbpedia.org/class/yago/SoapOpera106622020
p122
aVhttp://dbpedia.org/class/yago/SocialEvent107288639
p123
aVhttp://dbpedia.org/class/yago/Statement106722453
p124
aVhttp://dbpedia.org/class/yago/Writing106362953
p125
aVhttp://dbpedia.org/class/yago/SevenNetworkShows
p126
aVhttp://www.w3.org/2002/07/owl#Thing
p127
aVhttp://www.wikidata.org/entity/Q15416
p128
aVhttp://www.wikidata.org/entity/Q386724
p129
aVhttp://dbpedia.org/ontology/TelevisionShow
p130
aVhttp://dbpedia.org/ontology/Work
p131
aVhttp://schema.org/CreativeWork
p132
aVhttp://umbel.org/umbel/rc/TVShow_IBT
p133
aVhttp://dbpedia.org/class/yago/Channel5(UK)TelevisionProgrammes
p134
aVhttp://dbpedia.org/class/yago/Eleven(TVChannel)Shows
p135
aVhttp://dbpedia.org/class/yago/PsychologicalFeature100023100
p136
aVhttp://dbpedia.org/class/yago/WrittenCommunication106349220
p137
aVhttp://dbpedia.org/class/yago/YagoPermanentlyLocatedEntity
p138
aVhttp://dbpedia.org/class/yago/NetworkTenShows
p139
aVhttp://dbpedia.org/class/yago/Serial106621447
p140
aVhttp://dbpedia.org/resource/Neighbours
tp141
aa(lp142
aa(lp143
(lp144
a(lp145
aa(lp146
(lp147
a(lp148
aa(lp149
(lp150
a(lp151
aa(lp152
(lp153
((lp154
Vhttp://www.w3.org/2002/07/owl#Thing
p155
aVhttp://xmlns.com/foaf/0.1/Person
p156
aVhttp://dbpedia.org/ontology/Person
p157
aVhttp://www.ontologydesignpatterns.org/ont/dul/DUL.owl#Agent
p158
aVhttp://www.ontologydesignpatterns.org/ont/dul/DUL.owl#NaturalPerson
p159
aVhttp://www.wikidata.org/entity/Q215627
p160
aVhttp://www.wikidata.org/entity/Q5
p161
aVhttp://www.wikidata.org/entity/Q95074
p162
aVhttp://dbpedia.org/ontology/Agent
p163
aVhttp://dbpedia.org/ontology/FictionalCharacter
p164
aVhttp://dbpedia.org/ontology/SoapCharacter
p165
aVhttp://schema.org/Person
p166
aVhttp://dbpedia.org/resource/List_of_Home_and_Away_characters_(2013)
tp167
aa(lp168
aa(lp169
(lp170
((lp171
Vhttp://www.w3.org/2002/07/owl#Thing
p172
aVhttp://xmlns.com/foaf/0.1/Person
p173
aVhttp://dbpedia.org/ontology/Person
p174
aVhttp://www.ontologydesignpatterns.org/ont/dul/DUL.owl#Agent
p175
aVhttp://www.ontologydesignpatterns.org/ont/dul/DUL.owl#NaturalPerson
p176
aVhttp://www.wikidata.org/entity/Q215627
p177
aVhttp://www.wikidata.org/entity/Q5
p178
aVhttp://www.wikidata.org/entity/Q95074
p179
aVhttp://dbpedia.org/ontology/Agent
p180
aVhttp://dbpedia.org/ontology/FictionalCharacter
p181
aVhttp://dbpedia.org/ontology/SoapCharacter
p182
aVhttp://schema.org/Person
p183
aVhttp://dbpedia.org/resource/List_of_Home_and_Away_characters_(2013)
p184
tp185
aa(lp186
aa(lp187
(lp188
a(lp189
aa(lp190
(lp191
a(lp192
aa(lp193
(lp194
a(lp195
aa(lp196
(lp197
a(lp198
aa(lp199
(lp200
a(lp201
aa(lp202
(lp203
a(lp204
aa.