(lp1
(dp2
I0
(dp3
I0
(lp4
sI1
(lp5
sI2
(lp6
ssI1
(dp7
I0
g5
sI1
(lp8
sI2
(lp9
ssI2
(dp10
I0
g6
sI1
g9
sI2
(lp11
ssa(dp12
I0
(dp13
I0
(lp14
sI1
(lp15
sI2
(lp16
ssI1
(dp17
I0
g15
sI1
(lp18
sI2
(lp19
ssI2
(dp20
I0
g16
sI1
g19
sI2
(lp21
ssa(dp22
I0
(dp23
I0
(lp24
sI1
(lp25
sI2
(lp26
ssI1
(dp27
I0
g25
sI1
(lp28
sI2
(lp29
ssI2
(dp30
I0
g26
sI1
g29
sI2
(lp31
ssa(dp32
I0
(dp33
I0
(lp34
sI1
(lp35
Vhttp://www.w3.org/ns/prov#wasDerivedFrom
p36
asI2
(lp37
ssI1
(dp38
I0
g35
sI1
(lp39
sI2
(lp40
ssI2
(dp41
I0
g37
sI1
g40
sI2
(lp42
ssa(dp43
I0
(dp44
I0
(lp45
sI1
(lp46
Vhttp://www.w3.org/ns/prov#wasDerivedFrom
p47
asI2
(lp48
ssI1
(dp49
I0
g46
sI1
(lp50
sI2
(lp51
ssI2
(dp52
I0
g48
sI1
g51
sI2
(lp53
ssa(dp54
I0
(dp55
I0
(lp56
sI1
(lp57
Vhttp://www.w3.org/ns/prov#wasDerivedFrom
p58
asI2
(lp59
ssI1
(dp60
I0
g57
sI1
(lp61
sI2
(lp62
ssI2
(dp63
I0
g59
sI1
g62
sI2
(lp64
ssa(dp65
I0
(dp66
I0
(lp67
sI1
(lp68
sI2
(lp69
ssI1
(dp70
I0
g68
sI1
(lp71
sI2
(lp72
ssI2
(dp73
I0
g69
sI1
g72
sI2
(lp74
ssa(dp75
I0
(dp76
I0
(lp77
sI1
(lp78
sI2
(lp79
ssI1
(dp80
I0
g78
sI1
(lp81
sI2
(lp82
ssI2
(dp83
I0
g79
sI1
g82
sI2
(lp84
ssa(dp85
I0
(dp86
I0
(lp87
sI1
(lp88
sI2
(lp89
ssI1
(dp90
I0
g88
sI1
(lp91
sI2
(lp92
ssI2
(dp93
I1
g92
sI2
(lp94
ssa(dp95
I0
(dp96
I0
(lp97
sI1
(lp98
sI2
(lp99
ssI1
(dp100
I0
g98
sI1
(lp101
sI2
(lp102
ssI2
(dp103
I1
g102
sI2
(lp104
ssa(dp105
I0
(dp106
I0
(lp107
sI1
(lp108
sI2
(lp109
ssI1
(dp110
I0
g108
sI1
(lp111
sI2
(lp112
ssI2
(dp113
I0
g109
sI1
g112
sI2
(lp114
ssa(dp115
I0
(dp116
I0
(lp117
sI1
(lp118
sI2
(lp119
ssI1
(dp120
I0
g118
sI1
(lp121
sI2
(lp122
ssI2
(dp123
I1
g122
sI2
(lp124
ssa(dp125
I0
(dp126
I0
(lp127
sI1
(lp128
sI2
(lp129
ssI1
(dp130
I0
g128
sI1
(lp131
sI2
(lp132
ssI2
(dp133
I1
g132
sI2
(lp134
ssa(dp135
I0
(dp136
I0
(lp137
sI1
(lp138
Vhttp://www.w3.org/ns/prov#wasDerivedFrom
p139
asI2
(lp140
ssI1
(dp141
I0
g138
sI1
(lp142
sI2
(lp143
ssI2
(dp144
I0
g140
sI1
g143
sI2
(lp145
ssa(dp146
I0
(dp147
I0
(lp148
sI1
(lp149
Vhttp://www.w3.org/ns/prov#wasDerivedFrom
p150
asI2
(lp151
ssI1
(dp152
I0
g149
sI1
(lp153
sI2
(lp154
ssI2
(dp155
I0
g151
sI1
g154
sI2
(lp156
ssa(dp157
I0
(dp158
I0
(lp159
sI1
(lp160
sI2
(lp161
ssI1
(dp162
I0
g160
sI1
(lp163
sI2
(lp164
ssI2
(dp165
I1
g164
sI2
(lp166
ssa(dp167
I0
(dp168
I0
(lp169
sI1
(lp170
sI2
(lp171
ssI1
(dp172
I0
g170
sI1
(lp173
sI2
(lp174
ssI2
(dp175
I1
g174
sI2
(lp176
ssa(dp177
I0
(dp178
I0
(lp179
sI1
(lp180
Vhttp://www.w3.org/ns/prov#wasDerivedFrom
p181
asI2
(lp182
ssI1
(dp183
I0
g180
sI1
(lp184
sI2
(lp185
ssI2
(dp186
I0
g182
sI1
g185
sI2
(lp187
ssa(dp188
I0
(dp189
I0
(lp190
sI1
(lp191
Vhttp://www.w3.org/ns/prov#wasDerivedFrom
p192
asI2
(lp193
ssI1
(dp194
I0
g191
sI1
(lp195
sI2
(lp196
ssI2
(dp197
I0
g193
sI1
g196
sI2
(lp198
ssa.