(lp1
(lp2
(lp3
a(lp4
a(lp5
a(lp6
((lp7
Vhttp://www.w3.org/2002/07/owl#Thing
p8
aVhttp://dbpedia.org/ontology/FootballLeagueSeason
p9
aVhttp://dbpedia.org/ontology/NationalFootballLeagueSeason
p10
aVhttp://dbpedia.org/ontology/SportsSeason
p11
aVhttp://dbpedia.org/ontology/SportsTeamSeason
p12
aVhttp://dbpedia.org/resource/1995_Arizona_Cardinals_season
tp13
aaa(lp14
(lp15
a(lp16
a(lp17
a(lp18
((lp19
Vhttp://www.w3.org/2002/07/owl#Thing
p20
aVhttp://dbpedia.org/ontology/FootballLeagueSeason
p21
aVhttp://dbpedia.org/ontology/NationalFootballLeagueSeason
p22
aVhttp://dbpedia.org/ontology/SportsSeason
p23
aVhttp://dbpedia.org/ontology/SportsTeamSeason
p24
aVhttp://dbpedia.org/resource/1925_Kansas_City_Cowboys_season
tp25
aaa(lp26
(lp27
a(lp28
a(lp29
a(lp30
((lp31
Vhttp://www.w3.org/2002/07/owl#Thing
p32
aVhttp://dbpedia.org/ontology/FootballLeagueSeason
p33
aVhttp://dbpedia.org/ontology/NationalFootballLeagueSeason
p34
aVhttp://dbpedia.org/ontology/SportsSeason
p35
aVhttp://dbpedia.org/ontology/SportsTeamSeason
p36
aVhttp://dbpedia.org/resource/1974_BC_Lions_season
tp37
aaa(lp38
(lp39
a(lp40
a(lp41
a(lp42
((lp43
Vhttp://www.w3.org/2002/07/owl#Thing
p44
aVhttp://dbpedia.org/ontology/FootballLeagueSeason
p45
aVhttp://dbpedia.org/ontology/NationalFootballLeagueSeason
p46
aVhttp://dbpedia.org/ontology/SportsSeason
p47
aVhttp://dbpedia.org/ontology/SportsTeamSeason
p48
aVhttp://dbpedia.org/resource/1981_Oakland_Raiders_season
tp49
aaa(lp50
(lp51
a(lp52
a(lp53
a(lp54
((lp55
Vhttp://www.w3.org/2002/07/owl#Thing
p56
aVhttp://dbpedia.org/ontology/SoccerClubSeason
p57
aVhttp://dbpedia.org/ontology/SportsSeason
p58
aVhttp://dbpedia.org/ontology/SportsTeamSeason
p59
aVhttp://dbpedia.org/resource/2013_Richmond_Kickers_season
tp60
aaa(lp61
(lp62
a(lp63
a(lp64
a(lp65
((lp66
Vhttp://www.w3.org/2002/07/owl#Thing
p67
aVhttp://dbpedia.org/ontology/FootballLeagueSeason
p68
aVhttp://dbpedia.org/ontology/NationalFootballLeagueSeason
p69
aVhttp://dbpedia.org/ontology/SportsSeason
p70
aVhttp://dbpedia.org/ontology/SportsTeamSeason
p71
aVhttp://dbpedia.org/resource/1965_Pittsburgh_Steelers_season
tp72
aaa(lp73
(lp74
a(lp75
a(lp76
a(lp77
((lp78
Vhttp://dbpedia.org/class/yago/Abstraction100002137
p79
aVhttp://dbpedia.org/class/yago/Association108049401
p80
aVhttp://dbpedia.org/class/yago/Club108227214
p81
aVhttp://dbpedia.org/class/yago/Group100031264
p82
aVhttp://dbpedia.org/class/yago/Organization108008335
p83
aVhttp://dbpedia.org/class/yago/SocialGroup107950920
p84
aVhttp://dbpedia.org/class/yago/Team108208560
p85
aVhttp://dbpedia.org/class/yago/Unit108189659
p86
aVhttp://dbpedia.org/class/yago/YagoLegalActorGeo
p87
aVhttp://dbpedia.org/class/yago/SportsClubsEstablishedIn1946
p88
aVhttp://www.w3.org/2002/07/owl#Thing
p89
aVhttp://www.ontologydesignpatterns.org/ont/dul/DUL.owl#Agent
p90
aVhttp://www.ontologydesignpatterns.org/ont/dul/DUL.owl#SocialPerson
p91
aVhttp://www.wikidata.org/entity/Q43229
p92
aVhttp://dbpedia.org/ontology/Agent
p93
aVhttp://dbpedia.org/ontology/AmericanFootballTeam
p94
aVhttp://dbpedia.org/ontology/Organisation
p95
aVhttp://dbpedia.org/ontology/SportsTeam
p96
aVhttp://schema.org/Organization
p97
aVhttp://schema.org/SportsTeam
p98
aVhttp://umbel.org/umbel/rc/Club_Organization
p99
aVhttp://umbel.org/umbel/rc/OrganizationOfOrganizations
p100
aVhttp://dbpedia.org/class/yago/YagoPermanentlyLocatedEntity
p101
aVhttp://dbpedia.org/class/yago/NationalFootballLeagueTeams
p102
aVhttp://dbpedia.org/class/yago/YagoLegalActor
p103
aVhttp://dbpedia.org/resource/Cleveland_Browns
tp104
aaa(lp105
(lp106
a(lp107
a(lp108
a(lp109
((lp110
Vhttp://www.w3.org/2002/07/owl#Thing
p111
aVhttp://dbpedia.org/ontology/FootballLeagueSeason
p112
aVhttp://dbpedia.org/ontology/NationalFootballLeagueSeason
p113
aVhttp://dbpedia.org/ontology/SportsSeason
p114
aVhttp://dbpedia.org/ontology/SportsTeamSeason
p115
aVhttp://dbpedia.org/resource/1935_Boston_Redskins_season
tp116
aaa(lp117
(lp118
a(lp119
a(lp120
a(lp121
((lp122
Vhttp://www.w3.org/2002/07/owl#Thing
p123
aVhttp://dbpedia.org/ontology/FootballLeagueSeason
p124
aVhttp://dbpedia.org/ontology/NationalFootballLeagueSeason
p125
aVhttp://dbpedia.org/ontology/SportsSeason
p126
aVhttp://dbpedia.org/ontology/SportsTeamSeason
p127
aVhttp://dbpedia.org/resource/1948_Baltimore_Colts_season
tp128
aaa(lp129
(lp130
a(lp131
a(lp132
a(lp133
((lp134
Vhttp://www.w3.org/2002/07/owl#Thing
p135
aVhttp://dbpedia.org/ontology/FootballLeagueSeason
p136
aVhttp://dbpedia.org/ontology/NationalFootballLeagueSeason
p137
aVhttp://dbpedia.org/ontology/SportsSeason
p138
aVhttp://dbpedia.org/ontology/SportsTeamSeason
p139
aVhttp://dbpedia.org/resource/1961_Denver_Broncos_season
tp140
aaa(lp141
(lp142
a(lp143
a(lp144
a(lp145
((lp146
Vhttp://www.w3.org/2002/07/owl#Thing
p147
aVhttp://dbpedia.org/ontology/FootballLeagueSeason
p148
aVhttp://dbpedia.org/ontology/NationalFootballLeagueSeason
p149
aVhttp://dbpedia.org/ontology/SportsSeason
p150
aVhttp://dbpedia.org/ontology/SportsTeamSeason
p151
aVhttp://dbpedia.org/resource/1935_Boston_Redskins_season
tp152
aaa(lp153
(lp154
a(lp155
a(lp156
a(lp157
((lp158
Vhttp://www.w3.org/2002/07/owl#Thing
p159
aVhttp://dbpedia.org/ontology/FootballLeagueSeason
p160
aVhttp://dbpedia.org/ontology/NationalFootballLeagueSeason
p161
aVhttp://dbpedia.org/ontology/SportsSeason
p162
aVhttp://dbpedia.org/ontology/SportsTeamSeason
p163
aVhttp://dbpedia.org/resource/1981_Oakland_Raiders_season
tp164
aaa(lp165
(lp166
a(lp167
a(lp168
a(lp169
((lp170
Vhttp://www.w3.org/2002/07/owl#Thing
p171
aVhttp://dbpedia.org/ontology/FootballLeagueSeason
p172
aVhttp://dbpedia.org/ontology/NationalFootballLeagueSeason
p173
aVhttp://dbpedia.org/ontology/SportsSeason
p174
aVhttp://dbpedia.org/ontology/SportsTeamSeason
p175
aVhttp://dbpedia.org/resource/1948_Baltimore_Colts_season
tp176
aaa(lp177
(lp178
a(lp179
a(lp180
a(lp181
((lp182
Vhttp://www.w3.org/2002/07/owl#Thing
p183
aVhttp://dbpedia.org/ontology/FootballLeagueSeason
p184
aVhttp://dbpedia.org/ontology/NationalFootballLeagueSeason
p185
aVhttp://dbpedia.org/ontology/SportsSeason
p186
aVhttp://dbpedia.org/ontology/SportsTeamSeason
p187
aVhttp://dbpedia.org/resource/1981_New_York_Jets_season
tp188
aaa(lp189
(lp190
a(lp191
a(lp192
a(lp193
((lp194
Vhttp://www.w3.org/2002/07/owl#Thing
p195
aVhttp://dbpedia.org/ontology/FootballLeagueSeason
p196
aVhttp://dbpedia.org/ontology/NationalFootballLeagueSeason
p197
aVhttp://dbpedia.org/ontology/SportsSeason
p198
aVhttp://dbpedia.org/ontology/SportsTeamSeason
p199
aVhttp://dbpedia.org/resource/1921_Chicago_Staleys_season
tp200
aaa(lp201
(lp202
a(lp203
a(lp204
a(lp205
((lp206
Vhttp://www.w3.org/2002/07/owl#Thing
p207
aVhttp://dbpedia.org/ontology/FootballLeagueSeason
p208
aVhttp://dbpedia.org/ontology/NationalFootballLeagueSeason
p209
aVhttp://dbpedia.org/ontology/SportsSeason
p210
aVhttp://dbpedia.org/ontology/SportsTeamSeason
p211
aVhttp://dbpedia.org/resource/1935_Boston_Redskins_season
tp212
aaa(lp213
(lp214
a(lp215
a(lp216
a(lp217
aa(lp218
(lp219
a(lp220
a(lp221
a(lp222
((lp223
Vhttp://www.w3.org/2002/07/owl#Thing
p224
aVhttp://dbpedia.org/ontology/FootballLeagueSeason
p225
aVhttp://dbpedia.org/ontology/NationalFootballLeagueSeason
p226
aVhttp://dbpedia.org/ontology/SportsSeason
p227
aVhttp://dbpedia.org/ontology/SportsTeamSeason
p228
aVhttp://dbpedia.org/resource/2014_Minnesota_Vikings_season
tp229
aaa(lp230
(lp231
a(lp232
a(lp233
a(lp234
((lp235
Vhttp://www.w3.org/2002/07/owl#Thing
p236
aVhttp://dbpedia.org/ontology/FootballLeagueSeason
p237
aVhttp://dbpedia.org/ontology/NationalFootballLeagueSeason
p238
aVhttp://dbpedia.org/ontology/SportsSeason
p239
aVhttp://dbpedia.org/ontology/SportsTeamSeason
p240
aVhttp://dbpedia.org/resource/2011_San_Diego_Chargers_season
p241
tp242
aaa.