(lp1
(lp2
(lp3
((lp4
Vhttp://dbpedia.org/class/yago/Area108497294
p5
aVhttp://dbpedia.org/class/yago/Location100027167
p6
aVhttp://dbpedia.org/class/yago/Object100002684
p7
aVhttp://dbpedia.org/class/yago/Region108630985
p8
aVhttp://dbpedia.org/class/yago/YagoGeoEntity
p9
aVhttp://dbpedia.org/class/yago/YagoLegalActorGeo
p10
aVhttp://dbpedia.org/class/yago/SkiAreasAndResortsInCatalonia
p11
aVhttp://dbpedia.org/class/yago/SkiAreasAndResortsInSpain
p12
aVhttp://www.w3.org/2002/07/owl#Thing
p13
aVhttp://dbpedia.org/ontology/Place
p14
aVhttp://dbpedia.org/ontology/Location
p15
aVhttp://dbpedia.org/ontology/ArchitecturalStructure
p16
aVhttp://dbpedia.org/ontology/SkiArea
p17
aVhttp://dbpedia.org/ontology/SportFacility
p18
aVhttp://www.w3.org/2003/01/geo/wgs84_pos#SpatialThing
p19
aVhttp://schema.org/Place
p20
aVhttp://schema.org/SkiResort
p21
aVhttp://umbel.org/umbel/rc/SkiArea
p22
aVhttp://dbpedia.org/class/yago/YagoPermanentlyLocatedEntity
p23
aVhttp://dbpedia.org/class/yago/PhysicalEntity100001930
p24
aVhttp://dbpedia.org/resource/Baqueira-Beret
tp25
aa(lp26
((lp27
Vhttp://dbpedia.org/class/yago/AdministrativeDistrict108491826
p28
aVhttp://dbpedia.org/class/yago/Area108497294
p29
aVhttp://dbpedia.org/class/yago/City108524735
p30
aVhttp://dbpedia.org/class/yago/District108552138
p31
aVhttp://dbpedia.org/class/yago/Location100027167
p32
aVhttp://dbpedia.org/class/yago/Object100002684
p33
aVhttp://dbpedia.org/class/yago/Region108630985
p34
aVhttp://dbpedia.org/class/yago/UrbanArea108675967
p35
aVhttp://dbpedia.org/class/yago/YagoGeoEntity
p36
aVhttp://dbpedia.org/class/yago/YagoLegalActorGeo
p37
aVhttp://dbpedia.org/class/yago/SkiAreasAndResortsInItaly
p38
aVhttp://www.w3.org/2002/07/owl#Thing
p39
aVhttp://dbpedia.org/ontology/Place
p40
aVhttp://dbpedia.org/ontology/Location
p41
aVhttp://dbpedia.org/ontology/ArchitecturalStructure
p42
aVhttp://dbpedia.org/ontology/SkiArea
p43
aVhttp://dbpedia.org/ontology/SportFacility
p44
aVhttp://www.w3.org/2003/01/geo/wgs84_pos#SpatialThing
p45
aVhttp://schema.org/Place
p46
aVhttp://schema.org/SkiResort
p47
aVhttp://umbel.org/umbel/rc/SkiArea
p48
aVhttp://dbpedia.org/class/yago/CitiesAndTownsInAostaValley
p49
aVhttp://dbpedia.org/class/yago/YagoPermanentlyLocatedEntity
p50
aVhttp://dbpedia.org/class/yago/GeographicalArea108574314
p51
aVhttp://dbpedia.org/class/yago/Municipality108626283
p52
aVhttp://dbpedia.org/class/yago/PhysicalEntity100001930
p53
aVhttp://dbpedia.org/resource/Breuil-Cervinia
tp54
aa(lp55
((lp56
Vhttp://dbpedia.org/class/yago/Area108497294
p57
aVhttp://dbpedia.org/class/yago/Location100027167
p58
aVhttp://dbpedia.org/class/yago/Object100002684
p59
aVhttp://dbpedia.org/class/yago/Region108630985
p60
aVhttp://dbpedia.org/class/yago/YagoGeoEntity
p61
aVhttp://dbpedia.org/class/yago/YagoLegalActorGeo
p62
aVhttp://dbpedia.org/class/yago/SkiAreasAndResortsInCatalonia
p63
aVhttp://www.w3.org/2002/07/owl#Thing
p64
aVhttp://dbpedia.org/ontology/Place
p65
aVhttp://dbpedia.org/ontology/Location
p66
aVhttp://dbpedia.org/ontology/ArchitecturalStructure
p67
aVhttp://dbpedia.org/ontology/SkiArea
p68
aVhttp://dbpedia.org/ontology/SportFacility
p69
aVhttp://www.w3.org/2003/01/geo/wgs84_pos#SpatialThing
p70
aVhttp://schema.org/Place
p71
aVhttp://schema.org/SkiResort
p72
aVhttp://umbel.org/umbel/rc/SkiArea
p73
aVhttp://dbpedia.org/class/yago/YagoPermanentlyLocatedEntity
p74
aVhttp://dbpedia.org/class/yago/PhysicalEntity100001930
p75
aVhttp://dbpedia.org/resource/Lles_(ski_resort)
tp76
aa(lp77
a(lp78
a(lp79
((lp80
Vhttp://dbpedia.org/class/yago/Abstraction100002137
p81
aVhttp://dbpedia.org/class/yago/Chemical114806838
p82
aVhttp://dbpedia.org/class/yago/Material114580897
p83
aVhttp://dbpedia.org/class/yago/Matter100020827
p84
aVhttp://dbpedia.org/class/yago/Part113809207
p85
aVhttp://dbpedia.org/class/yago/Relation100031921
p86
aVhttp://dbpedia.org/class/yago/Substance100019613
p87
aVhttp://www.w3.org/2002/07/owl#Thing
p88
aVhttp://dbpedia.org/ontology/Place
p89
aVhttp://dbpedia.org/ontology/Location
p90
aVhttp://dbpedia.org/ontology/ArchitecturalStructure
p91
aVhttp://dbpedia.org/ontology/SkiArea
p92
aVhttp://dbpedia.org/ontology/SportFacility
p93
aVhttp://www.w3.org/2003/01/geo/wgs84_pos#SpatialThing
p94
aVhttp://schema.org/Place
p95
aVhttp://schema.org/SkiResort
p96
aVhttp://umbel.org/umbel/rc/SkiArea
p97
aVhttp://dbpedia.org/class/yago/FractionsOfSouthTyrol
p98
aVhttp://dbpedia.org/class/yago/Fraction114922107
p99
aVhttp://dbpedia.org/class/yago/PhysicalEntity100001930
p100
aVhttp://dbpedia.org/resource/Sulden
tp101
aa(lp102
((lp103
Vhttp://dbpedia.org/class/yago/Artifact100021939
p104
aVhttp://dbpedia.org/class/yago/Building102913152
p105
aVhttp://dbpedia.org/class/yago/BuildingsAndStructuresInPitkinCounty,Colorado
p106
aVhttp://dbpedia.org/class/yago/Object100002684
p107
aVhttp://dbpedia.org/class/yago/Structure104341686
p108
aVhttp://dbpedia.org/class/yago/Whole100003553
p109
aVhttp://dbpedia.org/class/yago/YagoGeoEntity
p110
aVhttp://www.w3.org/2002/07/owl#Thing
p111
aVhttp://dbpedia.org/ontology/Place
p112
aVhttp://dbpedia.org/ontology/Location
p113
aVhttp://dbpedia.org/ontology/ArchitecturalStructure
p114
aVhttp://dbpedia.org/ontology/SkiArea
p115
aVhttp://dbpedia.org/ontology/SportFacility
p116
aVhttp://www.w3.org/2003/01/geo/wgs84_pos#SpatialThing
p117
aVhttp://schema.org/Place
p118
aVhttp://schema.org/SkiResort
p119
aVhttp://umbel.org/umbel/rc/SkiArea
p120
aVhttp://dbpedia.org/class/yago/YagoPermanentlyLocatedEntity
p121
aVhttp://dbpedia.org/class/yago/PhysicalEntity100001930
p122
aVhttp://dbpedia.org/resource/Aspen_Mountain_(ski_area)
tp123
aa(lp124
((lp125
Vhttp://www.w3.org/2002/07/owl#Thing
p126
aVhttp://dbpedia.org/ontology/Place
p127
aVhttp://dbpedia.org/ontology/Location
p128
aVhttp://dbpedia.org/ontology/ArchitecturalStructure
p129
aVhttp://dbpedia.org/ontology/SkiArea
p130
aVhttp://dbpedia.org/ontology/SportFacility
p131
aVhttp://www.w3.org/2003/01/geo/wgs84_pos#SpatialThing
p132
aVhttp://schema.org/Place
p133
aVhttp://schema.org/SkiResort
p134
aVhttp://umbel.org/umbel/rc/SkiArea
p135
aVhttp://dbpedia.org/resource/Bear_Creek_Ski_and_Recreation_Area
tp136
aa(lp137
((lp138
Vhttp://dbpedia.org/class/yago/Artifact100021939
p139
aVhttp://dbpedia.org/class/yago/Building102913152
p140
aVhttp://dbpedia.org/class/yago/BuildingsAndStructuresInFlagstaff,Arizona
p141
aVhttp://dbpedia.org/class/yago/Object100002684
p142
aVhttp://dbpedia.org/class/yago/Structure104341686
p143
aVhttp://dbpedia.org/class/yago/Whole100003553
p144
aVhttp://dbpedia.org/class/yago/YagoGeoEntity
p145
aVhttp://www.w3.org/2002/07/owl#Thing
p146
aVhttp://dbpedia.org/ontology/Place
p147
aVhttp://dbpedia.org/ontology/Location
p148
aVhttp://dbpedia.org/ontology/ArchitecturalStructure
p149
aVhttp://dbpedia.org/ontology/SkiArea
p150
aVhttp://dbpedia.org/ontology/SportFacility
p151
aVhttp://www.w3.org/2003/01/geo/wgs84_pos#SpatialThing
p152
aVhttp://schema.org/Place
p153
aVhttp://schema.org/SkiResort
p154
aVhttp://umbel.org/umbel/rc/SkiArea
p155
aVhttp://dbpedia.org/class/yago/YagoPermanentlyLocatedEntity
p156
aVhttp://dbpedia.org/class/yago/PhysicalEntity100001930
p157
aVhttp://dbpedia.org/resource/Arizona_Snowbowl
tp158
aa(lp159
((lp160
Vhttp://dbpedia.org/class/yago/Artifact100021939
p161
aVhttp://dbpedia.org/class/yago/Building102913152
p162
aVhttp://dbpedia.org/class/yago/BuildingsAndStructuresInMariposaCounty,California
p163
aVhttp://dbpedia.org/class/yago/BuildingsAndStructuresInYosemiteNationalPark
p164
aVhttp://dbpedia.org/class/yago/Object100002684
p165
aVhttp://dbpedia.org/class/yago/Structure104341686
p166
aVhttp://dbpedia.org/class/yago/Whole100003553
p167
aVhttp://dbpedia.org/class/yago/YagoGeoEntity
p168
aVhttp://www.w3.org/2002/07/owl#Thing
p169
aVhttp://dbpedia.org/ontology/Place
p170
aVhttp://dbpedia.org/ontology/Location
p171
aVhttp://dbpedia.org/ontology/ArchitecturalStructure
p172
aVhttp://dbpedia.org/ontology/SkiArea
p173
aVhttp://dbpedia.org/ontology/SportFacility
p174
aVhttp://www.w3.org/2003/01/geo/wgs84_pos#SpatialThing
p175
aVhttp://schema.org/Place
p176
aVhttp://schema.org/SkiResort
p177
aVhttp://umbel.org/umbel/rc/SkiArea
p178
aVhttp://dbpedia.org/class/yago/YagoPermanentlyLocatedEntity
p179
aVhttp://dbpedia.org/class/yago/PhysicalEntity100001930
p180
aVhttp://dbpedia.org/resource/Badger_Pass_Ski_Area
tp181
aa(lp182
((lp183
Vhttp://dbpedia.org/class/yago/Artifact100021939
p184
aVhttp://dbpedia.org/class/yago/Building102913152
p185
aVhttp://dbpedia.org/class/yago/BuildingsAndStructuresInColumbiaCounty,Washington
p186
aVhttp://dbpedia.org/class/yago/Object100002684
p187
aVhttp://dbpedia.org/class/yago/Structure104341686
p188
aVhttp://dbpedia.org/class/yago/Whole100003553
p189
aVhttp://dbpedia.org/class/yago/YagoGeoEntity
p190
aVhttp://www.w3.org/2002/07/owl#Thing
p191
aVhttp://dbpedia.org/ontology/Place
p192
aVhttp://dbpedia.org/ontology/Location
p193
aVhttp://dbpedia.org/ontology/ArchitecturalStructure
p194
aVhttp://dbpedia.org/ontology/SkiArea
p195
aVhttp://dbpedia.org/ontology/SportFacility
p196
aVhttp://www.w3.org/2003/01/geo/wgs84_pos#SpatialThing
p197
aVhttp://schema.org/Place
p198
aVhttp://schema.org/SkiResort
p199
aVhttp://umbel.org/umbel/rc/SkiArea
p200
aVhttp://dbpedia.org/class/yago/YagoPermanentlyLocatedEntity
p201
aVhttp://dbpedia.org/class/yago/PhysicalEntity100001930
p202
aVhttp://dbpedia.org/resource/Bluewood_Ski_Area
tp203
aa(lp204
((lp205
Vhttp://dbpedia.org/class/yago/Artifact100021939
p206
aVhttp://dbpedia.org/class/yago/Building102913152
p207
aVhttp://dbpedia.org/class/yago/BuildingsAndStructuresInBoiseCounty,Idaho
p208
aVhttp://dbpedia.org/class/yago/Object100002684
p209
aVhttp://dbpedia.org/class/yago/Structure104341686
p210
aVhttp://dbpedia.org/class/yago/Whole100003553
p211
aVhttp://dbpedia.org/class/yago/YagoGeoEntity
p212
aVhttp://www.w3.org/2002/07/owl#Thing
p213
aVhttp://dbpedia.org/ontology/Place
p214
aVhttp://dbpedia.org/ontology/Location
p215
aVhttp://dbpedia.org/ontology/ArchitecturalStructure
p216
aVhttp://dbpedia.org/ontology/SkiArea
p217
aVhttp://dbpedia.org/ontology/SportFacility
p218
aVhttp://www.w3.org/2003/01/geo/wgs84_pos#SpatialThing
p219
aVhttp://schema.org/Place
p220
aVhttp://schema.org/SkiResort
p221
aVhttp://umbel.org/umbel/rc/SkiArea
p222
aVhttp://dbpedia.org/class/yago/YagoPermanentlyLocatedEntity
p223
aVhttp://dbpedia.org/class/yago/PhysicalEntity100001930
p224
aVhttp://dbpedia.org/resource/Bogus_Basin
tp225
aa(lp226
((lp227
Vhttp://dbpedia.org/class/yago/Artifact100021939
p228
aVhttp://dbpedia.org/class/yago/Building102913152
p229
aVhttp://dbpedia.org/class/yago/BuildingsAndStructuresInGallatinCounty,Montana
p230
aVhttp://dbpedia.org/class/yago/Object100002684
p231
aVhttp://dbpedia.org/class/yago/Structure104341686
p232
aVhttp://dbpedia.org/class/yago/Whole100003553
p233
aVhttp://dbpedia.org/class/yago/YagoGeoEntity
p234
aVhttp://www.w3.org/2002/07/owl#Thing
p235
aVhttp://dbpedia.org/ontology/Place
p236
aVhttp://dbpedia.org/ontology/Location
p237
aVhttp://dbpedia.org/ontology/ArchitecturalStructure
p238
aVhttp://dbpedia.org/ontology/SkiArea
p239
aVhttp://dbpedia.org/ontology/SportFacility
p240
aVhttp://www.w3.org/2003/01/geo/wgs84_pos#SpatialThing
p241
aVhttp://schema.org/Place
p242
aVhttp://schema.org/SkiResort
p243
aVhttp://umbel.org/umbel/rc/SkiArea
p244
aVhttp://dbpedia.org/class/yago/YagoPermanentlyLocatedEntity
p245
aVhttp://dbpedia.org/class/yago/PhysicalEntity100001930
p246
aVhttp://dbpedia.org/resource/Bridger_Bowl_Ski_Area
tp247
aa(lp248
((lp249
Vhttp://dbpedia.org/class/yago/Area108497294
p250
aVhttp://dbpedia.org/class/yago/GeologicalFormation109287968
p251
aVhttp://dbpedia.org/class/yago/Location100027167
p252
aVhttp://dbpedia.org/class/yago/Mountain109359803
p253
aVhttp://dbpedia.org/class/yago/Object100002684
p254
aVhttp://dbpedia.org/class/yago/Region108630985
p255
aVhttp://dbpedia.org/class/yago/YagoGeoEntity
p256
aVhttp://dbpedia.org/class/yago/YagoLegalActorGeo
p257
aVhttp://dbpedia.org/class/yago/SkiAreasAndResortsInBritishColumbia
p258
aVhttp://www.w3.org/2002/07/owl#Thing
p259
aVhttp://dbpedia.org/ontology/Place
p260
aVhttp://dbpedia.org/ontology/Location
p261
aVhttp://dbpedia.org/ontology/ArchitecturalStructure
p262
aVhttp://dbpedia.org/ontology/SkiArea
p263
aVhttp://dbpedia.org/ontology/SportFacility
p264
aVhttp://www.w3.org/2003/01/geo/wgs84_pos#SpatialThing
p265
aVhttp://schema.org/Place
p266
aVhttp://schema.org/SkiResort
p267
aVhttp://umbel.org/umbel/rc/SkiArea
p268
aVhttp://dbpedia.org/class/yago/YagoPermanentlyLocatedEntity
p269
aVhttp://dbpedia.org/class/yago/MountainsOfBritishColumbia
p270
aVhttp://dbpedia.org/class/yago/NaturalElevation109366317
p271
aVhttp://dbpedia.org/class/yago/PhysicalEntity100001930
p272
aVhttp://dbpedia.org/resource/Grouse_Mountain
tp273
aa(lp274
((lp275
Vhttp://www.w3.org/2002/07/owl#Thing
p276
aVhttp://dbpedia.org/ontology/Place
p277
aVhttp://dbpedia.org/ontology/Location
p278
aVhttp://dbpedia.org/ontology/ArchitecturalStructure
p279
aVhttp://dbpedia.org/ontology/SkiArea
p280
aVhttp://dbpedia.org/ontology/SportFacility
p281
aVhttp://www.w3.org/2003/01/geo/wgs84_pos#SpatialThing
p282
aVhttp://schema.org/Place
p283
aVhttp://schema.org/SkiResort
p284
aVhttp://umbel.org/umbel/rc/SkiArea
p285
aVhttp://dbpedia.org/resource/Hockley_Valley
tp286
aa(lp287
((lp288
Vhttp://dbpedia.org/class/yago/Area108497294
p289
aVhttp://dbpedia.org/class/yago/Location100027167
p290
aVhttp://dbpedia.org/class/yago/Object100002684
p291
aVhttp://dbpedia.org/class/yago/Region108630985
p292
aVhttp://dbpedia.org/class/yago/YagoGeoEntity
p293
aVhttp://dbpedia.org/class/yago/YagoLegalActorGeo
p294
aVhttp://dbpedia.org/class/yago/SkiAreasAndResortsInSlovenia
p295
aVhttp://dbpedia.org/class/yago/YagoPermanentlyLocatedEntity
p296
aVhttp://dbpedia.org/class/yago/PhysicalEntity100001930
p297
aVhttp://dbpedia.org/resource/Mariborsko_Pohorje_Ski_Resort
tp298
aa(lp299
a(lp300
((lp301
Vhttp://dbpedia.org/class/yago/Artifact100021939
p302
aVhttp://dbpedia.org/class/yago/Building102913152
p303
aVhttp://dbpedia.org/class/yago/BuildingsAndStructuresInKingCounty,Washington
p304
aVhttp://dbpedia.org/class/yago/Object100002684
p305
aVhttp://dbpedia.org/class/yago/Structure104341686
p306
aVhttp://dbpedia.org/class/yago/Whole100003553
p307
aVhttp://dbpedia.org/class/yago/YagoGeoEntity
p308
aVhttp://www.w3.org/2002/07/owl#Thing
p309
aVhttp://dbpedia.org/ontology/Place
p310
aVhttp://dbpedia.org/ontology/Location
p311
aVhttp://dbpedia.org/ontology/ArchitecturalStructure
p312
aVhttp://dbpedia.org/ontology/SkiArea
p313
aVhttp://dbpedia.org/ontology/SportFacility
p314
aVhttp://www.w3.org/2003/01/geo/wgs84_pos#SpatialThing
p315
aVhttp://schema.org/Place
p316
aVhttp://schema.org/SkiResort
p317
aVhttp://umbel.org/umbel/rc/SkiArea
p318
aVhttp://dbpedia.org/class/yago/YagoPermanentlyLocatedEntity
p319
aVhttp://dbpedia.org/class/yago/PhysicalEntity100001930
p320
aVhttp://dbpedia.org/resource/Stevens_Pass_Ski_Area
tp321
aa(lp322
((lp323
Vhttp://dbpedia.org/class/yago/Artifact100021939
p324
aVhttp://dbpedia.org/class/yago/Building102913152
p325
aVhttp://dbpedia.org/class/yago/BuildingsAndStructuresInCassiaCounty,Idaho
p326
aVhttp://dbpedia.org/class/yago/Object100002684
p327
aVhttp://dbpedia.org/class/yago/Structure104341686
p328
aVhttp://dbpedia.org/class/yago/Whole100003553
p329
aVhttp://dbpedia.org/class/yago/YagoGeoEntity
p330
aVhttp://www.w3.org/2002/07/owl#Thing
p331
aVhttp://dbpedia.org/ontology/Place
p332
aVhttp://dbpedia.org/ontology/Location
p333
aVhttp://dbpedia.org/ontology/ArchitecturalStructure
p334
aVhttp://dbpedia.org/ontology/SkiArea
p335
aVhttp://dbpedia.org/ontology/SportFacility
p336
aVhttp://www.w3.org/2003/01/geo/wgs84_pos#SpatialThing
p337
aVhttp://schema.org/Place
p338
aVhttp://schema.org/SkiResort
p339
aVhttp://umbel.org/umbel/rc/SkiArea
p340
aVhttp://dbpedia.org/class/yago/YagoPermanentlyLocatedEntity
p341
aVhttp://dbpedia.org/class/yago/PhysicalEntity100001930
p342
aVhttp://dbpedia.org/resource/Pomerelle
p343
tp344
aaa.