ccollections
defaultdict
p1
(c__builtin__
dict
p2
tRp3
I1
(dp4
I0
(lp5
sI1
(lp6
sI2
(lp7
ssI2
(dp8
I0
(lp9
sI1
(lp10
sI2
(lp11
ssI3
(dp12
I0
(lp13
sI1
(lp14
sI2
(lp15
ssI4
(dp16
I0
(lp17
Vhttp://dbpedia.org/ontology/wikiPageExternalLink
p18
asI1
(lp19
sI2
(lp20
ssI6
(dp21
I0
(lp22
Vhttp://dbpedia.org/ontology/wikiPageExternalLink
p23
aVhttp://dbpedia.org/property/report
p24
asI1
(lp25
sI2
(lp26
ssI7
(dp27
I0
(lp28
sI1
(lp29
sI2
(lp30
ssI11
(dp31
I0
(lp32
sI1
(lp33
sI2
(lp34
ssI14
(dp35
I0
(lp36
sI1
(lp37
sI2
(lp38
ssI16
(dp39
I0
(lp40
sI1
(lp41
sI2
(lp42
ssI17
(dp43
I0
(lp44
sI1
(lp45
sI2
(lp46
ssI18
(dp47
I0
(lp48
Vhttp://dbpedia.org/ontology/wikiPageExternalLink
p49
aVhttp://xmlns.com/foaf/0.1/homepage
p50
asI1
(lp51
sI2
(lp52
ss.