(lp1
(lp2
(lp3
a(lp4
a(lp5
a(lp6
aa(lp7
(lp8
a(lp9
a(lp10
a(lp11
Vhttp://dbpedia.org/resource/2013_Sky_Blue_FC_season
p12
aaa(lp13
(lp14
a(lp15
a(lp16
a(lp17
Vhttp://dbpedia.org/resource/2001_South_Carolina_Gamecocks_football_team
p18
aaa(lp19
(lp20
a(lp21
a(lp22
a(lp23
Vhttp://dbpedia.org/resource/2012_Toronto_FC_season
p24
aaa(lp25
(lp26
a(lp27
a(lp28
a(lp29
Vhttp://dbpedia.org/resource/UCLA_Bruins_baseball
p30
aaa(lp31
(lp32
a(lp33
a(lp34
a(lp35
aa(lp36
(lp37
a(lp38
a(lp39
a(lp40
Vhttp://dbpedia.org/resource/2014_Washington_Spirit_season
p41
aaa(lp42
(lp43
a(lp44
a(lp45
a(lp46
Vhttp://dbpedia.org/resource/2013_Western_New_York_Flash_season
p47
aaa(lp48
(lp49
a(lp50
a(lp51
a(lp52
aa(lp53
(lp54
a(lp55
a(lp56
a(lp57
aa(lp58
(lp59
a(lp60
a(lp61
a(lp62
Vhttp://dbpedia.org/resource/2011\u201312_A-League_National_Youth_League
p63
aaa(lp64
(lp65
a(lp66
a(lp67
a(lp68
Vhttp://dbpedia.org/resource/2005\u201306_Albanian_Superliga
p69
aaa(lp70
(lp71
a(lp72
a(lp73
a(lp74
aa(lp75
(lp76
a(lp77
a(lp78
a(lp79
aa(lp80
(lp81
a(lp82
a(lp83
a(lp84
Vhttp://dbpedia.org/resource/2011\u201312_Bangor_City_F.C._season
p85
aaa(lp86
(lp87
a(lp88
a(lp89
a(lp90
aa(lp91
(lp92
a(lp93
a(lp94
a(lp95
Vhttp://dbpedia.org/resource/2012\u201313_Brisbane_Roar_FC_season
p96
aaa(lp97
(lp98
a(lp99
a(lp100
a(lp101
Vhttp://dbpedia.org/resource/2008\u201309_Bundesliga
p102
aaa(lp103
(lp104
a(lp105
a(lp106
a(lp107
Vhttp://dbpedia.org/resource/2011\u201312_C.D._Motagua_season
p108
aaa.