(lp1
(lp2
(lp3
Vhttp://dbpedia.org/resource/Brian_Lanker
p4
aa(lp5
Vhttp://dbpedia.org/resource/Marc_Bryan-Brown
p6
aa(lp7
Vhttp://dbpedia.org/resource/Aaron_Rapoport
p8
aa(lp9
a(lp10
Vhttp://dbpedia.org/resource/Barry_Feinstein
p11
aa(lp12
Vhttp://dbpedia.org/resource/Josh_Ryan
p13
aa(lp14
Vhttp://dbpedia.org/resource/Warwick_Sabin
p15
aa(lp16
Vhttp://dbpedia.org/resource/Cris_Alexander
p17
aa(lp18
Vhttp://dbpedia.org/resource/A._L._Westgard
p19
aa(lp20
Vhttp://dbpedia.org/resource/Charles_Belden
p21
aa(lp22
Vhttp://dbpedia.org/resource/Howard_Bingham
p23
aa(lp24
Vhttp://dbpedia.org/resource/Lee_Boltin
p25
aa(lp26
Vhttp://dbpedia.org/resource/Marty_Lederhandler
p27
aa(lp28
Vhttp://dbpedia.org/resource/Robert_H._Jackson_(photographer)
p29
aa(lp30
Vhttp://dbpedia.org/resource/Sylvia_Plachy
p31
aa(lp32
Vhttp://dbpedia.org/resource/Seb_Janiak
p33
aa(lp34
a(lp35
Vhttp://dbpedia.org/resource/Max_Margulis
p36
aa(lp37
Vhttp://dbpedia.org/resource/Ivan_Dmitri
p38
aaa.