(lp1
(lp2
(lp3
a(lp4
aa(lp5
(lp6
((lp7
Vhttp://www.w3.org/2002/07/owl#Thing
p8
aVhttp://xmlns.com/foaf/0.1/Person
p9
aVhttp://dbpedia.org/ontology/Person
p10
aVhttp://www.ontologydesignpatterns.org/ont/dul/DUL.owl#Agent
p11
aVhttp://www.ontologydesignpatterns.org/ont/dul/DUL.owl#NaturalPerson
p12
aVhttp://www.wikidata.org/entity/Q215627
p13
aVhttp://www.wikidata.org/entity/Q5
p14
aVhttp://www.wikidata.org/entity/Q95074
p15
aVhttp://dbpedia.org/ontology/Agent
p16
aVhttp://dbpedia.org/ontology/FictionalCharacter
p17
aVhttp://dbpedia.org/ontology/SoapCharacter
p18
aVhttp://schema.org/Person
p19
aVhttp://dbpedia.org/resource/List_of_Home_and_Away_characters_(2013)
tp20
aa(lp21
aa(lp22
(lp23
((lp24
Vhttp://www.w3.org/2002/07/owl#Thing
p25
aVhttp://xmlns.com/foaf/0.1/Person
p26
aVhttp://dbpedia.org/ontology/Person
p27
aVhttp://www.ontologydesignpatterns.org/ont/dul/DUL.owl#Agent
p28
aVhttp://www.ontologydesignpatterns.org/ont/dul/DUL.owl#NaturalPerson
p29
aVhttp://www.wikidata.org/entity/Q215627
p30
aVhttp://www.wikidata.org/entity/Q5
p31
aVhttp://www.wikidata.org/entity/Q95074
p32
aVhttp://dbpedia.org/ontology/Agent
p33
aVhttp://dbpedia.org/ontology/FictionalCharacter
p34
aVhttp://dbpedia.org/ontology/SoapCharacter
p35
aVhttp://schema.org/Person
p36
aVhttp://dbpedia.org/resource/List_of_Home_and_Away_characters_(2014)
tp37
aa(lp38
aa(lp39
(lp40
((lp41
Vhttp://www.w3.org/2002/07/owl#Thing
p42
aVhttp://xmlns.com/foaf/0.1/Person
p43
aVhttp://dbpedia.org/ontology/Person
p44
aVhttp://www.ontologydesignpatterns.org/ont/dul/DUL.owl#Agent
p45
aVhttp://www.ontologydesignpatterns.org/ont/dul/DUL.owl#NaturalPerson
p46
aVhttp://www.wikidata.org/entity/Q215627
p47
aVhttp://www.wikidata.org/entity/Q5
p48
aVhttp://www.wikidata.org/entity/Q95074
p49
aVhttp://dbpedia.org/ontology/Agent
p50
aVhttp://dbpedia.org/ontology/FictionalCharacter
p51
aVhttp://dbpedia.org/ontology/SoapCharacter
p52
aVhttp://schema.org/Person
p53
aVhttp://dbpedia.org/resource/List_of_Home_and_Away_characters_(2013)
tp54
aa(lp55
aa(lp56
(lp57
((lp58
Vhttp://dbpedia.org/class/yago/1985AustralianTelevisionSeriesDebuts
p59
aVhttp://dbpedia.org/class/yago/Abstraction100002137
p60
aVhttp://dbpedia.org/class/yago/Act100030358
p61
aVhttp://dbpedia.org/class/yago/Action100037396
p62
aVhttp://dbpedia.org/class/yago/Activity100407535
p63
aVhttp://dbpedia.org/class/yago/Announcement106746580
p64
aVhttp://dbpedia.org/class/yago/AustralianTelevisionSoapOperas
p65
aVhttp://dbpedia.org/class/yago/BBCTelevisionDramas
p66
aVhttp://dbpedia.org/class/yago/Beginning100235435
p67
aVhttp://dbpedia.org/class/yago/Broadcast106619428
p68
aVhttp://dbpedia.org/class/yago/Change100191142
p69
aVhttp://dbpedia.org/class/yago/ChangeOfState100199130
p70
aVhttp://dbpedia.org/class/yago/Communication100033020
p71
aVhttp://dbpedia.org/class/yago/Diversion100426928
p72
aVhttp://dbpedia.org/class/yago/DramaticComposition107007684
p73
aVhttp://dbpedia.org/class/yago/Entertainment100429048
p74
aVhttp://dbpedia.org/class/yago/Event100029378
p75
aVhttp://dbpedia.org/class/yago/Introduction100238022
p76
aVhttp://dbpedia.org/class/yago/Message106598915
p77
aVhttp://dbpedia.org/class/yago/Play107007945
p78
aVhttp://dbpedia.org/class/yago/Program106748466
p79
aVhttp://dbpedia.org/class/yago/Show100520257
p80
aVhttp://dbpedia.org/class/yago/Show106619065
p81
aVhttp://dbpedia.org/class/yago/SoapOpera106622020
p82
aVhttp://dbpedia.org/class/yago/SocialEvent107288639
p83
aVhttp://dbpedia.org/class/yago/Statement106722453
p84
aVhttp://dbpedia.org/class/yago/Writing106362953
p85
aVhttp://dbpedia.org/class/yago/SevenNetworkShows
p86
aVhttp://www.w3.org/2002/07/owl#Thing
p87
aVhttp://www.wikidata.org/entity/Q15416
p88
aVhttp://www.wikidata.org/entity/Q386724
p89
aVhttp://dbpedia.org/ontology/TelevisionShow
p90
aVhttp://dbpedia.org/ontology/Work
p91
aVhttp://schema.org/CreativeWork
p92
aVhttp://umbel.org/umbel/rc/TVShow_IBT
p93
aVhttp://dbpedia.org/class/yago/Channel5(UK)TelevisionProgrammes
p94
aVhttp://dbpedia.org/class/yago/Eleven(TVChannel)Shows
p95
aVhttp://dbpedia.org/class/yago/PsychologicalFeature100023100
p96
aVhttp://dbpedia.org/class/yago/WrittenCommunication106349220
p97
aVhttp://dbpedia.org/class/yago/YagoPermanentlyLocatedEntity
p98
aVhttp://dbpedia.org/class/yago/NetworkTenShows
p99
aVhttp://dbpedia.org/class/yago/Serial106621447
p100
aVhttp://dbpedia.org/resource/Neighbours
tp101
aa(lp102
aa(lp103
(lp104
a(lp105
aa(lp106
(lp107
((lp108
Vhttp://www.w3.org/2002/07/owl#Thing
p109
aVhttp://xmlns.com/foaf/0.1/Person
p110
aVhttp://dbpedia.org/ontology/Person
p111
aVhttp://www.ontologydesignpatterns.org/ont/dul/DUL.owl#Agent
p112
aVhttp://www.ontologydesignpatterns.org/ont/dul/DUL.owl#NaturalPerson
p113
aVhttp://www.wikidata.org/entity/Q215627
p114
aVhttp://www.wikidata.org/entity/Q5
p115
aVhttp://www.wikidata.org/entity/Q95074
p116
aVhttp://dbpedia.org/ontology/Agent
p117
aVhttp://dbpedia.org/ontology/FictionalCharacter
p118
aVhttp://dbpedia.org/ontology/SoapCharacter
p119
aVhttp://schema.org/Person
p120
aVhttp://dbpedia.org/resource/List_of_Home_and_Away_characters_(2013)
tp121
aa(lp122
aa(lp123
(lp124
((lp125
Vhttp://www.w3.org/2002/07/owl#Thing
p126
aVhttp://xmlns.com/foaf/0.1/Person
p127
aVhttp://dbpedia.org/ontology/Person
p128
aVhttp://www.ontologydesignpatterns.org/ont/dul/DUL.owl#Agent
p129
aVhttp://www.ontologydesignpatterns.org/ont/dul/DUL.owl#NaturalPerson
p130
aVhttp://www.wikidata.org/entity/Q215627
p131
aVhttp://www.wikidata.org/entity/Q5
p132
aVhttp://www.wikidata.org/entity/Q95074
p133
aVhttp://dbpedia.org/ontology/Agent
p134
aVhttp://dbpedia.org/ontology/FictionalCharacter
p135
aVhttp://dbpedia.org/ontology/SoapCharacter
p136
aVhttp://schema.org/Person
p137
aVhttp://dbpedia.org/resource/List_of_Home_and_Away_characters_(2013)
tp138
aa(lp139
aa(lp140
(lp141
a(lp142
aa(lp143
(lp144
a(lp145
aa(lp146
(lp147
a(lp148
aa(lp149
(lp150
a(lp151
aa(lp152
(lp153
((lp154
Vhttp://dbpedia.org/class/yago/CausalAgent100007347
p155
aVhttp://dbpedia.org/class/yago/Leader109623038
p156
aVhttp://dbpedia.org/class/yago/LivingThing100004258
p157
aVhttp://dbpedia.org/class/yago/Object100002684
p158
aVhttp://dbpedia.org/class/yago/Organism100004475
p159
aVhttp://dbpedia.org/class/yago/Person100007846
p160
aVhttp://dbpedia.org/class/yago/Politician110451263
p161
aVhttp://dbpedia.org/class/yago/Whole100003553
p162
aVhttp://dbpedia.org/class/yago/YagoLegalActorGeo
p163
aVhttp://www.w3.org/2002/07/owl#Thing
p164
aVhttp://xmlns.com/foaf/0.1/Person
p165
aVhttp://dbpedia.org/ontology/Person
p166
aVhttp://www.ontologydesignpatterns.org/ont/dul/DUL.owl#Agent
p167
aVhttp://www.ontologydesignpatterns.org/ont/dul/DUL.owl#NaturalPerson
p168
aVhttp://www.wikidata.org/entity/Q215627
p169
aVhttp://www.wikidata.org/entity/Q5
p170
aVhttp://dbpedia.org/ontology/Agent
p171
aVhttp://schema.org/Person
p172
aVhttp://dbpedia.org/class/yago/FrenchPoliticians
p173
aVhttp://dbpedia.org/class/yago/YagoLegalActor
p174
aVhttp://dbpedia.org/class/yago/PhysicalEntity100001930
p175
aVhttp://dbpedia.org/resource/Camille_Jordan_(politician)
tp176
aa(lp177
aa(lp178
(lp179
a(lp180
aa(lp181
(lp182
((lp183
Vhttp://dbpedia.org/class/yago/Ability105616246
p184
aVhttp://dbpedia.org/class/yago/Abstraction100002137
p185
aVhttp://dbpedia.org/class/yago/Cognition100023271
p186
aVhttp://dbpedia.org/class/yago/FictionalCharacter109587565
p187
aVhttp://www.w3.org/2002/07/owl#Thing
p188
aVhttp://xmlns.com/foaf/0.1/Person
p189
aVhttp://dbpedia.org/ontology/Person
p190
aVhttp://www.ontologydesignpatterns.org/ont/dul/DUL.owl#Agent
p191
aVhttp://www.ontologydesignpatterns.org/ont/dul/DUL.owl#NaturalPerson
p192
aVhttp://www.wikidata.org/entity/Q215627
p193
aVhttp://www.wikidata.org/entity/Q5
p194
aVhttp://www.wikidata.org/entity/Q95074
p195
aVhttp://dbpedia.org/ontology/Agent
p196
aVhttp://dbpedia.org/ontology/FictionalCharacter
p197
aVhttp://dbpedia.org/ontology/SoapCharacter
p198
aVhttp://schema.org/Person
p199
aVhttp://dbpedia.org/class/yago/CoronationStreetCharacters
p200
aVhttp://dbpedia.org/class/yago/FictionalCharactersIntroducedIn1972
p201
aVhttp://dbpedia.org/class/yago/PsychologicalFeature100023100
p202
aVhttp://dbpedia.org/class/yago/Creativity105624700
p203
aVhttp://dbpedia.org/class/yago/ImaginaryBeing109483738
p204
aVhttp://dbpedia.org/class/yago/Imagination105625465
p205
aVhttp://dbpedia.org/resource/Alec_Gilroy
tp206
aa(lp207
aa(lp208
(lp209
((lp210
Vhttp://dbpedia.org/class/yago/CausalAgent100007347
p211
aVhttp://dbpedia.org/class/yago/Defender109614684
p212
aVhttp://dbpedia.org/class/yago/Lawman110249459
p213
aVhttp://dbpedia.org/class/yago/LivingThing100004258
p214
aVhttp://dbpedia.org/class/yago/Object100002684
p215
aVhttp://dbpedia.org/class/yago/Organism100004475
p216
aVhttp://dbpedia.org/class/yago/Person100007846
p217
aVhttp://dbpedia.org/class/yago/Policeman110448983
p218
aVhttp://dbpedia.org/class/yago/Whole100003553
p219
aVhttp://dbpedia.org/class/yago/YagoLegalActorGeo
p220
aVhttp://www.w3.org/2002/07/owl#Thing
p221
aVhttp://xmlns.com/foaf/0.1/Person
p222
aVhttp://dbpedia.org/ontology/Person
p223
aVhttp://www.ontologydesignpatterns.org/ont/dul/DUL.owl#Agent
p224
aVhttp://www.ontologydesignpatterns.org/ont/dul/DUL.owl#NaturalPerson
p225
aVhttp://www.wikidata.org/entity/Q215627
p226
aVhttp://www.wikidata.org/entity/Q5
p227
aVhttp://www.wikidata.org/entity/Q95074
p228
aVhttp://dbpedia.org/ontology/Agent
p229
aVhttp://dbpedia.org/ontology/FictionalCharacter
p230
aVhttp://dbpedia.org/ontology/SoapCharacter
p231
aVhttp://schema.org/Person
p232
aVhttp://dbpedia.org/class/yago/FictionalAustralianPeopleOfItalianDescent
p233
aVhttp://dbpedia.org/class/yago/FictionalKillers
p234
aVhttp://dbpedia.org/class/yago/FictionalPoliceOfficers
p235
aVhttp://dbpedia.org/class/yago/Preserver110466918
p236
aVhttp://dbpedia.org/class/yago/YagoLegalActor
p237
aVhttp://dbpedia.org/class/yago/Killer110231087
p238
aVhttp://dbpedia.org/class/yago/PhysicalEntity100001930
p239
aVhttp://dbpedia.org/resource/Angelo_Rosetta
tp240
aa(lp241
aa(lp242
(lp243
((lp244
Vhttp://dbpedia.org/class/yago/Ability105616246
p245
aVhttp://dbpedia.org/class/yago/Abstraction100002137
p246
aVhttp://dbpedia.org/class/yago/Cognition100023271
p247
aVhttp://dbpedia.org/class/yago/FictionalCharacter109587565
p248
aVhttp://www.w3.org/2002/07/owl#Thing
p249
aVhttp://xmlns.com/foaf/0.1/Person
p250
aVhttp://dbpedia.org/ontology/Person
p251
aVhttp://www.ontologydesignpatterns.org/ont/dul/DUL.owl#Agent
p252
aVhttp://www.ontologydesignpatterns.org/ont/dul/DUL.owl#NaturalPerson
p253
aVhttp://www.wikidata.org/entity/Q215627
p254
aVhttp://www.wikidata.org/entity/Q5
p255
aVhttp://www.wikidata.org/entity/Q95074
p256
aVhttp://dbpedia.org/ontology/Agent
p257
aVhttp://dbpedia.org/ontology/FictionalCharacter
p258
aVhttp://dbpedia.org/ontology/SoapCharacter
p259
aVhttp://schema.org/Person
p260
aVhttp://dbpedia.org/class/yago/EastEndersCharacters
p261
aVhttp://dbpedia.org/class/yago/FictionalCharactersIntroducedIn1985
p262
aVhttp://dbpedia.org/class/yago/PsychologicalFeature100023100
p263
aVhttp://dbpedia.org/class/yago/Creativity105624700
p264
aVhttp://dbpedia.org/class/yago/ImaginaryBeing109483738
p265
aVhttp://dbpedia.org/class/yago/Imagination105625465
p266
aVhttp://dbpedia.org/resource/Angie_Watts
tp267
aa(lp268
aa(lp269
(lp270
((lp271
Vhttp://dbpedia.org/class/yago/Administrator109770949
p272
aVhttp://dbpedia.org/class/yago/CausalAgent100007347
p273
aVhttp://dbpedia.org/class/yago/Head110162991
p274
aVhttp://dbpedia.org/class/yago/Hotelier110187990
p275
aVhttp://dbpedia.org/class/yago/Leader109623038
p276
aVhttp://dbpedia.org/class/yago/LivingThing100004258
p277
aVhttp://dbpedia.org/class/yago/Object100002684
p278
aVhttp://dbpedia.org/class/yago/Organism100004475
p279
aVhttp://dbpedia.org/class/yago/Person100007846
p280
aVhttp://dbpedia.org/class/yago/Serviceman110582746
p281
aVhttp://dbpedia.org/class/yago/SkilledWorker110605985
p282
aVhttp://dbpedia.org/class/yago/Veteran110749528
p283
aVhttp://dbpedia.org/class/yago/Whole100003553
p284
aVhttp://dbpedia.org/class/yago/Worker109632518
p285
aVhttp://dbpedia.org/class/yago/YagoLegalActorGeo
p286
aVhttp://www.w3.org/2002/07/owl#Thing
p287
aVhttp://xmlns.com/foaf/0.1/Person
p288
aVhttp://dbpedia.org/ontology/Person
p289
aVhttp://www.ontologydesignpatterns.org/ont/dul/DUL.owl#Agent
p290
aVhttp://www.ontologydesignpatterns.org/ont/dul/DUL.owl#NaturalPerson
p291
aVhttp://www.wikidata.org/entity/Q215627
p292
aVhttp://www.wikidata.org/entity/Q5
p293
aVhttp://www.wikidata.org/entity/Q95074
p294
aVhttp://dbpedia.org/ontology/Agent
p295
aVhttp://dbpedia.org/ontology/FictionalCharacter
p296
aVhttp://dbpedia.org/ontology/SoapCharacter
p297
aVhttp://schema.org/Person
p298
aVhttp://dbpedia.org/class/yago/FictionalEnglishPeople
p299
aVhttp://dbpedia.org/class/yago/FictionalHoteliers
p300
aVhttp://dbpedia.org/class/yago/FictionalKoreanWarVeterans
p301
aVhttp://dbpedia.org/class/yago/YagoLegalActor
p302
aVhttp://dbpedia.org/class/yago/PhysicalEntity100001930
p303
aVhttp://dbpedia.org/resource/Basil_Fawlty
tp304
aa(lp305
aa(lp306
(lp307
((lp308
Vhttp://dbpedia.org/class/yago/Ability105616246
p309
aVhttp://dbpedia.org/class/yago/Abstraction100002137
p310
aVhttp://dbpedia.org/class/yago/Cognition100023271
p311
aVhttp://dbpedia.org/class/yago/FictionalCharacter109587565
p312
aVhttp://www.w3.org/2002/07/owl#Thing
p313
aVhttp://xmlns.com/foaf/0.1/Person
p314
aVhttp://dbpedia.org/ontology/Person
p315
aVhttp://www.ontologydesignpatterns.org/ont/dul/DUL.owl#Agent
p316
aVhttp://www.ontologydesignpatterns.org/ont/dul/DUL.owl#NaturalPerson
p317
aVhttp://www.wikidata.org/entity/Q215627
p318
aVhttp://www.wikidata.org/entity/Q5
p319
aVhttp://www.wikidata.org/entity/Q95074
p320
aVhttp://dbpedia.org/ontology/Agent
p321
aVhttp://dbpedia.org/ontology/FictionalCharacter
p322
aVhttp://dbpedia.org/ontology/SoapCharacter
p323
aVhttp://schema.org/Person
p324
aVhttp://dbpedia.org/class/yago/EastEndersCharacters
p325
aVhttp://dbpedia.org/class/yago/FictionalCharactersIntroducedIn1993
p326
aVhttp://dbpedia.org/class/yago/PsychologicalFeature100023100
p327
aVhttp://dbpedia.org/class/yago/Creativity105624700
p328
aVhttp://dbpedia.org/class/yago/ImaginaryBeing109483738
p329
aVhttp://dbpedia.org/class/yago/Imagination105625465
p330
aVhttp://dbpedia.org/resource/Bianca_Jackson
p331
tp332
aa(lp333
aa.