(lp1
(lp2
(lp3
a(lp4
Vhttp://dbpedia.org/resource/Erino_Hazuki
p5
aa(lp6
Vhttp://dbpedia.org/resource/Hideki_Tasaka
p7
aa(lp8
Vhttp://dbpedia.org/resource/Ky\u014dko_Tong\u016b
p9
aa(lp10
Vhttp://dbpedia.org/resource/K\u014dichi_T\u014dchika
p11
aa(lp12
Vhttp://dbpedia.org/resource/Michiru_Yuimoto
p13
aa(lp14
Vhttp://dbpedia.org/resource/Natsumi_Yanase
p15
aa(lp16
a(lp17
Vhttp://dbpedia.org/resource/Toshiko_Fujita
p18
aa(lp19
a(lp20
Vhttp://dbpedia.org/resource/Yoshino_Takamori
p21
aa(lp22
Vhttp://dbpedia.org/resource/Matsumi_\u014cshiro
p23
aa(lp24
Vhttp://dbpedia.org/resource/Michitaka_Kobayashi
p25
aa(lp26
Vhttp://dbpedia.org/resource/Yumi_Takada
p27
aa(lp28
Vhttp://dbpedia.org/resource/K\u014dhei_Miyauchi
p29
aa(lp30
Vhttp://dbpedia.org/resource/Tsugumi_Higasayama
p31
aa(lp32
a(lp33
a(lp34
Vhttp://dbpedia.org/resource/Hiroshi_\u014ctake
p35
aaa.