(lp1
(lp2
(lp3
a(lp4
a(lp5
a(lp6
aa(lp7
(lp8
Vhttp://dbpedia.org/resource/Socialist_Party
p9
aa(lp10
a(lp11
a(lp12
aa(lp13
(lp14
Vhttp://dbpedia.org/resource/Social_democracy
p15
aa(lp16
a(lp17
a(lp18
aa(lp19
(lp20
a(lp21
a(lp22
a(lp23
aa(lp24
(lp25
Vhttp://dbpedia.org/resource/Christian_democracy
p26
aa(lp27
a(lp28
a(lp29
aa(lp30
(lp31
a(lp32
a(lp33
a(lp34
aa(lp35
(lp36
Vhttp://dbpedia.org/resource/Liberal_Party
p37
aa(lp38
a(lp39
a(lp40
aa(lp41
(lp42
Vhttp://dbpedia.org/resource/Conservative_Party
p43
aa(lp44
a(lp45
a(lp46
aa(lp47
(lp48
a(lp49
a(lp50
a(lp51
aa.