(lp1
(lp2
(lp3
((lp4
Vhttp://dbpedia.org/class/yago/AmericanDJs
p5
aVhttp://dbpedia.org/class/yago/Broadcaster109875786
p6
aVhttp://dbpedia.org/class/yago/CausalAgent100007347
p7
aVhttp://dbpedia.org/class/yago/Communicator109610660
p8
aVhttp://dbpedia.org/class/yago/DiskJockey110017272
p9
aVhttp://dbpedia.org/class/yago/LivingThing100004258
p10
aVhttp://dbpedia.org/class/yago/Object100002684
p11
aVhttp://dbpedia.org/class/yago/Organism100004475
p12
aVhttp://dbpedia.org/class/yago/Person100007846
p13
aVhttp://dbpedia.org/class/yago/Presenter110466387
p14
aVhttp://dbpedia.org/class/yago/Whole100003553
p15
aVhttp://dbpedia.org/class/yago/YagoLegalActorGeo
p16
aVhttp://www.w3.org/2002/07/owl#Thing
p17
aVhttp://xmlns.com/foaf/0.1/Person
p18
aVhttp://dbpedia.org/ontology/Person
p19
aVhttp://www.ontologydesignpatterns.org/ont/dul/DUL.owl#Agent
p20
aVhttp://www.ontologydesignpatterns.org/ont/dul/DUL.owl#NaturalPerson
p21
aVhttp://www.wikidata.org/entity/Q13590141
p22
aVhttp://www.wikidata.org/entity/Q215627
p23
aVhttp://www.wikidata.org/entity/Q2722764
p24
aVhttp://www.wikidata.org/entity/Q5
p25
aVhttp://dbpedia.org/ontology/Agent
p26
aVhttp://dbpedia.org/ontology/Presenter
p27
aVhttp://dbpedia.org/ontology/RadioHost
p28
aVhttp://schema.org/Person
p29
aVhttp://dbpedia.org/class/yago/PeopleFromBrooklyn
p30
aVhttp://dbpedia.org/class/yago/YagoLegalActor
p31
aVhttp://dbpedia.org/class/yago/PhysicalEntity100001930
p32
aVhttp://dbpedia.org/resource/Alison_Steele
tp33
aa(lp34
((lp35
Vhttp://dbpedia.org/class/yago/Announcer109795124
p36
aVhttp://dbpedia.org/class/yago/Broadcaster109875786
p37
aVhttp://dbpedia.org/class/yago/CanadianTelevisionSportscasters
p38
aVhttp://dbpedia.org/class/yago/CausalAgent100007347
p39
aVhttp://dbpedia.org/class/yago/Communicator109610660
p40
aVhttp://dbpedia.org/class/yago/LivingThing100004258
p41
aVhttp://dbpedia.org/class/yago/Object100002684
p42
aVhttp://dbpedia.org/class/yago/Organism100004475
p43
aVhttp://dbpedia.org/class/yago/Person100007846
p44
aVhttp://dbpedia.org/class/yago/Presenter110466387
p45
aVhttp://dbpedia.org/class/yago/SportsAnnouncer110639637
p46
aVhttp://dbpedia.org/class/yago/Whole100003553
p47
aVhttp://dbpedia.org/class/yago/YagoLegalActorGeo
p48
aVhttp://www.w3.org/2002/07/owl#Thing
p49
aVhttp://xmlns.com/foaf/0.1/Person
p50
aVhttp://dbpedia.org/ontology/Person
p51
aVhttp://www.ontologydesignpatterns.org/ont/dul/DUL.owl#Agent
p52
aVhttp://www.ontologydesignpatterns.org/ont/dul/DUL.owl#NaturalPerson
p53
aVhttp://www.wikidata.org/entity/Q13590141
p54
aVhttp://www.wikidata.org/entity/Q215627
p55
aVhttp://www.wikidata.org/entity/Q2722764
p56
aVhttp://www.wikidata.org/entity/Q5
p57
aVhttp://dbpedia.org/ontology/Agent
p58
aVhttp://dbpedia.org/ontology/Presenter
p59
aVhttp://dbpedia.org/ontology/RadioHost
p60
aVhttp://schema.org/Person
p61
aVhttp://dbpedia.org/class/yago/PeopleFromOshawa
p62
aVhttp://dbpedia.org/class/yago/YagoLegalActor
p63
aVhttp://dbpedia.org/class/yago/LivingPeople
p64
aVhttp://dbpedia.org/class/yago/PhysicalEntity100001930
p65
aVhttp://dbpedia.org/class/yago/WomenSportsAnnouncers
p66
aVhttp://dbpedia.org/resource/Kathryn_Humphreys
tp67
aa(lp68
((lp69
Vhttp://dbpedia.org/class/yago/AmericanSportsAnnouncers
p70
aVhttp://dbpedia.org/class/yago/Announcer109795124
p71
aVhttp://dbpedia.org/class/yago/Announcer109795334
p72
aVhttp://dbpedia.org/class/yago/Broadcaster109875786
p73
aVhttp://dbpedia.org/class/yago/CausalAgent100007347
p74
aVhttp://dbpedia.org/class/yago/Communicator109610660
p75
aVhttp://dbpedia.org/class/yago/LivingThing100004258
p76
aVhttp://dbpedia.org/class/yago/Object100002684
p77
aVhttp://dbpedia.org/class/yago/Organism100004475
p78
aVhttp://dbpedia.org/class/yago/Person100007846
p79
aVhttp://dbpedia.org/class/yago/Presenter110466387
p80
aVhttp://dbpedia.org/class/yago/SportsAnnouncer110639637
p81
aVhttp://dbpedia.org/class/yago/Whole100003553
p82
aVhttp://dbpedia.org/class/yago/YagoLegalActorGeo
p83
aVhttp://www.w3.org/2002/07/owl#Thing
p84
aVhttp://xmlns.com/foaf/0.1/Person
p85
aVhttp://dbpedia.org/ontology/Person
p86
aVhttp://www.ontologydesignpatterns.org/ont/dul/DUL.owl#Agent
p87
aVhttp://www.ontologydesignpatterns.org/ont/dul/DUL.owl#NaturalPerson
p88
aVhttp://www.wikidata.org/entity/Q13590141
p89
aVhttp://www.wikidata.org/entity/Q215627
p90
aVhttp://www.wikidata.org/entity/Q5
p91
aVhttp://dbpedia.org/ontology/Agent
p92
aVhttp://dbpedia.org/ontology/Presenter
p93
aVhttp://schema.org/Person
p94
aVhttp://dbpedia.org/class/yago/NationalBasketballAssociationPublicAddressAnnouncers
p95
aVhttp://dbpedia.org/class/yago/PeopleFromChicago,Illinois
p96
aVhttp://dbpedia.org/class/yago/PeopleFromLosAngeles,California
p97
aVhttp://dbpedia.org/class/yago/YagoLegalActor
p98
aVhttp://dbpedia.org/class/yago/LivingPeople
p99
aVhttp://dbpedia.org/class/yago/PhysicalEntity100001930
p100
aVhttp://dbpedia.org/resource/Lawrence_Tanter
tp101
aa(lp102
((lp103
Vhttp://dbpedia.org/class/yago/Adult109605289
p104
aVhttp://dbpedia.org/class/yago/AmericanTalkRadioHosts
p105
aVhttp://dbpedia.org/class/yago/Aviator109826204
p106
aVhttp://dbpedia.org/class/yago/CausalAgent100007347
p107
aVhttp://dbpedia.org/class/yago/Communicator109610660
p108
aVhttp://dbpedia.org/class/yago/Host110187130
p109
aVhttp://dbpedia.org/class/yago/LivingThing100004258
p110
aVhttp://dbpedia.org/class/yago/MilitaryOfficer110317007
p111
aVhttp://dbpedia.org/class/yago/Object100002684
p112
aVhttp://dbpedia.org/class/yago/Organism100004475
p113
aVhttp://dbpedia.org/class/yago/Person100007846
p114
aVhttp://dbpedia.org/class/yago/Pilot110433164
p115
aVhttp://dbpedia.org/class/yago/Presenter110466387
p116
aVhttp://dbpedia.org/class/yago/Serviceman110582746
p117
aVhttp://dbpedia.org/class/yago/SkilledWorker110605985
p118
aVhttp://dbpedia.org/class/yago/Whole100003553
p119
aVhttp://dbpedia.org/class/yago/Worker109632518
p120
aVhttp://dbpedia.org/class/yago/YagoLegalActorGeo
p121
aVhttp://www.w3.org/2002/07/owl#Thing
p122
aVhttp://xmlns.com/foaf/0.1/Person
p123
aVhttp://dbpedia.org/ontology/Person
p124
aVhttp://www.ontologydesignpatterns.org/ont/dul/DUL.owl#Agent
p125
aVhttp://www.ontologydesignpatterns.org/ont/dul/DUL.owl#NaturalPerson
p126
aVhttp://www.wikidata.org/entity/Q13590141
p127
aVhttp://www.wikidata.org/entity/Q215627
p128
aVhttp://www.wikidata.org/entity/Q2722764
p129
aVhttp://www.wikidata.org/entity/Q5
p130
aVhttp://dbpedia.org/ontology/Agent
p131
aVhttp://dbpedia.org/ontology/Presenter
p132
aVhttp://dbpedia.org/ontology/RadioHost
p133
aVhttp://schema.org/Person
p134
aVhttp://dbpedia.org/class/yago/PeopleFromChicago,Illinois
p135
aVhttp://dbpedia.org/class/yago/PeopleFromCincinnati,Ohio
p136
aVhttp://dbpedia.org/class/yago/PeopleFromCrystalLake,Illinois
p137
aVhttp://dbpedia.org/class/yago/PeopleFromGrandRapids,Michigan
p138
aVhttp://dbpedia.org/class/yago/PeopleFromNaples,Florida
p139
aVhttp://dbpedia.org/class/yago/PeopleFromPortsmouth,Ohio
p140
aVhttp://dbpedia.org/class/yago/YagoLegalActor
p141
aVhttp://dbpedia.org/class/yago/PhysicalEntity100001930
p142
aVhttp://dbpedia.org/class/yago/UnitedStatesArmyAirForcesOfficers
p143
aVhttp://dbpedia.org/class/yago/UnitedStatesArmyAirForcesPilotsOfWorldWarII
p144
aVhttp://dbpedia.org/resource/Wally_Phillips
tp145
aa(lp146
((lp147
Vhttp://dbpedia.org/class/yago/Broadcaster109875786
p148
aVhttp://dbpedia.org/class/yago/CausalAgent100007347
p149
aVhttp://dbpedia.org/class/yago/Communicator109610660
p150
aVhttp://dbpedia.org/class/yago/DiskJockey110017272
p151
aVhttp://dbpedia.org/class/yago/LivingThing100004258
p152
aVhttp://dbpedia.org/class/yago/Object100002684
p153
aVhttp://dbpedia.org/class/yago/Organism100004475
p154
aVhttp://dbpedia.org/class/yago/Person100007846
p155
aVhttp://dbpedia.org/class/yago/Presenter110466387
p156
aVhttp://dbpedia.org/class/yago/Whole100003553
p157
aVhttp://dbpedia.org/class/yago/YagoLegalActorGeo
p158
aVhttp://dbpedia.org/class/yago/ScottishDJs
p159
aVhttp://www.w3.org/2002/07/owl#Thing
p160
aVhttp://xmlns.com/foaf/0.1/Person
p161
aVhttp://dbpedia.org/ontology/Person
p162
aVhttp://www.ontologydesignpatterns.org/ont/dul/DUL.owl#Agent
p163
aVhttp://www.ontologydesignpatterns.org/ont/dul/DUL.owl#NaturalPerson
p164
aVhttp://www.wikidata.org/entity/Q13590141
p165
aVhttp://www.wikidata.org/entity/Q215627
p166
aVhttp://www.wikidata.org/entity/Q2722764
p167
aVhttp://www.wikidata.org/entity/Q5
p168
aVhttp://dbpedia.org/ontology/Agent
p169
aVhttp://dbpedia.org/ontology/Presenter
p170
aVhttp://dbpedia.org/ontology/RadioHost
p171
aVhttp://schema.org/Person
p172
aVhttp://dbpedia.org/class/yago/PeopleEducatedAtStrathallanSchool
p173
aVhttp://dbpedia.org/class/yago/PeopleEducatedAtTheHighSchoolOfDundee
p174
aVhttp://dbpedia.org/class/yago/PeopleFromDundee
p175
aVhttp://dbpedia.org/class/yago/YagoLegalActor
p176
aVhttp://dbpedia.org/class/yago/LivingPeople
p177
aVhttp://dbpedia.org/class/yago/PhysicalEntity100001930
p178
aVhttp://dbpedia.org/resource/Jim_Gellatly
tp179
aa(lp180
((lp181
Vhttp://www.w3.org/2002/07/owl#Thing
p182
aVhttp://xmlns.com/foaf/0.1/Person
p183
aVhttp://dbpedia.org/ontology/Person
p184
aVhttp://www.ontologydesignpatterns.org/ont/dul/DUL.owl#Agent
p185
aVhttp://www.ontologydesignpatterns.org/ont/dul/DUL.owl#NaturalPerson
p186
aVhttp://www.wikidata.org/entity/Q215627
p187
aVhttp://www.wikidata.org/entity/Q483501
p188
aVhttp://www.wikidata.org/entity/Q5
p189
aVhttp://dbpedia.org/ontology/Agent
p190
aVhttp://dbpedia.org/ontology/Artist
p191
aVhttp://dbpedia.org/ontology/MusicalArtist
p192
aVhttp://schema.org/MusicGroup
p193
aVhttp://schema.org/Person
p194
aVhttp://dbpedia.org/resource/Kim_Sung-jae
tp195
aa(lp196
a(lp197
a(lp198
((lp199
Vhttp://dbpedia.org/class/yago/Academician109759069
p200
aVhttp://dbpedia.org/class/yago/AcademicsOfBrunelUniversity
p201
aVhttp://dbpedia.org/class/yago/AcademicsOfTheUniversityOfSalford
p202
aVhttp://dbpedia.org/class/yago/Actor109765278
p203
aVhttp://dbpedia.org/class/yago/ActorsFromManchester
p204
aVhttp://dbpedia.org/class/yago/Adult109605289
p205
aVhttp://dbpedia.org/class/yago/AlumniOfTheVictoriaUniversityOfManchester
p206
aVhttp://dbpedia.org/class/yago/Alumnus109786338
p207
aVhttp://dbpedia.org/class/yago/CausalAgent100007347
p208
aVhttp://dbpedia.org/class/yago/Educator110045713
p209
aVhttp://dbpedia.org/class/yago/Entertainer109616922
p210
aVhttp://dbpedia.org/class/yago/Intellectual109621545
p211
aVhttp://dbpedia.org/class/yago/LivingThing100004258
p212
aVhttp://dbpedia.org/class/yago/Object100002684
p213
aVhttp://dbpedia.org/class/yago/Organism100004475
p214
aVhttp://dbpedia.org/class/yago/Performer110415638
p215
aVhttp://dbpedia.org/class/yago/Person100007846
p216
aVhttp://dbpedia.org/class/yago/Professional110480253
p217
aVhttp://dbpedia.org/class/yago/Scholar110557854
p218
aVhttp://dbpedia.org/class/yago/Whole100003553
p219
aVhttp://dbpedia.org/class/yago/YagoLegalActorGeo
p220
aVhttp://www.w3.org/2002/07/owl#Thing
p221
aVhttp://xmlns.com/foaf/0.1/Person
p222
aVhttp://dbpedia.org/ontology/Person
p223
aVhttp://www.ontologydesignpatterns.org/ont/dul/DUL.owl#Agent
p224
aVhttp://www.ontologydesignpatterns.org/ont/dul/DUL.owl#NaturalPerson
p225
aVhttp://www.wikidata.org/entity/Q215627
p226
aVhttp://www.wikidata.org/entity/Q5
p227
aVhttp://dbpedia.org/ontology/Agent
p228
aVhttp://schema.org/Person
p229
aVhttp://dbpedia.org/class/yago/PeopleFromManchester
p230
aVhttp://dbpedia.org/class/yago/YagoLegalActor
p231
aVhttp://dbpedia.org/class/yago/LivingPeople
p232
aVhttp://dbpedia.org/class/yago/PhysicalEntity100001930
p233
aVhttp://dbpedia.org/resource/Steve_Dixon_(actor)
tp234
aa(lp235
((lp236
Vhttp://www.w3.org/2002/07/owl#Thing
p237
aVhttp://xmlns.com/foaf/0.1/Person
p238
aVhttp://dbpedia.org/ontology/Person
p239
aVhttp://www.ontologydesignpatterns.org/ont/dul/DUL.owl#Agent
p240
aVhttp://www.ontologydesignpatterns.org/ont/dul/DUL.owl#NaturalPerson
p241
aVhttp://www.wikidata.org/entity/Q13590141
p242
aVhttp://www.wikidata.org/entity/Q215627
p243
aVhttp://www.wikidata.org/entity/Q2722764
p244
aVhttp://www.wikidata.org/entity/Q5
p245
aVhttp://dbpedia.org/ontology/Agent
p246
aVhttp://dbpedia.org/ontology/Presenter
p247
aVhttp://dbpedia.org/ontology/RadioHost
p248
aVhttp://schema.org/Person
p249
aVhttp://dbpedia.org/resource/Ed_Mason
tp250
aa(lp251
((lp252
Vhttp://dbpedia.org/class/yago/CausalAgent100007347
p253
aVhttp://dbpedia.org/class/yago/LivingThing100004258
p254
aVhttp://dbpedia.org/class/yago/Object100002684
p255
aVhttp://dbpedia.org/class/yago/Organism100004475
p256
aVhttp://dbpedia.org/class/yago/Person100007846
p257
aVhttp://dbpedia.org/class/yago/Whole100003553
p258
aVhttp://dbpedia.org/class/yago/YagoLegalActorGeo
p259
aVhttp://www.w3.org/2002/07/owl#Thing
p260
aVhttp://xmlns.com/foaf/0.1/Person
p261
aVhttp://dbpedia.org/ontology/Person
p262
aVhttp://www.ontologydesignpatterns.org/ont/dul/DUL.owl#Agent
p263
aVhttp://www.ontologydesignpatterns.org/ont/dul/DUL.owl#NaturalPerson
p264
aVhttp://www.wikidata.org/entity/Q215627
p265
aVhttp://www.wikidata.org/entity/Q5
p266
aVhttp://dbpedia.org/ontology/Agent
p267
aVhttp://schema.org/Person
p268
aVhttp://dbpedia.org/class/yago/YagoLegalActor
p269
aVhttp://dbpedia.org/class/yago/LivingPeople
p270
aVhttp://dbpedia.org/class/yago/PhysicalEntity100001930
p271
aVhttp://dbpedia.org/resource/Shannon_Rose
tp272
aa(lp273
((lp274
Vhttp://dbpedia.org/class/yago/AmericanDJs
p275
aVhttp://dbpedia.org/class/yago/AmericanPeopleOfPuertoRicanDescent
p276
aVhttp://dbpedia.org/class/yago/AmericanRecordProducers
p277
aVhttp://dbpedia.org/class/yago/Broadcaster109875786
p278
aVhttp://dbpedia.org/class/yago/CausalAgent100007347
p279
aVhttp://dbpedia.org/class/yago/Communicator109610660
p280
aVhttp://dbpedia.org/class/yago/Creator109614315
p281
aVhttp://dbpedia.org/class/yago/DiskJockey110017272
p282
aVhttp://dbpedia.org/class/yago/LivingThing100004258
p283
aVhttp://dbpedia.org/class/yago/Maker110284064
p284
aVhttp://dbpedia.org/class/yago/Manufacturer110292316
p285
aVhttp://dbpedia.org/class/yago/Object100002684
p286
aVhttp://dbpedia.org/class/yago/Organism100004475
p287
aVhttp://dbpedia.org/class/yago/Person100007846
p288
aVhttp://dbpedia.org/class/yago/Presenter110466387
p289
aVhttp://dbpedia.org/class/yago/Whole100003553
p290
aVhttp://dbpedia.org/class/yago/YagoLegalActorGeo
p291
aVhttp://www.w3.org/2002/07/owl#Thing
p292
aVhttp://xmlns.com/foaf/0.1/Person
p293
aVhttp://dbpedia.org/ontology/Person
p294
aVhttp://www.ontologydesignpatterns.org/ont/dul/DUL.owl#Agent
p295
aVhttp://www.ontologydesignpatterns.org/ont/dul/DUL.owl#NaturalPerson
p296
aVhttp://www.wikidata.org/entity/Q13590141
p297
aVhttp://www.wikidata.org/entity/Q215627
p298
aVhttp://www.wikidata.org/entity/Q2722764
p299
aVhttp://www.wikidata.org/entity/Q5
p300
aVhttp://dbpedia.org/ontology/Agent
p301
aVhttp://dbpedia.org/ontology/Presenter
p302
aVhttp://dbpedia.org/ontology/RadioHost
p303
aVhttp://schema.org/Person
p304
aVhttp://dbpedia.org/class/yago/ClubDJs
p305
aVhttp://dbpedia.org/class/yago/PeopleFromLongIsland
p306
aVhttp://dbpedia.org/class/yago/YagoLegalActor
p307
aVhttp://dbpedia.org/class/yago/LivingPeople
p308
aVhttp://dbpedia.org/class/yago/PhysicalEntity100001930
p309
aVhttp://dbpedia.org/resource/Vic_Latino
tp310
aa(lp311
((lp312
Vhttp://dbpedia.org/class/yago/Alumnus109786338
p313
aVhttp://dbpedia.org/class/yago/AmericanDJs
p314
aVhttp://dbpedia.org/class/yago/Broadcaster109875786
p315
aVhttp://dbpedia.org/class/yago/CausalAgent100007347
p316
aVhttp://dbpedia.org/class/yago/Communicator109610660
p317
aVhttp://dbpedia.org/class/yago/DiskJockey110017272
p318
aVhttp://dbpedia.org/class/yago/Intellectual109621545
p319
aVhttp://dbpedia.org/class/yago/LivingThing100004258
p320
aVhttp://dbpedia.org/class/yago/Object100002684
p321
aVhttp://dbpedia.org/class/yago/Organism100004475
p322
aVhttp://dbpedia.org/class/yago/Person100007846
p323
aVhttp://dbpedia.org/class/yago/Presenter110466387
p324
aVhttp://dbpedia.org/class/yago/Scholar110557854
p325
aVhttp://dbpedia.org/class/yago/Whole100003553
p326
aVhttp://dbpedia.org/class/yago/YagoLegalActorGeo
p327
aVhttp://www.w3.org/2002/07/owl#Thing
p328
aVhttp://xmlns.com/foaf/0.1/Person
p329
aVhttp://dbpedia.org/ontology/Person
p330
aVhttp://www.ontologydesignpatterns.org/ont/dul/DUL.owl#Agent
p331
aVhttp://www.ontologydesignpatterns.org/ont/dul/DUL.owl#NaturalPerson
p332
aVhttp://www.wikidata.org/entity/Q13590141
p333
aVhttp://www.wikidata.org/entity/Q215627
p334
aVhttp://www.wikidata.org/entity/Q5
p335
aVhttp://dbpedia.org/ontology/Agent
p336
aVhttp://dbpedia.org/ontology/Presenter
p337
aVhttp://schema.org/Person
p338
aVhttp://dbpedia.org/class/yago/YagoLegalActor
p339
aVhttp://dbpedia.org/class/yago/GuilfordCollegeAlumni
p340
aVhttp://dbpedia.org/class/yago/PhysicalEntity100001930
p341
aVhttp://dbpedia.org/resource/Big_Jack_Armstrong
tp342
aa(lp343
((lp344
Vhttp://dbpedia.org/class/yago/Abstraction100002137
p345
aVhttp://dbpedia.org/class/yago/AmericanRadioPersonalities
p346
aVhttp://dbpedia.org/class/yago/Attribute100024264
p347
aVhttp://dbpedia.org/class/yago/Personality104617562
p348
aVhttp://dbpedia.org/class/yago/RadioPersonalitiesFromLosAngeles,California
p349
aVhttp://dbpedia.org/class/yago/RadioPersonalitiesFromSanDiego,California
p350
aVhttp://dbpedia.org/class/yago/RadioPersonalitiesFromSanFrancisco,California
p351
aVhttp://dbpedia.org/class/yago/RadioPersonalitiesFromTexas
p352
aVhttp://www.w3.org/2002/07/owl#Thing
p353
aVhttp://xmlns.com/foaf/0.1/Person
p354
aVhttp://dbpedia.org/ontology/Person
p355
aVhttp://www.ontologydesignpatterns.org/ont/dul/DUL.owl#Agent
p356
aVhttp://www.ontologydesignpatterns.org/ont/dul/DUL.owl#NaturalPerson
p357
aVhttp://www.wikidata.org/entity/Q13590141
p358
aVhttp://www.wikidata.org/entity/Q215627
p359
aVhttp://www.wikidata.org/entity/Q2722764
p360
aVhttp://www.wikidata.org/entity/Q5
p361
aVhttp://dbpedia.org/ontology/Agent
p362
aVhttp://dbpedia.org/ontology/Presenter
p363
aVhttp://dbpedia.org/ontology/RadioHost
p364
aVhttp://schema.org/Person
p365
aVhttp://dbpedia.org/resource/John_Gilliland
tp366
aa(lp367
((lp368
Vhttp://dbpedia.org/class/yago/Adult109605289
p369
aVhttp://dbpedia.org/class/yago/AfricanAmericanJournalists
p370
aVhttp://dbpedia.org/class/yago/Alumnus109786338
p371
aVhttp://dbpedia.org/class/yago/AmericanTelevisionTalkShowHosts
p372
aVhttp://dbpedia.org/class/yago/CausalAgent100007347
p373
aVhttp://dbpedia.org/class/yago/Communicator109610660
p374
aVhttp://dbpedia.org/class/yago/Host110187130
p375
aVhttp://dbpedia.org/class/yago/Intellectual109621545
p376
aVhttp://dbpedia.org/class/yago/Journalist110224578
p377
aVhttp://dbpedia.org/class/yago/LivingThing100004258
p378
aVhttp://dbpedia.org/class/yago/Object100002684
p379
aVhttp://dbpedia.org/class/yago/Organism100004475
p380
aVhttp://dbpedia.org/class/yago/Person100007846
p381
aVhttp://dbpedia.org/class/yago/Scholar110557854
p382
aVhttp://dbpedia.org/class/yago/Whole100003553
p383
aVhttp://dbpedia.org/class/yago/Writer110794014
p384
aVhttp://dbpedia.org/class/yago/YagoLegalActorGeo
p385
aVhttp://www.w3.org/2002/07/owl#Thing
p386
aVhttp://xmlns.com/foaf/0.1/Person
p387
aVhttp://dbpedia.org/ontology/Person
p388
aVhttp://www.ontologydesignpatterns.org/ont/dul/DUL.owl#Agent
p389
aVhttp://www.ontologydesignpatterns.org/ont/dul/DUL.owl#NaturalPerson
p390
aVhttp://www.wikidata.org/entity/Q215627
p391
aVhttp://www.wikidata.org/entity/Q5
p392
aVhttp://dbpedia.org/ontology/Agent
p393
aVhttp://schema.org/Person
p394
aVhttp://dbpedia.org/class/yago/CassTechnicalHighSchoolAlumni
p395
aVhttp://dbpedia.org/class/yago/PeopleFromDetroit,Michigan
p396
aVhttp://dbpedia.org/class/yago/YagoLegalActor
p397
aVhttp://dbpedia.org/class/yago/LivingPeople
p398
aVhttp://dbpedia.org/class/yago/PhysicalEntity100001930
p399
aVhttp://dbpedia.org/class/yago/WesternMichiganUniversityAlumni
p400
aVhttp://dbpedia.org/resource/Ed_Gordon_(journalist)
tp401
aa(lp402
((lp403
Vhttp://dbpedia.org/class/yago/AmericanRecordProducers
p404
aVhttp://dbpedia.org/class/yago/CausalAgent100007347
p405
aVhttp://dbpedia.org/class/yago/Creator109614315
p406
aVhttp://dbpedia.org/class/yago/LivingThing100004258
p407
aVhttp://dbpedia.org/class/yago/Maker110284064
p408
aVhttp://dbpedia.org/class/yago/Manufacturer110292316
p409
aVhttp://dbpedia.org/class/yago/Object100002684
p410
aVhttp://dbpedia.org/class/yago/Organism100004475
p411
aVhttp://dbpedia.org/class/yago/Person100007846
p412
aVhttp://dbpedia.org/class/yago/Whole100003553
p413
aVhttp://dbpedia.org/class/yago/YagoLegalActorGeo
p414
aVhttp://www.w3.org/2002/07/owl#Thing
p415
aVhttp://xmlns.com/foaf/0.1/Person
p416
aVhttp://dbpedia.org/ontology/Person
p417
aVhttp://www.ontologydesignpatterns.org/ont/dul/DUL.owl#Agent
p418
aVhttp://www.ontologydesignpatterns.org/ont/dul/DUL.owl#NaturalPerson
p419
aVhttp://www.wikidata.org/entity/Q215627
p420
aVhttp://www.wikidata.org/entity/Q5
p421
aVhttp://dbpedia.org/ontology/Agent
p422
aVhttp://schema.org/Person
p423
aVhttp://dbpedia.org/class/yago/PeopleFromSpringfield,Missouri
p424
aVhttp://dbpedia.org/class/yago/YagoLegalActor
p425
aVhttp://dbpedia.org/class/yago/LivingPeople
p426
aVhttp://dbpedia.org/class/yago/PhysicalEntity100001930
p427
aVhttp://dbpedia.org/resource/David_Kershenbaum
tp428
aa(lp429
((lp430
Vhttp://dbpedia.org/class/yago/Aristocrat109807754
p431
aVhttp://dbpedia.org/class/yago/AustralianKnights
p432
aVhttp://dbpedia.org/class/yago/AustralianTelevisionPresenters
p433
aVhttp://dbpedia.org/class/yago/CausalAgent100007347
p434
aVhttp://dbpedia.org/class/yago/Communicator109610660
p435
aVhttp://dbpedia.org/class/yago/Knight110238375
p436
aVhttp://dbpedia.org/class/yago/Leader109623038
p437
aVhttp://dbpedia.org/class/yago/LivingThing100004258
p438
aVhttp://dbpedia.org/class/yago/MilitaryOfficer110317007
p439
aVhttp://dbpedia.org/class/yago/Object100002684
p440
aVhttp://dbpedia.org/class/yago/Organism100004475
p441
aVhttp://dbpedia.org/class/yago/Person100007846
p442
aVhttp://dbpedia.org/class/yago/Presenter110466387
p443
aVhttp://dbpedia.org/class/yago/Serviceman110582746
p444
aVhttp://dbpedia.org/class/yago/SkilledWorker110605985
p445
aVhttp://dbpedia.org/class/yago/Whole100003553
p446
aVhttp://dbpedia.org/class/yago/Worker109632518
p447
aVhttp://dbpedia.org/class/yago/YagoLegalActorGeo
p448
aVhttp://www.w3.org/2002/07/owl#Thing
p449
aVhttp://xmlns.com/foaf/0.1/Person
p450
aVhttp://dbpedia.org/ontology/Person
p451
aVhttp://www.ontologydesignpatterns.org/ont/dul/DUL.owl#Agent
p452
aVhttp://www.ontologydesignpatterns.org/ont/dul/DUL.owl#NaturalPerson
p453
aVhttp://www.wikidata.org/entity/Q13590141
p454
aVhttp://www.wikidata.org/entity/Q215627
p455
aVhttp://www.wikidata.org/entity/Q2722764
p456
aVhttp://www.wikidata.org/entity/Q5
p457
aVhttp://dbpedia.org/ontology/Agent
p458
aVhttp://dbpedia.org/ontology/Presenter
p459
aVhttp://dbpedia.org/ontology/RadioHost
p460
aVhttp://schema.org/Person
p461
aVhttp://dbpedia.org/class/yago/OfficersOfTheOrderOfTheBritishEmpire
p462
aVhttp://dbpedia.org/class/yago/YagoLegalActor
p463
aVhttp://dbpedia.org/class/yago/MaleAristocrat110285135
p464
aVhttp://dbpedia.org/class/yago/PhysicalEntity100001930
p465
aVhttp://dbpedia.org/resource/Eric_Pearce_(broadcaster)
tp466
aa(lp467
((lp468
Vhttp://dbpedia.org/class/yago/Adult109605289
p469
aVhttp://dbpedia.org/class/yago/AmericanMurderVictims
p470
aVhttp://dbpedia.org/class/yago/AmericanTalkRadioHosts
p471
aVhttp://dbpedia.org/class/yago/CausalAgent100007347
p472
aVhttp://dbpedia.org/class/yago/Communicator109610660
p473
aVhttp://dbpedia.org/class/yago/Entertainer109616922
p474
aVhttp://dbpedia.org/class/yago/Host110187130
p475
aVhttp://dbpedia.org/class/yago/LivingThing100004258
p476
aVhttp://dbpedia.org/class/yago/Object100002684
p477
aVhttp://dbpedia.org/class/yago/Organism100004475
p478
aVhttp://dbpedia.org/class/yago/Person100007846
p479
aVhttp://dbpedia.org/class/yago/Presenter110466387
p480
aVhttp://dbpedia.org/class/yago/Unfortunate109630641
p481
aVhttp://dbpedia.org/class/yago/Victim110752093
p482
aVhttp://dbpedia.org/class/yago/Whole100003553
p483
aVhttp://dbpedia.org/class/yago/YagoLegalActorGeo
p484
aVhttp://www.w3.org/2002/07/owl#Thing
p485
aVhttp://xmlns.com/foaf/0.1/Person
p486
aVhttp://dbpedia.org/ontology/Person
p487
aVhttp://www.ontologydesignpatterns.org/ont/dul/DUL.owl#Agent
p488
aVhttp://www.ontologydesignpatterns.org/ont/dul/DUL.owl#NaturalPerson
p489
aVhttp://www.wikidata.org/entity/Q13590141
p490
aVhttp://www.wikidata.org/entity/Q215627
p491
aVhttp://www.wikidata.org/entity/Q5
p492
aVhttp://dbpedia.org/ontology/Agent
p493
aVhttp://dbpedia.org/ontology/Presenter
p494
aVhttp://schema.org/Person
p495
aVhttp://dbpedia.org/class/yago/MurderedEntertainers
p496
aVhttp://dbpedia.org/class/yago/PeopleFromPhiladelphia,Pennsylvania
p497
aVhttp://dbpedia.org/class/yago/PeopleMurderedInNewYork
p498
aVhttp://dbpedia.org/class/yago/YagoLegalActor
p499
aVhttp://dbpedia.org/class/yago/PhysicalEntity100001930
p500
aVhttp://dbpedia.org/resource/George_Weber_(radio_personality)
tp501
aa(lp502
((lp503
Vhttp://dbpedia.org/class/yago/CausalAgent100007347
p504
aVhttp://dbpedia.org/class/yago/Communicator109610660
p505
aVhttp://dbpedia.org/class/yago/LivingThing100004258
p506
aVhttp://dbpedia.org/class/yago/Object100002684
p507
aVhttp://dbpedia.org/class/yago/Organism100004475
p508
aVhttp://dbpedia.org/class/yago/Person100007846
p509
aVhttp://dbpedia.org/class/yago/Presenter110466387
p510
aVhttp://dbpedia.org/class/yago/Whole100003553
p511
aVhttp://dbpedia.org/class/yago/YagoLegalActorGeo
p512
aVhttp://www.w3.org/2002/07/owl#Thing
p513
aVhttp://xmlns.com/foaf/0.1/Person
p514
aVhttp://dbpedia.org/ontology/Person
p515
aVhttp://www.ontologydesignpatterns.org/ont/dul/DUL.owl#Agent
p516
aVhttp://www.ontologydesignpatterns.org/ont/dul/DUL.owl#NaturalPerson
p517
aVhttp://www.wikidata.org/entity/Q13590141
p518
aVhttp://www.wikidata.org/entity/Q215627
p519
aVhttp://www.wikidata.org/entity/Q5
p520
aVhttp://www.wikidata.org/entity/Q947873
p521
aVhttp://dbpedia.org/ontology/Agent
p522
aVhttp://dbpedia.org/ontology/Presenter
p523
aVhttp://dbpedia.org/ontology/TelevisionHost
p524
aVhttp://schema.org/Person
p525
aVhttp://dbpedia.org/class/yago/YagoLegalActor
p526
aVhttp://dbpedia.org/class/yago/LivingPeople
p527
aVhttp://dbpedia.org/class/yago/PhysicalEntity100001930
p528
aVhttp://dbpedia.org/resource/Suraj_Singh_Thakuri
p529
tp530
aaa.