ccollections
defaultdict
p1
(c__builtin__
dict
p2
tRp3
I9
(dp4
I0
(lp5
sI1
(lp6
sI3
(lp7
sI4
(lp8
ssI10
(dp9
I0
(lp10
sI1
(lp11
sI3
(lp12
sI4
(lp13
ssI3
(dp14
I0
(lp15
sI1
(lp16
sI3
(lp17
sI4
(lp18
ssI4
(dp19
I0
(lp20
sI1
(lp21
sI3
(lp22
sI4
(lp23
ssI7
(dp24
I0
(lp25
sI1
(lp26
sI3
(lp27
sI4
(lp28
Vhttp://dbpedia.org/property/builder
p29
aVhttp://dbpedia.org/ontology/builder
p30
ass.