(lp1
(lp2
(lp3
a(lp4
a(lp5
a(lp6
a(lp7
a(lp8
a(lp9
a(lp10
a(lp11
Vhttp://dbpedia.org/resource/Dracula_%E2%80%93_Entre_l'amour_et_la_mort
p12
aa(lp13
a(lp14
a(lp15
a(lp16
Vhttp://dbpedia.org/resource/Hold_Everything_(store)
p17
aa(lp18
a(lp19
Vhttp://dbpedia.org/resource/Little_House_on_the_Prairie_(novel)
p20
aa(lp21
a(lp22
a(lp23
aa.