ccollections
defaultdict
p1
(c__builtin__
dict
p2
tRp3
I6
(dp4
I1
(lp5
sI2
(lp6
sI3
(lp7
sI4
(lp8
sI5
(lp9
ssI11
(dp10
I1
(lp11
sI2
(lp12
sI3
(lp13
sI4
(lp14
sI5
(lp15
ssI12
(dp16
I1
(lp17
sI2
(lp18
sI3
(lp19
sI4
(lp20
sI5
(lp21
ssI13
(dp22
I1
(lp23
sI2
(lp24
sI3
(lp25
sI4
(lp26
sI5
(lp27
ssI15
(dp28
I1
(lp29
sI2
(lp30
sI3
(lp31
sI4
(lp32
sI5
(lp33
ssI16
(dp34
I1
(lp35
sI2
(lp36
sI3
(lp37
sI4
(lp38
sI5
(lp39
ssI17
(dp40
I1
(lp41
sI2
(lp42
sI3
(lp43
sI4
(lp44
sI5
(lp45
ss.