(lp1
(lp2
(lp3
((lp4
Vhttp://dbpedia.org/class/yago/LivingThing100004258
p5
aVhttp://dbpedia.org/class/yago/Object100002684
p6
aVhttp://dbpedia.org/class/yago/Organism100004475
p7
aVhttp://dbpedia.org/class/yago/Plant100017222
p8
aVhttp://dbpedia.org/class/yago/Whole100003553
p9
aVhttp://www.w3.org/2002/07/owl#Thing
p10
aVhttp://www.wikidata.org/entity/Q19088
p11
aVhttp://www.wikidata.org/entity/Q756
p12
aVhttp://dbpedia.org/ontology/Cycad
p13
aVhttp://dbpedia.org/ontology/Eukaryote
p14
aVhttp://dbpedia.org/ontology/Plant
p15
aVhttp://dbpedia.org/ontology/Species
p16
aVhttp://umbel.org/umbel/rc/Cycad
p17
aVhttp://dbpedia.org/class/yago/CriticallyEndangeredPlants
p18
aVhttp://dbpedia.org/class/yago/PhysicalEntity100001930
p19
aVhttp://dbpedia.org/resource/Zamia_macrochiera
tp20
aa(lp21
((lp22
Vhttp://dbpedia.org/class/yago/LivingThing100004258
p23
aVhttp://dbpedia.org/class/yago/Object100002684
p24
aVhttp://dbpedia.org/class/yago/Organism100004475
p25
aVhttp://dbpedia.org/class/yago/Plant100017222
p26
aVhttp://dbpedia.org/class/yago/Whole100003553
p27
aVhttp://www.w3.org/2002/07/owl#Thing
p28
aVhttp://www.wikidata.org/entity/Q19088
p29
aVhttp://www.wikidata.org/entity/Q756
p30
aVhttp://dbpedia.org/ontology/Cycad
p31
aVhttp://dbpedia.org/ontology/Eukaryote
p32
aVhttp://dbpedia.org/ontology/Plant
p33
aVhttp://dbpedia.org/ontology/Species
p34
aVhttp://umbel.org/umbel/rc/Cycad
p35
aVhttp://dbpedia.org/class/yago/NearThreatenedPlants
p36
aVhttp://dbpedia.org/class/yago/PhysicalEntity100001930
p37
aVhttp://dbpedia.org/resource/Zamia_manicata
tp38
aa(lp39
((lp40
Vhttp://dbpedia.org/class/yago/LivingThing100004258
p41
aVhttp://dbpedia.org/class/yago/Object100002684
p42
aVhttp://dbpedia.org/class/yago/Organism100004475
p43
aVhttp://dbpedia.org/class/yago/Plant100017222
p44
aVhttp://dbpedia.org/class/yago/Whole100003553
p45
aVhttp://www.w3.org/2002/07/owl#Thing
p46
aVhttp://www.wikidata.org/entity/Q19088
p47
aVhttp://www.wikidata.org/entity/Q756
p48
aVhttp://dbpedia.org/ontology/Cycad
p49
aVhttp://dbpedia.org/ontology/Eukaryote
p50
aVhttp://dbpedia.org/ontology/Plant
p51
aVhttp://dbpedia.org/ontology/Species
p52
aVhttp://umbel.org/umbel/rc/Cycad
p53
aVhttp://dbpedia.org/class/yago/EndangeredPlants
p54
aVhttp://dbpedia.org/class/yago/PhysicalEntity100001930
p55
aVhttp://dbpedia.org/resource/Zamia_melanorrhachis
tp56
aa(lp57
a(lp58
((lp59
Vhttp://dbpedia.org/class/yago/LivingThing100004258
p60
aVhttp://dbpedia.org/class/yago/Object100002684
p61
aVhttp://dbpedia.org/class/yago/Organism100004475
p62
aVhttp://dbpedia.org/class/yago/Plant100017222
p63
aVhttp://dbpedia.org/class/yago/Whole100003553
p64
aVhttp://www.w3.org/2002/07/owl#Thing
p65
aVhttp://www.wikidata.org/entity/Q19088
p66
aVhttp://www.wikidata.org/entity/Q756
p67
aVhttp://dbpedia.org/ontology/Cycad
p68
aVhttp://dbpedia.org/ontology/Eukaryote
p69
aVhttp://dbpedia.org/ontology/Plant
p70
aVhttp://dbpedia.org/ontology/Species
p71
aVhttp://umbel.org/umbel/rc/Cycad
p72
aVhttp://dbpedia.org/class/yago/CriticallyEndangeredPlants
p73
aVhttp://dbpedia.org/class/yago/PhysicalEntity100001930
p74
aVhttp://dbpedia.org/resource/Zamia_monticola
tp75
aa(lp76
((lp77
Vhttp://dbpedia.org/class/yago/LivingThing100004258
p78
aVhttp://dbpedia.org/class/yago/Object100002684
p79
aVhttp://dbpedia.org/class/yago/Organism100004475
p80
aVhttp://dbpedia.org/class/yago/Plant100017222
p81
aVhttp://dbpedia.org/class/yago/Whole100003553
p82
aVhttp://www.w3.org/2002/07/owl#Thing
p83
aVhttp://www.wikidata.org/entity/Q19088
p84
aVhttp://www.wikidata.org/entity/Q756
p85
aVhttp://dbpedia.org/ontology/Cycad
p86
aVhttp://dbpedia.org/ontology/Eukaryote
p87
aVhttp://dbpedia.org/ontology/Plant
p88
aVhttp://dbpedia.org/ontology/Species
p89
aVhttp://umbel.org/umbel/rc/Cycad
p90
aVhttp://dbpedia.org/class/yago/NearThreatenedPlants
p91
aVhttp://dbpedia.org/class/yago/PhysicalEntity100001930
p92
aVhttp://dbpedia.org/resource/Zamia_muricata
tp93
aa(lp94
((lp95
Vhttp://dbpedia.org/class/yago/LivingThing100004258
p96
aVhttp://dbpedia.org/class/yago/Object100002684
p97
aVhttp://dbpedia.org/class/yago/Organism100004475
p98
aVhttp://dbpedia.org/class/yago/Plant100017222
p99
aVhttp://dbpedia.org/class/yago/Whole100003553
p100
aVhttp://www.w3.org/2002/07/owl#Thing
p101
aVhttp://www.wikidata.org/entity/Q19088
p102
aVhttp://www.wikidata.org/entity/Q756
p103
aVhttp://dbpedia.org/ontology/Cycad
p104
aVhttp://dbpedia.org/ontology/Eukaryote
p105
aVhttp://dbpedia.org/ontology/Plant
p106
aVhttp://dbpedia.org/ontology/Species
p107
aVhttp://umbel.org/umbel/rc/Cycad
p108
aVhttp://dbpedia.org/class/yago/NearThreatenedPlants
p109
aVhttp://dbpedia.org/class/yago/PhysicalEntity100001930
p110
aVhttp://dbpedia.org/resource/Zamia_neurophyllidia
tp111
aa(lp112
((lp113
Vhttp://dbpedia.org/class/yago/LivingThing100004258
p114
aVhttp://dbpedia.org/class/yago/Object100002684
p115
aVhttp://dbpedia.org/class/yago/Organism100004475
p116
aVhttp://dbpedia.org/class/yago/Plant100017222
p117
aVhttp://dbpedia.org/class/yago/Whole100003553
p118
aVhttp://www.w3.org/2002/07/owl#Thing
p119
aVhttp://www.wikidata.org/entity/Q19088
p120
aVhttp://www.wikidata.org/entity/Q756
p121
aVhttp://dbpedia.org/ontology/Cycad
p122
aVhttp://dbpedia.org/ontology/Eukaryote
p123
aVhttp://dbpedia.org/ontology/Plant
p124
aVhttp://dbpedia.org/ontology/Species
p125
aVhttp://umbel.org/umbel/rc/Cycad
p126
aVhttp://dbpedia.org/class/yago/CriticallyEndangeredPlants
p127
aVhttp://dbpedia.org/class/yago/PhysicalEntity100001930
p128
aVhttp://dbpedia.org/resource/Zamia_picta
tp129
aa(lp130
((lp131
Vhttp://dbpedia.org/class/yago/LivingThing100004258
p132
aVhttp://dbpedia.org/class/yago/Object100002684
p133
aVhttp://dbpedia.org/class/yago/Organism100004475
p134
aVhttp://dbpedia.org/class/yago/Plant100017222
p135
aVhttp://dbpedia.org/class/yago/Whole100003553
p136
aVhttp://www.w3.org/2002/07/owl#Thing
p137
aVhttp://www.wikidata.org/entity/Q19088
p138
aVhttp://www.wikidata.org/entity/Q756
p139
aVhttp://dbpedia.org/ontology/Cycad
p140
aVhttp://dbpedia.org/ontology/Eukaryote
p141
aVhttp://dbpedia.org/ontology/Plant
p142
aVhttp://dbpedia.org/ontology/Species
p143
aVhttp://umbel.org/umbel/rc/Cycad
p144
aVhttp://dbpedia.org/class/yago/CriticallyEndangeredPlants
p145
aVhttp://dbpedia.org/class/yago/PhysicalEntity100001930
p146
aVhttp://dbpedia.org/resource/Zamia_portoricensis
tp147
aa(lp148
((lp149
Vhttp://dbpedia.org/class/yago/LivingThing100004258
p150
aVhttp://dbpedia.org/class/yago/Object100002684
p151
aVhttp://dbpedia.org/class/yago/Organism100004475
p152
aVhttp://dbpedia.org/class/yago/Plant100017222
p153
aVhttp://dbpedia.org/class/yago/Whole100003553
p154
aVhttp://www.w3.org/2002/07/owl#Thing
p155
aVhttp://www.wikidata.org/entity/Q19088
p156
aVhttp://www.wikidata.org/entity/Q756
p157
aVhttp://dbpedia.org/ontology/Cycad
p158
aVhttp://dbpedia.org/ontology/Eukaryote
p159
aVhttp://dbpedia.org/ontology/Plant
p160
aVhttp://dbpedia.org/ontology/Species
p161
aVhttp://umbel.org/umbel/rc/Cycad
p162
aVhttp://dbpedia.org/class/yago/NearThreatenedPlants
p163
aVhttp://dbpedia.org/class/yago/PhysicalEntity100001930
p164
aVhttp://dbpedia.org/resource/Zamia_pseudomonticola
tp165
aa(lp166
a(lp167
((lp168
Vhttp://dbpedia.org/class/yago/LivingThing100004258
p169
aVhttp://dbpedia.org/class/yago/Object100002684
p170
aVhttp://dbpedia.org/class/yago/Organism100004475
p171
aVhttp://dbpedia.org/class/yago/Plant100017222
p172
aVhttp://dbpedia.org/class/yago/Whole100003553
p173
aVhttp://www.w3.org/2002/07/owl#Thing
p174
aVhttp://www.wikidata.org/entity/Q19088
p175
aVhttp://www.wikidata.org/entity/Q756
p176
aVhttp://dbpedia.org/ontology/Cycad
p177
aVhttp://dbpedia.org/ontology/Eukaryote
p178
aVhttp://dbpedia.org/ontology/Plant
p179
aVhttp://dbpedia.org/ontology/Species
p180
aVhttp://umbel.org/umbel/rc/Cycad
p181
aVhttp://dbpedia.org/class/yago/EndangeredPlants
p182
aVhttp://dbpedia.org/class/yago/PhysicalEntity100001930
p183
aVhttp://dbpedia.org/resource/Zamia_skinneri
tp184
aa(lp185
((lp186
Vhttp://dbpedia.org/class/yago/LivingThing100004258
p187
aVhttp://dbpedia.org/class/yago/Object100002684
p188
aVhttp://dbpedia.org/class/yago/Organism100004475
p189
aVhttp://dbpedia.org/class/yago/Plant100017222
p190
aVhttp://dbpedia.org/class/yago/Whole100003553
p191
aVhttp://www.w3.org/2002/07/owl#Thing
p192
aVhttp://www.wikidata.org/entity/Q19088
p193
aVhttp://www.wikidata.org/entity/Q756
p194
aVhttp://dbpedia.org/ontology/Cycad
p195
aVhttp://dbpedia.org/ontology/Eukaryote
p196
aVhttp://dbpedia.org/ontology/Plant
p197
aVhttp://dbpedia.org/ontology/Species
p198
aVhttp://umbel.org/umbel/rc/Cycad
p199
aVhttp://dbpedia.org/class/yago/CriticallyEndangeredPlants
p200
aVhttp://dbpedia.org/class/yago/PhysicalEntity100001930
p201
aVhttp://dbpedia.org/resource/Zamia_urep
tp202
aa(lp203
((lp204
Vhttp://dbpedia.org/class/yago/LivingThing100004258
p205
aVhttp://dbpedia.org/class/yago/Object100002684
p206
aVhttp://dbpedia.org/class/yago/Organism100004475
p207
aVhttp://dbpedia.org/class/yago/Plant100017222
p208
aVhttp://dbpedia.org/class/yago/Whole100003553
p209
aVhttp://www.w3.org/2002/07/owl#Thing
p210
aVhttp://www.wikidata.org/entity/Q19088
p211
aVhttp://www.wikidata.org/entity/Q756
p212
aVhttp://dbpedia.org/ontology/Cycad
p213
aVhttp://dbpedia.org/ontology/Eukaryote
p214
aVhttp://dbpedia.org/ontology/Plant
p215
aVhttp://dbpedia.org/ontology/Species
p216
aVhttp://umbel.org/umbel/rc/Cycad
p217
aVhttp://dbpedia.org/class/yago/CriticallyEndangeredPlants
p218
aVhttp://dbpedia.org/class/yago/PhysicalEntity100001930
p219
aVhttp://dbpedia.org/resource/Zamia_urep
tp220
aa(lp221
((lp222
Vhttp://dbpedia.org/class/yago/LivingThing100004258
p223
aVhttp://dbpedia.org/class/yago/Object100002684
p224
aVhttp://dbpedia.org/class/yago/Organism100004475
p225
aVhttp://dbpedia.org/class/yago/Plant100017222
p226
aVhttp://dbpedia.org/class/yago/Whole100003553
p227
aVhttp://www.w3.org/2002/07/owl#Thing
p228
aVhttp://www.wikidata.org/entity/Q19088
p229
aVhttp://www.wikidata.org/entity/Q756
p230
aVhttp://dbpedia.org/ontology/Cycad
p231
aVhttp://dbpedia.org/ontology/Eukaryote
p232
aVhttp://dbpedia.org/ontology/Plant
p233
aVhttp://dbpedia.org/ontology/Species
p234
aVhttp://umbel.org/umbel/rc/Cycad
p235
aVhttp://dbpedia.org/class/yago/EndangeredPlants
p236
aVhttp://dbpedia.org/class/yago/PhysicalEntity100001930
p237
aVhttp://dbpedia.org/resource/Zamia_variegata
tp238
aa(lp239
((lp240
Vhttp://dbpedia.org/class/yago/LivingThing100004258
p241
aVhttp://dbpedia.org/class/yago/Object100002684
p242
aVhttp://dbpedia.org/class/yago/Organism100004475
p243
aVhttp://dbpedia.org/class/yago/Plant100017222
p244
aVhttp://dbpedia.org/class/yago/Whole100003553
p245
aVhttp://www.w3.org/2002/07/owl#Thing
p246
aVhttp://www.wikidata.org/entity/Q19088
p247
aVhttp://www.wikidata.org/entity/Q756
p248
aVhttp://dbpedia.org/ontology/Cycad
p249
aVhttp://dbpedia.org/ontology/Eukaryote
p250
aVhttp://dbpedia.org/ontology/Plant
p251
aVhttp://dbpedia.org/ontology/Species
p252
aVhttp://umbel.org/umbel/rc/Cycad
p253
aVhttp://dbpedia.org/class/yago/CriticallyEndangeredPlants
p254
aVhttp://dbpedia.org/class/yago/PhysicalEntity100001930
p255
aVhttp://dbpedia.org/resource/Zamia_vazquezii
tp256
aa(lp257
((lp258
Vhttp://dbpedia.org/class/yago/LivingThing100004258
p259
aVhttp://dbpedia.org/class/yago/Object100002684
p260
aVhttp://dbpedia.org/class/yago/Organism100004475
p261
aVhttp://dbpedia.org/class/yago/Plant100017222
p262
aVhttp://dbpedia.org/class/yago/Whole100003553
p263
aVhttp://www.w3.org/2002/07/owl#Thing
p264
aVhttp://www.wikidata.org/entity/Q19088
p265
aVhttp://www.wikidata.org/entity/Q756
p266
aVhttp://dbpedia.org/ontology/Cycad
p267
aVhttp://dbpedia.org/ontology/Eukaryote
p268
aVhttp://dbpedia.org/ontology/Plant
p269
aVhttp://dbpedia.org/ontology/Species
p270
aVhttp://umbel.org/umbel/rc/Cycad
p271
aVhttp://dbpedia.org/class/yago/NearThreatenedPlants
p272
aVhttp://dbpedia.org/class/yago/PhysicalEntity100001930
p273
aVhttp://dbpedia.org/resource/Zamia_verschaffeltii
tp274
aa(lp275
((lp276
Vhttp://dbpedia.org/class/yago/Area102735688
p277
aVhttp://dbpedia.org/class/yago/Artifact100021939
p278
aVhttp://dbpedia.org/class/yago/Bedroom102821627
p279
aVhttp://dbpedia.org/class/yago/Object100002684
p280
aVhttp://dbpedia.org/class/yago/Room104105893
p281
aVhttp://dbpedia.org/class/yago/Structure104341686
p282
aVhttp://dbpedia.org/class/yago/Whole100003553
p283
aVhttp://dbpedia.org/class/yago/YagoGeoEntity
p284
aVhttp://www.w3.org/2002/07/owl#Thing
p285
aVhttp://www.wikidata.org/entity/Q19088
p286
aVhttp://www.wikidata.org/entity/Q756
p287
aVhttp://dbpedia.org/ontology/Cycad
p288
aVhttp://dbpedia.org/ontology/Eukaryote
p289
aVhttp://dbpedia.org/ontology/Plant
p290
aVhttp://dbpedia.org/ontology/Species
p291
aVhttp://umbel.org/umbel/rc/Cycad
p292
aVhttp://dbpedia.org/class/yago/Child'sRoom103017070
p293
aVhttp://dbpedia.org/class/yago/YagoPermanentlyLocatedEntity
p294
aVhttp://dbpedia.org/class/yago/Nursery103836062
p295
aVhttp://dbpedia.org/class/yago/PhysicalEntity100001930
p296
aVhttp://dbpedia.org/class/yago/VeitchNurseries
p297
aVhttp://dbpedia.org/resource/Zamia_wallisii
tp298
aa(lp299
((lp300
Vhttp://www.w3.org/2002/07/owl#Thing
p301
aVhttp://www.wikidata.org/entity/Q19088
p302
aVhttp://www.wikidata.org/entity/Q756
p303
aVhttp://dbpedia.org/ontology/Cycad
p304
aVhttp://dbpedia.org/ontology/Eukaryote
p305
aVhttp://dbpedia.org/ontology/Plant
p306
aVhttp://dbpedia.org/ontology/Species
p307
aVhttp://dbpedia.org/resource/Cycas_pectinata
p308
tp309
aaa.