ccollections
defaultdict
p1
(c__builtin__
dict
p2
tRp3
I0
(dp4
I1
(lp5
ssI1
(dp6
I1
(lp7
ssI2
(dp8
I1
(lp9
ssI3
(dp10
I1
(lp11
ssI4
(dp12
I1
(lp13
ssI5
(dp14
I1
(lp15
ssI7
(dp16
I1
(lp17
ssI9
(dp18
I1
(lp19
ssI10
(dp20
I1
(lp21
ssI11
(dp22
I1
(lp23
ssI12
(dp24
I1
(lp25
ssI13
(dp26
I1
(lp27
ssI14
(dp28
I1
(lp29
ssI15
(dp30
I1
(lp31
ssI16
(dp32
I1
(lp33
ss.