(lp1
(lp2
(lp3
((lp4
Vhttp://dbpedia.org/class/yago/Abstraction100002137
p5
aVhttp://dbpedia.org/class/yago/Act100030358
p6
aVhttp://dbpedia.org/class/yago/Activity100407535
p7
aVhttp://dbpedia.org/class/yago/Celebration100428000
p8
aVhttp://dbpedia.org/class/yago/Diversion100426928
p9
aVhttp://dbpedia.org/class/yago/Event100029378
p10
aVhttp://dbpedia.org/class/yago/Festival100517728
p11
aVhttp://dbpedia.org/class/yago/FilmFestival100517418
p12
aVhttp://dbpedia.org/class/yago/StudentFilmFestivals
p13
aVhttp://dbpedia.org/class/yago/FilmFestivalsInIsrael
p14
aVhttp://dbpedia.org/class/yago/PsychologicalFeature100023100
p15
aVhttp://dbpedia.org/class/yago/YagoPermanentlyLocatedEntity
p16
aVhttp://dbpedia.org/resource/International_Student_Film_Festival
tp17
aa(lp18
a(lp19
a(lp20
aa(lp21
(lp22
((lp23
Vhttp://www.w3.org/2002/07/owl#Thing
p24
aVhttp://www.ontologydesignpatterns.org/ont/dul/DUL.owl#Event
p25
aVhttp://www.wikidata.org/entity/Q1656682
p26
aVhttp://www.wikidata.org/entity/Q220505
p27
aVhttp://dbpedia.org/ontology/Event
p28
aVhttp://dbpedia.org/ontology/FilmFestival
p29
aVhttp://dbpedia.org/ontology/SocietalEvent
p30
aVhttp://schema.org/Event
p31
aVhttp://schema.org/Festival
p32
aVhttp://dbpedia.org/resource/10th_!f_Istanbul_AFM_International_Independent_Film_Festival
tp33
aa(lp34
a(lp35
a(lp36
aa(lp37
(lp38
((lp39
Vhttp://www.w3.org/2002/07/owl#Thing
p40
aVhttp://www.ontologydesignpatterns.org/ont/dul/DUL.owl#Event
p41
aVhttp://www.wikidata.org/entity/Q1656682
p42
aVhttp://www.wikidata.org/entity/Q220505
p43
aVhttp://dbpedia.org/ontology/Event
p44
aVhttp://dbpedia.org/ontology/FilmFestival
p45
aVhttp://dbpedia.org/ontology/SocietalEvent
p46
aVhttp://schema.org/Event
p47
aVhttp://schema.org/Festival
p48
aVhttp://dbpedia.org/resource/1st_Antalya_Golden_Orange_Film_Festival
tp49
aa(lp50
a(lp51
a(lp52
aa(lp53
(lp54
((lp55
Vhttp://www.w3.org/2002/07/owl#Thing
p56
aVhttp://www.ontologydesignpatterns.org/ont/dul/DUL.owl#Event
p57
aVhttp://www.wikidata.org/entity/Q1656682
p58
aVhttp://www.wikidata.org/entity/Q220505
p59
aVhttp://dbpedia.org/ontology/Event
p60
aVhttp://dbpedia.org/ontology/FilmFestival
p61
aVhttp://dbpedia.org/ontology/SocietalEvent
p62
aVhttp://schema.org/Event
p63
aVhttp://schema.org/Festival
p64
aVhttp://dbpedia.org/resource/16th_Festival_on_Wheels
tp65
aa(lp66
a(lp67
a(lp68
aa(lp69
(lp70
((lp71
Vhttp://www.w3.org/2002/07/owl#Thing
p72
aVhttp://www.ontologydesignpatterns.org/ont/dul/DUL.owl#Event
p73
aVhttp://www.wikidata.org/entity/Q1656682
p74
aVhttp://www.wikidata.org/entity/Q220505
p75
aVhttp://dbpedia.org/ontology/Event
p76
aVhttp://dbpedia.org/ontology/FilmFestival
p77
aVhttp://dbpedia.org/ontology/SocietalEvent
p78
aVhttp://schema.org/Event
p79
aVhttp://schema.org/Festival
p80
aVhttp://dbpedia.org/resource/17th_International_Adana_Golden_Boll_Film_Festival
tp81
aa(lp82
a(lp83
a(lp84
aa(lp85
(lp86
((lp87
Vhttp://www.w3.org/2002/07/owl#Thing
p88
aVhttp://www.ontologydesignpatterns.org/ont/dul/DUL.owl#Event
p89
aVhttp://www.wikidata.org/entity/Q1656682
p90
aVhttp://www.wikidata.org/entity/Q220505
p91
aVhttp://dbpedia.org/ontology/Event
p92
aVhttp://dbpedia.org/ontology/FilmFestival
p93
aVhttp://dbpedia.org/ontology/SocietalEvent
p94
aVhttp://schema.org/Event
p95
aVhttp://schema.org/Festival
p96
aVhttp://dbpedia.org/resource/1st_Antalya_Golden_Orange_Film_Festival
tp97
aa(lp98
a(lp99
a(lp100
aa(lp101
(lp102
((lp103
Vhttp://www.w3.org/2002/07/owl#Thing
p104
aVhttp://www.ontologydesignpatterns.org/ont/dul/DUL.owl#Event
p105
aVhttp://www.wikidata.org/entity/Q1656682
p106
aVhttp://www.wikidata.org/entity/Q220505
p107
aVhttp://dbpedia.org/ontology/Event
p108
aVhttp://dbpedia.org/ontology/FilmFestival
p109
aVhttp://dbpedia.org/ontology/SocietalEvent
p110
aVhttp://schema.org/Event
p111
aVhttp://schema.org/Festival
p112
aVhttp://dbpedia.org/resource/1st_International_Eurasia_Film_Festival
tp113
aa(lp114
a(lp115
a(lp116
aa(lp117
(lp118
((lp119
Vhttp://www.w3.org/2002/07/owl#Thing
p120
aVhttp://www.ontologydesignpatterns.org/ont/dul/DUL.owl#Event
p121
aVhttp://www.wikidata.org/entity/Q1656682
p122
aVhttp://www.wikidata.org/entity/Q220505
p123
aVhttp://dbpedia.org/ontology/Event
p124
aVhttp://dbpedia.org/ontology/FilmFestival
p125
aVhttp://dbpedia.org/ontology/SocietalEvent
p126
aVhttp://schema.org/Event
p127
aVhttp://schema.org/Festival
p128
aVhttp://dbpedia.org/resource/2010_Havana_Film_Festival
tp129
aa(lp130
a(lp131
a(lp132
aa(lp133
(lp134
a(lp135
a(lp136
a(lp137
aa(lp138
(lp139
a(lp140
a(lp141
a(lp142
aa(lp143
(lp144
((lVhttp://dbpedia.org/resource/2012_Slamdance_Film_Festival
tp145
aa(lp146
a(lp147
a(lp148
aa(lp149
(lp150
a(lp151
a(lp152
a(lp153
aa(lp154
(lp155
a(lp156
a(lp157
a(lp158
aa(lp159
(lp160
((lp161
Vhttp://www.w3.org/2002/07/owl#Thing
p162
aVhttp://www.ontologydesignpatterns.org/ont/dul/DUL.owl#Event
p163
aVhttp://www.wikidata.org/entity/Q1656682
p164
aVhttp://www.wikidata.org/entity/Q220505
p165
aVhttp://dbpedia.org/ontology/Event
p166
aVhttp://dbpedia.org/ontology/FilmFestival
p167
aVhttp://dbpedia.org/ontology/SocietalEvent
p168
aVhttp://schema.org/Event
p169
aVhttp://schema.org/Festival
p170
aVhttp://dbpedia.org/resource/22nd_Ankara_International_Film_Festival
tp171
aa(lp172
a(lp173
a(lp174
aa(lp175
(lp176
((lp177
Vhttp://www.w3.org/2002/07/owl#Thing
p178
aVhttp://www.ontologydesignpatterns.org/ont/dul/DUL.owl#Event
p179
aVhttp://www.wikidata.org/entity/Q1656682
p180
aVhttp://www.wikidata.org/entity/Q220505
p181
aVhttp://dbpedia.org/ontology/Event
p182
aVhttp://dbpedia.org/ontology/FilmFestival
p183
aVhttp://dbpedia.org/ontology/SocietalEvent
p184
aVhttp://schema.org/Event
p185
aVhttp://schema.org/Festival
p186
aVhttp://dbpedia.org/resource/1st_Antalya_Golden_Orange_Film_Festival
tp187
aa(lp188
a(lp189
a(lp190
aa(lp191
(lp192
((lp193
Vhttp://www.w3.org/2002/07/owl#Thing
p194
aVhttp://www.ontologydesignpatterns.org/ont/dul/DUL.owl#Event
p195
aVhttp://www.wikidata.org/entity/Q1656682
p196
aVhttp://www.wikidata.org/entity/Q220505
p197
aVhttp://dbpedia.org/ontology/Event
p198
aVhttp://dbpedia.org/ontology/FilmFestival
p199
aVhttp://dbpedia.org/ontology/SocietalEvent
p200
aVhttp://schema.org/Event
p201
aVhttp://schema.org/Festival
p202
aVhttp://dbpedia.org/resource/1st_International_Eurasia_Film_Festival
tp203
aa(lp204
a(lp205
a(lp206
aa(lp207
(lp208
((lp209
Vhttp://www.w3.org/2002/07/owl#Thing
p210
aVhttp://www.ontologydesignpatterns.org/ont/dul/DUL.owl#Event
p211
aVhttp://www.wikidata.org/entity/Q1656682
p212
aVhttp://www.wikidata.org/entity/Q220505
p213
aVhttp://dbpedia.org/ontology/Event
p214
aVhttp://dbpedia.org/ontology/FilmFestival
p215
aVhttp://dbpedia.org/ontology/SocietalEvent
p216
aVhttp://schema.org/Event
p217
aVhttp://schema.org/Festival
p218
aVhttp://dbpedia.org/resource/29th_International_Istanbul_Film_Festival
tp219
aa(lp220
a(lp221
a(lp222
aa(lp223
(lp224
((lp225
Vhttp://dbpedia.org/class/yago/Abstraction100002137
p226
aVhttp://dbpedia.org/class/yago/Act100030358
p227
aVhttp://dbpedia.org/class/yago/Activity100407535
p228
aVhttp://dbpedia.org/class/yago/AnnualEventsInGermany
p229
aVhttp://dbpedia.org/class/yago/Celebration100428000
p230
aVhttp://dbpedia.org/class/yago/Diversion100426928
p231
aVhttp://dbpedia.org/class/yago/Event100029378
p232
aVhttp://dbpedia.org/class/yago/Festival100517728
p233
aVhttp://dbpedia.org/class/yago/FilmFestival100517418
p234
aVhttp://dbpedia.org/class/yago/RecurringEventsEstablishedIn1951
p235
aVhttp://www.w3.org/2002/07/owl#Thing
p236
aVhttp://www.ontologydesignpatterns.org/ont/dul/DUL.owl#Event
p237
aVhttp://www.wikidata.org/entity/Q1656682
p238
aVhttp://www.wikidata.org/entity/Q220505
p239
aVhttp://dbpedia.org/ontology/Event
p240
aVhttp://dbpedia.org/ontology/FilmFestival
p241
aVhttp://dbpedia.org/ontology/SocietalEvent
p242
aVhttp://schema.org/Event
p243
aVhttp://schema.org/Festival
p244
aVhttp://umbel.org/umbel/rc/Event
p245
aVhttp://umbel.org/umbel/rc/Festival
p246
aVhttp://dbpedia.org/class/yago/FebruaryEvents
p247
aVhttp://dbpedia.org/class/yago/FilmFestivalsInGermany
p248
aVhttp://dbpedia.org/class/yago/PsychologicalFeature100023100
p249
aVhttp://dbpedia.org/class/yago/YagoPermanentlyLocatedEntity
p250
aVhttp://dbpedia.org/resource/Berlin_International_Film_Festival
tp251
aa(lp252
a(lp253
a(lp254
aa(lp255
(lp256
((lp257
Vhttp://dbpedia.org/class/yago/Abstraction100002137
p258
aVhttp://dbpedia.org/class/yago/Act100030358
p259
aVhttp://dbpedia.org/class/yago/Activity100407535
p260
aVhttp://dbpedia.org/class/yago/AnnualEventsInGermany
p261
aVhttp://dbpedia.org/class/yago/Celebration100428000
p262
aVhttp://dbpedia.org/class/yago/Diversion100426928
p263
aVhttp://dbpedia.org/class/yago/Event100029378
p264
aVhttp://dbpedia.org/class/yago/Festival100517728
p265
aVhttp://dbpedia.org/class/yago/FilmFestival100517418
p266
aVhttp://dbpedia.org/class/yago/RecurringEventsEstablishedIn1951
p267
aVhttp://www.w3.org/2002/07/owl#Thing
p268
aVhttp://www.ontologydesignpatterns.org/ont/dul/DUL.owl#Event
p269
aVhttp://www.wikidata.org/entity/Q1656682
p270
aVhttp://www.wikidata.org/entity/Q220505
p271
aVhttp://dbpedia.org/ontology/Event
p272
aVhttp://dbpedia.org/ontology/FilmFestival
p273
aVhttp://dbpedia.org/ontology/SocietalEvent
p274
aVhttp://schema.org/Event
p275
aVhttp://schema.org/Festival
p276
aVhttp://umbel.org/umbel/rc/Event
p277
aVhttp://umbel.org/umbel/rc/Festival
p278
aVhttp://dbpedia.org/class/yago/FebruaryEvents
p279
aVhttp://dbpedia.org/class/yago/FilmFestivalsInGermany
p280
aVhttp://dbpedia.org/class/yago/PsychologicalFeature100023100
p281
aVhttp://dbpedia.org/class/yago/YagoPermanentlyLocatedEntity
p282
aVhttp://dbpedia.org/resource/Berlin_International_Film_Festival
p283
tp284
aa(lp285
a(lp286
a(lp287
aa.