(lp1
(lp2
(lp3
((lp4
Vhttp://dbpedia.org/class/yago/Adult109605289
p5
aVhttp://dbpedia.org/class/yago/AmericanLiteraryCritics
p6
aVhttp://dbpedia.org/class/yago/CausalAgent100007347
p7
aVhttp://dbpedia.org/class/yago/Critic109979589
p8
aVhttp://dbpedia.org/class/yago/LiteraryCritic110266016
p9
aVhttp://dbpedia.org/class/yago/LivingThing100004258
p10
aVhttp://dbpedia.org/class/yago/Object100002684
p11
aVhttp://dbpedia.org/class/yago/Organism100004475
p12
aVhttp://dbpedia.org/class/yago/Person100007846
p13
aVhttp://dbpedia.org/class/yago/Professional110480253
p14
aVhttp://dbpedia.org/class/yago/Whole100003553
p15
aVhttp://dbpedia.org/class/yago/YagoLegalActorGeo
p16
aVhttp://www.w3.org/2002/07/owl#Thing
p17
aVhttp://xmlns.com/foaf/0.1/Person
p18
aVhttp://dbpedia.org/ontology/Person
p19
aVhttp://www.ontologydesignpatterns.org/ont/dul/DUL.owl#Agent
p20
aVhttp://www.ontologydesignpatterns.org/ont/dul/DUL.owl#NaturalPerson
p21
aVhttp://www.wikidata.org/entity/Q1930187
p22
aVhttp://www.wikidata.org/entity/Q215627
p23
aVhttp://www.wikidata.org/entity/Q5
p24
aVhttp://dbpedia.org/ontology/Agent
p25
aVhttp://dbpedia.org/ontology/Journalist
p26
aVhttp://schema.org/Person
p27
aVhttp://dbpedia.org/class/yago/YagoLegalActor
p28
aVhttp://dbpedia.org/class/yago/PhysicalEntity100001930
p29
aVhttp://dbpedia.org/resource/W._C._Brownell
tp30
aa(lp31
((lp32
Vhttp://dbpedia.org/class/yago/AnglophoneQuebecPeople
p33
aVhttp://dbpedia.org/class/yago/CanadianTelevisionJournalists
p34
aVhttp://dbpedia.org/class/yago/CanadianTelevisionReportersAndCorrespondents
p35
aVhttp://dbpedia.org/class/yago/CanadianWomenJournalists
p36
aVhttp://dbpedia.org/class/yago/CausalAgent100007347
p37
aVhttp://dbpedia.org/class/yago/Communicator109610660
p38
aVhttp://dbpedia.org/class/yago/Journalist110224578
p39
aVhttp://dbpedia.org/class/yago/LivingThing100004258
p40
aVhttp://dbpedia.org/class/yago/Object100002684
p41
aVhttp://dbpedia.org/class/yago/Organism100004475
p42
aVhttp://dbpedia.org/class/yago/Person100007846
p43
aVhttp://dbpedia.org/class/yago/Reporter110521662
p44
aVhttp://dbpedia.org/class/yago/TelevisionReporter110698368
p45
aVhttp://dbpedia.org/class/yago/Whole100003553
p46
aVhttp://dbpedia.org/class/yago/Writer110794014
p47
aVhttp://dbpedia.org/class/yago/YagoLegalActorGeo
p48
aVhttp://www.w3.org/2002/07/owl#Thing
p49
aVhttp://xmlns.com/foaf/0.1/Person
p50
aVhttp://dbpedia.org/ontology/Person
p51
aVhttp://www.ontologydesignpatterns.org/ont/dul/DUL.owl#Agent
p52
aVhttp://www.ontologydesignpatterns.org/ont/dul/DUL.owl#NaturalPerson
p53
aVhttp://www.wikidata.org/entity/Q1930187
p54
aVhttp://www.wikidata.org/entity/Q215627
p55
aVhttp://www.wikidata.org/entity/Q5
p56
aVhttp://dbpedia.org/ontology/Agent
p57
aVhttp://dbpedia.org/ontology/Journalist
p58
aVhttp://schema.org/Person
p59
aVhttp://dbpedia.org/class/yago/PeopleFromMontreal
p60
aVhttp://dbpedia.org/class/yago/YagoLegalActor
p61
aVhttp://dbpedia.org/class/yago/LivingPeople
p62
aVhttp://dbpedia.org/class/yago/PhysicalEntity100001930
p63
aVhttp://dbpedia.org/resource/Wendy_Mesley
tp64
aa(lp65
((lp66
Vhttp://dbpedia.org/class/yago/AmericanPokerPlayers
p67
aVhttp://dbpedia.org/class/yago/CausalAgent100007347
p68
aVhttp://dbpedia.org/class/yago/Contestant109613191
p69
aVhttp://dbpedia.org/class/yago/LivingThing100004258
p70
aVhttp://dbpedia.org/class/yago/Object100002684
p71
aVhttp://dbpedia.org/class/yago/Organism100004475
p72
aVhttp://dbpedia.org/class/yago/Person100007846
p73
aVhttp://dbpedia.org/class/yago/Player110439851
p74
aVhttp://dbpedia.org/class/yago/Whole100003553
p75
aVhttp://dbpedia.org/class/yago/YagoLegalActorGeo
p76
aVhttp://www.w3.org/2002/07/owl#Thing
p77
aVhttp://xmlns.com/foaf/0.1/Person
p78
aVhttp://dbpedia.org/ontology/Person
p79
aVhttp://www.ontologydesignpatterns.org/ont/dul/DUL.owl#Agent
p80
aVhttp://www.ontologydesignpatterns.org/ont/dul/DUL.owl#NaturalPerson
p81
aVhttp://www.wikidata.org/entity/Q215627
p82
aVhttp://www.wikidata.org/entity/Q5
p83
aVhttp://dbpedia.org/ontology/Agent
p84
aVhttp://dbpedia.org/ontology/Athlete
p85
aVhttp://dbpedia.org/ontology/PokerPlayer
p86
aVhttp://schema.org/Person
p87
aVhttp://umbel.org/umbel/rc/PersonWithOccupation
p88
aVhttp://dbpedia.org/class/yago/PeopleFromSilverSpring,Maryland
p89
aVhttp://dbpedia.org/class/yago/YagoLegalActor
p90
aVhttp://dbpedia.org/class/yago/LivingPeople
p91
aVhttp://dbpedia.org/class/yago/PhysicalEntity100001930
p92
aVhttp://dbpedia.org/resource/Brock_Parker
tp93
aa(lp94
((lp95
Vhttp://dbpedia.org/class/yago/CausalAgent100007347
p96
aVhttp://dbpedia.org/class/yago/Communicator109610660
p97
aVhttp://dbpedia.org/class/yago/Journalist110224578
p98
aVhttp://dbpedia.org/class/yago/LivingThing100004258
p99
aVhttp://dbpedia.org/class/yago/Object100002684
p100
aVhttp://dbpedia.org/class/yago/Organism100004475
p101
aVhttp://dbpedia.org/class/yago/Person100007846
p102
aVhttp://dbpedia.org/class/yago/Whole100003553
p103
aVhttp://dbpedia.org/class/yago/Writer110794014
p104
aVhttp://dbpedia.org/class/yago/YagoLegalActorGeo
p105
aVhttp://www.w3.org/2002/07/owl#Thing
p106
aVhttp://xmlns.com/foaf/0.1/Person
p107
aVhttp://dbpedia.org/ontology/Person
p108
aVhttp://www.ontologydesignpatterns.org/ont/dul/DUL.owl#Agent
p109
aVhttp://www.ontologydesignpatterns.org/ont/dul/DUL.owl#NaturalPerson
p110
aVhttp://www.wikidata.org/entity/Q1930187
p111
aVhttp://www.wikidata.org/entity/Q215627
p112
aVhttp://www.wikidata.org/entity/Q5
p113
aVhttp://dbpedia.org/ontology/Agent
p114
aVhttp://dbpedia.org/ontology/Journalist
p115
aVhttp://schema.org/Person
p116
aVhttp://dbpedia.org/class/yago/DailyMailJournalists
p117
aVhttp://dbpedia.org/class/yago/YagoLegalActor
p118
aVhttp://dbpedia.org/class/yago/PhysicalEntity100001930
p119
aVhttp://dbpedia.org/resource/Clement_Crabbe
tp120
aa(lp121
((lp122
Vhttp://dbpedia.org/class/yago/Alumnus109786338
p123
aVhttp://dbpedia.org/class/yago/AmericanColumnists
p124
aVhttp://dbpedia.org/class/yago/AmericanEconomicsWriters
p125
aVhttp://dbpedia.org/class/yago/CausalAgent100007347
p126
aVhttp://dbpedia.org/class/yago/Columnist109939154
p127
aVhttp://dbpedia.org/class/yago/Communicator109610660
p128
aVhttp://dbpedia.org/class/yago/Intellectual109621545
p129
aVhttp://dbpedia.org/class/yago/Journalist110224578
p130
aVhttp://dbpedia.org/class/yago/LivingThing100004258
p131
aVhttp://dbpedia.org/class/yago/Object100002684
p132
aVhttp://dbpedia.org/class/yago/Organism100004475
p133
aVhttp://dbpedia.org/class/yago/Person100007846
p134
aVhttp://dbpedia.org/class/yago/Scholar110557854
p135
aVhttp://dbpedia.org/class/yago/Whole100003553
p136
aVhttp://dbpedia.org/class/yago/Writer110794014
p137
aVhttp://dbpedia.org/class/yago/YagoLegalActorGeo
p138
aVhttp://www.w3.org/2002/07/owl#Thing
p139
aVhttp://xmlns.com/foaf/0.1/Person
p140
aVhttp://dbpedia.org/ontology/Person
p141
aVhttp://www.ontologydesignpatterns.org/ont/dul/DUL.owl#Agent
p142
aVhttp://www.ontologydesignpatterns.org/ont/dul/DUL.owl#NaturalPerson
p143
aVhttp://www.wikidata.org/entity/Q1930187
p144
aVhttp://www.wikidata.org/entity/Q215627
p145
aVhttp://www.wikidata.org/entity/Q5
p146
aVhttp://dbpedia.org/ontology/Agent
p147
aVhttp://dbpedia.org/ontology/Journalist
p148
aVhttp://schema.org/Person
p149
aVhttp://dbpedia.org/class/yago/ColumbiaBusinessSchoolAlumni
p150
aVhttp://dbpedia.org/class/yago/YagoLegalActor
p151
aVhttp://dbpedia.org/class/yago/InternationalHeraldTribunePeople
p152
aVhttp://dbpedia.org/class/yago/LivingPeople
p153
aVhttp://dbpedia.org/class/yago/PhysicalEntity100001930
p154
aVhttp://dbpedia.org/class/yago/TheNewYorkTimesColumnists
p155
aVhttp://dbpedia.org/class/yago/TheNewYorkTimesWriters
p156
aVhttp://dbpedia.org/resource/Floyd_Norris
tp157
aa(lp158
((lp159
Vhttp://www.w3.org/2002/07/owl#Thing
p160
aVhttp://xmlns.com/foaf/0.1/Person
p161
aVhttp://dbpedia.org/ontology/Person
p162
aVhttp://www.ontologydesignpatterns.org/ont/dul/DUL.owl#Agent
p163
aVhttp://www.ontologydesignpatterns.org/ont/dul/DUL.owl#NaturalPerson
p164
aVhttp://www.wikidata.org/entity/Q1930187
p165
aVhttp://www.wikidata.org/entity/Q215627
p166
aVhttp://www.wikidata.org/entity/Q5
p167
aVhttp://dbpedia.org/ontology/Agent
p168
aVhttp://dbpedia.org/ontology/Journalist
p169
aVhttp://schema.org/Person
p170
aVhttp://dbpedia.org/resource/George_H._Clements
tp171
aa(lp172
a(lp173
((lp174
Vhttp://dbpedia.org/class/yago/AlumniOfStJohn'sCollege,Oxford
p175
aVhttp://dbpedia.org/class/yago/Alumnus109786338
p176
aVhttp://dbpedia.org/class/yago/BritishJournalists
p177
aVhttp://dbpedia.org/class/yago/BritishTranslators
p178
aVhttp://dbpedia.org/class/yago/CausalAgent100007347
p179
aVhttp://dbpedia.org/class/yago/Communicator109610660
p180
aVhttp://dbpedia.org/class/yago/Intellectual109621545
p181
aVhttp://dbpedia.org/class/yago/Journalist110224578
p182
aVhttp://dbpedia.org/class/yago/Linguist110264219
p183
aVhttp://dbpedia.org/class/yago/LivingThing100004258
p184
aVhttp://dbpedia.org/class/yago/Object100002684
p185
aVhttp://dbpedia.org/class/yago/Organism100004475
p186
aVhttp://dbpedia.org/class/yago/Person100007846
p187
aVhttp://dbpedia.org/class/yago/Scholar110557854
p188
aVhttp://dbpedia.org/class/yago/Translator110725280
p189
aVhttp://dbpedia.org/class/yago/Whole100003553
p190
aVhttp://dbpedia.org/class/yago/Writer110794014
p191
aVhttp://dbpedia.org/class/yago/YagoLegalActorGeo
p192
aVhttp://dbpedia.org/class/yago/Russian%E2%80%93EnglishTranslators
p193
aVhttp://dbpedia.org/class/yago/Spanish%E2%80%93EnglishTranslators
p194
aVhttp://www.w3.org/2002/07/owl#Thing
p195
aVhttp://xmlns.com/foaf/0.1/Person
p196
aVhttp://dbpedia.org/ontology/Person
p197
aVhttp://www.ontologydesignpatterns.org/ont/dul/DUL.owl#Agent
p198
aVhttp://www.ontologydesignpatterns.org/ont/dul/DUL.owl#NaturalPerson
p199
aVhttp://www.wikidata.org/entity/Q1930187
p200
aVhttp://www.wikidata.org/entity/Q215627
p201
aVhttp://www.wikidata.org/entity/Q5
p202
aVhttp://dbpedia.org/ontology/Agent
p203
aVhttp://dbpedia.org/ontology/Journalist
p204
aVhttp://schema.org/Person
p205
aVhttp://dbpedia.org/class/yago/YagoLegalActor
p206
aVhttp://dbpedia.org/class/yago/German%E2%80%93EnglishTranslators
p207
aVhttp://dbpedia.org/class/yago/PhysicalEntity100001930
p208
aVhttp://dbpedia.org/resource/W._Horsfall_Carter
tp209
aa(lp210
((lp211
Vhttp://dbpedia.org/class/yago/Alumnus109786338
p212
aVhttp://dbpedia.org/class/yago/CanadianJournalists
p213
aVhttp://dbpedia.org/class/yago/CausalAgent100007347
p214
aVhttp://dbpedia.org/class/yago/Communicator109610660
p215
aVhttp://dbpedia.org/class/yago/Intellectual109621545
p216
aVhttp://dbpedia.org/class/yago/Journalist110224578
p217
aVhttp://dbpedia.org/class/yago/LivingThing100004258
p218
aVhttp://dbpedia.org/class/yago/Object100002684
p219
aVhttp://dbpedia.org/class/yago/Organism100004475
p220
aVhttp://dbpedia.org/class/yago/Person100007846
p221
aVhttp://dbpedia.org/class/yago/Scholar110557854
p222
aVhttp://dbpedia.org/class/yago/Whole100003553
p223
aVhttp://dbpedia.org/class/yago/Writer110794014
p224
aVhttp://dbpedia.org/class/yago/YagoLegalActorGeo
p225
aVhttp://www.w3.org/2002/07/owl#Thing
p226
aVhttp://xmlns.com/foaf/0.1/Person
p227
aVhttp://dbpedia.org/ontology/Person
p228
aVhttp://www.ontologydesignpatterns.org/ont/dul/DUL.owl#Agent
p229
aVhttp://www.ontologydesignpatterns.org/ont/dul/DUL.owl#NaturalPerson
p230
aVhttp://www.wikidata.org/entity/Q1930187
p231
aVhttp://www.wikidata.org/entity/Q215627
p232
aVhttp://www.wikidata.org/entity/Q5
p233
aVhttp://dbpedia.org/ontology/Agent
p234
aVhttp://dbpedia.org/ontology/Journalist
p235
aVhttp://schema.org/Person
p236
aVhttp://dbpedia.org/class/yago/YagoLegalActor
p237
aVhttp://dbpedia.org/class/yago/LivingPeople
p238
aVhttp://dbpedia.org/class/yago/PhysicalEntity100001930
p239
aVhttp://dbpedia.org/class/yago/YorkUniversityAlumni
p240
aVhttp://dbpedia.org/resource/Nancy_Durham
tp241
aa(lp242
((lp243
Vhttp://dbpedia.org/class/yago/AnglophoneQuebecPeople
p244
aVhttp://dbpedia.org/class/yago/CanadianJournalists
p245
aVhttp://dbpedia.org/class/yago/CausalAgent100007347
p246
aVhttp://dbpedia.org/class/yago/Communicator109610660
p247
aVhttp://dbpedia.org/class/yago/Journalist110224578
p248
aVhttp://dbpedia.org/class/yago/LivingThing100004258
p249
aVhttp://dbpedia.org/class/yago/Object100002684
p250
aVhttp://dbpedia.org/class/yago/Organism100004475
p251
aVhttp://dbpedia.org/class/yago/Person100007846
p252
aVhttp://dbpedia.org/class/yago/Whole100003553
p253
aVhttp://dbpedia.org/class/yago/Writer110794014
p254
aVhttp://dbpedia.org/class/yago/YagoLegalActorGeo
p255
aVhttp://www.w3.org/2002/07/owl#Thing
p256
aVhttp://xmlns.com/foaf/0.1/Person
p257
aVhttp://dbpedia.org/ontology/Person
p258
aVhttp://www.ontologydesignpatterns.org/ont/dul/DUL.owl#Agent
p259
aVhttp://www.ontologydesignpatterns.org/ont/dul/DUL.owl#NaturalPerson
p260
aVhttp://www.wikidata.org/entity/Q1930187
p261
aVhttp://www.wikidata.org/entity/Q215627
p262
aVhttp://www.wikidata.org/entity/Q5
p263
aVhttp://dbpedia.org/ontology/Agent
p264
aVhttp://dbpedia.org/ontology/Journalist
p265
aVhttp://schema.org/Person
p266
aVhttp://dbpedia.org/class/yago/PeopleFromMontreal
p267
aVhttp://dbpedia.org/class/yago/YagoLegalActor
p268
aVhttp://dbpedia.org/class/yago/LivingPeople
p269
aVhttp://dbpedia.org/class/yago/PhysicalEntity100001930
p270
aVhttp://dbpedia.org/resource/Dane_Lanken
tp271
aa(lp272
((lp273
Vhttp://dbpedia.org/class/yago/CanadianJournalists
p274
aVhttp://dbpedia.org/class/yago/CanadianPeopleOfAmericanDescent
p275
aVhttp://dbpedia.org/class/yago/CausalAgent100007347
p276
aVhttp://dbpedia.org/class/yago/Communicator109610660
p277
aVhttp://dbpedia.org/class/yago/Journalist110224578
p278
aVhttp://dbpedia.org/class/yago/LivingThing100004258
p279
aVhttp://dbpedia.org/class/yago/Object100002684
p280
aVhttp://dbpedia.org/class/yago/Organism100004475
p281
aVhttp://dbpedia.org/class/yago/Person100007846
p282
aVhttp://dbpedia.org/class/yago/Whole100003553
p283
aVhttp://dbpedia.org/class/yago/Writer110794014
p284
aVhttp://dbpedia.org/class/yago/YagoLegalActorGeo
p285
aVhttp://www.w3.org/2002/07/owl#Thing
p286
aVhttp://xmlns.com/foaf/0.1/Person
p287
aVhttp://dbpedia.org/ontology/Person
p288
aVhttp://www.ontologydesignpatterns.org/ont/dul/DUL.owl#Agent
p289
aVhttp://www.ontologydesignpatterns.org/ont/dul/DUL.owl#NaturalPerson
p290
aVhttp://www.wikidata.org/entity/Q1930187
p291
aVhttp://www.wikidata.org/entity/Q215627
p292
aVhttp://www.wikidata.org/entity/Q5
p293
aVhttp://dbpedia.org/ontology/Agent
p294
aVhttp://dbpedia.org/ontology/Journalist
p295
aVhttp://schema.org/Person
p296
aVhttp://dbpedia.org/class/yago/PeopleFromNebraska
p297
aVhttp://dbpedia.org/class/yago/YagoLegalActor
p298
aVhttp://dbpedia.org/class/yago/LivingPeople
p299
aVhttp://dbpedia.org/class/yago/PhysicalEntity100001930
p300
aVhttp://dbpedia.org/resource/Jack_Todd
tp301
aa(lp302
((lp303
Vhttp://dbpedia.org/class/yago/Academician109759069
p304
aVhttp://dbpedia.org/class/yago/AcademicsOfTheUniversityOfHertfordshire
p305
aVhttp://dbpedia.org/class/yago/Adult109605289
p306
aVhttp://dbpedia.org/class/yago/AlumniOfFitzwilliamCollege,Cambridge
p307
aVhttp://dbpedia.org/class/yago/Alumnus109786338
p308
aVhttp://dbpedia.org/class/yago/BritishJournalists
p309
aVhttp://dbpedia.org/class/yago/CausalAgent100007347
p310
aVhttp://dbpedia.org/class/yago/Communicator109610660
p311
aVhttp://dbpedia.org/class/yago/Educator110045713
p312
aVhttp://dbpedia.org/class/yago/Intellectual109621545
p313
aVhttp://dbpedia.org/class/yago/Journalist110224578
p314
aVhttp://dbpedia.org/class/yago/LivingThing100004258
p315
aVhttp://dbpedia.org/class/yago/Object100002684
p316
aVhttp://dbpedia.org/class/yago/Organism100004475
p317
aVhttp://dbpedia.org/class/yago/Person100007846
p318
aVhttp://dbpedia.org/class/yago/Professional110480253
p319
aVhttp://dbpedia.org/class/yago/Scholar110557854
p320
aVhttp://dbpedia.org/class/yago/Whole100003553
p321
aVhttp://dbpedia.org/class/yago/Writer110794014
p322
aVhttp://dbpedia.org/class/yago/YagoLegalActorGeo
p323
aVhttp://www.w3.org/2002/07/owl#Thing
p324
aVhttp://xmlns.com/foaf/0.1/Person
p325
aVhttp://dbpedia.org/ontology/Person
p326
aVhttp://www.ontologydesignpatterns.org/ont/dul/DUL.owl#Agent
p327
aVhttp://www.ontologydesignpatterns.org/ont/dul/DUL.owl#NaturalPerson
p328
aVhttp://www.wikidata.org/entity/Q1930187
p329
aVhttp://www.wikidata.org/entity/Q215627
p330
aVhttp://www.wikidata.org/entity/Q5
p331
aVhttp://dbpedia.org/ontology/Agent
p332
aVhttp://dbpedia.org/ontology/Journalist
p333
aVhttp://schema.org/Person
p334
aVhttp://dbpedia.org/class/yago/PeopleEducatedAtStAlbansSchool,Hertfordshire
p335
aVhttp://dbpedia.org/class/yago/YagoLegalActor
p336
aVhttp://dbpedia.org/class/yago/LivingPeople
p337
aVhttp://dbpedia.org/class/yago/PhysicalEntity100001930
p338
aVhttp://dbpedia.org/class/yago/TheGuardianJournalists
p339
aVhttp://dbpedia.org/resource/Larry_Elliott
tp340
aa(lp341
((lp342
Vhttp://dbpedia.org/class/yago/CausalAgent100007347
p343
aVhttp://dbpedia.org/class/yago/LivingThing100004258
p344
aVhttp://dbpedia.org/class/yago/Object100002684
p345
aVhttp://dbpedia.org/class/yago/Organism100004475
p346
aVhttp://dbpedia.org/class/yago/Person100007846
p347
aVhttp://dbpedia.org/class/yago/Whole100003553
p348
aVhttp://dbpedia.org/class/yago/YagoLegalActorGeo
p349
aVhttp://www.w3.org/2002/07/owl#Thing
p350
aVhttp://xmlns.com/foaf/0.1/Person
p351
aVhttp://dbpedia.org/ontology/Person
p352
aVhttp://www.ontologydesignpatterns.org/ont/dul/DUL.owl#Agent
p353
aVhttp://www.ontologydesignpatterns.org/ont/dul/DUL.owl#NaturalPerson
p354
aVhttp://www.wikidata.org/entity/Q1930187
p355
aVhttp://www.wikidata.org/entity/Q215627
p356
aVhttp://www.wikidata.org/entity/Q5
p357
aVhttp://dbpedia.org/ontology/Agent
p358
aVhttp://dbpedia.org/ontology/Journalist
p359
aVhttp://schema.org/Person
p360
aVhttp://dbpedia.org/class/yago/YagoLegalActor
p361
aVhttp://dbpedia.org/class/yago/LivingPeople
p362
aVhttp://dbpedia.org/class/yago/PhysicalEntity100001930
p363
aVhttp://dbpedia.org/resource/Chris_Allbritton
tp364
aa(lp365
((lp366
Vhttp://dbpedia.org/class/yago/BritishJournalists
p367
aVhttp://dbpedia.org/class/yago/CausalAgent100007347
p368
aVhttp://dbpedia.org/class/yago/Communicator109610660
p369
aVhttp://dbpedia.org/class/yago/Journalist110224578
p370
aVhttp://dbpedia.org/class/yago/LivingThing100004258
p371
aVhttp://dbpedia.org/class/yago/Object100002684
p372
aVhttp://dbpedia.org/class/yago/Organism100004475
p373
aVhttp://dbpedia.org/class/yago/Person100007846
p374
aVhttp://dbpedia.org/class/yago/Whole100003553
p375
aVhttp://dbpedia.org/class/yago/Writer110794014
p376
aVhttp://dbpedia.org/class/yago/YagoLegalActorGeo
p377
aVhttp://www.w3.org/2002/07/owl#Thing
p378
aVhttp://xmlns.com/foaf/0.1/Person
p379
aVhttp://dbpedia.org/ontology/Person
p380
aVhttp://www.ontologydesignpatterns.org/ont/dul/DUL.owl#Agent
p381
aVhttp://www.ontologydesignpatterns.org/ont/dul/DUL.owl#NaturalPerson
p382
aVhttp://www.wikidata.org/entity/Q1930187
p383
aVhttp://www.wikidata.org/entity/Q215627
p384
aVhttp://www.wikidata.org/entity/Q5
p385
aVhttp://dbpedia.org/ontology/Agent
p386
aVhttp://dbpedia.org/ontology/Journalist
p387
aVhttp://schema.org/Person
p388
aVhttp://dbpedia.org/class/yago/DailyExpressPeople
p389
aVhttp://dbpedia.org/class/yago/YagoLegalActor
p390
aVhttp://dbpedia.org/class/yago/LivingPeople
p391
aVhttp://dbpedia.org/class/yago/PhysicalEntity100001930
p392
aVhttp://dbpedia.org/class/yago/ThePeoplePeople
p393
aVhttp://dbpedia.org/resource/Bob_Edwards_(UK_journalist)
tp394
aa(lp395
((lp396
Vhttp://dbpedia.org/class/yago/AmericanJournalists
p397
aVhttp://dbpedia.org/class/yago/CausalAgent100007347
p398
aVhttp://dbpedia.org/class/yago/Communicator109610660
p399
aVhttp://dbpedia.org/class/yago/Journalist110224578
p400
aVhttp://dbpedia.org/class/yago/LivingThing100004258
p401
aVhttp://dbpedia.org/class/yago/Object100002684
p402
aVhttp://dbpedia.org/class/yago/Organism100004475
p403
aVhttp://dbpedia.org/class/yago/Person100007846
p404
aVhttp://dbpedia.org/class/yago/Whole100003553
p405
aVhttp://dbpedia.org/class/yago/Writer110794014
p406
aVhttp://dbpedia.org/class/yago/YagoLegalActorGeo
p407
aVhttp://www.w3.org/2002/07/owl#Thing
p408
aVhttp://xmlns.com/foaf/0.1/Person
p409
aVhttp://dbpedia.org/ontology/Person
p410
aVhttp://www.ontologydesignpatterns.org/ont/dul/DUL.owl#Agent
p411
aVhttp://www.ontologydesignpatterns.org/ont/dul/DUL.owl#NaturalPerson
p412
aVhttp://www.wikidata.org/entity/Q1930187
p413
aVhttp://www.wikidata.org/entity/Q215627
p414
aVhttp://www.wikidata.org/entity/Q5
p415
aVhttp://dbpedia.org/ontology/Agent
p416
aVhttp://dbpedia.org/ontology/Journalist
p417
aVhttp://schema.org/Person
p418
aVhttp://dbpedia.org/class/yago/YagoLegalActor
p419
aVhttp://dbpedia.org/class/yago/LivingPeople
p420
aVhttp://dbpedia.org/class/yago/PhysicalEntity100001930
p421
aVhttp://dbpedia.org/resource/Ed_Tant
tp422
aa(lp423
((lp424
Vhttp://dbpedia.org/class/yago/CausalAgent100007347
p425
aVhttp://dbpedia.org/class/yago/Columnist109939154
p426
aVhttp://dbpedia.org/class/yago/Communicator109610660
p427
aVhttp://dbpedia.org/class/yago/Journalist110224578
p428
aVhttp://dbpedia.org/class/yago/LivingThing100004258
p429
aVhttp://dbpedia.org/class/yago/Object100002684
p430
aVhttp://dbpedia.org/class/yago/Organism100004475
p431
aVhttp://dbpedia.org/class/yago/Person100007846
p432
aVhttp://dbpedia.org/class/yago/Whole100003553
p433
aVhttp://dbpedia.org/class/yago/Writer110794014
p434
aVhttp://dbpedia.org/class/yago/YagoLegalActorGeo
p435
aVhttp://www.w3.org/2002/07/owl#Thing
p436
aVhttp://xmlns.com/foaf/0.1/Person
p437
aVhttp://dbpedia.org/ontology/Person
p438
aVhttp://www.ontologydesignpatterns.org/ont/dul/DUL.owl#Agent
p439
aVhttp://www.ontologydesignpatterns.org/ont/dul/DUL.owl#NaturalPerson
p440
aVhttp://www.wikidata.org/entity/Q1930187
p441
aVhttp://www.wikidata.org/entity/Q215627
p442
aVhttp://www.wikidata.org/entity/Q5
p443
aVhttp://dbpedia.org/ontology/Agent
p444
aVhttp://dbpedia.org/ontology/Journalist
p445
aVhttp://schema.org/Person
p446
aVhttp://dbpedia.org/class/yago/EnglishColumnists
p447
aVhttp://dbpedia.org/class/yago/EnglishMusicJournalists
p448
aVhttp://dbpedia.org/class/yago/YagoLegalActor
p449
aVhttp://dbpedia.org/class/yago/LivingPeople
p450
aVhttp://dbpedia.org/class/yago/PhysicalEntity100001930
p451
aVhttp://dbpedia.org/class/yago/TheGuardianJournalists
p452
aVhttp://dbpedia.org/resource/Laura_Barton
tp453
aa(lp454
a(lp455
((lp456
Vhttp://dbpedia.org/class/yago/CanadianJournalists
p457
aVhttp://dbpedia.org/class/yago/CanadianSportswriters
p458
aVhttp://dbpedia.org/class/yago/CausalAgent100007347
p459
aVhttp://dbpedia.org/class/yago/Communicator109610660
p460
aVhttp://dbpedia.org/class/yago/Journalist110224578
p461
aVhttp://dbpedia.org/class/yago/LivingThing100004258
p462
aVhttp://dbpedia.org/class/yago/Object100002684
p463
aVhttp://dbpedia.org/class/yago/Organism100004475
p464
aVhttp://dbpedia.org/class/yago/Person100007846
p465
aVhttp://dbpedia.org/class/yago/SportsWriter110640084
p466
aVhttp://dbpedia.org/class/yago/Whole100003553
p467
aVhttp://dbpedia.org/class/yago/Writer110794014
p468
aVhttp://dbpedia.org/class/yago/YagoLegalActorGeo
p469
aVhttp://www.w3.org/2002/07/owl#Thing
p470
aVhttp://xmlns.com/foaf/0.1/Person
p471
aVhttp://dbpedia.org/ontology/Person
p472
aVhttp://www.ontologydesignpatterns.org/ont/dul/DUL.owl#Agent
p473
aVhttp://www.ontologydesignpatterns.org/ont/dul/DUL.owl#NaturalPerson
p474
aVhttp://www.wikidata.org/entity/Q1930187
p475
aVhttp://www.wikidata.org/entity/Q215627
p476
aVhttp://www.wikidata.org/entity/Q5
p477
aVhttp://dbpedia.org/ontology/Agent
p478
aVhttp://dbpedia.org/ontology/Journalist
p479
aVhttp://schema.org/Person
p480
aVhttp://dbpedia.org/class/yago/YagoLegalActor
p481
aVhttp://dbpedia.org/class/yago/LivingPeople
p482
aVhttp://dbpedia.org/class/yago/PhysicalEntity100001930
p483
aVhttp://dbpedia.org/resource/Mark_Spector
tp484
aa(lp485
((lp486
Vhttp://dbpedia.org/class/yago/CausalAgent100007347
p487
aVhttp://dbpedia.org/class/yago/LivingThing100004258
p488
aVhttp://dbpedia.org/class/yago/Object100002684
p489
aVhttp://dbpedia.org/class/yago/Organism100004475
p490
aVhttp://dbpedia.org/class/yago/Person100007846
p491
aVhttp://dbpedia.org/class/yago/Whole100003553
p492
aVhttp://dbpedia.org/class/yago/YagoLegalActorGeo
p493
aVhttp://www.w3.org/2002/07/owl#Thing
p494
aVhttp://xmlns.com/foaf/0.1/Person
p495
aVhttp://dbpedia.org/ontology/Person
p496
aVhttp://www.ontologydesignpatterns.org/ont/dul/DUL.owl#Agent
p497
aVhttp://www.ontologydesignpatterns.org/ont/dul/DUL.owl#NaturalPerson
p498
aVhttp://www.wikidata.org/entity/Q1930187
p499
aVhttp://www.wikidata.org/entity/Q215627
p500
aVhttp://www.wikidata.org/entity/Q5
p501
aVhttp://dbpedia.org/ontology/Agent
p502
aVhttp://dbpedia.org/ontology/Journalist
p503
aVhttp://schema.org/Person
p504
aVhttp://dbpedia.org/class/yago/YagoLegalActor
p505
aVhttp://dbpedia.org/class/yago/LivingPeople
p506
aVhttp://dbpedia.org/class/yago/PhysicalEntity100001930
p507
aVhttp://dbpedia.org/resource/Tony_Bartelme
p508
tp509
aaa.