(lp1
(dp2
I0
(dp3
I0
(lp4
sI1
(lp5
sI2
(lp6
sI3
(lp7
sI4
(lp8
ssI1
(dp9
I0
g5
sI1
(lp10
sI2
(lp11
sI3
(lp12
sI4
(lp13
ssI2
(dp14
I0
g6
sI1
g11
sI2
(lp15
sI3
(lp16
sI4
(lp17
ssI3
(dp18
I0
g7
sI1
g12
sI2
g16
sI3
(lp19
sI4
(lp20
ssI4
(dp21
I0
g8
sI1
g13
sI2
g17
sI3
g20
sI4
(lp22
ssa(dp23
I0
(dp24
I0
(lp25
sI1
(lp26
sI2
(lp27
sI3
(lp28
sI4
(lp29
ssI1
(dp30
I0
g26
sI1
(lp31
sI2
(lp32
sI3
(lp33
sI4
(lp34
ssI2
(dp35
I1
g32
sI2
(lp36
sI3
(lp37
sI4
(lp38
ssI3
(dp39
I1
g33
sI3
(lp40
sI4
(lp41
ssI4
(dp42
I1
g34
sI4
(lp43
ssa(dp44
I0
(dp45
I0
(lp46
sI1
(lp47
sI2
(lp48
sI3
(lp49
sI4
(lp50
ssI1
(dp51
I0
g47
sI1
(lp52
sI2
(lp53
sI3
(lp54
sI4
(lp55
ssI2
(dp56
I0
g48
sI1
g53
sI2
(lp57
sI3
(lp58
sI4
(lp59
ssI3
(dp60
I0
g49
sI1
g54
sI2
g58
sI3
(lp61
sI4
(lp62
ssI4
(dp63
I0
g50
sI1
g55
sI3
g62
sI4
(lp64
ssa(dp65
I0
(dp66
I0
(lp67
sI1
(lp68
sI2
(lp69
sI3
(lp70
sI4
(lp71
ssI1
(dp72
I0
g68
sI1
(lp73
sI2
(lp74
sI3
(lp75
Vhttp://www.w3.org/ns/prov#wasDerivedFrom
p76
asI4
(lp77
ssI2
(dp78
I0
g69
sI1
g74
sI2
(lp79
sI3
(lp80
sI4
(lp81
ssI3
(dp82
I0
g70
sI1
g75
sI2
g80
sI3
(lp83
sI4
(lp84
ssI4
(dp85
I0
g71
sI1
g77
sI3
g84
sI4
(lp86
ssa(dp87
I0
(dp88
I0
(lp89
sI1
(lp90
sI2
(lp91
sI3
(lp92
sI4
(lp93
ssI1
(dp94
I0
g90
sI1
(lp95
sI2
(lp96
sI3
(lp97
Vhttp://www.w3.org/ns/prov#wasDerivedFrom
p98
asI4
(lp99
ssI2
(dp100
I0
g91
sI1
g96
sI2
(lp101
sI3
(lp102
sI4
(lp103
ssI3
(dp104
I0
g92
sI1
g97
sI2
g102
sI3
(lp105
sI4
(lp106
ssI4
(dp107
I0
g93
sI1
g99
sI3
g106
sI4
(lp108
ssa(dp109
I0
(dp110
I0
(lp111
sI1
(lp112
sI2
(lp113
sI3
(lp114
sI4
(lp115
ssI1
(dp116
I0
g112
sI1
(lp117
sI2
(lp118
sI3
(lp119
Vhttp://www.w3.org/ns/prov#wasDerivedFrom
p120
asI4
(lp121
ssI2
(dp122
I0
g113
sI1
g118
sI2
(lp123
sI3
(lp124
sI4
(lp125
ssI3
(dp126
I0
g114
sI1
g119
sI2
g124
sI3
(lp127
sI4
(lp128
ssI4
(dp129
I0
g115
sI1
g121
sI3
g128
sI4
(lp130
ssa(dp131
I0
(dp132
I0
(lp133
sI1
(lp134
sI2
(lp135
sI3
(lp136
sI4
(lp137
ssI1
(dp138
I0
g134
sI1
(lp139
sI2
(lp140
Vhttp://dbpedia.org/ontology/abstract
p141
aVhttp://www.w3.org/2000/01/rdf-schema#comment
p142
asI3
(lp143
Vhttp://www.w3.org/ns/prov#wasDerivedFrom
p144
asI4
(lp145
ssI2
(dp146
I0
g135
sI1
g140
sI2
(lp147
sI3
(lp148
sI4
(lp149
ssI3
(dp150
I0
g136
sI1
g143
sI2
g148
sI3
(lp151
sI4
(lp152
ssI4
(dp153
I0
g137
sI1
g145
sI2
g149
sI3
g152
sI4
(lp154
ssa(dp155
I0
(dp156
I0
(lp157
sI1
(lp158
sI2
(lp159
sI3
(lp160
sI4
(lp161
ssI1
(dp162
I0
g158
sI1
(lp163
sI2
(lp164
sI3
(lp165
Vhttp://www.w3.org/ns/prov#wasDerivedFrom
p166
asI4
(lp167
ssI2
(dp168
I0
g159
sI1
g164
sI2
(lp169
sI3
(lp170
sI4
(lp171
ssI3
(dp172
I0
g160
sI1
g165
sI2
g170
sI3
(lp173
sI4
(lp174
ssI4
(dp175
I0
g161
sI1
g167
sI3
g174
sI4
(lp176
ssa(dp177
I0
(dp178
I0
(lp179
sI1
(lp180
sI2
(lp181
sI3
(lp182
sI4
(lp183
ssI1
(dp184
I0
g180
sI1
(lp185
sI2
(lp186
sI3
(lp187
sI4
(lp188
ssI2
(dp189
I1
g186
sI2
(lp190
sI3
(lp191
sI4
(lp192
ssI3
(dp193
I1
g187
sI3
(lp194
sI4
(lp195
ssI4
(dp196
I1
g188
sI4
(lp197
ssa(dp198
I0
(dp199
I0
(lp200
sI1
(lp201
sI2
(lp202
sI3
(lp203
sI4
(lp204
ssI1
(dp205
I0
g201
sI1
(lp206
sI2
(lp207
sI3
(lp208
sI4
(lp209
ssI2
(dp210
I1
g207
sI2
(lp211
sI3
(lp212
sI4
(lp213
ssI3
(dp214
I1
g208
sI3
(lp215
sI4
(lp216
ssI4
(dp217
I1
g209
sI4
(lp218
ssa(dp219
I0
(dp220
I0
(lp221
sI1
(lp222
sI2
(lp223
sI3
(lp224
sI4
(lp225
ssI1
(dp226
I0
g222
sI1
(lp227
sI2
(lp228
sI3
(lp229
sI4
(lp230
ssI2
(dp231
I1
g228
sI2
(lp232
sI3
(lp233
sI4
(lp234
ssI3
(dp235
I1
g229
sI3
(lp236
sI4
(lp237
ssI4
(dp238
I1
g230
sI4
(lp239
ssa(dp240
I0
(dp241
I0
(lp242
sI1
(lp243
sI2
(lp244
sI3
(lp245
sI4
(lp246
ssI1
(dp247
I0
g243
sI1
(lp248
sI2
(lp249
sI3
(lp250
Vhttp://www.w3.org/ns/prov#wasDerivedFrom
p251
asI4
(lp252
ssI2
(dp253
I0
g244
sI1
g249
sI2
(lp254
sI3
(lp255
sI4
(lp256
ssI3
(dp257
I0
g245
sI1
g250
sI2
g255
sI3
(lp258
sI4
(lp259
ssI4
(dp260
I0
g246
sI1
g252
sI3
g259
sI4
(lp261
ssa(dp262
I0
(dp263
I0
(lp264
sI1
(lp265
sI2
(lp266
sI3
(lp267
sI4
(lp268
ssI1
(dp269
I0
g265
sI1
(lp270
sI2
(lp271
sI3
(lp272
sI4
(lp273
ssI2
(dp274
I1
g271
sI2
(lp275
sI3
(lp276
sI4
(lp277
ssI3
(dp278
I1
g272
sI3
(lp279
sI4
(lp280
ssI4
(dp281
I1
g273
sI4
(lp282
ssa(dp283
I0
(dp284
I0
(lp285
sI1
(lp286
sI2
(lp287
sI3
(lp288
sI4
(lp289
ssI1
(dp290
I0
g286
sI1
(lp291
sI2
(lp292
sI3
(lp293
Vhttp://www.w3.org/ns/prov#wasDerivedFrom
p294
asI4
(lp295
ssI2
(dp296
I0
g287
sI1
g292
sI2
(lp297
sI3
(lp298
sI4
(lp299
ssI3
(dp300
I0
g288
sI1
g293
sI2
g298
sI3
(lp301
sI4
(lp302
ssI4
(dp303
I0
g289
sI1
g295
sI3
g302
sI4
(lp304
ssa(dp305
I0
(dp306
I0
(lp307
sI1
(lp308
sI2
(lp309
sI3
(lp310
sI4
(lp311
ssI1
(dp312
I0
g308
sI1
(lp313
sI2
(lp314
sI3
(lp315
Vhttp://www.w3.org/ns/prov#wasDerivedFrom
p316
asI4
(lp317
ssI2
(dp318
I0
g309
sI1
g314
sI2
(lp319
sI3
(lp320
sI4
(lp321
ssI3
(dp322
I0
g310
sI1
g315
sI2
g320
sI3
(lp323
sI4
(lp324
ssI4
(dp325
I0
g311
sI1
g317
sI3
g324
sI4
(lp326
ssa.