ccollections
defaultdict
p1
(c__builtin__
dict
p2
tRp3
I1
(dp4
I0
(lp5
sI1
(lp6
sI3
(lp7
ssI2
(dp8
I0
(lp9
sI1
(lp10
sI3
(lp11
ssI3
(dp12
I0
(lp13
sI1
(lp14
sI3
(lp15
ssI4
(dp16
I0
(lp17
sI1
(lp18
sI3
(lp19
ssI5
(dp20
I0
(lp21
sI1
(lp22
sI3
(lp23
ssI6
(dp24
I0
(lp25
sI1
(lp26
sI3
(lp27
ssI9
(dp28
I0
(lp29
sI1
(lp30
sI3
(lp31
ssI12
(dp32
I0
(lp33
sI1
(lp34
sI3
(lp35
ssI13
(dp36
I0
(lp37
sI1
(lp38
sI3
(lp39
ssI14
(dp40
I0
(lp41
sI1
(lp42
sI3
(lp43
ssI15
(dp44
I0
(lp45
sI1
(lp46
sI3
(lp47
ssI16
(dp48
I0
(lp49
sI1
(lp50
sI3
(lp51
ssI17
(dp52
I0
(lp53
sI1
(lp54
sI3
(lp55
ssI18
(dp56
I0
(lp57
sI1
(lp58
sI3
(lp59
ss.