(lp1
(lp2
(lp3
a(lp4
a(lp5
a(lp6
a(lp7
aa(lp8
(lp9
a(lp10
a(lp11
a(lp12
a(lp13
aa(lp14
(lp15
a(lp16
a(lp17
a(lp18
a(lp19
aa(lp20
(lp21
a(lp22
a(lp23
a(lp24
a(lp25
aa(lp26
(lp27
a(lp28
a(lp29
a(lp30
a(lp31
aa(lp32
(lp33
a(lp34
a(lp35
a(lp36
a(lp37
aa(lp38
(lp39
a(lp40
a(lp41
a(lp42
a(lp43
aa(lp44
(lp45
a(lp46
a(lp47
a(lp48
a(lp49
aa(lp50
(lp51
a(lp52
a(lp53
a(lp54
a(lp55
aa(lp56
(lp57
((lp58
Vhttp://www.w3.org/2002/07/owl#Thing
p59
aVhttp://xmlns.com/foaf/0.1/Person
p60
aVhttp://dbpedia.org/ontology/Person
p61
aVhttp://www.ontologydesignpatterns.org/ont/dul/DUL.owl#Agent
p62
aVhttp://www.ontologydesignpatterns.org/ont/dul/DUL.owl#NaturalPerson
p63
aVhttp://www.wikidata.org/entity/Q215627
p64
aVhttp://www.wikidata.org/entity/Q5
p65
aVhttp://dbpedia.org/ontology/Agent
p66
aVhttp://dbpedia.org/ontology/Royalty
p67
aVhttp://schema.org/Person
p68
aVhttp://umbel.org/umbel/rc/Monarch_HeadOfState
p69
aVhttp://umbel.org/umbel/rc/PersonWithOccupation
p70
aVhttp://dbpedia.org/class/yago/2nd-centuryRomanEmperors
p71
aVhttp://dbpedia.org/class/yago/3rd-centuryRomanEmperors
p72
aVhttp://dbpedia.org/class/yago/CausalAgent100007347
p73
aVhttp://dbpedia.org/class/yago/Communicator109610660
p74
aVhttp://dbpedia.org/class/yago/Consul109959797
p75
aVhttp://dbpedia.org/class/yago/Diplomat110013927
p76
aVhttp://dbpedia.org/class/yago/Emperor110053004
p77
aVhttp://dbpedia.org/class/yago/HeadOfState110164747
p78
aVhttp://dbpedia.org/class/yago/LivingThing100004258
p79
aVhttp://dbpedia.org/class/yago/Negotiator110351874
p80
aVhttp://dbpedia.org/class/yago/Object100002684
p81
aVhttp://dbpedia.org/class/yago/Official110372373
p82
aVhttp://dbpedia.org/class/yago/Organism100004475
p83
aVhttp://dbpedia.org/class/yago/Person100007846
p84
aVhttp://dbpedia.org/class/yago/Representative110522035
p85
aVhttp://dbpedia.org/class/yago/Ruler110541229
p86
aVhttp://dbpedia.org/class/yago/SkilledWorker110605985
p87
aVhttp://dbpedia.org/class/yago/Sovereign110628644
p88
aVhttp://dbpedia.org/class/yago/Whole100003553
p89
aVhttp://dbpedia.org/class/yago/Worker109632518
p90
aVhttp://dbpedia.org/class/yago/YagoLegalActorGeo
p91
aVhttp://dbpedia.org/class/yago/DeifiedRomanEmperors
p92
aVhttp://dbpedia.org/class/yago/PhysicalEntity100001930
p93
aVhttp://dbpedia.org/class/yago/ImperialRomanConsuls
p94
aVhttp://dbpedia.org/class/yago/YagoLegalActor
p95
aVhttp://dbpedia.org/resource/Septimius_Severus
tp96
aa(lp97
a(lp98
a(lp99
a(lp100
aa(lp101
(lp102
a(lp103
a(lp104
a(lp105
a(lp106
aa(lp107
(lp108
a(lp109
a(lp110
a(lp111
a(lp112
aa(lp113
(lp114
a(lp115
a(lp116
a(lp117
a(lp118
aa(lp119
(lp120
a(lp121
a(lp122
a(lp123
a(lp124
aa(lp125
(lp126
((lp127
Vhttp://www.w3.org/2002/07/owl#Thing
p128
aVhttp://xmlns.com/foaf/0.1/Person
p129
aVhttp://dbpedia.org/ontology/Person
p130
aVhttp://www.ontologydesignpatterns.org/ont/dul/DUL.owl#Agent
p131
aVhttp://www.ontologydesignpatterns.org/ont/dul/DUL.owl#NaturalPerson
p132
aVhttp://www.wikidata.org/entity/Q215627
p133
aVhttp://www.wikidata.org/entity/Q5
p134
aVhttp://dbpedia.org/ontology/Agent
p135
aVhttp://schema.org/Person
p136
aVhttp://umbel.org/umbel/rc/Monarch_HeadOfState
p137
aVhttp://umbel.org/umbel/rc/PersonWithOccupation
p138
aVhttp://dbpedia.org/class/yago/3rd-centuryRomanEmperors
p139
aVhttp://dbpedia.org/class/yago/AncientChildRulers
p140
aVhttp://dbpedia.org/class/yago/CausalAgent100007347
p141
aVhttp://dbpedia.org/class/yago/Communicator109610660
p142
aVhttp://dbpedia.org/class/yago/Consul109959797
p143
aVhttp://dbpedia.org/class/yago/Diplomat110013927
p144
aVhttp://dbpedia.org/class/yago/Emperor110053004
p145
aVhttp://dbpedia.org/class/yago/HeadOfState110164747
p146
aVhttp://dbpedia.org/class/yago/LivingThing100004258
p147
aVhttp://dbpedia.org/class/yago/Negotiator110351874
p148
aVhttp://dbpedia.org/class/yago/Object100002684
p149
aVhttp://dbpedia.org/class/yago/Official110372373
p150
aVhttp://dbpedia.org/class/yago/Organism100004475
p151
aVhttp://dbpedia.org/class/yago/Person100007846
p152
aVhttp://dbpedia.org/class/yago/Representative110522035
p153
aVhttp://dbpedia.org/class/yago/Ruler110541229
p154
aVhttp://dbpedia.org/class/yago/SkilledWorker110605985
p155
aVhttp://dbpedia.org/class/yago/Sovereign110628644
p156
aVhttp://dbpedia.org/class/yago/Whole100003553
p157
aVhttp://dbpedia.org/class/yago/Worker109632518
p158
aVhttp://dbpedia.org/class/yago/YagoLegalActorGeo
p159
aVhttp://dbpedia.org/class/yago/DeifiedRomanEmperors
p160
aVhttp://dbpedia.org/class/yago/PhysicalEntity100001930
p161
aVhttp://dbpedia.org/class/yago/ImperialRomanConsuls
p162
aVhttp://dbpedia.org/class/yago/MurderedRomanEmperors
p163
aVhttp://dbpedia.org/class/yago/PeopleFromHoms
p164
aVhttp://dbpedia.org/class/yago/YagoLegalActor
p165
aVhttp://dbpedia.org/class/yago/SyrianPeople
p166
aVhttp://dbpedia.org/resource/Alexander_Severus
p167
tp168
aa(lp169
a(lp170
a(lp171
a(lp172
aa(lp173
(lp174
a(lp175
a(lp176
a(lp177
a(lp178
aa(lp179
(lp180
a(lp181
a(lp182
a(lp183
a(lp184
aa(lp185
(lp186
a(lp187
a(lp188
a(lp189
a(lp190
aa(lp191
(lp192
a(lp193
a(lp194
a(lp195
a(lp196
aa.