(lp1
(lp2
(lp3
((lp4
Vhttp://www.w3.org/2002/07/owl#Thing
p5
aVhttp://www.wikidata.org/entity/Q19088
p6
aVhttp://www.wikidata.org/entity/Q756
p7
aVhttp://dbpedia.org/ontology/Cycad
p8
aVhttp://dbpedia.org/ontology/Eukaryote
p9
aVhttp://dbpedia.org/ontology/Plant
p10
aVhttp://dbpedia.org/ontology/Species
p11
aVhttp://umbel.org/umbel/rc/Cycad
p12
aVhttp://umbel.org/umbel/rc/BiologicalLivingObject
p13
aVhttp://umbel.org/umbel/rc/EukaryoticCell
p14
aVhttp://umbel.org/umbel/rc/Plant
p15
aVhttp://dbpedia.org/resource/Cycad
tp16
aa(lp17
((lp18
Vhttp://dbpedia.org/class/yago/GardenPlant113083306
p19
aVhttp://dbpedia.org/class/yago/LivingThing100004258
p20
aVhttp://dbpedia.org/class/yago/Object100002684
p21
aVhttp://dbpedia.org/class/yago/Organism100004475
p22
aVhttp://dbpedia.org/class/yago/Plant100017222
p23
aVhttp://dbpedia.org/class/yago/PoisonousPlant113100156
p24
aVhttp://dbpedia.org/class/yago/Whole100003553
p25
aVhttp://www.w3.org/2002/07/owl#Thing
p26
aVhttp://www.wikidata.org/entity/Q19088
p27
aVhttp://www.wikidata.org/entity/Q756
p28
aVhttp://dbpedia.org/ontology/Cycad
p29
aVhttp://dbpedia.org/ontology/Eukaryote
p30
aVhttp://dbpedia.org/ontology/Plant
p31
aVhttp://dbpedia.org/ontology/Species
p32
aVhttp://umbel.org/umbel/rc/Cycad
p33
aVhttp://umbel.org/umbel/rc/BiologicalLivingObject
p34
aVhttp://umbel.org/umbel/rc/EukaryoticCell
p35
aVhttp://umbel.org/umbel/rc/Plant
p36
aVhttp://dbpedia.org/class/yago/NearThreatenedPlants
p37
aVhttp://dbpedia.org/class/yago/PlantsUsedInBonsai
p38
aVhttp://dbpedia.org/class/yago/PoisonousPlants
p39
aVhttp://dbpedia.org/class/yago/GardenPlants
p40
aVhttp://dbpedia.org/class/yago/PhysicalEntity100001930
p41
aVhttp://dbpedia.org/resource/Cycas_revoluta
tp42
aa(lp43
((lp44
Vhttp://www.w3.org/2002/07/owl#Thing
p45
aVhttp://www.wikidata.org/entity/Q19088
p46
aVhttp://www.wikidata.org/entity/Q756
p47
aVhttp://dbpedia.org/ontology/Cycad
p48
aVhttp://dbpedia.org/ontology/Eukaryote
p49
aVhttp://dbpedia.org/ontology/Plant
p50
aVhttp://dbpedia.org/ontology/Species
p51
aVhttp://umbel.org/umbel/rc/Cycad
p52
aVhttp://dbpedia.org/resource/Zamia
tp53
aa(lp54
((lp55
Vhttp://dbpedia.org/class/yago/LivingThing100004258
p56
aVhttp://dbpedia.org/class/yago/Object100002684
p57
aVhttp://dbpedia.org/class/yago/Organism100004475
p58
aVhttp://dbpedia.org/class/yago/Plant100017222
p59
aVhttp://dbpedia.org/class/yago/Whole100003553
p60
aVhttp://www.w3.org/2002/07/owl#Thing
p61
aVhttp://www.wikidata.org/entity/Q19088
p62
aVhttp://www.wikidata.org/entity/Q756
p63
aVhttp://dbpedia.org/ontology/Cycad
p64
aVhttp://dbpedia.org/ontology/Eukaryote
p65
aVhttp://dbpedia.org/ontology/Plant
p66
aVhttp://dbpedia.org/ontology/Species
p67
aVhttp://umbel.org/umbel/rc/Cycad
p68
aVhttp://umbel.org/umbel/rc/BiologicalLivingObject
p69
aVhttp://umbel.org/umbel/rc/EukaryoticCell
p70
aVhttp://umbel.org/umbel/rc/Plant
p71
aVhttp://dbpedia.org/class/yago/PhysicalEntity100001930
p72
aVhttp://dbpedia.org/class/yago/VulnerablePlants
p73
aVhttp://dbpedia.org/resource/Zamia_furfuracea
tp74
aa(lp75
((lp76
Vhttp://dbpedia.org/class/yago/LivingThing100004258
p77
aVhttp://dbpedia.org/class/yago/Object100002684
p78
aVhttp://dbpedia.org/class/yago/Organism100004475
p79
aVhttp://dbpedia.org/class/yago/Plant100017222
p80
aVhttp://dbpedia.org/class/yago/Whole100003553
p81
aVhttp://www.w3.org/2002/07/owl#Thing
p82
aVhttp://www.wikidata.org/entity/Q19088
p83
aVhttp://www.wikidata.org/entity/Q756
p84
aVhttp://dbpedia.org/ontology/Cycad
p85
aVhttp://dbpedia.org/ontology/Eukaryote
p86
aVhttp://dbpedia.org/ontology/Plant
p87
aVhttp://dbpedia.org/ontology/Species
p88
aVhttp://umbel.org/umbel/rc/Cycad
p89
aVhttp://umbel.org/umbel/rc/BiologicalLivingObject
p90
aVhttp://umbel.org/umbel/rc/EukaryoticCell
p91
aVhttp://umbel.org/umbel/rc/Plant
p92
aVhttp://dbpedia.org/class/yago/NearThreatenedPlants
p93
aVhttp://dbpedia.org/class/yago/PhysicalEntity100001930
p94
aVhttp://dbpedia.org/resource/Zamia_integrifolia
tp95
aa(lp96
((lp97
Vhttp://dbpedia.org/class/yago/LivingThing100004258
p98
aVhttp://dbpedia.org/class/yago/Object100002684
p99
aVhttp://dbpedia.org/class/yago/Organism100004475
p100
aVhttp://dbpedia.org/class/yago/Plant100017222
p101
aVhttp://dbpedia.org/class/yago/Whole100003553
p102
aVhttp://www.w3.org/2002/07/owl#Thing
p103
aVhttp://www.wikidata.org/entity/Q19088
p104
aVhttp://www.wikidata.org/entity/Q756
p105
aVhttp://dbpedia.org/ontology/Cycad
p106
aVhttp://dbpedia.org/ontology/Eukaryote
p107
aVhttp://dbpedia.org/ontology/Plant
p108
aVhttp://dbpedia.org/ontology/Species
p109
aVhttp://umbel.org/umbel/rc/Cycad
p110
aVhttp://dbpedia.org/class/yago/NearThreatenedPlants
p111
aVhttp://dbpedia.org/class/yago/PhysicalEntity100001930
p112
aVhttp://dbpedia.org/resource/Zamia_pumila
tp113
aa(lp114
((lp115
Vhttp://dbpedia.org/class/yago/Abstraction100002137
p116
aVhttp://dbpedia.org/class/yago/BiologicalGroup107941170
p117
aVhttp://dbpedia.org/class/yago/Family108107499
p118
aVhttp://dbpedia.org/class/yago/Group100031264
p119
aVhttp://www.w3.org/2002/07/owl#Thing
p120
aVhttp://www.wikidata.org/entity/Q19088
p121
aVhttp://www.wikidata.org/entity/Q756
p122
aVhttp://dbpedia.org/ontology/Cycad
p123
aVhttp://dbpedia.org/ontology/Eukaryote
p124
aVhttp://dbpedia.org/ontology/Plant
p125
aVhttp://dbpedia.org/ontology/Species
p126
aVhttp://umbel.org/umbel/rc/Cycad
p127
aVhttp://dbpedia.org/class/yago/PlantFamilies
p128
aVhttp://dbpedia.org/class/yago/PlantFamily111744583
p129
aVhttp://dbpedia.org/class/yago/TaxonomicGroup107992450
p130
aVhttp://dbpedia.org/resource/Zamiaceae
tp131
aa(lp132
((lp133
Vhttp://dbpedia.org/class/yago/LivingThing100004258
p134
aVhttp://dbpedia.org/class/yago/Object100002684
p135
aVhttp://dbpedia.org/class/yago/Organism100004475
p136
aVhttp://dbpedia.org/class/yago/Plant100017222
p137
aVhttp://dbpedia.org/class/yago/Whole100003553
p138
aVhttp://www.w3.org/2002/07/owl#Thing
p139
aVhttp://www.wikidata.org/entity/Q19088
p140
aVhttp://www.wikidata.org/entity/Q756
p141
aVhttp://dbpedia.org/ontology/Cycad
p142
aVhttp://dbpedia.org/ontology/Eukaryote
p143
aVhttp://dbpedia.org/ontology/Plant
p144
aVhttp://dbpedia.org/ontology/Species
p145
aVhttp://umbel.org/umbel/rc/Cycad
p146
aVhttp://dbpedia.org/class/yago/PlantsDescribedIn1994
p147
aVhttp://dbpedia.org/class/yago/PhysicalEntity100001930
p148
aVhttp://dbpedia.org/resource/Cycas_taitungensis
tp149
aa(lp150
((lp151
Vhttp://dbpedia.org/class/yago/LivingThing100004258
p152
aVhttp://dbpedia.org/class/yago/Object100002684
p153
aVhttp://dbpedia.org/class/yago/Organism100004475
p154
aVhttp://dbpedia.org/class/yago/Plant100017222
p155
aVhttp://dbpedia.org/class/yago/Whole100003553
p156
aVhttp://www.w3.org/2002/07/owl#Thing
p157
aVhttp://www.wikidata.org/entity/Q19088
p158
aVhttp://www.wikidata.org/entity/Q756
p159
aVhttp://dbpedia.org/ontology/Cycad
p160
aVhttp://dbpedia.org/ontology/Eukaryote
p161
aVhttp://dbpedia.org/ontology/Plant
p162
aVhttp://dbpedia.org/ontology/Species
p163
aVhttp://umbel.org/umbel/rc/Cycad
p164
aVhttp://dbpedia.org/class/yago/CriticallyEndangeredPlants
p165
aVhttp://dbpedia.org/class/yago/PlantsDescribedIn1857
p166
aVhttp://dbpedia.org/class/yago/PhysicalEntity100001930
p167
aVhttp://dbpedia.org/resource/Ceratozamia_kuesteriana
tp168
aa(lp169
((lp170
Vhttp://www.w3.org/2002/07/owl#Thing
p171
aVhttp://www.wikidata.org/entity/Q19088
p172
aVhttp://www.wikidata.org/entity/Q756
p173
aVhttp://dbpedia.org/ontology/Cycad
p174
aVhttp://dbpedia.org/ontology/Eukaryote
p175
aVhttp://dbpedia.org/ontology/Plant
p176
aVhttp://dbpedia.org/ontology/Species
p177
aVhttp://umbel.org/umbel/rc/Cycad
p178
aVhttp://dbpedia.org/resource/Ceratozamia
tp179
aa(lp180
((lp181
Vhttp://www.w3.org/2002/07/owl#Thing
p182
aVhttp://www.wikidata.org/entity/Q19088
p183
aVhttp://www.wikidata.org/entity/Q756
p184
aVhttp://dbpedia.org/ontology/Cycad
p185
aVhttp://dbpedia.org/ontology/Eukaryote
p186
aVhttp://dbpedia.org/ontology/Plant
p187
aVhttp://dbpedia.org/ontology/Species
p188
aVhttp://umbel.org/umbel/rc/Cycad
p189
aVhttp://dbpedia.org/resource/Chigua
tp190
aa(lp191
((lp192
Vhttp://dbpedia.org/class/yago/LivingThing100004258
p193
aVhttp://dbpedia.org/class/yago/Object100002684
p194
aVhttp://dbpedia.org/class/yago/Organism100004475
p195
aVhttp://dbpedia.org/class/yago/Plant100017222
p196
aVhttp://dbpedia.org/class/yago/Tree113104059
p197
aVhttp://dbpedia.org/class/yago/VascularPlant113083586
p198
aVhttp://dbpedia.org/class/yago/Whole100003553
p199
aVhttp://dbpedia.org/class/yago/WoodyPlant113103136
p200
aVhttp://www.w3.org/2002/07/owl#Thing
p201
aVhttp://www.wikidata.org/entity/Q19088
p202
aVhttp://www.wikidata.org/entity/Q756
p203
aVhttp://dbpedia.org/ontology/Cycad
p204
aVhttp://dbpedia.org/ontology/Eukaryote
p205
aVhttp://dbpedia.org/ontology/Plant
p206
aVhttp://dbpedia.org/ontology/Species
p207
aVhttp://umbel.org/umbel/rc/Cycad
p208
aVhttp://umbel.org/umbel/rc/Plant
p209
aVhttp://dbpedia.org/class/yago/CriticallyEndangeredPlants
p210
aVhttp://dbpedia.org/class/yago/PhysicalEntity100001930
p211
aVhttp://dbpedia.org/class/yago/TreesOfCuba
p212
aVhttp://dbpedia.org/resource/Microcycas
tp213
aa(lp214
((lp215
Vhttp://dbpedia.org/class/yago/LivingThing100004258
p216
aVhttp://dbpedia.org/class/yago/Object100002684
p217
aVhttp://dbpedia.org/class/yago/Organism100004475
p218
aVhttp://dbpedia.org/class/yago/Plant100017222
p219
aVhttp://dbpedia.org/class/yago/Whole100003553
p220
aVhttp://www.w3.org/2002/07/owl#Thing
p221
aVhttp://www.wikidata.org/entity/Q19088
p222
aVhttp://www.wikidata.org/entity/Q756
p223
aVhttp://dbpedia.org/ontology/Cycad
p224
aVhttp://dbpedia.org/ontology/Eukaryote
p225
aVhttp://dbpedia.org/ontology/Plant
p226
aVhttp://dbpedia.org/ontology/Species
p227
aVhttp://umbel.org/umbel/rc/Cycad
p228
aVhttp://dbpedia.org/class/yago/PhysicalEntity100001930
p229
aVhttp://dbpedia.org/class/yago/VulnerablePlants
p230
aVhttp://dbpedia.org/resource/Ceratozamia_miqueliana
tp231
aa(lp232
((lp233
Vhttp://dbpedia.org/class/yago/LivingThing100004258
p234
aVhttp://dbpedia.org/class/yago/Object100002684
p235
aVhttp://dbpedia.org/class/yago/Organism100004475
p236
aVhttp://dbpedia.org/class/yago/Plant100017222
p237
aVhttp://dbpedia.org/class/yago/Whole100003553
p238
aVhttp://www.w3.org/2002/07/owl#Thing
p239
aVhttp://www.wikidata.org/entity/Q19088
p240
aVhttp://www.wikidata.org/entity/Q756
p241
aVhttp://dbpedia.org/ontology/Cycad
p242
aVhttp://dbpedia.org/ontology/Eukaryote
p243
aVhttp://dbpedia.org/ontology/Plant
p244
aVhttp://dbpedia.org/ontology/Species
p245
aVhttp://umbel.org/umbel/rc/Cycad
p246
aVhttp://dbpedia.org/class/yago/NearThreatenedPlants
p247
aVhttp://dbpedia.org/class/yago/PhysicalEntity100001930
p248
aVhttp://dbpedia.org/resource/Zamia_roezlii
tp249
aa(lp250
((lp251
Vhttp://dbpedia.org/class/yago/LivingThing100004258
p252
aVhttp://dbpedia.org/class/yago/Object100002684
p253
aVhttp://dbpedia.org/class/yago/Organism100004475
p254
aVhttp://dbpedia.org/class/yago/Plant100017222
p255
aVhttp://dbpedia.org/class/yago/Whole100003553
p256
aVhttp://www.w3.org/2002/07/owl#Thing
p257
aVhttp://www.wikidata.org/entity/Q19088
p258
aVhttp://www.wikidata.org/entity/Q756
p259
aVhttp://dbpedia.org/ontology/Cycad
p260
aVhttp://dbpedia.org/ontology/Eukaryote
p261
aVhttp://dbpedia.org/ontology/Plant
p262
aVhttp://dbpedia.org/ontology/Species
p263
aVhttp://umbel.org/umbel/rc/Cycad
p264
aVhttp://dbpedia.org/class/yago/CriticallyEndangeredPlants
p265
aVhttp://dbpedia.org/class/yago/PhysicalEntity100001930
p266
aVhttp://dbpedia.org/resource/Zamia_spartea
tp267
aa(lp268
((lp269
Vhttp://dbpedia.org/class/yago/LivingThing100004258
p270
aVhttp://dbpedia.org/class/yago/Object100002684
p271
aVhttp://dbpedia.org/class/yago/Organism100004475
p272
aVhttp://dbpedia.org/class/yago/Plant100017222
p273
aVhttp://dbpedia.org/class/yago/Whole100003553
p274
aVhttp://www.w3.org/2002/07/owl#Thing
p275
aVhttp://www.wikidata.org/entity/Q19088
p276
aVhttp://www.wikidata.org/entity/Q756
p277
aVhttp://dbpedia.org/ontology/Cycad
p278
aVhttp://dbpedia.org/ontology/Eukaryote
p279
aVhttp://dbpedia.org/ontology/Plant
p280
aVhttp://dbpedia.org/ontology/Species
p281
aVhttp://umbel.org/umbel/rc/Cycad
p282
aVhttp://dbpedia.org/class/yago/PhysicalEntity100001930
p283
aVhttp://dbpedia.org/class/yago/VulnerablePlants
p284
aVhttp://dbpedia.org/resource/Zamia_standleyi
tp285
aa(lp286
((lp287
Vhttp://dbpedia.org/class/yago/LivingThing100004258
p288
aVhttp://dbpedia.org/class/yago/Object100002684
p289
aVhttp://dbpedia.org/class/yago/Organism100004475
p290
aVhttp://dbpedia.org/class/yago/Plant100017222
p291
aVhttp://dbpedia.org/class/yago/Whole100003553
p292
aVhttp://www.w3.org/2002/07/owl#Thing
p293
aVhttp://www.wikidata.org/entity/Q19088
p294
aVhttp://www.wikidata.org/entity/Q756
p295
aVhttp://dbpedia.org/ontology/Cycad
p296
aVhttp://dbpedia.org/ontology/Eukaryote
p297
aVhttp://dbpedia.org/ontology/Plant
p298
aVhttp://dbpedia.org/ontology/Species
p299
aVhttp://umbel.org/umbel/rc/Cycad
p300
aVhttp://dbpedia.org/class/yago/EndangeredPlants
p301
aVhttp://dbpedia.org/class/yago/PhysicalEntity100001930
p302
aVhttp://dbpedia.org/resource/Ceratozamia_whitelockiana
tp303
aa(lp304
((lp305
Vhttp://dbpedia.org/class/yago/LivingThing100004258
p306
aVhttp://dbpedia.org/class/yago/Object100002684
p307
aVhttp://dbpedia.org/class/yago/Organism100004475
p308
aVhttp://dbpedia.org/class/yago/Plant100017222
p309
aVhttp://dbpedia.org/class/yago/Whole100003553
p310
aVhttp://www.w3.org/2002/07/owl#Thing
p311
aVhttp://www.wikidata.org/entity/Q19088
p312
aVhttp://www.wikidata.org/entity/Q756
p313
aVhttp://dbpedia.org/ontology/Cycad
p314
aVhttp://dbpedia.org/ontology/Eukaryote
p315
aVhttp://dbpedia.org/ontology/Plant
p316
aVhttp://dbpedia.org/ontology/Species
p317
aVhttp://umbel.org/umbel/rc/Cycad
p318
aVhttp://dbpedia.org/class/yago/EndangeredPlants
p319
aVhttp://dbpedia.org/class/yago/PhysicalEntity100001930
p320
aVhttp://dbpedia.org/resource/Cycas_micronesica
tp321
aa(lp322
((lp323
Vhttp://www.w3.org/2002/07/owl#Thing
p324
aVhttp://www.wikidata.org/entity/Q19088
p325
aVhttp://www.wikidata.org/entity/Q756
p326
aVhttp://dbpedia.org/ontology/Cycad
p327
aVhttp://dbpedia.org/ontology/Eukaryote
p328
aVhttp://dbpedia.org/ontology/Plant
p329
aVhttp://dbpedia.org/ontology/Species
p330
aVhttp://umbel.org/umbel/rc/Cycad
p331
aVhttp://dbpedia.org/resource/Macrozamia_occidua
p332
tp333
aaa.