(lp1
(lp2
(lp3
((lp4
Vhttp://dbpedia.org/class/yago/Artifact100021939
p5
aVhttp://dbpedia.org/class/yago/Establishment103297735
p6
aVhttp://dbpedia.org/class/yago/Facility103315023
p7
aVhttp://dbpedia.org/class/yago/MercantileEstablishment103748162
p8
aVhttp://dbpedia.org/class/yago/Object100002684
p9
aVhttp://dbpedia.org/class/yago/Station104306080
p10
aVhttp://dbpedia.org/class/yago/Structure104341686
p11
aVhttp://dbpedia.org/class/yago/Whole100003553
p12
aVhttp://dbpedia.org/class/yago/YagoGeoEntity
p13
aVhttp://dbpedia.org/class/yago/ShoppingMallsInMetroVancouver
p14
aVhttp://www.w3.org/2002/07/owl#Thing
p15
aVhttp://dbpedia.org/ontology/Place
p16
aVhttp://dbpedia.org/ontology/Location
p17
aVhttp://www.wikidata.org/entity/Q719456
p18
aVhttp://dbpedia.org/ontology/ArchitecturalStructure
p19
aVhttp://dbpedia.org/ontology/Infrastructure
p20
aVhttp://dbpedia.org/ontology/Station
p21
aVhttp://www.w3.org/2003/01/geo/wgs84_pos#SpatialThing
p22
aVhttp://schema.org/Place
p23
aVhttp://dbpedia.org/class/yago/YagoPermanentlyLocatedEntity
p24
aVhttp://dbpedia.org/class/yago/Plaza103965456
p25
aVhttp://dbpedia.org/class/yago/PhysicalEntity100001930
p26
aVhttp://dbpedia.org/class/yago/PlaceOfBusiness103953020
p27
aVhttp://dbpedia.org/resource/Lonsdale_Quay
tp28
aa(lp29
((lp30
Vhttp://dbpedia.org/class/yago/Abstraction100002137
p31
aVhttp://dbpedia.org/class/yago/Contest107456188
p32
aVhttp://dbpedia.org/class/yago/Event100029378
p33
aVhttp://dbpedia.org/class/yago/Race107458453
p34
aVhttp://dbpedia.org/class/yago/Race107472657
p35
aVhttp://dbpedia.org/class/yago/SocialEvent107288639
p36
aVhttp://www.w3.org/2002/07/owl#Thing
p37
aVhttp://www.ontologydesignpatterns.org/ont/dul/DUL.owl#Event
p38
aVhttp://www.wikidata.org/entity/Q1656682
p39
aVhttp://dbpedia.org/ontology/Event
p40
aVhttp://dbpedia.org/ontology/HorseRace
p41
aVhttp://dbpedia.org/ontology/Race
p42
aVhttp://dbpedia.org/ontology/SocietalEvent
p43
aVhttp://dbpedia.org/ontology/SportsEvent
p44
aVhttp://schema.org/Event
p45
aVhttp://schema.org/SportsEvent
p46
aVhttp://dbpedia.org/class/yago/FlatHorseRacesForThree-year-olds
p47
aVhttp://dbpedia.org/class/yago/PsychologicalFeature100023100
p48
aVhttp://dbpedia.org/class/yago/YagoPermanentlyLocatedEntity
p49
aVhttp://dbpedia.org/class/yago/Grade1StakesRacesInTheUnitedStates
p50
aVhttp://dbpedia.org/class/yago/HorseRace107461411
p51
aVhttp://dbpedia.org/class/yago/HorseRacesInTheUnitedStates
p52
aVhttp://dbpedia.org/resource/Malibu_Stakes
tp53
aa(lp54
((lp55
Vhttp://www.w3.org/2002/07/owl#Thing
p56
aVhttp://www.ontologydesignpatterns.org/ont/dul/DUL.owl#Event
p57
aVhttp://www.wikidata.org/entity/Q1656682
p58
aVhttp://dbpedia.org/ontology/Event
p59
aVhttp://dbpedia.org/ontology/Race
p60
aVhttp://dbpedia.org/ontology/SocietalEvent
p61
aVhttp://dbpedia.org/ontology/SportsEvent
p62
aVhttp://schema.org/Event
p63
aVhttp://schema.org/SportsEvent
p64
aVhttp://dbpedia.org/resource/Moonee_Valley_Racing_Club
tp65
aa(lp66
((lp67
Vhttp://dbpedia.org/class/yago/Abstraction100002137
p68
aVhttp://dbpedia.org/class/yago/AnimalMaterial114755804
p69
aVhttp://dbpedia.org/class/yago/BodyCovering105237755
p70
aVhttp://dbpedia.org/class/yago/Contest107456188
p71
aVhttp://dbpedia.org/class/yago/Covering109257949
p72
aVhttp://dbpedia.org/class/yago/Event100029378
p73
aVhttp://dbpedia.org/class/yago/Feather101896031
p74
aVhttp://dbpedia.org/class/yago/Material114580897
p75
aVhttp://dbpedia.org/class/yago/Matter100020827
p76
aVhttp://dbpedia.org/class/yago/NaturalObject100019128
p77
aVhttp://dbpedia.org/class/yago/Object100002684
p78
aVhttp://dbpedia.org/class/yago/Part113809207
p79
aVhttp://dbpedia.org/class/yago/Race107458453
p80
aVhttp://dbpedia.org/class/yago/Race107472657
p81
aVhttp://dbpedia.org/class/yago/Relation100031921
p82
aVhttp://dbpedia.org/class/yago/SocialEvent107288639
p83
aVhttp://dbpedia.org/class/yago/Substance100019613
p84
aVhttp://dbpedia.org/class/yago/Whole100003553
p85
aVhttp://www.w3.org/2002/07/owl#Thing
p86
aVhttp://www.ontologydesignpatterns.org/ont/dul/DUL.owl#Event
p87
aVhttp://www.wikidata.org/entity/Q1656682
p88
aVhttp://dbpedia.org/ontology/Event
p89
aVhttp://dbpedia.org/ontology/HorseRace
p90
aVhttp://dbpedia.org/ontology/Race
p91
aVhttp://dbpedia.org/ontology/SocietalEvent
p92
aVhttp://dbpedia.org/ontology/SportsEvent
p93
aVhttp://schema.org/Event
p94
aVhttp://schema.org/SportsEvent
p95
aVhttp://dbpedia.org/class/yago/ChurchillDowns
p96
aVhttp://dbpedia.org/class/yago/FlatHorseRacesForThree-year-oldFillies
p97
aVhttp://dbpedia.org/class/yago/PsychologicalFeature100023100
p98
aVhttp://dbpedia.org/class/yago/YagoPermanentlyLocatedEntity
p99
aVhttp://dbpedia.org/class/yago/Down101896561
p100
aVhttp://dbpedia.org/class/yago/GradedStakesRacesInTheUnitedStates
p101
aVhttp://dbpedia.org/class/yago/HorseRace107461411
p102
aVhttp://dbpedia.org/class/yago/HorseRacesInTheUnitedStates
p103
aVhttp://dbpedia.org/class/yago/PhysicalEntity100001930
p104
aVhttp://dbpedia.org/class/yago/TurfRacesInTheUnitedStates
p105
aVhttp://dbpedia.org/resource/Mrs._Revere_Stakes
tp106
aa(lp107
((lp108
Vhttp://dbpedia.org/class/yago/Abstraction100002137
p109
aVhttp://dbpedia.org/class/yago/Contest107456188
p110
aVhttp://dbpedia.org/class/yago/Event100029378
p111
aVhttp://dbpedia.org/class/yago/Race107458453
p112
aVhttp://dbpedia.org/class/yago/Race107472657
p113
aVhttp://dbpedia.org/class/yago/SocialEvent107288639
p114
aVhttp://dbpedia.org/class/yago/RecurringEventsEstablishedIn1981
p115
aVhttp://www.w3.org/2002/07/owl#Thing
p116
aVhttp://www.ontologydesignpatterns.org/ont/dul/DUL.owl#Event
p117
aVhttp://www.wikidata.org/entity/Q1656682
p118
aVhttp://dbpedia.org/ontology/Event
p119
aVhttp://dbpedia.org/ontology/HorseRace
p120
aVhttp://dbpedia.org/ontology/Race
p121
aVhttp://dbpedia.org/ontology/SocietalEvent
p122
aVhttp://dbpedia.org/ontology/SportsEvent
p123
aVhttp://schema.org/Event
p124
aVhttp://schema.org/SportsEvent
p125
aVhttp://dbpedia.org/class/yago/FlatHorseRacesForThree-year-olds
p126
aVhttp://dbpedia.org/class/yago/PsychologicalFeature100023100
p127
aVhttp://dbpedia.org/class/yago/YagoPermanentlyLocatedEntity
p128
aVhttp://dbpedia.org/class/yago/GradedStakesRacesInTheUnitedStates
p129
aVhttp://dbpedia.org/class/yago/HorseRace107461411
p130
aVhttp://dbpedia.org/class/yago/HorseRacesInTheUnitedStates
p131
aVhttp://dbpedia.org/resource/Pegasus_Stakes
tp132
aa(lp133
((lp134
Vhttp://dbpedia.org/class/yago/Abstraction100002137
p135
aVhttp://dbpedia.org/class/yago/Contest107456188
p136
aVhttp://dbpedia.org/class/yago/Event100029378
p137
aVhttp://dbpedia.org/class/yago/Race107458453
p138
aVhttp://dbpedia.org/class/yago/Race107472657
p139
aVhttp://dbpedia.org/class/yago/SocialEvent107288639
p140
aVhttp://www.w3.org/2002/07/owl#Thing
p141
aVhttp://www.ontologydesignpatterns.org/ont/dul/DUL.owl#Event
p142
aVhttp://www.wikidata.org/entity/Q1656682
p143
aVhttp://dbpedia.org/ontology/Event
p144
aVhttp://dbpedia.org/ontology/HorseRace
p145
aVhttp://dbpedia.org/ontology/Race
p146
aVhttp://dbpedia.org/ontology/SocietalEvent
p147
aVhttp://dbpedia.org/ontology/SportsEvent
p148
aVhttp://schema.org/Event
p149
aVhttp://schema.org/SportsEvent
p150
aVhttp://dbpedia.org/class/yago/PsychologicalFeature100023100
p151
aVhttp://dbpedia.org/class/yago/YagoPermanentlyLocatedEntity
p152
aVhttp://dbpedia.org/class/yago/OpenMiddleDistanceHorseRaces
p153
aVhttp://dbpedia.org/class/yago/Group1StakesRacesInAustralia
p154
aVhttp://dbpedia.org/class/yago/HorseRace107461411
p155
aVhttp://dbpedia.org/class/yago/HorseRacesInAustralia
p156
aVhttp://dbpedia.org/resource/Ranvet_Stakes
tp157
aa(lp158
a(lp159
((lp160
Vhttp://dbpedia.org/class/yago/Abstraction100002137
p161
aVhttp://dbpedia.org/class/yago/Contest107456188
p162
aVhttp://dbpedia.org/class/yago/Event100029378
p163
aVhttp://dbpedia.org/class/yago/Race107458453
p164
aVhttp://dbpedia.org/class/yago/Race107472657
p165
aVhttp://dbpedia.org/class/yago/SocialEvent107288639
p166
aVhttp://www.w3.org/2002/07/owl#Thing
p167
aVhttp://www.ontologydesignpatterns.org/ont/dul/DUL.owl#Event
p168
aVhttp://www.wikidata.org/entity/Q1656682
p169
aVhttp://dbpedia.org/ontology/Event
p170
aVhttp://dbpedia.org/ontology/HorseRace
p171
aVhttp://dbpedia.org/ontology/Race
p172
aVhttp://dbpedia.org/ontology/SocietalEvent
p173
aVhttp://dbpedia.org/ontology/SportsEvent
p174
aVhttp://schema.org/Event
p175
aVhttp://schema.org/SportsEvent
p176
aVhttp://dbpedia.org/class/yago/FlatHorseRacesForTwo-year-oldFillies
p177
aVhttp://dbpedia.org/class/yago/PsychologicalFeature100023100
p178
aVhttp://dbpedia.org/class/yago/YagoPermanentlyLocatedEntity
p179
aVhttp://dbpedia.org/class/yago/GradedStakesRacesInTheUnitedStates
p180
aVhttp://dbpedia.org/class/yago/HorseRace107461411
p181
aVhttp://dbpedia.org/class/yago/HorseRacesInCalifornia
p182
aVhttp://dbpedia.org/class/yago/HorseRacesInTheUnitedStates
p183
aVhttp://dbpedia.org/resource/Sorrento_Stakes
tp184
aa(lp185
((lp186
Vhttp://dbpedia.org/class/yago/Abstraction100002137
p187
aVhttp://dbpedia.org/class/yago/Contest107456188
p188
aVhttp://dbpedia.org/class/yago/Event100029378
p189
aVhttp://dbpedia.org/class/yago/Race107472657
p190
aVhttp://dbpedia.org/class/yago/SocialEvent107288639
p191
aVhttp://dbpedia.org/class/yago/CycleRacesInItaly
p192
aVhttp://dbpedia.org/class/yago/PsychologicalFeature100023100
p193
aVhttp://dbpedia.org/class/yago/YagoPermanentlyLocatedEntity
p194
aVhttp://dbpedia.org/resource/Strade_Bianche
tp195
aa(lp196
((lp197
Vhttp://dbpedia.org/class/yago/Abstraction100002137
p198
aVhttp://dbpedia.org/class/yago/Contest107456188
p199
aVhttp://dbpedia.org/class/yago/Event100029378
p200
aVhttp://dbpedia.org/class/yago/Race107472657
p201
aVhttp://dbpedia.org/class/yago/SocialEvent107288639
p202
aVhttp://www.w3.org/2002/07/owl#Thing
p203
aVhttp://www.ontologydesignpatterns.org/ont/dul/DUL.owl#Event
p204
aVhttp://www.wikidata.org/entity/Q15091377
p205
aVhttp://www.wikidata.org/entity/Q1656682
p206
aVhttp://dbpedia.org/ontology/CyclingRace
p207
aVhttp://dbpedia.org/ontology/Event
p208
aVhttp://dbpedia.org/ontology/Race
p209
aVhttp://dbpedia.org/ontology/SocietalEvent
p210
aVhttp://dbpedia.org/ontology/SportsEvent
p211
aVhttp://schema.org/Event
p212
aVhttp://schema.org/SportsEvent
p213
aVhttp://umbel.org/umbel/rc/Event
p214
aVhttp://umbel.org/umbel/rc/SportsEvent
p215
aVhttp://umbel.org/umbel/rc/Tournament
p216
aVhttp://dbpedia.org/class/yago/CycleRacesInTheUnitedStates
p217
aVhttp://dbpedia.org/class/yago/PsychologicalFeature100023100
p218
aVhttp://dbpedia.org/class/yago/YagoPermanentlyLocatedEntity
p219
aVhttp://dbpedia.org/resource/Tour_of_California
tp220
aa(lp221
((lp222
Vhttp://dbpedia.org/class/yago/Abstraction100002137
p223
aVhttp://dbpedia.org/class/yago/Contest107456188
p224
aVhttp://dbpedia.org/class/yago/Event100029378
p225
aVhttp://dbpedia.org/class/yago/Race107458453
p226
aVhttp://dbpedia.org/class/yago/SocialEvent107288639
p227
aVhttp://dbpedia.org/class/yago/RecurringEventsEstablishedIn1978
p228
aVhttp://www.w3.org/2002/07/owl#Thing
p229
aVhttp://www.ontologydesignpatterns.org/ont/dul/DUL.owl#Event
p230
aVhttp://www.wikidata.org/entity/Q1656682
p231
aVhttp://dbpedia.org/ontology/Event
p232
aVhttp://dbpedia.org/ontology/HorseRace
p233
aVhttp://dbpedia.org/ontology/Race
p234
aVhttp://dbpedia.org/ontology/SocietalEvent
p235
aVhttp://dbpedia.org/ontology/SportsEvent
p236
aVhttp://schema.org/Event
p237
aVhttp://schema.org/SportsEvent
p238
aVhttp://dbpedia.org/class/yago/PsychologicalFeature100023100
p239
aVhttp://dbpedia.org/class/yago/YagoPermanentlyLocatedEntity
p240
aVhttp://dbpedia.org/class/yago/HorseRace107461411
p241
aVhttp://dbpedia.org/class/yago/HorseRacesInMaryland
p242
aVhttp://dbpedia.org/class/yago/HorseRacesInTheUnitedStates
p243
aVhttp://dbpedia.org/resource/Twixt_Stakes
tp244
aa(lp245
((lp246
Vhttp://dbpedia.org/class/yago/Abstraction100002137
p247
aVhttp://dbpedia.org/class/yago/Contest107456188
p248
aVhttp://dbpedia.org/class/yago/Event100029378
p249
aVhttp://dbpedia.org/class/yago/Race107458453
p250
aVhttp://dbpedia.org/class/yago/Race107472657
p251
aVhttp://dbpedia.org/class/yago/SocialEvent107288639
p252
aVhttp://www.w3.org/2002/07/owl#Thing
p253
aVhttp://www.ontologydesignpatterns.org/ont/dul/DUL.owl#Event
p254
aVhttp://www.wikidata.org/entity/Q1656682
p255
aVhttp://dbpedia.org/ontology/Event
p256
aVhttp://dbpedia.org/ontology/HorseRace
p257
aVhttp://dbpedia.org/ontology/Race
p258
aVhttp://dbpedia.org/ontology/SocietalEvent
p259
aVhttp://dbpedia.org/ontology/SportsEvent
p260
aVhttp://schema.org/Event
p261
aVhttp://schema.org/SportsEvent
p262
aVhttp://dbpedia.org/class/yago/PsychologicalFeature100023100
p263
aVhttp://dbpedia.org/class/yago/YagoPermanentlyLocatedEntity
p264
aVhttp://dbpedia.org/class/yago/OpenMileCategoryHorseRaces
p265
aVhttp://dbpedia.org/class/yago/Grade1StakesRacesInTheUnitedStates
p266
aVhttp://dbpedia.org/class/yago/GradedStakesRacesInTheUnitedStates
p267
aVhttp://dbpedia.org/class/yago/HorseRace107461411
p268
aVhttp://dbpedia.org/class/yago/HorseRacesInTheUnitedStates
p269
aVhttp://dbpedia.org/resource/Breeders'_Cup_Dirt_Mile
tp270
aa(lp271
((lp272
Vhttp://www.w3.org/2002/07/owl#Thing
p273
aVhttp://www.ontologydesignpatterns.org/ont/dul/DUL.owl#Event
p274
aVhttp://www.wikidata.org/entity/Q1656682
p275
aVhttp://dbpedia.org/ontology/Event
p276
aVhttp://dbpedia.org/ontology/HorseRace
p277
aVhttp://dbpedia.org/ontology/Race
p278
aVhttp://dbpedia.org/ontology/SocietalEvent
p279
aVhttp://dbpedia.org/ontology/SportsEvent
p280
aVhttp://schema.org/Event
p281
aVhttp://schema.org/SportsEvent
p282
aVhttp://dbpedia.org/resource/Carbine_Club_Stakes_(ATC)
tp283
aa(lp284
((lp285
Vhttp://dbpedia.org/class/yago/Abstraction100002137
p286
aVhttp://dbpedia.org/class/yago/Contest107456188
p287
aVhttp://dbpedia.org/class/yago/Event100029378
p288
aVhttp://dbpedia.org/class/yago/Race107472657
p289
aVhttp://dbpedia.org/class/yago/SocialEvent107288639
p290
aVhttp://www.w3.org/2002/07/owl#Thing
p291
aVhttp://www.ontologydesignpatterns.org/ont/dul/DUL.owl#Event
p292
aVhttp://www.wikidata.org/entity/Q15091377
p293
aVhttp://www.wikidata.org/entity/Q1656682
p294
aVhttp://dbpedia.org/ontology/CyclingRace
p295
aVhttp://dbpedia.org/ontology/Event
p296
aVhttp://dbpedia.org/ontology/Race
p297
aVhttp://dbpedia.org/ontology/SocietalEvent
p298
aVhttp://dbpedia.org/ontology/SportsEvent
p299
aVhttp://schema.org/Event
p300
aVhttp://schema.org/SportsEvent
p301
aVhttp://umbel.org/umbel/rc/Event
p302
aVhttp://umbel.org/umbel/rc/SportsEvent
p303
aVhttp://umbel.org/umbel/rc/Tournament
p304
aVhttp://dbpedia.org/class/yago/CycleRacesInFrance
p305
aVhttp://dbpedia.org/class/yago/PsychologicalFeature100023100
p306
aVhttp://dbpedia.org/class/yago/YagoPermanentlyLocatedEntity
p307
aVhttp://dbpedia.org/resource/Circuit_de_la_Sarthe_(cycling)
tp308
aa(lp309
((lp310
Vhttp://dbpedia.org/class/yago/Abstraction100002137
p311
aVhttp://dbpedia.org/class/yago/Contest107456188
p312
aVhttp://dbpedia.org/class/yago/Event100029378
p313
aVhttp://dbpedia.org/class/yago/Race107458453
p314
aVhttp://dbpedia.org/class/yago/SocialEvent107288639
p315
aVhttp://dbpedia.org/class/yago/RecurringEventsEstablishedIn1996
p316
aVhttp://www.w3.org/2002/07/owl#Thing
p317
aVhttp://www.ontologydesignpatterns.org/ont/dul/DUL.owl#Event
p318
aVhttp://www.wikidata.org/entity/Q1656682
p319
aVhttp://dbpedia.org/ontology/Event
p320
aVhttp://dbpedia.org/ontology/HorseRace
p321
aVhttp://dbpedia.org/ontology/Race
p322
aVhttp://dbpedia.org/ontology/SocietalEvent
p323
aVhttp://dbpedia.org/ontology/SportsEvent
p324
aVhttp://schema.org/Event
p325
aVhttp://schema.org/SportsEvent
p326
aVhttp://dbpedia.org/class/yago/PsychologicalFeature100023100
p327
aVhttp://dbpedia.org/class/yago/YagoPermanentlyLocatedEntity
p328
aVhttp://dbpedia.org/class/yago/OpenSprintCategoryHorseRaces
p329
aVhttp://dbpedia.org/class/yago/HorseRace107461411
p330
aVhttp://dbpedia.org/class/yago/HorseRacesInTheUnitedArabEmirates
p331
aVhttp://dbpedia.org/resource/Dubai_Golden_Shaheen
tp332
aa(lp333
((lp334
Vhttp://dbpedia.org/class/yago/Abstraction100002137
p335
aVhttp://dbpedia.org/class/yago/Contest107456188
p336
aVhttp://dbpedia.org/class/yago/Event100029378
p337
aVhttp://dbpedia.org/class/yago/Race107458453
p338
aVhttp://dbpedia.org/class/yago/Race107472657
p339
aVhttp://dbpedia.org/class/yago/SocialEvent107288639
p340
aVhttp://www.w3.org/2002/07/owl#Thing
p341
aVhttp://www.ontologydesignpatterns.org/ont/dul/DUL.owl#Event
p342
aVhttp://www.wikidata.org/entity/Q1656682
p343
aVhttp://dbpedia.org/ontology/Event
p344
aVhttp://dbpedia.org/ontology/HorseRace
p345
aVhttp://dbpedia.org/ontology/Race
p346
aVhttp://dbpedia.org/ontology/SocietalEvent
p347
aVhttp://dbpedia.org/ontology/SportsEvent
p348
aVhttp://schema.org/Event
p349
aVhttp://schema.org/SportsEvent
p350
aVhttp://dbpedia.org/class/yago/FlatHorseRacesForThree-year-oldFillies
p351
aVhttp://dbpedia.org/class/yago/PsychologicalFeature100023100
p352
aVhttp://dbpedia.org/class/yago/YagoPermanentlyLocatedEntity
p353
aVhttp://dbpedia.org/class/yago/Group1StakesRacesInAustralia
p354
aVhttp://dbpedia.org/class/yago/HorseRace107461411
p355
aVhttp://dbpedia.org/class/yago/HorseRacesInAustralia
p356
aVhttp://dbpedia.org/resource/Flight_Stakes
tp357
aa(lp358
((lp359
Vhttp://dbpedia.org/class/yago/Abstraction100002137
p360
aVhttp://dbpedia.org/class/yago/Contest107456188
p361
aVhttp://dbpedia.org/class/yago/Event100029378
p362
aVhttp://dbpedia.org/class/yago/Race107458453
p363
aVhttp://dbpedia.org/class/yago/Race107472657
p364
aVhttp://dbpedia.org/class/yago/SocialEvent107288639
p365
aVhttp://www.w3.org/2002/07/owl#Thing
p366
aVhttp://www.ontologydesignpatterns.org/ont/dul/DUL.owl#Event
p367
aVhttp://www.wikidata.org/entity/Q1656682
p368
aVhttp://dbpedia.org/ontology/Event
p369
aVhttp://dbpedia.org/ontology/HorseRace
p370
aVhttp://dbpedia.org/ontology/Race
p371
aVhttp://dbpedia.org/ontology/SocietalEvent
p372
aVhttp://dbpedia.org/ontology/SportsEvent
p373
aVhttp://schema.org/Event
p374
aVhttp://schema.org/SportsEvent
p375
aVhttp://dbpedia.org/class/yago/PsychologicalFeature100023100
p376
aVhttp://dbpedia.org/class/yago/YagoPermanentlyLocatedEntity
p377
aVhttp://dbpedia.org/class/yago/OpenMileCategoryHorseRaces
p378
aVhttp://dbpedia.org/class/yago/GradedStakesRacesInTheUnitedStates
p379
aVhttp://dbpedia.org/class/yago/HorseRace107461411
p380
aVhttp://dbpedia.org/class/yago/HorseRacesInTheUnitedStates
p381
aVhttp://dbpedia.org/class/yago/TurfRacesInTheUnitedStates
p382
aVhttp://dbpedia.org/resource/Fourstardave_Handicap
tp383
aa(lp384
((lp385
Vhttp://dbpedia.org/class/yago/Abstraction100002137
p386
aVhttp://dbpedia.org/class/yago/Contest107456188
p387
aVhttp://dbpedia.org/class/yago/Event100029378
p388
aVhttp://dbpedia.org/class/yago/Race107472657
p389
aVhttp://dbpedia.org/class/yago/SocialEvent107288639
p390
aVhttp://www.w3.org/2002/07/owl#Thing
p391
aVhttp://www.ontologydesignpatterns.org/ont/dul/DUL.owl#Event
p392
aVhttp://www.wikidata.org/entity/Q15091377
p393
aVhttp://www.wikidata.org/entity/Q1656682
p394
aVhttp://dbpedia.org/ontology/CyclingRace
p395
aVhttp://dbpedia.org/ontology/Event
p396
aVhttp://dbpedia.org/ontology/Race
p397
aVhttp://dbpedia.org/ontology/SocietalEvent
p398
aVhttp://dbpedia.org/ontology/SportsEvent
p399
aVhttp://schema.org/Event
p400
aVhttp://schema.org/SportsEvent
p401
aVhttp://umbel.org/umbel/rc/Event
p402
aVhttp://umbel.org/umbel/rc/SportsEvent
p403
aVhttp://umbel.org/umbel/rc/Tournament
p404
aVhttp://dbpedia.org/class/yago/CycleRacesInBelgium
p405
aVhttp://dbpedia.org/class/yago/PsychologicalFeature100023100
p406
aVhttp://dbpedia.org/class/yago/YagoPermanentlyLocatedEntity
p407
aVhttp://dbpedia.org/resource/Grand_Prix_Rudy_Dhaenens
tp408
aa(lp409
((lp410
Vhttp://dbpedia.org/class/yago/Abstraction100002137
p411
aVhttp://dbpedia.org/class/yago/Contest107456188
p412
aVhttp://dbpedia.org/class/yago/Event100029378
p413
aVhttp://dbpedia.org/class/yago/Race107458453
p414
aVhttp://dbpedia.org/class/yago/Race107472657
p415
aVhttp://dbpedia.org/class/yago/SocialEvent107288639
p416
aVhttp://www.w3.org/2002/07/owl#Thing
p417
aVhttp://www.ontologydesignpatterns.org/ont/dul/DUL.owl#Event
p418
aVhttp://www.wikidata.org/entity/Q1656682
p419
aVhttp://dbpedia.org/ontology/Event
p420
aVhttp://dbpedia.org/ontology/HorseRace
p421
aVhttp://dbpedia.org/ontology/Race
p422
aVhttp://dbpedia.org/ontology/SocietalEvent
p423
aVhttp://dbpedia.org/ontology/SportsEvent
p424
aVhttp://schema.org/Event
p425
aVhttp://schema.org/SportsEvent
p426
aVhttp://dbpedia.org/class/yago/FlatHorseRacesForThree-year-oldFillies
p427
aVhttp://dbpedia.org/class/yago/PsychologicalFeature100023100
p428
aVhttp://dbpedia.org/class/yago/YagoPermanentlyLocatedEntity
p429
aVhttp://dbpedia.org/class/yago/GradedStakesRacesInTheUnitedStates
p430
aVhttp://dbpedia.org/class/yago/HorseRace107461411
p431
aVhttp://dbpedia.org/class/yago/HorseRacesInCalifornia
p432
aVhttp://dbpedia.org/class/yago/HorseRacesInTheUnitedStates
p433
aVhttp://dbpedia.org/resource/Hollywood_Oaks
p434
tp435
aaa.