(lp1
(lp2
(lp3
a(lp4
a(lp5
a(lp6
a(lp7
a(lp8
a(lp9
aa(lp10
(lp11
a(lp12
a(lp13
a(lp14
a(lp15
a(lp16
((lp17
Vhttp://dbpedia.org/class/yago/Abstraction100002137
p18
aVhttp://dbpedia.org/class/yago/Announcement106746580
p19
aVhttp://dbpedia.org/class/yago/Communication100033020
p20
aVhttp://dbpedia.org/class/yago/Message106598915
p21
aVhttp://dbpedia.org/class/yago/Program106748466
p22
aVhttp://dbpedia.org/class/yago/Statement106722453
p23
aVhttp://dbpedia.org/class/yago/RadioProgrammesInNorthernIreland
p24
aVhttp://dbpedia.org/resource/Good_Morning_Ulster
tp25
aa(lp26
aa(lp27
(lp28
a(lp29
a(lp30
a(lp31
a(lp32
a(lp33
a(lp34
aa(lp35
(lp36
a(lp37
a(lp38
a(lp39
a(lp40
a(lp41
a(lp42
aa(lp43
(lp44
a(lp45
a(lp46
a(lp47
a(lp48
a(lp49
a(lp50
aa(lp51
(lp52
a(lp53
a(lp54
a(lp55
a(lp56
a(lp57
a(lp58
aa(lp59
(lp60
a(lp61
a(lp62
a(lp63
a(lp64
a(lp65
a(lp66
aa(lp67
(lp68
a(lp69
a(lp70
a(lp71
a(lp72
a(lp73
((lp74
Vhttp://www.w3.org/2002/07/owl#Thing
p75
aVhttp://www.wikidata.org/entity/Q245068
p76
aVhttp://www.wikidata.org/entity/Q386724
p77
aVhttp://www.wikidata.org/entity/Q8274
p78
aVhttp://dbpedia.org/ontology/Comic
p79
aVhttp://dbpedia.org/ontology/Manga
p80
aVhttp://dbpedia.org/ontology/Work
p81
aVhttp://dbpedia.org/ontology/WrittenWork
p82
aVhttp://schema.org/CreativeWork
p83
aVhttp://dbpedia.org/resource/2001_Nights
tp84
aa(lp85
aa(lp86
(lp87
a(lp88
a(lp89
a(lp90
a(lp91
a(lp92
((lp93
Vhttp://dbpedia.org/class/yago/1991AnimeFilms
p94
aVhttp://dbpedia.org/class/yago/Abstraction100002137
p95
aVhttp://dbpedia.org/class/yago/AnimeFilms
p96
aVhttp://dbpedia.org/class/yago/Artifact100021939
p97
aVhttp://dbpedia.org/class/yago/Creation103129123
p98
aVhttp://dbpedia.org/class/yago/Event100029378
p99
aVhttp://dbpedia.org/class/yago/Movie106613686
p100
aVhttp://dbpedia.org/class/yago/Object100002684
p101
aVhttp://dbpedia.org/class/yago/Product104007894
p102
aVhttp://dbpedia.org/class/yago/Show106619065
p103
aVhttp://dbpedia.org/class/yago/SocialEvent107288639
p104
aVhttp://dbpedia.org/class/yago/Whole100003553
p105
aVhttp://www.w3.org/2002/07/owl#Thing
p106
aVhttp://www.wikidata.org/entity/Q245068
p107
aVhttp://www.wikidata.org/entity/Q386724
p108
aVhttp://www.wikidata.org/entity/Q8274
p109
aVhttp://dbpedia.org/ontology/Comic
p110
aVhttp://dbpedia.org/ontology/Manga
p111
aVhttp://dbpedia.org/ontology/Work
p112
aVhttp://dbpedia.org/ontology/WrittenWork
p113
aVhttp://schema.org/CreativeWork
p114
aVhttp://dbpedia.org/class/yago/PsychologicalFeature100023100
p115
aVhttp://dbpedia.org/class/yago/YagoPermanentlyLocatedEntity
p116
aVhttp://dbpedia.org/class/yago/PhysicalEntity100001930
p117
aVhttp://dbpedia.org/resource/Adachi-ga_Hara
tp118
aa(lp119
aa(lp120
(lp121
a(lp122
a(lp123
a(lp124
a(lp125
a(lp126
((lp127
Vhttp://dbpedia.org/class/yago/CausalAgent100007347
p128
aVhttp://dbpedia.org/class/yago/Comedian109940146
p129
aVhttp://dbpedia.org/class/yago/Entertainer109616922
p130
aVhttp://dbpedia.org/class/yago/LivingThing100004258
p131
aVhttp://dbpedia.org/class/yago/Object100002684
p132
aVhttp://dbpedia.org/class/yago/Organism100004475
p133
aVhttp://dbpedia.org/class/yago/Performer110415638
p134
aVhttp://dbpedia.org/class/yago/Person100007846
p135
aVhttp://dbpedia.org/class/yago/Whole100003553
p136
aVhttp://dbpedia.org/class/yago/YagoLegalActorGeo
p137
aVhttp://dbpedia.org/class/yago/ScienceFictionComics
p138
aVhttp://www.w3.org/2002/07/owl#Thing
p139
aVhttp://www.wikidata.org/entity/Q245068
p140
aVhttp://www.wikidata.org/entity/Q386724
p141
aVhttp://www.wikidata.org/entity/Q8274
p142
aVhttp://dbpedia.org/ontology/Comic
p143
aVhttp://dbpedia.org/ontology/Manga
p144
aVhttp://dbpedia.org/ontology/Work
p145
aVhttp://dbpedia.org/ontology/WrittenWork
p146
aVhttp://schema.org/CreativeWork
p147
aVhttp://dbpedia.org/class/yago/YagoLegalActor
p148
aVhttp://dbpedia.org/class/yago/PhysicalEntity100001930
p149
aVhttp://dbpedia.org/resource/Akira_(manga)
tp150
aa(lp151
aa(lp152
(lp153
a(lp154
a(lp155
a(lp156
a(lp157
a(lp158
((lp159
Vhttp://dbpedia.org/class/yago/2010JapaneseTelevisionSeriesDebuts
p160
aVhttp://dbpedia.org/class/yago/2010JapaneseTelevisionSeriesEndings
p161
aVhttp://dbpedia.org/class/yago/2011JapaneseTelevisionSeriesDebuts
p162
aVhttp://dbpedia.org/class/yago/Abstraction100002137
p163
aVhttp://dbpedia.org/class/yago/Act100030358
p164
aVhttp://dbpedia.org/class/yago/Action100037396
p165
aVhttp://dbpedia.org/class/yago/Beginning100235435
p166
aVhttp://dbpedia.org/class/yago/Change100191142
p167
aVhttp://dbpedia.org/class/yago/ChangeOfState100199130
p168
aVhttp://dbpedia.org/class/yago/Ending106308765
p169
aVhttp://dbpedia.org/class/yago/Event100029378
p170
aVhttp://dbpedia.org/class/yago/Introduction100238022
p171
aVhttp://dbpedia.org/class/yago/Morpheme106306233
p172
aVhttp://dbpedia.org/class/yago/Part113809207
p173
aVhttp://dbpedia.org/class/yago/Relation100031921
p174
aVhttp://www.w3.org/2002/07/owl#Thing
p175
aVhttp://www.wikidata.org/entity/Q245068
p176
aVhttp://www.wikidata.org/entity/Q386724
p177
aVhttp://www.wikidata.org/entity/Q8274
p178
aVhttp://dbpedia.org/ontology/Comic
p179
aVhttp://dbpedia.org/ontology/Manga
p180
aVhttp://dbpedia.org/ontology/Work
p181
aVhttp://dbpedia.org/ontology/WrittenWork
p182
aVhttp://schema.org/CreativeWork
p183
aVhttp://dbpedia.org/class/yago/PsychologicalFeature100023100
p184
aVhttp://dbpedia.org/class/yago/YagoPermanentlyLocatedEntity
p185
aVhttp://dbpedia.org/class/yago/LanguageUnit106284225
p186
aVhttp://dbpedia.org/resource/Arakawa_Under_the_Bridge
tp187
aa(lp188
aa(lp189
(lp190
a(lp191
a(lp192
a(lp193
a(lp194
a(lp195
((lp196
Vhttp://www.w3.org/2002/07/owl#Thing
p197
aVhttp://www.wikidata.org/entity/Q245068
p198
aVhttp://www.wikidata.org/entity/Q386724
p199
aVhttp://www.wikidata.org/entity/Q8274
p200
aVhttp://dbpedia.org/ontology/Comic
p201
aVhttp://dbpedia.org/ontology/Manga
p202
aVhttp://dbpedia.org/ontology/Work
p203
aVhttp://dbpedia.org/ontology/WrittenWork
p204
aVhttp://schema.org/CreativeWork
p205
aVhttp://dbpedia.org/resource/Attack_No._1
tp206
aa(lp207
aa(lp208
(lp209
a(lp210
a(lp211
a(lp212
a(lp213
a(lp214
((lp215
Vhttp://dbpedia.org/class/yago/1998JapaneseTelevisionSeriesDebuts
p216
aVhttp://dbpedia.org/class/yago/1998JapaneseTelevisionSeriesEndings
p217
aVhttp://dbpedia.org/class/yago/Abstraction100002137
p218
aVhttp://dbpedia.org/class/yago/Act100030358
p219
aVhttp://dbpedia.org/class/yago/Action100037396
p220
aVhttp://dbpedia.org/class/yago/Award106696483
p221
aVhttp://dbpedia.org/class/yago/Beginning100235435
p222
aVhttp://dbpedia.org/class/yago/Change100191142
p223
aVhttp://dbpedia.org/class/yago/ChangeOfState100199130
p224
aVhttp://dbpedia.org/class/yago/Communication100033020
p225
aVhttp://dbpedia.org/class/yago/Ending106308765
p226
aVhttp://dbpedia.org/class/yago/Event100029378
p227
aVhttp://dbpedia.org/class/yago/Introduction100238022
p228
aVhttp://dbpedia.org/class/yago/Morpheme106306233
p229
aVhttp://dbpedia.org/class/yago/Part113809207
p230
aVhttp://dbpedia.org/class/yago/Relation100031921
p231
aVhttp://dbpedia.org/class/yago/Signal106791372
p232
aVhttp://dbpedia.org/class/yago/Symbol106806469
p233
aVhttp://dbpedia.org/class/yago/ShogakukanMangaAwards
p234
aVhttp://www.w3.org/2002/07/owl#Thing
p235
aVhttp://www.wikidata.org/entity/Q245068
p236
aVhttp://www.wikidata.org/entity/Q386724
p237
aVhttp://www.wikidata.org/entity/Q8274
p238
aVhttp://dbpedia.org/ontology/Comic
p239
aVhttp://dbpedia.org/ontology/Manga
p240
aVhttp://dbpedia.org/ontology/Work
p241
aVhttp://dbpedia.org/ontology/WrittenWork
p242
aVhttp://schema.org/CreativeWork
p243
aVhttp://dbpedia.org/class/yago/PsychologicalFeature100023100
p244
aVhttp://dbpedia.org/class/yago/YagoPermanentlyLocatedEntity
p245
aVhttp://dbpedia.org/class/yago/LanguageUnit106284225
p246
aVhttp://dbpedia.org/resource/Basara_(manga)
tp247
aa(lp248
aa(lp249
(lp250
a(lp251
a(lp252
a(lp253
a(lp254
a(lp255
((lp256
Vhttp://dbpedia.org/class/yago/Abstraction100002137
p257
aVhttp://dbpedia.org/class/yago/Act100030358
p258
aVhttp://dbpedia.org/class/yago/Activity100407535
p259
aVhttp://dbpedia.org/class/yago/Diversion100426928
p260
aVhttp://dbpedia.org/class/yago/Entertainment100429048
p261
aVhttp://dbpedia.org/class/yago/Event100029378
p262
aVhttp://dbpedia.org/class/yago/Show100520257
p263
aVhttp://www.w3.org/2002/07/owl#Thing
p264
aVhttp://www.wikidata.org/entity/Q245068
p265
aVhttp://www.wikidata.org/entity/Q386724
p266
aVhttp://www.wikidata.org/entity/Q8274
p267
aVhttp://dbpedia.org/ontology/Comic
p268
aVhttp://dbpedia.org/ontology/Manga
p269
aVhttp://dbpedia.org/ontology/Work
p270
aVhttp://dbpedia.org/ontology/WrittenWork
p271
aVhttp://schema.org/CreativeWork
p272
aVhttp://dbpedia.org/class/yago/PsychologicalFeature100023100
p273
aVhttp://dbpedia.org/class/yago/YagoPermanentlyLocatedEntity
p274
aVhttp://dbpedia.org/class/yago/YTVShows
p275
aVhttp://dbpedia.org/resource/Battle_B-Daman
tp276
aa(lp277
aa(lp278
(lp279
a(lp280
a(lp281
a(lp282
a(lp283
a(lp284
((lp285
Vhttp://www.w3.org/2002/07/owl#Thing
p286
aVhttp://www.wikidata.org/entity/Q245068
p287
aVhttp://www.wikidata.org/entity/Q386724
p288
aVhttp://www.wikidata.org/entity/Q8274
p289
aVhttp://dbpedia.org/ontology/Comic
p290
aVhttp://dbpedia.org/ontology/Manga
p291
aVhttp://dbpedia.org/ontology/Work
p292
aVhttp://dbpedia.org/ontology/WrittenWork
p293
aVhttp://schema.org/CreativeWork
p294
aVhttp://dbpedia.org/resource/Black_God_(manga)
tp295
aa(lp296
aa(lp297
(lp298
a(lp299
a(lp300
a(lp301
a(lp302
a(lp303
((lp304
Vhttp://www.w3.org/2002/07/owl#Thing
p305
aVhttp://www.wikidata.org/entity/Q245068
p306
aVhttp://www.wikidata.org/entity/Q386724
p307
aVhttp://www.wikidata.org/entity/Q8274
p308
aVhttp://dbpedia.org/ontology/Comic
p309
aVhttp://dbpedia.org/ontology/Manga
p310
aVhttp://dbpedia.org/ontology/Work
p311
aVhttp://dbpedia.org/ontology/WrittenWork
p312
aVhttp://schema.org/CreativeWork
p313
aVhttp://dbpedia.org/resource/Blame!
tp314
aa(lp315
aa(lp316
(lp317
a(lp318
a(lp319
a(lp320
a(lp321
a(lp322
((lp323
Vhttp://dbpedia.org/class/yago/1996JapaneseTelevisionSeriesDebuts
p324
aVhttp://dbpedia.org/class/yago/2011JapaneseTelevisionSeriesDebuts
p325
aVhttp://dbpedia.org/class/yago/2011JapaneseTelevisionSeriesEndings
p326
aVhttp://dbpedia.org/class/yago/Abstraction100002137
p327
aVhttp://dbpedia.org/class/yago/Act100030358
p328
aVhttp://dbpedia.org/class/yago/Action100037396
p329
aVhttp://dbpedia.org/class/yago/Award106696483
p330
aVhttp://dbpedia.org/class/yago/Beginning100235435
p331
aVhttp://dbpedia.org/class/yago/Change100191142
p332
aVhttp://dbpedia.org/class/yago/ChangeOfState100199130
p333
aVhttp://dbpedia.org/class/yago/Communication100033020
p334
aVhttp://dbpedia.org/class/yago/DramaticComposition107007684
p335
aVhttp://dbpedia.org/class/yago/Ending106308765
p336
aVhttp://dbpedia.org/class/yago/Event100029378
p337
aVhttp://dbpedia.org/class/yago/Introduction100238022
p338
aVhttp://dbpedia.org/class/yago/Morpheme106306233
p339
aVhttp://dbpedia.org/class/yago/Part113809207
p340
aVhttp://dbpedia.org/class/yago/Play107007945
p341
aVhttp://dbpedia.org/class/yago/Relation100031921
p342
aVhttp://dbpedia.org/class/yago/Signal106791372
p343
aVhttp://dbpedia.org/class/yago/Symbol106806469
p344
aVhttp://dbpedia.org/class/yago/Writing106362953
p345
aVhttp://dbpedia.org/class/yago/ShogakukanMangaAwards
p346
aVhttp://www.w3.org/2002/07/owl#Thing
p347
aVhttp://www.wikidata.org/entity/Q245068
p348
aVhttp://www.wikidata.org/entity/Q386724
p349
aVhttp://www.wikidata.org/entity/Q8274
p350
aVhttp://dbpedia.org/ontology/Comic
p351
aVhttp://dbpedia.org/ontology/Manga
p352
aVhttp://dbpedia.org/ontology/Work
p353
aVhttp://dbpedia.org/ontology/WrittenWork
p354
aVhttp://schema.org/CreativeWork
p355
aVhttp://dbpedia.org/class/yago/PsychologicalFeature100023100
p356
aVhttp://dbpedia.org/class/yago/WrittenCommunication106349220
p357
aVhttp://dbpedia.org/class/yago/YagoPermanentlyLocatedEntity
p358
aVhttp://dbpedia.org/class/yago/JapaneseTelevisionDramas
p359
aVhttp://dbpedia.org/class/yago/LanguageUnit106284225
p360
aVhttp://dbpedia.org/resource/Case_Closed
tp361
aa(lp362
aa(lp363
(lp364
a(lp365
a(lp366
a(lp367
a(lp368
a(lp369
((lp370
Vhttp://www.w3.org/2002/07/owl#Thing
p371
aVhttp://www.wikidata.org/entity/Q245068
p372
aVhttp://www.wikidata.org/entity/Q386724
p373
aVhttp://www.wikidata.org/entity/Q8274
p374
aVhttp://dbpedia.org/ontology/Comic
p375
aVhttp://dbpedia.org/ontology/Manga
p376
aVhttp://dbpedia.org/ontology/Work
p377
aVhttp://dbpedia.org/ontology/WrittenWork
p378
aVhttp://schema.org/CreativeWork
p379
aVhttp://dbpedia.org/resource/Cat's_Eye_(manga)
tp380
aa(lp381
aa(lp382
(lp383
a(lp384
a(lp385
a(lp386
a(lp387
a(lp388
((lp389
Vhttp://dbpedia.org/class/yago/2003TelevisionSeriesDebuts
p390
aVhttp://dbpedia.org/class/yago/2004TelevisionSeriesEndings
p391
aVhttp://dbpedia.org/class/yago/Abstraction100002137
p392
aVhttp://dbpedia.org/class/yago/Act100030358
p393
aVhttp://dbpedia.org/class/yago/Action100037396
p394
aVhttp://dbpedia.org/class/yago/Beginning100235435
p395
aVhttp://dbpedia.org/class/yago/Change100191142
p396
aVhttp://dbpedia.org/class/yago/ChangeOfState100199130
p397
aVhttp://dbpedia.org/class/yago/Ending106308765
p398
aVhttp://dbpedia.org/class/yago/Event100029378
p399
aVhttp://dbpedia.org/class/yago/Introduction100238022
p400
aVhttp://dbpedia.org/class/yago/Morpheme106306233
p401
aVhttp://dbpedia.org/class/yago/Part113809207
p402
aVhttp://dbpedia.org/class/yago/Relation100031921
p403
aVhttp://www.w3.org/2002/07/owl#Thing
p404
aVhttp://www.wikidata.org/entity/Q245068
p405
aVhttp://www.wikidata.org/entity/Q386724
p406
aVhttp://www.wikidata.org/entity/Q8274
p407
aVhttp://dbpedia.org/ontology/Comic
p408
aVhttp://dbpedia.org/ontology/Manga
p409
aVhttp://dbpedia.org/ontology/Work
p410
aVhttp://dbpedia.org/ontology/WrittenWork
p411
aVhttp://schema.org/CreativeWork
p412
aVhttp://dbpedia.org/class/yago/PsychologicalFeature100023100
p413
aVhttp://dbpedia.org/class/yago/YagoPermanentlyLocatedEntity
p414
aVhttp://dbpedia.org/class/yago/LanguageUnit106284225
p415
aVhttp://dbpedia.org/resource/Chrono_Crusade
p416
tp417
aa(lp418
aa.