(lp1
(dp2
I0
(dp3
I0
(lp4
sI1
(lp5
sI2
(lp6
sI3
(lp7
sI4
(lp8
sI5
(lp9
sI6
(lp10
sI7
(lp11
sI8
(lp12
sI9
(lp13
sI10
(lp14
sI11
(lp15
sI12
(lp16
sI13
(lp17
sI14
(lp18
sI15
(lp19
sI16
(lp20
sI17
(lp21
sI18
(lp22
ssI1
(dp23
I0
g5
sI1
(lp24
sI2
(lp25
sI3
(lp26
Vhttp://dbpedia.org/ontology/abstract
p27
aVhttp://www.w3.org/2000/01/rdf-schema#comment
p28
asI4
(lp29
sI5
(lp30
sI6
(lp31
sI7
(lp32
sI8
(lp33
sI9
(lp34
sI10
(lp35
sI11
(lp36
sI12
(lp37
sI13
(lp38
sI14
(lp39
sI15
(lp40
sI16
(lp41
sI17
(lp42
sI18
(lp43
ssI2
(dp44
I0
g6
sI1
g25
sI2
(lp45
sI3
(lp46
sI4
(lp47
sI5
(lp48
sI6
(lp49
sI7
(lp50
sI8
(lp51
sI9
(lp52
sI10
(lp53
sI11
(lp54
sI12
(lp55
sI13
(lp56
sI14
(lp57
sI15
(lp58
sI16
(lp59
sI17
(lp60
sI18
(lp61
ssI3
(dp62
I0
g7
sI1
g26
sI2
g46
sI3
(lp63
sI4
(lp64
sI5
(lp65
sI6
(lp66
sI7
(lp67
sI8
(lp68
sI9
(lp69
sI10
(lp70
sI11
(lp71
sI12
(lp72
sI13
(lp73
sI14
(lp74
sI15
(lp75
sI16
(lp76
sI17
(lp77
sI18
(lp78
ssI4
(dp79
I0
g8
sI1
g29
sI2
g47
sI3
g64
sI4
(lp80
sI5
(lp81
sI6
(lp82
sI7
(lp83
sI8
(lp84
sI9
(lp85
sI10
(lp86
sI11
(lp87
sI12
(lp88
sI13
(lp89
sI14
(lp90
sI15
(lp91
sI16
(lp92
sI17
(lp93
sI18
(lp94
ssI5
(dp95
I0
g9
sI1
g30
sI2
g48
sI3
g65
sI4
g81
sI5
(lp96
sI6
(lp97
Vhttp://dbpedia.org/ontology/abstract
p98
aVhttp://purl.org/dc/terms/subject
p99
aVhttp://www.w3.org/2000/01/rdf-schema#comment
p100
asI7
(lp101
sI8
(lp102
sI9
(lp103
sI10
(lp104
sI11
(lp105
sI12
(lp106
sI13
(lp107
sI14
(lp108
sI15
(lp109
sI16
(lp110
sI17
(lp111
sI18
(lp112
ssI6
(dp113
I0
g10
sI1
g31
sI2
g49
sI3
g66
sI4
g82
sI5
g97
sI6
(lp114
sI7
(lp115
sI8
(lp116
sI9
(lp117
sI10
(lp118
sI11
(lp119
sI12
(lp120
sI13
(lp121
sI14
(lp122
sI15
(lp123
sI16
(lp124
sI17
(lp125
sI18
(lp126
ssI7
(dp127
I0
g11
sI1
g32
sI2
g50
sI3
g67
sI4
g83
sI5
g101
sI6
g115
sI7
(lp128
sI8
(lp129
sI9
(lp130
sI10
(lp131
sI11
(lp132
sI12
(lp133
sI13
(lp134
sI14
(lp135
sI15
(lp136
sI16
(lp137
sI17
(lp138
sI18
(lp139
ssI8
(dp140
I0
g12
sI1
g33
sI2
g51
sI3
g68
sI4
g84
sI5
g102
sI6
g116
sI7
g129
sI8
(lp141
sI9
(lp142
sI10
(lp143
sI11
(lp144
sI12
(lp145
sI13
(lp146
sI14
(lp147
sI15
(lp148
sI16
(lp149
sI17
(lp150
sI18
(lp151
ssI9
(dp152
I0
g13
sI1
g34
sI2
g52
sI3
g69
sI4
g85
sI5
g103
sI6
g117
sI7
g130
sI8
g142
sI9
(lp153
sI10
(lp154
sI11
(lp155
sI12
(lp156
sI13
(lp157
sI14
(lp158
sI15
(lp159
sI16
(lp160
sI17
(lp161
sI18
(lp162
ssI10
(dp163
I0
g14
sI1
g35
sI2
g53
sI3
g70
sI4
g86
sI5
g104
sI6
g118
sI7
g131
sI8
g143
sI9
g154
sI10
(lp164
sI11
(lp165
sI12
(lp166
sI13
(lp167
sI14
(lp168
sI15
(lp169
sI16
(lp170
sI17
(lp171
sI18
(lp172
ssI11
(dp173
I0
g15
sI1
g36
sI2
g54
sI3
g71
sI4
g87
sI5
g105
sI6
g119
sI7
g132
sI8
g144
sI9
g155
sI10
g165
sI11
(lp174
sI12
(lp175
sI13
(lp176
sI14
(lp177
sI15
(lp178
sI16
(lp179
sI17
(lp180
sI18
(lp181
ssI12
(dp182
I0
g16
sI1
g37
sI2
g55
sI3
g72
sI4
g88
sI5
g106
sI6
g120
sI7
g133
sI8
g145
sI9
g156
sI10
g166
sI11
g175
sI12
(lp183
sI13
(lp184
sI14
(lp185
sI15
(lp186
sI16
(lp187
sI17
(lp188
sI18
(lp189
ssI13
(dp190
I0
g17
sI1
g38
sI2
g56
sI3
g73
sI4
g89
sI5
g107
sI6
g121
sI7
g134
sI8
g146
sI9
g157
sI10
g167
sI11
g176
sI12
g184
sI13
(lp191
sI14
(lp192
sI15
(lp193
sI16
(lp194
sI17
(lp195
sI18
(lp196
ssI14
(dp197
I0
g18
sI1
g39
sI2
g57
sI3
g74
sI4
g90
sI5
g108
sI6
g122
sI7
g135
sI8
g147
sI9
g158
sI10
g168
sI11
g177
sI12
g185
sI13
g192
sI14
(lp198
sI15
(lp199
sI16
(lp200
sI17
(lp201
sI18
(lp202
ssI15
(dp203
I0
g19
sI1
g40
sI2
g58
sI3
g75
sI4
g91
sI5
g109
sI6
g123
sI7
g136
sI8
g148
sI9
g159
sI10
g169
sI11
g178
sI12
g186
sI13
g193
sI14
g199
sI15
(lp204
sI16
(lp205
sI17
(lp206
sI18
(lp207
ssI16
(dp208
I0
g20
sI1
g41
sI2
g59
sI3
g76
sI4
g92
sI5
g110
sI6
g124
sI7
g137
sI8
g149
sI9
g160
sI10
g170
sI11
g179
sI12
g187
sI13
g194
sI14
g200
sI15
g205
sI16
(lp209
sI17
(lp210
sI18
(lp211
ssI17
(dp212
I0
g21
sI1
g42
sI2
g60
sI3
g77
sI4
g93
sI5
g111
sI6
g125
sI7
g138
sI8
g150
sI9
g161
sI10
g171
sI11
g180
sI12
g188
sI13
g195
sI14
g201
sI15
g206
sI16
g210
sI17
(lp213
sI18
(lp214
Vhttp://xmlns.com/foaf/0.1/name
p215
aVhttp://dbpedia.org/ontology/abstract
p216
aVhttp://www.w3.org/2000/01/rdf-schema#label
p217
aVhttp://dbpedia.org/property/name
p218
assI18
(dp219
I0
g22
sI1
g43
sI2
g61
sI3
g78
sI4
g94
sI5
g112
sI6
g126
sI7
g139
sI8
g151
sI9
g162
sI10
g172
sI11
g181
sI12
g189
sI13
g196
sI14
g202
sI15
g207
sI16
g211
sI17
g214
sI18
(lp220
ssa.