ccollections
defaultdict
p1
(c__builtin__
dict
p2
tRp3
I1
(dp4
I0
(lp5
sI1
(lp6
sI2
(lp7
sI4
(lp8
sI5
(lp9
sI6
(lp10
ssI3
(dp11
I0
(lp12
sI1
(lp13
sI2
(lp14
sI4
(lp15
sI5
(lp16
sI6
(lp17
ssI4
(dp18
I0
(lp19
sI1
(lp20
sI2
(lp21
sI4
(lp22
sI5
(lp23
sI6
(lp24
ssI5
(dp25
I0
(lp26
Vhttp://www.w3.org/ns/prov#wasDerivedFrom
p27
asI1
(lp28
sI2
(lp29
sI4
(lp30
sI5
(lp31
sI6
(lp32
ssI7
(dp33
I0
(lp34
sI1
(lp35
sI2
(lp36
sI4
(lp37
sI5
(lp38
sI6
(lp39
ssI8
(dp40
I0
(lp41
sI1
(lp42
sI2
(lp43
sI4
(lp44
sI5
(lp45
sI6
(lp46
ssI10
(dp47
I0
(lp48
sI1
(lp49
sI2
(lp50
sI4
(lp51
sI5
(lp52
sI6
(lp53
ssI11
(dp54
I0
(lp55
Vhttp://www.w3.org/ns/prov#wasDerivedFrom
p56
asI1
(lp57
sI2
(lp58
sI4
(lp59
sI5
(lp60
sI6
(lp61
ssI12
(dp62
I0
(lp63
sI1
(lp64
sI2
(lp65
sI4
(lp66
sI5
(lp67
sI6
(lp68
ssI13
(dp69
I0
(lp70
Vhttp://www.w3.org/ns/prov#wasDerivedFrom
p71
asI1
(lp72
sI2
(lp73
Vhttp://dbpedia.org/property/missionType
p74
asI4
(lp75
sI5
(lp76
sI6
(lp77
ssI14
(dp78
I0
(lp79
sI1
(lp80
sI2
(lp81
sI4
(lp82
sI5
(lp83
sI6
(lp84
ssI16
(dp85
I0
(lp86
Vhttp://www.w3.org/ns/prov#wasDerivedFrom
p87
asI1
(lp88
sI2
(lp89
sI4
(lp90
sI5
(lp91
sI6
(lp92
ssI17
(dp93
I0
(lp94
Vhttp://www.w3.org/ns/prov#wasDerivedFrom
p95
asI1
(lp96
sI2
(lp97
sI4
(lp98
sI5
(lp99
sI6
(lp100
ssI18
(dp101
I0
(lp102
sI1
(lp103
sI2
(lp104
sI4
(lp105
sI5
(lp106
sI6
(lp107
ss.