(lp1
(lp2
(lp3
a(lp4
aa(lp5
(lp6
a(lp7
aa(lp8
(lp9
a(lp10
aa(lp11
(lp12
Vhttp://dbpedia.org/resource/Roman_Catholic_Archdiocese_of_Korhogo
p13
aa(lp14
aa(lp15
(lp16
a(lp17
aa(lp18
(lp19
a(lp20
aa(lp21
(lp22
Vhttp://dbpedia.org/resource/Anglican_Diocese_of_San_Joaquin_(ACNA)
p23
aa(lp24
aa(lp25
(lp26
Vhttp://dbpedia.org/resource/Diocese_of_Niagara
p27
aa(lp28
aa(lp29
(lp30
Vhttp://dbpedia.org/resource/Diocese_of_Sodor_and_Man
p31
aa(lp32
aa(lp33
(lp34
Vhttp://dbpedia.org/resource/Episcopal_Diocese_of_Eau_Claire
p35
aa(lp36
aa(lp37
(lp38
Vhttp://dbpedia.org/resource/Episcopal_Diocese_of_Fond_du_Lac
p39
aa(lp40
aa(lp41
(lp42
Vhttp://dbpedia.org/resource/Episcopal_Diocese_of_San_Joaquin
p43
aa(lp44
aa(lp45
(lp46
a(lp47
aa(lp48
(lp49
a(lp50
aa(lp51
(lp52
Vhttp://dbpedia.org/resource/Roman_Catholic_Diocese_of_Ferns
p53
aa(lp54
aa(lp55
(lp56
a(lp57
aa(lp58
(lp59
a(lp60
aa(lp61
(lp62
a(lp63
aa(lp64
(lp65
a(lp66
aa.