(lp1
(lp2
(lp3
a(lp4
aa(lp5
(lp6
a(lp7
aa(lp8
(lp9
a(lp10
aa(lp11
(lp12
((lp13
Vhttp://www.w3.org/2003/01/geo/wgs84_pos#SpatialThing
p14
aVhttp://dbpedia.org/resource/Roman_Catholic_Archdiocese_of_Korhogo
tp15
aa(lp16
aa(lp17
(lp18
a(lp19
aa(lp20
(lp21
a(lp22
aa(lp23
(lp24
((lp25
Vhttp://www.w3.org/2002/07/owl#Thing
p26
aVhttp://dbpedia.org/ontology/Place
p27
aVhttp://dbpedia.org/ontology/Location
p28
aVhttp://www.wikidata.org/entity/Q3455524
p29
aVhttp://www.wikidata.org/entity/Q486972
p30
aVhttp://dbpedia.org/ontology/AdministrativeRegion
p31
aVhttp://dbpedia.org/ontology/ClericalAdministrativeRegion
p32
aVhttp://dbpedia.org/ontology/Diocese
p33
aVhttp://dbpedia.org/ontology/PopulatedPlace
p34
aVhttp://dbpedia.org/ontology/Region
p35
aVhttp://www.w3.org/2003/01/geo/wgs84_pos#SpatialThing
p36
aVhttp://schema.org/AdministrativeArea
p37
aVhttp://schema.org/Place
p38
aVhttp://dbpedia.org/resource/Anglican_Diocese_of_San_Joaquin_(ACNA)
tp39
aa(lp40
aa(lp41
(lp42
((lp43
Vhttp://www.w3.org/2002/07/owl#Thing
p44
aVhttp://dbpedia.org/ontology/Place
p45
aVhttp://dbpedia.org/ontology/Location
p46
aVhttp://www.wikidata.org/entity/Q3455524
p47
aVhttp://www.wikidata.org/entity/Q486972
p48
aVhttp://dbpedia.org/ontology/AdministrativeRegion
p49
aVhttp://dbpedia.org/ontology/ClericalAdministrativeRegion
p50
aVhttp://dbpedia.org/ontology/Diocese
p51
aVhttp://dbpedia.org/ontology/PopulatedPlace
p52
aVhttp://dbpedia.org/ontology/Region
p53
aVhttp://www.w3.org/2003/01/geo/wgs84_pos#SpatialThing
p54
aVhttp://schema.org/AdministrativeArea
p55
aVhttp://schema.org/Place
p56
aVhttp://dbpedia.org/resource/Diocese_of_Niagara
tp57
aa(lp58
aa(lp59
(lp60
((lp61
Vhttp://www.w3.org/2002/07/owl#Thing
p62
aVhttp://dbpedia.org/ontology/Place
p63
aVhttp://dbpedia.org/ontology/Location
p64
aVhttp://www.wikidata.org/entity/Q3455524
p65
aVhttp://www.wikidata.org/entity/Q486972
p66
aVhttp://dbpedia.org/ontology/AdministrativeRegion
p67
aVhttp://dbpedia.org/ontology/ClericalAdministrativeRegion
p68
aVhttp://dbpedia.org/ontology/Diocese
p69
aVhttp://dbpedia.org/ontology/PopulatedPlace
p70
aVhttp://dbpedia.org/ontology/Region
p71
aVhttp://www.w3.org/2003/01/geo/wgs84_pos#SpatialThing
p72
aVhttp://schema.org/AdministrativeArea
p73
aVhttp://schema.org/Place
p74
aVhttp://dbpedia.org/resource/Diocese_of_Sodor_and_Man
tp75
aa(lp76
aa(lp77
(lp78
((lp79
Vhttp://dbpedia.org/class/yago/Artifact100021939
p80
aVhttp://dbpedia.org/class/yago/Building102913152
p81
aVhttp://dbpedia.org/class/yago/Church103028079
p82
aVhttp://dbpedia.org/class/yago/Object100002684
p83
aVhttp://dbpedia.org/class/yago/PlaceOfWorship103953416
p84
aVhttp://dbpedia.org/class/yago/Structure104341686
p85
aVhttp://dbpedia.org/class/yago/Whole100003553
p86
aVhttp://dbpedia.org/class/yago/YagoGeoEntity
p87
aVhttp://www.w3.org/2002/07/owl#Thing
p88
aVhttp://dbpedia.org/ontology/Place
p89
aVhttp://dbpedia.org/ontology/Location
p90
aVhttp://www.wikidata.org/entity/Q3455524
p91
aVhttp://www.wikidata.org/entity/Q486972
p92
aVhttp://dbpedia.org/ontology/AdministrativeRegion
p93
aVhttp://dbpedia.org/ontology/ClericalAdministrativeRegion
p94
aVhttp://dbpedia.org/ontology/Diocese
p95
aVhttp://dbpedia.org/ontology/PopulatedPlace
p96
aVhttp://dbpedia.org/ontology/Region
p97
aVhttp://schema.org/AdministrativeArea
p98
aVhttp://schema.org/Place
p99
aVhttp://dbpedia.org/class/yago/EpiscopalChurchesInWisconsin
p100
aVhttp://dbpedia.org/class/yago/YagoPermanentlyLocatedEntity
p101
aVhttp://dbpedia.org/class/yago/PhysicalEntity100001930
p102
aVhttp://dbpedia.org/resource/Episcopal_Diocese_of_Eau_Claire
tp103
aa(lp104
aa(lp105
(lp106
((lp107
Vhttp://dbpedia.org/class/yago/Diocese108550966
p108
aVhttp://dbpedia.org/class/yago/District108552138
p109
aVhttp://dbpedia.org/class/yago/Jurisdiction108590369
p110
aVhttp://dbpedia.org/class/yago/Location100027167
p111
aVhttp://dbpedia.org/class/yago/Object100002684
p112
aVhttp://dbpedia.org/class/yago/Region108630985
p113
aVhttp://dbpedia.org/class/yago/YagoGeoEntity
p114
aVhttp://dbpedia.org/class/yago/YagoLegalActorGeo
p115
aVhttp://www.w3.org/2002/07/owl#Thing
p116
aVhttp://dbpedia.org/ontology/Place
p117
aVhttp://dbpedia.org/ontology/Location
p118
aVhttp://www.wikidata.org/entity/Q3455524
p119
aVhttp://www.wikidata.org/entity/Q486972
p120
aVhttp://dbpedia.org/ontology/AdministrativeRegion
p121
aVhttp://dbpedia.org/ontology/ClericalAdministrativeRegion
p122
aVhttp://dbpedia.org/ontology/Diocese
p123
aVhttp://dbpedia.org/ontology/PopulatedPlace
p124
aVhttp://dbpedia.org/ontology/Region
p125
aVhttp://schema.org/AdministrativeArea
p126
aVhttp://schema.org/Place
p127
aVhttp://dbpedia.org/class/yago/YagoPermanentlyLocatedEntity
p128
aVhttp://dbpedia.org/class/yago/PhysicalEntity100001930
p129
aVhttp://dbpedia.org/resource/Episcopal_Diocese_of_Fond_du_Lac
tp130
aa(lp131
aa(lp132
(lp133
((lp134
Vhttp://dbpedia.org/class/yago/Diocese108550966
p135
aVhttp://dbpedia.org/class/yago/District108552138
p136
aVhttp://dbpedia.org/class/yago/Jurisdiction108590369
p137
aVhttp://dbpedia.org/class/yago/Location100027167
p138
aVhttp://dbpedia.org/class/yago/Object100002684
p139
aVhttp://dbpedia.org/class/yago/Region108630985
p140
aVhttp://dbpedia.org/class/yago/YagoGeoEntity
p141
aVhttp://dbpedia.org/class/yago/YagoLegalActorGeo
p142
aVhttp://www.w3.org/2002/07/owl#Thing
p143
aVhttp://dbpedia.org/ontology/Place
p144
aVhttp://dbpedia.org/ontology/Location
p145
aVhttp://www.wikidata.org/entity/Q3455524
p146
aVhttp://www.wikidata.org/entity/Q486972
p147
aVhttp://dbpedia.org/ontology/AdministrativeRegion
p148
aVhttp://dbpedia.org/ontology/ClericalAdministrativeRegion
p149
aVhttp://dbpedia.org/ontology/Diocese
p150
aVhttp://dbpedia.org/ontology/PopulatedPlace
p151
aVhttp://dbpedia.org/ontology/Region
p152
aVhttp://www.w3.org/2003/01/geo/wgs84_pos#SpatialThing
p153
aVhttp://schema.org/AdministrativeArea
p154
aVhttp://schema.org/Place
p155
aVhttp://dbpedia.org/class/yago/YagoPermanentlyLocatedEntity
p156
aVhttp://dbpedia.org/class/yago/PhysicalEntity100001930
p157
aVhttp://dbpedia.org/resource/Episcopal_Diocese_of_San_Joaquin
tp158
aa(lp159
aa(lp160
(lp161
a(lp162
aa(lp163
(lp164
a(lp165
aa(lp166
(lp167
((lp168
Vhttp://dbpedia.org/class/yago/Diocese108550966
p169
aVhttp://dbpedia.org/class/yago/District108552138
p170
aVhttp://dbpedia.org/class/yago/Jurisdiction108590369
p171
aVhttp://dbpedia.org/class/yago/Location100027167
p172
aVhttp://dbpedia.org/class/yago/Object100002684
p173
aVhttp://dbpedia.org/class/yago/Region108630985
p174
aVhttp://dbpedia.org/class/yago/YagoGeoEntity
p175
aVhttp://dbpedia.org/class/yago/YagoLegalActorGeo
p176
aVhttp://www.w3.org/2002/07/owl#Thing
p177
aVhttp://dbpedia.org/ontology/Place
p178
aVhttp://dbpedia.org/ontology/Location
p179
aVhttp://www.wikidata.org/entity/Q3455524
p180
aVhttp://www.wikidata.org/entity/Q486972
p181
aVhttp://dbpedia.org/ontology/AdministrativeRegion
p182
aVhttp://dbpedia.org/ontology/ClericalAdministrativeRegion
p183
aVhttp://dbpedia.org/ontology/Diocese
p184
aVhttp://dbpedia.org/ontology/PopulatedPlace
p185
aVhttp://dbpedia.org/ontology/Region
p186
aVhttp://schema.org/AdministrativeArea
p187
aVhttp://schema.org/Place
p188
aVhttp://dbpedia.org/class/yago/YagoPermanentlyLocatedEntity
p189
aVhttp://dbpedia.org/class/yago/PhysicalEntity100001930
p190
aVhttp://dbpedia.org/resource/Roman_Catholic_Diocese_of_Ferns
p191
tp192
aa(lp193
aa(lp194
(lp195
a(lp196
aa(lp197
(lp198
a(lp199
aa(lp200
(lp201
a(lp202
aa(lp203
(lp204
a(lp205
aa.