(lp1
(lp2
(lp3
((lp4
Vhttp://dbpedia.org/class/yago/Diocese108550966
p5
aVhttp://dbpedia.org/class/yago/District108552138
p6
aVhttp://dbpedia.org/class/yago/Jurisdiction108590369
p7
aVhttp://dbpedia.org/class/yago/Location100027167
p8
aVhttp://dbpedia.org/class/yago/Object100002684
p9
aVhttp://dbpedia.org/class/yago/Region108630985
p10
aVhttp://dbpedia.org/class/yago/YagoGeoEntity
p11
aVhttp://dbpedia.org/class/yago/YagoLegalActorGeo
p12
aVhttp://www.w3.org/2002/07/owl#Thing
p13
aVhttp://dbpedia.org/ontology/Place
p14
aVhttp://dbpedia.org/ontology/Location
p15
aVhttp://www.wikidata.org/entity/Q3455524
p16
aVhttp://www.wikidata.org/entity/Q486972
p17
aVhttp://dbpedia.org/ontology/AdministrativeRegion
p18
aVhttp://dbpedia.org/ontology/ClericalAdministrativeRegion
p19
aVhttp://dbpedia.org/ontology/Diocese
p20
aVhttp://dbpedia.org/ontology/PopulatedPlace
p21
aVhttp://dbpedia.org/ontology/Region
p22
aVhttp://schema.org/AdministrativeArea
p23
aVhttp://schema.org/Place
p24
aVhttp://dbpedia.org/class/yago/YagoPermanentlyLocatedEntity
p25
aVhttp://dbpedia.org/class/yago/PhysicalEntity100001930
p26
aVhttp://dbpedia.org/resource/Roman_Catholic_Diocese_of_Ferns
tp27
aa(lp28
((lp29
Vhttp://dbpedia.org/class/yago/Diocese108550966
p30
aVhttp://dbpedia.org/class/yago/District108552138
p31
aVhttp://dbpedia.org/class/yago/Jurisdiction108590369
p32
aVhttp://dbpedia.org/class/yago/Location100027167
p33
aVhttp://dbpedia.org/class/yago/Object100002684
p34
aVhttp://dbpedia.org/class/yago/Region108630985
p35
aVhttp://dbpedia.org/class/yago/YagoGeoEntity
p36
aVhttp://dbpedia.org/class/yago/YagoLegalActorGeo
p37
aVhttp://www.w3.org/2002/07/owl#Thing
p38
aVhttp://dbpedia.org/ontology/Place
p39
aVhttp://dbpedia.org/ontology/Location
p40
aVhttp://www.wikidata.org/entity/Q3455524
p41
aVhttp://www.wikidata.org/entity/Q486972
p42
aVhttp://dbpedia.org/ontology/AdministrativeRegion
p43
aVhttp://dbpedia.org/ontology/ClericalAdministrativeRegion
p44
aVhttp://dbpedia.org/ontology/Diocese
p45
aVhttp://dbpedia.org/ontology/PopulatedPlace
p46
aVhttp://dbpedia.org/ontology/Region
p47
aVhttp://schema.org/AdministrativeArea
p48
aVhttp://schema.org/Place
p49
aVhttp://dbpedia.org/class/yago/YagoPermanentlyLocatedEntity
p50
aVhttp://dbpedia.org/class/yago/PhysicalEntity100001930
p51
aVhttp://dbpedia.org/resource/Roman_Catholic_Diocese_of_Ferns
tp52
aa(lp53
a(lp54
a(lp55
((lp56
Vhttp://dbpedia.org/class/yago/Diocese108550966
p57
aVhttp://dbpedia.org/class/yago/District108552138
p58
aVhttp://dbpedia.org/class/yago/Jurisdiction108590369
p59
aVhttp://dbpedia.org/class/yago/Location100027167
p60
aVhttp://dbpedia.org/class/yago/Object100002684
p61
aVhttp://dbpedia.org/class/yago/Region108630985
p62
aVhttp://dbpedia.org/class/yago/YagoGeoEntity
p63
aVhttp://dbpedia.org/class/yago/YagoLegalActorGeo
p64
aVhttp://www.w3.org/2002/07/owl#Thing
p65
aVhttp://dbpedia.org/ontology/Place
p66
aVhttp://dbpedia.org/ontology/Location
p67
aVhttp://www.wikidata.org/entity/Q3455524
p68
aVhttp://www.wikidata.org/entity/Q486972
p69
aVhttp://dbpedia.org/ontology/AdministrativeRegion
p70
aVhttp://dbpedia.org/ontology/ClericalAdministrativeRegion
p71
aVhttp://dbpedia.org/ontology/Diocese
p72
aVhttp://dbpedia.org/ontology/PopulatedPlace
p73
aVhttp://dbpedia.org/ontology/Region
p74
aVhttp://schema.org/AdministrativeArea
p75
aVhttp://schema.org/Place
p76
aVhttp://dbpedia.org/class/yago/YagoPermanentlyLocatedEntity
p77
aVhttp://dbpedia.org/class/yago/PhysicalEntity100001930
p78
aVhttp://dbpedia.org/resource/Roman_Catholic_Diocese_of_Ferns
tp79
aa(lp80
((lp81
Vhttp://dbpedia.org/class/yago/Abstraction100002137
p82
aVhttp://dbpedia.org/class/yago/Group100031264
p83
aVhttp://dbpedia.org/class/yago/Organization108008335
p84
aVhttp://dbpedia.org/class/yago/SocialGroup107950920
p85
aVhttp://dbpedia.org/class/yago/YagoLegalActorGeo
p86
aVhttp://dbpedia.org/class/yago/ReligiousOrganizationsEstablishedIn1983
p87
aVhttp://www.w3.org/2002/07/owl#Thing
p88
aVhttp://dbpedia.org/ontology/Place
p89
aVhttp://dbpedia.org/ontology/Location
p90
aVhttp://www.wikidata.org/entity/Q3455524
p91
aVhttp://www.wikidata.org/entity/Q486972
p92
aVhttp://dbpedia.org/ontology/AdministrativeRegion
p93
aVhttp://dbpedia.org/ontology/ClericalAdministrativeRegion
p94
aVhttp://dbpedia.org/ontology/Diocese
p95
aVhttp://dbpedia.org/ontology/PopulatedPlace
p96
aVhttp://dbpedia.org/ontology/Region
p97
aVhttp://www.w3.org/2003/01/geo/wgs84_pos#SpatialThing
p98
aVhttp://schema.org/AdministrativeArea
p99
aVhttp://schema.org/Place
p100
aVhttp://dbpedia.org/class/yago/YagoPermanentlyLocatedEntity
p101
aVhttp://dbpedia.org/class/yago/YagoLegalActor
p102
aVhttp://dbpedia.org/resource/Ukrainian_Catholic_Eparchy_of_Saint_Josaphat_in_Parma
tp103
aa(lp104
((lp105
Vhttp://dbpedia.org/class/yago/Diocese108550966
p106
aVhttp://dbpedia.org/class/yago/District108552138
p107
aVhttp://dbpedia.org/class/yago/Jurisdiction108590369
p108
aVhttp://dbpedia.org/class/yago/Location100027167
p109
aVhttp://dbpedia.org/class/yago/Object100002684
p110
aVhttp://dbpedia.org/class/yago/Region108630985
p111
aVhttp://dbpedia.org/class/yago/YagoGeoEntity
p112
aVhttp://dbpedia.org/class/yago/YagoLegalActorGeo
p113
aVhttp://www.w3.org/2002/07/owl#Thing
p114
aVhttp://dbpedia.org/ontology/Place
p115
aVhttp://dbpedia.org/ontology/Location
p116
aVhttp://www.wikidata.org/entity/Q3455524
p117
aVhttp://www.wikidata.org/entity/Q486972
p118
aVhttp://dbpedia.org/ontology/AdministrativeRegion
p119
aVhttp://dbpedia.org/ontology/ClericalAdministrativeRegion
p120
aVhttp://dbpedia.org/ontology/Diocese
p121
aVhttp://dbpedia.org/ontology/PopulatedPlace
p122
aVhttp://dbpedia.org/ontology/Region
p123
aVhttp://www.w3.org/2003/01/geo/wgs84_pos#SpatialThing
p124
aVhttp://schema.org/AdministrativeArea
p125
aVhttp://schema.org/Place
p126
aVhttp://dbpedia.org/class/yago/YagoPermanentlyLocatedEntity
p127
aVhttp://dbpedia.org/class/yago/PhysicalEntity100001930
p128
aVhttp://dbpedia.org/resource/Episcopal_Diocese_of_Utah
tp129
aa(lp130
a(lp131
a(lp132
a(lp133
a(lp134
a(lp135
a(lp136
((lp137
Vhttp://dbpedia.org/class/yago/Diocese108550966
p138
aVhttp://dbpedia.org/class/yago/District108552138
p139
aVhttp://dbpedia.org/class/yago/Jurisdiction108590369
p140
aVhttp://dbpedia.org/class/yago/Location100027167
p141
aVhttp://dbpedia.org/class/yago/Object100002684
p142
aVhttp://dbpedia.org/class/yago/Region108630985
p143
aVhttp://dbpedia.org/class/yago/YagoGeoEntity
p144
aVhttp://dbpedia.org/class/yago/YagoLegalActorGeo
p145
aVhttp://www.w3.org/2002/07/owl#Thing
p146
aVhttp://dbpedia.org/ontology/Place
p147
aVhttp://dbpedia.org/ontology/Location
p148
aVhttp://www.wikidata.org/entity/Q3455524
p149
aVhttp://www.wikidata.org/entity/Q486972
p150
aVhttp://dbpedia.org/ontology/AdministrativeRegion
p151
aVhttp://dbpedia.org/ontology/ClericalAdministrativeRegion
p152
aVhttp://dbpedia.org/ontology/Diocese
p153
aVhttp://dbpedia.org/ontology/PopulatedPlace
p154
aVhttp://dbpedia.org/ontology/Region
p155
aVhttp://schema.org/AdministrativeArea
p156
aVhttp://schema.org/Place
p157
aVhttp://dbpedia.org/class/yago/YagoPermanentlyLocatedEntity
p158
aVhttp://dbpedia.org/class/yago/PhysicalEntity100001930
p159
aVhttp://dbpedia.org/resource/Roman_Catholic_Diocese_of_Ferns
tp160
aa(lp161
a(lp162
a(lp163
((lp164
Vhttp://dbpedia.org/class/yago/Diocese108550966
p165
aVhttp://dbpedia.org/class/yago/District108552138
p166
aVhttp://dbpedia.org/class/yago/Jurisdiction108590369
p167
aVhttp://dbpedia.org/class/yago/Location100027167
p168
aVhttp://dbpedia.org/class/yago/Object100002684
p169
aVhttp://dbpedia.org/class/yago/Region108630985
p170
aVhttp://dbpedia.org/class/yago/YagoGeoEntity
p171
aVhttp://dbpedia.org/class/yago/YagoLegalActorGeo
p172
aVhttp://www.w3.org/2002/07/owl#Thing
p173
aVhttp://dbpedia.org/ontology/Place
p174
aVhttp://dbpedia.org/ontology/Location
p175
aVhttp://www.wikidata.org/entity/Q3455524
p176
aVhttp://www.wikidata.org/entity/Q486972
p177
aVhttp://dbpedia.org/ontology/AdministrativeRegion
p178
aVhttp://dbpedia.org/ontology/ClericalAdministrativeRegion
p179
aVhttp://dbpedia.org/ontology/Diocese
p180
aVhttp://dbpedia.org/ontology/PopulatedPlace
p181
aVhttp://dbpedia.org/ontology/Region
p182
aVhttp://www.w3.org/2003/01/geo/wgs84_pos#SpatialThing
p183
aVhttp://schema.org/AdministrativeArea
p184
aVhttp://schema.org/Place
p185
aVhttp://dbpedia.org/class/yago/YagoPermanentlyLocatedEntity
p186
aVhttp://dbpedia.org/class/yago/PhysicalEntity100001930
p187
aVhttp://dbpedia.org/resource/Anglican_Diocese_of_Peterborough
tp188
aa(lp189
((lp190
Vhttp://dbpedia.org/class/yago/Abstraction100002137
p191
aVhttp://dbpedia.org/class/yago/Group100031264
p192
aVhttp://dbpedia.org/class/yago/Organization108008335
p193
aVhttp://dbpedia.org/class/yago/SocialGroup107950920
p194
aVhttp://dbpedia.org/class/yago/YagoLegalActorGeo
p195
aVhttp://dbpedia.org/class/yago/ReligiousOrganizationsEstablishedIn1927
p196
aVhttp://www.w3.org/2002/07/owl#Thing
p197
aVhttp://dbpedia.org/ontology/Place
p198
aVhttp://dbpedia.org/ontology/Location
p199
aVhttp://www.wikidata.org/entity/Q3455524
p200
aVhttp://www.wikidata.org/entity/Q486972
p201
aVhttp://dbpedia.org/ontology/AdministrativeRegion
p202
aVhttp://dbpedia.org/ontology/ClericalAdministrativeRegion
p203
aVhttp://dbpedia.org/ontology/Diocese
p204
aVhttp://dbpedia.org/ontology/PopulatedPlace
p205
aVhttp://dbpedia.org/ontology/Region
p206
aVhttp://www.w3.org/2003/01/geo/wgs84_pos#SpatialThing
p207
aVhttp://schema.org/AdministrativeArea
p208
aVhttp://schema.org/Place
p209
aVhttp://dbpedia.org/class/yago/YagoPermanentlyLocatedEntity
p210
aVhttp://dbpedia.org/class/yago/OrganisationsBasedInHampshire
p211
aVhttp://dbpedia.org/class/yago/YagoLegalActor
p212
aVhttp://dbpedia.org/resource/Anglican_Diocese_of_Portsmouth
tp213
aa(lp214
((lp215
Vhttp://dbpedia.org/class/yago/Diocese108550966
p216
aVhttp://dbpedia.org/class/yago/District108552138
p217
aVhttp://dbpedia.org/class/yago/Jurisdiction108590369
p218
aVhttp://dbpedia.org/class/yago/Location100027167
p219
aVhttp://dbpedia.org/class/yago/Object100002684
p220
aVhttp://dbpedia.org/class/yago/Region108630985
p221
aVhttp://dbpedia.org/class/yago/YagoGeoEntity
p222
aVhttp://dbpedia.org/class/yago/YagoLegalActorGeo
p223
aVhttp://www.w3.org/2002/07/owl#Thing
p224
aVhttp://dbpedia.org/ontology/Place
p225
aVhttp://dbpedia.org/ontology/Location
p226
aVhttp://www.wikidata.org/entity/Q3455524
p227
aVhttp://www.wikidata.org/entity/Q486972
p228
aVhttp://dbpedia.org/ontology/AdministrativeRegion
p229
aVhttp://dbpedia.org/ontology/ClericalAdministrativeRegion
p230
aVhttp://dbpedia.org/ontology/Diocese
p231
aVhttp://dbpedia.org/ontology/PopulatedPlace
p232
aVhttp://dbpedia.org/ontology/Region
p233
aVhttp://www.w3.org/2003/01/geo/wgs84_pos#SpatialThing
p234
aVhttp://schema.org/AdministrativeArea
p235
aVhttp://schema.org/Place
p236
aVhttp://dbpedia.org/class/yago/YagoPermanentlyLocatedEntity
p237
aVhttp://dbpedia.org/class/yago/PhysicalEntity100001930
p238
aVhttp://dbpedia.org/resource/Anglican_Diocese_of_Southwark
p239
tp240
aaa.