ccollections
defaultdict
p1
(c__builtin__
dict
p2
tRp3
I4
(dp4
I0
(lp5
sI2
(lp6
sI3
(lp7
ssI15
(dp8
I0
(lp9
Vhttp://dbpedia.org/ontology/wikiPageExternalLink
p10
aVhttp://dbpedia.org/property/s
p11
asI2
(lp12
sI3
(lp13
ss.