(lp1
(lp2
(lp3
((lp4
Vhttp://dbpedia.org/class/yago/CausalAgent100007347
p5
aVhttp://dbpedia.org/class/yago/LivingThing100004258
p6
aVhttp://dbpedia.org/class/yago/Object100002684
p7
aVhttp://dbpedia.org/class/yago/Organism100004475
p8
aVhttp://dbpedia.org/class/yago/Person100007846
p9
aVhttp://dbpedia.org/class/yago/Whole100003553
p10
aVhttp://dbpedia.org/class/yago/YagoLegalActorGeo
p11
aVhttp://www.w3.org/2002/07/owl#Thing
p12
aVhttp://xmlns.com/foaf/0.1/Person
p13
aVhttp://dbpedia.org/ontology/Person
p14
aVhttp://www.ontologydesignpatterns.org/ont/dul/DUL.owl#Agent
p15
aVhttp://www.ontologydesignpatterns.org/ont/dul/DUL.owl#NaturalPerson
p16
aVhttp://www.wikidata.org/entity/Q215627
p17
aVhttp://www.wikidata.org/entity/Q5
p18
aVhttp://dbpedia.org/ontology/Agent
p19
aVhttp://schema.org/Person
p20
aVhttp://dbpedia.org/class/yago/YagoLegalActor
p21
aVhttp://dbpedia.org/class/yago/LivingPeople
p22
aVhttp://dbpedia.org/class/yago/PhysicalEntity100001930
p23
aVhttp://dbpedia.org/resource/Aleksander_Doba
tp24
aa(lp25
aa(lp26
(lp27
a(lp28
aa(lp29
(lp30
a(lp31
aa(lp32
(lp33
a(lp34
aa(lp35
(lp36
a(lp37
aa(lp38
(lp39
((lp40
Vhttp://www.w3.org/2002/07/owl#Thing
p41
aVhttp://xmlns.com/foaf/0.1/Person
p42
aVhttp://dbpedia.org/ontology/Person
p43
aVhttp://www.ontologydesignpatterns.org/ont/dul/DUL.owl#Agent
p44
aVhttp://www.ontologydesignpatterns.org/ont/dul/DUL.owl#NaturalPerson
p45
aVhttp://www.wikidata.org/entity/Q215627
p46
aVhttp://www.wikidata.org/entity/Q5
p47
aVhttp://www.wikidata.org/entity/Q937857
p48
aVhttp://dbpedia.org/ontology/Agent
p49
aVhttp://dbpedia.org/ontology/Athlete
p50
aVhttp://dbpedia.org/ontology/SoccerPlayer
p51
aVhttp://schema.org/Person
p52
aVhttp://dbpedia.org/resource/Declan_John
tp53
aa(lp54
aa(lp55
(lp56
a(lp57
aa(lp58
(lp59
a(lp60
aa(lp61
(lp62
a(lp63
aa(lp64
(lp65
a(lp66
aa(lp67
(lp68
a(lp69
aa(lp70
(lp71
a(lp72
aa(lp73
(lp74
a(lp75
aa(lp76
(lp77
a(lp78
aa(lp79
(lp80
a(lp81
aa(lp82
(lp83
a(lp84
aa(lp85
(lp86
((lp87
Vhttp://dbpedia.org/class/yago/BeautyPageantContestantsFromNorthCarolina
p88
aVhttp://dbpedia.org/class/yago/CausalAgent100007347
p89
aVhttp://dbpedia.org/class/yago/Communicator109610660
p90
aVhttp://dbpedia.org/class/yago/Contestant109613191
p91
aVhttp://dbpedia.org/class/yago/Delegate110000787
p92
aVhttp://dbpedia.org/class/yago/LivingThing100004258
p93
aVhttp://dbpedia.org/class/yago/Negotiator110351874
p94
aVhttp://dbpedia.org/class/yago/Object100002684
p95
aVhttp://dbpedia.org/class/yago/Organism100004475
p96
aVhttp://dbpedia.org/class/yago/Person100007846
p97
aVhttp://dbpedia.org/class/yago/Representative110522035
p98
aVhttp://dbpedia.org/class/yago/Whole100003553
p99
aVhttp://dbpedia.org/class/yago/YagoLegalActorGeo
p100
aVhttp://www.w3.org/2002/07/owl#Thing
p101
aVhttp://xmlns.com/foaf/0.1/Person
p102
aVhttp://dbpedia.org/ontology/Person
p103
aVhttp://www.ontologydesignpatterns.org/ont/dul/DUL.owl#Agent
p104
aVhttp://www.ontologydesignpatterns.org/ont/dul/DUL.owl#NaturalPerson
p105
aVhttp://www.wikidata.org/entity/Q215627
p106
aVhttp://www.wikidata.org/entity/Q5
p107
aVhttp://dbpedia.org/ontology/Agent
p108
aVhttp://dbpedia.org/ontology/BeautyQueen
p109
aVhttp://schema.org/Person
p110
aVhttp://dbpedia.org/class/yago/PeopleFromColonialHeights,Virginia
p111
aVhttp://dbpedia.org/class/yago/PeopleFromWilmington,NorthCarolina
p112
aVhttp://dbpedia.org/class/yago/YagoLegalActor
p113
aVhttp://dbpedia.org/class/yago/LivingPeople
p114
aVhttp://dbpedia.org/class/yago/MissUSA2011Delegates
p115
aVhttp://dbpedia.org/class/yago/PhysicalEntity100001930
p116
aVhttp://dbpedia.org/resource/Brittany_York
p117
tp118
aa(lp119
aa(lp120
(lp121
a(lp122
aa(lp123
(lp124
a(lp125
aa.