ccollections
defaultdict
p1
(c__builtin__
dict
p2
tRp3
I0
(dp4
I0
(lp5
Vhttp://dbpedia.org/ontology/abstract
p6
aVhttp://www.w3.org/2000/01/rdf-schema#comment
p7
asI2
(lp8
Vhttp://dbpedia.org/property/location
p9
aVhttp://dbpedia.org/ontology/abstract
p10
aVhttp://purl.org/dc/terms/subject
p11
aVhttp://dbpedia.org/ontology/location
p12
aVhttp://www.w3.org/2000/01/rdf-schema#comment
p13
asI3
(lp14
sI4
(lp15
Vhttp://dbpedia.org/ontology/abstract
p16
assI1
(dp17
I0
(lp18
Vhttp://dbpedia.org/ontology/abstract
p19
aVhttp://www.w3.org/1999/02/22-rdf-syntax-ns#type
p20
aVhttp://www.w3.org/2000/01/rdf-schema#comment
p21
asI2
(lp22
Vhttp://dbpedia.org/property/locationCity
p23
aVhttp://purl.org/dc/terms/subject
p24
aVhttp://dbpedia.org/ontology/abstract
p25
aVhttp://dbpedia.org/ontology/locationCity
p26
aVhttp://www.w3.org/2000/01/rdf-schema#comment
p27
asI3
(lp28
sI4
(lp29
Vhttp://dbpedia.org/ontology/wikiPageRedirects
p30
aVhttp://dbpedia.org/ontology/distributor
p31
aVhttp://dbpedia.org/property/homepage
p32
aVhttp://dbpedia.org/property/boards
p33
aVhttp://www.w3.org/ns/prov#wasDerivedFrom
p34
aVhttp://dbpedia.org/ontology/product
p35
aVhttp://dbpedia.org/property/parent
p36
aVhttp://dbpedia.org/property/distributor
p37
aVhttp://dbpedia.org/property/products
p38
aVhttp://xmlns.com/foaf/0.1/isPrimaryTopicOf
p39
aVhttp://dbpedia.org/ontology/wikiPageDisambiguates
p40
aVhttp://dbpedia.org/ontology/manufacturer
p41
aVhttp://dbpedia.org/ontology/wikiPageExternalLink
p42
aVhttp://xmlns.com/foaf/0.1/primaryTopic
p43
aVhttp://purl.org/dc/terms/subject
p44
aVhttp://dbpedia.org/property/manufacturer
p45
aVhttp://dbpedia.org/ontology/abstract
p46
aVhttp://xmlns.com/foaf/0.1/depiction
p47
aVhttp://dbpedia.org/ontology/foundedBy
p48
aVhttp://dbpedia.org/ontology/board
p49
aVhttp://dbpedia.org/ontology/parentCompany
p50
aVhttp://dbpedia.org/property/hasPhotoCollection
p51
aVhttp://www.w3.org/2000/01/rdf-schema#label
p52
aVhttp://www.w3.org/2000/01/rdf-schema#comment
p53
aVhttp://dbpedia.org/property/name
p54
aVhttp://dbpedia.org/property/founder
p55
aVhttp://xmlns.com/foaf/0.1/name
p56
aVhttp://xmlns.com/foaf/0.1/homepage
p57
aVhttp://www.w3.org/2002/07/owl#sameAs
p58
aVhttp://dbpedia.org/ontology/thumbnail
p59
assI2
(dp60
I0
(lp61
Vhttp://dbpedia.org/property/wordnet_type
p62
aVhttp://dbpedia.org/ontology/abstract
p63
asI2
(lp64
Vhttp://www.w3.org/1999/02/22-rdf-syntax-ns#type
p65
aVhttp://purl.org/dc/terms/subject
p66
aVhttp://dbpedia.org/ontology/location
p67
aVhttp://www.w3.org/2000/01/rdf-schema#comment
p68
aVhttp://dbpedia.org/ontology/abstract
p69
aVhttp://dbpedia.org/property/location
p70
asI3
(lp71
sI4
(lp72
Vhttp://dbpedia.org/ontology/abstract
p73
assI3
(dp74
I0
(lp75
Vhttp://www.w3.org/1999/02/22-rdf-syntax-ns#type
p76
asI2
(lp77
Vhttp://www.w3.org/1999/02/22-rdf-syntax-ns#type
p78
aVhttp://purl.org/dc/terms/subject
p79
aVhttp://dbpedia.org/ontology/location
p80
aVhttp://www.w3.org/2000/01/rdf-schema#comment
p81
aVhttp://dbpedia.org/ontology/abstract
p82
aVhttp://dbpedia.org/property/location
p83
asI3
(lp84
sI4
(lp85
Vhttp://dbpedia.org/ontology/owningCompany
p86
aVhttp://www.w3.org/2000/01/rdf-schema#comment
p87
aVhttp://dbpedia.org/ontology/abstract
p88
aVhttp://dbpedia.org/property/manufacturer
p89
aVhttp://dbpedia.org/property/parent
p90
aVhttp://dbpedia.org/ontology/owner
p91
aVhttp://dbpedia.org/property/owner
p92
aVhttp://dbpedia.org/ontology/parentCompany
p93
aVhttp://dbpedia.org/ontology/manufacturer
p94
assI4
(dp95
I0
(lp96
Vhttp://dbpedia.org/property/logo
p97
aVhttp://dbpedia.org/ontology/abstract
p98
asI2
(lp99
Vhttp://dbpedia.org/property/location
p100
aVhttp://dbpedia.org/ontology/abstract
p101
aVhttp://purl.org/dc/terms/subject
p102
aVhttp://dbpedia.org/ontology/location
p103
aVhttp://www.w3.org/2000/01/rdf-schema#comment
p104
asI3
(lp105
sI4
(lp106
Vhttp://dbpedia.org/ontology/abstract
p107
aVhttp://www.w3.org/2000/01/rdf-schema#comment
p108
assI6
(dp109
I0
(lp110
Vhttp://www.w3.org/ns/prov#wasDerivedFrom
p111
aVhttp://www.w3.org/1999/02/22-rdf-syntax-ns#type
p112
aVhttp://www.w3.org/2002/07/owl#sameAs
p113
asI2
(lp114
sI3
(lp115
sI4
(lp116
ssI7
(dp117
I0
(lp118
sI2
(lp119
sI3
(lp120
sI4
(lp121
Vhttp://dbpedia.org/ontology/abstract
p122
aVhttp://www.w3.org/2000/01/rdf-schema#comment
p123
assI8
(dp124
I0
(lp125
sI2
(lp126
sI3
(lp127
sI4
(lp128
ssI9
(dp129
I0
(lp130
sI2
(lp131
sI3
(lp132
sI4
(lp133
ssI11
(dp134
I0
(lp135
Vhttp://www.w3.org/ns/prov#wasDerivedFrom
p136
asI2
(lp137
sI3
(lp138
sI4
(lp139
ssI12
(dp140
I0
(lp141
Vhttp://www.w3.org/2002/07/owl#sameAs
p142
asI2
(lp143
sI3
(lp144
sI4
(lp145
ssI15
(dp146
I0
(lp147
sI2
(lp148
sI3
(lp149
sI4
(lp150
Vhttp://dbpedia.org/ontology/abstract
p151
aVhttp://www.w3.org/2000/01/rdf-schema#comment
p152
assI18
(dp153
I0
(lp154
sI2
(lp155
sI3
(lp156
sI4
(lp157
ss.