(lp1
(lp2
(lp3
a(lp4
Vhttp://dbpedia.org/resource/Ice_hockey_at_the_2006_Winter_Olympics_\u2013_Women's_tournament
p5
aa(lp6
a(lp7
aa(lp8
(lp9
a(lp10
Vhttp://dbpedia.org/resource/Badminton_at_the_2012_Summer_Olympics_\u2013_Men's_singles
p11
aa(lp12
a(lp13
aa(lp14
(lp15
a(lp16
Vhttp://dbpedia.org/resource/Badminton_at_the_2012_Summer_Olympics_\u2013_Men's_singles
p17
aa(lp18
a(lp19
aa(lp20
(lp21
a(lp22
Vhttp://dbpedia.org/resource/Badminton_at_the_2012_Summer_Olympics_\u2013_Men's_doubles
p23
aa(lp24
a(lp25
aa(lp26
(lp27
a(lp28
Vhttp://dbpedia.org/resource/Badminton_at_the_2012_Summer_Olympics_\u2013_Men's_singles
p29
aa(lp30
a(lp31
aa(lp32
(lp33
a(lp34
Vhttp://dbpedia.org/resource/Badminton_at_the_2012_Summer_Olympics_\u2013_Men's_singles
p35
aa(lp36
a(lp37
aa(lp38
(lp39
a(lp40
Vhttp://dbpedia.org/resource/Rowing_at_the_1924_Summer_Olympics_\u2013_Men's_coxless_four
p41
aa(lp42
a(lp43
aa(lp44
(lp45
a(lp46
Vhttp://dbpedia.org/resource/Rowing_at_the_1924_Summer_Olympics_\u2013_Men's_double_sculls
p47
aa(lp48
a(lp49
aa(lp50
(lp51
a(lp52
Vhttp://dbpedia.org/resource/Sailing_at_the_2010_Summer_Youth_Olympics_\u2013_Boys'_Byte_CII
p53
aa(lp54
a(lp55
aa(lp56
(lp57
a(lp58
Vhttp://dbpedia.org/resource/Ice_hockey_at_the_2010_Winter_Olympics
p59
aa(lp60
a(lp61
aa(lp62
(lp63
a(lp64
Vhttp://dbpedia.org/resource/Shooting_at_the_2000_Summer_Olympics_\u2013_Men's_25_metre_rapid_fire_pistol
p65
aa(lp66
a(lp67
aa(lp68
(lp69
a(lp70
Vhttp://dbpedia.org/resource/Shooting_at_the_1912_Summer_Olympics_\u2013_Men's_50_metre_pistol
p71
aa(lp72
a(lp73
aa(lp74
(lp75
a(lp76
Vhttp://dbpedia.org/resource/Shooting_at_the_2000_Summer_Olympics_\u2013_Women's_50_metre_rifle_three_positions
p77
aa(lp78
a(lp79
aa(lp80
(lp81
a(lp82
Vhttp://dbpedia.org/resource/Shooting_at_the_2000_Summer_Olympics_\u2013_Men's_10_metre_running_target
p83
aa(lp84
a(lp85
aa(lp86
(lp87
a(lp88
Vhttp://dbpedia.org/resource/Shooting_at_the_2000_Summer_Olympics_\u2013_Men's_skeet
p89
aa(lp90
a(lp91
aa(lp92
(lp93
a(lp94
Vhttp://dbpedia.org/resource/Shooting_at_the_2000_Summer_Olympics_\u2013_Women's_50_metre_rifle_three_positions
p95
aa(lp96
a(lp97
aa(lp98
(lp99
a(lp100
Vhttp://dbpedia.org/resource/Weightlifting_at_the_1924_Summer_Olympics_\u2013_Men's_82.5_kg
p101
aa(lp102
a(lp103
aa(lp104
(lp105
a(lp106
Vhttp://dbpedia.org/resource/Weightlifting_at_the_1924_Summer_Olympics_\u2013_Men's_82.5_kg
p107
aa(lp108
a(lp109
aa(lp110
(lp111
a(lp112
Vhttp://dbpedia.org/resource/Weightlifting_at_the_1924_Summer_Olympics_\u2013_Men's_82.5_kg
p113
aa(lp114
a(lp115
aa.