(lp1
(lp2
(lp3
Vhttp://dbpedia.org/resource/Detroit_Metal_City
p4
aa(lp5
a(lp6
a(lp7
Vhttp://dbpedia.org/resource/Dolls_(2005_manga)
p8
aa(lp9
Vhttp://dbpedia.org/resource/Doubt!!
p10
aa(lp11
Vhttp://dbpedia.org/resource/Dragon_Nest
p12
aa(lp13
Vhttp://dbpedia.org/resource/Ef:_A_Fairy_Tale_of_the_Two.
p14
aa(lp15
Vhttp://dbpedia.org/resource/Enigma_(manga)
p16
aa(lp17
a(lp18
Vhttp://dbpedia.org/resource/Fire!_(manga)
p19
aa(lp20
Vhttp://dbpedia.org/resource/From_Eroica_with_Love
p21
aa(lp22
a(lp23
Vhttp://dbpedia.org/resource/Gosick
p24
aa(lp25
Vhttp://dbpedia.org/resource/Grenadier_(manga)
p26
aa(lp27
Vhttp://dbpedia.org/resource/Gundam_Sentinel
p28
aa(lp29
Vhttp://dbpedia.org/resource/Haruka_Seventeen
p30
aa(lp31
Vhttp://dbpedia.org/resource/Harukanaru_Toki_no_Naka_de
p32
aa(lp33
Vhttp://dbpedia.org/resource/Harukanaru_Toki_no_Naka_de_Hachiy\u014d_Sh\u014d
p34
aa(lp35
Vhttp://dbpedia.org/resource/Hot_Tails
p36
aaa.