(lp1
(lp2
(lp3
a(lp4
((lp5
Vhttp://www.w3.org/2002/07/owl#Thing
p6
aVhttp://dbpedia.org/ontology/Place
p7
aVhttp://dbpedia.org/ontology/Location
p8
aVhttp://www.wikidata.org/entity/Q35666
p9
aVhttp://dbpedia.org/ontology/Glacier
p10
aVhttp://dbpedia.org/ontology/NaturalPlace
p11
aVhttp://schema.org/Place
p12
aVhttp://dbpedia.org/resource/Colchuck_Glacier
tp13
aa(lp14
aa(lp15
(lp16
a(lp17
((lp18
Vhttp://dbpedia.org/class/yago/GeologicalFormation109287968
p19
aVhttp://dbpedia.org/class/yago/Object100002684
p20
aVhttp://dbpedia.org/class/yago/YagoGeoEntity
p21
aVhttp://www.w3.org/2002/07/owl#Thing
p22
aVhttp://dbpedia.org/ontology/Place
p23
aVhttp://dbpedia.org/ontology/Location
p24
aVhttp://www.wikidata.org/entity/Q35666
p25
aVhttp://dbpedia.org/ontology/Glacier
p26
aVhttp://dbpedia.org/ontology/NaturalPlace
p27
aVhttp://schema.org/Place
p28
aVhttp://dbpedia.org/class/yago/YagoPermanentlyLocatedEntity
p29
aVhttp://dbpedia.org/class/yago/Glacier109289331
p30
aVhttp://dbpedia.org/class/yago/GlaciersOfMountBaker
p31
aVhttp://dbpedia.org/class/yago/IceMass109309292
p32
aVhttp://dbpedia.org/class/yago/PhysicalEntity100001930
p33
aVhttp://dbpedia.org/resource/Coleman_Glacier_(Washington)
tp34
aa(lp35
aa(lp36
(lp37
a(lp38
((lp39
Vhttp://www.w3.org/2002/07/owl#Thing
p40
aVhttp://dbpedia.org/ontology/Place
p41
aVhttp://dbpedia.org/ontology/Location
p42
aVhttp://www.wikidata.org/entity/Q35666
p43
aVhttp://dbpedia.org/ontology/Glacier
p44
aVhttp://dbpedia.org/ontology/NaturalPlace
p45
aVhttp://schema.org/Place
p46
aVhttp://dbpedia.org/resource/Colonial_Glacier
tp47
aa(lp48
aa(lp49
(lp50
a(lp51
((lp52
Vhttp://dbpedia.org/class/yago/GeologicalFormation109287968
p53
aVhttp://dbpedia.org/class/yago/Object100002684
p54
aVhttp://dbpedia.org/class/yago/YagoGeoEntity
p55
aVhttp://www.w3.org/2002/07/owl#Thing
p56
aVhttp://dbpedia.org/ontology/Place
p57
aVhttp://dbpedia.org/ontology/Location
p58
aVhttp://www.wikidata.org/entity/Q35666
p59
aVhttp://dbpedia.org/ontology/Glacier
p60
aVhttp://dbpedia.org/ontology/NaturalPlace
p61
aVhttp://www.w3.org/2003/01/geo/wgs84_pos#SpatialThing
p62
aVhttp://schema.org/Place
p63
aVhttp://dbpedia.org/class/yago/YagoPermanentlyLocatedEntity
p64
aVhttp://dbpedia.org/class/yago/Glacier109289331
p65
aVhttp://dbpedia.org/class/yago/GlaciersOfAlaska
p66
aVhttp://dbpedia.org/class/yago/IceMass109309292
p67
aVhttp://dbpedia.org/class/yago/PhysicalEntity100001930
p68
aVhttp://dbpedia.org/resource/Columbia_Glacier_(Alaska)
tp69
aa(lp70
aa(lp71
(lp72
a(lp73
((lp74
Vhttp://dbpedia.org/class/yago/GeologicalFormation109287968
p75
aVhttp://dbpedia.org/class/yago/Object100002684
p76
aVhttp://dbpedia.org/class/yago/YagoGeoEntity
p77
aVhttp://www.w3.org/2002/07/owl#Thing
p78
aVhttp://dbpedia.org/ontology/Place
p79
aVhttp://dbpedia.org/ontology/Location
p80
aVhttp://www.wikidata.org/entity/Q35666
p81
aVhttp://dbpedia.org/ontology/Glacier
p82
aVhttp://dbpedia.org/ontology/NaturalPlace
p83
aVhttp://schema.org/Place
p84
aVhttp://dbpedia.org/class/yago/YagoPermanentlyLocatedEntity
p85
aVhttp://dbpedia.org/class/yago/Glacier109289331
p86
aVhttp://dbpedia.org/class/yago/GlaciersOfMountBaker
p87
aVhttp://dbpedia.org/class/yago/IceMass109309292
p88
aVhttp://dbpedia.org/class/yago/PhysicalEntity100001930
p89
aVhttp://dbpedia.org/resource/Coleman_Glacier_(Washington)
tp90
aa(lp91
aa(lp92
(lp93
a(lp94
((lp95
Vhttp://www.w3.org/2002/07/owl#Thing
p96
aVhttp://dbpedia.org/ontology/Place
p97
aVhttp://dbpedia.org/ontology/Location
p98
aVhttp://www.wikidata.org/entity/Q35666
p99
aVhttp://dbpedia.org/ontology/Glacier
p100
aVhttp://dbpedia.org/ontology/NaturalPlace
p101
aVhttp://schema.org/Place
p102
aVhttp://dbpedia.org/resource/Company_Glacier
tp103
aa(lp104
aa(lp105
(lp106
a(lp107
((lp108
Vhttp://dbpedia.org/class/yago/GeologicalFormation109287968
p109
aVhttp://dbpedia.org/class/yago/Object100002684
p110
aVhttp://dbpedia.org/class/yago/YagoGeoEntity
p111
aVhttp://www.w3.org/2002/07/owl#Thing
p112
aVhttp://dbpedia.org/ontology/Place
p113
aVhttp://dbpedia.org/ontology/Location
p114
aVhttp://www.wikidata.org/entity/Q35666
p115
aVhttp://dbpedia.org/ontology/Glacier
p116
aVhttp://dbpedia.org/ontology/NaturalPlace
p117
aVhttp://schema.org/Place
p118
aVhttp://dbpedia.org/class/yago/YagoPermanentlyLocatedEntity
p119
aVhttp://dbpedia.org/class/yago/Glacier109289331
p120
aVhttp://dbpedia.org/class/yago/GlaciersOfCalifornia
p121
aVhttp://dbpedia.org/class/yago/IceMass109309292
p122
aVhttp://dbpedia.org/class/yago/PhysicalEntity100001930
p123
aVhttp://dbpedia.org/resource/Conness_Glacier
tp124
aa(lp125
aa(lp126
(lp127
a(lp128
((lp129
Vhttp://dbpedia.org/class/yago/GeologicalFormation109287968
p130
aVhttp://dbpedia.org/class/yago/Object100002684
p131
aVhttp://dbpedia.org/class/yago/YagoGeoEntity
p132
aVhttp://www.w3.org/2002/07/owl#Thing
p133
aVhttp://dbpedia.org/ontology/Place
p134
aVhttp://dbpedia.org/ontology/Location
p135
aVhttp://www.wikidata.org/entity/Q35666
p136
aVhttp://dbpedia.org/ontology/Glacier
p137
aVhttp://dbpedia.org/ontology/NaturalPlace
p138
aVhttp://schema.org/Place
p139
aVhttp://dbpedia.org/class/yago/YagoPermanentlyLocatedEntity
p140
aVhttp://dbpedia.org/class/yago/Glacier109289331
p141
aVhttp://dbpedia.org/class/yago/GlaciersInSubletteCounty,Wyoming
p142
aVhttp://dbpedia.org/class/yago/GlaciersOfWyoming
p143
aVhttp://dbpedia.org/class/yago/IceMass109309292
p144
aVhttp://dbpedia.org/class/yago/PhysicalEntity100001930
p145
aVhttp://dbpedia.org/resource/Connie_Glacier
tp146
aa(lp147
aa(lp148
(lp149
a(lp150
((lp151
Vhttp://dbpedia.org/class/yago/GeologicalFormation109287968
p152
aVhttp://dbpedia.org/class/yago/Object100002684
p153
aVhttp://dbpedia.org/class/yago/YagoGeoEntity
p154
aVhttp://www.w3.org/2002/07/owl#Thing
p155
aVhttp://dbpedia.org/ontology/Place
p156
aVhttp://dbpedia.org/ontology/Location
p157
aVhttp://www.wikidata.org/entity/Q35666
p158
aVhttp://dbpedia.org/ontology/Glacier
p159
aVhttp://dbpedia.org/ontology/NaturalPlace
p160
aVhttp://schema.org/Place
p161
aVhttp://dbpedia.org/class/yago/YagoPermanentlyLocatedEntity
p162
aVhttp://dbpedia.org/class/yago/Glacier109289331
p163
aVhttp://dbpedia.org/class/yago/GlaciersOfTheGoatRocks
p164
aVhttp://dbpedia.org/class/yago/IceMass109309292
p165
aVhttp://dbpedia.org/class/yago/PhysicalEntity100001930
p166
aVhttp://dbpedia.org/resource/Conrad_Glacier
tp167
aa(lp168
aa(lp169
(lp170
a(lp171
((lp172
Vhttp://www.w3.org/2002/07/owl#Thing
p173
aVhttp://dbpedia.org/ontology/Place
p174
aVhttp://dbpedia.org/ontology/Location
p175
aVhttp://www.wikidata.org/entity/Q35666
p176
aVhttp://dbpedia.org/ontology/Glacier
p177
aVhttp://dbpedia.org/ontology/NaturalPlace
p178
aVhttp://schema.org/Place
p179
aVhttp://dbpedia.org/resource/Continental_Glacier
tp180
aa(lp181
aa(lp182
(lp183
a(lp184
((lp185
Vhttp://www.w3.org/2002/07/owl#Thing
p186
aVhttp://dbpedia.org/ontology/Place
p187
aVhttp://dbpedia.org/ontology/Location
p188
aVhttp://www.wikidata.org/entity/Q35666
p189
aVhttp://dbpedia.org/ontology/Glacier
p190
aVhttp://dbpedia.org/ontology/NaturalPlace
p191
aVhttp://schema.org/Place
p192
aVhttp://dbpedia.org/resource/Cool_Glacier
tp193
aa(lp194
aa(lp195
(lp196
a(lp197
((lp198
Vhttp://dbpedia.org/class/yago/GeologicalFormation109287968
p199
aVhttp://dbpedia.org/class/yago/Object100002684
p200
aVhttp://dbpedia.org/class/yago/YagoGeoEntity
p201
aVhttp://www.w3.org/2002/07/owl#Thing
p202
aVhttp://dbpedia.org/ontology/Place
p203
aVhttp://dbpedia.org/ontology/Location
p204
aVhttp://www.wikidata.org/entity/Q35666
p205
aVhttp://dbpedia.org/ontology/Glacier
p206
aVhttp://dbpedia.org/ontology/NaturalPlace
p207
aVhttp://www.w3.org/2003/01/geo/wgs84_pos#SpatialThing
p208
aVhttp://schema.org/Place
p209
aVhttp://dbpedia.org/class/yago/YagoPermanentlyLocatedEntity
p210
aVhttp://dbpedia.org/class/yago/Glacier109289331
p211
aVhttp://dbpedia.org/class/yago/GlaciersOfAlaska
p212
aVhttp://dbpedia.org/class/yago/IceMass109309292
p213
aVhttp://dbpedia.org/class/yago/PhysicalEntity100001930
p214
aVhttp://dbpedia.org/resource/Crescent_Glacier_(Alaska)
tp215
aa(lp216
aa(lp217
(lp218
a(lp219
((lp220
Vhttp://dbpedia.org/class/yago/GeologicalFormation109287968
p221
aVhttp://dbpedia.org/class/yago/Object100002684
p222
aVhttp://dbpedia.org/class/yago/YagoGeoEntity
p223
aVhttp://www.w3.org/2002/07/owl#Thing
p224
aVhttp://dbpedia.org/ontology/Place
p225
aVhttp://dbpedia.org/ontology/Location
p226
aVhttp://www.wikidata.org/entity/Q35666
p227
aVhttp://dbpedia.org/ontology/Glacier
p228
aVhttp://dbpedia.org/ontology/NaturalPlace
p229
aVhttp://schema.org/Place
p230
aVhttp://dbpedia.org/class/yago/YagoPermanentlyLocatedEntity
p231
aVhttp://dbpedia.org/class/yago/Glacier109289331
p232
aVhttp://dbpedia.org/class/yago/GlaciersOfMountAdams
p233
aVhttp://dbpedia.org/class/yago/IceMass109309292
p234
aVhttp://dbpedia.org/class/yago/PhysicalEntity100001930
p235
aVhttp://dbpedia.org/resource/Crescent_Glacier_(Mount_Adams)
tp236
aa(lp237
aa(lp238
(lp239
a(lp240
((lp241
Vhttp://www.w3.org/2002/07/owl#Thing
p242
aVhttp://dbpedia.org/ontology/Place
p243
aVhttp://dbpedia.org/ontology/Location
p244
aVhttp://www.wikidata.org/entity/Q35666
p245
aVhttp://dbpedia.org/ontology/Glacier
p246
aVhttp://dbpedia.org/ontology/NaturalPlace
p247
aVhttp://schema.org/Place
p248
aVhttp://dbpedia.org/resource/Crook_Glacier
tp249
aa(lp250
aa(lp251
(lp252
a(lp253
((lp254
Vhttp://www.w3.org/2002/07/owl#Thing
p255
aVhttp://dbpedia.org/ontology/Place
p256
aVhttp://dbpedia.org/ontology/Location
p257
aVhttp://www.wikidata.org/entity/Q35666
p258
aVhttp://dbpedia.org/ontology/Glacier
p259
aVhttp://dbpedia.org/ontology/NaturalPlace
p260
aVhttp://schema.org/Place
p261
aVhttp://dbpedia.org/resource/Crystal_Glacier
tp262
aa(lp263
aa(lp264
(lp265
a(lp266
((lp267
Vhttp://www.w3.org/2002/07/owl#Thing
p268
aVhttp://dbpedia.org/ontology/Place
p269
aVhttp://dbpedia.org/ontology/Location
p270
aVhttp://www.wikidata.org/entity/Q35666
p271
aVhttp://dbpedia.org/ontology/Glacier
p272
aVhttp://dbpedia.org/ontology/NaturalPlace
p273
aVhttp://www.w3.org/2003/01/geo/wgs84_pos#SpatialThing
p274
aVhttp://schema.org/Place
p275
aVhttp://dbpedia.org/resource/Dall_Glacier
tp276
aa(lp277
aa(lp278
(lp279
a(lp280
((lp281
Vhttp://www.w3.org/2002/07/owl#Thing
p282
aVhttp://dbpedia.org/ontology/Place
p283
aVhttp://dbpedia.org/ontology/Location
p284
aVhttp://www.wikidata.org/entity/Q35666
p285
aVhttp://dbpedia.org/ontology/Glacier
p286
aVhttp://dbpedia.org/ontology/NaturalPlace
p287
aVhttp://schema.org/Place
p288
aVhttp://dbpedia.org/resource/Depot_Glacier_(Washington)
tp289
aa(lp290
aa(lp291
(lp292
a(lp293
((lp294
Vhttp://www.w3.org/2002/07/owl#Thing
p295
aVhttp://dbpedia.org/ontology/Place
p296
aVhttp://dbpedia.org/ontology/Location
p297
aVhttp://www.wikidata.org/entity/Q35666
p298
aVhttp://dbpedia.org/ontology/Glacier
p299
aVhttp://dbpedia.org/ontology/NaturalPlace
p300
aVhttp://schema.org/Place
p301
aVhttp://dbpedia.org/resource/Dark_Glacier
tp302
aa(lp303
aa(lp304
(lp305
a(lp306
((lp307
Vhttp://dbpedia.org/class/yago/GeologicalFormation109287968
p308
aVhttp://dbpedia.org/class/yago/Object100002684
p309
aVhttp://dbpedia.org/class/yago/YagoGeoEntity
p310
aVhttp://www.w3.org/2002/07/owl#Thing
p311
aVhttp://dbpedia.org/ontology/Place
p312
aVhttp://dbpedia.org/ontology/Location
p313
aVhttp://www.wikidata.org/entity/Q35666
p314
aVhttp://dbpedia.org/ontology/Glacier
p315
aVhttp://dbpedia.org/ontology/NaturalPlace
p316
aVhttp://www.w3.org/2003/01/geo/wgs84_pos#SpatialThing
p317
aVhttp://schema.org/Place
p318
aVhttp://dbpedia.org/class/yago/YagoPermanentlyLocatedEntity
p319
aVhttp://dbpedia.org/class/yago/Glacier109289331
p320
aVhttp://dbpedia.org/class/yago/GlaciersOfAlaska
p321
aVhttp://dbpedia.org/class/yago/IceMass109309292
p322
aVhttp://dbpedia.org/class/yago/PhysicalEntity100001930
p323
aVhttp://dbpedia.org/resource/Dartmouth_Glacier
p324
tp325
aa(lp326
aa.