(lp1
(lp2
(lp3
((lp4
Vhttp://www.w3.org/2002/07/owl#Thing
p5
aVhttp://dbpedia.org/ontology/Genre
p6
aVhttp://www.ontologydesignpatterns.org/ont/dul/DUL.owl#Concept
p7
aVhttp://www.wikidata.org/entity/Q188451
p8
aVhttp://dbpedia.org/ontology/MusicGenre
p9
aVhttp://dbpedia.org/ontology/TopicalConcept
p10
aVhttp://dbpedia.org/resource/Florida_breaks
tp11
aa(lp12
a(lp13
a(lp14
aa(lp15
(lp16
((lp17
Vhttp://www.w3.org/2002/07/owl#Thing
p18
aVhttp://dbpedia.org/ontology/Genre
p19
aVhttp://www.ontologydesignpatterns.org/ont/dul/DUL.owl#Concept
p20
aVhttp://www.wikidata.org/entity/Q188451
p21
aVhttp://dbpedia.org/ontology/MusicGenre
p22
aVhttp://dbpedia.org/ontology/TopicalConcept
p23
aVhttp://dbpedia.org/resource/Footwork_(Chicago)
tp24
aa(lp25
a(lp26
a(lp27
aa(lp28
(lp29
((lp30
Vhttp://dbpedia.org/class/yago/Abstraction100002137
p31
aVhttp://dbpedia.org/class/yago/AirlineTickets
p32
aVhttp://dbpedia.org/class/yago/Cognition100023271
p33
aVhttp://dbpedia.org/class/yago/CommercialDocument106472025
p34
aVhttp://dbpedia.org/class/yago/Communication100033020
p35
aVhttp://dbpedia.org/class/yago/Content105809192
p36
aVhttp://dbpedia.org/class/yago/Document106470073
p37
aVhttp://dbpedia.org/class/yago/Idea105833840
p38
aVhttp://dbpedia.org/class/yago/Plan105898568
p39
aVhttp://dbpedia.org/class/yago/Ticket106518719
p40
aVhttp://dbpedia.org/class/yago/Writing106362953
p41
aVhttp://www.w3.org/2002/07/owl#Thing
p42
aVhttp://dbpedia.org/ontology/Genre
p43
aVhttp://www.ontologydesignpatterns.org/ont/dul/DUL.owl#Concept
p44
aVhttp://www.wikidata.org/entity/Q188451
p45
aVhttp://dbpedia.org/ontology/TopicalConcept
p46
aVhttp://dbpedia.org/class/yago/CreditCardRewardsPrograms
p47
aVhttp://dbpedia.org/class/yago/PsychologicalFeature100023100
p48
aVhttp://dbpedia.org/class/yago/WrittenCommunication106349220
p49
aVhttp://dbpedia.org/class/yago/FrequentFlyerPrograms
p50
aVhttp://dbpedia.org/resource/Frequent-flyer_program
tp51
aa(lp52
a(lp53
a(lp54
aa(lp55
(lp56
((lp57
Vhttp://www.w3.org/2002/07/owl#Thing
p58
aVhttp://dbpedia.org/ontology/Genre
p59
aVhttp://www.ontologydesignpatterns.org/ont/dul/DUL.owl#Concept
p60
aVhttp://www.wikidata.org/entity/Q188451
p61
aVhttp://dbpedia.org/ontology/TopicalConcept
p62
aVhttp://dbpedia.org/resource/Full_motion_video
tp63
aa(lp64
a(lp65
a(lp66
aa(lp67
(lp68
((lp69
Vhttp://dbpedia.org/class/yago/Abstraction100002137
p70
aVhttp://dbpedia.org/class/yago/Cognition100023271
p71
aVhttp://dbpedia.org/class/yago/Concept105835747
p72
aVhttp://dbpedia.org/class/yago/Content105809192
p73
aVhttp://dbpedia.org/class/yago/Genre105845332
p74
aVhttp://dbpedia.org/class/yago/Idea105833840
p75
aVhttp://dbpedia.org/class/yago/Kind105839024
p76
aVhttp://www.w3.org/2002/07/owl#Thing
p77
aVhttp://dbpedia.org/ontology/Genre
p78
aVhttp://www.ontologydesignpatterns.org/ont/dul/DUL.owl#Concept
p79
aVhttp://www.wikidata.org/entity/Q188451
p80
aVhttp://dbpedia.org/ontology/MusicGenre
p81
aVhttp://dbpedia.org/ontology/TopicalConcept
p82
aVhttp://dbpedia.org/class/yago/PsychologicalFeature100023100
p83
aVhttp://dbpedia.org/class/yago/Category105838765
p84
aVhttp://dbpedia.org/class/yago/HipHopGenres
p85
aVhttp://dbpedia.org/class/yago/TechnoGenres
p86
aVhttp://dbpedia.org/resource/Ghettotech
tp87
aa(lp88
a(lp89
a(lp90
aa(lp91
(lp92
((lp93
Vhttp://dbpedia.org/class/yago/Artifact100021939
p94
aVhttp://dbpedia.org/class/yago/Computer103082979
p95
aVhttp://dbpedia.org/class/yago/Device103183080
p96
aVhttp://dbpedia.org/class/yago/DigitalComputer103196324
p97
aVhttp://dbpedia.org/class/yago/Machine103699975
p98
aVhttp://dbpedia.org/class/yago/Object100002684
p99
aVhttp://dbpedia.org/class/yago/Whole100003553
p100
aVhttp://www.w3.org/2002/07/owl#Thing
p101
aVhttp://dbpedia.org/ontology/Genre
p102
aVhttp://www.ontologydesignpatterns.org/ont/dul/DUL.owl#Concept
p103
aVhttp://www.wikidata.org/entity/Q188451
p104
aVhttp://dbpedia.org/ontology/TopicalConcept
p105
aVhttp://dbpedia.org/class/yago/PersonalComputers
p106
aVhttp://dbpedia.org/class/yago/Instrumentality103575240
p107
aVhttp://dbpedia.org/class/yago/PersonalComputer103918480
p108
aVhttp://dbpedia.org/class/yago/PhysicalEntity100001930
p109
aVhttp://dbpedia.org/resource/Home_theater_PC
tp110
aa(lp111
a(lp112
a(lp113
aa(lp114
(lp115
((lp116
Vhttp://www.w3.org/2002/07/owl#Thing
p117
aVhttp://dbpedia.org/ontology/Genre
p118
aVhttp://www.ontologydesignpatterns.org/ont/dul/DUL.owl#Concept
p119
aVhttp://www.wikidata.org/entity/Q188451
p120
aVhttp://dbpedia.org/ontology/TopicalConcept
p121
aVhttp://dbpedia.org/resource/Homebrewing
tp122
aa(lp123
a(lp124
a(lp125
aa(lp126
(lp127
a(lp128
a(lp129
a(lp130
aa(lp131
(lp132
((lp133
Vhttp://dbpedia.org/class/yago/Abstraction100002137
p134
aVhttp://dbpedia.org/class/yago/Belief105941423
p135
aVhttp://dbpedia.org/class/yago/Cognition100023271
p136
aVhttp://dbpedia.org/class/yago/Content105809192
p137
aVhttp://dbpedia.org/class/yago/Devil109542339
p138
aVhttp://dbpedia.org/class/yago/EvilSpirit109541919
p139
aVhttp://dbpedia.org/class/yago/Spirit109545324
p140
aVhttp://dbpedia.org/class/yago/SpiritualBeing109504135
p141
aVhttp://www.w3.org/2002/07/owl#Thing
p142
aVhttp://dbpedia.org/ontology/Genre
p143
aVhttp://www.ontologydesignpatterns.org/ont/dul/DUL.owl#Concept
p144
aVhttp://www.wikidata.org/entity/Q188451
p145
aVhttp://dbpedia.org/ontology/TopicalConcept
p146
aVhttp://dbpedia.org/class/yago/PsychologicalFeature100023100
p147
aVhttp://dbpedia.org/class/yago/InternetRelayChatDaemons
p148
aVhttp://dbpedia.org/resource/IRCd
tp149
aa(lp150
a(lp151
a(lp152
aa(lp153
(lp154
((lp155
Vhttp://dbpedia.org/class/yago/Ability105616246
p156
aVhttp://dbpedia.org/class/yago/Abstraction100002137
p157
aVhttp://dbpedia.org/class/yago/Cognition100023271
p158
aVhttp://dbpedia.org/class/yago/Know-how105616786
p159
aVhttp://dbpedia.org/class/yago/Method105660268
p160
aVhttp://dbpedia.org/class/yago/Technique105665146
p161
aVhttp://www.w3.org/2002/07/owl#Thing
p162
aVhttp://dbpedia.org/ontology/Genre
p163
aVhttp://www.ontologydesignpatterns.org/ont/dul/DUL.owl#Concept
p164
aVhttp://www.wikidata.org/entity/Q188451
p165
aVhttp://dbpedia.org/ontology/TopicalConcept
p166
aVhttp://dbpedia.org/class/yago/PsychologicalFeature100023100
p167
aVhttp://dbpedia.org/class/yago/PhotographicTechniques
p168
aVhttp://dbpedia.org/resource/Image_stitching
tp169
aa(lp170
a(lp171
a(lp172
aa(lp173
(lp174
((lp175
Vhttp://www.w3.org/2002/07/owl#Thing
p176
aVhttp://dbpedia.org/ontology/Genre
p177
aVhttp://www.ontologydesignpatterns.org/ont/dul/DUL.owl#Concept
p178
aVhttp://www.wikidata.org/entity/Q188451
p179
aVhttp://dbpedia.org/ontology/TopicalConcept
p180
aVhttp://dbpedia.org/resource/Indoor_positioning_system
tp181
aa(lp182
a(lp183
a(lp184
aa(lp185
(lp186
((lp187
Vhttp://dbpedia.org/class/yago/Ability105616246
p188
aVhttp://dbpedia.org/class/yago/Abstraction100002137
p189
aVhttp://dbpedia.org/class/yago/Cognition100023271
p190
aVhttp://dbpedia.org/class/yago/Know-how105616786
p191
aVhttp://dbpedia.org/class/yago/Method105660268
p192
aVhttp://dbpedia.org/class/yago/Technique105665146
p193
aVhttp://www.w3.org/2002/07/owl#Thing
p194
aVhttp://dbpedia.org/ontology/Genre
p195
aVhttp://www.ontologydesignpatterns.org/ont/dul/DUL.owl#Concept
p196
aVhttp://www.wikidata.org/entity/Q188451
p197
aVhttp://dbpedia.org/ontology/TopicalConcept
p198
aVhttp://dbpedia.org/class/yago/PsychologicalFeature100023100
p199
aVhttp://dbpedia.org/class/yago/InputMethods
p200
aVhttp://dbpedia.org/class/yago/UserInterfaceTechniques
p201
aVhttp://dbpedia.org/resource/Input_method
tp202
aa(lp203
a(lp204
a(lp205
aa(lp206
(lp207
((lp208
Vhttp://dbpedia.org/class/yago/Artifact100021939
p209
aVhttp://dbpedia.org/class/yago/Creation103129123
p210
aVhttp://dbpedia.org/class/yago/Object100002684
p211
aVhttp://dbpedia.org/class/yago/Oeuvre103841417
p212
aVhttp://dbpedia.org/class/yago/Product104007894
p213
aVhttp://dbpedia.org/class/yago/Whole100003553
p214
aVhttp://www.w3.org/2002/07/owl#Thing
p215
aVhttp://dbpedia.org/ontology/Genre
p216
aVhttp://www.ontologydesignpatterns.org/ont/dul/DUL.owl#Concept
p217
aVhttp://www.wikidata.org/entity/Q188451
p218
aVhttp://dbpedia.org/ontology/TopicalConcept
p219
aVhttp://dbpedia.org/class/yago/EndProduct103287178
p220
aVhttp://dbpedia.org/class/yago/InspirationalWorks
p221
aVhttp://dbpedia.org/class/yago/PhysicalEntity100001930
p222
aVhttp://dbpedia.org/resource/Inspirational_fiction
tp223
aa(lp224
a(lp225
a(lp226
aa(lp227
(lp228
((lp229
Vhttp://dbpedia.org/class/yago/Abstraction100002137
p230
aVhttp://dbpedia.org/class/yago/Arrangement105726596
p231
aVhttp://dbpedia.org/class/yago/Cognition100023271
p232
aVhttp://dbpedia.org/class/yago/Structure105726345
p233
aVhttp://www.w3.org/2002/07/owl#Thing
p234
aVhttp://dbpedia.org/ontology/Genre
p235
aVhttp://www.ontologydesignpatterns.org/ont/dul/DUL.owl#Concept
p236
aVhttp://www.wikidata.org/entity/Q188451
p237
aVhttp://dbpedia.org/ontology/TopicalConcept
p238
aVhttp://dbpedia.org/class/yago/ComputerFileSystems
p239
aVhttp://dbpedia.org/class/yago/DiskFileSystems
p240
aVhttp://dbpedia.org/class/yago/PsychologicalFeature100023100
p241
aVhttp://dbpedia.org/class/yago/ClassificationSystem105727220
p242
aVhttp://dbpedia.org/class/yago/FileSystem105732614
p243
aVhttp://dbpedia.org/class/yago/WindowsDiskFileSystems
p244
aVhttp://dbpedia.org/resource/Installable_File_System
tp245
aa(lp246
a(lp247
a(lp248
aa(lp249
(lp250
((lp251
Vhttp://dbpedia.org/class/yago/Abstraction100002137
p252
aVhttp://dbpedia.org/class/yago/Act100030358
p253
aVhttp://dbpedia.org/class/yago/Activity100407535
p254
aVhttp://dbpedia.org/class/yago/Cognition100023271
p255
aVhttp://dbpedia.org/class/yago/ComputerGame100458890
p256
aVhttp://dbpedia.org/class/yago/Concept105835747
p257
aVhttp://dbpedia.org/class/yago/Content105809192
p258
aVhttp://dbpedia.org/class/yago/Diversion100426928
p259
aVhttp://dbpedia.org/class/yago/Event100029378
p260
aVhttp://dbpedia.org/class/yago/Genre105845332
p261
aVhttp://dbpedia.org/class/yago/Idea105833840
p262
aVhttp://dbpedia.org/class/yago/Kind105839024
p263
aVhttp://www.w3.org/2002/07/owl#Thing
p264
aVhttp://dbpedia.org/ontology/Genre
p265
aVhttp://www.ontologydesignpatterns.org/ont/dul/DUL.owl#Concept
p266
aVhttp://www.wikidata.org/entity/Q188451
p267
aVhttp://dbpedia.org/ontology/TopicalConcept
p268
aVhttp://dbpedia.org/class/yago/PsychologicalFeature100023100
p269
aVhttp://dbpedia.org/class/yago/YagoPermanentlyLocatedEntity
p270
aVhttp://dbpedia.org/class/yago/Category105838765
p271
aVhttp://dbpedia.org/class/yago/Game100430606
p272
aVhttp://dbpedia.org/class/yago/InteractiveMovieVideoGames
p273
aVhttp://dbpedia.org/class/yago/LaserdiscVideoGames
p274
aVhttp://dbpedia.org/class/yago/VideoGameGenres
p275
aVhttp://dbpedia.org/resource/Interactive_movie
tp276
aa(lp277
a(lp278
a(lp279
aa(lp280
(lp281
a(lp282
a(lp283
a(lp284
aa(lp285
(lp286
((lp287
Vhttp://dbpedia.org/class/yago/Abstraction100002137
p288
aVhttp://dbpedia.org/class/yago/Attribute100024264
p289
aVhttp://dbpedia.org/class/yago/Manner104928903
p290
aVhttp://dbpedia.org/class/yago/Property104916342
p291
aVhttp://www.w3.org/2002/07/owl#Thing
p292
aVhttp://dbpedia.org/ontology/Genre
p293
aVhttp://www.ontologydesignpatterns.org/ont/dul/DUL.owl#Concept
p294
aVhttp://www.wikidata.org/entity/Q188451
p295
aVhttp://dbpedia.org/ontology/MusicGenre
p296
aVhttp://dbpedia.org/ontology/TopicalConcept
p297
aVhttp://dbpedia.org/class/yago/IndonesianStylesOfMusic
p298
aVhttp://dbpedia.org/resource/Langgam_jawa
tp299
aa(lp300
a(lp301
a(lp302
aa(lp303
(lp304
((lp305
Vhttp://www.w3.org/2002/07/owl#Thing
p306
aVhttp://dbpedia.org/ontology/Genre
p307
aVhttp://www.ontologydesignpatterns.org/ont/dul/DUL.owl#Concept
p308
aVhttp://www.wikidata.org/entity/Q188451
p309
aVhttp://dbpedia.org/ontology/TopicalConcept
p310
aVhttp://dbpedia.org/resource/Locking_(dance)
tp311
aa(lp312
a(lp313
a(lp314
aa(lp315
(lp316
((lp317
Vhttp://dbpedia.org/class/yago/Ability105616246
p318
aVhttp://dbpedia.org/class/yago/Abstraction100002137
p319
aVhttp://dbpedia.org/class/yago/Cognition100023271
p320
aVhttp://dbpedia.org/class/yago/Know-how105616786
p321
aVhttp://dbpedia.org/class/yago/Method105660268
p322
aVhttp://dbpedia.org/class/yago/ResearchMethods
p323
aVhttp://www.w3.org/2002/07/owl#Thing
p324
aVhttp://dbpedia.org/ontology/Genre
p325
aVhttp://www.ontologydesignpatterns.org/ont/dul/DUL.owl#Concept
p326
aVhttp://www.wikidata.org/entity/Q188451
p327
aVhttp://dbpedia.org/ontology/TopicalConcept
p328
aVhttp://dbpedia.org/class/yago/CohortStudyMethods
p329
aVhttp://dbpedia.org/class/yago/PsychologicalFeature100023100
p330
aVhttp://dbpedia.org/resource/Longitudinal_study
p331
tp332
aa(lp333
a(lp334
a(lp335
aa.