(lp1
(lp2
(lp3
((lp4
Vhttp://dbpedia.org/class/yago/BodyOfWater109225146
p5
aVhttp://dbpedia.org/class/yago/River109411430
p6
aVhttp://dbpedia.org/class/yago/Stream109448361
p7
aVhttp://dbpedia.org/class/yago/Thing100002452
p8
aVhttp://dbpedia.org/class/yago/YagoGeoEntity
p9
aVhttp://dbpedia.org/class/yago/RiversOfSouthAfrica
p10
aVhttp://www.w3.org/2002/07/owl#Thing
p11
aVhttp://dbpedia.org/ontology/Place
p12
aVhttp://dbpedia.org/ontology/Location
p13
aVhttp://www.wikidata.org/entity/Q4022
p14
aVhttp://www.wikidata.org/entity/Q47521
p15
aVhttp://dbpedia.org/ontology/BodyOfWater
p16
aVhttp://dbpedia.org/ontology/NaturalPlace
p17
aVhttp://dbpedia.org/ontology/River
p18
aVhttp://dbpedia.org/ontology/Stream
p19
aVhttp://www.w3.org/2003/01/geo/wgs84_pos#SpatialThing
p20
aVhttp://schema.org/BodyOfWater
p21
aVhttp://schema.org/Place
p22
aVhttp://schema.org/RiverBodyOfWater
p23
aVhttp://dbpedia.org/class/yago/YagoPermanentlyLocatedEntity
p24
aVhttp://dbpedia.org/class/yago/PhysicalEntity100001930
p25
aVhttp://dbpedia.org/resource/Amanzimtoti_River
tp26
aa(lp27
((lp28
Vhttp://dbpedia.org/class/yago/Abstraction100002137
p29
aVhttp://dbpedia.org/class/yago/EthnicGroup107967382
p30
aVhttp://dbpedia.org/class/yago/Group100031264
p31
aVhttp://www.w3.org/2002/07/owl#Thing
p32
aVhttp://umbel.org/umbel/rc/Language
p33
aVhttp://dbpedia.org/class/yago/EthnicGroupsInTheDemocraticRepublicOfTheCongo
p34
aVhttp://dbpedia.org/class/yago/EthnicGroupsInUganda
p35
aVhttp://dbpedia.org/resource/Amba_people
tp36
aa(lp37
a(lp38
a(lp39
((lp40
Vhttp://dbpedia.org/class/yago/ArtificialLakes
p41
aVhttp://dbpedia.org/class/yago/BodyOfWater109225146
p42
aVhttp://dbpedia.org/class/yago/Lake109328904
p43
aVhttp://dbpedia.org/class/yago/Land109335240
p44
aVhttp://dbpedia.org/class/yago/Object100002684
p45
aVhttp://dbpedia.org/class/yago/Reservoir104078747
p46
aVhttp://dbpedia.org/class/yago/Thing100002452
p47
aVhttp://dbpedia.org/class/yago/Wetland109477890
p48
aVhttp://dbpedia.org/class/yago/YagoGeoEntity
p49
aVhttp://www.w3.org/2002/07/owl#Thing
p50
aVhttp://dbpedia.org/ontology/Place
p51
aVhttp://dbpedia.org/ontology/Location
p52
aVhttp://www.wikidata.org/entity/Q23397
p53
aVhttp://dbpedia.org/ontology/BodyOfWater
p54
aVhttp://dbpedia.org/ontology/Lake
p55
aVhttp://dbpedia.org/ontology/NaturalPlace
p56
aVhttp://www.w3.org/2003/01/geo/wgs84_pos#SpatialThing
p57
aVhttp://schema.org/BodyOfWater
p58
aVhttp://schema.org/LakeBodyOfWater
p59
aVhttp://schema.org/Place
p60
aVhttp://dbpedia.org/class/yago/YagoPermanentlyLocatedEntity
p61
aVhttp://dbpedia.org/class/yago/LakesOfRajasthan
p62
aVhttp://dbpedia.org/class/yago/PhysicalEntity100001930
p63
aVhttp://dbpedia.org/class/yago/WetlandsOfIndia
p64
aVhttp://dbpedia.org/resource/Ana_Sagar_Lake
tp65
aa(lp66
a(lp67
a(lp68
a(lp69
((lp70
Vhttp://www.w3.org/2002/07/owl#Thing
p71
aVhttp://dbpedia.org/ontology/Place
p72
aVhttp://dbpedia.org/ontology/Location
p73
aVhttp://www.wikidata.org/entity/Q4022
p74
aVhttp://www.wikidata.org/entity/Q47521
p75
aVhttp://dbpedia.org/ontology/BodyOfWater
p76
aVhttp://dbpedia.org/ontology/NaturalPlace
p77
aVhttp://dbpedia.org/ontology/Stream
p78
aVhttp://www.w3.org/2003/01/geo/wgs84_pos#SpatialThing
p79
aVhttp://schema.org/BodyOfWater
p80
aVhttp://schema.org/Place
p81
aVhttp://schema.org/RiverBodyOfWater
p82
aVhttp://dbpedia.org/resource/Anchar_Lake
tp83
aa(lp84
((lp85
Vhttp://dbpedia.org/class/yago/Animal100015388
p86
aVhttp://dbpedia.org/class/yago/Bird101503061
p87
aVhttp://dbpedia.org/class/yago/BirdsOfIndia
p88
aVhttp://dbpedia.org/class/yago/LivingThing100004258
p89
aVhttp://dbpedia.org/class/yago/Object100002684
p90
aVhttp://dbpedia.org/class/yago/Organism100004475
p91
aVhttp://dbpedia.org/class/yago/Vertebrate101471682
p92
aVhttp://dbpedia.org/class/yago/Whole100003553
p93
aVhttp://dbpedia.org/class/yago/Chordate101466257
p94
aVhttp://dbpedia.org/class/yago/PhysicalEntity100001930
p95
aVhttp://dbpedia.org/resource/Andaman_Teal
tp96
aa(lp97
((lp98
Vhttp://dbpedia.org/class/yago/Area108497294
p99
aVhttp://dbpedia.org/class/yago/Bay109215664
p100
aVhttp://dbpedia.org/class/yago/BaysOfVictoria(Australia)
p101
aVhttp://dbpedia.org/class/yago/BodyOfWater109225146
p102
aVhttp://dbpedia.org/class/yago/Location100027167
p103
aVhttp://dbpedia.org/class/yago/Object100002684
p104
aVhttp://dbpedia.org/class/yago/Region108630985
p105
aVhttp://dbpedia.org/class/yago/Thing100002452
p106
aVhttp://dbpedia.org/class/yago/YagoGeoEntity
p107
aVhttp://dbpedia.org/class/yago/YagoLegalActorGeo
p108
aVhttp://www.w3.org/2002/07/owl#Thing
p109
aVhttp://dbpedia.org/ontology/Place
p110
aVhttp://dbpedia.org/ontology/Location
p111
aVhttp://dbpedia.org/ontology/BodyOfWater
p112
aVhttp://dbpedia.org/ontology/NaturalPlace
p113
aVhttp://www.w3.org/2003/01/geo/wgs84_pos#SpatialThing
p114
aVhttp://schema.org/BodyOfWater
p115
aVhttp://schema.org/Place
p116
aVhttp://dbpedia.org/class/yago/YagoPermanentlyLocatedEntity
p117
aVhttp://dbpedia.org/class/yago/ImportantBirdAreasOfAustralia
p118
aVhttp://dbpedia.org/class/yago/ImportantBirdAreasOfVictoria(Australia)
p119
aVhttp://dbpedia.org/class/yago/Inlet109313716
p120
aVhttp://dbpedia.org/class/yago/InletsOfAustralia
p121
aVhttp://dbpedia.org/class/yago/PhysicalEntity100001930
p122
aVhttp://dbpedia.org/resource/Anderson_Inlet
tp123
aa(lp124
((lp125
Vhttp://dbpedia.org/class/yago/AdministrativeDistrict108491826
p126
aVhttp://dbpedia.org/class/yago/District108552138
p127
aVhttp://dbpedia.org/class/yago/Location100027167
p128
aVhttp://dbpedia.org/class/yago/Object100002684
p129
aVhttp://dbpedia.org/class/yago/Region108630985
p130
aVhttp://dbpedia.org/class/yago/Town108665504
p131
aVhttp://dbpedia.org/class/yago/UrbanArea108675967
p132
aVhttp://dbpedia.org/class/yago/YagoGeoEntity
p133
aVhttp://dbpedia.org/class/yago/YagoLegalActorGeo
p134
aVhttp://www.w3.org/2002/07/owl#Thing
p135
aVhttp://dbpedia.org/ontology/Place
p136
aVhttp://dbpedia.org/ontology/Location
p137
aVhttp://www.w3.org/2003/01/geo/wgs84_pos#SpatialThing
p138
aVhttp://schema.org/Place
p139
aVhttp://dbpedia.org/class/yago/YagoPermanentlyLocatedEntity
p140
aVhttp://dbpedia.org/class/yago/GeographicalArea108574314
p141
aVhttp://dbpedia.org/class/yago/GhostTown108671509
p142
aVhttp://dbpedia.org/class/yago/GhostTownsInNewfoundlandAndLabrador
p143
aVhttp://dbpedia.org/class/yago/Municipality108626283
p144
aVhttp://dbpedia.org/class/yago/PhysicalEntity100001930
p145
aVhttp://dbpedia.org/resource/Anderson's_Cove
tp146
aa(lp147
((lp148
Vhttp://dbpedia.org/class/yago/BodyOfWater109225146
p149
aVhttp://dbpedia.org/class/yago/River109411430
p150
aVhttp://dbpedia.org/class/yago/Stream109448361
p151
aVhttp://dbpedia.org/class/yago/Thing100002452
p152
aVhttp://dbpedia.org/class/yago/YagoGeoEntity
p153
aVhttp://dbpedia.org/class/yago/RiversOfIrkutskOblast
p154
aVhttp://dbpedia.org/class/yago/RiversOfKrasnoyarskKrai
p155
aVhttp://www.w3.org/2002/07/owl#Thing
p156
aVhttp://dbpedia.org/ontology/Place
p157
aVhttp://dbpedia.org/ontology/Location
p158
aVhttp://www.wikidata.org/entity/Q4022
p159
aVhttp://www.wikidata.org/entity/Q47521
p160
aVhttp://dbpedia.org/ontology/BodyOfWater
p161
aVhttp://dbpedia.org/ontology/NaturalPlace
p162
aVhttp://dbpedia.org/ontology/River
p163
aVhttp://dbpedia.org/ontology/Stream
p164
aVhttp://www.w3.org/2003/01/geo/wgs84_pos#SpatialThing
p165
aVhttp://schema.org/BodyOfWater
p166
aVhttp://schema.org/Place
p167
aVhttp://schema.org/RiverBodyOfWater
p168
aVhttp://umbel.org/umbel/rc/BodyOfWater
p169
aVhttp://umbel.org/umbel/rc/River
p170
aVhttp://umbel.org/umbel/rc/Stream
p171
aVhttp://dbpedia.org/class/yago/YagoPermanentlyLocatedEntity
p172
aVhttp://dbpedia.org/class/yago/PhysicalEntity100001930
p173
aVhttp://dbpedia.org/resource/Angara_River
tp174
aa(lp175
((lp176
Vhttp://dbpedia.org/class/yago/Bishop109857200
p177
aVhttp://dbpedia.org/class/yago/BishopsOfRagusa
p178
aVhttp://dbpedia.org/class/yago/CausalAgent100007347
p179
aVhttp://dbpedia.org/class/yago/Clergyman109927451
p180
aVhttp://dbpedia.org/class/yago/Leader109623038
p181
aVhttp://dbpedia.org/class/yago/LivingThing100004258
p182
aVhttp://dbpedia.org/class/yago/Object100002684
p183
aVhttp://dbpedia.org/class/yago/Organism100004475
p184
aVhttp://dbpedia.org/class/yago/Person100007846
p185
aVhttp://dbpedia.org/class/yago/Priest110470779
p186
aVhttp://dbpedia.org/class/yago/SpiritualLeader109505153
p187
aVhttp://dbpedia.org/class/yago/Whole100003553
p188
aVhttp://dbpedia.org/class/yago/YagoLegalActorGeo
p189
aVhttp://www.w3.org/2002/07/owl#Thing
p190
aVhttp://xmlns.com/foaf/0.1/Person
p191
aVhttp://dbpedia.org/ontology/Person
p192
aVhttp://www.ontologydesignpatterns.org/ont/dul/DUL.owl#Agent
p193
aVhttp://www.ontologydesignpatterns.org/ont/dul/DUL.owl#NaturalPerson
p194
aVhttp://www.wikidata.org/entity/Q215627
p195
aVhttp://www.wikidata.org/entity/Q5
p196
aVhttp://dbpedia.org/ontology/Agent
p197
aVhttp://schema.org/Person
p198
aVhttp://dbpedia.org/class/yago/PeopleFromTheProvinceOfCaltanissetta
p199
aVhttp://dbpedia.org/class/yago/YagoLegalActor
p200
aVhttp://dbpedia.org/class/yago/ItalianBishops
p201
aVhttp://dbpedia.org/class/yago/PhysicalEntity100001930
p202
aVhttp://dbpedia.org/resource/Angelo_Rizzo
tp203
aa(lp204
((lp205
Vhttp://dbpedia.org/class/yago/BodyOfWater109225146
p206
aVhttp://dbpedia.org/class/yago/River109411430
p207
aVhttp://dbpedia.org/class/yago/Stream109448361
p208
aVhttp://dbpedia.org/class/yago/Thing100002452
p209
aVhttp://dbpedia.org/class/yago/YagoGeoEntity
p210
aVhttp://dbpedia.org/class/yago/RiversOfVictoria(Australia)
p211
aVhttp://www.w3.org/2002/07/owl#Thing
p212
aVhttp://dbpedia.org/ontology/Place
p213
aVhttp://dbpedia.org/ontology/Location
p214
aVhttp://www.wikidata.org/entity/Q4022
p215
aVhttp://www.wikidata.org/entity/Q47521
p216
aVhttp://dbpedia.org/ontology/BodyOfWater
p217
aVhttp://dbpedia.org/ontology/NaturalPlace
p218
aVhttp://dbpedia.org/ontology/River
p219
aVhttp://dbpedia.org/ontology/Stream
p220
aVhttp://schema.org/BodyOfWater
p221
aVhttp://schema.org/Place
p222
aVhttp://schema.org/RiverBodyOfWater
p223
aVhttp://dbpedia.org/class/yago/YagoPermanentlyLocatedEntity
p224
aVhttp://dbpedia.org/class/yago/PhysicalEntity100001930
p225
aVhttp://dbpedia.org/resource/Anglesea_River
tp226
aa(lp227
((lp228
Vhttp://dbpedia.org/class/yago/Area108497294
p229
aVhttp://dbpedia.org/class/yago/BodyOfWater109225146
p230
aVhttp://dbpedia.org/class/yago/Lake109328904
p231
aVhttp://dbpedia.org/class/yago/Location100027167
p232
aVhttp://dbpedia.org/class/yago/Object100002684
p233
aVhttp://dbpedia.org/class/yago/Region108630985
p234
aVhttp://dbpedia.org/class/yago/Thing100002452
p235
aVhttp://dbpedia.org/class/yago/YagoGeoEntity
p236
aVhttp://dbpedia.org/class/yago/YagoLegalActorGeo
p237
aVhttp://www.w3.org/2002/07/owl#Thing
p238
aVhttp://dbpedia.org/ontology/Place
p239
aVhttp://dbpedia.org/ontology/Location
p240
aVhttp://www.wikidata.org/entity/Q23397
p241
aVhttp://dbpedia.org/ontology/BodyOfWater
p242
aVhttp://dbpedia.org/ontology/Lake
p243
aVhttp://dbpedia.org/ontology/NaturalPlace
p244
aVhttp://www.w3.org/2003/01/geo/wgs84_pos#SpatialThing
p245
aVhttp://schema.org/BodyOfWater
p246
aVhttp://schema.org/LakeBodyOfWater
p247
aVhttp://schema.org/Place
p248
aVhttp://umbel.org/umbel/rc/Lake
p249
aVhttp://dbpedia.org/class/yago/YagoPermanentlyLocatedEntity
p250
aVhttp://dbpedia.org/class/yago/ImportantBirdAreasOfAustralia
p251
aVhttp://dbpedia.org/class/yago/ImportantBirdAreasOfWesternAustralia
p252
aVhttp://dbpedia.org/class/yago/LakesOfWesternAustralia
p253
aVhttp://dbpedia.org/class/yago/PhysicalEntity100001930
p254
aVhttp://dbpedia.org/resource/Angove_Lake
tp255
aa(lp256
((lp257
Vhttp://dbpedia.org/class/yago/BodyOfWater109225146
p258
aVhttp://dbpedia.org/class/yago/River109411430
p259
aVhttp://dbpedia.org/class/yago/Stream109448361
p260
aVhttp://dbpedia.org/class/yago/Thing100002452
p261
aVhttp://dbpedia.org/class/yago/YagoGeoEntity
p262
aVhttp://dbpedia.org/class/yago/RiversOfWesternAustralia
p263
aVhttp://www.w3.org/2002/07/owl#Thing
p264
aVhttp://dbpedia.org/ontology/Place
p265
aVhttp://dbpedia.org/ontology/Location
p266
aVhttp://www.wikidata.org/entity/Q4022
p267
aVhttp://www.wikidata.org/entity/Q47521
p268
aVhttp://dbpedia.org/ontology/BodyOfWater
p269
aVhttp://dbpedia.org/ontology/NaturalPlace
p270
aVhttp://dbpedia.org/ontology/River
p271
aVhttp://dbpedia.org/ontology/Stream
p272
aVhttp://www.w3.org/2003/01/geo/wgs84_pos#SpatialThing
p273
aVhttp://schema.org/BodyOfWater
p274
aVhttp://schema.org/Place
p275
aVhttp://schema.org/RiverBodyOfWater
p276
aVhttp://umbel.org/umbel/rc/River
p277
aVhttp://umbel.org/umbel/rc/Stream
p278
aVhttp://dbpedia.org/class/yago/YagoPermanentlyLocatedEntity
p279
aVhttp://dbpedia.org/class/yago/PhysicalEntity100001930
p280
aVhttp://dbpedia.org/resource/Angove_River
tp281
aa(lp282
a(lp283
((lp284
Vhttp://dbpedia.org/class/yago/Bay109215664
p285
aVhttp://dbpedia.org/class/yago/BaysOfMadagascar
p286
aVhttp://dbpedia.org/class/yago/BodyOfWater109225146
p287
aVhttp://dbpedia.org/class/yago/Thing100002452
p288
aVhttp://dbpedia.org/class/yago/YagoGeoEntity
p289
aVhttp://www.w3.org/2002/07/owl#Thing
p290
aVhttp://dbpedia.org/ontology/Place
p291
aVhttp://dbpedia.org/ontology/Location
p292
aVhttp://dbpedia.org/ontology/BodyOfWater
p293
aVhttp://dbpedia.org/ontology/NaturalPlace
p294
aVhttp://www.w3.org/2003/01/geo/wgs84_pos#SpatialThing
p295
aVhttp://schema.org/BodyOfWater
p296
aVhttp://schema.org/Place
p297
aVhttp://dbpedia.org/class/yago/YagoPermanentlyLocatedEntity
p298
aVhttp://dbpedia.org/class/yago/PhysicalEntity100001930
p299
aVhttp://dbpedia.org/resource/Antongil_Bay
p300
tp301
aaa.