(lp1
(lp2
(lp3
a(lp4
Vhttp://dbpedia.org/resource/Cell_(Dragon_Ball)
p5
aa(lp6
Vhttp://dbpedia.org/resource/Basara_Nekki
p7
aa(lp8
Vhttp://dbpedia.org/resource/Frieza
p9
aa(lp10
Vhttp://dbpedia.org/resource/Gohan_(Dragon_Ball)
p11
aa(lp12
Vhttp://dbpedia.org/resource/Himura_Kenshin
p13
aa(lp14
a(lp15
Vhttp://dbpedia.org/resource/Pegasus_Seiya
p16
aa(lp17
Vhttp://dbpedia.org/resource/Renji_Abarai
p18
aa(lp19
Vhttp://dbpedia.org/resource/Sailor_Neptune
p20
aa(lp21
Vhttp://dbpedia.org/resource/Saito_(Ghost_in_the_Shell)
p22
aa(lp23
Vhttp://dbpedia.org/resource/Vash_the_Stampede
p24
aa(lp25
Vhttp://dbpedia.org/resource/Yuki_Nagato
p26
aa(lp27
Vhttp://dbpedia.org/resource/Y\u016bko_Ichihara
p28
aa(lp29
Vhttp://dbpedia.org/resource/Rei_Ayanami
p30
aa(lp31
Vhttp://dbpedia.org/resource/Subaru_Sumeragi
p32
aa(lp33
Vhttp://dbpedia.org/resource/Athrun_Zala
p34
aa(lp35
Vhttp://dbpedia.org/resource/Daisuke_Jigen
p36
aa(lp37
Vhttp://dbpedia.org/resource/Gaara
p38
aaa.