(lp1
(lp2
(lp3
a(lp4
a(lp5
aa(lp6
(lp7
a(lp8
a(lp9
aa(lp10
(lp11
((lp12
Vhttp://dbpedia.org/class/yago/Abstraction100002137
p13
aVhttp://dbpedia.org/class/yago/Act100030358
p14
aVhttp://dbpedia.org/class/yago/Activity100407535
p15
aVhttp://dbpedia.org/class/yago/Attraction106615561
p16
aVhttp://dbpedia.org/class/yago/Celebration100428000
p17
aVhttp://dbpedia.org/class/yago/Diversion100426928
p18
aVhttp://dbpedia.org/class/yago/Event100029378
p19
aVhttp://dbpedia.org/class/yago/Festival100517728
p20
aVhttp://dbpedia.org/class/yago/FilmFestival100517418
p21
aVhttp://dbpedia.org/class/yago/Show106619065
p22
aVhttp://dbpedia.org/class/yago/SocialEvent107288639
p23
aVhttp://dbpedia.org/class/yago/RecurringEventsEstablishedIn1975
p24
aVhttp://www.w3.org/2002/07/owl#Thing
p25
aVhttp://www.ontologydesignpatterns.org/ont/dul/DUL.owl#Event
p26
aVhttp://www.wikidata.org/entity/Q1656682
p27
aVhttp://www.wikidata.org/entity/Q220505
p28
aVhttp://dbpedia.org/ontology/Event
p29
aVhttp://dbpedia.org/ontology/FilmFestival
p30
aVhttp://dbpedia.org/ontology/SocietalEvent
p31
aVhttp://schema.org/Event
p32
aVhttp://schema.org/Festival
p33
aVhttp://dbpedia.org/class/yago/FilmFestivalsInFrance
p34
aVhttp://dbpedia.org/class/yago/PsychologicalFeature100023100
p35
aVhttp://dbpedia.org/class/yago/YagoPermanentlyLocatedEntity
p36
aVhttp://dbpedia.org/class/yago/VisitorAttractionsInCalvados
p37
aVhttp://dbpedia.org/class/yago/VisitorAttractionsInLowerNormandy
p38
aVhttp://dbpedia.org/resource/Deauville_American_Film_Festival
tp39
aa(lp40
a(lp41
aa(lp42
(lp43
a(lp44
a(lp45
aa(lp46
(lp47
a(lp48
a(lp49
aa(lp50
(lp51
((lp52
Vhttp://dbpedia.org/class/yago/Abstraction100002137
p53
aVhttp://dbpedia.org/class/yago/Act100030358
p54
aVhttp://dbpedia.org/class/yago/Activity100407535
p55
aVhttp://dbpedia.org/class/yago/Celebration100428000
p56
aVhttp://dbpedia.org/class/yago/Diversion100426928
p57
aVhttp://dbpedia.org/class/yago/Event100029378
p58
aVhttp://dbpedia.org/class/yago/Festival100517728
p59
aVhttp://dbpedia.org/class/yago/FilmFestival100517418
p60
aVhttp://dbpedia.org/class/yago/StudentFilmFestivals
p61
aVhttp://www.w3.org/2002/07/owl#Thing
p62
aVhttp://www.ontologydesignpatterns.org/ont/dul/DUL.owl#Event
p63
aVhttp://www.wikidata.org/entity/Q1656682
p64
aVhttp://dbpedia.org/ontology/Convention
p65
aVhttp://dbpedia.org/ontology/Event
p66
aVhttp://dbpedia.org/ontology/SocietalEvent
p67
aVhttp://schema.org/Event
p68
aVhttp://dbpedia.org/class/yago/FilmFestivalsInTheUnitedKingdom
p69
aVhttp://dbpedia.org/class/yago/PsychologicalFeature100023100
p70
aVhttp://dbpedia.org/class/yago/YagoPermanentlyLocatedEntity
p71
aVhttp://dbpedia.org/resource/Winchester_Film_Festival
tp72
aa(lp73
a(lp74
aa(lp75
(lp76
a(lp77
a(lp78
aa(lp79
(lp80
((lVhttp://dbpedia.org/resource/Marrakech_International_Film_Festival_Foundation
tp81
aa(lp82
a(lp83
aa(lp84
(lp85
a(lp86
a(lp87
aa(lp88
(lp89
a(lp90
a(lp91
aa(lp92
(lp93
a(lp94
a(lp95
aa(lp96
(lp97
((lp98
Vhttp://dbpedia.org/class/yago/Abstraction100002137
p99
aVhttp://dbpedia.org/class/yago/Act100030358
p100
aVhttp://dbpedia.org/class/yago/Activity100407535
p101
aVhttp://dbpedia.org/class/yago/Celebration100428000
p102
aVhttp://dbpedia.org/class/yago/Diversion100426928
p103
aVhttp://dbpedia.org/class/yago/Event100029378
p104
aVhttp://dbpedia.org/class/yago/Festival100517728
p105
aVhttp://dbpedia.org/class/yago/FilmFestival100517418
p106
aVhttp://dbpedia.org/class/yago/RecurringEventsEstablishedIn1974
p107
aVhttp://www.w3.org/2002/07/owl#Thing
p108
aVhttp://www.ontologydesignpatterns.org/ont/dul/DUL.owl#Event
p109
aVhttp://www.wikidata.org/entity/Q1656682
p110
aVhttp://www.wikidata.org/entity/Q220505
p111
aVhttp://dbpedia.org/ontology/Event
p112
aVhttp://dbpedia.org/ontology/FilmFestival
p113
aVhttp://dbpedia.org/ontology/SocietalEvent
p114
aVhttp://schema.org/Event
p115
aVhttp://schema.org/Festival
p116
aVhttp://dbpedia.org/class/yago/FilmFestivalsInSpain
p117
aVhttp://dbpedia.org/class/yago/PsychologicalFeature100023100
p118
aVhttp://dbpedia.org/class/yago/YagoPermanentlyLocatedEntity
p119
aVhttp://dbpedia.org/class/yago/InternationalFilmFestivals
p120
aVhttp://dbpedia.org/class/yago/LatinAmericanFilmFestivals
p121
aVhttp://dbpedia.org/resource/Festival_de_Cine_Iberoamericano_de_Huelva
tp122
aa(lp123
a(lp124
aa(lp125
(lp126
a(lp127
a(lp128
aa(lp129
(lp130
a(lp131
a(lp132
aa(lp133
(lp134
a(lp135
a(lp136
aa(lp137
(lp138
a(lp139
a(lp140
aa(lp141
(lp142
a(lp143
a(lp144
aa(lp145
(lp146
((lp147
Vhttp://dbpedia.org/class/yago/Abstraction100002137
p148
aVhttp://dbpedia.org/class/yago/Act100030358
p149
aVhttp://dbpedia.org/class/yago/Activity100407535
p150
aVhttp://dbpedia.org/class/yago/Celebration100428000
p151
aVhttp://dbpedia.org/class/yago/Diversion100426928
p152
aVhttp://dbpedia.org/class/yago/Event100029378
p153
aVhttp://dbpedia.org/class/yago/Festival100517728
p154
aVhttp://dbpedia.org/class/yago/FilmFestival100517418
p155
aVhttp://dbpedia.org/class/yago/FilmFestivalsInBulgaria
p156
aVhttp://dbpedia.org/class/yago/PsychologicalFeature100023100
p157
aVhttp://dbpedia.org/class/yago/YagoPermanentlyLocatedEntity
p158
aVhttp://dbpedia.org/resource/Sofia_International_Film_Festival
tp159
aa(lp160
a(lp161
aa(lp162
(lp163
((lp164
Vhttp://dbpedia.org/class/yago/Abstraction100002137
p165
aVhttp://dbpedia.org/class/yago/Act100030358
p166
aVhttp://dbpedia.org/class/yago/Activity100407535
p167
aVhttp://dbpedia.org/class/yago/Celebration100428000
p168
aVhttp://dbpedia.org/class/yago/Diversion100426928
p169
aVhttp://dbpedia.org/class/yago/Event100029378
p170
aVhttp://dbpedia.org/class/yago/Festival100517728
p171
aVhttp://dbpedia.org/class/yago/FilmFestival100517418
p172
aVhttp://dbpedia.org/class/yago/RecurringEventsEstablishedIn1960
p173
aVhttp://www.w3.org/2002/07/owl#Thing
p174
aVhttp://www.ontologydesignpatterns.org/ont/dul/DUL.owl#Event
p175
aVhttp://www.wikidata.org/entity/Q1656682
p176
aVhttp://www.wikidata.org/entity/Q220505
p177
aVhttp://dbpedia.org/ontology/Event
p178
aVhttp://dbpedia.org/ontology/FilmFestival
p179
aVhttp://dbpedia.org/ontology/SocietalEvent
p180
aVhttp://schema.org/Event
p181
aVhttp://schema.org/Festival
p182
aVhttp://dbpedia.org/class/yago/FilmFestivalsInGreece
p183
aVhttp://dbpedia.org/class/yago/PsychologicalFeature100023100
p184
aVhttp://dbpedia.org/class/yago/YagoPermanentlyLocatedEntity
p185
aVhttp://dbpedia.org/class/yago/InternationalFilmFestivals
p186
aVhttp://dbpedia.org/resource/Thessaloniki_International_Film_Festival
p187
tp188
aa(lp189
a(lp190
aa.