(lp1
(lp2
(lp3
a(lp4
a(lp5
a(lp6
a(lp7
((lp8
Vhttp://www.w3.org/2002/07/owl#Thing
p9
aVhttp://dbpedia.org/ontology/Place
p10
aVhttp://dbpedia.org/ontology/Location
p11
aVhttp://www.wikidata.org/entity/Q318
p12
aVhttp://dbpedia.org/ontology/CelestialBody
p13
aVhttp://dbpedia.org/ontology/Galaxy
p14
aVhttp://schema.org/Place
p15
aVhttp://dbpedia.org/resource/NGC_5750
tp16
aa(lp17
aa(lp18
(lp19
a(lp20
a(lp21
a(lp22
a(lp23
((lp24
Vhttp://www.w3.org/2002/07/owl#Thing
p25
aVhttp://dbpedia.org/ontology/Place
p26
aVhttp://dbpedia.org/ontology/Location
p27
aVhttp://www.wikidata.org/entity/Q318
p28
aVhttp://dbpedia.org/ontology/CelestialBody
p29
aVhttp://dbpedia.org/ontology/Galaxy
p30
aVhttp://schema.org/Place
p31
aVhttp://dbpedia.org/resource/NGC_5229
tp32
aa(lp33
aa(lp34
(lp35
a(lp36
a(lp37
a(lp38
a(lp39
((lp40
Vhttp://www.w3.org/2002/07/owl#Thing
p41
aVhttp://dbpedia.org/ontology/Place
p42
aVhttp://dbpedia.org/ontology/Location
p43
aVhttp://www.wikidata.org/entity/Q318
p44
aVhttp://dbpedia.org/ontology/CelestialBody
p45
aVhttp://dbpedia.org/ontology/Galaxy
p46
aVhttp://schema.org/Place
p47
aVhttp://dbpedia.org/resource/NGC_5750
tp48
aa(lp49
aa(lp50
(lp51
a(lp52
a(lp53
a(lp54
a(lp55
a(lp56
aa(lp57
(lp58
a(lp59
a(lp60
a(lp61
a(lp62
((lp63
Vhttp://dbpedia.org/class/yago/Abstraction100002137
p64
aVhttp://dbpedia.org/class/yago/Collection107951464
p65
aVhttp://dbpedia.org/class/yago/Galaxy108270938
p66
aVhttp://dbpedia.org/class/yago/Group100031264
p67
aVhttp://dbpedia.org/class/yago/RingGalaxies
p68
aVhttp://www.w3.org/2002/07/owl#Thing
p69
aVhttp://dbpedia.org/ontology/Place
p70
aVhttp://dbpedia.org/ontology/Location
p71
aVhttp://www.wikidata.org/entity/Q318
p72
aVhttp://dbpedia.org/ontology/CelestialBody
p73
aVhttp://dbpedia.org/ontology/Galaxy
p74
aVhttp://schema.org/Place
p75
aVhttp://dbpedia.org/class/yago/PeculiarGalaxies
p76
aVhttp://dbpedia.org/class/yago/LenticularGalaxies
p77
aVhttp://dbpedia.org/resource/Cartwheel_Galaxy
tp78
aa(lp79
aa(lp80
(lp81
a(lp82
a(lp83
a(lp84
a(lp85
((lp86
Vhttp://www.w3.org/2002/07/owl#Thing
p87
aVhttp://dbpedia.org/ontology/Place
p88
aVhttp://dbpedia.org/ontology/Location
p89
aVhttp://dbpedia.org/ontology/CelestialBody
p90
aVhttp://dbpedia.org/ontology/Star
p91
aVhttp://schema.org/Place
p92
aVhttp://dbpedia.org/resource/Centaurus_X-3
tp93
aa(lp94
aa(lp95
(lp96
a(lp97
a(lp98
a(lp99
a(lp100
a(lp101
aa(lp102
(lp103
a(lp104
a(lp105
a(lp106
a(lp107
((lp108
Vhttp://dbpedia.org/class/yago/Abstraction100002137
p109
aVhttp://dbpedia.org/class/yago/Collection107951464
p110
aVhttp://dbpedia.org/class/yago/Galaxy108270938
p111
aVhttp://dbpedia.org/class/yago/Group100031264
p112
aVhttp://www.w3.org/2002/07/owl#Thing
p113
aVhttp://dbpedia.org/ontology/Place
p114
aVhttp://dbpedia.org/ontology/Location
p115
aVhttp://www.wikidata.org/entity/Q318
p116
aVhttp://dbpedia.org/ontology/CelestialBody
p117
aVhttp://dbpedia.org/ontology/Galaxy
p118
aVhttp://schema.org/Place
p119
aVhttp://dbpedia.org/class/yago/DwarfSpheroidalGalaxies
p120
aVhttp://dbpedia.org/class/yago/PeculiarGalaxies
p121
aVhttp://dbpedia.org/resource/Draco_Dwarf
tp122
aa(lp123
aa(lp124
(lp125
a(lp126
a(lp127
a(lp128
a(lp129
((lp130
Vhttp://dbpedia.org/class/yago/Abstraction100002137
p131
aVhttp://dbpedia.org/class/yago/Collection107951464
p132
aVhttp://dbpedia.org/class/yago/Galaxy108270938
p133
aVhttp://dbpedia.org/class/yago/Group100031264
p134
aVhttp://www.w3.org/2002/07/owl#Thing
p135
aVhttp://dbpedia.org/ontology/Place
p136
aVhttp://dbpedia.org/ontology/Location
p137
aVhttp://www.wikidata.org/entity/Q318
p138
aVhttp://dbpedia.org/ontology/CelestialBody
p139
aVhttp://dbpedia.org/ontology/Galaxy
p140
aVhttp://schema.org/Place
p141
aVhttp://dbpedia.org/class/yago/DwarfSpheroidalGalaxies
p142
aVhttp://dbpedia.org/resource/Leo_T_(dwarf_galaxy)
tp143
aa(lp144
aa(lp145
(lp146
a(lp147
a(lp148
a(lp149
a(lp150
((lp151
Vhttp://dbpedia.org/class/yago/Abstraction100002137
p152
aVhttp://dbpedia.org/class/yago/Collection107951464
p153
aVhttp://dbpedia.org/class/yago/Galaxy108270938
p154
aVhttp://dbpedia.org/class/yago/Group100031264
p155
aVhttp://www.w3.org/2002/07/owl#Thing
p156
aVhttp://dbpedia.org/ontology/Place
p157
aVhttp://dbpedia.org/ontology/Location
p158
aVhttp://www.wikidata.org/entity/Q318
p159
aVhttp://dbpedia.org/ontology/CelestialBody
p160
aVhttp://dbpedia.org/ontology/Galaxy
p161
aVhttp://schema.org/Place
p162
aVhttp://dbpedia.org/class/yago/DwarfSpheroidalGalaxies
p163
aVhttp://dbpedia.org/resource/Leo_T_(dwarf_galaxy)
tp164
aa(lp165
aa(lp166
(lp167
a(lp168
a(lp169
a(lp170
a(lp171
((lp172
Vhttp://dbpedia.org/class/yago/Abstraction100002137
p173
aVhttp://dbpedia.org/class/yago/Collection107951464
p174
aVhttp://dbpedia.org/class/yago/Galaxy108270938
p175
aVhttp://dbpedia.org/class/yago/Group100031264
p176
aVhttp://www.w3.org/2002/07/owl#Thing
p177
aVhttp://dbpedia.org/ontology/Place
p178
aVhttp://dbpedia.org/ontology/Location
p179
aVhttp://www.wikidata.org/entity/Q318
p180
aVhttp://dbpedia.org/ontology/CelestialBody
p181
aVhttp://dbpedia.org/ontology/Galaxy
p182
aVhttp://schema.org/Place
p183
aVhttp://dbpedia.org/class/yago/DwarfIrregularGalaxies
p184
aVhttp://dbpedia.org/resource/Pegasus_Dwarf_Irregular_Galaxy
tp185
aa(lp186
aa(lp187
(lp188
a(lp189
a(lp190
a(lp191
a(lp192
((lp193
Vhttp://dbpedia.org/class/yago/Abstraction100002137
p194
aVhttp://dbpedia.org/class/yago/Collection107951464
p195
aVhttp://dbpedia.org/class/yago/Galaxy108270938
p196
aVhttp://dbpedia.org/class/yago/Group100031264
p197
aVhttp://www.w3.org/2002/07/owl#Thing
p198
aVhttp://dbpedia.org/ontology/Place
p199
aVhttp://dbpedia.org/ontology/Location
p200
aVhttp://www.wikidata.org/entity/Q318
p201
aVhttp://dbpedia.org/ontology/CelestialBody
p202
aVhttp://dbpedia.org/ontology/Galaxy
p203
aVhttp://schema.org/Place
p204
aVhttp://dbpedia.org/class/yago/DwarfSpheroidalGalaxies
p205
aVhttp://dbpedia.org/class/yago/LowSurfaceBrightnessGalaxies
p206
aVhttp://dbpedia.org/resource/Pegasus_Dwarf_Spheroidal_Galaxy
tp207
aa(lp208
aa(lp209
(lp210
a(lp211
a(lp212
a(lp213
a(lp214
((lp215
Vhttp://dbpedia.org/class/yago/Abstraction100002137
p216
aVhttp://dbpedia.org/class/yago/Collection107951464
p217
aVhttp://dbpedia.org/class/yago/Galaxy108270938
p218
aVhttp://dbpedia.org/class/yago/Group100031264
p219
aVhttp://www.w3.org/2002/07/owl#Thing
p220
aVhttp://dbpedia.org/ontology/Place
p221
aVhttp://dbpedia.org/ontology/Location
p222
aVhttp://www.wikidata.org/entity/Q318
p223
aVhttp://dbpedia.org/ontology/CelestialBody
p224
aVhttp://dbpedia.org/ontology/Galaxy
p225
aVhttp://schema.org/Place
p226
aVhttp://dbpedia.org/class/yago/DwarfGalaxies
p227
aVhttp://dbpedia.org/class/yago/DwarfSpheroidalGalaxies
p228
aVhttp://dbpedia.org/resource/Sculptor_Dwarf_Galaxy
tp229
aa(lp230
aa(lp231
(lp232
a(lp233
a(lp234
a(lp235
a(lp236
((lp237
Vhttp://dbpedia.org/class/yago/Abstraction100002137
p238
aVhttp://dbpedia.org/class/yago/Collection107951464
p239
aVhttp://dbpedia.org/class/yago/Galaxy108270938
p240
aVhttp://dbpedia.org/class/yago/Group100031264
p241
aVhttp://www.w3.org/2002/07/owl#Thing
p242
aVhttp://dbpedia.org/ontology/Place
p243
aVhttp://dbpedia.org/ontology/Location
p244
aVhttp://www.wikidata.org/entity/Q318
p245
aVhttp://dbpedia.org/ontology/CelestialBody
p246
aVhttp://dbpedia.org/ontology/Galaxy
p247
aVhttp://schema.org/Place
p248
aVhttp://dbpedia.org/class/yago/DwarfIrregularGalaxies
p249
aVhttp://dbpedia.org/resource/Sculptor_Dwarf_Irregular_Galaxy
tp250
aa(lp251
aa(lp252
(lp253
a(lp254
a(lp255
a(lp256
a(lp257
((lp258
Vhttp://dbpedia.org/class/yago/Abstraction100002137
p259
aVhttp://dbpedia.org/class/yago/Collection107951464
p260
aVhttp://dbpedia.org/class/yago/Galaxy108270938
p261
aVhttp://dbpedia.org/class/yago/Group100031264
p262
aVhttp://dbpedia.org/class/yago/SpiralGalaxy108271457
p263
aVhttp://dbpedia.org/class/yago/SpiralGalaxies
p264
aVhttp://www.w3.org/2002/07/owl#Thing
p265
aVhttp://dbpedia.org/ontology/Place
p266
aVhttp://dbpedia.org/ontology/Location
p267
aVhttp://www.wikidata.org/entity/Q318
p268
aVhttp://dbpedia.org/ontology/CelestialBody
p269
aVhttp://dbpedia.org/ontology/Galaxy
p270
aVhttp://schema.org/Place
p271
aVhttp://dbpedia.org/class/yago/Galaxy108271042
p272
aVhttp://dbpedia.org/class/yago/IntermediateSpiralGalaxies
p273
aVhttp://dbpedia.org/resource/Sculptor_Galaxy
tp274
aa(lp275
aa(lp276
(lp277
a(lp278
a(lp279
a(lp280
a(lp281
((lp282
Vhttp://dbpedia.org/class/yago/Abstraction100002137
p283
aVhttp://dbpedia.org/class/yago/Collection107951464
p284
aVhttp://dbpedia.org/class/yago/Galaxy108270938
p285
aVhttp://dbpedia.org/class/yago/Group100031264
p286
aVhttp://dbpedia.org/class/yago/SpiralGalaxy108271457
p287
aVhttp://dbpedia.org/class/yago/SpiralGalaxies
p288
aVhttp://www.w3.org/2002/07/owl#Thing
p289
aVhttp://dbpedia.org/ontology/Place
p290
aVhttp://dbpedia.org/ontology/Location
p291
aVhttp://www.wikidata.org/entity/Q318
p292
aVhttp://dbpedia.org/ontology/CelestialBody
p293
aVhttp://dbpedia.org/ontology/Galaxy
p294
aVhttp://schema.org/Place
p295
aVhttp://dbpedia.org/class/yago/PeculiarGalaxies
p296
aVhttp://dbpedia.org/class/yago/Galaxy108271042
p297
aVhttp://dbpedia.org/class/yago/InteractingGalaxies
p298
aVhttp://dbpedia.org/class/yago/UnbarredSpiralGalaxies
p299
aVhttp://dbpedia.org/resource/Whirlpool_Galaxy
tp300
aa(lp301
aa(lp302
(lp303
a(lp304
a(lp305
a(lp306
a(lp307
((lVhttp://dbpedia.org/resource/Arp_116
tp308
aa(lp309
aa(lp310
(lp311
a(lp312
a(lp313
a(lp314
a(lp315
((lp316
Vhttp://www.w3.org/2002/07/owl#Thing
p317
aVhttp://dbpedia.org/ontology/Place
p318
aVhttp://dbpedia.org/ontology/Location
p319
aVhttp://www.wikidata.org/entity/Q318
p320
aVhttp://dbpedia.org/ontology/CelestialBody
p321
aVhttp://dbpedia.org/ontology/Galaxy
p322
aVhttp://schema.org/Place
p323
aVhttp://dbpedia.org/resource/NGC_4323
tp324
aa(lp325
aa(lp326
(lp327
a(lp328
a(lp329
a(lp330
a(lp331
((lp332
Vhttp://www.w3.org/2002/07/owl#Thing
p333
aVhttp://dbpedia.org/ontology/Place
p334
aVhttp://dbpedia.org/ontology/Location
p335
aVhttp://www.wikidata.org/entity/Q318
p336
aVhttp://dbpedia.org/ontology/CelestialBody
p337
aVhttp://dbpedia.org/ontology/Galaxy
p338
aVhttp://schema.org/Place
p339
aVhttp://dbpedia.org/resource/NGC_474
p340
tp341
aa(lp342
aa.