(lp1
(lp2
(lp3
a(lp4
a(lp5
a(lp6
a(lp7
Vhttp://dbpedia.org/resource/NGC_5750
p8
aa(lp9
aa(lp10
(lp11
a(lp12
a(lp13
a(lp14
a(lp15
Vhttp://dbpedia.org/resource/NGC_5229
p16
aa(lp17
aa(lp18
(lp19
a(lp20
a(lp21
a(lp22
a(lp23
Vhttp://dbpedia.org/resource/NGC_5750
p24
aa(lp25
aa(lp26
(lp27
a(lp28
a(lp29
a(lp30
a(lp31
a(lp32
aa(lp33
(lp34
a(lp35
a(lp36
a(lp37
a(lp38
Vhttp://dbpedia.org/resource/Cartwheel_Galaxy
p39
aa(lp40
aa(lp41
(lp42
a(lp43
a(lp44
a(lp45
a(lp46
Vhttp://dbpedia.org/resource/Centaurus_X-3
p47
aa(lp48
aa(lp49
(lp50
a(lp51
a(lp52
a(lp53
a(lp54
a(lp55
aa(lp56
(lp57
a(lp58
a(lp59
a(lp60
a(lp61
Vhttp://dbpedia.org/resource/Draco_Dwarf
p62
aa(lp63
aa(lp64
(lp65
a(lp66
a(lp67
a(lp68
a(lp69
Vhttp://dbpedia.org/resource/Leo_T_(dwarf_galaxy)
p70
aa(lp71
aa(lp72
(lp73
a(lp74
a(lp75
a(lp76
a(lp77
Vhttp://dbpedia.org/resource/Leo_T_(dwarf_galaxy)
p78
aa(lp79
aa(lp80
(lp81
a(lp82
a(lp83
a(lp84
a(lp85
Vhttp://dbpedia.org/resource/Pegasus_Dwarf_Irregular_Galaxy
p86
aa(lp87
aa(lp88
(lp89
a(lp90
a(lp91
a(lp92
a(lp93
Vhttp://dbpedia.org/resource/Pegasus_Dwarf_Spheroidal_Galaxy
p94
aa(lp95
aa(lp96
(lp97
a(lp98
a(lp99
a(lp100
a(lp101
Vhttp://dbpedia.org/resource/Sculptor_Dwarf_Galaxy
p102
aa(lp103
aa(lp104
(lp105
a(lp106
a(lp107
a(lp108
a(lp109
Vhttp://dbpedia.org/resource/Sculptor_Dwarf_Irregular_Galaxy
p110
aa(lp111
aa(lp112
(lp113
a(lp114
a(lp115
a(lp116
a(lp117
Vhttp://dbpedia.org/resource/Sculptor_Galaxy
p118
aa(lp119
aa(lp120
(lp121
a(lp122
a(lp123
a(lp124
a(lp125
Vhttp://dbpedia.org/resource/Whirlpool_Galaxy
p126
aa(lp127
aa(lp128
(lp129
a(lp130
a(lp131
a(lp132
a(lp133
Vhttp://dbpedia.org/resource/Arp_116
p134
aa(lp135
aa(lp136
(lp137
a(lp138
a(lp139
a(lp140
a(lp141
Vhttp://dbpedia.org/resource/NGC_4323
p142
aa(lp143
aa(lp144
(lp145
a(lp146
a(lp147
a(lp148
a(lp149
Vhttp://dbpedia.org/resource/NGC_474
p150
aa(lp151
aa.