(lp1
(lp2
(lp3
a(lp4
a(lp5
a(lp6
Vhttp://dbpedia.org/resource/The_Adventure_Series
p7
aa(lp8
a(lp9
aa(lp10
(lp11
Vhttp://dbpedia.org/resource/Ronald_D._Moore
p12
aa(lp13
a(lp14
a(lp15
a(lp16
a(lp17
aa(lp18
(lp19
a(lp20
a(lp21
a(lp22
a(lp23
a(lp24
aa(lp25
(lp26
a(lp27
a(lp28
a(lp29
Vhttp://dbpedia.org/resource/AgustaWestland_AW119_Koala
p30
aa(lp31
a(lp32
aa(lp33
(lp34
a(lp35
a(lp36
a(lp37
a(lp38
a(lp39
aa(lp40
(lp41
a(lp42
a(lp43
a(lp44
a(lp45
a(lp46
aa(lp47
(lp48
a(lp49
a(lp50
a(lp51
a(lp52
a(lp53
aa(lp54
(lp55
a(lp56
a(lp57
a(lp58
a(lp59
a(lp60
aa(lp61
(lp62
a(lp63
a(lp64
a(lp65
Vhttp://dbpedia.org/resource/Blohm_&_Voss_BV_142
p66
aa(lp67
a(lp68
aa(lp69
(lp70
a(lp71
a(lp72
a(lp73
a(lp74
a(lp75
aa(lp76
(lp77
a(lp78
Vhttp://dbpedia.org/resource/2_(number)
p79
aa(lp80
a(lp81
Vhttp://dbpedia.org/resource/Breguet_521
p82
aa(lp83
a(lp84
aa(lp85
(lp86
Vhttp://dbpedia.org/resource/Hispano-Suiza
p87
aa(lp88
a(lp89
a(lp90
a(lp91
a(lp92
aa(lp93
(lp94
a(lp95
a(lp96
a(lp97
a(lp98
a(lp99
aa(lp100
(lp101
a(lp102
Vhttp://dbpedia.org/resource/2_(number)
p103
aa(lp104
a(lp105
a(lp106
a(lp107
aa(lp108
(lp109
a(lp110
a(lp111
a(lp112
a(lp113
a(lp114
aa(lp115
(lp116
a(lp117
a(lp118
a(lp119
Vhttp://dbpedia.org/resource/Farman_HF.20
p120
aa(lp121
a(lp122
aa(lp123
(lp124
a(lp125
a(lp126
a(lp127
a(lp128
a(lp129
aa(lp130
(lp131
a(lp132
a(lp133
a(lp134
a(lp135
a(lp136
aa(lp137
(lp138
a(lp139
a(lp140
a(lp141
a(lp142
a(lp143
aa.