(lp1
(lp2
(lp3
a(lp4
((lp5
Vhttp://www.w3.org/2002/07/owl#Thing
p6
aVhttp://www.ontologydesignpatterns.org/ont/dul/DUL.owl#DesignedArtifact
p7
aVhttp://www.wikidata.org/entity/Q34493
p8
aVhttp://dbpedia.org/ontology/MeanOfTransportation
p9
aVhttp://dbpedia.org/ontology/Motorcycle
p10
aVhttp://dbpedia.org/resource/Ducati_Mach_1
tp11
aa(lp12
a(lp13
a(lp14
aa(lp15
(lp16
a(lp17
((lp18
Vhttp://www.w3.org/2002/07/owl#Thing
p19
aVhttp://www.ontologydesignpatterns.org/ont/dul/DUL.owl#DesignedArtifact
p20
aVhttp://www.wikidata.org/entity/Q34493
p21
aVhttp://dbpedia.org/ontology/MeanOfTransportation
p22
aVhttp://dbpedia.org/ontology/Motorcycle
p23
aVhttp://dbpedia.org/resource/Honda_XLV750R
tp24
aa(lp25
a(lp26
a(lp27
aa(lp28
(lp29
a(lp30
((lVhttp://dbpedia.org/resource/Honda_XR600
tp31
aa(lp32
a(lp33
a(lp34
aa(lp35
(lp36
a(lp37
((lp38
Vhttp://www.w3.org/2002/07/owl#Thing
p39
aVhttp://www.ontologydesignpatterns.org/ont/dul/DUL.owl#DesignedArtifact
p40
aVhttp://www.wikidata.org/entity/Q34493
p41
aVhttp://dbpedia.org/ontology/MeanOfTransportation
p42
aVhttp://dbpedia.org/ontology/Motorcycle
p43
aVhttp://dbpedia.org/resource/Sabre_V4
tp44
aa(lp45
a(lp46
a(lp47
aa(lp48
(lp49
a(lp50
((lVhttp://dbpedia.org/resource/Suzuki_TS50ER
tp51
aa(lp52
a(lp53
((lVhttp://dbpedia.org/resource/Moped
tp54
aa(lp55
aa(lp56
(lp57
a(lp58
((lp59
Vhttp://dbpedia.org/class/yago/Artifact100021939
p60
aVhttp://dbpedia.org/class/yago/Container103094503
p61
aVhttp://dbpedia.org/class/yago/Conveyance103100490
p62
aVhttp://dbpedia.org/class/yago/MotorVehicle103791235
p63
aVhttp://dbpedia.org/class/yago/Motorcycle103790512
p64
aVhttp://dbpedia.org/class/yago/Object100002684
p65
aVhttp://dbpedia.org/class/yago/Self-propelledVehicle104170037
p66
aVhttp://dbpedia.org/class/yago/Vehicle104524313
p67
aVhttp://dbpedia.org/class/yago/WheeledVehicle104576211
p68
aVhttp://dbpedia.org/class/yago/Whole100003553
p69
aVhttp://www.w3.org/2002/07/owl#Thing
p70
aVhttp://www.ontologydesignpatterns.org/ont/dul/DUL.owl#DesignedArtifact
p71
aVhttp://www.wikidata.org/entity/Q34493
p72
aVhttp://dbpedia.org/ontology/MeanOfTransportation
p73
aVhttp://dbpedia.org/ontology/Motorcycle
p74
aVhttp://dbpedia.org/class/yago/MotorScooters
p75
aVhttp://dbpedia.org/class/yago/Instrumentality103575240
p76
aVhttp://dbpedia.org/class/yago/MotorScooter103791053
p77
aVhttp://dbpedia.org/class/yago/PhysicalEntity100001930
p78
aVhttp://dbpedia.org/class/yago/YamahaMotorcycles
p79
aVhttp://dbpedia.org/resource/Yamaha_Lagenda_series
tp80
aa(lp81
a(lp82
a(lp83
aa(lp84
(lp85
a(lp86
((lp87
Vhttp://dbpedia.org/class/yago/Artifact100021939
p88
aVhttp://dbpedia.org/class/yago/Container103094503
p89
aVhttp://dbpedia.org/class/yago/Conveyance103100490
p90
aVhttp://dbpedia.org/class/yago/Object100002684
p91
aVhttp://dbpedia.org/class/yago/Vehicle104524313
p92
aVhttp://dbpedia.org/class/yago/WheeledVehicle104576211
p93
aVhttp://dbpedia.org/class/yago/Whole100003553
p94
aVhttp://www.w3.org/2002/07/owl#Thing
p95
aVhttp://www.ontologydesignpatterns.org/ont/dul/DUL.owl#DesignedArtifact
p96
aVhttp://www.wikidata.org/entity/Q34493
p97
aVhttp://dbpedia.org/ontology/MeanOfTransportation
p98
aVhttp://dbpedia.org/ontology/Motorcycle
p99
aVhttp://dbpedia.org/class/yago/MotorScooters
p100
aVhttp://dbpedia.org/class/yago/PeugeotVehicles
p101
aVhttp://dbpedia.org/class/yago/Instrumentality103575240
p102
aVhttp://dbpedia.org/class/yago/MotorScooter103791053
p103
aVhttp://dbpedia.org/class/yago/PhysicalEntity100001930
p104
aVhttp://dbpedia.org/resource/Peugeot_Ludix
tp105
aa(lp106
a(lp107
a(lp108
aa(lp109
(lp110
a(lp111
a(lp112
a(lp113
a(lp114
aa(lp115
(lp116
a(lp117
((lp118
Vhttp://www.w3.org/2002/07/owl#Thing
p119
aVhttp://www.ontologydesignpatterns.org/ont/dul/DUL.owl#DesignedArtifact
p120
aVhttp://www.wikidata.org/entity/Q34493
p121
aVhttp://dbpedia.org/ontology/MeanOfTransportation
p122
aVhttp://dbpedia.org/ontology/Motorcycle
p123
aVhttp://dbpedia.org/resource/Ducati_60
tp124
aa(lp125
a(lp126
a(lp127
aa(lp128
(lp129
a(lp130
((lp131
Vhttp://www.w3.org/2002/07/owl#Thing
p132
aVhttp://www.ontologydesignpatterns.org/ont/dul/DUL.owl#DesignedArtifact
p133
aVhttp://www.wikidata.org/entity/Q34493
p134
aVhttp://dbpedia.org/ontology/MeanOfTransportation
p135
aVhttp://dbpedia.org/ontology/Motorcycle
p136
aVhttp://dbpedia.org/resource/Hero_Karizma
tp137
aa(lp138
a(lp139
a(lp140
aa(lp141
(lp142
a(lp143
((lVhttp://dbpedia.org/resource/Suzuki_LT_230
tp144
aa(lp145
a(lp146
a(lp147
aa(lp148
(lp149
a(lp150
((lp151
Vhttp://www.w3.org/2002/07/owl#Thing
p152
aVhttp://www.ontologydesignpatterns.org/ont/dul/DUL.owl#DesignedArtifact
p153
aVhttp://www.wikidata.org/entity/Q34493
p154
aVhttp://dbpedia.org/ontology/MeanOfTransportation
p155
aVhttp://dbpedia.org/ontology/Motorcycle
p156
aVhttp://dbpedia.org/resource/BSA_M33-10
tp157
aa(lp158
a(lp159
a(lp160
aa(lp161
(lp162
a(lp163
a(lp164
a(lp165
a(lp166
aa(lp167
(lp168
a(lp169
a(lp170
a(lp171
a(lp172
aa(lp173
(lp174
a(lp175
a(lp176
a(lp177
a(lp178
aa(lp179
(lp180
a(lp181
((lp182
Vhttp://www.w3.org/2002/07/owl#Thing
p183
aVhttp://www.ontologydesignpatterns.org/ont/dul/DUL.owl#DesignedArtifact
p184
aVhttp://www.wikidata.org/entity/Q34493
p185
aVhttp://dbpedia.org/ontology/MeanOfTransportation
p186
aVhttp://dbpedia.org/ontology/Motorcycle
p187
aVhttp://dbpedia.org/resource/BMW_R1200RT
tp188
aa(lp189
a(lp190
a(lp191
aa(lp192
(lp193
a(lp194
a(lp195
a(lp196
a(lp197
aa(lp198
(lp199
a(lp200
((lp201
Vhttp://www.w3.org/2002/07/owl#Thing
p202
aVhttp://www.ontologydesignpatterns.org/ont/dul/DUL.owl#DesignedArtifact
p203
aVhttp://www.wikidata.org/entity/Q34493
p204
aVhttp://dbpedia.org/ontology/MeanOfTransportation
p205
aVhttp://dbpedia.org/ontology/Motorcycle
p206
aVhttp://dbpedia.org/resource/Honda_CB600F
p207
tp208
aa(lp209
a(lp210
a(lp211
aa(lp212
(lp213
a(lp214
a(lp215
a(lp216
a(lp217
aa.