(lp1
(lp2
(lp3
Vhttp://dbpedia.org/resource/%C4%A0bejna
p4
aa(lp5
a(lp6
aa(lp7
(lp8
a(lp9
a(lp10
aa(lp11
(lp12
a(lp13
a(lp14
aa(lp15
(lp16
a(lp17
a(lp18
aa(lp19
(lp20
a(lp21
a(lp22
aa(lp23
(lp24
a(lp25
a(lp26
aa(lp27
(lp28
a(lp29
a(lp30
aa(lp31
(lp32
a(lp33
a(lp34
aa(lp35
(lp36
a(lp37
a(lp38
aa(lp39
(lp40
a(lp41
a(lp42
aa(lp43
(lp44
a(lp45
a(lp46
aa(lp47
(lp48
a(lp49
a(lp50
aa(lp51
(lp52
a(lp53
a(lp54
aa(lp55
(lp56
a(lp57
a(lp58
aa(lp59
(lp60
Vhttp://dbpedia.org/resource/Aprus
p61
aa(lp62
a(lp63
aa(lp64
(lp65
a(lp66
a(lp67
aa(lp68
(lp69
a(lp70
a(lp71
aa(lp72
(lp73
a(lp74
a(lp75
aa(lp76
(lp77
Vhttp://dbpedia.org/resource/Bleuch%C3%A2tel
p78
aa(lp79
a(lp80
aa.