(lp1
(dp2
I0
(dp3
I0
(lp4
sI1
(lp5
sI2
(lp6
sI3
(lp7
ssI1
(dp8
I0
g5
sI1
(lp9
sI2
(lp10
sI3
(lp11
ssI2
(dp12
I0
g6
sI1
g10
sI2
(lp13
sI3
(lp14
ssI3
(dp15
I0
g7
sI1
g11
sI2
g14
sI3
(lp16
ssa(dp17
I0
(dp18
I0
(lp19
sI1
(lp20
sI2
(lp21
sI3
(lp22
ssI1
(dp23
I0
g20
sI1
(lp24
sI2
(lp25
sI3
(lp26
ssI2
(dp27
I0
g21
sI1
g25
sI2
(lp28
sI3
(lp29
ssI3
(dp30
I0
g22
sI1
g26
sI2
g29
sI3
(lp31
ssa(dp32
I0
(dp33
I0
(lp34
sI1
(lp35
Vhttp://dbpedia.org/ontology/abstract
p36
aVhttp://www.w3.org/2000/01/rdf-schema#comment
p37
asI2
(lp38
sI3
(lp39
ssI1
(dp40
I0
g35
sI1
(lp41
sI2
(lp42
sI3
(lp43
ssI2
(dp44
I0
g38
sI1
g42
sI2
(lp45
sI3
(lp46
ssI3
(dp47
I0
g39
sI1
g43
sI2
g46
sI3
(lp48
ssa(dp49
I0
(dp50
I0
(lp51
sI1
(lp52
sI2
(lp53
sI3
(lp54
ssI1
(dp55
I0
g52
sI1
(lp56
sI2
(lp57
sI3
(lp58
ssI2
(dp59
I0
g53
sI1
g57
sI2
(lp60
sI3
(lp61
ssI3
(dp62
I0
g54
sI1
g58
sI2
g61
sI3
(lp63
ssa(dp64
I0
(dp65
I0
(lp66
sI1
(lp67
sI2
(lp68
sI3
(lp69
ssI1
(dp70
I0
g67
sI1
(lp71
sI2
(lp72
sI3
(lp73
ssI2
(dp74
I0
g68
sI1
g72
sI2
(lp75
sI3
(lp76
ssI3
(dp77
I0
g69
sI1
g73
sI2
g76
sI3
(lp78
ssa(dp79
I0
(dp80
I0
(lp81
sI1
(lp82
sI2
(lp83
sI3
(lp84
ssI1
(dp85
I0
g82
sI1
(lp86
sI2
(lp87
sI3
(lp88
ssI2
(dp89
I0
g83
sI1
g87
sI2
(lp90
sI3
(lp91
ssI3
(dp92
I0
g84
sI1
g88
sI2
g91
sI3
(lp93
ssa(dp94
I0
(dp95
I0
(lp96
sI1
(lp97
Vhttp://dbpedia.org/property/genre
p98
aVhttp://dbpedia.org/ontology/abstract
p99
aVhttp://www.w3.org/1999/02/22-rdf-syntax-ns#type
p100
aVhttp://purl.org/dc/terms/subject
p101
aVhttp://www.w3.org/2000/01/rdf-schema#comment
p102
asI2
(lp103
sI3
(lp104
ssI1
(dp105
I0
g97
sI1
(lp106
sI2
(lp107
sI3
(lp108
ssI2
(dp109
I0
g103
sI1
g107
sI2
(lp110
sI3
(lp111
ssI3
(dp112
I0
g104
sI1
g108
sI2
g111
sI3
(lp113
ssa(dp114
I0
(dp115
I0
(lp116
sI1
(lp117
sI2
(lp118
sI3
(lp119
ssI1
(dp120
I0
g117
sI1
(lp121
sI2
(lp122
sI3
(lp123
ssI2
(dp124
I0
g118
sI1
g122
sI2
(lp125
sI3
(lp126
ssI3
(dp127
I0
g119
sI1
g123
sI2
g126
sI3
(lp128
ssa(dp129
I0
(dp130
I0
(lp131
sI1
(lp132
sI2
(lp133
sI3
(lp134
ssI1
(dp135
I0
g132
sI1
(lp136
sI2
(lp137
sI3
(lp138
ssI2
(dp139
I0
g133
sI1
g137
sI2
(lp140
sI3
(lp141
ssI3
(dp142
I0
g134
sI1
g138
sI2
g141
sI3
(lp143
ssa(dp144
I0
(dp145
I0
(lp146
sI1
(lp147
sI2
(lp148
sI3
(lp149
ssI1
(dp150
I0
g147
sI1
(lp151
sI2
(lp152
sI3
(lp153
ssI2
(dp154
I0
g148
sI1
g152
sI2
(lp155
sI3
(lp156
ssI3
(dp157
I0
g149
sI1
g153
sI2
g156
sI3
(lp158
ssa(dp159
I0
(dp160
I0
(lp161
sI1
(lp162
sI2
(lp163
sI3
(lp164
ssI1
(dp165
I0
g162
sI1
(lp166
sI2
(lp167
sI3
(lp168
ssI2
(dp169
I0
g163
sI1
g167
sI2
(lp170
sI3
(lp171
ssI3
(dp172
I0
g164
sI1
g168
sI2
g171
sI3
(lp173
ssa(dp174
I0
(dp175
I0
(lp176
sI1
(lp177
sI2
(lp178
sI3
(lp179
ssI1
(dp180
I0
g177
sI1
(lp181
sI2
(lp182
sI3
(lp183
ssI2
(dp184
I0
g178
sI1
g182
sI2
(lp185
sI3
(lp186
ssI3
(dp187
I0
g179
sI1
g183
sI2
g186
sI3
(lp188
ssa(dp189
I0
(dp190
I0
(lp191
sI1
(lp192
sI2
(lp193
sI3
(lp194
ssI1
(dp195
I0
g192
sI1
(lp196
sI2
(lp197
sI3
(lp198
ssI2
(dp199
I0
g193
sI1
g197
sI2
(lp200
sI3
(lp201
ssI3
(dp202
I0
g194
sI1
g198
sI2
g201
sI3
(lp203
ssa(dp204
I0
(dp205
I0
(lp206
sI1
(lp207
sI2
(lp208
sI3
(lp209
ssI1
(dp210
I0
g207
sI1
(lp211
sI2
(lp212
sI3
(lp213
ssI2
(dp214
I0
g208
sI1
g212
sI2
(lp215
sI3
(lp216
ssI3
(dp217
I0
g209
sI1
g213
sI2
g216
sI3
(lp218
ssa(dp219
I0
(dp220
I0
(lp221
sI1
(lp222
sI2
(lp223
sI3
(lp224
ssI1
(dp225
I0
g222
sI1
(lp226
sI2
(lp227
sI3
(lp228
ssI2
(dp229
I0
g223
sI1
g227
sI2
(lp230
sI3
(lp231
ssI3
(dp232
I0
g224
sI1
g228
sI2
g231
sI3
(lp233
ssa(dp234
I0
(dp235
I0
(lp236
sI1
(lp237
sI2
(lp238
sI3
(lp239
ssI1
(dp240
I0
g237
sI1
(lp241
sI2
(lp242
sI3
(lp243
ssI2
(dp244
I0
g238
sI1
g242
sI2
(lp245
sI3
(lp246
ssI3
(dp247
I0
g239
sI1
g243
sI2
g246
sI3
(lp248
ssa(dp249
I0
(dp250
I0
(lp251
sI1
(lp252
sI2
(lp253
sI3
(lp254
ssI1
(dp255
I0
g252
sI1
(lp256
sI2
(lp257
sI3
(lp258
ssI2
(dp259
I0
g253
sI1
g257
sI2
(lp260
sI3
(lp261
ssI3
(dp262
I0
g254
sI1
g258
sI2
g261
sI3
(lp263
ssa(dp264
I0
(dp265
I0
(lp266
sI1
(lp267
sI2
(lp268
sI3
(lp269
ssI1
(dp270
I0
g267
sI1
(lp271
sI2
(lp272
sI3
(lp273
ssI2
(dp274
I0
g268
sI1
g272
sI2
(lp275
sI3
(lp276
ssI3
(dp277
I0
g269
sI1
g273
sI2
g276
sI3
(lp278
ssa(dp279
I0
(dp280
I0
(lp281
sI1
(lp282
sI2
(lp283
sI3
(lp284
ssI1
(dp285
I0
g282
sI1
(lp286
sI2
(lp287
sI3
(lp288
ssI2
(dp289
I0
g283
sI1
g287
sI2
(lp290
sI3
(lp291
ssI3
(dp292
I0
g284
sI1
g288
sI2
g291
sI3
(lp293
ssa.