(lp1
(lp2
(lp3
a(lp4
a(lp5
aa(lp6
(lp7
((lp8
Vhttp://www.w3.org/2002/07/owl#Thing
p9
aVhttp://xmlns.com/foaf/0.1/Person
p10
aVhttp://dbpedia.org/ontology/Person
p11
aVhttp://www.ontologydesignpatterns.org/ont/dul/DUL.owl#Agent
p12
aVhttp://www.ontologydesignpatterns.org/ont/dul/DUL.owl#NaturalPerson
p13
aVhttp://www.wikidata.org/entity/Q215627
p14
aVhttp://www.wikidata.org/entity/Q36180
p15
aVhttp://www.wikidata.org/entity/Q5
p16
aVhttp://dbpedia.org/ontology/Agent
p17
aVhttp://dbpedia.org/ontology/Writer
p18
aVhttp://schema.org/Person
p19
aVhttp://dbpedia.org/resource/Mark_de_Rond
p20
tp21
aa(lp22
a(lp23
aa(lp24
(lp25
a(lp26
a(lp27
aa(lp28
(lp29
a(lp30
a(lp31
aa(lp32
(lp33
a(lp34
a(lp35
aa(lp36
(lp37
a(lp38
a(lp39
aa(lp40
(lp41
a(lp42
a(lp43
aa(lp44
(lp45
a(lp46
a(lp47
aa(lp48
(lp49
a(lp50
a(lp51
aa(lp52
(lp53
a(lp54
a(lp55
aa(lp56
(lp57
a(lp58
a(lp59
aa.