(lp1
(lp2
(lp3
((lp4
Vhttp://dbpedia.org/class/yago/CausalAgent100007347
p5
aVhttp://dbpedia.org/class/yago/LivingThing100004258
p6
aVhttp://dbpedia.org/class/yago/Object100002684
p7
aVhttp://dbpedia.org/class/yago/Organism100004475
p8
aVhttp://dbpedia.org/class/yago/Person100007846
p9
aVhttp://dbpedia.org/class/yago/Whole100003553
p10
aVhttp://dbpedia.org/class/yago/YagoLegalActorGeo
p11
aVhttp://www.w3.org/2002/07/owl#Thing
p12
aVhttp://xmlns.com/foaf/0.1/Person
p13
aVhttp://dbpedia.org/ontology/Person
p14
aVhttp://www.ontologydesignpatterns.org/ont/dul/DUL.owl#Agent
p15
aVhttp://www.ontologydesignpatterns.org/ont/dul/DUL.owl#NaturalPerson
p16
aVhttp://www.wikidata.org/entity/Q215627
p17
aVhttp://www.wikidata.org/entity/Q5
p18
aVhttp://dbpedia.org/ontology/Agent
p19
aVhttp://dbpedia.org/ontology/PlayboyPlaymate
p20
aVhttp://schema.org/Person
p21
aVhttp://umbel.org/umbel/rc/PlayboyModel
p22
aVhttp://dbpedia.org/class/yago/PeopleFromLondon
p23
aVhttp://dbpedia.org/class/yago/YagoLegalActor
p24
aVhttp://dbpedia.org/class/yago/LivingPeople
p25
aVhttp://dbpedia.org/class/yago/PhysicalEntity100001930
p26
aVhttp://dbpedia.org/resource/Ashlyn_Martin
tp27
aa(lp28
((lp29
Vhttp://dbpedia.org/class/yago/CausalAgent100007347
p30
aVhttp://dbpedia.org/class/yago/LivingThing100004258
p31
aVhttp://dbpedia.org/class/yago/Object100002684
p32
aVhttp://dbpedia.org/class/yago/Organism100004475
p33
aVhttp://dbpedia.org/class/yago/Person100007846
p34
aVhttp://dbpedia.org/class/yago/Whole100003553
p35
aVhttp://dbpedia.org/class/yago/YagoLegalActorGeo
p36
aVhttp://www.w3.org/2002/07/owl#Thing
p37
aVhttp://xmlns.com/foaf/0.1/Person
p38
aVhttp://dbpedia.org/ontology/Person
p39
aVhttp://www.ontologydesignpatterns.org/ont/dul/DUL.owl#Agent
p40
aVhttp://www.ontologydesignpatterns.org/ont/dul/DUL.owl#NaturalPerson
p41
aVhttp://www.wikidata.org/entity/Q215627
p42
aVhttp://www.wikidata.org/entity/Q5
p43
aVhttp://dbpedia.org/ontology/Agent
p44
aVhttp://dbpedia.org/ontology/PlayboyPlaymate
p45
aVhttp://schema.org/Person
p46
aVhttp://umbel.org/umbel/rc/PlayboyModel
p47
aVhttp://dbpedia.org/class/yago/PeopleFromSantaMonica,California
p48
aVhttp://dbpedia.org/class/yago/YagoLegalActor
p49
aVhttp://dbpedia.org/class/yago/LivingPeople
p50
aVhttp://dbpedia.org/class/yago/PhysicalEntity100001930
p51
aVhttp://dbpedia.org/resource/Chris_Cranston
tp52
aa(lp53
((lp54
Vhttp://dbpedia.org/class/yago/CausalAgent100007347
p55
aVhttp://dbpedia.org/class/yago/LivingThing100004258
p56
aVhttp://dbpedia.org/class/yago/Object100002684
p57
aVhttp://dbpedia.org/class/yago/Organism100004475
p58
aVhttp://dbpedia.org/class/yago/Person100007846
p59
aVhttp://dbpedia.org/class/yago/Whole100003553
p60
aVhttp://dbpedia.org/class/yago/YagoLegalActorGeo
p61
aVhttp://www.w3.org/2002/07/owl#Thing
p62
aVhttp://xmlns.com/foaf/0.1/Person
p63
aVhttp://dbpedia.org/ontology/Person
p64
aVhttp://www.ontologydesignpatterns.org/ont/dul/DUL.owl#Agent
p65
aVhttp://www.ontologydesignpatterns.org/ont/dul/DUL.owl#NaturalPerson
p66
aVhttp://www.wikidata.org/entity/Q215627
p67
aVhttp://www.wikidata.org/entity/Q5
p68
aVhttp://dbpedia.org/ontology/Agent
p69
aVhttp://dbpedia.org/ontology/PlayboyPlaymate
p70
aVhttp://schema.org/Person
p71
aVhttp://umbel.org/umbel/rc/PlayboyModel
p72
aVhttp://dbpedia.org/class/yago/PeopleFromWashington,D.C.
p73
aVhttp://dbpedia.org/class/yago/YagoLegalActor
p74
aVhttp://dbpedia.org/class/yago/LivingPeople
p75
aVhttp://dbpedia.org/class/yago/PhysicalEntity100001930
p76
aVhttp://dbpedia.org/resource/Connie_Mason
tp77
aa(lp78
((lp79
Vhttp://dbpedia.org/class/yago/Absentee109757653
p80
aVhttp://dbpedia.org/class/yago/Actor109765278
p81
aVhttp://dbpedia.org/class/yago/Assistant109815790
p82
aVhttp://dbpedia.org/class/yago/CausalAgent100007347
p83
aVhttp://dbpedia.org/class/yago/Entertainer109616922
p84
aVhttp://dbpedia.org/class/yago/Exile110071332
p85
aVhttp://dbpedia.org/class/yago/LivingThing100004258
p86
aVhttp://dbpedia.org/class/yago/Model110324560
p87
aVhttp://dbpedia.org/class/yago/Object100002684
p88
aVhttp://dbpedia.org/class/yago/Organism100004475
p89
aVhttp://dbpedia.org/class/yago/Performer110415638
p90
aVhttp://dbpedia.org/class/yago/Person100007846
p91
aVhttp://dbpedia.org/class/yago/Traveler109629752
p92
aVhttp://dbpedia.org/class/yago/Whole100003553
p93
aVhttp://dbpedia.org/class/yago/Worker109632518
p94
aVhttp://dbpedia.org/class/yago/YagoLegalActorGeo
p95
aVhttp://www.w3.org/2002/07/owl#Thing
p96
aVhttp://xmlns.com/foaf/0.1/Person
p97
aVhttp://dbpedia.org/ontology/Person
p98
aVhttp://www.ontologydesignpatterns.org/ont/dul/DUL.owl#Agent
p99
aVhttp://www.ontologydesignpatterns.org/ont/dul/DUL.owl#NaturalPerson
p100
aVhttp://www.wikidata.org/entity/Q215627
p101
aVhttp://www.wikidata.org/entity/Q5
p102
aVhttp://dbpedia.org/ontology/Agent
p103
aVhttp://dbpedia.org/ontology/PlayboyPlaymate
p104
aVhttp://schema.org/Person
p105
aVhttp://umbel.org/umbel/rc/PlayboyModel
p106
aVhttp://dbpedia.org/class/yago/EnglishExpatriatesInTheUnitedStates
p107
aVhttp://dbpedia.org/class/yago/EnglishFemaleModels
p108
aVhttp://dbpedia.org/class/yago/EnglishFilmActors
p109
aVhttp://dbpedia.org/class/yago/EnglishTelevisionActors
p110
aVhttp://dbpedia.org/class/yago/PeopleFromBristol
p111
aVhttp://dbpedia.org/class/yago/YagoLegalActor
p112
aVhttp://dbpedia.org/class/yago/LivingPeople
p113
aVhttp://dbpedia.org/class/yago/PhysicalEntity100001930
p114
aVhttp://dbpedia.org/resource/Dolly_Martin
tp115
aa(lp116
((lp117
Vhttp://dbpedia.org/class/yago/CausalAgent100007347
p118
aVhttp://dbpedia.org/class/yago/LivingThing100004258
p119
aVhttp://dbpedia.org/class/yago/Object100002684
p120
aVhttp://dbpedia.org/class/yago/Organism100004475
p121
aVhttp://dbpedia.org/class/yago/Person100007846
p122
aVhttp://dbpedia.org/class/yago/Whole100003553
p123
aVhttp://dbpedia.org/class/yago/YagoLegalActorGeo
p124
aVhttp://www.w3.org/2002/07/owl#Thing
p125
aVhttp://xmlns.com/foaf/0.1/Person
p126
aVhttp://dbpedia.org/ontology/Person
p127
aVhttp://www.ontologydesignpatterns.org/ont/dul/DUL.owl#Agent
p128
aVhttp://www.ontologydesignpatterns.org/ont/dul/DUL.owl#NaturalPerson
p129
aVhttp://www.wikidata.org/entity/Q215627
p130
aVhttp://www.wikidata.org/entity/Q5
p131
aVhttp://dbpedia.org/ontology/Agent
p132
aVhttp://dbpedia.org/ontology/PlayboyPlaymate
p133
aVhttp://schema.org/Person
p134
aVhttp://umbel.org/umbel/rc/PlayboyModel
p135
aVhttp://dbpedia.org/class/yago/YagoLegalActor
p136
aVhttp://dbpedia.org/class/yago/LivingPeople
p137
aVhttp://dbpedia.org/class/yago/PhysicalEntity100001930
p138
aVhttp://dbpedia.org/class/yago/WalloonPeople
p139
aVhttp://dbpedia.org/resource/Hedy_Scott
tp140
aa(lp141
((lp142
Vhttp://dbpedia.org/class/yago/Actor109765278
p143
aVhttp://dbpedia.org/class/yago/African-AmericanPlayboyPlaymates
p144
aVhttp://dbpedia.org/class/yago/AfricanAmericanFilmActors
p145
aVhttp://dbpedia.org/class/yago/CausalAgent100007347
p146
aVhttp://dbpedia.org/class/yago/Entertainer109616922
p147
aVhttp://dbpedia.org/class/yago/Friend110112591
p148
aVhttp://dbpedia.org/class/yago/LivingThing100004258
p149
aVhttp://dbpedia.org/class/yago/Object100002684
p150
aVhttp://dbpedia.org/class/yago/Organism100004475
p151
aVhttp://dbpedia.org/class/yago/Performer110415638
p152
aVhttp://dbpedia.org/class/yago/Person100007846
p153
aVhttp://dbpedia.org/class/yago/Playmate110441037
p154
aVhttp://dbpedia.org/class/yago/Whole100003553
p155
aVhttp://dbpedia.org/class/yago/YagoLegalActorGeo
p156
aVhttp://www.w3.org/2002/07/owl#Thing
p157
aVhttp://xmlns.com/foaf/0.1/Person
p158
aVhttp://dbpedia.org/ontology/Person
p159
aVhttp://www.ontologydesignpatterns.org/ont/dul/DUL.owl#Agent
p160
aVhttp://www.ontologydesignpatterns.org/ont/dul/DUL.owl#NaturalPerson
p161
aVhttp://www.wikidata.org/entity/Q215627
p162
aVhttp://www.wikidata.org/entity/Q5
p163
aVhttp://dbpedia.org/ontology/Agent
p164
aVhttp://dbpedia.org/ontology/PlayboyPlaymate
p165
aVhttp://schema.org/Person
p166
aVhttp://umbel.org/umbel/rc/PlayboyModel
p167
aVhttp://dbpedia.org/class/yago/PeopleFromSt.Louis,Missouri
p168
aVhttp://dbpedia.org/class/yago/YagoLegalActor
p169
aVhttp://dbpedia.org/class/yago/Companion109945905
p170
aVhttp://dbpedia.org/class/yago/LivingPeople
p171
aVhttp://dbpedia.org/class/yago/PhysicalEntity100001930
p172
aVhttp://dbpedia.org/resource/Jean_Bell
tp173
aa(lp174
((lp175
Vhttp://www.w3.org/2002/07/owl#Thing
p176
aVhttp://xmlns.com/foaf/0.1/Person
p177
aVhttp://dbpedia.org/ontology/Person
p178
aVhttp://www.ontologydesignpatterns.org/ont/dul/DUL.owl#Agent
p179
aVhttp://www.ontologydesignpatterns.org/ont/dul/DUL.owl#NaturalPerson
p180
aVhttp://www.wikidata.org/entity/Q215627
p181
aVhttp://www.wikidata.org/entity/Q5
p182
aVhttp://dbpedia.org/ontology/Agent
p183
aVhttp://dbpedia.org/ontology/PlayboyPlaymate
p184
aVhttp://schema.org/Person
p185
aVhttp://umbel.org/umbel/rc/PlayboyModel
p186
aVhttp://dbpedia.org/resource/Jessica_St._George
tp187
aa(lp188
((lp189
Vhttp://dbpedia.org/class/yago/Actor109765278
p190
aVhttp://dbpedia.org/class/yago/AmericanActors
p191
aVhttp://dbpedia.org/class/yago/AmericanFilmActors
p192
aVhttp://dbpedia.org/class/yago/AmericanPeopleOfItalianDescent
p193
aVhttp://dbpedia.org/class/yago/AmericanPlayboyPlaymatesOfItalianDescent
p194
aVhttp://dbpedia.org/class/yago/AmericanTelevisionActors
p195
aVhttp://dbpedia.org/class/yago/CausalAgent100007347
p196
aVhttp://dbpedia.org/class/yago/Entertainer109616922
p197
aVhttp://dbpedia.org/class/yago/Friend110112591
p198
aVhttp://dbpedia.org/class/yago/LivingThing100004258
p199
aVhttp://dbpedia.org/class/yago/Object100002684
p200
aVhttp://dbpedia.org/class/yago/Organism100004475
p201
aVhttp://dbpedia.org/class/yago/Performer110415638
p202
aVhttp://dbpedia.org/class/yago/Person100007846
p203
aVhttp://dbpedia.org/class/yago/Playmate110441037
p204
aVhttp://dbpedia.org/class/yago/Whole100003553
p205
aVhttp://dbpedia.org/class/yago/YagoLegalActorGeo
p206
aVhttp://www.w3.org/2002/07/owl#Thing
p207
aVhttp://xmlns.com/foaf/0.1/Person
p208
aVhttp://dbpedia.org/ontology/Person
p209
aVhttp://www.ontologydesignpatterns.org/ont/dul/DUL.owl#Agent
p210
aVhttp://www.ontologydesignpatterns.org/ont/dul/DUL.owl#NaturalPerson
p211
aVhttp://www.wikidata.org/entity/Q215627
p212
aVhttp://www.wikidata.org/entity/Q5
p213
aVhttp://dbpedia.org/ontology/Agent
p214
aVhttp://dbpedia.org/ontology/PlayboyPlaymate
p215
aVhttp://schema.org/Person
p216
aVhttp://umbel.org/umbel/rc/PlayboyModel
p217
aVhttp://dbpedia.org/class/yago/PeopleFromNewYork
p218
aVhttp://dbpedia.org/class/yago/PeopleFromTheBronx
p219
aVhttp://dbpedia.org/class/yago/YagoLegalActor
p220
aVhttp://dbpedia.org/class/yago/Companion109945905
p221
aVhttp://dbpedia.org/class/yago/LivingPeople
p222
aVhttp://dbpedia.org/class/yago/PhysicalEntity100001930
p223
aVhttp://dbpedia.org/resource/Joyce_Nizzari
tp224
aa(lp225
((lp226
Vhttp://dbpedia.org/class/yago/CausalAgent100007347
p227
aVhttp://dbpedia.org/class/yago/LivingThing100004258
p228
aVhttp://dbpedia.org/class/yago/Object100002684
p229
aVhttp://dbpedia.org/class/yago/Organism100004475
p230
aVhttp://dbpedia.org/class/yago/Person100007846
p231
aVhttp://dbpedia.org/class/yago/Whole100003553
p232
aVhttp://dbpedia.org/class/yago/YagoLegalActorGeo
p233
aVhttp://www.w3.org/2002/07/owl#Thing
p234
aVhttp://xmlns.com/foaf/0.1/Person
p235
aVhttp://dbpedia.org/ontology/Person
p236
aVhttp://www.ontologydesignpatterns.org/ont/dul/DUL.owl#Agent
p237
aVhttp://www.ontologydesignpatterns.org/ont/dul/DUL.owl#NaturalPerson
p238
aVhttp://www.wikidata.org/entity/Q215627
p239
aVhttp://www.wikidata.org/entity/Q5
p240
aVhttp://dbpedia.org/ontology/Agent
p241
aVhttp://dbpedia.org/ontology/PlayboyPlaymate
p242
aVhttp://schema.org/Person
p243
aVhttp://umbel.org/umbel/rc/PlayboyModel
p244
aVhttp://dbpedia.org/class/yago/YagoLegalActor
p245
aVhttp://dbpedia.org/class/yago/LivingPeople
p246
aVhttp://dbpedia.org/class/yago/PhysicalEntity100001930
p247
aVhttp://dbpedia.org/resource/June_Blair
tp248
aa(lp249
((lp250
Vhttp://dbpedia.org/class/yago/CausalAgent100007347
p251
aVhttp://dbpedia.org/class/yago/Leader109623038
p252
aVhttp://dbpedia.org/class/yago/LivingThing100004258
p253
aVhttp://dbpedia.org/class/yago/Object100002684
p254
aVhttp://dbpedia.org/class/yago/Organism100004475
p255
aVhttp://dbpedia.org/class/yago/Person100007846
p256
aVhttp://dbpedia.org/class/yago/Politician110451263
p257
aVhttp://dbpedia.org/class/yago/Whole100003553
p258
aVhttp://dbpedia.org/class/yago/YagoLegalActorGeo
p259
aVhttp://www.w3.org/2002/07/owl#Thing
p260
aVhttp://xmlns.com/foaf/0.1/Person
p261
aVhttp://dbpedia.org/ontology/Person
p262
aVhttp://www.ontologydesignpatterns.org/ont/dul/DUL.owl#Agent
p263
aVhttp://www.ontologydesignpatterns.org/ont/dul/DUL.owl#NaturalPerson
p264
aVhttp://www.wikidata.org/entity/Q215627
p265
aVhttp://www.wikidata.org/entity/Q5
p266
aVhttp://www.wikidata.org/entity/Q82955
p267
aVhttp://dbpedia.org/ontology/Agent
p268
aVhttp://dbpedia.org/ontology/Politician
p269
aVhttp://schema.org/Person
p270
aVhttp://dbpedia.org/class/yago/YagoLegalActor
p271
aVhttp://dbpedia.org/class/yago/LivingPeople
p272
aVhttp://dbpedia.org/class/yago/PhysicalEntity100001930
p273
aVhttp://dbpedia.org/resource/Marilyn_More
tp274
aa(lp275
((lp276
Vhttp://dbpedia.org/class/yago/AmericanClassicalFlautists
p277
aVhttp://dbpedia.org/class/yago/AmericanPeopleOfNewZealandDescent
p278
aVhttp://dbpedia.org/class/yago/Artist109812338
p279
aVhttp://dbpedia.org/class/yago/CausalAgent100007347
p280
aVhttp://dbpedia.org/class/yago/Creator109614315
p281
aVhttp://dbpedia.org/class/yago/Entertainer109616922
p282
aVhttp://dbpedia.org/class/yago/Flutist110098245
p283
aVhttp://dbpedia.org/class/yago/LivingThing100004258
p284
aVhttp://dbpedia.org/class/yago/Musician110339966
p285
aVhttp://dbpedia.org/class/yago/Musician110340312
p286
aVhttp://dbpedia.org/class/yago/Object100002684
p287
aVhttp://dbpedia.org/class/yago/Organism100004475
p288
aVhttp://dbpedia.org/class/yago/Performer110415638
p289
aVhttp://dbpedia.org/class/yago/Person100007846
p290
aVhttp://dbpedia.org/class/yago/Whole100003553
p291
aVhttp://dbpedia.org/class/yago/YagoLegalActorGeo
p292
aVhttp://www.w3.org/2002/07/owl#Thing
p293
aVhttp://xmlns.com/foaf/0.1/Person
p294
aVhttp://dbpedia.org/ontology/Person
p295
aVhttp://www.ontologydesignpatterns.org/ont/dul/DUL.owl#Agent
p296
aVhttp://www.ontologydesignpatterns.org/ont/dul/DUL.owl#NaturalPerson
p297
aVhttp://www.wikidata.org/entity/Q215627
p298
aVhttp://www.wikidata.org/entity/Q5
p299
aVhttp://dbpedia.org/ontology/Agent
p300
aVhttp://schema.org/Person
p301
aVhttp://dbpedia.org/class/yago/YagoLegalActor
p302
aVhttp://dbpedia.org/class/yago/LivingPeople
p303
aVhttp://dbpedia.org/class/yago/PhysicalEntity100001930
p304
aVhttp://dbpedia.org/resource/Marya_Martin
tp305
aa(lp306
((lp307
Vhttp://dbpedia.org/class/yago/CausalAgent100007347
p308
aVhttp://dbpedia.org/class/yago/LivingThing100004258
p309
aVhttp://dbpedia.org/class/yago/Object100002684
p310
aVhttp://dbpedia.org/class/yago/Organism100004475
p311
aVhttp://dbpedia.org/class/yago/Person100007846
p312
aVhttp://dbpedia.org/class/yago/Whole100003553
p313
aVhttp://dbpedia.org/class/yago/YagoLegalActorGeo
p314
aVhttp://www.w3.org/2002/07/owl#Thing
p315
aVhttp://xmlns.com/foaf/0.1/Person
p316
aVhttp://dbpedia.org/ontology/Person
p317
aVhttp://www.ontologydesignpatterns.org/ont/dul/DUL.owl#Agent
p318
aVhttp://www.ontologydesignpatterns.org/ont/dul/DUL.owl#NaturalPerson
p319
aVhttp://www.wikidata.org/entity/Q215627
p320
aVhttp://www.wikidata.org/entity/Q5
p321
aVhttp://dbpedia.org/ontology/Agent
p322
aVhttp://dbpedia.org/ontology/PlayboyPlaymate
p323
aVhttp://schema.org/Person
p324
aVhttp://umbel.org/umbel/rc/PlayboyModel
p325
aVhttp://dbpedia.org/class/yago/PeopleFromChicago,Illinois
p326
aVhttp://dbpedia.org/class/yago/YagoLegalActor
p327
aVhttp://dbpedia.org/class/yago/LivingPeople
p328
aVhttp://dbpedia.org/class/yago/PhysicalEntity100001930
p329
aVhttp://dbpedia.org/resource/Patti_Reynolds
tp330
aa(lp331
((lp332
Vhttp://dbpedia.org/class/yago/Actor109765278
p333
aVhttp://dbpedia.org/class/yago/AmericanActors
p334
aVhttp://dbpedia.org/class/yago/CausalAgent100007347
p335
aVhttp://dbpedia.org/class/yago/Entertainer109616922
p336
aVhttp://dbpedia.org/class/yago/Friend110112591
p337
aVhttp://dbpedia.org/class/yago/LivingThing100004258
p338
aVhttp://dbpedia.org/class/yago/Object100002684
p339
aVhttp://dbpedia.org/class/yago/Organism100004475
p340
aVhttp://dbpedia.org/class/yago/Performer110415638
p341
aVhttp://dbpedia.org/class/yago/Person100007846
p342
aVhttp://dbpedia.org/class/yago/Playmate110441037
p343
aVhttp://dbpedia.org/class/yago/Serviceman110582746
p344
aVhttp://dbpedia.org/class/yago/SkilledWorker110605985
p345
aVhttp://dbpedia.org/class/yago/Volunteer110759331
p346
aVhttp://dbpedia.org/class/yago/Whole100003553
p347
aVhttp://dbpedia.org/class/yago/Worker109632518
p348
aVhttp://dbpedia.org/class/yago/YagoLegalActorGeo
p349
aVhttp://www.w3.org/2002/07/owl#Thing
p350
aVhttp://xmlns.com/foaf/0.1/Person
p351
aVhttp://dbpedia.org/ontology/Person
p352
aVhttp://www.ontologydesignpatterns.org/ont/dul/DUL.owl#Agent
p353
aVhttp://www.ontologydesignpatterns.org/ont/dul/DUL.owl#NaturalPerson
p354
aVhttp://www.wikidata.org/entity/Q215627
p355
aVhttp://www.wikidata.org/entity/Q5
p356
aVhttp://dbpedia.org/ontology/Agent
p357
aVhttp://dbpedia.org/ontology/PlayboyPlaymate
p358
aVhttp://schema.org/Person
p359
aVhttp://umbel.org/umbel/rc/PlayboyModel
p360
aVhttp://dbpedia.org/class/yago/PeaceCorpsVolunteers
p361
aVhttp://dbpedia.org/class/yago/PeopleFromSeminoleCounty,Oklahoma
p362
aVhttp://dbpedia.org/class/yago/PlayboyPlaymatesOfTheYear
p363
aVhttp://dbpedia.org/class/yago/YagoLegalActor
p364
aVhttp://dbpedia.org/class/yago/Companion109945905
p365
aVhttp://dbpedia.org/class/yago/LivingPeople
p366
aVhttp://dbpedia.org/class/yago/PhysicalEntity100001930
p367
aVhttp://dbpedia.org/resource/Sharon_Clark
tp368
aa(lp369
((lp370
Vhttp://www.w3.org/2002/07/owl#Thing
p371
aVhttp://xmlns.com/foaf/0.1/Person
p372
aVhttp://dbpedia.org/ontology/Person
p373
aVhttp://www.ontologydesignpatterns.org/ont/dul/DUL.owl#Agent
p374
aVhttp://www.ontologydesignpatterns.org/ont/dul/DUL.owl#NaturalPerson
p375
aVhttp://www.wikidata.org/entity/Q215627
p376
aVhttp://www.wikidata.org/entity/Q5
p377
aVhttp://dbpedia.org/ontology/Agent
p378
aVhttp://dbpedia.org/ontology/PlayboyPlaymate
p379
aVhttp://schema.org/Person
p380
aVhttp://dbpedia.org/resource/List_of_Playboy_Playmates_of_1965
tp381
aa(lp382
((lp383
Vhttp://www.w3.org/2002/07/owl#Thing
p384
aVhttp://xmlns.com/foaf/0.1/Person
p385
aVhttp://dbpedia.org/ontology/Person
p386
aVhttp://www.ontologydesignpatterns.org/ont/dul/DUL.owl#Agent
p387
aVhttp://www.ontologydesignpatterns.org/ont/dul/DUL.owl#NaturalPerson
p388
aVhttp://www.wikidata.org/entity/Q215627
p389
aVhttp://www.wikidata.org/entity/Q5
p390
aVhttp://dbpedia.org/ontology/Agent
p391
aVhttp://dbpedia.org/ontology/PlayboyPlaymate
p392
aVhttp://schema.org/Person
p393
aVhttp://dbpedia.org/resource/List_of_Playboy_Playmates_of_1965
tp394
aa(lp395
((lp396
Vhttp://www.w3.org/2002/07/owl#Thing
p397
aVhttp://xmlns.com/foaf/0.1/Person
p398
aVhttp://dbpedia.org/ontology/Person
p399
aVhttp://www.ontologydesignpatterns.org/ont/dul/DUL.owl#Agent
p400
aVhttp://www.ontologydesignpatterns.org/ont/dul/DUL.owl#NaturalPerson
p401
aVhttp://www.wikidata.org/entity/Q215627
p402
aVhttp://www.wikidata.org/entity/Q5
p403
aVhttp://dbpedia.org/ontology/Agent
p404
aVhttp://dbpedia.org/ontology/PlayboyPlaymate
p405
aVhttp://schema.org/Person
p406
aVhttp://dbpedia.org/resource/List_of_Playboy_Playmates_of_1965
tp407
aa(lp408
((lp409
Vhttp://www.w3.org/2002/07/owl#Thing
p410
aVhttp://xmlns.com/foaf/0.1/Person
p411
aVhttp://dbpedia.org/ontology/Person
p412
aVhttp://www.ontologydesignpatterns.org/ont/dul/DUL.owl#Agent
p413
aVhttp://www.ontologydesignpatterns.org/ont/dul/DUL.owl#NaturalPerson
p414
aVhttp://www.wikidata.org/entity/Q215627
p415
aVhttp://www.wikidata.org/entity/Q5
p416
aVhttp://dbpedia.org/ontology/Agent
p417
aVhttp://dbpedia.org/ontology/PlayboyPlaymate
p418
aVhttp://schema.org/Person
p419
aVhttp://dbpedia.org/resource/List_of_Playboy_Playmates_of_1965
tp420
aa(lp421
((lp422
Vhttp://dbpedia.org/class/yago/Actor109765278
p423
aVhttp://dbpedia.org/class/yago/AmericanActors
p424
aVhttp://dbpedia.org/class/yago/AmericanFemaleAdultModels
p425
aVhttp://dbpedia.org/class/yago/Assistant109815790
p426
aVhttp://dbpedia.org/class/yago/CausalAgent100007347
p427
aVhttp://dbpedia.org/class/yago/Entertainer109616922
p428
aVhttp://dbpedia.org/class/yago/LivingThing100004258
p429
aVhttp://dbpedia.org/class/yago/Model110324560
p430
aVhttp://dbpedia.org/class/yago/Object100002684
p431
aVhttp://dbpedia.org/class/yago/Organism100004475
p432
aVhttp://dbpedia.org/class/yago/Performer110415638
p433
aVhttp://dbpedia.org/class/yago/Person100007846
p434
aVhttp://dbpedia.org/class/yago/Whole100003553
p435
aVhttp://dbpedia.org/class/yago/Worker109632518
p436
aVhttp://dbpedia.org/class/yago/YagoLegalActorGeo
p437
aVhttp://www.w3.org/2002/07/owl#Thing
p438
aVhttp://xmlns.com/foaf/0.1/Person
p439
aVhttp://dbpedia.org/ontology/Person
p440
aVhttp://www.ontologydesignpatterns.org/ont/dul/DUL.owl#Agent
p441
aVhttp://www.ontologydesignpatterns.org/ont/dul/DUL.owl#NaturalPerson
p442
aVhttp://www.wikidata.org/entity/Q215627
p443
aVhttp://www.wikidata.org/entity/Q5
p444
aVhttp://dbpedia.org/ontology/Agent
p445
aVhttp://dbpedia.org/ontology/PlayboyPlaymate
p446
aVhttp://schema.org/Person
p447
aVhttp://umbel.org/umbel/rc/PlayboyModel
p448
aVhttp://dbpedia.org/class/yago/PeopleFromMesa,Arizona
p449
aVhttp://dbpedia.org/class/yago/YagoLegalActor
p450
aVhttp://dbpedia.org/class/yago/LivingPeople
p451
aVhttp://dbpedia.org/class/yago/PhysicalEntity100001930
p452
aVhttp://dbpedia.org/resource/Alexandria_Karlsen
p453
tp454
aa(lp455
aa.