(lp1
(lp2
(lp3
a(lp4
a(lp5
((lp6
Vhttp://dbpedia.org/class/yago/Artifact100021939
p7
aVhttp://dbpedia.org/class/yago/Building102913152
p8
aVhttp://dbpedia.org/class/yago/Hospital103540595
p9
aVhttp://dbpedia.org/class/yago/Object100002684
p10
aVhttp://dbpedia.org/class/yago/Structure104341686
p11
aVhttp://dbpedia.org/class/yago/Whole100003553
p12
aVhttp://dbpedia.org/class/yago/YagoGeoEntity
p13
aVhttp://dbpedia.org/class/yago/YagoPermanentlyLocatedEntity
p14
aVhttp://dbpedia.org/class/yago/HospitalsInSingapore
p15
aVhttp://dbpedia.org/class/yago/HospitalsWithYearOfEstablishmentMissing
p16
aVhttp://dbpedia.org/class/yago/MedicalBuilding103739518
p17
aVhttp://dbpedia.org/class/yago/PhysicalEntity100001930
p18
aVhttp://dbpedia.org/resource/Ang_Mo_Kio_\u2013_Thye_Hua_Kwan_Hospital
tp19
aa(lp20
aa(lp21
(lp22
a(lp23
a(lp24
a(lp25
aa(lp26
(lp27
a(lp28
a(lp29
((lp30
Vhttp://dbpedia.org/class/yago/Artifact100021939
p31
aVhttp://dbpedia.org/class/yago/Building102913152
p32
aVhttp://dbpedia.org/class/yago/Hospital103540595
p33
aVhttp://dbpedia.org/class/yago/Object100002684
p34
aVhttp://dbpedia.org/class/yago/Structure104341686
p35
aVhttp://dbpedia.org/class/yago/Whole100003553
p36
aVhttp://dbpedia.org/class/yago/YagoGeoEntity
p37
aVhttp://www.w3.org/2002/07/owl#Thing
p38
aVhttp://dbpedia.org/ontology/Place
p39
aVhttp://dbpedia.org/ontology/Location
p40
aVhttp://www.wikidata.org/entity/Q16917
p41
aVhttp://www.wikidata.org/entity/Q41176
p42
aVhttp://dbpedia.org/ontology/ArchitecturalStructure
p43
aVhttp://dbpedia.org/ontology/Building
p44
aVhttp://dbpedia.org/ontology/Hospital
p45
aVhttp://schema.org/Hospital
p46
aVhttp://schema.org/Place
p47
aVhttp://umbel.org/umbel/rc/Building
p48
aVhttp://umbel.org/umbel/rc/HospitalBuilding
p49
aVhttp://dbpedia.org/class/yago/YagoPermanentlyLocatedEntity
p50
aVhttp://dbpedia.org/class/yago/HospitalsInOhio
p51
aVhttp://dbpedia.org/class/yago/MedicalBuilding103739518
p52
aVhttp://dbpedia.org/class/yago/PhysicalEntity100001930
p53
aVhttp://dbpedia.org/class/yago/UniversityHospitalsInTheUnitedStates
p54
aVhttp://dbpedia.org/resource/University_Hospitals_of_Cleveland
tp55
aa(lp56
aa(lp57
(lp58
a(lp59
a(lp60
a(lp61
aa(lp62
(lp63
a(lp64
a(lp65
a(lp66
aa(lp67
(lp68
a(lp69
a(lp70
a(lp71
aa(lp72
(lp73
a(lp74
a(lp75
a(lp76
aa(lp77
(lp78
a(lp79
a(lp80
a(lp81
aa(lp82
(lp83
a(lp84
a(lp85
a(lp86
aa(lp87
(lp88
a(lp89
a(lp90
a(lp91
aa(lp92
(lp93
a(lp94
a(lp95
a(lp96
aa(lp97
(lp98
a(lp99
a(lp100
((lp101
Vhttp://dbpedia.org/class/yago/Abstraction100002137
p102
aVhttp://dbpedia.org/class/yago/Company108058098
p103
aVhttp://dbpedia.org/class/yago/Group100031264
p104
aVhttp://dbpedia.org/class/yago/Institution108053576
p105
aVhttp://dbpedia.org/class/yago/Organization108008335
p106
aVhttp://dbpedia.org/class/yago/SocialGroup107950920
p107
aVhttp://dbpedia.org/class/yago/YagoLegalActorGeo
p108
aVhttp://dbpedia.org/class/yago/CompaniesBasedInPrinceton,NewJersey
p109
aVhttp://dbpedia.org/class/yago/YagoPermanentlyLocatedEntity
p110
aVhttp://dbpedia.org/class/yago/YagoLegalActor
p111
aVhttp://dbpedia.org/resource/Integrity_Health
p112
tp113
aa(lp114
aa(lp115
(lp116
a(lp117
a(lp118
a(lp119
aa(lp120
(lp121
a(lp122
a(lp123
a(lp124
aa(lp125
(lp126
a(lp127
a(lp128
a(lp129
aa(lp130
(lp131
a(lp132
a(lp133
a(lp134
aa(lp135
(lp136
a(lp137
a(lp138
a(lp139
aa(lp140
(lp141
a(lp142
a(lp143
a(lp144
aa.