(lp1
(lp2
(lp3
a(lp4
Vhttp://dbpedia.org/resource/Lunar_Orbiter_2
p5
aa(lp6
a(lp7
aa(lp8
(lp9
a(lp10
Vhttp://dbpedia.org/resource/Ranger_29
p11
aa(lp12
a(lp13
aa(lp14
(lp15
a(lp16
Vhttp://dbpedia.org/resource/Ranger_29
p17
aa(lp18
a(lp19
aa(lp20
(lp21
a(lp22
Vhttp://dbpedia.org/resource/Opel_Astra
p23
aa(lp24
a(lp25
aa(lp26
(lp27
a(lp28
Vhttp://dbpedia.org/resource/Expedition_15
p29
aa(lp30
a(lp31
aa(lp32
(lp33
a(lp34
Vhttp://dbpedia.org/resource/Hot_Bird_13B
p35
aa(lp36
a(lp37
aa(lp38
(lp39
a(lp40
a(lp41
a(lp42
aa(lp43
(lp44
a(lp45
Vhttp://dbpedia.org/resource/RAX-2
p46
aa(lp47
a(lp48
aa(lp49
(lp50
a(lp51
Vhttp://dbpedia.org/resource/Soyuz-U
p52
aa(lp53
a(lp54
aa(lp55
(lp56
a(lp57
Vhttp://dbpedia.org/resource/Soyuz_TM-16
p58
aa(lp59
a(lp60
aa(lp61
(lp62
a(lp63
Vhttp://dbpedia.org/resource/Thor_5
p64
aa(lp65
a(lp66
aa(lp67
(lp68
a(lp69
Vhttp://dbpedia.org/resource/Telstar_10
p70
aa(lp71
a(lp72
aa(lp73
(lp74
a(lp75
Vhttp://dbpedia.org/resource/Venera_16
p76
aa(lp77
a(lp78
aa(lp79
(lp80
a(lp81
Vhttp://dbpedia.org/resource/Venera_16
p82
aa(lp83
a(lp84
aa(lp85
(lp86
a(lp87
Vhttp://dbpedia.org/resource/STS-135
p88
aa(lp89
a(lp90
aa(lp91
(lp92
a(lp93
Vhttp://dbpedia.org/resource/STS-3xx
p94
aa(lp95
a(lp96
aa(lp97
(lp98
a(lp99
Vhttp://dbpedia.org/resource/STS-51-L
p100
aa(lp101
a(lp102
aa(lp103
(lp104
a(lp105
Vhttp://dbpedia.org/resource/Kosmos_283
p106
aa(lp107
a(lp108
aa(lp109
(lp110
a(lp111
Vhttp://dbpedia.org/resource/Kosmos_869
p112
aa(lp113
a(lp114
aa.