(lp1
(lp2
(lp3
a(lp4
a(lp5
aa(lp6
(lp7
a(lp8
a(lp9
aa(lp10
(lp11
a(lp12
a(lp13
aa(lp14
(lp15
a(lp16
a(lp17
aa(lp18
(lp19
a(lp20
a(lp21
aa(lp22
(lp23
a(lp24
a(lp25
aa(lp26
(lp27
a(lp28
a(lp29
aa(lp30
(lp31
a(lp32
Vhttp://dbpedia.org/resource/Jos%C3%A9_Antonio_Grande
p33
aa(lp34
aa(lp35
(lp36
a(lp37
a(lp38
aa(lp39
(lp40
a(lp41
a(lp42
aa(lp43
(lp44
a(lp45
a(lp46
aa(lp47
(lp48
a(lp49
Vhttp://dbpedia.org/resource/Leonardo_da_Silva_Moura
p50
aa(lp51
aa(lp52
(lp53
a(lp54
a(lp55
aa(lp56
(lp57
a(lp58
a(lp59
aa.