(lp1
(lp2
(lp3
a(lp4
a(lp5
Vhttp://dbpedia.org/resource/2011_Conference_USA_Men's_Soccer_Tournament
p6
aa(lp7
aa(lp8
(lp9
a(lp10
a(lp11
Vhttp://dbpedia.org/resource/2012_Regions_Morgan_Keegan_Championships_and_Memphis_International
p12
aa(lp13
aa(lp14
(lp15
a(lp16
a(lp17
Vhttp://dbpedia.org/resource/2011_Conference_USA_Men's_Soccer_Tournament
p18
aa(lp19
aa(lp20
(lp21
a(lp22
a(lp23
Vhttp://dbpedia.org/resource/2010_Toulon_Tournament
p24
aa(lp25
aa(lp26
(lp27
a(lp28
a(lp29
Vhttp://dbpedia.org/resource/2011_Conference_USA_Men's_Soccer_Tournament
p30
aa(lp31
aa(lp32
(lp33
a(lp34
a(lp35
a(lp36
aa(lp37
(lp38
a(lp39
a(lp40
Vhttp://dbpedia.org/resource/2011_Conference_USA_Men's_Soccer_Tournament
p41
aa(lp42
aa(lp43
(lp44
a(lp45
a(lp46
Vhttp://dbpedia.org/resource/2008_Norwegian_Football_Cup_Final
p47
aa(lp48
aa(lp49
(lp50
a(lp51
a(lp52
a(lp53
aa(lp54
(lp55
a(lp56
a(lp57
Vhttp://dbpedia.org/resource/2011_Conference_USA_Men's_Soccer_Tournament
p58
aa(lp59
aa(lp60
(lp61
a(lp62
a(lp63
Vhttp://dbpedia.org/resource/2009_Norwegian_Football_Cup_Final
p64
aa(lp65
aa(lp66
(lp67
a(lp68
a(lp69
Vhttp://dbpedia.org/resource/2011_Conference_USA_Men's_Soccer_Tournament
p70
aa(lp71
aa(lp72
(lp73
a(lp74
a(lp75
Vhttp://dbpedia.org/resource/Deauville_American_Film_Festival
p76
aa(lp77
aa(lp78
(lp79
a(lp80
a(lp81
Vhttp://dbpedia.org/resource/2011_Conference_USA_Men's_Soccer_Tournament
p82
aa(lp83
aa(lp84
(lp85
a(lp86
a(lp87
Vhttp://dbpedia.org/resource/Deauville_American_Film_Festival
p88
aa(lp89
aa(lp90
(lp91
a(lp92
a(lp93
Vhttp://dbpedia.org/resource/2011_Conference_USA_Men's_Soccer_Tournament
p94
aa(lp95
aa(lp96
(lp97
a(lp98
a(lp99
Vhttp://dbpedia.org/resource/Deauville_American_Film_Festival
p100
aa(lp101
aa(lp102
(lp103
a(lp104
a(lp105
a(lp106
aa(lp107
(lp108
a(lp109
a(lp110
a(lp111
aa.