(lp1
(lp2
(lp3
a(lp4
a(lp5
aa(lp6
(lp7
((lp8
Vhttp://www.w3.org/2002/07/owl#Thing
p9
aVhttp://www.wikidata.org/entity/Q4936952
p10
aVhttp://dbpedia.org/ontology/AnatomicalStructure
p11
aVhttp://dbpedia.org/ontology/Brain
p12
aVhttp://umbel.org/umbel/rc/AnimalBodyPart
p13
aVhttp://umbel.org/umbel/rc/Brain
p14
aVhttp://dbpedia.org/resource/Frontal_lobe
tp15
aa(lp16
a(lp17
aa(lp18
(lp19
((lp20
Vhttp://dbpedia.org/class/yago/AnimalTissue105267548
p21
aVhttp://dbpedia.org/class/yago/BodyPart105220461
p22
aVhttp://dbpedia.org/class/yago/Bone105269901
p23
aVhttp://dbpedia.org/class/yago/BonesOfTheLowerLimb
p24
aVhttp://dbpedia.org/class/yago/ConnectiveTissue105286536
p25
aVhttp://dbpedia.org/class/yago/Part109385911
p26
aVhttp://dbpedia.org/class/yago/Thing100002452
p27
aVhttp://dbpedia.org/class/yago/Tissue105267345
p28
aVhttp://www.w3.org/2002/07/owl#Thing
p29
aVhttp://www.wikidata.org/entity/Q265868
p30
aVhttp://www.wikidata.org/entity/Q4936952
p31
aVhttp://dbpedia.org/ontology/AnatomicalStructure
p32
aVhttp://dbpedia.org/ontology/Bone
p33
aVhttp://umbel.org/umbel/rc/AnimalBodyPart
p34
aVhttp://umbel.org/umbel/rc/Bone_BodyPart
p35
aVhttp://dbpedia.org/class/yago/PhysicalEntity100001930
p36
aVhttp://dbpedia.org/resource/Talus_bone
tp37
aa(lp38
a(lp39
aa(lp40
(lp41
((lp42
Vhttp://dbpedia.org/class/yago/AnimalTissue105267548
p43
aVhttp://dbpedia.org/class/yago/BodyPart105220461
p44
aVhttp://dbpedia.org/class/yago/Bone105269901
p45
aVhttp://dbpedia.org/class/yago/BonesOfTheHeadAndNeck
p46
aVhttp://dbpedia.org/class/yago/ConnectiveTissue105286536
p47
aVhttp://dbpedia.org/class/yago/Part109385911
p48
aVhttp://dbpedia.org/class/yago/Thing100002452
p49
aVhttp://dbpedia.org/class/yago/Tissue105267345
p50
aVhttp://www.w3.org/2002/07/owl#Thing
p51
aVhttp://www.wikidata.org/entity/Q265868
p52
aVhttp://www.wikidata.org/entity/Q4936952
p53
aVhttp://dbpedia.org/ontology/AnatomicalStructure
p54
aVhttp://dbpedia.org/ontology/Bone
p55
aVhttp://umbel.org/umbel/rc/AnimalBodyPart
p56
aVhttp://umbel.org/umbel/rc/Bone_BodyPart
p57
aVhttp://dbpedia.org/class/yago/PhysicalEntity100001930
p58
aVhttp://dbpedia.org/resource/Orbital_process_of_palatine_bone
tp59
aa(lp60
a(lp61
aa(lp62
(lp63
((lp64
Vhttp://dbpedia.org/class/yago/AnimalTissue105267548
p65
aVhttp://dbpedia.org/class/yago/BodyPart105220461
p66
aVhttp://dbpedia.org/class/yago/Bone105269901
p67
aVhttp://dbpedia.org/class/yago/BonesOfTheHeadAndNeck
p68
aVhttp://dbpedia.org/class/yago/ConnectiveTissue105286536
p69
aVhttp://dbpedia.org/class/yago/Part109385911
p70
aVhttp://dbpedia.org/class/yago/Thing100002452
p71
aVhttp://dbpedia.org/class/yago/Tissue105267345
p72
aVhttp://www.w3.org/2002/07/owl#Thing
p73
aVhttp://www.wikidata.org/entity/Q265868
p74
aVhttp://www.wikidata.org/entity/Q4936952
p75
aVhttp://dbpedia.org/ontology/AnatomicalStructure
p76
aVhttp://dbpedia.org/ontology/Bone
p77
aVhttp://umbel.org/umbel/rc/AnimalBodyPart
p78
aVhttp://umbel.org/umbel/rc/Bone_BodyPart
p79
aVhttp://dbpedia.org/class/yago/PhysicalEntity100001930
p80
aVhttp://dbpedia.org/resource/Posterior_clinoid_processes
tp81
aa(lp82
a(lp83
aa(lp84
(lp85
((lp86
Vhttp://dbpedia.org/class/yago/AnimalTissue105267548
p87
aVhttp://dbpedia.org/class/yago/BodyPart105220461
p88
aVhttp://dbpedia.org/class/yago/Bone105269901
p89
aVhttp://dbpedia.org/class/yago/ConnectiveTissue105286536
p90
aVhttp://dbpedia.org/class/yago/Part109385911
p91
aVhttp://dbpedia.org/class/yago/Thing100002452
p92
aVhttp://dbpedia.org/class/yago/Tissue105267345
p93
aVhttp://www.w3.org/2002/07/owl#Thing
p94
aVhttp://www.wikidata.org/entity/Q265868
p95
aVhttp://www.wikidata.org/entity/Q4936952
p96
aVhttp://dbpedia.org/ontology/AnatomicalStructure
p97
aVhttp://dbpedia.org/ontology/Bone
p98
aVhttp://umbel.org/umbel/rc/AnimalBodyPart
p99
aVhttp://umbel.org/umbel/rc/Bone_BodyPart
p100
aVhttp://dbpedia.org/class/yago/PhysicalEntity100001930
p101
aVhttp://dbpedia.org/resource/Arcuate_line_of_ilium
tp102
aa(lp103
a(lp104
aa(lp105
(lp106
a(lp107
a(lp108
aa(lp109
(lp110
((lp111
Vhttp://dbpedia.org/class/yago/AnimalTissue105267548
p112
aVhttp://dbpedia.org/class/yago/BodyPart105220461
p113
aVhttp://dbpedia.org/class/yago/Bone105269901
p114
aVhttp://dbpedia.org/class/yago/BonesOfTheHeadAndNeck
p115
aVhttp://dbpedia.org/class/yago/ConnectiveTissue105286536
p116
aVhttp://dbpedia.org/class/yago/Part109385911
p117
aVhttp://dbpedia.org/class/yago/Thing100002452
p118
aVhttp://dbpedia.org/class/yago/Tissue105267345
p119
aVhttp://www.w3.org/2002/07/owl#Thing
p120
aVhttp://www.wikidata.org/entity/Q265868
p121
aVhttp://www.wikidata.org/entity/Q4936952
p122
aVhttp://dbpedia.org/ontology/AnatomicalStructure
p123
aVhttp://dbpedia.org/ontology/Bone
p124
aVhttp://umbel.org/umbel/rc/AnimalBodyPart
p125
aVhttp://umbel.org/umbel/rc/Bone_BodyPart
p126
aVhttp://dbpedia.org/class/yago/PhysicalEntity100001930
p127
aVhttp://dbpedia.org/resource/Frontal_process_of_maxilla
tp128
aa(lp129
a(lp130
aa(lp131
(lp132
((lp133
Vhttp://www.w3.org/2002/07/owl#Thing
p134
aVhttp://www.wikidata.org/entity/Q265868
p135
aVhttp://www.wikidata.org/entity/Q4936952
p136
aVhttp://dbpedia.org/ontology/AnatomicalStructure
p137
aVhttp://dbpedia.org/ontology/Bone
p138
aVhttp://umbel.org/umbel/rc/AnimalBodyPart
p139
aVhttp://umbel.org/umbel/rc/Bone_BodyPart
p140
aVhttp://dbpedia.org/resource/Ischium
tp141
aa(lp142
a(lp143
aa(lp144
(lp145
((lp146
Vhttp://dbpedia.org/class/yago/AnimalTissue105267548
p147
aVhttp://dbpedia.org/class/yago/BodyPart105220461
p148
aVhttp://dbpedia.org/class/yago/Bone105269901
p149
aVhttp://dbpedia.org/class/yago/BonesOfTheHeadAndNeck
p150
aVhttp://dbpedia.org/class/yago/ConnectiveTissue105286536
p151
aVhttp://dbpedia.org/class/yago/Part109385911
p152
aVhttp://dbpedia.org/class/yago/Thing100002452
p153
aVhttp://dbpedia.org/class/yago/Tissue105267345
p154
aVhttp://www.w3.org/2002/07/owl#Thing
p155
aVhttp://www.wikidata.org/entity/Q265868
p156
aVhttp://www.wikidata.org/entity/Q4936952
p157
aVhttp://dbpedia.org/ontology/AnatomicalStructure
p158
aVhttp://dbpedia.org/ontology/Bone
p159
aVhttp://umbel.org/umbel/rc/AnimalBodyPart
p160
aVhttp://umbel.org/umbel/rc/Bone_BodyPart
p161
aVhttp://dbpedia.org/class/yago/PhysicalEntity100001930
p162
aVhttp://dbpedia.org/resource/Middle_clinoid_process
tp163
aa(lp164
a(lp165
aa(lp166
(lp167
((lp168
Vhttp://dbpedia.org/class/yago/AnimalTissue105267548
p169
aVhttp://dbpedia.org/class/yago/BodyPart105220461
p170
aVhttp://dbpedia.org/class/yago/Bone105269901
p171
aVhttp://dbpedia.org/class/yago/BonesOfTheHeadAndNeck
p172
aVhttp://dbpedia.org/class/yago/ConnectiveTissue105286536
p173
aVhttp://dbpedia.org/class/yago/Part109385911
p174
aVhttp://dbpedia.org/class/yago/Thing100002452
p175
aVhttp://dbpedia.org/class/yago/Tissue105267345
p176
aVhttp://www.w3.org/2002/07/owl#Thing
p177
aVhttp://www.wikidata.org/entity/Q265868
p178
aVhttp://www.wikidata.org/entity/Q4936952
p179
aVhttp://dbpedia.org/ontology/AnatomicalStructure
p180
aVhttp://dbpedia.org/ontology/Bone
p181
aVhttp://umbel.org/umbel/rc/AnimalBodyPart
p182
aVhttp://umbel.org/umbel/rc/Bone_BodyPart
p183
aVhttp://dbpedia.org/class/yago/PhysicalEntity100001930
p184
aVhttp://dbpedia.org/resource/Anterior_clinoid_process
tp185
aa(lp186
a(lp187
aa(lp188
(lp189
((lp190
Vhttp://dbpedia.org/class/yago/AnimalTissue105267548
p191
aVhttp://dbpedia.org/class/yago/BodyPart105220461
p192
aVhttp://dbpedia.org/class/yago/Bone105269901
p193
aVhttp://dbpedia.org/class/yago/BonesOfTheUpperLimb
p194
aVhttp://dbpedia.org/class/yago/ConnectiveTissue105286536
p195
aVhttp://dbpedia.org/class/yago/Part109385911
p196
aVhttp://dbpedia.org/class/yago/Thing100002452
p197
aVhttp://dbpedia.org/class/yago/Tissue105267345
p198
aVhttp://www.w3.org/2002/07/owl#Thing
p199
aVhttp://www.wikidata.org/entity/Q265868
p200
aVhttp://www.wikidata.org/entity/Q4936952
p201
aVhttp://dbpedia.org/ontology/AnatomicalStructure
p202
aVhttp://dbpedia.org/ontology/Bone
p203
aVhttp://umbel.org/umbel/rc/AnimalBodyPart
p204
aVhttp://umbel.org/umbel/rc/Bone_BodyPart
p205
aVhttp://dbpedia.org/class/yago/PhysicalEntity100001930
p206
aVhttp://dbpedia.org/resource/Trochlea_of_humerus
tp207
aa(lp208
a(lp209
aa(lp210
(lp211
((lp212
Vhttp://dbpedia.org/class/yago/AnimalTissue105267548
p213
aVhttp://dbpedia.org/class/yago/BodyPart105220461
p214
aVhttp://dbpedia.org/class/yago/Bone105269901
p215
aVhttp://dbpedia.org/class/yago/BonesOfTheHeadAndNeck
p216
aVhttp://dbpedia.org/class/yago/ConnectiveTissue105286536
p217
aVhttp://dbpedia.org/class/yago/Part109385911
p218
aVhttp://dbpedia.org/class/yago/Thing100002452
p219
aVhttp://dbpedia.org/class/yago/Tissue105267345
p220
aVhttp://www.w3.org/2002/07/owl#Thing
p221
aVhttp://www.wikidata.org/entity/Q265868
p222
aVhttp://www.wikidata.org/entity/Q4936952
p223
aVhttp://dbpedia.org/ontology/AnatomicalStructure
p224
aVhttp://dbpedia.org/ontology/Bone
p225
aVhttp://umbel.org/umbel/rc/AnimalBodyPart
p226
aVhttp://umbel.org/umbel/rc/Bone_BodyPart
p227
aVhttp://dbpedia.org/class/yago/PhysicalEntity100001930
p228
aVhttp://dbpedia.org/resource/Uncinate_process_of_ethmoid_bone
tp229
aa(lp230
a(lp231
aa(lp232
(lp233
((lp234
Vhttp://dbpedia.org/class/yago/AnimalTissue105267548
p235
aVhttp://dbpedia.org/class/yago/BodyPart105220461
p236
aVhttp://dbpedia.org/class/yago/Bone105269901
p237
aVhttp://dbpedia.org/class/yago/BonesOfTheHeadAndNeck
p238
aVhttp://dbpedia.org/class/yago/ConnectiveTissue105286536
p239
aVhttp://dbpedia.org/class/yago/Part109385911
p240
aVhttp://dbpedia.org/class/yago/Thing100002452
p241
aVhttp://dbpedia.org/class/yago/Tissue105267345
p242
aVhttp://www.w3.org/2002/07/owl#Thing
p243
aVhttp://www.wikidata.org/entity/Q265868
p244
aVhttp://www.wikidata.org/entity/Q4936952
p245
aVhttp://dbpedia.org/ontology/AnatomicalStructure
p246
aVhttp://dbpedia.org/ontology/Bone
p247
aVhttp://umbel.org/umbel/rc/AnimalBodyPart
p248
aVhttp://umbel.org/umbel/rc/Bone_BodyPart
p249
aVhttp://dbpedia.org/class/yago/PhysicalEntity100001930
p250
aVhttp://dbpedia.org/resource/Basilar_part_of_occipital_bone
tp251
aa(lp252
a(lp253
aa(lp254
(lp255
a(lp256
a(lp257
aa(lp258
(lp259
((lp260
Vhttp://dbpedia.org/class/yago/AnimalTissue105267548
p261
aVhttp://dbpedia.org/class/yago/BodyPart105220461
p262
aVhttp://dbpedia.org/class/yago/Bone105269901
p263
aVhttp://dbpedia.org/class/yago/BonesOfTheTorso
p264
aVhttp://dbpedia.org/class/yago/ConnectiveTissue105286536
p265
aVhttp://dbpedia.org/class/yago/Part109385911
p266
aVhttp://dbpedia.org/class/yago/Thing100002452
p267
aVhttp://dbpedia.org/class/yago/Tissue105267345
p268
aVhttp://www.w3.org/2002/07/owl#Thing
p269
aVhttp://www.wikidata.org/entity/Q265868
p270
aVhttp://www.wikidata.org/entity/Q4936952
p271
aVhttp://dbpedia.org/ontology/AnatomicalStructure
p272
aVhttp://dbpedia.org/ontology/Bone
p273
aVhttp://umbel.org/umbel/rc/AnimalBodyPart
p274
aVhttp://umbel.org/umbel/rc/Bone_BodyPart
p275
aVhttp://dbpedia.org/class/yago/PhysicalEntity100001930
p276
aVhttp://dbpedia.org/resource/Inferior_costal_facet
tp277
aa(lp278
a(lp279
aa(lp280
(lp281
a(lp282
a(lp283
aa(lp284
(lp285
a(lp286
a(lp287
aa(lp288
(lp289
((lp290
Vhttp://www.w3.org/2002/07/owl#Thing
p291
aVhttp://www.wikidata.org/entity/Q265868
p292
aVhttp://www.wikidata.org/entity/Q4936952
p293
aVhttp://dbpedia.org/ontology/AnatomicalStructure
p294
aVhttp://dbpedia.org/ontology/Bone
p295
aVhttp://dbpedia.org/resource/Acromial_angle
p296
tp297
aa(lp298
a(lp299
aa.