(lp1
(lp2
(lp3
a(lp4
aa(lp5
(lp6
a(lp7
aa(lp8
(lp9
a(lp10
aa(lp11
(lp12
a(lp13
aa(lp14
(lp15
a(lp16
aa(lp17
(lp18
a(lp19
aa(lp20
(lp21
a(lp22
aa(lp23
(lp24
a(lp25
aa(lp26
(lp27
a(lp28
aa(lp29
(lp30
a(lp31
aa(lp32
(lp33
a(lp34
aa(lp35
(lp36
a(lp37
aa(lp38
(lp39
((lp40
Vhttp://dbpedia.org/class/yago/Abstraction100002137
p41
aVhttp://dbpedia.org/class/yago/Contest107456188
p42
aVhttp://dbpedia.org/class/yago/Event100029378
p43
aVhttp://dbpedia.org/class/yago/SocialEvent107288639
p44
aVhttp://dbpedia.org/class/yago/Tournament107464725
p45
aVhttp://www.w3.org/2002/07/owl#Thing
p46
aVhttp://www.ontologydesignpatterns.org/ont/dul/DUL.owl#Event
p47
aVhttp://www.wikidata.org/entity/Q1656682
p48
aVhttp://www.wikidata.org/entity/Q500834
p49
aVhttp://dbpedia.org/ontology/Event
p50
aVhttp://dbpedia.org/ontology/SocietalEvent
p51
aVhttp://dbpedia.org/ontology/SportsEvent
p52
aVhttp://dbpedia.org/ontology/Tournament
p53
aVhttp://dbpedia.org/ontology/WomensTennisAssociationTournament
p54
aVhttp://www.w3.org/2003/01/geo/wgs84_pos#SpatialThing
p55
aVhttp://schema.org/Event
p56
aVhttp://schema.org/SportsEvent
p57
aVhttp://dbpedia.org/class/yago/PsychologicalFeature100023100
p58
aVhttp://dbpedia.org/class/yago/YagoPermanentlyLocatedEntity
p59
aVhttp://dbpedia.org/class/yago/GrassCourtTennisTournaments
p60
aVhttp://dbpedia.org/class/yago/TennisTournamentsInTheUnitedStates
p61
aVhttp://dbpedia.org/resource/Hall_of_Fame_Tennis_Championships
p62
tp63
aa(lp64
aa(lp65
(lp66
a(lp67
aa(lp68
(lp69
a(lp70
aa(lp71
(lp72
a(lp73
aa(lp74
(lp75
a(lp76
aa(lp77
(lp78
a(lp79
aa(lp80
(lp81
a(lp82
aa.