(lp1
(lp2
(lp3
a(lp4
aa(lp5
(lp6
((lp7
Vhttp://www.w3.org/2002/07/owl#Thing
p8
aVhttp://www.ontologydesignpatterns.org/ont/dul/DUL.owl#Event
p9
aVhttp://www.wikidata.org/entity/Q1656682
p10
aVhttp://www.wikidata.org/entity/Q500834
p11
aVhttp://dbpedia.org/ontology/Event
p12
aVhttp://dbpedia.org/ontology/SoccerTournament
p13
aVhttp://dbpedia.org/ontology/SocietalEvent
p14
aVhttp://dbpedia.org/ontology/SportsEvent
p15
aVhttp://dbpedia.org/ontology/Tournament
p16
aVhttp://schema.org/Event
p17
aVhttp://schema.org/SportsEvent
p18
aVhttp://dbpedia.org/resource/2014_Dockerty_Cup
tp19
aa(lp20
aa(lp21
(lp22
a(lp23
aa(lp24
(lp25
a(lp26
aa(lp27
(lp28
a(lp29
aa(lp30
(lp31
a(lp32
aa(lp33
(lp34
a(lp35
aa(lp36
(lp37
a(lp38
aa(lp39
(lp40
a(lp41
aa(lp42
(lp43
a(lp44
aa(lp45
(lp46
a(lp47
aa(lp48
(lp49
((lp50
Vhttp://www.w3.org/2002/07/owl#Thing
p51
aVhttp://www.ontologydesignpatterns.org/ont/dul/DUL.owl#Event
p52
aVhttp://www.wikidata.org/entity/Q1656682
p53
aVhttp://www.wikidata.org/entity/Q500834
p54
aVhttp://dbpedia.org/ontology/Event
p55
aVhttp://dbpedia.org/ontology/SocietalEvent
p56
aVhttp://dbpedia.org/ontology/SportsEvent
p57
aVhttp://dbpedia.org/ontology/Tournament
p58
aVhttp://dbpedia.org/ontology/WomensTennisAssociationTournament
p59
aVhttp://schema.org/Event
p60
aVhttp://schema.org/SportsEvent
p61
aVhttp://dbpedia.org/resource/Linz_Open
tp62
aa(lp63
aa(lp64
(lp65
((lp66
Vhttp://dbpedia.org/class/yago/Abstraction100002137
p67
aVhttp://dbpedia.org/class/yago/Contest107456188
p68
aVhttp://dbpedia.org/class/yago/Event100029378
p69
aVhttp://dbpedia.org/class/yago/SocialEvent107288639
p70
aVhttp://dbpedia.org/class/yago/Tournament107464725
p71
aVhttp://www.w3.org/2002/07/owl#Thing
p72
aVhttp://www.ontologydesignpatterns.org/ont/dul/DUL.owl#Event
p73
aVhttp://www.wikidata.org/entity/Q1656682
p74
aVhttp://www.wikidata.org/entity/Q500834
p75
aVhttp://dbpedia.org/ontology/Event
p76
aVhttp://dbpedia.org/ontology/SocietalEvent
p77
aVhttp://dbpedia.org/ontology/SportsEvent
p78
aVhttp://dbpedia.org/ontology/Tournament
p79
aVhttp://dbpedia.org/ontology/WomensTennisAssociationTournament
p80
aVhttp://www.w3.org/2003/01/geo/wgs84_pos#SpatialThing
p81
aVhttp://schema.org/Event
p82
aVhttp://schema.org/SportsEvent
p83
aVhttp://dbpedia.org/class/yago/PsychologicalFeature100023100
p84
aVhttp://dbpedia.org/class/yago/YagoPermanentlyLocatedEntity
p85
aVhttp://dbpedia.org/class/yago/GrassCourtTennisTournaments
p86
aVhttp://dbpedia.org/class/yago/TennisTournamentsInTheUnitedStates
p87
aVhttp://dbpedia.org/resource/Hall_of_Fame_Tennis_Championships
tp88
aa(lp89
aa(lp90
(lp91
a(lp92
aa(lp93
(lp94
a(lp95
aa(lp96
(lp97
((lp98
Vhttp://www.w3.org/2002/07/owl#Thing
p99
aVhttp://www.ontologydesignpatterns.org/ont/dul/DUL.owl#Event
p100
aVhttp://www.wikidata.org/entity/Q1656682
p101
aVhttp://dbpedia.org/ontology/Event
p102
aVhttp://dbpedia.org/ontology/SocietalEvent
p103
aVhttp://dbpedia.org/ontology/SportsEvent
p104
aVhttp://schema.org/Event
p105
aVhttp://schema.org/SportsEvent
p106
aVhttp://dbpedia.org/resource/2014_IAAF_World_Relays
p107
tp108
aa(lp109
aa(lp110
(lp111
a(lp112
aa(lp113
(lp114
a(lp115
aa(lp116
(lp117
a(lp118
aa.