(lp1
(lp2
(lp3
a(lp4
a(lp5
a(lp6
aa(lp7
(lp8
a(lp9
a(lp10
a(lp11
aa(lp12
(lp13
a(lp14
a(lp15
a(lp16
aa(lp17
(lp18
a(lp19
a(lp20
a(lp21
aa(lp22
(lp23
a(lp24
a(lp25
a(lp26
aa(lp27
(lp28
a(lp29
a(lp30
a(lp31
aa(lp32
(lp33
a(lp34
a(lp35
((lp36
Vhttp://dbpedia.org/class/yago/1970Films
p37
aVhttp://dbpedia.org/class/yago/Abstraction100002137
p38
aVhttp://dbpedia.org/class/yago/AmericanFilms
p39
aVhttp://dbpedia.org/class/yago/Artifact100021939
p40
aVhttp://dbpedia.org/class/yago/Creation103129123
p41
aVhttp://dbpedia.org/class/yago/Event100029378
p42
aVhttp://dbpedia.org/class/yago/Movie106613686
p43
aVhttp://dbpedia.org/class/yago/Object100002684
p44
aVhttp://dbpedia.org/class/yago/Product104007894
p45
aVhttp://dbpedia.org/class/yago/Show106619065
p46
aVhttp://dbpedia.org/class/yago/SocialEvent107288639
p47
aVhttp://dbpedia.org/class/yago/Whole100003553
p48
aVhttp://www.w3.org/2002/07/owl#Thing
p49
aVhttp://www.wikidata.org/entity/Q386724
p50
aVhttp://dbpedia.org/ontology/Film
p51
aVhttp://dbpedia.org/ontology/Wikidata:Q11424
p52
aVhttp://dbpedia.org/ontology/Work
p53
aVhttp://schema.org/CreativeWork
p54
aVhttp://schema.org/Movie
p55
aVhttp://dbpedia.org/class/yago/English-languageFilms
p56
aVhttp://dbpedia.org/class/yago/PsychologicalFeature100023100
p57
aVhttp://dbpedia.org/class/yago/YagoPermanentlyLocatedEntity
p58
aVhttp://dbpedia.org/class/yago/GangsterFilms
p59
aVhttp://dbpedia.org/class/yago/PhysicalEntity100001930
p60
aVhttp://dbpedia.org/resource/A_Bullet_for_Pretty_Boy
tp61
aa(lp62
aa(lp63
(lp64
a(lp65
a(lp66
a(lp67
aa(lp68
(lp69
a(lp70
a(lp71
a(lp72
aa(lp73
(lp74
a(lp75
a(lp76
a(lp77
aa(lp78
(lp79
a(lp80
a(lp81
((lp82
Vhttp://dbpedia.org/class/yago/1969Novels
p83
aVhttp://dbpedia.org/class/yago/Abstraction100002137
p84
aVhttp://dbpedia.org/class/yago/AmericanEroticNovels
p85
aVhttp://dbpedia.org/class/yago/Communication100033020
p86
aVhttp://dbpedia.org/class/yago/LiteraryComposition106364329
p87
aVhttp://dbpedia.org/class/yago/Message106598915
p88
aVhttp://dbpedia.org/class/yago/Narrative107221094
p89
aVhttp://dbpedia.org/class/yago/Novel106367879
p90
aVhttp://dbpedia.org/class/yago/Writing106362953
p91
aVhttp://dbpedia.org/class/yago/PulpStories
p92
aVhttp://www.w3.org/2002/07/owl#Thing
p93
aVhttp://purl.org/ontology/bibo/Book
p94
aVhttp://www.wikidata.org/entity/Q386724
p95
aVhttp://www.wikidata.org/entity/Q571
p96
aVhttp://dbpedia.org/ontology/Book
p97
aVhttp://dbpedia.org/ontology/Work
p98
aVhttp://dbpedia.org/ontology/WrittenWork
p99
aVhttp://schema.org/Book
p100
aVhttp://schema.org/CreativeWork
p101
aVhttp://umbel.org/umbel/rc/Book_CW
p102
aVhttp://dbpedia.org/class/yago/CrossoverNovels
p103
aVhttp://dbpedia.org/class/yago/WrittenCommunication106349220
p104
aVhttp://dbpedia.org/class/yago/NovelsByPhilipJos%C3%A9Farmer
p105
aVhttp://dbpedia.org/class/yago/Fiction106367107
p106
aVhttp://dbpedia.org/resource/A_Feast_Unknown
tp107
aa(lp108
aa(lp109
(lp110
a(lp111
a(lp112
a(lp113
aa(lp114
(lp115
a(lp116
a(lp117
a(lp118
aa(lp119
(lp120
a(lp121
a(lp122
a(lp123
aa(lp124
(lp125
a(lp126
a(lp127
a(lp128
aa(lp129
(lp130
a(lp131
a(lp132
((lp133
Vhttp://dbpedia.org/class/yago/Abstraction100002137
p134
aVhttp://dbpedia.org/class/yago/EducationalInstitution108276342
p135
aVhttp://dbpedia.org/class/yago/Group100031264
p136
aVhttp://dbpedia.org/class/yago/Institution108053576
p137
aVhttp://dbpedia.org/class/yago/Organization108008335
p138
aVhttp://dbpedia.org/class/yago/PrivateSchool108411170
p139
aVhttp://dbpedia.org/class/yago/School108276720
p140
aVhttp://dbpedia.org/class/yago/SocialGroup107950920
p141
aVhttp://dbpedia.org/class/yago/University108286569
p142
aVhttp://dbpedia.org/class/yago/YagoLegalActorGeo
p143
aVhttp://dbpedia.org/class/yago/PrivateSchoolsInNorthDakota
p144
aVhttp://www.w3.org/2003/01/geo/wgs84_pos#SpatialThing
p145
aVhttp://dbpedia.org/class/yago/EducationalInstitutionsEstablishedIn1902
p146
aVhttp://dbpedia.org/class/yago/YagoPermanentlyLocatedEntity
p147
aVhttp://dbpedia.org/class/yago/YagoLegalActor
p148
aVhttp://dbpedia.org/class/yago/UniversitiesAndCollegesInNorthDakota
p149
aVhttp://dbpedia.org/resource/Aakers_Business_College
p150
tp151
aa(lp152
aa(lp153
(lp154
a(lp155
a(lp156
a(lp157
aa(lp158
(lp159
a(lp160
a(lp161
a(lp162
aa(lp163
(lp164
a(lp165
a(lp166
a(lp167
aa.