(lp1
(lp2
(lp3
a(lp4
Vhttp://dbpedia.org/resource/British_Rail_Class_01/5
p5
aa(lp6
a(lp7
Vhttp://dbpedia.org/resource/DRB_Class_52
p8
aa(lp9
a(lp10
a(lp11
Vhttp://dbpedia.org/resource/Sri_Lanka_Railways
p12
aa(lp13
a(lp14
Vhttp://dbpedia.org/resource/London_Underground_1973_Stock
p15
aa(lp16
Vhttp://dbpedia.org/resource/London_Underground_1973_Stock
p17
aa(lp18
a(lp19
Vhttp://dbpedia.org/resource/British_Rail_Class_01/5
p20
aa(lp21
Vhttp://dbpedia.org/resource/British_Rail_Class_01/5
p22
aa(lp23
Vhttp://dbpedia.org/resource/British_Rail_Class_01/5
p24
aa(lp25
a(lp26
a(lp27
a(lp28
a(lp29
Vhttp://dbpedia.org/resource/British_Rail_Class_01/5
p30
aaa.