(lp1
(lp2
(lp3
((lp4
Vhttp://dbpedia.org/class/yago/Abstraction100002137
p5
aVhttp://dbpedia.org/class/yago/Biology106037666
p6
aVhttp://dbpedia.org/class/yago/Cognition100023271
p7
aVhttp://dbpedia.org/class/yago/Content105809192
p8
aVhttp://dbpedia.org/class/yago/Discipline105996646
p9
aVhttp://dbpedia.org/class/yago/LifeScience106037298
p10
aVhttp://dbpedia.org/class/yago/Science105999797
p11
aVhttp://www.w3.org/2002/07/owl#Thing
p12
aVhttp://www.wikidata.org/entity/Q4936952
p13
aVhttp://dbpedia.org/ontology/AnatomicalStructure
p14
aVhttp://dbpedia.org/ontology/Embryology
p15
aVhttp://umbel.org/umbel/rc/AnimalBodyPart
p16
aVhttp://umbel.org/umbel/rc/Embryology
p17
aVhttp://dbpedia.org/class/yago/Embryology106071426
p18
aVhttp://dbpedia.org/class/yago/PsychologicalFeature100023100
p19
aVhttp://dbpedia.org/class/yago/KnowledgeDomain105999266
p20
aVhttp://dbpedia.org/class/yago/NaturalScience106000400
p21
aVhttp://dbpedia.org/resource/Vitelline_duct
tp22
aa(lp23
((lp24
Vhttp://dbpedia.org/class/yago/Abstraction100002137
p25
aVhttp://dbpedia.org/class/yago/Biology106037666
p26
aVhttp://dbpedia.org/class/yago/Cognition100023271
p27
aVhttp://dbpedia.org/class/yago/Content105809192
p28
aVhttp://dbpedia.org/class/yago/Discipline105996646
p29
aVhttp://dbpedia.org/class/yago/LifeScience106037298
p30
aVhttp://dbpedia.org/class/yago/Science105999797
p31
aVhttp://www.w3.org/2002/07/owl#Thing
p32
aVhttp://www.wikidata.org/entity/Q4936952
p33
aVhttp://dbpedia.org/ontology/AnatomicalStructure
p34
aVhttp://dbpedia.org/ontology/Embryology
p35
aVhttp://umbel.org/umbel/rc/AnimalBodyPart
p36
aVhttp://umbel.org/umbel/rc/Embryology
p37
aVhttp://dbpedia.org/class/yago/Embryology106071426
p38
aVhttp://dbpedia.org/class/yago/PsychologicalFeature100023100
p39
aVhttp://dbpedia.org/class/yago/KnowledgeDomain105999266
p40
aVhttp://dbpedia.org/class/yago/NaturalScience106000400
p41
aVhttp://dbpedia.org/resource/Vitelline_membrane
tp42
aa(lp43
((lp44
Vhttp://dbpedia.org/class/yago/Abstraction100002137
p45
aVhttp://dbpedia.org/class/yago/Biology106037666
p46
aVhttp://dbpedia.org/class/yago/Cognition100023271
p47
aVhttp://dbpedia.org/class/yago/Content105809192
p48
aVhttp://dbpedia.org/class/yago/Discipline105996646
p49
aVhttp://dbpedia.org/class/yago/LifeScience106037298
p50
aVhttp://dbpedia.org/class/yago/Science105999797
p51
aVhttp://www.w3.org/2002/07/owl#Thing
p52
aVhttp://www.wikidata.org/entity/Q4936952
p53
aVhttp://dbpedia.org/ontology/AnatomicalStructure
p54
aVhttp://dbpedia.org/ontology/Embryology
p55
aVhttp://umbel.org/umbel/rc/AnimalBodyPart
p56
aVhttp://umbel.org/umbel/rc/Embryology
p57
aVhttp://dbpedia.org/class/yago/Embryology106071426
p58
aVhttp://dbpedia.org/class/yago/PsychologicalFeature100023100
p59
aVhttp://dbpedia.org/class/yago/KnowledgeDomain105999266
p60
aVhttp://dbpedia.org/class/yago/NaturalScience106000400
p61
aVhttp://dbpedia.org/resource/Vitelline_veins
tp62
aa(lp63
((lp64
Vhttp://dbpedia.org/class/yago/Abstraction100002137
p65
aVhttp://dbpedia.org/class/yago/Biology106037666
p66
aVhttp://dbpedia.org/class/yago/Cognition100023271
p67
aVhttp://dbpedia.org/class/yago/Content105809192
p68
aVhttp://dbpedia.org/class/yago/Discipline105996646
p69
aVhttp://dbpedia.org/class/yago/LifeScience106037298
p70
aVhttp://dbpedia.org/class/yago/Science105999797
p71
aVhttp://www.w3.org/2002/07/owl#Thing
p72
aVhttp://www.wikidata.org/entity/Q4936952
p73
aVhttp://dbpedia.org/ontology/AnatomicalStructure
p74
aVhttp://dbpedia.org/ontology/Embryology
p75
aVhttp://umbel.org/umbel/rc/AnimalBodyPart
p76
aVhttp://umbel.org/umbel/rc/Embryology
p77
aVhttp://dbpedia.org/class/yago/Embryology106071426
p78
aVhttp://dbpedia.org/class/yago/PsychologicalFeature100023100
p79
aVhttp://dbpedia.org/class/yago/KnowledgeDomain105999266
p80
aVhttp://dbpedia.org/class/yago/NaturalScience106000400
p81
aVhttp://dbpedia.org/resource/Septum_secundum
tp82
aa(lp83
((lVhttp://dbpedia.org/resource/Posterior_horn
tp84
aa(lp85
((lp86
Vhttp://dbpedia.org/class/yago/Abstraction100002137
p87
aVhttp://dbpedia.org/class/yago/Biology106037666
p88
aVhttp://dbpedia.org/class/yago/Cognition100023271
p89
aVhttp://dbpedia.org/class/yago/Content105809192
p90
aVhttp://dbpedia.org/class/yago/Discipline105996646
p91
aVhttp://dbpedia.org/class/yago/LifeScience106037298
p92
aVhttp://dbpedia.org/class/yago/Science105999797
p93
aVhttp://www.w3.org/2002/07/owl#Thing
p94
aVhttp://www.wikidata.org/entity/Q4936952
p95
aVhttp://dbpedia.org/ontology/AnatomicalStructure
p96
aVhttp://dbpedia.org/ontology/Embryology
p97
aVhttp://dbpedia.org/class/yago/Embryology106071426
p98
aVhttp://dbpedia.org/class/yago/PsychologicalFeature100023100
p99
aVhttp://dbpedia.org/class/yago/KnowledgeDomain105999266
p100
aVhttp://dbpedia.org/class/yago/NaturalScience106000400
p101
aVhttp://dbpedia.org/resource/Labioscrotal_swelling
tp102
aa(lp103
((lp104
Vhttp://dbpedia.org/class/yago/Abstraction100002137
p105
aVhttp://dbpedia.org/class/yago/Biology106037666
p106
aVhttp://dbpedia.org/class/yago/Cognition100023271
p107
aVhttp://dbpedia.org/class/yago/Content105809192
p108
aVhttp://dbpedia.org/class/yago/Discipline105996646
p109
aVhttp://dbpedia.org/class/yago/LifeScience106037298
p110
aVhttp://dbpedia.org/class/yago/Science105999797
p111
aVhttp://www.w3.org/2002/07/owl#Thing
p112
aVhttp://www.wikidata.org/entity/Q4936952
p113
aVhttp://dbpedia.org/ontology/AnatomicalStructure
p114
aVhttp://dbpedia.org/ontology/Embryology
p115
aVhttp://umbel.org/umbel/rc/AnimalBodyPart
p116
aVhttp://umbel.org/umbel/rc/Embryology
p117
aVhttp://dbpedia.org/class/yago/Embryology106071426
p118
aVhttp://dbpedia.org/class/yago/PsychologicalFeature100023100
p119
aVhttp://dbpedia.org/class/yago/KnowledgeDomain105999266
p120
aVhttp://dbpedia.org/class/yago/NaturalScience106000400
p121
aVhttp://dbpedia.org/resource/Gonadal_ridge
tp122
aa(lp123
a(lp124
((lp125
Vhttp://www.w3.org/2002/07/owl#Thing
p126
aVhttp://www.wikidata.org/entity/Q19088
p127
aVhttp://www.wikidata.org/entity/Q756
p128
aVhttp://dbpedia.org/ontology/Eukaryote
p129
aVhttp://dbpedia.org/ontology/Plant
p130
aVhttp://dbpedia.org/ontology/Species
p131
aVhttp://umbel.org/umbel/rc/FloweringPlant
p132
aVhttp://dbpedia.org/resource/Sedum_spurium
tp133
aa(lp134
((lp135
Vhttp://dbpedia.org/class/yago/Abstraction100002137
p136
aVhttp://dbpedia.org/class/yago/Biology106037666
p137
aVhttp://dbpedia.org/class/yago/Cognition100023271
p138
aVhttp://dbpedia.org/class/yago/Content105809192
p139
aVhttp://dbpedia.org/class/yago/Discipline105996646
p140
aVhttp://dbpedia.org/class/yago/LifeScience106037298
p141
aVhttp://dbpedia.org/class/yago/Science105999797
p142
aVhttp://www.w3.org/2002/07/owl#Thing
p143
aVhttp://www.wikidata.org/entity/Q4936952
p144
aVhttp://dbpedia.org/ontology/AnatomicalStructure
p145
aVhttp://dbpedia.org/ontology/Embryology
p146
aVhttp://umbel.org/umbel/rc/AnimalBodyPart
p147
aVhttp://umbel.org/umbel/rc/Embryology
p148
aVhttp://dbpedia.org/class/yago/Embryology106071426
p149
aVhttp://dbpedia.org/class/yago/PsychologicalFeature100023100
p150
aVhttp://dbpedia.org/class/yago/KnowledgeDomain105999266
p151
aVhttp://dbpedia.org/class/yago/NaturalScience106000400
p152
aVhttp://dbpedia.org/resource/Neuroectoderm
tp153
aa(lp154
((lp155
Vhttp://dbpedia.org/class/yago/Abstraction100002137
p156
aVhttp://dbpedia.org/class/yago/Biology106037666
p157
aVhttp://dbpedia.org/class/yago/Cognition100023271
p158
aVhttp://dbpedia.org/class/yago/Content105809192
p159
aVhttp://dbpedia.org/class/yago/Discipline105996646
p160
aVhttp://dbpedia.org/class/yago/LifeScience106037298
p161
aVhttp://dbpedia.org/class/yago/Science105999797
p162
aVhttp://www.w3.org/2002/07/owl#Thing
p163
aVhttp://www.wikidata.org/entity/Q4936952
p164
aVhttp://dbpedia.org/ontology/AnatomicalStructure
p165
aVhttp://dbpedia.org/ontology/Embryology
p166
aVhttp://umbel.org/umbel/rc/AnimalBodyPart
p167
aVhttp://umbel.org/umbel/rc/Embryology
p168
aVhttp://dbpedia.org/class/yago/Embryology106071426
p169
aVhttp://dbpedia.org/class/yago/PsychologicalFeature100023100
p170
aVhttp://dbpedia.org/class/yago/KnowledgeDomain105999266
p171
aVhttp://dbpedia.org/class/yago/NaturalScience106000400
p172
aVhttp://dbpedia.org/resource/Primitive_groove
tp173
aa(lp174
((lp175
Vhttp://www.w3.org/2002/07/owl#Thing
p176
aVhttp://www.wikidata.org/entity/Q4936952
p177
aVhttp://dbpedia.org/ontology/AnatomicalStructure
p178
aVhttp://dbpedia.org/ontology/Embryology
p179
aVhttp://umbel.org/umbel/rc/AnimalBodyPart
p180
aVhttp://umbel.org/umbel/rc/Embryology
p181
aVhttp://dbpedia.org/resource/Conceptus
tp182
aa(lp183
((lp184
Vhttp://dbpedia.org/class/yago/Abstraction100002137
p185
aVhttp://dbpedia.org/class/yago/Biology106037666
p186
aVhttp://dbpedia.org/class/yago/Cognition100023271
p187
aVhttp://dbpedia.org/class/yago/Content105809192
p188
aVhttp://dbpedia.org/class/yago/Discipline105996646
p189
aVhttp://dbpedia.org/class/yago/LifeScience106037298
p190
aVhttp://dbpedia.org/class/yago/Science105999797
p191
aVhttp://www.w3.org/2002/07/owl#Thing
p192
aVhttp://www.wikidata.org/entity/Q4936952
p193
aVhttp://dbpedia.org/ontology/AnatomicalStructure
p194
aVhttp://dbpedia.org/ontology/Embryology
p195
aVhttp://umbel.org/umbel/rc/AnimalBodyPart
p196
aVhttp://umbel.org/umbel/rc/Embryology
p197
aVhttp://dbpedia.org/class/yago/Embryology106071426
p198
aVhttp://dbpedia.org/class/yago/PsychologicalFeature100023100
p199
aVhttp://dbpedia.org/class/yago/KnowledgeDomain105999266
p200
aVhttp://dbpedia.org/class/yago/NaturalScience106000400
p201
aVhttp://dbpedia.org/resource/Lens_placode
tp202
aa(lp203
((lp204
Vhttp://dbpedia.org/class/yago/Abstraction100002137
p205
aVhttp://dbpedia.org/class/yago/Biology106037666
p206
aVhttp://dbpedia.org/class/yago/Cognition100023271
p207
aVhttp://dbpedia.org/class/yago/Content105809192
p208
aVhttp://dbpedia.org/class/yago/Discipline105996646
p209
aVhttp://dbpedia.org/class/yago/LifeScience106037298
p210
aVhttp://dbpedia.org/class/yago/Science105999797
p211
aVhttp://www.w3.org/2002/07/owl#Thing
p212
aVhttp://www.wikidata.org/entity/Q4936952
p213
aVhttp://dbpedia.org/ontology/AnatomicalStructure
p214
aVhttp://dbpedia.org/ontology/Embryology
p215
aVhttp://umbel.org/umbel/rc/AnimalBodyPart
p216
aVhttp://umbel.org/umbel/rc/Embryology
p217
aVhttp://dbpedia.org/class/yago/Embryology106071426
p218
aVhttp://dbpedia.org/class/yago/PsychologicalFeature100023100
p219
aVhttp://dbpedia.org/class/yago/KnowledgeDomain105999266
p220
aVhttp://dbpedia.org/class/yago/NaturalScience106000400
p221
aVhttp://dbpedia.org/resource/Vitelline_arteries
tp222
aa(lp223
a(lp224
((lp225
Vhttp://www.w3.org/2002/07/owl#Thing
p226
aVhttp://www.wikidata.org/entity/Q4936952
p227
aVhttp://dbpedia.org/ontology/AnatomicalStructure
p228
aVhttp://dbpedia.org/ontology/Artery
p229
aVhttp://umbel.org/umbel/rc/AnimalBodyPart
p230
aVhttp://umbel.org/umbel/rc/Artery
p231
aVhttp://dbpedia.org/resource/Aortic_arch
tp232
aa(lp233
((lp234
Vhttp://dbpedia.org/class/yago/Abstraction100002137
p235
aVhttp://dbpedia.org/class/yago/Biology106037666
p236
aVhttp://dbpedia.org/class/yago/Cognition100023271
p237
aVhttp://dbpedia.org/class/yago/Content105809192
p238
aVhttp://dbpedia.org/class/yago/Discipline105996646
p239
aVhttp://dbpedia.org/class/yago/LifeScience106037298
p240
aVhttp://dbpedia.org/class/yago/Science105999797
p241
aVhttp://www.w3.org/2002/07/owl#Thing
p242
aVhttp://www.wikidata.org/entity/Q4936952
p243
aVhttp://dbpedia.org/ontology/AnatomicalStructure
p244
aVhttp://dbpedia.org/ontology/Embryology
p245
aVhttp://umbel.org/umbel/rc/AnimalBodyPart
p246
aVhttp://umbel.org/umbel/rc/Embryology
p247
aVhttp://dbpedia.org/class/yago/Embryology106071426
p248
aVhttp://dbpedia.org/class/yago/PsychologicalFeature100023100
p249
aVhttp://dbpedia.org/class/yago/KnowledgeDomain105999266
p250
aVhttp://dbpedia.org/class/yago/NaturalScience106000400
p251
aVhttp://dbpedia.org/resource/Buccopharyngeal_membrane
tp252
aa(lp253
a(lp254
((lp255
Vhttp://dbpedia.org/class/yago/Abstraction100002137
p256
aVhttp://dbpedia.org/class/yago/Biology106037666
p257
aVhttp://dbpedia.org/class/yago/Cognition100023271
p258
aVhttp://dbpedia.org/class/yago/Content105809192
p259
aVhttp://dbpedia.org/class/yago/Discipline105996646
p260
aVhttp://dbpedia.org/class/yago/LifeScience106037298
p261
aVhttp://dbpedia.org/class/yago/Science105999797
p262
aVhttp://www.w3.org/2002/07/owl#Thing
p263
aVhttp://www.wikidata.org/entity/Q4936952
p264
aVhttp://dbpedia.org/ontology/AnatomicalStructure
p265
aVhttp://dbpedia.org/ontology/Embryology
p266
aVhttp://dbpedia.org/class/yago/Embryology106071426
p267
aVhttp://dbpedia.org/class/yago/PsychologicalFeature100023100
p268
aVhttp://dbpedia.org/class/yago/KnowledgeDomain105999266
p269
aVhttp://dbpedia.org/class/yago/NaturalScience106000400
p270
aVhttp://dbpedia.org/resource/Ultimopharyngeal_body
p271
tp272
aaa.