(lp1
(lp2
(lp3
a(lp4
a(lp5
((lp6
Vhttp://www.w3.org/2002/07/owl#Thing
p7
aVhttp://www.ontologydesignpatterns.org/ont/dul/DUL.owl#InformationObject
p8
aVhttp://www.wikidata.org/entity/Q386724
p9
aVhttp://dbpedia.org/ontology/BiologicalDatabase
p10
aVhttp://dbpedia.org/ontology/Database
p11
aVhttp://dbpedia.org/ontology/Work
p12
aVhttp://schema.org/CreativeWork
p13
aVhttp://dbpedia.org/resource/MESAdb
tp14
aa(lp15
aa(lp16
(lp17
a(lp18
a(lp19
((lp20
Vhttp://www.w3.org/2002/07/owl#Thing
p21
aVhttp://www.ontologydesignpatterns.org/ont/dul/DUL.owl#InformationObject
p22
aVhttp://www.wikidata.org/entity/Q386724
p23
aVhttp://dbpedia.org/ontology/BiologicalDatabase
p24
aVhttp://dbpedia.org/ontology/Database
p25
aVhttp://dbpedia.org/ontology/Work
p26
aVhttp://schema.org/CreativeWork
p27
aVhttp://dbpedia.org/resource/Phosida
tp28
aa(lp29
aa(lp30
(lp31
a(lp32
a(lp33
((lp34
Vhttp://dbpedia.org/class/yago/Abstraction100002137
p35
aVhttp://dbpedia.org/class/yago/Company108058098
p36
aVhttp://dbpedia.org/class/yago/Group100031264
p37
aVhttp://dbpedia.org/class/yago/Institution108053576
p38
aVhttp://dbpedia.org/class/yago/Organization108008335
p39
aVhttp://dbpedia.org/class/yago/SocialGroup107950920
p40
aVhttp://dbpedia.org/class/yago/YagoLegalActorGeo
p41
aVhttp://www.w3.org/2002/07/owl#Thing
p42
aVhttp://www.ontologydesignpatterns.org/ont/dul/DUL.owl#InformationObject
p43
aVhttp://www.wikidata.org/entity/Q386724
p44
aVhttp://dbpedia.org/ontology/BiologicalDatabase
p45
aVhttp://dbpedia.org/ontology/Database
p46
aVhttp://dbpedia.org/ontology/Work
p47
aVhttp://schema.org/CreativeWork
p48
aVhttp://dbpedia.org/class/yago/YagoPermanentlyLocatedEntity
p49
aVhttp://dbpedia.org/class/yago/YagoLegalActor
p50
aVhttp://dbpedia.org/class/yago/GenomicsCompanies
p51
aVhttp://dbpedia.org/resource/SNPedia
tp52
aa(lp53
aa(lp54
(lp55
a(lp56
a(lp57
((lp58
Vhttp://www.w3.org/2002/07/owl#Thing
p59
aVhttp://www.ontologydesignpatterns.org/ont/dul/DUL.owl#InformationObject
p60
aVhttp://www.wikidata.org/entity/Q386724
p61
aVhttp://dbpedia.org/ontology/BiologicalDatabase
p62
aVhttp://dbpedia.org/ontology/Database
p63
aVhttp://dbpedia.org/ontology/Work
p64
aVhttp://schema.org/CreativeWork
p65
aVhttp://dbpedia.org/resource/ConsensusPathDB
tp66
aa(lp67
aa(lp68
(lp69
a(lp70
a(lp71
((lp72
Vhttp://www.w3.org/2002/07/owl#Thing
p73
aVhttp://www.ontologydesignpatterns.org/ont/dul/DUL.owl#InformationObject
p74
aVhttp://www.wikidata.org/entity/Q386724
p75
aVhttp://dbpedia.org/ontology/BiologicalDatabase
p76
aVhttp://dbpedia.org/ontology/Database
p77
aVhttp://dbpedia.org/ontology/Work
p78
aVhttp://schema.org/CreativeWork
p79
aVhttp://dbpedia.org/resource/GENCODE
tp80
aa(lp81
aa(lp82
(lp83
a(lp84
a(lp85
((lp86
Vhttp://dbpedia.org/class/yago/Abstraction100002137
p87
aVhttp://dbpedia.org/class/yago/Communication100033020
p88
aVhttp://dbpedia.org/class/yago/Heading106343971
p89
aVhttp://dbpedia.org/class/yago/Line107012534
p90
aVhttp://dbpedia.org/class/yago/Matter106365467
p91
aVhttp://dbpedia.org/class/yago/Text106387980
p92
aVhttp://dbpedia.org/class/yago/Writing106362953
p93
aVhttp://www.w3.org/2002/07/owl#Thing
p94
aVhttp://www.ontologydesignpatterns.org/ont/dul/DUL.owl#InformationObject
p95
aVhttp://www.wikidata.org/entity/Q386724
p96
aVhttp://dbpedia.org/ontology/BiologicalDatabase
p97
aVhttp://dbpedia.org/ontology/Database
p98
aVhttp://dbpedia.org/ontology/Work
p99
aVhttp://schema.org/CreativeWork
p100
aVhttp://dbpedia.org/class/yago/WrittenCommunication106349220
p101
aVhttp://dbpedia.org/class/yago/MedicalSubjectHeadings
p102
aVhttp://dbpedia.org/resource/Medical_Subject_Headings
tp103
aa(lp104
aa(lp105
(lp106
a(lp107
a(lp108
((lp109
Vhttp://dbpedia.org/class/yago/Artifact100021939
p110
aVhttp://dbpedia.org/class/yago/Computer103082979
p111
aVhttp://dbpedia.org/class/yago/Device103183080
p112
aVhttp://dbpedia.org/class/yago/Machine103699975
p113
aVhttp://dbpedia.org/class/yago/Object100002684
p114
aVhttp://dbpedia.org/class/yago/System104377057
p115
aVhttp://dbpedia.org/class/yago/WebSite106359193
p116
aVhttp://dbpedia.org/class/yago/Whole100003553
p117
aVhttp://www.w3.org/2002/07/owl#Thing
p118
aVhttp://www.ontologydesignpatterns.org/ont/dul/DUL.owl#InformationObject
p119
aVhttp://www.wikidata.org/entity/Q386724
p120
aVhttp://dbpedia.org/ontology/BiologicalDatabase
p121
aVhttp://dbpedia.org/ontology/Database
p122
aVhttp://dbpedia.org/ontology/Work
p123
aVhttp://schema.org/CreativeWork
p124
aVhttp://dbpedia.org/class/yago/DataSystem103164344
p125
aVhttp://dbpedia.org/class/yago/HealthWebsites
p126
aVhttp://dbpedia.org/class/yago/InformationSystems
p127
aVhttp://dbpedia.org/class/yago/Instrumentality103575240
p128
aVhttp://dbpedia.org/class/yago/MedicalWebsites
p129
aVhttp://dbpedia.org/class/yago/PhysicalEntity100001930
p130
aVhttp://dbpedia.org/resource/IARP
tp131
aa(lp132
aa(lp133
(lp134
a(lp135
a(lp136
((lp137
Vhttp://www.w3.org/2002/07/owl#Thing
p138
aVhttp://www.ontologydesignpatterns.org/ont/dul/DUL.owl#InformationObject
p139
aVhttp://www.wikidata.org/entity/Q386724
p140
aVhttp://dbpedia.org/ontology/BiologicalDatabase
p141
aVhttp://dbpedia.org/ontology/Database
p142
aVhttp://dbpedia.org/ontology/Work
p143
aVhttp://schema.org/CreativeWork
p144
aVhttp://dbpedia.org/resource/AgBase
tp145
aa(lp146
aa(lp147
(lp148
a(lp149
a(lp150
((lp151
Vhttp://www.w3.org/2002/07/owl#Thing
p152
aVhttp://www.ontologydesignpatterns.org/ont/dul/DUL.owl#InformationObject
p153
aVhttp://www.wikidata.org/entity/Q386724
p154
aVhttp://dbpedia.org/ontology/BiologicalDatabase
p155
aVhttp://dbpedia.org/ontology/Database
p156
aVhttp://dbpedia.org/ontology/Work
p157
aVhttp://schema.org/CreativeWork
p158
aVhttp://dbpedia.org/resource/Database_for_bacterial_group_II_introns
tp159
aa(lp160
aa(lp161
(lp162
a(lp163
a(lp164
((lp165
Vhttp://www.w3.org/2002/07/owl#Thing
p166
aVhttp://www.ontologydesignpatterns.org/ont/dul/DUL.owl#InformationObject
p167
aVhttp://www.wikidata.org/entity/Q386724
p168
aVhttp://dbpedia.org/ontology/BiologicalDatabase
p169
aVhttp://dbpedia.org/ontology/Database
p170
aVhttp://dbpedia.org/ontology/Work
p171
aVhttp://schema.org/CreativeWork
p172
aVhttp://dbpedia.org/resource/NONCODE
tp173
aa(lp174
aa(lp175
(lp176
a(lp177
a(lp178
((lp179
Vhttp://dbpedia.org/class/yago/Artifact100021939
p180
aVhttp://dbpedia.org/class/yago/Decoration103169390
p181
aVhttp://dbpedia.org/class/yago/Design103178782
p182
aVhttp://dbpedia.org/class/yago/Motif103789014
p183
aVhttp://dbpedia.org/class/yago/Object100002684
p184
aVhttp://dbpedia.org/class/yago/Whole100003553
p185
aVhttp://dbpedia.org/class/yago/ProteinStructuralMotifs
p186
aVhttp://www.w3.org/2002/07/owl#Thing
p187
aVhttp://www.ontologydesignpatterns.org/ont/dul/DUL.owl#InformationObject
p188
aVhttp://www.wikidata.org/entity/Q386724
p189
aVhttp://dbpedia.org/ontology/BiologicalDatabase
p190
aVhttp://dbpedia.org/ontology/Database
p191
aVhttp://dbpedia.org/ontology/Work
p192
aVhttp://schema.org/CreativeWork
p193
aVhttp://dbpedia.org/class/yago/PhysicalEntity100001930
p194
aVhttp://dbpedia.org/resource/TMPad
tp195
aa(lp196
aa(lp197
(lp198
a(lp199
a(lp200
a(lp201
aa(lp202
(lp203
a(lp204
a(lp205
((lp206
Vhttp://www.w3.org/2002/07/owl#Thing
p207
aVhttp://www.ontologydesignpatterns.org/ont/dul/DUL.owl#InformationObject
p208
aVhttp://www.wikidata.org/entity/Q386724
p209
aVhttp://dbpedia.org/ontology/BiologicalDatabase
p210
aVhttp://dbpedia.org/ontology/Database
p211
aVhttp://dbpedia.org/ontology/Work
p212
aVhttp://schema.org/CreativeWork
p213
aVhttp://dbpedia.org/resource/GWASdb
tp214
aa(lp215
aa(lp216
(lp217
a(lp218
a(lp219
((lp220
Vhttp://www.w3.org/2002/07/owl#Thing
p221
aVhttp://www.ontologydesignpatterns.org/ont/dul/DUL.owl#InformationObject
p222
aVhttp://www.wikidata.org/entity/Q386724
p223
aVhttp://dbpedia.org/ontology/BiologicalDatabase
p224
aVhttp://dbpedia.org/ontology/Database
p225
aVhttp://dbpedia.org/ontology/Work
p226
aVhttp://schema.org/CreativeWork
p227
aVhttp://dbpedia.org/resource/IsoBase
tp228
aa(lp229
aa(lp230
(lp231
a(lp232
a(lp233
((lp234
Vhttp://dbpedia.org/class/yago/Abstraction100002137
p235
aVhttp://dbpedia.org/class/yago/Cognition100023271
p236
aVhttp://dbpedia.org/class/yago/Component105868954
p237
aVhttp://dbpedia.org/class/yago/Concept105835747
p238
aVhttp://dbpedia.org/class/yago/Content105809192
p239
aVhttp://dbpedia.org/class/yago/Idea105833840
p240
aVhttp://dbpedia.org/class/yago/Part105867413
p241
aVhttp://www.w3.org/2002/07/owl#Thing
p242
aVhttp://www.ontologydesignpatterns.org/ont/dul/DUL.owl#InformationObject
p243
aVhttp://www.wikidata.org/entity/Q386724
p244
aVhttp://dbpedia.org/ontology/BiologicalDatabase
p245
aVhttp://dbpedia.org/ontology/Database
p246
aVhttp://dbpedia.org/ontology/Work
p247
aVhttp://schema.org/CreativeWork
p248
aVhttp://dbpedia.org/class/yago/PsychologicalFeature100023100
p249
aVhttp://dbpedia.org/class/yago/MobileGeneticElements
p250
aVhttp://dbpedia.org/resource/Classification_of_mobile_genetic_elements
tp251
aa(lp252
aa(lp253
(lp254
a(lp255
a(lp256
((lp257
Vhttp://www.w3.org/2002/07/owl#Thing
p258
aVhttp://www.ontologydesignpatterns.org/ont/dul/DUL.owl#InformationObject
p259
aVhttp://www.wikidata.org/entity/Q386724
p260
aVhttp://dbpedia.org/ontology/BiologicalDatabase
p261
aVhttp://dbpedia.org/ontology/Database
p262
aVhttp://dbpedia.org/ontology/Work
p263
aVhttp://schema.org/CreativeWork
p264
aVhttp://dbpedia.org/resource/KUPS_(database)
tp265
aa(lp266
aa(lp267
(lp268
a(lp269
a(lp270
((lp271
Vhttp://www.w3.org/2002/07/owl#Thing
p272
aVhttp://www.ontologydesignpatterns.org/ont/dul/DUL.owl#InformationObject
p273
aVhttp://www.wikidata.org/entity/Q386724
p274
aVhttp://dbpedia.org/ontology/BiologicalDatabase
p275
aVhttp://dbpedia.org/ontology/Database
p276
aVhttp://dbpedia.org/ontology/Work
p277
aVhttp://schema.org/CreativeWork
p278
aVhttp://dbpedia.org/resource/Netpath
tp279
aa(lp280
aa(lp281
(lp282
a(lp283
a(lp284
((lp285
Vhttp://www.w3.org/2002/07/owl#Thing
p286
aVhttp://www.ontologydesignpatterns.org/ont/dul/DUL.owl#InformationObject
p287
aVhttp://www.wikidata.org/entity/Q386724
p288
aVhttp://dbpedia.org/ontology/BiologicalDatabase
p289
aVhttp://dbpedia.org/ontology/Database
p290
aVhttp://dbpedia.org/ontology/Work
p291
aVhttp://schema.org/CreativeWork
p292
aVhttp://dbpedia.org/resource/Nucleosome_positioning_region_database
tp293
aa(lp294
aa(lp295
(lp296
a(lp297
a(lp298
((lp299
Vhttp://dbpedia.org/class/yago/Antioxidant114724645
p300
aVhttp://dbpedia.org/class/yago/Antioxidants
p301
aVhttp://dbpedia.org/class/yago/Inhibitor114724436
p302
aVhttp://dbpedia.org/class/yago/Matter100020827
p303
aVhttp://dbpedia.org/class/yago/Substance100020090
p304
aVhttp://www.w3.org/2002/07/owl#Thing
p305
aVhttp://www.ontologydesignpatterns.org/ont/dul/DUL.owl#InformationObject
p306
aVhttp://www.wikidata.org/entity/Q386724
p307
aVhttp://dbpedia.org/ontology/BiologicalDatabase
p308
aVhttp://dbpedia.org/ontology/Database
p309
aVhttp://dbpedia.org/ontology/Work
p310
aVhttp://schema.org/CreativeWork
p311
aVhttp://dbpedia.org/class/yago/PhysicalEntity100001930
p312
aVhttp://dbpedia.org/resource/Peroxiredoxin_classification_index
p313
tp314
aa(lp315
aa.