(lp1
(dp2
I0
(dp3
I0
(lp4
sI1
(lp5
sI2
(lp6
sI3
(lp7
sI4
(lp8
ssI1
(dp9
I0
g5
sI1
(lp10
sI2
(lp11
sI3
(lp12
sI4
(lp13
ssI2
(dp14
I1
g11
sI2
(lp15
sI3
(lp16
sI4
(lp17
ssI3
(dp18
I0
g7
sI1
g12
sI2
g16
sI3
(lp19
sI4
(lp20
ssI4
(dp21
I0
g8
sI1
g13
sI2
g17
sI3
g20
sI4
(lp22
ssa(dp23
I0
(dp24
I0
(lp25
sI1
(lp26
sI2
(lp27
sI3
(lp28
sI4
(lp29
ssI1
(dp30
I0
g26
sI1
(lp31
sI2
(lp32
sI3
(lp33
sI4
(lp34
ssI2
(dp35
I0
g27
sI1
g32
sI2
(lp36
sI3
(lp37
sI4
(lp38
ssI3
(dp39
I0
g28
sI1
g33
sI2
g37
sI3
(lp40
sI4
(lp41
ssI4
(dp42
I1
g34
sI2
g38
sI3
g41
sI4
(lp43
ssa(dp44
I0
(dp45
I0
(lp46
sI1
(lp47
sI2
(lp48
sI3
(lp49
sI4
(lp50
ssI1
(dp51
I1
(lp52
sI2
(lp53
sI3
(lp54
sI4
(lp55
ssI2
(dp56
I0
g48
sI1
g53
sI2
(lp57
sI3
(lp58
sI4
(lp59
ssI3
(dp60
I2
g58
sI3
(lp61
sI4
(lp62
ssI4
(dp63
I2
g59
sI4
(lp64
ssa(dp65
I0
(dp66
I0
(lp67
sI1
(lp68
sI2
(lp69
sI3
(lp70
sI4
(lp71
ssI1
(dp72
I1
(lp73
sI2
(lp74
sI3
(lp75
sI4
(lp76
ssI2
(dp77
I0
g69
sI1
g74
sI2
(lp78
sI3
(lp79
sI4
(lp80
ssI3
(dp81
I2
g79
sI3
(lp82
sI4
(lp83
ssI4
(dp84
I2
g80
sI4
(lp85
ssa(dp86
I0
(dp87
I0
(lp88
sI1
(lp89
sI2
(lp90
sI3
(lp91
sI4
(lp92
ssI1
(dp93
I1
(lp94
sI2
(lp95
sI3
(lp96
sI4
(lp97
ssI2
(dp98
I0
g90
sI1
g95
sI2
(lp99
sI3
(lp100
sI4
(lp101
ssI3
(dp102
I2
g100
sI3
(lp103
sI4
(lp104
ssI4
(dp105
I2
g101
sI4
(lp106
ssa(dp107
I0
(dp108
I0
(lp109
sI1
(lp110
sI2
(lp111
sI3
(lp112
sI4
(lp113
ssI1
(dp114
I0
g110
sI1
(lp115
sI2
(lp116
Vhttp://www.w3.org/ns/prov#wasDerivedFrom
p117
asI3
(lp118
sI4
(lp119
ssI2
(dp120
I0
g111
sI1
g116
sI2
(lp121
sI3
(lp122
sI4
(lp123
ssI3
(dp124
I0
g112
sI1
g118
sI2
g122
sI3
(lp125
sI4
(lp126
ssI4
(dp127
I1
g119
sI2
g123
sI3
g126
sI4
(lp128
ssa(dp129
I0
(dp130
I0
(lp131
sI1
(lp132
sI2
(lp133
sI3
(lp134
sI4
(lp135
ssI1
(dp136
I0
g132
sI1
(lp137
sI2
(lp138
Vhttp://www.w3.org/ns/prov#wasDerivedFrom
p139
asI3
(lp140
sI4
(lp141
ssI2
(dp142
I0
g133
sI1
g138
sI2
(lp143
sI3
(lp144
sI4
(lp145
ssI3
(dp146
I0
g134
sI1
g140
sI2
g144
sI3
(lp147
sI4
(lp148
ssI4
(dp149
I1
g141
sI2
g145
sI3
g148
sI4
(lp150
ssa(dp151
I0
(dp152
I0
(lp153
sI1
(lp154
sI2
(lp155
sI3
(lp156
sI4
(lp157
ssI1
(dp158
I1
(lp159
sI2
(lp160
sI3
(lp161
sI4
(lp162
ssI2
(dp163
I0
g155
sI1
g160
sI2
(lp164
sI3
(lp165
sI4
(lp166
ssI3
(dp167
I2
g165
sI3
(lp168
sI4
(lp169
ssI4
(dp170
I2
g166
sI4
(lp171
ssa(dp172
I0
(dp173
I0
(lp174
sI1
(lp175
sI2
(lp176
sI3
(lp177
sI4
(lp178
ssI1
(dp179
I0
g175
sI1
(lp180
sI2
(lp181
Vhttp://www.w3.org/ns/prov#wasDerivedFrom
p182
asI3
(lp183
sI4
(lp184
ssI2
(dp185
I0
g176
sI1
g181
sI2
(lp186
sI3
(lp187
sI4
(lp188
ssI3
(dp189
I0
g177
sI1
g183
sI2
g187
sI3
(lp190
sI4
(lp191
ssI4
(dp192
I1
g184
sI2
g188
sI3
g191
sI4
(lp193
ssa(dp194
I0
(dp195
I0
(lp196
sI1
(lp197
sI2
(lp198
sI3
(lp199
sI4
(lp200
ssI1
(dp201
I1
(lp202
sI2
(lp203
sI3
(lp204
sI4
(lp205
ssI2
(dp206
I0
g198
sI1
g203
sI2
(lp207
sI3
(lp208
sI4
(lp209
ssI3
(dp210
I2
g208
sI3
(lp211
sI4
(lp212
ssI4
(dp213
I2
g209
sI4
(lp214
ssa(dp215
I0
(dp216
I0
(lp217
sI1
(lp218
sI2
(lp219
sI3
(lp220
sI4
(lp221
ssI1
(dp222
I1
(lp223
sI2
(lp224
sI3
(lp225
sI4
(lp226
ssI2
(dp227
I0
g219
sI1
g224
sI2
(lp228
sI3
(lp229
sI4
(lp230
ssI3
(dp231
I2
g229
sI3
(lp232
sI4
(lp233
ssI4
(dp234
I2
g230
sI4
(lp235
ssa(dp236
I0
(dp237
I0
(lp238
sI1
(lp239
sI2
(lp240
sI3
(lp241
sI4
(lp242
ssI1
(dp243
I1
(lp244
sI2
(lp245
sI3
(lp246
sI4
(lp247
ssI2
(dp248
I0
g240
sI1
g245
sI2
(lp249
sI3
(lp250
sI4
(lp251
ssI3
(dp252
I2
g250
sI3
(lp253
sI4
(lp254
ssI4
(dp255
I2
g251
sI4
(lp256
ssa(dp257
I0
(dp258
I0
(lp259
sI1
(lp260
sI2
(lp261
sI3
(lp262
sI4
(lp263
ssI1
(dp264
I1
(lp265
sI2
(lp266
sI3
(lp267
sI4
(lp268
ssI2
(dp269
I0
g261
sI1
g266
sI2
(lp270
sI3
(lp271
sI4
(lp272
ssI3
(dp273
I2
g271
sI3
(lp274
sI4
(lp275
ssI4
(dp276
I2
g272
sI4
(lp277
ssa(dp278
I0
(dp279
I0
(lp280
sI1
(lp281
sI2
(lp282
sI3
(lp283
sI4
(lp284
ssI1
(dp285
I1
(lp286
sI2
(lp287
sI3
(lp288
sI4
(lp289
ssI2
(dp290
I0
g282
sI1
g287
sI2
(lp291
sI3
(lp292
sI4
(lp293
ssI3
(dp294
I2
g292
sI3
(lp295
sI4
(lp296
ssI4
(dp297
I2
g293
sI4
(lp298
ssa(dp299
I0
(dp300
I0
(lp301
sI1
(lp302
sI2
(lp303
sI3
(lp304
sI4
(lp305
ssI1
(dp306
I1
(lp307
sI2
(lp308
sI3
(lp309
sI4
(lp310
ssI2
(dp311
I0
g303
sI1
g308
sI2
(lp312
sI3
(lp313
sI4
(lp314
ssI3
(dp315
I2
g313
sI3
(lp316
sI4
(lp317
ssI4
(dp318
I2
g314
sI4
(lp319
ssa(dp320
I0
(dp321
I0
(lp322
sI1
(lp323
sI2
(lp324
sI3
(lp325
sI4
(lp326
ssI1
(dp327
I1
(lp328
sI2
(lp329
sI3
(lp330
sI4
(lp331
ssI2
(dp332
I0
g324
sI1
g329
sI2
(lp333
sI3
(lp334
sI4
(lp335
ssI3
(dp336
I2
g334
sI3
(lp337
sI4
(lp338
ssI4
(dp339
I2
g335
sI4
(lp340
ssa(dp341
I0
(dp342
I0
(lp343
sI1
(lp344
sI2
(lp345
sI3
(lp346
sI4
(lp347
ssI1
(dp348
I0
g344
sI1
(lp349
sI2
(lp350
Vhttp://www.w3.org/ns/prov#wasDerivedFrom
p351
asI3
(lp352
sI4
(lp353
ssI2
(dp354
I0
g345
sI1
g350
sI2
(lp355
sI3
(lp356
sI4
(lp357
ssI3
(dp358
I0
g346
sI1
g352
sI2
g356
sI3
(lp359
sI4
(lp360
ssI4
(dp361
I1
g353
sI2
g357
sI3
g360
sI4
(lp362
ssa(dp363
I0
(dp364
I0
(lp365
sI1
(lp366
sI2
(lp367
sI3
(lp368
sI4
(lp369
ssI1
(dp370
I1
(lp371
sI2
(lp372
sI3
(lp373
sI4
(lp374
ssI2
(dp375
I0
g367
sI1
g372
sI2
(lp376
sI3
(lp377
sI4
(lp378
ssI3
(dp379
I2
g377
sI3
(lp380
sI4
(lp381
ssI4
(dp382
I2
g378
sI4
(lp383
ssa(dp384
I0
(dp385
I0
(lp386
sI1
(lp387
sI2
(lp388
sI3
(lp389
sI4
(lp390
ssI1
(dp391
I0
g387
sI1
(lp392
sI2
(lp393
Vhttp://www.w3.org/ns/prov#wasDerivedFrom
p394
asI3
(lp395
sI4
(lp396
ssI2
(dp397
I0
g388
sI1
g393
sI2
(lp398
sI3
(lp399
sI4
(lp400
ssI3
(dp401
I0
g389
sI1
g395
sI2
g399
sI3
(lp402
sI4
(lp403
ssI4
(dp404
I1
g396
sI2
g400
sI3
g403
sI4
(lp405
ssa.