ccollections
defaultdict
p1
(c__builtin__
dict
p2
tRp3
I1
(dp4
I0
(lp5
sI2
(lp6
ssI2
(dp7
I0
(lp8
sI2
(lp9
ssI4
(dp10
I0
(lp11
sI2
(lp12
ssI6
(dp13
I0
(lp14
sI2
(lp15
ssI9
(dp16
I0
(lp17
sI2
(lp18
ss.