(lp1
(lp2
(lp3
a(lp4
a(lp5
a(lp6
a(lp7
a(lp8
a(lp9
a(lp10
a(lp11
((lVhttp://dbpedia.org/resource/2010_Epsom_Derby
tp12
aa(lp13
a(lp14
a(lp15
a(lp16
a(lp17
a(lp18
a(lp19
((lp20
Vhttp://dbpedia.org/class/yago/Abstraction100002137
p21
aVhttp://dbpedia.org/class/yago/AutoRacesInTheUnitedKingdom
p22
aVhttp://dbpedia.org/class/yago/AutomobileRace107458892
p23
aVhttp://dbpedia.org/class/yago/Contest107456188
p24
aVhttp://dbpedia.org/class/yago/Event100029378
p25
aVhttp://dbpedia.org/class/yago/Race107458453
p26
aVhttp://dbpedia.org/class/yago/Race107472657
p27
aVhttp://dbpedia.org/class/yago/SocialEvent107288639
p28
aVhttp://dbpedia.org/class/yago/PsychologicalFeature100023100
p29
aVhttp://dbpedia.org/class/yago/YagoPermanentlyLocatedEntity
p30
aVhttp://dbpedia.org/class/yago/WorldSportscarChampionshipRaces
p31
aVhttp://dbpedia.org/resource/RAC_Tourist_Trophy
p32
tp33
aa(lp34
a(lp35
a(lp36
aa.