(lp1
(lp2
(lp3
a(lp4
a(lp5
a(lp6
aa(lp7
(lp8
a(lp9
a(lp10
a(lp11
aa(lp12
(lp13
a(lp14
a(lp15
a(lp16
aa(lp17
(lp18
a(lp19
a(lp20
a(lp21
((lp22
Vhttp://dbpedia.org/class/yago/AdministrativeDistrict108491826
p23
aVhttp://dbpedia.org/class/yago/District108552138
p24
aVhttp://dbpedia.org/class/yago/Location100027167
p25
aVhttp://dbpedia.org/class/yago/Object100002684
p26
aVhttp://dbpedia.org/class/yago/Region108630985
p27
aVhttp://dbpedia.org/class/yago/Site108651247
p28
aVhttp://dbpedia.org/class/yago/Tract108673395
p29
aVhttp://dbpedia.org/class/yago/UrbanArea108675967
p30
aVhttp://dbpedia.org/class/yago/YagoGeoEntity
p31
aVhttp://dbpedia.org/class/yago/YagoLegalActorGeo
p32
aVhttp://dbpedia.org/class/yago/PopulatedPlacesInGuatemala
p33
aVhttp://www.w3.org/2002/07/owl#Thing
p34
aVhttp://dbpedia.org/ontology/Name
p35
aVhttp://www.wikidata.org/entity/Q82799
p36
aVhttp://dbpedia.org/ontology/Surname
p37
aVhttp://dbpedia.org/class/yago/YagoPermanentlyLocatedEntity
p38
aVhttp://dbpedia.org/class/yago/MunicipalitiesOfTheJutiapaDepartment
p39
aVhttp://dbpedia.org/class/yago/GeographicalArea108574314
p40
aVhttp://dbpedia.org/class/yago/Municipality108626283
p41
aVhttp://dbpedia.org/class/yago/PhysicalEntity100001930
p42
aVhttp://dbpedia.org/resource/Quezada
tp43
aaa(lp44
(lp45
a(lp46
a(lp47
a(lp48
aa(lp49
(lp50
a(lp51
a(lp52
a(lp53
((lp54
Vhttp://dbpedia.org/class/yago/Actor109765278
p55
aVhttp://dbpedia.org/class/yago/ActorsFromLouisiana
p56
aVhttp://dbpedia.org/class/yago/AmericanDramatistsAndPlaywrights
p57
aVhttp://dbpedia.org/class/yago/AmericanFilmActors
p58
aVhttp://dbpedia.org/class/yago/AmericanSilentFilmActors
p59
aVhttp://dbpedia.org/class/yago/AmericanStageActors
p60
aVhttp://dbpedia.org/class/yago/CausalAgent100007347
p61
aVhttp://dbpedia.org/class/yago/Communicator109610660
p62
aVhttp://dbpedia.org/class/yago/Dramatist110030277
p63
aVhttp://dbpedia.org/class/yago/Entertainer109616922
p64
aVhttp://dbpedia.org/class/yago/LivingThing100004258
p65
aVhttp://dbpedia.org/class/yago/Object100002684
p66
aVhttp://dbpedia.org/class/yago/Organism100004475
p67
aVhttp://dbpedia.org/class/yago/Performer110415638
p68
aVhttp://dbpedia.org/class/yago/Person100007846
p69
aVhttp://dbpedia.org/class/yago/Whole100003553
p70
aVhttp://dbpedia.org/class/yago/Writer110794014
p71
aVhttp://dbpedia.org/class/yago/YagoLegalActorGeo
p72
aVhttp://www.w3.org/2002/07/owl#Thing
p73
aVhttp://xmlns.com/foaf/0.1/Person
p74
aVhttp://dbpedia.org/ontology/Person
p75
aVhttp://www.ontologydesignpatterns.org/ont/dul/DUL.owl#Agent
p76
aVhttp://www.ontologydesignpatterns.org/ont/dul/DUL.owl#NaturalPerson
p77
aVhttp://www.wikidata.org/entity/Q215627
p78
aVhttp://www.wikidata.org/entity/Q5
p79
aVhttp://dbpedia.org/ontology/Agent
p80
aVhttp://schema.org/Person
p81
aVhttp://dbpedia.org/class/yago/PeopleFromNewOrleans,Louisiana
p82
aVhttp://dbpedia.org/class/yago/YagoLegalActor
p83
aVhttp://dbpedia.org/class/yago/PhysicalEntity100001930
p84
aVhttp://dbpedia.org/resource/Minnie_Maddern_Fiske
tp85
aaa(lp86
(lp87
a(lp88
a(lp89
a(lp90
((lp91
Vhttp://dbpedia.org/class/yago/20th-centuryPhilosophers
p92
aVhttp://dbpedia.org/class/yago/Absentee109757653
p93
aVhttp://dbpedia.org/class/yago/Academician109759069
p94
aVhttp://dbpedia.org/class/yago/AcademicsOfTheLondonSchoolOfEconomics
p95
aVhttp://dbpedia.org/class/yago/Adult109605289
p96
aVhttp://dbpedia.org/class/yago/Anthropologist109796323
p97
aVhttp://dbpedia.org/class/yago/AnthropologistsOfReligion
p98
aVhttp://dbpedia.org/class/yago/Associate109816771
p99
aVhttp://dbpedia.org/class/yago/BritishPeopleOfCzechDescent
p100
aVhttp://dbpedia.org/class/yago/CausalAgent100007347
p101
aVhttp://dbpedia.org/class/yago/Colleague109935990
p102
aVhttp://dbpedia.org/class/yago/Educator110045713
p103
aVhttp://dbpedia.org/class/yago/Exile110071332
p104
aVhttp://dbpedia.org/class/yago/Intellectual109621545
p105
aVhttp://dbpedia.org/class/yago/LivingThing100004258
p106
aVhttp://dbpedia.org/class/yago/Object100002684
p107
aVhttp://dbpedia.org/class/yago/Organism100004475
p108
aVhttp://dbpedia.org/class/yago/Peer109626238
p109
aVhttp://dbpedia.org/class/yago/Person100007846
p110
aVhttp://dbpedia.org/class/yago/Philosopher110423589
p111
aVhttp://dbpedia.org/class/yago/Professional110480253
p112
aVhttp://dbpedia.org/class/yago/Refugee110516016
p113
aVhttp://dbpedia.org/class/yago/Scholar110557854
p114
aVhttp://dbpedia.org/class/yago/Scientist110560637
p115
aVhttp://dbpedia.org/class/yago/SocialAnthropologist110618465
p116
aVhttp://dbpedia.org/class/yago/SocialScientist110619642
p117
aVhttp://dbpedia.org/class/yago/Traveler109629752
p118
aVhttp://dbpedia.org/class/yago/Whole100003553
p119
aVhttp://dbpedia.org/class/yago/YagoLegalActorGeo
p120
aVhttp://dbpedia.org/class/yago/ScholarsOfNationalism
p121
aVhttp://dbpedia.org/class/yago/SocialAnthropologists
p122
aVhttp://www.w3.org/2002/07/owl#Thing
p123
aVhttp://xmlns.com/foaf/0.1/Person
p124
aVhttp://dbpedia.org/ontology/Person
p125
aVhttp://www.ontologydesignpatterns.org/ont/dul/DUL.owl#Agent
p126
aVhttp://www.ontologydesignpatterns.org/ont/dul/DUL.owl#NaturalPerson
p127
aVhttp://www.wikidata.org/entity/Q215627
p128
aVhttp://www.wikidata.org/entity/Q4964182
p129
aVhttp://www.wikidata.org/entity/Q5
p130
aVhttp://dbpedia.org/ontology/Agent
p131
aVhttp://dbpedia.org/ontology/Philosopher
p132
aVhttp://schema.org/Person
p133
aVhttp://umbel.org/umbel/rc/Philosopher
p134
aVhttp://dbpedia.org/class/yago/CzechExpatriatesInFrance
p135
aVhttp://dbpedia.org/class/yago/CzechPhilosophers
p136
aVhttp://dbpedia.org/class/yago/CzechRefugees
p137
aVhttp://dbpedia.org/class/yago/CzechoslovakRefugees
p138
aVhttp://dbpedia.org/class/yago/FellowsOfTheBritishAcademy
p139
aVhttp://dbpedia.org/class/yago/PeopleEducatedAtStAlbansSchool,Hertfordshire
p140
aVhttp://dbpedia.org/class/yago/PeopleFromParis
p141
aVhttp://dbpedia.org/class/yago/PeopleFromPrague
p142
aVhttp://dbpedia.org/class/yago/YagoLegalActor
p143
aVhttp://dbpedia.org/class/yago/JewishPhilosophers
p144
aVhttp://dbpedia.org/class/yago/JewishRefugees
p145
aVhttp://dbpedia.org/class/yago/JewishScientists
p146
aVhttp://dbpedia.org/class/yago/PhysicalEntity100001930
p147
aVhttp://dbpedia.org/resource/Ernest_Gellner
tp148
aaa(lp149
(lp150
a(lp151
a(lp152
a(lp153
((lp154
Vhttp://dbpedia.org/class/yago/Athlete109820263
p155
aVhttp://dbpedia.org/class/yago/Back109830194
p156
aVhttp://dbpedia.org/class/yago/CausalAgent100007347
p157
aVhttp://dbpedia.org/class/yago/Contestant109613191
p158
aVhttp://dbpedia.org/class/yago/FootballPlayer110101634
p159
aVhttp://dbpedia.org/class/yago/LivingThing100004258
p160
aVhttp://dbpedia.org/class/yago/Object100002684
p161
aVhttp://dbpedia.org/class/yago/Organism100004475
p162
aVhttp://dbpedia.org/class/yago/Person100007846
p163
aVhttp://dbpedia.org/class/yago/Player110439851
p164
aVhttp://dbpedia.org/class/yago/Whole100003553
p165
aVhttp://dbpedia.org/class/yago/YagoLegalActorGeo
p166
aVhttp://dbpedia.org/class/yago/RugbyUnionFlankers
p167
aVhttp://www.w3.org/2002/07/owl#Thing
p168
aVhttp://xmlns.com/foaf/0.1/Person
p169
aVhttp://dbpedia.org/ontology/Person
p170
aVhttp://www.ontologydesignpatterns.org/ont/dul/DUL.owl#Agent
p171
aVhttp://www.ontologydesignpatterns.org/ont/dul/DUL.owl#NaturalPerson
p172
aVhttp://www.wikidata.org/entity/Q13415036
p173
aVhttp://www.wikidata.org/entity/Q215627
p174
aVhttp://www.wikidata.org/entity/Q5
p175
aVhttp://dbpedia.org/ontology/Agent
p176
aVhttp://dbpedia.org/ontology/Athlete
p177
aVhttp://dbpedia.org/ontology/RugbyPlayer
p178
aVhttp://schema.org/Person
p179
aVhttp://dbpedia.org/class/yago/EnglandInternationalRugbyUnionPlayers
p180
aVhttp://dbpedia.org/class/yago/EnglishRugbyUnionPlayers
p181
aVhttp://dbpedia.org/class/yago/FlankerBack110095265
p182
aVhttp://dbpedia.org/class/yago/PeopleFromGloucester
p183
aVhttp://dbpedia.org/class/yago/YagoLegalActor
p184
aVhttp://dbpedia.org/class/yago/GloucesterRugbyPlayers
p185
aVhttp://dbpedia.org/class/yago/LivingPeople
p186
aVhttp://dbpedia.org/class/yago/PhysicalEntity100001930
p187
aVhttp://dbpedia.org/resource/Andy_Hazell
tp188
aaa(lp189
(lp190
a(lp191
a(lp192
a(lp193
aa(lp194
(lp195
a(lp196
a(lp197
a(lp198
((lVhttp://dbpedia.org/resource/Kim_(Korean_surname)
tp199
aaa(lp200
(lp201
a(lp202
a(lp203
a(lp204
((lp205
Vhttp://www.w3.org/2002/07/owl#Thing
p206
aVhttp://dbpedia.org/resource/Yoon_(Korean_surname)
tp207
aaa(lp208
(lp209
a(lp210
a(lp211
a(lp212
((lVhttp://dbpedia.org/resource/Kwon
tp213
aaa(lp214
(lp215
a(lp216
a(lp217
a(lp218
aa(lp219
(lp220
a(lp221
a(lp222
a(lp223
aa(lp224
(lp225
a(lp226
a(lp227
a(lp228
((lp229
Vhttp://dbpedia.org/class/yago/Ability105616246
p230
aVhttp://dbpedia.org/class/yago/Abstraction100002137
p231
aVhttp://dbpedia.org/class/yago/Cognition100023271
p232
aVhttp://dbpedia.org/class/yago/FictionalCharacter109587565
p233
aVhttp://dbpedia.org/class/yago/FictionalCharactersIntroducedIn1997
p234
aVhttp://dbpedia.org/class/yago/PsychologicalFeature100023100
p235
aVhttp://dbpedia.org/class/yago/Creativity105624700
p236
aVhttp://dbpedia.org/class/yago/HarryPotterCharacters
p237
aVhttp://dbpedia.org/class/yago/ImaginaryBeing109483738
p238
aVhttp://dbpedia.org/class/yago/Imagination105625465
p239
aVhttp://dbpedia.org/resource/Hogwarts_staff
tp240
aaa(lp241
(lp242
a(lp243
a(lp244
a(lp245
((lp246
Vhttp://dbpedia.org/class/yago/Absentee109757653
p247
aVhttp://dbpedia.org/class/yago/AlumniOfSelwynCollege,Cambridge
p248
aVhttp://dbpedia.org/class/yago/Alumnus109786338
p249
aVhttp://dbpedia.org/class/yago/Autobiographer109825296
p250
aVhttp://dbpedia.org/class/yago/Biographer109855433
p251
aVhttp://dbpedia.org/class/yago/BritishArmyGeneralListOfficers
p252
aVhttp://dbpedia.org/class/yago/BritishExpatriatesInTheSovietUnion
p253
aVhttp://dbpedia.org/class/yago/BritishJournalists
p254
aVhttp://dbpedia.org/class/yago/BritishMagazineEditors
p255
aVhttp://dbpedia.org/class/yago/BritishSatirists
p256
aVhttp://dbpedia.org/class/yago/BritishWriters
p257
aVhttp://dbpedia.org/class/yago/CausalAgent100007347
p258
aVhttp://dbpedia.org/class/yago/Clergyman109927451
p259
aVhttp://dbpedia.org/class/yago/Communicator109610660
p260
aVhttp://dbpedia.org/class/yago/Convert109962414
p261
aVhttp://dbpedia.org/class/yago/Eater110042300
p262
aVhttp://dbpedia.org/class/yago/Editor110044879
p263
aVhttp://dbpedia.org/class/yago/Entertainer109616922
p264
aVhttp://dbpedia.org/class/yago/Exile110071332
p265
aVhttp://dbpedia.org/class/yago/Humorist110191943
p266
aVhttp://dbpedia.org/class/yago/Intellectual109621545
p267
aVhttp://dbpedia.org/class/yago/Journalist110224578
p268
aVhttp://dbpedia.org/class/yago/Leader109623038
p269
aVhttp://dbpedia.org/class/yago/LivingThing100004258
p270
aVhttp://dbpedia.org/class/yago/MilitaryOfficer110317007
p271
aVhttp://dbpedia.org/class/yago/Object100002684
p272
aVhttp://dbpedia.org/class/yago/Organism100004475
p273
aVhttp://dbpedia.org/class/yago/Person100007846
p274
aVhttp://dbpedia.org/class/yago/Satirist110552742
p275
aVhttp://dbpedia.org/class/yago/Scholar110557854
p276
aVhttp://dbpedia.org/class/yago/Serviceman110582746
p277
aVhttp://dbpedia.org/class/yago/SkilledWorker110605985
p278
aVhttp://dbpedia.org/class/yago/Soldier110622053
p279
aVhttp://dbpedia.org/class/yago/SpiritualLeader109505153
p280
aVhttp://dbpedia.org/class/yago/Traveler109629752
p281
aVhttp://dbpedia.org/class/yago/User110741590
p282
aVhttp://dbpedia.org/class/yago/Vegetarian110747119
p283
aVhttp://dbpedia.org/class/yago/Whole100003553
p284
aVhttp://dbpedia.org/class/yago/Worker109632518
p285
aVhttp://dbpedia.org/class/yago/Writer110794014
p286
aVhttp://dbpedia.org/class/yago/YagoLegalActorGeo
p287
aVhttp://dbpedia.org/class/yago/RectorsOfTheUniversityOfEdinburgh
p288
aVhttp://dbpedia.org/class/yago/RomanCatholicWriters
p289
aVhttp://dbpedia.org/class/yago/RoyalMilitaryPoliceSoldiers
p290
aVhttp://www.w3.org/2002/07/owl#Thing
p291
aVhttp://xmlns.com/foaf/0.1/Person
p292
aVhttp://dbpedia.org/ontology/Person
p293
aVhttp://www.ontologydesignpatterns.org/ont/dul/DUL.owl#Agent
p294
aVhttp://www.ontologydesignpatterns.org/ont/dul/DUL.owl#NaturalPerson
p295
aVhttp://www.wikidata.org/entity/Q215627
p296
aVhttp://www.wikidata.org/entity/Q5
p297
aVhttp://dbpedia.org/ontology/Agent
p298
aVhttp://schema.org/Person
p299
aVhttp://umbel.org/umbel/rc/Writer
p300
aVhttp://dbpedia.org/class/yago/ConvertsToRomanCatholicismFromAtheismOrAgnosticism
p301
aVhttp://dbpedia.org/class/yago/EnglishAutobiographers
p302
aVhttp://dbpedia.org/class/yago/EnglishVegetarians
p303
aVhttp://dbpedia.org/class/yago/PeopleFromCroydon
p304
aVhttp://dbpedia.org/class/yago/YagoLegalActor
p305
aVhttp://dbpedia.org/class/yago/Consumer109612848
p306
aVhttp://dbpedia.org/class/yago/Curate109983572
p307
aVhttp://dbpedia.org/class/yago/EnlistedPerson110058777
p308
aVhttp://dbpedia.org/class/yago/IntelligenceCorpsOfficers
p309
aVhttp://dbpedia.org/class/yago/PhysicalEntity100001930
p310
aVhttp://dbpedia.org/class/yago/TheGuardianJournalists
p311
aVhttp://dbpedia.org/class/yago/WesternWritersAboutSovietRussia
p312
aVhttp://dbpedia.org/resource/Malcolm_Muggeridge
p313
tp314
aaa(lp315
(lp316
a(lp317
a(lp318
a(lp319
aa.