(lp1
(lp2
(lp3
a(lp4
a(lp5
a(lp6
aa(lp7
(lp8
a(lp9
a(lp10
a(lp11
aa(lp12
(lp13
a(lp14
a(lp15
a(lp16
((lp17
Vhttp://dbpedia.org/class/yago/Abstraction100002137
p18
aVhttp://dbpedia.org/class/yago/Group100031264
p19
aVhttp://dbpedia.org/class/yago/Kin107969695
p20
aVhttp://dbpedia.org/class/yago/SocialGroup107950920
p21
aVhttp://dbpedia.org/class/yago/Tribe108372411
p22
aVhttp://dbpedia.org/class/yago/PunjabiTribes
p23
aVhttp://dbpedia.org/class/yago/RajputClansOfPunjab
p24
aVhttp://dbpedia.org/class/yago/SocialGroupsOfIndia
p25
aVhttp://www.w3.org/2002/07/owl#Thing
p26
aVhttp://dbpedia.org/ontology/Name
p27
aVhttp://www.wikidata.org/entity/Q82799
p28
aVhttp://dbpedia.org/ontology/Surname
p29
aVhttp://www.w3.org/2003/01/geo/wgs84_pos#SpatialThing
p30
aVhttp://dbpedia.org/class/yago/KhatriClans
p31
aVhttp://dbpedia.org/resource/Dumra
tp32
aaa(lp33
(lp34
a(lp35
a(lp36
a(lp37
((lp38
Vhttp://dbpedia.org/class/yago/AdministrativeDistrict108491826
p39
aVhttp://dbpedia.org/class/yago/District108552138
p40
aVhttp://dbpedia.org/class/yago/Location100027167
p41
aVhttp://dbpedia.org/class/yago/Object100002684
p42
aVhttp://dbpedia.org/class/yago/Region108630985
p43
aVhttp://dbpedia.org/class/yago/Site108651247
p44
aVhttp://dbpedia.org/class/yago/Tract108673395
p45
aVhttp://dbpedia.org/class/yago/UrbanArea108675967
p46
aVhttp://dbpedia.org/class/yago/YagoGeoEntity
p47
aVhttp://dbpedia.org/class/yago/YagoLegalActorGeo
p48
aVhttp://dbpedia.org/class/yago/PopulatedPlacesInGuatemala
p49
aVhttp://www.w3.org/2002/07/owl#Thing
p50
aVhttp://dbpedia.org/ontology/Name
p51
aVhttp://www.wikidata.org/entity/Q82799
p52
aVhttp://dbpedia.org/ontology/Surname
p53
aVhttp://dbpedia.org/class/yago/YagoPermanentlyLocatedEntity
p54
aVhttp://dbpedia.org/class/yago/MunicipalitiesOfTheJutiapaDepartment
p55
aVhttp://dbpedia.org/class/yago/GeographicalArea108574314
p56
aVhttp://dbpedia.org/class/yago/Municipality108626283
p57
aVhttp://dbpedia.org/class/yago/PhysicalEntity100001930
p58
aVhttp://dbpedia.org/resource/Quezada
tp59
aaa(lp60
(lp61
a(lp62
a(lp63
a(lp64
aa(lp65
(lp66
a(lp67
a(lp68
a(lp69
((lp70
Vhttp://dbpedia.org/class/yago/Actor109765278
p71
aVhttp://dbpedia.org/class/yago/ActorsFromLouisiana
p72
aVhttp://dbpedia.org/class/yago/AmericanDramatistsAndPlaywrights
p73
aVhttp://dbpedia.org/class/yago/AmericanFilmActors
p74
aVhttp://dbpedia.org/class/yago/AmericanSilentFilmActors
p75
aVhttp://dbpedia.org/class/yago/AmericanStageActors
p76
aVhttp://dbpedia.org/class/yago/CausalAgent100007347
p77
aVhttp://dbpedia.org/class/yago/Communicator109610660
p78
aVhttp://dbpedia.org/class/yago/Dramatist110030277
p79
aVhttp://dbpedia.org/class/yago/Entertainer109616922
p80
aVhttp://dbpedia.org/class/yago/LivingThing100004258
p81
aVhttp://dbpedia.org/class/yago/Object100002684
p82
aVhttp://dbpedia.org/class/yago/Organism100004475
p83
aVhttp://dbpedia.org/class/yago/Performer110415638
p84
aVhttp://dbpedia.org/class/yago/Person100007846
p85
aVhttp://dbpedia.org/class/yago/Whole100003553
p86
aVhttp://dbpedia.org/class/yago/Writer110794014
p87
aVhttp://dbpedia.org/class/yago/YagoLegalActorGeo
p88
aVhttp://www.w3.org/2002/07/owl#Thing
p89
aVhttp://xmlns.com/foaf/0.1/Person
p90
aVhttp://dbpedia.org/ontology/Person
p91
aVhttp://www.ontologydesignpatterns.org/ont/dul/DUL.owl#Agent
p92
aVhttp://www.ontologydesignpatterns.org/ont/dul/DUL.owl#NaturalPerson
p93
aVhttp://www.wikidata.org/entity/Q215627
p94
aVhttp://www.wikidata.org/entity/Q5
p95
aVhttp://dbpedia.org/ontology/Agent
p96
aVhttp://schema.org/Person
p97
aVhttp://dbpedia.org/class/yago/PeopleFromNewOrleans,Louisiana
p98
aVhttp://dbpedia.org/class/yago/YagoLegalActor
p99
aVhttp://dbpedia.org/class/yago/PhysicalEntity100001930
p100
aVhttp://dbpedia.org/resource/Minnie_Maddern_Fiske
tp101
aaa(lp102
(lp103
a(lp104
a(lp105
a(lp106
((lp107
Vhttp://dbpedia.org/class/yago/20th-centuryPhilosophers
p108
aVhttp://dbpedia.org/class/yago/Absentee109757653
p109
aVhttp://dbpedia.org/class/yago/Academician109759069
p110
aVhttp://dbpedia.org/class/yago/AcademicsOfTheLondonSchoolOfEconomics
p111
aVhttp://dbpedia.org/class/yago/Adult109605289
p112
aVhttp://dbpedia.org/class/yago/Anthropologist109796323
p113
aVhttp://dbpedia.org/class/yago/AnthropologistsOfReligion
p114
aVhttp://dbpedia.org/class/yago/Associate109816771
p115
aVhttp://dbpedia.org/class/yago/BritishPeopleOfCzechDescent
p116
aVhttp://dbpedia.org/class/yago/CausalAgent100007347
p117
aVhttp://dbpedia.org/class/yago/Colleague109935990
p118
aVhttp://dbpedia.org/class/yago/Educator110045713
p119
aVhttp://dbpedia.org/class/yago/Exile110071332
p120
aVhttp://dbpedia.org/class/yago/Intellectual109621545
p121
aVhttp://dbpedia.org/class/yago/LivingThing100004258
p122
aVhttp://dbpedia.org/class/yago/Object100002684
p123
aVhttp://dbpedia.org/class/yago/Organism100004475
p124
aVhttp://dbpedia.org/class/yago/Peer109626238
p125
aVhttp://dbpedia.org/class/yago/Person100007846
p126
aVhttp://dbpedia.org/class/yago/Philosopher110423589
p127
aVhttp://dbpedia.org/class/yago/Professional110480253
p128
aVhttp://dbpedia.org/class/yago/Refugee110516016
p129
aVhttp://dbpedia.org/class/yago/Scholar110557854
p130
aVhttp://dbpedia.org/class/yago/Scientist110560637
p131
aVhttp://dbpedia.org/class/yago/SocialAnthropologist110618465
p132
aVhttp://dbpedia.org/class/yago/SocialScientist110619642
p133
aVhttp://dbpedia.org/class/yago/Traveler109629752
p134
aVhttp://dbpedia.org/class/yago/Whole100003553
p135
aVhttp://dbpedia.org/class/yago/YagoLegalActorGeo
p136
aVhttp://dbpedia.org/class/yago/ScholarsOfNationalism
p137
aVhttp://dbpedia.org/class/yago/SocialAnthropologists
p138
aVhttp://www.w3.org/2002/07/owl#Thing
p139
aVhttp://xmlns.com/foaf/0.1/Person
p140
aVhttp://dbpedia.org/ontology/Person
p141
aVhttp://www.ontologydesignpatterns.org/ont/dul/DUL.owl#Agent
p142
aVhttp://www.ontologydesignpatterns.org/ont/dul/DUL.owl#NaturalPerson
p143
aVhttp://www.wikidata.org/entity/Q215627
p144
aVhttp://www.wikidata.org/entity/Q4964182
p145
aVhttp://www.wikidata.org/entity/Q5
p146
aVhttp://dbpedia.org/ontology/Agent
p147
aVhttp://dbpedia.org/ontology/Philosopher
p148
aVhttp://schema.org/Person
p149
aVhttp://umbel.org/umbel/rc/Philosopher
p150
aVhttp://dbpedia.org/class/yago/CzechExpatriatesInFrance
p151
aVhttp://dbpedia.org/class/yago/CzechPhilosophers
p152
aVhttp://dbpedia.org/class/yago/CzechRefugees
p153
aVhttp://dbpedia.org/class/yago/CzechoslovakRefugees
p154
aVhttp://dbpedia.org/class/yago/FellowsOfTheBritishAcademy
p155
aVhttp://dbpedia.org/class/yago/PeopleEducatedAtStAlbansSchool,Hertfordshire
p156
aVhttp://dbpedia.org/class/yago/PeopleFromParis
p157
aVhttp://dbpedia.org/class/yago/PeopleFromPrague
p158
aVhttp://dbpedia.org/class/yago/YagoLegalActor
p159
aVhttp://dbpedia.org/class/yago/JewishPhilosophers
p160
aVhttp://dbpedia.org/class/yago/JewishRefugees
p161
aVhttp://dbpedia.org/class/yago/JewishScientists
p162
aVhttp://dbpedia.org/class/yago/PhysicalEntity100001930
p163
aVhttp://dbpedia.org/resource/Ernest_Gellner
tp164
aaa(lp165
(lp166
a(lp167
a(lp168
a(lp169
((lp170
Vhttp://dbpedia.org/class/yago/Athlete109820263
p171
aVhttp://dbpedia.org/class/yago/Back109830194
p172
aVhttp://dbpedia.org/class/yago/CausalAgent100007347
p173
aVhttp://dbpedia.org/class/yago/Contestant109613191
p174
aVhttp://dbpedia.org/class/yago/FootballPlayer110101634
p175
aVhttp://dbpedia.org/class/yago/LivingThing100004258
p176
aVhttp://dbpedia.org/class/yago/Object100002684
p177
aVhttp://dbpedia.org/class/yago/Organism100004475
p178
aVhttp://dbpedia.org/class/yago/Person100007846
p179
aVhttp://dbpedia.org/class/yago/Player110439851
p180
aVhttp://dbpedia.org/class/yago/Whole100003553
p181
aVhttp://dbpedia.org/class/yago/YagoLegalActorGeo
p182
aVhttp://dbpedia.org/class/yago/RugbyUnionFlankers
p183
aVhttp://www.w3.org/2002/07/owl#Thing
p184
aVhttp://xmlns.com/foaf/0.1/Person
p185
aVhttp://dbpedia.org/ontology/Person
p186
aVhttp://www.ontologydesignpatterns.org/ont/dul/DUL.owl#Agent
p187
aVhttp://www.ontologydesignpatterns.org/ont/dul/DUL.owl#NaturalPerson
p188
aVhttp://www.wikidata.org/entity/Q13415036
p189
aVhttp://www.wikidata.org/entity/Q215627
p190
aVhttp://www.wikidata.org/entity/Q5
p191
aVhttp://dbpedia.org/ontology/Agent
p192
aVhttp://dbpedia.org/ontology/Athlete
p193
aVhttp://dbpedia.org/ontology/RugbyPlayer
p194
aVhttp://schema.org/Person
p195
aVhttp://dbpedia.org/class/yago/EnglandInternationalRugbyUnionPlayers
p196
aVhttp://dbpedia.org/class/yago/EnglishRugbyUnionPlayers
p197
aVhttp://dbpedia.org/class/yago/FlankerBack110095265
p198
aVhttp://dbpedia.org/class/yago/PeopleFromGloucester
p199
aVhttp://dbpedia.org/class/yago/YagoLegalActor
p200
aVhttp://dbpedia.org/class/yago/GloucesterRugbyPlayers
p201
aVhttp://dbpedia.org/class/yago/LivingPeople
p202
aVhttp://dbpedia.org/class/yago/PhysicalEntity100001930
p203
aVhttp://dbpedia.org/resource/Andy_Hazell
tp204
aaa(lp205
(lp206
a(lp207
a(lp208
a(lp209
aa(lp210
(lp211
a(lp212
a(lp213
a(lp214
((lVhttp://dbpedia.org/resource/Kim_(Korean_surname)
tp215
aaa(lp216
(lp217
a(lp218
a(lp219
a(lp220
((lp221
Vhttp://www.w3.org/2002/07/owl#Thing
p222
aVhttp://dbpedia.org/resource/Yoon_(Korean_surname)
tp223
aaa(lp224
(lp225
a(lp226
a(lp227
a(lp228
((lVhttp://dbpedia.org/resource/Kwon
tp229
aaa(lp230
(lp231
a(lp232
a(lp233
a(lp234
((lp235
Vhttp://www.w3.org/2002/07/owl#Thing
p236
aVhttp://dbpedia.org/ontology/Name
p237
aVhttp://www.wikidata.org/entity/Q82799
p238
aVhttp://dbpedia.org/ontology/Surname
p239
aVhttp://dbpedia.org/resource/Liao_(surname)
tp240
aaa(lp241
(lp242
a(lp243
a(lp244
a(lp245
((lp246
Vhttp://www.w3.org/2002/07/owl#Thing
p247
aVhttp://dbpedia.org/ontology/Name
p248
aVhttp://www.wikidata.org/entity/Q82799
p249
aVhttp://dbpedia.org/ontology/Surname
p250
aVhttp://dbpedia.org/resource/Ludwig_(surname)
tp251
aaa(lp252
(lp253
a(lp254
a(lp255
a(lp256
((lp257
Vhttp://dbpedia.org/class/yago/Ability105616246
p258
aVhttp://dbpedia.org/class/yago/Abstraction100002137
p259
aVhttp://dbpedia.org/class/yago/Cognition100023271
p260
aVhttp://dbpedia.org/class/yago/FictionalCharacter109587565
p261
aVhttp://dbpedia.org/class/yago/FictionalCharactersIntroducedIn1997
p262
aVhttp://dbpedia.org/class/yago/PsychologicalFeature100023100
p263
aVhttp://dbpedia.org/class/yago/Creativity105624700
p264
aVhttp://dbpedia.org/class/yago/HarryPotterCharacters
p265
aVhttp://dbpedia.org/class/yago/ImaginaryBeing109483738
p266
aVhttp://dbpedia.org/class/yago/Imagination105625465
p267
aVhttp://dbpedia.org/resource/Hogwarts_staff
tp268
aaa(lp269
(lp270
a(lp271
a(lp272
a(lp273
((lp274
Vhttp://dbpedia.org/class/yago/Absentee109757653
p275
aVhttp://dbpedia.org/class/yago/AlumniOfSelwynCollege,Cambridge
p276
aVhttp://dbpedia.org/class/yago/Alumnus109786338
p277
aVhttp://dbpedia.org/class/yago/Autobiographer109825296
p278
aVhttp://dbpedia.org/class/yago/Biographer109855433
p279
aVhttp://dbpedia.org/class/yago/BritishArmyGeneralListOfficers
p280
aVhttp://dbpedia.org/class/yago/BritishExpatriatesInTheSovietUnion
p281
aVhttp://dbpedia.org/class/yago/BritishJournalists
p282
aVhttp://dbpedia.org/class/yago/BritishMagazineEditors
p283
aVhttp://dbpedia.org/class/yago/BritishSatirists
p284
aVhttp://dbpedia.org/class/yago/BritishWriters
p285
aVhttp://dbpedia.org/class/yago/CausalAgent100007347
p286
aVhttp://dbpedia.org/class/yago/Clergyman109927451
p287
aVhttp://dbpedia.org/class/yago/Communicator109610660
p288
aVhttp://dbpedia.org/class/yago/Convert109962414
p289
aVhttp://dbpedia.org/class/yago/Eater110042300
p290
aVhttp://dbpedia.org/class/yago/Editor110044879
p291
aVhttp://dbpedia.org/class/yago/Entertainer109616922
p292
aVhttp://dbpedia.org/class/yago/Exile110071332
p293
aVhttp://dbpedia.org/class/yago/Humorist110191943
p294
aVhttp://dbpedia.org/class/yago/Intellectual109621545
p295
aVhttp://dbpedia.org/class/yago/Journalist110224578
p296
aVhttp://dbpedia.org/class/yago/Leader109623038
p297
aVhttp://dbpedia.org/class/yago/LivingThing100004258
p298
aVhttp://dbpedia.org/class/yago/MilitaryOfficer110317007
p299
aVhttp://dbpedia.org/class/yago/Object100002684
p300
aVhttp://dbpedia.org/class/yago/Organism100004475
p301
aVhttp://dbpedia.org/class/yago/Person100007846
p302
aVhttp://dbpedia.org/class/yago/Satirist110552742
p303
aVhttp://dbpedia.org/class/yago/Scholar110557854
p304
aVhttp://dbpedia.org/class/yago/Serviceman110582746
p305
aVhttp://dbpedia.org/class/yago/SkilledWorker110605985
p306
aVhttp://dbpedia.org/class/yago/Soldier110622053
p307
aVhttp://dbpedia.org/class/yago/SpiritualLeader109505153
p308
aVhttp://dbpedia.org/class/yago/Traveler109629752
p309
aVhttp://dbpedia.org/class/yago/User110741590
p310
aVhttp://dbpedia.org/class/yago/Vegetarian110747119
p311
aVhttp://dbpedia.org/class/yago/Whole100003553
p312
aVhttp://dbpedia.org/class/yago/Worker109632518
p313
aVhttp://dbpedia.org/class/yago/Writer110794014
p314
aVhttp://dbpedia.org/class/yago/YagoLegalActorGeo
p315
aVhttp://dbpedia.org/class/yago/RectorsOfTheUniversityOfEdinburgh
p316
aVhttp://dbpedia.org/class/yago/RomanCatholicWriters
p317
aVhttp://dbpedia.org/class/yago/RoyalMilitaryPoliceSoldiers
p318
aVhttp://www.w3.org/2002/07/owl#Thing
p319
aVhttp://xmlns.com/foaf/0.1/Person
p320
aVhttp://dbpedia.org/ontology/Person
p321
aVhttp://www.ontologydesignpatterns.org/ont/dul/DUL.owl#Agent
p322
aVhttp://www.ontologydesignpatterns.org/ont/dul/DUL.owl#NaturalPerson
p323
aVhttp://www.wikidata.org/entity/Q215627
p324
aVhttp://www.wikidata.org/entity/Q5
p325
aVhttp://dbpedia.org/ontology/Agent
p326
aVhttp://schema.org/Person
p327
aVhttp://umbel.org/umbel/rc/Writer
p328
aVhttp://dbpedia.org/class/yago/ConvertsToRomanCatholicismFromAtheismOrAgnosticism
p329
aVhttp://dbpedia.org/class/yago/EnglishAutobiographers
p330
aVhttp://dbpedia.org/class/yago/EnglishVegetarians
p331
aVhttp://dbpedia.org/class/yago/PeopleFromCroydon
p332
aVhttp://dbpedia.org/class/yago/YagoLegalActor
p333
aVhttp://dbpedia.org/class/yago/Consumer109612848
p334
aVhttp://dbpedia.org/class/yago/Curate109983572
p335
aVhttp://dbpedia.org/class/yago/EnlistedPerson110058777
p336
aVhttp://dbpedia.org/class/yago/IntelligenceCorpsOfficers
p337
aVhttp://dbpedia.org/class/yago/PhysicalEntity100001930
p338
aVhttp://dbpedia.org/class/yago/TheGuardianJournalists
p339
aVhttp://dbpedia.org/class/yago/WesternWritersAboutSovietRussia
p340
aVhttp://dbpedia.org/resource/Malcolm_Muggeridge
p341
tp342
aaa(lp343
(lp344
a(lp345
a(lp346
a(lp347
aa.