ccollections
defaultdict
p1
(c__builtin__
dict
p2
tRp3
I1
(dp4
I0
(lp5
sI1
(lp6
sI3
(lp7
sI4
(lp8
sI5
(lp9
ssI6
(dp10
I0
(lp11
sI1
(lp12
sI3
(lp13
sI4
(lp14
sI5
(lp15
ssI7
(dp16
I0
(lp17
sI1
(lp18
sI3
(lp19
sI4
(lp20
sI5
(lp21
ssI8
(dp22
I0
(lp23
sI1
(lp24
sI3
(lp25
sI4
(lp26
sI5
(lp27
ssI9
(dp28
I0
(lp29
sI1
(lp30
sI3
(lp31
sI4
(lp32
sI5
(lp33
Vhttp://www.w3.org/ns/prov#wasDerivedFrom
p34
assI10
(dp35
I0
(lp36
sI1
(lp37
sI3
(lp38
sI4
(lp39
sI5
(lp40
ssI11
(dp41
I0
(lp42
sI1
(lp43
sI3
(lp44
sI4
(lp45
sI5
(lp46
ssI12
(dp47
I0
(lp48
sI1
(lp49
sI3
(lp50
sI4
(lp51
sI5
(lp52
ssI13
(dp53
I0
(lp54
sI1
(lp55
sI3
(lp56
sI4
(lp57
sI5
(lp58
ssI14
(dp59
I0
(lp60
sI1
(lp61
sI3
(lp62
sI4
(lp63
sI5
(lp64
Vhttp://www.w3.org/ns/prov#wasDerivedFrom
p65
assI15
(dp66
I0
(lp67
sI1
(lp68
sI3
(lp69
sI4
(lp70
sI5
(lp71
ssI16
(dp72
I0
(lp73
sI1
(lp74
sI3
(lp75
sI4
(lp76
sI5
(lp77
Vhttp://www.w3.org/ns/prov#wasDerivedFrom
p78
ass.