(lp1
(lp2
(lp3
a(lp4
a(lp5
((lp6
Vhttp://www.w3.org/2002/07/owl#Thing
p7
aVhttp://dbpedia.org/ontology/Genre
p8
aVhttp://www.ontologydesignpatterns.org/ont/dul/DUL.owl#Concept
p9
aVhttp://www.wikidata.org/entity/Q188451
p10
aVhttp://dbpedia.org/ontology/MusicGenre
p11
aVhttp://dbpedia.org/ontology/TopicalConcept
p12
aVhttp://umbel.org/umbel/rc/MusicalComposition
p13
aVhttp://dbpedia.org/resource/Flamenco
tp14
aa(lp15
((lp16
Vhttp://dbpedia.org/class/yago/Artifact100021939
p17
aVhttp://dbpedia.org/class/yago/Object100002684
p18
aVhttp://dbpedia.org/class/yago/System104377057
p19
aVhttp://dbpedia.org/class/yago/Whole100003553
p20
aVhttp://www.w3.org/2002/07/owl#Thing
p21
aVhttp://dbpedia.org/ontology/Genre
p22
aVhttp://www.ontologydesignpatterns.org/ont/dul/DUL.owl#Concept
p23
aVhttp://www.wikidata.org/entity/Q188451
p24
aVhttp://dbpedia.org/ontology/TopicalConcept
p25
aVhttp://dbpedia.org/class/yago/DataSystem103164344
p26
aVhttp://dbpedia.org/class/yago/InformationSystems
p27
aVhttp://dbpedia.org/class/yago/Instrumentality103575240
p28
aVhttp://dbpedia.org/class/yago/PhysicalEntity100001930
p29
aVhttp://dbpedia.org/resource/Complex_event_processing
tp30
aa(lp31
((lp32
Vhttp://www.w3.org/2002/07/owl#Thing
p33
aVhttp://dbpedia.org/ontology/Genre
p34
aVhttp://www.ontologydesignpatterns.org/ont/dul/DUL.owl#Concept
p35
aVhttp://www.wikidata.org/entity/Q188451
p36
aVhttp://dbpedia.org/ontology/TopicalConcept
p37
aVhttp://dbpedia.org/resource/Computer-assisted_translation
tp38
aa(lp39
((lp40
Vhttp://dbpedia.org/class/yago/Ability105616246
p41
aVhttp://dbpedia.org/class/yago/Abstraction100002137
p42
aVhttp://dbpedia.org/class/yago/Cognition100023271
p43
aVhttp://dbpedia.org/class/yago/Know-how105616786
p44
aVhttp://dbpedia.org/class/yago/Method105660268
p45
aVhttp://www.w3.org/2002/07/owl#Thing
p46
aVhttp://dbpedia.org/ontology/Genre
p47
aVhttp://www.ontologydesignpatterns.org/ont/dul/DUL.owl#Concept
p48
aVhttp://www.wikidata.org/entity/Q188451
p49
aVhttp://dbpedia.org/ontology/TopicalConcept
p50
aVhttp://dbpedia.org/class/yago/EvaluationMethods
p51
aVhttp://dbpedia.org/class/yago/PsychologicalFeature100023100
p52
aVhttp://dbpedia.org/class/yago/MethodsInSociology
p53
aVhttp://dbpedia.org/resource/Content_analysis
tp54
aa(lp55
((lp56
Vhttp://www.w3.org/2002/07/owl#Thing
p57
aVhttp://dbpedia.org/ontology/Genre
p58
aVhttp://www.ontologydesignpatterns.org/ont/dul/DUL.owl#Concept
p59
aVhttp://www.wikidata.org/entity/Q188451
p60
aVhttp://dbpedia.org/ontology/TopicalConcept
p61
aVhttp://dbpedia.org/resource/Court_(royal)
tp62
aa(lp63
((lp64
Vhttp://dbpedia.org/class/yago/Abstraction100002137
p65
aVhttp://dbpedia.org/class/yago/Cognition100023271
p66
aVhttp://dbpedia.org/class/yago/Communication100033020
p67
aVhttp://dbpedia.org/class/yago/Concept105835747
p68
aVhttp://dbpedia.org/class/yago/Content105809192
p69
aVhttp://dbpedia.org/class/yago/ExpressiveStyle107066659
p70
aVhttp://dbpedia.org/class/yago/Genre105845332
p71
aVhttp://dbpedia.org/class/yago/Idea105833840
p72
aVhttp://dbpedia.org/class/yago/Kind105839024
p73
aVhttp://www.w3.org/2002/07/owl#Thing
p74
aVhttp://dbpedia.org/ontology/Genre
p75
aVhttp://www.ontologydesignpatterns.org/ont/dul/DUL.owl#Concept
p76
aVhttp://www.wikidata.org/entity/Q188451
p77
aVhttp://dbpedia.org/ontology/TopicalConcept
p78
aVhttp://dbpedia.org/class/yago/PsychologicalFeature100023100
p79
aVhttp://dbpedia.org/class/yago/Category105838765
p80
aVhttp://dbpedia.org/class/yago/Genres
p81
aVhttp://dbpedia.org/class/yago/JournalismGenres
p82
aVhttp://dbpedia.org/class/yago/LiteraryGenres
p83
aVhttp://dbpedia.org/class/yago/WritingStyle107092158
p84
aVhttp://dbpedia.org/resource/Creative_nonfiction
tp85
aa(lp86
((lp87
Vhttp://dbpedia.org/class/yago/Abstraction100002137
p88
aVhttp://dbpedia.org/class/yago/Cognition100023271
p89
aVhttp://dbpedia.org/class/yago/Concept105835747
p90
aVhttp://dbpedia.org/class/yago/Content105809192
p91
aVhttp://dbpedia.org/class/yago/Genre105845332
p92
aVhttp://dbpedia.org/class/yago/Idea105833840
p93
aVhttp://dbpedia.org/class/yago/Kind105839024
p94
aVhttp://www.w3.org/2002/07/owl#Thing
p95
aVhttp://dbpedia.org/ontology/Genre
p96
aVhttp://www.ontologydesignpatterns.org/ont/dul/DUL.owl#Concept
p97
aVhttp://www.wikidata.org/entity/Q188451
p98
aVhttp://dbpedia.org/ontology/TopicalConcept
p99
aVhttp://dbpedia.org/class/yago/PsychologicalFeature100023100
p100
aVhttp://dbpedia.org/class/yago/Category105838765
p101
aVhttp://dbpedia.org/class/yago/Genres
p102
aVhttp://dbpedia.org/resource/Cross-genre
tp103
aa(lp104
((lp105
Vhttp://www.w3.org/2002/07/owl#Thing
p106
aVhttp://dbpedia.org/ontology/Genre
p107
aVhttp://www.ontologydesignpatterns.org/ont/dul/DUL.owl#Concept
p108
aVhttp://www.wikidata.org/entity/Q188451
p109
aVhttp://dbpedia.org/ontology/TopicalConcept
p110
aVhttp://dbpedia.org/resource/Crossover_(music)
tp111
aa(lp112
((lp113
Vhttp://dbpedia.org/class/yago/Abstraction100002137
p114
aVhttp://dbpedia.org/class/yago/Code106355894
p115
aVhttp://dbpedia.org/class/yago/Communication100033020
p116
aVhttp://dbpedia.org/class/yago/Software106566077
p117
aVhttp://dbpedia.org/class/yago/Writing106359877
p118
aVhttp://www.w3.org/2002/07/owl#Thing
p119
aVhttp://dbpedia.org/ontology/Software
p120
aVhttp://www.wikidata.org/entity/Q386724
p121
aVhttp://www.wikidata.org/entity/Q7397
p122
aVhttp://dbpedia.org/ontology/Work
p123
aVhttp://schema.org/CreativeWork
p124
aVhttp://dbpedia.org/class/yago/CodingSystem106353757
p125
aVhttp://dbpedia.org/class/yago/WrittenCommunication106349220
p126
aVhttp://dbpedia.org/resource/CrossOver_(software)
tp127
aa(lp128
((lp129
Vhttp://dbpedia.org/class/yago/Abstraction100002137
p130
aVhttp://dbpedia.org/class/yago/AuditoryCommunication107109019
p131
aVhttp://dbpedia.org/class/yago/Cognition100023271
p132
aVhttp://dbpedia.org/class/yago/Communication100033020
p133
aVhttp://dbpedia.org/class/yago/Concept105835747
p134
aVhttp://dbpedia.org/class/yago/Content105809192
p135
aVhttp://dbpedia.org/class/yago/ExpressiveStyle107066659
p136
aVhttp://dbpedia.org/class/yago/Genre105845332
p137
aVhttp://dbpedia.org/class/yago/Idea105833840
p138
aVhttp://dbpedia.org/class/yago/Kind105839024
p139
aVhttp://dbpedia.org/class/yago/Music107020895
p140
aVhttp://dbpedia.org/class/yago/MusicGenre107071942
p141
aVhttp://www.w3.org/2002/07/owl#Thing
p142
aVhttp://dbpedia.org/ontology/Genre
p143
aVhttp://www.ontologydesignpatterns.org/ont/dul/DUL.owl#Concept
p144
aVhttp://www.wikidata.org/entity/Q188451
p145
aVhttp://dbpedia.org/ontology/MusicGenre
p146
aVhttp://dbpedia.org/ontology/TopicalConcept
p147
aVhttp://umbel.org/umbel/rc/MusicalComposition
p148
aVhttp://dbpedia.org/class/yago/PsychologicalFeature100023100
p149
aVhttp://dbpedia.org/class/yago/Category105838765
p150
aVhttp://dbpedia.org/class/yago/HardcorePunkGenres
p151
aVhttp://dbpedia.org/resource/Crossover_thrash
tp152
aa(lp153
((lp154
Vhttp://www.w3.org/2002/07/owl#Thing
p155
aVhttp://dbpedia.org/ontology/Genre
p156
aVhttp://www.ontologydesignpatterns.org/ont/dul/DUL.owl#Concept
p157
aVhttp://www.wikidata.org/entity/Q188451
p158
aVhttp://dbpedia.org/ontology/TopicalConcept
p159
aVhttp://dbpedia.org/resource/Culture
tp160
aa(lp161
((lp162
Vhttp://www.w3.org/2002/07/owl#Thing
p163
aVhttp://dbpedia.org/ontology/Genre
p164
aVhttp://www.ontologydesignpatterns.org/ont/dul/DUL.owl#Concept
p165
aVhttp://www.wikidata.org/entity/Q188451
p166
aVhttp://dbpedia.org/ontology/TopicalConcept
p167
aVhttp://dbpedia.org/resource/Cyberculture
tp168
aa(lp169
((lp170
Vhttp://dbpedia.org/class/yago/Abstraction100002137
p171
aVhttp://dbpedia.org/class/yago/Group100031264
p172
aVhttp://dbpedia.org/class/yago/SocialGroup107950920
p173
aVhttp://www.w3.org/2002/07/owl#Thing
p174
aVhttp://dbpedia.org/ontology/Genre
p175
aVhttp://www.ontologydesignpatterns.org/ont/dul/DUL.owl#Concept
p176
aVhttp://www.wikidata.org/entity/Q188451
p177
aVhttp://dbpedia.org/ontology/TopicalConcept
p178
aVhttp://dbpedia.org/class/yago/MusicalSubcultures
p179
aVhttp://dbpedia.org/class/yago/Subculture108288753
p180
aVhttp://dbpedia.org/resource/Cybergoth
tp181
aa(lp182
a(lp183
((lp184
Vhttp://dbpedia.org/class/yago/Abstraction100002137
p185
aVhttp://dbpedia.org/class/yago/Cognition100023271
p186
aVhttp://dbpedia.org/class/yago/Datum105816622
p187
aVhttp://dbpedia.org/class/yago/Information105816287
p188
aVhttp://www.w3.org/2002/07/owl#Thing
p189
aVhttp://dbpedia.org/ontology/Genre
p190
aVhttp://www.ontologydesignpatterns.org/ont/dul/DUL.owl#Concept
p191
aVhttp://www.wikidata.org/entity/Q188451
p192
aVhttp://dbpedia.org/ontology/TopicalConcept
p193
aVhttp://dbpedia.org/class/yago/ComputerData
p194
aVhttp://dbpedia.org/class/yago/PsychologicalFeature100023100
p195
aVhttp://dbpedia.org/resource/Data_recovery
tp196
aa(lp197
((lp198
Vhttp://dbpedia.org/class/yago/CausalAgent100007347
p199
aVhttp://dbpedia.org/class/yago/Expert109617867
p200
aVhttp://dbpedia.org/class/yago/LivingThing100004258
p201
aVhttp://dbpedia.org/class/yago/Object100002684
p202
aVhttp://dbpedia.org/class/yago/Organism100004475
p203
aVhttp://dbpedia.org/class/yago/Person100007846
p204
aVhttp://dbpedia.org/class/yago/Specialist110631941
p205
aVhttp://dbpedia.org/class/yago/Whole100003553
p206
aVhttp://dbpedia.org/class/yago/YagoLegalActorGeo
p207
aVhttp://www.w3.org/2002/07/owl#Thing
p208
aVhttp://dbpedia.org/ontology/Genre
p209
aVhttp://www.ontologydesignpatterns.org/ont/dul/DUL.owl#Concept
p210
aVhttp://www.wikidata.org/entity/Q188451
p211
aVhttp://dbpedia.org/ontology/TopicalConcept
p212
aVhttp://dbpedia.org/class/yago/DatabaseSpecialists
p213
aVhttp://dbpedia.org/class/yago/YagoLegalActor
p214
aVhttp://dbpedia.org/class/yago/PhysicalEntity100001930
p215
aVhttp://dbpedia.org/resource/Database_administrator
p216
tp217
aa(lp218
aa.