(lp1
(lp2
(lp3
a(lp4
a(lp5
a(lp6
a(lp7
a(lp8
a(lp9
a(lp10
Vhttp://dbpedia.org/resource/Grand_Duchy_of_Moscow
p11
aa(lp12
a(lp13
a(lp14
a(lp15
a(lp16
Vhttp://dbpedia.org/resource/Tour_de_Serbie
p17
aa(lp18
a(lp19
a(lp20
Vhttp://dbpedia.org/resource/Amstel_Gold_Race
p21
aa(lp22
Vhttp://dbpedia.org/resource/Baltic_Chain_Tour
p23
aa(lp24
a(lp25
aa.