(lp1
(lp2
(lp3
((lp4
Vhttp://dbpedia.org/class/yago/LivingThing100004258
p5
aVhttp://dbpedia.org/class/yago/Object100002684
p6
aVhttp://dbpedia.org/class/yago/Organism100004475
p7
aVhttp://dbpedia.org/class/yago/Plant100017222
p8
aVhttp://dbpedia.org/class/yago/Tree113104059
p9
aVhttp://dbpedia.org/class/yago/VascularPlant113083586
p10
aVhttp://dbpedia.org/class/yago/Whole100003553
p11
aVhttp://dbpedia.org/class/yago/WoodyPlant113103136
p12
aVhttp://www.w3.org/2002/07/owl#Thing
p13
aVhttp://www.wikidata.org/entity/Q19088
p14
aVhttp://www.wikidata.org/entity/Q756
p15
aVhttp://dbpedia.org/ontology/Conifer
p16
aVhttp://dbpedia.org/ontology/Eukaryote
p17
aVhttp://dbpedia.org/ontology/Plant
p18
aVhttp://dbpedia.org/ontology/Species
p19
aVhttp://umbel.org/umbel/rc/Conifer
p20
aVhttp://dbpedia.org/class/yago/PhysicalEntity100001930
p21
aVhttp://dbpedia.org/class/yago/TreesOfDurango
p22
aVhttp://dbpedia.org/class/yago/TreesOfNorthwesternMexico
p23
aVhttp://dbpedia.org/class/yago/VulnerablePlants
p24
aVhttp://dbpedia.org/resource/Juniperus_durangensis
tp25
aa(lp26
((lp27
Vhttp://www.w3.org/2002/07/owl#Thing
p28
aVhttp://www.wikidata.org/entity/Q19088
p29
aVhttp://www.wikidata.org/entity/Q756
p30
aVhttp://dbpedia.org/ontology/Conifer
p31
aVhttp://dbpedia.org/ontology/Eukaryote
p32
aVhttp://dbpedia.org/ontology/Plant
p33
aVhttp://dbpedia.org/ontology/Species
p34
aVhttp://umbel.org/umbel/rc/Conifer
p35
aVhttp://dbpedia.org/resource/Podocarpus_dispermus
tp36
aa(lp37
((lp38
Vhttp://dbpedia.org/class/yago/LivingThing100004258
p39
aVhttp://dbpedia.org/class/yago/Object100002684
p40
aVhttp://dbpedia.org/class/yago/Organism100004475
p41
aVhttp://dbpedia.org/class/yago/Plant100017222
p42
aVhttp://dbpedia.org/class/yago/Whole100003553
p43
aVhttp://www.w3.org/2002/07/owl#Thing
p44
aVhttp://www.wikidata.org/entity/Q19088
p45
aVhttp://www.wikidata.org/entity/Q756
p46
aVhttp://dbpedia.org/ontology/Conifer
p47
aVhttp://dbpedia.org/ontology/Eukaryote
p48
aVhttp://dbpedia.org/ontology/Plant
p49
aVhttp://dbpedia.org/ontology/Species
p50
aVhttp://umbel.org/umbel/rc/Conifer
p51
aVhttp://dbpedia.org/class/yago/LeastConcernPlants
p52
aVhttp://dbpedia.org/class/yago/PhysicalEntity100001930
p53
aVhttp://dbpedia.org/resource/Podocarpus_glomeratus
tp54
aa(lp55
((lp56
Vhttp://www.w3.org/2002/07/owl#Thing
p57
aVhttp://www.wikidata.org/entity/Q19088
p58
aVhttp://www.wikidata.org/entity/Q756
p59
aVhttp://dbpedia.org/ontology/Conifer
p60
aVhttp://dbpedia.org/ontology/Eukaryote
p61
aVhttp://dbpedia.org/ontology/Plant
p62
aVhttp://dbpedia.org/ontology/Species
p63
aVhttp://dbpedia.org/resource/Pinus_cembroides
tp64
aa(lp65
((lp66
Vhttp://dbpedia.org/class/yago/LivingThing100004258
p67
aVhttp://dbpedia.org/class/yago/Object100002684
p68
aVhttp://dbpedia.org/class/yago/Organism100004475
p69
aVhttp://dbpedia.org/class/yago/Plant100017222
p70
aVhttp://dbpedia.org/class/yago/Tree113104059
p71
aVhttp://dbpedia.org/class/yago/VascularPlant113083586
p72
aVhttp://dbpedia.org/class/yago/Whole100003553
p73
aVhttp://dbpedia.org/class/yago/WoodyPlant113103136
p74
aVhttp://www.w3.org/2002/07/owl#Thing
p75
aVhttp://www.wikidata.org/entity/Q19088
p76
aVhttp://www.wikidata.org/entity/Q756
p77
aVhttp://dbpedia.org/ontology/Conifer
p78
aVhttp://dbpedia.org/ontology/Eukaryote
p79
aVhttp://dbpedia.org/ontology/Plant
p80
aVhttp://dbpedia.org/ontology/Species
p81
aVhttp://umbel.org/umbel/rc/Conifer
p82
aVhttp://dbpedia.org/class/yago/EndangeredPlants
p83
aVhttp://dbpedia.org/class/yago/PhysicalEntity100001930
p84
aVhttp://dbpedia.org/class/yago/TreesOfNortheasternMexico
p85
aVhttp://dbpedia.org/resource/Pinus_culminicola
tp86
aa(lp87
((lp88
Vhttp://www.w3.org/2002/07/owl#Thing
p89
aVhttp://www.wikidata.org/entity/Q19088
p90
aVhttp://www.wikidata.org/entity/Q756
p91
aVhttp://dbpedia.org/ontology/Conifer
p92
aVhttp://dbpedia.org/ontology/Eukaryote
p93
aVhttp://dbpedia.org/ontology/Plant
p94
aVhttp://dbpedia.org/ontology/Species
p95
aVhttp://dbpedia.org/resource/Pinus_johannis
tp96
aa(lp97
((lp98
Vhttp://www.w3.org/2002/07/owl#Thing
p99
aVhttp://www.wikidata.org/entity/Q19088
p100
aVhttp://www.wikidata.org/entity/Q756
p101
aVhttp://dbpedia.org/ontology/Conifer
p102
aVhttp://dbpedia.org/ontology/Eukaryote
p103
aVhttp://dbpedia.org/ontology/Plant
p104
aVhttp://dbpedia.org/ontology/Species
p105
aVhttp://dbpedia.org/resource/Pinus_kesiya
tp106
aa(lp107
((lp108
Vhttp://dbpedia.org/class/yago/LivingThing100004258
p109
aVhttp://dbpedia.org/class/yago/Object100002684
p110
aVhttp://dbpedia.org/class/yago/Organism100004475
p111
aVhttp://dbpedia.org/class/yago/Plant100017222
p112
aVhttp://dbpedia.org/class/yago/Tree113104059
p113
aVhttp://dbpedia.org/class/yago/VascularPlant113083586
p114
aVhttp://dbpedia.org/class/yago/Whole100003553
p115
aVhttp://dbpedia.org/class/yago/WoodyPlant113103136
p116
aVhttp://www.w3.org/2002/07/owl#Thing
p117
aVhttp://www.wikidata.org/entity/Q19088
p118
aVhttp://www.wikidata.org/entity/Q756
p119
aVhttp://dbpedia.org/ontology/Conifer
p120
aVhttp://dbpedia.org/ontology/Eukaryote
p121
aVhttp://dbpedia.org/ontology/Plant
p122
aVhttp://dbpedia.org/ontology/Species
p123
aVhttp://umbel.org/umbel/rc/Conifer
p124
aVhttp://dbpedia.org/class/yago/LeastConcernPlants
p125
aVhttp://dbpedia.org/class/yago/PhysicalEntity100001930
p126
aVhttp://dbpedia.org/class/yago/TreesOfChihuahua
p127
aVhttp://dbpedia.org/class/yago/TreesOfCoahuila
p128
aVhttp://dbpedia.org/class/yago/TreesOfNortheasternMexico
p129
aVhttp://dbpedia.org/class/yago/TreesOfNuevoLe%C3%B3n
p130
aVhttp://dbpedia.org/class/yago/TreesOfWesternTexas
p131
aVhttp://dbpedia.org/resource/Pinus_remota
tp132
aa(lp133
((lp134
Vhttp://www.w3.org/2002/07/owl#Thing
p135
aVhttp://www.wikidata.org/entity/Q19088
p136
aVhttp://www.wikidata.org/entity/Q756
p137
aVhttp://dbpedia.org/ontology/Conifer
p138
aVhttp://dbpedia.org/ontology/Eukaryote
p139
aVhttp://dbpedia.org/ontology/Plant
p140
aVhttp://dbpedia.org/ontology/Species
p141
aVhttp://dbpedia.org/resource/Pinus_roxburghii
tp142
aa(lp143
((lp144
Vhttp://dbpedia.org/class/yago/LivingThing100004258
p145
aVhttp://dbpedia.org/class/yago/Object100002684
p146
aVhttp://dbpedia.org/class/yago/Organism100004475
p147
aVhttp://dbpedia.org/class/yago/Plant100017222
p148
aVhttp://dbpedia.org/class/yago/Tree113104059
p149
aVhttp://dbpedia.org/class/yago/VascularPlant113083586
p150
aVhttp://dbpedia.org/class/yago/Whole100003553
p151
aVhttp://dbpedia.org/class/yago/WoodyPlant113103136
p152
aVhttp://www.w3.org/2002/07/owl#Thing
p153
aVhttp://www.wikidata.org/entity/Q19088
p154
aVhttp://www.wikidata.org/entity/Q756
p155
aVhttp://dbpedia.org/ontology/Conifer
p156
aVhttp://dbpedia.org/ontology/Eukaryote
p157
aVhttp://dbpedia.org/ontology/Plant
p158
aVhttp://dbpedia.org/ontology/Species
p159
aVhttp://umbel.org/umbel/rc/BiologicalLivingObject
p160
aVhttp://umbel.org/umbel/rc/Conifer
p161
aVhttp://umbel.org/umbel/rc/EukaryoticCell
p162
aVhttp://umbel.org/umbel/rc/Plant
p163
aVhttp://dbpedia.org/class/yago/LeastConcernPlants
p164
aVhttp://dbpedia.org/class/yago/PhysicalEntity100001930
p165
aVhttp://dbpedia.org/class/yago/TreesOfMildMaritimeClimate
p166
aVhttp://dbpedia.org/class/yago/TreesOfNewZealand
p167
aVhttp://dbpedia.org/resource/Dacrycarpus_dacrydioides
tp168
aa(lp169
((lp170
Vhttp://dbpedia.org/class/yago/EdibleNut107737081
p171
aVhttp://dbpedia.org/class/yago/Fruit113134947
p172
aVhttp://dbpedia.org/class/yago/LivingThing100004258
p173
aVhttp://dbpedia.org/class/yago/NaturalObject100019128
p174
aVhttp://dbpedia.org/class/yago/Object100002684
p175
aVhttp://dbpedia.org/class/yago/Organism100004475
p176
aVhttp://dbpedia.org/class/yago/Plant100017222
p177
aVhttp://dbpedia.org/class/yago/PlantOrgan113087625
p178
aVhttp://dbpedia.org/class/yago/PlantPart113086908
p179
aVhttp://dbpedia.org/class/yago/ReproductiveStructure111675842
p180
aVhttp://dbpedia.org/class/yago/Seed113135832
p181
aVhttp://dbpedia.org/class/yago/Tree113104059
p182
aVhttp://dbpedia.org/class/yago/VascularPlant113083586
p183
aVhttp://dbpedia.org/class/yago/Whole100003553
p184
aVhttp://dbpedia.org/class/yago/WoodyPlant113103136
p185
aVhttp://www.w3.org/2002/07/owl#Thing
p186
aVhttp://www.wikidata.org/entity/Q19088
p187
aVhttp://www.wikidata.org/entity/Q756
p188
aVhttp://dbpedia.org/ontology/Conifer
p189
aVhttp://dbpedia.org/ontology/Eukaryote
p190
aVhttp://dbpedia.org/ontology/Plant
p191
aVhttp://dbpedia.org/ontology/Species
p192
aVhttp://umbel.org/umbel/rc/Conifer
p193
aVhttp://umbel.org/umbel/rc/Plant
p194
aVhttp://dbpedia.org/class/yago/Drought-tolerantTrees
p195
aVhttp://dbpedia.org/class/yago/EdibleNutsAndSeeds
p196
aVhttp://dbpedia.org/class/yago/NearThreatenedPlants
p197
aVhttp://dbpedia.org/class/yago/Nut113136556
p198
aVhttp://dbpedia.org/class/yago/PhysicalEntity100001930
p199
aVhttp://dbpedia.org/class/yago/TreesOfAfghanistan
p200
aVhttp://dbpedia.org/class/yago/TreesOfTemperateClimates
p201
aVhttp://dbpedia.org/resource/Pinus_gerardiana
tp202
aa(lp203
((lp204
Vhttp://dbpedia.org/class/yago/LivingThing100004258
p205
aVhttp://dbpedia.org/class/yago/Object100002684
p206
aVhttp://dbpedia.org/class/yago/Organism100004475
p207
aVhttp://dbpedia.org/class/yago/Plant100017222
p208
aVhttp://dbpedia.org/class/yago/Tree113104059
p209
aVhttp://dbpedia.org/class/yago/VascularPlant113083586
p210
aVhttp://dbpedia.org/class/yago/Whole100003553
p211
aVhttp://dbpedia.org/class/yago/WoodyPlant113103136
p212
aVhttp://www.w3.org/2002/07/owl#Thing
p213
aVhttp://www.wikidata.org/entity/Q19088
p214
aVhttp://www.wikidata.org/entity/Q756
p215
aVhttp://dbpedia.org/ontology/Conifer
p216
aVhttp://dbpedia.org/ontology/Eukaryote
p217
aVhttp://dbpedia.org/ontology/Plant
p218
aVhttp://dbpedia.org/ontology/Species
p219
aVhttp://umbel.org/umbel/rc/BiologicalLivingObject
p220
aVhttp://umbel.org/umbel/rc/Conifer
p221
aVhttp://umbel.org/umbel/rc/EukaryoticCell
p222
aVhttp://umbel.org/umbel/rc/Plant
p223
aVhttp://dbpedia.org/class/yago/LeastConcernPlants
p224
aVhttp://dbpedia.org/class/yago/PhysicalEntity100001930
p225
aVhttp://dbpedia.org/class/yago/TreesOfMildMaritimeClimate
p226
aVhttp://dbpedia.org/class/yago/TreesOfNewZealand
p227
aVhttp://dbpedia.org/resource/Prumnopitys_ferruginea
tp228
aa(lp229
((lp230
Vhttp://dbpedia.org/class/yago/LivingThing100004258
p231
aVhttp://dbpedia.org/class/yago/Object100002684
p232
aVhttp://dbpedia.org/class/yago/Organism100004475
p233
aVhttp://dbpedia.org/class/yago/Plant100017222
p234
aVhttp://dbpedia.org/class/yago/Whole100003553
p235
aVhttp://www.w3.org/2002/07/owl#Thing
p236
aVhttp://www.wikidata.org/entity/Q19088
p237
aVhttp://www.wikidata.org/entity/Q756
p238
aVhttp://dbpedia.org/ontology/Conifer
p239
aVhttp://dbpedia.org/ontology/Eukaryote
p240
aVhttp://dbpedia.org/ontology/Plant
p241
aVhttp://dbpedia.org/ontology/Species
p242
aVhttp://umbel.org/umbel/rc/Conifer
p243
aVhttp://dbpedia.org/class/yago/PlantsDescribedIn1942
p244
aVhttp://dbpedia.org/class/yago/LeastConcernPlants
p245
aVhttp://dbpedia.org/class/yago/PhysicalEntity100001930
p246
aVhttp://dbpedia.org/resource/Abies_durangensis
tp247
aa(lp248
a(lp249
((lp250
Vhttp://www.w3.org/2002/07/owl#Thing
p251
aVhttp://www.wikidata.org/entity/Q19088
p252
aVhttp://www.wikidata.org/entity/Q756
p253
aVhttp://dbpedia.org/ontology/Conifer
p254
aVhttp://dbpedia.org/ontology/Eukaryote
p255
aVhttp://dbpedia.org/ontology/Plant
p256
aVhttp://dbpedia.org/ontology/Species
p257
aVhttp://dbpedia.org/resource/Calocedrus_rupestris
tp258
aa(lp259
((lp260
Vhttp://dbpedia.org/class/yago/LivingThing100004258
p261
aVhttp://dbpedia.org/class/yago/Object100002684
p262
aVhttp://dbpedia.org/class/yago/Organism100004475
p263
aVhttp://dbpedia.org/class/yago/Plant100017222
p264
aVhttp://dbpedia.org/class/yago/Whole100003553
p265
aVhttp://www.w3.org/2002/07/owl#Thing
p266
aVhttp://www.wikidata.org/entity/Q19088
p267
aVhttp://www.wikidata.org/entity/Q756
p268
aVhttp://dbpedia.org/ontology/Conifer
p269
aVhttp://dbpedia.org/ontology/Eukaryote
p270
aVhttp://dbpedia.org/ontology/Plant
p271
aVhttp://dbpedia.org/ontology/Species
p272
aVhttp://umbel.org/umbel/rc/Conifer
p273
aVhttp://dbpedia.org/class/yago/EndangeredPlants
p274
aVhttp://dbpedia.org/class/yago/PhysicalEntity100001930
p275
aVhttp://dbpedia.org/resource/Dacrydium_comosum
tp276
aa(lp277
((lp278
Vhttp://dbpedia.org/class/yago/LivingThing100004258
p279
aVhttp://dbpedia.org/class/yago/Object100002684
p280
aVhttp://dbpedia.org/class/yago/Organism100004475
p281
aVhttp://dbpedia.org/class/yago/Plant100017222
p282
aVhttp://dbpedia.org/class/yago/Tree113104059
p283
aVhttp://dbpedia.org/class/yago/VascularPlant113083586
p284
aVhttp://dbpedia.org/class/yago/Whole100003553
p285
aVhttp://dbpedia.org/class/yago/WoodyPlant113103136
p286
aVhttp://www.w3.org/2002/07/owl#Thing
p287
aVhttp://www.wikidata.org/entity/Q19088
p288
aVhttp://www.wikidata.org/entity/Q756
p289
aVhttp://dbpedia.org/ontology/Conifer
p290
aVhttp://dbpedia.org/ontology/Eukaryote
p291
aVhttp://dbpedia.org/ontology/Plant
p292
aVhttp://dbpedia.org/ontology/Species
p293
aVhttp://umbel.org/umbel/rc/Conifer
p294
aVhttp://dbpedia.org/class/yago/LeastConcernPlants
p295
aVhttp://dbpedia.org/class/yago/PhysicalEntity100001930
p296
aVhttp://dbpedia.org/class/yago/TreesOfChina
p297
aVhttp://dbpedia.org/class/yago/TreesOfIndia
p298
aVhttp://dbpedia.org/class/yago/TreesOfThailand
p299
aVhttp://dbpedia.org/resource/Nageia_wallichiana
tp300
aa(lp301
((lp302
Vhttp://dbpedia.org/class/yago/LivingThing100004258
p303
aVhttp://dbpedia.org/class/yago/Object100002684
p304
aVhttp://dbpedia.org/class/yago/Organism100004475
p305
aVhttp://dbpedia.org/class/yago/Plant100017222
p306
aVhttp://dbpedia.org/class/yago/Whole100003553
p307
aVhttp://dbpedia.org/class/yago/PrehistoricPlants
p308
aVhttp://www.w3.org/2002/07/owl#Thing
p309
aVhttp://www.wikidata.org/entity/Q19088
p310
aVhttp://www.wikidata.org/entity/Q756
p311
aVhttp://dbpedia.org/ontology/Conifer
p312
aVhttp://dbpedia.org/ontology/Eukaryote
p313
aVhttp://dbpedia.org/ontology/Plant
p314
aVhttp://dbpedia.org/ontology/Species
p315
aVhttp://dbpedia.org/class/yago/PaleocenePlants
p316
aVhttp://dbpedia.org/class/yago/PlantsDescribedIn1977
p317
aVhttp://dbpedia.org/class/yago/PhysicalEntity100001930
p318
aVhttp://dbpedia.org/resource/Pinus_peregrinus
tp319
aa(lp320
((lp321
Vhttp://dbpedia.org/class/yago/GardenPlant113083306
p322
aVhttp://dbpedia.org/class/yago/LivingThing100004258
p323
aVhttp://dbpedia.org/class/yago/Object100002684
p324
aVhttp://dbpedia.org/class/yago/Organism100004475
p325
aVhttp://dbpedia.org/class/yago/Plant100017222
p326
aVhttp://dbpedia.org/class/yago/Tree113104059
p327
aVhttp://dbpedia.org/class/yago/VascularPlant113083586
p328
aVhttp://dbpedia.org/class/yago/Whole100003553
p329
aVhttp://dbpedia.org/class/yago/WoodyPlant113103136
p330
aVhttp://www.w3.org/2002/07/owl#Thing
p331
aVhttp://www.wikidata.org/entity/Q19088
p332
aVhttp://www.wikidata.org/entity/Q756
p333
aVhttp://dbpedia.org/ontology/Conifer
p334
aVhttp://dbpedia.org/ontology/Eukaryote
p335
aVhttp://dbpedia.org/ontology/Plant
p336
aVhttp://dbpedia.org/ontology/Species
p337
aVhttp://umbel.org/umbel/rc/Conifer
p338
aVhttp://umbel.org/umbel/rc/Plant
p339
aVhttp://dbpedia.org/class/yago/OrnamentalTrees
p340
aVhttp://dbpedia.org/class/yago/GardenPlantsOfAsia
p341
aVhttp://dbpedia.org/class/yago/HousePlants
p342
aVhttp://dbpedia.org/class/yago/LeastConcernPlants
p343
aVhttp://dbpedia.org/class/yago/PhysicalEntity100001930
p344
aVhttp://dbpedia.org/class/yago/TreesOfChina
p345
aVhttp://dbpedia.org/class/yago/TreesOfTemperateClimate
p346
aVhttp://dbpedia.org/resource/Cupressus_funebris
p347
tp348
aaa.