ccollections
defaultdict
p1
(c__builtin__
dict
p2
tRp3
I0
(dp4
I0
(lp5
sI2
(lp6
Vhttp://dbpedia.org/ontology/wikiPageExternalLink
p7
asI3
(lp8
Vhttp://www.w3.org/ns/prov#wasDerivedFrom
p9
assI1
(dp10
I0
(lp11
sI2
(lp12
sI3
(lp13
ssI2
(dp14
I0
(lp15
sI2
(lp16
sI3
(lp17
ssI3
(dp18
I0
(lp19
sI2
(lp20
sI3
(lp21
ssI4
(dp22
I0
(lp23
sI2
(lp24
sI3
(lp25
ssI5
(dp26
I0
(lp27
sI2
(lp28
sI3
(lp29
ssI6
(dp30
I0
(lp31
sI2
(lp32
sI3
(lp33
ssI7
(dp34
I0
(lp35
sI2
(lp36
sI3
(lp37
ssI8
(dp38
I0
(lp39
sI2
(lp40
sI3
(lp41
ssI10
(dp42
I0
(lp43
sI2
(lp44
sI3
(lp45
ssI11
(dp46
I0
(lp47
sI2
(lp48
sI3
(lp49
ssI12
(dp50
I0
(lp51
sI2
(lp52
sI3
(lp53
Vhttp://www.w3.org/ns/prov#wasDerivedFrom
p54
assI13
(dp55
I0
(lp56
sI2
(lp57
sI3
(lp58
ssI14
(dp59
I0
(lp60
sI2
(lp61
sI3
(lp62
ssI15
(dp63
I0
(lp64
sI2
(lp65
sI3
(lp66
ssI16
(dp67
I0
(lp68
sI2
(lp69
sI3
(lp70
ssI17
(dp71
I0
(lp72
sI2
(lp73
sI3
(lp74
ssI18
(dp75
I0
(lp76
sI2
(lp77
sI3
(lp78
ss.