(lp1
(lp2
(lp3
a(lp4
Vhttp://dbpedia.org/resource/Cervical_plexus
p5
aa(lp6
a(lp7
aa(lp8
(lp9
a(lp10
Vhttp://dbpedia.org/resource/Stylohyoid_branch_of_facial_nerve
p11
aa(lp12
a(lp13
aa(lp14
(lp15
a(lp16
Vhttp://dbpedia.org/resource/Superficial_branch_of_ulnar_nerve
p17
aa(lp18
a(lp19
aa(lp20
(lp21
a(lp22
Vhttp://dbpedia.org/resource/Superficial_fibular_nerve
p23
aa(lp24
a(lp25
aa(lp26
(lp27
a(lp28
Vhttp://dbpedia.org/resource/Renal_plexus
p29
aa(lp30
a(lp31
aa(lp32
(lp33
a(lp34
Vhttp://dbpedia.org/resource/Ovarian_plexus
p35
aa(lp36
a(lp37
aa(lp38
(lp39
a(lp40
Vhttp://dbpedia.org/resource/Perineal_branches_of_posterior_femoral_cutaneous_nerve
p41
aa(lp42
a(lp43
aa(lp44
(lp45
a(lp46
Vhttp://dbpedia.org/resource/Iliohypogastric_nerve
p47
aa(lp48
a(lp49
aa(lp50
(lp51
a(lp52
Vhttp://dbpedia.org/resource/Spinal_root_of_accessory_nerve
p53
aa(lp54
a(lp55
aa(lp56
(lp57
a(lp58
a(lp59
a(lp60
aa(lp61
(lp62
a(lp63
Vhttp://dbpedia.org/resource/Anterior_scrotal_nerves
p64
aa(lp65
a(lp66
aa(lp67
(lp68
a(lp69
Vhttp://dbpedia.org/resource/Infraorbital_nerve
p70
aa(lp71
a(lp72
aa(lp73
(lp74
a(lp75
Vhttp://dbpedia.org/resource/Lumbosacral_plexus
p76
aa(lp77
a(lp78
aa(lp79
(lp80
a(lp81
Vhttp://dbpedia.org/resource/Thoracic_splanchnic_nerves
p82
aa(lp83
a(lp84
aa(lp85
(lp86
a(lp87
Vhttp://dbpedia.org/resource/Buccal_branch_of_the_facial_nerve
p88
aa(lp89
a(lp90
aa(lp91
(lp92
a(lp93
Vhttp://dbpedia.org/resource/Nerve_to_the_stapedius
p94
aa(lp95
a(lp96
aa(lp97
(lp98
a(lp99
Vhttp://dbpedia.org/resource/Hepatic_branches_of_anterior_vagal_trunk
p100
aa(lp101
a(lp102
aa(lp103
(lp104
a(lp105
Vhttp://dbpedia.org/resource/Lumbar_ganglia
p106
aa(lp107
a(lp108
aa(lp109
(lp110
a(lp111
Vhttp://dbpedia.org/resource/Posterior_branches_of_the_lumbar_nerves
p112
aa(lp113
a(lp114
aa.