(lp1
(dp2
I0
(dp3
I0
(lp4
sI1
(lp5
sI2
(lp6
sI3
(lp7
sI4
(lp8
sI5
(lp9
sI6
(lp10
sI7
(lp11
sI8
(lp12
sI9
(lp13
sI10
(lp14
sI11
(lp15
sI12
(lp16
sI13
(lp17
sI14
(lp18
sI15
(lp19
sI16
(lp20
sI17
(lp21
sI18
(lp22
ssI1
(dp23
I0
g5
sI1
(lp24
sI2
(lp25
sI3
(lp26
sI4
(lp27
sI5
(lp28
sI6
(lp29
sI7
(lp30
sI8
(lp31
sI9
(lp32
sI10
(lp33
sI11
(lp34
sI12
(lp35
sI13
(lp36
sI14
(lp37
sI15
(lp38
sI16
(lp39
sI17
(lp40
sI18
(lp41
ssI2
(dp42
I0
g6
sI1
g25
sI2
(lp43
sI3
(lp44
sI4
(lp45
sI5
(lp46
sI6
(lp47
sI7
(lp48
sI8
(lp49
sI9
(lp50
sI10
(lp51
sI11
(lp52
sI12
(lp53
sI13
(lp54
sI14
(lp55
sI15
(lp56
sI16
(lp57
sI17
(lp58
sI18
(lp59
ssI3
(dp60
I0
g7
sI1
g26
sI2
g44
sI3
(lp61
sI4
(lp62
sI5
(lp63
sI6
(lp64
sI7
(lp65
sI8
(lp66
sI9
(lp67
sI10
(lp68
sI11
(lp69
sI12
(lp70
sI13
(lp71
sI14
(lp72
sI15
(lp73
sI16
(lp74
sI17
(lp75
sI18
(lp76
ssI4
(dp77
I0
g8
sI1
g27
sI2
g45
sI3
g62
sI4
(lp78
sI5
(lp79
sI6
(lp80
sI7
(lp81
Vhttp://xmlns.com/foaf/0.1/name
p82
aVhttp://dbpedia.org/ontology/abstract
p83
aVhttp://www.w3.org/2000/01/rdf-schema#label
p84
aVhttp://dbpedia.org/property/name
p85
aVhttp://www.w3.org/2000/01/rdf-schema#comment
p86
asI8
(lp87
sI9
(lp88
sI10
(lp89
sI11
(lp90
sI12
(lp91
sI13
(lp92
sI14
(lp93
sI15
(lp94
sI16
(lp95
sI17
(lp96
sI18
(lp97
ssI5
(dp98
I0
g9
sI1
g28
sI2
g46
sI3
g63
sI4
g79
sI5
(lp99
sI6
(lp100
sI7
(lp101
sI8
(lp102
sI9
(lp103
sI10
(lp104
sI11
(lp105
sI12
(lp106
sI13
(lp107
sI14
(lp108
sI15
(lp109
sI16
(lp110
sI17
(lp111
sI18
(lp112
ssI6
(dp113
I0
g10
sI1
g29
sI2
g47
sI3
g64
sI4
g80
sI5
g100
sI6
(lp114
sI7
(lp115
sI8
(lp116
sI9
(lp117
sI10
(lp118
sI11
(lp119
sI12
(lp120
sI13
(lp121
sI14
(lp122
sI15
(lp123
sI16
(lp124
sI17
(lp125
sI18
(lp126
ssI7
(dp127
I0
g11
sI1
g30
sI2
g48
sI3
g65
sI4
g81
sI5
g101
sI6
g115
sI7
(lp128
sI8
(lp129
sI9
(lp130
sI10
(lp131
sI11
(lp132
sI12
(lp133
sI13
(lp134
sI14
(lp135
sI15
(lp136
sI16
(lp137
sI17
(lp138
sI18
(lp139
ssI8
(dp140
I0
g12
sI1
g31
sI2
g49
sI3
g66
sI4
g87
sI5
g102
sI6
g116
sI7
g129
sI8
(lp141
sI9
(lp142
sI10
(lp143
sI11
(lp144
sI12
(lp145
sI13
(lp146
sI14
(lp147
sI15
(lp148
sI16
(lp149
sI17
(lp150
sI18
(lp151
ssI9
(dp152
I0
g13
sI1
g32
sI2
g50
sI3
g67
sI4
g88
sI5
g103
sI6
g117
sI7
g130
sI8
g142
sI9
(lp153
sI10
(lp154
sI11
(lp155
sI12
(lp156
sI13
(lp157
sI14
(lp158
sI15
(lp159
sI16
(lp160
sI17
(lp161
sI18
(lp162
ssI10
(dp163
I0
g14
sI1
g33
sI2
g51
sI3
g68
sI4
g89
sI5
g104
sI6
g118
sI7
g131
sI8
g143
sI9
g154
sI10
(lp164
sI11
(lp165
sI12
(lp166
sI13
(lp167
Vhttp://www.w3.org/2000/01/rdf-schema#seeAlso
p168
aVhttp://dbpedia.org/ontology/type
p169
aVhttp://dbpedia.org/property/name
p170
aVhttp://dbpedia.org/property/parent
p171
aVhttp://www.w3.org/ns/prov#wasDerivedFrom
p172
aVhttp://dbpedia.org/ontology/owningOrganisation
p173
aVhttp://dbpedia.org/ontology/isPartOf
p174
aVhttp://dbpedia.org/ontology/operatedBy
p175
aVhttp://dbpedia.org/property/map
p176
aVhttp://dbpedia.org/property/alt
p177
aVhttp://dbpedia.org/property/owned
p178
aVhttp://dbpedia.org/property/operator
p179
aVhttp://xmlns.com/foaf/0.1/isPrimaryTopicOf
p180
aVhttp://dbpedia.org/property/owner
p181
aVhttp://dbpedia.org/ontology/wikiPageDisambiguates
p182
aVhttp://dbpedia.org/property/system
p183
aVhttp://dbpedia.org/ontology/wikiPageExternalLink
p184
aVhttp://xmlns.com/foaf/0.1/primaryTopic
p185
aVhttp://purl.org/dc/terms/subject
p186
aVhttp://dbpedia.org/property/parentagency
p187
aVhttp://dbpedia.org/ontology/abstract
p188
aVhttp://xmlns.com/foaf/0.1/depiction
p189
aVhttp://dbpedia.org/property/type
p190
aVhttp://dbpedia.org/ontology/thumbnail
p191
aVhttp://dbpedia.org/ontology/operator
p192
aVhttp://www.w3.org/2000/01/rdf-schema#label
p193
aVhttp://www.w3.org/2000/01/rdf-schema#comment
p194
aVhttp://dbpedia.org/ontology/wikiPageRedirects
p195
aVhttp://dbpedia.org/ontology/owner
p196
aVhttp://xmlns.com/foaf/0.1/name
p197
aVhttp://xmlns.com/foaf/0.1/homepage
p198
aVhttp://www.w3.org/2002/07/owl#sameAs
p199
asI14
(lp200
sI15
(lp201
sI16
(lp202
sI17
(lp203
sI18
(lp204
ssI11
(dp205
I0
g15
sI1
g34
sI2
g52
sI3
g69
sI4
g90
sI5
g105
sI6
g119
sI7
g132
sI8
g144
sI9
g155
sI10
g165
sI11
(lp206
sI12
(lp207
sI13
(lp208
sI14
(lp209
sI15
(lp210
sI16
(lp211
sI17
(lp212
sI18
(lp213
ssI12
(dp214
I0
g16
sI1
g35
sI2
g53
sI3
g70
sI4
g91
sI5
g106
sI6
g120
sI7
g133
sI8
g145
sI9
g156
sI10
g166
sI11
g207
sI12
(lp215
sI13
(lp216
sI14
(lp217
sI15
(lp218
sI16
(lp219
sI17
(lp220
sI18
(lp221
ssI13
(dp222
I0
g17
sI1
g36
sI2
g54
sI3
g71
sI4
g92
sI5
g107
sI6
g121
sI7
g134
sI8
g146
sI9
g157
sI10
g167
sI11
g208
sI12
g216
sI13
(lp223
sI14
(lp224
sI15
(lp225
sI16
(lp226
sI17
(lp227
sI18
(lp228
ssI14
(dp229
I0
g18
sI1
g37
sI2
g55
sI3
g72
sI4
g93
sI5
g108
sI6
g122
sI7
g135
sI8
g147
sI9
g158
sI10
g200
sI11
g209
sI12
g217
sI13
g224
sI14
(lp230
sI15
(lp231
sI16
(lp232
sI17
(lp233
sI18
(lp234
ssI15
(dp235
I0
g19
sI1
g38
sI2
g56
sI3
g73
sI4
g94
sI5
g109
sI6
g123
sI7
g136
sI8
g148
sI9
g159
sI10
g201
sI11
g210
sI12
g218
sI13
g225
sI14
g231
sI15
(lp236
sI16
(lp237
sI17
(lp238
sI18
(lp239
ssI16
(dp240
I0
g20
sI1
g39
sI2
g57
sI3
g74
sI4
g95
sI5
g110
sI6
g124
sI7
g137
sI8
g149
sI9
g160
sI10
g202
sI11
g211
sI12
g219
sI13
g226
sI14
g232
sI15
g237
sI16
(lp241
sI17
(lp242
sI18
(lp243
ssI17
(dp244
I0
g21
sI1
g40
sI2
g58
sI3
g75
sI4
g96
sI5
g111
sI6
g125
sI7
g138
sI8
g150
sI9
g161
sI10
g203
sI11
g212
sI12
g220
sI13
g227
sI14
g233
sI15
g238
sI16
g242
sI17
(lp245
sI18
(lp246
ssI18
(dp247
I0
g22
sI1
g41
sI2
g59
sI3
g76
sI4
g97
sI5
g112
sI6
g126
sI7
g139
sI8
g151
sI9
g162
sI10
g204
sI11
g213
sI12
g221
sI13
g228
sI14
g234
sI15
g239
sI16
g243
sI17
g246
sI18
(lp248
ssa.