(lp1
(lp2
(lp3
a(lp4
a(lp5
a(lp6
aa(lp7
(lp8
Vhttp://dbpedia.org/resource/Nordic_Student_Singers'_Summit
p9
aa(lp10
a(lp11
a(lp12
aa(lp13
(lp14
Vhttp://dbpedia.org/resource/Beverley_Folk_Festival
p15
aa(lp16
a(lp17
a(lp18
aa(lp19
(lp20
Vhttp://dbpedia.org/resource/Gods_of_Metal
p21
aa(lp22
a(lp23
a(lp24
aa(lp25
(lp26
Vhttp://dbpedia.org/resource/Mayhem_Festival_2013
p27
aa(lp28
a(lp29
a(lp30
aa(lp31
(lp32
Vhttp://dbpedia.org/resource/Park_Live_Festival
p33
aa(lp34
a(lp35
a(lp36
aa(lp37
(lp38
Vhttp://dbpedia.org/resource/TFF_Rudolstadt
p39
aa(lp40
a(lp41
a(lp42
aa(lp43
(lp44
Vhttp://dbpedia.org/resource/National_Folk_Festival_(United_States)
p45
aa(lp46
a(lp47
a(lp48
aa(lp49
(lp50
Vhttp://dbpedia.org/resource/Queensland_Music_Festival
p51
aa(lp52
a(lp53
a(lp54
aa(lp55
(lp56
Vhttp://dbpedia.org/resource/Miljoona_Rock
p57
aa(lp58
a(lp59
a(lp60
aa(lp61
(lp62
Vhttp://dbpedia.org/resource/Born_Too_Late_Festival
p63
aa(lp64
a(lp65
a(lp66
aa(lp67
(lp68
Vhttp://dbpedia.org/resource/Boundary_Waters_Blues_Festival
p69
aa(lp70
a(lp71
a(lp72
aa(lp73
(lp74
Vhttp://dbpedia.org/resource/Cradle_of_Accordions_Festival
p75
aa(lp76
a(lp77
a(lp78
aa(lp79
(lp80
Vhttp://dbpedia.org/resource/Isotopia_Festival
p81
aa(lp82
a(lp83
a(lp84
aa(lp85
(lp86
Vhttp://dbpedia.org/resource/Miramichi_Folksong_Festival
p87
aa(lp88
a(lp89
a(lp90
aa(lp91
(lp92
Vhttp://dbpedia.org/resource/Pjesma_Mediterana
p93
aa(lp94
a(lp95
a(lp96
aa(lp97
(lp98
Vhttp://dbpedia.org/resource/Redgorilla
p99
aa(lp100
a(lp101
a(lp102
aa(lp103
(lp104
Vhttp://dbpedia.org/resource/Rogers_Picnic
p105
aa(lp106
a(lp107
a(lp108
aa(lp109
(lp110
Vhttp://dbpedia.org/resource/Rootz:_The_Green_City_Music_Festival
p111
aa(lp112
a(lp113
a(lp114
aa.