(lp1
(lp2
(lp3
a(lp4
a(lp5
aa(lp6
(lp7
a(lp8
a(lp9
aa(lp10
(lp11
a(lp12
a(lp13
aa(lp14
(lp15
a(lp16
a(lp17
aa(lp18
(lp19
a(lp20
a(lp21
aa(lp22
(lp23
a(lp24
a(lp25
((lp26
Vhttp://dbpedia.org/class/yago/CausalAgent100007347
p27
aVhttp://dbpedia.org/class/yago/LivingThing100004258
p28
aVhttp://dbpedia.org/class/yago/Object100002684
p29
aVhttp://dbpedia.org/class/yago/Organism100004475
p30
aVhttp://dbpedia.org/class/yago/Person100007846
p31
aVhttp://dbpedia.org/class/yago/Whole100003553
p32
aVhttp://dbpedia.org/class/yago/YagoLegalActorGeo
p33
aVhttp://www.w3.org/2002/07/owl#Thing
p34
aVhttp://xmlns.com/foaf/0.1/Person
p35
aVhttp://dbpedia.org/ontology/Person
p36
aVhttp://www.ontologydesignpatterns.org/ont/dul/DUL.owl#Agent
p37
aVhttp://www.ontologydesignpatterns.org/ont/dul/DUL.owl#NaturalPerson
p38
aVhttp://www.wikidata.org/entity/Q215627
p39
aVhttp://www.wikidata.org/entity/Q5
p40
aVhttp://dbpedia.org/ontology/Agent
p41
aVhttp://schema.org/Person
p42
aVhttp://dbpedia.org/class/yago/YagoLegalActor
p43
aVhttp://dbpedia.org/class/yago/LivingPeople
p44
aVhttp://dbpedia.org/class/yago/PhysicalEntity100001930
p45
aVhttp://dbpedia.org/resource/Aleksander_Doba
tp46
aaa(lp47
(lp48
a(lp49
a(lp50
aa(lp51
(lp52
a(lp53
a(lp54
((lp55
Vhttp://dbpedia.org/class/yago/AmericanOceanographers
p56
aVhttp://dbpedia.org/class/yago/CausalAgent100007347
p57
aVhttp://dbpedia.org/class/yago/LivingThing100004258
p58
aVhttp://dbpedia.org/class/yago/Object100002684
p59
aVhttp://dbpedia.org/class/yago/Oceanographer110370122
p60
aVhttp://dbpedia.org/class/yago/Organism100004475
p61
aVhttp://dbpedia.org/class/yago/Person100007846
p62
aVhttp://dbpedia.org/class/yago/Scientist110560637
p63
aVhttp://dbpedia.org/class/yago/Whole100003553
p64
aVhttp://dbpedia.org/class/yago/YagoLegalActorGeo
p65
aVhttp://www.w3.org/2002/07/owl#Thing
p66
aVhttp://xmlns.com/foaf/0.1/Person
p67
aVhttp://dbpedia.org/ontology/Person
p68
aVhttp://www.ontologydesignpatterns.org/ont/dul/DUL.owl#Agent
p69
aVhttp://www.ontologydesignpatterns.org/ont/dul/DUL.owl#NaturalPerson
p70
aVhttp://www.wikidata.org/entity/Q215627
p71
aVhttp://www.wikidata.org/entity/Q5
p72
aVhttp://dbpedia.org/ontology/Agent
p73
aVhttp://schema.org/Person
p74
aVhttp://dbpedia.org/class/yago/YagoLegalActor
p75
aVhttp://dbpedia.org/class/yago/LivingPeople
p76
aVhttp://dbpedia.org/class/yago/PhysicalEntity100001930
p77
aVhttp://dbpedia.org/resource/Alan_Blumberg
p78
tp79
aaa(lp80
(lp81
a(lp82
a(lp83
aa(lp84
(lp85
a(lp86
a(lp87
aa(lp88
(lp89
a(lp90
a(lp91
aa.