(lp1
(lp2
(lp3
a(lp4
a(lp5
a(lp6
a(lp7
aa(lp8
(lp9
a(lp10
a(lp11
a(lp12
a(lp13
aa(lp14
(lp15
a(lp16
a(lp17
a(lp18
a(lp19
aa(lp20
(lp21
a(lp22
a(lp23
a(lp24
a(lp25
aa(lp26
(lp27
a(lp28
a(lp29
a(lp30
a(lp31
aa(lp32
(lp33
a(lp34
a(lp35
a(lp36
a(lp37
aa(lp38
(lp39
a(lp40
a(lp41
a(lp42
a(lp43
((lp44
Vhttp://www.w3.org/2002/07/owl#Thing
p45
aVhttp://www.wikidata.org/entity/Q1390
p46
aVhttp://www.wikidata.org/entity/Q19088
p47
aVhttp://www.wikidata.org/entity/Q729
p48
aVhttp://dbpedia.org/ontology/Animal
p49
aVhttp://dbpedia.org/ontology/Eukaryote
p50
aVhttp://dbpedia.org/ontology/Insect
p51
aVhttp://dbpedia.org/ontology/Species
p52
aVhttp://dbpedia.org/resource/Cyphosticha_albomarginata
tp53
aaa(lp54
(lp55
a(lp56
a(lp57
a(lp58
a(lp59
aa(lp60
(lp61
a(lp62
a(lp63
a(lp64
a(lp65
aa(lp66
(lp67
a(lp68
a(lp69
a(lp70
a(lp71
aa(lp72
(lp73
a(lp74
a(lp75
a(lp76
a(lp77
aa(lp78
(lp79
a(lp80
a(lp81
a(lp82
a(lp83
aa(lp84
(lp85
a(lp86
a(lp87
a(lp88
a(lp89
aa(lp90
(lp91
a(lp92
a(lp93
a(lp94
a(lp95
aa(lp96
(lp97
a(lp98
a(lp99
a(lp100
a(lp101
aa(lp102
(lp103
a(lp104
a(lp105
a(lp106
a(lp107
aa(lp108
(lp109
a(lp110
a(lp111
a(lp112
a(lp113
((lVhttp://dbpedia.org/resource/Laubuca
tp114
aaa(lp115
(lp116
a(lp117
a(lp118
a(lp119
a(lp120
((lVhttp://dbpedia.org/resource/Laubuca_caeruleostigmata
tp121
aaa(lp122
(lp123
a(lp124
a(lp125
a(lp126
a(lp127
((lVhttp://dbpedia.org/resource/Laubuca_dadiburjori
p128
tp129
aaa.