(lp1
(lp2
(lp3
a(lp4
a(lp5
a(lp6
Vhttp://dbpedia.org/resource/Isoetes
p7
aaa(lp8
(lp9
a(lp10
a(lp11
a(lp12
Vhttp://dbpedia.org/resource/Lycopodiophyta
p13
aaa(lp14
(lp15
a(lp16
a(lp17
a(lp18
Vhttp://dbpedia.org/resource/Lycopodiopsida
p19
aaa(lp20
(lp21
a(lp22
a(lp23
a(lp24
Vhttp://dbpedia.org/resource/Selaginella
p25
aaa(lp26
(lp27
a(lp28
a(lp29
a(lp30
aa(lp31
(lp32
a(lp33
a(lp34
a(lp35
Vhttp://dbpedia.org/resource/Huperzia_lucidula
p36
aaa(lp37
(lp38
a(lp39
a(lp40
a(lp41
Vhttp://dbpedia.org/resource/Isoetes_louisianensis
p42
aaa(lp43
(lp44
a(lp45
a(lp46
a(lp47
aa(lp48
(lp49
a(lp50
a(lp51
a(lp52
Vhttp://dbpedia.org/resource/Asteroxylon
p53
aaa(lp54
(lp55
a(lp56
a(lp57
a(lp58
Vhttp://dbpedia.org/resource/Drepanophycaceae
p59
aaa(lp60
(lp61
a(lp62
a(lp63
a(lp64
Vhttp://dbpedia.org/resource/Drepanophycales
p65
aaa(lp66
(lp67
a(lp68
a(lp69
a(lp70
Vhttp://dbpedia.org/resource/Drepanophycus
p71
aaa(lp72
(lp73
a(lp74
a(lp75
a(lp76
Vhttp://dbpedia.org/resource/Lepidodendrales
p77
aaa(lp78
(lp79
a(lp80
a(lp81
a(lp82
Vhttp://dbpedia.org/resource/Selaginella_poulteri
p83
aaa(lp84
(lp85
a(lp86
a(lp87
a(lp88
Vhttp://dbpedia.org/resource/Selaginella_pulcherrima
p89
aaa(lp90
(lp91
a(lp92
a(lp93
a(lp94
Vhttp://dbpedia.org/resource/Selaginella_sericea
p95
aaa(lp96
(lp97
a(lp98
a(lp99
a(lp100
Vhttp://dbpedia.org/resource/Sigillaria
p101
aaa(lp102
(lp103
a(lp104
a(lp105
a(lp106
Vhttp://dbpedia.org/resource/Isoetes_caroliniana
p107
aaa(lp108
(lp109
a(lp110
a(lp111
a(lp112
Vhttp://dbpedia.org/resource/Isoetes_eludens
p113
aaa.