(lp1
(lp2
(lp3
a(lp4
a(lp5
a(lp6
aa(lp7
(lp8
a(lp9
a(lp10
a(lp11
aa(lp12
(lp13
a(lp14
((lp15
Vhttp://dbpedia.org/class/yago/Abstraction100002137
p16
aVhttp://dbpedia.org/class/yago/AuditoryCommunication107109019
p17
aVhttp://dbpedia.org/class/yago/Communication100033020
p18
aVhttp://dbpedia.org/class/yago/ExpressiveStyle107066659
p19
aVhttp://dbpedia.org/class/yago/Music107020895
p20
aVhttp://dbpedia.org/class/yago/MusicGenre107071942
p21
aVhttp://www.w3.org/2002/07/owl#Thing
p22
aVhttp://dbpedia.org/ontology/Genre
p23
aVhttp://www.ontologydesignpatterns.org/ont/dul/DUL.owl#Concept
p24
aVhttp://www.wikidata.org/entity/Q188451
p25
aVhttp://dbpedia.org/ontology/MusicGenre
p26
aVhttp://dbpedia.org/ontology/TopicalConcept
p27
aVhttp://umbel.org/umbel/rc/MusicalComposition
p28
aVhttp://dbpedia.org/resource/Acid_house
tp29
aa(lp30
a(lp31
aa(lp32
(lp33
a(lp34
((lp35
Vhttp://dbpedia.org/class/yago/Abstraction100002137
p36
aVhttp://dbpedia.org/class/yago/AuditoryCommunication107109019
p37
aVhttp://dbpedia.org/class/yago/Cognition100023271
p38
aVhttp://dbpedia.org/class/yago/Communication100033020
p39
aVhttp://dbpedia.org/class/yago/Concept105835747
p40
aVhttp://dbpedia.org/class/yago/Content105809192
p41
aVhttp://dbpedia.org/class/yago/ExpressiveStyle107066659
p42
aVhttp://dbpedia.org/class/yago/Genre105845332
p43
aVhttp://dbpedia.org/class/yago/Idea105833840
p44
aVhttp://dbpedia.org/class/yago/Kind105839024
p45
aVhttp://dbpedia.org/class/yago/Music107020895
p46
aVhttp://dbpedia.org/class/yago/MusicGenre107071942
p47
aVhttp://www.w3.org/2002/07/owl#Thing
p48
aVhttp://dbpedia.org/ontology/Genre
p49
aVhttp://www.ontologydesignpatterns.org/ont/dul/DUL.owl#Concept
p50
aVhttp://www.wikidata.org/entity/Q188451
p51
aVhttp://dbpedia.org/ontology/MusicGenre
p52
aVhttp://dbpedia.org/ontology/TopicalConcept
p53
aVhttp://umbel.org/umbel/rc/MusicalComposition
p54
aVhttp://dbpedia.org/class/yago/ElectronicDanceMusicGenres
p55
aVhttp://dbpedia.org/class/yago/PsychologicalFeature100023100
p56
aVhttp://dbpedia.org/class/yago/Category105838765
p57
aVhttp://dbpedia.org/class/yago/FunkGenres
p58
aVhttp://dbpedia.org/class/yago/JazzGenres
p59
aVhttp://dbpedia.org/resource/Acid_jazz
tp60
aa(lp61
a(lp62
aa(lp63
(lp64
a(lp65
((lp66
Vhttp://www.w3.org/2002/07/owl#Thing
p67
aVhttp://dbpedia.org/ontology/Genre
p68
aVhttp://www.ontologydesignpatterns.org/ont/dul/DUL.owl#Concept
p69
aVhttp://www.wikidata.org/entity/Q188451
p70
aVhttp://dbpedia.org/ontology/MusicGenre
p71
aVhttp://dbpedia.org/ontology/TopicalConcept
p72
aVhttp://umbel.org/umbel/rc/MusicalComposition
p73
aVhttp://dbpedia.org/resource/Acid_rock
tp74
aa(lp75
a(lp76
aa(lp77
(lp78
a(lp79
((lp80
Vhttp://dbpedia.org/class/yago/Abstraction100002137
p81
aVhttp://dbpedia.org/class/yago/AuditoryCommunication107109019
p82
aVhttp://dbpedia.org/class/yago/Cognition100023271
p83
aVhttp://dbpedia.org/class/yago/Communication100033020
p84
aVhttp://dbpedia.org/class/yago/Concept105835747
p85
aVhttp://dbpedia.org/class/yago/Content105809192
p86
aVhttp://dbpedia.org/class/yago/ExpressiveStyle107066659
p87
aVhttp://dbpedia.org/class/yago/Genre105845332
p88
aVhttp://dbpedia.org/class/yago/Idea105833840
p89
aVhttp://dbpedia.org/class/yago/Kind105839024
p90
aVhttp://dbpedia.org/class/yago/Music107020895
p91
aVhttp://dbpedia.org/class/yago/MusicGenre107071942
p92
aVhttp://www.w3.org/2002/07/owl#Thing
p93
aVhttp://dbpedia.org/ontology/Genre
p94
aVhttp://www.ontologydesignpatterns.org/ont/dul/DUL.owl#Concept
p95
aVhttp://www.wikidata.org/entity/Q188451
p96
aVhttp://dbpedia.org/ontology/MusicGenre
p97
aVhttp://dbpedia.org/ontology/TopicalConcept
p98
aVhttp://umbel.org/umbel/rc/MusicalComposition
p99
aVhttp://dbpedia.org/class/yago/PsychologicalFeature100023100
p100
aVhttp://dbpedia.org/class/yago/Category105838765
p101
aVhttp://dbpedia.org/class/yago/TechnoGenres
p102
aVhttp://dbpedia.org/resource/Acid_techno
tp103
aa(lp104
a(lp105
aa(lp106
(lp107
a(lp108
((lp109
Vhttp://dbpedia.org/class/yago/Abstraction100002137
p110
aVhttp://dbpedia.org/class/yago/AuditoryCommunication107109019
p111
aVhttp://dbpedia.org/class/yago/Cognition100023271
p112
aVhttp://dbpedia.org/class/yago/Communication100033020
p113
aVhttp://dbpedia.org/class/yago/Concept105835747
p114
aVhttp://dbpedia.org/class/yago/Content105809192
p115
aVhttp://dbpedia.org/class/yago/ExpressiveStyle107066659
p116
aVhttp://dbpedia.org/class/yago/Genre105845332
p117
aVhttp://dbpedia.org/class/yago/Idea105833840
p118
aVhttp://dbpedia.org/class/yago/Kind105839024
p119
aVhttp://dbpedia.org/class/yago/Music107020895
p120
aVhttp://dbpedia.org/class/yago/MusicGenre107071942
p121
aVhttp://www.w3.org/2002/07/owl#Thing
p122
aVhttp://dbpedia.org/ontology/Genre
p123
aVhttp://www.ontologydesignpatterns.org/ont/dul/DUL.owl#Concept
p124
aVhttp://www.wikidata.org/entity/Q188451
p125
aVhttp://dbpedia.org/ontology/MusicGenre
p126
aVhttp://dbpedia.org/ontology/TopicalConcept
p127
aVhttp://umbel.org/umbel/rc/MusicalComposition
p128
aVhttp://dbpedia.org/class/yago/PsychologicalFeature100023100
p129
aVhttp://dbpedia.org/class/yago/Category105838765
p130
aVhttp://dbpedia.org/class/yago/TranceGenres
p131
aVhttp://dbpedia.org/resource/Acid_trance
tp132
aa(lp133
a(lp134
aa(lp135
(lp136
a(lp137
((lp138
Vhttp://dbpedia.org/class/yago/Artifact100021939
p139
aVhttp://dbpedia.org/class/yago/Covering103122748
p140
aVhttp://dbpedia.org/class/yago/Furnishing103405265
p141
aVhttp://dbpedia.org/class/yago/Object100002684
p142
aVhttp://dbpedia.org/class/yago/Rug104118021
p143
aVhttp://dbpedia.org/class/yago/Whole100003553
p144
aVhttp://dbpedia.org/class/yago/RugsAndCarpets
p145
aVhttp://www.w3.org/2002/07/owl#Thing
p146
aVhttp://dbpedia.org/class/yago/FloorCover103366823
p147
aVhttp://dbpedia.org/class/yago/Instrumentality103575240
p148
aVhttp://dbpedia.org/class/yago/PhysicalEntity100001930
p149
aVhttp://dbpedia.org/class/yago/TurkishCarpets,RugsAndKilims
p150
aVhttp://dbpedia.org/resource/Turkish_carpet
tp151
aa(lp152
a(lp153
aa(lp154
(lp155
a(lp156
((lp157
Vhttp://dbpedia.org/class/yago/Abstraction100002137
p158
aVhttp://dbpedia.org/class/yago/AuditoryCommunication107109019
p159
aVhttp://dbpedia.org/class/yago/Cognition100023271
p160
aVhttp://dbpedia.org/class/yago/Communication100033020
p161
aVhttp://dbpedia.org/class/yago/Concept105835747
p162
aVhttp://dbpedia.org/class/yago/Content105809192
p163
aVhttp://dbpedia.org/class/yago/ExpressiveStyle107066659
p164
aVhttp://dbpedia.org/class/yago/Genre105845332
p165
aVhttp://dbpedia.org/class/yago/Idea105833840
p166
aVhttp://dbpedia.org/class/yago/Kind105839024
p167
aVhttp://dbpedia.org/class/yago/Music107020895
p168
aVhttp://dbpedia.org/class/yago/MusicGenre107071942
p169
aVhttp://dbpedia.org/class/yago/PunkGenres
p170
aVhttp://www.w3.org/2002/07/owl#Thing
p171
aVhttp://dbpedia.org/ontology/Genre
p172
aVhttp://www.ontologydesignpatterns.org/ont/dul/DUL.owl#Concept
p173
aVhttp://www.wikidata.org/entity/Q188451
p174
aVhttp://dbpedia.org/ontology/MusicGenre
p175
aVhttp://dbpedia.org/ontology/TopicalConcept
p176
aVhttp://dbpedia.org/class/yago/PsychologicalFeature100023100
p177
aVhttp://dbpedia.org/class/yago/Category105838765
p178
aVhttp://dbpedia.org/resource/Bandana_thrash
tp179
aa(lp180
a(lp181
aa(lp182
(lp183
a(lp184
((lVhttp://dbpedia.org/resource/Bassline
tp185
aa(lp186
a(lp187
aa(lp188
(lp189
a(lp190
((lp191
Vhttp://www.w3.org/2002/07/owl#Thing
p192
aVhttp://dbpedia.org/ontology/Genre
p193
aVhttp://www.ontologydesignpatterns.org/ont/dul/DUL.owl#Concept
p194
aVhttp://www.wikidata.org/entity/Q188451
p195
aVhttp://dbpedia.org/ontology/MusicGenre
p196
aVhttp://dbpedia.org/ontology/TopicalConcept
p197
aVhttp://dbpedia.org/resource/Boi_(music)
tp198
aa(lp199
a(lp200
aa(lp201
(lp202
a(lp203
((lp204
Vhttp://dbpedia.org/class/yago/Abstraction100002137
p205
aVhttp://dbpedia.org/class/yago/Attribute100024264
p206
aVhttp://dbpedia.org/class/yago/AuditoryCommunication107109019
p207
aVhttp://dbpedia.org/class/yago/BrazilianStylesOfMusic
p208
aVhttp://dbpedia.org/class/yago/Communication100033020
p209
aVhttp://dbpedia.org/class/yago/ExpressiveStyle107066659
p210
aVhttp://dbpedia.org/class/yago/Manner104928903
p211
aVhttp://dbpedia.org/class/yago/Music107020895
p212
aVhttp://dbpedia.org/class/yago/MusicGenre107071942
p213
aVhttp://dbpedia.org/class/yago/Property104916342
p214
aVhttp://www.w3.org/2002/07/owl#Thing
p215
aVhttp://dbpedia.org/ontology/Genre
p216
aVhttp://www.ontologydesignpatterns.org/ont/dul/DUL.owl#Concept
p217
aVhttp://www.wikidata.org/entity/Q188451
p218
aVhttp://dbpedia.org/ontology/MusicGenre
p219
aVhttp://dbpedia.org/ontology/TopicalConcept
p220
aVhttp://umbel.org/umbel/rc/MusicalComposition
p221
aVhttp://dbpedia.org/resource/Bossa_nova
tp222
aa(lp223
a(lp224
aa(lp225
(lp226
a(lp227
((lp228
Vhttp://dbpedia.org/class/yago/Abstraction100002137
p229
aVhttp://dbpedia.org/class/yago/Attribute100024264
p230
aVhttp://dbpedia.org/class/yago/Manner104928903
p231
aVhttp://dbpedia.org/class/yago/Property104916342
p232
aVhttp://www.w3.org/2002/07/owl#Thing
p233
aVhttp://dbpedia.org/ontology/Genre
p234
aVhttp://www.ontologydesignpatterns.org/ont/dul/DUL.owl#Concept
p235
aVhttp://www.wikidata.org/entity/Q188451
p236
aVhttp://dbpedia.org/ontology/MusicGenre
p237
aVhttp://dbpedia.org/ontology/TopicalConcept
p238
aVhttp://dbpedia.org/class/yago/WesternClassicalMusicStyles
p239
aVhttp://dbpedia.org/resource/Capriccio_(music)
tp240
aa(lp241
a(lp242
aa(lp243
(lp244
a(lp245
((lp246
Vhttp://www.w3.org/2002/07/owl#Thing
p247
aVhttp://dbpedia.org/ontology/Genre
p248
aVhttp://www.ontologydesignpatterns.org/ont/dul/DUL.owl#Concept
p249
aVhttp://www.wikidata.org/entity/Q188451
p250
aVhttp://dbpedia.org/ontology/MusicGenre
p251
aVhttp://dbpedia.org/ontology/TopicalConcept
p252
aVhttp://umbel.org/umbel/rc/MusicalComposition
p253
aVhttp://dbpedia.org/resource/Flamenco
tp254
aa(lp255
a(lp256
aa(lp257
(lp258
a(lp259
((lp260
Vhttp://dbpedia.org/class/yago/Abstraction100002137
p261
aVhttp://dbpedia.org/class/yago/Code106355894
p262
aVhttp://dbpedia.org/class/yago/Communication100033020
p263
aVhttp://dbpedia.org/class/yago/Software106566077
p264
aVhttp://dbpedia.org/class/yago/Writing106359877
p265
aVhttp://www.w3.org/2002/07/owl#Thing
p266
aVhttp://dbpedia.org/ontology/Software
p267
aVhttp://www.wikidata.org/entity/Q386724
p268
aVhttp://www.wikidata.org/entity/Q7397
p269
aVhttp://dbpedia.org/ontology/Work
p270
aVhttp://schema.org/CreativeWork
p271
aVhttp://dbpedia.org/class/yago/CodingSystem106353757
p272
aVhttp://dbpedia.org/class/yago/WrittenCommunication106349220
p273
aVhttp://dbpedia.org/resource/CrossOver_(software)
tp274
aa(lp275
a(lp276
aa(lp277
(lp278
a(lp279
((lp280
Vhttp://dbpedia.org/class/yago/Abstraction100002137
p281
aVhttp://dbpedia.org/class/yago/AuditoryCommunication107109019
p282
aVhttp://dbpedia.org/class/yago/Cognition100023271
p283
aVhttp://dbpedia.org/class/yago/Communication100033020
p284
aVhttp://dbpedia.org/class/yago/Concept105835747
p285
aVhttp://dbpedia.org/class/yago/Content105809192
p286
aVhttp://dbpedia.org/class/yago/ExpressiveStyle107066659
p287
aVhttp://dbpedia.org/class/yago/Genre105845332
p288
aVhttp://dbpedia.org/class/yago/Idea105833840
p289
aVhttp://dbpedia.org/class/yago/Kind105839024
p290
aVhttp://dbpedia.org/class/yago/Music107020895
p291
aVhttp://dbpedia.org/class/yago/MusicGenre107071942
p292
aVhttp://www.w3.org/2002/07/owl#Thing
p293
aVhttp://dbpedia.org/ontology/Genre
p294
aVhttp://www.ontologydesignpatterns.org/ont/dul/DUL.owl#Concept
p295
aVhttp://www.wikidata.org/entity/Q188451
p296
aVhttp://dbpedia.org/ontology/MusicGenre
p297
aVhttp://dbpedia.org/ontology/TopicalConcept
p298
aVhttp://umbel.org/umbel/rc/MusicalComposition
p299
aVhttp://dbpedia.org/class/yago/PsychologicalFeature100023100
p300
aVhttp://dbpedia.org/class/yago/Category105838765
p301
aVhttp://dbpedia.org/class/yago/HardcorePunkGenres
p302
aVhttp://dbpedia.org/resource/Crossover_thrash
tp303
aa(lp304
a(lp305
aa(lp306
(lp307
a(lp308
((lp309
Vhttp://dbpedia.org/class/yago/Abstraction100002137
p310
aVhttp://dbpedia.org/class/yago/AuditoryCommunication107109019
p311
aVhttp://dbpedia.org/class/yago/Communication100033020
p312
aVhttp://dbpedia.org/class/yago/ExpressiveStyle107066659
p313
aVhttp://dbpedia.org/class/yago/Music107020895
p314
aVhttp://dbpedia.org/class/yago/MusicGenre107071942
p315
aVhttp://www.w3.org/2002/07/owl#Thing
p316
aVhttp://dbpedia.org/ontology/Genre
p317
aVhttp://www.ontologydesignpatterns.org/ont/dul/DUL.owl#Concept
p318
aVhttp://www.wikidata.org/entity/Q188451
p319
aVhttp://dbpedia.org/ontology/MusicGenre
p320
aVhttp://dbpedia.org/ontology/TopicalConcept
p321
aVhttp://umbel.org/umbel/rc/MusicalComposition
p322
aVhttp://dbpedia.org/resource/Doom_metal
tp323
aa(lp324
a(lp325
aa(lp326
(lp327
a(lp328
((lp329
Vhttp://dbpedia.org/class/yago/Abstraction100002137
p330
aVhttp://dbpedia.org/class/yago/AuditoryCommunication107109019
p331
aVhttp://dbpedia.org/class/yago/Communication100033020
p332
aVhttp://dbpedia.org/class/yago/ExpressiveStyle107066659
p333
aVhttp://dbpedia.org/class/yago/Music107020895
p334
aVhttp://dbpedia.org/class/yago/MusicGenre107071942
p335
aVhttp://www.w3.org/2002/07/owl#Thing
p336
aVhttp://dbpedia.org/ontology/Genre
p337
aVhttp://www.ontologydesignpatterns.org/ont/dul/DUL.owl#Concept
p338
aVhttp://www.wikidata.org/entity/Q188451
p339
aVhttp://dbpedia.org/ontology/MusicGenre
p340
aVhttp://dbpedia.org/ontology/TopicalConcept
p341
aVhttp://umbel.org/umbel/rc/MusicalComposition
p342
aVhttp://dbpedia.org/resource/Electro-industrial
p343
tp344
aa(lp345
a(lp346
aa.