(lp1
(lp2
(lp3
a(lp4
aa(lp5
(lp6
a(lp7
aa(lp8
(lp9
((lp10
Vhttp://www.w3.org/2002/07/owl#Thing
p11
aVhttp://xmlns.com/foaf/0.1/Person
p12
aVhttp://dbpedia.org/ontology/Person
p13
aVhttp://www.ontologydesignpatterns.org/ont/dul/DUL.owl#Agent
p14
aVhttp://www.ontologydesignpatterns.org/ont/dul/DUL.owl#NaturalPerson
p15
aVhttp://www.wikidata.org/entity/Q13474373
p16
aVhttp://www.wikidata.org/entity/Q215627
p17
aVhttp://www.wikidata.org/entity/Q5
p18
aVhttp://dbpedia.org/ontology/Agent
p19
aVhttp://dbpedia.org/ontology/Athlete
p20
aVhttp://dbpedia.org/ontology/Wrestler
p21
aVhttp://schema.org/Person
p22
aVhttp://umbel.org/umbel/rc/Athlete
p23
aVhttp://umbel.org/umbel/rc/Wrestler
p24
aVhttp://dbpedia.org/resource/Sid_Eudy
tp25
aa(lp26
aa(lp27
(lp28
((lp29
Vhttp://dbpedia.org/class/yago/AmericanProfessionalWrestlers
p30
aVhttp://dbpedia.org/class/yago/CausalAgent100007347
p31
aVhttp://dbpedia.org/class/yago/Combatant109939313
p32
aVhttp://dbpedia.org/class/yago/LivingThing100004258
p33
aVhttp://dbpedia.org/class/yago/Object100002684
p34
aVhttp://dbpedia.org/class/yago/Organism100004475
p35
aVhttp://dbpedia.org/class/yago/Person100007846
p36
aVhttp://dbpedia.org/class/yago/Whole100003553
p37
aVhttp://dbpedia.org/class/yago/Wrestler110793168
p38
aVhttp://dbpedia.org/class/yago/YagoLegalActorGeo
p39
aVhttp://www.w3.org/2002/07/owl#Thing
p40
aVhttp://xmlns.com/foaf/0.1/Person
p41
aVhttp://dbpedia.org/ontology/Person
p42
aVhttp://www.ontologydesignpatterns.org/ont/dul/DUL.owl#Agent
p43
aVhttp://www.ontologydesignpatterns.org/ont/dul/DUL.owl#NaturalPerson
p44
aVhttp://www.wikidata.org/entity/Q13474373
p45
aVhttp://www.wikidata.org/entity/Q215627
p46
aVhttp://www.wikidata.org/entity/Q5
p47
aVhttp://dbpedia.org/ontology/Agent
p48
aVhttp://dbpedia.org/ontology/Athlete
p49
aVhttp://dbpedia.org/ontology/Wrestler
p50
aVhttp://schema.org/Person
p51
aVhttp://umbel.org/umbel/rc/Wrestler
p52
aVhttp://dbpedia.org/class/yago/YagoLegalActor
p53
aVhttp://dbpedia.org/class/yago/LivingPeople
p54
aVhttp://dbpedia.org/class/yago/PhysicalEntity100001930
p55
aVhttp://dbpedia.org/resource/Steve_Keirn
tp56
aa(lp57
aa(lp58
(lp59
((lp60
Vhttp://dbpedia.org/class/yago/CausalAgent100007347
p61
aVhttp://dbpedia.org/class/yago/Combatant109939313
p62
aVhttp://dbpedia.org/class/yago/LivingThing100004258
p63
aVhttp://dbpedia.org/class/yago/Object100002684
p64
aVhttp://dbpedia.org/class/yago/Organism100004475
p65
aVhttp://dbpedia.org/class/yago/Person100007846
p66
aVhttp://dbpedia.org/class/yago/Whole100003553
p67
aVhttp://dbpedia.org/class/yago/Wrestler110793168
p68
aVhttp://dbpedia.org/class/yago/YagoLegalActorGeo
p69
aVhttp://www.w3.org/2002/07/owl#Thing
p70
aVhttp://xmlns.com/foaf/0.1/Person
p71
aVhttp://dbpedia.org/ontology/Person
p72
aVhttp://www.ontologydesignpatterns.org/ont/dul/DUL.owl#Agent
p73
aVhttp://www.ontologydesignpatterns.org/ont/dul/DUL.owl#NaturalPerson
p74
aVhttp://www.wikidata.org/entity/Q13474373
p75
aVhttp://www.wikidata.org/entity/Q215627
p76
aVhttp://www.wikidata.org/entity/Q5
p77
aVhttp://dbpedia.org/ontology/Agent
p78
aVhttp://dbpedia.org/ontology/Athlete
p79
aVhttp://dbpedia.org/ontology/Wrestler
p80
aVhttp://schema.org/Person
p81
aVhttp://dbpedia.org/class/yago/EnglishProfessionalWrestlers
p82
aVhttp://dbpedia.org/class/yago/PeopleFromCodsall
p83
aVhttp://dbpedia.org/class/yago/YagoLegalActor
p84
aVhttp://dbpedia.org/class/yago/LivingPeople
p85
aVhttp://dbpedia.org/class/yago/PhysicalEntity100001930
p86
aVhttp://dbpedia.org/resource/William_Regal
tp87
aa(lp88
aa(lp89
(lp90
((lp91
Vhttp://www.w3.org/2002/07/owl#Thing
p92
aVhttp://xmlns.com/foaf/0.1/Person
p93
aVhttp://dbpedia.org/ontology/Person
p94
aVhttp://www.ontologydesignpatterns.org/ont/dul/DUL.owl#Agent
p95
aVhttp://www.ontologydesignpatterns.org/ont/dul/DUL.owl#NaturalPerson
p96
aVhttp://www.wikidata.org/entity/Q13474373
p97
aVhttp://www.wikidata.org/entity/Q215627
p98
aVhttp://www.wikidata.org/entity/Q5
p99
aVhttp://dbpedia.org/ontology/Agent
p100
aVhttp://dbpedia.org/ontology/Athlete
p101
aVhttp://dbpedia.org/ontology/Wrestler
p102
aVhttp://schema.org/Person
p103
aVhttp://dbpedia.org/resource/Stigma_(luchador)
tp104
aa(lp105
aa(lp106
(lp107
((lp108
Vhttp://dbpedia.org/class/yago/AmericanProfessionalWrestlers
p109
aVhttp://dbpedia.org/class/yago/CausalAgent100007347
p110
aVhttp://dbpedia.org/class/yago/Combatant109939313
p111
aVhttp://dbpedia.org/class/yago/LivingThing100004258
p112
aVhttp://dbpedia.org/class/yago/Object100002684
p113
aVhttp://dbpedia.org/class/yago/Organism100004475
p114
aVhttp://dbpedia.org/class/yago/Person100007846
p115
aVhttp://dbpedia.org/class/yago/Whole100003553
p116
aVhttp://dbpedia.org/class/yago/Wrestler110793168
p117
aVhttp://dbpedia.org/class/yago/YagoLegalActorGeo
p118
aVhttp://www.w3.org/2002/07/owl#Thing
p119
aVhttp://xmlns.com/foaf/0.1/Person
p120
aVhttp://dbpedia.org/ontology/Person
p121
aVhttp://www.ontologydesignpatterns.org/ont/dul/DUL.owl#Agent
p122
aVhttp://www.ontologydesignpatterns.org/ont/dul/DUL.owl#NaturalPerson
p123
aVhttp://www.wikidata.org/entity/Q13474373
p124
aVhttp://www.wikidata.org/entity/Q215627
p125
aVhttp://www.wikidata.org/entity/Q5
p126
aVhttp://dbpedia.org/ontology/Agent
p127
aVhttp://dbpedia.org/ontology/Athlete
p128
aVhttp://dbpedia.org/ontology/Wrestler
p129
aVhttp://schema.org/Person
p130
aVhttp://dbpedia.org/class/yago/YagoLegalActor
p131
aVhttp://dbpedia.org/class/yago/LivingPeople
p132
aVhttp://dbpedia.org/class/yago/MaskedWrestlers
p133
aVhttp://dbpedia.org/class/yago/PhysicalEntity100001930
p134
aVhttp://dbpedia.org/resource/Stigma_(wrestler)
tp135
aa(lp136
aa(lp137
(lp138
((lp139
Vhttp://dbpedia.org/class/yago/CausalAgent100007347
p140
aVhttp://dbpedia.org/class/yago/Combatant109939313
p141
aVhttp://dbpedia.org/class/yago/LivingThing100004258
p142
aVhttp://dbpedia.org/class/yago/Object100002684
p143
aVhttp://dbpedia.org/class/yago/Organism100004475
p144
aVhttp://dbpedia.org/class/yago/Person100007846
p145
aVhttp://dbpedia.org/class/yago/Whole100003553
p146
aVhttp://dbpedia.org/class/yago/Wrestler110793168
p147
aVhttp://dbpedia.org/class/yago/YagoLegalActorGeo
p148
aVhttp://www.w3.org/2002/07/owl#Thing
p149
aVhttp://xmlns.com/foaf/0.1/Person
p150
aVhttp://dbpedia.org/ontology/Person
p151
aVhttp://www.ontologydesignpatterns.org/ont/dul/DUL.owl#Agent
p152
aVhttp://www.ontologydesignpatterns.org/ont/dul/DUL.owl#NaturalPerson
p153
aVhttp://www.wikidata.org/entity/Q13474373
p154
aVhttp://www.wikidata.org/entity/Q215627
p155
aVhttp://www.wikidata.org/entity/Q5
p156
aVhttp://dbpedia.org/ontology/Agent
p157
aVhttp://dbpedia.org/ontology/Athlete
p158
aVhttp://dbpedia.org/ontology/Wrestler
p159
aVhttp://schema.org/Person
p160
aVhttp://umbel.org/umbel/rc/Athlete
p161
aVhttp://umbel.org/umbel/rc/Wrestler
p162
aVhttp://dbpedia.org/class/yago/PeopleFromKagoshimaPrefecture
p163
aVhttp://dbpedia.org/class/yago/YagoLegalActor
p164
aVhttp://dbpedia.org/class/yago/JapaneseProfessionalWrestlers
p165
aVhttp://dbpedia.org/class/yago/LivingPeople
p166
aVhttp://dbpedia.org/class/yago/PhysicalEntity100001930
p167
aVhttp://dbpedia.org/resource/Takahiro_Suwa
tp168
aa(lp169
aa(lp170
(lp171
a(lp172
aa(lp173
(lp174
((lp175
Vhttp://www.w3.org/2002/07/owl#Thing
p176
aVhttp://xmlns.com/foaf/0.1/Person
p177
aVhttp://dbpedia.org/ontology/Person
p178
aVhttp://www.ontologydesignpatterns.org/ont/dul/DUL.owl#Agent
p179
aVhttp://www.ontologydesignpatterns.org/ont/dul/DUL.owl#NaturalPerson
p180
aVhttp://www.wikidata.org/entity/Q13474373
p181
aVhttp://www.wikidata.org/entity/Q215627
p182
aVhttp://www.wikidata.org/entity/Q5
p183
aVhttp://dbpedia.org/ontology/Agent
p184
aVhttp://dbpedia.org/ontology/Athlete
p185
aVhttp://dbpedia.org/ontology/Wrestler
p186
aVhttp://schema.org/Person
p187
aVhttp://dbpedia.org/resource/The_Warlord_(wrestler)
tp188
aa(lp189
aa(lp190
(lp191
((lp192
Vhttp://www.w3.org/2002/07/owl#Thing
p193
aVhttp://xmlns.com/foaf/0.1/Person
p194
aVhttp://dbpedia.org/ontology/Person
p195
aVhttp://www.ontologydesignpatterns.org/ont/dul/DUL.owl#Agent
p196
aVhttp://www.ontologydesignpatterns.org/ont/dul/DUL.owl#NaturalPerson
p197
aVhttp://www.wikidata.org/entity/Q13474373
p198
aVhttp://www.wikidata.org/entity/Q215627
p199
aVhttp://www.wikidata.org/entity/Q5
p200
aVhttp://dbpedia.org/ontology/Agent
p201
aVhttp://dbpedia.org/ontology/Athlete
p202
aVhttp://dbpedia.org/ontology/Wrestler
p203
aVhttp://schema.org/Person
p204
aVhttp://dbpedia.org/resource/Thunderbolt_Patterson
tp205
aa(lp206
aa(lp207
(lp208
((lp209
Vhttp://dbpedia.org/class/yago/CanadianPeopleOfIndianDescent
p210
aVhttp://dbpedia.org/class/yago/CanadianProfessionalWrestlers
p211
aVhttp://dbpedia.org/class/yago/CausalAgent100007347
p212
aVhttp://dbpedia.org/class/yago/Combatant109939313
p213
aVhttp://dbpedia.org/class/yago/LivingThing100004258
p214
aVhttp://dbpedia.org/class/yago/Object100002684
p215
aVhttp://dbpedia.org/class/yago/Organism100004475
p216
aVhttp://dbpedia.org/class/yago/Person100007846
p217
aVhttp://dbpedia.org/class/yago/Whole100003553
p218
aVhttp://dbpedia.org/class/yago/Wrestler110793168
p219
aVhttp://dbpedia.org/class/yago/YagoLegalActorGeo
p220
aVhttp://www.w3.org/2002/07/owl#Thing
p221
aVhttp://xmlns.com/foaf/0.1/Person
p222
aVhttp://dbpedia.org/ontology/Person
p223
aVhttp://www.ontologydesignpatterns.org/ont/dul/DUL.owl#Agent
p224
aVhttp://www.ontologydesignpatterns.org/ont/dul/DUL.owl#NaturalPerson
p225
aVhttp://www.wikidata.org/entity/Q13474373
p226
aVhttp://www.wikidata.org/entity/Q215627
p227
aVhttp://www.wikidata.org/entity/Q5
p228
aVhttp://dbpedia.org/ontology/Agent
p229
aVhttp://dbpedia.org/ontology/Athlete
p230
aVhttp://dbpedia.org/ontology/Wrestler
p231
aVhttp://schema.org/Person
p232
aVhttp://dbpedia.org/class/yago/YagoLegalActor
p233
aVhttp://dbpedia.org/class/yago/LivingPeople
p234
aVhttp://dbpedia.org/class/yago/PhysicalEntity100001930
p235
aVhttp://dbpedia.org/resource/Tiger_Ali_Singh
tp236
aa(lp237
aa(lp238
(lp239
((lp240
Vhttp://dbpedia.org/class/yago/CanadianMaleProfessionalWrestlers
p241
aVhttp://dbpedia.org/class/yago/CausalAgent100007347
p242
aVhttp://dbpedia.org/class/yago/Combatant109939313
p243
aVhttp://dbpedia.org/class/yago/Emigrant110051975
p244
aVhttp://dbpedia.org/class/yago/LivingThing100004258
p245
aVhttp://dbpedia.org/class/yago/Object100002684
p246
aVhttp://dbpedia.org/class/yago/Organism100004475
p247
aVhttp://dbpedia.org/class/yago/Person100007846
p248
aVhttp://dbpedia.org/class/yago/Traveler109629752
p249
aVhttp://dbpedia.org/class/yago/Whole100003553
p250
aVhttp://dbpedia.org/class/yago/Wrestler110793168
p251
aVhttp://dbpedia.org/class/yago/YagoLegalActorGeo
p252
aVhttp://dbpedia.org/class/yago/PunjabiPeople
p253
aVhttp://www.w3.org/2002/07/owl#Thing
p254
aVhttp://xmlns.com/foaf/0.1/Person
p255
aVhttp://dbpedia.org/ontology/Person
p256
aVhttp://www.ontologydesignpatterns.org/ont/dul/DUL.owl#Agent
p257
aVhttp://www.ontologydesignpatterns.org/ont/dul/DUL.owl#NaturalPerson
p258
aVhttp://www.wikidata.org/entity/Q13474373
p259
aVhttp://www.wikidata.org/entity/Q215627
p260
aVhttp://www.wikidata.org/entity/Q5
p261
aVhttp://dbpedia.org/ontology/Agent
p262
aVhttp://dbpedia.org/ontology/Athlete
p263
aVhttp://dbpedia.org/ontology/Wrestler
p264
aVhttp://schema.org/Person
p265
aVhttp://umbel.org/umbel/rc/Athlete
p266
aVhttp://umbel.org/umbel/rc/Wrestler
p267
aVhttp://dbpedia.org/class/yago/PeopleFromLudhiana
p268
aVhttp://dbpedia.org/class/yago/PeopleFromMilton,Ontario
p269
aVhttp://dbpedia.org/class/yago/YagoLegalActor
p270
aVhttp://dbpedia.org/class/yago/IndianEmigrantsToCanada
p271
aVhttp://dbpedia.org/class/yago/IndianMaleProfessionalWrestlers
p272
aVhttp://dbpedia.org/class/yago/IndianProfessionalWrestlers
p273
aVhttp://dbpedia.org/class/yago/LivingPeople
p274
aVhttp://dbpedia.org/class/yago/Migrant110314952
p275
aVhttp://dbpedia.org/class/yago/PhysicalEntity100001930
p276
aVhttp://dbpedia.org/resource/Tiger_Jeet_Singh
tp277
aa(lp278
aa(lp279
(lp280
a(lp281
aa(lp282
(lp283
((lp284
Vhttp://www.w3.org/2002/07/owl#Thing
p285
aVhttp://xmlns.com/foaf/0.1/Person
p286
aVhttp://dbpedia.org/ontology/Person
p287
aVhttp://www.ontologydesignpatterns.org/ont/dul/DUL.owl#Agent
p288
aVhttp://www.ontologydesignpatterns.org/ont/dul/DUL.owl#NaturalPerson
p289
aVhttp://www.wikidata.org/entity/Q13474373
p290
aVhttp://www.wikidata.org/entity/Q215627
p291
aVhttp://www.wikidata.org/entity/Q5
p292
aVhttp://dbpedia.org/ontology/Agent
p293
aVhttp://dbpedia.org/ontology/Athlete
p294
aVhttp://dbpedia.org/ontology/Wrestler
p295
aVhttp://schema.org/Person
p296
aVhttp://dbpedia.org/resource/Tori_(wrestler)
tp297
aa(lp298
aa(lp299
(lp300
((lp301
Vhttp://dbpedia.org/class/yago/CausalAgent100007347
p302
aVhttp://dbpedia.org/class/yago/Combatant109939313
p303
aVhttp://dbpedia.org/class/yago/LivingThing100004258
p304
aVhttp://dbpedia.org/class/yago/Object100002684
p305
aVhttp://dbpedia.org/class/yago/Organism100004475
p306
aVhttp://dbpedia.org/class/yago/Person100007846
p307
aVhttp://dbpedia.org/class/yago/Whole100003553
p308
aVhttp://dbpedia.org/class/yago/Wrestler110793168
p309
aVhttp://dbpedia.org/class/yago/YagoLegalActorGeo
p310
aVhttp://www.w3.org/2002/07/owl#Thing
p311
aVhttp://xmlns.com/foaf/0.1/Person
p312
aVhttp://dbpedia.org/ontology/Person
p313
aVhttp://www.ontologydesignpatterns.org/ont/dul/DUL.owl#Agent
p314
aVhttp://www.ontologydesignpatterns.org/ont/dul/DUL.owl#NaturalPerson
p315
aVhttp://www.wikidata.org/entity/Q13474373
p316
aVhttp://www.wikidata.org/entity/Q215627
p317
aVhttp://www.wikidata.org/entity/Q5
p318
aVhttp://dbpedia.org/ontology/Agent
p319
aVhttp://dbpedia.org/ontology/Athlete
p320
aVhttp://dbpedia.org/ontology/Wrestler
p321
aVhttp://schema.org/Person
p322
aVhttp://umbel.org/umbel/rc/Wrestler
p323
aVhttp://dbpedia.org/class/yago/PeopleFromSaitama,Saitama
p324
aVhttp://dbpedia.org/class/yago/YagoLegalActor
p325
aVhttp://dbpedia.org/class/yago/JapaneseFemaleProfessionalWrestlers
p326
aVhttp://dbpedia.org/class/yago/LivingPeople
p327
aVhttp://dbpedia.org/class/yago/PhysicalEntity100001930
p328
aVhttp://dbpedia.org/resource/Toshiyo_Yamada
tp329
aa(lp330
aa(lp331
(lp332
a(lp333
aa(lp334
(lp335
((lp336
Vhttp://dbpedia.org/class/yago/Adult109605289
p337
aVhttp://dbpedia.org/class/yago/AfricanAmericanProfessionalWrestlers
p338
aVhttp://dbpedia.org/class/yago/AmericanProfessionalWrestlers
p339
aVhttp://dbpedia.org/class/yago/AmericanSchoolteachers
p340
aVhttp://dbpedia.org/class/yago/CausalAgent100007347
p341
aVhttp://dbpedia.org/class/yago/Combatant109939313
p342
aVhttp://dbpedia.org/class/yago/Educator110045713
p343
aVhttp://dbpedia.org/class/yago/LivingThing100004258
p344
aVhttp://dbpedia.org/class/yago/Object100002684
p345
aVhttp://dbpedia.org/class/yago/Organism100004475
p346
aVhttp://dbpedia.org/class/yago/Person100007846
p347
aVhttp://dbpedia.org/class/yago/Professional110480253
p348
aVhttp://dbpedia.org/class/yago/Schoolteacher110560352
p349
aVhttp://dbpedia.org/class/yago/Teacher110694258
p350
aVhttp://dbpedia.org/class/yago/Whole100003553
p351
aVhttp://dbpedia.org/class/yago/Wrestler110793168
p352
aVhttp://dbpedia.org/class/yago/YagoLegalActorGeo
p353
aVhttp://umbel.org/umbel/rc/Wrestler
p354
aVhttp://dbpedia.org/class/yago/PeopleFromNashville,Tennessee
p355
aVhttp://dbpedia.org/class/yago/YagoLegalActor
p356
aVhttp://dbpedia.org/class/yago/LivingPeople
p357
aVhttp://dbpedia.org/class/yago/PhysicalEntity100001930
p358
aVhttp://dbpedia.org/resource/Mike_Jones_(wrestler)
tp359
aa(lp360
aa(lp361
(lp362
((lp363
Vhttp://dbpedia.org/class/yago/Actor109765278
p364
aVhttp://dbpedia.org/class/yago/Adult109605289
p365
aVhttp://dbpedia.org/class/yago/AmericanPeopleOfRussianDescent
p366
aVhttp://dbpedia.org/class/yago/AmericanPeopleOfUkrainianDescent
p367
aVhttp://dbpedia.org/class/yago/AmericanProfessionalWrestlers
p368
aVhttp://dbpedia.org/class/yago/AmericanTelevisionActors
p369
aVhttp://dbpedia.org/class/yago/CausalAgent100007347
p370
aVhttp://dbpedia.org/class/yago/Citizen109923673
p371
aVhttp://dbpedia.org/class/yago/Combatant109939313
p372
aVhttp://dbpedia.org/class/yago/Entertainer109616922
p373
aVhttp://dbpedia.org/class/yago/LivingThing100004258
p374
aVhttp://dbpedia.org/class/yago/Object100002684
p375
aVhttp://dbpedia.org/class/yago/Organism100004475
p376
aVhttp://dbpedia.org/class/yago/Performer110415638
p377
aVhttp://dbpedia.org/class/yago/Person100007846
p378
aVhttp://dbpedia.org/class/yago/Practitioner110462860
p379
aVhttp://dbpedia.org/class/yago/Professional110480253
p380
aVhttp://dbpedia.org/class/yago/Whole100003553
p381
aVhttp://dbpedia.org/class/yago/Wrestler110793168
p382
aVhttp://dbpedia.org/class/yago/YagoLegalActorGeo
p383
aVhttp://www.w3.org/2002/07/owl#Thing
p384
aVhttp://xmlns.com/foaf/0.1/Person
p385
aVhttp://dbpedia.org/ontology/Person
p386
aVhttp://www.ontologydesignpatterns.org/ont/dul/DUL.owl#Agent
p387
aVhttp://www.ontologydesignpatterns.org/ont/dul/DUL.owl#NaturalPerson
p388
aVhttp://www.wikidata.org/entity/Q13474373
p389
aVhttp://www.wikidata.org/entity/Q215627
p390
aVhttp://www.wikidata.org/entity/Q5
p391
aVhttp://dbpedia.org/ontology/Agent
p392
aVhttp://dbpedia.org/ontology/Athlete
p393
aVhttp://dbpedia.org/ontology/Wrestler
p394
aVhttp://schema.org/Person
p395
aVhttp://dbpedia.org/class/yago/NaturalizedCitizensOfTheUnitedStates
p396
aVhttp://dbpedia.org/class/yago/YagoLegalActor
p397
aVhttp://dbpedia.org/class/yago/LivingPeople
p398
aVhttp://dbpedia.org/class/yago/National109625401
p399
aVhttp://dbpedia.org/class/yago/PhysicalEntity100001930
p400
aVhttp://dbpedia.org/class/yago/UkrainianActors
p401
aVhttp://dbpedia.org/class/yago/UkrainianProfessionalWrestlers
p402
aVhttp://dbpedia.org/class/yago/UkrainianSamboPractitioners
p403
aVhttp://dbpedia.org/resource/Vladimir_Kozlov
p404
tp405
aa(lp406
aa.