ccollections
defaultdict
p1
(c__builtin__
dict
p2
tRp3
I2
(dp4
I1
(lp5
ssI3
(dp6
I1
(lp7
ssI4
(dp8
I1
(lp9
ssI5
(dp10
I1
(lp11
ssI6
(dp12
I1
(lp13
ssI7
(dp14
I1
(lp15
ssI9
(dp16
I1
(lp17
ssI10
(dp18
I1
(lp19
ssI11
(dp20
I1
(lp21
ssI12
(dp22
I1
(lp23
ssI14
(dp24
I1
(lp25
ssI15
(dp26
I1
(lp27
ssI18
(dp28
I1
(lp29
ss.