(lp1
(lp2
(lp3
a(lp4
Vhttp://dbpedia.org/resource/Equation
p5
aa(lp6
a(lp7
aa(lp8
(lp9
a(lp10
a(lp11
a(lp12
aa(lp13
(lp14
a(lp15
a(lp16
a(lp17
aa(lp18
(lp19
a(lp20
a(lp21
a(lp22
aa(lp23
(lp24
a(lp25
a(lp26
a(lp27
Vhttp://dbpedia.org/resource/Donna_Smith_(politician)
p28
aaa(lp29
(lp30
a(lp31
Vhttp://dbpedia.org/resource/Calgary
p32
aa(lp33
a(lp34
aa(lp35
(lp36
a(lp37
a(lp38
a(lp39
Vhttp://dbpedia.org/resource/Elizabeth_Garrett_Anderson
p40
aaa(lp41
(lp42
a(lp43
a(lp44
a(lp45
aa(lp46
(lp47
a(lp48
Vhttp://dbpedia.org/resource/Calgary
p49
aa(lp50
a(lp51
aa(lp52
(lp53
a(lp54
a(lp55
a(lp56
aa(lp57
(lp58
a(lp59
Vhttp://dbpedia.org/resource/New_York
p60
aa(lp61
a(lp62
Vhttp://dbpedia.org/resource/George_Thompson_(MP)
p63
aaa(lp64
(lp65
a(lp66
a(lp67
a(lp68
Vhttp://dbpedia.org/resource/Gerald_Yonge
p69
aaa(lp70
(lp71
a(lp72
a(lp73
a(lp74
aa(lp75
(lp76
a(lp77
a(lp78
a(lp79
Vhttp://dbpedia.org/resource/Greg_Clark
p80
aaa.