(lp1
(lp2
(lp3
a(lp4
a(lp5
aa(lp6
(lp7
Vhttp://dbpedia.org/resource/HD_4391
p8
aa(lp9
a(lp10
aa(lp11
(lp12
Vhttp://dbpedia.org/resource/H_Scorpii
p13
aa(lp14
a(lp15
aa(lp16
(lp17
Vhttp://dbpedia.org/resource/Iota_Aquarii
p18
aa(lp19
a(lp20
aa(lp21
(lp22
Vhttp://dbpedia.org/resource/Kepler-29
p23
aa(lp24
a(lp25
aa(lp26
(lp27
Vhttp://dbpedia.org/resource/Omega1_Aquarii
p28
aa(lp29
a(lp30
aa(lp31
(lp32
Vhttp://dbpedia.org/resource/UGPS_J072227.51-054031.2
p33
aa(lp34
a(lp35
aa(lp36
(lp37
Vhttp://dbpedia.org/resource/W_Canis_Majoris
p38
aa(lp39
a(lp40
aa(lp41
(lp42
Vhttp://dbpedia.org/resource/Upsilon_Aurigae
p43
aa(lp44
a(lp45
aa(lp46
(lp47
Vhttp://dbpedia.org/resource/Beta_Aquilae
p48
aa(lp49
a(lp50
aa(lp51
(lp52
a(lp53
a(lp54
aa(lp55
(lp56
Vhttp://dbpedia.org/resource/BPM_37093
p57
aa(lp58
a(lp59
aa(lp60
(lp61
Vhttp://dbpedia.org/resource/Upsilon_Sagittarii
p62
aa(lp63
a(lp64
aa(lp65
(lp66
Vhttp://dbpedia.org/resource/Lambda_Sagittarii
p67
aa(lp68
a(lp69
aa(lp70
(lp71
Vhttp://dbpedia.org/resource/Lambda_Ursae_Minoris
p72
aa(lp73
a(lp74
aa(lp75
(lp76
Vhttp://dbpedia.org/resource/Radio_star
p77
aa(lp78
a(lp79
aa(lp80
(lp81
Vhttp://dbpedia.org/resource/Winnecke_4
p82
aa(lp83
a(lp84
aa(lp85
(lp86
Vhttp://dbpedia.org/resource/107_Piscium
p87
aa(lp88
a(lp89
aa(lp90
(lp91
Vhttp://dbpedia.org/resource/14_Herculis_b
p92
aa(lp93
a(lp94
aa.