ccollections
defaultdict
p1
(c__builtin__
dict
p2
tRp3
I10
(dp4
I0
(lp5
Vhttp://www.w3.org/ns/prov#wasDerivedFrom
p6
asI2
(lp7
sI3
(lp8
ssI3
(dp9
I0
(lp10
sI2
(lp11
sI3
(lp12
ssI18
(dp13
I0
(lp14
sI2
(lp15
sI3
(lp16
ss.