(lp1
(lp2
(lp3
a(lp4
a(lp5
aa(lp6
(lp7
Vhttp://dbpedia.org/resource/Henlys_Corner
p8
aa(lp9
a(lp10
aa(lp11
(lp12
a(lp13
a(lp14
aa(lp15
(lp16
Vhttp://dbpedia.org/resource/Kennedy_Interchange
p17
aa(lp18
a(lp19
aa(lp20
(lp21
Vhttp://dbpedia.org/resource/Pirwadhai_Mor_Flyover_and_Underpass
p22
aa(lp23
a(lp24
aa(lp25
(lp26
Vhttp://dbpedia.org/resource/MacArthur_Maze
p27
aa(lp28
a(lp29
aa(lp30
(lp31
Vhttp://dbpedia.org/resource/Can_of_Worms_(interchange)
p32
aa(lp33
a(lp34
aa(lp35
(lp36
Vhttp://dbpedia.org/resource/Central_Motorway_Junction
p37
aa(lp38
a(lp39
aa(lp40
(lp41
Vhttp://dbpedia.org/resource/Zero_Point_Interchange
p42
aa(lp43
a(lp44
aa(lp45
(lp46
Vhttp://dbpedia.org/resource/Chandni_Chowk_Flyover
p47
aa(lp48
a(lp49
aa(lp50
(lp51
Vhttp://dbpedia.org/resource/Kalma_Chowk_Flyover
p52
aa(lp53
a(lp54
aa(lp55
(lp56
a(lp57
a(lp58
aa(lp59
(lp60
Vhttp://dbpedia.org/resource/Victory_Circle
p61
aa(lp62
a(lp63
aa(lp64
(lp65
Vhttp://dbpedia.org/resource/Horseshoe_Project
p66
aa(lp67
a(lp68
aa(lp69
(lp70
Vhttp://dbpedia.org/resource/Ako_Adjei_Interchange
p71
aa(lp72
a(lp73
aa(lp74
(lp75
Vhttp://dbpedia.org/resource/Geha_Interchange
p76
aa(lp77
a(lp78
aa(lp79
(lp80
Vhttp://dbpedia.org/resource/Ivanja_Reka_interchange
p81
aa(lp82
a(lp83
aa(lp84
(lp85
Vhttp://dbpedia.org/resource/Jankomir_interchange
p86
aa(lp87
a(lp88
aa(lp89
(lp90
Vhttp://dbpedia.org/resource/Sredanci_interchange
p91
aa(lp92
a(lp93
aa.