(lp1
(lp2
(lp3
a(lp4
a(lp5
aa(lp6
(lp7
a(lp8
a(lp9
aa(lp10
(lp11
a(lp12
a(lp13
aa(lp14
(lp15
a(lp16
a(lp17
aa(lp18
(lp19
a(lp20
a(lp21
aa(lp22
(lp23
a(lp24
a(lp25
aa(lp26
(lp27
a(lp28
a(lp29
aa(lp30
(lp31
a(lp32
a(lp33
aa(lp34
(lp35
a(lp36
a(lp37
aa(lp38
(lp39
a(lp40
a(lp41
aa(lp42
(lp43
a(lp44
a(lp45
aa(lp46
(lp47
a(lp48
a(lp49
aa(lp50
(lp51
a(lp52
a(lp53
aa(lp54
(lp55
a(lp56
a(lp57
aa(lp58
(lp59
a(lp60
a(lp61
aa(lp62
(lp63
a(lp64
a(lp65
aa(lp66
(lp67
a(lp68
((lp69
Vhttp://dbpedia.org/class/yago/Abstraction100002137
p70
aVhttp://dbpedia.org/class/yago/Chemical114806838
p71
aVhttp://dbpedia.org/class/yago/Compound114818238
p72
aVhttp://dbpedia.org/class/yago/Macromolecule114944888
p73
aVhttp://dbpedia.org/class/yago/Material114580897
p74
aVhttp://dbpedia.org/class/yago/Matter100020827
p75
aVhttp://dbpedia.org/class/yago/OrganicCompound114727670
p76
aVhttp://dbpedia.org/class/yago/Part113809207
p77
aVhttp://dbpedia.org/class/yago/Protein114728724
p78
aVhttp://dbpedia.org/class/yago/Relation100031921
p79
aVhttp://dbpedia.org/class/yago/Substance100019613
p80
aVhttp://dbpedia.org/class/yago/Thing100002452
p81
aVhttp://dbpedia.org/class/yago/Proteins
p82
aVhttp://dbpedia.org/class/yago/Molecule114682133
p83
aVhttp://dbpedia.org/class/yago/PhysicalEntity100001930
p84
aVhttp://dbpedia.org/class/yago/Unit109465459
p85
aVhttp://dbpedia.org/resource/Prokaryotic_release_factors
tp86
aa(lp87
aa(lp88
(lp89
a(lp90
a(lp91
aa(lp92
(lp93
a(lp94
((lp95
Vhttp://www.w3.org/2002/07/owl#Thing
p96
aVhttp://dbpedia.org/ontology/Company
p97
aVhttp://www.ontologydesignpatterns.org/ont/dul/DUL.owl#Agent
p98
aVhttp://www.ontologydesignpatterns.org/ont/dul/DUL.owl#SocialPerson
p99
aVhttp://www.wikidata.org/entity/Q43229
p100
aVhttp://dbpedia.org/ontology/Agent
p101
aVhttp://dbpedia.org/ontology/Organisation
p102
aVhttp://schema.org/Organization
p103
aVhttp://umbel.org/umbel/rc/Business
p104
aVhttp://dbpedia.org/resource/Factor_5
p105
tp106
aa(lp107
aa.