(lp1
(lp2
(lp3
a(lp4
Vhttp://dbpedia.org/resource/Single-cylinder_engine
p5
aaa(lp6
(lp7
a(lp8
aa(lp9
(lp10
a(lp11
Vhttp://dbpedia.org/resource/Inline-four_engine
p12
aaa(lp13
(lp14
a(lp15
Vhttp://dbpedia.org/resource/Inline-four_engine
p16
aaa(lp17
(lp18
a(lp19
Vhttp://dbpedia.org/resource/Inline-four_engine
p20
aaa(lp21
(lp22
a(lp23
Vhttp://dbpedia.org/resource/Inline-four_engine
p24
aaa(lp25
(lp26
a(lp27
Vhttp://dbpedia.org/resource/Inline-four_engine
p28
aaa(lp29
(lp30
a(lp31
Vhttp://dbpedia.org/resource/V6_engine
p32
aaa(lp33
(lp34
a(lp35
aa(lp36
(lp37
a(lp38
Vhttp://dbpedia.org/resource/V6_engine
p39
aaa(lp40
(lp41
a(lp42
aa(lp43
(lp44
a(lp45
Vhttp://dbpedia.org/resource/Inline-four_engine
p46
aaa(lp47
(lp48
a(lp49
aa(lp50
(lp51
a(lp52
Vhttp://dbpedia.org/resource/Inline-four_engine
p53
aaa(lp54
(lp55
a(lp56
aa(lp57
(lp58
a(lp59
Vhttp://dbpedia.org/resource/Straight-six_engine
p60
aaa(lp61
(lp62
a(lp63
aa(lp64
(lp65
a(lp66
aa(lp67
(lp68
a(lp69
Vhttp://dbpedia.org/resource/Straight-six_engine
p70
aaa.