(lp1
(lp2
(lp3
((lp4
Vhttp://dbpedia.org/class/yago/Administrator109770949
p5
aVhttp://dbpedia.org/class/yago/CausalAgent100007347
p6
aVhttp://dbpedia.org/class/yago/Communicator109610660
p7
aVhttp://dbpedia.org/class/yago/Executive110069645
p8
aVhttp://dbpedia.org/class/yago/GeneralManager110125697
p9
aVhttp://dbpedia.org/class/yago/Head110162991
p10
aVhttp://dbpedia.org/class/yago/HeadOfState110164747
p11
aVhttp://dbpedia.org/class/yago/Leader109623038
p12
aVhttp://dbpedia.org/class/yago/LivingThing100004258
p13
aVhttp://dbpedia.org/class/yago/Negotiator110351874
p14
aVhttp://dbpedia.org/class/yago/Object100002684
p15
aVhttp://dbpedia.org/class/yago/Organism100004475
p16
aVhttp://dbpedia.org/class/yago/Person100007846
p17
aVhttp://dbpedia.org/class/yago/President110467179
p18
aVhttp://dbpedia.org/class/yago/Representative110522035
p19
aVhttp://dbpedia.org/class/yago/Whole100003553
p20
aVhttp://dbpedia.org/class/yago/YagoLegalActorGeo
p21
aVhttp://www.w3.org/2002/07/owl#Thing
p22
aVhttp://xmlns.com/foaf/0.1/Person
p23
aVhttp://dbpedia.org/ontology/Person
p24
aVhttp://www.ontologydesignpatterns.org/ont/dul/DUL.owl#Agent
p25
aVhttp://www.ontologydesignpatterns.org/ont/dul/DUL.owl#NaturalPerson
p26
aVhttp://www.wikidata.org/entity/Q215627
p27
aVhttp://www.wikidata.org/entity/Q5
p28
aVhttp://dbpedia.org/ontology/Agent
p29
aVhttp://dbpedia.org/ontology/AmericanFootballCoach
p30
aVhttp://dbpedia.org/ontology/Coach
p31
aVhttp://schema.org/Person
p32
aVhttp://dbpedia.org/class/yago/NationalFootballLeagueExecutives
p33
aVhttp://dbpedia.org/class/yago/NationalFootballLeagueGeneralManagers
p34
aVhttp://dbpedia.org/class/yago/NationalFootballLeagueTeamPresidents
p35
aVhttp://dbpedia.org/class/yago/PeopleFromLongBeach,California
p36
aVhttp://dbpedia.org/class/yago/PhiladelphiaEaglesExecutives
p37
aVhttp://dbpedia.org/class/yago/YagoLegalActor
p38
aVhttp://dbpedia.org/class/yago/KansasCityChiefsExecutives
p39
aVhttp://dbpedia.org/class/yago/LivingPeople
p40
aVhttp://dbpedia.org/class/yago/PhysicalEntity100001930
p41
aVhttp://dbpedia.org/resource/Carl_Peterson
tp42
aa(lp43
((lp44
Vhttp://dbpedia.org/class/yago/Athlete109820263
p45
aVhttp://dbpedia.org/class/yago/CausalAgent100007347
p46
aVhttp://dbpedia.org/class/yago/Coach109931640
p47
aVhttp://dbpedia.org/class/yago/Contestant109613191
p48
aVhttp://dbpedia.org/class/yago/FootballCoach110101202
p49
aVhttp://dbpedia.org/class/yago/FootballPlayer110101634
p50
aVhttp://dbpedia.org/class/yago/Leader109623038
p51
aVhttp://dbpedia.org/class/yago/LivingThing100004258
p52
aVhttp://dbpedia.org/class/yago/Object100002684
p53
aVhttp://dbpedia.org/class/yago/Organism100004475
p54
aVhttp://dbpedia.org/class/yago/Person100007846
p55
aVhttp://dbpedia.org/class/yago/Player110439851
p56
aVhttp://dbpedia.org/class/yago/Trainer110722575
p57
aVhttp://dbpedia.org/class/yago/Whole100003553
p58
aVhttp://dbpedia.org/class/yago/YagoLegalActorGeo
p59
aVhttp://dbpedia.org/class/yago/SanDiegoChargersCoaches
p60
aVhttp://dbpedia.org/class/yago/SeattleSeahawksCoaches
p61
aVhttp://www.w3.org/2002/07/owl#Thing
p62
aVhttp://xmlns.com/foaf/0.1/Person
p63
aVhttp://dbpedia.org/ontology/Person
p64
aVhttp://www.ontologydesignpatterns.org/ont/dul/DUL.owl#Agent
p65
aVhttp://www.ontologydesignpatterns.org/ont/dul/DUL.owl#NaturalPerson
p66
aVhttp://www.wikidata.org/entity/Q215627
p67
aVhttp://www.wikidata.org/entity/Q5
p68
aVhttp://dbpedia.org/ontology/Agent
p69
aVhttp://dbpedia.org/ontology/AmericanFootballCoach
p70
aVhttp://dbpedia.org/ontology/Coach
p71
aVhttp://schema.org/Person
p72
aVhttp://dbpedia.org/class/yago/DallasCowboysCoaches
p73
aVhttp://dbpedia.org/class/yago/PeopleFromLosAngeles,California
p74
aVhttp://dbpedia.org/class/yago/YagoLegalActor
p75
aVhttp://dbpedia.org/class/yago/HighSchoolFootballCoachesInTheUnitedStates
p76
aVhttp://dbpedia.org/class/yago/LivingPeople
p77
aVhttp://dbpedia.org/class/yago/LosAngelesRamsCoaches
p78
aVhttp://dbpedia.org/class/yago/MiamiDolphinsCoaches
p79
aVhttp://dbpedia.org/class/yago/PhysicalEntity100001930
p80
aVhttp://dbpedia.org/class/yago/USCTrojansFootballCoaches
p81
aVhttp://dbpedia.org/class/yago/USCTrojansFootballPlayers
p82
aVhttp://dbpedia.org/resource/Hudson_Houck
tp83
aa(lp84
((lp85
Vhttp://dbpedia.org/class/yago/AmericanFootballReturnSpecialists
p86
aVhttp://dbpedia.org/class/yago/CausalAgent100007347
p87
aVhttp://dbpedia.org/class/yago/Coach109931640
p88
aVhttp://dbpedia.org/class/yago/Expert109617867
p89
aVhttp://dbpedia.org/class/yago/FootballCoach110101202
p90
aVhttp://dbpedia.org/class/yago/Leader109623038
p91
aVhttp://dbpedia.org/class/yago/LivingThing100004258
p92
aVhttp://dbpedia.org/class/yago/Object100002684
p93
aVhttp://dbpedia.org/class/yago/Organism100004475
p94
aVhttp://dbpedia.org/class/yago/Person100007846
p95
aVhttp://dbpedia.org/class/yago/Specialist110631941
p96
aVhttp://dbpedia.org/class/yago/Trainer110722575
p97
aVhttp://dbpedia.org/class/yago/Whole100003553
p98
aVhttp://dbpedia.org/class/yago/YagoLegalActorGeo
p99
aVhttp://dbpedia.org/class/yago/St.LouisRamsCoaches
p100
aVhttp://www.w3.org/2002/07/owl#Thing
p101
aVhttp://xmlns.com/foaf/0.1/Person
p102
aVhttp://dbpedia.org/ontology/Person
p103
aVhttp://www.ontologydesignpatterns.org/ont/dul/DUL.owl#Agent
p104
aVhttp://www.ontologydesignpatterns.org/ont/dul/DUL.owl#NaturalPerson
p105
aVhttp://www.wikidata.org/entity/Q215627
p106
aVhttp://www.wikidata.org/entity/Q5
p107
aVhttp://dbpedia.org/ontology/Agent
p108
aVhttp://dbpedia.org/ontology/AmericanFootballCoach
p109
aVhttp://dbpedia.org/ontology/Coach
p110
aVhttp://schema.org/Person
p111
aVhttp://dbpedia.org/class/yago/CincinnatiBengalsCoaches
p112
aVhttp://dbpedia.org/class/yago/NorthernArizonaLumberjacksFootballCoaches
p113
aVhttp://dbpedia.org/class/yago/PeopleFromSantaMaria,California
p114
aVhttp://dbpedia.org/class/yago/PhiladelphiaEaglesCoaches
p115
aVhttp://dbpedia.org/class/yago/YagoLegalActor
p116
aVhttp://dbpedia.org/class/yago/GreenBayPackersCoaches
p117
aVhttp://dbpedia.org/class/yago/LivingPeople
p118
aVhttp://dbpedia.org/class/yago/MiamiRedHawksFootballCoaches
p119
aVhttp://dbpedia.org/class/yago/PhysicalEntity100001930
p120
aVhttp://dbpedia.org/class/yago/USCTrojansFootballCoaches
p121
aVhttp://dbpedia.org/resource/Ken_Zampese
tp122
aa(lp123
((lp124
Vhttp://dbpedia.org/class/yago/Administrator109770949
p125
aVhttp://dbpedia.org/class/yago/CalStateFullertonTitansFootballCoaches
p126
aVhttp://dbpedia.org/class/yago/CausalAgent100007347
p127
aVhttp://dbpedia.org/class/yago/Coach109931640
p128
aVhttp://dbpedia.org/class/yago/Defender109614684
p129
aVhttp://dbpedia.org/class/yago/Executive110069645
p130
aVhttp://dbpedia.org/class/yago/FootballCoach110101202
p131
aVhttp://dbpedia.org/class/yago/Guard110150071
p132
aVhttp://dbpedia.org/class/yago/Head110162991
p133
aVhttp://dbpedia.org/class/yago/Leader109623038
p134
aVhttp://dbpedia.org/class/yago/LivingThing100004258
p135
aVhttp://dbpedia.org/class/yago/Lookout110271216
p136
aVhttp://dbpedia.org/class/yago/Object100002684
p137
aVhttp://dbpedia.org/class/yago/Organism100004475
p138
aVhttp://dbpedia.org/class/yago/Person100007846
p139
aVhttp://dbpedia.org/class/yago/Trainer110722575
p140
aVhttp://dbpedia.org/class/yago/Watchman110770059
p141
aVhttp://dbpedia.org/class/yago/Whole100003553
p142
aVhttp://dbpedia.org/class/yago/YagoLegalActorGeo
p143
aVhttp://dbpedia.org/class/yago/St.LouisRamsScouts
p144
aVhttp://www.w3.org/2002/07/owl#Thing
p145
aVhttp://xmlns.com/foaf/0.1/Person
p146
aVhttp://dbpedia.org/ontology/Person
p147
aVhttp://www.ontologydesignpatterns.org/ont/dul/DUL.owl#Agent
p148
aVhttp://www.ontologydesignpatterns.org/ont/dul/DUL.owl#NaturalPerson
p149
aVhttp://www.wikidata.org/entity/Q215627
p150
aVhttp://www.wikidata.org/entity/Q5
p151
aVhttp://dbpedia.org/ontology/Agent
p152
aVhttp://dbpedia.org/ontology/AmericanFootballCoach
p153
aVhttp://dbpedia.org/ontology/Coach
p154
aVhttp://schema.org/Person
p155
aVhttp://dbpedia.org/class/yago/Preserver110466918
p156
aVhttp://dbpedia.org/class/yago/NationalFootballLeagueExecutives
p157
aVhttp://dbpedia.org/class/yago/NewEnglandPatriotsExecutives
p158
aVhttp://dbpedia.org/class/yago/NewEnglandPatriotsScouts
p159
aVhttp://dbpedia.org/class/yago/PeopleFromIrvine,California
p160
aVhttp://dbpedia.org/class/yago/YagoLegalActor
p161
aVhttp://dbpedia.org/class/yago/LivingPeople
p162
aVhttp://dbpedia.org/class/yago/PhysicalEntity100001930
p163
aVhttp://dbpedia.org/resource/Larry_Cook
tp164
aa(lp165
((lp166
Vhttp://dbpedia.org/class/yago/AfricanAmericanCoachesOfAmericanFootball
p167
aVhttp://dbpedia.org/class/yago/AmericanFootballLinebackers
p168
aVhttp://dbpedia.org/class/yago/ArizonaStateSunDevilsFootballCoaches
p169
aVhttp://dbpedia.org/class/yago/Athlete109820263
p170
aVhttp://dbpedia.org/class/yago/CausalAgent100007347
p171
aVhttp://dbpedia.org/class/yago/Coach109931640
p172
aVhttp://dbpedia.org/class/yago/Contestant109613191
p173
aVhttp://dbpedia.org/class/yago/FootballCoach110101202
p174
aVhttp://dbpedia.org/class/yago/FootballPlayer110101634
p175
aVhttp://dbpedia.org/class/yago/Intellectual109621545
p176
aVhttp://dbpedia.org/class/yago/Leader109623038
p177
aVhttp://dbpedia.org/class/yago/Linebacker110263002
p178
aVhttp://dbpedia.org/class/yago/LivingThing100004258
p179
aVhttp://dbpedia.org/class/yago/Object100002684
p180
aVhttp://dbpedia.org/class/yago/Organism100004475
p181
aVhttp://dbpedia.org/class/yago/Organizer110383237
p182
aVhttp://dbpedia.org/class/yago/Person100007846
p183
aVhttp://dbpedia.org/class/yago/Player110439851
p184
aVhttp://dbpedia.org/class/yago/Thinker110708454
p185
aVhttp://dbpedia.org/class/yago/Trainer110722575
p186
aVhttp://dbpedia.org/class/yago/Whole100003553
p187
aVhttp://dbpedia.org/class/yago/YagoLegalActorGeo
p188
aVhttp://dbpedia.org/class/yago/St.LouisRamsCoaches
p189
aVhttp://www.w3.org/2002/07/owl#Thing
p190
aVhttp://xmlns.com/foaf/0.1/Person
p191
aVhttp://dbpedia.org/ontology/Person
p192
aVhttp://www.ontologydesignpatterns.org/ont/dul/DUL.owl#Agent
p193
aVhttp://www.ontologydesignpatterns.org/ont/dul/DUL.owl#NaturalPerson
p194
aVhttp://www.wikidata.org/entity/Q215627
p195
aVhttp://www.wikidata.org/entity/Q5
p196
aVhttp://dbpedia.org/ontology/Agent
p197
aVhttp://dbpedia.org/ontology/AmericanFootballCoach
p198
aVhttp://dbpedia.org/ontology/Coach
p199
aVhttp://schema.org/Person
p200
aVhttp://dbpedia.org/class/yago/ChicagoBearsHeadCoaches
p201
aVhttp://dbpedia.org/class/yago/Coordinator109963914
p202
aVhttp://dbpedia.org/class/yago/NationalFootballLeagueDefensiveCoordinators
p203
aVhttp://dbpedia.org/class/yago/NationalFootballLeagueHeadCoaches
p204
aVhttp://dbpedia.org/class/yago/OhioStateBuckeyesFootballCoaches
p205
aVhttp://dbpedia.org/class/yago/YagoLegalActor
p206
aVhttp://dbpedia.org/class/yago/KentuckyWildcatsFootballCoaches
p207
aVhttp://dbpedia.org/class/yago/LivingPeople
p208
aVhttp://dbpedia.org/class/yago/PhysicalEntity100001930
p209
aVhttp://dbpedia.org/class/yago/TampaBayBuccaneersCoaches
p210
aVhttp://dbpedia.org/class/yago/TennesseeVolunteersFootballCoaches
p211
aVhttp://dbpedia.org/class/yago/TulsaGoldenHurricaneFootballCoaches
p212
aVhttp://dbpedia.org/class/yago/TulsaGoldenHurricaneFootballPlayers
p213
aVhttp://dbpedia.org/class/yago/WisconsinBadgersFootballCoaches
p214
aVhttp://dbpedia.org/resource/Lovie_Smith
tp215
aa(lp216
((lp217
Vhttp://dbpedia.org/class/yago/AmericanFootballLinebackers
p218
aVhttp://dbpedia.org/class/yago/Athlete109820263
p219
aVhttp://dbpedia.org/class/yago/CausalAgent100007347
p220
aVhttp://dbpedia.org/class/yago/Coach109931640
p221
aVhttp://dbpedia.org/class/yago/Contestant109613191
p222
aVhttp://dbpedia.org/class/yago/FootballPlayer110101634
p223
aVhttp://dbpedia.org/class/yago/GeneralManager110125697
p224
aVhttp://dbpedia.org/class/yago/Head110162991
p225
aVhttp://dbpedia.org/class/yago/Leader109623038
p226
aVhttp://dbpedia.org/class/yago/Linebacker110263002
p227
aVhttp://dbpedia.org/class/yago/LivingThing100004258
p228
aVhttp://dbpedia.org/class/yago/Object100002684
p229
aVhttp://dbpedia.org/class/yago/Organism100004475
p230
aVhttp://dbpedia.org/class/yago/Person100007846
p231
aVhttp://dbpedia.org/class/yago/Player110439851
p232
aVhttp://dbpedia.org/class/yago/Trainer110722575
p233
aVhttp://dbpedia.org/class/yago/Whole100003553
p234
aVhttp://dbpedia.org/class/yago/YagoLegalActorGeo
p235
aVhttp://dbpedia.org/class/yago/SanDiegoChargersCoaches
p236
aVhttp://www.w3.org/2002/07/owl#Thing
p237
aVhttp://xmlns.com/foaf/0.1/Person
p238
aVhttp://dbpedia.org/ontology/Person
p239
aVhttp://www.ontologydesignpatterns.org/ont/dul/DUL.owl#Agent
p240
aVhttp://www.ontologydesignpatterns.org/ont/dul/DUL.owl#NaturalPerson
p241
aVhttp://www.wikidata.org/entity/Q215627
p242
aVhttp://www.wikidata.org/entity/Q5
p243
aVhttp://dbpedia.org/ontology/Agent
p244
aVhttp://dbpedia.org/ontology/AmericanFootballCoach
p245
aVhttp://dbpedia.org/ontology/Coach
p246
aVhttp://schema.org/Person
p247
aVhttp://dbpedia.org/class/yago/NationalFootballLeagueGeneralManagers
p248
aVhttp://dbpedia.org/class/yago/NewYorkGiantsPlayers
p249
aVhttp://dbpedia.org/class/yago/YagoLegalActor
p250
aVhttp://dbpedia.org/class/yago/LivingPeople
p251
aVhttp://dbpedia.org/class/yago/LosAngelesRamsCoaches
p252
aVhttp://dbpedia.org/class/yago/LosAngelesRamsPlayers
p253
aVhttp://dbpedia.org/class/yago/PhysicalEntity100001930
p254
aVhttp://dbpedia.org/class/yago/WashingtonStateCougarsFootballPlayers
p255
aVhttp://dbpedia.org/resource/Harland_Svare
tp256
aa(lp257
a(lp258
((lp259
Vhttp://dbpedia.org/class/yago/AmericanBasketballPlayers
p260
aVhttp://dbpedia.org/class/yago/Athlete109820263
p261
aVhttp://dbpedia.org/class/yago/BasketballPlayer109842047
p262
aVhttp://dbpedia.org/class/yago/BasketballPlayersFromIllinois
p263
aVhttp://dbpedia.org/class/yago/CausalAgent100007347
p264
aVhttp://dbpedia.org/class/yago/Contestant109613191
p265
aVhttp://dbpedia.org/class/yago/Defender109614684
p266
aVhttp://dbpedia.org/class/yago/Guard110150071
p267
aVhttp://dbpedia.org/class/yago/LivingThing100004258
p268
aVhttp://dbpedia.org/class/yago/Object100002684
p269
aVhttp://dbpedia.org/class/yago/Organism100004475
p270
aVhttp://dbpedia.org/class/yago/Person100007846
p271
aVhttp://dbpedia.org/class/yago/Player110439851
p272
aVhttp://dbpedia.org/class/yago/Whole100003553
p273
aVhttp://dbpedia.org/class/yago/YagoLegalActorGeo
p274
aVhttp://dbpedia.org/class/yago/ShootingGuards
p275
aVhttp://www.w3.org/2002/07/owl#Thing
p276
aVhttp://xmlns.com/foaf/0.1/Person
p277
aVhttp://dbpedia.org/ontology/Person
p278
aVhttp://www.ontologydesignpatterns.org/ont/dul/DUL.owl#Agent
p279
aVhttp://www.ontologydesignpatterns.org/ont/dul/DUL.owl#NaturalPerson
p280
aVhttp://www.wikidata.org/entity/Q215627
p281
aVhttp://www.wikidata.org/entity/Q5
p282
aVhttp://dbpedia.org/ontology/Agent
p283
aVhttp://schema.org/Person
p284
aVhttp://dbpedia.org/class/yago/DePaulBlueDemonsMen'sBasketballPlayers
p285
aVhttp://dbpedia.org/class/yago/Preserver110466918
p286
aVhttp://dbpedia.org/class/yago/PeopleFromChicago,Illinois
p287
aVhttp://dbpedia.org/class/yago/PhoenixSunsPlayers
p288
aVhttp://dbpedia.org/class/yago/YagoLegalActor
p289
aVhttp://dbpedia.org/class/yago/GoldenStateWarriorsPlayers
p290
aVhttp://dbpedia.org/class/yago/HarlemGlobetrottersPlayers
p291
aVhttp://dbpedia.org/class/yago/JuniorCollegeMen'sBasketballPlayersInTheUnitedStates
p292
aVhttp://dbpedia.org/class/yago/LivingPeople
p293
aVhttp://dbpedia.org/class/yago/PhysicalEntity100001930
p294
aVhttp://dbpedia.org/class/yago/UndraftedNationalBasketballAssociationPlayers
p295
aVhttp://dbpedia.org/resource/Paul_McPherson
tp296
aa(lp297
((lp298
Vhttp://dbpedia.org/class/yago/AdelphiPanthersFootballCoaches
p299
aVhttp://dbpedia.org/class/yago/Alumnus109786338
p300
aVhttp://dbpedia.org/class/yago/AmericanFootballLeagueChampions
p301
aVhttp://dbpedia.org/class/yago/AmericanFootballLeagueOwners
p302
aVhttp://dbpedia.org/class/yago/Athlete109820263
p303
aVhttp://dbpedia.org/class/yago/Businessman109882007
p304
aVhttp://dbpedia.org/class/yago/Businessperson109882716
p305
aVhttp://dbpedia.org/class/yago/Capitalist109609232
p306
aVhttp://dbpedia.org/class/yago/CausalAgent100007347
p307
aVhttp://dbpedia.org/class/yago/Champion109906704
p308
aVhttp://dbpedia.org/class/yago/Coach109931640
p309
aVhttp://dbpedia.org/class/yago/Contestant109613191
p310
aVhttp://dbpedia.org/class/yago/FootballCoach110101202
p311
aVhttp://dbpedia.org/class/yago/FootballPlayer110101634
p312
aVhttp://dbpedia.org/class/yago/Intellectual109621545
p313
aVhttp://dbpedia.org/class/yago/Leader109623038
p314
aVhttp://dbpedia.org/class/yago/LivingThing100004258
p315
aVhttp://dbpedia.org/class/yago/Object100002684
p316
aVhttp://dbpedia.org/class/yago/Organism100004475
p317
aVhttp://dbpedia.org/class/yago/Owner110388924
p318
aVhttp://dbpedia.org/class/yago/Person100007846
p319
aVhttp://dbpedia.org/class/yago/Player110439851
p320
aVhttp://dbpedia.org/class/yago/Rival110533013
p321
aVhttp://dbpedia.org/class/yago/Scholar110557854
p322
aVhttp://dbpedia.org/class/yago/Trainer110722575
p323
aVhttp://dbpedia.org/class/yago/Whole100003553
p324
aVhttp://dbpedia.org/class/yago/YagoLegalActorGeo
p325
aVhttp://dbpedia.org/class/yago/SyracuseOrangeFootballPlayers
p326
aVhttp://dbpedia.org/class/yago/SyracuseUniversityAlumni
p327
aVhttp://www.w3.org/2002/07/owl#Thing
p328
aVhttp://xmlns.com/foaf/0.1/Person
p329
aVhttp://dbpedia.org/ontology/Person
p330
aVhttp://www.ontologydesignpatterns.org/ont/dul/DUL.owl#Agent
p331
aVhttp://www.ontologydesignpatterns.org/ont/dul/DUL.owl#NaturalPerson
p332
aVhttp://www.wikidata.org/entity/Q215627
p333
aVhttp://www.wikidata.org/entity/Q5
p334
aVhttp://dbpedia.org/ontology/Agent
p335
aVhttp://dbpedia.org/ontology/AmericanFootballCoach
p336
aVhttp://dbpedia.org/ontology/Coach
p337
aVhttp://schema.org/Person
p338
aVhttp://dbpedia.org/class/yago/ErasmusHallHighSchoolAlumni
p339
aVhttp://dbpedia.org/class/yago/NationalFootballLeagueHeadCoaches
p340
aVhttp://dbpedia.org/class/yago/NationalFootballLeagueOwners
p341
aVhttp://dbpedia.org/class/yago/OaklandRaidersCoaches
p342
aVhttp://dbpedia.org/class/yago/OaklandRaidersHeadCoaches
p343
aVhttp://dbpedia.org/class/yago/PeopleFromBrockton,Massachusetts
p344
aVhttp://dbpedia.org/class/yago/YagoLegalActor
p345
aVhttp://dbpedia.org/class/yago/LosAngelesChargersCoaches
p346
aVhttp://dbpedia.org/class/yago/PhysicalEntity100001930
p347
aVhttp://dbpedia.org/class/yago/TheCitadelBulldogsFootballCoaches
p348
aVhttp://dbpedia.org/class/yago/USCTrojansFootballCoaches
p349
aVhttp://dbpedia.org/resource/Al_Davis
tp350
aa(lp351
((lp352
Vhttp://dbpedia.org/class/yago/Athlete109820263
p353
aVhttp://dbpedia.org/class/yago/CarolinaPanthersCoaches
p354
aVhttp://dbpedia.org/class/yago/CausalAgent100007347
p355
aVhttp://dbpedia.org/class/yago/Coach109931640
p356
aVhttp://dbpedia.org/class/yago/Contestant109613191
p357
aVhttp://dbpedia.org/class/yago/FootballCoach110101202
p358
aVhttp://dbpedia.org/class/yago/FootballPlayer110101634
p359
aVhttp://dbpedia.org/class/yago/Leader109623038
p360
aVhttp://dbpedia.org/class/yago/LivingThing100004258
p361
aVhttp://dbpedia.org/class/yago/Object100002684
p362
aVhttp://dbpedia.org/class/yago/Organism100004475
p363
aVhttp://dbpedia.org/class/yago/Person100007846
p364
aVhttp://dbpedia.org/class/yago/Player110439851
p365
aVhttp://dbpedia.org/class/yago/Trainer110722575
p366
aVhttp://dbpedia.org/class/yago/Whole100003553
p367
aVhttp://dbpedia.org/class/yago/YagoLegalActorGeo
p368
aVhttp://dbpedia.org/class/yago/SMUMustangsFootballCoaches
p369
aVhttp://dbpedia.org/class/yago/SouthDakotaStateJackrabbitsFootballPlayers
p370
aVhttp://www.w3.org/2002/07/owl#Thing
p371
aVhttp://xmlns.com/foaf/0.1/Person
p372
aVhttp://dbpedia.org/ontology/Person
p373
aVhttp://www.ontologydesignpatterns.org/ont/dul/DUL.owl#Agent
p374
aVhttp://www.ontologydesignpatterns.org/ont/dul/DUL.owl#NaturalPerson
p375
aVhttp://www.wikidata.org/entity/Q215627
p376
aVhttp://www.wikidata.org/entity/Q5
p377
aVhttp://dbpedia.org/ontology/Agent
p378
aVhttp://dbpedia.org/ontology/AmericanFootballCoach
p379
aVhttp://dbpedia.org/ontology/Coach
p380
aVhttp://schema.org/Person
p381
aVhttp://dbpedia.org/class/yago/ClevelandBrownsCoaches
p382
aVhttp://dbpedia.org/class/yago/ColoradoStateRamsFootballCoaches
p383
aVhttp://dbpedia.org/class/yago/NCStateWolfpackFootballCoaches
p384
aVhttp://dbpedia.org/class/yago/NewEnglandPatriotsCoaches
p385
aVhttp://dbpedia.org/class/yago/NewYorkJetsCoaches
p386
aVhttp://dbpedia.org/class/yago/OklahomaStateCowboysFootballCoaches
p387
aVhttp://dbpedia.org/class/yago/PacificTigersFootballCoaches
p388
aVhttp://dbpedia.org/class/yago/PeopleFromBentonCounty,Iowa
p389
aVhttp://dbpedia.org/class/yago/YagoLegalActor
p390
aVhttp://dbpedia.org/class/yago/IndianapolisColtsCoaches
p391
aVhttp://dbpedia.org/class/yago/LivingPeople
p392
aVhttp://dbpedia.org/class/yago/PhysicalEntity100001930
p393
aVhttp://dbpedia.org/resource/Brad_Seely
tp394
aa(lp395
((lp396
Vhttp://dbpedia.org/class/yago/Academician109759069
p397
aVhttp://dbpedia.org/class/yago/Adult109605289
p398
aVhttp://dbpedia.org/class/yago/AmericanAcademics
p399
aVhttp://dbpedia.org/class/yago/AmericanAnthropologists
p400
aVhttp://dbpedia.org/class/yago/Anthropologist109796323
p401
aVhttp://dbpedia.org/class/yago/CausalAgent100007347
p402
aVhttp://dbpedia.org/class/yago/Educator110045713
p403
aVhttp://dbpedia.org/class/yago/LivingThing100004258
p404
aVhttp://dbpedia.org/class/yago/Object100002684
p405
aVhttp://dbpedia.org/class/yago/Organism100004475
p406
aVhttp://dbpedia.org/class/yago/Person100007846
p407
aVhttp://dbpedia.org/class/yago/Professional110480253
p408
aVhttp://dbpedia.org/class/yago/Scientist110560637
p409
aVhttp://dbpedia.org/class/yago/SocialScientist110619642
p410
aVhttp://dbpedia.org/class/yago/Whole100003553
p411
aVhttp://dbpedia.org/class/yago/YagoLegalActorGeo
p412
aVhttp://www.w3.org/2002/07/owl#Thing
p413
aVhttp://xmlns.com/foaf/0.1/Person
p414
aVhttp://dbpedia.org/ontology/Person
p415
aVhttp://www.ontologydesignpatterns.org/ont/dul/DUL.owl#Agent
p416
aVhttp://www.ontologydesignpatterns.org/ont/dul/DUL.owl#NaturalPerson
p417
aVhttp://www.wikidata.org/entity/Q215627
p418
aVhttp://www.wikidata.org/entity/Q5
p419
aVhttp://dbpedia.org/ontology/Agent
p420
aVhttp://schema.org/Person
p421
aVhttp://dbpedia.org/class/yago/YagoLegalActor
p422
aVhttp://dbpedia.org/class/yago/PhysicalEntity100001930
p423
aVhttp://dbpedia.org/resource/John_Embree
tp424
aa(lp425
((lp426
Vhttp://dbpedia.org/class/yago/CausalAgent100007347
p427
aVhttp://dbpedia.org/class/yago/Coach109931640
p428
aVhttp://dbpedia.org/class/yago/Leader109623038
p429
aVhttp://dbpedia.org/class/yago/LivingThing100004258
p430
aVhttp://dbpedia.org/class/yago/Object100002684
p431
aVhttp://dbpedia.org/class/yago/Organism100004475
p432
aVhttp://dbpedia.org/class/yago/Person100007846
p433
aVhttp://dbpedia.org/class/yago/Trainer110722575
p434
aVhttp://dbpedia.org/class/yago/Whole100003553
p435
aVhttp://dbpedia.org/class/yago/YagoLegalActorGeo
p436
aVhttp://www.w3.org/2002/07/owl#Thing
p437
aVhttp://xmlns.com/foaf/0.1/Person
p438
aVhttp://dbpedia.org/ontology/Person
p439
aVhttp://www.ontologydesignpatterns.org/ont/dul/DUL.owl#Agent
p440
aVhttp://www.ontologydesignpatterns.org/ont/dul/DUL.owl#NaturalPerson
p441
aVhttp://www.wikidata.org/entity/Q215627
p442
aVhttp://www.wikidata.org/entity/Q5
p443
aVhttp://dbpedia.org/ontology/Agent
p444
aVhttp://dbpedia.org/ontology/AmericanFootballCoach
p445
aVhttp://dbpedia.org/ontology/Coach
p446
aVhttp://schema.org/Person
p447
aVhttp://dbpedia.org/class/yago/NewYorkJetsCoaches
p448
aVhttp://dbpedia.org/class/yago/PeopleFromBethelPark,Pennsylvania
p449
aVhttp://dbpedia.org/class/yago/YagoLegalActor
p450
aVhttp://dbpedia.org/class/yago/LivingPeople
p451
aVhttp://dbpedia.org/class/yago/MiamiDolphinsCoaches
p452
aVhttp://dbpedia.org/class/yago/PhysicalEntity100001930
p453
aVhttp://dbpedia.org/resource/Mike_Westhoff
tp454
aa(lp455
((lp456
Vhttp://dbpedia.org/class/yago/Administrator109770949
p457
aVhttp://dbpedia.org/class/yago/Alumnus109786338
p458
aVhttp://dbpedia.org/class/yago/AmericanPeopleOfIrishDescent
p459
aVhttp://dbpedia.org/class/yago/Athlete109820263
p460
aVhttp://dbpedia.org/class/yago/Businessman109882007
p461
aVhttp://dbpedia.org/class/yago/Businessperson109882716
p462
aVhttp://dbpedia.org/class/yago/Capitalist109609232
p463
aVhttp://dbpedia.org/class/yago/CausalAgent100007347
p464
aVhttp://dbpedia.org/class/yago/Communicator109610660
p465
aVhttp://dbpedia.org/class/yago/Contestant109613191
p466
aVhttp://dbpedia.org/class/yago/Executive110069645
p467
aVhttp://dbpedia.org/class/yago/FootballPlayer110101634
p468
aVhttp://dbpedia.org/class/yago/Head110162991
p469
aVhttp://dbpedia.org/class/yago/HeadOfState110164747
p470
aVhttp://dbpedia.org/class/yago/Intellectual109621545
p471
aVhttp://dbpedia.org/class/yago/Leader109623038
p472
aVhttp://dbpedia.org/class/yago/LivingThing100004258
p473
aVhttp://dbpedia.org/class/yago/Negotiator110351874
p474
aVhttp://dbpedia.org/class/yago/Object100002684
p475
aVhttp://dbpedia.org/class/yago/Organism100004475
p476
aVhttp://dbpedia.org/class/yago/Owner110388924
p477
aVhttp://dbpedia.org/class/yago/Person100007846
p478
aVhttp://dbpedia.org/class/yago/Player110439851
p479
aVhttp://dbpedia.org/class/yago/President110467179
p480
aVhttp://dbpedia.org/class/yago/Representative110522035
p481
aVhttp://dbpedia.org/class/yago/Scholar110557854
p482
aVhttp://dbpedia.org/class/yago/Whole100003553
p483
aVhttp://dbpedia.org/class/yago/YagoLegalActorGeo
p484
aVhttp://dbpedia.org/class/yago/SteaglesPlayersAndPersonnel
p485
aVhttp://www.w3.org/2002/07/owl#Thing
p486
aVhttp://xmlns.com/foaf/0.1/Person
p487
aVhttp://dbpedia.org/ontology/Person
p488
aVhttp://www.ontologydesignpatterns.org/ont/dul/DUL.owl#Agent
p489
aVhttp://www.ontologydesignpatterns.org/ont/dul/DUL.owl#NaturalPerson
p490
aVhttp://www.wikidata.org/entity/Q215627
p491
aVhttp://www.wikidata.org/entity/Q5
p492
aVhttp://dbpedia.org/ontology/Agent
p493
aVhttp://dbpedia.org/ontology/AmericanFootballCoach
p494
aVhttp://dbpedia.org/ontology/Coach
p495
aVhttp://schema.org/Person
p496
aVhttp://dbpedia.org/class/yago/DuquesneDukesFootballPlayers
p497
aVhttp://dbpedia.org/class/yago/DuquesneUniversityAlumni
p498
aVhttp://dbpedia.org/class/yago/NationalFootballLeagueOwners
p499
aVhttp://dbpedia.org/class/yago/NationalFootballLeagueTeamPresidents
p500
aVhttp://dbpedia.org/class/yago/NationalHockeyLeagueExecutives
p501
aVhttp://dbpedia.org/class/yago/NationalHockeyLeagueOwners
p502
aVhttp://dbpedia.org/class/yago/PeopleFromAlleghenyCounty,Pennsylvania
p503
aVhttp://dbpedia.org/class/yago/PittsburghLyceum(football)Players
p504
aVhttp://dbpedia.org/class/yago/PittsburghPenguinsOwners
p505
aVhttp://dbpedia.org/class/yago/PittsburghSteelersExecutives
p506
aVhttp://dbpedia.org/class/yago/PittsburghSteelersOwners
p507
aVhttp://dbpedia.org/class/yago/PlayersOfAmericanFootballFromPennsylvania
p508
aVhttp://dbpedia.org/class/yago/YagoLegalActor
p509
aVhttp://dbpedia.org/class/yago/GeorgetownUniversityAlumni
p510
aVhttp://dbpedia.org/class/yago/PhysicalEntity100001930
p511
aVhttp://dbpedia.org/class/yago/Washington&JeffersonCollegeAlumni
p512
aVhttp://dbpedia.org/resource/Art_Rooney
tp513
aa(lp514
((lp515
Vhttp://dbpedia.org/class/yago/Athlete109820263
p516
aVhttp://dbpedia.org/class/yago/BaltimoreRavensCoaches
p517
aVhttp://dbpedia.org/class/yago/BoiseStateBroncosFootballCoaches
p518
aVhttp://dbpedia.org/class/yago/CausalAgent100007347
p519
aVhttp://dbpedia.org/class/yago/Coach109931640
p520
aVhttp://dbpedia.org/class/yago/Contestant109613191
p521
aVhttp://dbpedia.org/class/yago/FootballCoach110101202
p522
aVhttp://dbpedia.org/class/yago/FootballPlayer110101634
p523
aVhttp://dbpedia.org/class/yago/Leader109623038
p524
aVhttp://dbpedia.org/class/yago/LivingThing100004258
p525
aVhttp://dbpedia.org/class/yago/Object100002684
p526
aVhttp://dbpedia.org/class/yago/Organism100004475
p527
aVhttp://dbpedia.org/class/yago/Person100007846
p528
aVhttp://dbpedia.org/class/yago/Player110439851
p529
aVhttp://dbpedia.org/class/yago/Trainer110722575
p530
aVhttp://dbpedia.org/class/yago/Whole100003553
p531
aVhttp://dbpedia.org/class/yago/YagoLegalActorGeo
p532
aVhttp://www.w3.org/2002/07/owl#Thing
p533
aVhttp://xmlns.com/foaf/0.1/Person
p534
aVhttp://dbpedia.org/ontology/Person
p535
aVhttp://www.ontologydesignpatterns.org/ont/dul/DUL.owl#Agent
p536
aVhttp://www.ontologydesignpatterns.org/ont/dul/DUL.owl#NaturalPerson
p537
aVhttp://www.wikidata.org/entity/Q215627
p538
aVhttp://www.wikidata.org/entity/Q5
p539
aVhttp://dbpedia.org/ontology/Agent
p540
aVhttp://dbpedia.org/ontology/AmericanFootballCoach
p541
aVhttp://dbpedia.org/ontology/Coach
p542
aVhttp://schema.org/Person
p543
aVhttp://dbpedia.org/class/yago/ClevelandBrownsCoaches
p544
aVhttp://dbpedia.org/class/yago/EastCarolinaPiratesFootballCoaches
p545
aVhttp://dbpedia.org/class/yago/NorthCarolinaTarHeelsFootballCoaches
p546
aVhttp://dbpedia.org/class/yago/OaklandRaidersCoaches
p547
aVhttp://dbpedia.org/class/yago/PeopleFromBoulder,Colorado
p548
aVhttp://dbpedia.org/class/yago/YagoLegalActor
p549
aVhttp://dbpedia.org/class/yago/IndianapolisColtsCoaches
p550
aVhttp://dbpedia.org/class/yago/LivingPeople
p551
aVhttp://dbpedia.org/class/yago/MiamiHurricanesFootballCoaches
p552
aVhttp://dbpedia.org/class/yago/PhysicalEntity100001930
p553
aVhttp://dbpedia.org/class/yago/UNLVRebelsFootballCoaches
p554
aVhttp://dbpedia.org/class/yago/USCTrojansFootballCoaches
p555
aVhttp://dbpedia.org/class/yago/WyomingCowboysFootballPlayers
p556
aVhttp://dbpedia.org/resource/Chuck_Pagano
tp557
aa(lp558
((lp559
Vhttp://dbpedia.org/class/yago/Athlete109820263
p560
aVhttp://dbpedia.org/class/yago/BucknellBisonFootballPlayers
p561
aVhttp://dbpedia.org/class/yago/CausalAgent100007347
p562
aVhttp://dbpedia.org/class/yago/Coach109931640
p563
aVhttp://dbpedia.org/class/yago/Contestant109613191
p564
aVhttp://dbpedia.org/class/yago/FootballCoach110101202
p565
aVhttp://dbpedia.org/class/yago/FootballPlayer110101634
p566
aVhttp://dbpedia.org/class/yago/Leader109623038
p567
aVhttp://dbpedia.org/class/yago/LivingThing100004258
p568
aVhttp://dbpedia.org/class/yago/Object100002684
p569
aVhttp://dbpedia.org/class/yago/Organism100004475
p570
aVhttp://dbpedia.org/class/yago/Person100007846
p571
aVhttp://dbpedia.org/class/yago/Player110439851
p572
aVhttp://dbpedia.org/class/yago/Trainer110722575
p573
aVhttp://dbpedia.org/class/yago/Whole100003553
p574
aVhttp://dbpedia.org/class/yago/YagoLegalActorGeo
p575
aVhttp://dbpedia.org/class/yago/RutgersScarletKnightsFootballCoaches
p576
aVhttp://www.w3.org/2002/07/owl#Thing
p577
aVhttp://xmlns.com/foaf/0.1/Person
p578
aVhttp://dbpedia.org/ontology/Person
p579
aVhttp://www.ontologydesignpatterns.org/ont/dul/DUL.owl#Agent
p580
aVhttp://www.ontologydesignpatterns.org/ont/dul/DUL.owl#NaturalPerson
p581
aVhttp://www.wikidata.org/entity/Q215627
p582
aVhttp://www.wikidata.org/entity/Q5
p583
aVhttp://dbpedia.org/ontology/Agent
p584
aVhttp://dbpedia.org/ontology/AmericanFootballCoach
p585
aVhttp://dbpedia.org/ontology/Coach
p586
aVhttp://schema.org/Person
p587
aVhttp://umbel.org/umbel/rc/Manager
p588
aVhttp://dbpedia.org/class/yago/ChicagoBearsCoaches
p589
aVhttp://dbpedia.org/class/yago/PennStateNittanyLionsFootballCoaches
p590
aVhttp://dbpedia.org/class/yago/YagoLegalActor
p591
aVhttp://dbpedia.org/class/yago/HighSchoolFootballCoachesInTheUnitedStates
p592
aVhttp://dbpedia.org/class/yago/LivingPeople
p593
aVhttp://dbpedia.org/class/yago/MiamiHurricanesFootballCoaches
p594
aVhttp://dbpedia.org/class/yago/PhysicalEntity100001930
p595
aVhttp://dbpedia.org/class/yago/TampaBayBuccaneersHeadCoaches
p596
aVhttp://dbpedia.org/resource/Greg_Schiano
tp597
aa(lp598
((lp599
Vhttp://dbpedia.org/class/yago/AfricanAmericanCoachesOfAmericanFootball
p600
aVhttp://dbpedia.org/class/yago/Athlete109820263
p601
aVhttp://dbpedia.org/class/yago/AtlantaFalconsCoaches
p602
aVhttp://dbpedia.org/class/yago/CausalAgent100007347
p603
aVhttp://dbpedia.org/class/yago/Coach109931640
p604
aVhttp://dbpedia.org/class/yago/Contestant109613191
p605
aVhttp://dbpedia.org/class/yago/FootballPlayer110101634
p606
aVhttp://dbpedia.org/class/yago/Intellectual109621545
p607
aVhttp://dbpedia.org/class/yago/Leader109623038
p608
aVhttp://dbpedia.org/class/yago/LivingThing100004258
p609
aVhttp://dbpedia.org/class/yago/Object100002684
p610
aVhttp://dbpedia.org/class/yago/Organism100004475
p611
aVhttp://dbpedia.org/class/yago/Organizer110383237
p612
aVhttp://dbpedia.org/class/yago/Person100007846
p613
aVhttp://dbpedia.org/class/yago/Player110439851
p614
aVhttp://dbpedia.org/class/yago/Thinker110708454
p615
aVhttp://dbpedia.org/class/yago/Trainer110722575
p616
aVhttp://dbpedia.org/class/yago/Whole100003553
p617
aVhttp://dbpedia.org/class/yago/YagoLegalActorGeo
p618
aVhttp://www.w3.org/2002/07/owl#Thing
p619
aVhttp://xmlns.com/foaf/0.1/Person
p620
aVhttp://dbpedia.org/ontology/Person
p621
aVhttp://www.ontologydesignpatterns.org/ont/dul/DUL.owl#Agent
p622
aVhttp://www.ontologydesignpatterns.org/ont/dul/DUL.owl#NaturalPerson
p623
aVhttp://www.wikidata.org/entity/Q215627
p624
aVhttp://www.wikidata.org/entity/Q5
p625
aVhttp://dbpedia.org/ontology/Agent
p626
aVhttp://dbpedia.org/ontology/AmericanFootballCoach
p627
aVhttp://dbpedia.org/ontology/Coach
p628
aVhttp://schema.org/Person
p629
aVhttp://dbpedia.org/class/yago/ClevelandBrownsCoaches
p630
aVhttp://dbpedia.org/class/yago/ClevelandBrownsHeadCoaches
p631
aVhttp://dbpedia.org/class/yago/Coordinator109963914
p632
aVhttp://dbpedia.org/class/yago/NationalFootballLeagueHeadCoaches
p633
aVhttp://dbpedia.org/class/yago/NationalFootballLeagueOffensiveCoordinators
p634
aVhttp://dbpedia.org/class/yago/OaklandRaidersCoaches
p635
aVhttp://dbpedia.org/class/yago/OaklandRaidersPlayers
p636
aVhttp://dbpedia.org/class/yago/PeopleFromNewOrleans,Louisiana
p637
aVhttp://dbpedia.org/class/yago/PeopleFromSt.JohnTheBaptistParish,Louisiana
p638
aVhttp://dbpedia.org/class/yago/PlayersOfAmericanFootballFromLouisiana
p639
aVhttp://dbpedia.org/class/yago/YagoLegalActor
p640
aVhttp://dbpedia.org/class/yago/LSUTigersFootballPlayers
p641
aVhttp://dbpedia.org/class/yago/LivingPeople
p642
aVhttp://dbpedia.org/class/yago/MiamiDolphinsCoaches
p643
aVhttp://dbpedia.org/class/yago/MiamiDolphinsPlayers
p644
aVhttp://dbpedia.org/class/yago/PhysicalEntity100001930
p645
aVhttp://dbpedia.org/class/yago/WashingtonRedskinsCoaches
p646
aVhttp://dbpedia.org/class/yago/WashingtonRedskinsHeadCoaches
p647
aVhttp://dbpedia.org/resource/Terry_Robiskie
tp648
aa(lp649
((lp650
Vhttp://dbpedia.org/class/yago/AmericanLatterDaySaints
p651
aVhttp://dbpedia.org/class/yago/Athlete109820263
p652
aVhttp://dbpedia.org/class/yago/BYUCougarsFootballPlayers
p653
aVhttp://dbpedia.org/class/yago/CausalAgent100007347
p654
aVhttp://dbpedia.org/class/yago/Coach109931640
p655
aVhttp://dbpedia.org/class/yago/Contestant109613191
p656
aVhttp://dbpedia.org/class/yago/Convert109962414
p657
aVhttp://dbpedia.org/class/yago/FootballCoach110101202
p658
aVhttp://dbpedia.org/class/yago/FootballPlayer110101634
p659
aVhttp://dbpedia.org/class/yago/GoodPerson110138767
p660
aVhttp://dbpedia.org/class/yago/Leader109623038
p661
aVhttp://dbpedia.org/class/yago/LivingThing100004258
p662
aVhttp://dbpedia.org/class/yago/Object100002684
p663
aVhttp://dbpedia.org/class/yago/Organism100004475
p664
aVhttp://dbpedia.org/class/yago/Person100007846
p665
aVhttp://dbpedia.org/class/yago/Player110439851
p666
aVhttp://dbpedia.org/class/yago/Saint110546850
p667
aVhttp://dbpedia.org/class/yago/Trainer110722575
p668
aVhttp://dbpedia.org/class/yago/Whole100003553
p669
aVhttp://dbpedia.org/class/yago/YagoLegalActorGeo
p670
aVhttp://dbpedia.org/class/yago/SanFranciscoStateGatorsFootballCoaches
p671
aVhttp://www.w3.org/2002/07/owl#Thing
p672
aVhttp://xmlns.com/foaf/0.1/Person
p673
aVhttp://dbpedia.org/ontology/Person
p674
aVhttp://www.ontologydesignpatterns.org/ont/dul/DUL.owl#Agent
p675
aVhttp://www.ontologydesignpatterns.org/ont/dul/DUL.owl#NaturalPerson
p676
aVhttp://www.wikidata.org/entity/Q215627
p677
aVhttp://www.wikidata.org/entity/Q5
p678
aVhttp://dbpedia.org/ontology/Agent
p679
aVhttp://dbpedia.org/ontology/AmericanFootballCoach
p680
aVhttp://dbpedia.org/ontology/Coach
p681
aVhttp://schema.org/Person
p682
aVhttp://dbpedia.org/class/yago/ConvertsToMormonism
p683
aVhttp://dbpedia.org/class/yago/NationalFootballLeagueHeadCoaches
p684
aVhttp://dbpedia.org/class/yago/NorthernArizonaLumberjacksFootballCoaches
p685
aVhttp://dbpedia.org/class/yago/PeopleFromLosAngeles,California
p686
aVhttp://dbpedia.org/class/yago/PhiladelphiaEaglesHeadCoaches
p687
aVhttp://dbpedia.org/class/yago/YagoLegalActor
p688
aVhttp://dbpedia.org/class/yago/GreenBayPackersCoaches
p689
aVhttp://dbpedia.org/class/yago/LivingPeople
p690
aVhttp://dbpedia.org/class/yago/MissouriTigersFootballCoaches
p691
aVhttp://dbpedia.org/class/yago/PhysicalEntity100001930
p692
aVhttp://dbpedia.org/class/yago/UTEPMinersFootballCoaches
p693
aVhttp://dbpedia.org/resource/Andy_Reid
tp694
aa(lp695
((lp696
Vhttp://www.w3.org/2002/07/owl#Thing
p697
aVhttp://xmlns.com/foaf/0.1/Person
p698
aVhttp://dbpedia.org/ontology/Person
p699
aVhttp://www.ontologydesignpatterns.org/ont/dul/DUL.owl#Agent
p700
aVhttp://www.ontologydesignpatterns.org/ont/dul/DUL.owl#NaturalPerson
p701
aVhttp://www.wikidata.org/entity/Q14128148
p702
aVhttp://www.wikidata.org/entity/Q215627
p703
aVhttp://www.wikidata.org/entity/Q5
p704
aVhttp://dbpedia.org/ontology/Agent
p705
aVhttp://dbpedia.org/ontology/Athlete
p706
aVhttp://dbpedia.org/ontology/GridironFootballPlayer
p707
aVhttp://schema.org/Person
p708
aVhttp://dbpedia.org/resource/Ernie_Green
tp709
aa(lp710
((lp711
Vhttp://dbpedia.org/class/yago/AfricanAmericanCoachesOfAmericanFootball
p712
aVhttp://dbpedia.org/class/yago/CausalAgent100007347
p713
aVhttp://dbpedia.org/class/yago/Coach109931640
p714
aVhttp://dbpedia.org/class/yago/FootballCoach110101202
p715
aVhttp://dbpedia.org/class/yago/Leader109623038
p716
aVhttp://dbpedia.org/class/yago/LivingThing100004258
p717
aVhttp://dbpedia.org/class/yago/Object100002684
p718
aVhttp://dbpedia.org/class/yago/Organism100004475
p719
aVhttp://dbpedia.org/class/yago/Person100007846
p720
aVhttp://dbpedia.org/class/yago/Trainer110722575
p721
aVhttp://dbpedia.org/class/yago/Whole100003553
p722
aVhttp://dbpedia.org/class/yago/YagoLegalActorGeo
p723
aVhttp://dbpedia.org/class/yago/RutgersScarletKnightsFootballCoaches
p724
aVhttp://www.w3.org/2002/07/owl#Thing
p725
aVhttp://xmlns.com/foaf/0.1/Person
p726
aVhttp://dbpedia.org/ontology/Person
p727
aVhttp://www.ontologydesignpatterns.org/ont/dul/DUL.owl#Agent
p728
aVhttp://www.ontologydesignpatterns.org/ont/dul/DUL.owl#NaturalPerson
p729
aVhttp://www.wikidata.org/entity/Q215627
p730
aVhttp://www.wikidata.org/entity/Q5
p731
aVhttp://dbpedia.org/ontology/Agent
p732
aVhttp://dbpedia.org/ontology/AmericanFootballCoach
p733
aVhttp://dbpedia.org/ontology/Coach
p734
aVhttp://schema.org/Person
p735
aVhttp://dbpedia.org/class/yago/DallasCowboysCoaches
p736
aVhttp://dbpedia.org/class/yago/OaklandRaidersCoaches
p737
aVhttp://dbpedia.org/class/yago/YagoLegalActor
p738
aVhttp://dbpedia.org/class/yago/LivingPeople
p739
aVhttp://dbpedia.org/class/yago/MichiganStateSpartansFootballCoaches
p740
aVhttp://dbpedia.org/class/yago/PhysicalEntity100001930
p741
aVhttp://dbpedia.org/class/yago/UCLABruinsFootballCoaches
p742
aVhttp://dbpedia.org/resource/Skip_Peete
p743
tp744
aaa.