(lp1
(lp2
(lp3
a(lp4
a(lp5
((lp6
Vhttp://www.w3.org/2002/07/owl#Thing
p7
aVhttp://www.ontologydesignpatterns.org/ont/dul/DUL.owl#InformationObject
p8
aVhttp://www.wikidata.org/entity/Q386724
p9
aVhttp://dbpedia.org/ontology/BiologicalDatabase
p10
aVhttp://dbpedia.org/ontology/Database
p11
aVhttp://dbpedia.org/ontology/Work
p12
aVhttp://schema.org/CreativeWork
p13
aVhttp://dbpedia.org/resource/ExtraTrain
tp14
aa(lp15
aa(lp16
(lp17
a(lp18
a(lp19
((lp20
Vhttp://dbpedia.org/class/yago/Abstraction100002137
p21
aVhttp://dbpedia.org/class/yago/Chemical114806838
p22
aVhttp://dbpedia.org/class/yago/Compound114818238
p23
aVhttp://dbpedia.org/class/yago/Macromolecule114944888
p24
aVhttp://dbpedia.org/class/yago/Material114580897
p25
aVhttp://dbpedia.org/class/yago/Matter100020827
p26
aVhttp://dbpedia.org/class/yago/OrganicCompound114727670
p27
aVhttp://dbpedia.org/class/yago/Part113809207
p28
aVhttp://dbpedia.org/class/yago/Protein114728724
p29
aVhttp://dbpedia.org/class/yago/Relation100031921
p30
aVhttp://dbpedia.org/class/yago/Substance100019613
p31
aVhttp://dbpedia.org/class/yago/Thing100002452
p32
aVhttp://www.w3.org/2002/07/owl#Thing
p33
aVhttp://www.ontologydesignpatterns.org/ont/dul/DUL.owl#InformationObject
p34
aVhttp://www.wikidata.org/entity/Q386724
p35
aVhttp://dbpedia.org/ontology/BiologicalDatabase
p36
aVhttp://dbpedia.org/ontology/Database
p37
aVhttp://dbpedia.org/ontology/Work
p38
aVhttp://schema.org/CreativeWork
p39
aVhttp://dbpedia.org/class/yago/Cytokines
p40
aVhttp://dbpedia.org/class/yago/Cytokine114828193
p41
aVhttp://dbpedia.org/class/yago/Molecule114682133
p42
aVhttp://dbpedia.org/class/yago/PhysicalEntity100001930
p43
aVhttp://dbpedia.org/class/yago/Unit109465459
p44
aVhttp://dbpedia.org/resource/Interferome
tp45
aa(lp46
aa(lp47
(lp48
a(lp49
a(lp50
((lp51
Vhttp://www.w3.org/2002/07/owl#Thing
p52
aVhttp://www.ontologydesignpatterns.org/ont/dul/DUL.owl#InformationObject
p53
aVhttp://www.wikidata.org/entity/Q386724
p54
aVhttp://dbpedia.org/ontology/BiologicalDatabase
p55
aVhttp://dbpedia.org/ontology/Database
p56
aVhttp://dbpedia.org/ontology/Work
p57
aVhttp://schema.org/CreativeWork
p58
aVhttp://dbpedia.org/resource/OriDB
tp59
aa(lp60
aa(lp61
(lp62
a(lp63
a(lp64
((lp65
Vhttp://www.w3.org/2002/07/owl#Thing
p66
aVhttp://www.ontologydesignpatterns.org/ont/dul/DUL.owl#InformationObject
p67
aVhttp://www.wikidata.org/entity/Q386724
p68
aVhttp://dbpedia.org/ontology/BiologicalDatabase
p69
aVhttp://dbpedia.org/ontology/Database
p70
aVhttp://dbpedia.org/ontology/Work
p71
aVhttp://schema.org/CreativeWork
p72
aVhttp://dbpedia.org/resource/Biomolecule_stretching_database
tp73
aa(lp74
aa(lp75
(lp76
a(lp77
a(lp78
((lp79
Vhttp://dbpedia.org/class/yago/LivingThing100004258
p80
aVhttp://dbpedia.org/class/yago/Microorganism101326291
p81
aVhttp://dbpedia.org/class/yago/Object100002684
p82
aVhttp://dbpedia.org/class/yago/Organism100004475
p83
aVhttp://dbpedia.org/class/yago/Protoctist101387065
p84
aVhttp://dbpedia.org/class/yago/Protozoan101389507
p85
aVhttp://dbpedia.org/class/yago/Whole100003553
p86
aVhttp://www.w3.org/2002/07/owl#Thing
p87
aVhttp://www.ontologydesignpatterns.org/ont/dul/DUL.owl#InformationObject
p88
aVhttp://www.wikidata.org/entity/Q386724
p89
aVhttp://dbpedia.org/ontology/BiologicalDatabase
p90
aVhttp://dbpedia.org/ontology/Database
p91
aVhttp://dbpedia.org/ontology/Work
p92
aVhttp://schema.org/CreativeWork
p93
aVhttp://dbpedia.org/class/yago/Ciliates
p94
aVhttp://dbpedia.org/class/yago/Ciliate101395254
p95
aVhttp://dbpedia.org/class/yago/PhysicalEntity100001930
p96
aVhttp://dbpedia.org/resource/ParameciumDB
tp97
aa(lp98
aa(lp99
(lp100
a(lp101
a(lp102
((lp103
Vhttp://www.w3.org/2002/07/owl#Thing
p104
aVhttp://www.ontologydesignpatterns.org/ont/dul/DUL.owl#InformationObject
p105
aVhttp://www.wikidata.org/entity/Q386724
p106
aVhttp://dbpedia.org/ontology/BiologicalDatabase
p107
aVhttp://dbpedia.org/ontology/Database
p108
aVhttp://dbpedia.org/ontology/Work
p109
aVhttp://schema.org/CreativeWork
p110
aVhttp://dbpedia.org/resource/GISSD
tp111
aa(lp112
aa(lp113
(lp114
a(lp115
a(lp116
a(lp117
aa(lp118
(lp119
a(lp120
a(lp121
((lp122
Vhttp://dbpedia.org/class/yago/Abstraction100002137
p123
aVhttp://dbpedia.org/class/yago/Act100030358
p124
aVhttp://dbpedia.org/class/yago/Activity100407535
p125
aVhttp://dbpedia.org/class/yago/Event100029378
p126
aVhttp://dbpedia.org/class/yago/Service100577525
p127
aVhttp://dbpedia.org/class/yago/Work100575741
p128
aVhttp://www.w3.org/2002/07/owl#Thing
p129
aVhttp://www.ontologydesignpatterns.org/ont/dul/DUL.owl#InformationObject
p130
aVhttp://www.wikidata.org/entity/Q386724
p131
aVhttp://dbpedia.org/ontology/BiologicalDatabase
p132
aVhttp://dbpedia.org/ontology/Database
p133
aVhttp://dbpedia.org/ontology/Work
p134
aVhttp://schema.org/CreativeWork
p135
aVhttp://dbpedia.org/class/yago/PsychologicalFeature100023100
p136
aVhttp://dbpedia.org/class/yago/YagoPermanentlyLocatedEntity
p137
aVhttp://dbpedia.org/class/yago/WebServices
p138
aVhttp://dbpedia.org/resource/Plasmapper
tp139
aa(lp140
aa(lp141
(lp142
a(lp143
a(lp144
a(lp145
aa(lp146
(lp147
a(lp148
a(lp149
a(lp150
aa(lp151
(lp152
a(lp153
a(lp154
((lp155
Vhttp://www.w3.org/2002/07/owl#Thing
p156
aVhttp://www.ontologydesignpatterns.org/ont/dul/DUL.owl#InformationObject
p157
aVhttp://www.wikidata.org/entity/Q386724
p158
aVhttp://dbpedia.org/ontology/BiologicalDatabase
p159
aVhttp://dbpedia.org/ontology/Database
p160
aVhttp://dbpedia.org/ontology/Work
p161
aVhttp://schema.org/CreativeWork
p162
aVhttp://dbpedia.org/resource/RegulonDB
tp163
aa(lp164
aa(lp165
(lp166
a(lp167
a(lp168
((lp169
Vhttp://www.w3.org/2002/07/owl#Thing
p170
aVhttp://www.ontologydesignpatterns.org/ont/dul/DUL.owl#InformationObject
p171
aVhttp://www.wikidata.org/entity/Q386724
p172
aVhttp://dbpedia.org/ontology/BiologicalDatabase
p173
aVhttp://dbpedia.org/ontology/Database
p174
aVhttp://dbpedia.org/ontology/Work
p175
aVhttp://schema.org/CreativeWork
p176
aVhttp://dbpedia.org/resource/Allele_frequency_net_database
tp177
aa(lp178
aa(lp179
(lp180
a(lp181
a(lp182
((lp183
Vhttp://www.w3.org/2002/07/owl#Thing
p184
aVhttp://www.ontologydesignpatterns.org/ont/dul/DUL.owl#InformationObject
p185
aVhttp://www.wikidata.org/entity/Q386724
p186
aVhttp://dbpedia.org/ontology/BiologicalDatabase
p187
aVhttp://dbpedia.org/ontology/Database
p188
aVhttp://dbpedia.org/ontology/Work
p189
aVhttp://schema.org/CreativeWork
p190
aVhttp://dbpedia.org/resource/Orthologous_MAtrix
tp191
aa(lp192
aa(lp193
(lp194
a(lp195
a(lp196
a(lp197
aa(lp198
(lp199
a(lp200
a(lp201
((lp202
Vhttp://www.w3.org/2002/07/owl#Thing
p203
aVhttp://www.ontologydesignpatterns.org/ont/dul/DUL.owl#InformationObject
p204
aVhttp://www.wikidata.org/entity/Q386724
p205
aVhttp://dbpedia.org/ontology/BiologicalDatabase
p206
aVhttp://dbpedia.org/ontology/Database
p207
aVhttp://dbpedia.org/ontology/Work
p208
aVhttp://schema.org/CreativeWork
p209
aVhttp://dbpedia.org/resource/Community_Cyberinfrastructure_for_Advanced_Microbial_Ecology_Research_and_Analysis
tp210
aa(lp211
aa(lp212
(lp213
a(lp214
a(lp215
((lp216
Vhttp://dbpedia.org/class/yago/Artifact100021939
p217
aVhttp://dbpedia.org/class/yago/Decoration103169390
p218
aVhttp://dbpedia.org/class/yago/Design103178782
p219
aVhttp://dbpedia.org/class/yago/Motif103789014
p220
aVhttp://dbpedia.org/class/yago/Object100002684
p221
aVhttp://dbpedia.org/class/yago/Whole100003553
p222
aVhttp://dbpedia.org/class/yago/ProteinStructuralMotifs
p223
aVhttp://www.w3.org/2002/07/owl#Thing
p224
aVhttp://www.ontologydesignpatterns.org/ont/dul/DUL.owl#InformationObject
p225
aVhttp://www.wikidata.org/entity/Q386724
p226
aVhttp://dbpedia.org/ontology/BiologicalDatabase
p227
aVhttp://dbpedia.org/ontology/Database
p228
aVhttp://dbpedia.org/ontology/Work
p229
aVhttp://schema.org/CreativeWork
p230
aVhttp://dbpedia.org/class/yago/PhysicalEntity100001930
p231
aVhttp://dbpedia.org/resource/Eukaryotic_Linear_Motif_resource
tp232
aa(lp233
aa(lp234
(lp235
a(lp236
a(lp237
((lp238
Vhttp://www.w3.org/2002/07/owl#Thing
p239
aVhttp://www.ontologydesignpatterns.org/ont/dul/DUL.owl#InformationObject
p240
aVhttp://www.wikidata.org/entity/Q386724
p241
aVhttp://dbpedia.org/ontology/BiologicalDatabase
p242
aVhttp://dbpedia.org/ontology/Database
p243
aVhttp://dbpedia.org/ontology/Work
p244
aVhttp://schema.org/CreativeWork
p245
aVhttp://dbpedia.org/resource/Experimental_Factor_Ontology
tp246
aa(lp247
aa(lp248
(lp249
a(lp250
a(lp251
((lp252
Vhttp://dbpedia.org/class/yago/Abstraction100002137
p253
aVhttp://dbpedia.org/class/yago/Cognition100023271
p254
aVhttp://dbpedia.org/class/yago/Component105868954
p255
aVhttp://dbpedia.org/class/yago/Concept105835747
p256
aVhttp://dbpedia.org/class/yago/Content105809192
p257
aVhttp://dbpedia.org/class/yago/Idea105833840
p258
aVhttp://dbpedia.org/class/yago/Part105867413
p259
aVhttp://www.w3.org/2002/07/owl#Thing
p260
aVhttp://www.ontologydesignpatterns.org/ont/dul/DUL.owl#InformationObject
p261
aVhttp://www.wikidata.org/entity/Q386724
p262
aVhttp://dbpedia.org/ontology/BiologicalDatabase
p263
aVhttp://dbpedia.org/ontology/Database
p264
aVhttp://dbpedia.org/ontology/Work
p265
aVhttp://schema.org/CreativeWork
p266
aVhttp://dbpedia.org/class/yago/PsychologicalFeature100023100
p267
aVhttp://dbpedia.org/class/yago/MobileGeneticElements
p268
aVhttp://dbpedia.org/resource/Islander_(database)
tp269
aa(lp270
aa(lp271
(lp272
a(lp273
a(lp274
((lVhttp://dbpedia.org/resource/Mouse_Phenome_Database
p275
tp276
aa(lp277
aa.