(lp1
(dp2
I0
(dp3
I0
(lp4
sI1
(lp5
Vhttp://dbpedia.org/property/domain
p6
aVhttp://dbpedia.org/ontology/domain
p7
asI2
(lp8
sI3
(lp9
Vhttp://xmlns.com/foaf/0.1/primaryTopic
p10
aVhttp://dbpedia.org/property/genus
p11
aVhttp://www.w3.org/2000/01/rdf-schema#comment
p12
aVhttp://dbpedia.org/ontology/abstract
p13
aVhttp://dbpedia.org/property/binomial
p14
aVhttp://dbpedia.org/property/name
p15
aVhttp://xmlns.com/foaf/0.1/name
p16
aVhttp://dbpedia.org/ontology/genus
p17
aVhttp://xmlns.com/foaf/0.1/isPrimaryTopicOf
p18
aVhttp://www.w3.org/ns/prov#wasDerivedFrom
p19
aVhttp://www.w3.org/2000/01/rdf-schema#label
p20
asI4
(lp21
Vhttp://www.w3.org/ns/prov#wasDerivedFrom
p22
asI5
(lp23
Vhttp://dbpedia.org/property/binomialAuthority
p24
asI6
(lp25
sI7
(lp26
Vhttp://dbpedia.org/property/familia
p27
aVhttp://dbpedia.org/ontology/family
p28
asI8
(lp29
Vhttp://dbpedia.org/property/phylum
p30
aVhttp://dbpedia.org/ontology/phylum
p31
aVhttp://dbpedia.org/ontology/class
p32
aVhttp://dbpedia.org/property/classis
p33
assI1
(dp34
I0
g5
sI1
(lp35
sI2
(lp36
sI3
(lp37
Vhttp://dbpedia.org/property/domain
p38
aVhttp://dbpedia.org/ontology/domain
p39
asI4
(lp40
sI5
(lp41
sI6
(lp42
Vhttp://dbpedia.org/property/domain
p43
aVhttp://dbpedia.org/ontology/domain
p44
asI7
(lp45
sI8
(lp46
ssI2
(dp47
I0
g8
sI1
g36
sI2
(lp48
sI3
(lp49
sI4
(lp50
sI5
(lp51
sI6
(lp52
sI7
(lp53
sI8
(lp54
ssI3
(dp55
I0
g9
sI1
g37
sI2
g49
sI3
(lp56
sI4
(lp57
sI5
(lp58
Vhttp://dbpedia.org/property/typeSpeciesAuthority
p59
aVhttp://dbpedia.org/ontology/abstract
p60
aVhttp://www.w3.org/2000/01/rdf-schema#comment
p61
asI6
(lp62
sI7
(lp63
Vhttp://dbpedia.org/property/familia
p64
aVhttp://dbpedia.org/ontology/family
p65
asI8
(lp66
Vhttp://dbpedia.org/property/phylum
p67
aVhttp://dbpedia.org/ontology/phylum
p68
aVhttp://dbpedia.org/ontology/class
p69
aVhttp://dbpedia.org/property/classis
p70
assI4
(dp71
I0
g21
sI1
g40
sI2
g50
sI3
g57
sI4
(lp72
sI5
(lp73
sI6
(lp74
Vhttp://www.w3.org/ns/prov#wasDerivedFrom
p75
asI7
(lp76
sI8
(lp77
ssI5
(dp78
I0
g23
sI1
g41
sI2
g51
sI3
g58
sI4
g73
sI5
(lp79
sI6
(lp80
Vhttp://dbpedia.org/property/binomialAuthority
p81
asI7
(lp82
sI8
(lp83
ssI6
(dp84
I1
g42
sI2
g52
sI3
g62
sI4
g74
sI5
g80
sI6
(lp85
sI7
(lp86
Vhttp://dbpedia.org/property/familia
p87
aVhttp://dbpedia.org/ontology/family
p88
asI8
(lp89
Vhttp://dbpedia.org/property/phylum
p90
aVhttp://dbpedia.org/ontology/phylum
p91
aVhttp://dbpedia.org/ontology/class
p92
aVhttp://dbpedia.org/property/classis
p93
assI7
(dp94
I0
g26
sI1
g45
sI2
g53
sI3
g63
sI4
g76
sI5
g82
sI6
g86
sI7
(lp95
sI8
(lp96
ssI8
(dp97
I0
g29
sI1
g46
sI2
g54
sI3
g66
sI4
g77
sI5
g83
sI6
g89
sI7
g96
sI8
(lp98
ssa(dp99
I0
(dp100
I0
(lp101
sI1
(lp102
Vhttp://dbpedia.org/property/domain
p103
aVhttp://dbpedia.org/ontology/domain
p104
asI2
(lp105
sI3
(lp106
sI4
(lp107
Vhttp://www.w3.org/ns/prov#wasDerivedFrom
p108
asI5
(lp109
Vhttp://dbpedia.org/property/binomialAuthority
p110
asI6
(lp111
sI7
(lp112
Vhttp://dbpedia.org/property/familia
p113
aVhttp://dbpedia.org/ontology/family
p114
asI8
(lp115
Vhttp://dbpedia.org/property/phylum
p116
aVhttp://dbpedia.org/property/classis
p117
assI1
(dp118
I0
g102
sI1
(lp119
sI2
(lp120
sI3
(lp121
sI4
(lp122
sI5
(lp123
sI6
(lp124
Vhttp://dbpedia.org/property/domain
p125
aVhttp://dbpedia.org/ontology/domain
p126
asI7
(lp127
sI8
(lp128
Vhttp://dbpedia.org/property/domain
p129
aVhttp://dbpedia.org/ontology/domain
p130
assI2
(dp131
I0
g105
sI1
g120
sI2
(lp132
sI3
(lp133
sI4
(lp134
sI5
(lp135
sI6
(lp136
sI7
(lp137
sI8
(lp138
ssI3
(dp139
I0
g106
sI1
g121
sI2
g133
sI3
(lp140
sI4
(lp141
sI5
(lp142
sI6
(lp143
sI7
(lp144
sI8
(lp145
ssI4
(dp146
I0
g107
sI1
g122
sI2
g134
sI3
g141
sI4
(lp147
sI5
(lp148
sI6
(lp149
Vhttp://www.w3.org/ns/prov#wasDerivedFrom
p150
asI7
(lp151
sI8
(lp152
ssI5
(dp153
I0
g109
sI1
g123
sI2
g135
sI3
g142
sI4
g148
sI5
(lp154
sI6
(lp155
Vhttp://dbpedia.org/property/binomialAuthority
p156
asI7
(lp157
sI8
(lp158
ssI6
(dp159
I1
g124
sI2
g136
sI3
g143
sI4
g149
sI5
g155
sI6
(lp160
sI7
(lp161
Vhttp://dbpedia.org/property/familia
p162
aVhttp://dbpedia.org/ontology/family
p163
asI8
(lp164
Vhttp://dbpedia.org/property/phylum
p165
aVhttp://dbpedia.org/property/classis
p166
assI7
(dp167
I0
g112
sI1
g127
sI2
g137
sI3
g144
sI4
g151
sI5
g157
sI6
g161
sI7
(lp168
sI8
(lp169
ssI8
(dp170
I0
g115
sI1
g128
sI2
g138
sI3
g145
sI4
g152
sI5
g158
sI6
g164
sI7
g169
sI8
(lp171
ssa(dp172
I0
(dp173
I0
(lp174
sI1
(lp175
sI2
(lp176
sI3
(lp177
sI4
(lp178
Vhttp://www.w3.org/ns/prov#wasDerivedFrom
p179
asI5
(lp180
Vhttp://dbpedia.org/property/binomialAuthority
p181
asI6
(lp182
sI7
(lp183
sI8
(lp184
Vhttp://dbpedia.org/ontology/class
p185
aVhttp://dbpedia.org/property/classis
p186
assI1
(dp187
I0
g175
sI1
(lp188
sI2
(lp189
sI3
(lp190
sI4
(lp191
sI5
(lp192
sI6
(lp193
sI7
(lp194
sI8
(lp195
ssI2
(dp196
I0
g176
sI1
g189
sI2
(lp197
sI3
(lp198
sI4
(lp199
sI5
(lp200
sI6
(lp201
sI7
(lp202
sI8
(lp203
ssI3
(dp204
I0
g177
sI2
g198
sI3
(lp205
sI4
(lp206
sI5
(lp207
sI6
(lp208
sI7
(lp209
sI8
(lp210
ssI4
(dp211
I0
g178
sI1
g191
sI2
g199
sI3
g206
sI4
(lp212
sI5
(lp213
sI6
(lp214
Vhttp://www.w3.org/ns/prov#wasDerivedFrom
p215
asI7
(lp216
sI8
(lp217
ssI5
(dp218
I0
g180
sI1
g192
sI2
g200
sI3
g207
sI4
g213
sI5
(lp219
sI6
(lp220
Vhttp://dbpedia.org/property/binomialAuthority
p221
asI7
(lp222
sI8
(lp223
ssI6
(dp224
I1
g193
sI2
g201
sI3
g208
sI4
g214
sI5
g220
sI6
(lp225
sI7
(lp226
sI8
(lp227
Vhttp://dbpedia.org/ontology/class
p228
aVhttp://dbpedia.org/property/classis
p229
assI7
(dp230
I0
g183
sI2
g202
sI4
g216
sI5
g222
sI6
g226
sI7
(lp231
sI8
(lp232
ssI8
(dp233
I0
g184
sI1
g195
sI2
g203
sI3
g210
sI4
g217
sI5
g223
sI6
g227
sI7
g232
sI8
(lp234
ssa(dp235
I0
(dp236
I0
(lp237
sI1
(lp238
sI2
(lp239
sI3
(lp240
sI4
(lp241
Vhttp://www.w3.org/ns/prov#wasDerivedFrom
p242
asI5
(lp243
sI6
(lp244
sI7
(lp245
sI8
(lp246
ssI1
(dp247
I0
g238
sI1
(lp248
sI2
(lp249
sI3
(lp250
sI4
(lp251
sI5
(lp252
sI6
(lp253
sI7
(lp254
sI8
(lp255
ssI2
(dp256
I0
g239
sI1
g249
sI2
(lp257
sI3
(lp258
sI4
(lp259
sI5
(lp260
sI6
(lp261
sI7
(lp262
sI8
(lp263
ssI3
(dp264
I0
g240
sI2
g258
sI3
(lp265
sI4
(lp266
sI5
(lp267
sI6
(lp268
sI7
(lp269
sI8
(lp270
ssI4
(dp271
I0
g241
sI1
g251
sI2
g259
sI3
g266
sI4
(lp272
sI5
(lp273
sI6
(lp274
sI7
(lp275
sI8
(lp276
ssI5
(dp277
I0
g243
sI2
g260
sI4
g273
sI5
(lp278
sI6
(lp279
sI7
(lp280
sI8
(lp281
ssI6
(dp282
I0
g244
sI2
g261
sI4
g274
sI6
(lp283
sI7
(lp284
sI8
(lp285
ssI7
(dp286
I0
g245
sI8
(lp287
sI2
g262
sI4
g275
sI7
(lp288
ssI8
(dp289
I0
g246
sI8
(lp290
sI2
g263
sI4
g276
ssa(dp291
I0
(dp292
I0
(lp293
sI1
(lp294
sI2
(lp295
sI3
(lp296
sI4
(lp297
Vhttp://www.w3.org/ns/prov#wasDerivedFrom
p298
asI5
(lp299
sI6
(lp300
sI7
(lp301
sI8
(lp302
ssI1
(dp303
I0
g294
sI1
(lp304
sI2
(lp305
sI3
(lp306
sI4
(lp307
sI5
(lp308
sI6
(lp309
sI7
(lp310
sI8
(lp311
ssI2
(dp312
I0
g295
sI1
g305
sI2
(lp313
sI3
(lp314
sI4
(lp315
sI5
(lp316
sI6
(lp317
sI7
(lp318
sI8
(lp319
ssI3
(dp320
I0
g296
sI2
g314
sI3
(lp321
sI4
(lp322
sI5
(lp323
sI6
(lp324
sI7
(lp325
sI8
(lp326
ssI4
(dp327
I0
g297
sI1
g307
sI2
g315
sI3
g322
sI4
(lp328
sI5
(lp329
sI6
(lp330
sI7
(lp331
sI8
(lp332
ssI5
(dp333
I0
g299
sI2
g316
sI4
g329
sI5
(lp334
sI6
(lp335
sI7
(lp336
sI8
(lp337
ssI6
(dp338
I0
g300
sI2
g317
sI4
g330
sI6
(lp339
sI7
(lp340
sI8
(lp341
ssI7
(dp342
I0
g301
sI8
(lp343
sI2
g318
sI4
g331
sI7
(lp344
ssI8
(dp345
I0
g302
sI8
(lp346
sI2
g319
sI4
g332
ssa(dp347
I0
(dp348
I0
(lp349
sI1
(lp350
sI2
(lp351
sI3
(lp352
sI4
(lp353
sI5
(lp354
sI6
(lp355
sI7
(lp356
sI8
(lp357
ssI1
(dp358
I0
g350
sI1
(lp359
sI2
(lp360
sI3
(lp361
sI4
(lp362
sI5
(lp363
sI6
(lp364
sI7
(lp365
sI8
(lp366
ssI2
(dp367
I0
g351
sI2
(lp368
sI3
(lp369
sI4
(lp370
sI5
(lp371
sI6
(lp372
sI7
(lp373
sI8
(lp374
ssI3
(dp375
I0
g352
sI3
(lp376
sI4
(lp377
sI5
(lp378
sI6
(lp379
sI7
(lp380
sI8
(lp381
ssI4
(dp382
I0
g353
sI4
(lp383
sI5
(lp384
sI6
(lp385
sI7
(lp386
sI8
(lp387
ssI5
(dp388
I0
g354
sI8
(lp389
sI5
(lp390
sI6
(lp391
sI7
(lp392
ssI6
(dp393
I0
g355
sI8
(lp394
sI6
(lp395
sI7
(lp396
ssI7
(dp397
I0
g356
sI8
(lp398
sI7
(lp399
ssI8
(dp400
I0
g357
sI8
(lp401
ssa(dp402
I0
(dp403
I0
(lp404
sI1
(lp405
sI2
(lp406
sI3
(lp407
sI4
(lp408
sI5
(lp409
sI6
(lp410
sI7
(lp411
sI8
(lp412
ssI1
(dp413
I0
g405
sI1
(lp414
sI2
(lp415
sI3
(lp416
sI4
(lp417
sI5
(lp418
sI6
(lp419
sI7
(lp420
sI8
(lp421
ssI2
(dp422
I0
g406
sI1
g415
sI2
(lp423
sI3
(lp424
sI4
(lp425
sI5
(lp426
sI6
(lp427
sI7
(lp428
sI8
(lp429
ssI3
(dp430
I0
g407
sI2
g424
sI3
(lp431
sI4
(lp432
sI5
(lp433
sI6
(lp434
sI7
(lp435
sI8
(lp436
ssI4
(dp437
I0
g408
sI2
g425
sI4
(lp438
sI5
(lp439
sI6
(lp440
sI7
(lp441
sI8
(lp442
ssI5
(dp443
I0
g409
sI2
g426
sI5
(lp444
sI6
(lp445
sI7
(lp446
sI8
(lp447
ssI6
(dp448
I0
g410
sI8
(lp449
sI2
g427
sI6
(lp450
sI7
(lp451
ssI7
(dp452
I0
g411
sI8
(lp453
sI2
g428
sI7
(lp454
ssI8
(dp455
I0
g412
sI8
(lp456
sI2
g429
ssa(dp457
I0
(dp458
I0
(lp459
sI1
(lp460
sI2
(lp461
sI3
(lp462
sI4
(lp463
Vhttp://www.w3.org/ns/prov#wasDerivedFrom
p464
asI5
(lp465
sI6
(lp466
sI7
(lp467
sI8
(lp468
ssI1
(dp469
I0
g460
sI1
(lp470
sI2
(lp471
sI3
(lp472
sI4
(lp473
sI5
(lp474
sI6
(lp475
sI7
(lp476
sI8
(lp477
ssI2
(dp478
I0
g461
sI1
g471
sI2
(lp479
sI3
(lp480
sI4
(lp481
sI5
(lp482
sI6
(lp483
sI7
(lp484
sI8
(lp485
ssI3
(dp486
I0
g462
sI2
g480
sI3
(lp487
sI4
(lp488
sI5
(lp489
sI6
(lp490
sI7
(lp491
sI8
(lp492
ssI4
(dp493
I0
g463
sI1
g473
sI2
g481
sI3
g488
sI4
(lp494
sI5
(lp495
sI6
(lp496
sI7
(lp497
sI8
(lp498
ssI5
(dp499
I0
g465
sI2
g482
sI4
g495
sI5
(lp500
sI6
(lp501
sI7
(lp502
sI8
(lp503
ssI6
(dp504
I0
g466
sI2
g483
sI4
g496
sI6
(lp505
sI7
(lp506
sI8
(lp507
ssI7
(dp508
I0
g467
sI8
(lp509
sI2
g484
sI4
g497
sI7
(lp510
ssI8
(dp511
I0
g468
sI8
(lp512
sI2
g485
sI4
g498
ssa(dp513
I0
(dp514
I0
(lp515
sI1
(lp516
sI2
(lp517
sI3
(lp518
sI4
(lp519
Vhttp://www.w3.org/ns/prov#wasDerivedFrom
p520
asI5
(lp521
Vhttp://dbpedia.org/property/binomialAuthority
p522
asI6
(lp523
sI7
(lp524
sI8
(lp525
ssI1
(dp526
I0
g516
sI1
(lp527
sI2
(lp528
sI3
(lp529
sI4
(lp530
sI5
(lp531
sI6
(lp532
sI7
(lp533
sI8
(lp534
ssI2
(dp535
I0
g517
sI1
g528
sI2
(lp536
sI3
(lp537
sI4
(lp538
sI5
(lp539
sI6
(lp540
sI7
(lp541
sI8
(lp542
ssI3
(dp543
I0
g518
sI2
g537
sI3
(lp544
sI4
(lp545
sI5
(lp546
sI6
(lp547
sI7
(lp548
sI8
(lp549
ssI4
(dp550
I0
g519
sI1
g530
sI2
g538
sI3
g545
sI4
(lp551
sI5
(lp552
sI6
(lp553
Vhttp://www.w3.org/ns/prov#wasDerivedFrom
p554
asI7
(lp555
sI8
(lp556
ssI5
(dp557
I0
g521
sI1
g531
sI2
g539
sI3
g546
sI4
g552
sI5
(lp558
sI6
(lp559
Vhttp://dbpedia.org/property/binomialAuthority
p560
asI7
(lp561
sI8
(lp562
ssI6
(dp563
I1
g532
sI2
g540
sI3
g547
sI4
g553
sI5
g559
sI6
(lp564
sI7
(lp565
sI8
(lp566
ssI7
(dp567
I0
g524
sI2
g541
sI4
g555
sI5
g561
sI6
g565
sI7
(lp568
sI8
(lp569
ssI8
(dp570
I0
g525
sI2
g542
sI4
g556
sI5
g562
sI6
g566
sI8
(lp571
ssa(dp572
I0
(dp573
I0
(lp574
sI1
(lp575
sI2
(lp576
sI3
(lp577
sI4
(lp578
Vhttp://www.w3.org/ns/prov#wasDerivedFrom
p579
asI5
(lp580
sI6
(lp581
sI7
(lp582
sI8
(lp583
ssI1
(dp584
I0
g575
sI1
(lp585
sI2
(lp586
sI3
(lp587
sI4
(lp588
sI5
(lp589
sI6
(lp590
sI7
(lp591
sI8
(lp592
ssI2
(dp593
I0
g576
sI1
g586
sI2
(lp594
sI3
(lp595
sI4
(lp596
sI5
(lp597
sI6
(lp598
sI7
(lp599
sI8
(lp600
ssI3
(dp601
I0
g577
sI2
g595
sI3
(lp602
sI4
(lp603
sI5
(lp604
sI6
(lp605
sI7
(lp606
sI8
(lp607
ssI4
(dp608
I0
g578
sI1
g588
sI2
g596
sI3
g603
sI4
(lp609
sI5
(lp610
sI6
(lp611
sI7
(lp612
sI8
(lp613
ssI5
(dp614
I0
g580
sI2
g597
sI4
g610
sI5
(lp615
sI6
(lp616
sI7
(lp617
sI8
(lp618
ssI6
(dp619
I0
g581
sI2
g598
sI4
g611
sI6
(lp620
sI7
(lp621
sI8
(lp622
ssI7
(dp623
I0
g582
sI8
(lp624
sI2
g599
sI4
g612
sI7
(lp625
ssI8
(dp626
I0
g583
sI8
(lp627
sI2
g600
sI4
g613
ssa(dp628
I0
(dp629
I0
(lp630
sI1
(lp631
Vhttp://dbpedia.org/property/domain
p632
aVhttp://dbpedia.org/ontology/domain
p633
asI2
(lp634
sI3
(lp635
sI4
(lp636
Vhttp://www.w3.org/ns/prov#wasDerivedFrom
p637
asI5
(lp638
Vhttp://dbpedia.org/property/binomialAuthority
p639
asI6
(lp640
sI7
(lp641
sI8
(lp642
Vhttp://dbpedia.org/property/familia
p643
aVhttp://dbpedia.org/property/phylum
p644
aVhttp://dbpedia.org/ontology/class
p645
aVhttp://dbpedia.org/ontology/family
p646
aVhttp://dbpedia.org/property/classis
p647
aVhttp://dbpedia.org/ontology/phylum
p648
assI1
(dp649
I0
g631
sI1
(lp650
sI2
(lp651
sI3
(lp652
sI4
(lp653
sI5
(lp654
sI6
(lp655
Vhttp://dbpedia.org/property/domain
p656
aVhttp://dbpedia.org/ontology/domain
p657
asI7
(lp658
sI8
(lp659
ssI2
(dp660
I0
g634
sI1
g651
sI2
(lp661
sI3
(lp662
sI4
(lp663
sI5
(lp664
sI6
(lp665
sI7
(lp666
sI8
(lp667
ssI3
(dp668
I0
g635
sI1
g652
sI2
g662
sI3
(lp669
sI4
(lp670
sI5
(lp671
sI6
(lp672
sI7
(lp673
sI8
(lp674
ssI4
(dp675
I0
g636
sI1
g653
sI2
g663
sI3
g670
sI4
(lp676
sI5
(lp677
sI6
(lp678
Vhttp://www.w3.org/ns/prov#wasDerivedFrom
p679
asI7
(lp680
sI8
(lp681
ssI5
(dp682
I0
g638
sI1
g654
sI2
g664
sI3
g671
sI4
g677
sI5
(lp683
sI6
(lp684
Vhttp://dbpedia.org/property/binomialAuthority
p685
asI7
(lp686
sI8
(lp687
ssI6
(dp688
I1
g655
sI2
g665
sI3
g672
sI4
g678
sI5
g684
sI6
(lp689
sI7
(lp690
sI8
(lp691
Vhttp://dbpedia.org/property/familia
p692
aVhttp://dbpedia.org/property/phylum
p693
aVhttp://dbpedia.org/ontology/class
p694
aVhttp://dbpedia.org/ontology/family
p695
aVhttp://dbpedia.org/property/classis
p696
aVhttp://dbpedia.org/ontology/phylum
p697
assI7
(dp698
I0
g641
sI1
g658
sI2
g666
sI4
g680
sI5
g686
sI6
g690
sI7
(lp699
sI8
(lp700
ssI8
(dp701
I0
g642
sI1
g659
sI2
g667
sI3
g674
sI4
g681
sI5
g687
sI6
g691
sI7
g700
sI8
(lp702
ssa(dp703
I0
(dp704
I0
(lp705
sI1
(lp706
Vhttp://dbpedia.org/property/domain
p707
aVhttp://dbpedia.org/ontology/domain
p708
asI2
(lp709
sI3
(lp710
sI4
(lp711
Vhttp://www.w3.org/ns/prov#wasDerivedFrom
p712
asI5
(lp713
Vhttp://dbpedia.org/property/binomialAuthority
p714
asI6
(lp715
sI7
(lp716
Vhttp://dbpedia.org/property/familia
p717
aVhttp://dbpedia.org/ontology/family
p718
asI8
(lp719
Vhttp://dbpedia.org/property/ordo
p720
aVhttp://dbpedia.org/property/classis
p721
aVhttp://dbpedia.org/ontology/order
p722
aVhttp://dbpedia.org/ontology/class
p723
assI1
(dp724
I0
g706
sI1
(lp725
sI2
(lp726
sI3
(lp727
sI4
(lp728
sI5
(lp729
sI6
(lp730
Vhttp://dbpedia.org/property/domain
p731
aVhttp://dbpedia.org/ontology/domain
p732
asI7
(lp733
sI8
(lp734
ssI2
(dp735
I0
g709
sI1
g726
sI2
(lp736
sI3
(lp737
sI4
(lp738
sI5
(lp739
sI6
(lp740
sI7
(lp741
sI8
(lp742
ssI3
(dp743
I0
g710
sI1
g727
sI2
g737
sI3
(lp744
sI4
(lp745
sI5
(lp746
sI6
(lp747
sI7
(lp748
sI8
(lp749
ssI4
(dp750
I0
g711
sI1
g728
sI2
g738
sI3
g745
sI4
(lp751
sI5
(lp752
sI6
(lp753
Vhttp://www.w3.org/ns/prov#wasDerivedFrom
p754
asI7
(lp755
sI8
(lp756
ssI5
(dp757
I0
g713
sI1
g729
sI2
g739
sI3
g746
sI4
g752
sI5
(lp758
sI6
(lp759
Vhttp://dbpedia.org/property/binomialAuthority
p760
asI7
(lp761
sI8
(lp762
ssI6
(dp763
I1
g730
sI2
g740
sI3
g747
sI4
g753
sI5
g759
sI6
(lp764
sI7
(lp765
Vhttp://dbpedia.org/property/familia
p766
aVhttp://dbpedia.org/ontology/family
p767
asI8
(lp768
Vhttp://dbpedia.org/property/ordo
p769
aVhttp://dbpedia.org/property/classis
p770
aVhttp://dbpedia.org/ontology/order
p771
aVhttp://dbpedia.org/ontology/class
p772
assI7
(dp773
I0
g716
sI1
g733
sI2
g741
sI3
g748
sI4
g755
sI5
g761
sI6
g765
sI7
(lp774
sI8
(lp775
ssI8
(dp776
I0
g719
sI1
g734
sI2
g742
sI3
g749
sI4
g756
sI5
g762
sI6
g768
sI7
g775
sI8
(lp777
ssa(dp778
I0
(dp779
I0
(lp780
sI1
(lp781
Vhttp://dbpedia.org/property/regnum
p782
aVhttp://dbpedia.org/ontology/kingdom
p783
aVhttp://dbpedia.org/property/domain
p784
aVhttp://dbpedia.org/ontology/domain
p785
asI2
(lp786
sI3
(lp787
sI4
(lp788
Vhttp://www.w3.org/ns/prov#wasDerivedFrom
p789
asI5
(lp790
Vhttp://dbpedia.org/property/binomialAuthority
p791
asI6
(lp792
sI7
(lp793
Vhttp://dbpedia.org/property/familia
p794
aVhttp://dbpedia.org/ontology/family
p795
asI8
(lp796
Vhttp://dbpedia.org/ontology/class
p797
aVhttp://dbpedia.org/property/classis
p798
assI1
(dp799
I0
g781
sI1
(lp800
sI2
(lp801
sI3
(lp802
sI4
(lp803
sI5
(lp804
sI6
(lp805
Vhttp://dbpedia.org/property/regnum
p806
aVhttp://dbpedia.org/ontology/kingdom
p807
aVhttp://dbpedia.org/property/domain
p808
aVhttp://dbpedia.org/ontology/domain
p809
asI7
(lp810
sI8
(lp811
ssI2
(dp812
I0
g786
sI1
g801
sI2
(lp813
sI3
(lp814
sI4
(lp815
sI5
(lp816
sI6
(lp817
sI7
(lp818
sI8
(lp819
ssI3
(dp820
I0
g787
sI1
g802
sI2
g814
sI3
(lp821
sI4
(lp822
sI5
(lp823
sI6
(lp824
sI7
(lp825
sI8
(lp826
ssI4
(dp827
I0
g788
sI1
g803
sI2
g815
sI3
g822
sI4
(lp828
sI5
(lp829
sI6
(lp830
Vhttp://www.w3.org/ns/prov#wasDerivedFrom
p831
asI7
(lp832
sI8
(lp833
ssI5
(dp834
I0
g790
sI1
g804
sI2
g816
sI3
g823
sI4
g829
sI5
(lp835
sI6
(lp836
Vhttp://dbpedia.org/property/binomialAuthority
p837
asI7
(lp838
sI8
(lp839
ssI6
(dp840
I1
g805
sI2
g817
sI3
g824
sI4
g830
sI5
g836
sI6
(lp841
sI7
(lp842
Vhttp://dbpedia.org/property/familia
p843
aVhttp://dbpedia.org/ontology/family
p844
asI8
(lp845
Vhttp://dbpedia.org/ontology/class
p846
aVhttp://dbpedia.org/property/classis
p847
assI7
(dp848
I0
g793
sI1
g810
sI2
g818
sI3
g825
sI4
g832
sI5
g838
sI6
g842
sI7
(lp849
sI8
(lp850
ssI8
(dp851
I0
g796
sI1
g811
sI2
g819
sI3
g826
sI4
g833
sI5
g839
sI6
g845
sI7
g850
sI8
(lp852
ssa(dp853
I0
(dp854
I0
(lp855
sI1
(lp856
sI2
(lp857
sI3
(lp858
sI4
(lp859
sI5
(lp860
sI6
(lp861
sI7
(lp862
sI8
(lp863
ssI1
(dp864
I0
g856
sI1
(lp865
sI2
(lp866
sI3
(lp867
sI4
(lp868
sI5
(lp869
sI6
(lp870
sI7
(lp871
sI8
(lp872
ssI2
(dp873
I0
g857
sI2
(lp874
sI3
(lp875
sI4
(lp876
sI5
(lp877
sI6
(lp878
sI7
(lp879
sI8
(lp880
ssI3
(dp881
I0
g858
sI3
(lp882
sI4
(lp883
sI5
(lp884
sI6
(lp885
sI7
(lp886
sI8
(lp887
ssI4
(dp888
I0
g859
sI4
(lp889
sI5
(lp890
sI6
(lp891
sI7
(lp892
sI8
(lp893
ssI5
(dp894
I0
g860
sI8
(lp895
sI5
(lp896
sI6
(lp897
sI7
(lp898
ssI6
(dp899
I0
g861
sI8
(lp900
sI6
(lp901
sI7
(lp902
ssI7
(dp903
I0
g862
sI8
(lp904
sI7
(lp905
ssI8
(dp906
I0
g863
sI8
(lp907
ssa(dp908
I0
(dp909
I0
(lp910
sI1
(lp911
Vhttp://dbpedia.org/property/domain
p912
aVhttp://dbpedia.org/ontology/domain
p913
asI2
(lp914
sI3
(lp915
sI4
(lp916
Vhttp://www.w3.org/ns/prov#wasDerivedFrom
p917
asI5
(lp918
sI6
(lp919
sI7
(lp920
sI8
(lp921
ssI1
(dp922
I0
g911
sI1
(lp923
sI2
(lp924
sI3
(lp925
sI4
(lp926
sI5
(lp927
sI6
(lp928
sI7
(lp929
Vhttp://dbpedia.org/property/domain
p930
aVhttp://dbpedia.org/ontology/domain
p931
asI8
(lp932
ssI2
(dp933
I0
g914
sI1
g924
sI2
(lp934
sI3
(lp935
sI4
(lp936
sI5
(lp937
sI6
(lp938
sI7
(lp939
sI8
(lp940
ssI3
(dp941
I0
g915
sI1
g925
sI2
g935
sI3
(lp942
sI4
(lp943
sI5
(lp944
sI6
(lp945
sI7
(lp946
sI8
(lp947
ssI4
(dp948
I0
g916
sI1
g926
sI2
g936
sI3
g943
sI4
(lp949
sI5
(lp950
sI6
(lp951
sI7
(lp952
Vhttp://www.w3.org/ns/prov#wasDerivedFrom
p953
asI8
(lp954
ssI5
(dp955
I0
g918
sI1
g927
sI2
g937
sI4
g950
sI5
(lp956
sI6
(lp957
sI7
(lp958
sI8
(lp959
ssI6
(dp960
I0
g919
sI1
g928
sI2
g938
sI4
g951
sI6
(lp961
sI7
(lp962
sI8
(lp963
ssI7
(dp964
I1
g929
sI2
g939
sI3
g946
sI4
g952
sI5
g958
sI6
g962
sI7
(lp965
sI8
(lp966
ssI8
(dp967
I0
g921
sI1
g932
sI2
g940
sI3
g947
sI4
g954
sI5
g959
sI6
g963
sI7
g966
sI8
(lp968
ssa(dp969
I0
(dp970
I0
(lp971
sI1
(lp972
sI2
(lp973
sI3
(lp974
sI4
(lp975
sI5
(lp976
sI6
(lp977
sI7
(lp978
sI8
(lp979
ssI1
(dp980
I0
g972
sI1
(lp981
sI2
(lp982
sI3
(lp983
sI4
(lp984
sI5
(lp985
sI6
(lp986
sI7
(lp987
sI8
(lp988
ssI2
(dp989
I0
g973
sI2
(lp990
sI3
(lp991
sI4
(lp992
sI5
(lp993
sI6
(lp994
sI7
(lp995
sI8
(lp996
ssI3
(dp997
I0
g974
sI3
(lp998
sI4
(lp999
sI5
(lp1000
sI6
(lp1001
sI7
(lp1002
sI8
(lp1003
ssI4
(dp1004
I0
g975
sI4
(lp1005
sI5
(lp1006
sI6
(lp1007
sI7
(lp1008
sI8
(lp1009
ssI5
(dp1010
I0
g976
sI8
(lp1011
sI5
(lp1012
sI6
(lp1013
sI7
(lp1014
ssI6
(dp1015
I0
g977
sI8
(lp1016
sI6
(lp1017
sI7
(lp1018
ssI7
(dp1019
I0
g978
sI8
(lp1020
sI7
(lp1021
ssI8
(dp1022
I0
g979
sI8
(lp1023
ssa(dp1024
I0
(dp1025
I0
(lp1026
sI1
(lp1027
Vhttp://dbpedia.org/property/domain
p1028
aVhttp://dbpedia.org/ontology/domain
p1029
asI2
(lp1030
sI3
(lp1031
sI4
(lp1032
Vhttp://www.w3.org/ns/prov#wasDerivedFrom
p1033
asI5
(lp1034
Vhttp://dbpedia.org/property/binomialAuthority
p1035
asI6
(lp1036
sI7
(lp1037
Vhttp://dbpedia.org/property/familia
p1038
aVhttp://dbpedia.org/ontology/family
p1039
asI8
(lp1040
Vhttp://dbpedia.org/ontology/class
p1041
aVhttp://dbpedia.org/property/classis
p1042
assI1
(dp1043
I0
g1027
sI1
(lp1044
sI2
(lp1045
sI3
(lp1046
sI4
(lp1047
sI5
(lp1048
sI6
(lp1049
Vhttp://dbpedia.org/property/domain
p1050
aVhttp://dbpedia.org/ontology/domain
p1051
asI7
(lp1052
sI8
(lp1053
ssI2
(dp1054
I0
g1030
sI1
g1045
sI2
(lp1055
sI3
(lp1056
sI4
(lp1057
sI5
(lp1058
sI6
(lp1059
sI7
(lp1060
sI8
(lp1061
ssI3
(dp1062
I0
g1031
sI1
g1046
sI2
g1056
sI3
(lp1063
sI4
(lp1064
sI5
(lp1065
sI6
(lp1066
sI7
(lp1067
sI8
(lp1068
ssI4
(dp1069
I0
g1032
sI1
g1047
sI2
g1057
sI3
g1064
sI4
(lp1070
sI5
(lp1071
sI6
(lp1072
Vhttp://www.w3.org/ns/prov#wasDerivedFrom
p1073
asI7
(lp1074
sI8
(lp1075
ssI5
(dp1076
I0
g1034
sI1
g1048
sI2
g1058
sI3
g1065
sI4
g1071
sI5
(lp1077
sI6
(lp1078
Vhttp://dbpedia.org/property/binomialAuthority
p1079
asI7
(lp1080
sI8
(lp1081
ssI6
(dp1082
I1
g1049
sI2
g1059
sI3
g1066
sI4
g1072
sI5
g1078
sI6
(lp1083
sI7
(lp1084
Vhttp://dbpedia.org/property/familia
p1085
aVhttp://dbpedia.org/ontology/family
p1086
asI8
(lp1087
Vhttp://dbpedia.org/ontology/class
p1088
aVhttp://dbpedia.org/property/classis
p1089
assI7
(dp1090
I0
g1037
sI1
g1052
sI2
g1060
sI3
g1067
sI4
g1074
sI5
g1080
sI6
g1084
sI7
(lp1091
sI8
(lp1092
ssI8
(dp1093
I0
g1040
sI1
g1053
sI2
g1061
sI3
g1068
sI4
g1075
sI5
g1081
sI6
g1087
sI7
g1092
sI8
(lp1094
ssa(dp1095
I0
(dp1096
I0
(lp1097
sI1
(lp1098
sI2
(lp1099
sI3
(lp1100
sI4
(lp1101
sI5
(lp1102
sI6
(lp1103
sI7
(lp1104
sI8
(lp1105
ssI1
(dp1106
I0
g1098
sI1
(lp1107
sI2
(lp1108
sI3
(lp1109
sI4
(lp1110
sI5
(lp1111
sI6
(lp1112
sI7
(lp1113
sI8
(lp1114
ssI2
(dp1115
I0
g1099
sI1
g1108
sI2
(lp1116
sI3
(lp1117
sI4
(lp1118
sI5
(lp1119
sI6
(lp1120
sI7
(lp1121
sI8
(lp1122
ssI3
(dp1123
I0
g1100
sI2
g1117
sI3
(lp1124
sI4
(lp1125
sI5
(lp1126
sI6
(lp1127
sI7
(lp1128
sI8
(lp1129
ssI4
(dp1130
I0
g1101
sI1
g1110
sI2
g1118
sI3
g1125
sI4
(lp1131
sI5
(lp1132
sI6
(lp1133
sI7
(lp1134
sI8
(lp1135
ssI5
(dp1136
I0
g1102
sI2
g1119
sI4
g1132
sI5
(lp1137
sI6
(lp1138
sI7
(lp1139
sI8
(lp1140
ssI6
(dp1141
I1
g1112
sI2
g1120
sI3
g1127
sI4
g1133
sI5
g1138
sI6
(lp1142
sI7
(lp1143
sI8
(lp1144
ssI7
(dp1145
I0
g1104
sI2
g1121
sI4
g1134
sI6
g1143
sI7
(lp1146
sI8
(lp1147
ssI8
(dp1148
I0
g1105
sI8
(lp1149
sI2
g1122
sI4
g1135
sI6
g1144
ssa(dp1150
I0
(dp1151
I0
(lp1152
sI1
(lp1153
sI2
(lp1154
sI3
(lp1155
sI4
(lp1156
Vhttp://www.w3.org/ns/prov#wasDerivedFrom
p1157
asI5
(lp1158
sI6
(lp1159
sI7
(lp1160
sI8
(lp1161
ssI1
(dp1162
I0
g1153
sI1
(lp1163
sI2
(lp1164
sI3
(lp1165
sI4
(lp1166
sI5
(lp1167
sI6
(lp1168
sI7
(lp1169
sI8
(lp1170
ssI2
(dp1171
I0
g1154
sI1
g1164
sI2
(lp1172
sI3
(lp1173
sI4
(lp1174
sI5
(lp1175
sI6
(lp1176
sI7
(lp1177
sI8
(lp1178
ssI3
(dp1179
I0
g1155
sI2
g1173
sI3
(lp1180
sI4
(lp1181
sI5
(lp1182
sI6
(lp1183
sI7
(lp1184
sI8
(lp1185
ssI4
(dp1186
I0
g1156
sI1
g1166
sI2
g1174
sI3
g1181
sI4
(lp1187
sI5
(lp1188
sI6
(lp1189
sI7
(lp1190
sI8
(lp1191
ssI5
(dp1192
I0
g1158
sI2
g1175
sI4
g1188
sI5
(lp1193
sI6
(lp1194
sI7
(lp1195
sI8
(lp1196
ssI6
(dp1197
I0
g1159
sI2
g1176
sI4
g1189
sI6
(lp1198
sI7
(lp1199
sI8
(lp1200
ssI7
(dp1201
I0
g1160
sI8
(lp1202
sI2
g1177
sI4
g1190
sI7
(lp1203
ssI8
(dp1204
I0
g1161
sI8
(lp1205
sI2
g1178
sI4
g1191
ssa.