(lp1
(lp2
(lp3
((lp4
Vhttp://dbpedia.org/class/yago/9th-centuryArchbishops
p5
aVhttp://dbpedia.org/class/yago/9th-centuryChristianSaints
p6
aVhttp://dbpedia.org/class/yago/Archbishop109805151
p7
aVhttp://dbpedia.org/class/yago/Bishop109857200
p8
aVhttp://dbpedia.org/class/yago/CausalAgent100007347
p9
aVhttp://dbpedia.org/class/yago/Clergyman109927451
p10
aVhttp://dbpedia.org/class/yago/GoodPerson110138767
p11
aVhttp://dbpedia.org/class/yago/Leader109623038
p12
aVhttp://dbpedia.org/class/yago/LivingThing100004258
p13
aVhttp://dbpedia.org/class/yago/Object100002684
p14
aVhttp://dbpedia.org/class/yago/Organism100004475
p15
aVhttp://dbpedia.org/class/yago/Person100007846
p16
aVhttp://dbpedia.org/class/yago/Pope110453533
p17
aVhttp://dbpedia.org/class/yago/Priest110470779
p18
aVhttp://dbpedia.org/class/yago/Saint110546850
p19
aVhttp://dbpedia.org/class/yago/SpiritualLeader109505153
p20
aVhttp://dbpedia.org/class/yago/Whole100003553
p21
aVhttp://dbpedia.org/class/yago/YagoLegalActorGeo
p22
aVhttp://www.w3.org/2002/07/owl#Thing
p23
aVhttp://xmlns.com/foaf/0.1/Person
p24
aVhttp://dbpedia.org/ontology/Person
p25
aVhttp://www.ontologydesignpatterns.org/ont/dul/DUL.owl#Agent
p26
aVhttp://www.ontologydesignpatterns.org/ont/dul/DUL.owl#NaturalPerson
p27
aVhttp://www.wikidata.org/entity/Q19546
p28
aVhttp://www.wikidata.org/entity/Q215627
p29
aVhttp://www.wikidata.org/entity/Q5
p30
aVhttp://dbpedia.org/ontology/Agent
p31
aVhttp://dbpedia.org/ontology/Cleric
p32
aVhttp://dbpedia.org/ontology/Pope
p33
aVhttp://schema.org/Person
p34
aVhttp://dbpedia.org/class/yago/EasternOrthodoxSaints
p35
aVhttp://dbpedia.org/class/yago/PopesOfTheCopticOrthodoxChurchOfAlexandria
p36
aVhttp://dbpedia.org/class/yago/YagoLegalActor
p37
aVhttp://dbpedia.org/class/yago/PhysicalEntity100001930
p38
aVhttp://dbpedia.org/resource/Pope_Joseph_I_of_Alexandria
tp39
aa(lp40
((lp41
Vhttp://dbpedia.org/class/yago/4th-centuryArchbishops
p42
aVhttp://dbpedia.org/class/yago/4th-centuryChristianSaints
p43
aVhttp://dbpedia.org/class/yago/Archbishop109805151
p44
aVhttp://dbpedia.org/class/yago/Bishop109857200
p45
aVhttp://dbpedia.org/class/yago/CausalAgent100007347
p46
aVhttp://dbpedia.org/class/yago/Clergyman109927451
p47
aVhttp://dbpedia.org/class/yago/GoodPerson110138767
p48
aVhttp://dbpedia.org/class/yago/Leader109623038
p49
aVhttp://dbpedia.org/class/yago/LivingThing100004258
p50
aVhttp://dbpedia.org/class/yago/Object100002684
p51
aVhttp://dbpedia.org/class/yago/Organism100004475
p52
aVhttp://dbpedia.org/class/yago/Patriarch110406905
p53
aVhttp://dbpedia.org/class/yago/Person100007846
p54
aVhttp://dbpedia.org/class/yago/Pope110453533
p55
aVhttp://dbpedia.org/class/yago/Priest110470779
p56
aVhttp://dbpedia.org/class/yago/Saint110546850
p57
aVhttp://dbpedia.org/class/yago/SpiritualLeader109505153
p58
aVhttp://dbpedia.org/class/yago/Whole100003553
p59
aVhttp://dbpedia.org/class/yago/YagoLegalActorGeo
p60
aVhttp://www.w3.org/2002/07/owl#Thing
p61
aVhttp://xmlns.com/foaf/0.1/Person
p62
aVhttp://dbpedia.org/ontology/Person
p63
aVhttp://www.ontologydesignpatterns.org/ont/dul/DUL.owl#Agent
p64
aVhttp://www.ontologydesignpatterns.org/ont/dul/DUL.owl#NaturalPerson
p65
aVhttp://www.wikidata.org/entity/Q19546
p66
aVhttp://www.wikidata.org/entity/Q215627
p67
aVhttp://www.wikidata.org/entity/Q5
p68
aVhttp://dbpedia.org/ontology/Agent
p69
aVhttp://dbpedia.org/ontology/Cleric
p70
aVhttp://dbpedia.org/ontology/Pope
p71
aVhttp://schema.org/Person
p72
aVhttp://dbpedia.org/class/yago/CopticOrthodoxSaints
p73
aVhttp://dbpedia.org/class/yago/PopesOfTheCopticOrthodoxChurchOfAlexandria
p74
aVhttp://dbpedia.org/class/yago/YagoLegalActor
p75
aVhttp://dbpedia.org/class/yago/GreekOrthodoxPatriarchsOfAlexandria
p76
aVhttp://dbpedia.org/class/yago/PhysicalEntity100001930
p77
aVhttp://dbpedia.org/resource/Pope_Timothy_I_of_Alexandria
tp78
aa(lp79
((lp80
Vhttp://dbpedia.org/class/yago/Antipope109797375
p81
aVhttp://dbpedia.org/class/yago/Antipopes
p82
aVhttp://dbpedia.org/class/yago/CausalAgent100007347
p83
aVhttp://dbpedia.org/class/yago/Leader109623038
p84
aVhttp://dbpedia.org/class/yago/LivingThing100004258
p85
aVhttp://dbpedia.org/class/yago/Object100002684
p86
aVhttp://dbpedia.org/class/yago/Organism100004475
p87
aVhttp://dbpedia.org/class/yago/Person100007846
p88
aVhttp://dbpedia.org/class/yago/Pope110453533
p89
aVhttp://dbpedia.org/class/yago/SpiritualLeader109505153
p90
aVhttp://dbpedia.org/class/yago/Whole100003553
p91
aVhttp://dbpedia.org/class/yago/YagoLegalActorGeo
p92
aVhttp://www.w3.org/2002/07/owl#Thing
p93
aVhttp://xmlns.com/foaf/0.1/Person
p94
aVhttp://dbpedia.org/ontology/Person
p95
aVhttp://www.ontologydesignpatterns.org/ont/dul/DUL.owl#Agent
p96
aVhttp://www.ontologydesignpatterns.org/ont/dul/DUL.owl#NaturalPerson
p97
aVhttp://www.wikidata.org/entity/Q19546
p98
aVhttp://www.wikidata.org/entity/Q215627
p99
aVhttp://www.wikidata.org/entity/Q5
p100
aVhttp://dbpedia.org/ontology/Agent
p101
aVhttp://dbpedia.org/ontology/Cleric
p102
aVhttp://dbpedia.org/ontology/Pope
p103
aVhttp://schema.org/Person
p104
aVhttp://dbpedia.org/class/yago/YagoLegalActor
p105
aVhttp://dbpedia.org/class/yago/PhysicalEntity100001930
p106
aVhttp://dbpedia.org/resource/Antipope_Celestine_II
tp107
aa(lp108
((lp109
Vhttp://www.w3.org/2002/07/owl#Thing
p110
aVhttp://xmlns.com/foaf/0.1/Person
p111
aVhttp://dbpedia.org/ontology/Person
p112
aVhttp://www.ontologydesignpatterns.org/ont/dul/DUL.owl#Agent
p113
aVhttp://www.ontologydesignpatterns.org/ont/dul/DUL.owl#NaturalPerson
p114
aVhttp://www.wikidata.org/entity/Q19546
p115
aVhttp://www.wikidata.org/entity/Q215627
p116
aVhttp://www.wikidata.org/entity/Q5
p117
aVhttp://dbpedia.org/ontology/Agent
p118
aVhttp://dbpedia.org/ontology/Cleric
p119
aVhttp://dbpedia.org/ontology/Pope
p120
aVhttp://schema.org/Person
p121
aVhttp://dbpedia.org/resource/Pope_Francis
tp122
aa(lp123
((lp124
Vhttp://dbpedia.org/class/yago/AcademicAdministrator109758885
p125
aVhttp://dbpedia.org/class/yago/Administrator109770949
p126
aVhttp://dbpedia.org/class/yago/Archbishop109805151
p127
aVhttp://dbpedia.org/class/yago/Associate109816771
p128
aVhttp://dbpedia.org/class/yago/Bishop109857200
p129
aVhttp://dbpedia.org/class/yago/Cardinal109894143
p130
aVhttp://dbpedia.org/class/yago/CardinalsCreatedByPopePaulVI
p131
aVhttp://dbpedia.org/class/yago/CausalAgent100007347
p132
aVhttp://dbpedia.org/class/yago/Clergyman109927451
p133
aVhttp://dbpedia.org/class/yago/Communicator109610660
p134
aVhttp://dbpedia.org/class/yago/Dean109996784
p135
aVhttp://dbpedia.org/class/yago/Head110162991
p136
aVhttp://dbpedia.org/class/yago/HeadOfState110164747
p137
aVhttp://dbpedia.org/class/yago/Intellectual109621545
p138
aVhttp://dbpedia.org/class/yago/Leader109623038
p139
aVhttp://dbpedia.org/class/yago/LivingThing100004258
p140
aVhttp://dbpedia.org/class/yago/Negotiator110351874
p141
aVhttp://dbpedia.org/class/yago/Object100002684
p142
aVhttp://dbpedia.org/class/yago/Organism100004475
p143
aVhttp://dbpedia.org/class/yago/Participant110401829
p144
aVhttp://dbpedia.org/class/yago/Peer109626238
p145
aVhttp://dbpedia.org/class/yago/Person100007846
p146
aVhttp://dbpedia.org/class/yago/Philosopher110423589
p147
aVhttp://dbpedia.org/class/yago/Politician110450303
p148
aVhttp://dbpedia.org/class/yago/Pope110453533
p149
aVhttp://dbpedia.org/class/yago/Priest110470779
p150
aVhttp://dbpedia.org/class/yago/Prisoner110476086
p151
aVhttp://dbpedia.org/class/yago/PrisonerOfWar110476331
p152
aVhttp://dbpedia.org/class/yago/Representative110522035
p153
aVhttp://dbpedia.org/class/yago/Ruler110541229
p154
aVhttp://dbpedia.org/class/yago/Scholar110557854
p155
aVhttp://dbpedia.org/class/yago/Sovereign110628644
p156
aVhttp://dbpedia.org/class/yago/SpiritualLeader109505153
p157
aVhttp://dbpedia.org/class/yago/Theologian110705615
p158
aVhttp://dbpedia.org/class/yago/Unfortunate109630641
p159
aVhttp://dbpedia.org/class/yago/Whole100003553
p160
aVhttp://dbpedia.org/class/yago/Writer110794014
p161
aVhttp://dbpedia.org/class/yago/YagoLegalActorGeo
p162
aVhttp://dbpedia.org/class/yago/RomanCatholicArchbishopsOfMunichAndFreising
p163
aVhttp://dbpedia.org/class/yago/RomanCatholicPhilosophers
p164
aVhttp://dbpedia.org/class/yago/RomanCatholicWriters
p165
aVhttp://dbpedia.org/class/yago/SovereignsOfVaticanCity
p166
aVhttp://www.w3.org/2002/07/owl#Thing
p167
aVhttp://xmlns.com/foaf/0.1/Person
p168
aVhttp://dbpedia.org/ontology/Person
p169
aVhttp://www.ontologydesignpatterns.org/ont/dul/DUL.owl#Agent
p170
aVhttp://www.ontologydesignpatterns.org/ont/dul/DUL.owl#NaturalPerson
p171
aVhttp://www.wikidata.org/entity/Q19546
p172
aVhttp://www.wikidata.org/entity/Q215627
p173
aVhttp://www.wikidata.org/entity/Q5
p174
aVhttp://dbpedia.org/ontology/Agent
p175
aVhttp://dbpedia.org/ontology/Cleric
p176
aVhttp://dbpedia.org/ontology/Pope
p177
aVhttp://schema.org/Person
p178
aVhttp://umbel.org/umbel/rc/Pope
p179
aVhttp://umbel.org/umbel/rc/Cleric
p180
aVhttp://umbel.org/umbel/rc/PersonWithOccupation
p181
aVhttp://dbpedia.org/class/yago/CurrentNationalLeaders
p182
aVhttp://dbpedia.org/class/yago/DeansOfTheCollegeOfCardinals
p183
aVhttp://dbpedia.org/class/yago/Statesman110650162
p184
aVhttp://dbpedia.org/class/yago/ParticipantsInTheSecondVaticanCouncil
p185
aVhttp://dbpedia.org/class/yago/PeopleFromAlt%C3%B6tting(district)
p186
aVhttp://dbpedia.org/class/yago/YagoLegalActor
p187
aVhttp://dbpedia.org/class/yago/GermanCardinals
p188
aVhttp://dbpedia.org/class/yago/GermanPopes
p189
aVhttp://dbpedia.org/class/yago/GermanPrisonersOfWar
p190
aVhttp://dbpedia.org/class/yago/GermanRomanCatholicTheologians
p191
aVhttp://dbpedia.org/class/yago/LivingPeople
p192
aVhttp://dbpedia.org/class/yago/PhysicalEntity100001930
p193
aVhttp://dbpedia.org/class/yago/WorldWarIIPrisonersOfWarHeldByTheUnitedStates
p194
aVhttp://dbpedia.org/resource/Pope_Benedict_XVI
tp195
aa(lp196
((lp197
Vhttp://dbpedia.org/class/yago/AcademicAdministrator109758885
p198
aVhttp://dbpedia.org/class/yago/Administrator109770949
p199
aVhttp://dbpedia.org/class/yago/Archbishop109805151
p200
aVhttp://dbpedia.org/class/yago/Associate109816771
p201
aVhttp://dbpedia.org/class/yago/Bishop109857200
p202
aVhttp://dbpedia.org/class/yago/Cardinal109894143
p203
aVhttp://dbpedia.org/class/yago/CardinalsCreatedByPopePaulVI
p204
aVhttp://dbpedia.org/class/yago/CausalAgent100007347
p205
aVhttp://dbpedia.org/class/yago/Clergyman109927451
p206
aVhttp://dbpedia.org/class/yago/Communicator109610660
p207
aVhttp://dbpedia.org/class/yago/Dean109996784
p208
aVhttp://dbpedia.org/class/yago/Head110162991
p209
aVhttp://dbpedia.org/class/yago/HeadOfState110164747
p210
aVhttp://dbpedia.org/class/yago/Intellectual109621545
p211
aVhttp://dbpedia.org/class/yago/Leader109623038
p212
aVhttp://dbpedia.org/class/yago/LivingThing100004258
p213
aVhttp://dbpedia.org/class/yago/Negotiator110351874
p214
aVhttp://dbpedia.org/class/yago/Object100002684
p215
aVhttp://dbpedia.org/class/yago/Organism100004475
p216
aVhttp://dbpedia.org/class/yago/Participant110401829
p217
aVhttp://dbpedia.org/class/yago/Peer109626238
p218
aVhttp://dbpedia.org/class/yago/Person100007846
p219
aVhttp://dbpedia.org/class/yago/Philosopher110423589
p220
aVhttp://dbpedia.org/class/yago/Politician110450303
p221
aVhttp://dbpedia.org/class/yago/Pope110453533
p222
aVhttp://dbpedia.org/class/yago/Priest110470779
p223
aVhttp://dbpedia.org/class/yago/Prisoner110476086
p224
aVhttp://dbpedia.org/class/yago/PrisonerOfWar110476331
p225
aVhttp://dbpedia.org/class/yago/Representative110522035
p226
aVhttp://dbpedia.org/class/yago/Ruler110541229
p227
aVhttp://dbpedia.org/class/yago/Scholar110557854
p228
aVhttp://dbpedia.org/class/yago/Sovereign110628644
p229
aVhttp://dbpedia.org/class/yago/SpiritualLeader109505153
p230
aVhttp://dbpedia.org/class/yago/Theologian110705615
p231
aVhttp://dbpedia.org/class/yago/Unfortunate109630641
p232
aVhttp://dbpedia.org/class/yago/Whole100003553
p233
aVhttp://dbpedia.org/class/yago/Writer110794014
p234
aVhttp://dbpedia.org/class/yago/YagoLegalActorGeo
p235
aVhttp://dbpedia.org/class/yago/RomanCatholicArchbishopsOfMunichAndFreising
p236
aVhttp://dbpedia.org/class/yago/RomanCatholicPhilosophers
p237
aVhttp://dbpedia.org/class/yago/RomanCatholicWriters
p238
aVhttp://dbpedia.org/class/yago/SovereignsOfVaticanCity
p239
aVhttp://www.w3.org/2002/07/owl#Thing
p240
aVhttp://xmlns.com/foaf/0.1/Person
p241
aVhttp://dbpedia.org/ontology/Person
p242
aVhttp://www.ontologydesignpatterns.org/ont/dul/DUL.owl#Agent
p243
aVhttp://www.ontologydesignpatterns.org/ont/dul/DUL.owl#NaturalPerson
p244
aVhttp://www.wikidata.org/entity/Q19546
p245
aVhttp://www.wikidata.org/entity/Q215627
p246
aVhttp://www.wikidata.org/entity/Q5
p247
aVhttp://dbpedia.org/ontology/Agent
p248
aVhttp://dbpedia.org/ontology/Cleric
p249
aVhttp://dbpedia.org/ontology/Pope
p250
aVhttp://schema.org/Person
p251
aVhttp://umbel.org/umbel/rc/Pope
p252
aVhttp://umbel.org/umbel/rc/Cleric
p253
aVhttp://umbel.org/umbel/rc/PersonWithOccupation
p254
aVhttp://dbpedia.org/class/yago/CurrentNationalLeaders
p255
aVhttp://dbpedia.org/class/yago/DeansOfTheCollegeOfCardinals
p256
aVhttp://dbpedia.org/class/yago/Statesman110650162
p257
aVhttp://dbpedia.org/class/yago/ParticipantsInTheSecondVaticanCouncil
p258
aVhttp://dbpedia.org/class/yago/PeopleFromAlt%C3%B6tting(district)
p259
aVhttp://dbpedia.org/class/yago/YagoLegalActor
p260
aVhttp://dbpedia.org/class/yago/GermanCardinals
p261
aVhttp://dbpedia.org/class/yago/GermanPopes
p262
aVhttp://dbpedia.org/class/yago/GermanPrisonersOfWar
p263
aVhttp://dbpedia.org/class/yago/GermanRomanCatholicTheologians
p264
aVhttp://dbpedia.org/class/yago/LivingPeople
p265
aVhttp://dbpedia.org/class/yago/PhysicalEntity100001930
p266
aVhttp://dbpedia.org/class/yago/WorldWarIIPrisonersOfWarHeldByTheUnitedStates
p267
aVhttp://dbpedia.org/resource/Pope_Benedict_XVI
tp268
aa(lp269
((lp270
Vhttp://dbpedia.org/class/yago/4th-centuryArchbishops
p271
aVhttp://dbpedia.org/class/yago/4th-centuryChristianMartyrSaints
p272
aVhttp://dbpedia.org/class/yago/AcademicAdministrator109758885
p273
aVhttp://dbpedia.org/class/yago/Administrator109770949
p274
aVhttp://dbpedia.org/class/yago/Archbishop109805151
p275
aVhttp://dbpedia.org/class/yago/Bishop109857200
p276
aVhttp://dbpedia.org/class/yago/CausalAgent100007347
p277
aVhttp://dbpedia.org/class/yago/Clergyman109927451
p278
aVhttp://dbpedia.org/class/yago/Dean109996784
p279
aVhttp://dbpedia.org/class/yago/GoodPerson110138767
p280
aVhttp://dbpedia.org/class/yago/Head110162991
p281
aVhttp://dbpedia.org/class/yago/Leader109623038
p282
aVhttp://dbpedia.org/class/yago/LivingThing100004258
p283
aVhttp://dbpedia.org/class/yago/Martyr110296618
p284
aVhttp://dbpedia.org/class/yago/Object100002684
p285
aVhttp://dbpedia.org/class/yago/Organism100004475
p286
aVhttp://dbpedia.org/class/yago/Patriarch110406905
p287
aVhttp://dbpedia.org/class/yago/Person100007846
p288
aVhttp://dbpedia.org/class/yago/Pope110453533
p289
aVhttp://dbpedia.org/class/yago/Priest110470779
p290
aVhttp://dbpedia.org/class/yago/Saint110546850
p291
aVhttp://dbpedia.org/class/yago/SpiritualLeader109505153
p292
aVhttp://dbpedia.org/class/yago/Unfortunate109630641
p293
aVhttp://dbpedia.org/class/yago/Victim110752093
p294
aVhttp://dbpedia.org/class/yago/Whole100003553
p295
aVhttp://dbpedia.org/class/yago/YagoLegalActorGeo
p296
aVhttp://umbel.org/umbel/rc/Cleric
p297
aVhttp://umbel.org/umbel/rc/Saint
p298
aVhttp://dbpedia.org/class/yago/ChristianMartyrsOfTheRomanEra
p299
aVhttp://dbpedia.org/class/yago/CopticOrthodoxSaints
p300
aVhttp://dbpedia.org/class/yago/DeansOfTheCatecheticalSchoolOfAlexandria
p301
aVhttp://dbpedia.org/class/yago/EgyptianRomanCatholicSaints
p302
aVhttp://dbpedia.org/class/yago/EgyptianSaints
p303
aVhttp://dbpedia.org/class/yago/PopesOfTheCopticOrthodoxChurchOfAlexandria
p304
aVhttp://dbpedia.org/class/yago/YagoLegalActor
p305
aVhttp://dbpedia.org/class/yago/GreekOrthodoxPatriarchsOfAlexandria
p306
aVhttp://dbpedia.org/class/yago/PhysicalEntity100001930
p307
aVhttp://dbpedia.org/resource/Pope_Peter_of_Alexandria
tp308
aa(lp309
a(lp310
((lp311
Vhttp://dbpedia.org/class/yago/CausalAgent100007347
p312
aVhttp://dbpedia.org/class/yago/Leader109623038
p313
aVhttp://dbpedia.org/class/yago/LivingThing100004258
p314
aVhttp://dbpedia.org/class/yago/Object100002684
p315
aVhttp://dbpedia.org/class/yago/Organism100004475
p316
aVhttp://dbpedia.org/class/yago/Person100007846
p317
aVhttp://dbpedia.org/class/yago/Pope110453533
p318
aVhttp://dbpedia.org/class/yago/SpiritualLeader109505153
p319
aVhttp://dbpedia.org/class/yago/Whole100003553
p320
aVhttp://dbpedia.org/class/yago/YagoLegalActorGeo
p321
aVhttp://www.w3.org/2002/07/owl#Thing
p322
aVhttp://xmlns.com/foaf/0.1/Person
p323
aVhttp://dbpedia.org/ontology/Person
p324
aVhttp://www.ontologydesignpatterns.org/ont/dul/DUL.owl#Agent
p325
aVhttp://www.ontologydesignpatterns.org/ont/dul/DUL.owl#NaturalPerson
p326
aVhttp://www.wikidata.org/entity/Q19546
p327
aVhttp://www.wikidata.org/entity/Q215627
p328
aVhttp://www.wikidata.org/entity/Q5
p329
aVhttp://dbpedia.org/ontology/Agent
p330
aVhttp://dbpedia.org/ontology/Cleric
p331
aVhttp://dbpedia.org/ontology/Pope
p332
aVhttp://schema.org/Person
p333
aVhttp://dbpedia.org/class/yago/PopesOfTheCopticOrthodoxChurchOfAlexandria
p334
aVhttp://dbpedia.org/class/yago/YagoLegalActor
p335
aVhttp://dbpedia.org/class/yago/PhysicalEntity100001930
p336
aVhttp://dbpedia.org/resource/Pope_Christodolos_of_Alexandria
tp337
aa(lp338
((lp339
Vhttp://dbpedia.org/class/yago/10th-centuryArchbishops
p340
aVhttp://dbpedia.org/class/yago/Archbishop109805151
p341
aVhttp://dbpedia.org/class/yago/Bishop109857200
p342
aVhttp://dbpedia.org/class/yago/CausalAgent100007347
p343
aVhttp://dbpedia.org/class/yago/Clergyman109927451
p344
aVhttp://dbpedia.org/class/yago/Leader109623038
p345
aVhttp://dbpedia.org/class/yago/LivingThing100004258
p346
aVhttp://dbpedia.org/class/yago/Object100002684
p347
aVhttp://dbpedia.org/class/yago/Organism100004475
p348
aVhttp://dbpedia.org/class/yago/Person100007846
p349
aVhttp://dbpedia.org/class/yago/Pope110453533
p350
aVhttp://dbpedia.org/class/yago/Priest110470779
p351
aVhttp://dbpedia.org/class/yago/SpiritualLeader109505153
p352
aVhttp://dbpedia.org/class/yago/Whole100003553
p353
aVhttp://dbpedia.org/class/yago/YagoLegalActorGeo
p354
aVhttp://www.w3.org/2002/07/owl#Thing
p355
aVhttp://xmlns.com/foaf/0.1/Person
p356
aVhttp://dbpedia.org/ontology/Person
p357
aVhttp://www.ontologydesignpatterns.org/ont/dul/DUL.owl#Agent
p358
aVhttp://www.ontologydesignpatterns.org/ont/dul/DUL.owl#NaturalPerson
p359
aVhttp://www.wikidata.org/entity/Q19546
p360
aVhttp://www.wikidata.org/entity/Q215627
p361
aVhttp://www.wikidata.org/entity/Q5
p362
aVhttp://dbpedia.org/ontology/Agent
p363
aVhttp://dbpedia.org/ontology/Cleric
p364
aVhttp://dbpedia.org/ontology/Pope
p365
aVhttp://schema.org/Person
p366
aVhttp://dbpedia.org/class/yago/PopesOfTheCopticOrthodoxChurchOfAlexandria
p367
aVhttp://dbpedia.org/class/yago/YagoLegalActor
p368
aVhttp://dbpedia.org/class/yago/PhysicalEntity100001930
p369
aVhttp://dbpedia.org/resource/Pope_Gabriel_I_of_Alexandria
tp370
aa(lp371
((lp372
Vhttp://dbpedia.org/class/yago/CausalAgent100007347
p373
aVhttp://dbpedia.org/class/yago/Leader109623038
p374
aVhttp://dbpedia.org/class/yago/LivingThing100004258
p375
aVhttp://dbpedia.org/class/yago/Object100002684
p376
aVhttp://dbpedia.org/class/yago/Organism100004475
p377
aVhttp://dbpedia.org/class/yago/Person100007846
p378
aVhttp://dbpedia.org/class/yago/Pope110453533
p379
aVhttp://dbpedia.org/class/yago/SpiritualLeader109505153
p380
aVhttp://dbpedia.org/class/yago/Whole100003553
p381
aVhttp://dbpedia.org/class/yago/YagoLegalActorGeo
p382
aVhttp://www.w3.org/2002/07/owl#Thing
p383
aVhttp://xmlns.com/foaf/0.1/Person
p384
aVhttp://dbpedia.org/ontology/Person
p385
aVhttp://www.ontologydesignpatterns.org/ont/dul/DUL.owl#Agent
p386
aVhttp://www.ontologydesignpatterns.org/ont/dul/DUL.owl#NaturalPerson
p387
aVhttp://www.wikidata.org/entity/Q19546
p388
aVhttp://www.wikidata.org/entity/Q215627
p389
aVhttp://www.wikidata.org/entity/Q5
p390
aVhttp://dbpedia.org/ontology/Agent
p391
aVhttp://dbpedia.org/ontology/Cleric
p392
aVhttp://dbpedia.org/ontology/Pope
p393
aVhttp://schema.org/Person
p394
aVhttp://dbpedia.org/class/yago/PopesOfTheCopticOrthodoxChurchOfAlexandria
p395
aVhttp://dbpedia.org/class/yago/YagoLegalActor
p396
aVhttp://dbpedia.org/class/yago/PhysicalEntity100001930
p397
aVhttp://dbpedia.org/resource/Pope_Matthew_III_of_Alexandria
tp398
aa(lp399
((lp400
Vhttp://dbpedia.org/class/yago/10th-centuryArchbishops
p401
aVhttp://dbpedia.org/class/yago/Archbishop109805151
p402
aVhttp://dbpedia.org/class/yago/Bishop109857200
p403
aVhttp://dbpedia.org/class/yago/CausalAgent100007347
p404
aVhttp://dbpedia.org/class/yago/Clergyman109927451
p405
aVhttp://dbpedia.org/class/yago/Leader109623038
p406
aVhttp://dbpedia.org/class/yago/LivingThing100004258
p407
aVhttp://dbpedia.org/class/yago/Object100002684
p408
aVhttp://dbpedia.org/class/yago/Organism100004475
p409
aVhttp://dbpedia.org/class/yago/Person100007846
p410
aVhttp://dbpedia.org/class/yago/Pope110453533
p411
aVhttp://dbpedia.org/class/yago/Priest110470779
p412
aVhttp://dbpedia.org/class/yago/SpiritualLeader109505153
p413
aVhttp://dbpedia.org/class/yago/Whole100003553
p414
aVhttp://dbpedia.org/class/yago/YagoLegalActorGeo
p415
aVhttp://www.w3.org/2002/07/owl#Thing
p416
aVhttp://xmlns.com/foaf/0.1/Person
p417
aVhttp://dbpedia.org/ontology/Person
p418
aVhttp://www.ontologydesignpatterns.org/ont/dul/DUL.owl#Agent
p419
aVhttp://www.ontologydesignpatterns.org/ont/dul/DUL.owl#NaturalPerson
p420
aVhttp://www.wikidata.org/entity/Q19546
p421
aVhttp://www.wikidata.org/entity/Q215627
p422
aVhttp://www.wikidata.org/entity/Q5
p423
aVhttp://dbpedia.org/ontology/Agent
p424
aVhttp://dbpedia.org/ontology/Cleric
p425
aVhttp://dbpedia.org/ontology/Pope
p426
aVhttp://schema.org/Person
p427
aVhttp://dbpedia.org/class/yago/PopesOfTheCopticOrthodoxChurchOfAlexandria
p428
aVhttp://dbpedia.org/class/yago/YagoLegalActor
p429
aVhttp://dbpedia.org/class/yago/PhysicalEntity100001930
p430
aVhttp://dbpedia.org/resource/Pope_Gabriel_I_of_Alexandria
tp431
aa(lp432
((lp433
Vhttp://dbpedia.org/class/yago/15th-centuryItalianPeople
p434
aVhttp://dbpedia.org/class/yago/15th-centuryRomanCatholicArchbishops
p435
aVhttp://dbpedia.org/class/yago/16th-centuryItalianPeople
p436
aVhttp://dbpedia.org/class/yago/16th-centuryRomanCatholicArchbishops
p437
aVhttp://dbpedia.org/class/yago/Archbishop109805151
p438
aVhttp://dbpedia.org/class/yago/Bishop109857200
p439
aVhttp://dbpedia.org/class/yago/BishopsOfBologna
p440
aVhttp://dbpedia.org/class/yago/BishopsOfCarpentras
p441
aVhttp://dbpedia.org/class/yago/BishopsOfCatania
p442
aVhttp://dbpedia.org/class/yago/BishopsOfCoutances
p443
aVhttp://dbpedia.org/class/yago/BishopsOfLod%C3%A8ve
p444
aVhttp://dbpedia.org/class/yago/BishopsOfMende
p445
aVhttp://dbpedia.org/class/yago/BishopsOfSavona
p446
aVhttp://dbpedia.org/class/yago/BishopsOfVercelli
p447
aVhttp://dbpedia.org/class/yago/BishopsOfViviers
p448
aVhttp://dbpedia.org/class/yago/CausalAgent100007347
p449
aVhttp://dbpedia.org/class/yago/Clergyman109927451
p450
aVhttp://dbpedia.org/class/yago/Leader109623038
p451
aVhttp://dbpedia.org/class/yago/LivingThing100004258
p452
aVhttp://dbpedia.org/class/yago/Object100002684
p453
aVhttp://dbpedia.org/class/yago/Organism100004475
p454
aVhttp://dbpedia.org/class/yago/Person100007846
p455
aVhttp://dbpedia.org/class/yago/Pope110453533
p456
aVhttp://dbpedia.org/class/yago/Priest110470779
p457
aVhttp://dbpedia.org/class/yago/SpiritualLeader109505153
p458
aVhttp://dbpedia.org/class/yago/Whole100003553
p459
aVhttp://dbpedia.org/class/yago/YagoLegalActorGeo
p460
aVhttp://www.w3.org/2002/07/owl#Thing
p461
aVhttp://xmlns.com/foaf/0.1/Person
p462
aVhttp://dbpedia.org/ontology/Person
p463
aVhttp://www.ontologydesignpatterns.org/ont/dul/DUL.owl#Agent
p464
aVhttp://www.ontologydesignpatterns.org/ont/dul/DUL.owl#NaturalPerson
p465
aVhttp://www.wikidata.org/entity/Q19546
p466
aVhttp://www.wikidata.org/entity/Q215627
p467
aVhttp://www.wikidata.org/entity/Q5
p468
aVhttp://dbpedia.org/ontology/Agent
p469
aVhttp://dbpedia.org/ontology/Cleric
p470
aVhttp://dbpedia.org/ontology/Pope
p471
aVhttp://schema.org/Person
p472
aVhttp://umbel.org/umbel/rc/Pope
p473
aVhttp://umbel.org/umbel/rc/Cleric
p474
aVhttp://umbel.org/umbel/rc/PersonWithOccupation
p475
aVhttp://dbpedia.org/class/yago/PeopleFromTheProvinceOfSavona
p476
aVhttp://dbpedia.org/class/yago/Popes
p477
aVhttp://dbpedia.org/class/yago/YagoLegalActor
p478
aVhttp://dbpedia.org/class/yago/ItalianPopes
p479
aVhttp://dbpedia.org/class/yago/PhysicalEntity100001930
p480
aVhttp://dbpedia.org/resource/Pope_Julius_II
tp481
aa(lp482
((lp483
Vhttp://dbpedia.org/class/yago/8th-centuryArchbishops
p484
aVhttp://dbpedia.org/class/yago/8th-centuryChristianSaints
p485
aVhttp://dbpedia.org/class/yago/Archbishop109805151
p486
aVhttp://dbpedia.org/class/yago/Bishop109857200
p487
aVhttp://dbpedia.org/class/yago/CausalAgent100007347
p488
aVhttp://dbpedia.org/class/yago/Clergyman109927451
p489
aVhttp://dbpedia.org/class/yago/GoodPerson110138767
p490
aVhttp://dbpedia.org/class/yago/Leader109623038
p491
aVhttp://dbpedia.org/class/yago/LivingThing100004258
p492
aVhttp://dbpedia.org/class/yago/Object100002684
p493
aVhttp://dbpedia.org/class/yago/Organism100004475
p494
aVhttp://dbpedia.org/class/yago/Person100007846
p495
aVhttp://dbpedia.org/class/yago/Pope110453533
p496
aVhttp://dbpedia.org/class/yago/Priest110470779
p497
aVhttp://dbpedia.org/class/yago/Saint110546850
p498
aVhttp://dbpedia.org/class/yago/SpiritualLeader109505153
p499
aVhttp://dbpedia.org/class/yago/Whole100003553
p500
aVhttp://dbpedia.org/class/yago/YagoLegalActorGeo
p501
aVhttp://www.w3.org/2002/07/owl#Thing
p502
aVhttp://xmlns.com/foaf/0.1/Person
p503
aVhttp://dbpedia.org/ontology/Person
p504
aVhttp://www.ontologydesignpatterns.org/ont/dul/DUL.owl#Agent
p505
aVhttp://www.ontologydesignpatterns.org/ont/dul/DUL.owl#NaturalPerson
p506
aVhttp://www.wikidata.org/entity/Q19546
p507
aVhttp://www.wikidata.org/entity/Q215627
p508
aVhttp://www.wikidata.org/entity/Q5
p509
aVhttp://dbpedia.org/ontology/Agent
p510
aVhttp://dbpedia.org/ontology/Cleric
p511
aVhttp://dbpedia.org/ontology/Pope
p512
aVhttp://schema.org/Person
p513
aVhttp://dbpedia.org/class/yago/CopticOrthodoxSaints
p514
aVhttp://dbpedia.org/class/yago/PopesOfTheCopticOrthodoxChurchOfAlexandria
p515
aVhttp://dbpedia.org/class/yago/YagoLegalActor
p516
aVhttp://dbpedia.org/class/yago/PhysicalEntity100001930
p517
aVhttp://dbpedia.org/resource/Pope_Cosmas_I_of_Alexandria
tp518
aa(lp519
((lp520
Vhttp://dbpedia.org/class/yago/8th-centuryArchbishops
p521
aVhttp://dbpedia.org/class/yago/8th-centuryChristianSaints
p522
aVhttp://dbpedia.org/class/yago/Archbishop109805151
p523
aVhttp://dbpedia.org/class/yago/Bishop109857200
p524
aVhttp://dbpedia.org/class/yago/CausalAgent100007347
p525
aVhttp://dbpedia.org/class/yago/Clergyman109927451
p526
aVhttp://dbpedia.org/class/yago/GoodPerson110138767
p527
aVhttp://dbpedia.org/class/yago/Leader109623038
p528
aVhttp://dbpedia.org/class/yago/LivingThing100004258
p529
aVhttp://dbpedia.org/class/yago/Object100002684
p530
aVhttp://dbpedia.org/class/yago/Organism100004475
p531
aVhttp://dbpedia.org/class/yago/Person100007846
p532
aVhttp://dbpedia.org/class/yago/Pope110453533
p533
aVhttp://dbpedia.org/class/yago/Priest110470779
p534
aVhttp://dbpedia.org/class/yago/Saint110546850
p535
aVhttp://dbpedia.org/class/yago/SpiritualLeader109505153
p536
aVhttp://dbpedia.org/class/yago/Whole100003553
p537
aVhttp://dbpedia.org/class/yago/YagoLegalActorGeo
p538
aVhttp://www.w3.org/2002/07/owl#Thing
p539
aVhttp://xmlns.com/foaf/0.1/Person
p540
aVhttp://dbpedia.org/ontology/Person
p541
aVhttp://www.ontologydesignpatterns.org/ont/dul/DUL.owl#Agent
p542
aVhttp://www.ontologydesignpatterns.org/ont/dul/DUL.owl#NaturalPerson
p543
aVhttp://www.wikidata.org/entity/Q19546
p544
aVhttp://www.wikidata.org/entity/Q215627
p545
aVhttp://www.wikidata.org/entity/Q5
p546
aVhttp://dbpedia.org/ontology/Agent
p547
aVhttp://dbpedia.org/ontology/Cleric
p548
aVhttp://dbpedia.org/ontology/Pope
p549
aVhttp://schema.org/Person
p550
aVhttp://dbpedia.org/class/yago/CopticOrthodoxSaints
p551
aVhttp://dbpedia.org/class/yago/PopesOfTheCopticOrthodoxChurchOfAlexandria
p552
aVhttp://dbpedia.org/class/yago/YagoLegalActor
p553
aVhttp://dbpedia.org/class/yago/PhysicalEntity100001930
p554
aVhttp://dbpedia.org/resource/Pope_Cosmas_I_of_Alexandria
tp555
aa(lp556
((lp557
Vhttp://dbpedia.org/class/yago/3rd-centuryArchbishops
p558
aVhttp://dbpedia.org/class/yago/3rd-centuryChristianSaints
p559
aVhttp://dbpedia.org/class/yago/Archbishop109805151
p560
aVhttp://dbpedia.org/class/yago/Bishop109857200
p561
aVhttp://dbpedia.org/class/yago/CausalAgent100007347
p562
aVhttp://dbpedia.org/class/yago/Clergyman109927451
p563
aVhttp://dbpedia.org/class/yago/GoodPerson110138767
p564
aVhttp://dbpedia.org/class/yago/Intellectual109621545
p565
aVhttp://dbpedia.org/class/yago/Leader109623038
p566
aVhttp://dbpedia.org/class/yago/LivingThing100004258
p567
aVhttp://dbpedia.org/class/yago/Object100002684
p568
aVhttp://dbpedia.org/class/yago/Organism100004475
p569
aVhttp://dbpedia.org/class/yago/Patriarch110406905
p570
aVhttp://dbpedia.org/class/yago/Person100007846
p571
aVhttp://dbpedia.org/class/yago/Pope110453533
p572
aVhttp://dbpedia.org/class/yago/Priest110470779
p573
aVhttp://dbpedia.org/class/yago/Saint110546850
p574
aVhttp://dbpedia.org/class/yago/Scholar110557854
p575
aVhttp://dbpedia.org/class/yago/SpiritualLeader109505153
p576
aVhttp://dbpedia.org/class/yago/Theologian110705615
p577
aVhttp://dbpedia.org/class/yago/Whole100003553
p578
aVhttp://dbpedia.org/class/yago/YagoLegalActorGeo
p579
aVhttp://www.w3.org/2002/07/owl#Thing
p580
aVhttp://xmlns.com/foaf/0.1/Person
p581
aVhttp://dbpedia.org/ontology/Person
p582
aVhttp://www.ontologydesignpatterns.org/ont/dul/DUL.owl#Agent
p583
aVhttp://www.ontologydesignpatterns.org/ont/dul/DUL.owl#NaturalPerson
p584
aVhttp://www.wikidata.org/entity/Q19546
p585
aVhttp://www.wikidata.org/entity/Q215627
p586
aVhttp://www.wikidata.org/entity/Q5
p587
aVhttp://dbpedia.org/ontology/Agent
p588
aVhttp://dbpedia.org/ontology/Cleric
p589
aVhttp://dbpedia.org/ontology/Pope
p590
aVhttp://schema.org/Person
p591
aVhttp://umbel.org/umbel/rc/Cleric
p592
aVhttp://umbel.org/umbel/rc/Saint
p593
aVhttp://dbpedia.org/class/yago/CopticOrthodoxSaints
p594
aVhttp://dbpedia.org/class/yago/EgyptianTheologians
p595
aVhttp://dbpedia.org/class/yago/PopesOfTheCopticOrthodoxChurchOfAlexandria
p596
aVhttp://dbpedia.org/class/yago/YagoLegalActor
p597
aVhttp://dbpedia.org/class/yago/GreekOrthodoxPatriarchsOfAlexandria
p598
aVhttp://dbpedia.org/class/yago/PhysicalEntity100001930
p599
aVhttp://dbpedia.org/resource/Pope_Heraclas_of_Alexandria
tp600
aa(lp601
((lp602
Vhttp://dbpedia.org/class/yago/2nd-centuryBishops
p603
aVhttp://dbpedia.org/class/yago/2nd-centuryChristianSaints
p604
aVhttp://dbpedia.org/class/yago/Bishop109857200
p605
aVhttp://dbpedia.org/class/yago/CausalAgent100007347
p606
aVhttp://dbpedia.org/class/yago/Clergyman109927451
p607
aVhttp://dbpedia.org/class/yago/GoodPerson110138767
p608
aVhttp://dbpedia.org/class/yago/Leader109623038
p609
aVhttp://dbpedia.org/class/yago/LivingThing100004258
p610
aVhttp://dbpedia.org/class/yago/Object100002684
p611
aVhttp://dbpedia.org/class/yago/Organism100004475
p612
aVhttp://dbpedia.org/class/yago/Patriarch110406905
p613
aVhttp://dbpedia.org/class/yago/Person100007846
p614
aVhttp://dbpedia.org/class/yago/Pope110453533
p615
aVhttp://dbpedia.org/class/yago/Priest110470779
p616
aVhttp://dbpedia.org/class/yago/Saint110546850
p617
aVhttp://dbpedia.org/class/yago/SpiritualLeader109505153
p618
aVhttp://dbpedia.org/class/yago/Whole100003553
p619
aVhttp://dbpedia.org/class/yago/YagoLegalActorGeo
p620
aVhttp://www.w3.org/2002/07/owl#Thing
p621
aVhttp://xmlns.com/foaf/0.1/Person
p622
aVhttp://dbpedia.org/ontology/Person
p623
aVhttp://www.ontologydesignpatterns.org/ont/dul/DUL.owl#Agent
p624
aVhttp://www.ontologydesignpatterns.org/ont/dul/DUL.owl#NaturalPerson
p625
aVhttp://www.wikidata.org/entity/Q19546
p626
aVhttp://www.wikidata.org/entity/Q215627
p627
aVhttp://www.wikidata.org/entity/Q5
p628
aVhttp://dbpedia.org/ontology/Agent
p629
aVhttp://dbpedia.org/ontology/Cleric
p630
aVhttp://dbpedia.org/ontology/Pope
p631
aVhttp://schema.org/Person
p632
aVhttp://dbpedia.org/class/yago/CopticOrthodoxSaints
p633
aVhttp://dbpedia.org/class/yago/PopesOfTheCopticOrthodoxChurchOfAlexandria
p634
aVhttp://dbpedia.org/class/yago/YagoLegalActor
p635
aVhttp://dbpedia.org/class/yago/GreekOrthodoxPatriarchsOfAlexandria
p636
aVhttp://dbpedia.org/class/yago/PhysicalEntity100001930
p637
aVhttp://dbpedia.org/resource/Pope_Primus_of_Alexandria
tp638
aa(lp639
((lp640
Vhttp://dbpedia.org/class/yago/CausalAgent100007347
p641
aVhttp://dbpedia.org/class/yago/Leader109623038
p642
aVhttp://dbpedia.org/class/yago/LivingThing100004258
p643
aVhttp://dbpedia.org/class/yago/Object100002684
p644
aVhttp://dbpedia.org/class/yago/Organism100004475
p645
aVhttp://dbpedia.org/class/yago/Person100007846
p646
aVhttp://dbpedia.org/class/yago/Pope110453533
p647
aVhttp://dbpedia.org/class/yago/SpiritualLeader109505153
p648
aVhttp://dbpedia.org/class/yago/Whole100003553
p649
aVhttp://dbpedia.org/class/yago/YagoLegalActorGeo
p650
aVhttp://www.w3.org/2002/07/owl#Thing
p651
aVhttp://xmlns.com/foaf/0.1/Person
p652
aVhttp://dbpedia.org/ontology/Person
p653
aVhttp://www.ontologydesignpatterns.org/ont/dul/DUL.owl#Agent
p654
aVhttp://www.ontologydesignpatterns.org/ont/dul/DUL.owl#NaturalPerson
p655
aVhttp://www.wikidata.org/entity/Q19546
p656
aVhttp://www.wikidata.org/entity/Q215627
p657
aVhttp://www.wikidata.org/entity/Q5
p658
aVhttp://dbpedia.org/ontology/Agent
p659
aVhttp://dbpedia.org/ontology/Cleric
p660
aVhttp://dbpedia.org/ontology/Pope
p661
aVhttp://schema.org/Person
p662
aVhttp://dbpedia.org/class/yago/PopesOfTheCopticOrthodoxChurchOfAlexandria
p663
aVhttp://dbpedia.org/class/yago/YagoLegalActor
p664
aVhttp://dbpedia.org/class/yago/PhysicalEntity100001930
p665
aVhttp://dbpedia.org/resource/Pope_John_XII_of_Alexandria
tp666
aa(lp667
((lp668
Vhttp://dbpedia.org/class/yago/8th-centuryArchbishops
p669
aVhttp://dbpedia.org/class/yago/Archbishop109805151
p670
aVhttp://dbpedia.org/class/yago/Bishop109857200
p671
aVhttp://dbpedia.org/class/yago/CausalAgent100007347
p672
aVhttp://dbpedia.org/class/yago/Clergyman109927451
p673
aVhttp://dbpedia.org/class/yago/Leader109623038
p674
aVhttp://dbpedia.org/class/yago/LivingThing100004258
p675
aVhttp://dbpedia.org/class/yago/Object100002684
p676
aVhttp://dbpedia.org/class/yago/Organism100004475
p677
aVhttp://dbpedia.org/class/yago/Person100007846
p678
aVhttp://dbpedia.org/class/yago/Pope110453533
p679
aVhttp://dbpedia.org/class/yago/Priest110470779
p680
aVhttp://dbpedia.org/class/yago/SpiritualLeader109505153
p681
aVhttp://dbpedia.org/class/yago/Whole100003553
p682
aVhttp://dbpedia.org/class/yago/YagoLegalActorGeo
p683
aVhttp://dbpedia.org/class/yago/PopesOfTheCopticOrthodoxChurchOfAlexandria
p684
aVhttp://dbpedia.org/class/yago/YagoLegalActor
p685
aVhttp://dbpedia.org/class/yago/PhysicalEntity100001930
p686
aVhttp://dbpedia.org/resource/Pope_Theodosius_II_of_Alexandria
p687
tp688
aaa.