(lp1
(lp2
(lp3
Vhttp://dbpedia.org/resource/Crawford_v._Washington
p4
aa(lp5
aa(lp6
(lp7
Vhttp://dbpedia.org/resource/District_of_Columbia_v._Heller
p8
aa(lp9
aa(lp10
(lp11
Vhttp://dbpedia.org/resource/Gonzales_v._Oregon
p12
aa(lp13
aa(lp14
(lp15
Vhttp://dbpedia.org/resource/Good_News_Club_v._Milford_Central_School
p16
aa(lp17
aa(lp18
(lp19
Vhttp://dbpedia.org/resource/Loving_v._Virginia
p20
aa(lp21
aa(lp22
(lp23
Vhttp://dbpedia.org/resource/Morrissey_v._Brewer
p24
aa(lp25
aa(lp26
(lp27
Vhttp://dbpedia.org/resource/Planned_Parenthood_v._Rounds
p28
aa(lp29
aa(lp30
(lp31
Vhttp://dbpedia.org/resource/Rankin_v._McPherson
p32
aa(lp33
aa(lp34
(lp35
Vhttp://dbpedia.org/resource/Thor_Power_Tool_Company_v._Commissioner
p36
aa(lp37
aa(lp38
(lp39
Vhttp://dbpedia.org/resource/Trammel_v._United_States
p40
aa(lp41
aa(lp42
(lp43
Vhttp://dbpedia.org/resource/Watson_v._United_States
p44
aa(lp45
aa(lp46
(lp47
Vhttp://dbpedia.org/resource/Yates_v._United_States
p48
aa(lp49
aa(lp50
(lp51
Vhttp://dbpedia.org/resource/Biddle_v._Perovich
p52
aa(lp53
aa(lp54
(lp55
Vhttp://dbpedia.org/resource/Brady_v._Maryland
p56
aa(lp57
aa(lp58
(lp59
Vhttp://dbpedia.org/resource/Celotex_Corp._v._Catrett
p60
aa(lp61
aa(lp62
(lp63
Vhttp://dbpedia.org/resource/Gilmer_v._Interstate/Johnson_Lane_Corp.
p64
aa(lp65
aa(lp66
(lp67
Vhttp://dbpedia.org/resource/Immigration_and_Naturalization_Service_v._Doherty
p68
aa(lp69
aa.