(lp1
(lp2
(lp3
a(lp4
aa(lp5
(lp6
a(lp7
aa(lp8
(lp9
a(lp10
aa(lp11
(lp12
a(lp13
aa(lp14
(lp15
a(lp16
aa(lp17
(lp18
a(lp19
aa(lp20
(lp21
a(lp22
aa(lp23
(lp24
a(lp25
aa(lp26
(lp27
a(lp28
aa(lp29
(lp30
a(lp31
aa(lp32
(lp33
a(lp34
aa(lp35
(lp36
a(lp37
aa(lp38
(lp39
((lp40
Vhttp://dbpedia.org/class/yago/Alumnus109786338
p41
aVhttp://dbpedia.org/class/yago/BowdoinCollegeAlumni
p42
aVhttp://dbpedia.org/class/yago/CausalAgent100007347
p43
aVhttp://dbpedia.org/class/yago/Governor110140314
p44
aVhttp://dbpedia.org/class/yago/Intellectual109621545
p45
aVhttp://dbpedia.org/class/yago/Leader109623038
p46
aVhttp://dbpedia.org/class/yago/Legislator110253995
p47
aVhttp://dbpedia.org/class/yago/LivingThing100004258
p48
aVhttp://dbpedia.org/class/yago/Object100002684
p49
aVhttp://dbpedia.org/class/yago/Organism100004475
p50
aVhttp://dbpedia.org/class/yago/Person100007846
p51
aVhttp://dbpedia.org/class/yago/Politician110451263
p52
aVhttp://dbpedia.org/class/yago/Scholar110557854
p53
aVhttp://dbpedia.org/class/yago/Senator110578471
p54
aVhttp://dbpedia.org/class/yago/Whole100003553
p55
aVhttp://dbpedia.org/class/yago/YagoLegalActorGeo
p56
aVhttp://www.w3.org/2002/07/owl#Thing
p57
aVhttp://xmlns.com/foaf/0.1/Person
p58
aVhttp://dbpedia.org/ontology/Person
p59
aVhttp://www.ontologydesignpatterns.org/ont/dul/DUL.owl#Agent
p60
aVhttp://www.ontologydesignpatterns.org/ont/dul/DUL.owl#NaturalPerson
p61
aVhttp://www.wikidata.org/entity/Q132050
p62
aVhttp://www.wikidata.org/entity/Q215627
p63
aVhttp://www.wikidata.org/entity/Q5
p64
aVhttp://www.wikidata.org/entity/Q82955
p65
aVhttp://dbpedia.org/ontology/Agent
p66
aVhttp://dbpedia.org/ontology/Governor
p67
aVhttp://dbpedia.org/ontology/Politician
p68
aVhttp://schema.org/Person
p69
aVhttp://umbel.org/umbel/rc/StateGovernor
p70
aVhttp://dbpedia.org/class/yago/DemocraticPartyUnitedStatesSenators
p71
aVhttp://dbpedia.org/class/yago/PeopleFromAnnArbor,Michigan
p72
aVhttp://dbpedia.org/class/yago/PeopleFromBangor,Maine
p73
aVhttp://dbpedia.org/class/yago/PeopleFromYorkCounty,Maine
p74
aVhttp://dbpedia.org/class/yago/PhillipsExeterAcademyAlumni
p75
aVhttp://dbpedia.org/class/yago/YagoLegalActor
p76
aVhttp://dbpedia.org/class/yago/GovernorsOfMichigan
p77
aVhttp://dbpedia.org/class/yago/Lawgiver110249270
p78
aVhttp://dbpedia.org/class/yago/PhysicalEntity100001930
p79
aVhttp://dbpedia.org/class/yago/UnitedStatesSenatorsFromMichigan
p80
aVhttp://dbpedia.org/resource/Alpheus_Felch
tp81
aa(lp82
aa(lp83
(lp84
((lp85
Vhttp://dbpedia.org/class/yago/CausalAgent100007347
p86
aVhttp://dbpedia.org/class/yago/Governor110140314
p87
aVhttp://dbpedia.org/class/yago/Leader109623038
p88
aVhttp://dbpedia.org/class/yago/LivingThing100004258
p89
aVhttp://dbpedia.org/class/yago/Object100002684
p90
aVhttp://dbpedia.org/class/yago/Organism100004475
p91
aVhttp://dbpedia.org/class/yago/Person100007846
p92
aVhttp://dbpedia.org/class/yago/Politician110451263
p93
aVhttp://dbpedia.org/class/yago/Whole100003553
p94
aVhttp://dbpedia.org/class/yago/YagoLegalActorGeo
p95
aVhttp://www.w3.org/2002/07/owl#Thing
p96
aVhttp://xmlns.com/foaf/0.1/Person
p97
aVhttp://dbpedia.org/ontology/Person
p98
aVhttp://www.ontologydesignpatterns.org/ont/dul/DUL.owl#Agent
p99
aVhttp://www.ontologydesignpatterns.org/ont/dul/DUL.owl#NaturalPerson
p100
aVhttp://www.wikidata.org/entity/Q132050
p101
aVhttp://www.wikidata.org/entity/Q215627
p102
aVhttp://www.wikidata.org/entity/Q5
p103
aVhttp://www.wikidata.org/entity/Q82955
p104
aVhttp://dbpedia.org/ontology/Agent
p105
aVhttp://dbpedia.org/ontology/Governor
p106
aVhttp://dbpedia.org/ontology/Politician
p107
aVhttp://schema.org/Person
p108
aVhttp://dbpedia.org/class/yago/YagoLegalActor
p109
aVhttp://dbpedia.org/class/yago/GovernorsOfOyoState
p110
aVhttp://dbpedia.org/class/yago/GovernorsOfTarabaState
p111
aVhttp://dbpedia.org/class/yago/LivingPeople
p112
aVhttp://dbpedia.org/class/yago/PhysicalEntity100001930
p113
aVhttp://dbpedia.org/resource/Amen_Edore_Oyakhire
tp114
aa(lp115
aa(lp116
(lp117
((lp118
Vhttp://dbpedia.org/class/yago/CausalAgent100007347
p119
aVhttp://dbpedia.org/class/yago/Diplomat110013927
p120
aVhttp://dbpedia.org/class/yago/Governor110140314
p121
aVhttp://dbpedia.org/class/yago/HighCommissioner110174445
p122
aVhttp://dbpedia.org/class/yago/Leader109623038
p123
aVhttp://dbpedia.org/class/yago/LivingThing100004258
p124
aVhttp://dbpedia.org/class/yago/Object100002684
p125
aVhttp://dbpedia.org/class/yago/Official110372373
p126
aVhttp://dbpedia.org/class/yago/Organism100004475
p127
aVhttp://dbpedia.org/class/yago/Person100007846
p128
aVhttp://dbpedia.org/class/yago/Politician110451263
p129
aVhttp://dbpedia.org/class/yago/SkilledWorker110605985
p130
aVhttp://dbpedia.org/class/yago/Whole100003553
p131
aVhttp://dbpedia.org/class/yago/Worker109632518
p132
aVhttp://dbpedia.org/class/yago/YagoLegalActorGeo
p133
aVhttp://www.w3.org/2002/07/owl#Thing
p134
aVhttp://xmlns.com/foaf/0.1/Person
p135
aVhttp://dbpedia.org/ontology/Person
p136
aVhttp://www.ontologydesignpatterns.org/ont/dul/DUL.owl#Agent
p137
aVhttp://www.ontologydesignpatterns.org/ont/dul/DUL.owl#NaturalPerson
p138
aVhttp://www.wikidata.org/entity/Q132050
p139
aVhttp://www.wikidata.org/entity/Q215627
p140
aVhttp://www.wikidata.org/entity/Q5
p141
aVhttp://www.wikidata.org/entity/Q82955
p142
aVhttp://dbpedia.org/ontology/Agent
p143
aVhttp://dbpedia.org/ontology/Governor
p144
aVhttp://dbpedia.org/ontology/Politician
p145
aVhttp://schema.org/Person
p146
aVhttp://umbel.org/umbel/rc/Politician
p147
aVhttp://umbel.org/umbel/rc/StateGovernor
p148
aVhttp://dbpedia.org/class/yago/FrenchPolynesianPoliticians
p149
aVhttp://dbpedia.org/class/yago/PeopleFromHaute-Vienne
p150
aVhttp://dbpedia.org/class/yago/YagoLegalActor
p151
aVhttp://dbpedia.org/class/yago/HighCommissionersOfTheRepublicInFrenchPolynesia
p152
aVhttp://dbpedia.org/class/yago/LivingPeople
p153
aVhttp://dbpedia.org/class/yago/PhysicalEntity100001930
p154
aVhttp://dbpedia.org/resource/Anne_Bouquet
tp155
aa(lp156
aa(lp157
(lp158
((lp159
Vhttp://dbpedia.org/class/yago/Alumnus109786338
p160
aVhttp://dbpedia.org/class/yago/CausalAgent100007347
p161
aVhttp://dbpedia.org/class/yago/Governor110140314
p162
aVhttp://dbpedia.org/class/yago/Intellectual109621545
p163
aVhttp://dbpedia.org/class/yago/Leader109623038
p164
aVhttp://dbpedia.org/class/yago/LivingThing100004258
p165
aVhttp://dbpedia.org/class/yago/Object100002684
p166
aVhttp://dbpedia.org/class/yago/Organism100004475
p167
aVhttp://dbpedia.org/class/yago/Person100007846
p168
aVhttp://dbpedia.org/class/yago/Politician110451263
p169
aVhttp://dbpedia.org/class/yago/Scholar110557854
p170
aVhttp://dbpedia.org/class/yago/Whole100003553
p171
aVhttp://dbpedia.org/class/yago/YagoLegalActorGeo
p172
aVhttp://www.w3.org/2002/07/owl#Thing
p173
aVhttp://xmlns.com/foaf/0.1/Person
p174
aVhttp://dbpedia.org/ontology/Person
p175
aVhttp://www.ontologydesignpatterns.org/ont/dul/DUL.owl#Agent
p176
aVhttp://www.ontologydesignpatterns.org/ont/dul/DUL.owl#NaturalPerson
p177
aVhttp://www.wikidata.org/entity/Q132050
p178
aVhttp://www.wikidata.org/entity/Q215627
p179
aVhttp://www.wikidata.org/entity/Q5
p180
aVhttp://www.wikidata.org/entity/Q82955
p181
aVhttp://dbpedia.org/ontology/Agent
p182
aVhttp://dbpedia.org/ontology/Governor
p183
aVhttp://dbpedia.org/ontology/Politician
p184
aVhttp://schema.org/Person
p185
aVhttp://umbel.org/umbel/rc/Politician
p186
aVhttp://umbel.org/umbel/rc/StateGovernor
p187
aVhttp://dbpedia.org/class/yago/YagoLegalActor
p188
aVhttp://dbpedia.org/class/yago/GovernorsOfBritishCeylon
p189
aVhttp://dbpedia.org/class/yago/GovernorsOfMadras
p190
aVhttp://dbpedia.org/class/yago/GovernorsOfTasmania
p191
aVhttp://dbpedia.org/class/yago/GovernorsOfTrinidadAndTobago
p192
aVhttp://dbpedia.org/class/yago/GraduatesOfTheRoyalMilitaryAcademySandhurst
p193
aVhttp://dbpedia.org/class/yago/PhysicalEntity100001930
p194
aVhttp://dbpedia.org/resource/Arthur_Havelock
tp195
aa(lp196
aa(lp197
(lp198
((lp199
Vhttp://dbpedia.org/class/yago/Adult109605289
p200
aVhttp://dbpedia.org/class/yago/AfghanEducators
p201
aVhttp://dbpedia.org/class/yago/AfghanGovernors
p202
aVhttp://dbpedia.org/class/yago/AfghanPhysicians
p203
aVhttp://dbpedia.org/class/yago/CausalAgent100007347
p204
aVhttp://dbpedia.org/class/yago/Doctor110020890
p205
aVhttp://dbpedia.org/class/yago/Educator110045713
p206
aVhttp://dbpedia.org/class/yago/Governor110140314
p207
aVhttp://dbpedia.org/class/yago/HealthProfessional110165109
p208
aVhttp://dbpedia.org/class/yago/Leader109623038
p209
aVhttp://dbpedia.org/class/yago/LivingThing100004258
p210
aVhttp://dbpedia.org/class/yago/Object100002684
p211
aVhttp://dbpedia.org/class/yago/Organism100004475
p212
aVhttp://dbpedia.org/class/yago/Person100007846
p213
aVhttp://dbpedia.org/class/yago/Politician110451263
p214
aVhttp://dbpedia.org/class/yago/Professional110480253
p215
aVhttp://dbpedia.org/class/yago/Whole100003553
p216
aVhttp://dbpedia.org/class/yago/YagoLegalActorGeo
p217
aVhttp://www.w3.org/2002/07/owl#Thing
p218
aVhttp://xmlns.com/foaf/0.1/Person
p219
aVhttp://dbpedia.org/ontology/Person
p220
aVhttp://www.ontologydesignpatterns.org/ont/dul/DUL.owl#Agent
p221
aVhttp://www.ontologydesignpatterns.org/ont/dul/DUL.owl#NaturalPerson
p222
aVhttp://www.wikidata.org/entity/Q132050
p223
aVhttp://www.wikidata.org/entity/Q215627
p224
aVhttp://www.wikidata.org/entity/Q5
p225
aVhttp://www.wikidata.org/entity/Q82955
p226
aVhttp://dbpedia.org/ontology/Agent
p227
aVhttp://dbpedia.org/ontology/Governor
p228
aVhttp://dbpedia.org/ontology/Politician
p229
aVhttp://schema.org/Person
p230
aVhttp://dbpedia.org/class/yago/PashtunPeople
p231
aVhttp://dbpedia.org/class/yago/YagoLegalActor
p232
aVhttp://dbpedia.org/class/yago/LivingPeople
p233
aVhttp://dbpedia.org/class/yago/MedicalPractitioner110305802
p234
aVhttp://dbpedia.org/class/yago/PhysicalEntity100001930
p235
aVhttp://dbpedia.org/resource/Daud_Shah_Saba
tp236
aa(lp237
aa(lp238
(lp239
((lp240
Vhttp://dbpedia.org/class/yago/CausalAgent100007347
p241
aVhttp://dbpedia.org/class/yago/LivingThing100004258
p242
aVhttp://dbpedia.org/class/yago/Object100002684
p243
aVhttp://dbpedia.org/class/yago/Organism100004475
p244
aVhttp://dbpedia.org/class/yago/Person100007846
p245
aVhttp://dbpedia.org/class/yago/Whole100003553
p246
aVhttp://dbpedia.org/class/yago/YagoLegalActorGeo
p247
aVhttp://www.w3.org/2002/07/owl#Thing
p248
aVhttp://xmlns.com/foaf/0.1/Person
p249
aVhttp://dbpedia.org/ontology/Person
p250
aVhttp://www.ontologydesignpatterns.org/ont/dul/DUL.owl#Agent
p251
aVhttp://www.ontologydesignpatterns.org/ont/dul/DUL.owl#NaturalPerson
p252
aVhttp://www.wikidata.org/entity/Q132050
p253
aVhttp://www.wikidata.org/entity/Q215627
p254
aVhttp://www.wikidata.org/entity/Q5
p255
aVhttp://www.wikidata.org/entity/Q82955
p256
aVhttp://dbpedia.org/ontology/Agent
p257
aVhttp://dbpedia.org/ontology/Governor
p258
aVhttp://dbpedia.org/ontology/Politician
p259
aVhttp://schema.org/Person
p260
aVhttp://dbpedia.org/class/yago/PeopleFromPangasinan
p261
aVhttp://dbpedia.org/class/yago/PeopleOfSpanishColonialPhilippines
p262
aVhttp://dbpedia.org/class/yago/YagoLegalActor
p263
aVhttp://dbpedia.org/class/yago/IlocanoPeople
p264
aVhttp://dbpedia.org/class/yago/PhysicalEntity100001930
p265
aVhttp://dbpedia.org/resource/Diego_Silang
p266
tp267
aa(lp268
aa.