(lp1
(dp2
I0
(dp3
I0
(lp4
sI1
(lp5
sI2
(lp6
ssI1
(dp7
I0
g5
sI1
(lp8
sI2
(lp9
ssI2
(dp10
I0
g6
sI1
g9
sI2
(lp11
ssa(dp12
I0
(dp13
I0
(lp14
sI1
(lp15
sI2
(lp16
ssI1
(dp17
I0
g15
sI1
(lp18
sI2
(lp19
ssI2
(dp20
I0
g16
sI1
g19
sI2
(lp21
ssa(dp22
I0
(dp23
I0
(lp24
sI1
(lp25
sI2
(lp26
ssI1
(dp27
I0
g25
sI1
(lp28
sI2
(lp29
ssI2
(dp30
I0
g26
sI2
(lp31
ssa(dp32
I0
(dp33
I0
(lp34
sI1
(lp35
sI2
(lp36
ssI1
(dp37
I0
g35
sI1
(lp38
sI2
(lp39
ssI2
(dp40
I0
g36
sI1
g39
sI2
(lp41
ssa(dp42
I0
(dp43
I0
(lp44
sI1
(lp45
sI2
(lp46
Vhttp://www.w3.org/ns/prov#wasDerivedFrom
p47
assI1
(dp48
I0
g45
sI1
(lp49
sI2
(lp50
ssI2
(dp51
I0
g46
sI1
g50
sI2
(lp52
ssa(dp53
I0
(dp54
I0
(lp55
sI1
(lp56
sI2
(lp57
ssI1
(dp58
I0
g56
sI1
(lp59
sI2
(lp60
ssI2
(dp61
I0
g57
sI2
(lp62
ssa(dp63
I0
(dp64
I0
(lp65
sI1
(lp66
sI2
(lp67
ssI1
(dp68
I0
g66
sI1
(lp69
sI2
(lp70
ssI2
(dp71
I0
g67
sI1
g70
sI2
(lp72
ssa(dp73
I0
(dp74
I0
(lp75
sI1
(lp76
sI2
(lp77
Vhttp://www.w3.org/ns/prov#wasDerivedFrom
p78
assI1
(dp79
I0
g76
sI1
(lp80
sI2
(lp81
ssI2
(dp82
I0
g77
sI1
g81
sI2
(lp83
ssa(dp84
I0
(dp85
I0
(lp86
sI1
(lp87
sI2
(lp88
ssI1
(dp89
I0
g87
sI1
(lp90
sI2
(lp91
ssI2
(dp92
I0
g88
sI2
(lp93
ssa(dp94
I0
(dp95
I0
(lp96
sI1
(lp97
sI2
(lp98
ssI1
(dp99
I0
g97
sI1
(lp100
sI2
(lp101
ssI2
(dp102
I0
g98
sI1
g101
sI2
(lp103
ssa(dp104
I0
(dp105
I0
(lp106
sI1
(lp107
sI2
(lp108
ssI1
(dp109
I0
g107
sI1
(lp110
sI2
(lp111
ssI2
(dp112
I0
g108
sI2
(lp113
ssa(dp114
I0
(dp115
I0
(lp116
sI1
(lp117
sI2
(lp118
ssI1
(dp119
I0
g117
sI1
(lp120
sI2
(lp121
ssI2
(dp122
I0
g118
sI1
g121
sI2
(lp123
ssa(dp124
I0
(dp125
I0
(lp126
sI1
(lp127
sI2
(lp128
ssI1
(dp129
I0
g127
sI1
(lp130
sI2
(lp131
ssI2
(dp132
I0
g128
sI2
(lp133
ssa(dp134
I0
(dp135
I0
(lp136
sI1
(lp137
sI2
(lp138
ssI1
(dp139
I0
g137
sI1
(lp140
sI2
(lp141
ssI2
(dp142
I0
g138
sI1
g141
sI2
(lp143
ssa(dp144
I0
(dp145
I0
(lp146
sI1
(lp147
sI2
(lp148
ssI1
(dp149
I0
g147
sI1
(lp150
sI2
(lp151
ssI2
(dp152
I0
g148
sI1
g151
sI2
(lp153
ssa(dp154
I0
(dp155
I0
(lp156
sI1
(lp157
sI2
(lp158
Vhttp://www.w3.org/ns/prov#wasDerivedFrom
p159
assI1
(dp160
I0
g157
sI1
(lp161
sI2
(lp162
ssI2
(dp163
I0
g158
sI1
g162
sI2
(lp164
ssa(dp165
I0
(dp166
I0
(lp167
sI1
(lp168
sI2
(lp169
Vhttp://www.w3.org/ns/prov#wasDerivedFrom
p170
assI1
(dp171
I0
g168
sI1
(lp172
sI2
(lp173
ssI2
(dp174
I0
g169
sI1
g173
sI2
(lp175
ssa(dp176
I0
(dp177
I0
(lp178
sI1
(lp179
sI2
(lp180
Vhttp://www.w3.org/ns/prov#wasDerivedFrom
p181
assI1
(dp182
I0
g179
sI1
(lp183
sI2
(lp184
ssI2
(dp185
I0
g180
sI1
g184
sI2
(lp186
ssa(dp187
I0
(dp188
I0
(lp189
sI1
(lp190
sI2
(lp191
ssI1
(dp192
I0
g190
sI1
(lp193
sI2
(lp194
ssI2
(dp195
I0
g191
sI2
(lp196
ssa.