(lp1
(lp2
(lp3
a(lp4
a(lp5
aa(lp6
(lp7
a(lp8
a(lp9
aa(lp10
(lp11
a(lp12
a(lp13
aa(lp14
(lp15
a(lp16
a(lp17
aa(lp18
(lp19
a(lp20
a(lp21
aa(lp22
(lp23
a(lp24
Vhttp://dbpedia.org/resource/John_Nichols_(journalist)
p25
aa(lp26
aa(lp27
(lp28
a(lp29
Vhttp://dbpedia.org/resource/John_I._Nolan
p30
aa(lp31
aa(lp32
(lp33
a(lp34
a(lp35
aa(lp36
(lp37
a(lp38
a(lp39
aa(lp40
(lp41
a(lp42
a(lp43
aa(lp44
(lp45
a(lp46
a(lp47
aa(lp48
(lp49
a(lp50
a(lp51
aa(lp52
(lp53
a(lp54
a(lp55
aa(lp56
(lp57
a(lp58
a(lp59
aa(lp60
(lp61
a(lp62
Vhttp://dbpedia.org/resource/Cindy_Elavsky
p63
aa(lp64
aa(lp65
(lp66
a(lp67
Vhttp://dbpedia.org/resource/James_M._Hanley
p68
aa(lp69
aa(lp70
(lp71
a(lp72
a(lp73
aa(lp74
(lp75
a(lp76
a(lp77
aa(lp78
(lp79
a(lp80
a(lp81
aa.