(lp1
(lp2
(lp3
a(lp4
a(lp5
aa(lp6
(lp7
a(lp8
a(lp9
aa(lp10
(lp11
a(lp12
((lp13
Vhttp://www.w3.org/2002/07/owl#Thing
p14
aVhttp://dbpedia.org/resource/Initiation
p15
tp16
aa(lp17
aa(lp18
(lp19
a(lp20
a(lp21
aa(lp22
(lp23
a(lp24
a(lp25
aa(lp26
(lp27
a(lp28
a(lp29
aa(lp30
(lp31
a(lp32
a(lp33
aa(lp34
(lp35
a(lp36
a(lp37
aa(lp38
(lp39
a(lp40
a(lp41
aa(lp42
(lp43
a(lp44
a(lp45
aa(lp46
(lp47
a(lp48
a(lp49
aa(lp50
(lp51
a(lp52
a(lp53
aa(lp54
(lp55
a(lp56
a(lp57
aa(lp58
(lp59
a(lp60
a(lp61
aa(lp62
(lp63
a(lp64
a(lp65
aa(lp66
(lp67
a(lp68
a(lp69
aa(lp70
(lp71
a(lp72
a(lp73
aa(lp74
(lp75
a(lp76
a(lp77
aa(lp78
(lp79
a(lp80
a(lp81
aa.