ccollections
defaultdict
p1
(c__builtin__
dict
p2
tRp3
I1
(dp4
I0
(lp5
sI2
(lp6
sI3
(lp7
ssI2
(dp8
I0
(lp9
sI2
(lp10
sI3
(lp11
ssI3
(dp12
I0
(lp13
sI2
(lp14
sI3
(lp15
ssI5
(dp16
I0
(lp17
sI2
(lp18
sI3
(lp19
ssI6
(dp20
I0
(lp21
sI2
(lp22
sI3
(lp23
Vhttp://www.w3.org/ns/prov#wasDerivedFrom
p24
assI7
(dp25
I0
(lp26
sI2
(lp27
sI3
(lp28
ssI8
(dp29
I0
(lp30
sI2
(lp31
sI3
(lp32
ssI11
(dp33
I0
(lp34
sI2
(lp35
sI3
(lp36
ssI13
(dp37
I0
(lp38
sI2
(lp39
sI3
(lp40
ssI15
(dp41
I0
(lp42
sI2
(lp43
sI3
(lp44
ssI17
(dp45
I0
(lp46
sI2
(lp47
sI3
(lp48
ssI18
(dp49
I0
(lp50
sI2
(lp51
sI3
(lp52
ss.