ccollections
defaultdict
p1
(c__builtin__
dict
p2
tRp3
I17
(dp4
I0
(lp5
sI1
(lp6
sI2
(lp7
sI3
(lp8
sI5
(lp9
sI6
(lp10
sI7
(lp11
sI8
(lp12
sI9
(lp13
ssI13
(dp14
I0
(lp15
sI1
(lp16
sI2
(lp17
sI3
(lp18
sI5
(lp19
sI6
(lp20
sI7
(lp21
sI8
(lp22
sI9
(lp23
ssI14
(dp24
I0
(lp25
sI1
(lp26
sI2
(lp27
sI3
(lp28
sI5
(lp29
sI6
(lp30
sI7
(lp31
sI8
(lp32
sI9
(lp33
ssI15
(dp34
I0
(lp35
sI1
(lp36
sI2
(lp37
sI3
(lp38
sI5
(lp39
sI6
(lp40
sI7
(lp41
sI8
(lp42
sI9
(lp43
ss.