(lp1
(lp2
(lp3
((lp4
Vhttp://dbpedia.org/class/yago/Abstraction100002137
p5
aVhttp://dbpedia.org/class/yago/Chemical114806838
p6
aVhttp://dbpedia.org/class/yago/Compound114818238
p7
aVhttp://dbpedia.org/class/yago/Macromolecule114944888
p8
aVhttp://dbpedia.org/class/yago/Material114580897
p9
aVhttp://dbpedia.org/class/yago/Matter100020827
p10
aVhttp://dbpedia.org/class/yago/OrganicCompound114727670
p11
aVhttp://dbpedia.org/class/yago/Part113809207
p12
aVhttp://dbpedia.org/class/yago/Protein114728724
p13
aVhttp://dbpedia.org/class/yago/Relation100031921
p14
aVhttp://dbpedia.org/class/yago/Substance100019613
p15
aVhttp://dbpedia.org/class/yago/Thing100002452
p16
aVhttp://dbpedia.org/class/yago/Proteins
p17
aVhttp://www.w3.org/2002/07/owl#Thing
p18
aVhttp://www.wikidata.org/entity/Q206229
p19
aVhttp://www.wikidata.org/entity/Q8054
p20
aVhttp://dbpedia.org/ontology/Biomolecule
p21
aVhttp://dbpedia.org/ontology/Protein
p22
aVhttp://dbpedia.org/class/yago/Molecule114682133
p23
aVhttp://dbpedia.org/class/yago/PhysicalEntity100001930
p24
aVhttp://dbpedia.org/class/yago/Unit109465459
p25
aVhttp://dbpedia.org/resource/Follistatin
tp26
aa(lp27
((lp28
Vhttp://dbpedia.org/class/yago/BodyPart105220461
p29
aVhttp://dbpedia.org/class/yago/Part109385911
p30
aVhttp://dbpedia.org/class/yago/Receptor105608868
p31
aVhttp://dbpedia.org/class/yago/Structure105225602
p32
aVhttp://dbpedia.org/class/yago/Thing100002452
p33
aVhttp://www.w3.org/2002/07/owl#Thing
p34
aVhttp://www.wikidata.org/entity/Q206229
p35
aVhttp://www.wikidata.org/entity/Q8054
p36
aVhttp://dbpedia.org/ontology/Biomolecule
p37
aVhttp://dbpedia.org/ontology/Protein
p38
aVhttp://dbpedia.org/class/yago/GProteinCoupledReceptors
p39
aVhttp://dbpedia.org/class/yago/PhysicalEntity100001930
p40
aVhttp://dbpedia.org/resource/Frizzled
tp41
aa(lp42
((lp43
Vhttp://www.w3.org/2002/07/owl#Thing
p44
aVhttp://www.wikidata.org/entity/Q206229
p45
aVhttp://www.wikidata.org/entity/Q8054
p46
aVhttp://dbpedia.org/ontology/Biomolecule
p47
aVhttp://dbpedia.org/ontology/Protein
p48
aVhttp://dbpedia.org/resource/GSC_(gene)
tp49
aa(lp50
((lp51
Vhttp://dbpedia.org/class/yago/Abstraction100002137
p52
aVhttp://dbpedia.org/class/yago/Activator114723079
p53
aVhttp://dbpedia.org/class/yago/Catalyst114723628
p54
aVhttp://dbpedia.org/class/yago/Chemical114806838
p55
aVhttp://dbpedia.org/class/yago/Compound114818238
p56
aVhttp://dbpedia.org/class/yago/Enzyme114732946
p57
aVhttp://dbpedia.org/class/yago/Macromolecule114944888
p58
aVhttp://dbpedia.org/class/yago/Material114580897
p59
aVhttp://dbpedia.org/class/yago/Matter100020827
p60
aVhttp://dbpedia.org/class/yago/OrganicCompound114727670
p61
aVhttp://dbpedia.org/class/yago/Part113809207
p62
aVhttp://dbpedia.org/class/yago/Protein114728724
p63
aVhttp://dbpedia.org/class/yago/Relation100031921
p64
aVhttp://dbpedia.org/class/yago/Substance100019613
p65
aVhttp://dbpedia.org/class/yago/Thing100002452
p66
aVhttp://www.w3.org/2002/07/owl#Thing
p67
aVhttp://www.wikidata.org/entity/Q206229
p68
aVhttp://www.wikidata.org/entity/Q8054
p69
aVhttp://dbpedia.org/ontology/Biomolecule
p70
aVhttp://dbpedia.org/ontology/Protein
p71
aVhttp://umbel.org/umbel/rc/ProteinMolecule
p72
aVhttp://dbpedia.org/class/yago/Molecule114682133
p73
aVhttp://dbpedia.org/class/yago/PhysicalEntity100001930
p74
aVhttp://dbpedia.org/class/yago/Unit109465459
p75
aVhttp://dbpedia.org/resource/Gamma-glutamyl_transpeptidase
tp76
aa(lp77
((lp78
Vhttp://www.w3.org/2002/07/owl#Thing
p79
aVhttp://www.wikidata.org/entity/Q206229
p80
aVhttp://www.wikidata.org/entity/Q8054
p81
aVhttp://dbpedia.org/ontology/Biomolecule
p82
aVhttp://dbpedia.org/ontology/Protein
p83
aVhttp://dbpedia.org/resource/HCCS_(gene)
tp84
aa(lp85
((lp86
Vhttp://www.w3.org/2002/07/owl#Thing
p87
aVhttp://www.wikidata.org/entity/Q206229
p88
aVhttp://www.wikidata.org/entity/Q8054
p89
aVhttp://dbpedia.org/ontology/Biomolecule
p90
aVhttp://dbpedia.org/ontology/Protein
p91
aVhttp://dbpedia.org/resource/HOMER1
tp92
aa(lp93
((lp94
Vhttp://www.w3.org/2002/07/owl#Thing
p95
aVhttp://www.wikidata.org/entity/Q206229
p96
aVhttp://www.wikidata.org/entity/Q8054
p97
aVhttp://dbpedia.org/ontology/Biomolecule
p98
aVhttp://dbpedia.org/ontology/Protein
p99
aVhttp://dbpedia.org/resource/Host_cell_factor_C1
tp100
aa(lp101
((lp102
Vhttp://dbpedia.org/class/yago/Abstraction100002137
p103
aVhttp://dbpedia.org/class/yago/CanadianMusicMedia
p104
aVhttp://dbpedia.org/class/yago/Company108058098
p105
aVhttp://dbpedia.org/class/yago/Group100031264
p106
aVhttp://dbpedia.org/class/yago/Institution108053576
p107
aVhttp://dbpedia.org/class/yago/Organization108008335
p108
aVhttp://dbpedia.org/class/yago/SocialGroup107950920
p109
aVhttp://dbpedia.org/class/yago/YagoLegalActorGeo
p110
aVhttp://www.w3.org/2002/07/owl#Thing
p111
aVhttp://www.wikidata.org/entity/Q386724
p112
aVhttp://dbpedia.org/ontology/Website
p113
aVhttp://dbpedia.org/ontology/Work
p114
aVhttp://schema.org/CreativeWork
p115
aVhttp://schema.org/WebPage
p116
aVhttp://dbpedia.org/class/yago/YagoPermanentlyLocatedEntity
p117
aVhttp://dbpedia.org/class/yago/YagoLegalActor
p118
aVhttp://dbpedia.org/resource/Jam!
tp119
aa(lp120
((lp121
Vhttp://www.w3.org/2002/07/owl#Thing
p122
aVhttp://www.wikidata.org/entity/Q206229
p123
aVhttp://www.wikidata.org/entity/Q8054
p124
aVhttp://dbpedia.org/ontology/Biomolecule
p125
aVhttp://dbpedia.org/ontology/Protein
p126
aVhttp://dbpedia.org/resource/KIN_(gene)
tp127
aa(lp128
a(lp129
((lp130
Vhttp://www.w3.org/2002/07/owl#Thing
p131
aVhttp://www.wikidata.org/entity/Q206229
p132
aVhttp://www.wikidata.org/entity/Q8054
p133
aVhttp://dbpedia.org/ontology/Biomolecule
p134
aVhttp://dbpedia.org/ontology/Protein
p135
aVhttp://dbpedia.org/resource/Kisspeptin
tp136
aa(lp137
((lp138
Vhttp://dbpedia.org/class/yago/Abstraction100002137
p139
aVhttp://dbpedia.org/class/yago/Arrangement107938773
p140
aVhttp://dbpedia.org/class/yago/BodySubstance105263850
p141
aVhttp://dbpedia.org/class/yago/Gene105436752
p142
aVhttp://dbpedia.org/class/yago/Group100031264
p143
aVhttp://dbpedia.org/class/yago/Hormone105407119
p144
aVhttp://dbpedia.org/class/yago/LiquidBodySubstance105397468
p145
aVhttp://dbpedia.org/class/yago/Matter100020827
p146
aVhttp://dbpedia.org/class/yago/Ordering108456993
p147
aVhttp://dbpedia.org/class/yago/Part113809207
p148
aVhttp://dbpedia.org/class/yago/Relation100031921
p149
aVhttp://dbpedia.org/class/yago/Secretion105404728
p150
aVhttp://dbpedia.org/class/yago/Sequence108459252
p151
aVhttp://dbpedia.org/class/yago/Series108457976
p152
aVhttp://dbpedia.org/class/yago/Substance100019613
p153
aVhttp://www.w3.org/2002/07/owl#Thing
p154
aVhttp://www.wikidata.org/entity/Q206229
p155
aVhttp://www.wikidata.org/entity/Q8054
p156
aVhttp://dbpedia.org/ontology/Biomolecule
p157
aVhttp://dbpedia.org/ontology/Protein
p158
aVhttp://dbpedia.org/class/yago/MutatedGenes
p159
aVhttp://dbpedia.org/class/yago/PeptideHormones
p160
aVhttp://dbpedia.org/class/yago/PhysicalEntity100001930
p161
aVhttp://dbpedia.org/resource/Leptin
tp162
aa(lp163
((lp164
Vhttp://dbpedia.org/class/yago/Abstraction100002137
p165
aVhttp://dbpedia.org/class/yago/Activator114723079
p166
aVhttp://dbpedia.org/class/yago/Catalyst114723628
p167
aVhttp://dbpedia.org/class/yago/Chemical114806838
p168
aVhttp://dbpedia.org/class/yago/Compound114818238
p169
aVhttp://dbpedia.org/class/yago/Enzyme114732946
p170
aVhttp://dbpedia.org/class/yago/Macromolecule114944888
p171
aVhttp://dbpedia.org/class/yago/Material114580897
p172
aVhttp://dbpedia.org/class/yago/Matter100020827
p173
aVhttp://dbpedia.org/class/yago/OrganicCompound114727670
p174
aVhttp://dbpedia.org/class/yago/Part113809207
p175
aVhttp://dbpedia.org/class/yago/Protein114728724
p176
aVhttp://dbpedia.org/class/yago/Relation100031921
p177
aVhttp://dbpedia.org/class/yago/Substance100019613
p178
aVhttp://dbpedia.org/class/yago/Thing100002452
p179
aVhttp://www.w3.org/2002/07/owl#Thing
p180
aVhttp://www.wikidata.org/entity/Q206229
p181
aVhttp://www.wikidata.org/entity/Q8054
p182
aVhttp://dbpedia.org/ontology/Biomolecule
p183
aVhttp://dbpedia.org/ontology/Protein
p184
aVhttp://dbpedia.org/class/yago/Enzymes
p185
aVhttp://dbpedia.org/class/yago/PeripheralMembraneProteins
p186
aVhttp://dbpedia.org/class/yago/Molecule114682133
p187
aVhttp://dbpedia.org/class/yago/PhysicalEntity100001930
p188
aVhttp://dbpedia.org/class/yago/Unit109465459
p189
aVhttp://dbpedia.org/resource/Lipoxygenase
tp190
aa(lp191
((lp192
Vhttp://dbpedia.org/class/yago/Abstraction100002137
p193
aVhttp://dbpedia.org/class/yago/Beginning107290905
p194
aVhttp://dbpedia.org/class/yago/Cause107326557
p195
aVhttp://dbpedia.org/class/yago/Event100029378
p196
aVhttp://dbpedia.org/class/yago/Happening107283608
p197
aVhttp://www.w3.org/2002/07/owl#Thing
p198
aVhttp://www.wikidata.org/entity/Q206229
p199
aVhttp://www.wikidata.org/entity/Q8054
p200
aVhttp://dbpedia.org/ontology/Biomolecule
p201
aVhttp://dbpedia.org/ontology/Protein
p202
aVhttp://dbpedia.org/class/yago/PsychologicalFeature100023100
p203
aVhttp://dbpedia.org/class/yago/YagoPermanentlyLocatedEntity
p204
aVhttp://dbpedia.org/class/yago/Factor107327805
p205
aVhttp://dbpedia.org/class/yago/Origin107323922
p206
aVhttp://dbpedia.org/class/yago/TranscriptionFactors
p207
aVhttp://dbpedia.org/resource/MAFF_(gene)
tp208
aa(lp209
((lp210
Vhttp://www.w3.org/2002/07/owl#Thing
p211
aVhttp://www.wikidata.org/entity/Q206229
p212
aVhttp://www.wikidata.org/entity/Q8054
p213
aVhttp://dbpedia.org/ontology/Biomolecule
p214
aVhttp://dbpedia.org/ontology/Protein
p215
aVhttp://dbpedia.org/resource/MCC_(gene)
tp216
aa(lp217
((lp218
Vhttp://www.w3.org/2002/07/owl#Thing
p219
aVhttp://www.wikidata.org/entity/Q206229
p220
aVhttp://www.wikidata.org/entity/Q8054
p221
aVhttp://dbpedia.org/ontology/Biomolecule
p222
aVhttp://dbpedia.org/ontology/Protein
p223
aVhttp://dbpedia.org/resource/MPG_(gene)
tp224
aa(lp225
((lp226
Vhttp://www.w3.org/2002/07/owl#Thing
p227
aVhttp://www.wikidata.org/entity/Q206229
p228
aVhttp://www.wikidata.org/entity/Q8054
p229
aVhttp://dbpedia.org/ontology/Biomolecule
p230
aVhttp://dbpedia.org/ontology/Protein
p231
aVhttp://dbpedia.org/resource/MSC_(gene)
tp232
aa(lp233
a(lp234
((lp235
Vhttp://www.w3.org/2002/07/owl#Thing
p236
aVhttp://www.wikidata.org/entity/Q206229
p237
aVhttp://www.wikidata.org/entity/Q8054
p238
aVhttp://dbpedia.org/ontology/Biomolecule
p239
aVhttp://dbpedia.org/ontology/Protein
p240
aVhttp://dbpedia.org/resource/MYC-induced_nuclear_antigen
p241
tp242
aaa.