(lp1
(lp2
(lp3
a(lp4
a(lp5
a(lp6
a(lp7
a(lp8
((lp9
Vhttp://www.w3.org/2002/07/owl#Thing
p10
aVhttp://xmlns.com/foaf/0.1/Person
p11
aVhttp://dbpedia.org/ontology/Person
p12
aVhttp://www.ontologydesignpatterns.org/ont/dul/DUL.owl#Agent
p13
aVhttp://www.ontologydesignpatterns.org/ont/dul/DUL.owl#NaturalPerson
p14
aVhttp://www.wikidata.org/entity/Q215627
p15
aVhttp://www.wikidata.org/entity/Q4964182
p16
aVhttp://www.wikidata.org/entity/Q5
p17
aVhttp://dbpedia.org/ontology/Agent
p18
aVhttp://dbpedia.org/ontology/Philosopher
p19
aVhttp://schema.org/Person
p20
aVhttp://dbpedia.org/resource/Homer
tp21
aa(lp22
a(lp23
((lp24
Vhttp://dbpedia.org/class/yago/Abstraction100002137
p25
aVhttp://dbpedia.org/class/yago/CanadianMusicMedia
p26
aVhttp://dbpedia.org/class/yago/Company108058098
p27
aVhttp://dbpedia.org/class/yago/Group100031264
p28
aVhttp://dbpedia.org/class/yago/Institution108053576
p29
aVhttp://dbpedia.org/class/yago/Organization108008335
p30
aVhttp://dbpedia.org/class/yago/SocialGroup107950920
p31
aVhttp://dbpedia.org/class/yago/YagoLegalActorGeo
p32
aVhttp://www.w3.org/2002/07/owl#Thing
p33
aVhttp://www.wikidata.org/entity/Q386724
p34
aVhttp://dbpedia.org/ontology/Website
p35
aVhttp://dbpedia.org/ontology/Work
p36
aVhttp://schema.org/CreativeWork
p37
aVhttp://schema.org/WebPage
p38
aVhttp://dbpedia.org/class/yago/YagoPermanentlyLocatedEntity
p39
aVhttp://dbpedia.org/class/yago/YagoLegalActor
p40
aVhttp://dbpedia.org/resource/Jam!
p41
tp42
aa(lp43
a(lp44
a(lp45
a(lp46
a(lp47
a(lp48
a(lp49
a(lp50
a(lp51
a(lp52
a(lp53
aa.