(lp1
(lp2
(lp3
Vhttp://dbpedia.org/resource/Bely_Island
p4
aa(lp5
a(lp6
Vhttp://dbpedia.org/resource/Bering_Island
p7
aa(lp8
Vhttp://dbpedia.org/resource/Bernier_Island
p9
aa(lp10
Vhttp://dbpedia.org/resource/Bessieres_Island
p11
aa(lp12
Vhttp://dbpedia.org/resource/Bewick_Island
p13
aa(lp14
Vhttp://dbpedia.org/resource/Biak
p15
aa(lp16
Vhttp://dbpedia.org/resource/Bickerton_Island
p17
aa(lp18
Vhttp://dbpedia.org/resource/Big_Ndrova_Island
p19
aa(lp20
Vhttp://dbpedia.org/resource/Southern_Moreton_Bay_Islands_(Redland_City)
p21
aa(lp22
Vhttp://dbpedia.org/resource/Bismarck_Archipelago
p23
aa(lp24
Vhttp://dbpedia.org/resource/Blackwood_Island
p25
aa(lp26
Vhttp://dbpedia.org/resource/Blumine_Island
p27
aa(lp28
Vhttp://dbpedia.org/resource/Boano
p29
aa(lp30
Vhttp://dbpedia.org/resource/Boigu_Island_(Queensland)
p31
aa(lp32
Vhttp://dbpedia.org/resource/Bollons_Island
p33
aa(lp34
Vhttp://dbpedia.org/resource/Bolshevik_Island
p35
aa(lp36
a(lp37
aa.