(lp1
(lp2
(lp3
a(lp4
a(lp5
aa(lp6
(lp7
a(lp8
a(lp9
aa(lp10
(lp11
a(lp12
a(lp13
aa(lp14
(lp15
a(lp16
a(lp17
aa(lp18
(lp19
a(lp20
((lp21
Vhttp://dbpedia.org/class/yago/Abstraction100002137
p22
aVhttp://dbpedia.org/class/yago/Act100030358
p23
aVhttp://dbpedia.org/class/yago/Conflict100958896
p24
aVhttp://dbpedia.org/class/yago/Event100029378
p25
aVhttp://dbpedia.org/class/yago/GroupAction101080366
p26
aVhttp://dbpedia.org/class/yago/MilitaryAction100952963
p27
aVhttp://dbpedia.org/class/yago/War100973077
p28
aVhttp://www.w3.org/2002/07/owl#Thing
p29
aVhttp://www.ontologydesignpatterns.org/ont/dul/DUL.owl#Event
p30
aVhttp://www.wikidata.org/entity/Q1656682
p31
aVhttp://dbpedia.org/ontology/Event
p32
aVhttp://dbpedia.org/ontology/MilitaryConflict
p33
aVhttp://dbpedia.org/ontology/SocietalEvent
p34
aVhttp://schema.org/Event
p35
aVhttp://umbel.org/umbel/rc/ConflictEvent
p36
aVhttp://umbel.org/umbel/rc/Event
p37
aVhttp://dbpedia.org/class/yago/ConflictsIn1845
p38
aVhttp://dbpedia.org/class/yago/ConflictsIn1846
p39
aVhttp://dbpedia.org/class/yago/PsychologicalFeature100023100
p40
aVhttp://dbpedia.org/class/yago/YagoPermanentlyLocatedEntity
p41
aVhttp://dbpedia.org/class/yago/NewZealandWars
p42
aVhttp://dbpedia.org/resource/Flagstaff_War
tp43
aa(lp44
aa(lp45
(lp46
a(lp47
a(lp48
aa(lp49
(lp50
a(lp51
a(lp52
aa(lp53
(lp54
a(lp55
a(lp56
aa(lp57
(lp58
a(lp59
a(lp60
aa(lp61
(lp62
a(lp63
a(lp64
aa(lp65
(lp66
a(lp67
a(lp68
aa(lp69
(lp70
a(lp71
a(lp72
aa(lp73
(lp74
a(lp75
((lp76
Vhttp://dbpedia.org/class/yago/Artifact100021939
p77
aVhttp://dbpedia.org/class/yago/Establishment103297735
p78
aVhttp://dbpedia.org/class/yago/MercantileEstablishment103748162
p79
aVhttp://dbpedia.org/class/yago/Object100002684
p80
aVhttp://dbpedia.org/class/yago/Structure104341686
p81
aVhttp://dbpedia.org/class/yago/Whole100003553
p82
aVhttp://dbpedia.org/class/yago/YagoGeoEntity
p83
aVhttp://dbpedia.org/class/yago/ShoppingCentresInNorthernIreland
p84
aVhttp://www.w3.org/2002/07/owl#Thing
p85
aVhttp://dbpedia.org/ontology/Place
p86
aVhttp://dbpedia.org/ontology/Location
p87
aVhttp://www.wikidata.org/entity/Q11315
p88
aVhttp://www.wikidata.org/entity/Q41176
p89
aVhttp://dbpedia.org/ontology/ArchitecturalStructure
p90
aVhttp://dbpedia.org/ontology/Building
p91
aVhttp://dbpedia.org/ontology/ShoppingMall
p92
aVhttp://schema.org/Place
p93
aVhttp://schema.org/ShoppingCenter
p94
aVhttp://dbpedia.org/class/yago/YagoPermanentlyLocatedEntity
p95
aVhttp://dbpedia.org/class/yago/Plaza103965456
p96
aVhttp://dbpedia.org/class/yago/PhysicalEntity100001930
p97
aVhttp://dbpedia.org/class/yago/PlaceOfBusiness103953020
p98
aVhttp://dbpedia.org/resource/The_Quays_Newry
p99
tp100
aa(lp101
aa(lp102
(lp103
a(lp104
a(lp105
aa(lp106
(lp107
a(lp108
a(lp109
aa(lp110
(lp111
a(lp112
a(lp113
aa(lp114
(lp115
a(lp116
a(lp117
aa(lp118
(lp119
a(lp120
a(lp121
aa(lp122
(lp123
a(lp124
a(lp125
aa.