(lp1
(lp2
(lp3
a(lp4
a(lp5
a(lp6
Vhttp://dbpedia.org/resource/Anterior_auricular_muscle
p7
aa(lp8
a(lp9
a(lp10
aa(lp11
(lp12
a(lp13
a(lp14
a(lp15
Vhttp://dbpedia.org/resource/Abductor_hallucis_muscle
p16
aa(lp17
a(lp18
a(lp19
aa(lp20
(lp21
a(lp22
a(lp23
a(lp24
Vhttp://dbpedia.org/resource/Adductor_pollicis_muscle
p25
aa(lp26
a(lp27
a(lp28
aa(lp29
(lp30
a(lp31
a(lp32
a(lp33
Vhttp://dbpedia.org/resource/Extensor_digitorum_muscle
p34
aa(lp35
a(lp36
a(lp37
aa(lp38
(lp39
a(lp40
a(lp41
a(lp42
Vhttp://dbpedia.org/resource/Extensor_pollicis_longus_muscle
p43
aa(lp44
a(lp45
a(lp46
aa(lp47
(lp48
a(lp49
a(lp50
a(lp51
Vhttp://dbpedia.org/resource/Infraspinatus_muscle
p52
aa(lp53
a(lp54
a(lp55
aa(lp56
(lp57
a(lp58
a(lp59
a(lp60
Vhttp://dbpedia.org/resource/Oblique_muscle_of_auricle
p61
aa(lp62
a(lp63
a(lp64
aa(lp65
(lp66
a(lp67
a(lp68
a(lp69
Vhttp://dbpedia.org/resource/Supraspinatus_muscle
p70
aa(lp71
a(lp72
a(lp73
aa(lp74
(lp75
a(lp76
a(lp77
a(lp78
Vhttp://dbpedia.org/resource/Hamstring
p79
aa(lp80
a(lp81
a(lp82
aa(lp83
(lp84
a(lp85
a(lp86
a(lp87
Vhttp://dbpedia.org/resource/Levator_ani
p88
aa(lp89
a(lp90
a(lp91
aa(lp92
(lp93
a(lp94
a(lp95
a(lp96
Vhttp://dbpedia.org/resource/Omohyoid_muscle
p97
aa(lp98
a(lp99
a(lp100
aa(lp101
(lp102
a(lp103
a(lp104
a(lp105
Vhttp://dbpedia.org/resource/Lateral_rectus_muscle
p106
aa(lp107
a(lp108
a(lp109
aa(lp110
(lp111
a(lp112
a(lp113
a(lp114
Vhttp://dbpedia.org/resource/Lateral_rectus_muscle
p115
aa(lp116
a(lp117
a(lp118
aa(lp119
(lp120
a(lp121
a(lp122
a(lp123
Vhttp://dbpedia.org/resource/Medial_rectus_muscle
p124
aa(lp125
a(lp126
a(lp127
aa(lp128
(lp129
a(lp130
a(lp131
a(lp132
Vhttp://dbpedia.org/resource/Obliquus_capitis_inferior_muscle
p133
aa(lp134
a(lp135
a(lp136
aa(lp137
(lp138
a(lp139
a(lp140
a(lp141
Vhttp://dbpedia.org/resource/Obliquus_capitis_inferior_muscle
p142
aa(lp143
a(lp144
a(lp145
aa(lp146
(lp147
a(lp148
a(lp149
a(lp150
Vhttp://dbpedia.org/resource/Superior_rectus_muscle
p151
aa(lp152
a(lp153
a(lp154
aa(lp155
(lp156
a(lp157
a(lp158
a(lp159
Vhttp://dbpedia.org/resource/Extensor_pollicis_brevis_muscle
p160
aa(lp161
a(lp162
a(lp163
aa(lp164
(lp165
a(lp166
a(lp167
a(lp168
Vhttp://dbpedia.org/resource/Flexor_digitorum_brevis_muscle
p169
aa(lp170
a(lp171
a(lp172
aa.