ccollections
defaultdict
p1
(c__builtin__
dict
p2
tRp3
I0
(dp4
I0
(lp5
sI1
(lp6
sI2
(lp7
sI4
(lp8
Vhttp://dbpedia.org/ontology/wikiPageExternalLink
p9
aVhttp://xmlns.com/foaf/0.1/homepage
p10
asI5
(lp11
ssI4
(dp12
I0
(lp13
sI1
(lp14
sI2
(lp15
sI4
(lp16
sI5
(lp17
ssI6
(dp18
I0
(lp19
sI1
(lp20
sI2
(lp21
sI4
(lp22
sI5
(lp23
ssI8
(dp24
I0
(lp25
sI1
(lp26
sI2
(lp27
sI4
(lp28
Vhttp://dbpedia.org/ontology/wikiPageExternalLink
p29
aVhttp://xmlns.com/foaf/0.1/homepage
p30
asI5
(lp31
ssI9
(dp32
I0
(lp33
sI1
(lp34
sI2
(lp35
sI4
(lp36
sI5
(lp37
ssI10
(dp38
I0
(lp39
sI1
(lp40
sI2
(lp41
sI4
(lp42
Vhttp://dbpedia.org/ontology/wikiPageExternalLink
p43
aVhttp://xmlns.com/foaf/0.1/homepage
p44
asI5
(lp45
ssI11
(dp46
I0
(lp47
sI1
(lp48
sI2
(lp49
sI4
(lp50
sI5
(lp51
ssI12
(dp52
I0
(lp53
sI1
(lp54
sI2
(lp55
sI4
(lp56
Vhttp://dbpedia.org/ontology/wikiPageExternalLink
p57
aVhttp://xmlns.com/foaf/0.1/homepage
p58
asI5
(lp59
ssI15
(dp60
I0
(lp61
sI1
(lp62
sI2
(lp63
sI4
(lp64
sI5
(lp65
ssI16
(dp66
I0
(lp67
sI1
(lp68
sI2
(lp69
sI4
(lp70
sI5
(lp71
ssI17
(dp72
I0
(lp73
sI1
(lp74
sI2
(lp75
sI4
(lp76
sI5
(lp77
ssI18
(dp78
I0
(lp79
sI1
(lp80
sI2
(lp81
sI4
(lp82
Vhttp://dbpedia.org/ontology/wikiPageExternalLink
p83
aVhttp://xmlns.com/foaf/0.1/homepage
p84
asI5
(lp85
ss.