(lp1
(lp2
(lp3
a(lp4
a(lp5
a(lp6
a(lp7
a(lp8
a(lp9
a(lp10
aa(lp11
(lp12
a(lp13
a(lp14
a(lp15
Vhttp://dbpedia.org/resource/Polaris
p16
aa(lp17
a(lp18
a(lp19
a(lp20
aa(lp21
(lp22
a(lp23
a(lp24
a(lp25
Vhttp://dbpedia.org/resource/XTE_J1650-500
p26
aa(lp27
a(lp28
a(lp29
Vhttp://dbpedia.org/resource/Epoch_(astronomy)
p30
aa(lp31
aa(lp32
(lp33
a(lp34
a(lp35
a(lp36
a(lp37
a(lp38
a(lp39
Vhttp://dbpedia.org/resource/Epoch_(astronomy)
p40
aa(lp41
aa(lp42
(lp43
a(lp44
a(lp45
a(lp46
a(lp47
a(lp48
a(lp49
a(lp50
aa(lp51
(lp52
a(lp53
a(lp54
a(lp55
a(lp56
a(lp57
a(lp58
Vhttp://dbpedia.org/resource/Epoch_(astronomy)
p59
aa(lp60
aa(lp61
(lp62
a(lp63
a(lp64
a(lp65
a(lp66
a(lp67
a(lp68
a(lp69
aa(lp70
(lp71
a(lp72
a(lp73
a(lp74
a(lp75
a(lp76
a(lp77
a(lp78
aa(lp79
(lp80
a(lp81
a(lp82
a(lp83
a(lp84
a(lp85
a(lp86
a(lp87
aa(lp88
(lp89
a(lp90
a(lp91
a(lp92
Vhttp://dbpedia.org/resource/Kepler-4b
p93
aa(lp94
a(lp95
a(lp96
Vhttp://dbpedia.org/resource/Epoch_(astronomy)
p97
aa(lp98
aa(lp99
(lp100
a(lp101
a(lp102
a(lp103
a(lp104
a(lp105
a(lp106
Vhttp://dbpedia.org/resource/Epoch_(astronomy)
p107
aa(lp108
aa(lp109
(lp110
a(lp111
a(lp112
a(lp113
a(lp114
a(lp115
a(lp116
a(lp117
aa(lp118
(lp119
a(lp120
a(lp121
a(lp122
a(lp123
a(lp124
a(lp125
a(lp126
aa(lp127
(lp128
a(lp129
a(lp130
a(lp131
a(lp132
a(lp133
a(lp134
Vhttp://dbpedia.org/resource/Epoch_(astronomy)
p135
aa(lp136
aa(lp137
(lp138
a(lp139
a(lp140
a(lp141
a(lp142
a(lp143
a(lp144
Vhttp://dbpedia.org/resource/Epoch_(astronomy)
p145
aa(lp146
aa(lp147
(lp148
a(lp149
a(lp150
a(lp151
Vhttp://dbpedia.org/resource/HD_179949
p152
aa(lp153
a(lp154
a(lp155
a(lp156
aa(lp157
(lp158
a(lp159
a(lp160
a(lp161
a(lp162
a(lp163
a(lp164
a(lp165
aa(lp166
(lp167
a(lp168
a(lp169
a(lp170
a(lp171
a(lp172
a(lp173
Vhttp://dbpedia.org/resource/Epoch_(astronomy)
p174
aa(lp175
aa(lp176
(lp177
a(lp178
a(lp179
a(lp180
a(lp181
a(lp182
a(lp183
a(lp184
aa.