(lp1
(dp2
I0
(dp3
I0
(lp4
sI1
(lp5
sI2
(lp6
sI3
(lp7
sI4
(lp8
sI5
(lp9
sI6
(lp10
sI7
(lp11
ssI1
(dp12
I0
g5
sI1
(lp13
sI2
(lp14
sI3
(lp15
sI4
(lp16
sI5
(lp17
sI6
(lp18
sI7
(lp19
ssI2
(dp20
I0
g6
sI1
g14
sI2
(lp21
sI3
(lp22
sI4
(lp23
sI5
(lp24
sI6
(lp25
sI7
(lp26
ssI3
(dp27
I0
g7
sI1
g15
sI2
g22
sI3
(lp28
sI4
(lp29
sI5
(lp30
sI6
(lp31
sI7
(lp32
ssI4
(dp33
I0
g8
sI1
g16
sI2
g23
sI3
g29
sI4
(lp34
sI5
(lp35
sI6
(lp36
sI7
(lp37
ssI5
(dp38
I0
g9
sI1
g17
sI2
g24
sI3
g30
sI4
g35
sI5
(lp39
sI6
(lp40
sI7
(lp41
ssI6
(dp42
I0
g10
sI1
g18
sI2
g25
sI3
g31
sI4
g36
sI5
g40
sI6
(lp43
sI7
(lp44
ssI7
(dp45
I0
g11
sI1
g19
sI2
g26
sI3
g32
sI4
g37
sI5
g41
sI6
g44
sI7
(lp46
ssa(dp47
I0
(dp48
I0
(lp49
sI1
(lp50
sI2
(lp51
sI3
(lp52
sI4
(lp53
sI5
(lp54
sI6
(lp55
sI7
(lp56
ssI1
(dp57
I0
g50
sI1
(lp58
sI2
(lp59
sI3
(lp60
sI4
(lp61
sI5
(lp62
sI6
(lp63
sI7
(lp64
ssI2
(dp65
I0
g51
sI1
g59
sI2
(lp66
sI3
(lp67
sI4
(lp68
sI5
(lp69
sI6
(lp70
sI7
(lp71
ssI3
(dp72
I0
g52
sI1
g60
sI2
g67
sI3
(lp73
sI4
(lp74
sI5
(lp75
sI6
(lp76
sI7
(lp77
ssI4
(dp78
I0
g53
sI1
g61
sI2
g68
sI3
g74
sI4
(lp79
sI5
(lp80
sI6
(lp81
sI7
(lp82
ssI5
(dp83
I0
g54
sI1
g62
sI2
g69
sI3
g75
sI4
g80
sI5
(lp84
sI6
(lp85
sI7
(lp86
ssI6
(dp87
I0
g55
sI1
g63
sI2
g70
sI3
g76
sI5
g85
sI6
(lp88
sI7
(lp89
ssI7
(dp90
I0
g56
sI1
g64
sI2
g71
sI3
g77
sI5
g86
sI7
(lp91
ssa(dp92
I0
(dp93
I0
(lp94
sI1
(lp95
sI2
(lp96
sI3
(lp97
sI4
(lp98
sI5
(lp99
sI6
(lp100
Vhttp://dbpedia.org/property/epoch
p101
asI7
(lp102
ssI1
(dp103
I0
g95
sI1
(lp104
sI2
(lp105
sI3
(lp106
sI4
(lp107
sI5
(lp108
sI6
(lp109
sI7
(lp110
ssI2
(dp111
I0
g96
sI1
g105
sI2
(lp112
sI3
(lp113
Vhttp://xmlns.com/foaf/0.1/primaryTopic
p114
aVhttp://purl.org/dc/terms/subject
p115
aVhttp://xmlns.com/foaf/0.1/depiction
p116
aVhttp://dbpedia.org/ontology/wikiPageRedirects
p117
aVhttp://purl.org/voc/vrank#hasRank
p118
aVhttp://xmlns.com/foaf/0.1/isPrimaryTopicOf
p119
aVhttp://www.w3.org/ns/prov#wasDerivedFrom
p120
aVhttp://www.w3.org/2002/07/owl#sameAs
p121
aVhttp://dbpedia.org/ontology/thumbnail
p122
asI4
(lp123
sI5
(lp124
sI6
(lp125
Vhttp://dbpedia.org/ontology/wikiPageExternalLink
p126
aVhttp://xmlns.com/foaf/0.1/primaryTopic
p127
aVhttp://www.w3.org/1999/02/22-rdf-syntax-ns#type
p128
aVhttp://purl.org/dc/terms/subject
p129
aVhttp://dbpedia.org/property/era
p130
aVhttp://dbpedia.org/ontology/wikiPageDisambiguates
p131
aVhttp://dbpedia.org/ontology/abstract
p132
aVhttp://dbpedia.org/ontology/wikiPageRedirects
p133
aVhttp://dbpedia.org/property/equino
p134
aVhttp://purl.org/voc/vrank#hasRank
p135
aVhttp://dbpedia.org/property/epoch
p136
aVhttp://xmlns.com/foaf/0.1/isPrimaryTopicOf
p137
aVhttp://www.w3.org/ns/prov#wasDerivedFrom
p138
aVhttp://dbpedia.org/property/otherNames
p139
aVhttp://dbpedia.org/property/equinox
p140
aVhttp://www.w3.org/2002/07/owl#sameAs
p141
aVhttp://dbpedia.org/property/names
p142
asI7
(lp143
ssI3
(dp144
I0
g97
sI1
g106
sI2
g113
sI3
(lp145
sI4
(lp146
sI5
(lp147
sI6
(lp148
sI7
(lp149
ssI4
(dp150
I0
g98
sI1
g107
sI2
g123
sI3
g146
sI4
(lp151
sI5
(lp152
sI6
(lp153
sI7
(lp154
ssI5
(dp155
I0
g99
sI1
g108
sI2
g124
sI3
g147
sI4
g152
sI5
(lp156
sI6
(lp157
sI7
(lp158
ssI6
(dp159
I0
g100
sI1
g109
sI2
g125
sI3
g148
sI4
g153
sI5
g157
sI6
(lp160
sI7
(lp161
ssI7
(dp162
I0
g102
sI1
g110
sI2
g143
sI3
g149
sI4
g154
sI5
g158
sI6
g161
sI7
(lp163
ssa(dp164
I0
(dp165
I0
(lp166
sI1
(lp167
sI2
(lp168
sI3
(lp169
sI4
(lp170
sI5
(lp171
sI6
(lp172
Vhttp://dbpedia.org/property/epoch
p173
aVhttp://dbpedia.org/property/equinox
p174
asI7
(lp175
ssI1
(dp176
I0
g167
sI1
(lp177
sI2
(lp178
sI3
(lp179
sI4
(lp180
sI5
(lp181
sI6
(lp182
sI7
(lp183
ssI2
(dp184
I0
g168
sI1
g178
sI2
(lp185
sI3
(lp186
sI4
(lp187
sI5
(lp188
sI6
(lp189
sI7
(lp190
ssI3
(dp191
I0
g169
sI1
g179
sI2
g186
sI3
(lp192
sI4
(lp193
sI5
(lp194
sI6
(lp195
sI7
(lp196
ssI4
(dp197
I0
g170
sI1
g180
sI2
g187
sI3
g193
sI4
(lp198
sI5
(lp199
sI6
(lp200
sI7
(lp201
ssI5
(dp202
I0
g171
sI1
g181
sI2
g188
sI3
g194
sI4
g199
sI5
(lp203
sI6
(lp204
sI7
(lp205
ssI6
(dp206
I0
g172
sI1
g182
sI2
g189
sI3
g195
sI4
g200
sI5
g204
sI6
(lp207
sI7
(lp208
Vhttp://dbpedia.org/property/epoch
p209
assI7
(dp210
I0
g175
sI1
g183
sI2
g190
sI3
g196
sI4
g201
sI5
g205
sI6
g208
sI7
(lp211
ssa(dp212
I0
(dp213
I0
(lp214
sI1
(lp215
sI2
(lp216
sI3
(lp217
sI4
(lp218
sI5
(lp219
sI6
(lp220
sI7
(lp221
ssI1
(dp222
I0
g215
sI1
(lp223
sI2
(lp224
sI3
(lp225
sI4
(lp226
sI5
(lp227
sI6
(lp228
sI7
(lp229
ssI2
(dp230
I1
g224
sI2
(lp231
sI3
(lp232
sI4
(lp233
sI5
(lp234
sI6
(lp235
sI7
(lp236
ssI3
(dp237
I0
g217
sI1
g225
sI2
g232
sI3
(lp238
sI4
(lp239
sI5
(lp240
sI6
(lp241
sI7
(lp242
ssI4
(dp243
I1
g226
sI3
g239
sI4
(lp244
sI5
(lp245
sI6
(lp246
sI7
(lp247
ssI5
(dp248
I0
g219
sI1
g227
sI2
g234
sI3
g240
sI4
g245
sI5
(lp249
sI6
(lp250
sI7
(lp251
ssI6
(dp252
I1
g228
sI3
g241
sI5
g250
sI6
(lp253
sI7
(lp254
ssI7
(dp255
I1
g229
sI3
g242
sI5
g251
sI7
(lp256
ssa(dp257
I0
(dp258
I0
(lp259
sI1
(lp260
sI2
(lp261
sI3
(lp262
sI4
(lp263
sI5
(lp264
sI6
(lp265
sI7
(lp266
ssI1
(dp267
I0
g260
sI1
(lp268
sI2
(lp269
sI3
(lp270
sI4
(lp271
sI5
(lp272
sI6
(lp273
sI7
(lp274
ssI2
(dp275
I0
g261
sI1
g269
sI2
(lp276
sI3
(lp277
sI4
(lp278
sI5
(lp279
sI6
(lp280
sI7
(lp281
ssI3
(dp282
I0
g262
sI1
g270
sI2
g277
sI3
(lp283
sI4
(lp284
sI5
(lp285
sI6
(lp286
Vhttp://dbpedia.org/property/epoch
p287
asI7
(lp288
Vhttp://dbpedia.org/property/constell
p289
assI4
(dp290
I0
g263
sI1
g271
sI2
g278
sI3
g284
sI4
(lp291
sI5
(lp292
sI6
(lp293
sI7
(lp294
ssI5
(dp295
I0
g264
sI1
g272
sI2
g279
sI3
g285
sI4
g292
sI5
(lp296
sI6
(lp297
sI7
(lp298
ssI6
(dp299
I0
g265
sI1
g273
sI2
g280
sI3
g286
sI4
g293
sI5
g297
sI6
(lp300
sI7
(lp301
ssI7
(dp302
I0
g266
sI1
g274
sI2
g281
sI3
g288
sI4
g294
sI5
g298
sI6
g301
sI7
(lp303
ssa(dp304
I0
(dp305
I0
(lp306
sI1
(lp307
sI2
(lp308
sI3
(lp309
sI4
(lp310
sI5
(lp311
sI6
(lp312
sI7
(lp313
ssI1
(dp314
I0
g307
sI1
(lp315
sI2
(lp316
sI3
(lp317
sI4
(lp318
sI5
(lp319
sI6
(lp320
sI7
(lp321
ssI2
(dp322
I0
g308
sI1
g316
sI2
(lp323
sI3
(lp324
sI4
(lp325
sI5
(lp326
sI6
(lp327
sI7
(lp328
ssI3
(dp329
I0
g309
sI1
g317
sI2
g324
sI3
(lp330
sI4
(lp331
sI5
(lp332
sI6
(lp333
sI7
(lp334
ssI4
(dp335
I0
g310
sI1
g318
sI2
g325
sI3
g331
sI4
(lp336
sI5
(lp337
sI6
(lp338
sI7
(lp339
ssI5
(dp340
I0
g311
sI1
g319
sI2
g326
sI3
g332
sI4
g337
sI5
(lp341
sI6
(lp342
sI7
(lp343
ssI6
(dp344
I0
g312
sI1
g320
sI2
g327
sI3
g333
sI5
g342
sI6
(lp345
sI7
(lp346
ssI7
(dp347
I0
g313
sI1
g321
sI2
g328
sI3
g334
sI4
g339
sI5
g343
sI6
g346
sI7
(lp348
ssa(dp349
I0
(dp350
I0
(lp351
sI1
(lp352
sI2
(lp353
sI3
(lp354
sI4
(lp355
sI5
(lp356
sI6
(lp357
sI7
(lp358
ssI1
(dp359
I0
g352
sI1
(lp360
sI2
(lp361
sI3
(lp362
sI4
(lp363
sI5
(lp364
sI6
(lp365
sI7
(lp366
ssI2
(dp367
I1
g361
sI2
(lp368
sI3
(lp369
sI4
(lp370
sI5
(lp371
sI6
(lp372
sI7
(lp373
ssI3
(dp374
I0
g354
sI1
g362
sI2
g369
sI3
(lp375
sI4
(lp376
sI5
(lp377
sI6
(lp378
sI7
(lp379
ssI4
(dp380
I1
g363
sI3
g376
sI4
(lp381
sI5
(lp382
sI6
(lp383
sI7
(lp384
ssI5
(dp385
I0
g356
sI1
g364
sI2
g371
sI3
g377
sI4
g382
sI5
(lp386
sI6
(lp387
sI7
(lp388
ssI6
(dp389
I1
g365
sI3
g378
sI5
g387
sI6
(lp390
sI7
(lp391
ssI7
(dp392
I1
g366
sI3
g379
sI5
g388
sI7
(lp393
ssa(dp394
I0
(dp395
I0
(lp396
sI1
(lp397
sI2
(lp398
sI3
(lp399
sI4
(lp400
sI5
(lp401
sI6
(lp402
sI7
(lp403
ssI1
(dp404
I0
g397
sI1
(lp405
sI2
(lp406
sI3
(lp407
sI4
(lp408
sI5
(lp409
sI6
(lp410
sI7
(lp411
ssI2
(dp412
I1
g406
sI2
(lp413
sI3
(lp414
sI4
(lp415
sI5
(lp416
sI6
(lp417
sI7
(lp418
ssI3
(dp419
I0
g399
sI1
g407
sI2
g414
sI3
(lp420
sI4
(lp421
sI5
(lp422
sI6
(lp423
sI7
(lp424
ssI4
(dp425
I1
g408
sI3
g421
sI4
(lp426
sI5
(lp427
sI6
(lp428
sI7
(lp429
ssI5
(dp430
I0
g401
sI1
g409
sI2
g416
sI3
g422
sI4
g427
sI5
(lp431
sI6
(lp432
sI7
(lp433
ssI6
(dp434
I1
g410
sI3
g423
sI5
g432
sI6
(lp435
sI7
(lp436
ssI7
(dp437
I1
g411
sI3
g424
sI5
g433
sI7
(lp438
ssa(dp439
I0
(dp440
I0
(lp441
sI1
(lp442
sI2
(lp443
sI3
(lp444
sI4
(lp445
sI5
(lp446
sI6
(lp447
sI7
(lp448
ssI1
(dp449
I0
g442
sI1
(lp450
sI2
(lp451
sI3
(lp452
sI4
(lp453
sI5
(lp454
sI6
(lp455
sI7
(lp456
ssI2
(dp457
I0
g443
sI1
g451
sI2
(lp458
sI3
(lp459
sI4
(lp460
sI5
(lp461
sI6
(lp462
sI7
(lp463
ssI3
(dp464
I0
g444
sI1
g452
sI2
g459
sI3
(lp465
sI4
(lp466
sI5
(lp467
sI6
(lp468
Vhttp://dbpedia.org/property/epoch
p469
asI7
(lp470
ssI4
(dp471
I0
g445
sI1
g453
sI2
g460
sI3
g466
sI4
(lp472
sI5
(lp473
sI6
(lp474
sI7
(lp475
ssI5
(dp476
I0
g446
sI1
g454
sI2
g461
sI3
g467
sI4
g473
sI5
(lp477
sI6
(lp478
sI7
(lp479
ssI6
(dp480
I0
g447
sI1
g455
sI2
g462
sI3
g468
sI4
g474
sI5
g478
sI6
(lp481
sI7
(lp482
ssI7
(dp483
I0
g448
sI1
g456
sI2
g463
sI3
g470
sI5
g479
sI6
g482
sI7
(lp484
ssa(dp485
I0
(dp486
I0
(lp487
sI1
(lp488
sI2
(lp489
sI3
(lp490
sI4
(lp491
sI5
(lp492
sI6
(lp493
sI7
(lp494
ssI1
(dp495
I0
g488
sI1
(lp496
sI2
(lp497
sI3
(lp498
sI4
(lp499
sI5
(lp500
sI6
(lp501
sI7
(lp502
ssI2
(dp503
I0
g489
sI1
g497
sI2
(lp504
sI3
(lp505
sI4
(lp506
sI5
(lp507
sI6
(lp508
sI7
(lp509
ssI3
(dp510
I0
g490
sI1
g498
sI2
g505
sI3
(lp511
sI4
(lp512
sI5
(lp513
sI6
(lp514
Vhttp://dbpedia.org/property/epoch
p515
asI7
(lp516
ssI4
(dp517
I0
g491
sI1
g499
sI2
g506
sI3
g512
sI4
(lp518
sI5
(lp519
sI6
(lp520
sI7
(lp521
ssI5
(dp522
I0
g492
sI1
g500
sI2
g507
sI3
g513
sI4
g519
sI5
(lp523
sI6
(lp524
sI7
(lp525
ssI6
(dp526
I0
g493
sI1
g501
sI2
g508
sI3
g514
sI4
g520
sI5
g524
sI6
(lp527
sI7
(lp528
ssI7
(dp529
I0
g494
sI1
g502
sI2
g509
sI3
g516
sI4
g521
sI5
g525
sI6
g528
sI7
(lp530
ssa(dp531
I0
(dp532
I0
(lp533
sI1
(lp534
sI2
(lp535
sI3
(lp536
sI4
(lp537
sI5
(lp538
sI6
(lp539
sI7
(lp540
ssI1
(dp541
I0
g534
sI1
(lp542
sI2
(lp543
sI3
(lp544
sI4
(lp545
sI5
(lp546
sI6
(lp547
sI7
(lp548
ssI2
(dp549
I0
g535
sI1
g543
sI2
(lp550
sI3
(lp551
sI4
(lp552
sI5
(lp553
sI6
(lp554
sI7
(lp555
ssI3
(dp556
I0
g536
sI1
g544
sI2
g551
sI3
(lp557
sI4
(lp558
sI5
(lp559
sI6
(lp560
sI7
(lp561
ssI4
(dp562
I0
g537
sI1
g545
sI3
g558
sI4
(lp563
sI5
(lp564
sI6
(lp565
sI7
(lp566
ssI5
(dp567
I0
g538
sI1
g546
sI2
g553
sI3
g559
sI4
g564
sI5
(lp568
sI6
(lp569
sI7
(lp570
ssI6
(dp571
I0
g539
sI1
g547
sI3
g560
sI5
g569
sI6
(lp572
sI7
(lp573
ssI7
(dp574
I0
g540
sI1
g548
sI3
g561
sI5
g570
sI7
(lp575
ssa(dp576
I0
(dp577
I0
(lp578
sI1
(lp579
sI2
(lp580
sI3
(lp581
sI4
(lp582
sI5
(lp583
sI6
(lp584
sI7
(lp585
ssI1
(dp586
I0
g579
sI1
(lp587
sI2
(lp588
sI3
(lp589
sI4
(lp590
sI5
(lp591
sI6
(lp592
sI7
(lp593
ssI2
(dp594
I0
g580
sI1
g588
sI2
(lp595
sI3
(lp596
sI4
(lp597
sI5
(lp598
sI6
(lp599
sI7
(lp600
ssI3
(dp601
I0
g581
sI1
g589
sI2
g596
sI3
(lp602
sI4
(lp603
sI5
(lp604
sI6
(lp605
sI7
(lp606
ssI4
(dp607
I0
g582
sI1
g590
sI3
g603
sI4
(lp608
sI5
(lp609
sI6
(lp610
sI7
(lp611
ssI5
(dp612
I0
g583
sI1
g591
sI2
g598
sI3
g604
sI4
g609
sI5
(lp613
sI6
(lp614
sI7
(lp615
ssI6
(dp616
I0
g584
sI1
g592
sI3
g605
sI5
g614
sI6
(lp617
sI7
(lp618
ssI7
(dp619
I0
g585
sI1
g593
sI3
g606
sI5
g615
sI7
(lp620
ssa(dp621
I0
(dp622
I0
(lp623
sI1
(lp624
sI2
(lp625
sI3
(lp626
sI4
(lp627
sI5
(lp628
sI6
(lp629
sI7
(lp630
ssI1
(dp631
I0
g624
sI1
(lp632
sI2
(lp633
sI3
(lp634
sI4
(lp635
sI5
(lp636
sI6
(lp637
sI7
(lp638
ssI2
(dp639
I0
g625
sI1
g633
sI2
(lp640
sI3
(lp641
sI4
(lp642
sI5
(lp643
sI6
(lp644
sI7
(lp645
ssI3
(dp646
I0
g626
sI1
g634
sI2
g641
sI3
(lp647
sI4
(lp648
sI5
(lp649
sI6
(lp650
sI7
(lp651
ssI4
(dp652
I0
g627
sI1
g635
sI2
g642
sI3
g648
sI4
(lp653
sI5
(lp654
sI6
(lp655
sI7
(lp656
ssI5
(dp657
I0
g628
sI1
g636
sI2
g643
sI3
g649
sI4
g654
sI5
(lp658
sI6
(lp659
sI7
(lp660
ssI6
(dp661
I0
g629
sI1
g637
sI2
g644
sI3
g650
sI4
g655
sI5
g659
sI6
(lp662
sI7
(lp663
Vhttp://dbpedia.org/property/epoch
p664
assI7
(dp665
I0
g630
sI1
g638
sI2
g645
sI3
g651
sI4
g656
sI5
g660
sI6
g663
sI7
(lp666
ssa(dp667
I0
(dp668
I0
(lp669
sI1
(lp670
sI2
(lp671
sI3
(lp672
sI4
(lp673
sI5
(lp674
sI6
(lp675
Vhttp://dbpedia.org/property/epoch
p676
asI7
(lp677
ssI1
(dp678
I0
g670
sI1
(lp679
sI2
(lp680
sI3
(lp681
sI4
(lp682
sI5
(lp683
sI6
(lp684
sI7
(lp685
ssI2
(dp686
I0
g671
sI1
g680
sI2
(lp687
sI3
(lp688
sI4
(lp689
sI5
(lp690
sI6
(lp691
sI7
(lp692
ssI3
(dp693
I0
g672
sI1
g681
sI2
g688
sI3
(lp694
sI4
(lp695
sI5
(lp696
sI6
(lp697
sI7
(lp698
ssI4
(dp699
I0
g673
sI1
g682
sI2
g689
sI3
g695
sI4
(lp700
sI5
(lp701
sI6
(lp702
sI7
(lp703
ssI5
(dp704
I0
g674
sI1
g683
sI2
g690
sI3
g696
sI4
g701
sI5
(lp705
sI6
(lp706
sI7
(lp707
ssI6
(dp708
I0
g675
sI1
g684
sI2
g691
sI3
g697
sI4
g702
sI5
g706
sI6
(lp709
sI7
(lp710
Vhttp://dbpedia.org/property/epoch
p711
assI7
(dp712
I0
g677
sI1
g685
sI2
g692
sI3
g698
sI4
g703
sI5
g707
sI6
g710
sI7
(lp713
ssa(dp714
I0
(dp715
I0
(lp716
sI1
(lp717
sI2
(lp718
sI3
(lp719
sI4
(lp720
sI5
(lp721
sI6
(lp722
sI7
(lp723
ssI1
(dp724
I0
g717
sI1
(lp725
sI2
(lp726
sI3
(lp727
sI4
(lp728
sI5
(lp729
sI6
(lp730
sI7
(lp731
ssI2
(dp732
I1
g726
sI2
(lp733
sI3
(lp734
sI4
(lp735
sI5
(lp736
sI6
(lp737
sI7
(lp738
ssI3
(dp739
I0
g719
sI1
g727
sI2
g734
sI3
(lp740
sI4
(lp741
sI5
(lp742
sI6
(lp743
sI7
(lp744
ssI4
(dp745
I1
g728
sI3
g741
sI4
(lp746
sI5
(lp747
sI6
(lp748
sI7
(lp749
ssI5
(dp750
I0
g721
sI1
g729
sI2
g736
sI3
g742
sI4
g747
sI5
(lp751
sI6
(lp752
sI7
(lp753
ssI6
(dp754
I1
g730
sI3
g743
sI5
g752
sI6
(lp755
sI7
(lp756
ssI7
(dp757
I1
g731
sI3
g744
sI5
g753
sI7
(lp758
ssa(dp759
I0
(dp760
I0
(lp761
sI1
(lp762
sI2
(lp763
sI3
(lp764
sI4
(lp765
sI5
(lp766
sI6
(lp767
sI7
(lp768
ssI1
(dp769
I0
g762
sI1
(lp770
sI2
(lp771
sI3
(lp772
sI4
(lp773
sI5
(lp774
sI6
(lp775
sI7
(lp776
ssI2
(dp777
I0
g763
sI1
g771
sI2
(lp778
sI3
(lp779
sI4
(lp780
sI5
(lp781
sI6
(lp782
sI7
(lp783
ssI3
(dp784
I0
g764
sI1
g772
sI2
g779
sI3
(lp785
sI4
(lp786
sI5
(lp787
sI6
(lp788
sI7
(lp789
ssI4
(dp790
I0
g765
sI1
g773
sI3
g786
sI4
(lp791
sI5
(lp792
sI6
(lp793
sI7
(lp794
ssI5
(dp795
I0
g766
sI1
g774
sI2
g781
sI3
g787
sI4
g792
sI5
(lp796
sI6
(lp797
sI7
(lp798
ssI6
(dp799
I0
g767
sI1
g775
sI3
g788
sI5
g797
sI6
(lp800
sI7
(lp801
ssI7
(dp802
I0
g768
sI1
g776
sI3
g789
sI5
g798
sI7
(lp803
ssa(dp804
I0
(dp805
I0
(lp806
sI1
(lp807
sI2
(lp808
sI3
(lp809
sI4
(lp810
sI5
(lp811
sI6
(lp812
sI7
(lp813
ssI1
(dp814
I0
g807
sI1
(lp815
sI2
(lp816
sI3
(lp817
sI4
(lp818
sI5
(lp819
sI6
(lp820
sI7
(lp821
ssI2
(dp822
I0
g808
sI1
g816
sI2
(lp823
sI3
(lp824
sI4
(lp825
sI5
(lp826
sI6
(lp827
sI7
(lp828
ssI3
(dp829
I0
g809
sI1
g817
sI2
g824
sI3
(lp830
sI4
(lp831
sI5
(lp832
sI6
(lp833
sI7
(lp834
ssI4
(dp835
I0
g810
sI1
g818
sI3
g831
sI4
(lp836
sI5
(lp837
sI6
(lp838
sI7
(lp839
ssI5
(dp840
I0
g811
sI1
g819
sI2
g826
sI3
g832
sI4
g837
sI5
(lp841
sI6
(lp842
sI7
(lp843
ssI6
(dp844
I0
g812
sI1
g820
sI2
g827
sI3
g833
sI4
g838
sI5
g842
sI6
(lp845
sI7
(lp846
ssI7
(dp847
I0
g813
sI1
g821
sI3
g834
sI5
g843
sI6
g846
sI7
(lp848
ssa(dp849
I0
(dp850
I0
(lp851
sI1
(lp852
sI2
(lp853
sI3
(lp854
sI4
(lp855
sI5
(lp856
sI6
(lp857
sI7
(lp858
ssI1
(dp859
I0
g852
sI1
(lp860
sI2
(lp861
sI3
(lp862
sI4
(lp863
sI5
(lp864
sI6
(lp865
sI7
(lp866
ssI2
(dp867
I0
g853
sI1
g861
sI2
(lp868
sI3
(lp869
sI4
(lp870
sI5
(lp871
sI6
(lp872
sI7
(lp873
ssI3
(dp874
I0
g854
sI1
g862
sI2
g869
sI3
(lp875
sI4
(lp876
sI5
(lp877
sI6
(lp878
sI7
(lp879
ssI4
(dp880
I1
g863
sI2
g870
sI3
g876
sI4
(lp881
sI5
(lp882
sI6
(lp883
sI7
(lp884
ssI5
(dp885
I0
g856
sI1
g864
sI2
g871
sI3
g877
sI4
g882
sI5
(lp886
sI6
(lp887
sI7
(lp888
ssI6
(dp889
I1
g865
sI2
g872
sI3
g878
sI5
g887
sI6
(lp890
sI7
(lp891
ssI7
(dp892
I0
g858
sI1
g866
sI2
g873
sI3
g879
sI4
g884
sI5
g888
sI6
g891
sI7
(lp893
ssa.