(lp1
(lp2
(lp3
a(lp4
a(lp5
((lp6
Vhttp://www.w3.org/2002/07/owl#Thing
p7
aVhttp://www.wikidata.org/entity/Q386724
p8
aVhttp://dbpedia.org/ontology/Work
p9
aVhttp://schema.org/CreativeWork
p10
aVhttp://dbpedia.org/resource/Australian_Rally_Championship
tp11
aa(lp12
a(lp13
a(lp14
aa(lp15
(lp16
a(lp17
a(lp18
a(lp19
a(lp20
a(lp21
aa(lp22
(lp23
a(lp24
a(lp25
a(lp26
a(lp27
a(lp28
aa(lp29
(lp30
a(lp31
a(lp32
a(lp33
a(lp34
a(lp35
aa(lp36
(lp37
a(lp38
a(lp39
a(lp40
a(lp41
a(lp42
((lVhttp://dbpedia.org/resource/2009_Sligo_Intermediate_Football_Championship
tp43
aaa(lp44
(lp45
a(lp46
a(lp47
a(lp48
a(lp49
a(lp50
((lp51
Vhttp://www.w3.org/2002/07/owl#Thing
p52
aVhttp://www.ontologydesignpatterns.org/ont/dul/DUL.owl#Event
p53
aVhttp://www.wikidata.org/entity/Q1656682
p54
aVhttp://dbpedia.org/ontology/Event
p55
aVhttp://schema.org/Event
p56
aVhttp://dbpedia.org/resource/2013_Cavan_Under-21_Football_Championship
tp57
aaa(lp58
(lp59
a(lp60
a(lp61
a(lp62
a(lp63
a(lp64
((lp65
Vhttp://www.w3.org/2002/07/owl#Thing
p66
aVhttp://www.ontologydesignpatterns.org/ont/dul/DUL.owl#Event
p67
aVhttp://www.wikidata.org/entity/Q1656682
p68
aVhttp://dbpedia.org/ontology/Event
p69
aVhttp://schema.org/Event
p70
aVhttp://dbpedia.org/resource/2013_Cavan_Under-21_Football_Championship
tp71
aaa(lp72
(lp73
a(lp74
a(lp75
a(lp76
a(lp77
a(lp78
((lp79
Vhttp://www.w3.org/2002/07/owl#Thing
p80
aVhttp://www.ontologydesignpatterns.org/ont/dul/DUL.owl#Event
p81
aVhttp://www.wikidata.org/entity/Q1656682
p82
aVhttp://dbpedia.org/ontology/Event
p83
aVhttp://schema.org/Event
p84
aVhttp://dbpedia.org/resource/2007_Cork_Senior_Hurling_Championship
tp85
aaa(lp86
(lp87
a(lp88
a(lp89
a(lp90
a(lp91
a(lp92
aa(lp93
(lp94
a(lp95
a(lp96
a(lp97
a(lp98
a(lp99
aa(lp100
(lp101
a(lp102
a(lp103
a(lp104
a(lp105
a(lp106
aa(lp107
(lp108
a(lp109
a(lp110
a(lp111
a(lp112
a(lp113
aa(lp114
(lp115
a(lp116
a(lp117
a(lp118
a(lp119
a(lp120
aa(lp121
(lp122
a(lp123
a(lp124
((lp125
Vhttp://www.w3.org/2002/07/owl#Thing
p126
aVhttp://dbpedia.org/resource/F1600_Championship_Series
tp127
aa(lp128
a(lp129
a(lp130
aa(lp131
(lp132
a(lp133
a(lp134
a(lp135
a(lp136
a(lp137
aa(lp138
(lp139
a(lp140
a(lp141
a(lp142
a(lp143
a(lp144
aa(lp145
(lp146
a(lp147
a(lp148
a(lp149
a(lp150
a(lp151
aa(lp152
(lp153
a(lp154
a(lp155
((lp156
Vhttp://www.w3.org/2002/07/owl#Thing
p157
aVhttp://www.wikidata.org/entity/Q386724
p158
aVhttp://dbpedia.org/ontology/Work
p159
aVhttp://schema.org/CreativeWork
p160
aVhttp://dbpedia.org/resource/FIM_Cross-Country_Rallies_World_Championship
p161
tp162
aa(lp163
a(lp164
a(lp165
aa(lp166
(lp167
a(lp168
a(lp169
a(lp170
a(lp171
a(lp172
aa.