(lp1
(lp2
(lp3
a(lp4
a(lp5
Vhttp://dbpedia.org/resource/Tyazhely_Sputnik
p6
aa(lp7
aa(lp8
(lp9
a(lp10
a(lp11
Vhttp://dbpedia.org/resource/Nozomi_(spacecraft)
p12
aa(lp13
aa(lp14
(lp15
a(lp16
a(lp17
Vhttp://dbpedia.org/resource/Phobos_program
p18
aa(lp19
aa(lp20
(lp21
a(lp22
a(lp23
Vhttp://dbpedia.org/resource/Zond_2
p24
aa(lp25
aa(lp26
(lp27
a(lp28
a(lp29
Vhttp://dbpedia.org/resource/Champollion_(spacecraft)
p30
aa(lp31
aa(lp32
(lp33
a(lp34
a(lp35
Vhttp://dbpedia.org/resource/Mars-Grunt
p36
aa(lp37
aa(lp38
(lp39
a(lp40
a(lp41
Vhttp://dbpedia.org/resource/Mars_Geyser_Hopper
p42
aa(lp43
aa(lp44
(lp45
a(lp46
a(lp47
a(lp48
aa(lp49
(lp50
a(lp51
a(lp52
Vhttp://dbpedia.org/resource/High_Energy_Transient_Explorer
p53
aa(lp54
aa(lp55
(lp56
a(lp57
a(lp58
Vhttp://dbpedia.org/resource/Astrobiology_Field_Laboratory
p59
aa(lp60
aa(lp61
(lp62
a(lp63
a(lp64
Vhttp://dbpedia.org/resource/Deep_Impact_(spacecraft)
p65
aa(lp66
aa(lp67
(lp68
a(lp69
a(lp70
Vhttp://dbpedia.org/resource/Dynamics_Explorer
p71
aa(lp72
aa(lp73
(lp74
a(lp75
a(lp76
Vhttp://dbpedia.org/resource/Huygens_(spacecraft)
p77
aa(lp78
aa(lp79
(lp80
a(lp81
a(lp82
Vhttp://dbpedia.org/resource/Van_Allen_Probes
p83
aa(lp84
aa(lp85
(lp86
a(lp87
a(lp88
Vhttp://dbpedia.org/resource/Communication-Centric_Intelligence_Satellite
p89
aa(lp90
aa(lp91
(lp92
a(lp93
a(lp94
Vhttp://dbpedia.org/resource/Helios_(spacecraft)
p95
aa(lp96
aa(lp97
(lp98
a(lp99
a(lp100
Vhttp://dbpedia.org/resource/Gravity_Recovery_and_Climate_Experiment
p101
aa(lp102
aa(lp103
(lp104
a(lp105
a(lp106
Vhttp://dbpedia.org/resource/Hayabusa
p107
aa(lp108
aa(lp109
(lp110
a(lp111
a(lp112
Vhttp://dbpedia.org/resource/Hiten
p113
aa(lp114
aa.