(lp1
(lp2
(lp3
a(lp4
Vhttp://dbpedia.org/resource/Psoroptes
p5
aa(lp6
a(lp7
Vhttp://dbpedia.org/resource/Agroeca
p8
aa(lp9
Vhttp://dbpedia.org/resource/Albionella_guianensis
p10
aa(lp11
Vhttp://dbpedia.org/resource/Alopecosa_striatipes
p12
aa(lp13
Vhttp://dbpedia.org/resource/Altella
p14
aa(lp15
Vhttp://dbpedia.org/resource/Amaurobius_antipovae
p16
aa(lp17
Vhttp://dbpedia.org/resource/Anatea
p18
aa(lp19
Vhttp://dbpedia.org/resource/Austrodinychus
p20
aa(lp21
Vhttp://dbpedia.org/resource/Austrophthiracarus_hiore
p22
aa(lp23
Vhttp://dbpedia.org/resource/Brontoscorpio
p24
aa(lp25
Vhttp://dbpedia.org/resource/Dictyna_armata
p26
aa(lp27
Vhttp://dbpedia.org/resource/Gamasiphoides
p28
aa(lp29
a(lp30
Vhttp://dbpedia.org/resource/Globulosoma
p31
aa(lp32
Vhttp://dbpedia.org/resource/Gnaphosa_badia
p33
aa(lp34
Vhttp://dbpedia.org/resource/Gnaphosa_orchymonti
p35
aa(lp36
Vhttp://dbpedia.org/resource/Iphiopsis
p37
aaa.