ccollections
defaultdict
p1
(c__builtin__
dict
p2
tRp3
I0
(dp4
I0
(lp5
Vhttp://www.w3.org/ns/prov#wasDerivedFrom
p6
asI2
(lp7
ssI1
(dp8
I0
(lp9
Vhttp://www.w3.org/ns/prov#wasDerivedFrom
p10
asI2
(lp11
ssI2
(dp12
I0
(lp13
sI2
(lp14
ssI6
(dp15
I0
(lp16
sI2
(lp17
ssI7
(dp18
I0
(lp19
sI2
(lp20
ssI8
(dp21
I0
(lp22
sI2
(lp23
ssI9
(dp24
I0
(lp25
sI2
(lp26
ssI10
(dp27
I0
(lp28
sI2
(lp29
ssI11
(dp30
I0
(lp31
sI2
(lp32
ssI12
(dp33
I0
(lp34
Vhttp://www.w3.org/ns/prov#wasDerivedFrom
p35
asI2
(lp36
ssI13
(dp37
I0
(lp38
sI2
(lp39
ssI15
(dp40
I0
(lp41
sI2
(lp42
ssI16
(dp43
I0
(lp44
sI2
(lp45
ssI17
(dp46
I0
(lp47
Vhttp://www.w3.org/ns/prov#wasDerivedFrom
p48
asI2
(lp49
ss.