ccollections
defaultdict
p1
(c__builtin__
dict
p2
tRp3
I0
(dp4
I1
(lp5
Vhttp://dbpedia.org/ontology/wikiPageExternalLink
p6
asI2
(lp7
sI3
(lp8
Vhttp://www.w3.org/ns/prov#wasDerivedFrom
p9
assI12
(dp10
I1
(lp11
Vhttp://dbpedia.org/ontology/wikiPageExternalLink
p12
aVhttp://xmlns.com/foaf/0.1/homepage
p13
asI2
(lp14
sI3
(lp15
Vhttp://www.w3.org/ns/prov#wasDerivedFrom
p16
assI14
(dp17
I1
(lp18
sI2
(lp19
sI3
(lp20
ssI7
(dp21
I1
(lp22
sI2
(lp23
sI3
(lp24
ss.