(lp1
(lp2
(lp3
((lp4
Vhttp://dbpedia.org/class/yago/AnimalTissue105267548
p5
aVhttp://dbpedia.org/class/yago/BodyPart105220461
p6
aVhttp://dbpedia.org/class/yago/Part109385911
p7
aVhttp://dbpedia.org/class/yago/Thing100002452
p8
aVhttp://dbpedia.org/class/yago/Tissue105267345
p9
aVhttp://www.w3.org/2002/07/owl#Thing
p10
aVhttp://www.wikidata.org/entity/Q4936952
p11
aVhttp://www.wikidata.org/entity/Q9620
p12
aVhttp://dbpedia.org/ontology/AnatomicalStructure
p13
aVhttp://dbpedia.org/ontology/Nerve
p14
aVhttp://umbel.org/umbel/rc/AnimalBodyPart
p15
aVhttp://umbel.org/umbel/rc/Nerve
p16
aVhttp://dbpedia.org/class/yago/FiberBundle105475681
p17
aVhttp://dbpedia.org/class/yago/Nerve105474346
p18
aVhttp://dbpedia.org/class/yago/NervesOfTheLowerLimbAndLowerTorso
p19
aVhttp://dbpedia.org/class/yago/NervousTissue105296775
p20
aVhttp://dbpedia.org/class/yago/PhysicalEntity100001930
p21
aVhttp://dbpedia.org/resource/Proper_plantar_digital_nerves_of_medial_plantar_nerve
tp22
aa(lp23
((lp24
Vhttp://dbpedia.org/class/yago/AnimalTissue105267548
p25
aVhttp://dbpedia.org/class/yago/BodyPart105220461
p26
aVhttp://dbpedia.org/class/yago/Part109385911
p27
aVhttp://dbpedia.org/class/yago/Thing100002452
p28
aVhttp://dbpedia.org/class/yago/Tissue105267345
p29
aVhttp://www.w3.org/2002/07/owl#Thing
p30
aVhttp://www.wikidata.org/entity/Q4936952
p31
aVhttp://www.wikidata.org/entity/Q9620
p32
aVhttp://dbpedia.org/ontology/AnatomicalStructure
p33
aVhttp://dbpedia.org/ontology/Nerve
p34
aVhttp://umbel.org/umbel/rc/AnimalBodyPart
p35
aVhttp://umbel.org/umbel/rc/Nerve
p36
aVhttp://dbpedia.org/class/yago/FiberBundle105475681
p37
aVhttp://dbpedia.org/class/yago/Nerve105474346
p38
aVhttp://dbpedia.org/class/yago/NervesOfTheHeadAndNeck
p39
aVhttp://dbpedia.org/class/yago/NervousTissue105296775
p40
aVhttp://dbpedia.org/class/yago/PhysicalEntity100001930
p41
aVhttp://dbpedia.org/resource/Inferior_root_of_ansa_cervicalis
tp42
aa(lp43
((lp44
Vhttp://dbpedia.org/class/yago/AnimalTissue105267548
p45
aVhttp://dbpedia.org/class/yago/BodyPart105220461
p46
aVhttp://dbpedia.org/class/yago/Part109385911
p47
aVhttp://dbpedia.org/class/yago/Thing100002452
p48
aVhttp://dbpedia.org/class/yago/Tissue105267345
p49
aVhttp://www.w3.org/2002/07/owl#Thing
p50
aVhttp://www.wikidata.org/entity/Q4936952
p51
aVhttp://www.wikidata.org/entity/Q9620
p52
aVhttp://dbpedia.org/ontology/AnatomicalStructure
p53
aVhttp://dbpedia.org/ontology/Nerve
p54
aVhttp://umbel.org/umbel/rc/AnimalBodyPart
p55
aVhttp://umbel.org/umbel/rc/Nerve
p56
aVhttp://dbpedia.org/class/yago/FiberBundle105475681
p57
aVhttp://dbpedia.org/class/yago/Nerve105474346
p58
aVhttp://dbpedia.org/class/yago/NervousTissue105296775
p59
aVhttp://dbpedia.org/class/yago/PhysicalEntity100001930
p60
aVhttp://dbpedia.org/resource/Third_occipital_nerve
tp61
aa(lp62
((lp63
Vhttp://www.w3.org/2002/07/owl#Thing
p64
aVhttp://www.wikidata.org/entity/Q4936952
p65
aVhttp://www.wikidata.org/entity/Q9620
p66
aVhttp://dbpedia.org/ontology/AnatomicalStructure
p67
aVhttp://dbpedia.org/ontology/Nerve
p68
aVhttp://umbel.org/umbel/rc/AnimalBodyPart
p69
aVhttp://umbel.org/umbel/rc/Nerve
p70
aVhttp://dbpedia.org/resource/Trochlear_nerve
tp71
aa(lp72
((lp73
Vhttp://www.w3.org/2002/07/owl#Thing
p74
aVhttp://www.wikidata.org/entity/Q4936952
p75
aVhttp://www.wikidata.org/entity/Q9620
p76
aVhttp://dbpedia.org/ontology/AnatomicalStructure
p77
aVhttp://dbpedia.org/ontology/Nerve
p78
aVhttp://umbel.org/umbel/rc/AnimalBodyPart
p79
aVhttp://umbel.org/umbel/rc/Nerve
p80
aVhttp://dbpedia.org/resource/Abducens_nerve
tp81
aa(lp82
((lp83
Vhttp://www.w3.org/2002/07/owl#Thing
p84
aVhttp://www.wikidata.org/entity/Q4936952
p85
aVhttp://www.wikidata.org/entity/Q9620
p86
aVhttp://dbpedia.org/ontology/AnatomicalStructure
p87
aVhttp://dbpedia.org/ontology/Nerve
p88
aVhttp://umbel.org/umbel/rc/AnimalBodyPart
p89
aVhttp://umbel.org/umbel/rc/Nerve
p90
aVhttp://dbpedia.org/resource/Facial_nerve
tp91
aa(lp92
((lp93
Vhttp://www.w3.org/2002/07/owl#Thing
p94
aVhttp://www.wikidata.org/entity/Q4936952
p95
aVhttp://www.wikidata.org/entity/Q9620
p96
aVhttp://dbpedia.org/ontology/AnatomicalStructure
p97
aVhttp://dbpedia.org/ontology/Nerve
p98
aVhttp://umbel.org/umbel/rc/AnimalBodyPart
p99
aVhttp://umbel.org/umbel/rc/Nerve
p100
aVhttp://dbpedia.org/resource/Brachial_plexus
tp101
aa(lp102
((lp103
Vhttp://www.w3.org/2002/07/owl#Thing
p104
aVhttp://www.wikidata.org/entity/Q4936952
p105
aVhttp://www.wikidata.org/entity/Q9620
p106
aVhttp://dbpedia.org/ontology/AnatomicalStructure
p107
aVhttp://dbpedia.org/ontology/Nerve
p108
aVhttp://umbel.org/umbel/rc/AnimalBodyPart
p109
aVhttp://umbel.org/umbel/rc/Nerve
p110
aVhttp://dbpedia.org/resource/Glossopharyngeal_nerve
tp111
aa(lp112
((lp113
Vhttp://www.w3.org/2002/07/owl#Thing
p114
aVhttp://www.wikidata.org/entity/Q4936952
p115
aVhttp://www.wikidata.org/entity/Q9620
p116
aVhttp://dbpedia.org/ontology/AnatomicalStructure
p117
aVhttp://dbpedia.org/ontology/Nerve
p118
aVhttp://umbel.org/umbel/rc/AnimalBodyPart
p119
aVhttp://umbel.org/umbel/rc/Nerve
p120
aVhttp://dbpedia.org/resource/Hypoglossal_nerve
tp121
aa(lp122
((lp123
Vhttp://www.w3.org/2002/07/owl#Thing
p124
aVhttp://www.wikidata.org/entity/Q4936952
p125
aVhttp://www.wikidata.org/entity/Q9620
p126
aVhttp://dbpedia.org/ontology/AnatomicalStructure
p127
aVhttp://dbpedia.org/ontology/Nerve
p128
aVhttp://umbel.org/umbel/rc/AnimalBodyPart
p129
aVhttp://umbel.org/umbel/rc/Nerve
p130
aVhttp://dbpedia.org/resource/Oculomotor_nerve
tp131
aa(lp132
((lp133
Vhttp://www.w3.org/2002/07/owl#Thing
p134
aVhttp://www.wikidata.org/entity/Q4936952
p135
aVhttp://www.wikidata.org/entity/Q9620
p136
aVhttp://dbpedia.org/ontology/AnatomicalStructure
p137
aVhttp://dbpedia.org/ontology/Nerve
p138
aVhttp://umbel.org/umbel/rc/AnimalBodyPart
p139
aVhttp://umbel.org/umbel/rc/Nerve
p140
aVhttp://dbpedia.org/resource/Olfactory_nerve
tp141
aa(lp142
((lp143
Vhttp://www.w3.org/2002/07/owl#Thing
p144
aVhttp://www.wikidata.org/entity/Q4936952
p145
aVhttp://www.wikidata.org/entity/Q9620
p146
aVhttp://dbpedia.org/ontology/AnatomicalStructure
p147
aVhttp://dbpedia.org/ontology/Nerve
p148
aVhttp://umbel.org/umbel/rc/AnimalBodyPart
p149
aVhttp://umbel.org/umbel/rc/Nerve
p150
aVhttp://dbpedia.org/resource/Ulnar_nerve
tp151
aa(lp152
((lp153
Vhttp://dbpedia.org/class/yago/AnimalTissue105267548
p154
aVhttp://dbpedia.org/class/yago/BodyPart105220461
p155
aVhttp://dbpedia.org/class/yago/Part109385911
p156
aVhttp://dbpedia.org/class/yago/Thing100002452
p157
aVhttp://dbpedia.org/class/yago/Tissue105267345
p158
aVhttp://www.w3.org/2002/07/owl#Thing
p159
aVhttp://www.wikidata.org/entity/Q4936952
p160
aVhttp://www.wikidata.org/entity/Q9620
p161
aVhttp://dbpedia.org/ontology/AnatomicalStructure
p162
aVhttp://dbpedia.org/ontology/Nerve
p163
aVhttp://umbel.org/umbel/rc/AnimalBodyPart
p164
aVhttp://umbel.org/umbel/rc/Nerve
p165
aVhttp://dbpedia.org/class/yago/FiberBundle105475681
p166
aVhttp://dbpedia.org/class/yago/Nerve105474346
p167
aVhttp://dbpedia.org/class/yago/NervesOfTheLowerLimbAndLowerTorso
p168
aVhttp://dbpedia.org/class/yago/NervousTissue105296775
p169
aVhttp://dbpedia.org/class/yago/PhysicalEntity100001930
p170
aVhttp://dbpedia.org/resource/Anterior_labial_nerves
tp171
aa(lp172
((lp173
Vhttp://dbpedia.org/class/yago/AnimalTissue105267548
p174
aVhttp://dbpedia.org/class/yago/BodyPart105220461
p175
aVhttp://dbpedia.org/class/yago/Part109385911
p176
aVhttp://dbpedia.org/class/yago/Thing100002452
p177
aVhttp://dbpedia.org/class/yago/Tissue105267345
p178
aVhttp://www.w3.org/2002/07/owl#Thing
p179
aVhttp://www.wikidata.org/entity/Q4936952
p180
aVhttp://www.wikidata.org/entity/Q9620
p181
aVhttp://dbpedia.org/ontology/AnatomicalStructure
p182
aVhttp://dbpedia.org/ontology/Nerve
p183
aVhttp://umbel.org/umbel/rc/AnimalBodyPart
p184
aVhttp://umbel.org/umbel/rc/Nerve
p185
aVhttp://dbpedia.org/class/yago/FiberBundle105475681
p186
aVhttp://dbpedia.org/class/yago/Nerve105474346
p187
aVhttp://dbpedia.org/class/yago/NervousTissue105296775
p188
aVhttp://dbpedia.org/class/yago/PhysicalEntity100001930
p189
aVhttp://dbpedia.org/resource/Middle_meningeal_nerve
tp190
aa(lp191
((lp192
Vhttp://dbpedia.org/class/yago/AnimalTissue105267548
p193
aVhttp://dbpedia.org/class/yago/BodyPart105220461
p194
aVhttp://dbpedia.org/class/yago/Part109385911
p195
aVhttp://dbpedia.org/class/yago/Thing100002452
p196
aVhttp://dbpedia.org/class/yago/Tissue105267345
p197
aVhttp://www.w3.org/2002/07/owl#Thing
p198
aVhttp://www.wikidata.org/entity/Q4936952
p199
aVhttp://www.wikidata.org/entity/Q9620
p200
aVhttp://dbpedia.org/ontology/AnatomicalStructure
p201
aVhttp://dbpedia.org/ontology/Nerve
p202
aVhttp://umbel.org/umbel/rc/AnimalBodyPart
p203
aVhttp://umbel.org/umbel/rc/Nerve
p204
aVhttp://dbpedia.org/class/yago/FiberBundle105475681
p205
aVhttp://dbpedia.org/class/yago/Nerve105474346
p206
aVhttp://dbpedia.org/class/yago/NervousTissue105296775
p207
aVhttp://dbpedia.org/class/yago/PhysicalEntity100001930
p208
aVhttp://dbpedia.org/resource/Prostatic_plexus_(nervous)
tp209
aa(lp210
((lp211
Vhttp://www.w3.org/2002/07/owl#Thing
p212
aVhttp://www.wikidata.org/entity/Q4936952
p213
aVhttp://www.wikidata.org/entity/Q9620
p214
aVhttp://dbpedia.org/ontology/AnatomicalStructure
p215
aVhttp://dbpedia.org/ontology/Nerve
p216
aVhttp://dbpedia.org/resource/Ramus_communicans
tp217
aa(lp218
((lp219
Vhttp://dbpedia.org/class/yago/AnimalTissue105267548
p220
aVhttp://dbpedia.org/class/yago/BodyPart105220461
p221
aVhttp://dbpedia.org/class/yago/CranialNerve105476256
p222
aVhttp://dbpedia.org/class/yago/Part109385911
p223
aVhttp://dbpedia.org/class/yago/Thing100002452
p224
aVhttp://dbpedia.org/class/yago/Tissue105267345
p225
aVhttp://www.w3.org/2002/07/owl#Thing
p226
aVhttp://www.wikidata.org/entity/Q4936952
p227
aVhttp://www.wikidata.org/entity/Q9620
p228
aVhttp://dbpedia.org/ontology/AnatomicalStructure
p229
aVhttp://dbpedia.org/ontology/Nerve
p230
aVhttp://umbel.org/umbel/rc/AnimalBodyPart
p231
aVhttp://umbel.org/umbel/rc/Nerve
p232
aVhttp://dbpedia.org/class/yago/CranialNerves
p233
aVhttp://dbpedia.org/class/yago/FiberBundle105475681
p234
aVhttp://dbpedia.org/class/yago/Nerve105474346
p235
aVhttp://dbpedia.org/class/yago/NervousTissue105296775
p236
aVhttp://dbpedia.org/class/yago/PhysicalEntity100001930
p237
aVhttp://dbpedia.org/resource/Inferior_ganglion_of_glossopharyngeal_nerve
tp238
aa(lp239
((lp240
Vhttp://dbpedia.org/class/yago/AnimalTissue105267548
p241
aVhttp://dbpedia.org/class/yago/BodyPart105220461
p242
aVhttp://dbpedia.org/class/yago/Part109385911
p243
aVhttp://dbpedia.org/class/yago/Thing100002452
p244
aVhttp://dbpedia.org/class/yago/Tissue105267345
p245
aVhttp://www.w3.org/2002/07/owl#Thing
p246
aVhttp://www.wikidata.org/entity/Q4936952
p247
aVhttp://www.wikidata.org/entity/Q9620
p248
aVhttp://dbpedia.org/ontology/AnatomicalStructure
p249
aVhttp://dbpedia.org/ontology/Nerve
p250
aVhttp://umbel.org/umbel/rc/AnimalBodyPart
p251
aVhttp://umbel.org/umbel/rc/Nerve
p252
aVhttp://dbpedia.org/class/yago/FiberBundle105475681
p253
aVhttp://dbpedia.org/class/yago/Nerve105474346
p254
aVhttp://dbpedia.org/class/yago/NervousTissue105296775
p255
aVhttp://dbpedia.org/class/yago/PhysicalEntity100001930
p256
aVhttp://dbpedia.org/resource/Inferior_ganglion_of_vagus_nerve
tp257
aa(lp258
((lp259
Vhttp://www.w3.org/2002/07/owl#Thing
p260
aVhttp://www.wikidata.org/entity/Q4936952
p261
aVhttp://www.wikidata.org/entity/Q9609
p262
aVhttp://dbpedia.org/ontology/AnatomicalStructure
p263
aVhttp://dbpedia.org/ontology/Vein
p264
aVhttp://umbel.org/umbel/rc/AnimalBodyPart
p265
aVhttp://umbel.org/umbel/rc/Vein
p266
aVhttp://dbpedia.org/resource/Superior_labial_vein
p267
tp268
aaa.