ccollections
defaultdict
p1
(c__builtin__
dict
p2
tRp3
I5
(dp4
I1
(lp5
sI2
(lp6
ssI6
(dp7
I1
(lp8
sI2
(lp9
ssI7
(dp10
I1
(lp11
sI2
(lp12
ssI8
(dp13
I1
(lp14
sI2
(lp15
Vhttp://www.w3.org/ns/prov#wasDerivedFrom
p16
assI9
(dp17
I1
(lp18
sI2
(lp19
ssI10
(dp20
I1
(lp21
sI2
(lp22
ssI11
(dp23
I1
(lp24
sI2
(lp25
ssI12
(dp26
I1
(lp27
sI2
(lp28
Vhttp://www.w3.org/ns/prov#wasDerivedFrom
p29
assI13
(dp30
I1
(lp31
sI2
(lp32
ssI16
(dp33
I1
(lp34
sI2
(lp35
ssI17
(dp36
I1
(lp37
sI2
(lp38
ssI18
(dp39
I1
(lp40
sI2
(lp41
Vhttp://www.w3.org/ns/prov#wasDerivedFrom
p42
ass.