ccollections
defaultdict
p1
(c__builtin__
dict
p2
tRp3
I0
(dp4
I0
(lp5
sI2
(lp6
sI3
(lp7
ssI1
(dp8
I0
(lp9
sI2
(lp10
sI3
(lp11
ssI2
(dp12
I0
(lp13
Vhttp://www.w3.org/ns/prov#wasDerivedFrom
p14
asI2
(lp15
sI3
(lp16
ssI3
(dp17
I0
(lp18
sI2
(lp19
sI3
(lp20
ssI4
(dp21
I0
(lp22
sI2
(lp23
sI3
(lp24
ssI5
(dp25
I0
(lp26
Vhttp://www.w3.org/ns/prov#wasDerivedFrom
p27
asI2
(lp28
sI3
(lp29
ssI6
(dp30
I0
(lp31
sI2
(lp32
sI3
(lp33
ssI7
(dp34
I0
(lp35
Vhttp://www.w3.org/ns/prov#wasDerivedFrom
p36
asI2
(lp37
sI3
(lp38
ssI10
(dp39
I0
(lp40
sI2
(lp41
sI3
(lp42
ssI11
(dp43
I0
(lp44
sI2
(lp45
sI3
(lp46
ssI13
(dp47
I0
(lp48
sI2
(lp49
sI3
(lp50
ssI14
(dp51
I0
(lp52
sI2
(lp53
sI3
(lp54
ssI15
(dp55
I0
(lp56
sI2
(lp57
sI3
(lp58
ssI16
(dp59
I0
(lp60
Vhttp://www.w3.org/ns/prov#wasDerivedFrom
p61
asI2
(lp62
sI3
(lp63
ssI17
(dp64
I0
(lp65
Vhttp://www.w3.org/ns/prov#wasDerivedFrom
p66
asI2
(lp67
sI3
(lp68
ss.