ccollections
defaultdict
p1
(c__builtin__
dict
p2
tRp3
I2
(dp4
I1
(lp5
sI2
(lp6
sI3
(lp7
ssI3
(dp8
I1
(lp9
Vhttp://www.w3.org/ns/prov#wasDerivedFrom
p10
asI2
(lp11
sI3
(lp12
ssI4
(dp13
I1
(lp14
sI2
(lp15
sI3
(lp16
ssI5
(dp17
I1
(lp18
sI2
(lp19
sI3
(lp20
ssI6
(dp21
I1
(lp22
sI2
(lp23
sI3
(lp24
ssI7
(dp25
I1
(lp26
sI2
(lp27
sI3
(lp28
ssI8
(dp29
I1
(lp30
sI2
(lp31
sI3
(lp32
ssI9
(dp33
I1
(lp34
sI2
(lp35
sI3
(lp36
ssI10
(dp37
I1
(lp38
Vhttp://www.w3.org/ns/prov#wasDerivedFrom
p39
asI2
(lp40
Vhttp://dbpedia.org/ontology/wikiPageExternalLink
p41
aVhttp://xmlns.com/foaf/0.1/homepage
p42
asI3
(lp43
ssI11
(dp44
I1
(lp45
sI2
(lp46
sI3
(lp47
ssI12
(dp48
I1
(lp49
sI2
(lp50
sI3
(lp51
ssI13
(dp52
I1
(lp53
Vhttp://www.w3.org/ns/prov#wasDerivedFrom
p54
asI2
(lp55
sI3
(lp56
ssI14
(dp57
I1
(lp58
sI2
(lp59
sI3
(lp60
ssI16
(dp61
I1
(lp62
sI2
(lp63
sI3
(lp64
ssI17
(dp65
I1
(lp66
sI2
(lp67
sI3
(lp68
ssI18
(dp69
I1
(lp70
sI2
(lp71
sI3
(lp72
ss.