(lp1
(lp2
(lp3
a(lp4
a(lp5
((lp6
Vhttp://dbpedia.org/class/yago/ATPYear-EndChampionships
p7
aVhttp://dbpedia.org/class/yago/Abstraction100002137
p8
aVhttp://dbpedia.org/class/yago/Championship107457834
p9
aVhttp://dbpedia.org/class/yago/Contest107456188
p10
aVhttp://dbpedia.org/class/yago/Event100029378
p11
aVhttp://dbpedia.org/class/yago/SocialEvent107288639
p12
aVhttp://www.w3.org/2002/07/owl#Thing
p13
aVhttp://www.ontologydesignpatterns.org/ont/dul/DUL.owl#Event
p14
aVhttp://www.wikidata.org/entity/Q1656682
p15
aVhttp://www.wikidata.org/entity/Q500834
p16
aVhttp://dbpedia.org/ontology/Event
p17
aVhttp://dbpedia.org/ontology/SocietalEvent
p18
aVhttp://dbpedia.org/ontology/SportsEvent
p19
aVhttp://dbpedia.org/ontology/Tournament
p20
aVhttp://dbpedia.org/ontology/WomensTennisAssociationTournament
p21
aVhttp://schema.org/Event
p22
aVhttp://schema.org/SportsEvent
p23
aVhttp://dbpedia.org/class/yago/PsychologicalFeature100023100
p24
aVhttp://dbpedia.org/class/yago/YagoPermanentlyLocatedEntity
p25
aVhttp://dbpedia.org/resource/ATP_World_Tour_Finals
tp26
aa(lp27
((lp28
Vhttp://dbpedia.org/class/yago/Abstraction100002137
p29
aVhttp://dbpedia.org/class/yago/Contest107456188
p30
aVhttp://dbpedia.org/class/yago/Event100029378
p31
aVhttp://dbpedia.org/class/yago/SocialEvent107288639
p32
aVhttp://dbpedia.org/class/yago/Tournament107464725
p33
aVhttp://www.w3.org/2002/07/owl#Thing
p34
aVhttp://www.ontologydesignpatterns.org/ont/dul/DUL.owl#Event
p35
aVhttp://www.wikidata.org/entity/Q1656682
p36
aVhttp://www.wikidata.org/entity/Q500834
p37
aVhttp://dbpedia.org/ontology/Event
p38
aVhttp://dbpedia.org/ontology/SocietalEvent
p39
aVhttp://dbpedia.org/ontology/SportsEvent
p40
aVhttp://dbpedia.org/ontology/Tournament
p41
aVhttp://dbpedia.org/ontology/WomensTennisAssociationTournament
p42
aVhttp://schema.org/Event
p43
aVhttp://schema.org/SportsEvent
p44
aVhttp://dbpedia.org/class/yago/PsychologicalFeature100023100
p45
aVhttp://dbpedia.org/class/yago/YagoPermanentlyLocatedEntity
p46
aVhttp://dbpedia.org/class/yago/HardCourtTennisTournaments
p47
aVhttp://dbpedia.org/class/yago/TennisTournamentsInHongKong
p48
aVhttp://dbpedia.org/resource/Hong_Kong_Open_(tennis)
tp49
aa(lp50
a(lp51
a(lp52
a(lp53
a(lp54
((lp55
Vhttp://www.w3.org/2002/07/owl#Thing
p56
aVhttp://www.ontologydesignpatterns.org/ont/dul/DUL.owl#Event
p57
aVhttp://www.wikidata.org/entity/Q1656682
p58
aVhttp://www.wikidata.org/entity/Q500834
p59
aVhttp://dbpedia.org/ontology/Event
p60
aVhttp://dbpedia.org/ontology/SocietalEvent
p61
aVhttp://dbpedia.org/ontology/SportsEvent
p62
aVhttp://dbpedia.org/ontology/Tournament
p63
aVhttp://dbpedia.org/ontology/WomensTennisAssociationTournament
p64
aVhttp://schema.org/Event
p65
aVhttp://schema.org/SportsEvent
p66
aVhttp://dbpedia.org/resource/Katowice_Open
tp67
aa(lp68
((lp69
Vhttp://dbpedia.org/class/yago/Abstraction100002137
p70
aVhttp://dbpedia.org/class/yago/Contest107456188
p71
aVhttp://dbpedia.org/class/yago/Event100029378
p72
aVhttp://dbpedia.org/class/yago/SocialEvent107288639
p73
aVhttp://dbpedia.org/class/yago/Tournament107464725
p74
aVhttp://www.w3.org/2002/07/owl#Thing
p75
aVhttp://www.ontologydesignpatterns.org/ont/dul/DUL.owl#Event
p76
aVhttp://www.wikidata.org/entity/Q1656682
p77
aVhttp://www.wikidata.org/entity/Q500834
p78
aVhttp://dbpedia.org/ontology/Event
p79
aVhttp://dbpedia.org/ontology/SocietalEvent
p80
aVhttp://dbpedia.org/ontology/SportsEvent
p81
aVhttp://dbpedia.org/ontology/Tournament
p82
aVhttp://dbpedia.org/ontology/WomensTennisAssociationTournament
p83
aVhttp://schema.org/Event
p84
aVhttp://schema.org/SportsEvent
p85
aVhttp://dbpedia.org/class/yago/PsychologicalFeature100023100
p86
aVhttp://dbpedia.org/class/yago/YagoPermanentlyLocatedEntity
p87
aVhttp://dbpedia.org/class/yago/HardCourtTennisTournaments
p88
aVhttp://dbpedia.org/class/yago/TennisTournamentsInCalifornia
p89
aVhttp://dbpedia.org/class/yago/TennisTournamentsInTheUnitedStates
p90
aVhttp://dbpedia.org/resource/Masters_Pro
tp91
aa(lp92
((lp93
Vhttp://dbpedia.org/class/yago/Abstraction100002137
p94
aVhttp://dbpedia.org/class/yago/Contest107456188
p95
aVhttp://dbpedia.org/class/yago/Event100029378
p96
aVhttp://dbpedia.org/class/yago/SocialEvent107288639
p97
aVhttp://dbpedia.org/class/yago/Tournament107464725
p98
aVhttp://www.w3.org/2002/07/owl#Thing
p99
aVhttp://www.ontologydesignpatterns.org/ont/dul/DUL.owl#Event
p100
aVhttp://www.wikidata.org/entity/Q1656682
p101
aVhttp://www.wikidata.org/entity/Q500834
p102
aVhttp://dbpedia.org/ontology/Event
p103
aVhttp://dbpedia.org/ontology/SocietalEvent
p104
aVhttp://dbpedia.org/ontology/SportsEvent
p105
aVhttp://dbpedia.org/ontology/Tournament
p106
aVhttp://dbpedia.org/ontology/WomensTennisAssociationTournament
p107
aVhttp://www.w3.org/2003/01/geo/wgs84_pos#SpatialThing
p108
aVhttp://schema.org/Event
p109
aVhttp://schema.org/SportsEvent
p110
aVhttp://dbpedia.org/class/yago/PsychologicalFeature100023100
p111
aVhttp://dbpedia.org/class/yago/YagoPermanentlyLocatedEntity
p112
aVhttp://dbpedia.org/class/yago/HardCourtTennisTournaments
p113
aVhttp://dbpedia.org/class/yago/TennisTournamentsInIndia
p114
aVhttp://dbpedia.org/resource/Chennai_Open
tp115
aa(lp116
((lVhttp://dbpedia.org/resource/ATP_Vegeta_Croatia_Open
tp117
aa(lp118
((lp119
Vhttp://www.w3.org/2002/07/owl#Thing
p120
aVhttp://www.ontologydesignpatterns.org/ont/dul/DUL.owl#Agent
p121
aVhttp://www.ontologydesignpatterns.org/ont/dul/DUL.owl#SocialPerson
p122
aVhttp://www.wikidata.org/entity/Q43229
p123
aVhttp://dbpedia.org/ontology/Agent
p124
aVhttp://dbpedia.org/ontology/Organisation
p125
aVhttp://dbpedia.org/ontology/SportsTeam
p126
aVhttp://www.w3.org/2003/01/geo/wgs84_pos#SpatialThing
p127
aVhttp://schema.org/Organization
p128
aVhttp://schema.org/SportsTeam
p129
aVhttp://dbpedia.org/resource/Japan_Open_(tennis)
tp130
aa(lp131
((lp132
Vhttp://dbpedia.org/class/yago/Abstraction100002137
p133
aVhttp://dbpedia.org/class/yago/CarpetCourtTennisTournaments
p134
aVhttp://dbpedia.org/class/yago/Contest107456188
p135
aVhttp://dbpedia.org/class/yago/Event100029378
p136
aVhttp://dbpedia.org/class/yago/SocialEvent107288639
p137
aVhttp://dbpedia.org/class/yago/Tournament107464725
p138
aVhttp://www.w3.org/2002/07/owl#Thing
p139
aVhttp://www.ontologydesignpatterns.org/ont/dul/DUL.owl#Event
p140
aVhttp://www.wikidata.org/entity/Q1656682
p141
aVhttp://www.wikidata.org/entity/Q500834
p142
aVhttp://dbpedia.org/ontology/Event
p143
aVhttp://dbpedia.org/ontology/SocietalEvent
p144
aVhttp://dbpedia.org/ontology/SportsEvent
p145
aVhttp://dbpedia.org/ontology/Tournament
p146
aVhttp://dbpedia.org/ontology/WomensTennisAssociationTournament
p147
aVhttp://www.w3.org/2003/01/geo/wgs84_pos#SpatialThing
p148
aVhttp://schema.org/Event
p149
aVhttp://schema.org/SportsEvent
p150
aVhttp://dbpedia.org/class/yago/PsychologicalFeature100023100
p151
aVhttp://dbpedia.org/class/yago/YagoPermanentlyLocatedEntity
p152
aVhttp://dbpedia.org/class/yago/IndoorTennisTournaments
p153
aVhttp://dbpedia.org/class/yago/TennisTournamentsInFrance
p154
aVhttp://dbpedia.org/resource/Paris_Masters
tp155
aa(lp156
((lp157
Vhttp://dbpedia.org/class/yago/Abstraction100002137
p158
aVhttp://dbpedia.org/class/yago/Contest107456188
p159
aVhttp://dbpedia.org/class/yago/Event100029378
p160
aVhttp://dbpedia.org/class/yago/SocialEvent107288639
p161
aVhttp://dbpedia.org/class/yago/Tournament107464725
p162
aVhttp://dbpedia.org/class/yago/RecurringEventsEstablishedIn1993
p163
aVhttp://www.w3.org/2002/07/owl#Thing
p164
aVhttp://www.ontologydesignpatterns.org/ont/dul/DUL.owl#Event
p165
aVhttp://www.wikidata.org/entity/Q1656682
p166
aVhttp://www.wikidata.org/entity/Q500834
p167
aVhttp://dbpedia.org/ontology/Event
p168
aVhttp://dbpedia.org/ontology/SocietalEvent
p169
aVhttp://dbpedia.org/ontology/SportsEvent
p170
aVhttp://dbpedia.org/ontology/Tournament
p171
aVhttp://dbpedia.org/ontology/WomensTennisAssociationTournament
p172
aVhttp://www.w3.org/2003/01/geo/wgs84_pos#SpatialThing
p173
aVhttp://schema.org/Event
p174
aVhttp://schema.org/SportsEvent
p175
aVhttp://dbpedia.org/class/yago/PsychologicalFeature100023100
p176
aVhttp://dbpedia.org/class/yago/YagoPermanentlyLocatedEntity
p177
aVhttp://dbpedia.org/class/yago/HardCourtTennisTournaments
p178
aVhttp://dbpedia.org/class/yago/TennisTournamentsInQatar
p179
aVhttp://dbpedia.org/resource/Qatar_Open_(tennis)
tp180
aa(lp181
((lp182
Vhttp://dbpedia.org/class/yago/Abstraction100002137
p183
aVhttp://dbpedia.org/class/yago/Championship107457834
p184
aVhttp://dbpedia.org/class/yago/Contest107456188
p185
aVhttp://dbpedia.org/class/yago/Event100029378
p186
aVhttp://dbpedia.org/class/yago/SocialEvent107288639
p187
aVhttp://dbpedia.org/class/yago/Tournament107464725
p188
aVhttp://dbpedia.org/class/yago/Queen'sClubChampionships
p189
aVhttp://www.w3.org/2002/07/owl#Thing
p190
aVhttp://www.ontologydesignpatterns.org/ont/dul/DUL.owl#Event
p191
aVhttp://www.wikidata.org/entity/Q1656682
p192
aVhttp://www.wikidata.org/entity/Q500834
p193
aVhttp://dbpedia.org/ontology/Event
p194
aVhttp://dbpedia.org/ontology/SocietalEvent
p195
aVhttp://dbpedia.org/ontology/SportsEvent
p196
aVhttp://dbpedia.org/ontology/Tournament
p197
aVhttp://dbpedia.org/ontology/WomensTennisAssociationTournament
p198
aVhttp://www.w3.org/2003/01/geo/wgs84_pos#SpatialThing
p199
aVhttp://schema.org/Event
p200
aVhttp://schema.org/SportsEvent
p201
aVhttp://dbpedia.org/class/yago/PsychologicalFeature100023100
p202
aVhttp://dbpedia.org/class/yago/YagoPermanentlyLocatedEntity
p203
aVhttp://dbpedia.org/class/yago/GrassCourtTennisTournaments
p204
aVhttp://dbpedia.org/resource/Queen's_Club_Championships
tp205
aa(lp206
((lp207
Vhttp://dbpedia.org/class/yago/Abstraction100002137
p208
aVhttp://dbpedia.org/class/yago/CarpetCourtTennisTournaments
p209
aVhttp://dbpedia.org/class/yago/Contest107456188
p210
aVhttp://dbpedia.org/class/yago/Event100029378
p211
aVhttp://dbpedia.org/class/yago/SocialEvent107288639
p212
aVhttp://dbpedia.org/class/yago/Tournament107464725
p213
aVhttp://dbpedia.org/class/yago/RecurringEventsDisestablishedIn2003
p214
aVhttp://www.w3.org/2002/07/owl#Thing
p215
aVhttp://www.ontologydesignpatterns.org/ont/dul/DUL.owl#Event
p216
aVhttp://www.wikidata.org/entity/Q1656682
p217
aVhttp://www.wikidata.org/entity/Q500834
p218
aVhttp://dbpedia.org/ontology/Event
p219
aVhttp://dbpedia.org/ontology/SocietalEvent
p220
aVhttp://dbpedia.org/ontology/SportsEvent
p221
aVhttp://dbpedia.org/ontology/Tournament
p222
aVhttp://dbpedia.org/ontology/WomensTennisAssociationTournament
p223
aVhttp://schema.org/Event
p224
aVhttp://schema.org/SportsEvent
p225
aVhttp://dbpedia.org/class/yago/PsychologicalFeature100023100
p226
aVhttp://dbpedia.org/class/yago/YagoPermanentlyLocatedEntity
p227
aVhttp://dbpedia.org/class/yago/IndoorTennisTournaments
p228
aVhttp://dbpedia.org/class/yago/TennisTournamentsInGermany
p229
aVhttp://dbpedia.org/resource/Sparkassen_Cup_(tennis)
tp230
aa(lp231
a(lp232
((lp233
Vhttp://dbpedia.org/class/yago/Abstraction100002137
p234
aVhttp://dbpedia.org/class/yago/Contest107456188
p235
aVhttp://dbpedia.org/class/yago/Event100029378
p236
aVhttp://dbpedia.org/class/yago/SocialEvent107288639
p237
aVhttp://dbpedia.org/class/yago/Tournament107464725
p238
aVhttp://www.w3.org/2002/07/owl#Thing
p239
aVhttp://www.ontologydesignpatterns.org/ont/dul/DUL.owl#Event
p240
aVhttp://www.wikidata.org/entity/Q1656682
p241
aVhttp://www.wikidata.org/entity/Q500834
p242
aVhttp://dbpedia.org/ontology/Event
p243
aVhttp://dbpedia.org/ontology/SocietalEvent
p244
aVhttp://dbpedia.org/ontology/SportsEvent
p245
aVhttp://dbpedia.org/ontology/Tournament
p246
aVhttp://dbpedia.org/ontology/WomensTennisAssociationTournament
p247
aVhttp://schema.org/Event
p248
aVhttp://schema.org/SportsEvent
p249
aVhttp://dbpedia.org/class/yago/PsychologicalFeature100023100
p250
aVhttp://dbpedia.org/class/yago/YagoPermanentlyLocatedEntity
p251
aVhttp://dbpedia.org/class/yago/HardCourtTennisTournaments
p252
aVhttp://dbpedia.org/class/yago/IndoorTennisTournaments
p253
aVhttp://dbpedia.org/class/yago/TennisTournamentsInFrance
p254
aVhttp://dbpedia.org/resource/Lorraine_Open
p255
tp256
aaa.