(lp1
(lp2
(lp3
a(lp4
a(lp5
((lp6
Vhttp://dbpedia.org/class/yago/ATPYear-EndChampionships
p7
aVhttp://dbpedia.org/class/yago/Abstraction100002137
p8
aVhttp://dbpedia.org/class/yago/Championship107457834
p9
aVhttp://dbpedia.org/class/yago/Contest107456188
p10
aVhttp://dbpedia.org/class/yago/Event100029378
p11
aVhttp://dbpedia.org/class/yago/SocialEvent107288639
p12
aVhttp://www.w3.org/2002/07/owl#Thing
p13
aVhttp://www.ontologydesignpatterns.org/ont/dul/DUL.owl#Event
p14
aVhttp://www.wikidata.org/entity/Q1656682
p15
aVhttp://www.wikidata.org/entity/Q500834
p16
aVhttp://dbpedia.org/ontology/Event
p17
aVhttp://dbpedia.org/ontology/SocietalEvent
p18
aVhttp://dbpedia.org/ontology/SportsEvent
p19
aVhttp://dbpedia.org/ontology/Tournament
p20
aVhttp://dbpedia.org/ontology/WomensTennisAssociationTournament
p21
aVhttp://schema.org/Event
p22
aVhttp://schema.org/SportsEvent
p23
aVhttp://dbpedia.org/class/yago/PsychologicalFeature100023100
p24
aVhttp://dbpedia.org/class/yago/YagoPermanentlyLocatedEntity
p25
aVhttp://dbpedia.org/resource/ATP_World_Tour_Finals
tp26
aa(lp27
a(lp28
a(lp29
a(lp30
a(lp31
a(lp32
a(lp33
((lp34
Vhttp://dbpedia.org/class/yago/Abstraction100002137
p35
aVhttp://dbpedia.org/class/yago/Contest107456188
p36
aVhttp://dbpedia.org/class/yago/Event100029378
p37
aVhttp://dbpedia.org/class/yago/SocialEvent107288639
p38
aVhttp://dbpedia.org/class/yago/Tournament107464725
p39
aVhttp://www.w3.org/2002/07/owl#Thing
p40
aVhttp://www.ontologydesignpatterns.org/ont/dul/DUL.owl#Event
p41
aVhttp://www.wikidata.org/entity/Q1656682
p42
aVhttp://www.wikidata.org/entity/Q500834
p43
aVhttp://dbpedia.org/ontology/Event
p44
aVhttp://dbpedia.org/ontology/SocietalEvent
p45
aVhttp://dbpedia.org/ontology/SportsEvent
p46
aVhttp://dbpedia.org/ontology/Tournament
p47
aVhttp://dbpedia.org/ontology/WomensTennisAssociationTournament
p48
aVhttp://schema.org/Event
p49
aVhttp://schema.org/SportsEvent
p50
aVhttp://dbpedia.org/class/yago/PsychologicalFeature100023100
p51
aVhttp://dbpedia.org/class/yago/YagoPermanentlyLocatedEntity
p52
aVhttp://dbpedia.org/class/yago/HardCourtTennisTournaments
p53
aVhttp://dbpedia.org/class/yago/TennisTournamentsInCalifornia
p54
aVhttp://dbpedia.org/class/yago/TennisTournamentsInTheUnitedStates
p55
aVhttp://dbpedia.org/resource/Masters_Pro
tp56
aa(lp57
((lp58
Vhttp://dbpedia.org/class/yago/Abstraction100002137
p59
aVhttp://dbpedia.org/class/yago/Contest107456188
p60
aVhttp://dbpedia.org/class/yago/Event100029378
p61
aVhttp://dbpedia.org/class/yago/SocialEvent107288639
p62
aVhttp://dbpedia.org/class/yago/Tournament107464725
p63
aVhttp://www.w3.org/2002/07/owl#Thing
p64
aVhttp://www.ontologydesignpatterns.org/ont/dul/DUL.owl#Event
p65
aVhttp://www.wikidata.org/entity/Q1656682
p66
aVhttp://www.wikidata.org/entity/Q500834
p67
aVhttp://dbpedia.org/ontology/Event
p68
aVhttp://dbpedia.org/ontology/SocietalEvent
p69
aVhttp://dbpedia.org/ontology/SportsEvent
p70
aVhttp://dbpedia.org/ontology/Tournament
p71
aVhttp://dbpedia.org/ontology/WomensTennisAssociationTournament
p72
aVhttp://www.w3.org/2003/01/geo/wgs84_pos#SpatialThing
p73
aVhttp://schema.org/Event
p74
aVhttp://schema.org/SportsEvent
p75
aVhttp://dbpedia.org/class/yago/PsychologicalFeature100023100
p76
aVhttp://dbpedia.org/class/yago/YagoPermanentlyLocatedEntity
p77
aVhttp://dbpedia.org/class/yago/HardCourtTennisTournaments
p78
aVhttp://dbpedia.org/class/yago/TennisTournamentsInIndia
p79
aVhttp://dbpedia.org/resource/Chennai_Open
tp80
aa(lp81
((lVhttp://dbpedia.org/resource/ATP_Vegeta_Croatia_Open
tp82
aa(lp83
((lp84
Vhttp://www.w3.org/2002/07/owl#Thing
p85
aVhttp://www.ontologydesignpatterns.org/ont/dul/DUL.owl#Agent
p86
aVhttp://www.ontologydesignpatterns.org/ont/dul/DUL.owl#SocialPerson
p87
aVhttp://www.wikidata.org/entity/Q43229
p88
aVhttp://dbpedia.org/ontology/Agent
p89
aVhttp://dbpedia.org/ontology/Organisation
p90
aVhttp://dbpedia.org/ontology/SportsTeam
p91
aVhttp://www.w3.org/2003/01/geo/wgs84_pos#SpatialThing
p92
aVhttp://schema.org/Organization
p93
aVhttp://schema.org/SportsTeam
p94
aVhttp://dbpedia.org/resource/Japan_Open_(tennis)
tp95
aa(lp96
((lp97
Vhttp://dbpedia.org/class/yago/Abstraction100002137
p98
aVhttp://dbpedia.org/class/yago/CarpetCourtTennisTournaments
p99
aVhttp://dbpedia.org/class/yago/Contest107456188
p100
aVhttp://dbpedia.org/class/yago/Event100029378
p101
aVhttp://dbpedia.org/class/yago/SocialEvent107288639
p102
aVhttp://dbpedia.org/class/yago/Tournament107464725
p103
aVhttp://www.w3.org/2002/07/owl#Thing
p104
aVhttp://www.ontologydesignpatterns.org/ont/dul/DUL.owl#Event
p105
aVhttp://www.wikidata.org/entity/Q1656682
p106
aVhttp://www.wikidata.org/entity/Q500834
p107
aVhttp://dbpedia.org/ontology/Event
p108
aVhttp://dbpedia.org/ontology/SocietalEvent
p109
aVhttp://dbpedia.org/ontology/SportsEvent
p110
aVhttp://dbpedia.org/ontology/Tournament
p111
aVhttp://dbpedia.org/ontology/WomensTennisAssociationTournament
p112
aVhttp://www.w3.org/2003/01/geo/wgs84_pos#SpatialThing
p113
aVhttp://schema.org/Event
p114
aVhttp://schema.org/SportsEvent
p115
aVhttp://dbpedia.org/class/yago/PsychologicalFeature100023100
p116
aVhttp://dbpedia.org/class/yago/YagoPermanentlyLocatedEntity
p117
aVhttp://dbpedia.org/class/yago/IndoorTennisTournaments
p118
aVhttp://dbpedia.org/class/yago/TennisTournamentsInFrance
p119
aVhttp://dbpedia.org/resource/Paris_Masters
tp120
aa(lp121
((lp122
Vhttp://dbpedia.org/class/yago/Abstraction100002137
p123
aVhttp://dbpedia.org/class/yago/Contest107456188
p124
aVhttp://dbpedia.org/class/yago/Event100029378
p125
aVhttp://dbpedia.org/class/yago/SocialEvent107288639
p126
aVhttp://dbpedia.org/class/yago/Tournament107464725
p127
aVhttp://dbpedia.org/class/yago/RecurringEventsEstablishedIn1993
p128
aVhttp://www.w3.org/2002/07/owl#Thing
p129
aVhttp://www.ontologydesignpatterns.org/ont/dul/DUL.owl#Event
p130
aVhttp://www.wikidata.org/entity/Q1656682
p131
aVhttp://www.wikidata.org/entity/Q500834
p132
aVhttp://dbpedia.org/ontology/Event
p133
aVhttp://dbpedia.org/ontology/SocietalEvent
p134
aVhttp://dbpedia.org/ontology/SportsEvent
p135
aVhttp://dbpedia.org/ontology/Tournament
p136
aVhttp://dbpedia.org/ontology/WomensTennisAssociationTournament
p137
aVhttp://www.w3.org/2003/01/geo/wgs84_pos#SpatialThing
p138
aVhttp://schema.org/Event
p139
aVhttp://schema.org/SportsEvent
p140
aVhttp://dbpedia.org/class/yago/PsychologicalFeature100023100
p141
aVhttp://dbpedia.org/class/yago/YagoPermanentlyLocatedEntity
p142
aVhttp://dbpedia.org/class/yago/HardCourtTennisTournaments
p143
aVhttp://dbpedia.org/class/yago/TennisTournamentsInQatar
p144
aVhttp://dbpedia.org/resource/Qatar_Open_(tennis)
tp145
aa(lp146
((lp147
Vhttp://dbpedia.org/class/yago/Abstraction100002137
p148
aVhttp://dbpedia.org/class/yago/Championship107457834
p149
aVhttp://dbpedia.org/class/yago/Contest107456188
p150
aVhttp://dbpedia.org/class/yago/Event100029378
p151
aVhttp://dbpedia.org/class/yago/SocialEvent107288639
p152
aVhttp://dbpedia.org/class/yago/Tournament107464725
p153
aVhttp://dbpedia.org/class/yago/Queen'sClubChampionships
p154
aVhttp://www.w3.org/2002/07/owl#Thing
p155
aVhttp://www.ontologydesignpatterns.org/ont/dul/DUL.owl#Event
p156
aVhttp://www.wikidata.org/entity/Q1656682
p157
aVhttp://www.wikidata.org/entity/Q500834
p158
aVhttp://dbpedia.org/ontology/Event
p159
aVhttp://dbpedia.org/ontology/SocietalEvent
p160
aVhttp://dbpedia.org/ontology/SportsEvent
p161
aVhttp://dbpedia.org/ontology/Tournament
p162
aVhttp://dbpedia.org/ontology/WomensTennisAssociationTournament
p163
aVhttp://www.w3.org/2003/01/geo/wgs84_pos#SpatialThing
p164
aVhttp://schema.org/Event
p165
aVhttp://schema.org/SportsEvent
p166
aVhttp://dbpedia.org/class/yago/PsychologicalFeature100023100
p167
aVhttp://dbpedia.org/class/yago/YagoPermanentlyLocatedEntity
p168
aVhttp://dbpedia.org/class/yago/GrassCourtTennisTournaments
p169
aVhttp://dbpedia.org/resource/Queen's_Club_Championships
tp170
aa(lp171
((lp172
Vhttp://dbpedia.org/class/yago/Abstraction100002137
p173
aVhttp://dbpedia.org/class/yago/CarpetCourtTennisTournaments
p174
aVhttp://dbpedia.org/class/yago/Contest107456188
p175
aVhttp://dbpedia.org/class/yago/Event100029378
p176
aVhttp://dbpedia.org/class/yago/SocialEvent107288639
p177
aVhttp://dbpedia.org/class/yago/Tournament107464725
p178
aVhttp://dbpedia.org/class/yago/RecurringEventsDisestablishedIn2003
p179
aVhttp://www.w3.org/2002/07/owl#Thing
p180
aVhttp://www.ontologydesignpatterns.org/ont/dul/DUL.owl#Event
p181
aVhttp://www.wikidata.org/entity/Q1656682
p182
aVhttp://www.wikidata.org/entity/Q500834
p183
aVhttp://dbpedia.org/ontology/Event
p184
aVhttp://dbpedia.org/ontology/SocietalEvent
p185
aVhttp://dbpedia.org/ontology/SportsEvent
p186
aVhttp://dbpedia.org/ontology/Tournament
p187
aVhttp://dbpedia.org/ontology/WomensTennisAssociationTournament
p188
aVhttp://schema.org/Event
p189
aVhttp://schema.org/SportsEvent
p190
aVhttp://dbpedia.org/class/yago/PsychologicalFeature100023100
p191
aVhttp://dbpedia.org/class/yago/YagoPermanentlyLocatedEntity
p192
aVhttp://dbpedia.org/class/yago/IndoorTennisTournaments
p193
aVhttp://dbpedia.org/class/yago/TennisTournamentsInGermany
p194
aVhttp://dbpedia.org/resource/Sparkassen_Cup_(tennis)
tp195
aa(lp196
a(lp197
((lp198
Vhttp://dbpedia.org/class/yago/Abstraction100002137
p199
aVhttp://dbpedia.org/class/yago/Contest107456188
p200
aVhttp://dbpedia.org/class/yago/Event100029378
p201
aVhttp://dbpedia.org/class/yago/SocialEvent107288639
p202
aVhttp://dbpedia.org/class/yago/Tournament107464725
p203
aVhttp://www.w3.org/2002/07/owl#Thing
p204
aVhttp://www.ontologydesignpatterns.org/ont/dul/DUL.owl#Event
p205
aVhttp://www.wikidata.org/entity/Q1656682
p206
aVhttp://www.wikidata.org/entity/Q500834
p207
aVhttp://dbpedia.org/ontology/Event
p208
aVhttp://dbpedia.org/ontology/SocietalEvent
p209
aVhttp://dbpedia.org/ontology/SportsEvent
p210
aVhttp://dbpedia.org/ontology/Tournament
p211
aVhttp://dbpedia.org/ontology/WomensTennisAssociationTournament
p212
aVhttp://schema.org/Event
p213
aVhttp://schema.org/SportsEvent
p214
aVhttp://dbpedia.org/class/yago/PsychologicalFeature100023100
p215
aVhttp://dbpedia.org/class/yago/YagoPermanentlyLocatedEntity
p216
aVhttp://dbpedia.org/class/yago/HardCourtTennisTournaments
p217
aVhttp://dbpedia.org/class/yago/IndoorTennisTournaments
p218
aVhttp://dbpedia.org/class/yago/TennisTournamentsInFrance
p219
aVhttp://dbpedia.org/resource/Lorraine_Open
p220
tp221
aaa.