(lp1
(lp2
(lp3
a(lp4
Vhttp://dbpedia.org/resource/Earth_2
p5
aa(lp6
a(lp7
a(lp8
a(lp9
aa(lp10
(lp11
a(lp12
Vhttp://dbpedia.org/resource/Earth_2
p13
aa(lp14
a(lp15
a(lp16
a(lp17
aa(lp18
(lp19
a(lp20
Vhttp://dbpedia.org/resource/Earth_2
p21
aa(lp22
a(lp23
a(lp24
a(lp25
Vhttp://dbpedia.org/resource/PH1b
p26
aaa(lp27
(lp28
a(lp29
a(lp30
a(lp31
a(lp32
a(lp33
Vhttp://dbpedia.org/resource/Kepler-42c
p34
aaa(lp35
(lp36
a(lp37
Vhttp://dbpedia.org/resource/Earth_2
p38
aa(lp39
a(lp40
a(lp41
a(lp42
Vhttp://dbpedia.org/resource/Kepler-42
p43
aaa(lp44
(lp45
a(lp46
a(lp47
a(lp48
a(lp49
a(lp50
Vhttp://dbpedia.org/resource/Kepler-44
p51
aaa(lp52
(lp53
a(lp54
a(lp55
a(lp56
a(lp57
a(lp58
aa(lp59
(lp60
a(lp61
a(lp62
a(lp63
a(lp64
a(lp65
Vhttp://dbpedia.org/resource/NGC_3552
p66
aaa(lp67
(lp68
a(lp69
a(lp70
a(lp71
a(lp72
a(lp73
Vhttp://dbpedia.org/resource/NGC_4420
p74
aaa(lp75
(lp76
a(lp77
a(lp78
a(lp79
a(lp80
a(lp81
Vhttp://dbpedia.org/resource/NGC_3539
p82
aaa(lp83
(lp84
a(lp85
a(lp86
a(lp87
a(lp88
a(lp89
Vhttp://dbpedia.org/resource/NGC_92
p90
aaa(lp91
(lp92
a(lp93
a(lp94
a(lp95
a(lp96
a(lp97
Vhttp://dbpedia.org/resource/Nu_Puppis
p98
aaa(lp99
(lp100
a(lp101
a(lp102
a(lp103
a(lp104
a(lp105
Vhttp://dbpedia.org/resource/PU_Puppis
p106
aaa(lp107
(lp108
a(lp109
a(lp110
a(lp111
a(lp112
a(lp113
aa(lp114
(lp115
a(lp116
a(lp117
a(lp118
a(lp119
a(lp120
aa(lp121
(lp122
a(lp123
a(lp124
a(lp125
a(lp126
a(lp127
Vhttp://dbpedia.org/resource/RR_Ursae_Minoris
p128
aaa(lp129
(lp130
a(lp131
a(lp132
a(lp133
a(lp134
a(lp135
aa(lp136
(lp137
a(lp138
a(lp139
a(lp140
a(lp141
a(lp142
aa(lp143
(lp144
a(lp145
a(lp146
a(lp147
a(lp148
a(lp149
Vhttp://dbpedia.org/resource/Beta_Coronae_Australis
p150
aaa.