(lp1
(lp2
(lp3
a(lp4
a(lp5
a(lp6
a(lp7
a(lp8
aa(lp9
(lp10
a(lp11
a(lp12
a(lp13
a(lp14
a(lp15
aa(lp16
(lp17
Vhttp://dbpedia.org/resource/Female
p18
aa(lp19
a(lp20
a(lp21
a(lp22
a(lp23
aa(lp24
(lp25
Vhttp://dbpedia.org/resource/Female
p26
aa(lp27
a(lp28
Vhttp://dbpedia.org/resource/Dorothy_Gale
p29
aa(lp30
a(lp31
a(lp32
aa(lp33
(lp34
a(lp35
a(lp36
a(lp37
a(lp38
a(lp39
aa(lp40
(lp41
a(lp42
a(lp43
Vhttp://dbpedia.org/resource/Felix_(programming_language)
p44
aa(lp45
a(lp46
a(lp47
aa(lp48
(lp49
a(lp50
a(lp51
Vhttp://dbpedia.org/resource/Minnie_Maddern_Fiske
p52
aa(lp53
a(lp54
a(lp55
aa(lp56
(lp57
a(lp58
a(lp59
Vhttp://dbpedia.org/resource/Francesca_Annis
p60
aa(lp61
a(lp62
a(lp63
aa(lp64
(lp65
Vhttp://dbpedia.org/resource/Female
p66
aa(lp67
a(lp68
Vhttp://dbpedia.org/resource/Frederica_(given_name)
p69
aa(lp70
a(lp71
a(lp72
aa(lp73
(lp74
a(lp75
a(lp76
Vhttp://dbpedia.org/resource/Ernest_Gellner
p77
aa(lp78
a(lp79
a(lp80
aa(lp81
(lp82
Vhttp://dbpedia.org/resource/Female
p83
aa(lp84
a(lp85
Vhttp://dbpedia.org/resource/Geraldine
p86
aa(lp87
a(lp88
a(lp89
aa(lp90
(lp91
a(lp92
a(lp93
Vhttp://dbpedia.org/resource/Geddes_(surname)
p94
aa(lp95
a(lp96
a(lp97
aa(lp98
(lp99
a(lp100
a(lp101
Vhttp://dbpedia.org/resource/Ginny_Owens
p102
aa(lp103
a(lp104
a(lp105
aa(lp106
(lp107
a(lp108
a(lp109
a(lp110
a(lp111
a(lp112
aa(lp113
(lp114
Vhttp://dbpedia.org/resource/Unisex
p115
aa(lp116
a(lp117
Vhttp://dbpedia.org/resource/Harukanaru_Toki_no_Naka_de_3
p118
aa(lp119
a(lp120
a(lp121
aa(lp122
(lp123
a(lp124
a(lp125
Vhttp://dbpedia.org/resource/Suzuki_Harunobu
p126
aa(lp127
a(lp128
a(lp129
aa(lp130
(lp131
a(lp132
a(lp133
a(lp134
a(lp135
a(lp136
aa(lp137
(lp138
a(lp139
a(lp140
a(lp141
a(lp142
a(lp143
aa.