(lp1
(lp2
(lp3
a(lp4
a(lp5
((lp6
Vhttp://dbpedia.org/class/yago/Artifact100021939
p7
aVhttp://dbpedia.org/class/yago/Depository103177349
p8
aVhttp://dbpedia.org/class/yago/Facility103315023
p9
aVhttp://dbpedia.org/class/yago/Museum103800563
p10
aVhttp://dbpedia.org/class/yago/Object100002684
p11
aVhttp://dbpedia.org/class/yago/Whole100003553
p12
aVhttp://dbpedia.org/class/yago/YagoGeoEntity
p13
aVhttp://dbpedia.org/class/yago/RailwayMuseumsInEngland
p14
aVhttp://www.w3.org/2002/07/owl#Thing
p15
aVhttp://dbpedia.org/ontology/Place
p16
aVhttp://dbpedia.org/ontology/Location
p17
aVhttp://www.wikidata.org/entity/Q33506
p18
aVhttp://www.wikidata.org/entity/Q41176
p19
aVhttp://dbpedia.org/ontology/ArchitecturalStructure
p20
aVhttp://dbpedia.org/ontology/Building
p21
aVhttp://dbpedia.org/ontology/Museum
p22
aVhttp://www.w3.org/2003/01/geo/wgs84_pos#SpatialThing
p23
aVhttp://schema.org/Place
p24
aVhttp://dbpedia.org/class/yago/YagoPermanentlyLocatedEntity
p25
aVhttp://dbpedia.org/class/yago/MuseumsEstablishedIn1979
p26
aVhttp://dbpedia.org/class/yago/MuseumsInWestSussex
p27
aVhttp://dbpedia.org/class/yago/OpenAirMuseumsInTheUnitedKingdom
p28
aVhttp://dbpedia.org/class/yago/IndustryMuseumsInTheUnitedKingdom
p29
aVhttp://dbpedia.org/class/yago/PhysicalEntity100001930
p30
aVhttp://dbpedia.org/class/yago/TransportMuseumsInEngland
p31
aVhttp://dbpedia.org/resource/Amberley_Museum_&_Heritage_Centre
p32
tp33
aa(lp34
a(lp35
a(lp36
a(lp37
a(lp38
a(lp39
a(lp40
a(lp41
a(lp42
a(lp43
a(lp44
a(lp45
a(lp46
a(lp47
a(lp48
a(lp49
aa.