(lp1
(lp2
(lp3
a(lp4
a(lp5
a(lp6
aa(lp7
(lp8
a(lp9
a(lp10
a(lp11
aa(lp12
(lp13
a(lp14
a(lp15
a(lp16
aa(lp17
(lp18
a(lp19
a(lp20
a(lp21
aa(lp22
(lp23
a(lp24
a(lp25
a(lp26
aa(lp27
(lp28
a(lp29
a(lp30
a(lp31
aa(lp32
(lp33
a(lp34
a(lp35
a(lp36
aa(lp37
(lp38
a(lp39
a(lp40
a(lp41
aa(lp42
(lp43
a(lp44
a(lp45
a(lp46
aa(lp47
(lp48
a(lp49
a(lp50
a(lp51
((lp52
Vhttp://dbpedia.org/class/yago/Artifact100021939
p53
aVhttp://dbpedia.org/class/yago/ArtificialSatellitesOrbitingEarth
p54
aVhttp://dbpedia.org/class/yago/Device103183080
p55
aVhttp://dbpedia.org/class/yago/Equipment103294048
p56
aVhttp://dbpedia.org/class/yago/Instrument103574816
p57
aVhttp://dbpedia.org/class/yago/MeasuringInstrument103733925
p58
aVhttp://dbpedia.org/class/yago/Object100002684
p59
aVhttp://dbpedia.org/class/yago/Radar104039848
p60
aVhttp://dbpedia.org/class/yago/Satellite104137444
p61
aVhttp://dbpedia.org/class/yago/Whole100003553
p62
aVhttp://dbpedia.org/class/yago/SpaceRadars
p63
aVhttp://www.w3.org/2002/07/owl#Thing
p64
aVhttp://dbpedia.org/ontology/Place
p65
aVhttp://dbpedia.org/ontology/Location
p66
aVhttp://dbpedia.org/ontology/ArtificialSatellite
p67
aVhttp://dbpedia.org/ontology/CelestialBody
p68
aVhttp://dbpedia.org/ontology/Satellite
p69
aVhttp://schema.org/Place
p70
aVhttp://dbpedia.org/class/yago/EarthObservationSatellites
p71
aVhttp://dbpedia.org/class/yago/Instrumentality103575240
p72
aVhttp://dbpedia.org/class/yago/JapaneseSatellitesAndSpaceProbes
p73
aVhttp://dbpedia.org/class/yago/PhysicalEntity100001930
p74
aVhttp://dbpedia.org/resource/Advanced_Land_Observation_Satellite
tp75
aaa(lp76
(lp77
a(lp78
a(lp79
a(lp80
aa(lp81
(lp82
a(lp83
a(lp84
a(lp85
aa(lp86
(lp87
a(lp88
a(lp89
a(lp90
aa(lp91
(lp92
a(lp93
a(lp94
a(lp95
((lVhttp://dbpedia.org/resource/Bird_(disambiguation)
tp96
aaa(lp97
(lp98
a(lp99
a(lp100
a(lp101
((lVhttp://dbpedia.org/resource/Beagle_3
tp102
aaa(lp103
(lp104
a(lp105
a(lp106
a(lp107
((lp108
Vhttp://dbpedia.org/class/yago/Artifact100021939
p109
aVhttp://dbpedia.org/class/yago/ArtificialSatellitesOrbitingEarth
p110
aVhttp://dbpedia.org/class/yago/Device103183080
p111
aVhttp://dbpedia.org/class/yago/Equipment103294048
p112
aVhttp://dbpedia.org/class/yago/Instrument103574816
p113
aVhttp://dbpedia.org/class/yago/Object100002684
p114
aVhttp://dbpedia.org/class/yago/Satellite104137444
p115
aVhttp://dbpedia.org/class/yago/ScientificInstrument104147495
p116
aVhttp://dbpedia.org/class/yago/Telescope104403638
p117
aVhttp://dbpedia.org/class/yago/Whole100003553
p118
aVhttp://www.w3.org/2002/07/owl#Thing
p119
aVhttp://dbpedia.org/ontology/Place
p120
aVhttp://dbpedia.org/ontology/Location
p121
aVhttp://dbpedia.org/ontology/ArtificialSatellite
p122
aVhttp://dbpedia.org/ontology/CelestialBody
p123
aVhttp://dbpedia.org/ontology/Satellite
p124
aVhttp://schema.org/Place
p125
aVhttp://dbpedia.org/class/yago/Instrumentality103575240
p126
aVhttp://dbpedia.org/class/yago/Magnifier103709206
p127
aVhttp://dbpedia.org/class/yago/PhysicalEntity100001930
p128
aVhttp://dbpedia.org/class/yago/X-rayTelescopes
p129
aVhttp://dbpedia.org/resource/Chandra_X-ray_Observatory
p130
tp131
aaa(lp132
(lp133
a(lp134
a(lp135
a(lp136
aa(lp137
(lp138
a(lp139
a(lp140
a(lp141
aa(lp142
(lp143
a(lp144
a(lp145
a(lp146
aa.