(lp1
(lp2
(lp3
a(lp4
a(lp5
aa(lp6
(lp7
a(lp8
a(lp9
aa(lp10
(lp11
a(lp12
Vhttp://dbpedia.org/resource/Denny_Hickey
p13
aa(lp14
aa(lp15
(lp16
a(lp17
a(lp18
aa(lp19
(lp20
a(lp21
Vhttp://dbpedia.org/resource/Brian_Murphy
p22
aa(lp23
aa(lp24
(lp25
a(lp26
a(lp27
aa(lp28
(lp29
a(lp30
Vhttp://dbpedia.org/resource/Brian_Murphy
p31
aa(lp32
aa(lp33
(lp34
a(lp35
a(lp36
aa(lp37
(lp38
a(lp39
Vhttp://dbpedia.org/resource/Colin_Riordan
p40
aa(lp41
aa(lp42
(lp43
a(lp44
Vhttp://dbpedia.org/resource/Colman_O'Flaherty
p45
aa(lp46
aa(lp47
(lp48
a(lp49
a(lp50
aa(lp51
(lp52
a(lp53
Vhttp://dbpedia.org/resource/Damien_Delaney_(Gaelic_footballer)
p54
aa(lp55
aa(lp56
(lp57
a(lp58
Vhttp://dbpedia.org/resource/Daniel_Collins_(canoeist)
p59
aa(lp60
aa(lp61
(lp62
a(lp63
Vhttp://dbpedia.org/resource/David_Burke_(hurler)
p64
aa(lp65
aa(lp66
(lp67
a(lp68
a(lp69
aa(lp70
(lp71
a(lp72
a(lp73
aa(lp74
(lp75
a(lp76
a(lp77
aa(lp78
(lp79
a(lp80
a(lp81
aa(lp82
(lp83
a(lp84
a(lp85
aa.