(lp1
(dp2
I0
(dp3
I0
(lp4
sI1
(lp5
sI2
(lp6
sI3
(lp7
ssI1
(dp8
I0
g5
sI1
(lp9
sI2
(lp10
sI3
(lp11
ssI2
(dp12
I0
g6
sI1
g10
sI2
(lp13
sI3
(lp14
ssI3
(dp15
I0
g7
sI1
g11
sI2
g14
sI3
(lp16
ssa(dp17
I0
(dp18
I0
(lp19
sI1
(lp20
sI2
(lp21
sI3
(lp22
ssI1
(dp23
I0
g20
sI1
(lp24
sI2
(lp25
sI3
(lp26
ssI2
(dp27
I0
g21
sI1
g25
sI2
(lp28
sI3
(lp29
ssI3
(dp30
I0
g22
sI1
g26
sI2
g29
sI3
(lp31
ssa(dp32
I0
(dp33
I0
(lp34
sI1
(lp35
sI2
(lp36
sI3
(lp37
ssI1
(dp38
I0
g35
sI1
(lp39
sI2
(lp40
Vhttp://dbpedia.org/ontology/wikiPageExternalLink
p41
asI3
(lp42
Vhttp://www.w3.org/ns/prov#wasDerivedFrom
p43
assI2
(dp44
I0
g36
sI1
g40
sI2
(lp45
sI3
(lp46
ssI3
(dp47
I0
g37
sI1
g42
sI2
g46
sI3
(lp48
ssa(dp49
I0
(dp50
I0
(lp51
sI1
(lp52
sI2
(lp53
sI3
(lp54
ssI1
(dp55
I0
g52
sI1
(lp56
sI2
(lp57
Vhttp://dbpedia.org/ontology/wikiPageExternalLink
p58
asI3
(lp59
Vhttp://www.w3.org/ns/prov#wasDerivedFrom
p60
assI2
(dp61
I0
g53
sI1
g57
sI2
(lp62
sI3
(lp63
ssI3
(dp64
I0
g54
sI1
g59
sI2
g63
sI3
(lp65
ssa(dp66
I0
(dp67
I0
(lp68
sI1
(lp69
sI2
(lp70
sI3
(lp71
ssI1
(dp72
I0
g69
sI1
(lp73
sI2
(lp74
sI3
(lp75
ssI2
(dp76
I1
g74
sI2
(lp77
sI3
(lp78
ssI3
(dp79
I1
g75
sI3
(lp80
ssa(dp81
I0
(dp82
I0
(lp83
sI1
(lp84
sI2
(lp85
sI3
(lp86
ssI1
(dp87
I0
g84
sI1
(lp88
sI2
(lp89
Vhttp://dbpedia.org/ontology/wikiPageExternalLink
p90
asI3
(lp91
Vhttp://www.w3.org/ns/prov#wasDerivedFrom
p92
assI2
(dp93
I0
g85
sI1
g89
sI2
(lp94
sI3
(lp95
ssI3
(dp96
I0
g86
sI1
g91
sI2
g95
sI3
(lp97
ssa(dp98
I0
(dp99
I0
(lp100
sI1
(lp101
sI2
(lp102
sI3
(lp103
ssI1
(dp104
I0
g101
sI1
(lp105
sI2
(lp106
Vhttp://dbpedia.org/ontology/wikiPageExternalLink
p107
asI3
(lp108
Vhttp://www.w3.org/ns/prov#wasDerivedFrom
p109
assI2
(dp110
I0
g102
sI1
g106
sI2
(lp111
sI3
(lp112
ssI3
(dp113
I0
g103
sI1
g108
sI2
g112
sI3
(lp114
ssa(dp115
I0
(dp116
I0
(lp117
sI1
(lp118
sI2
(lp119
sI3
(lp120
ssI1
(dp121
I0
g118
sI1
(lp122
sI2
(lp123
sI3
(lp124
Vhttp://www.w3.org/ns/prov#wasDerivedFrom
p125
assI2
(dp126
I0
g119
sI1
g123
sI2
(lp127
sI3
(lp128
ssI3
(dp129
I0
g120
sI1
g124
sI2
g128
sI3
(lp130
ssa(dp131
I0
(dp132
I0
(lp133
sI1
(lp134
sI2
(lp135
sI3
(lp136
ssI1
(dp137
I0
g134
sI1
(lp138
sI2
(lp139
sI3
(lp140
Vhttp://www.w3.org/ns/prov#wasDerivedFrom
p141
assI2
(dp142
I0
g135
sI1
g139
sI2
(lp143
sI3
(lp144
ssI3
(dp145
I0
g136
sI1
g140
sI2
g144
sI3
(lp146
ssa(dp147
I0
(dp148
I0
(lp149
sI1
(lp150
sI2
(lp151
sI3
(lp152
ssI1
(dp153
I0
g150
sI1
(lp154
sI2
(lp155
sI3
(lp156
ssI2
(dp157
I0
g151
sI1
g155
sI2
(lp158
sI3
(lp159
ssI3
(dp160
I0
g152
sI1
g156
sI2
g159
sI3
(lp161
ssa(dp162
I0
(dp163
I0
(lp164
sI1
(lp165
sI2
(lp166
sI3
(lp167
ssI1
(dp168
I0
g165
sI1
(lp169
sI2
(lp170
Vhttp://dbpedia.org/ontology/wikiPageExternalLink
p171
asI3
(lp172
Vhttp://www.w3.org/ns/prov#wasDerivedFrom
p173
assI2
(dp174
I0
g166
sI1
g170
sI2
(lp175
sI3
(lp176
ssI3
(dp177
I0
g167
sI1
g172
sI2
g176
sI3
(lp178
ssa(dp179
I0
(dp180
I0
(lp181
sI1
(lp182
sI2
(lp183
sI3
(lp184
ssI1
(dp185
I0
g182
sI1
(lp186
sI2
(lp187
sI3
(lp188
ssI2
(dp189
I1
g187
sI2
(lp190
sI3
(lp191
ssI3
(dp192
I1
g188
sI3
(lp193
ssa(dp194
I0
(dp195
I0
(lp196
sI1
(lp197
sI2
(lp198
sI3
(lp199
ssI1
(dp200
I0
g197
sI1
(lp201
sI2
(lp202
Vhttp://dbpedia.org/ontology/wikiPageExternalLink
p203
asI3
(lp204
Vhttp://www.w3.org/ns/prov#wasDerivedFrom
p205
assI2
(dp206
I0
g198
sI1
g202
sI2
(lp207
sI3
(lp208
ssI3
(dp209
I0
g199
sI1
g204
sI2
g208
sI3
(lp210
ssa(dp211
I0
(dp212
I0
(lp213
sI1
(lp214
sI2
(lp215
sI3
(lp216
ssI1
(dp217
I0
g214
sI1
(lp218
sI2
(lp219
sI3
(lp220
ssI2
(dp221
I0
g215
sI1
g219
sI2
(lp222
sI3
(lp223
ssI3
(dp224
I0
g216
sI1
g220
sI3
(lp225
ssa(dp226
I0
(dp227
I0
(lp228
sI1
(lp229
sI2
(lp230
sI3
(lp231
ssI1
(dp232
I0
g229
sI1
(lp233
sI2
(lp234
sI3
(lp235
ssI2
(dp236
I1
g234
sI2
(lp237
sI3
(lp238
ssI3
(dp239
I1
g235
sI3
(lp240
ssa(dp241
I0
(dp242
I0
(lp243
sI1
(lp244
sI2
(lp245
sI3
(lp246
ssI1
(dp247
I0
g244
sI1
(lp248
sI2
(lp249
sI3
(lp250
ssI2
(dp251
I1
g249
sI2
(lp252
sI3
(lp253
ssI3
(dp254
I1
g250
sI3
(lp255
ssa(dp256
I0
(dp257
I0
(lp258
sI1
(lp259
sI2
(lp260
sI3
(lp261
ssI1
(dp262
I0
g259
sI1
(lp263
sI2
(lp264
Vhttp://dbpedia.org/ontology/wikiPageExternalLink
p265
asI3
(lp266
Vhttp://www.w3.org/ns/prov#wasDerivedFrom
p267
assI2
(dp268
I0
g260
sI1
g264
sI2
(lp269
sI3
(lp270
ssI3
(dp271
I0
g261
sI1
g266
sI2
g270
sI3
(lp272
ssa(dp273
I0
(dp274
I0
(lp275
sI1
(lp276
sI2
(lp277
sI3
(lp278
ssI1
(dp279
I0
g276
sI1
(lp280
sI2
(lp281
Vhttp://dbpedia.org/ontology/wikiPageExternalLink
p282
asI3
(lp283
Vhttp://www.w3.org/ns/prov#wasDerivedFrom
p284
assI2
(dp285
I0
g277
sI1
g281
sI2
(lp286
sI3
(lp287
ssI3
(dp288
I0
g278
sI1
g283
sI2
g287
sI3
(lp289
ssa(dp290
I0
(dp291
I0
(lp292
sI1
(lp293
sI2
(lp294
sI3
(lp295
ssI1
(dp296
I0
g293
sI1
(lp297
sI2
(lp298
Vhttp://dbpedia.org/ontology/wikiPageExternalLink
p299
asI3
(lp300
Vhttp://www.w3.org/ns/prov#wasDerivedFrom
p301
assI2
(dp302
I0
g294
sI1
g298
sI2
(lp303
sI3
(lp304
ssI3
(dp305
I0
g295
sI1
g300
sI2
g304
sI3
(lp306
ssa.