(lp1
(lp2
(lp3
Vhttp://dbpedia.org/resource/Cook_Islands_dollar
p4
aa(lp5
aa(lp6
(lp7
Vhttp://dbpedia.org/resource/Guinean_franc
p8
aa(lp9
aa(lp10
(lp11
Vhttp://dbpedia.org/resource/Hamburg_Farms,_California
p12
aa(lp13
aa(lp14
(lp15
Vhttp://dbpedia.org/resource/West_African_CFA_franc
p16
aa(lp17
aa(lp18
(lp19
Vhttp://dbpedia.org/resource/Moroccan_dirham
p20
aa(lp21
aa(lp22
(lp23
Vhttp://dbpedia.org/resource/Netherlands_Antillean_guilder
p24
aa(lp25
aa(lp26
(lp27
a(lp28
aa(lp29
(lp30
Vhttp://dbpedia.org/resource/Rhodesian_dollar
p31
aa(lp32
aa(lp33
(lp34
Vhttp://dbpedia.org/resource/Rhodesian_pound
p35
aa(lp36
aa(lp37
(lp38
Vhttp://dbpedia.org/resource/Sudanese_pound
p39
aa(lp40
aa(lp41
(lp42
Vhttp://dbpedia.org/resource/Bermudian_pound
p43
aa(lp44
aa(lp45
(lp46
Vhttp://dbpedia.org/resource/Equatorial_Guinean_peseta
p47
aa(lp48
aa(lp49
(lp50
Vhttp://dbpedia.org/resource/Bhutanese_ngultrum
p51
aa(lp52
aa(lp53
(lp54
Vhttp://dbpedia.org/resource/Philippine_peso
p55
aa(lp56
aa(lp57
(lp58
Vhttp://dbpedia.org/resource/Afghan_afghani
p59
aa(lp60
aa(lp61
(lp62
Vhttp://dbpedia.org/resource/Austrian_schilling
p63
aa(lp64
aa(lp65
(lp66
Vhttp://dbpedia.org/resource/Estonian_kroon
p67
aa(lp68
aa(lp69
(lp70
Vhttp://dbpedia.org/resource/Guatemalan_quetzal
p71
aa(lp72
aa(lp73
(lp74
Vhttp://dbpedia.org/resource/Hungarian_forint
p75
aa(lp76
aa.