(lp1
(lp2
(lp3
a(lp4
Vhttp://dbpedia.org/resource/Palmar_digital_veins
p5
aa(lp6
Vhttp://dbpedia.org/resource/Venous_plexus
p7
aa(lp8
Vhttp://dbpedia.org/resource/Bronchial_veins
p9
aa(lp10
Vhttp://dbpedia.org/resource/Splenic_vein
p11
aa(lp12
Vhttp://dbpedia.org/resource/Hemiazygos_vein
p13
aa(lp14
Vhttp://dbpedia.org/resource/Vertebral_vein
p15
aa(lp16
Vhttp://dbpedia.org/resource/Straight_venules_of_kidney
p17
aa(lp18
Vhttp://dbpedia.org/resource/Dorsal_veins_of_the_penis
p19
aa(lp20
Vhttp://dbpedia.org/resource/Intervertebral_disc
p21
aa(lp22
Vhttp://dbpedia.org/resource/Spinal_veins
p23
aa(lp24
Vhttp://dbpedia.org/resource/Facial_vein
p25
aa(lp26
Vhttp://dbpedia.org/resource/Sublingual_vein
p27
aa(lp28
Vhttp://dbpedia.org/resource/Great_cerebral_vein
p29
aa(lp30
Vhttp://dbpedia.org/resource/Basivertebral_veins
p31
aa(lp32
Vhttp://dbpedia.org/resource/Rectal_venous_plexus
p33
aa(lp34
Vhttp://dbpedia.org/resource/Superior_ophthalmic_vein
p35
aa(lp36
Vhttp://dbpedia.org/resource/Intercavernous_sinuses
p37
aa(lp38
Vhttp://dbpedia.org/resource/Internal_auditory_veins
p39
aaa.