(lp1
(lp2
(lp3
a(lp4
Vhttp://dbpedia.org/resource/Botrychium_minganense
p5
aa(lp6
Vhttp://dbpedia.org/resource/Cheilanthes_feei
p7
aa(lp8
Vhttp://dbpedia.org/resource/Cibotium_barometz
p9
aa(lp10
Vhttp://dbpedia.org/resource/Cryptogramma_acrostichoides
p11
aa(lp12
Vhttp://dbpedia.org/resource/Cystopteris_bulbifera
p13
aa(lp14
a(lp15
Vhttp://dbpedia.org/resource/Cystopteris_protrusa
p16
aa(lp17
Vhttp://dbpedia.org/resource/Cystopteris_tenuis
p18
aa(lp19
Vhttp://dbpedia.org/resource/Dennstaedtia_punctilobula
p20
aa(lp21
Vhttp://dbpedia.org/resource/Deparia_acrostichoides
p22
aa(lp23
a(lp24
Vhttp://dbpedia.org/resource/Dryopteris_campyloptera
p25
aa(lp26
Vhttp://dbpedia.org/resource/Dryopteris_clintoniana
p27
aa(lp28
Vhttp://dbpedia.org/resource/Dryopteris_erythrosora
p29
aa(lp30
a(lp31
Vhttp://dbpedia.org/resource/Dryopteris_marginalis
p32
aa(lp33
Vhttp://dbpedia.org/resource/Equisetum_laevigatum
p34
aa(lp35
aa.