(lp1
(lp2
(lp3
a(lp4
a(lp5
aa(lp6
(lp7
a(lp8
a(lp9
aa(lp10
(lp11
((lp12
Vhttp://dbpedia.org/class/yago/AdministrativeDistrict108491826
p13
aVhttp://dbpedia.org/class/yago/City108524735
p14
aVhttp://dbpedia.org/class/yago/District108552138
p15
aVhttp://dbpedia.org/class/yago/Location100027167
p16
aVhttp://dbpedia.org/class/yago/Object100002684
p17
aVhttp://dbpedia.org/class/yago/Region108630985
p18
aVhttp://dbpedia.org/class/yago/Site108651247
p19
aVhttp://dbpedia.org/class/yago/Tract108673395
p20
aVhttp://dbpedia.org/class/yago/UrbanArea108675967
p21
aVhttp://dbpedia.org/class/yago/YagoGeoEntity
p22
aVhttp://dbpedia.org/class/yago/YagoLegalActorGeo
p23
aVhttp://www.w3.org/2002/07/owl#Thing
p24
aVhttp://dbpedia.org/ontology/Place
p25
aVhttp://dbpedia.org/ontology/Location
p26
aVhttp://www.wikidata.org/entity/Q486972
p27
aVhttp://www.wikidata.org/entity/Q515
p28
aVhttp://dbpedia.org/ontology/City
p29
aVhttp://dbpedia.org/ontology/PopulatedPlace
p30
aVhttp://dbpedia.org/ontology/Settlement
p31
aVhttp://www.w3.org/2003/01/geo/wgs84_pos#SpatialThing
p32
aVhttp://schema.org/City
p33
aVhttp://schema.org/Place
p34
aVhttp://umbel.org/umbel/rc/City
p35
aVhttp://umbel.org/umbel/rc/Village
p36
aVhttp://dbpedia.org/class/yago/CitiesInSanDiegoCounty,California
p37
aVhttp://dbpedia.org/class/yago/CitiesInSouthernCalifornia
p38
aVhttp://dbpedia.org/class/yago/YagoPermanentlyLocatedEntity
p39
aVhttp://dbpedia.org/class/yago/PopulatedPlacesEstablishedIn1887
p40
aVhttp://dbpedia.org/class/yago/PopulatedPlacesInCaliforniaWithHispanicMajorityPopulations
p41
aVhttp://dbpedia.org/class/yago/GeographicalArea108574314
p42
aVhttp://dbpedia.org/class/yago/IncorporatedCitiesAndTownsInCalifornia
p43
aVhttp://dbpedia.org/class/yago/Municipality108626283
p44
aVhttp://dbpedia.org/class/yago/PhysicalEntity100001930
p45
aVhttp://dbpedia.org/resource/Chula_Vista,_California
tp46
aa(lp47
a(lp48
aa(lp49
(lp50
a(lp51
a(lp52
aa(lp53
(lp54
a(lp55
a(lp56
aa(lp57
(lp58
a(lp59
a(lp60
aa(lp61
(lp62
a(lp63
a(lp64
aa(lp65
(lp66
a(lp67
a(lp68
aa(lp69
(lp70
((lp71
Vhttp://dbpedia.org/class/yago/Abstraction100002137
p72
aVhttp://dbpedia.org/class/yago/FootballTeam108080025
p73
aVhttp://dbpedia.org/class/yago/Group100031264
p74
aVhttp://dbpedia.org/class/yago/Organization108008335
p75
aVhttp://dbpedia.org/class/yago/SocialGroup107950920
p76
aVhttp://dbpedia.org/class/yago/Team108208560
p77
aVhttp://dbpedia.org/class/yago/Unit108189659
p78
aVhttp://dbpedia.org/class/yago/YagoLegalActorGeo
p79
aVhttp://www.w3.org/2002/07/owl#Thing
p80
aVhttp://www.ontologydesignpatterns.org/ont/dul/DUL.owl#Agent
p81
aVhttp://www.ontologydesignpatterns.org/ont/dul/DUL.owl#SocialPerson
p82
aVhttp://www.wikidata.org/entity/Q43229
p83
aVhttp://www.wikidata.org/entity/Q476028
p84
aVhttp://dbpedia.org/ontology/Agent
p85
aVhttp://dbpedia.org/ontology/Organisation
p86
aVhttp://dbpedia.org/ontology/SoccerClub
p87
aVhttp://dbpedia.org/ontology/SportsTeam
p88
aVhttp://schema.org/Organization
p89
aVhttp://schema.org/SportsTeam
p90
aVhttp://dbpedia.org/class/yago/YagoPermanentlyLocatedEntity
p91
aVhttp://dbpedia.org/class/yago/NationalSportsTeamsOfSpain
p92
aVhttp://dbpedia.org/class/yago/YagoLegalActor
p93
aVhttp://dbpedia.org/class/yago/Women'sNationalAssociationFootballTeams
p94
aVhttp://dbpedia.org/resource/Spain_women's_national_football_team
tp95
aa(lp96
a(lp97
aa(lp98
(lp99
a(lp100
a(lp101
aa(lp102
(lp103
a(lp104
a(lp105
aa(lp106
(lp107
a(lp108
a(lp109
aa(lp110
(lp111
((lp112
Vhttp://www.w3.org/2002/07/owl#Thing
p113
aVhttp://www.ontologydesignpatterns.org/ont/dul/DUL.owl#Agent
p114
aVhttp://www.ontologydesignpatterns.org/ont/dul/DUL.owl#SocialPerson
p115
aVhttp://www.wikidata.org/entity/Q43229
p116
aVhttp://www.wikidata.org/entity/Q476028
p117
aVhttp://dbpedia.org/ontology/Agent
p118
aVhttp://dbpedia.org/ontology/Organisation
p119
aVhttp://dbpedia.org/ontology/SoccerClub
p120
aVhttp://dbpedia.org/ontology/SportsTeam
p121
aVhttp://schema.org/Organization
p122
aVhttp://schema.org/SportsTeam
p123
aVhttp://dbpedia.org/resource/AFC_DWS
p124
tp125
aa(lp126
a(lp127
aa(lp128
(lp129
a(lp130
a(lp131
aa(lp132
(lp133
a(lp134
a(lp135
aa(lp136
(lp137
a(lp138
a(lp139
aa(lp140
(lp141
a(lp142
a(lp143
aa(lp144
(lp145
a(lp146
a(lp147
aa(lp148
(lp149
a(lp150
a(lp151
aa.