(lp1
(lp2
(lp3
((lp4
Vhttp://dbpedia.org/class/yago/AmericanPhotographers
p5
aVhttp://dbpedia.org/class/yago/Artist109812338
p6
aVhttp://dbpedia.org/class/yago/ArtistsFromCalifornia
p7
aVhttp://dbpedia.org/class/yago/CausalAgent100007347
p8
aVhttp://dbpedia.org/class/yago/Creator109614315
p9
aVhttp://dbpedia.org/class/yago/LivingThing100004258
p10
aVhttp://dbpedia.org/class/yago/Object100002684
p11
aVhttp://dbpedia.org/class/yago/Organism100004475
p12
aVhttp://dbpedia.org/class/yago/Person100007846
p13
aVhttp://dbpedia.org/class/yago/Photographer110426749
p14
aVhttp://dbpedia.org/class/yago/Whole100003553
p15
aVhttp://dbpedia.org/class/yago/YagoLegalActorGeo
p16
aVhttp://www.w3.org/2002/07/owl#Thing
p17
aVhttp://xmlns.com/foaf/0.1/Person
p18
aVhttp://dbpedia.org/ontology/Person
p19
aVhttp://www.ontologydesignpatterns.org/ont/dul/DUL.owl#Agent
p20
aVhttp://www.ontologydesignpatterns.org/ont/dul/DUL.owl#NaturalPerson
p21
aVhttp://www.wikidata.org/entity/Q215627
p22
aVhttp://www.wikidata.org/entity/Q33231
p23
aVhttp://www.wikidata.org/entity/Q483501
p24
aVhttp://www.wikidata.org/entity/Q5
p25
aVhttp://dbpedia.org/ontology/Agent
p26
aVhttp://dbpedia.org/ontology/Artist
p27
aVhttp://dbpedia.org/ontology/Photographer
p28
aVhttp://schema.org/Person
p29
aVhttp://dbpedia.org/class/yago/PeopleFromMontereyCounty,California
p30
aVhttp://dbpedia.org/class/yago/YagoLegalActor
p31
aVhttp://dbpedia.org/class/yago/PhysicalEntity100001930
p32
aVhttp://dbpedia.org/resource/Cole_Weston
tp33
aa(lp34
((lp35
Vhttp://www.w3.org/2002/07/owl#Thing
p36
aVhttp://xmlns.com/foaf/0.1/Person
p37
aVhttp://dbpedia.org/ontology/Person
p38
aVhttp://www.ontologydesignpatterns.org/ont/dul/DUL.owl#Agent
p39
aVhttp://www.ontologydesignpatterns.org/ont/dul/DUL.owl#NaturalPerson
p40
aVhttp://www.wikidata.org/entity/Q215627
p41
aVhttp://www.wikidata.org/entity/Q5
p42
aVhttp://dbpedia.org/ontology/Agent
p43
aVhttp://dbpedia.org/ontology/MilitaryPerson
p44
aVhttp://schema.org/Person
p45
aVhttp://dbpedia.org/resource/George_M._Cox
tp46
aa(lp47
((lp48
Vhttp://dbpedia.org/class/yago/AerialPhotographers
p49
aVhttp://dbpedia.org/class/yago/AmericanPhotographers
p50
aVhttp://dbpedia.org/class/yago/Artist109812338
p51
aVhttp://dbpedia.org/class/yago/CausalAgent100007347
p52
aVhttp://dbpedia.org/class/yago/Creator109614315
p53
aVhttp://dbpedia.org/class/yago/LivingThing100004258
p54
aVhttp://dbpedia.org/class/yago/Object100002684
p55
aVhttp://dbpedia.org/class/yago/Organism100004475
p56
aVhttp://dbpedia.org/class/yago/Person100007846
p57
aVhttp://dbpedia.org/class/yago/Photographer110426749
p58
aVhttp://dbpedia.org/class/yago/Whole100003553
p59
aVhttp://dbpedia.org/class/yago/YagoLegalActorGeo
p60
aVhttp://www.w3.org/2002/07/owl#Thing
p61
aVhttp://xmlns.com/foaf/0.1/Person
p62
aVhttp://dbpedia.org/ontology/Person
p63
aVhttp://www.ontologydesignpatterns.org/ont/dul/DUL.owl#Agent
p64
aVhttp://www.ontologydesignpatterns.org/ont/dul/DUL.owl#NaturalPerson
p65
aVhttp://www.wikidata.org/entity/Q215627
p66
aVhttp://www.wikidata.org/entity/Q33231
p67
aVhttp://www.wikidata.org/entity/Q483501
p68
aVhttp://www.wikidata.org/entity/Q5
p69
aVhttp://dbpedia.org/ontology/Agent
p70
aVhttp://dbpedia.org/ontology/Artist
p71
aVhttp://dbpedia.org/ontology/Photographer
p72
aVhttp://schema.org/Person
p73
aVhttp://dbpedia.org/class/yago/NaturePhotographers
p74
aVhttp://dbpedia.org/class/yago/YagoLegalActor
p75
aVhttp://dbpedia.org/class/yago/LivingPeople
p76
aVhttp://dbpedia.org/class/yago/PhysicalEntity100001930
p77
aVhttp://dbpedia.org/resource/Austin_Post
tp78
aa(lp79
((lp80
Vhttp://dbpedia.org/class/yago/Alumnus109786338
p81
aVhttp://dbpedia.org/class/yago/Artist109812338
p82
aVhttp://dbpedia.org/class/yago/CausalAgent100007347
p83
aVhttp://dbpedia.org/class/yago/Creator109614315
p84
aVhttp://dbpedia.org/class/yago/Diver110019552
p85
aVhttp://dbpedia.org/class/yago/Explorer110072708
p86
aVhttp://dbpedia.org/class/yago/Intellectual109621545
p87
aVhttp://dbpedia.org/class/yago/LivingThing100004258
p88
aVhttp://dbpedia.org/class/yago/Object100002684
p89
aVhttp://dbpedia.org/class/yago/Organism100004475
p90
aVhttp://dbpedia.org/class/yago/Person100007846
p91
aVhttp://dbpedia.org/class/yago/Photographer110426749
p92
aVhttp://dbpedia.org/class/yago/Scholar110557854
p93
aVhttp://dbpedia.org/class/yago/Whole100003553
p94
aVhttp://dbpedia.org/class/yago/YagoLegalActorGeo
p95
aVhttp://www.w3.org/2002/07/owl#Thing
p96
aVhttp://xmlns.com/foaf/0.1/Person
p97
aVhttp://dbpedia.org/ontology/Person
p98
aVhttp://www.ontologydesignpatterns.org/ont/dul/DUL.owl#Agent
p99
aVhttp://www.ontologydesignpatterns.org/ont/dul/DUL.owl#NaturalPerson
p100
aVhttp://www.wikidata.org/entity/Q215627
p101
aVhttp://www.wikidata.org/entity/Q33231
p102
aVhttp://www.wikidata.org/entity/Q483501
p103
aVhttp://www.wikidata.org/entity/Q5
p104
aVhttp://dbpedia.org/ontology/Agent
p105
aVhttp://dbpedia.org/ontology/Artist
p106
aVhttp://dbpedia.org/ontology/Photographer
p107
aVhttp://schema.org/Person
p108
aVhttp://dbpedia.org/class/yago/YagoLegalActor
p109
aVhttp://dbpedia.org/class/yago/PhysicalEntity100001930
p110
aVhttp://dbpedia.org/class/yago/UnderwaterDivers
p111
aVhttp://dbpedia.org/class/yago/UnderwaterPhotographers
p112
aVhttp://dbpedia.org/class/yago/YaleUniversityAlumni
p113
aVhttp://dbpedia.org/resource/Peter_Gimbel
tp114
aa(lp115
((lp116
Vhttp://dbpedia.org/class/yago/Alumnus109786338
p117
aVhttp://dbpedia.org/class/yago/Artist109812338
p118
aVhttp://dbpedia.org/class/yago/CausalAgent100007347
p119
aVhttp://dbpedia.org/class/yago/Creator109614315
p120
aVhttp://dbpedia.org/class/yago/Diver110019552
p121
aVhttp://dbpedia.org/class/yago/Explorer110072708
p122
aVhttp://dbpedia.org/class/yago/Intellectual109621545
p123
aVhttp://dbpedia.org/class/yago/LivingThing100004258
p124
aVhttp://dbpedia.org/class/yago/Object100002684
p125
aVhttp://dbpedia.org/class/yago/Organism100004475
p126
aVhttp://dbpedia.org/class/yago/Person100007846
p127
aVhttp://dbpedia.org/class/yago/Photographer110426749
p128
aVhttp://dbpedia.org/class/yago/Scholar110557854
p129
aVhttp://dbpedia.org/class/yago/Whole100003553
p130
aVhttp://dbpedia.org/class/yago/YagoLegalActorGeo
p131
aVhttp://www.w3.org/2002/07/owl#Thing
p132
aVhttp://xmlns.com/foaf/0.1/Person
p133
aVhttp://dbpedia.org/ontology/Person
p134
aVhttp://www.ontologydesignpatterns.org/ont/dul/DUL.owl#Agent
p135
aVhttp://www.ontologydesignpatterns.org/ont/dul/DUL.owl#NaturalPerson
p136
aVhttp://www.wikidata.org/entity/Q215627
p137
aVhttp://www.wikidata.org/entity/Q33231
p138
aVhttp://www.wikidata.org/entity/Q483501
p139
aVhttp://www.wikidata.org/entity/Q5
p140
aVhttp://dbpedia.org/ontology/Agent
p141
aVhttp://dbpedia.org/ontology/Artist
p142
aVhttp://dbpedia.org/ontology/Photographer
p143
aVhttp://schema.org/Person
p144
aVhttp://dbpedia.org/class/yago/DartmouthCollegeAlumni
p145
aVhttp://dbpedia.org/class/yago/YagoLegalActor
p146
aVhttp://dbpedia.org/class/yago/LivingPeople
p147
aVhttp://dbpedia.org/class/yago/PhysicalEntity100001930
p148
aVhttp://dbpedia.org/class/yago/UnderwaterDivers
p149
aVhttp://dbpedia.org/class/yago/UnderwaterPhotographers
p150
aVhttp://dbpedia.org/resource/Stan_Waterman
tp151
aa(lp152
a(lp153
a(lp154
a(lp155
((lp156
Vhttp://dbpedia.org/class/yago/AmericanPhotographers
p157
aVhttp://dbpedia.org/class/yago/Artist109812338
p158
aVhttp://dbpedia.org/class/yago/CausalAgent100007347
p159
aVhttp://dbpedia.org/class/yago/Creator109614315
p160
aVhttp://dbpedia.org/class/yago/LivingThing100004258
p161
aVhttp://dbpedia.org/class/yago/Object100002684
p162
aVhttp://dbpedia.org/class/yago/Organism100004475
p163
aVhttp://dbpedia.org/class/yago/Person100007846
p164
aVhttp://dbpedia.org/class/yago/Photographer110426749
p165
aVhttp://dbpedia.org/class/yago/Whole100003553
p166
aVhttp://dbpedia.org/class/yago/YagoLegalActorGeo
p167
aVhttp://www.w3.org/2002/07/owl#Thing
p168
aVhttp://xmlns.com/foaf/0.1/Person
p169
aVhttp://dbpedia.org/ontology/Person
p170
aVhttp://www.ontologydesignpatterns.org/ont/dul/DUL.owl#Agent
p171
aVhttp://www.ontologydesignpatterns.org/ont/dul/DUL.owl#NaturalPerson
p172
aVhttp://www.wikidata.org/entity/Q215627
p173
aVhttp://www.wikidata.org/entity/Q33231
p174
aVhttp://www.wikidata.org/entity/Q483501
p175
aVhttp://www.wikidata.org/entity/Q5
p176
aVhttp://dbpedia.org/ontology/Agent
p177
aVhttp://dbpedia.org/ontology/Artist
p178
aVhttp://dbpedia.org/ontology/Photographer
p179
aVhttp://schema.org/Person
p180
aVhttp://dbpedia.org/class/yago/YagoLegalActor
p181
aVhttp://dbpedia.org/class/yago/LivingPeople
p182
aVhttp://dbpedia.org/class/yago/PhysicalEntity100001930
p183
aVhttp://dbpedia.org/resource/Len_Prince
tp184
aa(lp185
((lp186
Vhttp://dbpedia.org/class/yago/AmericanPhotographers
p187
aVhttp://dbpedia.org/class/yago/Artist109812338
p188
aVhttp://dbpedia.org/class/yago/CausalAgent100007347
p189
aVhttp://dbpedia.org/class/yago/Creator109614315
p190
aVhttp://dbpedia.org/class/yago/LivingThing100004258
p191
aVhttp://dbpedia.org/class/yago/Object100002684
p192
aVhttp://dbpedia.org/class/yago/Organism100004475
p193
aVhttp://dbpedia.org/class/yago/Person100007846
p194
aVhttp://dbpedia.org/class/yago/Photographer110426749
p195
aVhttp://dbpedia.org/class/yago/Whole100003553
p196
aVhttp://dbpedia.org/class/yago/YagoLegalActorGeo
p197
aVhttp://www.w3.org/2002/07/owl#Thing
p198
aVhttp://xmlns.com/foaf/0.1/Person
p199
aVhttp://dbpedia.org/ontology/Person
p200
aVhttp://www.ontologydesignpatterns.org/ont/dul/DUL.owl#Agent
p201
aVhttp://www.ontologydesignpatterns.org/ont/dul/DUL.owl#NaturalPerson
p202
aVhttp://www.wikidata.org/entity/Q215627
p203
aVhttp://www.wikidata.org/entity/Q33231
p204
aVhttp://www.wikidata.org/entity/Q483501
p205
aVhttp://www.wikidata.org/entity/Q5
p206
aVhttp://dbpedia.org/ontology/Agent
p207
aVhttp://dbpedia.org/ontology/Artist
p208
aVhttp://dbpedia.org/ontology/Photographer
p209
aVhttp://schema.org/Person
p210
aVhttp://dbpedia.org/class/yago/PeopleFromBridgeport,Connecticut
p211
aVhttp://dbpedia.org/class/yago/YagoLegalActor
p212
aVhttp://dbpedia.org/class/yago/LivingPeople
p213
aVhttp://dbpedia.org/class/yago/PhysicalEntity100001930
p214
aVhttp://dbpedia.org/resource/Stuart_Rome
tp215
aa(lp216
a(lp217
((lp218
Vhttp://dbpedia.org/class/yago/AmericanPhotographers
p219
aVhttp://dbpedia.org/class/yago/Artist109812338
p220
aVhttp://dbpedia.org/class/yago/CausalAgent100007347
p221
aVhttp://dbpedia.org/class/yago/Creator109614315
p222
aVhttp://dbpedia.org/class/yago/LivingThing100004258
p223
aVhttp://dbpedia.org/class/yago/Object100002684
p224
aVhttp://dbpedia.org/class/yago/Organism100004475
p225
aVhttp://dbpedia.org/class/yago/Person100007846
p226
aVhttp://dbpedia.org/class/yago/Photographer110426749
p227
aVhttp://dbpedia.org/class/yago/Whole100003553
p228
aVhttp://dbpedia.org/class/yago/YagoLegalActorGeo
p229
aVhttp://dbpedia.org/class/yago/PortraitPhotographers
p230
aVhttp://www.w3.org/2002/07/owl#Thing
p231
aVhttp://xmlns.com/foaf/0.1/Person
p232
aVhttp://dbpedia.org/ontology/Person
p233
aVhttp://www.ontologydesignpatterns.org/ont/dul/DUL.owl#Agent
p234
aVhttp://www.ontologydesignpatterns.org/ont/dul/DUL.owl#NaturalPerson
p235
aVhttp://www.wikidata.org/entity/Q215627
p236
aVhttp://www.wikidata.org/entity/Q33231
p237
aVhttp://www.wikidata.org/entity/Q483501
p238
aVhttp://www.wikidata.org/entity/Q5
p239
aVhttp://dbpedia.org/ontology/Agent
p240
aVhttp://dbpedia.org/ontology/Artist
p241
aVhttp://dbpedia.org/ontology/Photographer
p242
aVhttp://schema.org/Person
p243
aVhttp://dbpedia.org/class/yago/CommercialPhotographers
p244
aVhttp://dbpedia.org/class/yago/YagoLegalActor
p245
aVhttp://dbpedia.org/class/yago/PhysicalEntity100001930
p246
aVhttp://dbpedia.org/resource/David_Bachrach
tp247
aa(lp248
a(lp249
((lp250
Vhttp://dbpedia.org/class/yago/AmericanPhotographers
p251
aVhttp://dbpedia.org/class/yago/Artist109812338
p252
aVhttp://dbpedia.org/class/yago/CausalAgent100007347
p253
aVhttp://dbpedia.org/class/yago/Creator109614315
p254
aVhttp://dbpedia.org/class/yago/LivingThing100004258
p255
aVhttp://dbpedia.org/class/yago/Object100002684
p256
aVhttp://dbpedia.org/class/yago/Organism100004475
p257
aVhttp://dbpedia.org/class/yago/Person100007846
p258
aVhttp://dbpedia.org/class/yago/Photographer110426749
p259
aVhttp://dbpedia.org/class/yago/Whole100003553
p260
aVhttp://dbpedia.org/class/yago/YagoLegalActorGeo
p261
aVhttp://www.w3.org/2002/07/owl#Thing
p262
aVhttp://xmlns.com/foaf/0.1/Person
p263
aVhttp://dbpedia.org/ontology/Person
p264
aVhttp://www.ontologydesignpatterns.org/ont/dul/DUL.owl#Agent
p265
aVhttp://www.ontologydesignpatterns.org/ont/dul/DUL.owl#NaturalPerson
p266
aVhttp://www.wikidata.org/entity/Q215627
p267
aVhttp://www.wikidata.org/entity/Q33231
p268
aVhttp://www.wikidata.org/entity/Q483501
p269
aVhttp://www.wikidata.org/entity/Q5
p270
aVhttp://dbpedia.org/ontology/Agent
p271
aVhttp://dbpedia.org/ontology/Artist
p272
aVhttp://dbpedia.org/ontology/Photographer
p273
aVhttp://schema.org/Person
p274
aVhttp://dbpedia.org/class/yago/YagoLegalActor
p275
aVhttp://dbpedia.org/class/yago/LivingPeople
p276
aVhttp://dbpedia.org/class/yago/PhysicalEntity100001930
p277
aVhttp://dbpedia.org/resource/Lorne_Resnick
tp278
aa(lp279
((lp280
Vhttp://dbpedia.org/class/yago/Alumnus109786338
p281
aVhttp://dbpedia.org/class/yago/AmericanPhotographers
p282
aVhttp://dbpedia.org/class/yago/Artist109812338
p283
aVhttp://dbpedia.org/class/yago/BardCollegeAlumni
p284
aVhttp://dbpedia.org/class/yago/CausalAgent100007347
p285
aVhttp://dbpedia.org/class/yago/Creator109614315
p286
aVhttp://dbpedia.org/class/yago/Intellectual109621545
p287
aVhttp://dbpedia.org/class/yago/LivingThing100004258
p288
aVhttp://dbpedia.org/class/yago/Object100002684
p289
aVhttp://dbpedia.org/class/yago/Organism100004475
p290
aVhttp://dbpedia.org/class/yago/Person100007846
p291
aVhttp://dbpedia.org/class/yago/Photographer110426749
p292
aVhttp://dbpedia.org/class/yago/Scholar110557854
p293
aVhttp://dbpedia.org/class/yago/Whole100003553
p294
aVhttp://dbpedia.org/class/yago/YagoLegalActorGeo
p295
aVhttp://www.w3.org/2002/07/owl#Thing
p296
aVhttp://xmlns.com/foaf/0.1/Person
p297
aVhttp://dbpedia.org/ontology/Person
p298
aVhttp://www.ontologydesignpatterns.org/ont/dul/DUL.owl#Agent
p299
aVhttp://www.ontologydesignpatterns.org/ont/dul/DUL.owl#NaturalPerson
p300
aVhttp://www.wikidata.org/entity/Q215627
p301
aVhttp://www.wikidata.org/entity/Q33231
p302
aVhttp://www.wikidata.org/entity/Q483501
p303
aVhttp://www.wikidata.org/entity/Q5
p304
aVhttp://dbpedia.org/ontology/Agent
p305
aVhttp://dbpedia.org/ontology/Artist
p306
aVhttp://dbpedia.org/ontology/Photographer
p307
aVhttp://schema.org/Person
p308
aVhttp://dbpedia.org/class/yago/YagoLegalActor
p309
aVhttp://dbpedia.org/class/yago/LivingPeople
p310
aVhttp://dbpedia.org/class/yago/PhysicalEntity100001930
p311
aVhttp://dbpedia.org/class/yago/YaleUniversityAlumni
p312
aVhttp://dbpedia.org/resource/Malerie_Marder
tp313
aa(lp314
((lp315
Vhttp://dbpedia.org/class/yago/AmericanPhotographers
p316
aVhttp://dbpedia.org/class/yago/Artist109812338
p317
aVhttp://dbpedia.org/class/yago/CausalAgent100007347
p318
aVhttp://dbpedia.org/class/yago/Creator109614315
p319
aVhttp://dbpedia.org/class/yago/LivingThing100004258
p320
aVhttp://dbpedia.org/class/yago/Object100002684
p321
aVhttp://dbpedia.org/class/yago/Organism100004475
p322
aVhttp://dbpedia.org/class/yago/Person100007846
p323
aVhttp://dbpedia.org/class/yago/Photographer110426749
p324
aVhttp://dbpedia.org/class/yago/Whole100003553
p325
aVhttp://dbpedia.org/class/yago/YagoLegalActorGeo
p326
aVhttp://www.w3.org/2002/07/owl#Thing
p327
aVhttp://xmlns.com/foaf/0.1/Person
p328
aVhttp://dbpedia.org/ontology/Person
p329
aVhttp://www.ontologydesignpatterns.org/ont/dul/DUL.owl#Agent
p330
aVhttp://www.ontologydesignpatterns.org/ont/dul/DUL.owl#NaturalPerson
p331
aVhttp://www.wikidata.org/entity/Q215627
p332
aVhttp://www.wikidata.org/entity/Q33231
p333
aVhttp://www.wikidata.org/entity/Q483501
p334
aVhttp://www.wikidata.org/entity/Q5
p335
aVhttp://dbpedia.org/ontology/Agent
p336
aVhttp://dbpedia.org/ontology/Artist
p337
aVhttp://dbpedia.org/ontology/Photographer
p338
aVhttp://schema.org/Person
p339
aVhttp://dbpedia.org/class/yago/NaturePhotographers
p340
aVhttp://dbpedia.org/class/yago/YagoLegalActor
p341
aVhttp://dbpedia.org/class/yago/LivingPeople
p342
aVhttp://dbpedia.org/class/yago/PhysicalEntity100001930
p343
aVhttp://dbpedia.org/class/yago/WarPhotographers
p344
aVhttp://dbpedia.org/class/yago/WomenPhotographers
p345
aVhttp://dbpedia.org/resource/Evelyn_Hockstein
tp346
aa(lp347
((lVhttp://dbpedia.org/resource/Keith_Davis_(NY_Giants_linebacker)
tp348
aa(lp349
((lp350
Vhttp://dbpedia.org/class/yago/AmericanPhotographers
p351
aVhttp://dbpedia.org/class/yago/AmericanRecordProducers
p352
aVhttp://dbpedia.org/class/yago/Artist109812338
p353
aVhttp://dbpedia.org/class/yago/CausalAgent100007347
p354
aVhttp://dbpedia.org/class/yago/Creator109614315
p355
aVhttp://dbpedia.org/class/yago/Emigrant110051975
p356
aVhttp://dbpedia.org/class/yago/LivingThing100004258
p357
aVhttp://dbpedia.org/class/yago/Maker110284064
p358
aVhttp://dbpedia.org/class/yago/Manufacturer110292316
p359
aVhttp://dbpedia.org/class/yago/Object100002684
p360
aVhttp://dbpedia.org/class/yago/Organism100004475
p361
aVhttp://dbpedia.org/class/yago/Person100007846
p362
aVhttp://dbpedia.org/class/yago/Photographer110426749
p363
aVhttp://dbpedia.org/class/yago/Traveler109629752
p364
aVhttp://dbpedia.org/class/yago/Whole100003553
p365
aVhttp://dbpedia.org/class/yago/YagoLegalActorGeo
p366
aVhttp://www.w3.org/2002/07/owl#Thing
p367
aVhttp://xmlns.com/foaf/0.1/Person
p368
aVhttp://dbpedia.org/ontology/Person
p369
aVhttp://www.ontologydesignpatterns.org/ont/dul/DUL.owl#Agent
p370
aVhttp://www.ontologydesignpatterns.org/ont/dul/DUL.owl#NaturalPerson
p371
aVhttp://www.wikidata.org/entity/Q215627
p372
aVhttp://www.wikidata.org/entity/Q33231
p373
aVhttp://www.wikidata.org/entity/Q483501
p374
aVhttp://www.wikidata.org/entity/Q5
p375
aVhttp://dbpedia.org/ontology/Agent
p376
aVhttp://dbpedia.org/ontology/Artist
p377
aVhttp://dbpedia.org/ontology/Photographer
p378
aVhttp://schema.org/Person
p379
aVhttp://dbpedia.org/class/yago/PeopleFromBerlin
p380
aVhttp://dbpedia.org/class/yago/PeopleFromNewYorkCity
p381
aVhttp://dbpedia.org/class/yago/YagoLegalActor
p382
aVhttp://dbpedia.org/class/yago/GermanEmigrantsToTheUnitedStates
p383
aVhttp://dbpedia.org/class/yago/GermanPhotographers
p384
aVhttp://dbpedia.org/class/yago/JazzRecordProducers
p385
aVhttp://dbpedia.org/class/yago/Migrant110314952
p386
aVhttp://dbpedia.org/class/yago/PhysicalEntity100001930
p387
aVhttp://dbpedia.org/resource/Francis_Wolff
tp388
aa(lp389
((lp390
Vhttp://dbpedia.org/class/yago/AmericanNuclearEngineers
p391
aVhttp://dbpedia.org/class/yago/AmericanPhotographers
p392
aVhttp://dbpedia.org/class/yago/Artist109812338
p393
aVhttp://dbpedia.org/class/yago/CausalAgent100007347
p394
aVhttp://dbpedia.org/class/yago/Creator109614315
p395
aVhttp://dbpedia.org/class/yago/Engineer109615807
p396
aVhttp://dbpedia.org/class/yago/LivingThing100004258
p397
aVhttp://dbpedia.org/class/yago/Object100002684
p398
aVhttp://dbpedia.org/class/yago/Organism100004475
p399
aVhttp://dbpedia.org/class/yago/Person100007846
p400
aVhttp://dbpedia.org/class/yago/Photographer110426749
p401
aVhttp://dbpedia.org/class/yago/Whole100003553
p402
aVhttp://dbpedia.org/class/yago/YagoLegalActorGeo
p403
aVhttp://www.w3.org/2002/07/owl#Thing
p404
aVhttp://xmlns.com/foaf/0.1/Person
p405
aVhttp://dbpedia.org/ontology/Person
p406
aVhttp://www.ontologydesignpatterns.org/ont/dul/DUL.owl#Agent
p407
aVhttp://www.ontologydesignpatterns.org/ont/dul/DUL.owl#NaturalPerson
p408
aVhttp://www.wikidata.org/entity/Q215627
p409
aVhttp://www.wikidata.org/entity/Q33231
p410
aVhttp://www.wikidata.org/entity/Q483501
p411
aVhttp://www.wikidata.org/entity/Q5
p412
aVhttp://dbpedia.org/ontology/Agent
p413
aVhttp://dbpedia.org/ontology/Artist
p414
aVhttp://dbpedia.org/ontology/Photographer
p415
aVhttp://schema.org/Person
p416
aVhttp://dbpedia.org/class/yago/YagoLegalActor
p417
aVhttp://dbpedia.org/class/yago/LivingPeople
p418
aVhttp://dbpedia.org/class/yago/ManhattanProjectPeople
p419
aVhttp://dbpedia.org/class/yago/PhysicalEntity100001930
p420
aVhttp://dbpedia.org/resource/Jack_Aeby
p421
tp422
aaa.