(lp1
(dp2
I0
(dp3
I0
(lp4
sI1
(lp5
sI2
(lp6
sI3
(lp7
sI4
(lp8
sI5
(lp9
sI6
(lp10
sI7
(lp11
sI8
(lp12
sI9
(lp13
sI10
(lp14
sI11
(lp15
sI12
(lp16
sI13
(lp17
sI14
(lp18
sI15
(lp19
sI16
(lp20
sI17
(lp21
sI18
(lp22
ssI1
(dp23
I0
g5
sI1
(lp24
sI2
(lp25
sI3
(lp26
sI4
(lp27
sI5
(lp28
sI6
(lp29
sI7
(lp30
sI8
(lp31
sI9
(lp32
sI10
(lp33
sI11
(lp34
sI12
(lp35
sI13
(lp36
sI14
(lp37
sI15
(lp38
sI16
(lp39
sI17
(lp40
sI18
(lp41
ssI2
(dp42
I0
g6
sI1
g25
sI2
(lp43
sI3
(lp44
sI4
(lp45
sI5
(lp46
sI6
(lp47
sI7
(lp48
sI8
(lp49
sI9
(lp50
sI10
(lp51
sI11
(lp52
sI12
(lp53
sI13
(lp54
sI14
(lp55
sI15
(lp56
sI16
(lp57
sI17
(lp58
Vhttp://dbpedia.org/property/caption
p59
aVhttp://dbpedia.org/ontology/abstract
p60
aVhttp://www.w3.org/2000/01/rdf-schema#label
p61
aVhttp://dbpedia.org/property/name
p62
aVhttp://www.w3.org/2000/01/rdf-schema#comment
p63
asI18
(lp64
ssI3
(dp65
I0
g7
sI1
g26
sI2
g44
sI3
(lp66
sI4
(lp67
sI5
(lp68
sI6
(lp69
sI7
(lp70
sI8
(lp71
sI9
(lp72
sI10
(lp73
sI11
(lp74
sI12
(lp75
sI13
(lp76
sI14
(lp77
sI15
(lp78
sI16
(lp79
sI17
(lp80
sI18
(lp81
ssI4
(dp82
I0
g8
sI1
g27
sI2
g45
sI3
g67
sI4
(lp83
sI5
(lp84
sI6
(lp85
sI7
(lp86
sI8
(lp87
sI9
(lp88
sI10
(lp89
sI11
(lp90
sI12
(lp91
sI13
(lp92
sI14
(lp93
sI15
(lp94
sI16
(lp95
sI17
(lp96
sI18
(lp97
ssI5
(dp98
I0
g9
sI1
g28
sI2
g46
sI3
g68
sI4
g84
sI5
(lp99
sI6
(lp100
sI7
(lp101
sI8
(lp102
sI9
(lp103
sI10
(lp104
sI11
(lp105
sI12
(lp106
sI13
(lp107
sI14
(lp108
sI15
(lp109
sI16
(lp110
sI17
(lp111
sI18
(lp112
ssI6
(dp113
I0
g10
sI1
g29
sI2
g47
sI3
g69
sI4
g85
sI5
g100
sI6
(lp114
sI7
(lp115
sI8
(lp116
sI9
(lp117
sI10
(lp118
sI11
(lp119
sI12
(lp120
sI13
(lp121
sI14
(lp122
sI15
(lp123
sI16
(lp124
sI17
(lp125
sI18
(lp126
ssI7
(dp127
I0
g11
sI1
g30
sI2
g48
sI3
g70
sI4
g86
sI5
g101
sI6
g115
sI7
(lp128
sI8
(lp129
sI9
(lp130
sI10
(lp131
sI11
(lp132
sI12
(lp133
sI13
(lp134
sI14
(lp135
sI15
(lp136
sI16
(lp137
sI17
(lp138
sI18
(lp139
ssI8
(dp140
I0
g12
sI1
g31
sI2
g49
sI3
g71
sI4
g87
sI5
g102
sI6
g116
sI7
g129
sI8
(lp141
sI9
(lp142
sI10
(lp143
sI11
(lp144
sI12
(lp145
sI13
(lp146
sI14
(lp147
sI15
(lp148
sI16
(lp149
sI17
(lp150
sI18
(lp151
ssI9
(dp152
I0
g13
sI1
g32
sI2
g50
sI3
g72
sI4
g88
sI5
g103
sI6
g117
sI7
g130
sI8
g142
sI9
(lp153
sI10
(lp154
sI11
(lp155
sI12
(lp156
sI13
(lp157
sI14
(lp158
sI15
(lp159
sI16
(lp160
sI17
(lp161
sI18
(lp162
ssI10
(dp163
I0
g14
sI1
g33
sI2
g51
sI3
g73
sI4
g89
sI5
g104
sI6
g118
sI7
g131
sI8
g143
sI9
g154
sI10
(lp164
sI11
(lp165
sI12
(lp166
sI13
(lp167
sI14
(lp168
sI15
(lp169
sI16
(lp170
sI17
(lp171
sI18
(lp172
ssI11
(dp173
I0
g15
sI1
g34
sI2
g52
sI3
g74
sI4
g90
sI5
g105
sI6
g119
sI7
g132
sI8
g144
sI9
g155
sI10
g165
sI11
(lp174
sI12
(lp175
sI13
(lp176
sI14
(lp177
sI15
(lp178
sI16
(lp179
sI17
(lp180
sI18
(lp181
ssI12
(dp182
I0
g16
sI1
g35
sI2
g53
sI3
g75
sI4
g91
sI5
g106
sI6
g120
sI7
g133
sI8
g145
sI9
g156
sI10
g166
sI11
g175
sI12
(lp183
sI13
(lp184
sI14
(lp185
Vhttp://dbpedia.org/property/caption
p186
aVhttp://dbpedia.org/ontology/abstract
p187
aVhttp://www.w3.org/2000/01/rdf-schema#label
p188
aVhttp://dbpedia.org/property/name
p189
aVhttp://www.w3.org/2000/01/rdf-schema#comment
p190
asI15
(lp191
sI16
(lp192
sI17
(lp193
sI18
(lp194
ssI13
(dp195
I0
g17
sI1
g36
sI2
g54
sI3
g76
sI4
g92
sI5
g107
sI6
g121
sI7
g134
sI8
g146
sI9
g157
sI10
g167
sI11
g176
sI12
g184
sI13
(lp196
sI14
(lp197
sI15
(lp198
sI16
(lp199
sI17
(lp200
sI18
(lp201
ssI14
(dp202
I0
g18
sI1
g37
sI2
g55
sI3
g77
sI4
g93
sI5
g108
sI6
g122
sI7
g135
sI8
g147
sI9
g158
sI10
g168
sI11
g177
sI12
g185
sI13
g197
sI14
(lp203
sI15
(lp204
sI16
(lp205
sI17
(lp206
sI18
(lp207
ssI15
(dp208
I0
g19
sI1
g38
sI2
g56
sI3
g78
sI4
g94
sI5
g109
sI6
g123
sI7
g136
sI8
g148
sI9
g159
sI10
g169
sI11
g178
sI12
g191
sI13
g198
sI14
g204
sI15
(lp209
sI16
(lp210
sI17
(lp211
sI18
(lp212
ssI16
(dp213
I0
g20
sI1
g39
sI2
g57
sI3
g79
sI4
g95
sI5
g110
sI6
g124
sI7
g137
sI8
g149
sI9
g160
sI10
g170
sI11
g179
sI12
g192
sI13
g199
sI14
g205
sI15
g210
sI16
(lp214
sI17
(lp215
sI18
(lp216
ssI17
(dp217
I0
g21
sI1
g40
sI2
g58
sI3
g80
sI4
g96
sI5
g111
sI6
g125
sI7
g138
sI8
g150
sI9
g161
sI10
g171
sI11
g180
sI12
g193
sI13
g200
sI14
g206
sI15
g211
sI16
g215
sI17
(lp218
sI18
(lp219
ssI18
(dp220
I0
g22
sI1
g41
sI2
g64
sI3
g81
sI4
g97
sI5
g112
sI6
g126
sI7
g139
sI8
g151
sI9
g162
sI10
g172
sI11
g181
sI12
g194
sI13
g201
sI14
g207
sI15
g212
sI16
g216
sI17
g219
sI18
(lp221
ssa.