(lp1
(lp2
(lp3
a(lp4
a(lp5
a(lp6
a(lp7
a(lp8
a(lp9
a(lp10
Vhttp://dbpedia.org/resource/Mickey's_Mechanical_House
p11
aa(lp12
a(lp13
Vhttp://dbpedia.org/resource/Cat's_Paw_(film)
p14
aa(lp15
Vhttp://dbpedia.org/resource/Acoelorrhaphe
p16
aa(lp17
Vhttp://dbpedia.org/resource/The_Heckling_Hare
p18
aa(lp19
a(lp20
Vhttp://dbpedia.org/resource/Transylvania_6-5000_(1985_film)
p21
aa(lp22
Vhttp://dbpedia.org/resource/All_This_and_Rabbit_Stew
p23
aa(lp24
Vhttp://dbpedia.org/resource/Boo_Moon
p25
aa(lp26
Vhttp://dbpedia.org/resource/Buddy_the_Detective
p27
aa(lp28
Vhttp://dbpedia.org/resource/Little_Bo_Peep
p29
aa(lp30
Vhttp://dbpedia.org/resource/Little_Red_Riding_Rabbit
p31
aaa.